; ModuleID = 'SimParameters.C'
source_filename = "SimParameters.C"
target datalayout = "e-m:e-p270:32:32-p271:32:32-p272:64:64-i64:64-f80:128-n8:16:32:64-S128"
target triple = "x86_64-unknown-linux-gnu"

%class.SimParameters = type { %class.Vector, %class.Vector, %class.Vector, %class.Vector, i32, i32, double, i32, double, double, double, i32, double, double, i32, double, double, i32, i32, i32, i32, i32, i32, i32, i32, i32, i32, i32, i32, i32, i32, i32, i32, i32, double, double, i32, double, i32, i32, double, double, double, i32, double, i32, i32, i32, i32, i32, double, double, double, double, i32, i32, double, i32, i32, i32, i32, double, i32, i32, %class.Lattice }
%class.Vector = type { double, double, double }
%class.Lattice = type <{ %class.Vector, %class.Vector, %class.Vector, %class.Vector, %class.Vector, %class.Vector, %class.Vector, i32, i32, i32, [4 x i8] }>
%struct._IO_FILE = type { i32, i8*, i8*, i8*, i8*, i8*, i8*, i8*, i8*, i8*, i8*, i8*, %struct._IO_marker*, %struct._IO_FILE*, i32, i32, i64, i16, i8, [1 x i8], i8*, i64, %struct._IO_codecvt*, %struct._IO_wide_data*, %struct._IO_FILE*, i8*, i64, i32, [20 x i8] }
%struct._IO_marker = type opaque
%struct._IO_codecvt = type opaque
%struct._IO_wide_data = type opaque

$_ZN6VectorC2Ev = comdat any

$_ZN7LatticeC2Ev = comdat any

$_ZN6VectorC2Eddd = comdat any

$_Z11parse_paramPKcS0_S0_R6Vector = comdat any

$_Z11parse_paramPKcS0_S0_Ri = comdat any

$_Z11parse_paramPKcS0_S0_Rd = comdat any

$_ZN7Lattice3setE6VectorS0_S0_S0_ = comdat any

$_ZN6Vector3setEPKc = comdat any

$_ZNK6Vector7length2Ev = comdat any

$_ZdvRK6VectorRKd = comdat any

$_ZNK6Vector6lengthEv = comdat any

$_ZmlRK6VectorS1_ = comdat any

$_Z5crossRK6VectorS1_ = comdat any

$_ZN6VectordVERKd = comdat any

$_ZNK7Lattice6volumeEv = comdat any

$_ZN6VectormLERKd = comdat any

$_ZN7Lattice11recalculateEv = comdat any

@.str = private unnamed_addr constant [17 x i8] c"cellBasisVector1\00", align 1
@.str.1 = private unnamed_addr constant [17 x i8] c"cellBasisVector2\00", align 1
@.str.2 = private unnamed_addr constant [17 x i8] c"cellBasisVector3\00", align 1
@.str.3 = private unnamed_addr constant [11 x i8] c"cellOrigin\00", align 1
@.str.4 = private unnamed_addr constant [19 x i8] c"nonbondedFrequency\00", align 1
@.str.5 = private unnamed_addr constant [19 x i8] c"fullElectFrequency\00", align 1
@.str.6 = private unnamed_addr constant [11 x i8] c"dielectric\00", align 1
@.str.7 = private unnamed_addr constant [8 x i8] c"exclude\00", align 1
@.str.8 = private unnamed_addr constant [8 x i8] c"scale14\00", align 1
@.str.9 = private unnamed_addr constant [17 x i8] c"nonbondedScaling\00", align 1
@.str.10 = private unnamed_addr constant [7 x i8] c"cutoff\00", align 1
@.str.11 = private unnamed_addr constant [16 x i8] c"switchingActive\00", align 1
@.str.12 = private unnamed_addr constant [14 x i8] c"switchingDist\00", align 1
@.str.13 = private unnamed_addr constant [13 x i8] c"pairlistDist\00", align 1
@.str.14 = private unnamed_addr constant [7 x i8] c"alchOn\00", align 1
@.str.15 = private unnamed_addr constant [11 x i8] c"alchLambda\00", align 1
@.str.16 = private unnamed_addr constant [12 x i8] c"alchLambda2\00", align 1
@.str.17 = private unnamed_addr constant [12 x i8] c"alchOutFreq\00", align 1
@.str.18 = private unnamed_addr constant [15 x i8] c"alchEquilSteps\00", align 1
@.str.19 = private unnamed_addr constant [18 x i8] c"alchVdwShiftCoeff\00", align 1
@.str.20 = private unnamed_addr constant [18 x i8] c"pressureProfileOn\00", align 1
@.str.21 = private unnamed_addr constant [21 x i8] c"pressureProfileSlabs\00", align 1
@.str.22 = private unnamed_addr constant [20 x i8] c"pressureProfileFreq\00", align 1
@.str.23 = private unnamed_addr constant [6 x i8] c"lesOn\00", align 1
@.str.24 = private unnamed_addr constant [10 x i8] c"lesFactor\00", align 1
@.str.25 = private unnamed_addr constant [18 x i8] c"pairInteractionOn\00", align 1
@.str.26 = private unnamed_addr constant [22 x i8] c"pairInteractionGroup1\00", align 1
@.str.27 = private unnamed_addr constant [22 x i8] c"pairInteractionGroup2\00", align 1
@.str.28 = private unnamed_addr constant [20 x i8] c"pairInteractionSelf\00", align 1
@.str.29 = private unnamed_addr constant [13 x i8] c"fixedAtomsOn\00", align 1
@.str.30 = private unnamed_addr constant [17 x i8] c"fixedAtomsForces\00", align 1
@.str.31 = private unnamed_addr constant [6 x i8] c"FMAOn\00", align 1
@.str.32 = private unnamed_addr constant [13 x i8] c"fullDirectOn\00", align 1
@.str.33 = private unnamed_addr constant [6 x i8] c"PMEOn\00", align 1
@.str.34 = private unnamed_addr constant [13 x i8] c"PMETolerance\00", align 1
@.str.35 = private unnamed_addr constant [20 x i8] c"PMEEwaldCoefficient\00", align 1
@.str.36 = private unnamed_addr constant [14 x i8] c"longSplitting\00", align 1
@.str.37 = private unnamed_addr constant [13 x i8] c"hgroupCutoff\00", align 1
@.str.38 = private unnamed_addr constant [8 x i8] c"mollyOn\00", align 1
@.str.39 = private unnamed_addr constant [9 x i8] c"commOnly\00", align 1
@.str.40 = private unnamed_addr constant [21 x i8] c"SIMPARAMETERS_BEGIN\0A\00", align 1
@.str.41 = private unnamed_addr constant [29 x i8] c"Missing SIMPARAMETERS_BEGIN\0A\00", align 1
@.str.42 = private unnamed_addr constant [27 x i8] c"Missing SIMPARAMETERS_END\0A\00", align 1
@.str.43 = private unnamed_addr constant [19 x i8] c"SIMPARAMETERS_END\0A\00", align 1
@.str.44 = private unnamed_addr constant [2 x i8] c" \00", align 1
@.str.45 = private unnamed_addr constant [2 x i8] c"#\00", align 1
@.str.46 = private unnamed_addr constant [22 x i8] c"Missing value for %s\0A\00", align 1
@.str.47 = private unnamed_addr constant [21 x i8] c"Bad parameter %s %s\0A\00", align 1
@.str.48 = private unnamed_addr constant [30 x i8] c"%lf%99[ \09,]%lf%99[ \09,]%lf%99s\00", align 1

@_ZN13SimParametersC1Ev = dso_local unnamed_addr alias void (%class.SimParameters*), void (%class.SimParameters*)* @_ZN13SimParametersC2Ev

; Function Attrs: noinline uwtable
define dso_local void @_ZN13SimParametersC2Ev(%class.SimParameters* %this) unnamed_addr #0 align 2 !dbg !649 {
entry:
  %this.addr = alloca %class.SimParameters*, align 8
  %ref.tmp = alloca %class.Vector, align 8
  %ref.tmp3 = alloca %class.Vector, align 8
  %ref.tmp5 = alloca %class.Vector, align 8
  %ref.tmp7 = alloca %class.Vector, align 8
  store %class.SimParameters* %this, %class.SimParameters** %this.addr, align 8
  call void @llvm.dbg.declare(metadata %class.SimParameters** %this.addr, metadata !951, metadata !DIExpression()), !dbg !953
  %this1 = load %class.SimParameters*, %class.SimParameters** %this.addr, align 8
  %cellBasisVector1 = getelementptr inbounds %class.SimParameters, %class.SimParameters* %this1, i32 0, i32 0, !dbg !954
  call void @_ZN6VectorC2Ev(%class.Vector* %cellBasisVector1), !dbg !954
  %cellBasisVector2 = getelementptr inbounds %class.SimParameters, %class.SimParameters* %this1, i32 0, i32 1, !dbg !954
  call void @_ZN6VectorC2Ev(%class.Vector* %cellBasisVector2), !dbg !954
  %cellBasisVector3 = getelementptr inbounds %class.SimParameters, %class.SimParameters* %this1, i32 0, i32 2, !dbg !954
  call void @_ZN6VectorC2Ev(%class.Vector* %cellBasisVector3), !dbg !954
  %cellOrigin = getelementptr inbounds %class.SimParameters, %class.SimParameters* %this1, i32 0, i32 3, !dbg !954
  call void @_ZN6VectorC2Ev(%class.Vector* %cellOrigin), !dbg !954
  %lattice = getelementptr inbounds %class.SimParameters, %class.SimParameters* %this1, i32 0, i32 64, !dbg !954
  call void @_ZN7LatticeC2Ev(%class.Lattice* %lattice), !dbg !954
  call void @_ZN6VectorC2Eddd(%class.Vector* %ref.tmp, double 0.000000e+00, double 0.000000e+00, double 0.000000e+00), !dbg !955
  %cellBasisVector12 = getelementptr inbounds %class.SimParameters, %class.SimParameters* %this1, i32 0, i32 0, !dbg !955
  %0 = bitcast %class.Vector* %cellBasisVector12 to i8*, !dbg !955
  %1 = bitcast %class.Vector* %ref.tmp to i8*, !dbg !955
  call void @llvm.memcpy.p0i8.p0i8.i64(i8* align 8 %0, i8* align 8 %1, i64 24, i1 false), !dbg !955
  call void @_ZN6VectorC2Eddd(%class.Vector* %ref.tmp3, double 0.000000e+00, double 0.000000e+00, double 0.000000e+00), !dbg !958
  %cellBasisVector24 = getelementptr inbounds %class.SimParameters, %class.SimParameters* %this1, i32 0, i32 1, !dbg !958
  %2 = bitcast %class.Vector* %cellBasisVector24 to i8*, !dbg !958
  %3 = bitcast %class.Vector* %ref.tmp3 to i8*, !dbg !958
  call void @llvm.memcpy.p0i8.p0i8.i64(i8* align 8 %2, i8* align 8 %3, i64 24, i1 false), !dbg !958
  call void @_ZN6VectorC2Eddd(%class.Vector* %ref.tmp5, double 0.000000e+00, double 0.000000e+00, double 0.000000e+00), !dbg !959
  %cellBasisVector36 = getelementptr inbounds %class.SimParameters, %class.SimParameters* %this1, i32 0, i32 2, !dbg !959
  %4 = bitcast %class.Vector* %cellBasisVector36 to i8*, !dbg !959
  %5 = bitcast %class.Vector* %ref.tmp5 to i8*, !dbg !959
  call void @llvm.memcpy.p0i8.p0i8.i64(i8* align 8 %4, i8* align 8 %5, i64 24, i1 false), !dbg !959
  call void @_ZN6VectorC2Eddd(%class.Vector* %ref.tmp7, double 0.000000e+00, double 0.000000e+00, double 0.000000e+00), !dbg !960
  %cellOrigin8 = getelementptr inbounds %class.SimParameters, %class.SimParameters* %this1, i32 0, i32 3, !dbg !960
  %6 = bitcast %class.Vector* %cellOrigin8 to i8*, !dbg !960
  %7 = bitcast %class.Vector* %ref.tmp7 to i8*, !dbg !960
  call void @llvm.memcpy.p0i8.p0i8.i64(i8* align 8 %6, i8* align 8 %7, i64 24, i1 false), !dbg !960
  %nonbondedFrequency = getelementptr inbounds %class.SimParameters, %class.SimParameters* %this1, i32 0, i32 4, !dbg !961
  store i32 0, i32* %nonbondedFrequency, align 8, !dbg !961
  %fullElectFrequency = getelementptr inbounds %class.SimParameters, %class.SimParameters* %this1, i32 0, i32 5, !dbg !962
  store i32 0, i32* %fullElectFrequency, align 4, !dbg !962
  %dielectric = getelementptr inbounds %class.SimParameters, %class.SimParameters* %this1, i32 0, i32 6, !dbg !963
  store double 0.000000e+00, double* %dielectric, align 8, !dbg !963
  %exclude = getelementptr inbounds %class.SimParameters, %class.SimParameters* %this1, i32 0, i32 7, !dbg !964
  store i32 0, i32* %exclude, align 8, !dbg !964
  %scale14 = getelementptr inbounds %class.SimParameters, %class.SimParameters* %this1, i32 0, i32 8, !dbg !965
  store double 0.000000e+00, double* %scale14, align 8, !dbg !965
  %nonbondedScaling = getelementptr inbounds %class.SimParameters, %class.SimParameters* %this1, i32 0, i32 9, !dbg !966
  store double 0.000000e+00, double* %nonbondedScaling, align 8, !dbg !966
  %cutoff = getelementptr inbounds %class.SimParameters, %class.SimParameters* %this1, i32 0, i32 10, !dbg !967
  store double 0.000000e+00, double* %cutoff, align 8, !dbg !967
  %switchingActive = getelementptr inbounds %class.SimParameters, %class.SimParameters* %this1, i32 0, i32 11, !dbg !968
  store i32 0, i32* %switchingActive, align 8, !dbg !968
  %switchingDist = getelementptr inbounds %class.SimParameters, %class.SimParameters* %this1, i32 0, i32 12, !dbg !969
  store double 0.000000e+00, double* %switchingDist, align 8, !dbg !969
  %pairlistDist = getelementptr inbounds %class.SimParameters, %class.SimParameters* %this1, i32 0, i32 13, !dbg !970
  store double 0.000000e+00, double* %pairlistDist, align 8, !dbg !970
  %alchOn = getelementptr inbounds %class.SimParameters, %class.SimParameters* %this1, i32 0, i32 14, !dbg !971
  store i32 0, i32* %alchOn, align 8, !dbg !971
  %alchLambda = getelementptr inbounds %class.SimParameters, %class.SimParameters* %this1, i32 0, i32 15, !dbg !972
  store double 0.000000e+00, double* %alchLambda, align 8, !dbg !972
  %alchLambda2 = getelementptr inbounds %class.SimParameters, %class.SimParameters* %this1, i32 0, i32 16, !dbg !973
  store double 0.000000e+00, double* %alchLambda2, align 8, !dbg !973
  %alchOutFreq = getelementptr inbounds %class.SimParameters, %class.SimParameters* %this1, i32 0, i32 17, !dbg !974
  store i32 0, i32* %alchOutFreq, align 8, !dbg !974
  %alchEquilSteps = getelementptr inbounds %class.SimParameters, %class.SimParameters* %this1, i32 0, i32 18, !dbg !975
  store i32 0, i32* %alchEquilSteps, align 4, !dbg !975
  %alchVdwShiftCoeff = getelementptr inbounds %class.SimParameters, %class.SimParameters* %this1, i32 0, i32 19, !dbg !976
  store i32 0, i32* %alchVdwShiftCoeff, align 8, !dbg !976
  %pressureProfileOn = getelementptr inbounds %class.SimParameters, %class.SimParameters* %this1, i32 0, i32 20, !dbg !977
  store i32 0, i32* %pressureProfileOn, align 4, !dbg !977
  %pressureProfileSlabs = getelementptr inbounds %class.SimParameters, %class.SimParameters* %this1, i32 0, i32 21, !dbg !978
  store i32 0, i32* %pressureProfileSlabs, align 8, !dbg !978
  %pressureProfileFreq = getelementptr inbounds %class.SimParameters, %class.SimParameters* %this1, i32 0, i32 22, !dbg !979
  store i32 0, i32* %pressureProfileFreq, align 4, !dbg !979
  %lesOn = getelementptr inbounds %class.SimParameters, %class.SimParameters* %this1, i32 0, i32 23, !dbg !980
  store i32 0, i32* %lesOn, align 8, !dbg !980
  %lesFactor = getelementptr inbounds %class.SimParameters, %class.SimParameters* %this1, i32 0, i32 24, !dbg !981
  store i32 0, i32* %lesFactor, align 4, !dbg !981
  %pairInteractionOn = getelementptr inbounds %class.SimParameters, %class.SimParameters* %this1, i32 0, i32 25, !dbg !982
  store i32 0, i32* %pairInteractionOn, align 8, !dbg !982
  %pairInteractionGroup1 = getelementptr inbounds %class.SimParameters, %class.SimParameters* %this1, i32 0, i32 26, !dbg !983
  store i32 0, i32* %pairInteractionGroup1, align 4, !dbg !983
  %pairInteractionGroup2 = getelementptr inbounds %class.SimParameters, %class.SimParameters* %this1, i32 0, i32 27, !dbg !984
  store i32 0, i32* %pairInteractionGroup2, align 8, !dbg !984
  %pairInteractionSelf = getelementptr inbounds %class.SimParameters, %class.SimParameters* %this1, i32 0, i32 28, !dbg !985
  store i32 0, i32* %pairInteractionSelf, align 4, !dbg !985
  %fixedAtomsOn = getelementptr inbounds %class.SimParameters, %class.SimParameters* %this1, i32 0, i32 29, !dbg !986
  store i32 0, i32* %fixedAtomsOn, align 8, !dbg !986
  %fixedAtomsForces = getelementptr inbounds %class.SimParameters, %class.SimParameters* %this1, i32 0, i32 30, !dbg !987
  store i32 0, i32* %fixedAtomsForces, align 4, !dbg !987
  %FMAOn = getelementptr inbounds %class.SimParameters, %class.SimParameters* %this1, i32 0, i32 31, !dbg !988
  store i32 0, i32* %FMAOn, align 8, !dbg !988
  %fullDirectOn = getelementptr inbounds %class.SimParameters, %class.SimParameters* %this1, i32 0, i32 32, !dbg !989
  store i32 0, i32* %fullDirectOn, align 4, !dbg !989
  %PMEOn = getelementptr inbounds %class.SimParameters, %class.SimParameters* %this1, i32 0, i32 33, !dbg !990
  store i32 0, i32* %PMEOn, align 8, !dbg !990
  %PMETolerance = getelementptr inbounds %class.SimParameters, %class.SimParameters* %this1, i32 0, i32 34, !dbg !991
  store double 0.000000e+00, double* %PMETolerance, align 8, !dbg !991
  %PMEEwaldCoefficient = getelementptr inbounds %class.SimParameters, %class.SimParameters* %this1, i32 0, i32 35, !dbg !992
  store double 0.000000e+00, double* %PMEEwaldCoefficient, align 8, !dbg !992
  %longSplitting = getelementptr inbounds %class.SimParameters, %class.SimParameters* %this1, i32 0, i32 36, !dbg !993
  store i32 0, i32* %longSplitting, align 8, !dbg !993
  %hgroupCutoff = getelementptr inbounds %class.SimParameters, %class.SimParameters* %this1, i32 0, i32 37, !dbg !994
  store double 0.000000e+00, double* %hgroupCutoff, align 8, !dbg !994
  %mollyOn = getelementptr inbounds %class.SimParameters, %class.SimParameters* %this1, i32 0, i32 38, !dbg !995
  store i32 0, i32* %mollyOn, align 8, !dbg !995
  %commOnly = getelementptr inbounds %class.SimParameters, %class.SimParameters* %this1, i32 0, i32 39, !dbg !996
  store i32 0, i32* %commOnly, align 4, !dbg !996
  %loweAndersenCutoff = getelementptr inbounds %class.SimParameters, %class.SimParameters* %this1, i32 0, i32 40, !dbg !997
  store double 0.000000e+00, double* %loweAndersenCutoff, align 8, !dbg !997
  %dt = getelementptr inbounds %class.SimParameters, %class.SimParameters* %this1, i32 0, i32 41, !dbg !998
  store double 0.000000e+00, double* %dt, align 8, !dbg !998
  %loweAndersenRate = getelementptr inbounds %class.SimParameters, %class.SimParameters* %this1, i32 0, i32 42, !dbg !999
  store double 0.000000e+00, double* %loweAndersenRate, align 8, !dbg !999
  %rigidBonds = getelementptr inbounds %class.SimParameters, %class.SimParameters* %this1, i32 0, i32 43, !dbg !1000
  store i32 0, i32* %rigidBonds, align 8, !dbg !1000
  %loweAndersenTemp = getelementptr inbounds %class.SimParameters, %class.SimParameters* %this1, i32 0, i32 44, !dbg !1001
  store double 0.000000e+00, double* %loweAndersenTemp, align 8, !dbg !1001
  %alchFepOn = getelementptr inbounds %class.SimParameters, %class.SimParameters* %this1, i32 0, i32 45, !dbg !1002
  store i32 0, i32* %alchFepOn, align 8, !dbg !1002
  %alchFepWCARepuOn = getelementptr inbounds %class.SimParameters, %class.SimParameters* %this1, i32 0, i32 46, !dbg !1003
  store i32 0, i32* %alchFepWCARepuOn, align 4, !dbg !1003
  %alchFepWCADispOn = getelementptr inbounds %class.SimParameters, %class.SimParameters* %this1, i32 0, i32 47, !dbg !1004
  store i32 0, i32* %alchFepWCADispOn, align 8, !dbg !1004
  %alchThermIntOn = getelementptr inbounds %class.SimParameters, %class.SimParameters* %this1, i32 0, i32 48, !dbg !1005
  store i32 0, i32* %alchThermIntOn, align 4, !dbg !1005
  %tabulatedEnergies = getelementptr inbounds %class.SimParameters, %class.SimParameters* %this1, i32 0, i32 49, !dbg !1006
  store i32 0, i32* %tabulatedEnergies, align 8, !dbg !1006
  %alchFepWCArcut1 = getelementptr inbounds %class.SimParameters, %class.SimParameters* %this1, i32 0, i32 50, !dbg !1007
  store double 0.000000e+00, double* %alchFepWCArcut1, align 8, !dbg !1007
  %alchFepWCArcut2 = getelementptr inbounds %class.SimParameters, %class.SimParameters* %this1, i32 0, i32 51, !dbg !1008
  store double 0.000000e+00, double* %alchFepWCArcut2, align 8, !dbg !1008
  %alchVdwLambdaEnd = getelementptr inbounds %class.SimParameters, %class.SimParameters* %this1, i32 0, i32 52, !dbg !1009
  store double 0.000000e+00, double* %alchVdwLambdaEnd, align 8, !dbg !1009
  %alchElecLambdaStart = getelementptr inbounds %class.SimParameters, %class.SimParameters* %this1, i32 0, i32 53, !dbg !1010
  store double 0.000000e+00, double* %alchElecLambdaStart, align 8, !dbg !1010
  %alchDecouple = getelementptr inbounds %class.SimParameters, %class.SimParameters* %this1, i32 0, i32 54, !dbg !1011
  store i32 0, i32* %alchDecouple, align 8, !dbg !1011
  %accelMDOn = getelementptr inbounds %class.SimParameters, %class.SimParameters* %this1, i32 0, i32 55, !dbg !1012
  store i32 0, i32* %accelMDOn, align 4, !dbg !1012
  %drudeNbtholeCut = getelementptr inbounds %class.SimParameters, %class.SimParameters* %this1, i32 0, i32 56, !dbg !1013
  store double 0.000000e+00, double* %drudeNbtholeCut, align 8, !dbg !1013
  %drudeOn = getelementptr inbounds %class.SimParameters, %class.SimParameters* %this1, i32 0, i32 57, !dbg !1014
  store i32 0, i32* %drudeOn, align 8, !dbg !1014
  %pressureProfileAtomTypes = getelementptr inbounds %class.SimParameters, %class.SimParameters* %this1, i32 0, i32 58, !dbg !1015
  store i32 0, i32* %pressureProfileAtomTypes, align 4, !dbg !1015
  %MSMOn = getelementptr inbounds %class.SimParameters, %class.SimParameters* %this1, i32 0, i32 59, !dbg !1016
  store i32 0, i32* %MSMOn, align 8, !dbg !1016
  %MSMSplit = getelementptr inbounds %class.SimParameters, %class.SimParameters* %this1, i32 0, i32 60, !dbg !1017
  store i32 0, i32* %MSMSplit, align 4, !dbg !1017
  %limitDist = getelementptr inbounds %class.SimParameters, %class.SimParameters* %this1, i32 0, i32 61, !dbg !1018
  store double 0.000000e+00, double* %limitDist, align 8, !dbg !1018
  %vdwForceSwitching = getelementptr inbounds %class.SimParameters, %class.SimParameters* %this1, i32 0, i32 62, !dbg !1019
  store i32 0, i32* %vdwForceSwitching, align 8, !dbg !1019
  %martiniSwitching = getelementptr inbounds %class.SimParameters, %class.SimParameters* %this1, i32 0, i32 63, !dbg !1020
  store i32 0, i32* %martiniSwitching, align 4, !dbg !1020
  ret void, !dbg !1021
}

; Function Attrs: nounwind readnone speculatable willreturn
declare void @llvm.dbg.declare(metadata, metadata, metadata) #1

; Function Attrs: noinline nounwind uwtable
define linkonce_odr dso_local void @_ZN6VectorC2Ev(%class.Vector* %this) unnamed_addr #2 comdat align 2 !dbg !1022 {
entry:
  %this.addr = alloca %class.Vector*, align 8
  store %class.Vector* %this, %class.Vector** %this.addr, align 8
  call void @llvm.dbg.declare(metadata %class.Vector** %this.addr, metadata !1023, metadata !DIExpression()), !dbg !1025
  %this1 = load %class.Vector*, %class.Vector** %this.addr, align 8
  %x = getelementptr inbounds %class.Vector, %class.Vector* %this1, i32 0, i32 0, !dbg !1026
  store double -9.999900e+04, double* %x, align 8, !dbg !1026
  %y = getelementptr inbounds %class.Vector, %class.Vector* %this1, i32 0, i32 1, !dbg !1027
  store double -9.999900e+04, double* %y, align 8, !dbg !1027
  %z = getelementptr inbounds %class.Vector, %class.Vector* %this1, i32 0, i32 2, !dbg !1028
  store double -9.999900e+04, double* %z, align 8, !dbg !1028
  ret void, !dbg !1029
}

; Function Attrs: noinline uwtable
define linkonce_odr dso_local void @_ZN7LatticeC2Ev(%class.Lattice* %this) unnamed_addr #0 comdat align 2 !dbg !1030 {
entry:
  %this.addr = alloca %class.Lattice*, align 8
  store %class.Lattice* %this, %class.Lattice** %this.addr, align 8
  call void @llvm.dbg.declare(metadata %class.Lattice** %this.addr, metadata !1031, metadata !DIExpression()), !dbg !1033
  %this1 = load %class.Lattice*, %class.Lattice** %this.addr, align 8
  %a1 = getelementptr inbounds %class.Lattice, %class.Lattice* %this1, i32 0, i32 0, !dbg !1034
  call void @_ZN6VectorC2Eddd(%class.Vector* %a1, double 0.000000e+00, double 0.000000e+00, double 0.000000e+00), !dbg !1034
  %a2 = getelementptr inbounds %class.Lattice, %class.Lattice* %this1, i32 0, i32 1, !dbg !1035
  call void @_ZN6VectorC2Eddd(%class.Vector* %a2, double 0.000000e+00, double 0.000000e+00, double 0.000000e+00), !dbg !1035
  %a3 = getelementptr inbounds %class.Lattice, %class.Lattice* %this1, i32 0, i32 2, !dbg !1036
  call void @_ZN6VectorC2Eddd(%class.Vector* %a3, double 0.000000e+00, double 0.000000e+00, double 0.000000e+00), !dbg !1036
  %b1 = getelementptr inbounds %class.Lattice, %class.Lattice* %this1, i32 0, i32 3, !dbg !1037
  call void @_ZN6VectorC2Eddd(%class.Vector* %b1, double 0.000000e+00, double 0.000000e+00, double 0.000000e+00), !dbg !1037
  %b2 = getelementptr inbounds %class.Lattice, %class.Lattice* %this1, i32 0, i32 4, !dbg !1038
  call void @_ZN6VectorC2Eddd(%class.Vector* %b2, double 0.000000e+00, double 0.000000e+00, double 0.000000e+00), !dbg !1038
  %b3 = getelementptr inbounds %class.Lattice, %class.Lattice* %this1, i32 0, i32 5, !dbg !1039
  call void @_ZN6VectorC2Eddd(%class.Vector* %b3, double 0.000000e+00, double 0.000000e+00, double 0.000000e+00), !dbg !1039
  %o = getelementptr inbounds %class.Lattice, %class.Lattice* %this1, i32 0, i32 6, !dbg !1040
  call void @_ZN6VectorC2Eddd(%class.Vector* %o, double 0.000000e+00, double 0.000000e+00, double 0.000000e+00), !dbg !1040
  %p1 = getelementptr inbounds %class.Lattice, %class.Lattice* %this1, i32 0, i32 7, !dbg !1041
  store i32 0, i32* %p1, align 8, !dbg !1041
  %p2 = getelementptr inbounds %class.Lattice, %class.Lattice* %this1, i32 0, i32 8, !dbg !1042
  store i32 0, i32* %p2, align 4, !dbg !1042
  %p3 = getelementptr inbounds %class.Lattice, %class.Lattice* %this1, i32 0, i32 9, !dbg !1043
  store i32 0, i32* %p3, align 8, !dbg !1043
  ret void, !dbg !1044
}

; Function Attrs: noinline nounwind uwtable
define linkonce_odr dso_local void @_ZN6VectorC2Eddd(%class.Vector* %this, double %newx, double %newy, double %newz) unnamed_addr #2 comdat align 2 !dbg !1045 {
entry:
  %this.addr = alloca %class.Vector*, align 8
  %newx.addr = alloca double, align 8
  %newy.addr = alloca double, align 8
  %newz.addr = alloca double, align 8
  store %class.Vector* %this, %class.Vector** %this.addr, align 8
  call void @llvm.dbg.declare(metadata %class.Vector** %this.addr, metadata !1046, metadata !DIExpression()), !dbg !1047
  store double %newx, double* %newx.addr, align 8
  call void @llvm.dbg.declare(metadata double* %newx.addr, metadata !1048, metadata !DIExpression()), !dbg !1049
  store double %newy, double* %newy.addr, align 8
  call void @llvm.dbg.declare(metadata double* %newy.addr, metadata !1050, metadata !DIExpression()), !dbg !1051
  store double %newz, double* %newz.addr, align 8
  call void @llvm.dbg.declare(metadata double* %newz.addr, metadata !1052, metadata !DIExpression()), !dbg !1053
  %this1 = load %class.Vector*, %class.Vector** %this.addr, align 8
  %x = getelementptr inbounds %class.Vector, %class.Vector* %this1, i32 0, i32 0, !dbg !1054
  %0 = load double, double* %newx.addr, align 8, !dbg !1055
  store double %0, double* %x, align 8, !dbg !1054
  %y = getelementptr inbounds %class.Vector, %class.Vector* %this1, i32 0, i32 1, !dbg !1056
  %1 = load double, double* %newy.addr, align 8, !dbg !1057
  store double %1, double* %y, align 8, !dbg !1056
  %z = getelementptr inbounds %class.Vector, %class.Vector* %this1, i32 0, i32 2, !dbg !1058
  %2 = load double, double* %newz.addr, align 8, !dbg !1059
  store double %2, double* %z, align 8, !dbg !1058
  ret void, !dbg !1060
}

; Function Attrs: argmemonly nounwind willreturn
declare void @llvm.memcpy.p0i8.p0i8.i64(i8* noalias nocapture writeonly, i8* noalias nocapture readonly, i64, i1 immarg) #3

; Function Attrs: noinline uwtable
define dso_local i32 @_ZN13SimParameters8setparamEPKcS1_(%class.SimParameters* %this, i8* %param, i8* %value) #0 align 2 !dbg !1061 {
entry:
  %retval = alloca i32, align 4
  %this.addr = alloca %class.SimParameters*, align 8
  %param.addr = alloca i8*, align 8
  %value.addr = alloca i8*, align 8
  store %class.SimParameters* %this, %class.SimParameters** %this.addr, align 8
  call void @llvm.dbg.declare(metadata %class.SimParameters** %this.addr, metadata !1062, metadata !DIExpression()), !dbg !1063
  store i8* %param, i8** %param.addr, align 8
  call void @llvm.dbg.declare(metadata i8** %param.addr, metadata !1064, metadata !DIExpression()), !dbg !1065
  store i8* %value, i8** %value.addr, align 8
  call void @llvm.dbg.declare(metadata i8** %value.addr, metadata !1066, metadata !DIExpression()), !dbg !1067
  %this1 = load %class.SimParameters*, %class.SimParameters** %this.addr, align 8
  %0 = load i8*, i8** %param.addr, align 8, !dbg !1068
  %1 = load i8*, i8** %value.addr, align 8, !dbg !1068
  %cellBasisVector1 = getelementptr inbounds %class.SimParameters, %class.SimParameters* %this1, i32 0, i32 0, !dbg !1068
  %call = call i32 @_Z11parse_paramPKcS0_S0_R6Vector(i8* %0, i8* getelementptr inbounds ([17 x i8], [17 x i8]* @.str, i64 0, i64 0), i8* %1, %class.Vector* dereferenceable(24) %cellBasisVector1), !dbg !1068
  %tobool = icmp ne i32 %call, 0, !dbg !1068
  br i1 %tobool, label %if.then, label %if.end, !dbg !1071

if.then:                                          ; preds = %entry
  store i32 0, i32* %retval, align 4, !dbg !1068
  br label %return, !dbg !1068

if.end:                                           ; preds = %entry
  %2 = load i8*, i8** %param.addr, align 8, !dbg !1072
  %3 = load i8*, i8** %value.addr, align 8, !dbg !1072
  %cellBasisVector2 = getelementptr inbounds %class.SimParameters, %class.SimParameters* %this1, i32 0, i32 1, !dbg !1072
  %call2 = call i32 @_Z11parse_paramPKcS0_S0_R6Vector(i8* %2, i8* getelementptr inbounds ([17 x i8], [17 x i8]* @.str.1, i64 0, i64 0), i8* %3, %class.Vector* dereferenceable(24) %cellBasisVector2), !dbg !1072
  %tobool3 = icmp ne i32 %call2, 0, !dbg !1072
  br i1 %tobool3, label %if.then4, label %if.end5, !dbg !1074

if.then4:                                         ; preds = %if.end
  store i32 0, i32* %retval, align 4, !dbg !1072
  br label %return, !dbg !1072

if.end5:                                          ; preds = %if.end
  %4 = load i8*, i8** %param.addr, align 8, !dbg !1075
  %5 = load i8*, i8** %value.addr, align 8, !dbg !1075
  %cellBasisVector3 = getelementptr inbounds %class.SimParameters, %class.SimParameters* %this1, i32 0, i32 2, !dbg !1075
  %call6 = call i32 @_Z11parse_paramPKcS0_S0_R6Vector(i8* %4, i8* getelementptr inbounds ([17 x i8], [17 x i8]* @.str.2, i64 0, i64 0), i8* %5, %class.Vector* dereferenceable(24) %cellBasisVector3), !dbg !1075
  %tobool7 = icmp ne i32 %call6, 0, !dbg !1075
  br i1 %tobool7, label %if.then8, label %if.end9, !dbg !1077

if.then8:                                         ; preds = %if.end5
  store i32 0, i32* %retval, align 4, !dbg !1075
  br label %return, !dbg !1075

if.end9:                                          ; preds = %if.end5
  %6 = load i8*, i8** %param.addr, align 8, !dbg !1078
  %7 = load i8*, i8** %value.addr, align 8, !dbg !1078
  %cellOrigin = getelementptr inbounds %class.SimParameters, %class.SimParameters* %this1, i32 0, i32 3, !dbg !1078
  %call10 = call i32 @_Z11parse_paramPKcS0_S0_R6Vector(i8* %6, i8* getelementptr inbounds ([11 x i8], [11 x i8]* @.str.3, i64 0, i64 0), i8* %7, %class.Vector* dereferenceable(24) %cellOrigin), !dbg !1078
  %tobool11 = icmp ne i32 %call10, 0, !dbg !1078
  br i1 %tobool11, label %if.then12, label %if.end13, !dbg !1080

if.then12:                                        ; preds = %if.end9
  store i32 0, i32* %retval, align 4, !dbg !1078
  br label %return, !dbg !1078

if.end13:                                         ; preds = %if.end9
  %8 = load i8*, i8** %param.addr, align 8, !dbg !1081
  %9 = load i8*, i8** %value.addr, align 8, !dbg !1081
  %nonbondedFrequency = getelementptr inbounds %class.SimParameters, %class.SimParameters* %this1, i32 0, i32 4, !dbg !1081
  %call14 = call i32 @_Z11parse_paramPKcS0_S0_Ri(i8* %8, i8* getelementptr inbounds ([19 x i8], [19 x i8]* @.str.4, i64 0, i64 0), i8* %9, i32* dereferenceable(4) %nonbondedFrequency), !dbg !1081
  %tobool15 = icmp ne i32 %call14, 0, !dbg !1081
  br i1 %tobool15, label %if.then16, label %if.end17, !dbg !1083

if.then16:                                        ; preds = %if.end13
  store i32 0, i32* %retval, align 4, !dbg !1081
  br label %return, !dbg !1081

if.end17:                                         ; preds = %if.end13
  %10 = load i8*, i8** %param.addr, align 8, !dbg !1084
  %11 = load i8*, i8** %value.addr, align 8, !dbg !1084
  %fullElectFrequency = getelementptr inbounds %class.SimParameters, %class.SimParameters* %this1, i32 0, i32 5, !dbg !1084
  %call18 = call i32 @_Z11parse_paramPKcS0_S0_Ri(i8* %10, i8* getelementptr inbounds ([19 x i8], [19 x i8]* @.str.5, i64 0, i64 0), i8* %11, i32* dereferenceable(4) %fullElectFrequency), !dbg !1084
  %tobool19 = icmp ne i32 %call18, 0, !dbg !1084
  br i1 %tobool19, label %if.then20, label %if.end21, !dbg !1086

if.then20:                                        ; preds = %if.end17
  store i32 0, i32* %retval, align 4, !dbg !1084
  br label %return, !dbg !1084

if.end21:                                         ; preds = %if.end17
  %12 = load i8*, i8** %param.addr, align 8, !dbg !1087
  %13 = load i8*, i8** %value.addr, align 8, !dbg !1087
  %dielectric = getelementptr inbounds %class.SimParameters, %class.SimParameters* %this1, i32 0, i32 6, !dbg !1087
  %call22 = call i32 @_Z11parse_paramPKcS0_S0_Rd(i8* %12, i8* getelementptr inbounds ([11 x i8], [11 x i8]* @.str.6, i64 0, i64 0), i8* %13, double* dereferenceable(8) %dielectric), !dbg !1087
  %tobool23 = icmp ne i32 %call22, 0, !dbg !1087
  br i1 %tobool23, label %if.then24, label %if.end25, !dbg !1089

if.then24:                                        ; preds = %if.end21
  store i32 0, i32* %retval, align 4, !dbg !1087
  br label %return, !dbg !1087

if.end25:                                         ; preds = %if.end21
  %14 = load i8*, i8** %param.addr, align 8, !dbg !1090
  %15 = load i8*, i8** %value.addr, align 8, !dbg !1090
  %exclude = getelementptr inbounds %class.SimParameters, %class.SimParameters* %this1, i32 0, i32 7, !dbg !1090
  %call26 = call i32 @_Z11parse_paramPKcS0_S0_Ri(i8* %14, i8* getelementptr inbounds ([8 x i8], [8 x i8]* @.str.7, i64 0, i64 0), i8* %15, i32* dereferenceable(4) %exclude), !dbg !1090
  %tobool27 = icmp ne i32 %call26, 0, !dbg !1090
  br i1 %tobool27, label %if.then28, label %if.end29, !dbg !1092

if.then28:                                        ; preds = %if.end25
  store i32 0, i32* %retval, align 4, !dbg !1090
  br label %return, !dbg !1090

if.end29:                                         ; preds = %if.end25
  %16 = load i8*, i8** %param.addr, align 8, !dbg !1093
  %17 = load i8*, i8** %value.addr, align 8, !dbg !1093
  %scale14 = getelementptr inbounds %class.SimParameters, %class.SimParameters* %this1, i32 0, i32 8, !dbg !1093
  %call30 = call i32 @_Z11parse_paramPKcS0_S0_Rd(i8* %16, i8* getelementptr inbounds ([8 x i8], [8 x i8]* @.str.8, i64 0, i64 0), i8* %17, double* dereferenceable(8) %scale14), !dbg !1093
  %tobool31 = icmp ne i32 %call30, 0, !dbg !1093
  br i1 %tobool31, label %if.then32, label %if.end33, !dbg !1095

if.then32:                                        ; preds = %if.end29
  store i32 0, i32* %retval, align 4, !dbg !1093
  br label %return, !dbg !1093

if.end33:                                         ; preds = %if.end29
  %18 = load i8*, i8** %param.addr, align 8, !dbg !1096
  %19 = load i8*, i8** %value.addr, align 8, !dbg !1096
  %nonbondedScaling = getelementptr inbounds %class.SimParameters, %class.SimParameters* %this1, i32 0, i32 9, !dbg !1096
  %call34 = call i32 @_Z11parse_paramPKcS0_S0_Rd(i8* %18, i8* getelementptr inbounds ([17 x i8], [17 x i8]* @.str.9, i64 0, i64 0), i8* %19, double* dereferenceable(8) %nonbondedScaling), !dbg !1096
  %tobool35 = icmp ne i32 %call34, 0, !dbg !1096
  br i1 %tobool35, label %if.then36, label %if.end37, !dbg !1098

if.then36:                                        ; preds = %if.end33
  store i32 0, i32* %retval, align 4, !dbg !1096
  br label %return, !dbg !1096

if.end37:                                         ; preds = %if.end33
  %20 = load i8*, i8** %param.addr, align 8, !dbg !1099
  %21 = load i8*, i8** %value.addr, align 8, !dbg !1099
  %cutoff = getelementptr inbounds %class.SimParameters, %class.SimParameters* %this1, i32 0, i32 10, !dbg !1099
  %call38 = call i32 @_Z11parse_paramPKcS0_S0_Rd(i8* %20, i8* getelementptr inbounds ([7 x i8], [7 x i8]* @.str.10, i64 0, i64 0), i8* %21, double* dereferenceable(8) %cutoff), !dbg !1099
  %tobool39 = icmp ne i32 %call38, 0, !dbg !1099
  br i1 %tobool39, label %if.then40, label %if.end41, !dbg !1101

if.then40:                                        ; preds = %if.end37
  store i32 0, i32* %retval, align 4, !dbg !1099
  br label %return, !dbg !1099

if.end41:                                         ; preds = %if.end37
  %22 = load i8*, i8** %param.addr, align 8, !dbg !1102
  %23 = load i8*, i8** %value.addr, align 8, !dbg !1102
  %switchingActive = getelementptr inbounds %class.SimParameters, %class.SimParameters* %this1, i32 0, i32 11, !dbg !1102
  %call42 = call i32 @_Z11parse_paramPKcS0_S0_Ri(i8* %22, i8* getelementptr inbounds ([16 x i8], [16 x i8]* @.str.11, i64 0, i64 0), i8* %23, i32* dereferenceable(4) %switchingActive), !dbg !1102
  %tobool43 = icmp ne i32 %call42, 0, !dbg !1102
  br i1 %tobool43, label %if.then44, label %if.end45, !dbg !1104

if.then44:                                        ; preds = %if.end41
  store i32 0, i32* %retval, align 4, !dbg !1102
  br label %return, !dbg !1102

if.end45:                                         ; preds = %if.end41
  %24 = load i8*, i8** %param.addr, align 8, !dbg !1105
  %25 = load i8*, i8** %value.addr, align 8, !dbg !1105
  %switchingDist = getelementptr inbounds %class.SimParameters, %class.SimParameters* %this1, i32 0, i32 12, !dbg !1105
  %call46 = call i32 @_Z11parse_paramPKcS0_S0_Rd(i8* %24, i8* getelementptr inbounds ([14 x i8], [14 x i8]* @.str.12, i64 0, i64 0), i8* %25, double* dereferenceable(8) %switchingDist), !dbg !1105
  %tobool47 = icmp ne i32 %call46, 0, !dbg !1105
  br i1 %tobool47, label %if.then48, label %if.end49, !dbg !1107

if.then48:                                        ; preds = %if.end45
  store i32 0, i32* %retval, align 4, !dbg !1105
  br label %return, !dbg !1105

if.end49:                                         ; preds = %if.end45
  %26 = load i8*, i8** %param.addr, align 8, !dbg !1108
  %27 = load i8*, i8** %value.addr, align 8, !dbg !1108
  %pairlistDist = getelementptr inbounds %class.SimParameters, %class.SimParameters* %this1, i32 0, i32 13, !dbg !1108
  %call50 = call i32 @_Z11parse_paramPKcS0_S0_Rd(i8* %26, i8* getelementptr inbounds ([13 x i8], [13 x i8]* @.str.13, i64 0, i64 0), i8* %27, double* dereferenceable(8) %pairlistDist), !dbg !1108
  %tobool51 = icmp ne i32 %call50, 0, !dbg !1108
  br i1 %tobool51, label %if.then52, label %if.end53, !dbg !1110

if.then52:                                        ; preds = %if.end49
  store i32 0, i32* %retval, align 4, !dbg !1108
  br label %return, !dbg !1108

if.end53:                                         ; preds = %if.end49
  %28 = load i8*, i8** %param.addr, align 8, !dbg !1111
  %29 = load i8*, i8** %value.addr, align 8, !dbg !1111
  %alchOn = getelementptr inbounds %class.SimParameters, %class.SimParameters* %this1, i32 0, i32 14, !dbg !1111
  %call54 = call i32 @_Z11parse_paramPKcS0_S0_Ri(i8* %28, i8* getelementptr inbounds ([7 x i8], [7 x i8]* @.str.14, i64 0, i64 0), i8* %29, i32* dereferenceable(4) %alchOn), !dbg !1111
  %tobool55 = icmp ne i32 %call54, 0, !dbg !1111
  br i1 %tobool55, label %if.then56, label %if.end57, !dbg !1113

if.then56:                                        ; preds = %if.end53
  store i32 0, i32* %retval, align 4, !dbg !1111
  br label %return, !dbg !1111

if.end57:                                         ; preds = %if.end53
  %30 = load i8*, i8** %param.addr, align 8, !dbg !1114
  %31 = load i8*, i8** %value.addr, align 8, !dbg !1114
  %alchLambda = getelementptr inbounds %class.SimParameters, %class.SimParameters* %this1, i32 0, i32 15, !dbg !1114
  %call58 = call i32 @_Z11parse_paramPKcS0_S0_Rd(i8* %30, i8* getelementptr inbounds ([11 x i8], [11 x i8]* @.str.15, i64 0, i64 0), i8* %31, double* dereferenceable(8) %alchLambda), !dbg !1114
  %tobool59 = icmp ne i32 %call58, 0, !dbg !1114
  br i1 %tobool59, label %if.then60, label %if.end61, !dbg !1116

if.then60:                                        ; preds = %if.end57
  store i32 0, i32* %retval, align 4, !dbg !1114
  br label %return, !dbg !1114

if.end61:                                         ; preds = %if.end57
  %32 = load i8*, i8** %param.addr, align 8, !dbg !1117
  %33 = load i8*, i8** %value.addr, align 8, !dbg !1117
  %alchLambda2 = getelementptr inbounds %class.SimParameters, %class.SimParameters* %this1, i32 0, i32 16, !dbg !1117
  %call62 = call i32 @_Z11parse_paramPKcS0_S0_Rd(i8* %32, i8* getelementptr inbounds ([12 x i8], [12 x i8]* @.str.16, i64 0, i64 0), i8* %33, double* dereferenceable(8) %alchLambda2), !dbg !1117
  %tobool63 = icmp ne i32 %call62, 0, !dbg !1117
  br i1 %tobool63, label %if.then64, label %if.end65, !dbg !1119

if.then64:                                        ; preds = %if.end61
  store i32 0, i32* %retval, align 4, !dbg !1117
  br label %return, !dbg !1117

if.end65:                                         ; preds = %if.end61
  %34 = load i8*, i8** %param.addr, align 8, !dbg !1120
  %35 = load i8*, i8** %value.addr, align 8, !dbg !1120
  %alchOutFreq = getelementptr inbounds %class.SimParameters, %class.SimParameters* %this1, i32 0, i32 17, !dbg !1120
  %call66 = call i32 @_Z11parse_paramPKcS0_S0_Ri(i8* %34, i8* getelementptr inbounds ([12 x i8], [12 x i8]* @.str.17, i64 0, i64 0), i8* %35, i32* dereferenceable(4) %alchOutFreq), !dbg !1120
  %tobool67 = icmp ne i32 %call66, 0, !dbg !1120
  br i1 %tobool67, label %if.then68, label %if.end69, !dbg !1122

if.then68:                                        ; preds = %if.end65
  store i32 0, i32* %retval, align 4, !dbg !1120
  br label %return, !dbg !1120

if.end69:                                         ; preds = %if.end65
  %36 = load i8*, i8** %param.addr, align 8, !dbg !1123
  %37 = load i8*, i8** %value.addr, align 8, !dbg !1123
  %alchEquilSteps = getelementptr inbounds %class.SimParameters, %class.SimParameters* %this1, i32 0, i32 18, !dbg !1123
  %call70 = call i32 @_Z11parse_paramPKcS0_S0_Ri(i8* %36, i8* getelementptr inbounds ([15 x i8], [15 x i8]* @.str.18, i64 0, i64 0), i8* %37, i32* dereferenceable(4) %alchEquilSteps), !dbg !1123
  %tobool71 = icmp ne i32 %call70, 0, !dbg !1123
  br i1 %tobool71, label %if.then72, label %if.end73, !dbg !1125

if.then72:                                        ; preds = %if.end69
  store i32 0, i32* %retval, align 4, !dbg !1123
  br label %return, !dbg !1123

if.end73:                                         ; preds = %if.end69
  %38 = load i8*, i8** %param.addr, align 8, !dbg !1126
  %39 = load i8*, i8** %value.addr, align 8, !dbg !1126
  %alchVdwShiftCoeff = getelementptr inbounds %class.SimParameters, %class.SimParameters* %this1, i32 0, i32 19, !dbg !1126
  %call74 = call i32 @_Z11parse_paramPKcS0_S0_Ri(i8* %38, i8* getelementptr inbounds ([18 x i8], [18 x i8]* @.str.19, i64 0, i64 0), i8* %39, i32* dereferenceable(4) %alchVdwShiftCoeff), !dbg !1126
  %tobool75 = icmp ne i32 %call74, 0, !dbg !1126
  br i1 %tobool75, label %if.then76, label %if.end77, !dbg !1128

if.then76:                                        ; preds = %if.end73
  store i32 0, i32* %retval, align 4, !dbg !1126
  br label %return, !dbg !1126

if.end77:                                         ; preds = %if.end73
  %40 = load i8*, i8** %param.addr, align 8, !dbg !1129
  %41 = load i8*, i8** %value.addr, align 8, !dbg !1129
  %pressureProfileOn = getelementptr inbounds %class.SimParameters, %class.SimParameters* %this1, i32 0, i32 20, !dbg !1129
  %call78 = call i32 @_Z11parse_paramPKcS0_S0_Ri(i8* %40, i8* getelementptr inbounds ([18 x i8], [18 x i8]* @.str.20, i64 0, i64 0), i8* %41, i32* dereferenceable(4) %pressureProfileOn), !dbg !1129
  %tobool79 = icmp ne i32 %call78, 0, !dbg !1129
  br i1 %tobool79, label %if.then80, label %if.end81, !dbg !1131

if.then80:                                        ; preds = %if.end77
  store i32 0, i32* %retval, align 4, !dbg !1129
  br label %return, !dbg !1129

if.end81:                                         ; preds = %if.end77
  %42 = load i8*, i8** %param.addr, align 8, !dbg !1132
  %43 = load i8*, i8** %value.addr, align 8, !dbg !1132
  %pressureProfileSlabs = getelementptr inbounds %class.SimParameters, %class.SimParameters* %this1, i32 0, i32 21, !dbg !1132
  %call82 = call i32 @_Z11parse_paramPKcS0_S0_Ri(i8* %42, i8* getelementptr inbounds ([21 x i8], [21 x i8]* @.str.21, i64 0, i64 0), i8* %43, i32* dereferenceable(4) %pressureProfileSlabs), !dbg !1132
  %tobool83 = icmp ne i32 %call82, 0, !dbg !1132
  br i1 %tobool83, label %if.then84, label %if.end85, !dbg !1134

if.then84:                                        ; preds = %if.end81
  store i32 0, i32* %retval, align 4, !dbg !1132
  br label %return, !dbg !1132

if.end85:                                         ; preds = %if.end81
  %44 = load i8*, i8** %param.addr, align 8, !dbg !1135
  %45 = load i8*, i8** %value.addr, align 8, !dbg !1135
  %pressureProfileFreq = getelementptr inbounds %class.SimParameters, %class.SimParameters* %this1, i32 0, i32 22, !dbg !1135
  %call86 = call i32 @_Z11parse_paramPKcS0_S0_Ri(i8* %44, i8* getelementptr inbounds ([20 x i8], [20 x i8]* @.str.22, i64 0, i64 0), i8* %45, i32* dereferenceable(4) %pressureProfileFreq), !dbg !1135
  %tobool87 = icmp ne i32 %call86, 0, !dbg !1135
  br i1 %tobool87, label %if.then88, label %if.end89, !dbg !1137

if.then88:                                        ; preds = %if.end85
  store i32 0, i32* %retval, align 4, !dbg !1135
  br label %return, !dbg !1135

if.end89:                                         ; preds = %if.end85
  %46 = load i8*, i8** %param.addr, align 8, !dbg !1138
  %47 = load i8*, i8** %value.addr, align 8, !dbg !1138
  %lesOn = getelementptr inbounds %class.SimParameters, %class.SimParameters* %this1, i32 0, i32 23, !dbg !1138
  %call90 = call i32 @_Z11parse_paramPKcS0_S0_Ri(i8* %46, i8* getelementptr inbounds ([6 x i8], [6 x i8]* @.str.23, i64 0, i64 0), i8* %47, i32* dereferenceable(4) %lesOn), !dbg !1138
  %tobool91 = icmp ne i32 %call90, 0, !dbg !1138
  br i1 %tobool91, label %if.then92, label %if.end93, !dbg !1140

if.then92:                                        ; preds = %if.end89
  store i32 0, i32* %retval, align 4, !dbg !1138
  br label %return, !dbg !1138

if.end93:                                         ; preds = %if.end89
  %48 = load i8*, i8** %param.addr, align 8, !dbg !1141
  %49 = load i8*, i8** %value.addr, align 8, !dbg !1141
  %lesFactor = getelementptr inbounds %class.SimParameters, %class.SimParameters* %this1, i32 0, i32 24, !dbg !1141
  %call94 = call i32 @_Z11parse_paramPKcS0_S0_Ri(i8* %48, i8* getelementptr inbounds ([10 x i8], [10 x i8]* @.str.24, i64 0, i64 0), i8* %49, i32* dereferenceable(4) %lesFactor), !dbg !1141
  %tobool95 = icmp ne i32 %call94, 0, !dbg !1141
  br i1 %tobool95, label %if.then96, label %if.end97, !dbg !1143

if.then96:                                        ; preds = %if.end93
  store i32 0, i32* %retval, align 4, !dbg !1141
  br label %return, !dbg !1141

if.end97:                                         ; preds = %if.end93
  %50 = load i8*, i8** %param.addr, align 8, !dbg !1144
  %51 = load i8*, i8** %value.addr, align 8, !dbg !1144
  %pairInteractionOn = getelementptr inbounds %class.SimParameters, %class.SimParameters* %this1, i32 0, i32 25, !dbg !1144
  %call98 = call i32 @_Z11parse_paramPKcS0_S0_Ri(i8* %50, i8* getelementptr inbounds ([18 x i8], [18 x i8]* @.str.25, i64 0, i64 0), i8* %51, i32* dereferenceable(4) %pairInteractionOn), !dbg !1144
  %tobool99 = icmp ne i32 %call98, 0, !dbg !1144
  br i1 %tobool99, label %if.then100, label %if.end101, !dbg !1146

if.then100:                                       ; preds = %if.end97
  store i32 0, i32* %retval, align 4, !dbg !1144
  br label %return, !dbg !1144

if.end101:                                        ; preds = %if.end97
  %52 = load i8*, i8** %param.addr, align 8, !dbg !1147
  %53 = load i8*, i8** %value.addr, align 8, !dbg !1147
  %pairInteractionGroup1 = getelementptr inbounds %class.SimParameters, %class.SimParameters* %this1, i32 0, i32 26, !dbg !1147
  %call102 = call i32 @_Z11parse_paramPKcS0_S0_Ri(i8* %52, i8* getelementptr inbounds ([22 x i8], [22 x i8]* @.str.26, i64 0, i64 0), i8* %53, i32* dereferenceable(4) %pairInteractionGroup1), !dbg !1147
  %tobool103 = icmp ne i32 %call102, 0, !dbg !1147
  br i1 %tobool103, label %if.then104, label %if.end105, !dbg !1149

if.then104:                                       ; preds = %if.end101
  store i32 0, i32* %retval, align 4, !dbg !1147
  br label %return, !dbg !1147

if.end105:                                        ; preds = %if.end101
  %54 = load i8*, i8** %param.addr, align 8, !dbg !1150
  %55 = load i8*, i8** %value.addr, align 8, !dbg !1150
  %pairInteractionGroup2 = getelementptr inbounds %class.SimParameters, %class.SimParameters* %this1, i32 0, i32 27, !dbg !1150
  %call106 = call i32 @_Z11parse_paramPKcS0_S0_Ri(i8* %54, i8* getelementptr inbounds ([22 x i8], [22 x i8]* @.str.27, i64 0, i64 0), i8* %55, i32* dereferenceable(4) %pairInteractionGroup2), !dbg !1150
  %tobool107 = icmp ne i32 %call106, 0, !dbg !1150
  br i1 %tobool107, label %if.then108, label %if.end109, !dbg !1152

if.then108:                                       ; preds = %if.end105
  store i32 0, i32* %retval, align 4, !dbg !1150
  br label %return, !dbg !1150

if.end109:                                        ; preds = %if.end105
  %56 = load i8*, i8** %param.addr, align 8, !dbg !1153
  %57 = load i8*, i8** %value.addr, align 8, !dbg !1153
  %pairInteractionSelf = getelementptr inbounds %class.SimParameters, %class.SimParameters* %this1, i32 0, i32 28, !dbg !1153
  %call110 = call i32 @_Z11parse_paramPKcS0_S0_Ri(i8* %56, i8* getelementptr inbounds ([20 x i8], [20 x i8]* @.str.28, i64 0, i64 0), i8* %57, i32* dereferenceable(4) %pairInteractionSelf), !dbg !1153
  %tobool111 = icmp ne i32 %call110, 0, !dbg !1153
  br i1 %tobool111, label %if.then112, label %if.end113, !dbg !1155

if.then112:                                       ; preds = %if.end109
  store i32 0, i32* %retval, align 4, !dbg !1153
  br label %return, !dbg !1153

if.end113:                                        ; preds = %if.end109
  %58 = load i8*, i8** %param.addr, align 8, !dbg !1156
  %59 = load i8*, i8** %value.addr, align 8, !dbg !1156
  %fixedAtomsOn = getelementptr inbounds %class.SimParameters, %class.SimParameters* %this1, i32 0, i32 29, !dbg !1156
  %call114 = call i32 @_Z11parse_paramPKcS0_S0_Ri(i8* %58, i8* getelementptr inbounds ([13 x i8], [13 x i8]* @.str.29, i64 0, i64 0), i8* %59, i32* dereferenceable(4) %fixedAtomsOn), !dbg !1156
  %tobool115 = icmp ne i32 %call114, 0, !dbg !1156
  br i1 %tobool115, label %if.then116, label %if.end117, !dbg !1158

if.then116:                                       ; preds = %if.end113
  store i32 0, i32* %retval, align 4, !dbg !1156
  br label %return, !dbg !1156

if.end117:                                        ; preds = %if.end113
  %60 = load i8*, i8** %param.addr, align 8, !dbg !1159
  %61 = load i8*, i8** %value.addr, align 8, !dbg !1159
  %fixedAtomsForces = getelementptr inbounds %class.SimParameters, %class.SimParameters* %this1, i32 0, i32 30, !dbg !1159
  %call118 = call i32 @_Z11parse_paramPKcS0_S0_Ri(i8* %60, i8* getelementptr inbounds ([17 x i8], [17 x i8]* @.str.30, i64 0, i64 0), i8* %61, i32* dereferenceable(4) %fixedAtomsForces), !dbg !1159
  %tobool119 = icmp ne i32 %call118, 0, !dbg !1159
  br i1 %tobool119, label %if.then120, label %if.end121, !dbg !1161

if.then120:                                       ; preds = %if.end117
  store i32 0, i32* %retval, align 4, !dbg !1159
  br label %return, !dbg !1159

if.end121:                                        ; preds = %if.end117
  %62 = load i8*, i8** %param.addr, align 8, !dbg !1162
  %63 = load i8*, i8** %value.addr, align 8, !dbg !1162
  %FMAOn = getelementptr inbounds %class.SimParameters, %class.SimParameters* %this1, i32 0, i32 31, !dbg !1162
  %call122 = call i32 @_Z11parse_paramPKcS0_S0_Ri(i8* %62, i8* getelementptr inbounds ([6 x i8], [6 x i8]* @.str.31, i64 0, i64 0), i8* %63, i32* dereferenceable(4) %FMAOn), !dbg !1162
  %tobool123 = icmp ne i32 %call122, 0, !dbg !1162
  br i1 %tobool123, label %if.then124, label %if.end125, !dbg !1164

if.then124:                                       ; preds = %if.end121
  store i32 0, i32* %retval, align 4, !dbg !1162
  br label %return, !dbg !1162

if.end125:                                        ; preds = %if.end121
  %64 = load i8*, i8** %param.addr, align 8, !dbg !1165
  %65 = load i8*, i8** %value.addr, align 8, !dbg !1165
  %fullDirectOn = getelementptr inbounds %class.SimParameters, %class.SimParameters* %this1, i32 0, i32 32, !dbg !1165
  %call126 = call i32 @_Z11parse_paramPKcS0_S0_Ri(i8* %64, i8* getelementptr inbounds ([13 x i8], [13 x i8]* @.str.32, i64 0, i64 0), i8* %65, i32* dereferenceable(4) %fullDirectOn), !dbg !1165
  %tobool127 = icmp ne i32 %call126, 0, !dbg !1165
  br i1 %tobool127, label %if.then128, label %if.end129, !dbg !1167

if.then128:                                       ; preds = %if.end125
  store i32 0, i32* %retval, align 4, !dbg !1165
  br label %return, !dbg !1165

if.end129:                                        ; preds = %if.end125
  %66 = load i8*, i8** %param.addr, align 8, !dbg !1168
  %67 = load i8*, i8** %value.addr, align 8, !dbg !1168
  %PMEOn = getelementptr inbounds %class.SimParameters, %class.SimParameters* %this1, i32 0, i32 33, !dbg !1168
  %call130 = call i32 @_Z11parse_paramPKcS0_S0_Ri(i8* %66, i8* getelementptr inbounds ([6 x i8], [6 x i8]* @.str.33, i64 0, i64 0), i8* %67, i32* dereferenceable(4) %PMEOn), !dbg !1168
  %tobool131 = icmp ne i32 %call130, 0, !dbg !1168
  br i1 %tobool131, label %if.then132, label %if.end133, !dbg !1170

if.then132:                                       ; preds = %if.end129
  store i32 0, i32* %retval, align 4, !dbg !1168
  br label %return, !dbg !1168

if.end133:                                        ; preds = %if.end129
  %68 = load i8*, i8** %param.addr, align 8, !dbg !1171
  %69 = load i8*, i8** %value.addr, align 8, !dbg !1171
  %PMETolerance = getelementptr inbounds %class.SimParameters, %class.SimParameters* %this1, i32 0, i32 34, !dbg !1171
  %call134 = call i32 @_Z11parse_paramPKcS0_S0_Rd(i8* %68, i8* getelementptr inbounds ([13 x i8], [13 x i8]* @.str.34, i64 0, i64 0), i8* %69, double* dereferenceable(8) %PMETolerance), !dbg !1171
  %tobool135 = icmp ne i32 %call134, 0, !dbg !1171
  br i1 %tobool135, label %if.then136, label %if.end137, !dbg !1173

if.then136:                                       ; preds = %if.end133
  store i32 0, i32* %retval, align 4, !dbg !1171
  br label %return, !dbg !1171

if.end137:                                        ; preds = %if.end133
  %70 = load i8*, i8** %param.addr, align 8, !dbg !1174
  %71 = load i8*, i8** %value.addr, align 8, !dbg !1174
  %PMEEwaldCoefficient = getelementptr inbounds %class.SimParameters, %class.SimParameters* %this1, i32 0, i32 35, !dbg !1174
  %call138 = call i32 @_Z11parse_paramPKcS0_S0_Rd(i8* %70, i8* getelementptr inbounds ([20 x i8], [20 x i8]* @.str.35, i64 0, i64 0), i8* %71, double* dereferenceable(8) %PMEEwaldCoefficient), !dbg !1174
  %tobool139 = icmp ne i32 %call138, 0, !dbg !1174
  br i1 %tobool139, label %if.then140, label %if.end141, !dbg !1176

if.then140:                                       ; preds = %if.end137
  store i32 0, i32* %retval, align 4, !dbg !1174
  br label %return, !dbg !1174

if.end141:                                        ; preds = %if.end137
  %72 = load i8*, i8** %param.addr, align 8, !dbg !1177
  %73 = load i8*, i8** %value.addr, align 8, !dbg !1177
  %longSplitting = getelementptr inbounds %class.SimParameters, %class.SimParameters* %this1, i32 0, i32 36, !dbg !1177
  %call142 = call i32 @_Z11parse_paramPKcS0_S0_Ri(i8* %72, i8* getelementptr inbounds ([14 x i8], [14 x i8]* @.str.36, i64 0, i64 0), i8* %73, i32* dereferenceable(4) %longSplitting), !dbg !1177
  %tobool143 = icmp ne i32 %call142, 0, !dbg !1177
  br i1 %tobool143, label %if.then144, label %if.end145, !dbg !1179

if.then144:                                       ; preds = %if.end141
  store i32 0, i32* %retval, align 4, !dbg !1177
  br label %return, !dbg !1177

if.end145:                                        ; preds = %if.end141
  %74 = load i8*, i8** %param.addr, align 8, !dbg !1180
  %75 = load i8*, i8** %value.addr, align 8, !dbg !1180
  %hgroupCutoff = getelementptr inbounds %class.SimParameters, %class.SimParameters* %this1, i32 0, i32 37, !dbg !1180
  %call146 = call i32 @_Z11parse_paramPKcS0_S0_Rd(i8* %74, i8* getelementptr inbounds ([13 x i8], [13 x i8]* @.str.37, i64 0, i64 0), i8* %75, double* dereferenceable(8) %hgroupCutoff), !dbg !1180
  %tobool147 = icmp ne i32 %call146, 0, !dbg !1180
  br i1 %tobool147, label %if.then148, label %if.end149, !dbg !1182

if.then148:                                       ; preds = %if.end145
  store i32 0, i32* %retval, align 4, !dbg !1180
  br label %return, !dbg !1180

if.end149:                                        ; preds = %if.end145
  %76 = load i8*, i8** %param.addr, align 8, !dbg !1183
  %77 = load i8*, i8** %value.addr, align 8, !dbg !1183
  %mollyOn = getelementptr inbounds %class.SimParameters, %class.SimParameters* %this1, i32 0, i32 38, !dbg !1183
  %call150 = call i32 @_Z11parse_paramPKcS0_S0_Ri(i8* %76, i8* getelementptr inbounds ([8 x i8], [8 x i8]* @.str.38, i64 0, i64 0), i8* %77, i32* dereferenceable(4) %mollyOn), !dbg !1183
  %tobool151 = icmp ne i32 %call150, 0, !dbg !1183
  br i1 %tobool151, label %if.then152, label %if.end153, !dbg !1185

if.then152:                                       ; preds = %if.end149
  store i32 0, i32* %retval, align 4, !dbg !1183
  br label %return, !dbg !1183

if.end153:                                        ; preds = %if.end149
  %78 = load i8*, i8** %param.addr, align 8, !dbg !1186
  %79 = load i8*, i8** %value.addr, align 8, !dbg !1186
  %commOnly = getelementptr inbounds %class.SimParameters, %class.SimParameters* %this1, i32 0, i32 39, !dbg !1186
  %call154 = call i32 @_Z11parse_paramPKcS0_S0_Ri(i8* %78, i8* getelementptr inbounds ([9 x i8], [9 x i8]* @.str.39, i64 0, i64 0), i8* %79, i32* dereferenceable(4) %commOnly), !dbg !1186
  %tobool155 = icmp ne i32 %call154, 0, !dbg !1186
  br i1 %tobool155, label %if.then156, label %if.end157, !dbg !1188

if.then156:                                       ; preds = %if.end153
  store i32 0, i32* %retval, align 4, !dbg !1186
  br label %return, !dbg !1186

if.end157:                                        ; preds = %if.end153
  store i32 -1, i32* %retval, align 4, !dbg !1189
  br label %return, !dbg !1189

return:                                           ; preds = %if.end157, %if.then156, %if.then152, %if.then148, %if.then144, %if.then140, %if.then136, %if.then132, %if.then128, %if.then124, %if.then120, %if.then116, %if.then112, %if.then108, %if.then104, %if.then100, %if.then96, %if.then92, %if.then88, %if.then84, %if.then80, %if.then76, %if.then72, %if.then68, %if.then64, %if.then60, %if.then56, %if.then52, %if.then48, %if.then44, %if.then40, %if.then36, %if.then32, %if.then28, %if.then24, %if.then20, %if.then16, %if.then12, %if.then8, %if.then4, %if.then
  %80 = load i32, i32* %retval, align 4, !dbg !1191
  ret i32 %80, !dbg !1191
}

; Function Attrs: noinline uwtable
define linkonce_odr dso_local i32 @_Z11parse_paramPKcS0_S0_R6Vector(i8* %param, i8* %name, i8* %value, %class.Vector* dereferenceable(24) %var) #0 comdat !dbg !1192 {
entry:
  %retval = alloca i32, align 4
  %param.addr = alloca i8*, align 8
  %name.addr = alloca i8*, align 8
  %value.addr = alloca i8*, align 8
  %var.addr = alloca %class.Vector*, align 8
  store i8* %param, i8** %param.addr, align 8
  call void @llvm.dbg.declare(metadata i8** %param.addr, metadata !1195, metadata !DIExpression()), !dbg !1196
  store i8* %name, i8** %name.addr, align 8
  call void @llvm.dbg.declare(metadata i8** %name.addr, metadata !1197, metadata !DIExpression()), !dbg !1198
  store i8* %value, i8** %value.addr, align 8
  call void @llvm.dbg.declare(metadata i8** %value.addr, metadata !1199, metadata !DIExpression()), !dbg !1200
  store %class.Vector* %var, %class.Vector** %var.addr, align 8
  call void @llvm.dbg.declare(metadata %class.Vector** %var.addr, metadata !1201, metadata !DIExpression()), !dbg !1202
  %0 = load i8*, i8** %param.addr, align 8, !dbg !1203
  %1 = load i8*, i8** %name.addr, align 8, !dbg !1205
  %call = call i32 @strcmp(i8* %0, i8* %1) #7, !dbg !1206
  %tobool = icmp ne i32 %call, 0, !dbg !1206
  br i1 %tobool, label %if.end, label %if.then, !dbg !1207

if.then:                                          ; preds = %entry
  %2 = load %class.Vector*, %class.Vector** %var.addr, align 8, !dbg !1208
  %3 = load i8*, i8** %value.addr, align 8, !dbg !1210
  %call1 = call i32 @_ZN6Vector3setEPKc(%class.Vector* %2, i8* %3), !dbg !1211
  store i32 1, i32* %retval, align 4, !dbg !1212
  br label %return, !dbg !1212

if.end:                                           ; preds = %entry
  store i32 0, i32* %retval, align 4, !dbg !1213
  br label %return, !dbg !1213

return:                                           ; preds = %if.end, %if.then
  %4 = load i32, i32* %retval, align 4, !dbg !1214
  ret i32 %4, !dbg !1214
}

; Function Attrs: noinline nounwind uwtable
define linkonce_odr dso_local i32 @_Z11parse_paramPKcS0_S0_Ri(i8* %param, i8* %name, i8* %value, i32* dereferenceable(4) %var) #2 comdat !dbg !1215 {
entry:
  %retval = alloca i32, align 4
  %param.addr = alloca i8*, align 8
  %name.addr = alloca i8*, align 8
  %value.addr = alloca i8*, align 8
  %var.addr = alloca i32*, align 8
  store i8* %param, i8** %param.addr, align 8
  call void @llvm.dbg.declare(metadata i8** %param.addr, metadata !1219, metadata !DIExpression()), !dbg !1220
  store i8* %name, i8** %name.addr, align 8
  call void @llvm.dbg.declare(metadata i8** %name.addr, metadata !1221, metadata !DIExpression()), !dbg !1222
  store i8* %value, i8** %value.addr, align 8
  call void @llvm.dbg.declare(metadata i8** %value.addr, metadata !1223, metadata !DIExpression()), !dbg !1224
  store i32* %var, i32** %var.addr, align 8
  call void @llvm.dbg.declare(metadata i32** %var.addr, metadata !1225, metadata !DIExpression()), !dbg !1226
  %0 = load i8*, i8** %param.addr, align 8, !dbg !1227
  %1 = load i8*, i8** %name.addr, align 8, !dbg !1229
  %call = call i32 @strcmp(i8* %0, i8* %1) #7, !dbg !1230
  %tobool = icmp ne i32 %call, 0, !dbg !1230
  br i1 %tobool, label %if.end, label %if.then, !dbg !1231

if.then:                                          ; preds = %entry
  %2 = load i8*, i8** %value.addr, align 8, !dbg !1232
  %call1 = call i32 @atoi(i8* %2) #7, !dbg !1234
  %3 = load i32*, i32** %var.addr, align 8, !dbg !1235
  store i32 %call1, i32* %3, align 4, !dbg !1236
  store i32 1, i32* %retval, align 4, !dbg !1237
  br label %return, !dbg !1237

if.end:                                           ; preds = %entry
  store i32 0, i32* %retval, align 4, !dbg !1238
  br label %return, !dbg !1238

return:                                           ; preds = %if.end, %if.then
  %4 = load i32, i32* %retval, align 4, !dbg !1239
  ret i32 %4, !dbg !1239
}

; Function Attrs: noinline nounwind uwtable
define linkonce_odr dso_local i32 @_Z11parse_paramPKcS0_S0_Rd(i8* %param, i8* %name, i8* %value, double* dereferenceable(8) %var) #2 comdat !dbg !1240 {
entry:
  %retval = alloca i32, align 4
  %param.addr = alloca i8*, align 8
  %name.addr = alloca i8*, align 8
  %value.addr = alloca i8*, align 8
  %var.addr = alloca double*, align 8
  store i8* %param, i8** %param.addr, align 8
  call void @llvm.dbg.declare(metadata i8** %param.addr, metadata !1243, metadata !DIExpression()), !dbg !1244
  store i8* %name, i8** %name.addr, align 8
  call void @llvm.dbg.declare(metadata i8** %name.addr, metadata !1245, metadata !DIExpression()), !dbg !1246
  store i8* %value, i8** %value.addr, align 8
  call void @llvm.dbg.declare(metadata i8** %value.addr, metadata !1247, metadata !DIExpression()), !dbg !1248
  store double* %var, double** %var.addr, align 8
  call void @llvm.dbg.declare(metadata double** %var.addr, metadata !1249, metadata !DIExpression()), !dbg !1250
  %0 = load i8*, i8** %param.addr, align 8, !dbg !1251
  %1 = load i8*, i8** %name.addr, align 8, !dbg !1253
  %call = call i32 @strcmp(i8* %0, i8* %1) #7, !dbg !1254
  %tobool = icmp ne i32 %call, 0, !dbg !1254
  br i1 %tobool, label %if.end, label %if.then, !dbg !1255

if.then:                                          ; preds = %entry
  %2 = load i8*, i8** %value.addr, align 8, !dbg !1256
  %call1 = call double @atof(i8* %2) #7, !dbg !1258
  %3 = load double*, double** %var.addr, align 8, !dbg !1259
  store double %call1, double* %3, align 8, !dbg !1260
  store i32 1, i32* %retval, align 4, !dbg !1261
  br label %return, !dbg !1261

if.end:                                           ; preds = %entry
  store i32 0, i32* %retval, align 4, !dbg !1262
  br label %return, !dbg !1262

return:                                           ; preds = %if.end, %if.then
  %4 = load i32, i32* %retval, align 4, !dbg !1263
  ret i32 %4, !dbg !1263
}

; Function Attrs: noinline uwtable
define dso_local i32 @_ZN13SimParameters8readfileEP8_IO_FILE(%class.SimParameters* %this, %struct._IO_FILE* %file) #0 align 2 !dbg !1264 {
entry:
  %retval = alloca i32, align 4
  %this.addr = alloca %class.SimParameters*, align 8
  %file.addr = alloca %struct._IO_FILE*, align 8
  %buf = alloca [1024 x i8], align 16
  %param = alloca i8*, align 8
  %value = alloca i8*, align 8
  %agg.tmp = alloca %class.Vector, align 8
  %agg.tmp32 = alloca %class.Vector, align 8
  %agg.tmp33 = alloca %class.Vector, align 8
  %agg.tmp34 = alloca %class.Vector, align 8
  store %class.SimParameters* %this, %class.SimParameters** %this.addr, align 8
  call void @llvm.dbg.declare(metadata %class.SimParameters** %this.addr, metadata !1265, metadata !DIExpression()), !dbg !1266
  store %struct._IO_FILE* %file, %struct._IO_FILE** %file.addr, align 8
  call void @llvm.dbg.declare(metadata %struct._IO_FILE** %file.addr, metadata !1267, metadata !DIExpression()), !dbg !1268
  %this1 = load %class.SimParameters*, %class.SimParameters** %this.addr, align 8
  call void @llvm.dbg.declare(metadata [1024 x i8]* %buf, metadata !1269, metadata !DIExpression()), !dbg !1273
  %arraydecay = getelementptr inbounds [1024 x i8], [1024 x i8]* %buf, i64 0, i64 0, !dbg !1274
  %0 = load %struct._IO_FILE*, %struct._IO_FILE** %file.addr, align 8, !dbg !1276
  %call = call i8* @fgets(i8* %arraydecay, i32 1024, %struct._IO_FILE* %0), !dbg !1277
  %tobool = icmp ne i8* %call, null, !dbg !1277
  br i1 %tobool, label %lor.lhs.false, label %if.then, !dbg !1278

lor.lhs.false:                                    ; preds = %entry
  %arraydecay2 = getelementptr inbounds [1024 x i8], [1024 x i8]* %buf, i64 0, i64 0, !dbg !1279
  %call3 = call i32 @strcmp(i8* %arraydecay2, i8* getelementptr inbounds ([21 x i8], [21 x i8]* @.str.40, i64 0, i64 0)) #7, !dbg !1280
  %tobool4 = icmp ne i32 %call3, 0, !dbg !1280
  br i1 %tobool4, label %if.then, label %if.end, !dbg !1281

if.then:                                          ; preds = %lor.lhs.false, %entry
  %call5 = call i32 (i8*, ...) @printf(i8* getelementptr inbounds ([29 x i8], [29 x i8]* @.str.41, i64 0, i64 0)), !dbg !1282
  store i32 -1, i32* %retval, align 4, !dbg !1284
  br label %return, !dbg !1284

if.end:                                           ; preds = %lor.lhs.false
  br label %while.body, !dbg !1285

while.body:                                       ; preds = %if.end, %if.then20, %if.end31
  %arraydecay6 = getelementptr inbounds [1024 x i8], [1024 x i8]* %buf, i64 0, i64 0, !dbg !1286
  %1 = load %struct._IO_FILE*, %struct._IO_FILE** %file.addr, align 8, !dbg !1289
  %call7 = call i8* @fgets(i8* %arraydecay6, i32 1024, %struct._IO_FILE* %1), !dbg !1290
  %tobool8 = icmp ne i8* %call7, null, !dbg !1290
  br i1 %tobool8, label %if.end11, label %if.then9, !dbg !1291

if.then9:                                         ; preds = %while.body
  %call10 = call i32 (i8*, ...) @printf(i8* getelementptr inbounds ([27 x i8], [27 x i8]* @.str.42, i64 0, i64 0)), !dbg !1292
  store i32 -3, i32* %retval, align 4, !dbg !1294
  br label %return, !dbg !1294

if.end11:                                         ; preds = %while.body
  %arraydecay12 = getelementptr inbounds [1024 x i8], [1024 x i8]* %buf, i64 0, i64 0, !dbg !1295
  %call13 = call i32 @strcmp(i8* %arraydecay12, i8* getelementptr inbounds ([19 x i8], [19 x i8]* @.str.43, i64 0, i64 0)) #7, !dbg !1297
  %tobool14 = icmp ne i32 %call13, 0, !dbg !1297
  br i1 %tobool14, label %if.end16, label %if.then15, !dbg !1298

if.then15:                                        ; preds = %if.end11
  br label %while.end, !dbg !1299

if.end16:                                         ; preds = %if.end11
  call void @llvm.dbg.declare(metadata i8** %param, metadata !1301, metadata !DIExpression()), !dbg !1302
  %arraydecay17 = getelementptr inbounds [1024 x i8], [1024 x i8]* %buf, i64 0, i64 0, !dbg !1303
  %call18 = call i8* @strtok(i8* %arraydecay17, i8* getelementptr inbounds ([2 x i8], [2 x i8]* @.str.44, i64 0, i64 0)) #8, !dbg !1304
  store i8* %call18, i8** %param, align 8, !dbg !1302
  %2 = load i8*, i8** %param, align 8, !dbg !1305
  %tobool19 = icmp ne i8* %2, null, !dbg !1305
  br i1 %tobool19, label %if.end21, label %if.then20, !dbg !1307

if.then20:                                        ; preds = %if.end16
  br label %while.body, !dbg !1308, !llvm.loop !1309

if.end21:                                         ; preds = %if.end16
  call void @llvm.dbg.declare(metadata i8** %value, metadata !1311, metadata !DIExpression()), !dbg !1312
  %call22 = call i8* @strtok(i8* null, i8* getelementptr inbounds ([2 x i8], [2 x i8]* @.str.45, i64 0, i64 0)) #8, !dbg !1313
  store i8* %call22, i8** %value, align 8, !dbg !1312
  %3 = load i8*, i8** %value, align 8, !dbg !1314
  %tobool23 = icmp ne i8* %3, null, !dbg !1314
  br i1 %tobool23, label %if.end26, label %if.then24, !dbg !1316

if.then24:                                        ; preds = %if.end21
  %4 = load i8*, i8** %param, align 8, !dbg !1317
  %call25 = call i32 (i8*, ...) @printf(i8* getelementptr inbounds ([22 x i8], [22 x i8]* @.str.46, i64 0, i64 0), i8* %4), !dbg !1319
  store i32 -4, i32* %retval, align 4, !dbg !1320
  br label %return, !dbg !1320

if.end26:                                         ; preds = %if.end21
  %5 = load i8*, i8** %param, align 8, !dbg !1321
  %6 = load i8*, i8** %value, align 8, !dbg !1323
  %call27 = call i32 @_ZN13SimParameters8setparamEPKcS1_(%class.SimParameters* %this1, i8* %5, i8* %6), !dbg !1324
  %tobool28 = icmp ne i32 %call27, 0, !dbg !1324
  br i1 %tobool28, label %if.then29, label %if.end31, !dbg !1325

if.then29:                                        ; preds = %if.end26
  %7 = load i8*, i8** %param, align 8, !dbg !1326
  %8 = load i8*, i8** %value, align 8, !dbg !1328
  %call30 = call i32 (i8*, ...) @printf(i8* getelementptr inbounds ([21 x i8], [21 x i8]* @.str.47, i64 0, i64 0), i8* %7, i8* %8), !dbg !1329
  store i32 -5, i32* %retval, align 4, !dbg !1330
  br label %return, !dbg !1330

if.end31:                                         ; preds = %if.end26
  br label %while.body, !dbg !1285, !llvm.loop !1309

while.end:                                        ; preds = %if.then15
  %lattice = getelementptr inbounds %class.SimParameters, %class.SimParameters* %this1, i32 0, i32 64, !dbg !1331
  %cellBasisVector1 = getelementptr inbounds %class.SimParameters, %class.SimParameters* %this1, i32 0, i32 0, !dbg !1332
  %9 = bitcast %class.Vector* %agg.tmp to i8*, !dbg !1332
  %10 = bitcast %class.Vector* %cellBasisVector1 to i8*, !dbg !1332
  call void @llvm.memcpy.p0i8.p0i8.i64(i8* align 8 %9, i8* align 8 %10, i64 24, i1 false), !dbg !1332
  %cellBasisVector2 = getelementptr inbounds %class.SimParameters, %class.SimParameters* %this1, i32 0, i32 1, !dbg !1333
  %11 = bitcast %class.Vector* %agg.tmp32 to i8*, !dbg !1333
  %12 = bitcast %class.Vector* %cellBasisVector2 to i8*, !dbg !1333
  call void @llvm.memcpy.p0i8.p0i8.i64(i8* align 8 %11, i8* align 8 %12, i64 24, i1 false), !dbg !1333
  %cellBasisVector3 = getelementptr inbounds %class.SimParameters, %class.SimParameters* %this1, i32 0, i32 2, !dbg !1334
  %13 = bitcast %class.Vector* %agg.tmp33 to i8*, !dbg !1334
  %14 = bitcast %class.Vector* %cellBasisVector3 to i8*, !dbg !1334
  call void @llvm.memcpy.p0i8.p0i8.i64(i8* align 8 %13, i8* align 8 %14, i64 24, i1 false), !dbg !1334
  %cellOrigin = getelementptr inbounds %class.SimParameters, %class.SimParameters* %this1, i32 0, i32 3, !dbg !1335
  %15 = bitcast %class.Vector* %agg.tmp34 to i8*, !dbg !1335
  %16 = bitcast %class.Vector* %cellOrigin to i8*, !dbg !1335
  call void @llvm.memcpy.p0i8.p0i8.i64(i8* align 8 %15, i8* align 8 %16, i64 24, i1 false), !dbg !1335
  call void @_ZN7Lattice3setE6VectorS0_S0_S0_(%class.Lattice* %lattice, %class.Vector* byval(%class.Vector) align 8 %agg.tmp, %class.Vector* byval(%class.Vector) align 8 %agg.tmp32, %class.Vector* byval(%class.Vector) align 8 %agg.tmp33, %class.Vector* byval(%class.Vector) align 8 %agg.tmp34), !dbg !1336
  store i32 0, i32* %retval, align 4, !dbg !1337
  br label %return, !dbg !1337

return:                                           ; preds = %while.end, %if.then29, %if.then24, %if.then9, %if.then
  %17 = load i32, i32* %retval, align 4, !dbg !1338
  ret i32 %17, !dbg !1338
}

declare dso_local i8* @fgets(i8*, i32, %struct._IO_FILE*) #4

; Function Attrs: nounwind readonly
declare dso_local i32 @strcmp(i8*, i8*) #5

declare dso_local i32 @printf(i8*, ...) #4

; Function Attrs: nounwind
declare dso_local i8* @strtok(i8*, i8*) #6

; Function Attrs: noinline uwtable
define linkonce_odr dso_local void @_ZN7Lattice3setE6VectorS0_S0_S0_(%class.Lattice* %this, %class.Vector* byval(%class.Vector) align 8 %A, %class.Vector* byval(%class.Vector) align 8 %B, %class.Vector* byval(%class.Vector) align 8 %C, %class.Vector* byval(%class.Vector) align 8 %Origin) #0 comdat align 2 !dbg !1339 {
entry:
  %this.addr = alloca %class.Lattice*, align 8
  %ref.tmp = alloca %class.Vector, align 8
  %u1 = alloca %class.Vector, align 8
  %ref.tmp18 = alloca double, align 8
  %e_z = alloca %class.Vector, align 8
  %ref.tmp23 = alloca %class.Vector, align 8
  %ref.tmp26 = alloca %class.Vector, align 8
  %ref.tmp27 = alloca %class.Vector, align 8
  %ref.tmp31 = alloca double, align 8
  %ref.tmp39 = alloca %class.Vector, align 8
  %ref.tmp43 = alloca double, align 8
  %ref.tmp51 = alloca double, align 8
  store %class.Lattice* %this, %class.Lattice** %this.addr, align 8
  call void @llvm.dbg.declare(metadata %class.Lattice** %this.addr, metadata !1340, metadata !DIExpression()), !dbg !1341
  call void @llvm.dbg.declare(metadata %class.Vector* %A, metadata !1342, metadata !DIExpression()), !dbg !1343
  call void @llvm.dbg.declare(metadata %class.Vector* %B, metadata !1344, metadata !DIExpression()), !dbg !1345
  call void @llvm.dbg.declare(metadata %class.Vector* %C, metadata !1346, metadata !DIExpression()), !dbg !1347
  call void @llvm.dbg.declare(metadata %class.Vector* %Origin, metadata !1348, metadata !DIExpression()), !dbg !1349
  %this1 = load %class.Lattice*, %class.Lattice** %this.addr, align 8
  %a1 = getelementptr inbounds %class.Lattice, %class.Lattice* %this1, i32 0, i32 0, !dbg !1350
  %0 = bitcast %class.Vector* %a1 to i8*, !dbg !1351
  %1 = bitcast %class.Vector* %A to i8*, !dbg !1351
  call void @llvm.memcpy.p0i8.p0i8.i64(i8* align 8 %0, i8* align 8 %1, i64 24, i1 false), !dbg !1351
  %a2 = getelementptr inbounds %class.Lattice, %class.Lattice* %this1, i32 0, i32 1, !dbg !1352
  %2 = bitcast %class.Vector* %a2 to i8*, !dbg !1353
  %3 = bitcast %class.Vector* %B to i8*, !dbg !1353
  call void @llvm.memcpy.p0i8.p0i8.i64(i8* align 8 %2, i8* align 8 %3, i64 24, i1 false), !dbg !1353
  %a3 = getelementptr inbounds %class.Lattice, %class.Lattice* %this1, i32 0, i32 2, !dbg !1354
  %4 = bitcast %class.Vector* %a3 to i8*, !dbg !1355
  %5 = bitcast %class.Vector* %C to i8*, !dbg !1355
  call void @llvm.memcpy.p0i8.p0i8.i64(i8* align 8 %4, i8* align 8 %5, i64 24, i1 false), !dbg !1355
  %o = getelementptr inbounds %class.Lattice, %class.Lattice* %this1, i32 0, i32 6, !dbg !1356
  %6 = bitcast %class.Vector* %o to i8*, !dbg !1357
  %7 = bitcast %class.Vector* %Origin to i8*, !dbg !1357
  call void @llvm.memcpy.p0i8.p0i8.i64(i8* align 8 %6, i8* align 8 %7, i64 24, i1 false), !dbg !1357
  %a12 = getelementptr inbounds %class.Lattice, %class.Lattice* %this1, i32 0, i32 0, !dbg !1358
  %call = call double @_ZNK6Vector7length2Ev(%class.Vector* %a12), !dbg !1359
  %tobool = fcmp une double %call, 0.000000e+00, !dbg !1358
  %8 = zext i1 %tobool to i64, !dbg !1358
  %cond = select i1 %tobool, i32 1, i32 0, !dbg !1358
  %p1 = getelementptr inbounds %class.Lattice, %class.Lattice* %this1, i32 0, i32 7, !dbg !1360
  store i32 %cond, i32* %p1, align 8, !dbg !1361
  %a23 = getelementptr inbounds %class.Lattice, %class.Lattice* %this1, i32 0, i32 1, !dbg !1362
  %call4 = call double @_ZNK6Vector7length2Ev(%class.Vector* %a23), !dbg !1363
  %tobool5 = fcmp une double %call4, 0.000000e+00, !dbg !1362
  %9 = zext i1 %tobool5 to i64, !dbg !1362
  %cond6 = select i1 %tobool5, i32 1, i32 0, !dbg !1362
  %p2 = getelementptr inbounds %class.Lattice, %class.Lattice* %this1, i32 0, i32 8, !dbg !1364
  store i32 %cond6, i32* %p2, align 4, !dbg !1365
  %a37 = getelementptr inbounds %class.Lattice, %class.Lattice* %this1, i32 0, i32 2, !dbg !1366
  %call8 = call double @_ZNK6Vector7length2Ev(%class.Vector* %a37), !dbg !1367
  %tobool9 = fcmp une double %call8, 0.000000e+00, !dbg !1366
  %10 = zext i1 %tobool9 to i64, !dbg !1366
  %cond10 = select i1 %tobool9, i32 1, i32 0, !dbg !1366
  %p3 = getelementptr inbounds %class.Lattice, %class.Lattice* %this1, i32 0, i32 9, !dbg !1368
  store i32 %cond10, i32* %p3, align 8, !dbg !1369
  %p111 = getelementptr inbounds %class.Lattice, %class.Lattice* %this1, i32 0, i32 7, !dbg !1370
  %11 = load i32, i32* %p111, align 8, !dbg !1370
  %tobool12 = icmp ne i32 %11, 0, !dbg !1370
  br i1 %tobool12, label %if.end, label %if.then, !dbg !1372

if.then:                                          ; preds = %entry
  call void @_ZN6VectorC2Eddd(%class.Vector* %ref.tmp, double 1.000000e+00, double 0.000000e+00, double 0.000000e+00), !dbg !1373
  %a113 = getelementptr inbounds %class.Lattice, %class.Lattice* %this1, i32 0, i32 0, !dbg !1374
  %12 = bitcast %class.Vector* %a113 to i8*, !dbg !1375
  %13 = bitcast %class.Vector* %ref.tmp to i8*, !dbg !1375
  call void @llvm.memcpy.p0i8.p0i8.i64(i8* align 8 %12, i8* align 8 %13, i64 24, i1 false), !dbg !1375
  br label %if.end, !dbg !1374

if.end:                                           ; preds = %if.then, %entry
  %p214 = getelementptr inbounds %class.Lattice, %class.Lattice* %this1, i32 0, i32 8, !dbg !1376
  %14 = load i32, i32* %p214, align 4, !dbg !1376
  %tobool15 = icmp ne i32 %14, 0, !dbg !1376
  br i1 %tobool15, label %if.end35, label %if.then16, !dbg !1378

if.then16:                                        ; preds = %if.end
  call void @llvm.dbg.declare(metadata %class.Vector* %u1, metadata !1379, metadata !DIExpression()), !dbg !1381
  %a117 = getelementptr inbounds %class.Lattice, %class.Lattice* %this1, i32 0, i32 0, !dbg !1382
  %a119 = getelementptr inbounds %class.Lattice, %class.Lattice* %this1, i32 0, i32 0, !dbg !1383
  %call20 = call double @_ZNK6Vector6lengthEv(%class.Vector* %a119), !dbg !1384
  store double %call20, double* %ref.tmp18, align 8, !dbg !1383
  call void @_ZdvRK6VectorRKd(%class.Vector* sret %u1, %class.Vector* dereferenceable(24) %a117, double* dereferenceable(8) %ref.tmp18), !dbg !1385
  call void @llvm.dbg.declare(metadata %class.Vector* %e_z, metadata !1386, metadata !DIExpression()), !dbg !1387
  call void @_ZN6VectorC2Eddd(%class.Vector* %e_z, double 0.000000e+00, double 0.000000e+00, double 1.000000e+00), !dbg !1387
  %call21 = call double @_ZmlRK6VectorS1_(%class.Vector* dereferenceable(24) %e_z, %class.Vector* dereferenceable(24) %u1), !dbg !1388
  %15 = call double @llvm.fabs.f64(double %call21), !dbg !1390
  %cmp = fcmp olt double %15, 9.000000e-01, !dbg !1391
  br i1 %cmp, label %if.then22, label %if.else, !dbg !1392

if.then22:                                        ; preds = %if.then16
  %a124 = getelementptr inbounds %class.Lattice, %class.Lattice* %this1, i32 0, i32 0, !dbg !1393
  call void @_Z5crossRK6VectorS1_(%class.Vector* sret %ref.tmp23, %class.Vector* dereferenceable(24) %e_z, %class.Vector* dereferenceable(24) %a124), !dbg !1395
  %a225 = getelementptr inbounds %class.Lattice, %class.Lattice* %this1, i32 0, i32 1, !dbg !1396
  %16 = bitcast %class.Vector* %a225 to i8*, !dbg !1397
  %17 = bitcast %class.Vector* %ref.tmp23 to i8*, !dbg !1397
  call void @llvm.memcpy.p0i8.p0i8.i64(i8* align 8 %16, i8* align 8 %17, i64 24, i1 false), !dbg !1397
  br label %if.end30, !dbg !1398

if.else:                                          ; preds = %if.then16
  call void @_ZN6VectorC2Eddd(%class.Vector* %ref.tmp27, double 1.000000e+00, double 0.000000e+00, double 0.000000e+00), !dbg !1399
  %a128 = getelementptr inbounds %class.Lattice, %class.Lattice* %this1, i32 0, i32 0, !dbg !1401
  call void @_Z5crossRK6VectorS1_(%class.Vector* sret %ref.tmp26, %class.Vector* dereferenceable(24) %ref.tmp27, %class.Vector* dereferenceable(24) %a128), !dbg !1402
  %a229 = getelementptr inbounds %class.Lattice, %class.Lattice* %this1, i32 0, i32 1, !dbg !1403
  %18 = bitcast %class.Vector* %a229 to i8*, !dbg !1404
  %19 = bitcast %class.Vector* %ref.tmp26 to i8*, !dbg !1404
  call void @llvm.memcpy.p0i8.p0i8.i64(i8* align 8 %18, i8* align 8 %19, i64 24, i1 false), !dbg !1404
  br label %if.end30

if.end30:                                         ; preds = %if.else, %if.then22
  %a232 = getelementptr inbounds %class.Lattice, %class.Lattice* %this1, i32 0, i32 1, !dbg !1405
  %call33 = call double @_ZNK6Vector6lengthEv(%class.Vector* %a232), !dbg !1406
  store double %call33, double* %ref.tmp31, align 8, !dbg !1405
  %a234 = getelementptr inbounds %class.Lattice, %class.Lattice* %this1, i32 0, i32 1, !dbg !1407
  call void @_ZN6VectordVERKd(%class.Vector* %a234, double* dereferenceable(8) %ref.tmp31), !dbg !1408
  br label %if.end35, !dbg !1409

if.end35:                                         ; preds = %if.end30, %if.end
  %p336 = getelementptr inbounds %class.Lattice, %class.Lattice* %this1, i32 0, i32 9, !dbg !1410
  %20 = load i32, i32* %p336, align 8, !dbg !1410
  %tobool37 = icmp ne i32 %20, 0, !dbg !1410
  br i1 %tobool37, label %if.end47, label %if.then38, !dbg !1412

if.then38:                                        ; preds = %if.end35
  %a140 = getelementptr inbounds %class.Lattice, %class.Lattice* %this1, i32 0, i32 0, !dbg !1413
  %a241 = getelementptr inbounds %class.Lattice, %class.Lattice* %this1, i32 0, i32 1, !dbg !1415
  call void @_Z5crossRK6VectorS1_(%class.Vector* sret %ref.tmp39, %class.Vector* dereferenceable(24) %a140, %class.Vector* dereferenceable(24) %a241), !dbg !1416
  %a342 = getelementptr inbounds %class.Lattice, %class.Lattice* %this1, i32 0, i32 2, !dbg !1417
  %21 = bitcast %class.Vector* %a342 to i8*, !dbg !1418
  %22 = bitcast %class.Vector* %ref.tmp39 to i8*, !dbg !1418
  call void @llvm.memcpy.p0i8.p0i8.i64(i8* align 8 %21, i8* align 8 %22, i64 24, i1 false), !dbg !1418
  %a344 = getelementptr inbounds %class.Lattice, %class.Lattice* %this1, i32 0, i32 2, !dbg !1419
  %call45 = call double @_ZNK6Vector6lengthEv(%class.Vector* %a344), !dbg !1420
  store double %call45, double* %ref.tmp43, align 8, !dbg !1419
  %a346 = getelementptr inbounds %class.Lattice, %class.Lattice* %this1, i32 0, i32 2, !dbg !1421
  call void @_ZN6VectordVERKd(%class.Vector* %a346, double* dereferenceable(8) %ref.tmp43), !dbg !1422
  br label %if.end47, !dbg !1423

if.end47:                                         ; preds = %if.then38, %if.end35
  %call48 = call double @_ZNK7Lattice6volumeEv(%class.Lattice* %this1), !dbg !1424
  %cmp49 = fcmp olt double %call48, 0.000000e+00, !dbg !1426
  br i1 %cmp49, label %if.then50, label %if.end53, !dbg !1427

if.then50:                                        ; preds = %if.end47
  store double -1.000000e+00, double* %ref.tmp51, align 8, !dbg !1428
  %a352 = getelementptr inbounds %class.Lattice, %class.Lattice* %this1, i32 0, i32 2, !dbg !1429
  call void @_ZN6VectormLERKd(%class.Vector* %a352, double* dereferenceable(8) %ref.tmp51), !dbg !1430
  br label %if.end53, !dbg !1429

if.end53:                                         ; preds = %if.then50, %if.end47
  call void @_ZN7Lattice11recalculateEv(%class.Lattice* %this1), !dbg !1431
  ret void, !dbg !1432
}

; Function Attrs: noinline nounwind uwtable
define linkonce_odr dso_local i32 @_ZN6Vector3setEPKc(%class.Vector* %this, i8* %s) #2 comdat align 2 !dbg !1433 {
entry:
  %retval = alloca i32, align 4
  %this.addr = alloca %class.Vector*, align 8
  %s.addr = alloca i8*, align 8
  %a = alloca [3 x double], align 16
  %tmp = alloca [100 x i8], align 16
  %i = alloca i32, align 4
  %t = alloca i8*, align 8
  %flg = alloca i32, align 4
  store %class.Vector* %this, %class.Vector** %this.addr, align 8
  call void @llvm.dbg.declare(metadata %class.Vector** %this.addr, metadata !1434, metadata !DIExpression()), !dbg !1435
  store i8* %s, i8** %s.addr, align 8
  call void @llvm.dbg.declare(metadata i8** %s.addr, metadata !1436, metadata !DIExpression()), !dbg !1437
  %this1 = load %class.Vector*, %class.Vector** %this.addr, align 8
  call void @llvm.dbg.declare(metadata [3 x double]* %a, metadata !1438, metadata !DIExpression()), !dbg !1442
  call void @llvm.dbg.declare(metadata [100 x i8]* %tmp, metadata !1443, metadata !DIExpression()), !dbg !1447
  call void @llvm.dbg.declare(metadata i32* %i, metadata !1448, metadata !DIExpression()), !dbg !1449
  %0 = load i8*, i8** %s.addr, align 8, !dbg !1450
  %arraydecay = getelementptr inbounds [3 x double], [3 x double]* %a, i64 0, i64 0, !dbg !1451
  %arraydecay2 = getelementptr inbounds [100 x i8], [100 x i8]* %tmp, i64 0, i64 0, !dbg !1452
  %arraydecay3 = getelementptr inbounds [3 x double], [3 x double]* %a, i64 0, i64 0, !dbg !1453
  %add.ptr = getelementptr inbounds double, double* %arraydecay3, i64 1, !dbg !1454
  %arraydecay4 = getelementptr inbounds [100 x i8], [100 x i8]* %tmp, i64 0, i64 0, !dbg !1455
  %arraydecay5 = getelementptr inbounds [3 x double], [3 x double]* %a, i64 0, i64 0, !dbg !1456
  %add.ptr6 = getelementptr inbounds double, double* %arraydecay5, i64 2, !dbg !1457
  %arraydecay7 = getelementptr inbounds [100 x i8], [100 x i8]* %tmp, i64 0, i64 0, !dbg !1458
  %call = call i32 (i8*, i8*, ...) @__isoc99_sscanf(i8* %0, i8* getelementptr inbounds ([30 x i8], [30 x i8]* @.str.48, i64 0, i64 0), double* %arraydecay, i8* %arraydecay2, double* %add.ptr, i8* %arraydecay4, double* %add.ptr6, i8* %arraydecay7) #8, !dbg !1459
  store i32 %call, i32* %i, align 4, !dbg !1449
  %1 = load i32, i32* %i, align 4, !dbg !1460
  %cmp = icmp ne i32 %1, 5, !dbg !1462
  br i1 %cmp, label %if.then, label %if.end, !dbg !1463

if.then:                                          ; preds = %entry
  store i32 0, i32* %retval, align 4, !dbg !1464
  br label %return, !dbg !1464

if.end:                                           ; preds = %entry
  call void @llvm.dbg.declare(metadata i8** %t, metadata !1465, metadata !DIExpression()), !dbg !1466
  %2 = load i8*, i8** %s.addr, align 8, !dbg !1467
  store i8* %2, i8** %t, align 8, !dbg !1466
  call void @llvm.dbg.declare(metadata i32* %flg, metadata !1468, metadata !DIExpression()), !dbg !1469
  store i32 0, i32* %flg, align 4, !dbg !1469
  store i32 0, i32* %i, align 4, !dbg !1470
  br label %for.cond, !dbg !1471

for.cond:                                         ; preds = %for.inc, %if.end
  %3 = load i8*, i8** %t, align 8, !dbg !1472
  %4 = load i8, i8* %3, align 1, !dbg !1475
  %tobool = icmp ne i8 %4, 0, !dbg !1475
  br i1 %tobool, label %for.body, label %for.end, !dbg !1476

for.body:                                         ; preds = %for.cond
  %5 = load i8*, i8** %t, align 8, !dbg !1477
  %6 = load i8, i8* %5, align 1, !dbg !1480
  %conv = sext i8 %6 to i32, !dbg !1480
  %cmp8 = icmp eq i32 %conv, 44, !dbg !1481
  br i1 %cmp8, label %if.then9, label %if.else, !dbg !1482

if.then9:                                         ; preds = %for.body
  %7 = load i32, i32* %flg, align 4, !dbg !1483
  %cmp10 = icmp eq i32 %7, 0, !dbg !1486
  br i1 %cmp10, label %if.then11, label %if.end12, !dbg !1487

if.then11:                                        ; preds = %if.then9
  store i32 0, i32* %retval, align 4, !dbg !1488
  br label %return, !dbg !1488

if.end12:                                         ; preds = %if.then9
  store i32 0, i32* %flg, align 4, !dbg !1490
  %8 = load i32, i32* %i, align 4, !dbg !1491
  %inc = add nsw i32 %8, 1, !dbg !1491
  store i32 %inc, i32* %i, align 4, !dbg !1491
  br label %if.end19, !dbg !1492

if.else:                                          ; preds = %for.body
  %9 = load i8*, i8** %t, align 8, !dbg !1493
  %10 = load i8, i8* %9, align 1, !dbg !1495
  %conv13 = sext i8 %10 to i32, !dbg !1495
  %cmp14 = icmp ne i32 %conv13, 32, !dbg !1496
  br i1 %cmp14, label %land.lhs.true, label %if.end18, !dbg !1497

land.lhs.true:                                    ; preds = %if.else
  %11 = load i8*, i8** %t, align 8, !dbg !1498
  %12 = load i8, i8* %11, align 1, !dbg !1499
  %conv15 = sext i8 %12 to i32, !dbg !1499
  %cmp16 = icmp ne i32 %conv15, 9, !dbg !1500
  br i1 %cmp16, label %if.then17, label %if.end18, !dbg !1501

if.then17:                                        ; preds = %land.lhs.true
  store i32 1, i32* %flg, align 4, !dbg !1502
  br label %if.end18, !dbg !1504

if.end18:                                         ; preds = %if.then17, %land.lhs.true, %if.else
  br label %if.end19

if.end19:                                         ; preds = %if.end18, %if.end12
  br label %for.inc, !dbg !1505

for.inc:                                          ; preds = %if.end19
  %13 = load i8*, i8** %t, align 8, !dbg !1506
  %incdec.ptr = getelementptr inbounds i8, i8* %13, i32 1, !dbg !1506
  store i8* %incdec.ptr, i8** %t, align 8, !dbg !1506
  br label %for.cond, !dbg !1507, !llvm.loop !1508

for.end:                                          ; preds = %for.cond
  %14 = load i32, i32* %i, align 4, !dbg !1510
  %cmp20 = icmp eq i32 %14, 0, !dbg !1512
  br i1 %cmp20, label %if.then22, label %lor.lhs.false, !dbg !1513

lor.lhs.false:                                    ; preds = %for.end
  %15 = load i32, i32* %i, align 4, !dbg !1514
  %cmp21 = icmp eq i32 %15, 2, !dbg !1515
  br i1 %cmp21, label %if.then22, label %if.end25, !dbg !1516

if.then22:                                        ; preds = %lor.lhs.false, %for.end
  %arrayidx = getelementptr inbounds [3 x double], [3 x double]* %a, i64 0, i64 0, !dbg !1517
  %16 = load double, double* %arrayidx, align 16, !dbg !1517
  %x = getelementptr inbounds %class.Vector, %class.Vector* %this1, i32 0, i32 0, !dbg !1519
  store double %16, double* %x, align 8, !dbg !1520
  %arrayidx23 = getelementptr inbounds [3 x double], [3 x double]* %a, i64 0, i64 1, !dbg !1521
  %17 = load double, double* %arrayidx23, align 8, !dbg !1521
  %y = getelementptr inbounds %class.Vector, %class.Vector* %this1, i32 0, i32 1, !dbg !1522
  store double %17, double* %y, align 8, !dbg !1523
  %arrayidx24 = getelementptr inbounds [3 x double], [3 x double]* %a, i64 0, i64 2, !dbg !1524
  %18 = load double, double* %arrayidx24, align 16, !dbg !1524
  %z = getelementptr inbounds %class.Vector, %class.Vector* %this1, i32 0, i32 2, !dbg !1525
  store double %18, double* %z, align 8, !dbg !1526
  store i32 1, i32* %retval, align 4, !dbg !1527
  br label %return, !dbg !1527

if.end25:                                         ; preds = %lor.lhs.false
  store i32 0, i32* %retval, align 4, !dbg !1528
  br label %return, !dbg !1528

return:                                           ; preds = %if.end25, %if.then22, %if.then11, %if.then
  %19 = load i32, i32* %retval, align 4, !dbg !1529
  ret i32 %19, !dbg !1529
}

; Function Attrs: nounwind
declare dso_local i32 @__isoc99_sscanf(i8*, i8*, ...) #6

; Function Attrs: nounwind readonly
declare dso_local i32 @atoi(i8*) #5

; Function Attrs: nounwind readonly
declare dso_local double @atof(i8*) #5

; Function Attrs: noinline nounwind uwtable
define linkonce_odr dso_local double @_ZNK6Vector7length2Ev(%class.Vector* %this) #2 comdat align 2 !dbg !1530 {
entry:
  %this.addr = alloca %class.Vector*, align 8
  store %class.Vector* %this, %class.Vector** %this.addr, align 8
  call void @llvm.dbg.declare(metadata %class.Vector** %this.addr, metadata !1531, metadata !DIExpression()), !dbg !1533
  %this1 = load %class.Vector*, %class.Vector** %this.addr, align 8
  %x = getelementptr inbounds %class.Vector, %class.Vector* %this1, i32 0, i32 0, !dbg !1534
  %0 = load double, double* %x, align 8, !dbg !1534
  %x2 = getelementptr inbounds %class.Vector, %class.Vector* %this1, i32 0, i32 0, !dbg !1535
  %1 = load double, double* %x2, align 8, !dbg !1535
  %mul = fmul double %0, %1, !dbg !1536
  %y = getelementptr inbounds %class.Vector, %class.Vector* %this1, i32 0, i32 1, !dbg !1537
  %2 = load double, double* %y, align 8, !dbg !1537
  %y3 = getelementptr inbounds %class.Vector, %class.Vector* %this1, i32 0, i32 1, !dbg !1538
  %3 = load double, double* %y3, align 8, !dbg !1538
  %mul4 = fmul double %2, %3, !dbg !1539
  %add = fadd double %mul, %mul4, !dbg !1540
  %z = getelementptr inbounds %class.Vector, %class.Vector* %this1, i32 0, i32 2, !dbg !1541
  %4 = load double, double* %z, align 8, !dbg !1541
  %z5 = getelementptr inbounds %class.Vector, %class.Vector* %this1, i32 0, i32 2, !dbg !1542
  %5 = load double, double* %z5, align 8, !dbg !1542
  %mul6 = fmul double %4, %5, !dbg !1543
  %add7 = fadd double %add, %mul6, !dbg !1544
  ret double %add7, !dbg !1545
}

; Function Attrs: noinline uwtable
define linkonce_odr dso_local void @_ZdvRK6VectorRKd(%class.Vector* noalias sret %agg.result, %class.Vector* dereferenceable(24) %v1, double* dereferenceable(8) %f) #0 comdat !dbg !1546 {
entry:
  %v1.addr = alloca %class.Vector*, align 8
  %f.addr = alloca double*, align 8
  store %class.Vector* %v1, %class.Vector** %v1.addr, align 8
  call void @llvm.dbg.declare(metadata %class.Vector** %v1.addr, metadata !1549, metadata !DIExpression()), !dbg !1550
  store double* %f, double** %f.addr, align 8
  call void @llvm.dbg.declare(metadata double** %f.addr, metadata !1551, metadata !DIExpression()), !dbg !1552
  %0 = load %class.Vector*, %class.Vector** %v1.addr, align 8, !dbg !1553
  %x = getelementptr inbounds %class.Vector, %class.Vector* %0, i32 0, i32 0, !dbg !1554
  %1 = load double, double* %x, align 8, !dbg !1554
  %2 = load double*, double** %f.addr, align 8, !dbg !1555
  %3 = load double, double* %2, align 8, !dbg !1555
  %div = fdiv double %1, %3, !dbg !1556
  %4 = load %class.Vector*, %class.Vector** %v1.addr, align 8, !dbg !1557
  %y = getelementptr inbounds %class.Vector, %class.Vector* %4, i32 0, i32 1, !dbg !1558
  %5 = load double, double* %y, align 8, !dbg !1558
  %6 = load double*, double** %f.addr, align 8, !dbg !1559
  %7 = load double, double* %6, align 8, !dbg !1559
  %div1 = fdiv double %5, %7, !dbg !1560
  %8 = load %class.Vector*, %class.Vector** %v1.addr, align 8, !dbg !1561
  %z = getelementptr inbounds %class.Vector, %class.Vector* %8, i32 0, i32 2, !dbg !1562
  %9 = load double, double* %z, align 8, !dbg !1562
  %10 = load double*, double** %f.addr, align 8, !dbg !1563
  %11 = load double, double* %10, align 8, !dbg !1563
  %div2 = fdiv double %9, %11, !dbg !1564
  call void @_ZN6VectorC2Eddd(%class.Vector* %agg.result, double %div, double %div1, double %div2), !dbg !1565
  ret void, !dbg !1566
}

; Function Attrs: noinline nounwind uwtable
define linkonce_odr dso_local double @_ZNK6Vector6lengthEv(%class.Vector* %this) #2 comdat align 2 !dbg !1567 {
entry:
  %this.addr = alloca %class.Vector*, align 8
  store %class.Vector* %this, %class.Vector** %this.addr, align 8
  call void @llvm.dbg.declare(metadata %class.Vector** %this.addr, metadata !1568, metadata !DIExpression()), !dbg !1569
  %this1 = load %class.Vector*, %class.Vector** %this.addr, align 8
  %x = getelementptr inbounds %class.Vector, %class.Vector* %this1, i32 0, i32 0, !dbg !1570
  %0 = load double, double* %x, align 8, !dbg !1570
  %x2 = getelementptr inbounds %class.Vector, %class.Vector* %this1, i32 0, i32 0, !dbg !1571
  %1 = load double, double* %x2, align 8, !dbg !1571
  %mul = fmul double %0, %1, !dbg !1572
  %y = getelementptr inbounds %class.Vector, %class.Vector* %this1, i32 0, i32 1, !dbg !1573
  %2 = load double, double* %y, align 8, !dbg !1573
  %y3 = getelementptr inbounds %class.Vector, %class.Vector* %this1, i32 0, i32 1, !dbg !1574
  %3 = load double, double* %y3, align 8, !dbg !1574
  %mul4 = fmul double %2, %3, !dbg !1575
  %add = fadd double %mul, %mul4, !dbg !1576
  %z = getelementptr inbounds %class.Vector, %class.Vector* %this1, i32 0, i32 2, !dbg !1577
  %4 = load double, double* %z, align 8, !dbg !1577
  %z5 = getelementptr inbounds %class.Vector, %class.Vector* %this1, i32 0, i32 2, !dbg !1578
  %5 = load double, double* %z5, align 8, !dbg !1578
  %mul6 = fmul double %4, %5, !dbg !1579
  %add7 = fadd double %add, %mul6, !dbg !1580
  %call = call double @sqrt(double %add7) #8, !dbg !1581
  ret double %call, !dbg !1582
}

; Function Attrs: noinline nounwind uwtable
define linkonce_odr dso_local double @_ZmlRK6VectorS1_(%class.Vector* dereferenceable(24) %v1, %class.Vector* dereferenceable(24) %v2) #2 comdat !dbg !1583 {
entry:
  %v1.addr = alloca %class.Vector*, align 8
  %v2.addr = alloca %class.Vector*, align 8
  store %class.Vector* %v1, %class.Vector** %v1.addr, align 8
  call void @llvm.dbg.declare(metadata %class.Vector** %v1.addr, metadata !1586, metadata !DIExpression()), !dbg !1587
  store %class.Vector* %v2, %class.Vector** %v2.addr, align 8
  call void @llvm.dbg.declare(metadata %class.Vector** %v2.addr, metadata !1588, metadata !DIExpression()), !dbg !1589
  %0 = load %class.Vector*, %class.Vector** %v1.addr, align 8, !dbg !1590
  %x = getelementptr inbounds %class.Vector, %class.Vector* %0, i32 0, i32 0, !dbg !1591
  %1 = load double, double* %x, align 8, !dbg !1591
  %2 = load %class.Vector*, %class.Vector** %v2.addr, align 8, !dbg !1592
  %x1 = getelementptr inbounds %class.Vector, %class.Vector* %2, i32 0, i32 0, !dbg !1593
  %3 = load double, double* %x1, align 8, !dbg !1593
  %mul = fmul double %1, %3, !dbg !1594
  %4 = load %class.Vector*, %class.Vector** %v1.addr, align 8, !dbg !1595
  %y = getelementptr inbounds %class.Vector, %class.Vector* %4, i32 0, i32 1, !dbg !1596
  %5 = load double, double* %y, align 8, !dbg !1596
  %6 = load %class.Vector*, %class.Vector** %v2.addr, align 8, !dbg !1597
  %y2 = getelementptr inbounds %class.Vector, %class.Vector* %6, i32 0, i32 1, !dbg !1598
  %7 = load double, double* %y2, align 8, !dbg !1598
  %mul3 = fmul double %5, %7, !dbg !1599
  %add = fadd double %mul, %mul3, !dbg !1600
  %8 = load %class.Vector*, %class.Vector** %v1.addr, align 8, !dbg !1601
  %z = getelementptr inbounds %class.Vector, %class.Vector* %8, i32 0, i32 2, !dbg !1602
  %9 = load double, double* %z, align 8, !dbg !1602
  %10 = load %class.Vector*, %class.Vector** %v2.addr, align 8, !dbg !1603
  %z4 = getelementptr inbounds %class.Vector, %class.Vector* %10, i32 0, i32 2, !dbg !1604
  %11 = load double, double* %z4, align 8, !dbg !1604
  %mul5 = fmul double %9, %11, !dbg !1605
  %add6 = fadd double %add, %mul5, !dbg !1606
  ret double %add6, !dbg !1607
}

; Function Attrs: nounwind readnone speculatable willreturn
declare double @llvm.fabs.f64(double) #1

; Function Attrs: noinline uwtable
define linkonce_odr dso_local void @_Z5crossRK6VectorS1_(%class.Vector* noalias sret %agg.result, %class.Vector* dereferenceable(24) %v1, %class.Vector* dereferenceable(24) %v2) #0 comdat !dbg !1608 {
entry:
  %v1.addr = alloca %class.Vector*, align 8
  %v2.addr = alloca %class.Vector*, align 8
  store %class.Vector* %v1, %class.Vector** %v1.addr, align 8
  call void @llvm.dbg.declare(metadata %class.Vector** %v1.addr, metadata !1611, metadata !DIExpression()), !dbg !1612
  store %class.Vector* %v2, %class.Vector** %v2.addr, align 8
  call void @llvm.dbg.declare(metadata %class.Vector** %v2.addr, metadata !1613, metadata !DIExpression()), !dbg !1614
  %0 = load %class.Vector*, %class.Vector** %v1.addr, align 8, !dbg !1615
  %y = getelementptr inbounds %class.Vector, %class.Vector* %0, i32 0, i32 1, !dbg !1616
  %1 = load double, double* %y, align 8, !dbg !1616
  %2 = load %class.Vector*, %class.Vector** %v2.addr, align 8, !dbg !1617
  %z = getelementptr inbounds %class.Vector, %class.Vector* %2, i32 0, i32 2, !dbg !1618
  %3 = load double, double* %z, align 8, !dbg !1618
  %mul = fmul double %1, %3, !dbg !1619
  %4 = load %class.Vector*, %class.Vector** %v2.addr, align 8, !dbg !1620
  %y1 = getelementptr inbounds %class.Vector, %class.Vector* %4, i32 0, i32 1, !dbg !1621
  %5 = load double, double* %y1, align 8, !dbg !1621
  %6 = load %class.Vector*, %class.Vector** %v1.addr, align 8, !dbg !1622
  %z2 = getelementptr inbounds %class.Vector, %class.Vector* %6, i32 0, i32 2, !dbg !1623
  %7 = load double, double* %z2, align 8, !dbg !1623
  %mul3 = fmul double %5, %7, !dbg !1624
  %sub = fsub double %mul, %mul3, !dbg !1625
  %8 = load %class.Vector*, %class.Vector** %v2.addr, align 8, !dbg !1626
  %x = getelementptr inbounds %class.Vector, %class.Vector* %8, i32 0, i32 0, !dbg !1627
  %9 = load double, double* %x, align 8, !dbg !1627
  %10 = load %class.Vector*, %class.Vector** %v1.addr, align 8, !dbg !1628
  %z4 = getelementptr inbounds %class.Vector, %class.Vector* %10, i32 0, i32 2, !dbg !1629
  %11 = load double, double* %z4, align 8, !dbg !1629
  %mul5 = fmul double %9, %11, !dbg !1630
  %12 = load %class.Vector*, %class.Vector** %v1.addr, align 8, !dbg !1631
  %x6 = getelementptr inbounds %class.Vector, %class.Vector* %12, i32 0, i32 0, !dbg !1632
  %13 = load double, double* %x6, align 8, !dbg !1632
  %14 = load %class.Vector*, %class.Vector** %v2.addr, align 8, !dbg !1633
  %z7 = getelementptr inbounds %class.Vector, %class.Vector* %14, i32 0, i32 2, !dbg !1634
  %15 = load double, double* %z7, align 8, !dbg !1634
  %mul8 = fmul double %13, %15, !dbg !1635
  %sub9 = fsub double %mul5, %mul8, !dbg !1636
  %16 = load %class.Vector*, %class.Vector** %v1.addr, align 8, !dbg !1637
  %x10 = getelementptr inbounds %class.Vector, %class.Vector* %16, i32 0, i32 0, !dbg !1638
  %17 = load double, double* %x10, align 8, !dbg !1638
  %18 = load %class.Vector*, %class.Vector** %v2.addr, align 8, !dbg !1639
  %y11 = getelementptr inbounds %class.Vector, %class.Vector* %18, i32 0, i32 1, !dbg !1640
  %19 = load double, double* %y11, align 8, !dbg !1640
  %mul12 = fmul double %17, %19, !dbg !1641
  %20 = load %class.Vector*, %class.Vector** %v2.addr, align 8, !dbg !1642
  %x13 = getelementptr inbounds %class.Vector, %class.Vector* %20, i32 0, i32 0, !dbg !1643
  %21 = load double, double* %x13, align 8, !dbg !1643
  %22 = load %class.Vector*, %class.Vector** %v1.addr, align 8, !dbg !1644
  %y14 = getelementptr inbounds %class.Vector, %class.Vector* %22, i32 0, i32 1, !dbg !1645
  %23 = load double, double* %y14, align 8, !dbg !1645
  %mul15 = fmul double %21, %23, !dbg !1646
  %sub16 = fsub double %mul12, %mul15, !dbg !1647
  call void @_ZN6VectorC2Eddd(%class.Vector* %agg.result, double %sub, double %sub9, double %sub16), !dbg !1648
  ret void, !dbg !1649
}

; Function Attrs: noinline nounwind uwtable
define linkonce_odr dso_local void @_ZN6VectordVERKd(%class.Vector* %this, double* dereferenceable(8) %v2) #2 comdat align 2 !dbg !1650 {
entry:
  %this.addr = alloca %class.Vector*, align 8
  %v2.addr = alloca double*, align 8
  store %class.Vector* %this, %class.Vector** %this.addr, align 8
  call void @llvm.dbg.declare(metadata %class.Vector** %this.addr, metadata !1651, metadata !DIExpression()), !dbg !1652
  store double* %v2, double** %v2.addr, align 8
  call void @llvm.dbg.declare(metadata double** %v2.addr, metadata !1653, metadata !DIExpression()), !dbg !1654
  %this1 = load %class.Vector*, %class.Vector** %this.addr, align 8
  %0 = load double*, double** %v2.addr, align 8, !dbg !1655
  %1 = load double, double* %0, align 8, !dbg !1655
  %x = getelementptr inbounds %class.Vector, %class.Vector* %this1, i32 0, i32 0, !dbg !1656
  %2 = load double, double* %x, align 8, !dbg !1657
  %div = fdiv double %2, %1, !dbg !1657
  store double %div, double* %x, align 8, !dbg !1657
  %3 = load double*, double** %v2.addr, align 8, !dbg !1658
  %4 = load double, double* %3, align 8, !dbg !1658
  %y = getelementptr inbounds %class.Vector, %class.Vector* %this1, i32 0, i32 1, !dbg !1659
  %5 = load double, double* %y, align 8, !dbg !1660
  %div2 = fdiv double %5, %4, !dbg !1660
  store double %div2, double* %y, align 8, !dbg !1660
  %6 = load double*, double** %v2.addr, align 8, !dbg !1661
  %7 = load double, double* %6, align 8, !dbg !1661
  %z = getelementptr inbounds %class.Vector, %class.Vector* %this1, i32 0, i32 2, !dbg !1662
  %8 = load double, double* %z, align 8, !dbg !1663
  %div3 = fdiv double %8, %7, !dbg !1663
  store double %div3, double* %z, align 8, !dbg !1663
  ret void, !dbg !1664
}

; Function Attrs: noinline uwtable
define linkonce_odr dso_local double @_ZNK7Lattice6volumeEv(%class.Lattice* %this) #0 comdat align 2 !dbg !1665 {
entry:
  %this.addr = alloca %class.Lattice*, align 8
  %ref.tmp = alloca %class.Vector, align 8
  store %class.Lattice* %this, %class.Lattice** %this.addr, align 8
  call void @llvm.dbg.declare(metadata %class.Lattice** %this.addr, metadata !1666, metadata !DIExpression()), !dbg !1668
  %this1 = load %class.Lattice*, %class.Lattice** %this.addr, align 8
  %p1 = getelementptr inbounds %class.Lattice, %class.Lattice* %this1, i32 0, i32 7, !dbg !1669
  %0 = load i32, i32* %p1, align 8, !dbg !1669
  %tobool = icmp ne i32 %0, 0, !dbg !1669
  br i1 %tobool, label %land.lhs.true, label %cond.false, !dbg !1670

land.lhs.true:                                    ; preds = %entry
  %p2 = getelementptr inbounds %class.Lattice, %class.Lattice* %this1, i32 0, i32 8, !dbg !1671
  %1 = load i32, i32* %p2, align 4, !dbg !1671
  %tobool2 = icmp ne i32 %1, 0, !dbg !1671
  br i1 %tobool2, label %land.lhs.true3, label %cond.false, !dbg !1672

land.lhs.true3:                                   ; preds = %land.lhs.true
  %p3 = getelementptr inbounds %class.Lattice, %class.Lattice* %this1, i32 0, i32 9, !dbg !1673
  %2 = load i32, i32* %p3, align 8, !dbg !1673
  %tobool4 = icmp ne i32 %2, 0, !dbg !1673
  br i1 %tobool4, label %cond.true, label %cond.false, !dbg !1669

cond.true:                                        ; preds = %land.lhs.true3
  %a1 = getelementptr inbounds %class.Lattice, %class.Lattice* %this1, i32 0, i32 0, !dbg !1674
  %a2 = getelementptr inbounds %class.Lattice, %class.Lattice* %this1, i32 0, i32 1, !dbg !1675
  call void @_Z5crossRK6VectorS1_(%class.Vector* sret %ref.tmp, %class.Vector* dereferenceable(24) %a1, %class.Vector* dereferenceable(24) %a2), !dbg !1676
  %a3 = getelementptr inbounds %class.Lattice, %class.Lattice* %this1, i32 0, i32 2, !dbg !1677
  %call = call double @_ZmlRK6VectorS1_(%class.Vector* dereferenceable(24) %ref.tmp, %class.Vector* dereferenceable(24) %a3), !dbg !1678
  br label %cond.end, !dbg !1669

cond.false:                                       ; preds = %land.lhs.true3, %land.lhs.true, %entry
  br label %cond.end, !dbg !1669

cond.end:                                         ; preds = %cond.false, %cond.true
  %cond = phi double [ %call, %cond.true ], [ 0.000000e+00, %cond.false ], !dbg !1669
  ret double %cond, !dbg !1679
}

; Function Attrs: noinline nounwind uwtable
define linkonce_odr dso_local void @_ZN6VectormLERKd(%class.Vector* %this, double* dereferenceable(8) %v2) #2 comdat align 2 !dbg !1680 {
entry:
  %this.addr = alloca %class.Vector*, align 8
  %v2.addr = alloca double*, align 8
  store %class.Vector* %this, %class.Vector** %this.addr, align 8
  call void @llvm.dbg.declare(metadata %class.Vector** %this.addr, metadata !1681, metadata !DIExpression()), !dbg !1682
  store double* %v2, double** %v2.addr, align 8
  call void @llvm.dbg.declare(metadata double** %v2.addr, metadata !1683, metadata !DIExpression()), !dbg !1684
  %this1 = load %class.Vector*, %class.Vector** %this.addr, align 8
  %0 = load double*, double** %v2.addr, align 8, !dbg !1685
  %1 = load double, double* %0, align 8, !dbg !1685
  %x = getelementptr inbounds %class.Vector, %class.Vector* %this1, i32 0, i32 0, !dbg !1686
  %2 = load double, double* %x, align 8, !dbg !1687
  %mul = fmul double %2, %1, !dbg !1687
  store double %mul, double* %x, align 8, !dbg !1687
  %3 = load double*, double** %v2.addr, align 8, !dbg !1688
  %4 = load double, double* %3, align 8, !dbg !1688
  %y = getelementptr inbounds %class.Vector, %class.Vector* %this1, i32 0, i32 1, !dbg !1689
  %5 = load double, double* %y, align 8, !dbg !1690
  %mul2 = fmul double %5, %4, !dbg !1690
  store double %mul2, double* %y, align 8, !dbg !1690
  %6 = load double*, double** %v2.addr, align 8, !dbg !1691
  %7 = load double, double* %6, align 8, !dbg !1691
  %z = getelementptr inbounds %class.Vector, %class.Vector* %this1, i32 0, i32 2, !dbg !1692
  %8 = load double, double* %z, align 8, !dbg !1693
  %mul3 = fmul double %8, %7, !dbg !1693
  store double %mul3, double* %z, align 8, !dbg !1693
  ret void, !dbg !1694
}

; Function Attrs: noinline uwtable
define linkonce_odr dso_local void @_ZN7Lattice11recalculateEv(%class.Lattice* %this) #0 comdat align 2 !dbg !1695 {
entry:
  %this.addr = alloca %class.Lattice*, align 8
  %c = alloca %class.Vector, align 8
  %ref.tmp = alloca %class.Vector, align 8
  %ref.tmp2 = alloca double, align 8
  %c3 = alloca %class.Vector, align 8
  %ref.tmp6 = alloca %class.Vector, align 8
  %ref.tmp7 = alloca double, align 8
  %c10 = alloca %class.Vector, align 8
  %ref.tmp13 = alloca %class.Vector, align 8
  %ref.tmp14 = alloca double, align 8
  store %class.Lattice* %this, %class.Lattice** %this.addr, align 8
  call void @llvm.dbg.declare(metadata %class.Lattice** %this.addr, metadata !1696, metadata !DIExpression()), !dbg !1697
  %this1 = load %class.Lattice*, %class.Lattice** %this.addr, align 8
  call void @llvm.dbg.declare(metadata %class.Vector* %c, metadata !1698, metadata !DIExpression()), !dbg !1700
  %a2 = getelementptr inbounds %class.Lattice, %class.Lattice* %this1, i32 0, i32 1, !dbg !1701
  %a3 = getelementptr inbounds %class.Lattice, %class.Lattice* %this1, i32 0, i32 2, !dbg !1702
  call void @_Z5crossRK6VectorS1_(%class.Vector* sret %c, %class.Vector* dereferenceable(24) %a2, %class.Vector* dereferenceable(24) %a3), !dbg !1703
  %a1 = getelementptr inbounds %class.Lattice, %class.Lattice* %this1, i32 0, i32 0, !dbg !1704
  %call = call double @_ZmlRK6VectorS1_(%class.Vector* dereferenceable(24) %a1, %class.Vector* dereferenceable(24) %c), !dbg !1705
  store double %call, double* %ref.tmp2, align 8, !dbg !1706
  call void @_ZdvRK6VectorRKd(%class.Vector* sret %ref.tmp, %class.Vector* dereferenceable(24) %c, double* dereferenceable(8) %ref.tmp2), !dbg !1707
  %b1 = getelementptr inbounds %class.Lattice, %class.Lattice* %this1, i32 0, i32 3, !dbg !1708
  %0 = bitcast %class.Vector* %b1 to i8*, !dbg !1709
  %1 = bitcast %class.Vector* %ref.tmp to i8*, !dbg !1709
  call void @llvm.memcpy.p0i8.p0i8.i64(i8* align 8 %0, i8* align 8 %1, i64 24, i1 false), !dbg !1709
  call void @llvm.dbg.declare(metadata %class.Vector* %c3, metadata !1710, metadata !DIExpression()), !dbg !1712
  %a34 = getelementptr inbounds %class.Lattice, %class.Lattice* %this1, i32 0, i32 2, !dbg !1713
  %a15 = getelementptr inbounds %class.Lattice, %class.Lattice* %this1, i32 0, i32 0, !dbg !1714
  call void @_Z5crossRK6VectorS1_(%class.Vector* sret %c3, %class.Vector* dereferenceable(24) %a34, %class.Vector* dereferenceable(24) %a15), !dbg !1715
  %a28 = getelementptr inbounds %class.Lattice, %class.Lattice* %this1, i32 0, i32 1, !dbg !1716
  %call9 = call double @_ZmlRK6VectorS1_(%class.Vector* dereferenceable(24) %a28, %class.Vector* dereferenceable(24) %c3), !dbg !1717
  store double %call9, double* %ref.tmp7, align 8, !dbg !1718
  call void @_ZdvRK6VectorRKd(%class.Vector* sret %ref.tmp6, %class.Vector* dereferenceable(24) %c3, double* dereferenceable(8) %ref.tmp7), !dbg !1719
  %b2 = getelementptr inbounds %class.Lattice, %class.Lattice* %this1, i32 0, i32 4, !dbg !1720
  %2 = bitcast %class.Vector* %b2 to i8*, !dbg !1721
  %3 = bitcast %class.Vector* %ref.tmp6 to i8*, !dbg !1721
  call void @llvm.memcpy.p0i8.p0i8.i64(i8* align 8 %2, i8* align 8 %3, i64 24, i1 false), !dbg !1721
  call void @llvm.dbg.declare(metadata %class.Vector* %c10, metadata !1722, metadata !DIExpression()), !dbg !1724
  %a111 = getelementptr inbounds %class.Lattice, %class.Lattice* %this1, i32 0, i32 0, !dbg !1725
  %a212 = getelementptr inbounds %class.Lattice, %class.Lattice* %this1, i32 0, i32 1, !dbg !1726
  call void @_Z5crossRK6VectorS1_(%class.Vector* sret %c10, %class.Vector* dereferenceable(24) %a111, %class.Vector* dereferenceable(24) %a212), !dbg !1727
  %a315 = getelementptr inbounds %class.Lattice, %class.Lattice* %this1, i32 0, i32 2, !dbg !1728
  %call16 = call double @_ZmlRK6VectorS1_(%class.Vector* dereferenceable(24) %a315, %class.Vector* dereferenceable(24) %c10), !dbg !1729
  store double %call16, double* %ref.tmp14, align 8, !dbg !1730
  call void @_ZdvRK6VectorRKd(%class.Vector* sret %ref.tmp13, %class.Vector* dereferenceable(24) %c10, double* dereferenceable(8) %ref.tmp14), !dbg !1731
  %b3 = getelementptr inbounds %class.Lattice, %class.Lattice* %this1, i32 0, i32 5, !dbg !1732
  %4 = bitcast %class.Vector* %b3 to i8*, !dbg !1733
  %5 = bitcast %class.Vector* %ref.tmp13 to i8*, !dbg !1733
  call void @llvm.memcpy.p0i8.p0i8.i64(i8* align 8 %4, i8* align 8 %5, i64 24, i1 false), !dbg !1733
  ret void, !dbg !1734
}

; Function Attrs: nounwind
declare dso_local double @sqrt(double) #6

attributes #0 = { noinline uwtable "correctly-rounded-divide-sqrt-fp-math"="false" "disable-tail-calls"="false" "frame-pointer"="all" "less-precise-fpmad"="false" "min-legal-vector-width"="0" "no-infs-fp-math"="false" "no-jump-tables"="false" "no-nans-fp-math"="false" "no-signed-zeros-fp-math"="false" "no-trapping-math"="false" "stack-protector-buffer-size"="8" "target-cpu"="x86-64" "target-features"="+cx8,+fxsr,+mmx,+sse,+sse2,+x87" "unsafe-fp-math"="false" "use-soft-float"="false" }
attributes #1 = { nounwind readnone speculatable willreturn }
attributes #2 = { noinline nounwind uwtable "correctly-rounded-divide-sqrt-fp-math"="false" "disable-tail-calls"="false" "frame-pointer"="all" "less-precise-fpmad"="false" "min-legal-vector-width"="0" "no-infs-fp-math"="false" "no-jump-tables"="false" "no-nans-fp-math"="false" "no-signed-zeros-fp-math"="false" "no-trapping-math"="false" "stack-protector-buffer-size"="8" "target-cpu"="x86-64" "target-features"="+cx8,+fxsr,+mmx,+sse,+sse2,+x87" "unsafe-fp-math"="false" "use-soft-float"="false" }
attributes #3 = { argmemonly nounwind willreturn }
attributes #4 = { "correctly-rounded-divide-sqrt-fp-math"="false" "disable-tail-calls"="false" "frame-pointer"="all" "less-precise-fpmad"="false" "no-infs-fp-math"="false" "no-nans-fp-math"="false" "no-signed-zeros-fp-math"="false" "no-trapping-math"="false" "stack-protector-buffer-size"="8" "target-cpu"="x86-64" "target-features"="+cx8,+fxsr,+mmx,+sse,+sse2,+x87" "unsafe-fp-math"="false" "use-soft-float"="false" }
attributes #5 = { nounwind readonly "correctly-rounded-divide-sqrt-fp-math"="false" "disable-tail-calls"="false" "frame-pointer"="all" "less-precise-fpmad"="false" "no-infs-fp-math"="false" "no-nans-fp-math"="false" "no-signed-zeros-fp-math"="false" "no-trapping-math"="false" "stack-protector-buffer-size"="8" "target-cpu"="x86-64" "target-features"="+cx8,+fxsr,+mmx,+sse,+sse2,+x87" "unsafe-fp-math"="false" "use-soft-float"="false" }
attributes #6 = { nounwind "correctly-rounded-divide-sqrt-fp-math"="false" "disable-tail-calls"="false" "frame-pointer"="all" "less-precise-fpmad"="false" "no-infs-fp-math"="false" "no-nans-fp-math"="false" "no-signed-zeros-fp-math"="false" "no-trapping-math"="false" "stack-protector-buffer-size"="8" "target-cpu"="x86-64" "target-features"="+cx8,+fxsr,+mmx,+sse,+sse2,+x87" "unsafe-fp-math"="false" "use-soft-float"="false" }
attributes #7 = { nounwind readonly }
attributes #8 = { nounwind }

!llvm.dbg.cu = !{!0}
!llvm.module.flags = !{!645, !646, !647}
!llvm.ident = !{!648}

!0 = distinct !DICompileUnit(language: DW_LANG_C_plus_plus_14, file: !1, producer: "clang version 10.0.1 (https://github.com/svkeerthy/IR2Vec-LoopOptimizationFramework.git 561ac470e63b728263a0ac06ef987886ac648486)", isOptimized: false, runtimeVersion: 0, emissionKind: FullDebug, enums: !2, imports: !3, splitDebugInlining: false, nameTableKind: None)
!1 = !DIFile(filename: "SimParameters.C", directory: "/home/venkat/IF-DV/spec_build_release/CPU_2017/benchspec/CPU/508.namd_r/build/build_base_ld-loop-ext-m64.0000")
!2 = !{}
!3 = !{!4, !12, !16, !23, !27, !32, !34, !42, !46, !50, !64, !68, !72, !76, !80, !85, !89, !93, !97, !101, !109, !113, !117, !119, !123, !127, !132, !138, !142, !146, !148, !156, !160, !168, !170, !174, !178, !182, !186, !191, !196, !201, !202, !203, !204, !206, !207, !208, !209, !210, !211, !212, !214, !215, !216, !217, !218, !219, !220, !225, !226, !227, !228, !229, !230, !231, !232, !233, !234, !235, !236, !237, !238, !239, !240, !241, !242, !243, !244, !245, !246, !247, !248, !249, !255, !257, !259, !263, !265, !267, !269, !271, !273, !275, !277, !282, !286, !288, !290, !295, !297, !299, !301, !303, !305, !307, !310, !312, !314, !318, !322, !324, !326, !328, !330, !332, !334, !336, !338, !340, !342, !346, !350, !352, !354, !356, !358, !360, !362, !364, !366, !368, !370, !372, !374, !376, !378, !380, !384, !388, !392, !394, !396, !398, !400, !402, !404, !406, !408, !410, !414, !418, !422, !424, !426, !428, !432, !436, !440, !442, !444, !446, !448, !450, !452, !454, !456, !458, !460, !462, !464, !468, !472, !476, !478, !480, !482, !484, !488, !492, !494, !496, !498, !500, !502, !504, !508, !512, !514, !516, !518, !520, !524, !528, !532, !534, !536, !538, !540, !542, !544, !548, !552, !556, !558, !562, !566, !568, !570, !572, !574, !576, !578, !580, !585, !641}
!4 = !DIImportedEntity(tag: DW_TAG_imported_declaration, scope: !5, entity: !6, file: !11, line: 52)
!5 = !DINamespace(name: "std", scope: null)
!6 = !DISubprogram(name: "abs", scope: !7, file: !7, line: 840, type: !8, flags: DIFlagPrototyped, spFlags: 0)
!7 = !DIFile(filename: "/usr/include/stdlib.h", directory: "")
!8 = !DISubroutineType(types: !9)
!9 = !{!10, !10}
!10 = !DIBasicType(name: "int", size: 32, encoding: DW_ATE_signed)
!11 = !DIFile(filename: "/usr/lib/gcc/x86_64-linux-gnu/10/../../../../include/c++/10/bits/std_abs.h", directory: "")
!12 = !DIImportedEntity(tag: DW_TAG_imported_declaration, scope: !5, entity: !13, file: !15, line: 127)
!13 = !DIDerivedType(tag: DW_TAG_typedef, name: "div_t", file: !7, line: 62, baseType: !14)
!14 = !DICompositeType(tag: DW_TAG_structure_type, file: !7, line: 58, flags: DIFlagFwdDecl, identifier: "_ZTS5div_t")
!15 = !DIFile(filename: "/usr/lib/gcc/x86_64-linux-gnu/10/../../../../include/c++/10/cstdlib", directory: "")
!16 = !DIImportedEntity(tag: DW_TAG_imported_declaration, scope: !5, entity: !17, file: !15, line: 128)
!17 = !DIDerivedType(tag: DW_TAG_typedef, name: "ldiv_t", file: !7, line: 70, baseType: !18)
!18 = distinct !DICompositeType(tag: DW_TAG_structure_type, file: !7, line: 66, size: 128, flags: DIFlagTypePassByValue, elements: !19, identifier: "_ZTS6ldiv_t")
!19 = !{!20, !22}
!20 = !DIDerivedType(tag: DW_TAG_member, name: "quot", scope: !18, file: !7, line: 68, baseType: !21, size: 64)
!21 = !DIBasicType(name: "long int", size: 64, encoding: DW_ATE_signed)
!22 = !DIDerivedType(tag: DW_TAG_member, name: "rem", scope: !18, file: !7, line: 69, baseType: !21, size: 64, offset: 64)
!23 = !DIImportedEntity(tag: DW_TAG_imported_declaration, scope: !5, entity: !24, file: !15, line: 130)
!24 = !DISubprogram(name: "abort", scope: !7, file: !7, line: 591, type: !25, flags: DIFlagPrototyped | DIFlagNoReturn, spFlags: 0)
!25 = !DISubroutineType(types: !26)
!26 = !{null}
!27 = !DIImportedEntity(tag: DW_TAG_imported_declaration, scope: !5, entity: !28, file: !15, line: 134)
!28 = !DISubprogram(name: "atexit", scope: !7, file: !7, line: 595, type: !29, flags: DIFlagPrototyped, spFlags: 0)
!29 = !DISubroutineType(types: !30)
!30 = !{!10, !31}
!31 = !DIDerivedType(tag: DW_TAG_pointer_type, baseType: !25, size: 64)
!32 = !DIImportedEntity(tag: DW_TAG_imported_declaration, scope: !5, entity: !33, file: !15, line: 137)
!33 = !DISubprogram(name: "at_quick_exit", scope: !7, file: !7, line: 600, type: !29, flags: DIFlagPrototyped, spFlags: 0)
!34 = !DIImportedEntity(tag: DW_TAG_imported_declaration, scope: !5, entity: !35, file: !15, line: 140)
!35 = !DISubprogram(name: "atof", scope: !7, file: !7, line: 101, type: !36, flags: DIFlagPrototyped, spFlags: 0)
!36 = !DISubroutineType(types: !37)
!37 = !{!38, !39}
!38 = !DIBasicType(name: "double", size: 64, encoding: DW_ATE_float)
!39 = !DIDerivedType(tag: DW_TAG_pointer_type, baseType: !40, size: 64)
!40 = !DIDerivedType(tag: DW_TAG_const_type, baseType: !41)
!41 = !DIBasicType(name: "char", size: 8, encoding: DW_ATE_signed_char)
!42 = !DIImportedEntity(tag: DW_TAG_imported_declaration, scope: !5, entity: !43, file: !15, line: 141)
!43 = !DISubprogram(name: "atoi", scope: !7, file: !7, line: 104, type: !44, flags: DIFlagPrototyped, spFlags: 0)
!44 = !DISubroutineType(types: !45)
!45 = !{!10, !39}
!46 = !DIImportedEntity(tag: DW_TAG_imported_declaration, scope: !5, entity: !47, file: !15, line: 142)
!47 = !DISubprogram(name: "atol", scope: !7, file: !7, line: 107, type: !48, flags: DIFlagPrototyped, spFlags: 0)
!48 = !DISubroutineType(types: !49)
!49 = !{!21, !39}
!50 = !DIImportedEntity(tag: DW_TAG_imported_declaration, scope: !5, entity: !51, file: !15, line: 143)
!51 = !DISubprogram(name: "bsearch", scope: !7, file: !7, line: 820, type: !52, flags: DIFlagPrototyped, spFlags: 0)
!52 = !DISubroutineType(types: !53)
!53 = !{!54, !55, !55, !57, !57, !60}
!54 = !DIDerivedType(tag: DW_TAG_pointer_type, baseType: null, size: 64)
!55 = !DIDerivedType(tag: DW_TAG_pointer_type, baseType: !56, size: 64)
!56 = !DIDerivedType(tag: DW_TAG_const_type, baseType: null)
!57 = !DIDerivedType(tag: DW_TAG_typedef, name: "size_t", file: !58, line: 46, baseType: !59)
!58 = !DIFile(filename: "Rohit/IR2Vec-LoopOptimizationFramework/build_REL_AsrtON/lib/clang/10.0.1/include/stddef.h", directory: "/home/venkat/IF-DV")
!59 = !DIBasicType(name: "long unsigned int", size: 64, encoding: DW_ATE_unsigned)
!60 = !DIDerivedType(tag: DW_TAG_typedef, name: "__compar_fn_t", file: !7, line: 808, baseType: !61)
!61 = !DIDerivedType(tag: DW_TAG_pointer_type, baseType: !62, size: 64)
!62 = !DISubroutineType(types: !63)
!63 = !{!10, !55, !55}
!64 = !DIImportedEntity(tag: DW_TAG_imported_declaration, scope: !5, entity: !65, file: !15, line: 144)
!65 = !DISubprogram(name: "calloc", scope: !7, file: !7, line: 542, type: !66, flags: DIFlagPrototyped, spFlags: 0)
!66 = !DISubroutineType(types: !67)
!67 = !{!54, !57, !57}
!68 = !DIImportedEntity(tag: DW_TAG_imported_declaration, scope: !5, entity: !69, file: !15, line: 145)
!69 = !DISubprogram(name: "div", scope: !7, file: !7, line: 852, type: !70, flags: DIFlagPrototyped, spFlags: 0)
!70 = !DISubroutineType(types: !71)
!71 = !{!13, !10, !10}
!72 = !DIImportedEntity(tag: DW_TAG_imported_declaration, scope: !5, entity: !73, file: !15, line: 146)
!73 = !DISubprogram(name: "exit", scope: !7, file: !7, line: 617, type: !74, flags: DIFlagPrototyped | DIFlagNoReturn, spFlags: 0)
!74 = !DISubroutineType(types: !75)
!75 = !{null, !10}
!76 = !DIImportedEntity(tag: DW_TAG_imported_declaration, scope: !5, entity: !77, file: !15, line: 147)
!77 = !DISubprogram(name: "free", scope: !7, file: !7, line: 565, type: !78, flags: DIFlagPrototyped, spFlags: 0)
!78 = !DISubroutineType(types: !79)
!79 = !{null, !54}
!80 = !DIImportedEntity(tag: DW_TAG_imported_declaration, scope: !5, entity: !81, file: !15, line: 148)
!81 = !DISubprogram(name: "getenv", scope: !7, file: !7, line: 634, type: !82, flags: DIFlagPrototyped, spFlags: 0)
!82 = !DISubroutineType(types: !83)
!83 = !{!84, !39}
!84 = !DIDerivedType(tag: DW_TAG_pointer_type, baseType: !41, size: 64)
!85 = !DIImportedEntity(tag: DW_TAG_imported_declaration, scope: !5, entity: !86, file: !15, line: 149)
!86 = !DISubprogram(name: "labs", scope: !7, file: !7, line: 841, type: !87, flags: DIFlagPrototyped, spFlags: 0)
!87 = !DISubroutineType(types: !88)
!88 = !{!21, !21}
!89 = !DIImportedEntity(tag: DW_TAG_imported_declaration, scope: !5, entity: !90, file: !15, line: 150)
!90 = !DISubprogram(name: "ldiv", scope: !7, file: !7, line: 854, type: !91, flags: DIFlagPrototyped, spFlags: 0)
!91 = !DISubroutineType(types: !92)
!92 = !{!17, !21, !21}
!93 = !DIImportedEntity(tag: DW_TAG_imported_declaration, scope: !5, entity: !94, file: !15, line: 151)
!94 = !DISubprogram(name: "malloc", scope: !7, file: !7, line: 539, type: !95, flags: DIFlagPrototyped, spFlags: 0)
!95 = !DISubroutineType(types: !96)
!96 = !{!54, !57}
!97 = !DIImportedEntity(tag: DW_TAG_imported_declaration, scope: !5, entity: !98, file: !15, line: 153)
!98 = !DISubprogram(name: "mblen", scope: !7, file: !7, line: 922, type: !99, flags: DIFlagPrototyped, spFlags: 0)
!99 = !DISubroutineType(types: !100)
!100 = !{!10, !39, !57}
!101 = !DIImportedEntity(tag: DW_TAG_imported_declaration, scope: !5, entity: !102, file: !15, line: 154)
!102 = !DISubprogram(name: "mbstowcs", scope: !7, file: !7, line: 933, type: !103, flags: DIFlagPrototyped, spFlags: 0)
!103 = !DISubroutineType(types: !104)
!104 = !{!57, !105, !108, !57}
!105 = !DIDerivedType(tag: DW_TAG_restrict_type, baseType: !106)
!106 = !DIDerivedType(tag: DW_TAG_pointer_type, baseType: !107, size: 64)
!107 = !DIBasicType(name: "wchar_t", size: 32, encoding: DW_ATE_signed)
!108 = !DIDerivedType(tag: DW_TAG_restrict_type, baseType: !39)
!109 = !DIImportedEntity(tag: DW_TAG_imported_declaration, scope: !5, entity: !110, file: !15, line: 155)
!110 = !DISubprogram(name: "mbtowc", scope: !7, file: !7, line: 925, type: !111, flags: DIFlagPrototyped, spFlags: 0)
!111 = !DISubroutineType(types: !112)
!112 = !{!10, !105, !108, !57}
!113 = !DIImportedEntity(tag: DW_TAG_imported_declaration, scope: !5, entity: !114, file: !15, line: 157)
!114 = !DISubprogram(name: "qsort", scope: !7, file: !7, line: 830, type: !115, flags: DIFlagPrototyped, spFlags: 0)
!115 = !DISubroutineType(types: !116)
!116 = !{null, !54, !57, !57, !60}
!117 = !DIImportedEntity(tag: DW_TAG_imported_declaration, scope: !5, entity: !118, file: !15, line: 160)
!118 = !DISubprogram(name: "quick_exit", scope: !7, file: !7, line: 623, type: !74, flags: DIFlagPrototyped | DIFlagNoReturn, spFlags: 0)
!119 = !DIImportedEntity(tag: DW_TAG_imported_declaration, scope: !5, entity: !120, file: !15, line: 163)
!120 = !DISubprogram(name: "rand", scope: !7, file: !7, line: 453, type: !121, flags: DIFlagPrototyped, spFlags: 0)
!121 = !DISubroutineType(types: !122)
!122 = !{!10}
!123 = !DIImportedEntity(tag: DW_TAG_imported_declaration, scope: !5, entity: !124, file: !15, line: 164)
!124 = !DISubprogram(name: "realloc", scope: !7, file: !7, line: 550, type: !125, flags: DIFlagPrototyped, spFlags: 0)
!125 = !DISubroutineType(types: !126)
!126 = !{!54, !54, !57}
!127 = !DIImportedEntity(tag: DW_TAG_imported_declaration, scope: !5, entity: !128, file: !15, line: 165)
!128 = !DISubprogram(name: "srand", scope: !7, file: !7, line: 455, type: !129, flags: DIFlagPrototyped, spFlags: 0)
!129 = !DISubroutineType(types: !130)
!130 = !{null, !131}
!131 = !DIBasicType(name: "unsigned int", size: 32, encoding: DW_ATE_unsigned)
!132 = !DIImportedEntity(tag: DW_TAG_imported_declaration, scope: !5, entity: !133, file: !15, line: 166)
!133 = !DISubprogram(name: "strtod", scope: !7, file: !7, line: 117, type: !134, flags: DIFlagPrototyped, spFlags: 0)
!134 = !DISubroutineType(types: !135)
!135 = !{!38, !108, !136}
!136 = !DIDerivedType(tag: DW_TAG_restrict_type, baseType: !137)
!137 = !DIDerivedType(tag: DW_TAG_pointer_type, baseType: !84, size: 64)
!138 = !DIImportedEntity(tag: DW_TAG_imported_declaration, scope: !5, entity: !139, file: !15, line: 167)
!139 = !DISubprogram(name: "strtol", scope: !7, file: !7, line: 176, type: !140, flags: DIFlagPrototyped, spFlags: 0)
!140 = !DISubroutineType(types: !141)
!141 = !{!21, !108, !136, !10}
!142 = !DIImportedEntity(tag: DW_TAG_imported_declaration, scope: !5, entity: !143, file: !15, line: 168)
!143 = !DISubprogram(name: "strtoul", scope: !7, file: !7, line: 180, type: !144, flags: DIFlagPrototyped, spFlags: 0)
!144 = !DISubroutineType(types: !145)
!145 = !{!59, !108, !136, !10}
!146 = !DIImportedEntity(tag: DW_TAG_imported_declaration, scope: !5, entity: !147, file: !15, line: 169)
!147 = !DISubprogram(name: "system", scope: !7, file: !7, line: 784, type: !44, flags: DIFlagPrototyped, spFlags: 0)
!148 = !DIImportedEntity(tag: DW_TAG_imported_declaration, scope: !5, entity: !149, file: !15, line: 171)
!149 = !DISubprogram(name: "wcstombs", scope: !7, file: !7, line: 936, type: !150, flags: DIFlagPrototyped, spFlags: 0)
!150 = !DISubroutineType(types: !151)
!151 = !{!57, !152, !153, !57}
!152 = !DIDerivedType(tag: DW_TAG_restrict_type, baseType: !84)
!153 = !DIDerivedType(tag: DW_TAG_restrict_type, baseType: !154)
!154 = !DIDerivedType(tag: DW_TAG_pointer_type, baseType: !155, size: 64)
!155 = !DIDerivedType(tag: DW_TAG_const_type, baseType: !107)
!156 = !DIImportedEntity(tag: DW_TAG_imported_declaration, scope: !5, entity: !157, file: !15, line: 172)
!157 = !DISubprogram(name: "wctomb", scope: !7, file: !7, line: 929, type: !158, flags: DIFlagPrototyped, spFlags: 0)
!158 = !DISubroutineType(types: !159)
!159 = !{!10, !84, !107}
!160 = !DIImportedEntity(tag: DW_TAG_imported_declaration, scope: !161, entity: !162, file: !15, line: 200)
!161 = !DINamespace(name: "__gnu_cxx", scope: null)
!162 = !DIDerivedType(tag: DW_TAG_typedef, name: "lldiv_t", file: !7, line: 80, baseType: !163)
!163 = distinct !DICompositeType(tag: DW_TAG_structure_type, file: !7, line: 76, size: 128, flags: DIFlagTypePassByValue, elements: !164, identifier: "_ZTS7lldiv_t")
!164 = !{!165, !167}
!165 = !DIDerivedType(tag: DW_TAG_member, name: "quot", scope: !163, file: !7, line: 78, baseType: !166, size: 64)
!166 = !DIBasicType(name: "long long int", size: 64, encoding: DW_ATE_signed)
!167 = !DIDerivedType(tag: DW_TAG_member, name: "rem", scope: !163, file: !7, line: 79, baseType: !166, size: 64, offset: 64)
!168 = !DIImportedEntity(tag: DW_TAG_imported_declaration, scope: !161, entity: !169, file: !15, line: 206)
!169 = !DISubprogram(name: "_Exit", scope: !7, file: !7, line: 629, type: !74, flags: DIFlagPrototyped | DIFlagNoReturn, spFlags: 0)
!170 = !DIImportedEntity(tag: DW_TAG_imported_declaration, scope: !161, entity: !171, file: !15, line: 210)
!171 = !DISubprogram(name: "llabs", scope: !7, file: !7, line: 844, type: !172, flags: DIFlagPrototyped, spFlags: 0)
!172 = !DISubroutineType(types: !173)
!173 = !{!166, !166}
!174 = !DIImportedEntity(tag: DW_TAG_imported_declaration, scope: !161, entity: !175, file: !15, line: 216)
!175 = !DISubprogram(name: "lldiv", scope: !7, file: !7, line: 858, type: !176, flags: DIFlagPrototyped, spFlags: 0)
!176 = !DISubroutineType(types: !177)
!177 = !{!162, !166, !166}
!178 = !DIImportedEntity(tag: DW_TAG_imported_declaration, scope: !161, entity: !179, file: !15, line: 227)
!179 = !DISubprogram(name: "atoll", scope: !7, file: !7, line: 112, type: !180, flags: DIFlagPrototyped, spFlags: 0)
!180 = !DISubroutineType(types: !181)
!181 = !{!166, !39}
!182 = !DIImportedEntity(tag: DW_TAG_imported_declaration, scope: !161, entity: !183, file: !15, line: 228)
!183 = !DISubprogram(name: "strtoll", scope: !7, file: !7, line: 200, type: !184, flags: DIFlagPrototyped, spFlags: 0)
!184 = !DISubroutineType(types: !185)
!185 = !{!166, !108, !136, !10}
!186 = !DIImportedEntity(tag: DW_TAG_imported_declaration, scope: !161, entity: !187, file: !15, line: 229)
!187 = !DISubprogram(name: "strtoull", scope: !7, file: !7, line: 205, type: !188, flags: DIFlagPrototyped, spFlags: 0)
!188 = !DISubroutineType(types: !189)
!189 = !{!190, !108, !136, !10}
!190 = !DIBasicType(name: "long long unsigned int", size: 64, encoding: DW_ATE_unsigned)
!191 = !DIImportedEntity(tag: DW_TAG_imported_declaration, scope: !161, entity: !192, file: !15, line: 231)
!192 = !DISubprogram(name: "strtof", scope: !7, file: !7, line: 123, type: !193, flags: DIFlagPrototyped, spFlags: 0)
!193 = !DISubroutineType(types: !194)
!194 = !{!195, !108, !136}
!195 = !DIBasicType(name: "float", size: 32, encoding: DW_ATE_float)
!196 = !DIImportedEntity(tag: DW_TAG_imported_declaration, scope: !161, entity: !197, file: !15, line: 232)
!197 = !DISubprogram(name: "strtold", scope: !7, file: !7, line: 126, type: !198, flags: DIFlagPrototyped, spFlags: 0)
!198 = !DISubroutineType(types: !199)
!199 = !{!200, !108, !136}
!200 = !DIBasicType(name: "long double", size: 128, encoding: DW_ATE_float)
!201 = !DIImportedEntity(tag: DW_TAG_imported_declaration, scope: !5, entity: !162, file: !15, line: 240)
!202 = !DIImportedEntity(tag: DW_TAG_imported_declaration, scope: !5, entity: !169, file: !15, line: 242)
!203 = !DIImportedEntity(tag: DW_TAG_imported_declaration, scope: !5, entity: !171, file: !15, line: 244)
!204 = !DIImportedEntity(tag: DW_TAG_imported_declaration, scope: !5, entity: !205, file: !15, line: 245)
!205 = !DISubprogram(name: "div", linkageName: "_ZN9__gnu_cxx3divExx", scope: !161, file: !15, line: 213, type: !176, flags: DIFlagPrototyped, spFlags: 0)
!206 = !DIImportedEntity(tag: DW_TAG_imported_declaration, scope: !5, entity: !175, file: !15, line: 246)
!207 = !DIImportedEntity(tag: DW_TAG_imported_declaration, scope: !5, entity: !179, file: !15, line: 248)
!208 = !DIImportedEntity(tag: DW_TAG_imported_declaration, scope: !5, entity: !192, file: !15, line: 249)
!209 = !DIImportedEntity(tag: DW_TAG_imported_declaration, scope: !5, entity: !183, file: !15, line: 250)
!210 = !DIImportedEntity(tag: DW_TAG_imported_declaration, scope: !5, entity: !187, file: !15, line: 251)
!211 = !DIImportedEntity(tag: DW_TAG_imported_declaration, scope: !5, entity: !197, file: !15, line: 252)
!212 = !DIImportedEntity(tag: DW_TAG_imported_declaration, scope: !0, entity: !24, file: !213, line: 38)
!213 = !DIFile(filename: "/usr/lib/gcc/x86_64-linux-gnu/10/../../../../include/c++/10/stdlib.h", directory: "")
!214 = !DIImportedEntity(tag: DW_TAG_imported_declaration, scope: !0, entity: !28, file: !213, line: 39)
!215 = !DIImportedEntity(tag: DW_TAG_imported_declaration, scope: !0, entity: !73, file: !213, line: 40)
!216 = !DIImportedEntity(tag: DW_TAG_imported_declaration, scope: !0, entity: !33, file: !213, line: 43)
!217 = !DIImportedEntity(tag: DW_TAG_imported_declaration, scope: !0, entity: !118, file: !213, line: 46)
!218 = !DIImportedEntity(tag: DW_TAG_imported_declaration, scope: !0, entity: !13, file: !213, line: 51)
!219 = !DIImportedEntity(tag: DW_TAG_imported_declaration, scope: !0, entity: !17, file: !213, line: 52)
!220 = !DIImportedEntity(tag: DW_TAG_imported_declaration, scope: !0, entity: !221, file: !213, line: 54)
!221 = !DISubprogram(name: "abs", linkageName: "_ZSt3absg", scope: !5, file: !11, line: 103, type: !222, flags: DIFlagPrototyped, spFlags: 0)
!222 = !DISubroutineType(types: !223)
!223 = !{!224, !224}
!224 = !DIBasicType(name: "__float128", size: 128, encoding: DW_ATE_float)
!225 = !DIImportedEntity(tag: DW_TAG_imported_declaration, scope: !0, entity: !35, file: !213, line: 55)
!226 = !DIImportedEntity(tag: DW_TAG_imported_declaration, scope: !0, entity: !43, file: !213, line: 56)
!227 = !DIImportedEntity(tag: DW_TAG_imported_declaration, scope: !0, entity: !47, file: !213, line: 57)
!228 = !DIImportedEntity(tag: DW_TAG_imported_declaration, scope: !0, entity: !51, file: !213, line: 58)
!229 = !DIImportedEntity(tag: DW_TAG_imported_declaration, scope: !0, entity: !65, file: !213, line: 59)
!230 = !DIImportedEntity(tag: DW_TAG_imported_declaration, scope: !0, entity: !205, file: !213, line: 60)
!231 = !DIImportedEntity(tag: DW_TAG_imported_declaration, scope: !0, entity: !77, file: !213, line: 61)
!232 = !DIImportedEntity(tag: DW_TAG_imported_declaration, scope: !0, entity: !81, file: !213, line: 62)
!233 = !DIImportedEntity(tag: DW_TAG_imported_declaration, scope: !0, entity: !86, file: !213, line: 63)
!234 = !DIImportedEntity(tag: DW_TAG_imported_declaration, scope: !0, entity: !90, file: !213, line: 64)
!235 = !DIImportedEntity(tag: DW_TAG_imported_declaration, scope: !0, entity: !94, file: !213, line: 65)
!236 = !DIImportedEntity(tag: DW_TAG_imported_declaration, scope: !0, entity: !98, file: !213, line: 67)
!237 = !DIImportedEntity(tag: DW_TAG_imported_declaration, scope: !0, entity: !102, file: !213, line: 68)
!238 = !DIImportedEntity(tag: DW_TAG_imported_declaration, scope: !0, entity: !110, file: !213, line: 69)
!239 = !DIImportedEntity(tag: DW_TAG_imported_declaration, scope: !0, entity: !114, file: !213, line: 71)
!240 = !DIImportedEntity(tag: DW_TAG_imported_declaration, scope: !0, entity: !120, file: !213, line: 72)
!241 = !DIImportedEntity(tag: DW_TAG_imported_declaration, scope: !0, entity: !124, file: !213, line: 73)
!242 = !DIImportedEntity(tag: DW_TAG_imported_declaration, scope: !0, entity: !128, file: !213, line: 74)
!243 = !DIImportedEntity(tag: DW_TAG_imported_declaration, scope: !0, entity: !133, file: !213, line: 75)
!244 = !DIImportedEntity(tag: DW_TAG_imported_declaration, scope: !0, entity: !139, file: !213, line: 76)
!245 = !DIImportedEntity(tag: DW_TAG_imported_declaration, scope: !0, entity: !143, file: !213, line: 77)
!246 = !DIImportedEntity(tag: DW_TAG_imported_declaration, scope: !0, entity: !147, file: !213, line: 78)
!247 = !DIImportedEntity(tag: DW_TAG_imported_declaration, scope: !0, entity: !149, file: !213, line: 80)
!248 = !DIImportedEntity(tag: DW_TAG_imported_declaration, scope: !0, entity: !157, file: !213, line: 81)
!249 = !DIImportedEntity(tag: DW_TAG_imported_declaration, scope: !5, entity: !250, file: !254, line: 83)
!250 = !DISubprogram(name: "acos", scope: !251, file: !251, line: 53, type: !252, flags: DIFlagPrototyped, spFlags: 0)
!251 = !DIFile(filename: "/usr/include/x86_64-linux-gnu/bits/mathcalls.h", directory: "")
!252 = !DISubroutineType(types: !253)
!253 = !{!38, !38}
!254 = !DIFile(filename: "/usr/lib/gcc/x86_64-linux-gnu/10/../../../../include/c++/10/cmath", directory: "")
!255 = !DIImportedEntity(tag: DW_TAG_imported_declaration, scope: !5, entity: !256, file: !254, line: 102)
!256 = !DISubprogram(name: "asin", scope: !251, file: !251, line: 55, type: !252, flags: DIFlagPrototyped, spFlags: 0)
!257 = !DIImportedEntity(tag: DW_TAG_imported_declaration, scope: !5, entity: !258, file: !254, line: 121)
!258 = !DISubprogram(name: "atan", scope: !251, file: !251, line: 57, type: !252, flags: DIFlagPrototyped, spFlags: 0)
!259 = !DIImportedEntity(tag: DW_TAG_imported_declaration, scope: !5, entity: !260, file: !254, line: 140)
!260 = !DISubprogram(name: "atan2", scope: !251, file: !251, line: 59, type: !261, flags: DIFlagPrototyped, spFlags: 0)
!261 = !DISubroutineType(types: !262)
!262 = !{!38, !38, !38}
!263 = !DIImportedEntity(tag: DW_TAG_imported_declaration, scope: !5, entity: !264, file: !254, line: 161)
!264 = !DISubprogram(name: "ceil", scope: !251, file: !251, line: 159, type: !252, flags: DIFlagPrototyped, spFlags: 0)
!265 = !DIImportedEntity(tag: DW_TAG_imported_declaration, scope: !5, entity: !266, file: !254, line: 180)
!266 = !DISubprogram(name: "cos", scope: !251, file: !251, line: 62, type: !252, flags: DIFlagPrototyped, spFlags: 0)
!267 = !DIImportedEntity(tag: DW_TAG_imported_declaration, scope: !5, entity: !268, file: !254, line: 199)
!268 = !DISubprogram(name: "cosh", scope: !251, file: !251, line: 71, type: !252, flags: DIFlagPrototyped, spFlags: 0)
!269 = !DIImportedEntity(tag: DW_TAG_imported_declaration, scope: !5, entity: !270, file: !254, line: 218)
!270 = !DISubprogram(name: "exp", scope: !251, file: !251, line: 95, type: !252, flags: DIFlagPrototyped, spFlags: 0)
!271 = !DIImportedEntity(tag: DW_TAG_imported_declaration, scope: !5, entity: !272, file: !254, line: 237)
!272 = !DISubprogram(name: "fabs", scope: !251, file: !251, line: 162, type: !252, flags: DIFlagPrototyped, spFlags: 0)
!273 = !DIImportedEntity(tag: DW_TAG_imported_declaration, scope: !5, entity: !274, file: !254, line: 256)
!274 = !DISubprogram(name: "floor", scope: !251, file: !251, line: 165, type: !252, flags: DIFlagPrototyped, spFlags: 0)
!275 = !DIImportedEntity(tag: DW_TAG_imported_declaration, scope: !5, entity: !276, file: !254, line: 275)
!276 = !DISubprogram(name: "fmod", scope: !251, file: !251, line: 168, type: !261, flags: DIFlagPrototyped, spFlags: 0)
!277 = !DIImportedEntity(tag: DW_TAG_imported_declaration, scope: !5, entity: !278, file: !254, line: 296)
!278 = !DISubprogram(name: "frexp", scope: !251, file: !251, line: 98, type: !279, flags: DIFlagPrototyped, spFlags: 0)
!279 = !DISubroutineType(types: !280)
!280 = !{!38, !38, !281}
!281 = !DIDerivedType(tag: DW_TAG_pointer_type, baseType: !10, size: 64)
!282 = !DIImportedEntity(tag: DW_TAG_imported_declaration, scope: !5, entity: !283, file: !254, line: 315)
!283 = !DISubprogram(name: "ldexp", scope: !251, file: !251, line: 101, type: !284, flags: DIFlagPrototyped, spFlags: 0)
!284 = !DISubroutineType(types: !285)
!285 = !{!38, !38, !10}
!286 = !DIImportedEntity(tag: DW_TAG_imported_declaration, scope: !5, entity: !287, file: !254, line: 334)
!287 = !DISubprogram(name: "log", scope: !251, file: !251, line: 104, type: !252, flags: DIFlagPrototyped, spFlags: 0)
!288 = !DIImportedEntity(tag: DW_TAG_imported_declaration, scope: !5, entity: !289, file: !254, line: 353)
!289 = !DISubprogram(name: "log10", scope: !251, file: !251, line: 107, type: !252, flags: DIFlagPrototyped, spFlags: 0)
!290 = !DIImportedEntity(tag: DW_TAG_imported_declaration, scope: !5, entity: !291, file: !254, line: 372)
!291 = !DISubprogram(name: "modf", scope: !251, file: !251, line: 110, type: !292, flags: DIFlagPrototyped, spFlags: 0)
!292 = !DISubroutineType(types: !293)
!293 = !{!38, !38, !294}
!294 = !DIDerivedType(tag: DW_TAG_pointer_type, baseType: !38, size: 64)
!295 = !DIImportedEntity(tag: DW_TAG_imported_declaration, scope: !5, entity: !296, file: !254, line: 384)
!296 = !DISubprogram(name: "pow", scope: !251, file: !251, line: 140, type: !261, flags: DIFlagPrototyped, spFlags: 0)
!297 = !DIImportedEntity(tag: DW_TAG_imported_declaration, scope: !5, entity: !298, file: !254, line: 421)
!298 = !DISubprogram(name: "sin", scope: !251, file: !251, line: 64, type: !252, flags: DIFlagPrototyped, spFlags: 0)
!299 = !DIImportedEntity(tag: DW_TAG_imported_declaration, scope: !5, entity: !300, file: !254, line: 440)
!300 = !DISubprogram(name: "sinh", scope: !251, file: !251, line: 73, type: !252, flags: DIFlagPrototyped, spFlags: 0)
!301 = !DIImportedEntity(tag: DW_TAG_imported_declaration, scope: !5, entity: !302, file: !254, line: 459)
!302 = !DISubprogram(name: "sqrt", scope: !251, file: !251, line: 143, type: !252, flags: DIFlagPrototyped, spFlags: 0)
!303 = !DIImportedEntity(tag: DW_TAG_imported_declaration, scope: !5, entity: !304, file: !254, line: 478)
!304 = !DISubprogram(name: "tan", scope: !251, file: !251, line: 66, type: !252, flags: DIFlagPrototyped, spFlags: 0)
!305 = !DIImportedEntity(tag: DW_TAG_imported_declaration, scope: !5, entity: !306, file: !254, line: 497)
!306 = !DISubprogram(name: "tanh", scope: !251, file: !251, line: 75, type: !252, flags: DIFlagPrototyped, spFlags: 0)
!307 = !DIImportedEntity(tag: DW_TAG_imported_declaration, scope: !5, entity: !308, file: !254, line: 1065)
!308 = !DIDerivedType(tag: DW_TAG_typedef, name: "double_t", file: !309, line: 150, baseType: !38)
!309 = !DIFile(filename: "/usr/include/math.h", directory: "")
!310 = !DIImportedEntity(tag: DW_TAG_imported_declaration, scope: !5, entity: !311, file: !254, line: 1066)
!311 = !DIDerivedType(tag: DW_TAG_typedef, name: "float_t", file: !309, line: 149, baseType: !195)
!312 = !DIImportedEntity(tag: DW_TAG_imported_declaration, scope: !5, entity: !313, file: !254, line: 1069)
!313 = !DISubprogram(name: "acosh", scope: !251, file: !251, line: 85, type: !252, flags: DIFlagPrototyped, spFlags: 0)
!314 = !DIImportedEntity(tag: DW_TAG_imported_declaration, scope: !5, entity: !315, file: !254, line: 1070)
!315 = !DISubprogram(name: "acoshf", scope: !251, file: !251, line: 85, type: !316, flags: DIFlagPrototyped, spFlags: 0)
!316 = !DISubroutineType(types: !317)
!317 = !{!195, !195}
!318 = !DIImportedEntity(tag: DW_TAG_imported_declaration, scope: !5, entity: !319, file: !254, line: 1071)
!319 = !DISubprogram(name: "acoshl", scope: !251, file: !251, line: 85, type: !320, flags: DIFlagPrototyped, spFlags: 0)
!320 = !DISubroutineType(types: !321)
!321 = !{!200, !200}
!322 = !DIImportedEntity(tag: DW_TAG_imported_declaration, scope: !5, entity: !323, file: !254, line: 1073)
!323 = !DISubprogram(name: "asinh", scope: !251, file: !251, line: 87, type: !252, flags: DIFlagPrototyped, spFlags: 0)
!324 = !DIImportedEntity(tag: DW_TAG_imported_declaration, scope: !5, entity: !325, file: !254, line: 1074)
!325 = !DISubprogram(name: "asinhf", scope: !251, file: !251, line: 87, type: !316, flags: DIFlagPrototyped, spFlags: 0)
!326 = !DIImportedEntity(tag: DW_TAG_imported_declaration, scope: !5, entity: !327, file: !254, line: 1075)
!327 = !DISubprogram(name: "asinhl", scope: !251, file: !251, line: 87, type: !320, flags: DIFlagPrototyped, spFlags: 0)
!328 = !DIImportedEntity(tag: DW_TAG_imported_declaration, scope: !5, entity: !329, file: !254, line: 1077)
!329 = !DISubprogram(name: "atanh", scope: !251, file: !251, line: 89, type: !252, flags: DIFlagPrototyped, spFlags: 0)
!330 = !DIImportedEntity(tag: DW_TAG_imported_declaration, scope: !5, entity: !331, file: !254, line: 1078)
!331 = !DISubprogram(name: "atanhf", scope: !251, file: !251, line: 89, type: !316, flags: DIFlagPrototyped, spFlags: 0)
!332 = !DIImportedEntity(tag: DW_TAG_imported_declaration, scope: !5, entity: !333, file: !254, line: 1079)
!333 = !DISubprogram(name: "atanhl", scope: !251, file: !251, line: 89, type: !320, flags: DIFlagPrototyped, spFlags: 0)
!334 = !DIImportedEntity(tag: DW_TAG_imported_declaration, scope: !5, entity: !335, file: !254, line: 1081)
!335 = !DISubprogram(name: "cbrt", scope: !251, file: !251, line: 152, type: !252, flags: DIFlagPrototyped, spFlags: 0)
!336 = !DIImportedEntity(tag: DW_TAG_imported_declaration, scope: !5, entity: !337, file: !254, line: 1082)
!337 = !DISubprogram(name: "cbrtf", scope: !251, file: !251, line: 152, type: !316, flags: DIFlagPrototyped, spFlags: 0)
!338 = !DIImportedEntity(tag: DW_TAG_imported_declaration, scope: !5, entity: !339, file: !254, line: 1083)
!339 = !DISubprogram(name: "cbrtl", scope: !251, file: !251, line: 152, type: !320, flags: DIFlagPrototyped, spFlags: 0)
!340 = !DIImportedEntity(tag: DW_TAG_imported_declaration, scope: !5, entity: !341, file: !254, line: 1085)
!341 = !DISubprogram(name: "copysign", scope: !251, file: !251, line: 196, type: !261, flags: DIFlagPrototyped, spFlags: 0)
!342 = !DIImportedEntity(tag: DW_TAG_imported_declaration, scope: !5, entity: !343, file: !254, line: 1086)
!343 = !DISubprogram(name: "copysignf", scope: !251, file: !251, line: 196, type: !344, flags: DIFlagPrototyped, spFlags: 0)
!344 = !DISubroutineType(types: !345)
!345 = !{!195, !195, !195}
!346 = !DIImportedEntity(tag: DW_TAG_imported_declaration, scope: !5, entity: !347, file: !254, line: 1087)
!347 = !DISubprogram(name: "copysignl", scope: !251, file: !251, line: 196, type: !348, flags: DIFlagPrototyped, spFlags: 0)
!348 = !DISubroutineType(types: !349)
!349 = !{!200, !200, !200}
!350 = !DIImportedEntity(tag: DW_TAG_imported_declaration, scope: !5, entity: !351, file: !254, line: 1089)
!351 = !DISubprogram(name: "erf", scope: !251, file: !251, line: 228, type: !252, flags: DIFlagPrototyped, spFlags: 0)
!352 = !DIImportedEntity(tag: DW_TAG_imported_declaration, scope: !5, entity: !353, file: !254, line: 1090)
!353 = !DISubprogram(name: "erff", scope: !251, file: !251, line: 228, type: !316, flags: DIFlagPrototyped, spFlags: 0)
!354 = !DIImportedEntity(tag: DW_TAG_imported_declaration, scope: !5, entity: !355, file: !254, line: 1091)
!355 = !DISubprogram(name: "erfl", scope: !251, file: !251, line: 228, type: !320, flags: DIFlagPrototyped, spFlags: 0)
!356 = !DIImportedEntity(tag: DW_TAG_imported_declaration, scope: !5, entity: !357, file: !254, line: 1093)
!357 = !DISubprogram(name: "erfc", scope: !251, file: !251, line: 229, type: !252, flags: DIFlagPrototyped, spFlags: 0)
!358 = !DIImportedEntity(tag: DW_TAG_imported_declaration, scope: !5, entity: !359, file: !254, line: 1094)
!359 = !DISubprogram(name: "erfcf", scope: !251, file: !251, line: 229, type: !316, flags: DIFlagPrototyped, spFlags: 0)
!360 = !DIImportedEntity(tag: DW_TAG_imported_declaration, scope: !5, entity: !361, file: !254, line: 1095)
!361 = !DISubprogram(name: "erfcl", scope: !251, file: !251, line: 229, type: !320, flags: DIFlagPrototyped, spFlags: 0)
!362 = !DIImportedEntity(tag: DW_TAG_imported_declaration, scope: !5, entity: !363, file: !254, line: 1097)
!363 = !DISubprogram(name: "exp2", scope: !251, file: !251, line: 130, type: !252, flags: DIFlagPrototyped, spFlags: 0)
!364 = !DIImportedEntity(tag: DW_TAG_imported_declaration, scope: !5, entity: !365, file: !254, line: 1098)
!365 = !DISubprogram(name: "exp2f", scope: !251, file: !251, line: 130, type: !316, flags: DIFlagPrototyped, spFlags: 0)
!366 = !DIImportedEntity(tag: DW_TAG_imported_declaration, scope: !5, entity: !367, file: !254, line: 1099)
!367 = !DISubprogram(name: "exp2l", scope: !251, file: !251, line: 130, type: !320, flags: DIFlagPrototyped, spFlags: 0)
!368 = !DIImportedEntity(tag: DW_TAG_imported_declaration, scope: !5, entity: !369, file: !254, line: 1101)
!369 = !DISubprogram(name: "expm1", scope: !251, file: !251, line: 119, type: !252, flags: DIFlagPrototyped, spFlags: 0)
!370 = !DIImportedEntity(tag: DW_TAG_imported_declaration, scope: !5, entity: !371, file: !254, line: 1102)
!371 = !DISubprogram(name: "expm1f", scope: !251, file: !251, line: 119, type: !316, flags: DIFlagPrototyped, spFlags: 0)
!372 = !DIImportedEntity(tag: DW_TAG_imported_declaration, scope: !5, entity: !373, file: !254, line: 1103)
!373 = !DISubprogram(name: "expm1l", scope: !251, file: !251, line: 119, type: !320, flags: DIFlagPrototyped, spFlags: 0)
!374 = !DIImportedEntity(tag: DW_TAG_imported_declaration, scope: !5, entity: !375, file: !254, line: 1105)
!375 = !DISubprogram(name: "fdim", scope: !251, file: !251, line: 326, type: !261, flags: DIFlagPrototyped, spFlags: 0)
!376 = !DIImportedEntity(tag: DW_TAG_imported_declaration, scope: !5, entity: !377, file: !254, line: 1106)
!377 = !DISubprogram(name: "fdimf", scope: !251, file: !251, line: 326, type: !344, flags: DIFlagPrototyped, spFlags: 0)
!378 = !DIImportedEntity(tag: DW_TAG_imported_declaration, scope: !5, entity: !379, file: !254, line: 1107)
!379 = !DISubprogram(name: "fdiml", scope: !251, file: !251, line: 326, type: !348, flags: DIFlagPrototyped, spFlags: 0)
!380 = !DIImportedEntity(tag: DW_TAG_imported_declaration, scope: !5, entity: !381, file: !254, line: 1109)
!381 = !DISubprogram(name: "fma", scope: !251, file: !251, line: 335, type: !382, flags: DIFlagPrototyped, spFlags: 0)
!382 = !DISubroutineType(types: !383)
!383 = !{!38, !38, !38, !38}
!384 = !DIImportedEntity(tag: DW_TAG_imported_declaration, scope: !5, entity: !385, file: !254, line: 1110)
!385 = !DISubprogram(name: "fmaf", scope: !251, file: !251, line: 335, type: !386, flags: DIFlagPrototyped, spFlags: 0)
!386 = !DISubroutineType(types: !387)
!387 = !{!195, !195, !195, !195}
!388 = !DIImportedEntity(tag: DW_TAG_imported_declaration, scope: !5, entity: !389, file: !254, line: 1111)
!389 = !DISubprogram(name: "fmal", scope: !251, file: !251, line: 335, type: !390, flags: DIFlagPrototyped, spFlags: 0)
!390 = !DISubroutineType(types: !391)
!391 = !{!200, !200, !200, !200}
!392 = !DIImportedEntity(tag: DW_TAG_imported_declaration, scope: !5, entity: !393, file: !254, line: 1113)
!393 = !DISubprogram(name: "fmax", scope: !251, file: !251, line: 329, type: !261, flags: DIFlagPrototyped, spFlags: 0)
!394 = !DIImportedEntity(tag: DW_TAG_imported_declaration, scope: !5, entity: !395, file: !254, line: 1114)
!395 = !DISubprogram(name: "fmaxf", scope: !251, file: !251, line: 329, type: !344, flags: DIFlagPrototyped, spFlags: 0)
!396 = !DIImportedEntity(tag: DW_TAG_imported_declaration, scope: !5, entity: !397, file: !254, line: 1115)
!397 = !DISubprogram(name: "fmaxl", scope: !251, file: !251, line: 329, type: !348, flags: DIFlagPrototyped, spFlags: 0)
!398 = !DIImportedEntity(tag: DW_TAG_imported_declaration, scope: !5, entity: !399, file: !254, line: 1117)
!399 = !DISubprogram(name: "fmin", scope: !251, file: !251, line: 332, type: !261, flags: DIFlagPrototyped, spFlags: 0)
!400 = !DIImportedEntity(tag: DW_TAG_imported_declaration, scope: !5, entity: !401, file: !254, line: 1118)
!401 = !DISubprogram(name: "fminf", scope: !251, file: !251, line: 332, type: !344, flags: DIFlagPrototyped, spFlags: 0)
!402 = !DIImportedEntity(tag: DW_TAG_imported_declaration, scope: !5, entity: !403, file: !254, line: 1119)
!403 = !DISubprogram(name: "fminl", scope: !251, file: !251, line: 332, type: !348, flags: DIFlagPrototyped, spFlags: 0)
!404 = !DIImportedEntity(tag: DW_TAG_imported_declaration, scope: !5, entity: !405, file: !254, line: 1121)
!405 = !DISubprogram(name: "hypot", scope: !251, file: !251, line: 147, type: !261, flags: DIFlagPrototyped, spFlags: 0)
!406 = !DIImportedEntity(tag: DW_TAG_imported_declaration, scope: !5, entity: !407, file: !254, line: 1122)
!407 = !DISubprogram(name: "hypotf", scope: !251, file: !251, line: 147, type: !344, flags: DIFlagPrototyped, spFlags: 0)
!408 = !DIImportedEntity(tag: DW_TAG_imported_declaration, scope: !5, entity: !409, file: !254, line: 1123)
!409 = !DISubprogram(name: "hypotl", scope: !251, file: !251, line: 147, type: !348, flags: DIFlagPrototyped, spFlags: 0)
!410 = !DIImportedEntity(tag: DW_TAG_imported_declaration, scope: !5, entity: !411, file: !254, line: 1125)
!411 = !DISubprogram(name: "ilogb", scope: !251, file: !251, line: 280, type: !412, flags: DIFlagPrototyped, spFlags: 0)
!412 = !DISubroutineType(types: !413)
!413 = !{!10, !38}
!414 = !DIImportedEntity(tag: DW_TAG_imported_declaration, scope: !5, entity: !415, file: !254, line: 1126)
!415 = !DISubprogram(name: "ilogbf", scope: !251, file: !251, line: 280, type: !416, flags: DIFlagPrototyped, spFlags: 0)
!416 = !DISubroutineType(types: !417)
!417 = !{!10, !195}
!418 = !DIImportedEntity(tag: DW_TAG_imported_declaration, scope: !5, entity: !419, file: !254, line: 1127)
!419 = !DISubprogram(name: "ilogbl", scope: !251, file: !251, line: 280, type: !420, flags: DIFlagPrototyped, spFlags: 0)
!420 = !DISubroutineType(types: !421)
!421 = !{!10, !200}
!422 = !DIImportedEntity(tag: DW_TAG_imported_declaration, scope: !5, entity: !423, file: !254, line: 1129)
!423 = !DISubprogram(name: "lgamma", scope: !251, file: !251, line: 230, type: !252, flags: DIFlagPrototyped, spFlags: 0)
!424 = !DIImportedEntity(tag: DW_TAG_imported_declaration, scope: !5, entity: !425, file: !254, line: 1130)
!425 = !DISubprogram(name: "lgammaf", scope: !251, file: !251, line: 230, type: !316, flags: DIFlagPrototyped, spFlags: 0)
!426 = !DIImportedEntity(tag: DW_TAG_imported_declaration, scope: !5, entity: !427, file: !254, line: 1131)
!427 = !DISubprogram(name: "lgammal", scope: !251, file: !251, line: 230, type: !320, flags: DIFlagPrototyped, spFlags: 0)
!428 = !DIImportedEntity(tag: DW_TAG_imported_declaration, scope: !5, entity: !429, file: !254, line: 1134)
!429 = !DISubprogram(name: "llrint", scope: !251, file: !251, line: 316, type: !430, flags: DIFlagPrototyped, spFlags: 0)
!430 = !DISubroutineType(types: !431)
!431 = !{!166, !38}
!432 = !DIImportedEntity(tag: DW_TAG_imported_declaration, scope: !5, entity: !433, file: !254, line: 1135)
!433 = !DISubprogram(name: "llrintf", scope: !251, file: !251, line: 316, type: !434, flags: DIFlagPrototyped, spFlags: 0)
!434 = !DISubroutineType(types: !435)
!435 = !{!166, !195}
!436 = !DIImportedEntity(tag: DW_TAG_imported_declaration, scope: !5, entity: !437, file: !254, line: 1136)
!437 = !DISubprogram(name: "llrintl", scope: !251, file: !251, line: 316, type: !438, flags: DIFlagPrototyped, spFlags: 0)
!438 = !DISubroutineType(types: !439)
!439 = !{!166, !200}
!440 = !DIImportedEntity(tag: DW_TAG_imported_declaration, scope: !5, entity: !441, file: !254, line: 1138)
!441 = !DISubprogram(name: "llround", scope: !251, file: !251, line: 322, type: !430, flags: DIFlagPrototyped, spFlags: 0)
!442 = !DIImportedEntity(tag: DW_TAG_imported_declaration, scope: !5, entity: !443, file: !254, line: 1139)
!443 = !DISubprogram(name: "llroundf", scope: !251, file: !251, line: 322, type: !434, flags: DIFlagPrototyped, spFlags: 0)
!444 = !DIImportedEntity(tag: DW_TAG_imported_declaration, scope: !5, entity: !445, file: !254, line: 1140)
!445 = !DISubprogram(name: "llroundl", scope: !251, file: !251, line: 322, type: !438, flags: DIFlagPrototyped, spFlags: 0)
!446 = !DIImportedEntity(tag: DW_TAG_imported_declaration, scope: !5, entity: !447, file: !254, line: 1143)
!447 = !DISubprogram(name: "log1p", scope: !251, file: !251, line: 122, type: !252, flags: DIFlagPrototyped, spFlags: 0)
!448 = !DIImportedEntity(tag: DW_TAG_imported_declaration, scope: !5, entity: !449, file: !254, line: 1144)
!449 = !DISubprogram(name: "log1pf", scope: !251, file: !251, line: 122, type: !316, flags: DIFlagPrototyped, spFlags: 0)
!450 = !DIImportedEntity(tag: DW_TAG_imported_declaration, scope: !5, entity: !451, file: !254, line: 1145)
!451 = !DISubprogram(name: "log1pl", scope: !251, file: !251, line: 122, type: !320, flags: DIFlagPrototyped, spFlags: 0)
!452 = !DIImportedEntity(tag: DW_TAG_imported_declaration, scope: !5, entity: !453, file: !254, line: 1147)
!453 = !DISubprogram(name: "log2", scope: !251, file: !251, line: 133, type: !252, flags: DIFlagPrototyped, spFlags: 0)
!454 = !DIImportedEntity(tag: DW_TAG_imported_declaration, scope: !5, entity: !455, file: !254, line: 1148)
!455 = !DISubprogram(name: "log2f", scope: !251, file: !251, line: 133, type: !316, flags: DIFlagPrototyped, spFlags: 0)
!456 = !DIImportedEntity(tag: DW_TAG_imported_declaration, scope: !5, entity: !457, file: !254, line: 1149)
!457 = !DISubprogram(name: "log2l", scope: !251, file: !251, line: 133, type: !320, flags: DIFlagPrototyped, spFlags: 0)
!458 = !DIImportedEntity(tag: DW_TAG_imported_declaration, scope: !5, entity: !459, file: !254, line: 1151)
!459 = !DISubprogram(name: "logb", scope: !251, file: !251, line: 125, type: !252, flags: DIFlagPrototyped, spFlags: 0)
!460 = !DIImportedEntity(tag: DW_TAG_imported_declaration, scope: !5, entity: !461, file: !254, line: 1152)
!461 = !DISubprogram(name: "logbf", scope: !251, file: !251, line: 125, type: !316, flags: DIFlagPrototyped, spFlags: 0)
!462 = !DIImportedEntity(tag: DW_TAG_imported_declaration, scope: !5, entity: !463, file: !254, line: 1153)
!463 = !DISubprogram(name: "logbl", scope: !251, file: !251, line: 125, type: !320, flags: DIFlagPrototyped, spFlags: 0)
!464 = !DIImportedEntity(tag: DW_TAG_imported_declaration, scope: !5, entity: !465, file: !254, line: 1155)
!465 = !DISubprogram(name: "lrint", scope: !251, file: !251, line: 314, type: !466, flags: DIFlagPrototyped, spFlags: 0)
!466 = !DISubroutineType(types: !467)
!467 = !{!21, !38}
!468 = !DIImportedEntity(tag: DW_TAG_imported_declaration, scope: !5, entity: !469, file: !254, line: 1156)
!469 = !DISubprogram(name: "lrintf", scope: !251, file: !251, line: 314, type: !470, flags: DIFlagPrototyped, spFlags: 0)
!470 = !DISubroutineType(types: !471)
!471 = !{!21, !195}
!472 = !DIImportedEntity(tag: DW_TAG_imported_declaration, scope: !5, entity: !473, file: !254, line: 1157)
!473 = !DISubprogram(name: "lrintl", scope: !251, file: !251, line: 314, type: !474, flags: DIFlagPrototyped, spFlags: 0)
!474 = !DISubroutineType(types: !475)
!475 = !{!21, !200}
!476 = !DIImportedEntity(tag: DW_TAG_imported_declaration, scope: !5, entity: !477, file: !254, line: 1159)
!477 = !DISubprogram(name: "lround", scope: !251, file: !251, line: 320, type: !466, flags: DIFlagPrototyped, spFlags: 0)
!478 = !DIImportedEntity(tag: DW_TAG_imported_declaration, scope: !5, entity: !479, file: !254, line: 1160)
!479 = !DISubprogram(name: "lroundf", scope: !251, file: !251, line: 320, type: !470, flags: DIFlagPrototyped, spFlags: 0)
!480 = !DIImportedEntity(tag: DW_TAG_imported_declaration, scope: !5, entity: !481, file: !254, line: 1161)
!481 = !DISubprogram(name: "lroundl", scope: !251, file: !251, line: 320, type: !474, flags: DIFlagPrototyped, spFlags: 0)
!482 = !DIImportedEntity(tag: DW_TAG_imported_declaration, scope: !5, entity: !483, file: !254, line: 1163)
!483 = !DISubprogram(name: "nan", scope: !251, file: !251, line: 201, type: !36, flags: DIFlagPrototyped, spFlags: 0)
!484 = !DIImportedEntity(tag: DW_TAG_imported_declaration, scope: !5, entity: !485, file: !254, line: 1164)
!485 = !DISubprogram(name: "nanf", scope: !251, file: !251, line: 201, type: !486, flags: DIFlagPrototyped, spFlags: 0)
!486 = !DISubroutineType(types: !487)
!487 = !{!195, !39}
!488 = !DIImportedEntity(tag: DW_TAG_imported_declaration, scope: !5, entity: !489, file: !254, line: 1165)
!489 = !DISubprogram(name: "nanl", scope: !251, file: !251, line: 201, type: !490, flags: DIFlagPrototyped, spFlags: 0)
!490 = !DISubroutineType(types: !491)
!491 = !{!200, !39}
!492 = !DIImportedEntity(tag: DW_TAG_imported_declaration, scope: !5, entity: !493, file: !254, line: 1167)
!493 = !DISubprogram(name: "nearbyint", scope: !251, file: !251, line: 294, type: !252, flags: DIFlagPrototyped, spFlags: 0)
!494 = !DIImportedEntity(tag: DW_TAG_imported_declaration, scope: !5, entity: !495, file: !254, line: 1168)
!495 = !DISubprogram(name: "nearbyintf", scope: !251, file: !251, line: 294, type: !316, flags: DIFlagPrototyped, spFlags: 0)
!496 = !DIImportedEntity(tag: DW_TAG_imported_declaration, scope: !5, entity: !497, file: !254, line: 1169)
!497 = !DISubprogram(name: "nearbyintl", scope: !251, file: !251, line: 294, type: !320, flags: DIFlagPrototyped, spFlags: 0)
!498 = !DIImportedEntity(tag: DW_TAG_imported_declaration, scope: !5, entity: !499, file: !254, line: 1171)
!499 = !DISubprogram(name: "nextafter", scope: !251, file: !251, line: 259, type: !261, flags: DIFlagPrototyped, spFlags: 0)
!500 = !DIImportedEntity(tag: DW_TAG_imported_declaration, scope: !5, entity: !501, file: !254, line: 1172)
!501 = !DISubprogram(name: "nextafterf", scope: !251, file: !251, line: 259, type: !344, flags: DIFlagPrototyped, spFlags: 0)
!502 = !DIImportedEntity(tag: DW_TAG_imported_declaration, scope: !5, entity: !503, file: !254, line: 1173)
!503 = !DISubprogram(name: "nextafterl", scope: !251, file: !251, line: 259, type: !348, flags: DIFlagPrototyped, spFlags: 0)
!504 = !DIImportedEntity(tag: DW_TAG_imported_declaration, scope: !5, entity: !505, file: !254, line: 1175)
!505 = !DISubprogram(name: "nexttoward", scope: !251, file: !251, line: 261, type: !506, flags: DIFlagPrototyped, spFlags: 0)
!506 = !DISubroutineType(types: !507)
!507 = !{!38, !38, !200}
!508 = !DIImportedEntity(tag: DW_TAG_imported_declaration, scope: !5, entity: !509, file: !254, line: 1176)
!509 = !DISubprogram(name: "nexttowardf", scope: !251, file: !251, line: 261, type: !510, flags: DIFlagPrototyped, spFlags: 0)
!510 = !DISubroutineType(types: !511)
!511 = !{!195, !195, !200}
!512 = !DIImportedEntity(tag: DW_TAG_imported_declaration, scope: !5, entity: !513, file: !254, line: 1177)
!513 = !DISubprogram(name: "nexttowardl", scope: !251, file: !251, line: 261, type: !348, flags: DIFlagPrototyped, spFlags: 0)
!514 = !DIImportedEntity(tag: DW_TAG_imported_declaration, scope: !5, entity: !515, file: !254, line: 1179)
!515 = !DISubprogram(name: "remainder", scope: !251, file: !251, line: 272, type: !261, flags: DIFlagPrototyped, spFlags: 0)
!516 = !DIImportedEntity(tag: DW_TAG_imported_declaration, scope: !5, entity: !517, file: !254, line: 1180)
!517 = !DISubprogram(name: "remainderf", scope: !251, file: !251, line: 272, type: !344, flags: DIFlagPrototyped, spFlags: 0)
!518 = !DIImportedEntity(tag: DW_TAG_imported_declaration, scope: !5, entity: !519, file: !254, line: 1181)
!519 = !DISubprogram(name: "remainderl", scope: !251, file: !251, line: 272, type: !348, flags: DIFlagPrototyped, spFlags: 0)
!520 = !DIImportedEntity(tag: DW_TAG_imported_declaration, scope: !5, entity: !521, file: !254, line: 1183)
!521 = !DISubprogram(name: "remquo", scope: !251, file: !251, line: 307, type: !522, flags: DIFlagPrototyped, spFlags: 0)
!522 = !DISubroutineType(types: !523)
!523 = !{!38, !38, !38, !281}
!524 = !DIImportedEntity(tag: DW_TAG_imported_declaration, scope: !5, entity: !525, file: !254, line: 1184)
!525 = !DISubprogram(name: "remquof", scope: !251, file: !251, line: 307, type: !526, flags: DIFlagPrototyped, spFlags: 0)
!526 = !DISubroutineType(types: !527)
!527 = !{!195, !195, !195, !281}
!528 = !DIImportedEntity(tag: DW_TAG_imported_declaration, scope: !5, entity: !529, file: !254, line: 1185)
!529 = !DISubprogram(name: "remquol", scope: !251, file: !251, line: 307, type: !530, flags: DIFlagPrototyped, spFlags: 0)
!530 = !DISubroutineType(types: !531)
!531 = !{!200, !200, !200, !281}
!532 = !DIImportedEntity(tag: DW_TAG_imported_declaration, scope: !5, entity: !533, file: !254, line: 1187)
!533 = !DISubprogram(name: "rint", scope: !251, file: !251, line: 256, type: !252, flags: DIFlagPrototyped, spFlags: 0)
!534 = !DIImportedEntity(tag: DW_TAG_imported_declaration, scope: !5, entity: !535, file: !254, line: 1188)
!535 = !DISubprogram(name: "rintf", scope: !251, file: !251, line: 256, type: !316, flags: DIFlagPrototyped, spFlags: 0)
!536 = !DIImportedEntity(tag: DW_TAG_imported_declaration, scope: !5, entity: !537, file: !254, line: 1189)
!537 = !DISubprogram(name: "rintl", scope: !251, file: !251, line: 256, type: !320, flags: DIFlagPrototyped, spFlags: 0)
!538 = !DIImportedEntity(tag: DW_TAG_imported_declaration, scope: !5, entity: !539, file: !254, line: 1191)
!539 = !DISubprogram(name: "round", scope: !251, file: !251, line: 298, type: !252, flags: DIFlagPrototyped, spFlags: 0)
!540 = !DIImportedEntity(tag: DW_TAG_imported_declaration, scope: !5, entity: !541, file: !254, line: 1192)
!541 = !DISubprogram(name: "roundf", scope: !251, file: !251, line: 298, type: !316, flags: DIFlagPrototyped, spFlags: 0)
!542 = !DIImportedEntity(tag: DW_TAG_imported_declaration, scope: !5, entity: !543, file: !254, line: 1193)
!543 = !DISubprogram(name: "roundl", scope: !251, file: !251, line: 298, type: !320, flags: DIFlagPrototyped, spFlags: 0)
!544 = !DIImportedEntity(tag: DW_TAG_imported_declaration, scope: !5, entity: !545, file: !254, line: 1195)
!545 = !DISubprogram(name: "scalbln", scope: !251, file: !251, line: 290, type: !546, flags: DIFlagPrototyped, spFlags: 0)
!546 = !DISubroutineType(types: !547)
!547 = !{!38, !38, !21}
!548 = !DIImportedEntity(tag: DW_TAG_imported_declaration, scope: !5, entity: !549, file: !254, line: 1196)
!549 = !DISubprogram(name: "scalblnf", scope: !251, file: !251, line: 290, type: !550, flags: DIFlagPrototyped, spFlags: 0)
!550 = !DISubroutineType(types: !551)
!551 = !{!195, !195, !21}
!552 = !DIImportedEntity(tag: DW_TAG_imported_declaration, scope: !5, entity: !553, file: !254, line: 1197)
!553 = !DISubprogram(name: "scalblnl", scope: !251, file: !251, line: 290, type: !554, flags: DIFlagPrototyped, spFlags: 0)
!554 = !DISubroutineType(types: !555)
!555 = !{!200, !200, !21}
!556 = !DIImportedEntity(tag: DW_TAG_imported_declaration, scope: !5, entity: !557, file: !254, line: 1199)
!557 = !DISubprogram(name: "scalbn", scope: !251, file: !251, line: 276, type: !284, flags: DIFlagPrototyped, spFlags: 0)
!558 = !DIImportedEntity(tag: DW_TAG_imported_declaration, scope: !5, entity: !559, file: !254, line: 1200)
!559 = !DISubprogram(name: "scalbnf", scope: !251, file: !251, line: 276, type: !560, flags: DIFlagPrototyped, spFlags: 0)
!560 = !DISubroutineType(types: !561)
!561 = !{!195, !195, !10}
!562 = !DIImportedEntity(tag: DW_TAG_imported_declaration, scope: !5, entity: !563, file: !254, line: 1201)
!563 = !DISubprogram(name: "scalbnl", scope: !251, file: !251, line: 276, type: !564, flags: DIFlagPrototyped, spFlags: 0)
!564 = !DISubroutineType(types: !565)
!565 = !{!200, !200, !10}
!566 = !DIImportedEntity(tag: DW_TAG_imported_declaration, scope: !5, entity: !567, file: !254, line: 1203)
!567 = !DISubprogram(name: "tgamma", scope: !251, file: !251, line: 235, type: !252, flags: DIFlagPrototyped, spFlags: 0)
!568 = !DIImportedEntity(tag: DW_TAG_imported_declaration, scope: !5, entity: !569, file: !254, line: 1204)
!569 = !DISubprogram(name: "tgammaf", scope: !251, file: !251, line: 235, type: !316, flags: DIFlagPrototyped, spFlags: 0)
!570 = !DIImportedEntity(tag: DW_TAG_imported_declaration, scope: !5, entity: !571, file: !254, line: 1205)
!571 = !DISubprogram(name: "tgammal", scope: !251, file: !251, line: 235, type: !320, flags: DIFlagPrototyped, spFlags: 0)
!572 = !DIImportedEntity(tag: DW_TAG_imported_declaration, scope: !5, entity: !573, file: !254, line: 1207)
!573 = !DISubprogram(name: "trunc", scope: !251, file: !251, line: 302, type: !252, flags: DIFlagPrototyped, spFlags: 0)
!574 = !DIImportedEntity(tag: DW_TAG_imported_declaration, scope: !5, entity: !575, file: !254, line: 1208)
!575 = !DISubprogram(name: "truncf", scope: !251, file: !251, line: 302, type: !316, flags: DIFlagPrototyped, spFlags: 0)
!576 = !DIImportedEntity(tag: DW_TAG_imported_declaration, scope: !5, entity: !577, file: !254, line: 1209)
!577 = !DISubprogram(name: "truncl", scope: !251, file: !251, line: 302, type: !320, flags: DIFlagPrototyped, spFlags: 0)
!578 = !DIImportedEntity(tag: DW_TAG_imported_declaration, scope: !0, entity: !221, file: !579, line: 38)
!579 = !DIFile(filename: "/usr/lib/gcc/x86_64-linux-gnu/10/../../../../include/c++/10/math.h", directory: "")
!580 = !DIImportedEntity(tag: DW_TAG_imported_declaration, scope: !0, entity: !581, file: !579, line: 54)
!581 = !DISubprogram(name: "modf", linkageName: "_ZSt4modfePe", scope: !5, file: !254, line: 380, type: !582, flags: DIFlagPrototyped, spFlags: 0)
!582 = !DISubroutineType(types: !583)
!583 = !{!200, !200, !584}
!584 = !DIDerivedType(tag: DW_TAG_pointer_type, baseType: !200, size: 64)
!585 = !DIImportedEntity(tag: DW_TAG_imported_declaration, scope: !5, entity: !586, file: !587, line: 58)
!586 = distinct !DICompositeType(tag: DW_TAG_class_type, name: "exception_ptr", scope: !588, file: !587, line: 80, size: 64, flags: DIFlagTypePassByReference | DIFlagNonTrivial, elements: !589, identifier: "_ZTSNSt15__exception_ptr13exception_ptrE")
!587 = !DIFile(filename: "/usr/lib/gcc/x86_64-linux-gnu/10/../../../../include/c++/10/bits/exception_ptr.h", directory: "")
!588 = !DINamespace(name: "__exception_ptr", scope: !5)
!589 = !{!590, !591, !595, !598, !599, !604, !605, !609, !615, !619, !623, !626, !627, !630, !634}
!590 = !DIDerivedType(tag: DW_TAG_member, name: "_M_exception_object", scope: !586, file: !587, line: 82, baseType: !54, size: 64)
!591 = !DISubprogram(name: "exception_ptr", scope: !586, file: !587, line: 84, type: !592, scopeLine: 84, flags: DIFlagExplicit | DIFlagPrototyped, spFlags: 0)
!592 = !DISubroutineType(types: !593)
!593 = !{null, !594, !54}
!594 = !DIDerivedType(tag: DW_TAG_pointer_type, baseType: !586, size: 64, flags: DIFlagArtificial | DIFlagObjectPointer)
!595 = !DISubprogram(name: "_M_addref", linkageName: "_ZNSt15__exception_ptr13exception_ptr9_M_addrefEv", scope: !586, file: !587, line: 86, type: !596, scopeLine: 86, flags: DIFlagPrototyped, spFlags: 0)
!596 = !DISubroutineType(types: !597)
!597 = !{null, !594}
!598 = !DISubprogram(name: "_M_release", linkageName: "_ZNSt15__exception_ptr13exception_ptr10_M_releaseEv", scope: !586, file: !587, line: 87, type: !596, scopeLine: 87, flags: DIFlagPrototyped, spFlags: 0)
!599 = !DISubprogram(name: "_M_get", linkageName: "_ZNKSt15__exception_ptr13exception_ptr6_M_getEv", scope: !586, file: !587, line: 89, type: !600, scopeLine: 89, flags: DIFlagPrototyped, spFlags: 0)
!600 = !DISubroutineType(types: !601)
!601 = !{!54, !602}
!602 = !DIDerivedType(tag: DW_TAG_pointer_type, baseType: !603, size: 64, flags: DIFlagArtificial | DIFlagObjectPointer)
!603 = !DIDerivedType(tag: DW_TAG_const_type, baseType: !586)
!604 = !DISubprogram(name: "exception_ptr", scope: !586, file: !587, line: 97, type: !596, scopeLine: 97, flags: DIFlagPublic | DIFlagPrototyped, spFlags: 0)
!605 = !DISubprogram(name: "exception_ptr", scope: !586, file: !587, line: 99, type: !606, scopeLine: 99, flags: DIFlagPublic | DIFlagPrototyped, spFlags: 0)
!606 = !DISubroutineType(types: !607)
!607 = !{null, !594, !608}
!608 = !DIDerivedType(tag: DW_TAG_reference_type, baseType: !603, size: 64)
!609 = !DISubprogram(name: "exception_ptr", scope: !586, file: !587, line: 102, type: !610, scopeLine: 102, flags: DIFlagPublic | DIFlagPrototyped, spFlags: 0)
!610 = !DISubroutineType(types: !611)
!611 = !{null, !594, !612}
!612 = !DIDerivedType(tag: DW_TAG_typedef, name: "nullptr_t", scope: !5, file: !613, line: 264, baseType: !614)
!613 = !DIFile(filename: "/usr/lib/gcc/x86_64-linux-gnu/10/../../../../include/x86_64-linux-gnu/c++/10/bits/c++config.h", directory: "")
!614 = !DIBasicType(tag: DW_TAG_unspecified_type, name: "decltype(nullptr)")
!615 = !DISubprogram(name: "exception_ptr", scope: !586, file: !587, line: 106, type: !616, scopeLine: 106, flags: DIFlagPublic | DIFlagPrototyped, spFlags: 0)
!616 = !DISubroutineType(types: !617)
!617 = !{null, !594, !618}
!618 = !DIDerivedType(tag: DW_TAG_rvalue_reference_type, baseType: !586, size: 64)
!619 = !DISubprogram(name: "operator=", linkageName: "_ZNSt15__exception_ptr13exception_ptraSERKS0_", scope: !586, file: !587, line: 119, type: !620, scopeLine: 119, flags: DIFlagPublic | DIFlagPrototyped, spFlags: 0)
!620 = !DISubroutineType(types: !621)
!621 = !{!622, !594, !608}
!622 = !DIDerivedType(tag: DW_TAG_reference_type, baseType: !586, size: 64)
!623 = !DISubprogram(name: "operator=", linkageName: "_ZNSt15__exception_ptr13exception_ptraSEOS0_", scope: !586, file: !587, line: 123, type: !624, scopeLine: 123, flags: DIFlagPublic | DIFlagPrototyped, spFlags: 0)
!624 = !DISubroutineType(types: !625)
!625 = !{!622, !594, !618}
!626 = !DISubprogram(name: "~exception_ptr", scope: !586, file: !587, line: 130, type: !596, scopeLine: 130, flags: DIFlagPublic | DIFlagPrototyped, spFlags: 0)
!627 = !DISubprogram(name: "swap", linkageName: "_ZNSt15__exception_ptr13exception_ptr4swapERS0_", scope: !586, file: !587, line: 133, type: !628, scopeLine: 133, flags: DIFlagPublic | DIFlagPrototyped, spFlags: 0)
!628 = !DISubroutineType(types: !629)
!629 = !{null, !594, !622}
!630 = !DISubprogram(name: "operator bool", linkageName: "_ZNKSt15__exception_ptr13exception_ptrcvbEv", scope: !586, file: !587, line: 145, type: !631, scopeLine: 145, flags: DIFlagPublic | DIFlagExplicit | DIFlagPrototyped, spFlags: 0)
!631 = !DISubroutineType(types: !632)
!632 = !{!633, !602}
!633 = !DIBasicType(name: "bool", size: 8, encoding: DW_ATE_boolean)
!634 = !DISubprogram(name: "__cxa_exception_type", linkageName: "_ZNKSt15__exception_ptr13exception_ptr20__cxa_exception_typeEv", scope: !586, file: !587, line: 154, type: !635, scopeLine: 154, flags: DIFlagPublic | DIFlagPrototyped, spFlags: 0)
!635 = !DISubroutineType(types: !636)
!636 = !{!637, !602}
!637 = !DIDerivedType(tag: DW_TAG_pointer_type, baseType: !638, size: 64)
!638 = !DIDerivedType(tag: DW_TAG_const_type, baseType: !639)
!639 = !DICompositeType(tag: DW_TAG_class_type, name: "type_info", scope: !5, file: !640, line: 88, flags: DIFlagFwdDecl)
!640 = !DIFile(filename: "/usr/lib/gcc/x86_64-linux-gnu/10/../../../../include/c++/10/typeinfo", directory: "")
!641 = !DIImportedEntity(tag: DW_TAG_imported_declaration, scope: !588, entity: !642, file: !587, line: 74)
!642 = !DISubprogram(name: "rethrow_exception", linkageName: "_ZSt17rethrow_exceptionNSt15__exception_ptr13exception_ptrE", scope: !5, file: !587, line: 70, type: !643, flags: DIFlagPrototyped | DIFlagNoReturn, spFlags: 0)
!643 = !DISubroutineType(types: !644)
!644 = !{null, !586}
!645 = !{i32 7, !"Dwarf Version", i32 4}
!646 = !{i32 2, !"Debug Info Version", i32 3}
!647 = !{i32 1, !"wchar_size", i32 4}
!648 = !{!"clang version 10.0.1 (https://github.com/svkeerthy/IR2Vec-LoopOptimizationFramework.git 561ac470e63b728263a0ac06ef987886ac648486)"}
!649 = distinct !DISubprogram(name: "SimParameters", linkageName: "_ZN13SimParametersC2Ev", scope: !650, file: !1, line: 12, type: !936, scopeLine: 12, flags: DIFlagPrototyped, spFlags: DISPFlagDefinition, unit: !0, declaration: !935, retainedNodes: !2)
!650 = distinct !DICompositeType(tag: DW_TAG_class_type, name: "SimParameters", file: !651, line: 32, size: 5056, flags: DIFlagTypePassByReference | DIFlagNonTrivial, elements: !652, identifier: "_ZTS13SimParameters")
!651 = !DIFile(filename: "./SimParameters.h", directory: "/home/venkat/IF-DV/spec_build_release/CPU_2017/benchspec/CPU/508.namd_r/build/build_base_ld-loop-ext-m64.0000")
!652 = !{!653, !726, !727, !728, !729, !730, !731, !732, !734, !735, !736, !737, !738, !739, !740, !741, !742, !743, !744, !745, !746, !747, !748, !749, !750, !751, !752, !753, !754, !755, !756, !757, !758, !759, !760, !761, !762, !763, !764, !765, !766, !767, !768, !769, !770, !771, !772, !773, !774, !775, !776, !777, !778, !779, !780, !781, !782, !783, !784, !785, !786, !787, !788, !789, !790, !935, !939, !940, !948}
!653 = !DIDerivedType(tag: DW_TAG_member, name: "cellBasisVector1", scope: !650, file: !654, line: 7, baseType: !655, size: 192, flags: DIFlagPublic)
!654 = !DIFile(filename: "./SimParamList.h", directory: "/home/venkat/IF-DV/spec_build_release/CPU_2017/benchspec/CPU/508.namd_r/build/build_base_ld-loop-ext-m64.0000")
!655 = distinct !DICompositeType(tag: DW_TAG_class_type, name: "Vector", file: !656, line: 24, size: 192, flags: DIFlagTypePassByValue | DIFlagNonTrivial, elements: !657, identifier: "_ZTS6Vector")
!656 = !DIFile(filename: "./Vector.h", directory: "/home/venkat/IF-DV/spec_build_release/CPU_2017/benchspec/CPU/508.namd_r/build/build_base_ld-loop-ext-m64.0000")
!657 = !{!658, !661, !662, !663, !667, !670, !673, !692, !696, !702, !705, !706, !709, !710, !714, !715, !718, !719, !722}
!658 = !DIDerivedType(tag: DW_TAG_member, name: "x", scope: !655, file: !656, line: 26, baseType: !659, size: 64, flags: DIFlagPublic)
!659 = !DIDerivedType(tag: DW_TAG_typedef, name: "BigReal", file: !660, line: 65, baseType: !38)
!660 = !DIFile(filename: "./common.h", directory: "/home/venkat/IF-DV/spec_build_release/CPU_2017/benchspec/CPU/508.namd_r/build/build_base_ld-loop-ext-m64.0000")
!661 = !DIDerivedType(tag: DW_TAG_member, name: "y", scope: !655, file: !656, line: 26, baseType: !659, size: 64, offset: 64, flags: DIFlagPublic)
!662 = !DIDerivedType(tag: DW_TAG_member, name: "z", scope: !655, file: !656, line: 26, baseType: !659, size: 64, offset: 128, flags: DIFlagPublic)
!663 = !DISubprogram(name: "Vector", scope: !655, file: !656, line: 28, type: !664, scopeLine: 28, flags: DIFlagPublic | DIFlagPrototyped, spFlags: 0)
!664 = !DISubroutineType(types: !665)
!665 = !{null, !666}
!666 = !DIDerivedType(tag: DW_TAG_pointer_type, baseType: !655, size: 64, flags: DIFlagArtificial | DIFlagObjectPointer)
!667 = !DISubprogram(name: "Vector", scope: !655, file: !656, line: 31, type: !668, scopeLine: 31, flags: DIFlagPublic | DIFlagPrototyped, spFlags: 0)
!668 = !DISubroutineType(types: !669)
!669 = !{null, !666, !659, !659, !659}
!670 = !DISubprogram(name: "Vector", scope: !655, file: !656, line: 34, type: !671, scopeLine: 34, flags: DIFlagPublic | DIFlagPrototyped, spFlags: 0)
!671 = !DISubroutineType(types: !672)
!672 = !{null, !666, !659}
!673 = !DISubprogram(name: "Vector", scope: !655, file: !656, line: 37, type: !674, scopeLine: 37, flags: DIFlagPublic | DIFlagPrototyped, spFlags: 0)
!674 = !DISubroutineType(types: !675)
!675 = !{null, !666, !676}
!676 = !DIDerivedType(tag: DW_TAG_reference_type, baseType: !677, size: 64)
!677 = !DIDerivedType(tag: DW_TAG_const_type, baseType: !678)
!678 = distinct !DICompositeType(tag: DW_TAG_class_type, name: "FloatVector", file: !656, line: 16, size: 96, flags: DIFlagTypePassByValue | DIFlagNonTrivial, elements: !679, identifier: "_ZTS11FloatVector")
!679 = !{!680, !681, !682, !683, !687}
!680 = !DIDerivedType(tag: DW_TAG_member, name: "x", scope: !678, file: !656, line: 18, baseType: !195, size: 32, flags: DIFlagPublic)
!681 = !DIDerivedType(tag: DW_TAG_member, name: "y", scope: !678, file: !656, line: 18, baseType: !195, size: 32, offset: 32, flags: DIFlagPublic)
!682 = !DIDerivedType(tag: DW_TAG_member, name: "z", scope: !678, file: !656, line: 18, baseType: !195, size: 32, offset: 64, flags: DIFlagPublic)
!683 = !DISubprogram(name: "FloatVector", scope: !678, file: !656, line: 19, type: !684, scopeLine: 19, flags: DIFlagPublic | DIFlagPrototyped, spFlags: 0)
!684 = !DISubroutineType(types: !685)
!685 = !{null, !686}
!686 = !DIDerivedType(tag: DW_TAG_pointer_type, baseType: !678, size: 64, flags: DIFlagArtificial | DIFlagObjectPointer)
!687 = !DISubprogram(name: "FloatVector", scope: !678, file: !656, line: 20, type: !688, scopeLine: 20, flags: DIFlagPublic | DIFlagPrototyped, spFlags: 0)
!688 = !DISubroutineType(types: !689)
!689 = !{null, !686, !690}
!690 = !DIDerivedType(tag: DW_TAG_reference_type, baseType: !691, size: 64)
!691 = !DIDerivedType(tag: DW_TAG_const_type, baseType: !655)
!692 = !DISubprogram(name: "operator[]", linkageName: "_ZN6VectorixEi", scope: !655, file: !656, line: 39, type: !693, scopeLine: 39, flags: DIFlagPublic | DIFlagPrototyped, spFlags: 0)
!693 = !DISubroutineType(types: !694)
!694 = !{!695, !666, !10}
!695 = !DIDerivedType(tag: DW_TAG_reference_type, baseType: !659, size: 64)
!696 = !DISubprogram(name: "operator=", linkageName: "_ZN6VectoraSERKd", scope: !655, file: !656, line: 48, type: !697, scopeLine: 48, flags: DIFlagPublic | DIFlagPrototyped, spFlags: 0)
!697 = !DISubroutineType(types: !698)
!698 = !{!699, !666, !700}
!699 = !DIDerivedType(tag: DW_TAG_reference_type, baseType: !655, size: 64)
!700 = !DIDerivedType(tag: DW_TAG_reference_type, baseType: !701, size: 64)
!701 = !DIDerivedType(tag: DW_TAG_const_type, baseType: !659)
!702 = !DISubprogram(name: "operator+=", linkageName: "_ZN6VectorpLERKS_", scope: !655, file: !656, line: 56, type: !703, scopeLine: 56, flags: DIFlagPublic | DIFlagPrototyped, spFlags: 0)
!703 = !DISubroutineType(types: !704)
!704 = !{null, !666, !690}
!705 = !DISubprogram(name: "operator-=", linkageName: "_ZN6VectormIERKS_", scope: !655, file: !656, line: 63, type: !703, scopeLine: 63, flags: DIFlagPublic | DIFlagPrototyped, spFlags: 0)
!706 = !DISubprogram(name: "operator*=", linkageName: "_ZN6VectormLERKd", scope: !655, file: !656, line: 70, type: !707, scopeLine: 70, flags: DIFlagPublic | DIFlagPrototyped, spFlags: 0)
!707 = !DISubroutineType(types: !708)
!708 = !{null, !666, !700}
!709 = !DISubprogram(name: "operator/=", linkageName: "_ZN6VectordVERKd", scope: !655, file: !656, line: 77, type: !707, scopeLine: 77, flags: DIFlagPublic | DIFlagPrototyped, spFlags: 0)
!710 = !DISubprogram(name: "length", linkageName: "_ZNK6Vector6lengthEv", scope: !655, file: !656, line: 125, type: !711, scopeLine: 125, flags: DIFlagPublic | DIFlagPrototyped, spFlags: 0)
!711 = !DISubroutineType(types: !712)
!712 = !{!659, !713}
!713 = !DIDerivedType(tag: DW_TAG_pointer_type, baseType: !691, size: 64, flags: DIFlagArtificial | DIFlagObjectPointer)
!714 = !DISubprogram(name: "length2", linkageName: "_ZNK6Vector7length2Ev", scope: !655, file: !656, line: 129, type: !711, scopeLine: 129, flags: DIFlagPublic | DIFlagPrototyped, spFlags: 0)
!715 = !DISubprogram(name: "unit", linkageName: "_ZNK6Vector4unitEv", scope: !655, file: !656, line: 134, type: !716, scopeLine: 134, flags: DIFlagPublic | DIFlagPrototyped, spFlags: 0)
!716 = !DISubroutineType(types: !717)
!717 = !{!655, !713}
!718 = !DISubprogram(name: "cross", linkageName: "_ZN6Vector5crossERKS_", scope: !655, file: !656, line: 164, type: !703, scopeLine: 164, flags: DIFlagPublic | DIFlagPrototyped, spFlags: 0)
!719 = !DISubprogram(name: "dot", linkageName: "_ZN6Vector3dotERKS_", scope: !655, file: !656, line: 174, type: !720, scopeLine: 174, flags: DIFlagPublic | DIFlagPrototyped, spFlags: 0)
!720 = !DISubroutineType(types: !721)
!721 = !{!659, !666, !690}
!722 = !DISubprogram(name: "set", linkageName: "_ZN6Vector3setEPKc", scope: !655, file: !656, line: 180, type: !723, scopeLine: 180, flags: DIFlagPublic | DIFlagPrototyped, spFlags: 0)
!723 = !DISubroutineType(types: !724)
!724 = !{!725, !666, !39}
!725 = !DIDerivedType(tag: DW_TAG_typedef, name: "Bool", file: !660, line: 83, baseType: !10)
!726 = !DIDerivedType(tag: DW_TAG_member, name: "cellBasisVector2", scope: !650, file: !654, line: 8, baseType: !655, size: 192, offset: 192, flags: DIFlagPublic)
!727 = !DIDerivedType(tag: DW_TAG_member, name: "cellBasisVector3", scope: !650, file: !654, line: 9, baseType: !655, size: 192, offset: 384, flags: DIFlagPublic)
!728 = !DIDerivedType(tag: DW_TAG_member, name: "cellOrigin", scope: !650, file: !654, line: 10, baseType: !655, size: 192, offset: 576, flags: DIFlagPublic)
!729 = !DIDerivedType(tag: DW_TAG_member, name: "nonbondedFrequency", scope: !650, file: !654, line: 12, baseType: !10, size: 32, offset: 768, flags: DIFlagPublic)
!730 = !DIDerivedType(tag: DW_TAG_member, name: "fullElectFrequency", scope: !650, file: !654, line: 14, baseType: !10, size: 32, offset: 800, flags: DIFlagPublic)
!731 = !DIDerivedType(tag: DW_TAG_member, name: "dielectric", scope: !650, file: !654, line: 16, baseType: !659, size: 64, offset: 832, flags: DIFlagPublic)
!732 = !DIDerivedType(tag: DW_TAG_member, name: "exclude", scope: !650, file: !654, line: 17, baseType: !733, size: 32, offset: 896, flags: DIFlagPublic)
!733 = !DIDerivedType(tag: DW_TAG_typedef, name: "ExclusionSettings", file: !651, line: 17, baseType: !10)
!734 = !DIDerivedType(tag: DW_TAG_member, name: "scale14", scope: !650, file: !654, line: 19, baseType: !659, size: 64, offset: 960, flags: DIFlagPublic)
!735 = !DIDerivedType(tag: DW_TAG_member, name: "nonbondedScaling", scope: !650, file: !654, line: 21, baseType: !659, size: 64, offset: 1024, flags: DIFlagPublic)
!736 = !DIDerivedType(tag: DW_TAG_member, name: "cutoff", scope: !650, file: !654, line: 22, baseType: !659, size: 64, offset: 1088, flags: DIFlagPublic)
!737 = !DIDerivedType(tag: DW_TAG_member, name: "switchingActive", scope: !650, file: !654, line: 23, baseType: !725, size: 32, offset: 1152, flags: DIFlagPublic)
!738 = !DIDerivedType(tag: DW_TAG_member, name: "switchingDist", scope: !650, file: !654, line: 25, baseType: !659, size: 64, offset: 1216, flags: DIFlagPublic)
!739 = !DIDerivedType(tag: DW_TAG_member, name: "pairlistDist", scope: !650, file: !654, line: 27, baseType: !659, size: 64, offset: 1280, flags: DIFlagPublic)
!740 = !DIDerivedType(tag: DW_TAG_member, name: "alchOn", scope: !650, file: !654, line: 33, baseType: !725, size: 32, offset: 1344, flags: DIFlagPublic)
!741 = !DIDerivedType(tag: DW_TAG_member, name: "alchLambda", scope: !650, file: !654, line: 34, baseType: !659, size: 64, offset: 1408, flags: DIFlagPublic)
!742 = !DIDerivedType(tag: DW_TAG_member, name: "alchLambda2", scope: !650, file: !654, line: 35, baseType: !659, size: 64, offset: 1472, flags: DIFlagPublic)
!743 = !DIDerivedType(tag: DW_TAG_member, name: "alchOutFreq", scope: !650, file: !654, line: 36, baseType: !10, size: 32, offset: 1536, flags: DIFlagPublic)
!744 = !DIDerivedType(tag: DW_TAG_member, name: "alchEquilSteps", scope: !650, file: !654, line: 37, baseType: !10, size: 32, offset: 1568, flags: DIFlagPublic)
!745 = !DIDerivedType(tag: DW_TAG_member, name: "alchVdwShiftCoeff", scope: !650, file: !654, line: 38, baseType: !10, size: 32, offset: 1600, flags: DIFlagPublic)
!746 = !DIDerivedType(tag: DW_TAG_member, name: "pressureProfileOn", scope: !650, file: !654, line: 42, baseType: !725, size: 32, offset: 1632, flags: DIFlagPublic)
!747 = !DIDerivedType(tag: DW_TAG_member, name: "pressureProfileSlabs", scope: !650, file: !654, line: 44, baseType: !10, size: 32, offset: 1664, flags: DIFlagPublic)
!748 = !DIDerivedType(tag: DW_TAG_member, name: "pressureProfileFreq", scope: !650, file: !654, line: 45, baseType: !10, size: 32, offset: 1696, flags: DIFlagPublic)
!749 = !DIDerivedType(tag: DW_TAG_member, name: "lesOn", scope: !650, file: !654, line: 50, baseType: !725, size: 32, offset: 1728, flags: DIFlagPublic)
!750 = !DIDerivedType(tag: DW_TAG_member, name: "lesFactor", scope: !650, file: !654, line: 51, baseType: !10, size: 32, offset: 1760, flags: DIFlagPublic)
!751 = !DIDerivedType(tag: DW_TAG_member, name: "pairInteractionOn", scope: !650, file: !654, line: 53, baseType: !725, size: 32, offset: 1792, flags: DIFlagPublic)
!752 = !DIDerivedType(tag: DW_TAG_member, name: "pairInteractionGroup1", scope: !650, file: !654, line: 54, baseType: !10, size: 32, offset: 1824, flags: DIFlagPublic)
!753 = !DIDerivedType(tag: DW_TAG_member, name: "pairInteractionGroup2", scope: !650, file: !654, line: 55, baseType: !10, size: 32, offset: 1856, flags: DIFlagPublic)
!754 = !DIDerivedType(tag: DW_TAG_member, name: "pairInteractionSelf", scope: !650, file: !654, line: 56, baseType: !725, size: 32, offset: 1888, flags: DIFlagPublic)
!755 = !DIDerivedType(tag: DW_TAG_member, name: "fixedAtomsOn", scope: !650, file: !654, line: 58, baseType: !725, size: 32, offset: 1920, flags: DIFlagPublic)
!756 = !DIDerivedType(tag: DW_TAG_member, name: "fixedAtomsForces", scope: !650, file: !654, line: 59, baseType: !725, size: 32, offset: 1952, flags: DIFlagPublic)
!757 = !DIDerivedType(tag: DW_TAG_member, name: "FMAOn", scope: !650, file: !654, line: 61, baseType: !725, size: 32, offset: 1984, flags: DIFlagPublic)
!758 = !DIDerivedType(tag: DW_TAG_member, name: "fullDirectOn", scope: !650, file: !654, line: 62, baseType: !725, size: 32, offset: 2016, flags: DIFlagPublic)
!759 = !DIDerivedType(tag: DW_TAG_member, name: "PMEOn", scope: !650, file: !654, line: 63, baseType: !725, size: 32, offset: 2048, flags: DIFlagPublic)
!760 = !DIDerivedType(tag: DW_TAG_member, name: "PMETolerance", scope: !650, file: !654, line: 64, baseType: !659, size: 64, offset: 2112, flags: DIFlagPublic)
!761 = !DIDerivedType(tag: DW_TAG_member, name: "PMEEwaldCoefficient", scope: !650, file: !654, line: 65, baseType: !659, size: 64, offset: 2176, flags: DIFlagPublic)
!762 = !DIDerivedType(tag: DW_TAG_member, name: "longSplitting", scope: !650, file: !654, line: 67, baseType: !10, size: 32, offset: 2240, flags: DIFlagPublic)
!763 = !DIDerivedType(tag: DW_TAG_member, name: "hgroupCutoff", scope: !650, file: !654, line: 70, baseType: !659, size: 64, offset: 2304, flags: DIFlagPublic)
!764 = !DIDerivedType(tag: DW_TAG_member, name: "mollyOn", scope: !650, file: !654, line: 72, baseType: !10, size: 32, offset: 2368, flags: DIFlagPublic)
!765 = !DIDerivedType(tag: DW_TAG_member, name: "commOnly", scope: !650, file: !654, line: 74, baseType: !725, size: 32, offset: 2400, flags: DIFlagPublic)
!766 = !DIDerivedType(tag: DW_TAG_member, name: "loweAndersenCutoff", scope: !650, file: !654, line: 76, baseType: !659, size: 64, offset: 2432, flags: DIFlagPublic)
!767 = !DIDerivedType(tag: DW_TAG_member, name: "dt", scope: !650, file: !654, line: 77, baseType: !659, size: 64, offset: 2496, flags: DIFlagPublic)
!768 = !DIDerivedType(tag: DW_TAG_member, name: "loweAndersenRate", scope: !650, file: !654, line: 78, baseType: !659, size: 64, offset: 2560, flags: DIFlagPublic)
!769 = !DIDerivedType(tag: DW_TAG_member, name: "rigidBonds", scope: !650, file: !654, line: 79, baseType: !10, size: 32, offset: 2624, flags: DIFlagPublic)
!770 = !DIDerivedType(tag: DW_TAG_member, name: "loweAndersenTemp", scope: !650, file: !654, line: 80, baseType: !659, size: 64, offset: 2688, flags: DIFlagPublic)
!771 = !DIDerivedType(tag: DW_TAG_member, name: "alchFepOn", scope: !650, file: !654, line: 81, baseType: !725, size: 32, offset: 2752, flags: DIFlagPublic)
!772 = !DIDerivedType(tag: DW_TAG_member, name: "alchFepWCARepuOn", scope: !650, file: !654, line: 82, baseType: !725, size: 32, offset: 2784, flags: DIFlagPublic)
!773 = !DIDerivedType(tag: DW_TAG_member, name: "alchFepWCADispOn", scope: !650, file: !654, line: 83, baseType: !725, size: 32, offset: 2816, flags: DIFlagPublic)
!774 = !DIDerivedType(tag: DW_TAG_member, name: "alchThermIntOn", scope: !650, file: !654, line: 84, baseType: !725, size: 32, offset: 2848, flags: DIFlagPublic)
!775 = !DIDerivedType(tag: DW_TAG_member, name: "tabulatedEnergies", scope: !650, file: !654, line: 85, baseType: !725, size: 32, offset: 2880, flags: DIFlagPublic)
!776 = !DIDerivedType(tag: DW_TAG_member, name: "alchFepWCArcut1", scope: !650, file: !654, line: 86, baseType: !659, size: 64, offset: 2944, flags: DIFlagPublic)
!777 = !DIDerivedType(tag: DW_TAG_member, name: "alchFepWCArcut2", scope: !650, file: !654, line: 87, baseType: !659, size: 64, offset: 3008, flags: DIFlagPublic)
!778 = !DIDerivedType(tag: DW_TAG_member, name: "alchVdwLambdaEnd", scope: !650, file: !654, line: 88, baseType: !659, size: 64, offset: 3072, flags: DIFlagPublic)
!779 = !DIDerivedType(tag: DW_TAG_member, name: "alchElecLambdaStart", scope: !650, file: !654, line: 89, baseType: !659, size: 64, offset: 3136, flags: DIFlagPublic)
!780 = !DIDerivedType(tag: DW_TAG_member, name: "alchDecouple", scope: !650, file: !654, line: 90, baseType: !725, size: 32, offset: 3200, flags: DIFlagPublic)
!781 = !DIDerivedType(tag: DW_TAG_member, name: "accelMDOn", scope: !650, file: !654, line: 91, baseType: !725, size: 32, offset: 3232, flags: DIFlagPublic)
!782 = !DIDerivedType(tag: DW_TAG_member, name: "drudeNbtholeCut", scope: !650, file: !654, line: 92, baseType: !659, size: 64, offset: 3264, flags: DIFlagPublic)
!783 = !DIDerivedType(tag: DW_TAG_member, name: "drudeOn", scope: !650, file: !654, line: 93, baseType: !725, size: 32, offset: 3328, flags: DIFlagPublic)
!784 = !DIDerivedType(tag: DW_TAG_member, name: "pressureProfileAtomTypes", scope: !650, file: !654, line: 94, baseType: !10, size: 32, offset: 3360, flags: DIFlagPublic)
!785 = !DIDerivedType(tag: DW_TAG_member, name: "MSMOn", scope: !650, file: !654, line: 95, baseType: !725, size: 32, offset: 3392, flags: DIFlagPublic)
!786 = !DIDerivedType(tag: DW_TAG_member, name: "MSMSplit", scope: !650, file: !654, line: 96, baseType: !10, size: 32, offset: 3424, flags: DIFlagPublic)
!787 = !DIDerivedType(tag: DW_TAG_member, name: "limitDist", scope: !650, file: !654, line: 97, baseType: !659, size: 64, offset: 3456, flags: DIFlagPublic)
!788 = !DIDerivedType(tag: DW_TAG_member, name: "vdwForceSwitching", scope: !650, file: !654, line: 98, baseType: !725, size: 32, offset: 3520, flags: DIFlagPublic)
!789 = !DIDerivedType(tag: DW_TAG_member, name: "martiniSwitching", scope: !650, file: !654, line: 99, baseType: !725, size: 32, offset: 3552, flags: DIFlagPublic)
!790 = !DIDerivedType(tag: DW_TAG_member, name: "lattice", scope: !650, file: !651, line: 43, baseType: !791, size: 1472, offset: 3584, flags: DIFlagPublic)
!791 = distinct !DICompositeType(tag: DW_TAG_class_type, name: "Lattice", file: !792, line: 25, size: 1472, flags: DIFlagTypePassByValue | DIFlagNonTrivial, elements: !793, identifier: "_ZTS7Lattice")
!792 = !DIFile(filename: "./Lattice.h", directory: "/home/venkat/IF-DV/spec_build_release/CPU_2017/benchspec/CPU/508.namd_r/build/build_base_ld-loop-ext-m64.0000")
!793 = !{!794, !795, !796, !797, !798, !799, !800, !801, !802, !803, !804, !808, !811, !814, !819, !865, !871, !875, !878, !881, !895, !900, !901, !906, !909, !910, !913, !916, !919, !920, !921, !924, !925, !926, !927, !928, !929, !930, !931, !934}
!794 = !DIDerivedType(tag: DW_TAG_member, name: "a1", scope: !791, file: !792, line: 272, baseType: !655, size: 192)
!795 = !DIDerivedType(tag: DW_TAG_member, name: "a2", scope: !791, file: !792, line: 272, baseType: !655, size: 192, offset: 192)
!796 = !DIDerivedType(tag: DW_TAG_member, name: "a3", scope: !791, file: !792, line: 272, baseType: !655, size: 192, offset: 384)
!797 = !DIDerivedType(tag: DW_TAG_member, name: "b1", scope: !791, file: !792, line: 273, baseType: !655, size: 192, offset: 576)
!798 = !DIDerivedType(tag: DW_TAG_member, name: "b2", scope: !791, file: !792, line: 273, baseType: !655, size: 192, offset: 768)
!799 = !DIDerivedType(tag: DW_TAG_member, name: "b3", scope: !791, file: !792, line: 273, baseType: !655, size: 192, offset: 960)
!800 = !DIDerivedType(tag: DW_TAG_member, name: "o", scope: !791, file: !792, line: 274, baseType: !655, size: 192, offset: 1152)
!801 = !DIDerivedType(tag: DW_TAG_member, name: "p1", scope: !791, file: !792, line: 275, baseType: !10, size: 32, offset: 1344)
!802 = !DIDerivedType(tag: DW_TAG_member, name: "p2", scope: !791, file: !792, line: 275, baseType: !10, size: 32, offset: 1376)
!803 = !DIDerivedType(tag: DW_TAG_member, name: "p3", scope: !791, file: !792, line: 275, baseType: !10, size: 32, offset: 1408)
!804 = !DISubprogram(name: "Lattice", scope: !791, file: !792, line: 28, type: !805, scopeLine: 28, flags: DIFlagPublic | DIFlagPrototyped, spFlags: 0)
!805 = !DISubroutineType(types: !806)
!806 = !{null, !807}
!807 = !DIDerivedType(tag: DW_TAG_pointer_type, baseType: !791, size: 64, flags: DIFlagArtificial | DIFlagObjectPointer)
!808 = !DISubprogram(name: "index", linkageName: "_ZN7Lattice5indexEiii", scope: !791, file: !792, line: 33, type: !809, scopeLine: 33, flags: DIFlagPublic | DIFlagPrototyped | DIFlagStaticMember, spFlags: 0)
!809 = !DISubroutineType(types: !810)
!810 = !{!10, !10, !10, !10}
!811 = !DISubprogram(name: "set", linkageName: "_ZN7Lattice3setE6VectorS0_S0_", scope: !791, file: !792, line: 39, type: !812, scopeLine: 39, flags: DIFlagPublic | DIFlagPrototyped, spFlags: 0)
!812 = !DISubroutineType(types: !813)
!813 = !{null, !807, !655, !655, !655}
!814 = !DISubprogram(name: "set", linkageName: "_ZN7Lattice3setE6VectorS0_S0_S0_", scope: !791, file: !792, line: 45, type: !815, scopeLine: 45, flags: DIFlagPublic | DIFlagPrototyped, spFlags: 0)
!815 = !DISubroutineType(types: !816)
!816 = !{null, !807, !655, !655, !655, !817}
!817 = !DIDerivedType(tag: DW_TAG_typedef, name: "Position", file: !818, line: 18, baseType: !655)
!818 = !DIFile(filename: "./NamdTypes.h", directory: "/home/venkat/IF-DV/spec_build_release/CPU_2017/benchspec/CPU/508.namd_r/build/build_base_ld-loop-ext-m64.0000")
!819 = !DISubprogram(name: "rescale", linkageName: "_ZN7Lattice7rescaleE6Tensor", scope: !791, file: !792, line: 68, type: !820, scopeLine: 68, flags: DIFlagPublic | DIFlagPrototyped, spFlags: 0)
!820 = !DISubroutineType(types: !821)
!821 = !{null, !807, !822}
!822 = distinct !DICompositeType(tag: DW_TAG_class_type, name: "Tensor", file: !823, line: 15, size: 576, flags: DIFlagTypePassByReference | DIFlagNonTrivial, elements: !824, identifier: "_ZTS6Tensor")
!823 = !DIFile(filename: "./Tensor.h", directory: "/home/venkat/IF-DV/spec_build_release/CPU_2017/benchspec/CPU/508.namd_r/build/build_base_ld-loop-ext-m64.0000")
!824 = !{!825, !826, !827, !828, !829, !830, !831, !832, !833, !834, !838, !843, !846, !849, !852, !853, !854, !858, !861, !862, !863, !864}
!825 = !DIDerivedType(tag: DW_TAG_member, name: "xx", scope: !822, file: !823, line: 17, baseType: !659, size: 64, flags: DIFlagPublic)
!826 = !DIDerivedType(tag: DW_TAG_member, name: "xy", scope: !822, file: !823, line: 17, baseType: !659, size: 64, offset: 64, flags: DIFlagPublic)
!827 = !DIDerivedType(tag: DW_TAG_member, name: "xz", scope: !822, file: !823, line: 17, baseType: !659, size: 64, offset: 128, flags: DIFlagPublic)
!828 = !DIDerivedType(tag: DW_TAG_member, name: "yx", scope: !822, file: !823, line: 18, baseType: !659, size: 64, offset: 192, flags: DIFlagPublic)
!829 = !DIDerivedType(tag: DW_TAG_member, name: "yy", scope: !822, file: !823, line: 18, baseType: !659, size: 64, offset: 256, flags: DIFlagPublic)
!830 = !DIDerivedType(tag: DW_TAG_member, name: "yz", scope: !822, file: !823, line: 18, baseType: !659, size: 64, offset: 320, flags: DIFlagPublic)
!831 = !DIDerivedType(tag: DW_TAG_member, name: "zx", scope: !822, file: !823, line: 19, baseType: !659, size: 64, offset: 384, flags: DIFlagPublic)
!832 = !DIDerivedType(tag: DW_TAG_member, name: "zy", scope: !822, file: !823, line: 19, baseType: !659, size: 64, offset: 448, flags: DIFlagPublic)
!833 = !DIDerivedType(tag: DW_TAG_member, name: "zz", scope: !822, file: !823, line: 19, baseType: !659, size: 64, offset: 512, flags: DIFlagPublic)
!834 = !DISubprogram(name: "Tensor", scope: !822, file: !823, line: 21, type: !835, scopeLine: 21, flags: DIFlagPublic | DIFlagPrototyped, spFlags: 0)
!835 = !DISubroutineType(types: !836)
!836 = !{null, !837}
!837 = !DIDerivedType(tag: DW_TAG_pointer_type, baseType: !822, size: 64, flags: DIFlagArtificial | DIFlagObjectPointer)
!838 = !DISubprogram(name: "Tensor", scope: !822, file: !823, line: 25, type: !839, scopeLine: 25, flags: DIFlagPublic | DIFlagPrototyped, spFlags: 0)
!839 = !DISubroutineType(types: !840)
!840 = !{null, !837, !841}
!841 = !DIDerivedType(tag: DW_TAG_reference_type, baseType: !842, size: 64)
!842 = !DIDerivedType(tag: DW_TAG_const_type, baseType: !822)
!843 = !DISubprogram(name: "identity", linkageName: "_ZN6Tensor8identityEd", scope: !822, file: !823, line: 31, type: !844, scopeLine: 31, flags: DIFlagPublic | DIFlagPrototyped | DIFlagStaticMember, spFlags: 0)
!844 = !DISubroutineType(types: !845)
!845 = !{!822, !659}
!846 = !DISubprogram(name: "diagonal", linkageName: "_ZN6Tensor8diagonalERK6Vector", scope: !822, file: !823, line: 37, type: !847, scopeLine: 37, flags: DIFlagPublic | DIFlagPrototyped | DIFlagStaticMember, spFlags: 0)
!847 = !DISubroutineType(types: !848)
!848 = !{!822, !690}
!849 = !DISubprogram(name: "symmetric", linkageName: "_ZN6Tensor9symmetricERK6VectorS2_", scope: !822, file: !823, line: 45, type: !850, scopeLine: 45, flags: DIFlagPublic | DIFlagPrototyped | DIFlagStaticMember, spFlags: 0)
!850 = !DISubroutineType(types: !851)
!851 = !{!822, !690, !690}
!852 = !DISubprogram(name: "triangular", linkageName: "_ZN6Tensor10triangularERK6VectorS2_", scope: !822, file: !823, line: 53, type: !850, scopeLine: 53, flags: DIFlagPublic | DIFlagPrototyped | DIFlagStaticMember, spFlags: 0)
!853 = !DISubprogram(name: "~Tensor", scope: !822, file: !823, line: 61, type: !835, scopeLine: 61, flags: DIFlagPublic | DIFlagPrototyped, spFlags: 0)
!854 = !DISubprogram(name: "operator=", linkageName: "_ZN6TensoraSERKS_", scope: !822, file: !823, line: 63, type: !855, scopeLine: 63, flags: DIFlagPublic | DIFlagPrototyped, spFlags: 0)
!855 = !DISubroutineType(types: !856)
!856 = !{!857, !837, !841}
!857 = !DIDerivedType(tag: DW_TAG_reference_type, baseType: !822, size: 64)
!858 = !DISubprogram(name: "operator=", linkageName: "_ZN6TensoraSERKd", scope: !822, file: !823, line: 70, type: !859, scopeLine: 70, flags: DIFlagPublic | DIFlagPrototyped, spFlags: 0)
!859 = !DISubroutineType(types: !860)
!860 = !{!857, !837, !700}
!861 = !DISubprogram(name: "operator+=", linkageName: "_ZN6TensorpLERKS_", scope: !822, file: !823, line: 75, type: !855, scopeLine: 75, flags: DIFlagPublic | DIFlagPrototyped, spFlags: 0)
!862 = !DISubprogram(name: "operator-=", linkageName: "_ZN6TensormIERKS_", scope: !822, file: !823, line: 82, type: !855, scopeLine: 82, flags: DIFlagPublic | DIFlagPrototyped, spFlags: 0)
!863 = !DISubprogram(name: "operator*=", linkageName: "_ZN6TensormLERKd", scope: !822, file: !823, line: 89, type: !859, scopeLine: 89, flags: DIFlagPublic | DIFlagPrototyped, spFlags: 0)
!864 = !DISubprogram(name: "operator/=", linkageName: "_ZN6TensordVERKd", scope: !822, file: !823, line: 96, type: !859, scopeLine: 96, flags: DIFlagPublic | DIFlagPrototyped, spFlags: 0)
!865 = !DISubprogram(name: "rescale", linkageName: "_ZNK7Lattice7rescaleER6Vector6Tensor", scope: !791, file: !792, line: 77, type: !866, scopeLine: 77, flags: DIFlagPublic | DIFlagPrototyped, spFlags: 0)
!866 = !DISubroutineType(types: !867)
!867 = !{null, !868, !870, !822}
!868 = !DIDerivedType(tag: DW_TAG_pointer_type, baseType: !869, size: 64, flags: DIFlagArtificial | DIFlagObjectPointer)
!869 = !DIDerivedType(tag: DW_TAG_const_type, baseType: !791)
!870 = !DIDerivedType(tag: DW_TAG_reference_type, baseType: !817, size: 64)
!871 = !DISubprogram(name: "unscale", linkageName: "_ZNK7Lattice7unscaleE6Vector", scope: !791, file: !792, line: 85, type: !872, scopeLine: 85, flags: DIFlagPublic | DIFlagPrototyped, spFlags: 0)
!872 = !DISubroutineType(types: !873)
!873 = !{!817, !868, !874}
!874 = !DIDerivedType(tag: DW_TAG_typedef, name: "ScaledPosition", file: !792, line: 23, baseType: !655)
!875 = !DISubprogram(name: "scale", linkageName: "_ZNK7Lattice5scaleE6Vector", scope: !791, file: !792, line: 91, type: !876, scopeLine: 91, flags: DIFlagPublic | DIFlagPrototyped, spFlags: 0)
!876 = !DISubroutineType(types: !877)
!877 = !{!874, !868, !817}
!878 = !DISubprogram(name: "nearest", linkageName: "_ZNK7Lattice7nearestE6VectorS0_", scope: !791, file: !792, line: 98, type: !879, scopeLine: 98, flags: DIFlagPublic | DIFlagPrototyped, spFlags: 0)
!879 = !DISubroutineType(types: !880)
!880 = !{!817, !868, !817, !874}
!881 = !DISubprogram(name: "nearest", linkageName: "_ZNK7Lattice7nearestE6VectorS0_P9Transform", scope: !791, file: !792, line: 115, type: !882, scopeLine: 115, flags: DIFlagPublic | DIFlagPrototyped, spFlags: 0)
!882 = !DISubroutineType(types: !883)
!883 = !{!817, !868, !817, !874, !884}
!884 = !DIDerivedType(tag: DW_TAG_pointer_type, baseType: !885, size: 64)
!885 = distinct !DICompositeType(tag: DW_TAG_structure_type, name: "Transform", file: !818, line: 34, size: 24, flags: DIFlagTypePassByValue | DIFlagNonTrivial, elements: !886, identifier: "_ZTS9Transform")
!886 = !{!887, !889, !890, !891}
!887 = !DIDerivedType(tag: DW_TAG_member, name: "i", scope: !885, file: !818, line: 36, baseType: !888, size: 8)
!888 = !DIBasicType(name: "signed char", size: 8, encoding: DW_ATE_signed_char)
!889 = !DIDerivedType(tag: DW_TAG_member, name: "j", scope: !885, file: !818, line: 36, baseType: !888, size: 8, offset: 8)
!890 = !DIDerivedType(tag: DW_TAG_member, name: "k", scope: !885, file: !818, line: 36, baseType: !888, size: 8, offset: 16)
!891 = !DISubprogram(name: "Transform", scope: !885, file: !818, line: 37, type: !892, scopeLine: 37, flags: DIFlagPrototyped, spFlags: 0)
!892 = !DISubroutineType(types: !893)
!893 = !{null, !894}
!894 = !DIDerivedType(tag: DW_TAG_pointer_type, baseType: !885, size: 64, flags: DIFlagArtificial | DIFlagObjectPointer)
!895 = !DISubprogram(name: "apply_transform", linkageName: "_ZNK7Lattice15apply_transformE6VectorRK9Transform", scope: !791, file: !792, line: 140, type: !896, scopeLine: 140, flags: DIFlagPublic | DIFlagPrototyped, spFlags: 0)
!896 = !DISubroutineType(types: !897)
!897 = !{!817, !868, !817, !898}
!898 = !DIDerivedType(tag: DW_TAG_reference_type, baseType: !899, size: 64)
!899 = !DIDerivedType(tag: DW_TAG_const_type, baseType: !885)
!900 = !DISubprogram(name: "reverse_transform", linkageName: "_ZNK7Lattice17reverse_transformE6VectorRK9Transform", scope: !791, file: !792, line: 146, type: !896, scopeLine: 146, flags: DIFlagPublic | DIFlagPrototyped, spFlags: 0)
!901 = !DISubprogram(name: "delta", linkageName: "_ZNK7Lattice5deltaERK6VectorS2_", scope: !791, file: !792, line: 152, type: !902, scopeLine: 152, flags: DIFlagPublic | DIFlagPrototyped, spFlags: 0)
!902 = !DISubroutineType(types: !903)
!903 = !{!655, !868, !904, !904}
!904 = !DIDerivedType(tag: DW_TAG_reference_type, baseType: !905, size: 64)
!905 = !DIDerivedType(tag: DW_TAG_const_type, baseType: !817)
!906 = !DISubprogram(name: "delta", linkageName: "_ZNK7Lattice5deltaERK6Vector", scope: !791, file: !792, line: 188, type: !907, scopeLine: 188, flags: DIFlagPublic | DIFlagPrototyped, spFlags: 0)
!907 = !DISubroutineType(types: !908)
!908 = !{!655, !868, !904}
!909 = !DISubprogram(name: "wrap_delta", linkageName: "_ZNK7Lattice10wrap_deltaERK6Vector", scope: !791, file: !792, line: 199, type: !907, scopeLine: 199, flags: DIFlagPublic | DIFlagPrototyped, spFlags: 0)
!910 = !DISubprogram(name: "wrap_nearest_delta", linkageName: "_ZNK7Lattice18wrap_nearest_deltaE6Vector", scope: !791, file: !792, line: 210, type: !911, scopeLine: 210, flags: DIFlagPublic | DIFlagPrototyped, spFlags: 0)
!911 = !DISubroutineType(types: !912)
!912 = !{!655, !868, !817}
!913 = !DISubprogram(name: "offset", linkageName: "_ZNK7Lattice6offsetEi", scope: !791, file: !792, line: 235, type: !914, scopeLine: 235, flags: DIFlagPublic | DIFlagPrototyped, spFlags: 0)
!914 = !DISubroutineType(types: !915)
!915 = !{!655, !868, !10}
!916 = !DISubprogram(name: "a", linkageName: "_ZNK7Lattice1aEv", scope: !791, file: !792, line: 241, type: !917, scopeLine: 241, flags: DIFlagPublic | DIFlagPrototyped, spFlags: 0)
!917 = !DISubroutineType(types: !918)
!918 = !{!655, !868}
!919 = !DISubprogram(name: "b", linkageName: "_ZNK7Lattice1bEv", scope: !791, file: !792, line: 242, type: !917, scopeLine: 242, flags: DIFlagPublic | DIFlagPrototyped, spFlags: 0)
!920 = !DISubprogram(name: "c", linkageName: "_ZNK7Lattice1cEv", scope: !791, file: !792, line: 243, type: !917, scopeLine: 243, flags: DIFlagPublic | DIFlagPrototyped, spFlags: 0)
!921 = !DISubprogram(name: "orthogonal", linkageName: "_ZNK7Lattice10orthogonalEv", scope: !791, file: !792, line: 246, type: !922, scopeLine: 246, flags: DIFlagPublic | DIFlagPrototyped, spFlags: 0)
!922 = !DISubroutineType(types: !923)
!923 = !{!10, !868}
!924 = !DISubprogram(name: "origin", linkageName: "_ZNK7Lattice6originEv", scope: !791, file: !792, line: 251, type: !917, scopeLine: 251, flags: DIFlagPublic | DIFlagPrototyped, spFlags: 0)
!925 = !DISubprogram(name: "a_r", linkageName: "_ZNK7Lattice3a_rEv", scope: !791, file: !792, line: 257, type: !917, scopeLine: 257, flags: DIFlagPublic | DIFlagPrototyped, spFlags: 0)
!926 = !DISubprogram(name: "b_r", linkageName: "_ZNK7Lattice3b_rEv", scope: !791, file: !792, line: 258, type: !917, scopeLine: 258, flags: DIFlagPublic | DIFlagPrototyped, spFlags: 0)
!927 = !DISubprogram(name: "c_r", linkageName: "_ZNK7Lattice3c_rEv", scope: !791, file: !792, line: 259, type: !917, scopeLine: 259, flags: DIFlagPublic | DIFlagPrototyped, spFlags: 0)
!928 = !DISubprogram(name: "a_p", linkageName: "_ZNK7Lattice3a_pEv", scope: !791, file: !792, line: 262, type: !922, scopeLine: 262, flags: DIFlagPublic | DIFlagPrototyped, spFlags: 0)
!929 = !DISubprogram(name: "b_p", linkageName: "_ZNK7Lattice3b_pEv", scope: !791, file: !792, line: 263, type: !922, scopeLine: 263, flags: DIFlagPublic | DIFlagPrototyped, spFlags: 0)
!930 = !DISubprogram(name: "c_p", linkageName: "_ZNK7Lattice3c_pEv", scope: !791, file: !792, line: 264, type: !922, scopeLine: 264, flags: DIFlagPublic | DIFlagPrototyped, spFlags: 0)
!931 = !DISubprogram(name: "volume", linkageName: "_ZNK7Lattice6volumeEv", scope: !791, file: !792, line: 266, type: !932, scopeLine: 266, flags: DIFlagPublic | DIFlagPrototyped, spFlags: 0)
!932 = !DISubroutineType(types: !933)
!933 = !{!659, !868}
!934 = !DISubprogram(name: "recalculate", linkageName: "_ZN7Lattice11recalculateEv", scope: !791, file: !792, line: 278, type: !805, scopeLine: 278, flags: DIFlagPrototyped, spFlags: 0)
!935 = !DISubprogram(name: "SimParameters", scope: !650, file: !651, line: 45, type: !936, scopeLine: 45, flags: DIFlagPublic | DIFlagPrototyped, spFlags: 0)
!936 = !DISubroutineType(types: !937)
!937 = !{null, !938}
!938 = !DIDerivedType(tag: DW_TAG_pointer_type, baseType: !650, size: 64, flags: DIFlagArtificial | DIFlagObjectPointer)
!939 = !DISubprogram(name: "~SimParameters", scope: !650, file: !651, line: 46, type: !936, scopeLine: 46, flags: DIFlagPublic | DIFlagPrototyped, spFlags: 0)
!940 = !DISubprogram(name: "readfile", linkageName: "_ZN13SimParameters8readfileEP8_IO_FILE", scope: !650, file: !651, line: 47, type: !941, scopeLine: 47, flags: DIFlagPublic | DIFlagPrototyped, spFlags: 0)
!941 = !DISubroutineType(types: !942)
!942 = !{!10, !938, !943}
!943 = !DIDerivedType(tag: DW_TAG_pointer_type, baseType: !944, size: 64)
!944 = !DIDerivedType(tag: DW_TAG_typedef, name: "FILE", file: !945, line: 7, baseType: !946)
!945 = !DIFile(filename: "/usr/include/x86_64-linux-gnu/bits/types/FILE.h", directory: "")
!946 = !DICompositeType(tag: DW_TAG_structure_type, name: "_IO_FILE", file: !947, line: 49, flags: DIFlagFwdDecl, identifier: "_ZTS8_IO_FILE")
!947 = !DIFile(filename: "/usr/include/x86_64-linux-gnu/bits/types/struct_FILE.h", directory: "")
!948 = !DISubprogram(name: "setparam", linkageName: "_ZN13SimParameters8setparamEPKcS1_", scope: !650, file: !651, line: 48, type: !949, scopeLine: 48, flags: DIFlagPublic | DIFlagPrototyped, spFlags: 0)
!949 = !DISubroutineType(types: !950)
!950 = !{!10, !938, !39, !39}
!951 = !DILocalVariable(name: "this", arg: 1, scope: !649, type: !952, flags: DIFlagArtificial | DIFlagObjectPointer)
!952 = !DIDerivedType(tag: DW_TAG_pointer_type, baseType: !650, size: 64)
!953 = !DILocation(line: 0, scope: !649)
!954 = !DILocation(line: 12, column: 16, scope: !649)
!955 = !DILocation(line: 7, column: 2, scope: !956)
!956 = !DILexicalBlockFile(scope: !957, file: !654, discriminator: 0)
!957 = distinct !DILexicalBlock(scope: !649, file: !1, line: 12, column: 32)
!958 = !DILocation(line: 8, column: 2, scope: !956)
!959 = !DILocation(line: 9, column: 2, scope: !956)
!960 = !DILocation(line: 10, column: 2, scope: !956)
!961 = !DILocation(line: 12, column: 2, scope: !956)
!962 = !DILocation(line: 14, column: 2, scope: !956)
!963 = !DILocation(line: 16, column: 2, scope: !956)
!964 = !DILocation(line: 17, column: 2, scope: !956)
!965 = !DILocation(line: 19, column: 2, scope: !956)
!966 = !DILocation(line: 21, column: 2, scope: !956)
!967 = !DILocation(line: 22, column: 2, scope: !956)
!968 = !DILocation(line: 23, column: 2, scope: !956)
!969 = !DILocation(line: 25, column: 2, scope: !956)
!970 = !DILocation(line: 27, column: 2, scope: !956)
!971 = !DILocation(line: 33, column: 2, scope: !956)
!972 = !DILocation(line: 34, column: 2, scope: !956)
!973 = !DILocation(line: 35, column: 2, scope: !956)
!974 = !DILocation(line: 36, column: 2, scope: !956)
!975 = !DILocation(line: 37, column: 2, scope: !956)
!976 = !DILocation(line: 38, column: 2, scope: !956)
!977 = !DILocation(line: 42, column: 9, scope: !956)
!978 = !DILocation(line: 44, column: 9, scope: !956)
!979 = !DILocation(line: 45, column: 9, scope: !956)
!980 = !DILocation(line: 50, column: 2, scope: !956)
!981 = !DILocation(line: 51, column: 2, scope: !956)
!982 = !DILocation(line: 53, column: 2, scope: !956)
!983 = !DILocation(line: 54, column: 2, scope: !956)
!984 = !DILocation(line: 55, column: 2, scope: !956)
!985 = !DILocation(line: 56, column: 9, scope: !956)
!986 = !DILocation(line: 58, column: 2, scope: !956)
!987 = !DILocation(line: 59, column: 2, scope: !956)
!988 = !DILocation(line: 61, column: 2, scope: !956)
!989 = !DILocation(line: 62, column: 2, scope: !956)
!990 = !DILocation(line: 63, column: 2, scope: !956)
!991 = !DILocation(line: 64, column: 2, scope: !956)
!992 = !DILocation(line: 65, column: 9, scope: !956)
!993 = !DILocation(line: 67, column: 2, scope: !956)
!994 = !DILocation(line: 70, column: 2, scope: !956)
!995 = !DILocation(line: 72, column: 2, scope: !956)
!996 = !DILocation(line: 74, column: 2, scope: !956)
!997 = !DILocation(line: 76, column: 9, scope: !956)
!998 = !DILocation(line: 77, column: 9, scope: !956)
!999 = !DILocation(line: 78, column: 9, scope: !956)
!1000 = !DILocation(line: 79, column: 9, scope: !956)
!1001 = !DILocation(line: 80, column: 9, scope: !956)
!1002 = !DILocation(line: 81, column: 9, scope: !956)
!1003 = !DILocation(line: 82, column: 9, scope: !956)
!1004 = !DILocation(line: 83, column: 9, scope: !956)
!1005 = !DILocation(line: 84, column: 9, scope: !956)
!1006 = !DILocation(line: 85, column: 9, scope: !956)
!1007 = !DILocation(line: 86, column: 9, scope: !956)
!1008 = !DILocation(line: 87, column: 9, scope: !956)
!1009 = !DILocation(line: 88, column: 9, scope: !956)
!1010 = !DILocation(line: 89, column: 9, scope: !956)
!1011 = !DILocation(line: 90, column: 9, scope: !956)
!1012 = !DILocation(line: 91, column: 9, scope: !956)
!1013 = !DILocation(line: 92, column: 9, scope: !956)
!1014 = !DILocation(line: 93, column: 9, scope: !956)
!1015 = !DILocation(line: 94, column: 9, scope: !956)
!1016 = !DILocation(line: 95, column: 9, scope: !956)
!1017 = !DILocation(line: 96, column: 9, scope: !956)
!1018 = !DILocation(line: 97, column: 9, scope: !956)
!1019 = !DILocation(line: 98, column: 9, scope: !956)
!1020 = !DILocation(line: 99, column: 9, scope: !956)
!1021 = !DILocation(line: 20, column: 1, scope: !649)
!1022 = distinct !DISubprogram(name: "Vector", linkageName: "_ZN6VectorC2Ev", scope: !655, file: !656, line: 28, type: !664, scopeLine: 28, flags: DIFlagPrototyped, spFlags: DISPFlagDefinition, unit: !0, declaration: !663, retainedNodes: !2)
!1023 = !DILocalVariable(name: "this", arg: 1, scope: !1022, type: !1024, flags: DIFlagArtificial | DIFlagObjectPointer)
!1024 = !DIDerivedType(tag: DW_TAG_pointer_type, baseType: !655, size: 64)
!1025 = !DILocation(line: 0, scope: !1022)
!1026 = !DILocation(line: 28, column: 28, scope: !1022)
!1027 = !DILocation(line: 28, column: 39, scope: !1022)
!1028 = !DILocation(line: 28, column: 50, scope: !1022)
!1029 = !DILocation(line: 28, column: 64, scope: !1022)
!1030 = distinct !DISubprogram(name: "Lattice", linkageName: "_ZN7LatticeC2Ev", scope: !791, file: !792, line: 28, type: !805, scopeLine: 30, flags: DIFlagPrototyped, spFlags: DISPFlagDefinition, unit: !0, declaration: !804, retainedNodes: !2)
!1031 = !DILocalVariable(name: "this", arg: 1, scope: !1030, type: !1032, flags: DIFlagArtificial | DIFlagObjectPointer)
!1032 = !DIDerivedType(tag: DW_TAG_pointer_type, baseType: !791, size: 64)
!1033 = !DILocation(line: 0, scope: !1030)
!1034 = !DILocation(line: 28, column: 19, scope: !1030)
!1035 = !DILocation(line: 28, column: 30, scope: !1030)
!1036 = !DILocation(line: 28, column: 41, scope: !1030)
!1037 = !DILocation(line: 29, column: 19, scope: !1030)
!1038 = !DILocation(line: 29, column: 30, scope: !1030)
!1039 = !DILocation(line: 29, column: 41, scope: !1030)
!1040 = !DILocation(line: 30, column: 19, scope: !1030)
!1041 = !DILocation(line: 30, column: 29, scope: !1030)
!1042 = !DILocation(line: 30, column: 36, scope: !1030)
!1043 = !DILocation(line: 30, column: 43, scope: !1030)
!1044 = !DILocation(line: 30, column: 50, scope: !1030)
!1045 = distinct !DISubprogram(name: "Vector", linkageName: "_ZN6VectorC2Eddd", scope: !655, file: !656, line: 31, type: !668, scopeLine: 32, flags: DIFlagPrototyped, spFlags: DISPFlagDefinition, unit: !0, declaration: !667, retainedNodes: !2)
!1046 = !DILocalVariable(name: "this", arg: 1, scope: !1045, type: !1024, flags: DIFlagArtificial | DIFlagObjectPointer)
!1047 = !DILocation(line: 0, scope: !1045)
!1048 = !DILocalVariable(name: "newx", arg: 2, scope: !1045, file: !656, line: 31, type: !659)
!1049 = !DILocation(line: 31, column: 29, scope: !1045)
!1050 = !DILocalVariable(name: "newy", arg: 3, scope: !1045, file: !656, line: 31, type: !659)
!1051 = !DILocation(line: 31, column: 43, scope: !1045)
!1052 = !DILocalVariable(name: "newz", arg: 4, scope: !1045, file: !656, line: 31, type: !659)
!1053 = !DILocation(line: 31, column: 57, scope: !1045)
!1054 = !DILocation(line: 32, column: 10, scope: !1045)
!1055 = !DILocation(line: 32, column: 12, scope: !1045)
!1056 = !DILocation(line: 32, column: 19, scope: !1045)
!1057 = !DILocation(line: 32, column: 21, scope: !1045)
!1058 = !DILocation(line: 32, column: 28, scope: !1045)
!1059 = !DILocation(line: 32, column: 30, scope: !1045)
!1060 = !DILocation(line: 32, column: 40, scope: !1045)
!1061 = distinct !DISubprogram(name: "setparam", linkageName: "_ZN13SimParameters8setparamEPKcS1_", scope: !650, file: !1, line: 41, type: !949, scopeLine: 41, flags: DIFlagPrototyped, spFlags: DISPFlagDefinition, unit: !0, declaration: !948, retainedNodes: !2)
!1062 = !DILocalVariable(name: "this", arg: 1, scope: !1061, type: !952, flags: DIFlagArtificial | DIFlagObjectPointer)
!1063 = !DILocation(line: 0, scope: !1061)
!1064 = !DILocalVariable(name: "param", arg: 2, scope: !1061, file: !1, line: 41, type: !39)
!1065 = !DILocation(line: 41, column: 41, scope: !1061)
!1066 = !DILocalVariable(name: "value", arg: 3, scope: !1061, file: !1, line: 41, type: !39)
!1067 = !DILocation(line: 41, column: 60, scope: !1061)
!1068 = !DILocation(line: 7, column: 2, scope: !1069)
!1069 = distinct !DILexicalBlock(scope: !1070, file: !654, line: 7, column: 2)
!1070 = !DILexicalBlockFile(scope: !1061, file: !654, discriminator: 0)
!1071 = !DILocation(line: 7, column: 2, scope: !1070)
!1072 = !DILocation(line: 8, column: 2, scope: !1073)
!1073 = distinct !DILexicalBlock(scope: !1070, file: !654, line: 8, column: 2)
!1074 = !DILocation(line: 8, column: 2, scope: !1070)
!1075 = !DILocation(line: 9, column: 2, scope: !1076)
!1076 = distinct !DILexicalBlock(scope: !1070, file: !654, line: 9, column: 2)
!1077 = !DILocation(line: 9, column: 2, scope: !1070)
!1078 = !DILocation(line: 10, column: 2, scope: !1079)
!1079 = distinct !DILexicalBlock(scope: !1070, file: !654, line: 10, column: 2)
!1080 = !DILocation(line: 10, column: 2, scope: !1070)
!1081 = !DILocation(line: 12, column: 2, scope: !1082)
!1082 = distinct !DILexicalBlock(scope: !1070, file: !654, line: 12, column: 2)
!1083 = !DILocation(line: 12, column: 2, scope: !1070)
!1084 = !DILocation(line: 14, column: 2, scope: !1085)
!1085 = distinct !DILexicalBlock(scope: !1070, file: !654, line: 14, column: 2)
!1086 = !DILocation(line: 14, column: 2, scope: !1070)
!1087 = !DILocation(line: 16, column: 2, scope: !1088)
!1088 = distinct !DILexicalBlock(scope: !1070, file: !654, line: 16, column: 2)
!1089 = !DILocation(line: 16, column: 2, scope: !1070)
!1090 = !DILocation(line: 17, column: 2, scope: !1091)
!1091 = distinct !DILexicalBlock(scope: !1070, file: !654, line: 17, column: 2)
!1092 = !DILocation(line: 17, column: 2, scope: !1070)
!1093 = !DILocation(line: 19, column: 2, scope: !1094)
!1094 = distinct !DILexicalBlock(scope: !1070, file: !654, line: 19, column: 2)
!1095 = !DILocation(line: 19, column: 2, scope: !1070)
!1096 = !DILocation(line: 21, column: 2, scope: !1097)
!1097 = distinct !DILexicalBlock(scope: !1070, file: !654, line: 21, column: 2)
!1098 = !DILocation(line: 21, column: 2, scope: !1070)
!1099 = !DILocation(line: 22, column: 2, scope: !1100)
!1100 = distinct !DILexicalBlock(scope: !1070, file: !654, line: 22, column: 2)
!1101 = !DILocation(line: 22, column: 2, scope: !1070)
!1102 = !DILocation(line: 23, column: 2, scope: !1103)
!1103 = distinct !DILexicalBlock(scope: !1070, file: !654, line: 23, column: 2)
!1104 = !DILocation(line: 23, column: 2, scope: !1070)
!1105 = !DILocation(line: 25, column: 2, scope: !1106)
!1106 = distinct !DILexicalBlock(scope: !1070, file: !654, line: 25, column: 2)
!1107 = !DILocation(line: 25, column: 2, scope: !1070)
!1108 = !DILocation(line: 27, column: 2, scope: !1109)
!1109 = distinct !DILexicalBlock(scope: !1070, file: !654, line: 27, column: 2)
!1110 = !DILocation(line: 27, column: 2, scope: !1070)
!1111 = !DILocation(line: 33, column: 2, scope: !1112)
!1112 = distinct !DILexicalBlock(scope: !1070, file: !654, line: 33, column: 2)
!1113 = !DILocation(line: 33, column: 2, scope: !1070)
!1114 = !DILocation(line: 34, column: 2, scope: !1115)
!1115 = distinct !DILexicalBlock(scope: !1070, file: !654, line: 34, column: 2)
!1116 = !DILocation(line: 34, column: 2, scope: !1070)
!1117 = !DILocation(line: 35, column: 2, scope: !1118)
!1118 = distinct !DILexicalBlock(scope: !1070, file: !654, line: 35, column: 2)
!1119 = !DILocation(line: 35, column: 2, scope: !1070)
!1120 = !DILocation(line: 36, column: 2, scope: !1121)
!1121 = distinct !DILexicalBlock(scope: !1070, file: !654, line: 36, column: 2)
!1122 = !DILocation(line: 36, column: 2, scope: !1070)
!1123 = !DILocation(line: 37, column: 2, scope: !1124)
!1124 = distinct !DILexicalBlock(scope: !1070, file: !654, line: 37, column: 2)
!1125 = !DILocation(line: 37, column: 2, scope: !1070)
!1126 = !DILocation(line: 38, column: 2, scope: !1127)
!1127 = distinct !DILexicalBlock(scope: !1070, file: !654, line: 38, column: 2)
!1128 = !DILocation(line: 38, column: 2, scope: !1070)
!1129 = !DILocation(line: 42, column: 9, scope: !1130)
!1130 = distinct !DILexicalBlock(scope: !1070, file: !654, line: 42, column: 9)
!1131 = !DILocation(line: 42, column: 9, scope: !1070)
!1132 = !DILocation(line: 44, column: 9, scope: !1133)
!1133 = distinct !DILexicalBlock(scope: !1070, file: !654, line: 44, column: 9)
!1134 = !DILocation(line: 44, column: 9, scope: !1070)
!1135 = !DILocation(line: 45, column: 9, scope: !1136)
!1136 = distinct !DILexicalBlock(scope: !1070, file: !654, line: 45, column: 9)
!1137 = !DILocation(line: 45, column: 9, scope: !1070)
!1138 = !DILocation(line: 50, column: 2, scope: !1139)
!1139 = distinct !DILexicalBlock(scope: !1070, file: !654, line: 50, column: 2)
!1140 = !DILocation(line: 50, column: 2, scope: !1070)
!1141 = !DILocation(line: 51, column: 2, scope: !1142)
!1142 = distinct !DILexicalBlock(scope: !1070, file: !654, line: 51, column: 2)
!1143 = !DILocation(line: 51, column: 2, scope: !1070)
!1144 = !DILocation(line: 53, column: 2, scope: !1145)
!1145 = distinct !DILexicalBlock(scope: !1070, file: !654, line: 53, column: 2)
!1146 = !DILocation(line: 53, column: 2, scope: !1070)
!1147 = !DILocation(line: 54, column: 2, scope: !1148)
!1148 = distinct !DILexicalBlock(scope: !1070, file: !654, line: 54, column: 2)
!1149 = !DILocation(line: 54, column: 2, scope: !1070)
!1150 = !DILocation(line: 55, column: 2, scope: !1151)
!1151 = distinct !DILexicalBlock(scope: !1070, file: !654, line: 55, column: 2)
!1152 = !DILocation(line: 55, column: 2, scope: !1070)
!1153 = !DILocation(line: 56, column: 9, scope: !1154)
!1154 = distinct !DILexicalBlock(scope: !1070, file: !654, line: 56, column: 9)
!1155 = !DILocation(line: 56, column: 9, scope: !1070)
!1156 = !DILocation(line: 58, column: 2, scope: !1157)
!1157 = distinct !DILexicalBlock(scope: !1070, file: !654, line: 58, column: 2)
!1158 = !DILocation(line: 58, column: 2, scope: !1070)
!1159 = !DILocation(line: 59, column: 2, scope: !1160)
!1160 = distinct !DILexicalBlock(scope: !1070, file: !654, line: 59, column: 2)
!1161 = !DILocation(line: 59, column: 2, scope: !1070)
!1162 = !DILocation(line: 61, column: 2, scope: !1163)
!1163 = distinct !DILexicalBlock(scope: !1070, file: !654, line: 61, column: 2)
!1164 = !DILocation(line: 61, column: 2, scope: !1070)
!1165 = !DILocation(line: 62, column: 2, scope: !1166)
!1166 = distinct !DILexicalBlock(scope: !1070, file: !654, line: 62, column: 2)
!1167 = !DILocation(line: 62, column: 2, scope: !1070)
!1168 = !DILocation(line: 63, column: 2, scope: !1169)
!1169 = distinct !DILexicalBlock(scope: !1070, file: !654, line: 63, column: 2)
!1170 = !DILocation(line: 63, column: 2, scope: !1070)
!1171 = !DILocation(line: 64, column: 2, scope: !1172)
!1172 = distinct !DILexicalBlock(scope: !1070, file: !654, line: 64, column: 2)
!1173 = !DILocation(line: 64, column: 2, scope: !1070)
!1174 = !DILocation(line: 65, column: 9, scope: !1175)
!1175 = distinct !DILexicalBlock(scope: !1070, file: !654, line: 65, column: 9)
!1176 = !DILocation(line: 65, column: 9, scope: !1070)
!1177 = !DILocation(line: 67, column: 2, scope: !1178)
!1178 = distinct !DILexicalBlock(scope: !1070, file: !654, line: 67, column: 2)
!1179 = !DILocation(line: 67, column: 2, scope: !1070)
!1180 = !DILocation(line: 70, column: 2, scope: !1181)
!1181 = distinct !DILexicalBlock(scope: !1070, file: !654, line: 70, column: 2)
!1182 = !DILocation(line: 70, column: 2, scope: !1070)
!1183 = !DILocation(line: 72, column: 2, scope: !1184)
!1184 = distinct !DILexicalBlock(scope: !1070, file: !654, line: 72, column: 2)
!1185 = !DILocation(line: 72, column: 2, scope: !1070)
!1186 = !DILocation(line: 74, column: 2, scope: !1187)
!1187 = distinct !DILexicalBlock(scope: !1070, file: !654, line: 74, column: 2)
!1188 = !DILocation(line: 74, column: 2, scope: !1070)
!1189 = !DILocation(line: 49, column: 3, scope: !1190)
!1190 = !DILexicalBlockFile(scope: !1061, file: !1, discriminator: 0)
!1191 = !DILocation(line: 50, column: 1, scope: !1190)
!1192 = distinct !DISubprogram(name: "parse_param", linkageName: "_Z11parse_paramPKcS0_S0_R6Vector", scope: !1, file: !1, line: 34, type: !1193, scopeLine: 35, flags: DIFlagPrototyped, spFlags: DISPFlagDefinition, unit: !0, retainedNodes: !2)
!1193 = !DISubroutineType(types: !1194)
!1194 = !{!10, !39, !39, !39, !699}
!1195 = !DILocalVariable(name: "param", arg: 1, scope: !1192, file: !1, line: 34, type: !39)
!1196 = !DILocation(line: 34, column: 36, scope: !1192)
!1197 = !DILocalVariable(name: "name", arg: 2, scope: !1192, file: !1, line: 34, type: !39)
!1198 = !DILocation(line: 34, column: 55, scope: !1192)
!1199 = !DILocalVariable(name: "value", arg: 3, scope: !1192, file: !1, line: 35, type: !39)
!1200 = !DILocation(line: 35, column: 16, scope: !1192)
!1201 = !DILocalVariable(name: "var", arg: 4, scope: !1192, file: !1, line: 35, type: !699)
!1202 = !DILocation(line: 35, column: 31, scope: !1192)
!1203 = !DILocation(line: 36, column: 17, scope: !1204)
!1204 = distinct !DILexicalBlock(scope: !1192, file: !1, line: 36, column: 8)
!1205 = !DILocation(line: 36, column: 23, scope: !1204)
!1206 = !DILocation(line: 36, column: 10, scope: !1204)
!1207 = !DILocation(line: 36, column: 8, scope: !1192)
!1208 = !DILocation(line: 36, column: 33, scope: !1209)
!1209 = distinct !DILexicalBlock(scope: !1204, file: !1, line: 36, column: 31)
!1210 = !DILocation(line: 36, column: 41, scope: !1209)
!1211 = !DILocation(line: 36, column: 37, scope: !1209)
!1212 = !DILocation(line: 36, column: 49, scope: !1209)
!1213 = !DILocation(line: 37, column: 3, scope: !1192)
!1214 = !DILocation(line: 38, column: 1, scope: !1192)
!1215 = distinct !DISubprogram(name: "parse_param", linkageName: "_Z11parse_paramPKcS0_S0_Ri", scope: !1, file: !1, line: 22, type: !1216, scopeLine: 23, flags: DIFlagPrototyped, spFlags: DISPFlagDefinition, unit: !0, retainedNodes: !2)
!1216 = !DISubroutineType(types: !1217)
!1217 = !{!10, !39, !39, !39, !1218}
!1218 = !DIDerivedType(tag: DW_TAG_reference_type, baseType: !10, size: 64)
!1219 = !DILocalVariable(name: "param", arg: 1, scope: !1215, file: !1, line: 22, type: !39)
!1220 = !DILocation(line: 22, column: 36, scope: !1215)
!1221 = !DILocalVariable(name: "name", arg: 2, scope: !1215, file: !1, line: 22, type: !39)
!1222 = !DILocation(line: 22, column: 55, scope: !1215)
!1223 = !DILocalVariable(name: "value", arg: 3, scope: !1215, file: !1, line: 23, type: !39)
!1224 = !DILocation(line: 23, column: 16, scope: !1215)
!1225 = !DILocalVariable(name: "var", arg: 4, scope: !1215, file: !1, line: 23, type: !1218)
!1226 = !DILocation(line: 23, column: 28, scope: !1215)
!1227 = !DILocation(line: 24, column: 17, scope: !1228)
!1228 = distinct !DILexicalBlock(scope: !1215, file: !1, line: 24, column: 8)
!1229 = !DILocation(line: 24, column: 23, scope: !1228)
!1230 = !DILocation(line: 24, column: 10, scope: !1228)
!1231 = !DILocation(line: 24, column: 8, scope: !1215)
!1232 = !DILocation(line: 24, column: 44, scope: !1233)
!1233 = distinct !DILexicalBlock(scope: !1228, file: !1, line: 24, column: 31)
!1234 = !DILocation(line: 24, column: 39, scope: !1233)
!1235 = !DILocation(line: 24, column: 33, scope: !1233)
!1236 = !DILocation(line: 24, column: 37, scope: !1233)
!1237 = !DILocation(line: 24, column: 52, scope: !1233)
!1238 = !DILocation(line: 25, column: 3, scope: !1215)
!1239 = !DILocation(line: 26, column: 1, scope: !1215)
!1240 = distinct !DISubprogram(name: "parse_param", linkageName: "_Z11parse_paramPKcS0_S0_Rd", scope: !1, file: !1, line: 28, type: !1241, scopeLine: 29, flags: DIFlagPrototyped, spFlags: DISPFlagDefinition, unit: !0, retainedNodes: !2)
!1241 = !DISubroutineType(types: !1242)
!1242 = !{!10, !39, !39, !39, !695}
!1243 = !DILocalVariable(name: "param", arg: 1, scope: !1240, file: !1, line: 28, type: !39)
!1244 = !DILocation(line: 28, column: 36, scope: !1240)
!1245 = !DILocalVariable(name: "name", arg: 2, scope: !1240, file: !1, line: 28, type: !39)
!1246 = !DILocation(line: 28, column: 55, scope: !1240)
!1247 = !DILocalVariable(name: "value", arg: 3, scope: !1240, file: !1, line: 29, type: !39)
!1248 = !DILocation(line: 29, column: 16, scope: !1240)
!1249 = !DILocalVariable(name: "var", arg: 4, scope: !1240, file: !1, line: 29, type: !695)
!1250 = !DILocation(line: 29, column: 32, scope: !1240)
!1251 = !DILocation(line: 30, column: 17, scope: !1252)
!1252 = distinct !DILexicalBlock(scope: !1240, file: !1, line: 30, column: 8)
!1253 = !DILocation(line: 30, column: 23, scope: !1252)
!1254 = !DILocation(line: 30, column: 10, scope: !1252)
!1255 = !DILocation(line: 30, column: 8, scope: !1240)
!1256 = !DILocation(line: 30, column: 44, scope: !1257)
!1257 = distinct !DILexicalBlock(scope: !1252, file: !1, line: 30, column: 31)
!1258 = !DILocation(line: 30, column: 39, scope: !1257)
!1259 = !DILocation(line: 30, column: 33, scope: !1257)
!1260 = !DILocation(line: 30, column: 37, scope: !1257)
!1261 = !DILocation(line: 30, column: 52, scope: !1257)
!1262 = !DILocation(line: 31, column: 3, scope: !1240)
!1263 = !DILocation(line: 32, column: 1, scope: !1240)
!1264 = distinct !DISubprogram(name: "readfile", linkageName: "_ZN13SimParameters8readfileEP8_IO_FILE", scope: !650, file: !1, line: 52, type: !941, scopeLine: 52, flags: DIFlagPrototyped, spFlags: DISPFlagDefinition, unit: !0, declaration: !940, retainedNodes: !2)
!1265 = !DILocalVariable(name: "this", arg: 1, scope: !1264, type: !952, flags: DIFlagArtificial | DIFlagObjectPointer)
!1266 = !DILocation(line: 0, scope: !1264)
!1267 = !DILocalVariable(name: "file", arg: 2, scope: !1264, file: !1, line: 52, type: !943)
!1268 = !DILocation(line: 52, column: 35, scope: !1264)
!1269 = !DILocalVariable(name: "buf", scope: !1264, file: !1, line: 54, type: !1270)
!1270 = !DICompositeType(tag: DW_TAG_array_type, baseType: !41, size: 8192, elements: !1271)
!1271 = !{!1272}
!1272 = !DISubrange(count: 1024)
!1273 = !DILocation(line: 54, column: 8, scope: !1264)
!1274 = !DILocation(line: 56, column: 16, scope: !1275)
!1275 = distinct !DILexicalBlock(scope: !1264, file: !1, line: 56, column: 8)
!1276 = !DILocation(line: 56, column: 25, scope: !1275)
!1277 = !DILocation(line: 56, column: 10, scope: !1275)
!1278 = !DILocation(line: 56, column: 31, scope: !1275)
!1279 = !DILocation(line: 56, column: 41, scope: !1275)
!1280 = !DILocation(line: 56, column: 34, scope: !1275)
!1281 = !DILocation(line: 56, column: 8, scope: !1264)
!1282 = !DILocation(line: 57, column: 5, scope: !1283)
!1283 = distinct !DILexicalBlock(scope: !1275, file: !1, line: 56, column: 72)
!1284 = !DILocation(line: 58, column: 5, scope: !1283)
!1285 = !DILocation(line: 61, column: 3, scope: !1264)
!1286 = !DILocation(line: 62, column: 18, scope: !1287)
!1287 = distinct !DILexicalBlock(scope: !1288, file: !1, line: 62, column: 10)
!1288 = distinct !DILexicalBlock(scope: !1264, file: !1, line: 61, column: 15)
!1289 = !DILocation(line: 62, column: 27, scope: !1287)
!1290 = !DILocation(line: 62, column: 12, scope: !1287)
!1291 = !DILocation(line: 62, column: 10, scope: !1288)
!1292 = !DILocation(line: 63, column: 7, scope: !1293)
!1293 = distinct !DILexicalBlock(scope: !1287, file: !1, line: 62, column: 35)
!1294 = !DILocation(line: 64, column: 7, scope: !1293)
!1295 = !DILocation(line: 66, column: 19, scope: !1296)
!1296 = distinct !DILexicalBlock(scope: !1288, file: !1, line: 66, column: 10)
!1297 = !DILocation(line: 66, column: 12, scope: !1296)
!1298 = !DILocation(line: 66, column: 10, scope: !1288)
!1299 = !DILocation(line: 67, column: 7, scope: !1300)
!1300 = distinct !DILexicalBlock(scope: !1296, file: !1, line: 66, column: 48)
!1301 = !DILocalVariable(name: "param", scope: !1288, file: !1, line: 69, type: !84)
!1302 = !DILocation(line: 69, column: 11, scope: !1288)
!1303 = !DILocation(line: 69, column: 26, scope: !1288)
!1304 = !DILocation(line: 69, column: 19, scope: !1288)
!1305 = !DILocation(line: 70, column: 12, scope: !1306)
!1306 = distinct !DILexicalBlock(scope: !1288, file: !1, line: 70, column: 10)
!1307 = !DILocation(line: 70, column: 10, scope: !1288)
!1308 = !DILocation(line: 70, column: 20, scope: !1306)
!1309 = distinct !{!1309, !1285, !1310}
!1310 = !DILocation(line: 80, column: 3, scope: !1264)
!1311 = !DILocalVariable(name: "value", scope: !1288, file: !1, line: 71, type: !84)
!1312 = !DILocation(line: 71, column: 11, scope: !1288)
!1313 = !DILocation(line: 71, column: 19, scope: !1288)
!1314 = !DILocation(line: 72, column: 12, scope: !1315)
!1315 = distinct !DILexicalBlock(scope: !1288, file: !1, line: 72, column: 10)
!1316 = !DILocation(line: 72, column: 10, scope: !1288)
!1317 = !DILocation(line: 73, column: 39, scope: !1318)
!1318 = distinct !DILexicalBlock(scope: !1315, file: !1, line: 72, column: 20)
!1319 = !DILocation(line: 73, column: 7, scope: !1318)
!1320 = !DILocation(line: 74, column: 7, scope: !1318)
!1321 = !DILocation(line: 76, column: 19, scope: !1322)
!1322 = distinct !DILexicalBlock(scope: !1288, file: !1, line: 76, column: 10)
!1323 = !DILocation(line: 76, column: 25, scope: !1322)
!1324 = !DILocation(line: 76, column: 10, scope: !1322)
!1325 = !DILocation(line: 76, column: 10, scope: !1288)
!1326 = !DILocation(line: 77, column: 38, scope: !1327)
!1327 = distinct !DILexicalBlock(scope: !1322, file: !1, line: 76, column: 34)
!1328 = !DILocation(line: 77, column: 44, scope: !1327)
!1329 = !DILocation(line: 77, column: 7, scope: !1327)
!1330 = !DILocation(line: 78, column: 7, scope: !1327)
!1331 = !DILocation(line: 82, column: 3, scope: !1264)
!1332 = !DILocation(line: 82, column: 15, scope: !1264)
!1333 = !DILocation(line: 82, column: 32, scope: !1264)
!1334 = !DILocation(line: 82, column: 49, scope: !1264)
!1335 = !DILocation(line: 82, column: 66, scope: !1264)
!1336 = !DILocation(line: 82, column: 11, scope: !1264)
!1337 = !DILocation(line: 84, column: 3, scope: !1264)
!1338 = !DILocation(line: 85, column: 1, scope: !1264)
!1339 = distinct !DISubprogram(name: "set", linkageName: "_ZN7Lattice3setE6VectorS0_S0_S0_", scope: !791, file: !792, line: 45, type: !815, scopeLine: 46, flags: DIFlagPrototyped, spFlags: DISPFlagDefinition, unit: !0, declaration: !814, retainedNodes: !2)
!1340 = !DILocalVariable(name: "this", arg: 1, scope: !1339, type: !1032, flags: DIFlagArtificial | DIFlagObjectPointer)
!1341 = !DILocation(line: 0, scope: !1339)
!1342 = !DILocalVariable(name: "A", arg: 2, scope: !1339, file: !792, line: 45, type: !655)
!1343 = !DILocation(line: 45, column: 19, scope: !1339)
!1344 = !DILocalVariable(name: "B", arg: 3, scope: !1339, file: !792, line: 45, type: !655)
!1345 = !DILocation(line: 45, column: 29, scope: !1339)
!1346 = !DILocalVariable(name: "C", arg: 4, scope: !1339, file: !792, line: 45, type: !655)
!1347 = !DILocation(line: 45, column: 39, scope: !1339)
!1348 = !DILocalVariable(name: "Origin", arg: 5, scope: !1339, file: !792, line: 45, type: !817)
!1349 = !DILocation(line: 45, column: 51, scope: !1339)
!1350 = !DILocation(line: 47, column: 5, scope: !1339)
!1351 = !DILocation(line: 47, column: 8, scope: !1339)
!1352 = !DILocation(line: 47, column: 13, scope: !1339)
!1353 = !DILocation(line: 47, column: 16, scope: !1339)
!1354 = !DILocation(line: 47, column: 21, scope: !1339)
!1355 = !DILocation(line: 47, column: 24, scope: !1339)
!1356 = !DILocation(line: 47, column: 29, scope: !1339)
!1357 = !DILocation(line: 47, column: 31, scope: !1339)
!1358 = !DILocation(line: 48, column: 12, scope: !1339)
!1359 = !DILocation(line: 48, column: 15, scope: !1339)
!1360 = !DILocation(line: 48, column: 5, scope: !1339)
!1361 = !DILocation(line: 48, column: 8, scope: !1339)
!1362 = !DILocation(line: 49, column: 12, scope: !1339)
!1363 = !DILocation(line: 49, column: 15, scope: !1339)
!1364 = !DILocation(line: 49, column: 5, scope: !1339)
!1365 = !DILocation(line: 49, column: 8, scope: !1339)
!1366 = !DILocation(line: 50, column: 12, scope: !1339)
!1367 = !DILocation(line: 50, column: 15, scope: !1339)
!1368 = !DILocation(line: 50, column: 5, scope: !1339)
!1369 = !DILocation(line: 50, column: 8, scope: !1339)
!1370 = !DILocation(line: 51, column: 12, scope: !1371)
!1371 = distinct !DILexicalBlock(scope: !1339, file: !792, line: 51, column: 10)
!1372 = !DILocation(line: 51, column: 10, scope: !1339)
!1373 = !DILocation(line: 51, column: 22, scope: !1371)
!1374 = !DILocation(line: 51, column: 17, scope: !1371)
!1375 = !DILocation(line: 51, column: 20, scope: !1371)
!1376 = !DILocation(line: 52, column: 12, scope: !1377)
!1377 = distinct !DILexicalBlock(scope: !1339, file: !792, line: 52, column: 10)
!1378 = !DILocation(line: 52, column: 10, scope: !1339)
!1379 = !DILocalVariable(name: "u1", scope: !1380, file: !792, line: 53, type: !655)
!1380 = distinct !DILexicalBlock(scope: !1377, file: !792, line: 52, column: 17)
!1381 = !DILocation(line: 53, column: 14, scope: !1380)
!1382 = !DILocation(line: 53, column: 19, scope: !1380)
!1383 = !DILocation(line: 53, column: 24, scope: !1380)
!1384 = !DILocation(line: 53, column: 27, scope: !1380)
!1385 = !DILocation(line: 53, column: 22, scope: !1380)
!1386 = !DILocalVariable(name: "e_z", scope: !1380, file: !792, line: 54, type: !655)
!1387 = !DILocation(line: 54, column: 14, scope: !1380)
!1388 = !DILocation(line: 55, column: 21, scope: !1389)
!1389 = distinct !DILexicalBlock(scope: !1380, file: !792, line: 55, column: 12)
!1390 = !DILocation(line: 55, column: 12, scope: !1389)
!1391 = !DILocation(line: 55, column: 27, scope: !1389)
!1392 = !DILocation(line: 55, column: 12, scope: !1380)
!1393 = !DILocation(line: 55, column: 52, scope: !1394)
!1394 = distinct !DILexicalBlock(scope: !1389, file: !792, line: 55, column: 35)
!1395 = !DILocation(line: 55, column: 42, scope: !1394)
!1396 = !DILocation(line: 55, column: 37, scope: !1394)
!1397 = !DILocation(line: 55, column: 40, scope: !1394)
!1398 = !DILocation(line: 55, column: 57, scope: !1394)
!1399 = !DILocation(line: 56, column: 25, scope: !1400)
!1400 = distinct !DILexicalBlock(scope: !1389, file: !792, line: 56, column: 12)
!1401 = !DILocation(line: 56, column: 45, scope: !1400)
!1402 = !DILocation(line: 56, column: 19, scope: !1400)
!1403 = !DILocation(line: 56, column: 14, scope: !1400)
!1404 = !DILocation(line: 56, column: 17, scope: !1400)
!1405 = !DILocation(line: 57, column: 13, scope: !1380)
!1406 = !DILocation(line: 57, column: 16, scope: !1380)
!1407 = !DILocation(line: 57, column: 7, scope: !1380)
!1408 = !DILocation(line: 57, column: 10, scope: !1380)
!1409 = !DILocation(line: 58, column: 5, scope: !1380)
!1410 = !DILocation(line: 59, column: 12, scope: !1411)
!1411 = distinct !DILexicalBlock(scope: !1339, file: !792, line: 59, column: 10)
!1412 = !DILocation(line: 59, column: 10, scope: !1339)
!1413 = !DILocation(line: 60, column: 18, scope: !1414)
!1414 = distinct !DILexicalBlock(scope: !1411, file: !792, line: 59, column: 17)
!1415 = !DILocation(line: 60, column: 21, scope: !1414)
!1416 = !DILocation(line: 60, column: 12, scope: !1414)
!1417 = !DILocation(line: 60, column: 7, scope: !1414)
!1418 = !DILocation(line: 60, column: 10, scope: !1414)
!1419 = !DILocation(line: 61, column: 13, scope: !1414)
!1420 = !DILocation(line: 61, column: 16, scope: !1414)
!1421 = !DILocation(line: 61, column: 7, scope: !1414)
!1422 = !DILocation(line: 61, column: 10, scope: !1414)
!1423 = !DILocation(line: 62, column: 5, scope: !1414)
!1424 = !DILocation(line: 63, column: 10, scope: !1425)
!1425 = distinct !DILexicalBlock(scope: !1339, file: !792, line: 63, column: 10)
!1426 = !DILocation(line: 63, column: 19, scope: !1425)
!1427 = !DILocation(line: 63, column: 10, scope: !1339)
!1428 = !DILocation(line: 63, column: 33, scope: !1425)
!1429 = !DILocation(line: 63, column: 27, scope: !1425)
!1430 = !DILocation(line: 63, column: 30, scope: !1425)
!1431 = !DILocation(line: 64, column: 5, scope: !1339)
!1432 = !DILocation(line: 65, column: 3, scope: !1339)
!1433 = distinct !DISubprogram(name: "set", linkageName: "_ZN6Vector3setEPKc", scope: !655, file: !656, line: 180, type: !723, scopeLine: 180, flags: DIFlagPrototyped, spFlags: DISPFlagDefinition, unit: !0, declaration: !722, retainedNodes: !2)
!1434 = !DILocalVariable(name: "this", arg: 1, scope: !1433, type: !1024, flags: DIFlagArtificial | DIFlagObjectPointer)
!1435 = !DILocation(line: 0, scope: !1433)
!1436 = !DILocalVariable(name: "s", arg: 2, scope: !1433, file: !656, line: 180, type: !39)
!1437 = !DILocation(line: 180, column: 27, scope: !1433)
!1438 = !DILocalVariable(name: "a", scope: !1433, file: !656, line: 181, type: !1439)
!1439 = !DICompositeType(tag: DW_TAG_array_type, baseType: !38, size: 192, elements: !1440)
!1440 = !{!1441}
!1441 = !DISubrange(count: 3)
!1442 = !DILocation(line: 181, column: 9, scope: !1433)
!1443 = !DILocalVariable(name: "tmp", scope: !1433, file: !656, line: 182, type: !1444)
!1444 = !DICompositeType(tag: DW_TAG_array_type, baseType: !41, size: 800, elements: !1445)
!1445 = !{!1446}
!1446 = !DISubrange(count: 100)
!1447 = !DILocation(line: 182, column: 7, scope: !1433)
!1448 = !DILocalVariable(name: "i", scope: !1433, file: !656, line: 184, type: !10)
!1449 = !DILocation(line: 184, column: 12, scope: !1433)
!1450 = !DILocation(line: 184, column: 21, scope: !1433)
!1451 = !DILocation(line: 185, column: 21, scope: !1433)
!1452 = !DILocation(line: 185, column: 24, scope: !1433)
!1453 = !DILocation(line: 185, column: 29, scope: !1433)
!1454 = !DILocation(line: 185, column: 30, scope: !1433)
!1455 = !DILocation(line: 185, column: 34, scope: !1433)
!1456 = !DILocation(line: 185, column: 39, scope: !1433)
!1457 = !DILocation(line: 185, column: 40, scope: !1433)
!1458 = !DILocation(line: 185, column: 44, scope: !1433)
!1459 = !DILocation(line: 184, column: 14, scope: !1433)
!1460 = !DILocation(line: 186, column: 12, scope: !1461)
!1461 = distinct !DILexicalBlock(scope: !1433, file: !656, line: 186, column: 12)
!1462 = !DILocation(line: 186, column: 14, scope: !1461)
!1463 = !DILocation(line: 186, column: 12, scope: !1433)
!1464 = !DILocation(line: 186, column: 20, scope: !1461)
!1465 = !DILocalVariable(name: "t", scope: !1433, file: !656, line: 187, type: !39)
!1466 = !DILocation(line: 187, column: 20, scope: !1433)
!1467 = !DILocation(line: 187, column: 24, scope: !1433)
!1468 = !DILocalVariable(name: "flg", scope: !1433, file: !656, line: 188, type: !10)
!1469 = !DILocation(line: 188, column: 12, scope: !1433)
!1470 = !DILocation(line: 189, column: 10, scope: !1433)
!1471 = !DILocation(line: 190, column: 8, scope: !1433)
!1472 = !DILocation(line: 190, column: 15, scope: !1473)
!1473 = distinct !DILexicalBlock(scope: !1474, file: !656, line: 190, column: 8)
!1474 = distinct !DILexicalBlock(scope: !1433, file: !656, line: 190, column: 8)
!1475 = !DILocation(line: 190, column: 14, scope: !1473)
!1476 = !DILocation(line: 190, column: 8, scope: !1474)
!1477 = !DILocation(line: 191, column: 16, scope: !1478)
!1478 = distinct !DILexicalBlock(scope: !1479, file: !656, line: 191, column: 15)
!1479 = distinct !DILexicalBlock(scope: !1473, file: !656, line: 190, column: 22)
!1480 = !DILocation(line: 191, column: 15, scope: !1478)
!1481 = !DILocation(line: 191, column: 18, scope: !1478)
!1482 = !DILocation(line: 191, column: 15, scope: !1479)
!1483 = !DILocation(line: 192, column: 18, scope: !1484)
!1484 = distinct !DILexicalBlock(scope: !1485, file: !656, line: 192, column: 18)
!1485 = distinct !DILexicalBlock(scope: !1478, file: !656, line: 191, column: 26)
!1486 = !DILocation(line: 192, column: 22, scope: !1484)
!1487 = !DILocation(line: 192, column: 18, scope: !1485)
!1488 = !DILocation(line: 193, column: 17, scope: !1489)
!1489 = distinct !DILexicalBlock(scope: !1484, file: !656, line: 192, column: 28)
!1490 = !DILocation(line: 195, column: 18, scope: !1485)
!1491 = !DILocation(line: 196, column: 15, scope: !1485)
!1492 = !DILocation(line: 197, column: 11, scope: !1485)
!1493 = !DILocation(line: 198, column: 21, scope: !1494)
!1494 = distinct !DILexicalBlock(scope: !1478, file: !656, line: 198, column: 20)
!1495 = !DILocation(line: 198, column: 20, scope: !1494)
!1496 = !DILocation(line: 198, column: 23, scope: !1494)
!1497 = !DILocation(line: 198, column: 30, scope: !1494)
!1498 = !DILocation(line: 198, column: 34, scope: !1494)
!1499 = !DILocation(line: 198, column: 33, scope: !1494)
!1500 = !DILocation(line: 198, column: 36, scope: !1494)
!1501 = !DILocation(line: 198, column: 20, scope: !1478)
!1502 = !DILocation(line: 199, column: 18, scope: !1503)
!1503 = distinct !DILexicalBlock(scope: !1494, file: !656, line: 198, column: 45)
!1504 = !DILocation(line: 200, column: 11, scope: !1503)
!1505 = !DILocation(line: 201, column: 8, scope: !1479)
!1506 = !DILocation(line: 190, column: 18, scope: !1473)
!1507 = !DILocation(line: 190, column: 8, scope: !1473)
!1508 = distinct !{!1508, !1476, !1509}
!1509 = !DILocation(line: 201, column: 8, scope: !1474)
!1510 = !DILocation(line: 202, column: 12, scope: !1511)
!1511 = distinct !DILexicalBlock(scope: !1433, file: !656, line: 202, column: 12)
!1512 = !DILocation(line: 202, column: 14, scope: !1511)
!1513 = !DILocation(line: 202, column: 19, scope: !1511)
!1514 = !DILocation(line: 202, column: 22, scope: !1511)
!1515 = !DILocation(line: 202, column: 24, scope: !1511)
!1516 = !DILocation(line: 202, column: 12, scope: !1433)
!1517 = !DILocation(line: 203, column: 15, scope: !1518)
!1518 = distinct !DILexicalBlock(scope: !1511, file: !656, line: 202, column: 30)
!1519 = !DILocation(line: 203, column: 11, scope: !1518)
!1520 = !DILocation(line: 203, column: 13, scope: !1518)
!1521 = !DILocation(line: 203, column: 25, scope: !1518)
!1522 = !DILocation(line: 203, column: 21, scope: !1518)
!1523 = !DILocation(line: 203, column: 23, scope: !1518)
!1524 = !DILocation(line: 203, column: 35, scope: !1518)
!1525 = !DILocation(line: 203, column: 31, scope: !1518)
!1526 = !DILocation(line: 203, column: 33, scope: !1518)
!1527 = !DILocation(line: 204, column: 11, scope: !1518)
!1528 = !DILocation(line: 206, column: 8, scope: !1433)
!1529 = !DILocation(line: 207, column: 6, scope: !1433)
