; ModuleID = 'ComputeList.C'
source_filename = "ComputeList.C"
target datalayout = "e-m:e-p270:32:32-p271:32:32-p272:64:64-i64:64-f80:128-n8:16:32:64-S128"
target triple = "x86_64-unknown-linux-gnu"

%class.ComputeList = type { i32, i32, %class.SelfCompute*, %class.PairCompute* }
%class.SelfCompute = type { i32, %class.Pairlists, i32, double }
%class.Pairlists = type { i16*, i32, i32 }
%class.PairCompute = type { i32, i32, i32, i32, %class.Pairlists, i32, double }
%class.ComputeNonbondedUtil = type { i8 }
%struct._IO_FILE = type { i32, i8*, i8*, i8*, i8*, i8*, i8*, i8*, i8*, i8*, i8*, i8*, %struct._IO_marker*, %struct._IO_FILE*, i32, i32, i64, i16, i8, [1 x i8], i8*, i64, %struct._IO_codecvt*, %struct._IO_wide_data*, %struct._IO_FILE*, i8*, i64, i32, [20 x i8] }
%struct._IO_marker = type opaque
%struct._IO_codecvt = type opaque
%struct._IO_wide_data = type opaque
%class.PatchList = type { i32, i32, i32, i32, i32, %class.Patch*, %class.Lattice*, double* }
%class.Patch = type <{ i32, [4 x i8], %struct.CompAtom*, %struct.CompAtomExt*, %class.Vector*, %class.Vector*, %class.Vector*, i32, [4 x i8] }>
%struct.CompAtom = type { %class.Vector, float, i16, i8, i8 }
%class.Vector = type { double, double, double }
%struct.CompAtomExt = type { i32 }
%class.Lattice = type opaque

$_ZN11SelfComputeD2Ev = comdat any

$_ZN11PairComputeD2Ev = comdat any

$_ZN11PairComputeC2Ev = comdat any

$_ZN11SelfComputeC2Ev = comdat any

$_ZN9PairlistsD2Ev = comdat any

$_ZN20ComputeNonbondedUtilD2Ev = comdat any

$_ZN20ComputeNonbondedUtilC2Ev = comdat any

$_ZN9PairlistsC2Ev = comdat any

@.str = private unnamed_addr constant [19 x i8] c"COMPUTEPAIR_BEGIN\0A\00", align 1
@.str.1 = private unnamed_addr constant [27 x i8] c"Missing COMPUTEPAIR_BEGIN\0A\00", align 1
@.str.2 = private unnamed_addr constant [4 x i8] c"%d\0A\00", align 1
@.str.3 = private unnamed_addr constant [28 x i8] c"numPairComputes read error\0A\00", align 1
@.str.4 = private unnamed_addr constant [13 x i8] c"%d %d %d %d\0A\00", align 1
@.str.5 = private unnamed_addr constant [24 x i8] c"paircompute read error\0A\00", align 1
@.str.6 = private unnamed_addr constant [17 x i8] c"COMPUTEPAIR_END\0A\00", align 1
@.str.7 = private unnamed_addr constant [25 x i8] c"Missing COMPUTEPAIR_END\0A\00", align 1

@_ZN11ComputeListC1Ev = dso_local unnamed_addr alias void (%class.ComputeList*), void (%class.ComputeList*)* @_ZN11ComputeListC2Ev
@_ZN11ComputeListD1Ev = dso_local unnamed_addr alias void (%class.ComputeList*), void (%class.ComputeList*)* @_ZN11ComputeListD2Ev

; Function Attrs: noinline nounwind uwtable
define dso_local void @_ZN11ComputeListC2Ev(%class.ComputeList* %this) unnamed_addr #0 align 2 !dbg !478 {
entry:
  %this.addr = alloca %class.ComputeList*, align 8
  store %class.ComputeList* %this, %class.ComputeList** %this.addr, align 8
  call void @llvm.dbg.declare(metadata %class.ComputeList** %this.addr, metadata !795, metadata !DIExpression()), !dbg !797
  %this1 = load %class.ComputeList*, %class.ComputeList** %this.addr, align 8
  %numSelfComputes = getelementptr inbounds %class.ComputeList, %class.ComputeList* %this1, i32 0, i32 0, !dbg !798
  store i32 0, i32* %numSelfComputes, align 8, !dbg !800
  %selfComputes = getelementptr inbounds %class.ComputeList, %class.ComputeList* %this1, i32 0, i32 2, !dbg !801
  store %class.SelfCompute* null, %class.SelfCompute** %selfComputes, align 8, !dbg !802
  %numPairComputes = getelementptr inbounds %class.ComputeList, %class.ComputeList* %this1, i32 0, i32 1, !dbg !803
  store i32 0, i32* %numPairComputes, align 4, !dbg !804
  %pairComputes = getelementptr inbounds %class.ComputeList, %class.ComputeList* %this1, i32 0, i32 3, !dbg !805
  store %class.PairCompute* null, %class.PairCompute** %pairComputes, align 8, !dbg !806
  ret void, !dbg !807
}

; Function Attrs: nounwind readnone speculatable willreturn
declare void @llvm.dbg.declare(metadata, metadata, metadata) #1

; Function Attrs: noinline nounwind uwtable
define dso_local void @_ZN11ComputeListD2Ev(%class.ComputeList* %this) unnamed_addr #0 align 2 !dbg !808 {
entry:
  %this.addr = alloca %class.ComputeList*, align 8
  store %class.ComputeList* %this, %class.ComputeList** %this.addr, align 8
  call void @llvm.dbg.declare(metadata %class.ComputeList** %this.addr, metadata !809, metadata !DIExpression()), !dbg !810
  %this1 = load %class.ComputeList*, %class.ComputeList** %this.addr, align 8
  %selfComputes = getelementptr inbounds %class.ComputeList, %class.ComputeList* %this1, i32 0, i32 2, !dbg !811
  %0 = load %class.SelfCompute*, %class.SelfCompute** %selfComputes, align 8, !dbg !811
  %isnull = icmp eq %class.SelfCompute* %0, null, !dbg !813
  br i1 %isnull, label %delete.end3, label %delete.notnull, !dbg !813

delete.notnull:                                   ; preds = %entry
  %1 = bitcast %class.SelfCompute* %0 to i8*, !dbg !813
  %2 = getelementptr inbounds i8, i8* %1, i64 -8, !dbg !813
  %3 = bitcast i8* %2 to i64*, !dbg !813
  %4 = load i64, i64* %3, align 8, !dbg !813
  %delete.end = getelementptr inbounds %class.SelfCompute, %class.SelfCompute* %0, i64 %4, !dbg !813
  %arraydestroy.isempty = icmp eq %class.SelfCompute* %0, %delete.end, !dbg !813
  br i1 %arraydestroy.isempty, label %arraydestroy.done2, label %arraydestroy.body, !dbg !813

arraydestroy.body:                                ; preds = %arraydestroy.body, %delete.notnull
  %arraydestroy.elementPast = phi %class.SelfCompute* [ %delete.end, %delete.notnull ], [ %arraydestroy.element, %arraydestroy.body ], !dbg !813
  %arraydestroy.element = getelementptr inbounds %class.SelfCompute, %class.SelfCompute* %arraydestroy.elementPast, i64 -1, !dbg !813
  call void @_ZN11SelfComputeD2Ev(%class.SelfCompute* %arraydestroy.element) #7, !dbg !813
  %arraydestroy.done = icmp eq %class.SelfCompute* %arraydestroy.element, %0, !dbg !813
  br i1 %arraydestroy.done, label %arraydestroy.done2, label %arraydestroy.body, !dbg !813

arraydestroy.done2:                               ; preds = %arraydestroy.body, %delete.notnull
  call void @_ZdaPv(i8* %2) #8, !dbg !813
  br label %delete.end3, !dbg !813

delete.end3:                                      ; preds = %arraydestroy.done2, %entry
  %pairComputes = getelementptr inbounds %class.ComputeList, %class.ComputeList* %this1, i32 0, i32 3, !dbg !814
  %5 = load %class.PairCompute*, %class.PairCompute** %pairComputes, align 8, !dbg !814
  %isnull4 = icmp eq %class.PairCompute* %5, null, !dbg !815
  br i1 %isnull4, label %delete.end13, label %delete.notnull5, !dbg !815

delete.notnull5:                                  ; preds = %delete.end3
  %6 = bitcast %class.PairCompute* %5 to i8*, !dbg !815
  %7 = getelementptr inbounds i8, i8* %6, i64 -8, !dbg !815
  %8 = bitcast i8* %7 to i64*, !dbg !815
  %9 = load i64, i64* %8, align 8, !dbg !815
  %delete.end6 = getelementptr inbounds %class.PairCompute, %class.PairCompute* %5, i64 %9, !dbg !815
  %arraydestroy.isempty7 = icmp eq %class.PairCompute* %5, %delete.end6, !dbg !815
  br i1 %arraydestroy.isempty7, label %arraydestroy.done12, label %arraydestroy.body8, !dbg !815

arraydestroy.body8:                               ; preds = %arraydestroy.body8, %delete.notnull5
  %arraydestroy.elementPast9 = phi %class.PairCompute* [ %delete.end6, %delete.notnull5 ], [ %arraydestroy.element10, %arraydestroy.body8 ], !dbg !815
  %arraydestroy.element10 = getelementptr inbounds %class.PairCompute, %class.PairCompute* %arraydestroy.elementPast9, i64 -1, !dbg !815
  call void @_ZN11PairComputeD2Ev(%class.PairCompute* %arraydestroy.element10) #7, !dbg !815
  %arraydestroy.done11 = icmp eq %class.PairCompute* %arraydestroy.element10, %5, !dbg !815
  br i1 %arraydestroy.done11, label %arraydestroy.done12, label %arraydestroy.body8, !dbg !815

arraydestroy.done12:                              ; preds = %arraydestroy.body8, %delete.notnull5
  call void @_ZdaPv(i8* %7) #8, !dbg !815
  br label %delete.end13, !dbg !815

delete.end13:                                     ; preds = %arraydestroy.done12, %delete.end3
  ret void, !dbg !816
}

; Function Attrs: noinline nounwind uwtable
define linkonce_odr dso_local void @_ZN11SelfComputeD2Ev(%class.SelfCompute* %this) unnamed_addr #0 comdat align 2 !dbg !817 {
entry:
  %this.addr = alloca %class.SelfCompute*, align 8
  store %class.SelfCompute* %this, %class.SelfCompute** %this.addr, align 8
  call void @llvm.dbg.declare(metadata %class.SelfCompute** %this.addr, metadata !818, metadata !DIExpression()), !dbg !819
  %this1 = load %class.SelfCompute*, %class.SelfCompute** %this.addr, align 8
  %pairlists = getelementptr inbounds %class.SelfCompute, %class.SelfCompute* %this1, i32 0, i32 1, !dbg !820
  call void @_ZN9PairlistsD2Ev(%class.Pairlists* %pairlists) #7, !dbg !820
  %0 = bitcast %class.SelfCompute* %this1 to %class.ComputeNonbondedUtil*, !dbg !820
  call void @_ZN20ComputeNonbondedUtilD2Ev(%class.ComputeNonbondedUtil* %0) #7, !dbg !820
  ret void, !dbg !822
}

; Function Attrs: nobuiltin nounwind
declare dso_local void @_ZdaPv(i8*) #2

; Function Attrs: noinline nounwind uwtable
define linkonce_odr dso_local void @_ZN11PairComputeD2Ev(%class.PairCompute* %this) unnamed_addr #0 comdat align 2 !dbg !823 {
entry:
  %this.addr = alloca %class.PairCompute*, align 8
  store %class.PairCompute* %this, %class.PairCompute** %this.addr, align 8
  call void @llvm.dbg.declare(metadata %class.PairCompute** %this.addr, metadata !824, metadata !DIExpression()), !dbg !825
  %this1 = load %class.PairCompute*, %class.PairCompute** %this.addr, align 8
  %pairlists = getelementptr inbounds %class.PairCompute, %class.PairCompute* %this1, i32 0, i32 4, !dbg !826
  call void @_ZN9PairlistsD2Ev(%class.Pairlists* %pairlists) #7, !dbg !826
  %0 = bitcast %class.PairCompute* %this1 to %class.ComputeNonbondedUtil*, !dbg !826
  call void @_ZN20ComputeNonbondedUtilD2Ev(%class.ComputeNonbondedUtil* %0) #7, !dbg !826
  ret void, !dbg !828
}

; Function Attrs: noinline uwtable
define dso_local i32 @_ZN11ComputeList8readfileEP8_IO_FILEP9PatchList(%class.ComputeList* %this, %struct._IO_FILE* %file, %class.PatchList* %patchList) #3 align 2 personality i8* bitcast (i32 (...)* @__gxx_personality_v0 to i8*) !dbg !829 {
entry:
  %retval = alloca i32, align 4
  %this.addr = alloca %class.ComputeList*, align 8
  %file.addr = alloca %struct._IO_FILE*, align 8
  %patchList.addr = alloca %class.PatchList*, align 8
  %buf = alloca [1024 x i8], align 16
  %exn.slot = alloca i8*
  %ehselector.slot = alloca i32
  %i = alloca i32, align 4
  %p1 = alloca i32, align 4
  %i1 = alloca i32, align 4
  %p2 = alloca i32, align 4
  %i2 = alloca i32, align 4
  store %class.ComputeList* %this, %class.ComputeList** %this.addr, align 8
  call void @llvm.dbg.declare(metadata %class.ComputeList** %this.addr, metadata !830, metadata !DIExpression()), !dbg !831
  store %struct._IO_FILE* %file, %struct._IO_FILE** %file.addr, align 8
  call void @llvm.dbg.declare(metadata %struct._IO_FILE** %file.addr, metadata !832, metadata !DIExpression()), !dbg !833
  store %class.PatchList* %patchList, %class.PatchList** %patchList.addr, align 8
  call void @llvm.dbg.declare(metadata %class.PatchList** %patchList.addr, metadata !834, metadata !DIExpression()), !dbg !835
  %this1 = load %class.ComputeList*, %class.ComputeList** %this.addr, align 8
  call void @llvm.dbg.declare(metadata [1024 x i8]* %buf, metadata !836, metadata !DIExpression()), !dbg !840
  %arraydecay = getelementptr inbounds [1024 x i8], [1024 x i8]* %buf, i64 0, i64 0, !dbg !841
  %0 = load %struct._IO_FILE*, %struct._IO_FILE** %file.addr, align 8, !dbg !843
  %call = call i8* @fgets(i8* %arraydecay, i32 1024, %struct._IO_FILE* %0), !dbg !844
  %tobool = icmp ne i8* %call, null, !dbg !844
  br i1 %tobool, label %lor.lhs.false, label %if.then, !dbg !845

lor.lhs.false:                                    ; preds = %entry
  %arraydecay2 = getelementptr inbounds [1024 x i8], [1024 x i8]* %buf, i64 0, i64 0, !dbg !846
  %call3 = call i32 @strcmp(i8* %arraydecay2, i8* getelementptr inbounds ([19 x i8], [19 x i8]* @.str, i64 0, i64 0)) #9, !dbg !847
  %tobool4 = icmp ne i32 %call3, 0, !dbg !847
  br i1 %tobool4, label %if.then, label %if.end, !dbg !848

if.then:                                          ; preds = %lor.lhs.false, %entry
  %call5 = call i32 (i8*, ...) @printf(i8* getelementptr inbounds ([27 x i8], [27 x i8]* @.str.1, i64 0, i64 0)), !dbg !849
  store i32 -1, i32* %retval, align 4, !dbg !851
  br label %return, !dbg !851

if.end:                                           ; preds = %lor.lhs.false
  %1 = load %struct._IO_FILE*, %struct._IO_FILE** %file.addr, align 8, !dbg !852
  %numPairComputes = getelementptr inbounds %class.ComputeList, %class.ComputeList* %this1, i32 0, i32 1, !dbg !854
  %call6 = call i32 (%struct._IO_FILE*, i8*, ...) @__isoc99_fscanf(%struct._IO_FILE* %1, i8* getelementptr inbounds ([4 x i8], [4 x i8]* @.str.2, i64 0, i64 0), i32* %numPairComputes), !dbg !855
  %cmp = icmp ne i32 %call6, 1, !dbg !856
  br i1 %cmp, label %if.then7, label %if.end9, !dbg !857

if.then7:                                         ; preds = %if.end
  %call8 = call i32 (i8*, ...) @printf(i8* getelementptr inbounds ([28 x i8], [28 x i8]* @.str.3, i64 0, i64 0)), !dbg !858
  store i32 -2, i32* %retval, align 4, !dbg !860
  br label %return, !dbg !860

if.end9:                                          ; preds = %if.end
  %numPairComputes10 = getelementptr inbounds %class.ComputeList, %class.ComputeList* %this1, i32 0, i32 1, !dbg !861
  %2 = load i32, i32* %numPairComputes10, align 4, !dbg !861
  %conv = sext i32 %2 to i64, !dbg !861
  %3 = call { i64, i1 } @llvm.umul.with.overflow.i64(i64 %conv, i64 48), !dbg !862
  %4 = extractvalue { i64, i1 } %3, 1, !dbg !862
  %5 = extractvalue { i64, i1 } %3, 0, !dbg !862
  %6 = call { i64, i1 } @llvm.uadd.with.overflow.i64(i64 %5, i64 8), !dbg !862
  %7 = extractvalue { i64, i1 } %6, 1, !dbg !862
  %8 = or i1 %4, %7, !dbg !862
  %9 = extractvalue { i64, i1 } %6, 0, !dbg !862
  %10 = select i1 %8, i64 -1, i64 %9, !dbg !862
  %call11 = call i8* @_Znam(i64 %10) #10, !dbg !862
  %11 = bitcast i8* %call11 to i64*, !dbg !862
  store i64 %conv, i64* %11, align 16, !dbg !862
  %12 = getelementptr inbounds i8, i8* %call11, i64 8, !dbg !862
  %13 = bitcast i8* %12 to %class.PairCompute*, !dbg !862
  %isempty = icmp eq i64 %conv, 0, !dbg !862
  br i1 %isempty, label %arrayctor.cont, label %new.ctorloop, !dbg !862

new.ctorloop:                                     ; preds = %if.end9
  %arrayctor.end = getelementptr inbounds %class.PairCompute, %class.PairCompute* %13, i64 %conv, !dbg !862
  br label %arrayctor.loop, !dbg !862

arrayctor.loop:                                   ; preds = %invoke.cont, %new.ctorloop
  %arrayctor.cur = phi %class.PairCompute* [ %13, %new.ctorloop ], [ %arrayctor.next, %invoke.cont ], !dbg !862
  invoke void @_ZN11PairComputeC2Ev(%class.PairCompute* %arrayctor.cur)
          to label %invoke.cont unwind label %lpad, !dbg !862

invoke.cont:                                      ; preds = %arrayctor.loop
  %arrayctor.next = getelementptr inbounds %class.PairCompute, %class.PairCompute* %arrayctor.cur, i64 1, !dbg !862
  %arrayctor.done = icmp eq %class.PairCompute* %arrayctor.next, %arrayctor.end, !dbg !862
  br i1 %arrayctor.done, label %arrayctor.cont, label %arrayctor.loop, !dbg !862

arrayctor.cont:                                   ; preds = %if.end9, %invoke.cont
  %pairComputes = getelementptr inbounds %class.ComputeList, %class.ComputeList* %this1, i32 0, i32 3, !dbg !863
  store %class.PairCompute* %13, %class.PairCompute** %pairComputes, align 8, !dbg !864
  call void @llvm.dbg.declare(metadata i32* %i, metadata !865, metadata !DIExpression()), !dbg !866
  store i32 0, i32* %i, align 4, !dbg !867
  br label %for.cond, !dbg !869

for.cond:                                         ; preds = %for.inc, %arrayctor.cont
  %14 = load i32, i32* %i, align 4, !dbg !870
  %numPairComputes13 = getelementptr inbounds %class.ComputeList, %class.ComputeList* %this1, i32 0, i32 1, !dbg !872
  %15 = load i32, i32* %numPairComputes13, align 4, !dbg !872
  %cmp14 = icmp slt i32 %14, %15, !dbg !873
  br i1 %cmp14, label %for.body, label %for.end, !dbg !874

for.body:                                         ; preds = %for.cond
  call void @llvm.dbg.declare(metadata i32* %p1, metadata !875, metadata !DIExpression()), !dbg !877
  call void @llvm.dbg.declare(metadata i32* %i1, metadata !878, metadata !DIExpression()), !dbg !879
  call void @llvm.dbg.declare(metadata i32* %p2, metadata !880, metadata !DIExpression()), !dbg !881
  call void @llvm.dbg.declare(metadata i32* %i2, metadata !882, metadata !DIExpression()), !dbg !883
  store i32 0, i32* %i2, align 4, !dbg !884
  store i32 0, i32* %p2, align 4, !dbg !885
  store i32 0, i32* %i1, align 4, !dbg !886
  store i32 0, i32* %p1, align 4, !dbg !887
  %16 = load %struct._IO_FILE*, %struct._IO_FILE** %file.addr, align 8, !dbg !888
  %call15 = call i32 (%struct._IO_FILE*, i8*, ...) @__isoc99_fscanf(%struct._IO_FILE* %16, i8* getelementptr inbounds ([13 x i8], [13 x i8]* @.str.4, i64 0, i64 0), i32* %p1, i32* %i1, i32* %p2, i32* %i2), !dbg !890
  %cmp16 = icmp ne i32 %call15, 4, !dbg !891
  br i1 %cmp16, label %if.then17, label %if.end19, !dbg !892

if.then17:                                        ; preds = %for.body
  %call18 = call i32 (i8*, ...) @printf(i8* getelementptr inbounds ([24 x i8], [24 x i8]* @.str.5, i64 0, i64 0)), !dbg !893
  store i32 -3, i32* %retval, align 4, !dbg !895
  br label %return, !dbg !895

lpad:                                             ; preds = %arrayctor.loop
  %17 = landingpad { i8*, i32 }
          cleanup, !dbg !896
  %18 = extractvalue { i8*, i32 } %17, 0, !dbg !896
  store i8* %18, i8** %exn.slot, align 8, !dbg !896
  %19 = extractvalue { i8*, i32 } %17, 1, !dbg !896
  store i32 %19, i32* %ehselector.slot, align 4, !dbg !896
  %arraydestroy.isempty = icmp eq %class.PairCompute* %13, %arrayctor.cur, !dbg !862
  br i1 %arraydestroy.isempty, label %arraydestroy.done12, label %arraydestroy.body, !dbg !862

arraydestroy.body:                                ; preds = %arraydestroy.body, %lpad
  %arraydestroy.elementPast = phi %class.PairCompute* [ %arrayctor.cur, %lpad ], [ %arraydestroy.element, %arraydestroy.body ], !dbg !862
  %arraydestroy.element = getelementptr inbounds %class.PairCompute, %class.PairCompute* %arraydestroy.elementPast, i64 -1, !dbg !862
  call void @_ZN11PairComputeD2Ev(%class.PairCompute* %arraydestroy.element) #7, !dbg !862
  %arraydestroy.done = icmp eq %class.PairCompute* %arraydestroy.element, %13, !dbg !862
  br i1 %arraydestroy.done, label %arraydestroy.done12, label %arraydestroy.body, !dbg !862

arraydestroy.done12:                              ; preds = %arraydestroy.body, %lpad
  call void @_ZdaPv(i8* %call11) #8, !dbg !862
  br label %eh.resume, !dbg !862

if.end19:                                         ; preds = %for.body
  %20 = load i32, i32* %p1, align 4, !dbg !897
  %pairComputes20 = getelementptr inbounds %class.ComputeList, %class.ComputeList* %this1, i32 0, i32 3, !dbg !898
  %21 = load %class.PairCompute*, %class.PairCompute** %pairComputes20, align 8, !dbg !898
  %22 = load i32, i32* %i, align 4, !dbg !899
  %idxprom = sext i32 %22 to i64, !dbg !898
  %arrayidx = getelementptr inbounds %class.PairCompute, %class.PairCompute* %21, i64 %idxprom, !dbg !898
  %patchId1 = getelementptr inbounds %class.PairCompute, %class.PairCompute* %arrayidx, i32 0, i32 0, !dbg !900
  store i32 %20, i32* %patchId1, align 8, !dbg !901
  %23 = load i32, i32* %i1, align 4, !dbg !902
  %pairComputes21 = getelementptr inbounds %class.ComputeList, %class.ComputeList* %this1, i32 0, i32 3, !dbg !903
  %24 = load %class.PairCompute*, %class.PairCompute** %pairComputes21, align 8, !dbg !903
  %25 = load i32, i32* %i, align 4, !dbg !904
  %idxprom22 = sext i32 %25 to i64, !dbg !903
  %arrayidx23 = getelementptr inbounds %class.PairCompute, %class.PairCompute* %24, i64 %idxprom22, !dbg !903
  %image1 = getelementptr inbounds %class.PairCompute, %class.PairCompute* %arrayidx23, i32 0, i32 1, !dbg !905
  store i32 %23, i32* %image1, align 4, !dbg !906
  %26 = load i32, i32* %p2, align 4, !dbg !907
  %pairComputes24 = getelementptr inbounds %class.ComputeList, %class.ComputeList* %this1, i32 0, i32 3, !dbg !908
  %27 = load %class.PairCompute*, %class.PairCompute** %pairComputes24, align 8, !dbg !908
  %28 = load i32, i32* %i, align 4, !dbg !909
  %idxprom25 = sext i32 %28 to i64, !dbg !908
  %arrayidx26 = getelementptr inbounds %class.PairCompute, %class.PairCompute* %27, i64 %idxprom25, !dbg !908
  %patchId2 = getelementptr inbounds %class.PairCompute, %class.PairCompute* %arrayidx26, i32 0, i32 2, !dbg !910
  store i32 %26, i32* %patchId2, align 8, !dbg !911
  %29 = load i32, i32* %i2, align 4, !dbg !912
  %pairComputes27 = getelementptr inbounds %class.ComputeList, %class.ComputeList* %this1, i32 0, i32 3, !dbg !913
  %30 = load %class.PairCompute*, %class.PairCompute** %pairComputes27, align 8, !dbg !913
  %31 = load i32, i32* %i, align 4, !dbg !914
  %idxprom28 = sext i32 %31 to i64, !dbg !913
  %arrayidx29 = getelementptr inbounds %class.PairCompute, %class.PairCompute* %30, i64 %idxprom28, !dbg !913
  %image2 = getelementptr inbounds %class.PairCompute, %class.PairCompute* %arrayidx29, i32 0, i32 3, !dbg !915
  store i32 %29, i32* %image2, align 4, !dbg !916
  br label %for.inc, !dbg !917

for.inc:                                          ; preds = %if.end19
  %32 = load i32, i32* %i, align 4, !dbg !918
  %inc = add nsw i32 %32, 1, !dbg !918
  store i32 %inc, i32* %i, align 4, !dbg !918
  br label %for.cond, !dbg !919, !llvm.loop !920

for.end:                                          ; preds = %for.cond
  %arraydecay30 = getelementptr inbounds [1024 x i8], [1024 x i8]* %buf, i64 0, i64 0, !dbg !922
  %33 = load %struct._IO_FILE*, %struct._IO_FILE** %file.addr, align 8, !dbg !924
  %call31 = call i8* @fgets(i8* %arraydecay30, i32 1024, %struct._IO_FILE* %33), !dbg !925
  %tobool32 = icmp ne i8* %call31, null, !dbg !925
  br i1 %tobool32, label %lor.lhs.false33, label %if.then37, !dbg !926

lor.lhs.false33:                                  ; preds = %for.end
  %arraydecay34 = getelementptr inbounds [1024 x i8], [1024 x i8]* %buf, i64 0, i64 0, !dbg !927
  %call35 = call i32 @strcmp(i8* %arraydecay34, i8* getelementptr inbounds ([17 x i8], [17 x i8]* @.str.6, i64 0, i64 0)) #9, !dbg !928
  %tobool36 = icmp ne i32 %call35, 0, !dbg !928
  br i1 %tobool36, label %if.then37, label %if.end39, !dbg !929

if.then37:                                        ; preds = %lor.lhs.false33, %for.end
  %call38 = call i32 (i8*, ...) @printf(i8* getelementptr inbounds ([25 x i8], [25 x i8]* @.str.7, i64 0, i64 0)), !dbg !930
  store i32 -4, i32* %retval, align 4, !dbg !932
  br label %return, !dbg !932

if.end39:                                         ; preds = %lor.lhs.false33
  %34 = load %class.PatchList*, %class.PatchList** %patchList.addr, align 8, !dbg !933
  %numPatches = getelementptr inbounds %class.PatchList, %class.PatchList* %34, i32 0, i32 4, !dbg !934
  %35 = load i32, i32* %numPatches, align 8, !dbg !934
  %numSelfComputes = getelementptr inbounds %class.ComputeList, %class.ComputeList* %this1, i32 0, i32 0, !dbg !935
  store i32 %35, i32* %numSelfComputes, align 8, !dbg !936
  %numSelfComputes40 = getelementptr inbounds %class.ComputeList, %class.ComputeList* %this1, i32 0, i32 0, !dbg !937
  %36 = load i32, i32* %numSelfComputes40, align 8, !dbg !937
  %conv41 = sext i32 %36 to i64, !dbg !937
  %37 = call { i64, i1 } @llvm.umul.with.overflow.i64(i64 %conv41, i64 40), !dbg !938
  %38 = extractvalue { i64, i1 } %37, 1, !dbg !938
  %39 = extractvalue { i64, i1 } %37, 0, !dbg !938
  %40 = call { i64, i1 } @llvm.uadd.with.overflow.i64(i64 %39, i64 8), !dbg !938
  %41 = extractvalue { i64, i1 } %40, 1, !dbg !938
  %42 = or i1 %38, %41, !dbg !938
  %43 = extractvalue { i64, i1 } %40, 0, !dbg !938
  %44 = select i1 %42, i64 -1, i64 %43, !dbg !938
  %call42 = call i8* @_Znam(i64 %44) #10, !dbg !938
  %45 = bitcast i8* %call42 to i64*, !dbg !938
  store i64 %conv41, i64* %45, align 16, !dbg !938
  %46 = getelementptr inbounds i8, i8* %call42, i64 8, !dbg !938
  %47 = bitcast i8* %46 to %class.SelfCompute*, !dbg !938
  %isempty43 = icmp eq i64 %conv41, 0, !dbg !938
  br i1 %isempty43, label %arrayctor.cont58, label %new.ctorloop44, !dbg !938

new.ctorloop44:                                   ; preds = %if.end39
  %arrayctor.end45 = getelementptr inbounds %class.SelfCompute, %class.SelfCompute* %47, i64 %conv41, !dbg !938
  br label %arrayctor.loop46, !dbg !938

arrayctor.loop46:                                 ; preds = %invoke.cont49, %new.ctorloop44
  %arrayctor.cur47 = phi %class.SelfCompute* [ %47, %new.ctorloop44 ], [ %arrayctor.next56, %invoke.cont49 ], !dbg !938
  invoke void @_ZN11SelfComputeC2Ev(%class.SelfCompute* %arrayctor.cur47)
          to label %invoke.cont49 unwind label %lpad48, !dbg !938

invoke.cont49:                                    ; preds = %arrayctor.loop46
  %arrayctor.next56 = getelementptr inbounds %class.SelfCompute, %class.SelfCompute* %arrayctor.cur47, i64 1, !dbg !938
  %arrayctor.done57 = icmp eq %class.SelfCompute* %arrayctor.next56, %arrayctor.end45, !dbg !938
  br i1 %arrayctor.done57, label %arrayctor.cont58, label %arrayctor.loop46, !dbg !938

arrayctor.cont58:                                 ; preds = %if.end39, %invoke.cont49
  %selfComputes = getelementptr inbounds %class.ComputeList, %class.ComputeList* %this1, i32 0, i32 2, !dbg !939
  store %class.SelfCompute* %47, %class.SelfCompute** %selfComputes, align 8, !dbg !940
  store i32 0, i32* %i, align 4, !dbg !941
  br label %for.cond59, !dbg !943

for.cond59:                                       ; preds = %for.inc66, %arrayctor.cont58
  %48 = load i32, i32* %i, align 4, !dbg !944
  %numSelfComputes60 = getelementptr inbounds %class.ComputeList, %class.ComputeList* %this1, i32 0, i32 0, !dbg !946
  %49 = load i32, i32* %numSelfComputes60, align 8, !dbg !946
  %cmp61 = icmp slt i32 %48, %49, !dbg !947
  br i1 %cmp61, label %for.body62, label %for.end68, !dbg !948

for.body62:                                       ; preds = %for.cond59
  %50 = load i32, i32* %i, align 4, !dbg !949
  %selfComputes63 = getelementptr inbounds %class.ComputeList, %class.ComputeList* %this1, i32 0, i32 2, !dbg !951
  %51 = load %class.SelfCompute*, %class.SelfCompute** %selfComputes63, align 8, !dbg !951
  %52 = load i32, i32* %i, align 4, !dbg !952
  %idxprom64 = sext i32 %52 to i64, !dbg !951
  %arrayidx65 = getelementptr inbounds %class.SelfCompute, %class.SelfCompute* %51, i64 %idxprom64, !dbg !951
  %patchId = getelementptr inbounds %class.SelfCompute, %class.SelfCompute* %arrayidx65, i32 0, i32 0, !dbg !953
  store i32 %50, i32* %patchId, align 8, !dbg !954
  br label %for.inc66, !dbg !955

for.inc66:                                        ; preds = %for.body62
  %53 = load i32, i32* %i, align 4, !dbg !956
  %inc67 = add nsw i32 %53, 1, !dbg !956
  store i32 %inc67, i32* %i, align 4, !dbg !956
  br label %for.cond59, !dbg !957, !llvm.loop !958

lpad48:                                           ; preds = %arrayctor.loop46
  %54 = landingpad { i8*, i32 }
          cleanup, !dbg !896
  %55 = extractvalue { i8*, i32 } %54, 0, !dbg !896
  store i8* %55, i8** %exn.slot, align 8, !dbg !896
  %56 = extractvalue { i8*, i32 } %54, 1, !dbg !896
  store i32 %56, i32* %ehselector.slot, align 4, !dbg !896
  %arraydestroy.isempty50 = icmp eq %class.SelfCompute* %47, %arrayctor.cur47, !dbg !938
  br i1 %arraydestroy.isempty50, label %arraydestroy.done55, label %arraydestroy.body51, !dbg !938

arraydestroy.body51:                              ; preds = %arraydestroy.body51, %lpad48
  %arraydestroy.elementPast52 = phi %class.SelfCompute* [ %arrayctor.cur47, %lpad48 ], [ %arraydestroy.element53, %arraydestroy.body51 ], !dbg !938
  %arraydestroy.element53 = getelementptr inbounds %class.SelfCompute, %class.SelfCompute* %arraydestroy.elementPast52, i64 -1, !dbg !938
  call void @_ZN11SelfComputeD2Ev(%class.SelfCompute* %arraydestroy.element53) #7, !dbg !938
  %arraydestroy.done54 = icmp eq %class.SelfCompute* %arraydestroy.element53, %47, !dbg !938
  br i1 %arraydestroy.done54, label %arraydestroy.done55, label %arraydestroy.body51, !dbg !938

arraydestroy.done55:                              ; preds = %arraydestroy.body51, %lpad48
  call void @_ZdaPv(i8* %call42) #8, !dbg !938
  br label %eh.resume, !dbg !938

for.end68:                                        ; preds = %for.cond59
  store i32 0, i32* %retval, align 4, !dbg !960
  br label %return, !dbg !960

return:                                           ; preds = %for.end68, %if.then37, %if.then17, %if.then7, %if.then
  %57 = load i32, i32* %retval, align 4, !dbg !896
  ret i32 %57, !dbg !896

eh.resume:                                        ; preds = %arraydestroy.done55, %arraydestroy.done12
  %exn = load i8*, i8** %exn.slot, align 8, !dbg !862
  %sel = load i32, i32* %ehselector.slot, align 4, !dbg !862
  %lpad.val = insertvalue { i8*, i32 } undef, i8* %exn, 0, !dbg !862
  %lpad.val69 = insertvalue { i8*, i32 } %lpad.val, i32 %sel, 1, !dbg !862
  resume { i8*, i32 } %lpad.val69, !dbg !862
}

declare dso_local i8* @fgets(i8*, i32, %struct._IO_FILE*) #4

; Function Attrs: nounwind readonly
declare dso_local i32 @strcmp(i8*, i8*) #5

declare dso_local i32 @printf(i8*, ...) #4

declare dso_local i32 @__isoc99_fscanf(%struct._IO_FILE*, i8*, ...) #4

; Function Attrs: nounwind readnone speculatable willreturn
declare { i64, i1 } @llvm.umul.with.overflow.i64(i64, i64) #1

; Function Attrs: nounwind readnone speculatable willreturn
declare { i64, i1 } @llvm.uadd.with.overflow.i64(i64, i64) #1

; Function Attrs: nobuiltin
declare dso_local noalias i8* @_Znam(i64) #6

; Function Attrs: noinline uwtable
define linkonce_odr dso_local void @_ZN11PairComputeC2Ev(%class.PairCompute* %this) unnamed_addr #3 comdat align 2 personality i8* bitcast (i32 (...)* @__gxx_personality_v0 to i8*) !dbg !961 {
entry:
  %this.addr = alloca %class.PairCompute*, align 8
  %exn.slot = alloca i8*
  %ehselector.slot = alloca i32
  store %class.PairCompute* %this, %class.PairCompute** %this.addr, align 8
  call void @llvm.dbg.declare(metadata %class.PairCompute** %this.addr, metadata !962, metadata !DIExpression()), !dbg !963
  %this1 = load %class.PairCompute*, %class.PairCompute** %this.addr, align 8
  %0 = bitcast %class.PairCompute* %this1 to %class.ComputeNonbondedUtil*, !dbg !964
  call void @_ZN20ComputeNonbondedUtilC2Ev(%class.ComputeNonbondedUtil* %0), !dbg !965
  %pairlists = getelementptr inbounds %class.PairCompute, %class.PairCompute* %this1, i32 0, i32 4, !dbg !965
  invoke void @_ZN9PairlistsC2Ev(%class.Pairlists* %pairlists)
          to label %invoke.cont unwind label %lpad, !dbg !965

invoke.cont:                                      ; preds = %entry
  %pairlistsValid = getelementptr inbounds %class.PairCompute, %class.PairCompute* %this1, i32 0, i32 5, !dbg !966
  store i32 0, i32* %pairlistsValid, align 8, !dbg !968
  ret void, !dbg !969

lpad:                                             ; preds = %entry
  %1 = landingpad { i8*, i32 }
          cleanup, !dbg !969
  %2 = extractvalue { i8*, i32 } %1, 0, !dbg !969
  store i8* %2, i8** %exn.slot, align 8, !dbg !969
  %3 = extractvalue { i8*, i32 } %1, 1, !dbg !969
  store i32 %3, i32* %ehselector.slot, align 4, !dbg !969
  %4 = bitcast %class.PairCompute* %this1 to %class.ComputeNonbondedUtil*, !dbg !970
  call void @_ZN20ComputeNonbondedUtilD2Ev(%class.ComputeNonbondedUtil* %4) #7, !dbg !970
  br label %eh.resume, !dbg !970

eh.resume:                                        ; preds = %lpad
  %exn = load i8*, i8** %exn.slot, align 8, !dbg !970
  %sel = load i32, i32* %ehselector.slot, align 4, !dbg !970
  %lpad.val = insertvalue { i8*, i32 } undef, i8* %exn, 0, !dbg !970
  %lpad.val2 = insertvalue { i8*, i32 } %lpad.val, i32 %sel, 1, !dbg !970
  resume { i8*, i32 } %lpad.val2, !dbg !970
}

declare dso_local i32 @__gxx_personality_v0(...)

; Function Attrs: noinline uwtable
define linkonce_odr dso_local void @_ZN11SelfComputeC2Ev(%class.SelfCompute* %this) unnamed_addr #3 comdat align 2 personality i8* bitcast (i32 (...)* @__gxx_personality_v0 to i8*) !dbg !971 {
entry:
  %this.addr = alloca %class.SelfCompute*, align 8
  %exn.slot = alloca i8*
  %ehselector.slot = alloca i32
  store %class.SelfCompute* %this, %class.SelfCompute** %this.addr, align 8
  call void @llvm.dbg.declare(metadata %class.SelfCompute** %this.addr, metadata !972, metadata !DIExpression()), !dbg !973
  %this1 = load %class.SelfCompute*, %class.SelfCompute** %this.addr, align 8
  %0 = bitcast %class.SelfCompute* %this1 to %class.ComputeNonbondedUtil*, !dbg !974
  call void @_ZN20ComputeNonbondedUtilC2Ev(%class.ComputeNonbondedUtil* %0), !dbg !975
  %pairlists = getelementptr inbounds %class.SelfCompute, %class.SelfCompute* %this1, i32 0, i32 1, !dbg !975
  invoke void @_ZN9PairlistsC2Ev(%class.Pairlists* %pairlists)
          to label %invoke.cont unwind label %lpad, !dbg !975

invoke.cont:                                      ; preds = %entry
  %pairlistsValid = getelementptr inbounds %class.SelfCompute, %class.SelfCompute* %this1, i32 0, i32 2, !dbg !976
  store i32 0, i32* %pairlistsValid, align 8, !dbg !978
  ret void, !dbg !979

lpad:                                             ; preds = %entry
  %1 = landingpad { i8*, i32 }
          cleanup, !dbg !979
  %2 = extractvalue { i8*, i32 } %1, 0, !dbg !979
  store i8* %2, i8** %exn.slot, align 8, !dbg !979
  %3 = extractvalue { i8*, i32 } %1, 1, !dbg !979
  store i32 %3, i32* %ehselector.slot, align 4, !dbg !979
  %4 = bitcast %class.SelfCompute* %this1 to %class.ComputeNonbondedUtil*, !dbg !980
  call void @_ZN20ComputeNonbondedUtilD2Ev(%class.ComputeNonbondedUtil* %4) #7, !dbg !980
  br label %eh.resume, !dbg !980

eh.resume:                                        ; preds = %lpad
  %exn = load i8*, i8** %exn.slot, align 8, !dbg !980
  %sel = load i32, i32* %ehselector.slot, align 4, !dbg !980
  %lpad.val = insertvalue { i8*, i32 } undef, i8* %exn, 0, !dbg !980
  %lpad.val2 = insertvalue { i8*, i32 } %lpad.val, i32 %sel, 1, !dbg !980
  resume { i8*, i32 } %lpad.val2, !dbg !980
}

; Function Attrs: noinline uwtable
define dso_local void @_ZN11ComputeList11runComputesEP9PatchList(%class.ComputeList* %this, %class.PatchList* %patchList) #3 align 2 !dbg !981 {
entry:
  %this.addr = alloca %class.ComputeList*, align 8
  %patchList.addr = alloca %class.PatchList*, align 8
  %i = alloca i32, align 4
  store %class.ComputeList* %this, %class.ComputeList** %this.addr, align 8
  call void @llvm.dbg.declare(metadata %class.ComputeList** %this.addr, metadata !982, metadata !DIExpression()), !dbg !983
  store %class.PatchList* %patchList, %class.PatchList** %patchList.addr, align 8
  call void @llvm.dbg.declare(metadata %class.PatchList** %patchList.addr, metadata !984, metadata !DIExpression()), !dbg !985
  %this1 = load %class.ComputeList*, %class.ComputeList** %this.addr, align 8
  call void @llvm.dbg.declare(metadata i32* %i, metadata !986, metadata !DIExpression()), !dbg !987
  store i32 0, i32* %i, align 4, !dbg !988
  br label %for.cond, !dbg !990

for.cond:                                         ; preds = %for.inc, %entry
  %0 = load i32, i32* %i, align 4, !dbg !991
  %numSelfComputes = getelementptr inbounds %class.ComputeList, %class.ComputeList* %this1, i32 0, i32 0, !dbg !993
  %1 = load i32, i32* %numSelfComputes, align 8, !dbg !993
  %cmp = icmp slt i32 %0, %1, !dbg !994
  br i1 %cmp, label %for.body, label %for.end, !dbg !995

for.body:                                         ; preds = %for.cond
  %selfComputes = getelementptr inbounds %class.ComputeList, %class.ComputeList* %this1, i32 0, i32 2, !dbg !996
  %2 = load %class.SelfCompute*, %class.SelfCompute** %selfComputes, align 8, !dbg !996
  %3 = load i32, i32* %i, align 4, !dbg !998
  %idxprom = sext i32 %3 to i64, !dbg !996
  %arrayidx = getelementptr inbounds %class.SelfCompute, %class.SelfCompute* %2, i64 %idxprom, !dbg !996
  %4 = load %class.PatchList*, %class.PatchList** %patchList.addr, align 8, !dbg !999
  call void @_ZN11SelfCompute6doWorkEP9PatchList(%class.SelfCompute* %arrayidx, %class.PatchList* %4), !dbg !1000
  br label %for.inc, !dbg !1001

for.inc:                                          ; preds = %for.body
  %5 = load i32, i32* %i, align 4, !dbg !1002
  %inc = add nsw i32 %5, 1, !dbg !1002
  store i32 %inc, i32* %i, align 4, !dbg !1002
  br label %for.cond, !dbg !1003, !llvm.loop !1004

for.end:                                          ; preds = %for.cond
  store i32 0, i32* %i, align 4, !dbg !1006
  br label %for.cond2, !dbg !1008

for.cond2:                                        ; preds = %for.inc7, %for.end
  %6 = load i32, i32* %i, align 4, !dbg !1009
  %numPairComputes = getelementptr inbounds %class.ComputeList, %class.ComputeList* %this1, i32 0, i32 1, !dbg !1011
  %7 = load i32, i32* %numPairComputes, align 4, !dbg !1011
  %cmp3 = icmp slt i32 %6, %7, !dbg !1012
  br i1 %cmp3, label %for.body4, label %for.end9, !dbg !1013

for.body4:                                        ; preds = %for.cond2
  %pairComputes = getelementptr inbounds %class.ComputeList, %class.ComputeList* %this1, i32 0, i32 3, !dbg !1014
  %8 = load %class.PairCompute*, %class.PairCompute** %pairComputes, align 8, !dbg !1014
  %9 = load i32, i32* %i, align 4, !dbg !1016
  %idxprom5 = sext i32 %9 to i64, !dbg !1014
  %arrayidx6 = getelementptr inbounds %class.PairCompute, %class.PairCompute* %8, i64 %idxprom5, !dbg !1014
  %10 = load %class.PatchList*, %class.PatchList** %patchList.addr, align 8, !dbg !1017
  call void @_ZN11PairCompute6doWorkEP9PatchList(%class.PairCompute* %arrayidx6, %class.PatchList* %10), !dbg !1018
  br label %for.inc7, !dbg !1019

for.inc7:                                         ; preds = %for.body4
  %11 = load i32, i32* %i, align 4, !dbg !1020
  %inc8 = add nsw i32 %11, 1, !dbg !1020
  store i32 %inc8, i32* %i, align 4, !dbg !1020
  br label %for.cond2, !dbg !1021, !llvm.loop !1022

for.end9:                                         ; preds = %for.cond2
  ret void, !dbg !1024
}

declare dso_local void @_ZN11SelfCompute6doWorkEP9PatchList(%class.SelfCompute*, %class.PatchList*) #4

declare dso_local void @_ZN11PairCompute6doWorkEP9PatchList(%class.PairCompute*, %class.PatchList*) #4

; Function Attrs: noinline nounwind uwtable
define linkonce_odr dso_local void @_ZN9PairlistsD2Ev(%class.Pairlists* %this) unnamed_addr #0 comdat align 2 !dbg !1025 {
entry:
  %this.addr = alloca %class.Pairlists*, align 8
  store %class.Pairlists* %this, %class.Pairlists** %this.addr, align 8
  call void @llvm.dbg.declare(metadata %class.Pairlists** %this.addr, metadata !1026, metadata !DIExpression()), !dbg !1028
  %this1 = load %class.Pairlists*, %class.Pairlists** %this.addr, align 8
  %data = getelementptr inbounds %class.Pairlists, %class.Pairlists* %this1, i32 0, i32 0, !dbg !1029
  %0 = load i16*, i16** %data, align 8, !dbg !1029
  %isnull = icmp eq i16* %0, null, !dbg !1031
  br i1 %isnull, label %delete.end, label %delete.notnull, !dbg !1031

delete.notnull:                                   ; preds = %entry
  %1 = bitcast i16* %0 to i8*, !dbg !1031
  call void @_ZdaPv(i8* %1) #8, !dbg !1031
  br label %delete.end, !dbg !1031

delete.end:                                       ; preds = %delete.notnull, %entry
  ret void, !dbg !1032
}

; Function Attrs: noinline nounwind uwtable
define linkonce_odr dso_local void @_ZN20ComputeNonbondedUtilD2Ev(%class.ComputeNonbondedUtil* %this) unnamed_addr #0 comdat align 2 !dbg !1033 {
entry:
  %this.addr = alloca %class.ComputeNonbondedUtil*, align 8
  store %class.ComputeNonbondedUtil* %this, %class.ComputeNonbondedUtil** %this.addr, align 8
  call void @llvm.dbg.declare(metadata %class.ComputeNonbondedUtil** %this.addr, metadata !1034, metadata !DIExpression()), !dbg !1036
  %this1 = load %class.ComputeNonbondedUtil*, %class.ComputeNonbondedUtil** %this.addr, align 8
  ret void, !dbg !1037
}

; Function Attrs: noinline nounwind uwtable
define linkonce_odr dso_local void @_ZN20ComputeNonbondedUtilC2Ev(%class.ComputeNonbondedUtil* %this) unnamed_addr #0 comdat align 2 !dbg !1038 {
entry:
  %this.addr = alloca %class.ComputeNonbondedUtil*, align 8
  store %class.ComputeNonbondedUtil* %this, %class.ComputeNonbondedUtil** %this.addr, align 8
  call void @llvm.dbg.declare(metadata %class.ComputeNonbondedUtil** %this.addr, metadata !1039, metadata !DIExpression()), !dbg !1040
  %this1 = load %class.ComputeNonbondedUtil*, %class.ComputeNonbondedUtil** %this.addr, align 8
  ret void, !dbg !1041
}

; Function Attrs: noinline uwtable
define linkonce_odr dso_local void @_ZN9PairlistsC2Ev(%class.Pairlists* %this) unnamed_addr #3 comdat align 2 !dbg !1042 {
entry:
  %this.addr = alloca %class.Pairlists*, align 8
  store %class.Pairlists* %this, %class.Pairlists** %this.addr, align 8
  call void @llvm.dbg.declare(metadata %class.Pairlists** %this.addr, metadata !1043, metadata !DIExpression()), !dbg !1044
  %this1 = load %class.Pairlists*, %class.Pairlists** %this.addr, align 8
  %size = getelementptr inbounds %class.Pairlists, %class.Pairlists* %this1, i32 0, i32 2, !dbg !1045
  store i32 10, i32* %size, align 4, !dbg !1045
  %call = call i8* @_Znam(i64 20) #10, !dbg !1046
  %0 = bitcast i8* %call to i16*, !dbg !1046
  %data = getelementptr inbounds %class.Pairlists, %class.Pairlists* %this1, i32 0, i32 0, !dbg !1048
  store i16* %0, i16** %data, align 8, !dbg !1049
  ret void, !dbg !1050
}

attributes #0 = { noinline nounwind uwtable "correctly-rounded-divide-sqrt-fp-math"="false" "disable-tail-calls"="false" "frame-pointer"="all" "less-precise-fpmad"="false" "min-legal-vector-width"="0" "no-infs-fp-math"="false" "no-jump-tables"="false" "no-nans-fp-math"="false" "no-signed-zeros-fp-math"="false" "no-trapping-math"="false" "stack-protector-buffer-size"="8" "target-cpu"="x86-64" "target-features"="+cx8,+fxsr,+mmx,+sse,+sse2,+x87" "unsafe-fp-math"="false" "use-soft-float"="false" }
attributes #1 = { nounwind readnone speculatable willreturn }
attributes #2 = { nobuiltin nounwind "correctly-rounded-divide-sqrt-fp-math"="false" "disable-tail-calls"="false" "frame-pointer"="all" "less-precise-fpmad"="false" "no-infs-fp-math"="false" "no-nans-fp-math"="false" "no-signed-zeros-fp-math"="false" "no-trapping-math"="false" "stack-protector-buffer-size"="8" "target-cpu"="x86-64" "target-features"="+cx8,+fxsr,+mmx,+sse,+sse2,+x87" "unsafe-fp-math"="false" "use-soft-float"="false" }
attributes #3 = { noinline uwtable "correctly-rounded-divide-sqrt-fp-math"="false" "disable-tail-calls"="false" "frame-pointer"="all" "less-precise-fpmad"="false" "min-legal-vector-width"="0" "no-infs-fp-math"="false" "no-jump-tables"="false" "no-nans-fp-math"="false" "no-signed-zeros-fp-math"="false" "no-trapping-math"="false" "stack-protector-buffer-size"="8" "target-cpu"="x86-64" "target-features"="+cx8,+fxsr,+mmx,+sse,+sse2,+x87" "unsafe-fp-math"="false" "use-soft-float"="false" }
attributes #4 = { "correctly-rounded-divide-sqrt-fp-math"="false" "disable-tail-calls"="false" "frame-pointer"="all" "less-precise-fpmad"="false" "no-infs-fp-math"="false" "no-nans-fp-math"="false" "no-signed-zeros-fp-math"="false" "no-trapping-math"="false" "stack-protector-buffer-size"="8" "target-cpu"="x86-64" "target-features"="+cx8,+fxsr,+mmx,+sse,+sse2,+x87" "unsafe-fp-math"="false" "use-soft-float"="false" }
attributes #5 = { nounwind readonly "correctly-rounded-divide-sqrt-fp-math"="false" "disable-tail-calls"="false" "frame-pointer"="all" "less-precise-fpmad"="false" "no-infs-fp-math"="false" "no-nans-fp-math"="false" "no-signed-zeros-fp-math"="false" "no-trapping-math"="false" "stack-protector-buffer-size"="8" "target-cpu"="x86-64" "target-features"="+cx8,+fxsr,+mmx,+sse,+sse2,+x87" "unsafe-fp-math"="false" "use-soft-float"="false" }
attributes #6 = { nobuiltin "correctly-rounded-divide-sqrt-fp-math"="false" "disable-tail-calls"="false" "frame-pointer"="all" "less-precise-fpmad"="false" "no-infs-fp-math"="false" "no-nans-fp-math"="false" "no-signed-zeros-fp-math"="false" "no-trapping-math"="false" "stack-protector-buffer-size"="8" "target-cpu"="x86-64" "target-features"="+cx8,+fxsr,+mmx,+sse,+sse2,+x87" "unsafe-fp-math"="false" "use-soft-float"="false" }
attributes #7 = { nounwind }
attributes #8 = { builtin nounwind }
attributes #9 = { nounwind readonly }
attributes #10 = { builtin }

!llvm.dbg.cu = !{!0}
!llvm.module.flags = !{!474, !475, !476}
!llvm.ident = !{!477}

!0 = distinct !DICompileUnit(language: DW_LANG_C_plus_plus_14, file: !1, producer: "clang version 10.0.1 (https://github.com/svkeerthy/IR2Vec-LoopOptimizationFramework.git 561ac470e63b728263a0ac06ef987886ac648486)", isOptimized: false, runtimeVersion: 0, emissionKind: FullDebug, enums: !2, imports: !56, splitDebugInlining: false, nameTableKind: None)
!1 = !DIFile(filename: "ComputeList.C", directory: "/home/venkat/IF-DV/spec_build_release/CPU_2017/benchspec/CPU/508.namd_r/build/build_base_ld-loop-ext-m64.0000")
!2 = !{!3}
!3 = !DICompositeType(tag: DW_TAG_enumeration_type, scope: !5, file: !4, line: 37, baseType: !53, size: 32, elements: !54, identifier: "_ZTSN9PairlistsUt_E")
!4 = !DIFile(filename: "./ComputeNonbondedUtil.h", directory: "/home/venkat/IF-DV/spec_build_release/CPU_2017/benchspec/CPU/508.namd_r/build/build_base_ld-loop-ext-m64.0000")
!5 = distinct !DICompositeType(tag: DW_TAG_class_type, name: "Pairlists", file: !4, line: 36, size: 128, flags: DIFlagTypePassByReference | DIFlagNonTrivial, elements: !6, identifier: "_ZTS9Pairlists")
!6 = !{!7, !11, !13, !14, !20, !24, !27, !28, !31, !34, !37, !38, !43, !46, !47, !50}
!7 = !DIDerivedType(tag: DW_TAG_member, name: "data", scope: !5, file: !4, line: 38, baseType: !8, size: 64)
!8 = !DIDerivedType(tag: DW_TAG_pointer_type, baseType: !9, size: 64)
!9 = !DIDerivedType(tag: DW_TAG_typedef, name: "plint", file: !4, line: 34, baseType: !10)
!10 = !DIBasicType(name: "unsigned short", size: 16, encoding: DW_ATE_unsigned)
!11 = !DIDerivedType(tag: DW_TAG_member, name: "curpos", scope: !5, file: !4, line: 39, baseType: !12, size: 32, offset: 64)
!12 = !DIBasicType(name: "int", size: 32, encoding: DW_ATE_signed)
!13 = !DIDerivedType(tag: DW_TAG_member, name: "size", scope: !5, file: !4, line: 40, baseType: !12, size: 32, offset: 96)
!14 = !DISubprogram(name: "Pairlists", scope: !5, file: !4, line: 41, type: !15, scopeLine: 41, flags: DIFlagPrototyped, spFlags: 0)
!15 = !DISubroutineType(types: !16)
!16 = !{null, !17, !18}
!17 = !DIDerivedType(tag: DW_TAG_pointer_type, baseType: !5, size: 64, flags: DIFlagArtificial | DIFlagObjectPointer)
!18 = !DIDerivedType(tag: DW_TAG_reference_type, baseType: !19, size: 64)
!19 = !DIDerivedType(tag: DW_TAG_const_type, baseType: !5)
!20 = !DISubprogram(name: "operator=", linkageName: "_ZN9PairlistsaSERKS_", scope: !5, file: !4, line: 42, type: !21, scopeLine: 42, flags: DIFlagPrototyped, spFlags: 0)
!21 = !DISubroutineType(types: !22)
!22 = !{!23, !17, !18}
!23 = !DIDerivedType(tag: DW_TAG_reference_type, baseType: !5, size: 64)
!24 = !DISubprogram(name: "Pairlists", scope: !5, file: !4, line: 44, type: !25, scopeLine: 44, flags: DIFlagPublic | DIFlagPrototyped, spFlags: 0)
!25 = !DISubroutineType(types: !26)
!26 = !{null, !17}
!27 = !DISubprogram(name: "~Pairlists", scope: !5, file: !4, line: 45, type: !25, scopeLine: 45, flags: DIFlagPublic | DIFlagPrototyped, spFlags: 0)
!28 = !DISubprogram(name: "newlist", linkageName: "_ZN9Pairlists7newlistEi", scope: !5, file: !4, line: 46, type: !29, scopeLine: 46, flags: DIFlagPublic | DIFlagPrototyped, spFlags: 0)
!29 = !DISubroutineType(types: !30)
!30 = !{!8, !17, !12}
!31 = !DISubprogram(name: "newlist", linkageName: "_ZN9Pairlists7newlistEv", scope: !5, file: !4, line: 61, type: !32, scopeLine: 61, flags: DIFlagPublic | DIFlagPrototyped, spFlags: 0)
!32 = !DISubroutineType(types: !33)
!33 = !{!8, !17}
!34 = !DISubprogram(name: "newsize", linkageName: "_ZN9Pairlists7newsizeEi", scope: !5, file: !4, line: 65, type: !35, scopeLine: 65, flags: DIFlagPublic | DIFlagPrototyped, spFlags: 0)
!35 = !DISubroutineType(types: !36)
!36 = !{null, !17, !12}
!37 = !DISubprogram(name: "reset", linkageName: "_ZN9Pairlists5resetEv", scope: !5, file: !4, line: 69, type: !25, scopeLine: 69, flags: DIFlagPublic | DIFlagPrototyped, spFlags: 0)
!38 = !DISubprogram(name: "nextlist", linkageName: "_ZN9Pairlists8nextlistEPPtPi", scope: !5, file: !4, line: 70, type: !39, scopeLine: 70, flags: DIFlagPublic | DIFlagPrototyped, spFlags: 0)
!39 = !DISubroutineType(types: !40)
!40 = !{null, !17, !41, !42}
!41 = !DIDerivedType(tag: DW_TAG_pointer_type, baseType: !8, size: 64)
!42 = !DIDerivedType(tag: DW_TAG_pointer_type, baseType: !12, size: 64)
!43 = !DISubprogram(name: "getSize", linkageName: "_ZN9Pairlists7getSizeEv", scope: !5, file: !4, line: 74, type: !44, scopeLine: 74, flags: DIFlagPublic | DIFlagPrototyped, spFlags: 0)
!44 = !DISubroutineType(types: !45)
!45 = !{!12, !17}
!46 = !DISubprogram(name: "addIndex", linkageName: "_ZN9Pairlists8addIndexEv", scope: !5, file: !4, line: 76, type: !25, scopeLine: 76, flags: DIFlagPublic | DIFlagPrototyped, spFlags: 0)
!47 = !DISubprogram(name: "setIndexValue", linkageName: "_ZN9Pairlists13setIndexValueEt", scope: !5, file: !4, line: 79, type: !48, scopeLine: 79, flags: DIFlagPublic | DIFlagPrototyped, spFlags: 0)
!48 = !DISubroutineType(types: !49)
!49 = !{null, !17, !9}
!50 = !DISubprogram(name: "getIndexValue", linkageName: "_ZN9Pairlists13getIndexValueEv", scope: !5, file: !4, line: 83, type: !51, scopeLine: 83, flags: DIFlagPublic | DIFlagPrototyped, spFlags: 0)
!51 = !DISubroutineType(types: !52)
!52 = !{!9, !17}
!53 = !DIBasicType(name: "unsigned int", size: 32, encoding: DW_ATE_unsigned)
!54 = !{!55}
!55 = !DIEnumerator(name: "initsize", value: 10, isUnsigned: true)
!56 = !{!57, !64, !71, !73, !75, !79, !81, !83, !85, !87, !89, !91, !93, !97, !101, !103, !105, !110, !112, !114, !116, !118, !120, !122, !125, !128, !130, !134, !139, !141, !143, !145, !147, !149, !151, !153, !155, !157, !159, !163, !167, !169, !171, !173, !175, !177, !179, !181, !183, !185, !187, !189, !191, !193, !195, !197, !201, !205, !209, !211, !213, !215, !217, !219, !221, !223, !225, !227, !231, !235, !239, !241, !243, !245, !250, !254, !258, !260, !262, !264, !266, !268, !270, !272, !274, !276, !278, !280, !282, !287, !291, !295, !297, !299, !301, !308, !312, !316, !318, !320, !322, !324, !326, !328, !332, !336, !338, !340, !342, !344, !348, !352, !356, !358, !360, !362, !364, !366, !368, !372, !376, !380, !382, !386, !390, !392, !394, !396, !398, !400, !402, !408, !413, !470}
!57 = !DIImportedEntity(tag: DW_TAG_imported_declaration, scope: !58, entity: !59, file: !63, line: 52)
!58 = !DINamespace(name: "std", scope: null)
!59 = !DISubprogram(name: "abs", scope: !60, file: !60, line: 840, type: !61, flags: DIFlagPrototyped, spFlags: 0)
!60 = !DIFile(filename: "/usr/include/stdlib.h", directory: "")
!61 = !DISubroutineType(types: !62)
!62 = !{!12, !12}
!63 = !DIFile(filename: "/usr/lib/gcc/x86_64-linux-gnu/10/../../../../include/c++/10/bits/std_abs.h", directory: "")
!64 = !DIImportedEntity(tag: DW_TAG_imported_declaration, scope: !58, entity: !65, file: !70, line: 83)
!65 = !DISubprogram(name: "acos", scope: !66, file: !66, line: 53, type: !67, flags: DIFlagPrototyped, spFlags: 0)
!66 = !DIFile(filename: "/usr/include/x86_64-linux-gnu/bits/mathcalls.h", directory: "")
!67 = !DISubroutineType(types: !68)
!68 = !{!69, !69}
!69 = !DIBasicType(name: "double", size: 64, encoding: DW_ATE_float)
!70 = !DIFile(filename: "/usr/lib/gcc/x86_64-linux-gnu/10/../../../../include/c++/10/cmath", directory: "")
!71 = !DIImportedEntity(tag: DW_TAG_imported_declaration, scope: !58, entity: !72, file: !70, line: 102)
!72 = !DISubprogram(name: "asin", scope: !66, file: !66, line: 55, type: !67, flags: DIFlagPrototyped, spFlags: 0)
!73 = !DIImportedEntity(tag: DW_TAG_imported_declaration, scope: !58, entity: !74, file: !70, line: 121)
!74 = !DISubprogram(name: "atan", scope: !66, file: !66, line: 57, type: !67, flags: DIFlagPrototyped, spFlags: 0)
!75 = !DIImportedEntity(tag: DW_TAG_imported_declaration, scope: !58, entity: !76, file: !70, line: 140)
!76 = !DISubprogram(name: "atan2", scope: !66, file: !66, line: 59, type: !77, flags: DIFlagPrototyped, spFlags: 0)
!77 = !DISubroutineType(types: !78)
!78 = !{!69, !69, !69}
!79 = !DIImportedEntity(tag: DW_TAG_imported_declaration, scope: !58, entity: !80, file: !70, line: 161)
!80 = !DISubprogram(name: "ceil", scope: !66, file: !66, line: 159, type: !67, flags: DIFlagPrototyped, spFlags: 0)
!81 = !DIImportedEntity(tag: DW_TAG_imported_declaration, scope: !58, entity: !82, file: !70, line: 180)
!82 = !DISubprogram(name: "cos", scope: !66, file: !66, line: 62, type: !67, flags: DIFlagPrototyped, spFlags: 0)
!83 = !DIImportedEntity(tag: DW_TAG_imported_declaration, scope: !58, entity: !84, file: !70, line: 199)
!84 = !DISubprogram(name: "cosh", scope: !66, file: !66, line: 71, type: !67, flags: DIFlagPrototyped, spFlags: 0)
!85 = !DIImportedEntity(tag: DW_TAG_imported_declaration, scope: !58, entity: !86, file: !70, line: 218)
!86 = !DISubprogram(name: "exp", scope: !66, file: !66, line: 95, type: !67, flags: DIFlagPrototyped, spFlags: 0)
!87 = !DIImportedEntity(tag: DW_TAG_imported_declaration, scope: !58, entity: !88, file: !70, line: 237)
!88 = !DISubprogram(name: "fabs", scope: !66, file: !66, line: 162, type: !67, flags: DIFlagPrototyped, spFlags: 0)
!89 = !DIImportedEntity(tag: DW_TAG_imported_declaration, scope: !58, entity: !90, file: !70, line: 256)
!90 = !DISubprogram(name: "floor", scope: !66, file: !66, line: 165, type: !67, flags: DIFlagPrototyped, spFlags: 0)
!91 = !DIImportedEntity(tag: DW_TAG_imported_declaration, scope: !58, entity: !92, file: !70, line: 275)
!92 = !DISubprogram(name: "fmod", scope: !66, file: !66, line: 168, type: !77, flags: DIFlagPrototyped, spFlags: 0)
!93 = !DIImportedEntity(tag: DW_TAG_imported_declaration, scope: !58, entity: !94, file: !70, line: 296)
!94 = !DISubprogram(name: "frexp", scope: !66, file: !66, line: 98, type: !95, flags: DIFlagPrototyped, spFlags: 0)
!95 = !DISubroutineType(types: !96)
!96 = !{!69, !69, !42}
!97 = !DIImportedEntity(tag: DW_TAG_imported_declaration, scope: !58, entity: !98, file: !70, line: 315)
!98 = !DISubprogram(name: "ldexp", scope: !66, file: !66, line: 101, type: !99, flags: DIFlagPrototyped, spFlags: 0)
!99 = !DISubroutineType(types: !100)
!100 = !{!69, !69, !12}
!101 = !DIImportedEntity(tag: DW_TAG_imported_declaration, scope: !58, entity: !102, file: !70, line: 334)
!102 = !DISubprogram(name: "log", scope: !66, file: !66, line: 104, type: !67, flags: DIFlagPrototyped, spFlags: 0)
!103 = !DIImportedEntity(tag: DW_TAG_imported_declaration, scope: !58, entity: !104, file: !70, line: 353)
!104 = !DISubprogram(name: "log10", scope: !66, file: !66, line: 107, type: !67, flags: DIFlagPrototyped, spFlags: 0)
!105 = !DIImportedEntity(tag: DW_TAG_imported_declaration, scope: !58, entity: !106, file: !70, line: 372)
!106 = !DISubprogram(name: "modf", scope: !66, file: !66, line: 110, type: !107, flags: DIFlagPrototyped, spFlags: 0)
!107 = !DISubroutineType(types: !108)
!108 = !{!69, !69, !109}
!109 = !DIDerivedType(tag: DW_TAG_pointer_type, baseType: !69, size: 64)
!110 = !DIImportedEntity(tag: DW_TAG_imported_declaration, scope: !58, entity: !111, file: !70, line: 384)
!111 = !DISubprogram(name: "pow", scope: !66, file: !66, line: 140, type: !77, flags: DIFlagPrototyped, spFlags: 0)
!112 = !DIImportedEntity(tag: DW_TAG_imported_declaration, scope: !58, entity: !113, file: !70, line: 421)
!113 = !DISubprogram(name: "sin", scope: !66, file: !66, line: 64, type: !67, flags: DIFlagPrototyped, spFlags: 0)
!114 = !DIImportedEntity(tag: DW_TAG_imported_declaration, scope: !58, entity: !115, file: !70, line: 440)
!115 = !DISubprogram(name: "sinh", scope: !66, file: !66, line: 73, type: !67, flags: DIFlagPrototyped, spFlags: 0)
!116 = !DIImportedEntity(tag: DW_TAG_imported_declaration, scope: !58, entity: !117, file: !70, line: 459)
!117 = !DISubprogram(name: "sqrt", scope: !66, file: !66, line: 143, type: !67, flags: DIFlagPrototyped, spFlags: 0)
!118 = !DIImportedEntity(tag: DW_TAG_imported_declaration, scope: !58, entity: !119, file: !70, line: 478)
!119 = !DISubprogram(name: "tan", scope: !66, file: !66, line: 66, type: !67, flags: DIFlagPrototyped, spFlags: 0)
!120 = !DIImportedEntity(tag: DW_TAG_imported_declaration, scope: !58, entity: !121, file: !70, line: 497)
!121 = !DISubprogram(name: "tanh", scope: !66, file: !66, line: 75, type: !67, flags: DIFlagPrototyped, spFlags: 0)
!122 = !DIImportedEntity(tag: DW_TAG_imported_declaration, scope: !58, entity: !123, file: !70, line: 1065)
!123 = !DIDerivedType(tag: DW_TAG_typedef, name: "double_t", file: !124, line: 150, baseType: !69)
!124 = !DIFile(filename: "/usr/include/math.h", directory: "")
!125 = !DIImportedEntity(tag: DW_TAG_imported_declaration, scope: !58, entity: !126, file: !70, line: 1066)
!126 = !DIDerivedType(tag: DW_TAG_typedef, name: "float_t", file: !124, line: 149, baseType: !127)
!127 = !DIBasicType(name: "float", size: 32, encoding: DW_ATE_float)
!128 = !DIImportedEntity(tag: DW_TAG_imported_declaration, scope: !58, entity: !129, file: !70, line: 1069)
!129 = !DISubprogram(name: "acosh", scope: !66, file: !66, line: 85, type: !67, flags: DIFlagPrototyped, spFlags: 0)
!130 = !DIImportedEntity(tag: DW_TAG_imported_declaration, scope: !58, entity: !131, file: !70, line: 1070)
!131 = !DISubprogram(name: "acoshf", scope: !66, file: !66, line: 85, type: !132, flags: DIFlagPrototyped, spFlags: 0)
!132 = !DISubroutineType(types: !133)
!133 = !{!127, !127}
!134 = !DIImportedEntity(tag: DW_TAG_imported_declaration, scope: !58, entity: !135, file: !70, line: 1071)
!135 = !DISubprogram(name: "acoshl", scope: !66, file: !66, line: 85, type: !136, flags: DIFlagPrototyped, spFlags: 0)
!136 = !DISubroutineType(types: !137)
!137 = !{!138, !138}
!138 = !DIBasicType(name: "long double", size: 128, encoding: DW_ATE_float)
!139 = !DIImportedEntity(tag: DW_TAG_imported_declaration, scope: !58, entity: !140, file: !70, line: 1073)
!140 = !DISubprogram(name: "asinh", scope: !66, file: !66, line: 87, type: !67, flags: DIFlagPrototyped, spFlags: 0)
!141 = !DIImportedEntity(tag: DW_TAG_imported_declaration, scope: !58, entity: !142, file: !70, line: 1074)
!142 = !DISubprogram(name: "asinhf", scope: !66, file: !66, line: 87, type: !132, flags: DIFlagPrototyped, spFlags: 0)
!143 = !DIImportedEntity(tag: DW_TAG_imported_declaration, scope: !58, entity: !144, file: !70, line: 1075)
!144 = !DISubprogram(name: "asinhl", scope: !66, file: !66, line: 87, type: !136, flags: DIFlagPrototyped, spFlags: 0)
!145 = !DIImportedEntity(tag: DW_TAG_imported_declaration, scope: !58, entity: !146, file: !70, line: 1077)
!146 = !DISubprogram(name: "atanh", scope: !66, file: !66, line: 89, type: !67, flags: DIFlagPrototyped, spFlags: 0)
!147 = !DIImportedEntity(tag: DW_TAG_imported_declaration, scope: !58, entity: !148, file: !70, line: 1078)
!148 = !DISubprogram(name: "atanhf", scope: !66, file: !66, line: 89, type: !132, flags: DIFlagPrototyped, spFlags: 0)
!149 = !DIImportedEntity(tag: DW_TAG_imported_declaration, scope: !58, entity: !150, file: !70, line: 1079)
!150 = !DISubprogram(name: "atanhl", scope: !66, file: !66, line: 89, type: !136, flags: DIFlagPrototyped, spFlags: 0)
!151 = !DIImportedEntity(tag: DW_TAG_imported_declaration, scope: !58, entity: !152, file: !70, line: 1081)
!152 = !DISubprogram(name: "cbrt", scope: !66, file: !66, line: 152, type: !67, flags: DIFlagPrototyped, spFlags: 0)
!153 = !DIImportedEntity(tag: DW_TAG_imported_declaration, scope: !58, entity: !154, file: !70, line: 1082)
!154 = !DISubprogram(name: "cbrtf", scope: !66, file: !66, line: 152, type: !132, flags: DIFlagPrototyped, spFlags: 0)
!155 = !DIImportedEntity(tag: DW_TAG_imported_declaration, scope: !58, entity: !156, file: !70, line: 1083)
!156 = !DISubprogram(name: "cbrtl", scope: !66, file: !66, line: 152, type: !136, flags: DIFlagPrototyped, spFlags: 0)
!157 = !DIImportedEntity(tag: DW_TAG_imported_declaration, scope: !58, entity: !158, file: !70, line: 1085)
!158 = !DISubprogram(name: "copysign", scope: !66, file: !66, line: 196, type: !77, flags: DIFlagPrototyped, spFlags: 0)
!159 = !DIImportedEntity(tag: DW_TAG_imported_declaration, scope: !58, entity: !160, file: !70, line: 1086)
!160 = !DISubprogram(name: "copysignf", scope: !66, file: !66, line: 196, type: !161, flags: DIFlagPrototyped, spFlags: 0)
!161 = !DISubroutineType(types: !162)
!162 = !{!127, !127, !127}
!163 = !DIImportedEntity(tag: DW_TAG_imported_declaration, scope: !58, entity: !164, file: !70, line: 1087)
!164 = !DISubprogram(name: "copysignl", scope: !66, file: !66, line: 196, type: !165, flags: DIFlagPrototyped, spFlags: 0)
!165 = !DISubroutineType(types: !166)
!166 = !{!138, !138, !138}
!167 = !DIImportedEntity(tag: DW_TAG_imported_declaration, scope: !58, entity: !168, file: !70, line: 1089)
!168 = !DISubprogram(name: "erf", scope: !66, file: !66, line: 228, type: !67, flags: DIFlagPrototyped, spFlags: 0)
!169 = !DIImportedEntity(tag: DW_TAG_imported_declaration, scope: !58, entity: !170, file: !70, line: 1090)
!170 = !DISubprogram(name: "erff", scope: !66, file: !66, line: 228, type: !132, flags: DIFlagPrototyped, spFlags: 0)
!171 = !DIImportedEntity(tag: DW_TAG_imported_declaration, scope: !58, entity: !172, file: !70, line: 1091)
!172 = !DISubprogram(name: "erfl", scope: !66, file: !66, line: 228, type: !136, flags: DIFlagPrototyped, spFlags: 0)
!173 = !DIImportedEntity(tag: DW_TAG_imported_declaration, scope: !58, entity: !174, file: !70, line: 1093)
!174 = !DISubprogram(name: "erfc", scope: !66, file: !66, line: 229, type: !67, flags: DIFlagPrototyped, spFlags: 0)
!175 = !DIImportedEntity(tag: DW_TAG_imported_declaration, scope: !58, entity: !176, file: !70, line: 1094)
!176 = !DISubprogram(name: "erfcf", scope: !66, file: !66, line: 229, type: !132, flags: DIFlagPrototyped, spFlags: 0)
!177 = !DIImportedEntity(tag: DW_TAG_imported_declaration, scope: !58, entity: !178, file: !70, line: 1095)
!178 = !DISubprogram(name: "erfcl", scope: !66, file: !66, line: 229, type: !136, flags: DIFlagPrototyped, spFlags: 0)
!179 = !DIImportedEntity(tag: DW_TAG_imported_declaration, scope: !58, entity: !180, file: !70, line: 1097)
!180 = !DISubprogram(name: "exp2", scope: !66, file: !66, line: 130, type: !67, flags: DIFlagPrototyped, spFlags: 0)
!181 = !DIImportedEntity(tag: DW_TAG_imported_declaration, scope: !58, entity: !182, file: !70, line: 1098)
!182 = !DISubprogram(name: "exp2f", scope: !66, file: !66, line: 130, type: !132, flags: DIFlagPrototyped, spFlags: 0)
!183 = !DIImportedEntity(tag: DW_TAG_imported_declaration, scope: !58, entity: !184, file: !70, line: 1099)
!184 = !DISubprogram(name: "exp2l", scope: !66, file: !66, line: 130, type: !136, flags: DIFlagPrototyped, spFlags: 0)
!185 = !DIImportedEntity(tag: DW_TAG_imported_declaration, scope: !58, entity: !186, file: !70, line: 1101)
!186 = !DISubprogram(name: "expm1", scope: !66, file: !66, line: 119, type: !67, flags: DIFlagPrototyped, spFlags: 0)
!187 = !DIImportedEntity(tag: DW_TAG_imported_declaration, scope: !58, entity: !188, file: !70, line: 1102)
!188 = !DISubprogram(name: "expm1f", scope: !66, file: !66, line: 119, type: !132, flags: DIFlagPrototyped, spFlags: 0)
!189 = !DIImportedEntity(tag: DW_TAG_imported_declaration, scope: !58, entity: !190, file: !70, line: 1103)
!190 = !DISubprogram(name: "expm1l", scope: !66, file: !66, line: 119, type: !136, flags: DIFlagPrototyped, spFlags: 0)
!191 = !DIImportedEntity(tag: DW_TAG_imported_declaration, scope: !58, entity: !192, file: !70, line: 1105)
!192 = !DISubprogram(name: "fdim", scope: !66, file: !66, line: 326, type: !77, flags: DIFlagPrototyped, spFlags: 0)
!193 = !DIImportedEntity(tag: DW_TAG_imported_declaration, scope: !58, entity: !194, file: !70, line: 1106)
!194 = !DISubprogram(name: "fdimf", scope: !66, file: !66, line: 326, type: !161, flags: DIFlagPrototyped, spFlags: 0)
!195 = !DIImportedEntity(tag: DW_TAG_imported_declaration, scope: !58, entity: !196, file: !70, line: 1107)
!196 = !DISubprogram(name: "fdiml", scope: !66, file: !66, line: 326, type: !165, flags: DIFlagPrototyped, spFlags: 0)
!197 = !DIImportedEntity(tag: DW_TAG_imported_declaration, scope: !58, entity: !198, file: !70, line: 1109)
!198 = !DISubprogram(name: "fma", scope: !66, file: !66, line: 335, type: !199, flags: DIFlagPrototyped, spFlags: 0)
!199 = !DISubroutineType(types: !200)
!200 = !{!69, !69, !69, !69}
!201 = !DIImportedEntity(tag: DW_TAG_imported_declaration, scope: !58, entity: !202, file: !70, line: 1110)
!202 = !DISubprogram(name: "fmaf", scope: !66, file: !66, line: 335, type: !203, flags: DIFlagPrototyped, spFlags: 0)
!203 = !DISubroutineType(types: !204)
!204 = !{!127, !127, !127, !127}
!205 = !DIImportedEntity(tag: DW_TAG_imported_declaration, scope: !58, entity: !206, file: !70, line: 1111)
!206 = !DISubprogram(name: "fmal", scope: !66, file: !66, line: 335, type: !207, flags: DIFlagPrototyped, spFlags: 0)
!207 = !DISubroutineType(types: !208)
!208 = !{!138, !138, !138, !138}
!209 = !DIImportedEntity(tag: DW_TAG_imported_declaration, scope: !58, entity: !210, file: !70, line: 1113)
!210 = !DISubprogram(name: "fmax", scope: !66, file: !66, line: 329, type: !77, flags: DIFlagPrototyped, spFlags: 0)
!211 = !DIImportedEntity(tag: DW_TAG_imported_declaration, scope: !58, entity: !212, file: !70, line: 1114)
!212 = !DISubprogram(name: "fmaxf", scope: !66, file: !66, line: 329, type: !161, flags: DIFlagPrototyped, spFlags: 0)
!213 = !DIImportedEntity(tag: DW_TAG_imported_declaration, scope: !58, entity: !214, file: !70, line: 1115)
!214 = !DISubprogram(name: "fmaxl", scope: !66, file: !66, line: 329, type: !165, flags: DIFlagPrototyped, spFlags: 0)
!215 = !DIImportedEntity(tag: DW_TAG_imported_declaration, scope: !58, entity: !216, file: !70, line: 1117)
!216 = !DISubprogram(name: "fmin", scope: !66, file: !66, line: 332, type: !77, flags: DIFlagPrototyped, spFlags: 0)
!217 = !DIImportedEntity(tag: DW_TAG_imported_declaration, scope: !58, entity: !218, file: !70, line: 1118)
!218 = !DISubprogram(name: "fminf", scope: !66, file: !66, line: 332, type: !161, flags: DIFlagPrototyped, spFlags: 0)
!219 = !DIImportedEntity(tag: DW_TAG_imported_declaration, scope: !58, entity: !220, file: !70, line: 1119)
!220 = !DISubprogram(name: "fminl", scope: !66, file: !66, line: 332, type: !165, flags: DIFlagPrototyped, spFlags: 0)
!221 = !DIImportedEntity(tag: DW_TAG_imported_declaration, scope: !58, entity: !222, file: !70, line: 1121)
!222 = !DISubprogram(name: "hypot", scope: !66, file: !66, line: 147, type: !77, flags: DIFlagPrototyped, spFlags: 0)
!223 = !DIImportedEntity(tag: DW_TAG_imported_declaration, scope: !58, entity: !224, file: !70, line: 1122)
!224 = !DISubprogram(name: "hypotf", scope: !66, file: !66, line: 147, type: !161, flags: DIFlagPrototyped, spFlags: 0)
!225 = !DIImportedEntity(tag: DW_TAG_imported_declaration, scope: !58, entity: !226, file: !70, line: 1123)
!226 = !DISubprogram(name: "hypotl", scope: !66, file: !66, line: 147, type: !165, flags: DIFlagPrototyped, spFlags: 0)
!227 = !DIImportedEntity(tag: DW_TAG_imported_declaration, scope: !58, entity: !228, file: !70, line: 1125)
!228 = !DISubprogram(name: "ilogb", scope: !66, file: !66, line: 280, type: !229, flags: DIFlagPrototyped, spFlags: 0)
!229 = !DISubroutineType(types: !230)
!230 = !{!12, !69}
!231 = !DIImportedEntity(tag: DW_TAG_imported_declaration, scope: !58, entity: !232, file: !70, line: 1126)
!232 = !DISubprogram(name: "ilogbf", scope: !66, file: !66, line: 280, type: !233, flags: DIFlagPrototyped, spFlags: 0)
!233 = !DISubroutineType(types: !234)
!234 = !{!12, !127}
!235 = !DIImportedEntity(tag: DW_TAG_imported_declaration, scope: !58, entity: !236, file: !70, line: 1127)
!236 = !DISubprogram(name: "ilogbl", scope: !66, file: !66, line: 280, type: !237, flags: DIFlagPrototyped, spFlags: 0)
!237 = !DISubroutineType(types: !238)
!238 = !{!12, !138}
!239 = !DIImportedEntity(tag: DW_TAG_imported_declaration, scope: !58, entity: !240, file: !70, line: 1129)
!240 = !DISubprogram(name: "lgamma", scope: !66, file: !66, line: 230, type: !67, flags: DIFlagPrototyped, spFlags: 0)
!241 = !DIImportedEntity(tag: DW_TAG_imported_declaration, scope: !58, entity: !242, file: !70, line: 1130)
!242 = !DISubprogram(name: "lgammaf", scope: !66, file: !66, line: 230, type: !132, flags: DIFlagPrototyped, spFlags: 0)
!243 = !DIImportedEntity(tag: DW_TAG_imported_declaration, scope: !58, entity: !244, file: !70, line: 1131)
!244 = !DISubprogram(name: "lgammal", scope: !66, file: !66, line: 230, type: !136, flags: DIFlagPrototyped, spFlags: 0)
!245 = !DIImportedEntity(tag: DW_TAG_imported_declaration, scope: !58, entity: !246, file: !70, line: 1134)
!246 = !DISubprogram(name: "llrint", scope: !66, file: !66, line: 316, type: !247, flags: DIFlagPrototyped, spFlags: 0)
!247 = !DISubroutineType(types: !248)
!248 = !{!249, !69}
!249 = !DIBasicType(name: "long long int", size: 64, encoding: DW_ATE_signed)
!250 = !DIImportedEntity(tag: DW_TAG_imported_declaration, scope: !58, entity: !251, file: !70, line: 1135)
!251 = !DISubprogram(name: "llrintf", scope: !66, file: !66, line: 316, type: !252, flags: DIFlagPrototyped, spFlags: 0)
!252 = !DISubroutineType(types: !253)
!253 = !{!249, !127}
!254 = !DIImportedEntity(tag: DW_TAG_imported_declaration, scope: !58, entity: !255, file: !70, line: 1136)
!255 = !DISubprogram(name: "llrintl", scope: !66, file: !66, line: 316, type: !256, flags: DIFlagPrototyped, spFlags: 0)
!256 = !DISubroutineType(types: !257)
!257 = !{!249, !138}
!258 = !DIImportedEntity(tag: DW_TAG_imported_declaration, scope: !58, entity: !259, file: !70, line: 1138)
!259 = !DISubprogram(name: "llround", scope: !66, file: !66, line: 322, type: !247, flags: DIFlagPrototyped, spFlags: 0)
!260 = !DIImportedEntity(tag: DW_TAG_imported_declaration, scope: !58, entity: !261, file: !70, line: 1139)
!261 = !DISubprogram(name: "llroundf", scope: !66, file: !66, line: 322, type: !252, flags: DIFlagPrototyped, spFlags: 0)
!262 = !DIImportedEntity(tag: DW_TAG_imported_declaration, scope: !58, entity: !263, file: !70, line: 1140)
!263 = !DISubprogram(name: "llroundl", scope: !66, file: !66, line: 322, type: !256, flags: DIFlagPrototyped, spFlags: 0)
!264 = !DIImportedEntity(tag: DW_TAG_imported_declaration, scope: !58, entity: !265, file: !70, line: 1143)
!265 = !DISubprogram(name: "log1p", scope: !66, file: !66, line: 122, type: !67, flags: DIFlagPrototyped, spFlags: 0)
!266 = !DIImportedEntity(tag: DW_TAG_imported_declaration, scope: !58, entity: !267, file: !70, line: 1144)
!267 = !DISubprogram(name: "log1pf", scope: !66, file: !66, line: 122, type: !132, flags: DIFlagPrototyped, spFlags: 0)
!268 = !DIImportedEntity(tag: DW_TAG_imported_declaration, scope: !58, entity: !269, file: !70, line: 1145)
!269 = !DISubprogram(name: "log1pl", scope: !66, file: !66, line: 122, type: !136, flags: DIFlagPrototyped, spFlags: 0)
!270 = !DIImportedEntity(tag: DW_TAG_imported_declaration, scope: !58, entity: !271, file: !70, line: 1147)
!271 = !DISubprogram(name: "log2", scope: !66, file: !66, line: 133, type: !67, flags: DIFlagPrototyped, spFlags: 0)
!272 = !DIImportedEntity(tag: DW_TAG_imported_declaration, scope: !58, entity: !273, file: !70, line: 1148)
!273 = !DISubprogram(name: "log2f", scope: !66, file: !66, line: 133, type: !132, flags: DIFlagPrototyped, spFlags: 0)
!274 = !DIImportedEntity(tag: DW_TAG_imported_declaration, scope: !58, entity: !275, file: !70, line: 1149)
!275 = !DISubprogram(name: "log2l", scope: !66, file: !66, line: 133, type: !136, flags: DIFlagPrototyped, spFlags: 0)
!276 = !DIImportedEntity(tag: DW_TAG_imported_declaration, scope: !58, entity: !277, file: !70, line: 1151)
!277 = !DISubprogram(name: "logb", scope: !66, file: !66, line: 125, type: !67, flags: DIFlagPrototyped, spFlags: 0)
!278 = !DIImportedEntity(tag: DW_TAG_imported_declaration, scope: !58, entity: !279, file: !70, line: 1152)
!279 = !DISubprogram(name: "logbf", scope: !66, file: !66, line: 125, type: !132, flags: DIFlagPrototyped, spFlags: 0)
!280 = !DIImportedEntity(tag: DW_TAG_imported_declaration, scope: !58, entity: !281, file: !70, line: 1153)
!281 = !DISubprogram(name: "logbl", scope: !66, file: !66, line: 125, type: !136, flags: DIFlagPrototyped, spFlags: 0)
!282 = !DIImportedEntity(tag: DW_TAG_imported_declaration, scope: !58, entity: !283, file: !70, line: 1155)
!283 = !DISubprogram(name: "lrint", scope: !66, file: !66, line: 314, type: !284, flags: DIFlagPrototyped, spFlags: 0)
!284 = !DISubroutineType(types: !285)
!285 = !{!286, !69}
!286 = !DIBasicType(name: "long int", size: 64, encoding: DW_ATE_signed)
!287 = !DIImportedEntity(tag: DW_TAG_imported_declaration, scope: !58, entity: !288, file: !70, line: 1156)
!288 = !DISubprogram(name: "lrintf", scope: !66, file: !66, line: 314, type: !289, flags: DIFlagPrototyped, spFlags: 0)
!289 = !DISubroutineType(types: !290)
!290 = !{!286, !127}
!291 = !DIImportedEntity(tag: DW_TAG_imported_declaration, scope: !58, entity: !292, file: !70, line: 1157)
!292 = !DISubprogram(name: "lrintl", scope: !66, file: !66, line: 314, type: !293, flags: DIFlagPrototyped, spFlags: 0)
!293 = !DISubroutineType(types: !294)
!294 = !{!286, !138}
!295 = !DIImportedEntity(tag: DW_TAG_imported_declaration, scope: !58, entity: !296, file: !70, line: 1159)
!296 = !DISubprogram(name: "lround", scope: !66, file: !66, line: 320, type: !284, flags: DIFlagPrototyped, spFlags: 0)
!297 = !DIImportedEntity(tag: DW_TAG_imported_declaration, scope: !58, entity: !298, file: !70, line: 1160)
!298 = !DISubprogram(name: "lroundf", scope: !66, file: !66, line: 320, type: !289, flags: DIFlagPrototyped, spFlags: 0)
!299 = !DIImportedEntity(tag: DW_TAG_imported_declaration, scope: !58, entity: !300, file: !70, line: 1161)
!300 = !DISubprogram(name: "lroundl", scope: !66, file: !66, line: 320, type: !293, flags: DIFlagPrototyped, spFlags: 0)
!301 = !DIImportedEntity(tag: DW_TAG_imported_declaration, scope: !58, entity: !302, file: !70, line: 1163)
!302 = !DISubprogram(name: "nan", scope: !66, file: !66, line: 201, type: !303, flags: DIFlagPrototyped, spFlags: 0)
!303 = !DISubroutineType(types: !304)
!304 = !{!69, !305}
!305 = !DIDerivedType(tag: DW_TAG_pointer_type, baseType: !306, size: 64)
!306 = !DIDerivedType(tag: DW_TAG_const_type, baseType: !307)
!307 = !DIBasicType(name: "char", size: 8, encoding: DW_ATE_signed_char)
!308 = !DIImportedEntity(tag: DW_TAG_imported_declaration, scope: !58, entity: !309, file: !70, line: 1164)
!309 = !DISubprogram(name: "nanf", scope: !66, file: !66, line: 201, type: !310, flags: DIFlagPrototyped, spFlags: 0)
!310 = !DISubroutineType(types: !311)
!311 = !{!127, !305}
!312 = !DIImportedEntity(tag: DW_TAG_imported_declaration, scope: !58, entity: !313, file: !70, line: 1165)
!313 = !DISubprogram(name: "nanl", scope: !66, file: !66, line: 201, type: !314, flags: DIFlagPrototyped, spFlags: 0)
!314 = !DISubroutineType(types: !315)
!315 = !{!138, !305}
!316 = !DIImportedEntity(tag: DW_TAG_imported_declaration, scope: !58, entity: !317, file: !70, line: 1167)
!317 = !DISubprogram(name: "nearbyint", scope: !66, file: !66, line: 294, type: !67, flags: DIFlagPrototyped, spFlags: 0)
!318 = !DIImportedEntity(tag: DW_TAG_imported_declaration, scope: !58, entity: !319, file: !70, line: 1168)
!319 = !DISubprogram(name: "nearbyintf", scope: !66, file: !66, line: 294, type: !132, flags: DIFlagPrototyped, spFlags: 0)
!320 = !DIImportedEntity(tag: DW_TAG_imported_declaration, scope: !58, entity: !321, file: !70, line: 1169)
!321 = !DISubprogram(name: "nearbyintl", scope: !66, file: !66, line: 294, type: !136, flags: DIFlagPrototyped, spFlags: 0)
!322 = !DIImportedEntity(tag: DW_TAG_imported_declaration, scope: !58, entity: !323, file: !70, line: 1171)
!323 = !DISubprogram(name: "nextafter", scope: !66, file: !66, line: 259, type: !77, flags: DIFlagPrototyped, spFlags: 0)
!324 = !DIImportedEntity(tag: DW_TAG_imported_declaration, scope: !58, entity: !325, file: !70, line: 1172)
!325 = !DISubprogram(name: "nextafterf", scope: !66, file: !66, line: 259, type: !161, flags: DIFlagPrototyped, spFlags: 0)
!326 = !DIImportedEntity(tag: DW_TAG_imported_declaration, scope: !58, entity: !327, file: !70, line: 1173)
!327 = !DISubprogram(name: "nextafterl", scope: !66, file: !66, line: 259, type: !165, flags: DIFlagPrototyped, spFlags: 0)
!328 = !DIImportedEntity(tag: DW_TAG_imported_declaration, scope: !58, entity: !329, file: !70, line: 1175)
!329 = !DISubprogram(name: "nexttoward", scope: !66, file: !66, line: 261, type: !330, flags: DIFlagPrototyped, spFlags: 0)
!330 = !DISubroutineType(types: !331)
!331 = !{!69, !69, !138}
!332 = !DIImportedEntity(tag: DW_TAG_imported_declaration, scope: !58, entity: !333, file: !70, line: 1176)
!333 = !DISubprogram(name: "nexttowardf", scope: !66, file: !66, line: 261, type: !334, flags: DIFlagPrototyped, spFlags: 0)
!334 = !DISubroutineType(types: !335)
!335 = !{!127, !127, !138}
!336 = !DIImportedEntity(tag: DW_TAG_imported_declaration, scope: !58, entity: !337, file: !70, line: 1177)
!337 = !DISubprogram(name: "nexttowardl", scope: !66, file: !66, line: 261, type: !165, flags: DIFlagPrototyped, spFlags: 0)
!338 = !DIImportedEntity(tag: DW_TAG_imported_declaration, scope: !58, entity: !339, file: !70, line: 1179)
!339 = !DISubprogram(name: "remainder", scope: !66, file: !66, line: 272, type: !77, flags: DIFlagPrototyped, spFlags: 0)
!340 = !DIImportedEntity(tag: DW_TAG_imported_declaration, scope: !58, entity: !341, file: !70, line: 1180)
!341 = !DISubprogram(name: "remainderf", scope: !66, file: !66, line: 272, type: !161, flags: DIFlagPrototyped, spFlags: 0)
!342 = !DIImportedEntity(tag: DW_TAG_imported_declaration, scope: !58, entity: !343, file: !70, line: 1181)
!343 = !DISubprogram(name: "remainderl", scope: !66, file: !66, line: 272, type: !165, flags: DIFlagPrototyped, spFlags: 0)
!344 = !DIImportedEntity(tag: DW_TAG_imported_declaration, scope: !58, entity: !345, file: !70, line: 1183)
!345 = !DISubprogram(name: "remquo", scope: !66, file: !66, line: 307, type: !346, flags: DIFlagPrototyped, spFlags: 0)
!346 = !DISubroutineType(types: !347)
!347 = !{!69, !69, !69, !42}
!348 = !DIImportedEntity(tag: DW_TAG_imported_declaration, scope: !58, entity: !349, file: !70, line: 1184)
!349 = !DISubprogram(name: "remquof", scope: !66, file: !66, line: 307, type: !350, flags: DIFlagPrototyped, spFlags: 0)
!350 = !DISubroutineType(types: !351)
!351 = !{!127, !127, !127, !42}
!352 = !DIImportedEntity(tag: DW_TAG_imported_declaration, scope: !58, entity: !353, file: !70, line: 1185)
!353 = !DISubprogram(name: "remquol", scope: !66, file: !66, line: 307, type: !354, flags: DIFlagPrototyped, spFlags: 0)
!354 = !DISubroutineType(types: !355)
!355 = !{!138, !138, !138, !42}
!356 = !DIImportedEntity(tag: DW_TAG_imported_declaration, scope: !58, entity: !357, file: !70, line: 1187)
!357 = !DISubprogram(name: "rint", scope: !66, file: !66, line: 256, type: !67, flags: DIFlagPrototyped, spFlags: 0)
!358 = !DIImportedEntity(tag: DW_TAG_imported_declaration, scope: !58, entity: !359, file: !70, line: 1188)
!359 = !DISubprogram(name: "rintf", scope: !66, file: !66, line: 256, type: !132, flags: DIFlagPrototyped, spFlags: 0)
!360 = !DIImportedEntity(tag: DW_TAG_imported_declaration, scope: !58, entity: !361, file: !70, line: 1189)
!361 = !DISubprogram(name: "rintl", scope: !66, file: !66, line: 256, type: !136, flags: DIFlagPrototyped, spFlags: 0)
!362 = !DIImportedEntity(tag: DW_TAG_imported_declaration, scope: !58, entity: !363, file: !70, line: 1191)
!363 = !DISubprogram(name: "round", scope: !66, file: !66, line: 298, type: !67, flags: DIFlagPrototyped, spFlags: 0)
!364 = !DIImportedEntity(tag: DW_TAG_imported_declaration, scope: !58, entity: !365, file: !70, line: 1192)
!365 = !DISubprogram(name: "roundf", scope: !66, file: !66, line: 298, type: !132, flags: DIFlagPrototyped, spFlags: 0)
!366 = !DIImportedEntity(tag: DW_TAG_imported_declaration, scope: !58, entity: !367, file: !70, line: 1193)
!367 = !DISubprogram(name: "roundl", scope: !66, file: !66, line: 298, type: !136, flags: DIFlagPrototyped, spFlags: 0)
!368 = !DIImportedEntity(tag: DW_TAG_imported_declaration, scope: !58, entity: !369, file: !70, line: 1195)
!369 = !DISubprogram(name: "scalbln", scope: !66, file: !66, line: 290, type: !370, flags: DIFlagPrototyped, spFlags: 0)
!370 = !DISubroutineType(types: !371)
!371 = !{!69, !69, !286}
!372 = !DIImportedEntity(tag: DW_TAG_imported_declaration, scope: !58, entity: !373, file: !70, line: 1196)
!373 = !DISubprogram(name: "scalblnf", scope: !66, file: !66, line: 290, type: !374, flags: DIFlagPrototyped, spFlags: 0)
!374 = !DISubroutineType(types: !375)
!375 = !{!127, !127, !286}
!376 = !DIImportedEntity(tag: DW_TAG_imported_declaration, scope: !58, entity: !377, file: !70, line: 1197)
!377 = !DISubprogram(name: "scalblnl", scope: !66, file: !66, line: 290, type: !378, flags: DIFlagPrototyped, spFlags: 0)
!378 = !DISubroutineType(types: !379)
!379 = !{!138, !138, !286}
!380 = !DIImportedEntity(tag: DW_TAG_imported_declaration, scope: !58, entity: !381, file: !70, line: 1199)
!381 = !DISubprogram(name: "scalbn", scope: !66, file: !66, line: 276, type: !99, flags: DIFlagPrototyped, spFlags: 0)
!382 = !DIImportedEntity(tag: DW_TAG_imported_declaration, scope: !58, entity: !383, file: !70, line: 1200)
!383 = !DISubprogram(name: "scalbnf", scope: !66, file: !66, line: 276, type: !384, flags: DIFlagPrototyped, spFlags: 0)
!384 = !DISubroutineType(types: !385)
!385 = !{!127, !127, !12}
!386 = !DIImportedEntity(tag: DW_TAG_imported_declaration, scope: !58, entity: !387, file: !70, line: 1201)
!387 = !DISubprogram(name: "scalbnl", scope: !66, file: !66, line: 276, type: !388, flags: DIFlagPrototyped, spFlags: 0)
!388 = !DISubroutineType(types: !389)
!389 = !{!138, !138, !12}
!390 = !DIImportedEntity(tag: DW_TAG_imported_declaration, scope: !58, entity: !391, file: !70, line: 1203)
!391 = !DISubprogram(name: "tgamma", scope: !66, file: !66, line: 235, type: !67, flags: DIFlagPrototyped, spFlags: 0)
!392 = !DIImportedEntity(tag: DW_TAG_imported_declaration, scope: !58, entity: !393, file: !70, line: 1204)
!393 = !DISubprogram(name: "tgammaf", scope: !66, file: !66, line: 235, type: !132, flags: DIFlagPrototyped, spFlags: 0)
!394 = !DIImportedEntity(tag: DW_TAG_imported_declaration, scope: !58, entity: !395, file: !70, line: 1205)
!395 = !DISubprogram(name: "tgammal", scope: !66, file: !66, line: 235, type: !136, flags: DIFlagPrototyped, spFlags: 0)
!396 = !DIImportedEntity(tag: DW_TAG_imported_declaration, scope: !58, entity: !397, file: !70, line: 1207)
!397 = !DISubprogram(name: "trunc", scope: !66, file: !66, line: 302, type: !67, flags: DIFlagPrototyped, spFlags: 0)
!398 = !DIImportedEntity(tag: DW_TAG_imported_declaration, scope: !58, entity: !399, file: !70, line: 1208)
!399 = !DISubprogram(name: "truncf", scope: !66, file: !66, line: 302, type: !132, flags: DIFlagPrototyped, spFlags: 0)
!400 = !DIImportedEntity(tag: DW_TAG_imported_declaration, scope: !58, entity: !401, file: !70, line: 1209)
!401 = !DISubprogram(name: "truncl", scope: !66, file: !66, line: 302, type: !136, flags: DIFlagPrototyped, spFlags: 0)
!402 = !DIImportedEntity(tag: DW_TAG_imported_declaration, scope: !0, entity: !403, file: !407, line: 38)
!403 = !DISubprogram(name: "abs", linkageName: "_ZSt3absg", scope: !58, file: !63, line: 103, type: !404, flags: DIFlagPrototyped, spFlags: 0)
!404 = !DISubroutineType(types: !405)
!405 = !{!406, !406}
!406 = !DIBasicType(name: "__float128", size: 128, encoding: DW_ATE_float)
!407 = !DIFile(filename: "/usr/lib/gcc/x86_64-linux-gnu/10/../../../../include/c++/10/math.h", directory: "")
!408 = !DIImportedEntity(tag: DW_TAG_imported_declaration, scope: !0, entity: !409, file: !407, line: 54)
!409 = !DISubprogram(name: "modf", linkageName: "_ZSt4modfePe", scope: !58, file: !70, line: 380, type: !410, flags: DIFlagPrototyped, spFlags: 0)
!410 = !DISubroutineType(types: !411)
!411 = !{!138, !138, !412}
!412 = !DIDerivedType(tag: DW_TAG_pointer_type, baseType: !138, size: 64)
!413 = !DIImportedEntity(tag: DW_TAG_imported_declaration, scope: !58, entity: !414, file: !415, line: 58)
!414 = distinct !DICompositeType(tag: DW_TAG_class_type, name: "exception_ptr", scope: !416, file: !415, line: 80, size: 64, flags: DIFlagTypePassByReference | DIFlagNonTrivial, elements: !417, identifier: "_ZTSNSt15__exception_ptr13exception_ptrE")
!415 = !DIFile(filename: "/usr/lib/gcc/x86_64-linux-gnu/10/../../../../include/c++/10/bits/exception_ptr.h", directory: "")
!416 = !DINamespace(name: "__exception_ptr", scope: !58)
!417 = !{!418, !420, !424, !427, !428, !433, !434, !438, !444, !448, !452, !455, !456, !459, !463}
!418 = !DIDerivedType(tag: DW_TAG_member, name: "_M_exception_object", scope: !414, file: !415, line: 82, baseType: !419, size: 64)
!419 = !DIDerivedType(tag: DW_TAG_pointer_type, baseType: null, size: 64)
!420 = !DISubprogram(name: "exception_ptr", scope: !414, file: !415, line: 84, type: !421, scopeLine: 84, flags: DIFlagExplicit | DIFlagPrototyped, spFlags: 0)
!421 = !DISubroutineType(types: !422)
!422 = !{null, !423, !419}
!423 = !DIDerivedType(tag: DW_TAG_pointer_type, baseType: !414, size: 64, flags: DIFlagArtificial | DIFlagObjectPointer)
!424 = !DISubprogram(name: "_M_addref", linkageName: "_ZNSt15__exception_ptr13exception_ptr9_M_addrefEv", scope: !414, file: !415, line: 86, type: !425, scopeLine: 86, flags: DIFlagPrototyped, spFlags: 0)
!425 = !DISubroutineType(types: !426)
!426 = !{null, !423}
!427 = !DISubprogram(name: "_M_release", linkageName: "_ZNSt15__exception_ptr13exception_ptr10_M_releaseEv", scope: !414, file: !415, line: 87, type: !425, scopeLine: 87, flags: DIFlagPrototyped, spFlags: 0)
!428 = !DISubprogram(name: "_M_get", linkageName: "_ZNKSt15__exception_ptr13exception_ptr6_M_getEv", scope: !414, file: !415, line: 89, type: !429, scopeLine: 89, flags: DIFlagPrototyped, spFlags: 0)
!429 = !DISubroutineType(types: !430)
!430 = !{!419, !431}
!431 = !DIDerivedType(tag: DW_TAG_pointer_type, baseType: !432, size: 64, flags: DIFlagArtificial | DIFlagObjectPointer)
!432 = !DIDerivedType(tag: DW_TAG_const_type, baseType: !414)
!433 = !DISubprogram(name: "exception_ptr", scope: !414, file: !415, line: 97, type: !425, scopeLine: 97, flags: DIFlagPublic | DIFlagPrototyped, spFlags: 0)
!434 = !DISubprogram(name: "exception_ptr", scope: !414, file: !415, line: 99, type: !435, scopeLine: 99, flags: DIFlagPublic | DIFlagPrototyped, spFlags: 0)
!435 = !DISubroutineType(types: !436)
!436 = !{null, !423, !437}
!437 = !DIDerivedType(tag: DW_TAG_reference_type, baseType: !432, size: 64)
!438 = !DISubprogram(name: "exception_ptr", scope: !414, file: !415, line: 102, type: !439, scopeLine: 102, flags: DIFlagPublic | DIFlagPrototyped, spFlags: 0)
!439 = !DISubroutineType(types: !440)
!440 = !{null, !423, !441}
!441 = !DIDerivedType(tag: DW_TAG_typedef, name: "nullptr_t", scope: !58, file: !442, line: 264, baseType: !443)
!442 = !DIFile(filename: "/usr/lib/gcc/x86_64-linux-gnu/10/../../../../include/x86_64-linux-gnu/c++/10/bits/c++config.h", directory: "")
!443 = !DIBasicType(tag: DW_TAG_unspecified_type, name: "decltype(nullptr)")
!444 = !DISubprogram(name: "exception_ptr", scope: !414, file: !415, line: 106, type: !445, scopeLine: 106, flags: DIFlagPublic | DIFlagPrototyped, spFlags: 0)
!445 = !DISubroutineType(types: !446)
!446 = !{null, !423, !447}
!447 = !DIDerivedType(tag: DW_TAG_rvalue_reference_type, baseType: !414, size: 64)
!448 = !DISubprogram(name: "operator=", linkageName: "_ZNSt15__exception_ptr13exception_ptraSERKS0_", scope: !414, file: !415, line: 119, type: !449, scopeLine: 119, flags: DIFlagPublic | DIFlagPrototyped, spFlags: 0)
!449 = !DISubroutineType(types: !450)
!450 = !{!451, !423, !437}
!451 = !DIDerivedType(tag: DW_TAG_reference_type, baseType: !414, size: 64)
!452 = !DISubprogram(name: "operator=", linkageName: "_ZNSt15__exception_ptr13exception_ptraSEOS0_", scope: !414, file: !415, line: 123, type: !453, scopeLine: 123, flags: DIFlagPublic | DIFlagPrototyped, spFlags: 0)
!453 = !DISubroutineType(types: !454)
!454 = !{!451, !423, !447}
!455 = !DISubprogram(name: "~exception_ptr", scope: !414, file: !415, line: 130, type: !425, scopeLine: 130, flags: DIFlagPublic | DIFlagPrototyped, spFlags: 0)
!456 = !DISubprogram(name: "swap", linkageName: "_ZNSt15__exception_ptr13exception_ptr4swapERS0_", scope: !414, file: !415, line: 133, type: !457, scopeLine: 133, flags: DIFlagPublic | DIFlagPrototyped, spFlags: 0)
!457 = !DISubroutineType(types: !458)
!458 = !{null, !423, !451}
!459 = !DISubprogram(name: "operator bool", linkageName: "_ZNKSt15__exception_ptr13exception_ptrcvbEv", scope: !414, file: !415, line: 145, type: !460, scopeLine: 145, flags: DIFlagPublic | DIFlagExplicit | DIFlagPrototyped, spFlags: 0)
!460 = !DISubroutineType(types: !461)
!461 = !{!462, !431}
!462 = !DIBasicType(name: "bool", size: 8, encoding: DW_ATE_boolean)
!463 = !DISubprogram(name: "__cxa_exception_type", linkageName: "_ZNKSt15__exception_ptr13exception_ptr20__cxa_exception_typeEv", scope: !414, file: !415, line: 154, type: !464, scopeLine: 154, flags: DIFlagPublic | DIFlagPrototyped, spFlags: 0)
!464 = !DISubroutineType(types: !465)
!465 = !{!466, !431}
!466 = !DIDerivedType(tag: DW_TAG_pointer_type, baseType: !467, size: 64)
!467 = !DIDerivedType(tag: DW_TAG_const_type, baseType: !468)
!468 = !DICompositeType(tag: DW_TAG_class_type, name: "type_info", scope: !58, file: !469, line: 88, flags: DIFlagFwdDecl)
!469 = !DIFile(filename: "/usr/lib/gcc/x86_64-linux-gnu/10/../../../../include/c++/10/typeinfo", directory: "")
!470 = !DIImportedEntity(tag: DW_TAG_imported_declaration, scope: !416, entity: !471, file: !415, line: 74)
!471 = !DISubprogram(name: "rethrow_exception", linkageName: "_ZSt17rethrow_exceptionNSt15__exception_ptr13exception_ptrE", scope: !58, file: !415, line: 70, type: !472, flags: DIFlagPrototyped | DIFlagNoReturn, spFlags: 0)
!472 = !DISubroutineType(types: !473)
!473 = !{null, !414}
!474 = !{i32 7, !"Dwarf Version", i32 4}
!475 = !{i32 2, !"Debug Info Version", i32 3}
!476 = !{i32 1, !"wchar_size", i32 4}
!477 = !{!"clang version 10.0.1 (https://github.com/svkeerthy/IR2Vec-LoopOptimizationFramework.git 561ac470e63b728263a0ac06ef987886ac648486)"}
!478 = distinct !DISubprogram(name: "ComputeList", linkageName: "_ZN11ComputeListC2Ev", scope: !479, file: !1, line: 11, type: !784, scopeLine: 11, flags: DIFlagPrototyped, spFlags: DISPFlagDefinition, unit: !0, declaration: !783, retainedNodes: !794)
!479 = distinct !DICompositeType(tag: DW_TAG_class_type, name: "ComputeList", file: !480, line: 16, size: 192, flags: DIFlagTypePassByReference | DIFlagNonTrivial, elements: !481, identifier: "_ZTS11ComputeList")
!480 = !DIFile(filename: "./ComputeList.h", directory: "/home/venkat/IF-DV/spec_build_release/CPU_2017/benchspec/CPU/508.namd_r/build/build_base_ld-loop-ext-m64.0000")
!481 = !{!482, !483, !484, !763, !783, !787, !788, !791}
!482 = !DIDerivedType(tag: DW_TAG_member, name: "numSelfComputes", scope: !479, file: !480, line: 19, baseType: !12, size: 32, flags: DIFlagPublic)
!483 = !DIDerivedType(tag: DW_TAG_member, name: "numPairComputes", scope: !479, file: !480, line: 20, baseType: !12, size: 32, offset: 32, flags: DIFlagPublic)
!484 = !DIDerivedType(tag: DW_TAG_member, name: "selfComputes", scope: !479, file: !480, line: 22, baseType: !485, size: 64, offset: 64, flags: DIFlagPublic)
!485 = !DIDerivedType(tag: DW_TAG_pointer_type, baseType: !486, size: 64)
!486 = distinct !DICompositeType(tag: DW_TAG_class_type, name: "SelfCompute", file: !487, line: 14, size: 320, flags: DIFlagTypePassByReference | DIFlagNonTrivial, elements: !488, identifier: "_ZTS11SelfCompute")
!487 = !DIFile(filename: "./Compute.h", directory: "/home/venkat/IF-DV/spec_build_release/CPU_2017/benchspec/CPU/508.namd_r/build/build_base_ld-loop-ext-m64.0000")
!488 = !{!489, !712, !713, !714, !715, !716, !720, !721}
!489 = !DIDerivedType(tag: DW_TAG_inheritance, scope: !486, baseType: !490, extraData: i32 0)
!490 = distinct !DICompositeType(tag: DW_TAG_class_type, name: "ComputeNonbondedUtil", file: !4, line: 214, size: 8, flags: DIFlagTypePassByReference | DIFlagNonTrivial, elements: !491, identifier: "_ZTS20ComputeNonbondedUtil")
!491 = !{!492, !498, !499, !500, !501, !502, !503, !504, !505, !506, !507, !508, !509, !510, !511, !512, !513, !516, !517, !519, !520, !521, !522, !523, !527, !532, !533, !534, !535, !536, !537, !539, !540, !541, !542, !543, !544, !545, !546, !547, !548, !549, !550, !551, !552, !553, !554, !555, !556, !557, !558, !559, !560, !561, !562, !563, !564, !565, !566, !567, !568, !569, !570, !571, !572, !573, !574, !575, !576, !577, !578, !579, !580, !581, !582, !583, !584, !585, !586, !587, !588, !589, !590, !591, !592, !593, !594, !595, !599, !600, !607, !612, !613, !614, !615, !616, !617, !618, !619, !620, !621, !622, !623, !624, !625, !626, !627, !628, !629, !630, !631, !632, !633, !634, !635, !636, !637, !638, !639, !640, !641, !642, !643, !644, !645, !646, !647, !648, !649, !650, !651, !652, !653, !654, !655, !656, !657, !658, !659, !660, !661, !662, !663, !664, !665, !666, !667, !668, !669, !670, !671, !672, !673, !674, !675, !676, !677, !678, !679, !680, !681, !682, !683, !684, !685, !686, !687, !688, !689, !690, !691, !692, !693, !694, !695, !696, !697, !698, !699, !700, !701, !702, !703, !704, !705, !706, !707}
!492 = !DIDerivedType(tag: DW_TAG_member, name: "calcPair", scope: !490, file: !4, line: 223, baseType: !493, flags: DIFlagPublic | DIFlagStaticMember)
!493 = !DIDerivedType(tag: DW_TAG_pointer_type, baseType: !494, size: 64)
!494 = !DISubroutineType(types: !495)
!495 = !{null, !496}
!496 = !DIDerivedType(tag: DW_TAG_pointer_type, baseType: !497, size: 64)
!497 = !DICompositeType(tag: DW_TAG_structure_type, name: "nonbonded", file: !4, line: 171, flags: DIFlagFwdDecl, identifier: "_ZTS9nonbonded")
!498 = !DIDerivedType(tag: DW_TAG_member, name: "calcPairEnergy", scope: !490, file: !4, line: 224, baseType: !493, flags: DIFlagPublic | DIFlagStaticMember)
!499 = !DIDerivedType(tag: DW_TAG_member, name: "calcSelf", scope: !490, file: !4, line: 225, baseType: !493, flags: DIFlagPublic | DIFlagStaticMember)
!500 = !DIDerivedType(tag: DW_TAG_member, name: "calcSelfEnergy", scope: !490, file: !4, line: 226, baseType: !493, flags: DIFlagPublic | DIFlagStaticMember)
!501 = !DIDerivedType(tag: DW_TAG_member, name: "calcFullPair", scope: !490, file: !4, line: 228, baseType: !493, flags: DIFlagPublic | DIFlagStaticMember)
!502 = !DIDerivedType(tag: DW_TAG_member, name: "calcFullPairEnergy", scope: !490, file: !4, line: 229, baseType: !493, flags: DIFlagPublic | DIFlagStaticMember)
!503 = !DIDerivedType(tag: DW_TAG_member, name: "calcFullSelf", scope: !490, file: !4, line: 230, baseType: !493, flags: DIFlagPublic | DIFlagStaticMember)
!504 = !DIDerivedType(tag: DW_TAG_member, name: "calcFullSelfEnergy", scope: !490, file: !4, line: 231, baseType: !493, flags: DIFlagPublic | DIFlagStaticMember)
!505 = !DIDerivedType(tag: DW_TAG_member, name: "calcMergePair", scope: !490, file: !4, line: 233, baseType: !493, flags: DIFlagPublic | DIFlagStaticMember)
!506 = !DIDerivedType(tag: DW_TAG_member, name: "calcMergePairEnergy", scope: !490, file: !4, line: 234, baseType: !493, flags: DIFlagPublic | DIFlagStaticMember)
!507 = !DIDerivedType(tag: DW_TAG_member, name: "calcMergeSelf", scope: !490, file: !4, line: 235, baseType: !493, flags: DIFlagPublic | DIFlagStaticMember)
!508 = !DIDerivedType(tag: DW_TAG_member, name: "calcMergeSelfEnergy", scope: !490, file: !4, line: 236, baseType: !493, flags: DIFlagPublic | DIFlagStaticMember)
!509 = !DIDerivedType(tag: DW_TAG_member, name: "calcSlowPair", scope: !490, file: !4, line: 238, baseType: !493, flags: DIFlagPublic | DIFlagStaticMember)
!510 = !DIDerivedType(tag: DW_TAG_member, name: "calcSlowPairEnergy", scope: !490, file: !4, line: 239, baseType: !493, flags: DIFlagPublic | DIFlagStaticMember)
!511 = !DIDerivedType(tag: DW_TAG_member, name: "calcSlowSelf", scope: !490, file: !4, line: 240, baseType: !493, flags: DIFlagPublic | DIFlagStaticMember)
!512 = !DIDerivedType(tag: DW_TAG_member, name: "calcSlowSelfEnergy", scope: !490, file: !4, line: 241, baseType: !493, flags: DIFlagPublic | DIFlagStaticMember)
!513 = !DIDerivedType(tag: DW_TAG_member, name: "commOnly", scope: !490, file: !4, line: 258, baseType: !514, flags: DIFlagPublic | DIFlagStaticMember)
!514 = !DIDerivedType(tag: DW_TAG_typedef, name: "Bool", file: !515, line: 83, baseType: !12)
!515 = !DIFile(filename: "./common.h", directory: "/home/venkat/IF-DV/spec_build_release/CPU_2017/benchspec/CPU/508.namd_r/build/build_base_ld-loop-ext-m64.0000")
!516 = !DIDerivedType(tag: DW_TAG_member, name: "fixedAtomsOn", scope: !490, file: !4, line: 259, baseType: !514, flags: DIFlagPublic | DIFlagStaticMember)
!517 = !DIDerivedType(tag: DW_TAG_member, name: "cutoff", scope: !490, file: !4, line: 260, baseType: !518, flags: DIFlagPublic | DIFlagStaticMember)
!518 = !DIDerivedType(tag: DW_TAG_typedef, name: "BigReal", file: !515, line: 65, baseType: !69)
!519 = !DIDerivedType(tag: DW_TAG_member, name: "cutoff2", scope: !490, file: !4, line: 261, baseType: !518, flags: DIFlagPublic | DIFlagStaticMember)
!520 = !DIDerivedType(tag: DW_TAG_member, name: "pairlistdist", scope: !490, file: !4, line: 262, baseType: !518, flags: DIFlagPublic | DIFlagStaticMember)
!521 = !DIDerivedType(tag: DW_TAG_member, name: "hgroupcutoff", scope: !490, file: !4, line: 263, baseType: !518, flags: DIFlagPublic | DIFlagStaticMember)
!522 = !DIDerivedType(tag: DW_TAG_member, name: "dielectric_1", scope: !490, file: !4, line: 264, baseType: !518, flags: DIFlagPublic | DIFlagStaticMember)
!523 = !DIDerivedType(tag: DW_TAG_member, name: "ljTable", scope: !490, file: !4, line: 265, baseType: !524, flags: DIFlagPublic | DIFlagStaticMember)
!524 = !DIDerivedType(tag: DW_TAG_pointer_type, baseType: !525, size: 64)
!525 = !DIDerivedType(tag: DW_TAG_const_type, baseType: !526)
!526 = !DICompositeType(tag: DW_TAG_class_type, name: "LJTable", file: !4, line: 18, flags: DIFlagFwdDecl, identifier: "_ZTS7LJTable")
!527 = !DIDerivedType(tag: DW_TAG_member, name: "mol", scope: !490, file: !4, line: 266, baseType: !528, flags: DIFlagPublic | DIFlagStaticMember)
!528 = !DIDerivedType(tag: DW_TAG_pointer_type, baseType: !529, size: 64)
!529 = !DIDerivedType(tag: DW_TAG_const_type, baseType: !530)
!530 = !DICompositeType(tag: DW_TAG_class_type, name: "Molecule", file: !531, line: 36, flags: DIFlagFwdDecl, identifier: "_ZTS8Molecule")
!531 = !DIFile(filename: "./Molecule.h", directory: "/home/venkat/IF-DV/spec_build_release/CPU_2017/benchspec/CPU/508.namd_r/build/build_base_ld-loop-ext-m64.0000")
!532 = !DIDerivedType(tag: DW_TAG_member, name: "r2_delta", scope: !490, file: !4, line: 267, baseType: !518, flags: DIFlagPublic | DIFlagStaticMember)
!533 = !DIDerivedType(tag: DW_TAG_member, name: "r2_delta_1", scope: !490, file: !4, line: 267, baseType: !518, flags: DIFlagPublic | DIFlagStaticMember)
!534 = !DIDerivedType(tag: DW_TAG_member, name: "rowsize", scope: !490, file: !4, line: 268, baseType: !12, flags: DIFlagPublic | DIFlagStaticMember)
!535 = !DIDerivedType(tag: DW_TAG_member, name: "columnsize", scope: !490, file: !4, line: 269, baseType: !12, flags: DIFlagPublic | DIFlagStaticMember)
!536 = !DIDerivedType(tag: DW_TAG_member, name: "r2_delta_exp", scope: !490, file: !4, line: 270, baseType: !12, flags: DIFlagPublic | DIFlagStaticMember)
!537 = !DIDerivedType(tag: DW_TAG_member, name: "table_alloc", scope: !490, file: !4, line: 271, baseType: !538, flags: DIFlagPublic | DIFlagStaticMember)
!538 = !DIDerivedType(tag: DW_TAG_pointer_type, baseType: !518, size: 64)
!539 = !DIDerivedType(tag: DW_TAG_member, name: "table_ener", scope: !490, file: !4, line: 272, baseType: !538, flags: DIFlagPublic | DIFlagStaticMember)
!540 = !DIDerivedType(tag: DW_TAG_member, name: "table_short", scope: !490, file: !4, line: 273, baseType: !538, flags: DIFlagPublic | DIFlagStaticMember)
!541 = !DIDerivedType(tag: DW_TAG_member, name: "table_noshort", scope: !490, file: !4, line: 274, baseType: !538, flags: DIFlagPublic | DIFlagStaticMember)
!542 = !DIDerivedType(tag: DW_TAG_member, name: "fast_table", scope: !490, file: !4, line: 275, baseType: !538, flags: DIFlagPublic | DIFlagStaticMember)
!543 = !DIDerivedType(tag: DW_TAG_member, name: "scor_table", scope: !490, file: !4, line: 276, baseType: !538, flags: DIFlagPublic | DIFlagStaticMember)
!544 = !DIDerivedType(tag: DW_TAG_member, name: "slow_table", scope: !490, file: !4, line: 277, baseType: !538, flags: DIFlagPublic | DIFlagStaticMember)
!545 = !DIDerivedType(tag: DW_TAG_member, name: "corr_table", scope: !490, file: !4, line: 278, baseType: !538, flags: DIFlagPublic | DIFlagStaticMember)
!546 = !DIDerivedType(tag: DW_TAG_member, name: "full_table", scope: !490, file: !4, line: 279, baseType: !538, flags: DIFlagPublic | DIFlagStaticMember)
!547 = !DIDerivedType(tag: DW_TAG_member, name: "vdwa_table", scope: !490, file: !4, line: 280, baseType: !538, flags: DIFlagPublic | DIFlagStaticMember)
!548 = !DIDerivedType(tag: DW_TAG_member, name: "vdwb_table", scope: !490, file: !4, line: 281, baseType: !538, flags: DIFlagPublic | DIFlagStaticMember)
!549 = !DIDerivedType(tag: DW_TAG_member, name: "r2_table", scope: !490, file: !4, line: 282, baseType: !538, flags: DIFlagPublic | DIFlagStaticMember)
!550 = !DIDerivedType(tag: DW_TAG_member, name: "scaling", scope: !490, file: !4, line: 283, baseType: !518, flags: DIFlagPublic | DIFlagStaticMember)
!551 = !DIDerivedType(tag: DW_TAG_member, name: "scale14", scope: !490, file: !4, line: 284, baseType: !518, flags: DIFlagPublic | DIFlagStaticMember)
!552 = !DIDerivedType(tag: DW_TAG_member, name: "switchOn", scope: !490, file: !4, line: 285, baseType: !518, flags: DIFlagPublic | DIFlagStaticMember)
!553 = !DIDerivedType(tag: DW_TAG_member, name: "switchOn_1", scope: !490, file: !4, line: 286, baseType: !518, flags: DIFlagPublic | DIFlagStaticMember)
!554 = !DIDerivedType(tag: DW_TAG_member, name: "switchOn2", scope: !490, file: !4, line: 287, baseType: !518, flags: DIFlagPublic | DIFlagStaticMember)
!555 = !DIDerivedType(tag: DW_TAG_member, name: "v_vdwa", scope: !490, file: !4, line: 288, baseType: !518, flags: DIFlagPublic | DIFlagStaticMember)
!556 = !DIDerivedType(tag: DW_TAG_member, name: "v_vdwb", scope: !490, file: !4, line: 289, baseType: !518, flags: DIFlagPublic | DIFlagStaticMember)
!557 = !DIDerivedType(tag: DW_TAG_member, name: "k_vdwa", scope: !490, file: !4, line: 290, baseType: !518, flags: DIFlagPublic | DIFlagStaticMember)
!558 = !DIDerivedType(tag: DW_TAG_member, name: "k_vdwb", scope: !490, file: !4, line: 291, baseType: !518, flags: DIFlagPublic | DIFlagStaticMember)
!559 = !DIDerivedType(tag: DW_TAG_member, name: "cutoff_3", scope: !490, file: !4, line: 292, baseType: !518, flags: DIFlagPublic | DIFlagStaticMember)
!560 = !DIDerivedType(tag: DW_TAG_member, name: "cutoff_6", scope: !490, file: !4, line: 293, baseType: !518, flags: DIFlagPublic | DIFlagStaticMember)
!561 = !DIDerivedType(tag: DW_TAG_member, name: "c0", scope: !490, file: !4, line: 294, baseType: !518, flags: DIFlagPublic | DIFlagStaticMember)
!562 = !DIDerivedType(tag: DW_TAG_member, name: "c1", scope: !490, file: !4, line: 295, baseType: !518, flags: DIFlagPublic | DIFlagStaticMember)
!563 = !DIDerivedType(tag: DW_TAG_member, name: "c3", scope: !490, file: !4, line: 296, baseType: !518, flags: DIFlagPublic | DIFlagStaticMember)
!564 = !DIDerivedType(tag: DW_TAG_member, name: "c5", scope: !490, file: !4, line: 297, baseType: !518, flags: DIFlagPublic | DIFlagStaticMember)
!565 = !DIDerivedType(tag: DW_TAG_member, name: "c6", scope: !490, file: !4, line: 298, baseType: !518, flags: DIFlagPublic | DIFlagStaticMember)
!566 = !DIDerivedType(tag: DW_TAG_member, name: "c7", scope: !490, file: !4, line: 299, baseType: !518, flags: DIFlagPublic | DIFlagStaticMember)
!567 = !DIDerivedType(tag: DW_TAG_member, name: "c8", scope: !490, file: !4, line: 300, baseType: !518, flags: DIFlagPublic | DIFlagStaticMember)
!568 = !DIDerivedType(tag: DW_TAG_member, name: "alchFepOn", scope: !490, file: !4, line: 303, baseType: !514, flags: DIFlagPublic | DIFlagStaticMember)
!569 = !DIDerivedType(tag: DW_TAG_member, name: "alchThermIntOn", scope: !490, file: !4, line: 304, baseType: !514, flags: DIFlagPublic | DIFlagStaticMember)
!570 = !DIDerivedType(tag: DW_TAG_member, name: "alchLambda", scope: !490, file: !4, line: 305, baseType: !518, flags: DIFlagPublic | DIFlagStaticMember)
!571 = !DIDerivedType(tag: DW_TAG_member, name: "alchLambda2", scope: !490, file: !4, line: 306, baseType: !518, flags: DIFlagPublic | DIFlagStaticMember)
!572 = !DIDerivedType(tag: DW_TAG_member, name: "alchVdwShiftCoeff", scope: !490, file: !4, line: 307, baseType: !518, flags: DIFlagPublic | DIFlagStaticMember)
!573 = !DIDerivedType(tag: DW_TAG_member, name: "alchElecLambdaStart", scope: !490, file: !4, line: 308, baseType: !518, flags: DIFlagPublic | DIFlagStaticMember)
!574 = !DIDerivedType(tag: DW_TAG_member, name: "alchVdwLambdaEnd", scope: !490, file: !4, line: 309, baseType: !518, flags: DIFlagPublic | DIFlagStaticMember)
!575 = !DIDerivedType(tag: DW_TAG_member, name: "Fep_WCA_repuOn", scope: !490, file: !4, line: 310, baseType: !514, flags: DIFlagPublic | DIFlagStaticMember)
!576 = !DIDerivedType(tag: DW_TAG_member, name: "Fep_WCA_dispOn", scope: !490, file: !4, line: 311, baseType: !514, flags: DIFlagPublic | DIFlagStaticMember)
!577 = !DIDerivedType(tag: DW_TAG_member, name: "WCA_rcut1", scope: !490, file: !4, line: 312, baseType: !518, flags: DIFlagPublic | DIFlagStaticMember)
!578 = !DIDerivedType(tag: DW_TAG_member, name: "WCA_rcut2", scope: !490, file: !4, line: 313, baseType: !518, flags: DIFlagPublic | DIFlagStaticMember)
!579 = !DIDerivedType(tag: DW_TAG_member, name: "alchDecouple", scope: !490, file: !4, line: 314, baseType: !514, flags: DIFlagPublic | DIFlagStaticMember)
!580 = !DIDerivedType(tag: DW_TAG_member, name: "lesOn", scope: !490, file: !4, line: 316, baseType: !514, flags: DIFlagPublic | DIFlagStaticMember)
!581 = !DIDerivedType(tag: DW_TAG_member, name: "lesFactor", scope: !490, file: !4, line: 317, baseType: !12, flags: DIFlagPublic | DIFlagStaticMember)
!582 = !DIDerivedType(tag: DW_TAG_member, name: "lesScaling", scope: !490, file: !4, line: 318, baseType: !518, flags: DIFlagPublic | DIFlagStaticMember)
!583 = !DIDerivedType(tag: DW_TAG_member, name: "lambda_table", scope: !490, file: !4, line: 320, baseType: !538, flags: DIFlagPublic | DIFlagStaticMember)
!584 = !DIDerivedType(tag: DW_TAG_member, name: "pairInteractionOn", scope: !490, file: !4, line: 322, baseType: !514, flags: DIFlagPublic | DIFlagStaticMember)
!585 = !DIDerivedType(tag: DW_TAG_member, name: "pairInteractionSelf", scope: !490, file: !4, line: 323, baseType: !514, flags: DIFlagPublic | DIFlagStaticMember)
!586 = !DIDerivedType(tag: DW_TAG_member, name: "pressureProfileOn", scope: !490, file: !4, line: 325, baseType: !514, flags: DIFlagPublic | DIFlagStaticMember)
!587 = !DIDerivedType(tag: DW_TAG_member, name: "pressureProfileSlabs", scope: !490, file: !4, line: 326, baseType: !12, flags: DIFlagPublic | DIFlagStaticMember)
!588 = !DIDerivedType(tag: DW_TAG_member, name: "pressureProfileAtomTypes", scope: !490, file: !4, line: 327, baseType: !12, flags: DIFlagPublic | DIFlagStaticMember)
!589 = !DIDerivedType(tag: DW_TAG_member, name: "pressureProfileThickness", scope: !490, file: !4, line: 328, baseType: !518, flags: DIFlagPublic | DIFlagStaticMember)
!590 = !DIDerivedType(tag: DW_TAG_member, name: "pressureProfileMin", scope: !490, file: !4, line: 329, baseType: !518, flags: DIFlagPublic | DIFlagStaticMember)
!591 = !DIDerivedType(tag: DW_TAG_member, name: "accelMDOn", scope: !490, file: !4, line: 331, baseType: !514, flags: DIFlagPublic | DIFlagStaticMember)
!592 = !DIDerivedType(tag: DW_TAG_member, name: "drudeNbthole", scope: !490, file: !4, line: 333, baseType: !514, flags: DIFlagPublic | DIFlagStaticMember)
!593 = !DIDerivedType(tag: DW_TAG_member, name: "ewaldcof", scope: !490, file: !4, line: 336, baseType: !518, flags: DIFlagPublic | DIFlagStaticMember)
!594 = !DIDerivedType(tag: DW_TAG_member, name: "pi_ewaldcof", scope: !490, file: !4, line: 337, baseType: !518, flags: DIFlagPublic | DIFlagStaticMember)
!595 = !DISubprogram(name: "ComputeNonbondedUtil", scope: !490, file: !4, line: 218, type: !596, scopeLine: 218, flags: DIFlagPublic | DIFlagPrototyped, spFlags: 0)
!596 = !DISubroutineType(types: !597)
!597 = !{null, !598}
!598 = !DIDerivedType(tag: DW_TAG_pointer_type, baseType: !490, size: 64, flags: DIFlagArtificial | DIFlagObjectPointer)
!599 = !DISubprogram(name: "~ComputeNonbondedUtil", scope: !490, file: !4, line: 219, type: !596, scopeLine: 219, flags: DIFlagPublic | DIFlagPrototyped, spFlags: 0)
!600 = !DISubprogram(name: "select", linkageName: "_ZN20ComputeNonbondedUtil6selectEP13SimParametersP8MoleculeP7LJTable", scope: !490, file: !4, line: 220, type: !601, scopeLine: 220, flags: DIFlagPublic | DIFlagPrototyped | DIFlagStaticMember, spFlags: 0)
!601 = !DISubroutineType(types: !602)
!602 = !{null, !603, !605, !606}
!603 = !DIDerivedType(tag: DW_TAG_pointer_type, baseType: !604, size: 64)
!604 = !DICompositeType(tag: DW_TAG_class_type, name: "SimParameters", file: !4, line: 20, flags: DIFlagFwdDecl, identifier: "_ZTS13SimParameters")
!605 = !DIDerivedType(tag: DW_TAG_pointer_type, baseType: !530, size: 64)
!606 = !DIDerivedType(tag: DW_TAG_pointer_type, baseType: !526, size: 64)
!607 = !DISubprogram(name: "square", linkageName: "_ZN20ComputeNonbondedUtil6squareERKdS1_S1_", scope: !490, file: !4, line: 340, type: !608, scopeLine: 340, flags: DIFlagPublic | DIFlagPrototyped | DIFlagStaticMember, spFlags: 0)
!608 = !DISubroutineType(types: !609)
!609 = !{!518, !610, !610, !610}
!610 = !DIDerivedType(tag: DW_TAG_reference_type, baseType: !611, size: 64)
!611 = !DIDerivedType(tag: DW_TAG_const_type, baseType: !518)
!612 = !DISubprogram(name: "calc_error", linkageName: "_ZN20ComputeNonbondedUtil10calc_errorEP9nonbonded", scope: !490, file: !4, line: 347, type: !494, scopeLine: 347, flags: DIFlagPublic | DIFlagPrototyped | DIFlagStaticMember, spFlags: 0)
!613 = !DISubprogram(name: "calc_pair", linkageName: "_ZN20ComputeNonbondedUtil9calc_pairEP9nonbonded", scope: !490, file: !4, line: 349, type: !494, scopeLine: 349, flags: DIFlagPublic | DIFlagPrototyped | DIFlagStaticMember, spFlags: 0)
!614 = !DISubprogram(name: "calc_pair_energy", linkageName: "_ZN20ComputeNonbondedUtil16calc_pair_energyEP9nonbonded", scope: !490, file: !4, line: 350, type: !494, scopeLine: 350, flags: DIFlagPublic | DIFlagPrototyped | DIFlagStaticMember, spFlags: 0)
!615 = !DISubprogram(name: "calc_pair_fullelect", linkageName: "_ZN20ComputeNonbondedUtil19calc_pair_fullelectEP9nonbonded", scope: !490, file: !4, line: 351, type: !494, scopeLine: 351, flags: DIFlagPublic | DIFlagPrototyped | DIFlagStaticMember, spFlags: 0)
!616 = !DISubprogram(name: "calc_pair_energy_fullelect", linkageName: "_ZN20ComputeNonbondedUtil26calc_pair_energy_fullelectEP9nonbonded", scope: !490, file: !4, line: 352, type: !494, scopeLine: 352, flags: DIFlagPublic | DIFlagPrototyped | DIFlagStaticMember, spFlags: 0)
!617 = !DISubprogram(name: "calc_pair_merge_fullelect", linkageName: "_ZN20ComputeNonbondedUtil25calc_pair_merge_fullelectEP9nonbonded", scope: !490, file: !4, line: 353, type: !494, scopeLine: 353, flags: DIFlagPublic | DIFlagPrototyped | DIFlagStaticMember, spFlags: 0)
!618 = !DISubprogram(name: "calc_pair_energy_merge_fullelect", linkageName: "_ZN20ComputeNonbondedUtil32calc_pair_energy_merge_fullelectEP9nonbonded", scope: !490, file: !4, line: 354, type: !494, scopeLine: 354, flags: DIFlagPublic | DIFlagPrototyped | DIFlagStaticMember, spFlags: 0)
!619 = !DISubprogram(name: "calc_pair_slow_fullelect", linkageName: "_ZN20ComputeNonbondedUtil24calc_pair_slow_fullelectEP9nonbonded", scope: !490, file: !4, line: 355, type: !494, scopeLine: 355, flags: DIFlagPublic | DIFlagPrototyped | DIFlagStaticMember, spFlags: 0)
!620 = !DISubprogram(name: "calc_pair_energy_slow_fullelect", linkageName: "_ZN20ComputeNonbondedUtil31calc_pair_energy_slow_fullelectEP9nonbonded", scope: !490, file: !4, line: 356, type: !494, scopeLine: 356, flags: DIFlagPublic | DIFlagPrototyped | DIFlagStaticMember, spFlags: 0)
!621 = !DISubprogram(name: "calc_self", linkageName: "_ZN20ComputeNonbondedUtil9calc_selfEP9nonbonded", scope: !490, file: !4, line: 358, type: !494, scopeLine: 358, flags: DIFlagPublic | DIFlagPrototyped | DIFlagStaticMember, spFlags: 0)
!622 = !DISubprogram(name: "calc_self_energy", linkageName: "_ZN20ComputeNonbondedUtil16calc_self_energyEP9nonbonded", scope: !490, file: !4, line: 359, type: !494, scopeLine: 359, flags: DIFlagPublic | DIFlagPrototyped | DIFlagStaticMember, spFlags: 0)
!623 = !DISubprogram(name: "calc_self_fullelect", linkageName: "_ZN20ComputeNonbondedUtil19calc_self_fullelectEP9nonbonded", scope: !490, file: !4, line: 360, type: !494, scopeLine: 360, flags: DIFlagPublic | DIFlagPrototyped | DIFlagStaticMember, spFlags: 0)
!624 = !DISubprogram(name: "calc_self_energy_fullelect", linkageName: "_ZN20ComputeNonbondedUtil26calc_self_energy_fullelectEP9nonbonded", scope: !490, file: !4, line: 361, type: !494, scopeLine: 361, flags: DIFlagPublic | DIFlagPrototyped | DIFlagStaticMember, spFlags: 0)
!625 = !DISubprogram(name: "calc_self_merge_fullelect", linkageName: "_ZN20ComputeNonbondedUtil25calc_self_merge_fullelectEP9nonbonded", scope: !490, file: !4, line: 362, type: !494, scopeLine: 362, flags: DIFlagPublic | DIFlagPrototyped | DIFlagStaticMember, spFlags: 0)
!626 = !DISubprogram(name: "calc_self_energy_merge_fullelect", linkageName: "_ZN20ComputeNonbondedUtil32calc_self_energy_merge_fullelectEP9nonbonded", scope: !490, file: !4, line: 363, type: !494, scopeLine: 363, flags: DIFlagPublic | DIFlagPrototyped | DIFlagStaticMember, spFlags: 0)
!627 = !DISubprogram(name: "calc_self_slow_fullelect", linkageName: "_ZN20ComputeNonbondedUtil24calc_self_slow_fullelectEP9nonbonded", scope: !490, file: !4, line: 364, type: !494, scopeLine: 364, flags: DIFlagPublic | DIFlagPrototyped | DIFlagStaticMember, spFlags: 0)
!628 = !DISubprogram(name: "calc_self_energy_slow_fullelect", linkageName: "_ZN20ComputeNonbondedUtil31calc_self_energy_slow_fullelectEP9nonbonded", scope: !490, file: !4, line: 365, type: !494, scopeLine: 365, flags: DIFlagPublic | DIFlagPrototyped | DIFlagStaticMember, spFlags: 0)
!629 = !DISubprogram(name: "calc_pair_energy_fep", linkageName: "_ZN20ComputeNonbondedUtil20calc_pair_energy_fepEP9nonbonded", scope: !490, file: !4, line: 368, type: !494, scopeLine: 368, flags: DIFlagPublic | DIFlagPrototyped | DIFlagStaticMember, spFlags: 0)
!630 = !DISubprogram(name: "calc_pair_energy_fullelect_fep", linkageName: "_ZN20ComputeNonbondedUtil30calc_pair_energy_fullelect_fepEP9nonbonded", scope: !490, file: !4, line: 369, type: !494, scopeLine: 369, flags: DIFlagPublic | DIFlagPrototyped | DIFlagStaticMember, spFlags: 0)
!631 = !DISubprogram(name: "calc_pair_energy_merge_fullelect_fep", linkageName: "_ZN20ComputeNonbondedUtil36calc_pair_energy_merge_fullelect_fepEP9nonbonded", scope: !490, file: !4, line: 370, type: !494, scopeLine: 370, flags: DIFlagPublic | DIFlagPrototyped | DIFlagStaticMember, spFlags: 0)
!632 = !DISubprogram(name: "calc_pair_energy_slow_fullelect_fep", linkageName: "_ZN20ComputeNonbondedUtil35calc_pair_energy_slow_fullelect_fepEP9nonbonded", scope: !490, file: !4, line: 371, type: !494, scopeLine: 371, flags: DIFlagPublic | DIFlagPrototyped | DIFlagStaticMember, spFlags: 0)
!633 = !DISubprogram(name: "calc_self_energy_fep", linkageName: "_ZN20ComputeNonbondedUtil20calc_self_energy_fepEP9nonbonded", scope: !490, file: !4, line: 372, type: !494, scopeLine: 372, flags: DIFlagPublic | DIFlagPrototyped | DIFlagStaticMember, spFlags: 0)
!634 = !DISubprogram(name: "calc_self_energy_fullelect_fep", linkageName: "_ZN20ComputeNonbondedUtil30calc_self_energy_fullelect_fepEP9nonbonded", scope: !490, file: !4, line: 373, type: !494, scopeLine: 373, flags: DIFlagPublic | DIFlagPrototyped | DIFlagStaticMember, spFlags: 0)
!635 = !DISubprogram(name: "calc_self_energy_merge_fullelect_fep", linkageName: "_ZN20ComputeNonbondedUtil36calc_self_energy_merge_fullelect_fepEP9nonbonded", scope: !490, file: !4, line: 374, type: !494, scopeLine: 374, flags: DIFlagPublic | DIFlagPrototyped | DIFlagStaticMember, spFlags: 0)
!636 = !DISubprogram(name: "calc_self_energy_slow_fullelect_fep", linkageName: "_ZN20ComputeNonbondedUtil35calc_self_energy_slow_fullelect_fepEP9nonbonded", scope: !490, file: !4, line: 375, type: !494, scopeLine: 375, flags: DIFlagPublic | DIFlagPrototyped | DIFlagStaticMember, spFlags: 0)
!637 = !DISubprogram(name: "calc_pair_energy_ti", linkageName: "_ZN20ComputeNonbondedUtil19calc_pair_energy_tiEP9nonbonded", scope: !490, file: !4, line: 377, type: !494, scopeLine: 377, flags: DIFlagPublic | DIFlagPrototyped | DIFlagStaticMember, spFlags: 0)
!638 = !DISubprogram(name: "calc_pair_ti", linkageName: "_ZN20ComputeNonbondedUtil12calc_pair_tiEP9nonbonded", scope: !490, file: !4, line: 378, type: !494, scopeLine: 378, flags: DIFlagPublic | DIFlagPrototyped | DIFlagStaticMember, spFlags: 0)
!639 = !DISubprogram(name: "calc_pair_energy_fullelect_ti", linkageName: "_ZN20ComputeNonbondedUtil29calc_pair_energy_fullelect_tiEP9nonbonded", scope: !490, file: !4, line: 379, type: !494, scopeLine: 379, flags: DIFlagPublic | DIFlagPrototyped | DIFlagStaticMember, spFlags: 0)
!640 = !DISubprogram(name: "calc_pair_fullelect_ti", linkageName: "_ZN20ComputeNonbondedUtil22calc_pair_fullelect_tiEP9nonbonded", scope: !490, file: !4, line: 380, type: !494, scopeLine: 380, flags: DIFlagPublic | DIFlagPrototyped | DIFlagStaticMember, spFlags: 0)
!641 = !DISubprogram(name: "calc_pair_energy_merge_fullelect_ti", linkageName: "_ZN20ComputeNonbondedUtil35calc_pair_energy_merge_fullelect_tiEP9nonbonded", scope: !490, file: !4, line: 381, type: !494, scopeLine: 381, flags: DIFlagPublic | DIFlagPrototyped | DIFlagStaticMember, spFlags: 0)
!642 = !DISubprogram(name: "calc_pair_merge_fullelect_ti", linkageName: "_ZN20ComputeNonbondedUtil28calc_pair_merge_fullelect_tiEP9nonbonded", scope: !490, file: !4, line: 382, type: !494, scopeLine: 382, flags: DIFlagPublic | DIFlagPrototyped | DIFlagStaticMember, spFlags: 0)
!643 = !DISubprogram(name: "calc_pair_energy_slow_fullelect_ti", linkageName: "_ZN20ComputeNonbondedUtil34calc_pair_energy_slow_fullelect_tiEP9nonbonded", scope: !490, file: !4, line: 383, type: !494, scopeLine: 383, flags: DIFlagPublic | DIFlagPrototyped | DIFlagStaticMember, spFlags: 0)
!644 = !DISubprogram(name: "calc_pair_slow_fullelect_ti", linkageName: "_ZN20ComputeNonbondedUtil27calc_pair_slow_fullelect_tiEP9nonbonded", scope: !490, file: !4, line: 384, type: !494, scopeLine: 384, flags: DIFlagPublic | DIFlagPrototyped | DIFlagStaticMember, spFlags: 0)
!645 = !DISubprogram(name: "calc_self_energy_ti", linkageName: "_ZN20ComputeNonbondedUtil19calc_self_energy_tiEP9nonbonded", scope: !490, file: !4, line: 385, type: !494, scopeLine: 385, flags: DIFlagPublic | DIFlagPrototyped | DIFlagStaticMember, spFlags: 0)
!646 = !DISubprogram(name: "calc_self_ti", linkageName: "_ZN20ComputeNonbondedUtil12calc_self_tiEP9nonbonded", scope: !490, file: !4, line: 386, type: !494, scopeLine: 386, flags: DIFlagPublic | DIFlagPrototyped | DIFlagStaticMember, spFlags: 0)
!647 = !DISubprogram(name: "calc_self_energy_fullelect_ti", linkageName: "_ZN20ComputeNonbondedUtil29calc_self_energy_fullelect_tiEP9nonbonded", scope: !490, file: !4, line: 387, type: !494, scopeLine: 387, flags: DIFlagPublic | DIFlagPrototyped | DIFlagStaticMember, spFlags: 0)
!648 = !DISubprogram(name: "calc_self_fullelect_ti", linkageName: "_ZN20ComputeNonbondedUtil22calc_self_fullelect_tiEP9nonbonded", scope: !490, file: !4, line: 388, type: !494, scopeLine: 388, flags: DIFlagPublic | DIFlagPrototyped | DIFlagStaticMember, spFlags: 0)
!649 = !DISubprogram(name: "calc_self_energy_merge_fullelect_ti", linkageName: "_ZN20ComputeNonbondedUtil35calc_self_energy_merge_fullelect_tiEP9nonbonded", scope: !490, file: !4, line: 389, type: !494, scopeLine: 389, flags: DIFlagPublic | DIFlagPrototyped | DIFlagStaticMember, spFlags: 0)
!650 = !DISubprogram(name: "calc_self_merge_fullelect_ti", linkageName: "_ZN20ComputeNonbondedUtil28calc_self_merge_fullelect_tiEP9nonbonded", scope: !490, file: !4, line: 390, type: !494, scopeLine: 390, flags: DIFlagPublic | DIFlagPrototyped | DIFlagStaticMember, spFlags: 0)
!651 = !DISubprogram(name: "calc_self_energy_slow_fullelect_ti", linkageName: "_ZN20ComputeNonbondedUtil34calc_self_energy_slow_fullelect_tiEP9nonbonded", scope: !490, file: !4, line: 391, type: !494, scopeLine: 391, flags: DIFlagPublic | DIFlagPrototyped | DIFlagStaticMember, spFlags: 0)
!652 = !DISubprogram(name: "calc_self_slow_fullelect_ti", linkageName: "_ZN20ComputeNonbondedUtil27calc_self_slow_fullelect_tiEP9nonbonded", scope: !490, file: !4, line: 392, type: !494, scopeLine: 392, flags: DIFlagPublic | DIFlagPrototyped | DIFlagStaticMember, spFlags: 0)
!653 = !DISubprogram(name: "calc_pair_les", linkageName: "_ZN20ComputeNonbondedUtil13calc_pair_lesEP9nonbonded", scope: !490, file: !4, line: 395, type: !494, scopeLine: 395, flags: DIFlagPublic | DIFlagPrototyped | DIFlagStaticMember, spFlags: 0)
!654 = !DISubprogram(name: "calc_pair_energy_les", linkageName: "_ZN20ComputeNonbondedUtil20calc_pair_energy_lesEP9nonbonded", scope: !490, file: !4, line: 396, type: !494, scopeLine: 396, flags: DIFlagPublic | DIFlagPrototyped | DIFlagStaticMember, spFlags: 0)
!655 = !DISubprogram(name: "calc_pair_fullelect_les", linkageName: "_ZN20ComputeNonbondedUtil23calc_pair_fullelect_lesEP9nonbonded", scope: !490, file: !4, line: 397, type: !494, scopeLine: 397, flags: DIFlagPublic | DIFlagPrototyped | DIFlagStaticMember, spFlags: 0)
!656 = !DISubprogram(name: "calc_pair_energy_fullelect_les", linkageName: "_ZN20ComputeNonbondedUtil30calc_pair_energy_fullelect_lesEP9nonbonded", scope: !490, file: !4, line: 398, type: !494, scopeLine: 398, flags: DIFlagPublic | DIFlagPrototyped | DIFlagStaticMember, spFlags: 0)
!657 = !DISubprogram(name: "calc_pair_merge_fullelect_les", linkageName: "_ZN20ComputeNonbondedUtil29calc_pair_merge_fullelect_lesEP9nonbonded", scope: !490, file: !4, line: 399, type: !494, scopeLine: 399, flags: DIFlagPublic | DIFlagPrototyped | DIFlagStaticMember, spFlags: 0)
!658 = !DISubprogram(name: "calc_pair_energy_merge_fullelect_les", linkageName: "_ZN20ComputeNonbondedUtil36calc_pair_energy_merge_fullelect_lesEP9nonbonded", scope: !490, file: !4, line: 400, type: !494, scopeLine: 400, flags: DIFlagPublic | DIFlagPrototyped | DIFlagStaticMember, spFlags: 0)
!659 = !DISubprogram(name: "calc_pair_slow_fullelect_les", linkageName: "_ZN20ComputeNonbondedUtil28calc_pair_slow_fullelect_lesEP9nonbonded", scope: !490, file: !4, line: 401, type: !494, scopeLine: 401, flags: DIFlagPublic | DIFlagPrototyped | DIFlagStaticMember, spFlags: 0)
!660 = !DISubprogram(name: "calc_pair_energy_slow_fullelect_les", linkageName: "_ZN20ComputeNonbondedUtil35calc_pair_energy_slow_fullelect_lesEP9nonbonded", scope: !490, file: !4, line: 402, type: !494, scopeLine: 402, flags: DIFlagPublic | DIFlagPrototyped | DIFlagStaticMember, spFlags: 0)
!661 = !DISubprogram(name: "calc_self_les", linkageName: "_ZN20ComputeNonbondedUtil13calc_self_lesEP9nonbonded", scope: !490, file: !4, line: 403, type: !494, scopeLine: 403, flags: DIFlagPublic | DIFlagPrototyped | DIFlagStaticMember, spFlags: 0)
!662 = !DISubprogram(name: "calc_self_energy_les", linkageName: "_ZN20ComputeNonbondedUtil20calc_self_energy_lesEP9nonbonded", scope: !490, file: !4, line: 404, type: !494, scopeLine: 404, flags: DIFlagPublic | DIFlagPrototyped | DIFlagStaticMember, spFlags: 0)
!663 = !DISubprogram(name: "calc_self_fullelect_les", linkageName: "_ZN20ComputeNonbondedUtil23calc_self_fullelect_lesEP9nonbonded", scope: !490, file: !4, line: 405, type: !494, scopeLine: 405, flags: DIFlagPublic | DIFlagPrototyped | DIFlagStaticMember, spFlags: 0)
!664 = !DISubprogram(name: "calc_self_energy_fullelect_les", linkageName: "_ZN20ComputeNonbondedUtil30calc_self_energy_fullelect_lesEP9nonbonded", scope: !490, file: !4, line: 406, type: !494, scopeLine: 406, flags: DIFlagPublic | DIFlagPrototyped | DIFlagStaticMember, spFlags: 0)
!665 = !DISubprogram(name: "calc_self_merge_fullelect_les", linkageName: "_ZN20ComputeNonbondedUtil29calc_self_merge_fullelect_lesEP9nonbonded", scope: !490, file: !4, line: 407, type: !494, scopeLine: 407, flags: DIFlagPublic | DIFlagPrototyped | DIFlagStaticMember, spFlags: 0)
!666 = !DISubprogram(name: "calc_self_energy_merge_fullelect_les", linkageName: "_ZN20ComputeNonbondedUtil36calc_self_energy_merge_fullelect_lesEP9nonbonded", scope: !490, file: !4, line: 408, type: !494, scopeLine: 408, flags: DIFlagPublic | DIFlagPrototyped | DIFlagStaticMember, spFlags: 0)
!667 = !DISubprogram(name: "calc_self_slow_fullelect_les", linkageName: "_ZN20ComputeNonbondedUtil28calc_self_slow_fullelect_lesEP9nonbonded", scope: !490, file: !4, line: 409, type: !494, scopeLine: 409, flags: DIFlagPublic | DIFlagPrototyped | DIFlagStaticMember, spFlags: 0)
!668 = !DISubprogram(name: "calc_self_energy_slow_fullelect_les", linkageName: "_ZN20ComputeNonbondedUtil35calc_self_energy_slow_fullelect_lesEP9nonbonded", scope: !490, file: !4, line: 410, type: !494, scopeLine: 410, flags: DIFlagPublic | DIFlagPrototyped | DIFlagStaticMember, spFlags: 0)
!669 = !DISubprogram(name: "calc_pair_energy_int", linkageName: "_ZN20ComputeNonbondedUtil20calc_pair_energy_intEP9nonbonded", scope: !490, file: !4, line: 413, type: !494, scopeLine: 413, flags: DIFlagPublic | DIFlagPrototyped | DIFlagStaticMember, spFlags: 0)
!670 = !DISubprogram(name: "calc_pair_energy_fullelect_int", linkageName: "_ZN20ComputeNonbondedUtil30calc_pair_energy_fullelect_intEP9nonbonded", scope: !490, file: !4, line: 414, type: !494, scopeLine: 414, flags: DIFlagPublic | DIFlagPrototyped | DIFlagStaticMember, spFlags: 0)
!671 = !DISubprogram(name: "calc_pair_energy_merge_fullelect_int", linkageName: "_ZN20ComputeNonbondedUtil36calc_pair_energy_merge_fullelect_intEP9nonbonded", scope: !490, file: !4, line: 415, type: !494, scopeLine: 415, flags: DIFlagPublic | DIFlagPrototyped | DIFlagStaticMember, spFlags: 0)
!672 = !DISubprogram(name: "calc_self_energy_int", linkageName: "_ZN20ComputeNonbondedUtil20calc_self_energy_intEP9nonbonded", scope: !490, file: !4, line: 416, type: !494, scopeLine: 416, flags: DIFlagPublic | DIFlagPrototyped | DIFlagStaticMember, spFlags: 0)
!673 = !DISubprogram(name: "calc_self_energy_fullelect_int", linkageName: "_ZN20ComputeNonbondedUtil30calc_self_energy_fullelect_intEP9nonbonded", scope: !490, file: !4, line: 417, type: !494, scopeLine: 417, flags: DIFlagPublic | DIFlagPrototyped | DIFlagStaticMember, spFlags: 0)
!674 = !DISubprogram(name: "calc_self_energy_merge_fullelect_int", linkageName: "_ZN20ComputeNonbondedUtil36calc_self_energy_merge_fullelect_intEP9nonbonded", scope: !490, file: !4, line: 418, type: !494, scopeLine: 418, flags: DIFlagPublic | DIFlagPrototyped | DIFlagStaticMember, spFlags: 0)
!675 = !DISubprogram(name: "calc_pair_pprof", linkageName: "_ZN20ComputeNonbondedUtil15calc_pair_pprofEP9nonbonded", scope: !490, file: !4, line: 421, type: !494, scopeLine: 421, flags: DIFlagPublic | DIFlagPrototyped | DIFlagStaticMember, spFlags: 0)
!676 = !DISubprogram(name: "calc_pair_energy_pprof", linkageName: "_ZN20ComputeNonbondedUtil22calc_pair_energy_pprofEP9nonbonded", scope: !490, file: !4, line: 422, type: !494, scopeLine: 422, flags: DIFlagPublic | DIFlagPrototyped | DIFlagStaticMember, spFlags: 0)
!677 = !DISubprogram(name: "calc_pair_fullelect_pprof", linkageName: "_ZN20ComputeNonbondedUtil25calc_pair_fullelect_pprofEP9nonbonded", scope: !490, file: !4, line: 423, type: !494, scopeLine: 423, flags: DIFlagPublic | DIFlagPrototyped | DIFlagStaticMember, spFlags: 0)
!678 = !DISubprogram(name: "calc_pair_energy_fullelect_pprof", linkageName: "_ZN20ComputeNonbondedUtil32calc_pair_energy_fullelect_pprofEP9nonbonded", scope: !490, file: !4, line: 424, type: !494, scopeLine: 424, flags: DIFlagPublic | DIFlagPrototyped | DIFlagStaticMember, spFlags: 0)
!679 = !DISubprogram(name: "calc_pair_merge_fullelect_pprof", linkageName: "_ZN20ComputeNonbondedUtil31calc_pair_merge_fullelect_pprofEP9nonbonded", scope: !490, file: !4, line: 425, type: !494, scopeLine: 425, flags: DIFlagPublic | DIFlagPrototyped | DIFlagStaticMember, spFlags: 0)
!680 = !DISubprogram(name: "calc_pair_energy_merge_fullelect_pprof", linkageName: "_ZN20ComputeNonbondedUtil38calc_pair_energy_merge_fullelect_pprofEP9nonbonded", scope: !490, file: !4, line: 426, type: !494, scopeLine: 426, flags: DIFlagPublic | DIFlagPrototyped | DIFlagStaticMember, spFlags: 0)
!681 = !DISubprogram(name: "calc_pair_slow_fullelect_pprof", linkageName: "_ZN20ComputeNonbondedUtil30calc_pair_slow_fullelect_pprofEP9nonbonded", scope: !490, file: !4, line: 427, type: !494, scopeLine: 427, flags: DIFlagPublic | DIFlagPrototyped | DIFlagStaticMember, spFlags: 0)
!682 = !DISubprogram(name: "calc_pair_energy_slow_fullelect_pprof", linkageName: "_ZN20ComputeNonbondedUtil37calc_pair_energy_slow_fullelect_pprofEP9nonbonded", scope: !490, file: !4, line: 428, type: !494, scopeLine: 428, flags: DIFlagPublic | DIFlagPrototyped | DIFlagStaticMember, spFlags: 0)
!683 = !DISubprogram(name: "calc_self_pprof", linkageName: "_ZN20ComputeNonbondedUtil15calc_self_pprofEP9nonbonded", scope: !490, file: !4, line: 429, type: !494, scopeLine: 429, flags: DIFlagPublic | DIFlagPrototyped | DIFlagStaticMember, spFlags: 0)
!684 = !DISubprogram(name: "calc_self_energy_pprof", linkageName: "_ZN20ComputeNonbondedUtil22calc_self_energy_pprofEP9nonbonded", scope: !490, file: !4, line: 430, type: !494, scopeLine: 430, flags: DIFlagPublic | DIFlagPrototyped | DIFlagStaticMember, spFlags: 0)
!685 = !DISubprogram(name: "calc_self_fullelect_pprof", linkageName: "_ZN20ComputeNonbondedUtil25calc_self_fullelect_pprofEP9nonbonded", scope: !490, file: !4, line: 431, type: !494, scopeLine: 431, flags: DIFlagPublic | DIFlagPrototyped | DIFlagStaticMember, spFlags: 0)
!686 = !DISubprogram(name: "calc_self_energy_fullelect_pprof", linkageName: "_ZN20ComputeNonbondedUtil32calc_self_energy_fullelect_pprofEP9nonbonded", scope: !490, file: !4, line: 432, type: !494, scopeLine: 432, flags: DIFlagPublic | DIFlagPrototyped | DIFlagStaticMember, spFlags: 0)
!687 = !DISubprogram(name: "calc_self_merge_fullelect_pprof", linkageName: "_ZN20ComputeNonbondedUtil31calc_self_merge_fullelect_pprofEP9nonbonded", scope: !490, file: !4, line: 433, type: !494, scopeLine: 433, flags: DIFlagPublic | DIFlagPrototyped | DIFlagStaticMember, spFlags: 0)
!688 = !DISubprogram(name: "calc_self_energy_merge_fullelect_pprof", linkageName: "_ZN20ComputeNonbondedUtil38calc_self_energy_merge_fullelect_pprofEP9nonbonded", scope: !490, file: !4, line: 434, type: !494, scopeLine: 434, flags: DIFlagPublic | DIFlagPrototyped | DIFlagStaticMember, spFlags: 0)
!689 = !DISubprogram(name: "calc_self_slow_fullelect_pprof", linkageName: "_ZN20ComputeNonbondedUtil30calc_self_slow_fullelect_pprofEP9nonbonded", scope: !490, file: !4, line: 435, type: !494, scopeLine: 435, flags: DIFlagPublic | DIFlagPrototyped | DIFlagStaticMember, spFlags: 0)
!690 = !DISubprogram(name: "calc_self_energy_slow_fullelect_pprof", linkageName: "_ZN20ComputeNonbondedUtil37calc_self_energy_slow_fullelect_pprofEP9nonbonded", scope: !490, file: !4, line: 436, type: !494, scopeLine: 436, flags: DIFlagPublic | DIFlagPrototyped | DIFlagStaticMember, spFlags: 0)
!691 = !DISubprogram(name: "calc_pair_tabener", linkageName: "_ZN20ComputeNonbondedUtil17calc_pair_tabenerEP9nonbonded", scope: !490, file: !4, line: 439, type: !494, scopeLine: 439, flags: DIFlagPublic | DIFlagPrototyped | DIFlagStaticMember, spFlags: 0)
!692 = !DISubprogram(name: "calc_pair_energy_tabener", linkageName: "_ZN20ComputeNonbondedUtil24calc_pair_energy_tabenerEP9nonbonded", scope: !490, file: !4, line: 440, type: !494, scopeLine: 440, flags: DIFlagPublic | DIFlagPrototyped | DIFlagStaticMember, spFlags: 0)
!693 = !DISubprogram(name: "calc_pair_fullelect_tabener", linkageName: "_ZN20ComputeNonbondedUtil27calc_pair_fullelect_tabenerEP9nonbonded", scope: !490, file: !4, line: 441, type: !494, scopeLine: 441, flags: DIFlagPublic | DIFlagPrototyped | DIFlagStaticMember, spFlags: 0)
!694 = !DISubprogram(name: "calc_pair_energy_fullelect_tabener", linkageName: "_ZN20ComputeNonbondedUtil34calc_pair_energy_fullelect_tabenerEP9nonbonded", scope: !490, file: !4, line: 442, type: !494, scopeLine: 442, flags: DIFlagPublic | DIFlagPrototyped | DIFlagStaticMember, spFlags: 0)
!695 = !DISubprogram(name: "calc_pair_merge_fullelect_tabener", linkageName: "_ZN20ComputeNonbondedUtil33calc_pair_merge_fullelect_tabenerEP9nonbonded", scope: !490, file: !4, line: 443, type: !494, scopeLine: 443, flags: DIFlagPublic | DIFlagPrototyped | DIFlagStaticMember, spFlags: 0)
!696 = !DISubprogram(name: "calc_pair_energy_merge_fullelect_tabener", linkageName: "_ZN20ComputeNonbondedUtil40calc_pair_energy_merge_fullelect_tabenerEP9nonbonded", scope: !490, file: !4, line: 444, type: !494, scopeLine: 444, flags: DIFlagPublic | DIFlagPrototyped | DIFlagStaticMember, spFlags: 0)
!697 = !DISubprogram(name: "calc_pair_slow_fullelect_tabener", linkageName: "_ZN20ComputeNonbondedUtil32calc_pair_slow_fullelect_tabenerEP9nonbonded", scope: !490, file: !4, line: 445, type: !494, scopeLine: 445, flags: DIFlagPublic | DIFlagPrototyped | DIFlagStaticMember, spFlags: 0)
!698 = !DISubprogram(name: "calc_pair_energy_slow_fullelect_tabener", linkageName: "_ZN20ComputeNonbondedUtil39calc_pair_energy_slow_fullelect_tabenerEP9nonbonded", scope: !490, file: !4, line: 446, type: !494, scopeLine: 446, flags: DIFlagPublic | DIFlagPrototyped | DIFlagStaticMember, spFlags: 0)
!699 = !DISubprogram(name: "calc_self_tabener", linkageName: "_ZN20ComputeNonbondedUtil17calc_self_tabenerEP9nonbonded", scope: !490, file: !4, line: 447, type: !494, scopeLine: 447, flags: DIFlagPublic | DIFlagPrototyped | DIFlagStaticMember, spFlags: 0)
!700 = !DISubprogram(name: "calc_self_energy_tabener", linkageName: "_ZN20ComputeNonbondedUtil24calc_self_energy_tabenerEP9nonbonded", scope: !490, file: !4, line: 448, type: !494, scopeLine: 448, flags: DIFlagPublic | DIFlagPrototyped | DIFlagStaticMember, spFlags: 0)
!701 = !DISubprogram(name: "calc_self_fullelect_tabener", linkageName: "_ZN20ComputeNonbondedUtil27calc_self_fullelect_tabenerEP9nonbonded", scope: !490, file: !4, line: 449, type: !494, scopeLine: 449, flags: DIFlagPublic | DIFlagPrototyped | DIFlagStaticMember, spFlags: 0)
!702 = !DISubprogram(name: "calc_self_energy_fullelect_tabener", linkageName: "_ZN20ComputeNonbondedUtil34calc_self_energy_fullelect_tabenerEP9nonbonded", scope: !490, file: !4, line: 450, type: !494, scopeLine: 450, flags: DIFlagPublic | DIFlagPrototyped | DIFlagStaticMember, spFlags: 0)
!703 = !DISubprogram(name: "calc_self_merge_fullelect_tabener", linkageName: "_ZN20ComputeNonbondedUtil33calc_self_merge_fullelect_tabenerEP9nonbonded", scope: !490, file: !4, line: 451, type: !494, scopeLine: 451, flags: DIFlagPublic | DIFlagPrototyped | DIFlagStaticMember, spFlags: 0)
!704 = !DISubprogram(name: "calc_self_energy_merge_fullelect_tabener", linkageName: "_ZN20ComputeNonbondedUtil40calc_self_energy_merge_fullelect_tabenerEP9nonbonded", scope: !490, file: !4, line: 452, type: !494, scopeLine: 452, flags: DIFlagPublic | DIFlagPrototyped | DIFlagStaticMember, spFlags: 0)
!705 = !DISubprogram(name: "calc_self_slow_fullelect_tabener", linkageName: "_ZN20ComputeNonbondedUtil32calc_self_slow_fullelect_tabenerEP9nonbonded", scope: !490, file: !4, line: 453, type: !494, scopeLine: 453, flags: DIFlagPublic | DIFlagPrototyped | DIFlagStaticMember, spFlags: 0)
!706 = !DISubprogram(name: "calc_self_energy_slow_fullelect_tabener", linkageName: "_ZN20ComputeNonbondedUtil39calc_self_energy_slow_fullelect_tabenerEP9nonbonded", scope: !490, file: !4, line: 454, type: !494, scopeLine: 454, flags: DIFlagPublic | DIFlagPrototyped | DIFlagStaticMember, spFlags: 0)
!707 = !DISubprogram(name: "calcGBIS", linkageName: "_ZN20ComputeNonbondedUtil8calcGBISEP9nonbondedP15GBISParamStruct", scope: !490, file: !4, line: 456, type: !708, scopeLine: 456, flags: DIFlagPublic | DIFlagPrototyped, spFlags: 0)
!708 = !DISubroutineType(types: !709)
!709 = !{null, !598, !496, !710}
!710 = !DIDerivedType(tag: DW_TAG_pointer_type, baseType: !711, size: 64)
!711 = !DICompositeType(tag: DW_TAG_structure_type, name: "GBISParamStruct", file: !4, line: 138, flags: DIFlagFwdDecl, identifier: "_ZTS15GBISParamStruct")
!712 = !DIDerivedType(tag: DW_TAG_member, name: "patchId", scope: !486, file: !487, line: 20, baseType: !12, size: 32, flags: DIFlagPublic)
!713 = !DIDerivedType(tag: DW_TAG_member, name: "pairlists", scope: !486, file: !487, line: 22, baseType: !5, size: 128, offset: 64, flags: DIFlagPublic)
!714 = !DIDerivedType(tag: DW_TAG_member, name: "pairlistsValid", scope: !486, file: !487, line: 23, baseType: !12, size: 32, offset: 192, flags: DIFlagPublic)
!715 = !DIDerivedType(tag: DW_TAG_member, name: "pairlistTolerance", scope: !486, file: !487, line: 24, baseType: !518, size: 64, offset: 256, flags: DIFlagPublic)
!716 = !DISubprogram(name: "SelfCompute", scope: !486, file: !487, line: 17, type: !717, scopeLine: 17, flags: DIFlagPublic | DIFlagPrototyped, spFlags: 0)
!717 = !DISubroutineType(types: !718)
!718 = !{null, !719}
!719 = !DIDerivedType(tag: DW_TAG_pointer_type, baseType: !486, size: 64, flags: DIFlagArtificial | DIFlagObjectPointer)
!720 = !DISubprogram(name: "~SelfCompute", scope: !486, file: !487, line: 18, type: !717, scopeLine: 18, flags: DIFlagPublic | DIFlagPrototyped, spFlags: 0)
!721 = !DISubprogram(name: "doWork", linkageName: "_ZN11SelfCompute6doWorkEP9PatchList", scope: !486, file: !487, line: 26, type: !722, scopeLine: 26, flags: DIFlagPublic | DIFlagPrototyped, spFlags: 0)
!722 = !DISubroutineType(types: !723)
!723 = !{null, !719, !724}
!724 = !DIDerivedType(tag: DW_TAG_pointer_type, baseType: !725, size: 64)
!725 = distinct !DICompositeType(tag: DW_TAG_class_type, name: "PatchList", file: !726, line: 16, size: 384, flags: DIFlagTypePassByReference | DIFlagNonTrivial, elements: !727, identifier: "_ZTS9PatchList")
!726 = !DIFile(filename: "./PatchList.h", directory: "/home/venkat/IF-DV/spec_build_release/CPU_2017/benchspec/CPU/508.namd_r/build/build_base_ld-loop-ext-m64.0000")
!727 = !{!728, !729, !730, !731, !732, !733, !737, !740, !741, !745, !748, !756, !757, !758}
!728 = !DIDerivedType(tag: DW_TAG_member, name: "doEnergy", scope: !725, file: !726, line: 19, baseType: !12, size: 32, flags: DIFlagPublic)
!729 = !DIDerivedType(tag: DW_TAG_member, name: "doFull", scope: !725, file: !726, line: 20, baseType: !12, size: 32, offset: 32, flags: DIFlagPublic)
!730 = !DIDerivedType(tag: DW_TAG_member, name: "doMerge", scope: !725, file: !726, line: 21, baseType: !12, size: 32, offset: 64, flags: DIFlagPublic)
!731 = !DIDerivedType(tag: DW_TAG_member, name: "savePairlists", scope: !725, file: !726, line: 22, baseType: !12, size: 32, offset: 96, flags: DIFlagPublic)
!732 = !DIDerivedType(tag: DW_TAG_member, name: "numPatches", scope: !725, file: !726, line: 24, baseType: !12, size: 32, offset: 128, flags: DIFlagPublic)
!733 = !DIDerivedType(tag: DW_TAG_member, name: "patches", scope: !725, file: !726, line: 26, baseType: !734, size: 64, offset: 192, flags: DIFlagPublic)
!734 = !DIDerivedType(tag: DW_TAG_pointer_type, baseType: !735, size: 64)
!735 = !DICompositeType(tag: DW_TAG_class_type, name: "Patch", file: !736, line: 16, flags: DIFlagFwdDecl, identifier: "_ZTS5Patch")
!736 = !DIFile(filename: "./Patch.h", directory: "/home/venkat/IF-DV/spec_build_release/CPU_2017/benchspec/CPU/508.namd_r/build/build_base_ld-loop-ext-m64.0000")
!737 = !DIDerivedType(tag: DW_TAG_member, name: "lattice", scope: !725, file: !726, line: 33, baseType: !738, size: 64, offset: 256, flags: DIFlagPublic)
!738 = !DIDerivedType(tag: DW_TAG_reference_type, baseType: !739, size: 64)
!739 = !DICompositeType(tag: DW_TAG_class_type, name: "Lattice", file: !736, line: 14, flags: DIFlagFwdDecl, identifier: "_ZTS7Lattice")
!740 = !DIDerivedType(tag: DW_TAG_member, name: "reductionData", scope: !725, file: !726, line: 39, baseType: !109, size: 64, offset: 320, flags: DIFlagPublic)
!741 = !DISubprogram(name: "PatchList", scope: !725, file: !726, line: 28, type: !742, scopeLine: 28, flags: DIFlagPublic | DIFlagPrototyped, spFlags: 0)
!742 = !DISubroutineType(types: !743)
!743 = !{null, !744, !738}
!744 = !DIDerivedType(tag: DW_TAG_pointer_type, baseType: !725, size: 64, flags: DIFlagArtificial | DIFlagObjectPointer)
!745 = !DISubprogram(name: "~PatchList", scope: !725, file: !726, line: 29, type: !746, scopeLine: 29, flags: DIFlagPublic | DIFlagPrototyped, spFlags: 0)
!746 = !DISubroutineType(types: !747)
!747 = !{null, !744}
!748 = !DISubprogram(name: "readfile", linkageName: "_ZN9PatchList8readfileEP8_IO_FILEP8Molecule", scope: !725, file: !726, line: 31, type: !749, scopeLine: 31, flags: DIFlagPublic | DIFlagPrototyped, spFlags: 0)
!749 = !DISubroutineType(types: !750)
!750 = !{!12, !744, !751, !605}
!751 = !DIDerivedType(tag: DW_TAG_pointer_type, baseType: !752, size: 64)
!752 = !DIDerivedType(tag: DW_TAG_typedef, name: "FILE", file: !753, line: 7, baseType: !754)
!753 = !DIFile(filename: "/usr/include/x86_64-linux-gnu/bits/types/FILE.h", directory: "")
!754 = !DICompositeType(tag: DW_TAG_structure_type, name: "_IO_FILE", file: !755, line: 49, flags: DIFlagFwdDecl, identifier: "_ZTS8_IO_FILE")
!755 = !DIFile(filename: "/usr/include/x86_64-linux-gnu/bits/types/struct_FILE.h", directory: "")
!756 = !DISubprogram(name: "zeroresults", linkageName: "_ZN9PatchList11zeroresultsEv", scope: !725, file: !726, line: 35, type: !746, scopeLine: 35, flags: DIFlagPublic | DIFlagPrototyped, spFlags: 0)
!757 = !DISubprogram(name: "moveatoms", linkageName: "_ZN9PatchList9moveatomsEv", scope: !725, file: !726, line: 37, type: !746, scopeLine: 37, flags: DIFlagPublic | DIFlagPrototyped, spFlags: 0)
!758 = !DISubprogram(name: "setresults", linkageName: "_ZN9PatchList10setresultsEP9ResultSet", scope: !725, file: !726, line: 41, type: !759, scopeLine: 41, flags: DIFlagPublic | DIFlagPrototyped, spFlags: 0)
!759 = !DISubroutineType(types: !760)
!760 = !{null, !744, !761}
!761 = !DIDerivedType(tag: DW_TAG_pointer_type, baseType: !762, size: 64)
!762 = !DICompositeType(tag: DW_TAG_class_type, name: "ResultSet", file: !726, line: 14, flags: DIFlagFwdDecl, identifier: "_ZTS9ResultSet")
!763 = !DIDerivedType(tag: DW_TAG_member, name: "pairComputes", scope: !479, file: !480, line: 23, baseType: !764, size: 64, offset: 128, flags: DIFlagPublic)
!764 = !DIDerivedType(tag: DW_TAG_pointer_type, baseType: !765, size: 64)
!765 = distinct !DICompositeType(tag: DW_TAG_class_type, name: "PairCompute", file: !487, line: 30, size: 384, flags: DIFlagTypePassByReference | DIFlagNonTrivial, elements: !766, identifier: "_ZTS11PairCompute")
!766 = !{!767, !768, !769, !770, !771, !772, !773, !774, !775, !779, !780}
!767 = !DIDerivedType(tag: DW_TAG_inheritance, scope: !765, baseType: !490, extraData: i32 0)
!768 = !DIDerivedType(tag: DW_TAG_member, name: "patchId1", scope: !765, file: !487, line: 36, baseType: !12, size: 32, flags: DIFlagPublic)
!769 = !DIDerivedType(tag: DW_TAG_member, name: "image1", scope: !765, file: !487, line: 37, baseType: !12, size: 32, offset: 32, flags: DIFlagPublic)
!770 = !DIDerivedType(tag: DW_TAG_member, name: "patchId2", scope: !765, file: !487, line: 38, baseType: !12, size: 32, offset: 64, flags: DIFlagPublic)
!771 = !DIDerivedType(tag: DW_TAG_member, name: "image2", scope: !765, file: !487, line: 39, baseType: !12, size: 32, offset: 96, flags: DIFlagPublic)
!772 = !DIDerivedType(tag: DW_TAG_member, name: "pairlists", scope: !765, file: !487, line: 41, baseType: !5, size: 128, offset: 128, flags: DIFlagPublic)
!773 = !DIDerivedType(tag: DW_TAG_member, name: "pairlistsValid", scope: !765, file: !487, line: 42, baseType: !12, size: 32, offset: 256, flags: DIFlagPublic)
!774 = !DIDerivedType(tag: DW_TAG_member, name: "pairlistTolerance", scope: !765, file: !487, line: 43, baseType: !518, size: 64, offset: 320, flags: DIFlagPublic)
!775 = !DISubprogram(name: "PairCompute", scope: !765, file: !487, line: 33, type: !776, scopeLine: 33, flags: DIFlagPublic | DIFlagPrototyped, spFlags: 0)
!776 = !DISubroutineType(types: !777)
!777 = !{null, !778}
!778 = !DIDerivedType(tag: DW_TAG_pointer_type, baseType: !765, size: 64, flags: DIFlagArtificial | DIFlagObjectPointer)
!779 = !DISubprogram(name: "~PairCompute", scope: !765, file: !487, line: 34, type: !776, scopeLine: 34, flags: DIFlagPublic | DIFlagPrototyped, spFlags: 0)
!780 = !DISubprogram(name: "doWork", linkageName: "_ZN11PairCompute6doWorkEP9PatchList", scope: !765, file: !487, line: 45, type: !781, scopeLine: 45, flags: DIFlagPublic | DIFlagPrototyped, spFlags: 0)
!781 = !DISubroutineType(types: !782)
!782 = !{null, !778, !724}
!783 = !DISubprogram(name: "ComputeList", scope: !479, file: !480, line: 25, type: !784, scopeLine: 25, flags: DIFlagPublic | DIFlagPrototyped, spFlags: 0)
!784 = !DISubroutineType(types: !785)
!785 = !{null, !786}
!786 = !DIDerivedType(tag: DW_TAG_pointer_type, baseType: !479, size: 64, flags: DIFlagArtificial | DIFlagObjectPointer)
!787 = !DISubprogram(name: "~ComputeList", scope: !479, file: !480, line: 26, type: !784, scopeLine: 26, flags: DIFlagPublic | DIFlagPrototyped, spFlags: 0)
!788 = !DISubprogram(name: "readfile", linkageName: "_ZN11ComputeList8readfileEP8_IO_FILEP9PatchList", scope: !479, file: !480, line: 28, type: !789, scopeLine: 28, flags: DIFlagPublic | DIFlagPrototyped, spFlags: 0)
!789 = !DISubroutineType(types: !790)
!790 = !{!12, !786, !751, !724}
!791 = !DISubprogram(name: "runComputes", linkageName: "_ZN11ComputeList11runComputesEP9PatchList", scope: !479, file: !480, line: 30, type: !792, scopeLine: 30, flags: DIFlagPublic | DIFlagPrototyped, spFlags: 0)
!792 = !DISubroutineType(types: !793)
!793 = !{null, !786, !724}
!794 = !{}
!795 = !DILocalVariable(name: "this", arg: 1, scope: !478, type: !796, flags: DIFlagArtificial | DIFlagObjectPointer)
!796 = !DIDerivedType(tag: DW_TAG_pointer_type, baseType: !479, size: 64)
!797 = !DILocation(line: 0, scope: !478)
!798 = !DILocation(line: 12, column: 3, scope: !799)
!799 = distinct !DILexicalBlock(scope: !478, file: !1, line: 11, column: 28)
!800 = !DILocation(line: 12, column: 19, scope: !799)
!801 = !DILocation(line: 13, column: 3, scope: !799)
!802 = !DILocation(line: 13, column: 16, scope: !799)
!803 = !DILocation(line: 14, column: 3, scope: !799)
!804 = !DILocation(line: 14, column: 19, scope: !799)
!805 = !DILocation(line: 15, column: 3, scope: !799)
!806 = !DILocation(line: 15, column: 16, scope: !799)
!807 = !DILocation(line: 16, column: 1, scope: !478)
!808 = distinct !DISubprogram(name: "~ComputeList", linkageName: "_ZN11ComputeListD2Ev", scope: !479, file: !1, line: 18, type: !784, scopeLine: 18, flags: DIFlagPrototyped, spFlags: DISPFlagDefinition, unit: !0, declaration: !787, retainedNodes: !794)
!809 = !DILocalVariable(name: "this", arg: 1, scope: !808, type: !796, flags: DIFlagArtificial | DIFlagObjectPointer)
!810 = !DILocation(line: 0, scope: !808)
!811 = !DILocation(line: 19, column: 13, scope: !812)
!812 = distinct !DILexicalBlock(scope: !808, file: !1, line: 18, column: 29)
!813 = !DILocation(line: 19, column: 3, scope: !812)
!814 = !DILocation(line: 20, column: 13, scope: !812)
!815 = !DILocation(line: 20, column: 3, scope: !812)
!816 = !DILocation(line: 21, column: 1, scope: !808)
!817 = distinct !DISubprogram(name: "~SelfCompute", linkageName: "_ZN11SelfComputeD2Ev", scope: !486, file: !487, line: 18, type: !717, scopeLine: 18, flags: DIFlagPrototyped, spFlags: DISPFlagDefinition, unit: !0, declaration: !720, retainedNodes: !794)
!818 = !DILocalVariable(name: "this", arg: 1, scope: !817, type: !485, flags: DIFlagArtificial | DIFlagObjectPointer)
!819 = !DILocation(line: 0, scope: !817)
!820 = !DILocation(line: 18, column: 19, scope: !821)
!821 = distinct !DILexicalBlock(scope: !817, file: !487, line: 18, column: 18)
!822 = !DILocation(line: 18, column: 19, scope: !817)
!823 = distinct !DISubprogram(name: "~PairCompute", linkageName: "_ZN11PairComputeD2Ev", scope: !765, file: !487, line: 34, type: !776, scopeLine: 34, flags: DIFlagPrototyped, spFlags: DISPFlagDefinition, unit: !0, declaration: !779, retainedNodes: !794)
!824 = !DILocalVariable(name: "this", arg: 1, scope: !823, type: !764, flags: DIFlagArtificial | DIFlagObjectPointer)
!825 = !DILocation(line: 0, scope: !823)
!826 = !DILocation(line: 34, column: 19, scope: !827)
!827 = distinct !DILexicalBlock(scope: !823, file: !487, line: 34, column: 18)
!828 = !DILocation(line: 34, column: 19, scope: !823)
!829 = distinct !DISubprogram(name: "readfile", linkageName: "_ZN11ComputeList8readfileEP8_IO_FILEP9PatchList", scope: !479, file: !1, line: 23, type: !789, scopeLine: 23, flags: DIFlagPrototyped, spFlags: DISPFlagDefinition, unit: !0, declaration: !788, retainedNodes: !794)
!830 = !DILocalVariable(name: "this", arg: 1, scope: !829, type: !796, flags: DIFlagArtificial | DIFlagObjectPointer)
!831 = !DILocation(line: 0, scope: !829)
!832 = !DILocalVariable(name: "file", arg: 2, scope: !829, file: !1, line: 23, type: !751)
!833 = !DILocation(line: 23, column: 33, scope: !829)
!834 = !DILocalVariable(name: "patchList", arg: 3, scope: !829, file: !1, line: 23, type: !724)
!835 = !DILocation(line: 23, column: 50, scope: !829)
!836 = !DILocalVariable(name: "buf", scope: !829, file: !1, line: 25, type: !837)
!837 = !DICompositeType(tag: DW_TAG_array_type, baseType: !307, size: 8192, elements: !838)
!838 = !{!839}
!839 = !DISubrange(count: 1024)
!840 = !DILocation(line: 25, column: 8, scope: !829)
!841 = !DILocation(line: 27, column: 16, scope: !842)
!842 = distinct !DILexicalBlock(scope: !829, file: !1, line: 27, column: 8)
!843 = !DILocation(line: 27, column: 25, scope: !842)
!844 = !DILocation(line: 27, column: 10, scope: !842)
!845 = !DILocation(line: 27, column: 31, scope: !842)
!846 = !DILocation(line: 27, column: 41, scope: !842)
!847 = !DILocation(line: 27, column: 34, scope: !842)
!848 = !DILocation(line: 27, column: 8, scope: !829)
!849 = !DILocation(line: 28, column: 5, scope: !850)
!850 = distinct !DILexicalBlock(scope: !842, file: !1, line: 27, column: 70)
!851 = !DILocation(line: 29, column: 5, scope: !850)
!852 = !DILocation(line: 32, column: 15, scope: !853)
!853 = distinct !DILexicalBlock(scope: !829, file: !1, line: 32, column: 8)
!854 = !DILocation(line: 32, column: 28, scope: !853)
!855 = !DILocation(line: 32, column: 8, scope: !853)
!856 = !DILocation(line: 32, column: 45, scope: !853)
!857 = !DILocation(line: 32, column: 8, scope: !829)
!858 = !DILocation(line: 33, column: 5, scope: !859)
!859 = distinct !DILexicalBlock(scope: !853, file: !1, line: 32, column: 52)
!860 = !DILocation(line: 34, column: 5, scope: !859)
!861 = !DILocation(line: 37, column: 34, scope: !829)
!862 = !DILocation(line: 37, column: 18, scope: !829)
!863 = !DILocation(line: 37, column: 3, scope: !829)
!864 = !DILocation(line: 37, column: 16, scope: !829)
!865 = !DILocalVariable(name: "i", scope: !829, file: !1, line: 39, type: !12)
!866 = !DILocation(line: 39, column: 7, scope: !829)
!867 = !DILocation(line: 40, column: 10, scope: !868)
!868 = distinct !DILexicalBlock(scope: !829, file: !1, line: 40, column: 3)
!869 = !DILocation(line: 40, column: 9, scope: !868)
!870 = !DILocation(line: 40, column: 14, scope: !871)
!871 = distinct !DILexicalBlock(scope: !868, file: !1, line: 40, column: 3)
!872 = !DILocation(line: 40, column: 16, scope: !871)
!873 = !DILocation(line: 40, column: 15, scope: !871)
!874 = !DILocation(line: 40, column: 3, scope: !868)
!875 = !DILocalVariable(name: "p1", scope: !876, file: !1, line: 41, type: !12)
!876 = distinct !DILexicalBlock(scope: !871, file: !1, line: 40, column: 39)
!877 = !DILocation(line: 41, column: 9, scope: !876)
!878 = !DILocalVariable(name: "i1", scope: !876, file: !1, line: 41, type: !12)
!879 = !DILocation(line: 41, column: 12, scope: !876)
!880 = !DILocalVariable(name: "p2", scope: !876, file: !1, line: 41, type: !12)
!881 = !DILocation(line: 41, column: 15, scope: !876)
!882 = !DILocalVariable(name: "i2", scope: !876, file: !1, line: 41, type: !12)
!883 = !DILocation(line: 41, column: 18, scope: !876)
!884 = !DILocation(line: 42, column: 16, scope: !876)
!885 = !DILocation(line: 42, column: 13, scope: !876)
!886 = !DILocation(line: 42, column: 10, scope: !876)
!887 = !DILocation(line: 42, column: 7, scope: !876)
!888 = !DILocation(line: 43, column: 17, scope: !889)
!889 = distinct !DILexicalBlock(scope: !876, file: !1, line: 43, column: 10)
!890 = !DILocation(line: 43, column: 10, scope: !889)
!891 = !DILocation(line: 43, column: 55, scope: !889)
!892 = !DILocation(line: 43, column: 10, scope: !876)
!893 = !DILocation(line: 44, column: 7, scope: !894)
!894 = distinct !DILexicalBlock(scope: !889, file: !1, line: 43, column: 62)
!895 = !DILocation(line: 45, column: 7, scope: !894)
!896 = !DILocation(line: 65, column: 1, scope: !829)
!897 = !DILocation(line: 47, column: 32, scope: !876)
!898 = !DILocation(line: 47, column: 5, scope: !876)
!899 = !DILocation(line: 47, column: 18, scope: !876)
!900 = !DILocation(line: 47, column: 21, scope: !876)
!901 = !DILocation(line: 47, column: 30, scope: !876)
!902 = !DILocation(line: 48, column: 30, scope: !876)
!903 = !DILocation(line: 48, column: 5, scope: !876)
!904 = !DILocation(line: 48, column: 18, scope: !876)
!905 = !DILocation(line: 48, column: 21, scope: !876)
!906 = !DILocation(line: 48, column: 28, scope: !876)
!907 = !DILocation(line: 49, column: 32, scope: !876)
!908 = !DILocation(line: 49, column: 5, scope: !876)
!909 = !DILocation(line: 49, column: 18, scope: !876)
!910 = !DILocation(line: 49, column: 21, scope: !876)
!911 = !DILocation(line: 49, column: 30, scope: !876)
!912 = !DILocation(line: 50, column: 30, scope: !876)
!913 = !DILocation(line: 50, column: 5, scope: !876)
!914 = !DILocation(line: 50, column: 18, scope: !876)
!915 = !DILocation(line: 50, column: 21, scope: !876)
!916 = !DILocation(line: 50, column: 28, scope: !876)
!917 = !DILocation(line: 51, column: 3, scope: !876)
!918 = !DILocation(line: 40, column: 33, scope: !871)
!919 = !DILocation(line: 40, column: 3, scope: !871)
!920 = distinct !{!920, !874, !921}
!921 = !DILocation(line: 51, column: 3, scope: !868)
!922 = !DILocation(line: 53, column: 16, scope: !923)
!923 = distinct !DILexicalBlock(scope: !829, file: !1, line: 53, column: 8)
!924 = !DILocation(line: 53, column: 25, scope: !923)
!925 = !DILocation(line: 53, column: 10, scope: !923)
!926 = !DILocation(line: 53, column: 31, scope: !923)
!927 = !DILocation(line: 53, column: 41, scope: !923)
!928 = !DILocation(line: 53, column: 34, scope: !923)
!929 = !DILocation(line: 53, column: 8, scope: !829)
!930 = !DILocation(line: 54, column: 5, scope: !931)
!931 = distinct !DILexicalBlock(scope: !923, file: !1, line: 53, column: 68)
!932 = !DILocation(line: 55, column: 5, scope: !931)
!933 = !DILocation(line: 58, column: 21, scope: !829)
!934 = !DILocation(line: 58, column: 32, scope: !829)
!935 = !DILocation(line: 58, column: 3, scope: !829)
!936 = !DILocation(line: 58, column: 19, scope: !829)
!937 = !DILocation(line: 59, column: 34, scope: !829)
!938 = !DILocation(line: 59, column: 18, scope: !829)
!939 = !DILocation(line: 59, column: 3, scope: !829)
!940 = !DILocation(line: 59, column: 16, scope: !829)
!941 = !DILocation(line: 60, column: 10, scope: !942)
!942 = distinct !DILexicalBlock(scope: !829, file: !1, line: 60, column: 3)
!943 = !DILocation(line: 60, column: 9, scope: !942)
!944 = !DILocation(line: 60, column: 14, scope: !945)
!945 = distinct !DILexicalBlock(scope: !942, file: !1, line: 60, column: 3)
!946 = !DILocation(line: 60, column: 16, scope: !945)
!947 = !DILocation(line: 60, column: 15, scope: !945)
!948 = !DILocation(line: 60, column: 3, scope: !942)
!949 = !DILocation(line: 61, column: 31, scope: !950)
!950 = distinct !DILexicalBlock(scope: !945, file: !1, line: 60, column: 39)
!951 = !DILocation(line: 61, column: 5, scope: !950)
!952 = !DILocation(line: 61, column: 18, scope: !950)
!953 = !DILocation(line: 61, column: 21, scope: !950)
!954 = !DILocation(line: 61, column: 29, scope: !950)
!955 = !DILocation(line: 62, column: 3, scope: !950)
!956 = !DILocation(line: 60, column: 33, scope: !945)
!957 = !DILocation(line: 60, column: 3, scope: !945)
!958 = distinct !{!958, !948, !959}
!959 = !DILocation(line: 62, column: 3, scope: !942)
!960 = !DILocation(line: 64, column: 3, scope: !829)
!961 = distinct !DISubprogram(name: "PairCompute", linkageName: "_ZN11PairComputeC2Ev", scope: !765, file: !487, line: 33, type: !776, scopeLine: 33, flags: DIFlagPrototyped, spFlags: DISPFlagDefinition, unit: !0, declaration: !775, retainedNodes: !794)
!962 = !DILocalVariable(name: "this", arg: 1, scope: !961, type: !764, flags: DIFlagArtificial | DIFlagObjectPointer)
!963 = !DILocation(line: 0, scope: !961)
!964 = !DILocation(line: 33, column: 17, scope: !961)
!965 = !DILocation(line: 33, column: 3, scope: !961)
!966 = !DILocation(line: 33, column: 19, scope: !967)
!967 = distinct !DILexicalBlock(scope: !961, file: !487, line: 33, column: 17)
!968 = !DILocation(line: 33, column: 33, scope: !967)
!969 = !DILocation(line: 33, column: 37, scope: !961)
!970 = !DILocation(line: 33, column: 37, scope: !967)
!971 = distinct !DISubprogram(name: "SelfCompute", linkageName: "_ZN11SelfComputeC2Ev", scope: !486, file: !487, line: 17, type: !717, scopeLine: 17, flags: DIFlagPrototyped, spFlags: DISPFlagDefinition, unit: !0, declaration: !716, retainedNodes: !794)
!972 = !DILocalVariable(name: "this", arg: 1, scope: !971, type: !485, flags: DIFlagArtificial | DIFlagObjectPointer)
!973 = !DILocation(line: 0, scope: !971)
!974 = !DILocation(line: 17, column: 17, scope: !971)
!975 = !DILocation(line: 17, column: 3, scope: !971)
!976 = !DILocation(line: 17, column: 19, scope: !977)
!977 = distinct !DILexicalBlock(scope: !971, file: !487, line: 17, column: 17)
!978 = !DILocation(line: 17, column: 33, scope: !977)
!979 = !DILocation(line: 17, column: 37, scope: !971)
!980 = !DILocation(line: 17, column: 37, scope: !977)
!981 = distinct !DISubprogram(name: "runComputes", linkageName: "_ZN11ComputeList11runComputesEP9PatchList", scope: !479, file: !1, line: 67, type: !792, scopeLine: 67, flags: DIFlagPrototyped, spFlags: DISPFlagDefinition, unit: !0, declaration: !791, retainedNodes: !794)
!982 = !DILocalVariable(name: "this", arg: 1, scope: !981, type: !796, flags: DIFlagArtificial | DIFlagObjectPointer)
!983 = !DILocation(line: 0, scope: !981)
!984 = !DILocalVariable(name: "patchList", arg: 2, scope: !981, file: !1, line: 67, type: !724)
!985 = !DILocation(line: 67, column: 42, scope: !981)
!986 = !DILocalVariable(name: "i", scope: !981, file: !1, line: 69, type: !12)
!987 = !DILocation(line: 69, column: 7, scope: !981)
!988 = !DILocation(line: 71, column: 10, scope: !989)
!989 = distinct !DILexicalBlock(scope: !981, file: !1, line: 71, column: 3)
!990 = !DILocation(line: 71, column: 9, scope: !989)
!991 = !DILocation(line: 71, column: 14, scope: !992)
!992 = distinct !DILexicalBlock(scope: !989, file: !1, line: 71, column: 3)
!993 = !DILocation(line: 71, column: 16, scope: !992)
!994 = !DILocation(line: 71, column: 15, scope: !992)
!995 = !DILocation(line: 71, column: 3, scope: !989)
!996 = !DILocation(line: 72, column: 5, scope: !997)
!997 = distinct !DILexicalBlock(scope: !992, file: !1, line: 71, column: 39)
!998 = !DILocation(line: 72, column: 18, scope: !997)
!999 = !DILocation(line: 72, column: 28, scope: !997)
!1000 = !DILocation(line: 72, column: 21, scope: !997)
!1001 = !DILocation(line: 73, column: 3, scope: !997)
!1002 = !DILocation(line: 71, column: 33, scope: !992)
!1003 = !DILocation(line: 71, column: 3, scope: !992)
!1004 = distinct !{!1004, !995, !1005}
!1005 = !DILocation(line: 73, column: 3, scope: !989)
!1006 = !DILocation(line: 75, column: 10, scope: !1007)
!1007 = distinct !DILexicalBlock(scope: !981, file: !1, line: 75, column: 3)
!1008 = !DILocation(line: 75, column: 9, scope: !1007)
!1009 = !DILocation(line: 75, column: 14, scope: !1010)
!1010 = distinct !DILexicalBlock(scope: !1007, file: !1, line: 75, column: 3)
!1011 = !DILocation(line: 75, column: 16, scope: !1010)
!1012 = !DILocation(line: 75, column: 15, scope: !1010)
!1013 = !DILocation(line: 75, column: 3, scope: !1007)
!1014 = !DILocation(line: 76, column: 5, scope: !1015)
!1015 = distinct !DILexicalBlock(scope: !1010, file: !1, line: 75, column: 39)
!1016 = !DILocation(line: 76, column: 18, scope: !1015)
!1017 = !DILocation(line: 76, column: 28, scope: !1015)
!1018 = !DILocation(line: 76, column: 21, scope: !1015)
!1019 = !DILocation(line: 77, column: 3, scope: !1015)
!1020 = !DILocation(line: 75, column: 33, scope: !1010)
!1021 = !DILocation(line: 75, column: 3, scope: !1010)
!1022 = distinct !{!1022, !1013, !1023}
!1023 = !DILocation(line: 77, column: 3, scope: !1007)
!1024 = !DILocation(line: 79, column: 1, scope: !981)
!1025 = distinct !DISubprogram(name: "~Pairlists", linkageName: "_ZN9PairlistsD2Ev", scope: !5, file: !4, line: 45, type: !25, scopeLine: 45, flags: DIFlagPrototyped, spFlags: DISPFlagDefinition, unit: !0, declaration: !27, retainedNodes: !794)
!1026 = !DILocalVariable(name: "this", arg: 1, scope: !1025, type: !1027, flags: DIFlagArtificial | DIFlagObjectPointer)
!1027 = !DIDerivedType(tag: DW_TAG_pointer_type, baseType: !5, size: 64)
!1028 = !DILocation(line: 0, scope: !1025)
!1029 = !DILocation(line: 45, column: 28, scope: !1030)
!1030 = distinct !DILexicalBlock(scope: !1025, file: !4, line: 45, column: 16)
!1031 = !DILocation(line: 45, column: 18, scope: !1030)
!1032 = !DILocation(line: 45, column: 34, scope: !1025)
!1033 = distinct !DISubprogram(name: "~ComputeNonbondedUtil", linkageName: "_ZN20ComputeNonbondedUtilD2Ev", scope: !490, file: !4, line: 219, type: !596, scopeLine: 219, flags: DIFlagPrototyped, spFlags: DISPFlagDefinition, unit: !0, declaration: !599, retainedNodes: !794)
!1034 = !DILocalVariable(name: "this", arg: 1, scope: !1033, type: !1035, flags: DIFlagArtificial | DIFlagObjectPointer)
!1035 = !DIDerivedType(tag: DW_TAG_pointer_type, baseType: !490, size: 64)
!1036 = !DILocation(line: 0, scope: !1033)
!1037 = !DILocation(line: 219, column: 28, scope: !1033)
!1038 = distinct !DISubprogram(name: "ComputeNonbondedUtil", linkageName: "_ZN20ComputeNonbondedUtilC2Ev", scope: !490, file: !4, line: 218, type: !596, scopeLine: 218, flags: DIFlagPrototyped, spFlags: DISPFlagDefinition, unit: !0, declaration: !595, retainedNodes: !794)
!1039 = !DILocalVariable(name: "this", arg: 1, scope: !1038, type: !1035, flags: DIFlagArtificial | DIFlagObjectPointer)
!1040 = !DILocation(line: 0, scope: !1038)
!1041 = !DILocation(line: 218, column: 27, scope: !1038)
!1042 = distinct !DISubprogram(name: "Pairlists", linkageName: "_ZN9PairlistsC2Ev", scope: !5, file: !4, line: 44, type: !25, scopeLine: 44, flags: DIFlagPrototyped, spFlags: DISPFlagDefinition, unit: !0, declaration: !24, retainedNodes: !794)
!1043 = !DILocalVariable(name: "this", arg: 1, scope: !1042, type: !1027, flags: DIFlagArtificial | DIFlagObjectPointer)
!1044 = !DILocation(line: 0, scope: !1042)
!1045 = !DILocation(line: 44, column: 17, scope: !1042)
!1046 = !DILocation(line: 44, column: 41, scope: !1047)
!1047 = distinct !DILexicalBlock(scope: !1042, file: !4, line: 44, column: 32)
!1048 = !DILocation(line: 44, column: 34, scope: !1047)
!1049 = !DILocation(line: 44, column: 39, scope: !1047)
!1050 = !DILocation(line: 44, column: 62, scope: !1042)
