; ModuleID = 'source/libparest/message_log.cc'
source_filename = "source/libparest/message_log.cc"
target datalayout = "e-m:e-p270:32:32-p271:32:32-p272:64:64-i64:64-f80:128-n8:16:32:64-S128"
target triple = "x86_64-unknown-linux-gnu"

%"struct.boost::arg" = type { i8 }
%"struct.boost::arg.0" = type { i8 }
%"struct.boost::arg.2" = type { i8 }
%"struct.boost::arg.4" = type { i8 }
%"struct.boost::arg.6" = type { i8 }
%"struct.boost::arg.8" = type { i8 }
%"struct.boost::arg.10" = type { i8 }
%"struct.boost::arg.12" = type { i8 }
%"struct.boost::arg.14" = type { i8 }
%"class.std::ios_base::Init" = type { i8 }
%"class.std::__cxx11::basic_string" = type { %"struct.std::__cxx11::basic_string<char, std::char_traits<char>, std::allocator<char> >::_Alloc_hider", i64, %union.anon }
%"struct.std::__cxx11::basic_string<char, std::char_traits<char>, std::allocator<char> >::_Alloc_hider" = type { i8* }
%union.anon = type { i64, [8 x i8] }
%"struct.std::piecewise_construct_t" = type { i8 }
%"class.libparest::MessageLog::Filters::Base" = type { i32 (...)** }
%"class.libparest::MessageLog::Filters::OStream" = type <{ %"class.libparest::MessageLog::Filters::Base", %"class.std::basic_ostream"*, i32, i8, %"class.dealii::Threads::DummyThreadMutex", [2 x i8] }>
%"class.dealii::Threads::DummyThreadMutex" = type { i8 }
%"class.std::basic_ostream" = type { i32 (...)**, %"class.std::basic_ios" }
%"class.std::basic_ios" = type { %"class.std::ios_base", %"class.std::basic_ostream"*, i8, i8, %"class.std::basic_streambuf"*, %"class.std::ctype"*, %"class.std::num_put"*, %"class.std::num_get"* }
%"class.std::ios_base" = type { i32 (...)**, i64, i64, i32, i32, i32, %"struct.std::ios_base::_Callback_list"*, %"struct.std::ios_base::_Words", [8 x %"struct.std::ios_base::_Words"], i32, %"struct.std::ios_base::_Words"*, %"class.std::locale" }
%"struct.std::ios_base::_Callback_list" = type { %"struct.std::ios_base::_Callback_list"*, void (i32, %"class.std::ios_base"*, i32)*, i32, i32 }
%"struct.std::ios_base::_Words" = type { i8*, i64 }
%"class.std::locale" = type { %"class.std::locale::_Impl"* }
%"class.std::locale::_Impl" = type { i32, %"class.std::locale::facet"**, i64, %"class.std::locale::facet"**, i8** }
%"class.std::locale::facet" = type <{ i32 (...)**, i32, [4 x i8] }>
%"class.std::basic_streambuf" = type { i32 (...)**, i8*, i8*, i8*, i8*, i8*, i8*, %"class.std::locale" }
%"class.std::ctype" = type <{ %"class.std::locale::facet.base", [4 x i8], %struct.__locale_struct*, i8, [7 x i8], i32*, i32*, i16*, i8, [256 x i8], [256 x i8], i8, [6 x i8] }>
%"class.std::locale::facet.base" = type <{ i32 (...)**, i32 }>
%struct.__locale_struct = type { [13 x %struct.__locale_data*], i16*, i32*, i32*, [13 x i8*] }
%struct.__locale_data = type opaque
%"class.std::num_put" = type { %"class.std::locale::facet.base", [4 x i8] }
%"class.std::num_get" = type { %"class.std::locale::facet.base", [4 x i8] }
%"class.libparest::MessageLog::Filters::OFStream" = type { %"class.libparest::MessageLog::Filters::OStream.base", [2 x i8] }
%"class.libparest::MessageLog::Filters::OStream.base" = type <{ %"class.libparest::MessageLog::Filters::Base", %"class.std::basic_ostream"*, i32, i8, %"class.dealii::Threads::DummyThreadMutex" }>
%"class.libparest::MessageLog::ServerBase" = type { %"class.dealii::Subscriptor", %"class.std::vector" }
%"class.dealii::Subscriptor" = type { i32 (...)**, i32, %"class.std::map", %"class.std::type_info"* }
%"class.std::map" = type { %"class.std::_Rb_tree" }
%"class.std::_Rb_tree" = type { %"struct.std::_Rb_tree<const char *, std::pair<const char *const, unsigned int>, std::_Select1st<std::pair<const char *const, unsigned int> >, std::less<const char *>, std::allocator<std::pair<const char *const, unsigned int> > >::_Rb_tree_impl" }
%"struct.std::_Rb_tree<const char *, std::pair<const char *const, unsigned int>, std::_Select1st<std::pair<const char *const, unsigned int> >, std::less<const char *>, std::allocator<std::pair<const char *const, unsigned int> > >::_Rb_tree_impl" = type { %"struct.std::_Rb_tree_key_compare", %"struct.std::_Rb_tree_header" }
%"struct.std::_Rb_tree_key_compare" = type { %"struct.std::less" }
%"struct.std::less" = type { i8 }
%"struct.std::_Rb_tree_header" = type { %"struct.std::_Rb_tree_node_base", i64 }
%"struct.std::_Rb_tree_node_base" = type { i32, %"struct.std::_Rb_tree_node_base"*, %"struct.std::_Rb_tree_node_base"*, %"struct.std::_Rb_tree_node_base"* }
%"class.std::type_info" = type { i32 (...)**, i8* }
%"class.std::vector" = type { %"struct.std::_Vector_base" }
%"struct.std::_Vector_base" = type { %"struct.std::_Vector_base<const libparest::MessageLog::Filters::Base *, std::allocator<const libparest::MessageLog::Filters::Base *> >::_Vector_impl" }
%"struct.std::_Vector_base<const libparest::MessageLog::Filters::Base *, std::allocator<const libparest::MessageLog::Filters::Base *> >::_Vector_impl" = type { %"struct.std::_Vector_base<const libparest::MessageLog::Filters::Base *, std::allocator<const libparest::MessageLog::Filters::Base *> >::_Vector_impl_data" }
%"struct.std::_Vector_base<const libparest::MessageLog::Filters::Base *, std::allocator<const libparest::MessageLog::Filters::Base *> >::_Vector_impl_data" = type { %"class.libparest::MessageLog::Filters::Base"**, %"class.libparest::MessageLog::Filters::Base"**, %"class.libparest::MessageLog::Filters::Base"** }
%"class.libparest::MessageLog::Server" = type <{ %"class.libparest::MessageLog::ServerBase", %"class.std::map.23", i32, i32, %"class.dealii::Threads::DummyThreadMutex", [7 x i8] }>
%"class.std::map.23" = type { %"class.std::_Rb_tree.24" }
%"class.std::_Rb_tree.24" = type { %"struct.std::_Rb_tree<unsigned int, std::pair<const unsigned int, std::__cxx11::basic_string<char> >, std::_Select1st<std::pair<const unsigned int, std::__cxx11::basic_string<char> > >, std::less<unsigned int>, std::allocator<std::pair<const unsigned int, std::__cxx11::basic_string<char> > > >::_Rb_tree_impl" }
%"struct.std::_Rb_tree<unsigned int, std::pair<const unsigned int, std::__cxx11::basic_string<char> >, std::_Select1st<std::pair<const unsigned int, std::__cxx11::basic_string<char> > >, std::less<unsigned int>, std::allocator<std::pair<const unsigned int, std::__cxx11::basic_string<char> > > >::_Rb_tree_impl" = type { %"struct.std::_Rb_tree_key_compare.28", %"struct.std::_Rb_tree_header" }
%"struct.std::_Rb_tree_key_compare.28" = type { %"struct.std::less.29" }
%"struct.std::less.29" = type { i8 }
%"class.libparest::MessageLog::Client" = type <{ %"class.dealii::SmartPointer", i32, [4 x i8], %"class.std::__cxx11::basic_ostringstream"*, i32, %"class.dealii::Threads::DummyThreadMutex", [3 x i8] }>
%"class.dealii::SmartPointer" = type { %"class.libparest::MessageLog::ServerBase"*, i8* }
%"class.std::__cxx11::basic_ostringstream" = type { %"class.std::basic_ostream.base", %"class.std::__cxx11::basic_stringbuf", %"class.std::basic_ios" }
%"class.std::basic_ostream.base" = type { i32 (...)** }
%"class.std::__cxx11::basic_stringbuf" = type { %"class.std::basic_streambuf", i32, %"class.std::__cxx11::basic_string" }
%"struct.libparest::MessageLog::Client::PriorityObject" = type { i32 }
%"class.libparest::MessageLog::ServerFactory" = type { i32 (...)** }
%"class.dealii::Threads::DummyThreadMutex::ScopedLock" = type { i8 }
%"class.std::allocator" = type { i8 }
%"class.dealii::StandardExceptions::ExcMessage" = type { %"class.dealii::ExceptionBase.base", i8* }
%"class.dealii::ExceptionBase.base" = type <{ %"class.std::exception", i8*, i32, [4 x i8], i8*, i8*, i8*, i8**, i32 }>
%"class.std::exception" = type { i32 (...)** }
%"class.std::basic_ofstream" = type { %"class.std::basic_ostream.base", %"class.std::basic_filebuf", %"class.std::basic_ios" }
%"class.std::basic_filebuf" = type { %"class.std::basic_streambuf", %union.pthread_mutex_t, %"class.std::__basic_file", i32, %struct.__mbstate_t, %struct.__mbstate_t, %struct.__mbstate_t, i8*, i64, i8, i8, i8, i8, i8*, i8*, i8, %"class.std::codecvt"*, i8*, i64, i8*, i8* }
%union.pthread_mutex_t = type { %struct.__pthread_mutex_s }
%struct.__pthread_mutex_s = type { i32, i32, i32, i32, i32, i16, i16, %struct.__pthread_internal_list }
%struct.__pthread_internal_list = type { %struct.__pthread_internal_list*, %struct.__pthread_internal_list* }
%"class.std::__basic_file" = type <{ %struct._IO_FILE*, i8, [7 x i8] }>
%struct._IO_FILE = type { i32, i8*, i8*, i8*, i8*, i8*, i8*, i8*, i8*, i8*, i8*, i8*, %struct._IO_marker*, %struct._IO_FILE*, i32, i32, i64, i16, i8, [1 x i8], i8*, i64, %struct._IO_codecvt*, %struct._IO_wide_data*, %struct._IO_FILE*, i8*, i64, i32, [20 x i8] }
%struct._IO_marker = type opaque
%struct._IO_codecvt = type opaque
%struct._IO_wide_data = type opaque
%struct.__mbstate_t = type { i32, %union.anon.16 }
%union.anon.16 = type { i32 }
%"class.std::codecvt" = type { %"class.std::__codecvt_abstract_base.base", %struct.__locale_struct* }
%"class.std::__codecvt_abstract_base.base" = type { %"class.std::locale::facet.base" }
%"class.dealii::ExceptionBase" = type <{ %"class.std::exception", i8*, i32, [4 x i8], i8*, i8*, i8*, i8**, i32, [4 x i8] }>
%"class.libparest::MessageLog::Filters::GraphicalOutput" = type <{ %"class.libparest::MessageLog::Filters::Base", %"class.libparest::GraphicalDisplay", [4 x i8] }>
%"class.libparest::GraphicalDisplay" = type { [2 x i32], i32 }
%"class.std::allocator.20" = type { i8 }
%"class.__gnu_cxx::__normal_iterator" = type { %"class.libparest::MessageLog::Filters::Base"** }
%"struct.std::_Rb_tree_const_iterator" = type { %"struct.std::_Rb_tree_node_base"* }
%"struct.std::_Rb_tree_iterator" = type { %"struct.std::_Rb_tree_node_base"* }
%"class.libparest::MessageLog::ServerBase::ExcNameAlreadyUsed" = type { %"class.dealii::ExceptionBase.base", %"class.std::__cxx11::basic_string" }
%"struct.std::pair" = type { i32, %"class.std::__cxx11::basic_string" }
%"struct.std::_Rb_tree_node" = type { %"struct.std::_Rb_tree_node_base", %"struct.__gnu_cxx::__aligned_membuf" }
%"struct.__gnu_cxx::__aligned_membuf" = type { [40 x i8] }
%"class.std::tuple" = type { %"struct.std::_Tuple_impl" }
%"struct.std::_Tuple_impl" = type { %"struct.std::_Head_base" }
%"struct.std::_Head_base" = type { i32* }
%"class.std::tuple.31" = type { i8 }
%"class.libparest::MessageLog::ServerBase::ExcIDNotRegistered" = type { %"class.dealii::ExceptionBase.base", i32 }
%"class.std::allocator.25" = type { i8 }
%"class.__gnu_cxx::new_allocator.26" = type { i8 }
%"class.__gnu_cxx::new_allocator.21" = type { i8 }
%"struct.std::integral_constant" = type { i8 }
%"struct.std::random_access_iterator_tag" = type { i8 }
%"struct.std::pair.32" = type { %"struct.std::_Rb_tree_node_base"*, %"struct.std::_Rb_tree_node_base"* }
%"struct.std::_Select1st" = type { i8 }
%"struct.std::_Index_tuple" = type { i8 }
%"struct.std::_Index_tuple.35" = type { i8 }
%"class.std::__pair_base" = type { i8 }
%"class.std::__pair_base.33" = type { i8 }

$_ZN5boost3argILi1EEC2Ev = comdat any

$_ZN5boost3argILi2EEC2Ev = comdat any

$_ZN5boost3argILi3EEC2Ev = comdat any

$_ZN5boost3argILi4EEC2Ev = comdat any

$_ZN5boost3argILi5EEC2Ev = comdat any

$_ZN5boost3argILi6EEC2Ev = comdat any

$_ZN5boost3argILi7EEC2Ev = comdat any

$_ZN5boost3argILi8EEC2Ev = comdat any

$_ZN5boost3argILi9EEC2Ev = comdat any

$_ZN9libparest10MessageLog7Filters4BaseC2Ev = comdat any

$_ZN6dealii7Threads16DummyThreadMutex10ScopedLockC2ERS1_ = comdat any

$_ZN6dealii7Threads16DummyThreadMutex10ScopedLockD2Ev = comdat any

$_ZStplIcSt11char_traitsIcESaIcEENSt7__cxx1112basic_stringIT_T0_T1_EEOS8_PKS5_ = comdat any

$_ZStplIcSt11char_traitsIcESaIcEENSt7__cxx1112basic_stringIT_T0_T1_EEOS8_RKS8_ = comdat any

$_ZN6dealii18deal_II_exceptions9internals17issue_error_throwINS_18StandardExceptions10ExcMessageEEEvPKciS6_S6_S6_T_ = comdat any

$_ZN6dealii18StandardExceptions10ExcMessageC2EPKc = comdat any

$_ZN6dealii18StandardExceptions10ExcMessageD2Ev = comdat any

$_ZNKSt6vectorIPKN9libparest10MessageLog7Filters4BaseESaIS5_EE4sizeEv = comdat any

$_ZN9libparest10delete_ptrIKNS_10MessageLog7Filters4BaseEEEvRPT_ = comdat any

$_ZNSt6vectorIPKN9libparest10MessageLog7Filters4BaseESaIS5_EEixEm = comdat any

$_ZNSt6vectorIPKN9libparest10MessageLog7Filters4BaseESaIS5_EE6resizeEm = comdat any

$_ZNSt6vectorIPKN9libparest10MessageLog7Filters4BaseESaIS5_EED2Ev = comdat any

$__clang_call_terminate = comdat any

$_ZNSt6vectorIPKN9libparest10MessageLog7Filters4BaseESaIS5_EE9push_backERKS5_ = comdat any

$_ZNKSt6vectorIPKN9libparest10MessageLog7Filters4BaseESaIS5_EEixEm = comdat any

$_ZNSt3mapIjNSt7__cxx1112basic_stringIcSt11char_traitsIcESaIcEEESt4lessIjESaISt4pairIKjS5_EEED2Ev = comdat any

$_ZN9libparest10MessageLog10ServerBaseC2Ev = comdat any

$_ZNSt3mapIjNSt7__cxx1112basic_stringIcSt11char_traitsIcESaIcEEESt4lessIjESaISt4pairIKjS5_EEEC2Ev = comdat any

$_ZNSt3mapIjNSt7__cxx1112basic_stringIcSt11char_traitsIcESaIcEEESt4lessIjESaISt4pairIKjS5_EEE5beginEv = comdat any

$_ZNSt23_Rb_tree_const_iteratorISt4pairIKjNSt7__cxx1112basic_stringIcSt11char_traitsIcESaIcEEEEEC2ERKSt17_Rb_tree_iteratorIS8_E = comdat any

$_ZStneRKSt23_Rb_tree_const_iteratorISt4pairIKjNSt7__cxx1112basic_stringIcSt11char_traitsIcESaIcEEEEESB_ = comdat any

$_ZNSt3mapIjNSt7__cxx1112basic_stringIcSt11char_traitsIcESaIcEEESt4lessIjESaISt4pairIKjS5_EEE3endEv = comdat any

$_ZSteqIcEN9__gnu_cxx11__enable_ifIXsr9__is_charIT_EE7__valueEbE6__typeERKNSt7__cxx1112basic_stringIS2_St11char_traitsIS2_ESaIS2_EEESC_ = comdat any

$_ZNKSt23_Rb_tree_const_iteratorISt4pairIKjNSt7__cxx1112basic_stringIcSt11char_traitsIcESaIcEEEEEptEv = comdat any

$_ZN6dealii18deal_II_exceptions9internals17issue_error_throwIN9libparest10MessageLog10ServerBase18ExcNameAlreadyUsedEEEvPKciS8_S8_S8_T_ = comdat any

$_ZN9libparest10MessageLog10ServerBase18ExcNameAlreadyUsedC2ENSt7__cxx1112basic_stringIcSt11char_traitsIcESaIcEEE = comdat any

$_ZN9libparest10MessageLog10ServerBase18ExcNameAlreadyUsedD2Ev = comdat any

$_ZNSt23_Rb_tree_const_iteratorISt4pairIKjNSt7__cxx1112basic_stringIcSt11char_traitsIcESaIcEEEEEppEv = comdat any

$_ZNSt3mapIjNSt7__cxx1112basic_stringIcSt11char_traitsIcESaIcEEESt4lessIjESaISt4pairIKjS5_EEEixERS9_ = comdat any

$_ZSteqRKSt17_Rb_tree_iteratorISt4pairIKjNSt7__cxx1112basic_stringIcSt11char_traitsIcESaIcEEEEESB_ = comdat any

$_ZNSt3mapIjNSt7__cxx1112basic_stringIcSt11char_traitsIcESaIcEEESt4lessIjESaISt4pairIKjS5_EEE4findERS9_ = comdat any

$_ZN6dealii18deal_II_exceptions9internals17issue_error_throwIN9libparest10MessageLog10ServerBase18ExcIDNotRegisteredEEEvPKciS8_S8_S8_T_ = comdat any

$_ZN9libparest10MessageLog10ServerBase18ExcIDNotRegisteredC2Ej = comdat any

$_ZN9libparest10MessageLog10ServerBase18ExcIDNotRegisteredD2Ev = comdat any

$_ZNSt3mapIjNSt7__cxx1112basic_stringIcSt11char_traitsIcESaIcEEESt4lessIjESaISt4pairIKjS5_EEE5eraseB5cxx11ESt17_Rb_tree_iteratorISA_E = comdat any

$_ZN6dealii12SmartPointerIN9libparest10MessageLog10ServerBaseEEC2EPS3_PKc = comdat any

$_ZN6dealii12SmartPointerIN9libparest10MessageLog10ServerBaseEED2Ev = comdat any

$_ZN9libparest10delete_ptrINSt7__cxx1119basic_ostringstreamIcSt11char_traitsIcESaIcEEEEEvRPT_ = comdat any

$_ZNK6dealii12SmartPointerIN9libparest10MessageLog10ServerBaseEEptEv = comdat any

$_ZNK6dealii12SmartPointerIN9libparest10MessageLog10ServerBaseEEdeEv = comdat any

$_ZN9libparest10MessageLog7Filters7OStreamD2Ev = comdat any

$_ZN9libparest10MessageLog7Filters7OStreamD0Ev = comdat any

$_ZN9libparest10MessageLog7Filters15GraphicalOutputD2Ev = comdat any

$_ZN9libparest10MessageLog7Filters15GraphicalOutputD0Ev = comdat any

$_ZN6dealii18StandardExceptions10ExcMessageD0Ev = comdat any

$_ZNK6dealii18StandardExceptions10ExcMessage10print_infoERSo = comdat any

$_ZNSt8_Rb_treeIjSt4pairIKjNSt7__cxx1112basic_stringIcSt11char_traitsIcESaIcEEEESt10_Select1stIS8_ESt4lessIjESaIS8_EED2Ev = comdat any

$_ZNSt8_Rb_treeIjSt4pairIKjNSt7__cxx1112basic_stringIcSt11char_traitsIcESaIcEEEESt10_Select1stIS8_ESt4lessIjESaIS8_EE8_M_eraseEPSt13_Rb_tree_nodeIS8_E = comdat any

$_ZNSt8_Rb_treeIjSt4pairIKjNSt7__cxx1112basic_stringIcSt11char_traitsIcESaIcEEEESt10_Select1stIS8_ESt4lessIjESaIS8_EE8_M_beginEv = comdat any

$_ZNSt8_Rb_treeIjSt4pairIKjNSt7__cxx1112basic_stringIcSt11char_traitsIcESaIcEEEESt10_Select1stIS8_ESt4lessIjESaIS8_EE13_Rb_tree_implISC_Lb1EED2Ev = comdat any

$_ZNSt8_Rb_treeIjSt4pairIKjNSt7__cxx1112basic_stringIcSt11char_traitsIcESaIcEEEESt10_Select1stIS8_ESt4lessIjESaIS8_EE8_S_rightEPSt18_Rb_tree_node_base = comdat any

$_ZNSt8_Rb_treeIjSt4pairIKjNSt7__cxx1112basic_stringIcSt11char_traitsIcESaIcEEEESt10_Select1stIS8_ESt4lessIjESaIS8_EE7_S_leftEPSt18_Rb_tree_node_base = comdat any

$_ZNSt8_Rb_treeIjSt4pairIKjNSt7__cxx1112basic_stringIcSt11char_traitsIcESaIcEEEESt10_Select1stIS8_ESt4lessIjESaIS8_EE12_M_drop_nodeEPSt13_Rb_tree_nodeIS8_E = comdat any

$_ZNSt8_Rb_treeIjSt4pairIKjNSt7__cxx1112basic_stringIcSt11char_traitsIcESaIcEEEESt10_Select1stIS8_ESt4lessIjESaIS8_EE15_M_destroy_nodeEPSt13_Rb_tree_nodeIS8_E = comdat any

$_ZNSt8_Rb_treeIjSt4pairIKjNSt7__cxx1112basic_stringIcSt11char_traitsIcESaIcEEEESt10_Select1stIS8_ESt4lessIjESaIS8_EE11_M_put_nodeEPSt13_Rb_tree_nodeIS8_E = comdat any

$_ZNSt16allocator_traitsISaISt13_Rb_tree_nodeISt4pairIKjNSt7__cxx1112basic_stringIcSt11char_traitsIcESaIcEEEEEEE7destroyIS9_EEvRSB_PT_ = comdat any

$_ZNSt8_Rb_treeIjSt4pairIKjNSt7__cxx1112basic_stringIcSt11char_traitsIcESaIcEEEESt10_Select1stIS8_ESt4lessIjESaIS8_EE21_M_get_Node_allocatorEv = comdat any

$_ZNSt13_Rb_tree_nodeISt4pairIKjNSt7__cxx1112basic_stringIcSt11char_traitsIcESaIcEEEEE9_M_valptrEv = comdat any

$_ZN9__gnu_cxx13new_allocatorISt13_Rb_tree_nodeISt4pairIKjNSt7__cxx1112basic_stringIcSt11char_traitsIcESaIcEEEEEE7destroyISA_EEvPT_ = comdat any

$_ZNSt4pairIKjNSt7__cxx1112basic_stringIcSt11char_traitsIcESaIcEEEED2Ev = comdat any

$_ZN9__gnu_cxx16__aligned_membufISt4pairIKjNSt7__cxx1112basic_stringIcSt11char_traitsIcESaIcEEEEE6_M_ptrEv = comdat any

$_ZN9__gnu_cxx16__aligned_membufISt4pairIKjNSt7__cxx1112basic_stringIcSt11char_traitsIcESaIcEEEEE7_M_addrEv = comdat any

$_ZNSt16allocator_traitsISaISt13_Rb_tree_nodeISt4pairIKjNSt7__cxx1112basic_stringIcSt11char_traitsIcESaIcEEEEEEE10deallocateERSB_PSA_m = comdat any

$_ZN9__gnu_cxx13new_allocatorISt13_Rb_tree_nodeISt4pairIKjNSt7__cxx1112basic_stringIcSt11char_traitsIcESaIcEEEEEE10deallocateEPSB_m = comdat any

$_ZNSaISt13_Rb_tree_nodeISt4pairIKjNSt7__cxx1112basic_stringIcSt11char_traitsIcESaIcEEEEEED2Ev = comdat any

$_ZN9__gnu_cxx13new_allocatorISt13_Rb_tree_nodeISt4pairIKjNSt7__cxx1112basic_stringIcSt11char_traitsIcESaIcEEEEEED2Ev = comdat any

$_ZNSt6vectorIPKN9libparest10MessageLog7Filters4BaseESaIS5_EEC2Ev = comdat any

$_ZNSt12_Vector_baseIPKN9libparest10MessageLog7Filters4BaseESaIS5_EEC2Ev = comdat any

$_ZNSt12_Vector_baseIPKN9libparest10MessageLog7Filters4BaseESaIS5_EE12_Vector_implC2Ev = comdat any

$_ZNSaIPKN9libparest10MessageLog7Filters4BaseEEC2Ev = comdat any

$_ZNSt12_Vector_baseIPKN9libparest10MessageLog7Filters4BaseESaIS5_EE17_Vector_impl_dataC2Ev = comdat any

$_ZN9__gnu_cxx13new_allocatorIPKN9libparest10MessageLog7Filters4BaseEEC2Ev = comdat any

$_ZNSt8_Rb_treeIjSt4pairIKjNSt7__cxx1112basic_stringIcSt11char_traitsIcESaIcEEEESt10_Select1stIS8_ESt4lessIjESaIS8_EEC2Ev = comdat any

$_ZNSt8_Rb_treeIjSt4pairIKjNSt7__cxx1112basic_stringIcSt11char_traitsIcESaIcEEEESt10_Select1stIS8_ESt4lessIjESaIS8_EE13_Rb_tree_implISC_Lb1EEC2Ev = comdat any

$_ZNSaISt13_Rb_tree_nodeISt4pairIKjNSt7__cxx1112basic_stringIcSt11char_traitsIcESaIcEEEEEEC2Ev = comdat any

$_ZNSt20_Rb_tree_key_compareISt4lessIjEEC2Ev = comdat any

$_ZNSt15_Rb_tree_headerC2Ev = comdat any

$_ZN9__gnu_cxx13new_allocatorISt13_Rb_tree_nodeISt4pairIKjNSt7__cxx1112basic_stringIcSt11char_traitsIcESaIcEEEEEEC2Ev = comdat any

$_ZNSt15_Rb_tree_header8_M_resetEv = comdat any

$_ZN9libparest10MessageLog10ServerBase18ExcNameAlreadyUsedD0Ev = comdat any

$_ZNK9libparest10MessageLog10ServerBase18ExcNameAlreadyUsed10print_infoERSo = comdat any

$_ZN9libparest10MessageLog10ServerBase18ExcIDNotRegisteredD0Ev = comdat any

$_ZNK9libparest10MessageLog10ServerBase18ExcIDNotRegistered10print_infoERSo = comdat any

$_ZSt4moveIRNSt7__cxx1112basic_stringIcSt11char_traitsIcESaIcEEEEONSt16remove_referenceIT_E4typeEOS8_ = comdat any

$_ZN6dealii18StandardExceptions10ExcMessageC2ERKS1_ = comdat any

$_ZNSt6vectorIPKN9libparest10MessageLog7Filters4BaseESaIS5_EE17_M_default_appendEm = comdat any

$_ZNSt6vectorIPKN9libparest10MessageLog7Filters4BaseESaIS5_EE15_M_erase_at_endEPS5_ = comdat any

$_ZNKSt6vectorIPKN9libparest10MessageLog7Filters4BaseESaIS5_EE8max_sizeEv = comdat any

$_ZSt27__uninitialized_default_n_aIPPKN9libparest10MessageLog7Filters4BaseEmS5_ET_S7_T0_RSaIT1_E = comdat any

$_ZNSt12_Vector_baseIPKN9libparest10MessageLog7Filters4BaseESaIS5_EE19_M_get_Tp_allocatorEv = comdat any

$_ZNKSt6vectorIPKN9libparest10MessageLog7Filters4BaseESaIS5_EE12_M_check_lenEmPKc = comdat any

$_ZNSt12_Vector_baseIPKN9libparest10MessageLog7Filters4BaseESaIS5_EE11_M_allocateEm = comdat any

$_ZNSt12_Vector_baseIPKN9libparest10MessageLog7Filters4BaseESaIS5_EE13_M_deallocateEPS5_m = comdat any

$_ZNSt6vectorIPKN9libparest10MessageLog7Filters4BaseESaIS5_EE11_S_relocateEPS5_S8_S8_RS6_ = comdat any

$_ZNSt6vectorIPKN9libparest10MessageLog7Filters4BaseESaIS5_EE11_S_max_sizeERKS6_ = comdat any

$_ZNKSt12_Vector_baseIPKN9libparest10MessageLog7Filters4BaseESaIS5_EE19_M_get_Tp_allocatorEv = comdat any

$_ZNSt16allocator_traitsISaIPKN9libparest10MessageLog7Filters4BaseEEE8max_sizeERKS6_ = comdat any

$_ZSt3minImERKT_S2_S2_ = comdat any

$_ZNK9__gnu_cxx13new_allocatorIPKN9libparest10MessageLog7Filters4BaseEE8max_sizeEv = comdat any

$_ZNK9__gnu_cxx13new_allocatorIPKN9libparest10MessageLog7Filters4BaseEE11_M_max_sizeEv = comdat any

$_ZSt25__uninitialized_default_nIPPKN9libparest10MessageLog7Filters4BaseEmET_S7_T0_ = comdat any

$_ZNSt27__uninitialized_default_n_1ILb1EE18__uninit_default_nIPPKN9libparest10MessageLog7Filters4BaseEmEET_S9_T0_ = comdat any

$_ZSt6fill_nIPPKN9libparest10MessageLog7Filters4BaseEmS5_ET_S7_T0_RKT1_ = comdat any

$_ZSt10__fill_n_aIPPKN9libparest10MessageLog7Filters4BaseEmS5_ET_S7_T0_RKT1_St26random_access_iterator_tag = comdat any

$_ZSt17__size_to_integerm = comdat any

$_ZSt19__iterator_categoryIPPKN9libparest10MessageLog7Filters4BaseEENSt15iterator_traitsIT_E17iterator_categoryERKS8_ = comdat any

$_ZSt8__fill_aIPPKN9libparest10MessageLog7Filters4BaseES5_EvT_S7_RKT0_ = comdat any

$_ZSt9__fill_a1IPPKN9libparest10MessageLog7Filters4BaseES5_EN9__gnu_cxx11__enable_ifIXsr11__is_scalarIT0_EE7__valueEvE6__typeET_SC_RKS9_ = comdat any

$_ZSt3maxImERKT_S2_S2_ = comdat any

$_ZNSt16allocator_traitsISaIPKN9libparest10MessageLog7Filters4BaseEEE8allocateERS6_m = comdat any

$_ZN9__gnu_cxx13new_allocatorIPKN9libparest10MessageLog7Filters4BaseEE8allocateEmPKv = comdat any

$_ZNSt16allocator_traitsISaIPKN9libparest10MessageLog7Filters4BaseEEE10deallocateERS6_PS5_m = comdat any

$_ZN9__gnu_cxx13new_allocatorIPKN9libparest10MessageLog7Filters4BaseEE10deallocateEPS6_m = comdat any

$_ZNSt6vectorIPKN9libparest10MessageLog7Filters4BaseESaIS5_EE14_S_do_relocateEPS5_S8_S8_RS6_St17integral_constantIbLb1EE = comdat any

$_ZSt12__relocate_aIPPKN9libparest10MessageLog7Filters4BaseES6_SaIS5_EET0_T_S9_S8_RT1_ = comdat any

$_ZSt14__relocate_a_1IPKN9libparest10MessageLog7Filters4BaseES5_ENSt9enable_ifIXsr3std24__is_bitwise_relocatableIT_EE5valueEPS7_E4typeES8_S8_S8_RSaIT0_E = comdat any

$_ZSt12__niter_baseIPPKN9libparest10MessageLog7Filters4BaseEET_S7_ = comdat any

$_ZSt8_DestroyIPPKN9libparest10MessageLog7Filters4BaseES5_EvT_S7_RSaIT0_E = comdat any

$_ZSt8_DestroyIPPKN9libparest10MessageLog7Filters4BaseEEvT_S7_ = comdat any

$_ZNSt12_Destroy_auxILb1EE9__destroyIPPKN9libparest10MessageLog7Filters4BaseEEEvT_S9_ = comdat any

$_ZNSt12_Vector_baseIPKN9libparest10MessageLog7Filters4BaseESaIS5_EED2Ev = comdat any

$_ZNSt12_Vector_baseIPKN9libparest10MessageLog7Filters4BaseESaIS5_EE12_Vector_implD2Ev = comdat any

$_ZNSaIPKN9libparest10MessageLog7Filters4BaseEED2Ev = comdat any

$_ZN9__gnu_cxx13new_allocatorIPKN9libparest10MessageLog7Filters4BaseEED2Ev = comdat any

$_ZNSt16allocator_traitsISaIPKN9libparest10MessageLog7Filters4BaseEEE9constructIS5_JRKS5_EEEvRS6_PT_DpOT0_ = comdat any

$_ZNSt6vectorIPKN9libparest10MessageLog7Filters4BaseESaIS5_EE17_M_realloc_insertIJRKS5_EEEvN9__gnu_cxx17__normal_iteratorIPS5_S7_EEDpOT_ = comdat any

$_ZNSt6vectorIPKN9libparest10MessageLog7Filters4BaseESaIS5_EE3endEv = comdat any

$_ZN9__gnu_cxx13new_allocatorIPKN9libparest10MessageLog7Filters4BaseEE9constructIS6_JRKS6_EEEvPT_DpOT0_ = comdat any

$_ZSt7forwardIRKPKN9libparest10MessageLog7Filters4BaseEEOT_RNSt16remove_referenceIS8_E4typeE = comdat any

$_ZN9__gnu_cxxmiIPPKN9libparest10MessageLog7Filters4BaseESt6vectorIS6_SaIS6_EEEENS_17__normal_iteratorIT_T0_E15difference_typeERKSE_SH_ = comdat any

$_ZNSt6vectorIPKN9libparest10MessageLog7Filters4BaseESaIS5_EE5beginEv = comdat any

$_ZNK9__gnu_cxx17__normal_iteratorIPPKN9libparest10MessageLog7Filters4BaseESt6vectorIS6_SaIS6_EEE4baseEv = comdat any

$_ZN9__gnu_cxx17__normal_iteratorIPPKN9libparest10MessageLog7Filters4BaseESt6vectorIS6_SaIS6_EEEC2ERKS7_ = comdat any

$_ZNSt8_Rb_treeIjSt4pairIKjNSt7__cxx1112basic_stringIcSt11char_traitsIcESaIcEEEESt10_Select1stIS8_ESt4lessIjESaIS8_EE5beginEv = comdat any

$_ZNSt17_Rb_tree_iteratorISt4pairIKjNSt7__cxx1112basic_stringIcSt11char_traitsIcESaIcEEEEEC2EPSt18_Rb_tree_node_base = comdat any

$_ZNSt8_Rb_treeIjSt4pairIKjNSt7__cxx1112basic_stringIcSt11char_traitsIcESaIcEEEESt10_Select1stIS8_ESt4lessIjESaIS8_EE3endEv = comdat any

$_ZNKSt13_Rb_tree_nodeISt4pairIKjNSt7__cxx1112basic_stringIcSt11char_traitsIcESaIcEEEEE9_M_valptrEv = comdat any

$_ZNK9__gnu_cxx16__aligned_membufISt4pairIKjNSt7__cxx1112basic_stringIcSt11char_traitsIcESaIcEEEEE6_M_ptrEv = comdat any

$_ZNK9__gnu_cxx16__aligned_membufISt4pairIKjNSt7__cxx1112basic_stringIcSt11char_traitsIcESaIcEEEEE7_M_addrEv = comdat any

$_ZNSt11char_traitsIcE7compareEPKcS2_m = comdat any

$_ZN9libparest10MessageLog10ServerBase18ExcNameAlreadyUsedC2ERKS2_ = comdat any

$_ZNSt3mapIjNSt7__cxx1112basic_stringIcSt11char_traitsIcESaIcEEESt4lessIjESaISt4pairIKjS5_EEE11lower_boundERS9_ = comdat any

$_ZNKSt3mapIjNSt7__cxx1112basic_stringIcSt11char_traitsIcESaIcEEESt4lessIjESaISt4pairIKjS5_EEE8key_compEv = comdat any

$_ZNKSt4lessIjEclERKjS2_ = comdat any

$_ZNKSt17_Rb_tree_iteratorISt4pairIKjNSt7__cxx1112basic_stringIcSt11char_traitsIcESaIcEEEEEdeEv = comdat any

$_ZNSt8_Rb_treeIjSt4pairIKjNSt7__cxx1112basic_stringIcSt11char_traitsIcESaIcEEEESt10_Select1stIS8_ESt4lessIjESaIS8_EE22_M_emplace_hint_uniqueIJRKSt21piecewise_construct_tSt5tupleIJRS1_EESJ_IJEEEEESt17_Rb_tree_iteratorIS8_ESt23_Rb_tree_const_iteratorIS8_EDpOT_ = comdat any

$_ZNSt5tupleIJRKjEEC2ILb1ELb1EEES1_ = comdat any

$_ZNSt8_Rb_treeIjSt4pairIKjNSt7__cxx1112basic_stringIcSt11char_traitsIcESaIcEEEESt10_Select1stIS8_ESt4lessIjESaIS8_EE11lower_boundERS1_ = comdat any

$_ZNSt8_Rb_treeIjSt4pairIKjNSt7__cxx1112basic_stringIcSt11char_traitsIcESaIcEEEESt10_Select1stIS8_ESt4lessIjESaIS8_EE14_M_lower_boundEPSt13_Rb_tree_nodeIS8_EPSt18_Rb_tree_node_baseRS1_ = comdat any

$_ZNSt8_Rb_treeIjSt4pairIKjNSt7__cxx1112basic_stringIcSt11char_traitsIcESaIcEEEESt10_Select1stIS8_ESt4lessIjESaIS8_EE6_M_endEv = comdat any

$_ZNSt8_Rb_treeIjSt4pairIKjNSt7__cxx1112basic_stringIcSt11char_traitsIcESaIcEEEESt10_Select1stIS8_ESt4lessIjESaIS8_EE6_S_keyEPKSt13_Rb_tree_nodeIS8_E = comdat any

$_ZNKSt10_Select1stISt4pairIKjNSt7__cxx1112basic_stringIcSt11char_traitsIcESaIcEEEEEclERKS8_ = comdat any

$_ZNKSt8_Rb_treeIjSt4pairIKjNSt7__cxx1112basic_stringIcSt11char_traitsIcESaIcEEEESt10_Select1stIS8_ESt4lessIjESaIS8_EE8key_compEv = comdat any

$_ZNSt8_Rb_treeIjSt4pairIKjNSt7__cxx1112basic_stringIcSt11char_traitsIcESaIcEEEESt10_Select1stIS8_ESt4lessIjESaIS8_EE14_M_create_nodeIJRKSt21piecewise_construct_tSt5tupleIJRS1_EESJ_IJEEEEEPSt13_Rb_tree_nodeIS8_EDpOT_ = comdat any

$_ZSt7forwardIRKSt21piecewise_construct_tEOT_RNSt16remove_referenceIS3_E4typeE = comdat any

$_ZSt7forwardISt5tupleIJRKjEEEOT_RNSt16remove_referenceIS4_E4typeE = comdat any

$_ZSt7forwardISt5tupleIJEEEOT_RNSt16remove_referenceIS2_E4typeE = comdat any

$_ZNSt8_Rb_treeIjSt4pairIKjNSt7__cxx1112basic_stringIcSt11char_traitsIcESaIcEEEESt10_Select1stIS8_ESt4lessIjESaIS8_EE29_M_get_insert_hint_unique_posESt23_Rb_tree_const_iteratorIS8_ERS1_ = comdat any

$_ZNSt8_Rb_treeIjSt4pairIKjNSt7__cxx1112basic_stringIcSt11char_traitsIcESaIcEEEESt10_Select1stIS8_ESt4lessIjESaIS8_EE14_M_insert_nodeEPSt18_Rb_tree_node_baseSG_PSt13_Rb_tree_nodeIS8_E = comdat any

$_ZNSt8_Rb_treeIjSt4pairIKjNSt7__cxx1112basic_stringIcSt11char_traitsIcESaIcEEEESt10_Select1stIS8_ESt4lessIjESaIS8_EE11_M_get_nodeEv = comdat any

$_ZNSt8_Rb_treeIjSt4pairIKjNSt7__cxx1112basic_stringIcSt11char_traitsIcESaIcEEEESt10_Select1stIS8_ESt4lessIjESaIS8_EE17_M_construct_nodeIJRKSt21piecewise_construct_tSt5tupleIJRS1_EESJ_IJEEEEEvPSt13_Rb_tree_nodeIS8_EDpOT_ = comdat any

$_ZNSt16allocator_traitsISaISt13_Rb_tree_nodeISt4pairIKjNSt7__cxx1112basic_stringIcSt11char_traitsIcESaIcEEEEEEE8allocateERSB_m = comdat any

$_ZN9__gnu_cxx13new_allocatorISt13_Rb_tree_nodeISt4pairIKjNSt7__cxx1112basic_stringIcSt11char_traitsIcESaIcEEEEEE8allocateEmPKv = comdat any

$_ZNK9__gnu_cxx13new_allocatorISt13_Rb_tree_nodeISt4pairIKjNSt7__cxx1112basic_stringIcSt11char_traitsIcESaIcEEEEEE11_M_max_sizeEv = comdat any

$_ZNSt16allocator_traitsISaISt13_Rb_tree_nodeISt4pairIKjNSt7__cxx1112basic_stringIcSt11char_traitsIcESaIcEEEEEEE9constructIS9_JRKSt21piecewise_construct_tSt5tupleIJRS2_EESH_IJEEEEEvRSB_PT_DpOT0_ = comdat any

$_ZN9__gnu_cxx13new_allocatorISt13_Rb_tree_nodeISt4pairIKjNSt7__cxx1112basic_stringIcSt11char_traitsIcESaIcEEEEEE9constructISA_JRKSt21piecewise_construct_tSt5tupleIJRS3_EESH_IJEEEEEvPT_DpOT0_ = comdat any

$_ZNSt5tupleIJRKjEEC2EOS2_ = comdat any

$_ZNSt4pairIKjNSt7__cxx1112basic_stringIcSt11char_traitsIcESaIcEEEEC2IJRS0_EJEEESt21piecewise_construct_tSt5tupleIJDpT_EESB_IJDpT0_EE = comdat any

$_ZNSt11_Tuple_implILm0EJRKjEEC2EOS2_ = comdat any

$_ZSt7forwardIRKjEOT_RNSt16remove_referenceIS2_E4typeE = comdat any

$_ZNSt11_Tuple_implILm0EJRKjEE7_M_headERS2_ = comdat any

$_ZNSt10_Head_baseILm0ERKjLb0EEC2ES1_ = comdat any

$_ZNSt10_Head_baseILm0ERKjLb0EE7_M_headERS2_ = comdat any

$_ZNSt4pairIKjNSt7__cxx1112basic_stringIcSt11char_traitsIcESaIcEEEEC2IJRS0_EJLm0EEJEJEEERSt5tupleIJDpT_EERSA_IJDpT1_EESt12_Index_tupleIJXspT0_EEESJ_IJXspT2_EEE = comdat any

$_ZSt3getILm0EJRKjEERNSt13tuple_elementIXT_ESt5tupleIJDpT0_EEE4typeERS6_ = comdat any

$_ZSt12__get_helperILm0ERKjJEERT0_RSt11_Tuple_implIXT_EJS2_DpT1_EE = comdat any

$_ZNKSt23_Rb_tree_const_iteratorISt4pairIKjNSt7__cxx1112basic_stringIcSt11char_traitsIcESaIcEEEEE13_M_const_castEv = comdat any

$_ZNKSt8_Rb_treeIjSt4pairIKjNSt7__cxx1112basic_stringIcSt11char_traitsIcESaIcEEEESt10_Select1stIS8_ESt4lessIjESaIS8_EE4sizeEv = comdat any

$_ZNSt8_Rb_treeIjSt4pairIKjNSt7__cxx1112basic_stringIcSt11char_traitsIcESaIcEEEESt10_Select1stIS8_ESt4lessIjESaIS8_EE6_S_keyEPKSt18_Rb_tree_node_base = comdat any

$_ZNSt8_Rb_treeIjSt4pairIKjNSt7__cxx1112basic_stringIcSt11char_traitsIcESaIcEEEESt10_Select1stIS8_ESt4lessIjESaIS8_EE12_M_rightmostEv = comdat any

$_ZNSt4pairIPSt18_Rb_tree_node_baseS1_EC2IRS1_Lb1EEERKS1_OT_ = comdat any

$_ZNSt8_Rb_treeIjSt4pairIKjNSt7__cxx1112basic_stringIcSt11char_traitsIcESaIcEEEESt10_Select1stIS8_ESt4lessIjESaIS8_EE24_M_get_insert_unique_posERS1_ = comdat any

$_ZNSt8_Rb_treeIjSt4pairIKjNSt7__cxx1112basic_stringIcSt11char_traitsIcESaIcEEEESt10_Select1stIS8_ESt4lessIjESaIS8_EE11_M_leftmostEv = comdat any

$_ZNSt4pairIPSt18_Rb_tree_node_baseS1_EC2IRS1_S4_Lb1EEEOT_OT0_ = comdat any

$_ZNSt17_Rb_tree_iteratorISt4pairIKjNSt7__cxx1112basic_stringIcSt11char_traitsIcESaIcEEEEEmmEv = comdat any

$_ZNSt17_Rb_tree_iteratorISt4pairIKjNSt7__cxx1112basic_stringIcSt11char_traitsIcESaIcEEEEEppEv = comdat any

$_ZNSt4pairIPSt18_Rb_tree_node_baseS1_EC2IRS1_Lb1EEEOT_RKS1_ = comdat any

$_ZSt7forwardIRPSt18_Rb_tree_node_baseEOT_RNSt16remove_referenceIS3_E4typeE = comdat any

$_ZNSt4pairIPSt18_Rb_tree_node_baseS1_EC2IRPSt13_Rb_tree_nodeIS_IKjNSt7__cxx1112basic_stringIcSt11char_traitsIcESaIcEEEEERS1_Lb1EEEOT_OT0_ = comdat any

$_ZSt7forwardIRPSt13_Rb_tree_nodeISt4pairIKjNSt7__cxx1112basic_stringIcSt11char_traitsIcESaIcEEEEEEOT_RNSt16remove_referenceISD_E4typeE = comdat any

$_ZNSt11_Tuple_implILm0EJRKjEEC2ES1_ = comdat any

$_ZNSt8_Rb_treeIjSt4pairIKjNSt7__cxx1112basic_stringIcSt11char_traitsIcESaIcEEEESt10_Select1stIS8_ESt4lessIjESaIS8_EE4findERS1_ = comdat any

$_ZN9libparest10MessageLog10ServerBase18ExcIDNotRegisteredC2ERKS2_ = comdat any

$_ZNSt8_Rb_treeIjSt4pairIKjNSt7__cxx1112basic_stringIcSt11char_traitsIcESaIcEEEESt10_Select1stIS8_ESt4lessIjESaIS8_EE5eraseB5cxx11ESt17_Rb_tree_iteratorIS8_E = comdat any

$_ZNSt8_Rb_treeIjSt4pairIKjNSt7__cxx1112basic_stringIcSt11char_traitsIcESaIcEEEESt10_Select1stIS8_ESt4lessIjESaIS8_EE12_M_erase_auxESt23_Rb_tree_const_iteratorIS8_E = comdat any

$_ZNK6dealii11Subscriptor9subscribeEPKc = comdat any

$_ZNK6dealii11Subscriptor11unsubscribeEPKc = comdat any

$_ZTVN6dealii18StandardExceptions10ExcMessageE = comdat any

$_ZTSN6dealii18StandardExceptions10ExcMessageE = comdat any

$_ZTIN6dealii18StandardExceptions10ExcMessageE = comdat any

$_ZTVN9libparest10MessageLog10ServerBase18ExcNameAlreadyUsedE = comdat any

$_ZTSN9libparest10MessageLog10ServerBase18ExcNameAlreadyUsedE = comdat any

$_ZTIN9libparest10MessageLog10ServerBase18ExcNameAlreadyUsedE = comdat any

$_ZTVN9libparest10MessageLog10ServerBase18ExcIDNotRegisteredE = comdat any

$_ZTSN9libparest10MessageLog10ServerBase18ExcIDNotRegisteredE = comdat any

$_ZTIN9libparest10MessageLog10ServerBase18ExcIDNotRegisteredE = comdat any

@_ZN12_GLOBAL__N_12_1E = internal global %"struct.boost::arg" zeroinitializer, align 1, !dbg !0
@_ZN12_GLOBAL__N_12_2E = internal global %"struct.boost::arg.0" zeroinitializer, align 1, !dbg !15
@_ZN12_GLOBAL__N_12_3E = internal global %"struct.boost::arg.2" zeroinitializer, align 1, !dbg !25
@_ZN12_GLOBAL__N_12_4E = internal global %"struct.boost::arg.4" zeroinitializer, align 1, !dbg !35
@_ZN12_GLOBAL__N_12_5E = internal global %"struct.boost::arg.6" zeroinitializer, align 1, !dbg !45
@_ZN12_GLOBAL__N_12_6E = internal global %"struct.boost::arg.8" zeroinitializer, align 1, !dbg !55
@_ZN12_GLOBAL__N_12_7E = internal global %"struct.boost::arg.10" zeroinitializer, align 1, !dbg !65
@_ZN12_GLOBAL__N_12_8E = internal global %"struct.boost::arg.12" zeroinitializer, align 1, !dbg !75
@_ZN12_GLOBAL__N_12_9E = internal global %"struct.boost::arg.14" zeroinitializer, align 1, !dbg !85
@_ZStL8__ioinit = internal global %"class.std::ios_base::Init" zeroinitializer, align 1, !dbg !95
@__dso_handle = external hidden global i8
@_ZTVN9libparest10MessageLog7Filters7OStreamE = dso_local unnamed_addr constant { [5 x i8*] } { [5 x i8*] [i8* null, i8* bitcast ({ i8*, i8*, i8* }* @_ZTIN9libparest10MessageLog7Filters7OStreamE to i8*), i8* bitcast (void (%"class.libparest::MessageLog::Filters::OStream"*)* @_ZN9libparest10MessageLog7Filters7OStreamD2Ev to i8*), i8* bitcast (void (%"class.libparest::MessageLog::Filters::OStream"*)* @_ZN9libparest10MessageLog7Filters7OStreamD0Ev to i8*), i8* bitcast (i1 (%"class.libparest::MessageLog::Filters::OStream"*, %"class.std::__cxx11::basic_string"*, %"class.std::__cxx11::basic_string"*, i32)* @_ZNK9libparest10MessageLog7Filters7OStream6filterERKNSt7__cxx1112basic_stringIcSt11char_traitsIcESaIcEEESA_j to i8*)] }, align 8
@.str = private unnamed_addr constant [3 x i8] c" [\00", align 1
@.str.10 = private unnamed_addr constant [3 x i8] c": \00", align 1
@_ZTVN9libparest10MessageLog7Filters8OFStreamE = dso_local unnamed_addr constant { [5 x i8*] } { [5 x i8*] [i8* null, i8* bitcast ({ i8*, i8*, i8* }* @_ZTIN9libparest10MessageLog7Filters8OFStreamE to i8*), i8* bitcast (void (%"class.libparest::MessageLog::Filters::OFStream"*)* @_ZN9libparest10MessageLog7Filters8OFStreamD1Ev to i8*), i8* bitcast (void (%"class.libparest::MessageLog::Filters::OFStream"*)* @_ZN9libparest10MessageLog7Filters8OFStreamD0Ev to i8*), i8* bitcast (i1 (%"class.libparest::MessageLog::Filters::OStream"*, %"class.std::__cxx11::basic_string"*, %"class.std::__cxx11::basic_string"*, i32)* @_ZNK9libparest10MessageLog7Filters7OStream6filterERKNSt7__cxx1112basic_stringIcSt11char_traitsIcESaIcEEESA_j to i8*)] }, align 8
@_ZZN9libparest10MessageLog7Filters8OFStreamC1ERKNSt7__cxx1112basic_stringIcSt11char_traitsIcESaIcEEEjbE7messageB5cxx11 = internal global %"class.std::__cxx11::basic_string" zeroinitializer, align 8, !dbg !122
@_ZGVZN9libparest10MessageLog7Filters8OFStreamC1ERKNSt7__cxx1112basic_stringIcSt11char_traitsIcESaIcEEEjbE7messageB5cxx11 = internal global i64 0, align 8
@.str.11 = private unnamed_addr constant [22 x i8] c"Can't write to file <\00", align 1
@.str.12 = private unnamed_addr constant [2 x i8] c">\00", align 1
@.str.13 = private unnamed_addr constant [32 x i8] c"source/libparest/message_log.cc\00", align 1
@.str.14 = private unnamed_addr constant [1 x i8] zeroinitializer, align 1
@.str.15 = private unnamed_addr constant [4 x i8] c"out\00", align 1
@.str.16 = private unnamed_addr constant [28 x i8] c"ExcMessage(message.c_str())\00", align 1
@.str.17 = private unnamed_addr constant [17 x i8] c"program status: \00", align 1
@_ZTVN9libparest10MessageLog10ServerBaseE = dso_local unnamed_addr constant { [8 x i8*] } { [8 x i8*] [i8* null, i8* bitcast ({ i8*, i8*, i8* }* @_ZTIN9libparest10MessageLog10ServerBaseE to i8*), i8* bitcast (void (%"class.libparest::MessageLog::ServerBase"*)* @_ZN9libparest10MessageLog10ServerBaseD1Ev to i8*), i8* bitcast (void (%"class.libparest::MessageLog::ServerBase"*)* @_ZN9libparest10MessageLog10ServerBaseD0Ev to i8*), i8* bitcast (void ()* @__cxa_pure_virtual to i8*), i8* bitcast (void ()* @__cxa_pure_virtual to i8*), i8* bitcast (void ()* @__cxa_pure_virtual to i8*), i8* bitcast (void (%"class.libparest::MessageLog::ServerBase"*, %"class.libparest::MessageLog::Filters::Base"*)* @_ZN9libparest10MessageLog10ServerBase13attach_filterEPKNS0_7Filters4BaseE to i8*)] }, align 8
@_ZTVN9libparest10MessageLog6ServerE = dso_local unnamed_addr constant { [8 x i8*] } { [8 x i8*] [i8* null, i8* bitcast ({ i8*, i8*, i8* }* @_ZTIN9libparest10MessageLog6ServerE to i8*), i8* bitcast (void (%"class.libparest::MessageLog::Server"*)* @_ZN9libparest10MessageLog6ServerD1Ev to i8*), i8* bitcast (void (%"class.libparest::MessageLog::Server"*)* @_ZN9libparest10MessageLog6ServerD0Ev to i8*), i8* bitcast (i32 (%"class.libparest::MessageLog::Server"*, %"class.std::__cxx11::basic_string"*)* @_ZN9libparest10MessageLog6Server15register_clientERKNSt7__cxx1112basic_stringIcSt11char_traitsIcESaIcEEE to i8*), i8* bitcast (void (%"class.libparest::MessageLog::Server"*, i32)* @_ZN9libparest10MessageLog6Server17deregister_clientEj to i8*), i8* bitcast (void (%"class.libparest::MessageLog::Server"*, i32, %"class.std::__cxx11::basic_string"*, i32)* @_ZN9libparest10MessageLog6Server11put_messageEjRKNSt7__cxx1112basic_stringIcSt11char_traitsIcESaIcEEEj to i8*), i8* bitcast (void (%"class.libparest::MessageLog::ServerBase"*, %"class.libparest::MessageLog::Filters::Base"*)* @_ZN9libparest10MessageLog10ServerBase13attach_filterEPKNS0_7Filters4BaseE to i8*)] }, align 8
@.str.18 = private unnamed_addr constant [6 x i8] c"false\00", align 1
@.str.19 = private unnamed_addr constant [26 x i8] c"ExcNameAlreadyUsed (name)\00", align 1
@.str.20 = private unnamed_addr constant [24 x i8] c"ExcIDNotRegistered (id)\00", align 1
@_ZTVN9libparest10MessageLog7Filters4BaseE = dso_local unnamed_addr constant { [5 x i8*] } { [5 x i8*] [i8* null, i8* bitcast ({ i8*, i8* }* @_ZTIN9libparest10MessageLog7Filters4BaseE to i8*), i8* bitcast (void (%"class.libparest::MessageLog::Filters::Base"*)* @_ZN9libparest10MessageLog7Filters4BaseD1Ev to i8*), i8* bitcast (void (%"class.libparest::MessageLog::Filters::Base"*)* @_ZN9libparest10MessageLog7Filters4BaseD0Ev to i8*), i8* bitcast (void ()* @__cxa_pure_virtual to i8*)] }, align 8
@_ZTVN10__cxxabiv117__class_type_infoE = external dso_local global i8*
@_ZTSN9libparest10MessageLog7Filters4BaseE = dso_local constant [38 x i8] c"N9libparest10MessageLog7Filters4BaseE\00", align 1
@_ZTIN9libparest10MessageLog7Filters4BaseE = dso_local constant { i8*, i8* } { i8* bitcast (i8** getelementptr inbounds (i8*, i8** @_ZTVN10__cxxabiv117__class_type_infoE, i64 2) to i8*), i8* getelementptr inbounds ([38 x i8], [38 x i8]* @_ZTSN9libparest10MessageLog7Filters4BaseE, i32 0, i32 0) }, align 8
@_ZTVN10__cxxabiv120__si_class_type_infoE = external dso_local global i8*
@_ZTSN9libparest10MessageLog7Filters7OStreamE = dso_local constant [41 x i8] c"N9libparest10MessageLog7Filters7OStreamE\00", align 1
@_ZTIN9libparest10MessageLog7Filters7OStreamE = dso_local constant { i8*, i8*, i8* } { i8* bitcast (i8** getelementptr inbounds (i8*, i8** @_ZTVN10__cxxabiv120__si_class_type_infoE, i64 2) to i8*), i8* getelementptr inbounds ([41 x i8], [41 x i8]* @_ZTSN9libparest10MessageLog7Filters7OStreamE, i32 0, i32 0), i8* bitcast ({ i8*, i8* }* @_ZTIN9libparest10MessageLog7Filters4BaseE to i8*) }, align 8
@_ZTSN9libparest10MessageLog7Filters8OFStreamE = dso_local constant [42 x i8] c"N9libparest10MessageLog7Filters8OFStreamE\00", align 1
@_ZTIN9libparest10MessageLog7Filters8OFStreamE = dso_local constant { i8*, i8*, i8* } { i8* bitcast (i8** getelementptr inbounds (i8*, i8** @_ZTVN10__cxxabiv120__si_class_type_infoE, i64 2) to i8*), i8* getelementptr inbounds ([42 x i8], [42 x i8]* @_ZTSN9libparest10MessageLog7Filters8OFStreamE, i32 0, i32 0), i8* bitcast ({ i8*, i8*, i8* }* @_ZTIN9libparest10MessageLog7Filters7OStreamE to i8*) }, align 8
@_ZTVN9libparest10MessageLog7Filters15GraphicalOutputE = dso_local unnamed_addr constant { [5 x i8*] } { [5 x i8*] [i8* null, i8* bitcast ({ i8*, i8*, i8* }* @_ZTIN9libparest10MessageLog7Filters15GraphicalOutputE to i8*), i8* bitcast (void (%"class.libparest::MessageLog::Filters::GraphicalOutput"*)* @_ZN9libparest10MessageLog7Filters15GraphicalOutputD2Ev to i8*), i8* bitcast (void (%"class.libparest::MessageLog::Filters::GraphicalOutput"*)* @_ZN9libparest10MessageLog7Filters15GraphicalOutputD0Ev to i8*), i8* bitcast (i1 (%"class.libparest::MessageLog::Filters::GraphicalOutput"*, %"class.std::__cxx11::basic_string"*, %"class.std::__cxx11::basic_string"*, i32)* @_ZNK9libparest10MessageLog7Filters15GraphicalOutput6filterERKNSt7__cxx1112basic_stringIcSt11char_traitsIcESaIcEEESA_j to i8*)] }, align 8
@_ZTSN9libparest10MessageLog7Filters15GraphicalOutputE = dso_local constant [50 x i8] c"N9libparest10MessageLog7Filters15GraphicalOutputE\00", align 1
@_ZTIN9libparest10MessageLog7Filters15GraphicalOutputE = dso_local constant { i8*, i8*, i8* } { i8* bitcast (i8** getelementptr inbounds (i8*, i8** @_ZTVN10__cxxabiv120__si_class_type_infoE, i64 2) to i8*), i8* getelementptr inbounds ([50 x i8], [50 x i8]* @_ZTSN9libparest10MessageLog7Filters15GraphicalOutputE, i32 0, i32 0), i8* bitcast ({ i8*, i8* }* @_ZTIN9libparest10MessageLog7Filters4BaseE to i8*) }, align 8
@_ZTSN9libparest10MessageLog10ServerBaseE = dso_local constant [37 x i8] c"N9libparest10MessageLog10ServerBaseE\00", align 1
@_ZTIN6dealii11SubscriptorE = external dso_local constant i8*
@_ZTIN9libparest10MessageLog10ServerBaseE = dso_local constant { i8*, i8*, i8* } { i8* bitcast (i8** getelementptr inbounds (i8*, i8** @_ZTVN10__cxxabiv120__si_class_type_infoE, i64 2) to i8*), i8* getelementptr inbounds ([37 x i8], [37 x i8]* @_ZTSN9libparest10MessageLog10ServerBaseE, i32 0, i32 0), i8* bitcast (i8** @_ZTIN6dealii11SubscriptorE to i8*) }, align 8
@_ZTSN9libparest10MessageLog6ServerE = dso_local constant [32 x i8] c"N9libparest10MessageLog6ServerE\00", align 1
@_ZTIN9libparest10MessageLog6ServerE = dso_local constant { i8*, i8*, i8* } { i8* bitcast (i8** getelementptr inbounds (i8*, i8** @_ZTVN10__cxxabiv120__si_class_type_infoE, i64 2) to i8*), i8* getelementptr inbounds ([32 x i8], [32 x i8]* @_ZTSN9libparest10MessageLog6ServerE, i32 0, i32 0), i8* bitcast ({ i8*, i8*, i8* }* @_ZTIN9libparest10MessageLog10ServerBaseE to i8*) }, align 8
@_ZTVN9libparest10MessageLog13ServerFactoryE = dso_local unnamed_addr constant { [5 x i8*] } { [5 x i8*] [i8* null, i8* bitcast ({ i8*, i8* }* @_ZTIN9libparest10MessageLog13ServerFactoryE to i8*), i8* bitcast (void (%"class.libparest::MessageLog::ServerFactory"*)* @_ZN9libparest10MessageLog13ServerFactoryD1Ev to i8*), i8* bitcast (void (%"class.libparest::MessageLog::ServerFactory"*)* @_ZN9libparest10MessageLog13ServerFactoryD0Ev to i8*), i8* bitcast (void ()* @__cxa_pure_virtual to i8*)] }, align 8
@_ZTSN9libparest10MessageLog13ServerFactoryE = dso_local constant [40 x i8] c"N9libparest10MessageLog13ServerFactoryE\00", align 1
@_ZTIN9libparest10MessageLog13ServerFactoryE = dso_local constant { i8*, i8* } { i8* bitcast (i8** getelementptr inbounds (i8*, i8** @_ZTVN10__cxxabiv117__class_type_infoE, i64 2) to i8*), i8* getelementptr inbounds ([40 x i8], [40 x i8]* @_ZTSN9libparest10MessageLog13ServerFactoryE, i32 0, i32 0) }, align 8
@_ZTVN6dealii18StandardExceptions10ExcMessageE = linkonce_odr dso_local unnamed_addr constant { [6 x i8*] } { [6 x i8*] [i8* null, i8* bitcast ({ i8*, i8*, i8* }* @_ZTIN6dealii18StandardExceptions10ExcMessageE to i8*), i8* bitcast (void (%"class.dealii::StandardExceptions::ExcMessage"*)* @_ZN6dealii18StandardExceptions10ExcMessageD2Ev to i8*), i8* bitcast (void (%"class.dealii::StandardExceptions::ExcMessage"*)* @_ZN6dealii18StandardExceptions10ExcMessageD0Ev to i8*), i8* bitcast (i8* (%"class.dealii::ExceptionBase"*)* @_ZNK6dealii13ExceptionBase4whatEv to i8*), i8* bitcast (void (%"class.dealii::StandardExceptions::ExcMessage"*, %"class.std::basic_ostream"*)* @_ZNK6dealii18StandardExceptions10ExcMessage10print_infoERSo to i8*)] }, comdat, align 8
@_ZTSN6dealii18StandardExceptions10ExcMessageE = linkonce_odr dso_local constant [42 x i8] c"N6dealii18StandardExceptions10ExcMessageE\00", comdat, align 1
@_ZTIN6dealii13ExceptionBaseE = external dso_local constant i8*
@_ZTIN6dealii18StandardExceptions10ExcMessageE = linkonce_odr dso_local constant { i8*, i8*, i8* } { i8* bitcast (i8** getelementptr inbounds (i8*, i8** @_ZTVN10__cxxabiv120__si_class_type_infoE, i64 2) to i8*), i8* getelementptr inbounds ([42 x i8], [42 x i8]* @_ZTSN6dealii18StandardExceptions10ExcMessageE, i32 0, i32 0), i8* bitcast (i8** @_ZTIN6dealii13ExceptionBaseE to i8*) }, comdat, align 8
@_ZTVN9libparest10MessageLog10ServerBase18ExcNameAlreadyUsedE = linkonce_odr dso_local unnamed_addr constant { [6 x i8*] } { [6 x i8*] [i8* null, i8* bitcast ({ i8*, i8*, i8* }* @_ZTIN9libparest10MessageLog10ServerBase18ExcNameAlreadyUsedE to i8*), i8* bitcast (void (%"class.libparest::MessageLog::ServerBase::ExcNameAlreadyUsed"*)* @_ZN9libparest10MessageLog10ServerBase18ExcNameAlreadyUsedD2Ev to i8*), i8* bitcast (void (%"class.libparest::MessageLog::ServerBase::ExcNameAlreadyUsed"*)* @_ZN9libparest10MessageLog10ServerBase18ExcNameAlreadyUsedD0Ev to i8*), i8* bitcast (i8* (%"class.dealii::ExceptionBase"*)* @_ZNK6dealii13ExceptionBase4whatEv to i8*), i8* bitcast (void (%"class.libparest::MessageLog::ServerBase::ExcNameAlreadyUsed"*, %"class.std::basic_ostream"*)* @_ZNK9libparest10MessageLog10ServerBase18ExcNameAlreadyUsed10print_infoERSo to i8*)] }, comdat, align 8
@_ZTSN9libparest10MessageLog10ServerBase18ExcNameAlreadyUsedE = linkonce_odr dso_local constant [57 x i8] c"N9libparest10MessageLog10ServerBase18ExcNameAlreadyUsedE\00", comdat, align 1
@_ZTIN9libparest10MessageLog10ServerBase18ExcNameAlreadyUsedE = linkonce_odr dso_local constant { i8*, i8*, i8* } { i8* bitcast (i8** getelementptr inbounds (i8*, i8** @_ZTVN10__cxxabiv120__si_class_type_infoE, i64 2) to i8*), i8* getelementptr inbounds ([57 x i8], [57 x i8]* @_ZTSN9libparest10MessageLog10ServerBase18ExcNameAlreadyUsedE, i32 0, i32 0), i8* bitcast (i8** @_ZTIN6dealii13ExceptionBaseE to i8*) }, comdat, align 8
@.str.21 = private unnamed_addr constant [10 x i8] c"The name \00", align 1
@.str.22 = private unnamed_addr constant [33 x i8] c" is already in use for a client.\00", align 1
@_ZTVN9libparest10MessageLog10ServerBase18ExcIDNotRegisteredE = linkonce_odr dso_local unnamed_addr constant { [6 x i8*] } { [6 x i8*] [i8* null, i8* bitcast ({ i8*, i8*, i8* }* @_ZTIN9libparest10MessageLog10ServerBase18ExcIDNotRegisteredE to i8*), i8* bitcast (void (%"class.libparest::MessageLog::ServerBase::ExcIDNotRegistered"*)* @_ZN9libparest10MessageLog10ServerBase18ExcIDNotRegisteredD2Ev to i8*), i8* bitcast (void (%"class.libparest::MessageLog::ServerBase::ExcIDNotRegistered"*)* @_ZN9libparest10MessageLog10ServerBase18ExcIDNotRegisteredD0Ev to i8*), i8* bitcast (i8* (%"class.dealii::ExceptionBase"*)* @_ZNK6dealii13ExceptionBase4whatEv to i8*), i8* bitcast (void (%"class.libparest::MessageLog::ServerBase::ExcIDNotRegistered"*, %"class.std::basic_ostream"*)* @_ZNK9libparest10MessageLog10ServerBase18ExcIDNotRegistered10print_infoERSo to i8*)] }, comdat, align 8
@_ZTSN9libparest10MessageLog10ServerBase18ExcIDNotRegisteredE = linkonce_odr dso_local constant [57 x i8] c"N9libparest10MessageLog10ServerBase18ExcIDNotRegisteredE\00", comdat, align 1
@_ZTIN9libparest10MessageLog10ServerBase18ExcIDNotRegisteredE = linkonce_odr dso_local constant { i8*, i8*, i8* } { i8* bitcast (i8** getelementptr inbounds (i8*, i8** @_ZTVN10__cxxabiv120__si_class_type_infoE, i64 2) to i8*), i8* getelementptr inbounds ([57 x i8], [57 x i8]* @_ZTSN9libparest10MessageLog10ServerBase18ExcIDNotRegisteredE, i32 0, i32 0), i8* bitcast (i8** @_ZTIN6dealii13ExceptionBaseE to i8*) }, comdat, align 8
@.str.23 = private unnamed_addr constant [16 x i8] c"The identifier \00", align 1
@.str.24 = private unnamed_addr constant [38 x i8] c" has not been registered by a client.\00", align 1
@.str.25 = private unnamed_addr constant [26 x i8] c"vector::_M_default_append\00", align 1
@.str.26 = private unnamed_addr constant [26 x i8] c"vector::_M_realloc_insert\00", align 1
@_ZStL19piecewise_construct = internal constant %"struct.std::piecewise_construct_t" undef, align 1, !dbg !1810
@llvm.global_ctors = appending global [1 x { i32, void ()*, i8* }] [{ i32, void ()*, i8* } { i32 65535, void ()* @_GLOBAL__sub_I_message_log.cc, i8* null }]

@_ZN9libparest10MessageLog7Filters4BaseD1Ev = dso_local unnamed_addr alias void (%"class.libparest::MessageLog::Filters::Base"*), void (%"class.libparest::MessageLog::Filters::Base"*)* @_ZN9libparest10MessageLog7Filters4BaseD2Ev
@_ZN9libparest10MessageLog7Filters7OStreamC1ERSojb = dso_local unnamed_addr alias void (%"class.libparest::MessageLog::Filters::OStream"*, %"class.std::basic_ostream"*, i32, i1), void (%"class.libparest::MessageLog::Filters::OStream"*, %"class.std::basic_ostream"*, i32, i1)* @_ZN9libparest10MessageLog7Filters7OStreamC2ERSojb
@_ZN9libparest10MessageLog7Filters8OFStreamC1ERKNSt7__cxx1112basic_stringIcSt11char_traitsIcESaIcEEEjb = dso_local unnamed_addr alias void (%"class.libparest::MessageLog::Filters::OFStream"*, %"class.std::__cxx11::basic_string"*, i32, i1), void (%"class.libparest::MessageLog::Filters::OFStream"*, %"class.std::__cxx11::basic_string"*, i32, i1)* @_ZN9libparest10MessageLog7Filters8OFStreamC2ERKNSt7__cxx1112basic_stringIcSt11char_traitsIcESaIcEEEjb
@_ZN9libparest10MessageLog7Filters8OFStreamD1Ev = dso_local unnamed_addr alias void (%"class.libparest::MessageLog::Filters::OFStream"*), void (%"class.libparest::MessageLog::Filters::OFStream"*)* @_ZN9libparest10MessageLog7Filters8OFStreamD2Ev
@_ZN9libparest10MessageLog10ServerBaseD1Ev = dso_local unnamed_addr alias void (%"class.libparest::MessageLog::ServerBase"*), void (%"class.libparest::MessageLog::ServerBase"*)* @_ZN9libparest10MessageLog10ServerBaseD2Ev
@_ZN9libparest10MessageLog6ServerD1Ev = dso_local unnamed_addr alias void (%"class.libparest::MessageLog::Server"*), void (%"class.libparest::MessageLog::Server"*)* @_ZN9libparest10MessageLog6ServerD2Ev
@_ZN9libparest10MessageLog6ServerC1Ev = dso_local unnamed_addr alias void (%"class.libparest::MessageLog::Server"*), void (%"class.libparest::MessageLog::Server"*)* @_ZN9libparest10MessageLog6ServerC2Ev
@_ZN9libparest10MessageLog6ClientC1ERNS0_10ServerBaseERKNSt7__cxx1112basic_stringIcSt11char_traitsIcESaIcEEE = dso_local unnamed_addr alias void (%"class.libparest::MessageLog::Client"*, %"class.libparest::MessageLog::ServerBase"*, %"class.std::__cxx11::basic_string"*), void (%"class.libparest::MessageLog::Client"*, %"class.libparest::MessageLog::ServerBase"*, %"class.std::__cxx11::basic_string"*)* @_ZN9libparest10MessageLog6ClientC2ERNS0_10ServerBaseERKNSt7__cxx1112basic_stringIcSt11char_traitsIcESaIcEEE
@_ZN9libparest10MessageLog6ClientD1Ev = dso_local unnamed_addr alias void (%"class.libparest::MessageLog::Client"*), void (%"class.libparest::MessageLog::Client"*)* @_ZN9libparest10MessageLog6ClientD2Ev
@_ZN9libparest10MessageLog6Client14PriorityObjectC1Ej = dso_local unnamed_addr alias void (%"struct.libparest::MessageLog::Client::PriorityObject"*, i32), void (%"struct.libparest::MessageLog::Client::PriorityObject"*, i32)* @_ZN9libparest10MessageLog6Client14PriorityObjectC2Ej
@_ZN9libparest10MessageLog13ServerFactoryD1Ev = dso_local unnamed_addr alias void (%"class.libparest::MessageLog::ServerFactory"*), void (%"class.libparest::MessageLog::ServerFactory"*)* @_ZN9libparest10MessageLog13ServerFactoryD2Ev

; Function Attrs: noinline uwtable
define internal void @__cxx_global_var_init() #0 section ".text.startup" !dbg !3222 {
entry:
  call void @_ZN5boost3argILi1EEC2Ev(%"struct.boost::arg"* @_ZN12_GLOBAL__N_12_1E), !dbg !3223
  ret void, !dbg !3223
}

; Function Attrs: noinline nounwind uwtable
define linkonce_odr dso_local void @_ZN5boost3argILi1EEC2Ev(%"struct.boost::arg"* %this) unnamed_addr #1 comdat align 2 !dbg !3224 {
entry:
  %this.addr = alloca %"struct.boost::arg"*, align 8
  store %"struct.boost::arg"* %this, %"struct.boost::arg"** %this.addr, align 8
  call void @llvm.dbg.declare(metadata %"struct.boost::arg"** %this.addr, metadata !3225, metadata !DIExpression()), !dbg !3227
  %this1 = load %"struct.boost::arg"*, %"struct.boost::arg"** %this.addr, align 8
  ret void, !dbg !3228
}

; Function Attrs: noinline uwtable
define internal void @__cxx_global_var_init.1() #0 section ".text.startup" !dbg !3229 {
entry:
  call void @_ZN5boost3argILi2EEC2Ev(%"struct.boost::arg.0"* @_ZN12_GLOBAL__N_12_2E), !dbg !3230
  ret void, !dbg !3230
}

; Function Attrs: noinline nounwind uwtable
define linkonce_odr dso_local void @_ZN5boost3argILi2EEC2Ev(%"struct.boost::arg.0"* %this) unnamed_addr #1 comdat align 2 !dbg !3231 {
entry:
  %this.addr = alloca %"struct.boost::arg.0"*, align 8
  store %"struct.boost::arg.0"* %this, %"struct.boost::arg.0"** %this.addr, align 8
  call void @llvm.dbg.declare(metadata %"struct.boost::arg.0"** %this.addr, metadata !3232, metadata !DIExpression()), !dbg !3234
  %this1 = load %"struct.boost::arg.0"*, %"struct.boost::arg.0"** %this.addr, align 8
  ret void, !dbg !3235
}

; Function Attrs: noinline uwtable
define internal void @__cxx_global_var_init.2() #0 section ".text.startup" !dbg !3236 {
entry:
  call void @_ZN5boost3argILi3EEC2Ev(%"struct.boost::arg.2"* @_ZN12_GLOBAL__N_12_3E), !dbg !3237
  ret void, !dbg !3237
}

; Function Attrs: noinline nounwind uwtable
define linkonce_odr dso_local void @_ZN5boost3argILi3EEC2Ev(%"struct.boost::arg.2"* %this) unnamed_addr #1 comdat align 2 !dbg !3238 {
entry:
  %this.addr = alloca %"struct.boost::arg.2"*, align 8
  store %"struct.boost::arg.2"* %this, %"struct.boost::arg.2"** %this.addr, align 8
  call void @llvm.dbg.declare(metadata %"struct.boost::arg.2"** %this.addr, metadata !3239, metadata !DIExpression()), !dbg !3241
  %this1 = load %"struct.boost::arg.2"*, %"struct.boost::arg.2"** %this.addr, align 8
  ret void, !dbg !3242
}

; Function Attrs: noinline uwtable
define internal void @__cxx_global_var_init.3() #0 section ".text.startup" !dbg !3243 {
entry:
  call void @_ZN5boost3argILi4EEC2Ev(%"struct.boost::arg.4"* @_ZN12_GLOBAL__N_12_4E), !dbg !3244
  ret void, !dbg !3244
}

; Function Attrs: noinline nounwind uwtable
define linkonce_odr dso_local void @_ZN5boost3argILi4EEC2Ev(%"struct.boost::arg.4"* %this) unnamed_addr #1 comdat align 2 !dbg !3245 {
entry:
  %this.addr = alloca %"struct.boost::arg.4"*, align 8
  store %"struct.boost::arg.4"* %this, %"struct.boost::arg.4"** %this.addr, align 8
  call void @llvm.dbg.declare(metadata %"struct.boost::arg.4"** %this.addr, metadata !3246, metadata !DIExpression()), !dbg !3248
  %this1 = load %"struct.boost::arg.4"*, %"struct.boost::arg.4"** %this.addr, align 8
  ret void, !dbg !3249
}

; Function Attrs: noinline uwtable
define internal void @__cxx_global_var_init.4() #0 section ".text.startup" !dbg !3250 {
entry:
  call void @_ZN5boost3argILi5EEC2Ev(%"struct.boost::arg.6"* @_ZN12_GLOBAL__N_12_5E), !dbg !3251
  ret void, !dbg !3251
}

; Function Attrs: noinline nounwind uwtable
define linkonce_odr dso_local void @_ZN5boost3argILi5EEC2Ev(%"struct.boost::arg.6"* %this) unnamed_addr #1 comdat align 2 !dbg !3252 {
entry:
  %this.addr = alloca %"struct.boost::arg.6"*, align 8
  store %"struct.boost::arg.6"* %this, %"struct.boost::arg.6"** %this.addr, align 8
  call void @llvm.dbg.declare(metadata %"struct.boost::arg.6"** %this.addr, metadata !3253, metadata !DIExpression()), !dbg !3255
  %this1 = load %"struct.boost::arg.6"*, %"struct.boost::arg.6"** %this.addr, align 8
  ret void, !dbg !3256
}

; Function Attrs: noinline uwtable
define internal void @__cxx_global_var_init.5() #0 section ".text.startup" !dbg !3257 {
entry:
  call void @_ZN5boost3argILi6EEC2Ev(%"struct.boost::arg.8"* @_ZN12_GLOBAL__N_12_6E), !dbg !3258
  ret void, !dbg !3258
}

; Function Attrs: noinline nounwind uwtable
define linkonce_odr dso_local void @_ZN5boost3argILi6EEC2Ev(%"struct.boost::arg.8"* %this) unnamed_addr #1 comdat align 2 !dbg !3259 {
entry:
  %this.addr = alloca %"struct.boost::arg.8"*, align 8
  store %"struct.boost::arg.8"* %this, %"struct.boost::arg.8"** %this.addr, align 8
  call void @llvm.dbg.declare(metadata %"struct.boost::arg.8"** %this.addr, metadata !3260, metadata !DIExpression()), !dbg !3262
  %this1 = load %"struct.boost::arg.8"*, %"struct.boost::arg.8"** %this.addr, align 8
  ret void, !dbg !3263
}

; Function Attrs: noinline uwtable
define internal void @__cxx_global_var_init.6() #0 section ".text.startup" !dbg !3264 {
entry:
  call void @_ZN5boost3argILi7EEC2Ev(%"struct.boost::arg.10"* @_ZN12_GLOBAL__N_12_7E), !dbg !3265
  ret void, !dbg !3265
}

; Function Attrs: noinline nounwind uwtable
define linkonce_odr dso_local void @_ZN5boost3argILi7EEC2Ev(%"struct.boost::arg.10"* %this) unnamed_addr #1 comdat align 2 !dbg !3266 {
entry:
  %this.addr = alloca %"struct.boost::arg.10"*, align 8
  store %"struct.boost::arg.10"* %this, %"struct.boost::arg.10"** %this.addr, align 8
  call void @llvm.dbg.declare(metadata %"struct.boost::arg.10"** %this.addr, metadata !3267, metadata !DIExpression()), !dbg !3269
  %this1 = load %"struct.boost::arg.10"*, %"struct.boost::arg.10"** %this.addr, align 8
  ret void, !dbg !3270
}

; Function Attrs: noinline uwtable
define internal void @__cxx_global_var_init.7() #0 section ".text.startup" !dbg !3271 {
entry:
  call void @_ZN5boost3argILi8EEC2Ev(%"struct.boost::arg.12"* @_ZN12_GLOBAL__N_12_8E), !dbg !3272
  ret void, !dbg !3272
}

; Function Attrs: noinline nounwind uwtable
define linkonce_odr dso_local void @_ZN5boost3argILi8EEC2Ev(%"struct.boost::arg.12"* %this) unnamed_addr #1 comdat align 2 !dbg !3273 {
entry:
  %this.addr = alloca %"struct.boost::arg.12"*, align 8
  store %"struct.boost::arg.12"* %this, %"struct.boost::arg.12"** %this.addr, align 8
  call void @llvm.dbg.declare(metadata %"struct.boost::arg.12"** %this.addr, metadata !3274, metadata !DIExpression()), !dbg !3276
  %this1 = load %"struct.boost::arg.12"*, %"struct.boost::arg.12"** %this.addr, align 8
  ret void, !dbg !3277
}

; Function Attrs: noinline uwtable
define internal void @__cxx_global_var_init.8() #0 section ".text.startup" !dbg !3278 {
entry:
  call void @_ZN5boost3argILi9EEC2Ev(%"struct.boost::arg.14"* @_ZN12_GLOBAL__N_12_9E), !dbg !3279
  ret void, !dbg !3279
}

; Function Attrs: noinline nounwind uwtable
define linkonce_odr dso_local void @_ZN5boost3argILi9EEC2Ev(%"struct.boost::arg.14"* %this) unnamed_addr #1 comdat align 2 !dbg !3280 {
entry:
  %this.addr = alloca %"struct.boost::arg.14"*, align 8
  store %"struct.boost::arg.14"* %this, %"struct.boost::arg.14"** %this.addr, align 8
  call void @llvm.dbg.declare(metadata %"struct.boost::arg.14"** %this.addr, metadata !3281, metadata !DIExpression()), !dbg !3283
  %this1 = load %"struct.boost::arg.14"*, %"struct.boost::arg.14"** %this.addr, align 8
  ret void, !dbg !3284
}

; Function Attrs: noinline uwtable
define internal void @__cxx_global_var_init.9() #0 section ".text.startup" !dbg !3285 {
entry:
  call void @_ZNSt8ios_base4InitC1Ev(%"class.std::ios_base::Init"* @_ZStL8__ioinit), !dbg !3286
  %0 = call i32 @__cxa_atexit(void (i8*)* bitcast (void (%"class.std::ios_base::Init"*)* @_ZNSt8ios_base4InitD1Ev to void (i8*)*), i8* getelementptr inbounds (%"class.std::ios_base::Init", %"class.std::ios_base::Init"* @_ZStL8__ioinit, i32 0, i32 0), i8* @__dso_handle) #4, !dbg !3286
  ret void, !dbg !3286
}

declare dso_local void @_ZNSt8ios_base4InitC1Ev(%"class.std::ios_base::Init"*) unnamed_addr #2

; Function Attrs: nounwind
declare dso_local void @_ZNSt8ios_base4InitD1Ev(%"class.std::ios_base::Init"*) unnamed_addr #3

; Function Attrs: nounwind
declare dso_local i32 @__cxa_atexit(void (i8*)*, i8*, i8*) #4

; Function Attrs: noinline nounwind uwtable
define dso_local void @_ZN9libparest10MessageLog7Filters4BaseD2Ev(%"class.libparest::MessageLog::Filters::Base"* %this) unnamed_addr #1 align 2 !dbg !3287 {
entry:
  %this.addr = alloca %"class.libparest::MessageLog::Filters::Base"*, align 8
  store %"class.libparest::MessageLog::Filters::Base"* %this, %"class.libparest::MessageLog::Filters::Base"** %this.addr, align 8
  call void @llvm.dbg.declare(metadata %"class.libparest::MessageLog::Filters::Base"** %this.addr, metadata !3288, metadata !DIExpression()), !dbg !3290
  %this1 = load %"class.libparest::MessageLog::Filters::Base"*, %"class.libparest::MessageLog::Filters::Base"** %this.addr, align 8
  ret void, !dbg !3291
}

; Function Attrs: nounwind readnone speculatable willreturn
declare void @llvm.dbg.declare(metadata, metadata, metadata) #5

; Function Attrs: noinline nounwind uwtable
define dso_local void @_ZN9libparest10MessageLog7Filters4BaseD0Ev(%"class.libparest::MessageLog::Filters::Base"* %this) unnamed_addr #1 align 2 !dbg !3292 {
entry:
  %this.addr = alloca %"class.libparest::MessageLog::Filters::Base"*, align 8
  store %"class.libparest::MessageLog::Filters::Base"* %this, %"class.libparest::MessageLog::Filters::Base"** %this.addr, align 8
  call void @llvm.dbg.declare(metadata %"class.libparest::MessageLog::Filters::Base"** %this.addr, metadata !3293, metadata !DIExpression()), !dbg !3294
  %this1 = load %"class.libparest::MessageLog::Filters::Base"*, %"class.libparest::MessageLog::Filters::Base"** %this.addr, align 8
  call void @llvm.trap() #13, !dbg !3295
  unreachable, !dbg !3295
}

; Function Attrs: cold noreturn nounwind
declare void @llvm.trap() #6

; Function Attrs: noinline nounwind uwtable
define dso_local void @_ZN9libparest10MessageLog7Filters7OStreamC2ERSojb(%"class.libparest::MessageLog::Filters::OStream"* %this, %"class.std::basic_ostream"* dereferenceable(272) %out, i32 %priority_threshold, i1 zeroext %log_time) unnamed_addr #1 align 2 !dbg !3296 {
entry:
  %this.addr = alloca %"class.libparest::MessageLog::Filters::OStream"*, align 8
  %out.addr = alloca %"class.std::basic_ostream"*, align 8
  %priority_threshold.addr = alloca i32, align 4
  %log_time.addr = alloca i8, align 1
  store %"class.libparest::MessageLog::Filters::OStream"* %this, %"class.libparest::MessageLog::Filters::OStream"** %this.addr, align 8
  call void @llvm.dbg.declare(metadata %"class.libparest::MessageLog::Filters::OStream"** %this.addr, metadata !3297, metadata !DIExpression()), !dbg !3299
  store %"class.std::basic_ostream"* %out, %"class.std::basic_ostream"** %out.addr, align 8
  call void @llvm.dbg.declare(metadata %"class.std::basic_ostream"** %out.addr, metadata !3300, metadata !DIExpression()), !dbg !3301
  store i32 %priority_threshold, i32* %priority_threshold.addr, align 4
  call void @llvm.dbg.declare(metadata i32* %priority_threshold.addr, metadata !3302, metadata !DIExpression()), !dbg !3303
  %frombool = zext i1 %log_time to i8
  store i8 %frombool, i8* %log_time.addr, align 1
  call void @llvm.dbg.declare(metadata i8* %log_time.addr, metadata !3304, metadata !DIExpression()), !dbg !3305
  %this1 = load %"class.libparest::MessageLog::Filters::OStream"*, %"class.libparest::MessageLog::Filters::OStream"** %this.addr, align 8
  %0 = bitcast %"class.libparest::MessageLog::Filters::OStream"* %this1 to %"class.libparest::MessageLog::Filters::Base"*, !dbg !3306
  call void @_ZN9libparest10MessageLog7Filters4BaseC2Ev(%"class.libparest::MessageLog::Filters::Base"* %0) #4, !dbg !3307
  %1 = bitcast %"class.libparest::MessageLog::Filters::OStream"* %this1 to i32 (...)***, !dbg !3306
  store i32 (...)** bitcast (i8** getelementptr inbounds ({ [5 x i8*] }, { [5 x i8*] }* @_ZTVN9libparest10MessageLog7Filters7OStreamE, i32 0, inrange i32 0, i32 2) to i32 (...)**), i32 (...)*** %1, align 8, !dbg !3306
  %out2 = getelementptr inbounds %"class.libparest::MessageLog::Filters::OStream", %"class.libparest::MessageLog::Filters::OStream"* %this1, i32 0, i32 1, !dbg !3308
  %2 = load %"class.std::basic_ostream"*, %"class.std::basic_ostream"** %out.addr, align 8, !dbg !3309
  store %"class.std::basic_ostream"* %2, %"class.std::basic_ostream"** %out2, align 8, !dbg !3308
  %priority_threshold3 = getelementptr inbounds %"class.libparest::MessageLog::Filters::OStream", %"class.libparest::MessageLog::Filters::OStream"* %this1, i32 0, i32 2, !dbg !3310
  %3 = load i32, i32* %priority_threshold.addr, align 4, !dbg !3311
  store i32 %3, i32* %priority_threshold3, align 8, !dbg !3310
  %log_time4 = getelementptr inbounds %"class.libparest::MessageLog::Filters::OStream", %"class.libparest::MessageLog::Filters::OStream"* %this1, i32 0, i32 3, !dbg !3312
  %4 = load i8, i8* %log_time.addr, align 1, !dbg !3313
  %tobool = trunc i8 %4 to i1, !dbg !3313
  %frombool5 = zext i1 %tobool to i8, !dbg !3312
  store i8 %frombool5, i8* %log_time4, align 4, !dbg !3312
  %output_lock = getelementptr inbounds %"class.libparest::MessageLog::Filters::OStream", %"class.libparest::MessageLog::Filters::OStream"* %this1, i32 0, i32 4, !dbg !3307
  ret void, !dbg !3314
}

; Function Attrs: noinline nounwind uwtable
define linkonce_odr dso_local void @_ZN9libparest10MessageLog7Filters4BaseC2Ev(%"class.libparest::MessageLog::Filters::Base"* %this) unnamed_addr #1 comdat align 2 !dbg !3315 {
entry:
  %this.addr = alloca %"class.libparest::MessageLog::Filters::Base"*, align 8
  store %"class.libparest::MessageLog::Filters::Base"* %this, %"class.libparest::MessageLog::Filters::Base"** %this.addr, align 8
  call void @llvm.dbg.declare(metadata %"class.libparest::MessageLog::Filters::Base"** %this.addr, metadata !3317, metadata !DIExpression()), !dbg !3318
  %this1 = load %"class.libparest::MessageLog::Filters::Base"*, %"class.libparest::MessageLog::Filters::Base"** %this.addr, align 8
  %0 = bitcast %"class.libparest::MessageLog::Filters::Base"* %this1 to i32 (...)***, !dbg !3319
  store i32 (...)** bitcast (i8** getelementptr inbounds ({ [5 x i8*] }, { [5 x i8*] }* @_ZTVN9libparest10MessageLog7Filters4BaseE, i32 0, inrange i32 0, i32 2) to i32 (...)**), i32 (...)*** %0, align 8, !dbg !3319
  ret void, !dbg !3319
}

; Function Attrs: noinline uwtable
define dso_local zeroext i1 @_ZNK9libparest10MessageLog7Filters7OStream6filterERKNSt7__cxx1112basic_stringIcSt11char_traitsIcESaIcEEESA_j(%"class.libparest::MessageLog::Filters::OStream"* %this, %"class.std::__cxx11::basic_string"* dereferenceable(32) %prefix, %"class.std::__cxx11::basic_string"* dereferenceable(32) %message, i32 %priority) unnamed_addr #0 align 2 personality i8* bitcast (i32 (...)* @__gxx_personality_v0 to i8*) !dbg !3320 {
entry:
  %this.addr = alloca %"class.libparest::MessageLog::Filters::OStream"*, align 8
  %prefix.addr = alloca %"class.std::__cxx11::basic_string"*, align 8
  %message.addr = alloca %"class.std::__cxx11::basic_string"*, align 8
  %priority.addr = alloca i32, align 4
  %lock = alloca %"class.dealii::Threads::DummyThreadMutex::ScopedLock", align 1
  %exn.slot = alloca i8*
  %ehselector.slot = alloca i32
  store %"class.libparest::MessageLog::Filters::OStream"* %this, %"class.libparest::MessageLog::Filters::OStream"** %this.addr, align 8
  call void @llvm.dbg.declare(metadata %"class.libparest::MessageLog::Filters::OStream"** %this.addr, metadata !3321, metadata !DIExpression()), !dbg !3323
  store %"class.std::__cxx11::basic_string"* %prefix, %"class.std::__cxx11::basic_string"** %prefix.addr, align 8
  call void @llvm.dbg.declare(metadata %"class.std::__cxx11::basic_string"** %prefix.addr, metadata !3324, metadata !DIExpression()), !dbg !3325
  store %"class.std::__cxx11::basic_string"* %message, %"class.std::__cxx11::basic_string"** %message.addr, align 8
  call void @llvm.dbg.declare(metadata %"class.std::__cxx11::basic_string"** %message.addr, metadata !3326, metadata !DIExpression()), !dbg !3327
  store i32 %priority, i32* %priority.addr, align 4
  call void @llvm.dbg.declare(metadata i32* %priority.addr, metadata !3328, metadata !DIExpression()), !dbg !3329
  %this1 = load %"class.libparest::MessageLog::Filters::OStream"*, %"class.libparest::MessageLog::Filters::OStream"** %this.addr, align 8
  %0 = load i32, i32* %priority.addr, align 4, !dbg !3330
  %priority_threshold = getelementptr inbounds %"class.libparest::MessageLog::Filters::OStream", %"class.libparest::MessageLog::Filters::OStream"* %this1, i32 0, i32 2, !dbg !3332
  %1 = load i32, i32* %priority_threshold, align 8, !dbg !3332
  %cmp = icmp ule i32 %0, %1, !dbg !3333
  br i1 %cmp, label %if.then, label %if.end, !dbg !3334

if.then:                                          ; preds = %entry
  call void @llvm.dbg.declare(metadata %"class.dealii::Threads::DummyThreadMutex::ScopedLock"* %lock, metadata !3335, metadata !DIExpression()), !dbg !3347
  %output_lock = getelementptr inbounds %"class.libparest::MessageLog::Filters::OStream", %"class.libparest::MessageLog::Filters::OStream"* %this1, i32 0, i32 4, !dbg !3348
  call void @_ZN6dealii7Threads16DummyThreadMutex10ScopedLockC2ERS1_(%"class.dealii::Threads::DummyThreadMutex::ScopedLock"* %lock, %"class.dealii::Threads::DummyThreadMutex"* dereferenceable(1) %output_lock), !dbg !3347
  %out = getelementptr inbounds %"class.libparest::MessageLog::Filters::OStream", %"class.libparest::MessageLog::Filters::OStream"* %this1, i32 0, i32 1, !dbg !3349
  %2 = load %"class.std::basic_ostream"*, %"class.std::basic_ostream"** %out, align 8, !dbg !3349
  %3 = load %"class.std::__cxx11::basic_string"*, %"class.std::__cxx11::basic_string"** %prefix.addr, align 8, !dbg !3350
  %call = invoke dereferenceable(272) %"class.std::basic_ostream"* @_ZStlsIcSt11char_traitsIcESaIcEERSt13basic_ostreamIT_T0_ES7_RKNSt7__cxx1112basic_stringIS4_S5_T1_EE(%"class.std::basic_ostream"* dereferenceable(272) %2, %"class.std::__cxx11::basic_string"* dereferenceable(32) %3)
          to label %invoke.cont unwind label %lpad, !dbg !3351

invoke.cont:                                      ; preds = %if.then
  %call3 = invoke dereferenceable(272) %"class.std::basic_ostream"* @_ZStlsISt11char_traitsIcEERSt13basic_ostreamIcT_ES5_PKc(%"class.std::basic_ostream"* dereferenceable(272) %call, i8* getelementptr inbounds ([3 x i8], [3 x i8]* @.str, i64 0, i64 0))
          to label %invoke.cont2 unwind label %lpad, !dbg !3352

invoke.cont2:                                     ; preds = %invoke.cont
  %4 = load i32, i32* %priority.addr, align 4, !dbg !3353
  %call5 = invoke dereferenceable(272) %"class.std::basic_ostream"* @_ZNSolsEj(%"class.std::basic_ostream"* %call3, i32 %4)
          to label %invoke.cont4 unwind label %lpad, !dbg !3354

invoke.cont4:                                     ; preds = %invoke.cont2
  %call7 = invoke dereferenceable(272) %"class.std::basic_ostream"* @_ZStlsISt11char_traitsIcEERSt13basic_ostreamIcT_ES5_c(%"class.std::basic_ostream"* dereferenceable(272) %call5, i8 signext 93)
          to label %invoke.cont6 unwind label %lpad, !dbg !3355

invoke.cont6:                                     ; preds = %invoke.cont4
  %out8 = getelementptr inbounds %"class.libparest::MessageLog::Filters::OStream", %"class.libparest::MessageLog::Filters::OStream"* %this1, i32 0, i32 1, !dbg !3356
  %5 = load %"class.std::basic_ostream"*, %"class.std::basic_ostream"** %out8, align 8, !dbg !3356
  %call10 = invoke dereferenceable(272) %"class.std::basic_ostream"* @_ZStlsISt11char_traitsIcEERSt13basic_ostreamIcT_ES5_PKc(%"class.std::basic_ostream"* dereferenceable(272) %5, i8* getelementptr inbounds ([3 x i8], [3 x i8]* @.str.10, i64 0, i64 0))
          to label %invoke.cont9 unwind label %lpad, !dbg !3357

invoke.cont9:                                     ; preds = %invoke.cont6
  %6 = load %"class.std::__cxx11::basic_string"*, %"class.std::__cxx11::basic_string"** %message.addr, align 8, !dbg !3358
  %call12 = invoke dereferenceable(272) %"class.std::basic_ostream"* @_ZStlsIcSt11char_traitsIcESaIcEERSt13basic_ostreamIT_T0_ES7_RKNSt7__cxx1112basic_stringIS4_S5_T1_EE(%"class.std::basic_ostream"* dereferenceable(272) %call10, %"class.std::__cxx11::basic_string"* dereferenceable(32) %6)
          to label %invoke.cont11 unwind label %lpad, !dbg !3359

invoke.cont11:                                    ; preds = %invoke.cont9
  %out13 = getelementptr inbounds %"class.libparest::MessageLog::Filters::OStream", %"class.libparest::MessageLog::Filters::OStream"* %this1, i32 0, i32 1, !dbg !3360
  %7 = load %"class.std::basic_ostream"*, %"class.std::basic_ostream"** %out13, align 8, !dbg !3360
  %call15 = invoke dereferenceable(272) %"class.std::basic_ostream"* @_ZNSo5flushEv(%"class.std::basic_ostream"* %7)
          to label %invoke.cont14 unwind label %lpad, !dbg !3361

invoke.cont14:                                    ; preds = %invoke.cont11
  call void @_ZN6dealii7Threads16DummyThreadMutex10ScopedLockD2Ev(%"class.dealii::Threads::DummyThreadMutex::ScopedLock"* %lock) #4, !dbg !3362
  br label %if.end, !dbg !3363

lpad:                                             ; preds = %invoke.cont11, %invoke.cont9, %invoke.cont6, %invoke.cont4, %invoke.cont2, %invoke.cont, %if.then
  %8 = landingpad { i8*, i32 }
          cleanup, !dbg !3364
  %9 = extractvalue { i8*, i32 } %8, 0, !dbg !3364
  store i8* %9, i8** %exn.slot, align 8, !dbg !3364
  %10 = extractvalue { i8*, i32 } %8, 1, !dbg !3364
  store i32 %10, i32* %ehselector.slot, align 4, !dbg !3364
  call void @_ZN6dealii7Threads16DummyThreadMutex10ScopedLockD2Ev(%"class.dealii::Threads::DummyThreadMutex::ScopedLock"* %lock) #4, !dbg !3362
  br label %eh.resume, !dbg !3362

if.end:                                           ; preds = %invoke.cont14, %entry
  ret i1 false, !dbg !3365

eh.resume:                                        ; preds = %lpad
  %exn = load i8*, i8** %exn.slot, align 8, !dbg !3362
  %sel = load i32, i32* %ehselector.slot, align 4, !dbg !3362
  %lpad.val = insertvalue { i8*, i32 } undef, i8* %exn, 0, !dbg !3362
  %lpad.val16 = insertvalue { i8*, i32 } %lpad.val, i32 %sel, 1, !dbg !3362
  resume { i8*, i32 } %lpad.val16, !dbg !3362
}

; Function Attrs: noinline nounwind uwtable
define linkonce_odr dso_local void @_ZN6dealii7Threads16DummyThreadMutex10ScopedLockC2ERS1_(%"class.dealii::Threads::DummyThreadMutex::ScopedLock"* %this, %"class.dealii::Threads::DummyThreadMutex"* dereferenceable(1) %0) unnamed_addr #1 comdat align 2 !dbg !3366 {
entry:
  %this.addr = alloca %"class.dealii::Threads::DummyThreadMutex::ScopedLock"*, align 8
  %.addr = alloca %"class.dealii::Threads::DummyThreadMutex"*, align 8
  store %"class.dealii::Threads::DummyThreadMutex::ScopedLock"* %this, %"class.dealii::Threads::DummyThreadMutex::ScopedLock"** %this.addr, align 8
  call void @llvm.dbg.declare(metadata %"class.dealii::Threads::DummyThreadMutex::ScopedLock"** %this.addr, metadata !3367, metadata !DIExpression()), !dbg !3369
  store %"class.dealii::Threads::DummyThreadMutex"* %0, %"class.dealii::Threads::DummyThreadMutex"** %.addr, align 8
  call void @llvm.dbg.declare(metadata %"class.dealii::Threads::DummyThreadMutex"** %.addr, metadata !3370, metadata !DIExpression()), !dbg !3371
  %this1 = load %"class.dealii::Threads::DummyThreadMutex::ScopedLock"*, %"class.dealii::Threads::DummyThreadMutex::ScopedLock"** %this.addr, align 8
  ret void, !dbg !3372
}

declare dso_local dereferenceable(272) %"class.std::basic_ostream"* @_ZStlsISt11char_traitsIcEERSt13basic_ostreamIcT_ES5_c(%"class.std::basic_ostream"* dereferenceable(272), i8 signext) #2

declare dso_local dereferenceable(272) %"class.std::basic_ostream"* @_ZStlsISt11char_traitsIcEERSt13basic_ostreamIcT_ES5_PKc(%"class.std::basic_ostream"* dereferenceable(272), i8*) #2

declare dso_local dereferenceable(272) %"class.std::basic_ostream"* @_ZStlsIcSt11char_traitsIcESaIcEERSt13basic_ostreamIT_T0_ES7_RKNSt7__cxx1112basic_stringIS4_S5_T1_EE(%"class.std::basic_ostream"* dereferenceable(272), %"class.std::__cxx11::basic_string"* dereferenceable(32)) #2

declare dso_local i32 @__gxx_personality_v0(...)

declare dso_local dereferenceable(272) %"class.std::basic_ostream"* @_ZNSolsEj(%"class.std::basic_ostream"*, i32) #2

declare dso_local dereferenceable(272) %"class.std::basic_ostream"* @_ZNSo5flushEv(%"class.std::basic_ostream"*) #2

; Function Attrs: noinline nounwind uwtable
define linkonce_odr dso_local void @_ZN6dealii7Threads16DummyThreadMutex10ScopedLockD2Ev(%"class.dealii::Threads::DummyThreadMutex::ScopedLock"* %this) unnamed_addr #1 comdat align 2 !dbg !3373 {
entry:
  %this.addr = alloca %"class.dealii::Threads::DummyThreadMutex::ScopedLock"*, align 8
  store %"class.dealii::Threads::DummyThreadMutex::ScopedLock"* %this, %"class.dealii::Threads::DummyThreadMutex::ScopedLock"** %this.addr, align 8
  call void @llvm.dbg.declare(metadata %"class.dealii::Threads::DummyThreadMutex::ScopedLock"** %this.addr, metadata !3374, metadata !DIExpression()), !dbg !3375
  %this1 = load %"class.dealii::Threads::DummyThreadMutex::ScopedLock"*, %"class.dealii::Threads::DummyThreadMutex::ScopedLock"** %this.addr, align 8
  ret void, !dbg !3376
}

; Function Attrs: noinline uwtable
define dso_local void @_ZN9libparest10MessageLog7Filters8OFStreamC2ERKNSt7__cxx1112basic_stringIcSt11char_traitsIcESaIcEEEjb(%"class.libparest::MessageLog::Filters::OFStream"* %this, %"class.std::__cxx11::basic_string"* dereferenceable(32) %file_name, i32 %priority_threshold, i1 zeroext %log_time) unnamed_addr #0 align 2 personality i8* bitcast (i32 (...)* @__gxx_personality_v0 to i8*) !dbg !124 {
entry:
  %this.addr = alloca %"class.libparest::MessageLog::Filters::OFStream"*, align 8
  %file_name.addr = alloca %"class.std::__cxx11::basic_string"*, align 8
  %priority_threshold.addr = alloca i32, align 4
  %log_time.addr = alloca i8, align 1
  %exn.slot = alloca i8*
  %ehselector.slot = alloca i32
  %ref.tmp = alloca %"class.std::__cxx11::basic_string", align 8
  %ref.tmp7 = alloca %"class.std::__cxx11::basic_string", align 8
  %ref.tmp8 = alloca %"class.std::allocator", align 1
  %agg.tmp = alloca %"class.dealii::StandardExceptions::ExcMessage", align 8
  store %"class.libparest::MessageLog::Filters::OFStream"* %this, %"class.libparest::MessageLog::Filters::OFStream"** %this.addr, align 8
  call void @llvm.dbg.declare(metadata %"class.libparest::MessageLog::Filters::OFStream"** %this.addr, metadata !3377, metadata !DIExpression()), !dbg !3379
  store %"class.std::__cxx11::basic_string"* %file_name, %"class.std::__cxx11::basic_string"** %file_name.addr, align 8
  call void @llvm.dbg.declare(metadata %"class.std::__cxx11::basic_string"** %file_name.addr, metadata !3380, metadata !DIExpression()), !dbg !3381
  store i32 %priority_threshold, i32* %priority_threshold.addr, align 4
  call void @llvm.dbg.declare(metadata i32* %priority_threshold.addr, metadata !3382, metadata !DIExpression()), !dbg !3383
  %frombool = zext i1 %log_time to i8
  store i8 %frombool, i8* %log_time.addr, align 1
  call void @llvm.dbg.declare(metadata i8* %log_time.addr, metadata !3384, metadata !DIExpression()), !dbg !3385
  %this1 = load %"class.libparest::MessageLog::Filters::OFStream"*, %"class.libparest::MessageLog::Filters::OFStream"** %this.addr, align 8
  %0 = bitcast %"class.libparest::MessageLog::Filters::OFStream"* %this1 to %"class.libparest::MessageLog::Filters::OStream"*, !dbg !3386
  %call = call i8* @_Znwm(i64 512) #14, !dbg !3387
  %1 = bitcast i8* %call to %"class.std::basic_ofstream"*, !dbg !3387
  %2 = load %"class.std::__cxx11::basic_string"*, %"class.std::__cxx11::basic_string"** %file_name.addr, align 8, !dbg !3388
  %call2 = call i8* @_ZNKSt7__cxx1112basic_stringIcSt11char_traitsIcESaIcEE5c_strEv(%"class.std::__cxx11::basic_string"* %2) #4, !dbg !3389
  invoke void @_ZNSt14basic_ofstreamIcSt11char_traitsIcEEC1EPKcSt13_Ios_Openmode(%"class.std::basic_ofstream"* %1, i8* %call2, i32 16)
          to label %invoke.cont unwind label %lpad, !dbg !3390

invoke.cont:                                      ; preds = %entry
  %3 = bitcast %"class.std::basic_ofstream"* %1 to %"class.std::basic_ostream"*, !dbg !3391
  %4 = load i32, i32* %priority_threshold.addr, align 4, !dbg !3392
  %5 = load i8, i8* %log_time.addr, align 1, !dbg !3393
  %tobool = trunc i8 %5 to i1, !dbg !3393
  call void @_ZN9libparest10MessageLog7Filters7OStreamC2ERSojb(%"class.libparest::MessageLog::Filters::OStream"* %0, %"class.std::basic_ostream"* dereferenceable(272) %3, i32 %4, i1 zeroext %tobool), !dbg !3394
  %6 = bitcast %"class.libparest::MessageLog::Filters::OFStream"* %this1 to i32 (...)***, !dbg !3386
  store i32 (...)** bitcast (i8** getelementptr inbounds ({ [5 x i8*] }, { [5 x i8*] }* @_ZTVN9libparest10MessageLog7Filters8OFStreamE, i32 0, inrange i32 0, i32 2) to i32 (...)**), i32 (...)*** %6, align 8, !dbg !3386
  %7 = bitcast %"class.libparest::MessageLog::Filters::OFStream"* %this1 to %"class.libparest::MessageLog::Filters::OStream"*, !dbg !3395
  %out = getelementptr inbounds %"class.libparest::MessageLog::Filters::OStream", %"class.libparest::MessageLog::Filters::OStream"* %7, i32 0, i32 1, !dbg !3395
  %8 = load %"class.std::basic_ostream"*, %"class.std::basic_ostream"** %out, align 8, !dbg !3395
  %9 = bitcast %"class.std::basic_ostream"* %8 to i8**, !dbg !3395
  %vtable = load i8*, i8** %9, align 8, !dbg !3395
  %vbase.offset.ptr = getelementptr i8, i8* %vtable, i64 -24, !dbg !3395
  %10 = bitcast i8* %vbase.offset.ptr to i64*, !dbg !3395
  %vbase.offset = load i64, i64* %10, align 8, !dbg !3395
  %11 = bitcast %"class.std::basic_ostream"* %8 to i8*, !dbg !3395
  %add.ptr = getelementptr inbounds i8, i8* %11, i64 %vbase.offset, !dbg !3395
  %12 = bitcast i8* %add.ptr to %"class.std::basic_ios"*, !dbg !3395
  %call5 = invoke zeroext i1 @_ZNKSt9basic_iosIcSt11char_traitsIcEEntEv(%"class.std::basic_ios"* %12)
          to label %invoke.cont4 unwind label %lpad3, !dbg !3398

invoke.cont4:                                     ; preds = %invoke.cont
  br i1 %call5, label %if.then, label %if.end30, !dbg !3399

if.then:                                          ; preds = %invoke.cont4
  %13 = load atomic i8, i8* bitcast (i64* @_ZGVZN9libparest10MessageLog7Filters8OFStreamC1ERKNSt7__cxx1112basic_stringIcSt11char_traitsIcESaIcEEEjbE7messageB5cxx11 to i8*) acquire, align 8, !dbg !3400
  %guard.uninitialized = icmp eq i8 %13, 0, !dbg !3400
  br i1 %guard.uninitialized, label %init.check, label %init.end, !dbg !3400, !prof !3402

init.check:                                       ; preds = %if.then
  %14 = call i32 @__cxa_guard_acquire(i64* @_ZGVZN9libparest10MessageLog7Filters8OFStreamC1ERKNSt7__cxx1112basic_stringIcSt11char_traitsIcESaIcEEEjbE7messageB5cxx11) #4, !dbg !3400
  %tobool6 = icmp ne i32 %14, 0, !dbg !3400
  br i1 %tobool6, label %init, label %init.end, !dbg !3400

init:                                             ; preds = %init.check
  call void @_ZNSaIcEC1Ev(%"class.std::allocator"* %ref.tmp8) #4, !dbg !3403
  invoke void @_ZNSt7__cxx1112basic_stringIcSt11char_traitsIcESaIcEEC1EPKcRKS3_(%"class.std::__cxx11::basic_string"* %ref.tmp7, i8* getelementptr inbounds ([22 x i8], [22 x i8]* @.str.11, i64 0, i64 0), %"class.std::allocator"* dereferenceable(1) %ref.tmp8)
          to label %invoke.cont10 unwind label %lpad9, !dbg !3403

invoke.cont10:                                    ; preds = %init
  %15 = load %"class.std::__cxx11::basic_string"*, %"class.std::__cxx11::basic_string"** %file_name.addr, align 8, !dbg !3404
  invoke void @_ZStplIcSt11char_traitsIcESaIcEENSt7__cxx1112basic_stringIT_T0_T1_EEOS8_RKS8_(%"class.std::__cxx11::basic_string"* sret %ref.tmp, %"class.std::__cxx11::basic_string"* dereferenceable(32) %ref.tmp7, %"class.std::__cxx11::basic_string"* dereferenceable(32) %15)
          to label %invoke.cont12 unwind label %lpad11, !dbg !3405

invoke.cont12:                                    ; preds = %invoke.cont10
  invoke void @_ZStplIcSt11char_traitsIcESaIcEENSt7__cxx1112basic_stringIT_T0_T1_EEOS8_PKS5_(%"class.std::__cxx11::basic_string"* sret @_ZZN9libparest10MessageLog7Filters8OFStreamC1ERKNSt7__cxx1112basic_stringIcSt11char_traitsIcESaIcEEEjbE7messageB5cxx11, %"class.std::__cxx11::basic_string"* dereferenceable(32) %ref.tmp, i8* getelementptr inbounds ([2 x i8], [2 x i8]* @.str.12, i64 0, i64 0))
          to label %invoke.cont14 unwind label %lpad13, !dbg !3406

invoke.cont14:                                    ; preds = %invoke.cont12
  call void @_ZNSt7__cxx1112basic_stringIcSt11char_traitsIcESaIcEED1Ev(%"class.std::__cxx11::basic_string"* %ref.tmp) #4, !dbg !3403
  call void @_ZNSt7__cxx1112basic_stringIcSt11char_traitsIcESaIcEED1Ev(%"class.std::__cxx11::basic_string"* %ref.tmp7) #4, !dbg !3403
  call void @_ZNSaIcED1Ev(%"class.std::allocator"* %ref.tmp8) #4, !dbg !3403
  %16 = call i32 @__cxa_atexit(void (i8*)* bitcast (void (%"class.std::__cxx11::basic_string"*)* @_ZNSt7__cxx1112basic_stringIcSt11char_traitsIcESaIcEED1Ev to void (i8*)*), i8* bitcast (%"class.std::__cxx11::basic_string"* @_ZZN9libparest10MessageLog7Filters8OFStreamC1ERKNSt7__cxx1112basic_stringIcSt11char_traitsIcESaIcEEEjbE7messageB5cxx11 to i8*), i8* @__dso_handle) #4, !dbg !3400
  call void @__cxa_guard_release(i64* @_ZGVZN9libparest10MessageLog7Filters8OFStreamC1ERKNSt7__cxx1112basic_stringIcSt11char_traitsIcESaIcEEEjbE7messageB5cxx11) #4, !dbg !3400
  br label %init.end, !dbg !3400

init.end:                                         ; preds = %invoke.cont14, %init.check, %if.then
  %17 = bitcast %"class.libparest::MessageLog::Filters::OFStream"* %this1 to %"class.libparest::MessageLog::Filters::OStream"*, !dbg !3407
  %out17 = getelementptr inbounds %"class.libparest::MessageLog::Filters::OStream", %"class.libparest::MessageLog::Filters::OStream"* %17, i32 0, i32 1, !dbg !3407
  %18 = load %"class.std::basic_ostream"*, %"class.std::basic_ostream"** %out17, align 8, !dbg !3407
  %19 = bitcast %"class.std::basic_ostream"* %18 to i8**, !dbg !3407
  %vtable18 = load i8*, i8** %19, align 8, !dbg !3407
  %vbase.offset.ptr19 = getelementptr i8, i8* %vtable18, i64 -24, !dbg !3407
  %20 = bitcast i8* %vbase.offset.ptr19 to i64*, !dbg !3407
  %vbase.offset20 = load i64, i64* %20, align 8, !dbg !3407
  %21 = bitcast %"class.std::basic_ostream"* %18 to i8*, !dbg !3407
  %add.ptr21 = getelementptr inbounds i8, i8* %21, i64 %vbase.offset20, !dbg !3407
  %22 = bitcast i8* %add.ptr21 to %"class.std::basic_ios"*, !dbg !3407
  %call23 = invoke zeroext i1 @_ZNKSt9basic_iosIcSt11char_traitsIcEEntEv(%"class.std::basic_ios"* %22)
          to label %invoke.cont22 unwind label %lpad3, !dbg !3407

invoke.cont22:                                    ; preds = %init.end
  br i1 %call23, label %if.then24, label %if.end, !dbg !3410

if.then24:                                        ; preds = %invoke.cont22
  %call25 = call i8* @_ZNKSt7__cxx1112basic_stringIcSt11char_traitsIcESaIcEE5c_strEv(%"class.std::__cxx11::basic_string"* @_ZZN9libparest10MessageLog7Filters8OFStreamC1ERKNSt7__cxx1112basic_stringIcSt11char_traitsIcESaIcEEEjbE7messageB5cxx11) #4, !dbg !3407
  invoke void @_ZN6dealii18StandardExceptions10ExcMessageC2EPKc(%"class.dealii::StandardExceptions::ExcMessage"* %agg.tmp, i8* %call25)
          to label %invoke.cont26 unwind label %lpad3, !dbg !3407

invoke.cont26:                                    ; preds = %if.then24
  invoke void @_ZN6dealii18deal_II_exceptions9internals17issue_error_throwINS_18StandardExceptions10ExcMessageEEEvPKciS6_S6_S6_T_(i8* getelementptr inbounds ([32 x i8], [32 x i8]* @.str.13, i64 0, i64 0), i32 73, i8* getelementptr inbounds ([1 x i8], [1 x i8]* @.str.14, i64 0, i64 0), i8* getelementptr inbounds ([4 x i8], [4 x i8]* @.str.15, i64 0, i64 0), i8* getelementptr inbounds ([28 x i8], [28 x i8]* @.str.16, i64 0, i64 0), %"class.dealii::StandardExceptions::ExcMessage"* %agg.tmp)
          to label %invoke.cont28 unwind label %lpad27, !dbg !3407

invoke.cont28:                                    ; preds = %invoke.cont26
  call void @_ZN6dealii18StandardExceptions10ExcMessageD2Ev(%"class.dealii::StandardExceptions::ExcMessage"* %agg.tmp) #4, !dbg !3407
  br label %if.end, !dbg !3407

lpad:                                             ; preds = %entry
  %23 = landingpad { i8*, i32 }
          cleanup, !dbg !3411
  %24 = extractvalue { i8*, i32 } %23, 0, !dbg !3411
  store i8* %24, i8** %exn.slot, align 8, !dbg !3411
  %25 = extractvalue { i8*, i32 } %23, 1, !dbg !3411
  store i32 %25, i32* %ehselector.slot, align 4, !dbg !3411
  call void @_ZdlPv(i8* %call) #15, !dbg !3387
  br label %eh.resume, !dbg !3387

lpad3:                                            ; preds = %if.then24, %init.end, %invoke.cont
  %26 = landingpad { i8*, i32 }
          cleanup, !dbg !3412
  %27 = extractvalue { i8*, i32 } %26, 0, !dbg !3412
  store i8* %27, i8** %exn.slot, align 8, !dbg !3412
  %28 = extractvalue { i8*, i32 } %26, 1, !dbg !3412
  store i32 %28, i32* %ehselector.slot, align 4, !dbg !3412
  br label %ehcleanup31, !dbg !3412

lpad9:                                            ; preds = %init
  %29 = landingpad { i8*, i32 }
          cleanup, !dbg !3413
  %30 = extractvalue { i8*, i32 } %29, 0, !dbg !3413
  store i8* %30, i8** %exn.slot, align 8, !dbg !3413
  %31 = extractvalue { i8*, i32 } %29, 1, !dbg !3413
  store i32 %31, i32* %ehselector.slot, align 4, !dbg !3413
  br label %ehcleanup15, !dbg !3413

lpad11:                                           ; preds = %invoke.cont10
  %32 = landingpad { i8*, i32 }
          cleanup, !dbg !3413
  %33 = extractvalue { i8*, i32 } %32, 0, !dbg !3413
  store i8* %33, i8** %exn.slot, align 8, !dbg !3413
  %34 = extractvalue { i8*, i32 } %32, 1, !dbg !3413
  store i32 %34, i32* %ehselector.slot, align 4, !dbg !3413
  br label %ehcleanup, !dbg !3413

lpad13:                                           ; preds = %invoke.cont12
  %35 = landingpad { i8*, i32 }
          cleanup, !dbg !3413
  %36 = extractvalue { i8*, i32 } %35, 0, !dbg !3413
  store i8* %36, i8** %exn.slot, align 8, !dbg !3413
  %37 = extractvalue { i8*, i32 } %35, 1, !dbg !3413
  store i32 %37, i32* %ehselector.slot, align 4, !dbg !3413
  call void @_ZNSt7__cxx1112basic_stringIcSt11char_traitsIcESaIcEED1Ev(%"class.std::__cxx11::basic_string"* %ref.tmp) #4, !dbg !3403
  br label %ehcleanup, !dbg !3403

ehcleanup:                                        ; preds = %lpad13, %lpad11
  call void @_ZNSt7__cxx1112basic_stringIcSt11char_traitsIcESaIcEED1Ev(%"class.std::__cxx11::basic_string"* %ref.tmp7) #4, !dbg !3403
  br label %ehcleanup15, !dbg !3403

ehcleanup15:                                      ; preds = %ehcleanup, %lpad9
  call void @_ZNSaIcED1Ev(%"class.std::allocator"* %ref.tmp8) #4, !dbg !3403
  call void @__cxa_guard_abort(i64* @_ZGVZN9libparest10MessageLog7Filters8OFStreamC1ERKNSt7__cxx1112basic_stringIcSt11char_traitsIcESaIcEEEjbE7messageB5cxx11) #4, !dbg !3400
  br label %ehcleanup31, !dbg !3400

lpad27:                                           ; preds = %invoke.cont26
  %38 = landingpad { i8*, i32 }
          cleanup, !dbg !3414
  %39 = extractvalue { i8*, i32 } %38, 0, !dbg !3414
  store i8* %39, i8** %exn.slot, align 8, !dbg !3414
  %40 = extractvalue { i8*, i32 } %38, 1, !dbg !3414
  store i32 %40, i32* %ehselector.slot, align 4, !dbg !3414
  call void @_ZN6dealii18StandardExceptions10ExcMessageD2Ev(%"class.dealii::StandardExceptions::ExcMessage"* %agg.tmp) #4, !dbg !3407
  br label %ehcleanup31, !dbg !3407

if.end:                                           ; preds = %invoke.cont28, %invoke.cont22
  br label %if.end30, !dbg !3415

if.end30:                                         ; preds = %if.end, %invoke.cont4
  ret void, !dbg !3411

ehcleanup31:                                      ; preds = %lpad27, %ehcleanup15, %lpad3
  %41 = bitcast %"class.libparest::MessageLog::Filters::OFStream"* %this1 to %"class.libparest::MessageLog::Filters::OStream"*, !dbg !3416
  call void @_ZN9libparest10MessageLog7Filters7OStreamD2Ev(%"class.libparest::MessageLog::Filters::OStream"* %41) #4, !dbg !3416
  br label %eh.resume, !dbg !3416

eh.resume:                                        ; preds = %ehcleanup31, %lpad
  %exn = load i8*, i8** %exn.slot, align 8, !dbg !3387
  %sel = load i32, i32* %ehselector.slot, align 4, !dbg !3387
  %lpad.val = insertvalue { i8*, i32 } undef, i8* %exn, 0, !dbg !3387
  %lpad.val32 = insertvalue { i8*, i32 } %lpad.val, i32 %sel, 1, !dbg !3387
  resume { i8*, i32 } %lpad.val32, !dbg !3387
}

; Function Attrs: nobuiltin
declare dso_local noalias i8* @_Znwm(i64) #7

; Function Attrs: nounwind
declare dso_local i8* @_ZNKSt7__cxx1112basic_stringIcSt11char_traitsIcESaIcEE5c_strEv(%"class.std::__cxx11::basic_string"*) #3

declare dso_local void @_ZNSt14basic_ofstreamIcSt11char_traitsIcEEC1EPKcSt13_Ios_Openmode(%"class.std::basic_ofstream"*, i8*, i32) unnamed_addr #2

; Function Attrs: nobuiltin nounwind
declare dso_local void @_ZdlPv(i8*) #8

declare dso_local zeroext i1 @_ZNKSt9basic_iosIcSt11char_traitsIcEEntEv(%"class.std::basic_ios"*) #2

; Function Attrs: nounwind
declare dso_local i32 @__cxa_guard_acquire(i64*) #4

; Function Attrs: noinline uwtable
define linkonce_odr dso_local void @_ZStplIcSt11char_traitsIcESaIcEENSt7__cxx1112basic_stringIT_T0_T1_EEOS8_PKS5_(%"class.std::__cxx11::basic_string"* noalias sret %agg.result, %"class.std::__cxx11::basic_string"* dereferenceable(32) %__lhs, i8* %__rhs) #0 comdat !dbg !3417 {
entry:
  %result.ptr = alloca i8*, align 8
  %__lhs.addr = alloca %"class.std::__cxx11::basic_string"*, align 8
  %__rhs.addr = alloca i8*, align 8
  %0 = bitcast %"class.std::__cxx11::basic_string"* %agg.result to i8*
  store i8* %0, i8** %result.ptr, align 8
  store %"class.std::__cxx11::basic_string"* %__lhs, %"class.std::__cxx11::basic_string"** %__lhs.addr, align 8
  call void @llvm.dbg.declare(metadata %"class.std::__cxx11::basic_string"** %__lhs.addr, metadata !3478, metadata !DIExpression()), !dbg !3479
  store i8* %__rhs, i8** %__rhs.addr, align 8
  call void @llvm.dbg.declare(metadata i8** %__rhs.addr, metadata !3480, metadata !DIExpression()), !dbg !3481
  %1 = load %"class.std::__cxx11::basic_string"*, %"class.std::__cxx11::basic_string"** %__lhs.addr, align 8, !dbg !3482
  %2 = load i8*, i8** %__rhs.addr, align 8, !dbg !3483
  %call = call dereferenceable(32) %"class.std::__cxx11::basic_string"* @_ZNSt7__cxx1112basic_stringIcSt11char_traitsIcESaIcEE6appendEPKc(%"class.std::__cxx11::basic_string"* %1, i8* %2), !dbg !3484
  %call1 = call dereferenceable(32) %"class.std::__cxx11::basic_string"* @_ZSt4moveIRNSt7__cxx1112basic_stringIcSt11char_traitsIcESaIcEEEEONSt16remove_referenceIT_E4typeEOS8_(%"class.std::__cxx11::basic_string"* dereferenceable(32) %call) #4, !dbg !3485
  call void @_ZNSt7__cxx1112basic_stringIcSt11char_traitsIcESaIcEEC1EOS4_(%"class.std::__cxx11::basic_string"* %agg.result, %"class.std::__cxx11::basic_string"* dereferenceable(32) %call1) #4, !dbg !3485
  ret void, !dbg !3486
}

; Function Attrs: noinline uwtable
define linkonce_odr dso_local void @_ZStplIcSt11char_traitsIcESaIcEENSt7__cxx1112basic_stringIT_T0_T1_EEOS8_RKS8_(%"class.std::__cxx11::basic_string"* noalias sret %agg.result, %"class.std::__cxx11::basic_string"* dereferenceable(32) %__lhs, %"class.std::__cxx11::basic_string"* dereferenceable(32) %__rhs) #0 comdat !dbg !3487 {
entry:
  %result.ptr = alloca i8*, align 8
  %__lhs.addr = alloca %"class.std::__cxx11::basic_string"*, align 8
  %__rhs.addr = alloca %"class.std::__cxx11::basic_string"*, align 8
  %0 = bitcast %"class.std::__cxx11::basic_string"* %agg.result to i8*
  store i8* %0, i8** %result.ptr, align 8
  store %"class.std::__cxx11::basic_string"* %__lhs, %"class.std::__cxx11::basic_string"** %__lhs.addr, align 8
  call void @llvm.dbg.declare(metadata %"class.std::__cxx11::basic_string"** %__lhs.addr, metadata !3492, metadata !DIExpression()), !dbg !3493
  store %"class.std::__cxx11::basic_string"* %__rhs, %"class.std::__cxx11::basic_string"** %__rhs.addr, align 8
  call void @llvm.dbg.declare(metadata %"class.std::__cxx11::basic_string"** %__rhs.addr, metadata !3494, metadata !DIExpression()), !dbg !3495
  %1 = load %"class.std::__cxx11::basic_string"*, %"class.std::__cxx11::basic_string"** %__lhs.addr, align 8, !dbg !3496
  %2 = load %"class.std::__cxx11::basic_string"*, %"class.std::__cxx11::basic_string"** %__rhs.addr, align 8, !dbg !3497
  %call = call dereferenceable(32) %"class.std::__cxx11::basic_string"* @_ZNSt7__cxx1112basic_stringIcSt11char_traitsIcESaIcEE6appendERKS4_(%"class.std::__cxx11::basic_string"* %1, %"class.std::__cxx11::basic_string"* dereferenceable(32) %2), !dbg !3498
  %call1 = call dereferenceable(32) %"class.std::__cxx11::basic_string"* @_ZSt4moveIRNSt7__cxx1112basic_stringIcSt11char_traitsIcESaIcEEEEONSt16remove_referenceIT_E4typeEOS8_(%"class.std::__cxx11::basic_string"* dereferenceable(32) %call) #4, !dbg !3499
  call void @_ZNSt7__cxx1112basic_stringIcSt11char_traitsIcESaIcEEC1EOS4_(%"class.std::__cxx11::basic_string"* %agg.result, %"class.std::__cxx11::basic_string"* dereferenceable(32) %call1) #4, !dbg !3499
  ret void, !dbg !3500
}

; Function Attrs: nounwind
declare dso_local void @_ZNSaIcEC1Ev(%"class.std::allocator"*) unnamed_addr #3

declare dso_local void @_ZNSt7__cxx1112basic_stringIcSt11char_traitsIcESaIcEEC1EPKcRKS3_(%"class.std::__cxx11::basic_string"*, i8*, %"class.std::allocator"* dereferenceable(1)) unnamed_addr #2

; Function Attrs: nounwind
declare dso_local void @_ZNSt7__cxx1112basic_stringIcSt11char_traitsIcESaIcEED1Ev(%"class.std::__cxx11::basic_string"*) unnamed_addr #3

; Function Attrs: nounwind
declare dso_local void @_ZNSaIcED1Ev(%"class.std::allocator"*) unnamed_addr #3

; Function Attrs: nounwind
declare dso_local void @__cxa_guard_abort(i64*) #4

; Function Attrs: nounwind
declare dso_local void @__cxa_guard_release(i64*) #4

; Function Attrs: noinline uwtable
define linkonce_odr dso_local void @_ZN6dealii18deal_II_exceptions9internals17issue_error_throwINS_18StandardExceptions10ExcMessageEEEvPKciS6_S6_S6_T_(i8* %file, i32 %line, i8* %function, i8* %cond, i8* %exc_name, %"class.dealii::StandardExceptions::ExcMessage"* %e) #0 comdat personality i8* bitcast (i32 (...)* @__gxx_personality_v0 to i8*) !dbg !3501 {
entry:
  %file.addr = alloca i8*, align 8
  %line.addr = alloca i32, align 4
  %function.addr = alloca i8*, align 8
  %cond.addr = alloca i8*, align 8
  %exc_name.addr = alloca i8*, align 8
  %exn.slot = alloca i8*
  %ehselector.slot = alloca i32
  store i8* %file, i8** %file.addr, align 8
  call void @llvm.dbg.declare(metadata i8** %file.addr, metadata !3508, metadata !DIExpression()), !dbg !3509
  store i32 %line, i32* %line.addr, align 4
  call void @llvm.dbg.declare(metadata i32* %line.addr, metadata !3510, metadata !DIExpression()), !dbg !3511
  store i8* %function, i8** %function.addr, align 8
  call void @llvm.dbg.declare(metadata i8** %function.addr, metadata !3512, metadata !DIExpression()), !dbg !3513
  store i8* %cond, i8** %cond.addr, align 8
  call void @llvm.dbg.declare(metadata i8** %cond.addr, metadata !3514, metadata !DIExpression()), !dbg !3515
  store i8* %exc_name, i8** %exc_name.addr, align 8
  call void @llvm.dbg.declare(metadata i8** %exc_name.addr, metadata !3516, metadata !DIExpression()), !dbg !3517
  call void @llvm.dbg.declare(metadata %"class.dealii::StandardExceptions::ExcMessage"* %e, metadata !3518, metadata !DIExpression()), !dbg !3519
  %0 = bitcast %"class.dealii::StandardExceptions::ExcMessage"* %e to %"class.dealii::ExceptionBase"*, !dbg !3520
  %1 = load i8*, i8** %file.addr, align 8, !dbg !3521
  %2 = load i32, i32* %line.addr, align 4, !dbg !3522
  %3 = load i8*, i8** %function.addr, align 8, !dbg !3523
  %4 = load i8*, i8** %cond.addr, align 8, !dbg !3524
  %5 = load i8*, i8** %exc_name.addr, align 8, !dbg !3525
  call void @_ZN6dealii13ExceptionBase10set_fieldsEPKciS2_S2_S2_(%"class.dealii::ExceptionBase"* %0, i8* %1, i32 %2, i8* %3, i8* %4, i8* %5), !dbg !3526
  %exception = call i8* @__cxa_allocate_exception(i64 72) #4, !dbg !3527
  %6 = bitcast i8* %exception to %"class.dealii::StandardExceptions::ExcMessage"*, !dbg !3527
  invoke void @_ZN6dealii18StandardExceptions10ExcMessageC2ERKS1_(%"class.dealii::StandardExceptions::ExcMessage"* %6, %"class.dealii::StandardExceptions::ExcMessage"* dereferenceable(72) %e)
          to label %invoke.cont unwind label %lpad, !dbg !3528

invoke.cont:                                      ; preds = %entry
  call void @__cxa_throw(i8* %exception, i8* bitcast ({ i8*, i8*, i8* }* @_ZTIN6dealii18StandardExceptions10ExcMessageE to i8*), i8* bitcast (void (%"class.dealii::StandardExceptions::ExcMessage"*)* @_ZN6dealii18StandardExceptions10ExcMessageD2Ev to i8*)) #16, !dbg !3527
  unreachable, !dbg !3527

lpad:                                             ; preds = %entry
  %7 = landingpad { i8*, i32 }
          cleanup, !dbg !3529
  %8 = extractvalue { i8*, i32 } %7, 0, !dbg !3529
  store i8* %8, i8** %exn.slot, align 8, !dbg !3529
  %9 = extractvalue { i8*, i32 } %7, 1, !dbg !3529
  store i32 %9, i32* %ehselector.slot, align 4, !dbg !3529
  call void @__cxa_free_exception(i8* %exception) #4, !dbg !3527
  br label %eh.resume, !dbg !3527

eh.resume:                                        ; preds = %lpad
  %exn = load i8*, i8** %exn.slot, align 8, !dbg !3527
  %sel = load i32, i32* %ehselector.slot, align 4, !dbg !3527
  %lpad.val = insertvalue { i8*, i32 } undef, i8* %exn, 0, !dbg !3527
  %lpad.val1 = insertvalue { i8*, i32 } %lpad.val, i32 %sel, 1, !dbg !3527
  resume { i8*, i32 } %lpad.val1, !dbg !3527
}

; Function Attrs: noinline uwtable
define linkonce_odr dso_local void @_ZN6dealii18StandardExceptions10ExcMessageC2EPKc(%"class.dealii::StandardExceptions::ExcMessage"* %this, i8* %a1) unnamed_addr #0 comdat align 2 !dbg !3530 {
entry:
  %this.addr = alloca %"class.dealii::StandardExceptions::ExcMessage"*, align 8
  %a1.addr = alloca i8*, align 8
  store %"class.dealii::StandardExceptions::ExcMessage"* %this, %"class.dealii::StandardExceptions::ExcMessage"** %this.addr, align 8
  call void @llvm.dbg.declare(metadata %"class.dealii::StandardExceptions::ExcMessage"** %this.addr, metadata !3531, metadata !DIExpression()), !dbg !3533
  store i8* %a1, i8** %a1.addr, align 8
  call void @llvm.dbg.declare(metadata i8** %a1.addr, metadata !3534, metadata !DIExpression()), !dbg !3535
  %this1 = load %"class.dealii::StandardExceptions::ExcMessage"*, %"class.dealii::StandardExceptions::ExcMessage"** %this.addr, align 8
  %0 = bitcast %"class.dealii::StandardExceptions::ExcMessage"* %this1 to %"class.dealii::ExceptionBase"*, !dbg !3535
  call void @_ZN6dealii13ExceptionBaseC2Ev(%"class.dealii::ExceptionBase"* %0), !dbg !3535
  %1 = bitcast %"class.dealii::StandardExceptions::ExcMessage"* %this1 to i32 (...)***, !dbg !3535
  store i32 (...)** bitcast (i8** getelementptr inbounds ({ [6 x i8*] }, { [6 x i8*] }* @_ZTVN6dealii18StandardExceptions10ExcMessageE, i32 0, inrange i32 0, i32 2) to i32 (...)**), i32 (...)*** %1, align 8, !dbg !3535
  %arg1 = getelementptr inbounds %"class.dealii::StandardExceptions::ExcMessage", %"class.dealii::StandardExceptions::ExcMessage"* %this1, i32 0, i32 1, !dbg !3535
  %2 = load i8*, i8** %a1.addr, align 8, !dbg !3535
  store i8* %2, i8** %arg1, align 8, !dbg !3535
  ret void, !dbg !3535
}

; Function Attrs: noinline nounwind uwtable
define linkonce_odr dso_local void @_ZN6dealii18StandardExceptions10ExcMessageD2Ev(%"class.dealii::StandardExceptions::ExcMessage"* %this) unnamed_addr #1 comdat align 2 !dbg !3536 {
entry:
  %this.addr = alloca %"class.dealii::StandardExceptions::ExcMessage"*, align 8
  store %"class.dealii::StandardExceptions::ExcMessage"* %this, %"class.dealii::StandardExceptions::ExcMessage"** %this.addr, align 8
  call void @llvm.dbg.declare(metadata %"class.dealii::StandardExceptions::ExcMessage"** %this.addr, metadata !3537, metadata !DIExpression()), !dbg !3538
  %this1 = load %"class.dealii::StandardExceptions::ExcMessage"*, %"class.dealii::StandardExceptions::ExcMessage"** %this.addr, align 8
  %0 = bitcast %"class.dealii::StandardExceptions::ExcMessage"* %this1 to %"class.dealii::ExceptionBase"*, !dbg !3539
  call void @_ZN6dealii13ExceptionBaseD2Ev(%"class.dealii::ExceptionBase"* %0) #4, !dbg !3539
  ret void, !dbg !3541
}

; Function Attrs: noinline nounwind uwtable
define dso_local void @_ZN9libparest10MessageLog7Filters8OFStreamD2Ev(%"class.libparest::MessageLog::Filters::OFStream"* %this) unnamed_addr #1 align 2 !dbg !3542 {
entry:
  %this.addr = alloca %"class.libparest::MessageLog::Filters::OFStream"*, align 8
  store %"class.libparest::MessageLog::Filters::OFStream"* %this, %"class.libparest::MessageLog::Filters::OFStream"** %this.addr, align 8
  call void @llvm.dbg.declare(metadata %"class.libparest::MessageLog::Filters::OFStream"** %this.addr, metadata !3543, metadata !DIExpression()), !dbg !3544
  %this1 = load %"class.libparest::MessageLog::Filters::OFStream"*, %"class.libparest::MessageLog::Filters::OFStream"** %this.addr, align 8
  %0 = bitcast %"class.libparest::MessageLog::Filters::OFStream"* %this1 to i32 (...)***, !dbg !3545
  store i32 (...)** bitcast (i8** getelementptr inbounds ({ [5 x i8*] }, { [5 x i8*] }* @_ZTVN9libparest10MessageLog7Filters8OFStreamE, i32 0, inrange i32 0, i32 2) to i32 (...)**), i32 (...)*** %0, align 8, !dbg !3545
  %1 = bitcast %"class.libparest::MessageLog::Filters::OFStream"* %this1 to %"class.libparest::MessageLog::Filters::OStream"*, !dbg !3546
  %out = getelementptr inbounds %"class.libparest::MessageLog::Filters::OStream", %"class.libparest::MessageLog::Filters::OStream"* %1, i32 0, i32 1, !dbg !3546
  %2 = load %"class.std::basic_ostream"*, %"class.std::basic_ostream"** %out, align 8, !dbg !3546
  %isnull = icmp eq %"class.std::basic_ostream"* %2, null, !dbg !3548
  br i1 %isnull, label %delete.end, label %delete.notnull, !dbg !3548

delete.notnull:                                   ; preds = %entry
  %3 = bitcast %"class.std::basic_ostream"* %2 to void (%"class.std::basic_ostream"*)***, !dbg !3548
  %vtable = load void (%"class.std::basic_ostream"*)**, void (%"class.std::basic_ostream"*)*** %3, align 8, !dbg !3548
  %vfn = getelementptr inbounds void (%"class.std::basic_ostream"*)*, void (%"class.std::basic_ostream"*)** %vtable, i64 1, !dbg !3548
  %4 = load void (%"class.std::basic_ostream"*)*, void (%"class.std::basic_ostream"*)** %vfn, align 8, !dbg !3548
  call void %4(%"class.std::basic_ostream"* %2) #4, !dbg !3548
  br label %delete.end, !dbg !3548

delete.end:                                       ; preds = %delete.notnull, %entry
  %5 = bitcast %"class.libparest::MessageLog::Filters::OFStream"* %this1 to %"class.libparest::MessageLog::Filters::OStream"*, !dbg !3549
  call void @_ZN9libparest10MessageLog7Filters7OStreamD2Ev(%"class.libparest::MessageLog::Filters::OStream"* %5) #4, !dbg !3549
  ret void, !dbg !3550
}

; Function Attrs: noinline nounwind uwtable
define dso_local void @_ZN9libparest10MessageLog7Filters8OFStreamD0Ev(%"class.libparest::MessageLog::Filters::OFStream"* %this) unnamed_addr #1 align 2 !dbg !3551 {
entry:
  %this.addr = alloca %"class.libparest::MessageLog::Filters::OFStream"*, align 8
  store %"class.libparest::MessageLog::Filters::OFStream"* %this, %"class.libparest::MessageLog::Filters::OFStream"** %this.addr, align 8
  call void @llvm.dbg.declare(metadata %"class.libparest::MessageLog::Filters::OFStream"** %this.addr, metadata !3552, metadata !DIExpression()), !dbg !3553
  %this1 = load %"class.libparest::MessageLog::Filters::OFStream"*, %"class.libparest::MessageLog::Filters::OFStream"** %this.addr, align 8
  call void @_ZN9libparest10MessageLog7Filters8OFStreamD1Ev(%"class.libparest::MessageLog::Filters::OFStream"* %this1) #4, !dbg !3554
  %0 = bitcast %"class.libparest::MessageLog::Filters::OFStream"* %this1 to i8*, !dbg !3554
  call void @_ZdlPv(i8* %0) #15, !dbg !3554
  ret void, !dbg !3555
}

; Function Attrs: noinline uwtable
define dso_local zeroext i1 @_ZNK9libparest10MessageLog7Filters15GraphicalOutput6filterERKNSt7__cxx1112basic_stringIcSt11char_traitsIcESaIcEEESA_j(%"class.libparest::MessageLog::Filters::GraphicalOutput"* %this, %"class.std::__cxx11::basic_string"* dereferenceable(32) %0, %"class.std::__cxx11::basic_string"* dereferenceable(32) %message, i32 %1) unnamed_addr #0 align 2 personality i8* bitcast (i32 (...)* @__gxx_personality_v0 to i8*) !dbg !3556 {
entry:
  %retval = alloca i1, align 1
  %this.addr = alloca %"class.libparest::MessageLog::Filters::GraphicalOutput"*, align 8
  %.addr = alloca %"class.std::__cxx11::basic_string"*, align 8
  %message.addr = alloca %"class.std::__cxx11::basic_string"*, align 8
  %.addr1 = alloca i32, align 4
  %pos = alloca i64, align 8
  %rest = alloca %"class.std::__cxx11::basic_string", align 8
  %ref.tmp = alloca %"class.std::allocator", align 1
  %exn.slot = alloca i8*
  %ehselector.slot = alloca i32
  store %"class.libparest::MessageLog::Filters::GraphicalOutput"* %this, %"class.libparest::MessageLog::Filters::GraphicalOutput"** %this.addr, align 8
  call void @llvm.dbg.declare(metadata %"class.libparest::MessageLog::Filters::GraphicalOutput"** %this.addr, metadata !3590, metadata !DIExpression()), !dbg !3592
  store %"class.std::__cxx11::basic_string"* %0, %"class.std::__cxx11::basic_string"** %.addr, align 8
  call void @llvm.dbg.declare(metadata %"class.std::__cxx11::basic_string"** %.addr, metadata !3593, metadata !DIExpression()), !dbg !3594
  store %"class.std::__cxx11::basic_string"* %message, %"class.std::__cxx11::basic_string"** %message.addr, align 8
  call void @llvm.dbg.declare(metadata %"class.std::__cxx11::basic_string"** %message.addr, metadata !3595, metadata !DIExpression()), !dbg !3596
  store i32 %1, i32* %.addr1, align 4
  call void @llvm.dbg.declare(metadata i32* %.addr1, metadata !3597, metadata !DIExpression()), !dbg !3598
  %this2 = load %"class.libparest::MessageLog::Filters::GraphicalOutput"*, %"class.libparest::MessageLog::Filters::GraphicalOutput"** %this.addr, align 8
  call void @llvm.dbg.declare(metadata i64* %pos, metadata !3599, metadata !DIExpression()), !dbg !3646
  %2 = load %"class.std::__cxx11::basic_string"*, %"class.std::__cxx11::basic_string"** %message.addr, align 8, !dbg !3647
  %call = call i64 @_ZNKSt7__cxx1112basic_stringIcSt11char_traitsIcESaIcEE4findEPKcm(%"class.std::__cxx11::basic_string"* %2, i8* getelementptr inbounds ([17 x i8], [17 x i8]* @.str.17, i64 0, i64 0), i64 0) #4, !dbg !3648
  store i64 %call, i64* %pos, align 8, !dbg !3646
  %3 = load i64, i64* %pos, align 8, !dbg !3649
  %cmp = icmp eq i64 %3, -1, !dbg !3651
  br i1 %cmp, label %if.then, label %if.else, !dbg !3652

if.then:                                          ; preds = %entry
  store i1 false, i1* %retval, align 1, !dbg !3653
  br label %return, !dbg !3653

if.else:                                          ; preds = %entry
  call void @llvm.dbg.declare(metadata %"class.std::__cxx11::basic_string"* %rest, metadata !3654, metadata !DIExpression()), !dbg !3656
  %4 = load %"class.std::__cxx11::basic_string"*, %"class.std::__cxx11::basic_string"** %message.addr, align 8, !dbg !3657
  %5 = load i64, i64* %pos, align 8, !dbg !3658
  %add = add i64 %5, 16, !dbg !3659
  call void @_ZNSaIcEC1Ev(%"class.std::allocator"* %ref.tmp) #4, !dbg !3656
  invoke void @_ZNSt7__cxx1112basic_stringIcSt11char_traitsIcESaIcEEC1ERKS4_mRKS3_(%"class.std::__cxx11::basic_string"* %rest, %"class.std::__cxx11::basic_string"* dereferenceable(32) %4, i64 %add, %"class.std::allocator"* dereferenceable(1) %ref.tmp)
          to label %invoke.cont unwind label %lpad, !dbg !3656

invoke.cont:                                      ; preds = %if.else
  call void @_ZNSaIcED1Ev(%"class.std::allocator"* %ref.tmp) #4, !dbg !3656
  %graphical_display = getelementptr inbounds %"class.libparest::MessageLog::Filters::GraphicalOutput", %"class.libparest::MessageLog::Filters::GraphicalOutput"* %this2, i32 0, i32 1, !dbg !3660
  invoke void @_ZNK9libparest16GraphicalDisplay17put_status_stringERKNSt7__cxx1112basic_stringIcSt11char_traitsIcESaIcEEE(%"class.libparest::GraphicalDisplay"* %graphical_display, %"class.std::__cxx11::basic_string"* dereferenceable(32) %rest)
          to label %invoke.cont4 unwind label %lpad3, !dbg !3661

invoke.cont4:                                     ; preds = %invoke.cont
  store i1 true, i1* %retval, align 1, !dbg !3662
  call void @_ZNSt7__cxx1112basic_stringIcSt11char_traitsIcESaIcEED1Ev(%"class.std::__cxx11::basic_string"* %rest) #4, !dbg !3663
  br label %return

lpad:                                             ; preds = %if.else
  %6 = landingpad { i8*, i32 }
          cleanup, !dbg !3664
  %7 = extractvalue { i8*, i32 } %6, 0, !dbg !3664
  store i8* %7, i8** %exn.slot, align 8, !dbg !3664
  %8 = extractvalue { i8*, i32 } %6, 1, !dbg !3664
  store i32 %8, i32* %ehselector.slot, align 4, !dbg !3664
  call void @_ZNSaIcED1Ev(%"class.std::allocator"* %ref.tmp) #4, !dbg !3656
  br label %eh.resume, !dbg !3656

lpad3:                                            ; preds = %invoke.cont
  %9 = landingpad { i8*, i32 }
          cleanup, !dbg !3664
  %10 = extractvalue { i8*, i32 } %9, 0, !dbg !3664
  store i8* %10, i8** %exn.slot, align 8, !dbg !3664
  %11 = extractvalue { i8*, i32 } %9, 1, !dbg !3664
  store i32 %11, i32* %ehselector.slot, align 4, !dbg !3664
  call void @_ZNSt7__cxx1112basic_stringIcSt11char_traitsIcESaIcEED1Ev(%"class.std::__cxx11::basic_string"* %rest) #4, !dbg !3663
  br label %eh.resume, !dbg !3663

return:                                           ; preds = %invoke.cont4, %if.then
  %12 = load i1, i1* %retval, align 1, !dbg !3665
  ret i1 %12, !dbg !3665

eh.resume:                                        ; preds = %lpad3, %lpad
  %exn = load i8*, i8** %exn.slot, align 8, !dbg !3656
  %sel = load i32, i32* %ehselector.slot, align 4, !dbg !3656
  %lpad.val = insertvalue { i8*, i32 } undef, i8* %exn, 0, !dbg !3656
  %lpad.val5 = insertvalue { i8*, i32 } %lpad.val, i32 %sel, 1, !dbg !3656
  resume { i8*, i32 } %lpad.val5, !dbg !3656
}

; Function Attrs: nounwind
declare dso_local i64 @_ZNKSt7__cxx1112basic_stringIcSt11char_traitsIcESaIcEE4findEPKcm(%"class.std::__cxx11::basic_string"*, i8*, i64) #3

declare dso_local void @_ZNSt7__cxx1112basic_stringIcSt11char_traitsIcESaIcEEC1ERKS4_mRKS3_(%"class.std::__cxx11::basic_string"*, %"class.std::__cxx11::basic_string"* dereferenceable(32), i64, %"class.std::allocator"* dereferenceable(1)) unnamed_addr #2

declare dso_local void @_ZNK9libparest16GraphicalDisplay17put_status_stringERKNSt7__cxx1112basic_stringIcSt11char_traitsIcESaIcEEE(%"class.libparest::GraphicalDisplay"*, %"class.std::__cxx11::basic_string"* dereferenceable(32)) #2

; Function Attrs: noinline nounwind uwtable
define dso_local void @_ZN9libparest10MessageLog10ServerBaseD2Ev(%"class.libparest::MessageLog::ServerBase"* %this) unnamed_addr #1 align 2 personality i8* bitcast (i32 (...)* @__gxx_personality_v0 to i8*) !dbg !3666 {
entry:
  %this.addr = alloca %"class.libparest::MessageLog::ServerBase"*, align 8
  %i = alloca i32, align 4
  %exn.slot = alloca i8*
  %ehselector.slot = alloca i32
  store %"class.libparest::MessageLog::ServerBase"* %this, %"class.libparest::MessageLog::ServerBase"** %this.addr, align 8
  call void @llvm.dbg.declare(metadata %"class.libparest::MessageLog::ServerBase"** %this.addr, metadata !3667, metadata !DIExpression()), !dbg !3668
  %this1 = load %"class.libparest::MessageLog::ServerBase"*, %"class.libparest::MessageLog::ServerBase"** %this.addr, align 8
  %0 = bitcast %"class.libparest::MessageLog::ServerBase"* %this1 to i32 (...)***, !dbg !3669
  store i32 (...)** bitcast (i8** getelementptr inbounds ({ [8 x i8*] }, { [8 x i8*] }* @_ZTVN9libparest10MessageLog10ServerBaseE, i32 0, inrange i32 0, i32 2) to i32 (...)**), i32 (...)*** %0, align 8, !dbg !3669
  call void @llvm.dbg.declare(metadata i32* %i, metadata !3670, metadata !DIExpression()), !dbg !3673
  store i32 0, i32* %i, align 4, !dbg !3673
  br label %for.cond, !dbg !3674

for.cond:                                         ; preds = %for.inc, %entry
  %1 = load i32, i32* %i, align 4, !dbg !3675
  %conv = zext i32 %1 to i64, !dbg !3675
  %filters = getelementptr inbounds %"class.libparest::MessageLog::ServerBase", %"class.libparest::MessageLog::ServerBase"* %this1, i32 0, i32 1, !dbg !3677
  %call = call i64 @_ZNKSt6vectorIPKN9libparest10MessageLog7Filters4BaseESaIS5_EE4sizeEv(%"class.std::vector"* %filters) #4, !dbg !3678
  %cmp = icmp ult i64 %conv, %call, !dbg !3679
  br i1 %cmp, label %for.body, label %for.end, !dbg !3680

for.body:                                         ; preds = %for.cond
  %filters2 = getelementptr inbounds %"class.libparest::MessageLog::ServerBase", %"class.libparest::MessageLog::ServerBase"* %this1, i32 0, i32 1, !dbg !3681
  %2 = load i32, i32* %i, align 4, !dbg !3682
  %conv3 = zext i32 %2 to i64, !dbg !3682
  %call4 = call dereferenceable(8) %"class.libparest::MessageLog::Filters::Base"** @_ZNSt6vectorIPKN9libparest10MessageLog7Filters4BaseESaIS5_EEixEm(%"class.std::vector"* %filters2, i64 %conv3) #4, !dbg !3681
  invoke void @_ZN9libparest10delete_ptrIKNS_10MessageLog7Filters4BaseEEEvRPT_(%"class.libparest::MessageLog::Filters::Base"** dereferenceable(8) %call4)
          to label %invoke.cont unwind label %lpad, !dbg !3683

invoke.cont:                                      ; preds = %for.body
  br label %for.inc, !dbg !3683

for.inc:                                          ; preds = %invoke.cont
  %3 = load i32, i32* %i, align 4, !dbg !3684
  %inc = add i32 %3, 1, !dbg !3684
  store i32 %inc, i32* %i, align 4, !dbg !3684
  br label %for.cond, !dbg !3685, !llvm.loop !3686

lpad:                                             ; preds = %for.end, %for.body
  %4 = landingpad { i8*, i32 }
          catch i8* null, !dbg !3688
  %5 = extractvalue { i8*, i32 } %4, 0, !dbg !3688
  store i8* %5, i8** %exn.slot, align 8, !dbg !3688
  %6 = extractvalue { i8*, i32 } %4, 1, !dbg !3688
  store i32 %6, i32* %ehselector.slot, align 4, !dbg !3688
  %filters8 = getelementptr inbounds %"class.libparest::MessageLog::ServerBase", %"class.libparest::MessageLog::ServerBase"* %this1, i32 0, i32 1, !dbg !3689
  call void @_ZNSt6vectorIPKN9libparest10MessageLog7Filters4BaseESaIS5_EED2Ev(%"class.std::vector"* %filters8) #4, !dbg !3689
  %7 = bitcast %"class.libparest::MessageLog::ServerBase"* %this1 to %"class.dealii::Subscriptor"*, !dbg !3689
  call void @_ZN6dealii11SubscriptorD2Ev(%"class.dealii::Subscriptor"* %7) #4, !dbg !3689
  br label %terminate.handler, !dbg !3689

for.end:                                          ; preds = %for.cond
  %filters5 = getelementptr inbounds %"class.libparest::MessageLog::ServerBase", %"class.libparest::MessageLog::ServerBase"* %this1, i32 0, i32 1, !dbg !3690
  invoke void @_ZNSt6vectorIPKN9libparest10MessageLog7Filters4BaseESaIS5_EE6resizeEm(%"class.std::vector"* %filters5, i64 0)
          to label %invoke.cont6 unwind label %lpad, !dbg !3691

invoke.cont6:                                     ; preds = %for.end
  %filters7 = getelementptr inbounds %"class.libparest::MessageLog::ServerBase", %"class.libparest::MessageLog::ServerBase"* %this1, i32 0, i32 1, !dbg !3689
  call void @_ZNSt6vectorIPKN9libparest10MessageLog7Filters4BaseESaIS5_EED2Ev(%"class.std::vector"* %filters7) #4, !dbg !3689
  %8 = bitcast %"class.libparest::MessageLog::ServerBase"* %this1 to %"class.dealii::Subscriptor"*, !dbg !3689
  call void @_ZN6dealii11SubscriptorD2Ev(%"class.dealii::Subscriptor"* %8) #4, !dbg !3689
  ret void, !dbg !3692

terminate.handler:                                ; preds = %lpad
  %exn = load i8*, i8** %exn.slot, align 8, !dbg !3689
  call void @__clang_call_terminate(i8* %exn) #13, !dbg !3689
  unreachable, !dbg !3689
}

; Function Attrs: noinline nounwind uwtable
define linkonce_odr dso_local i64 @_ZNKSt6vectorIPKN9libparest10MessageLog7Filters4BaseESaIS5_EE4sizeEv(%"class.std::vector"* %this) #1 comdat align 2 !dbg !3693 {
entry:
  %this.addr = alloca %"class.std::vector"*, align 8
  store %"class.std::vector"* %this, %"class.std::vector"** %this.addr, align 8
  call void @llvm.dbg.declare(metadata %"class.std::vector"** %this.addr, metadata !3694, metadata !DIExpression()), !dbg !3696
  %this1 = load %"class.std::vector"*, %"class.std::vector"** %this.addr, align 8
  %0 = bitcast %"class.std::vector"* %this1 to %"struct.std::_Vector_base"*, !dbg !3697
  %_M_impl = getelementptr inbounds %"struct.std::_Vector_base", %"struct.std::_Vector_base"* %0, i32 0, i32 0, !dbg !3697
  %1 = bitcast %"struct.std::_Vector_base<const libparest::MessageLog::Filters::Base *, std::allocator<const libparest::MessageLog::Filters::Base *> >::_Vector_impl"* %_M_impl to %"struct.std::_Vector_base<const libparest::MessageLog::Filters::Base *, std::allocator<const libparest::MessageLog::Filters::Base *> >::_Vector_impl_data"*, !dbg !3698
  %_M_finish = getelementptr inbounds %"struct.std::_Vector_base<const libparest::MessageLog::Filters::Base *, std::allocator<const libparest::MessageLog::Filters::Base *> >::_Vector_impl_data", %"struct.std::_Vector_base<const libparest::MessageLog::Filters::Base *, std::allocator<const libparest::MessageLog::Filters::Base *> >::_Vector_impl_data"* %1, i32 0, i32 1, !dbg !3699
  %2 = load %"class.libparest::MessageLog::Filters::Base"**, %"class.libparest::MessageLog::Filters::Base"*** %_M_finish, align 8, !dbg !3699
  %3 = bitcast %"class.std::vector"* %this1 to %"struct.std::_Vector_base"*, !dbg !3700
  %_M_impl2 = getelementptr inbounds %"struct.std::_Vector_base", %"struct.std::_Vector_base"* %3, i32 0, i32 0, !dbg !3700
  %4 = bitcast %"struct.std::_Vector_base<const libparest::MessageLog::Filters::Base *, std::allocator<const libparest::MessageLog::Filters::Base *> >::_Vector_impl"* %_M_impl2 to %"struct.std::_Vector_base<const libparest::MessageLog::Filters::Base *, std::allocator<const libparest::MessageLog::Filters::Base *> >::_Vector_impl_data"*, !dbg !3701
  %_M_start = getelementptr inbounds %"struct.std::_Vector_base<const libparest::MessageLog::Filters::Base *, std::allocator<const libparest::MessageLog::Filters::Base *> >::_Vector_impl_data", %"struct.std::_Vector_base<const libparest::MessageLog::Filters::Base *, std::allocator<const libparest::MessageLog::Filters::Base *> >::_Vector_impl_data"* %4, i32 0, i32 0, !dbg !3702
  %5 = load %"class.libparest::MessageLog::Filters::Base"**, %"class.libparest::MessageLog::Filters::Base"*** %_M_start, align 8, !dbg !3702
  %sub.ptr.lhs.cast = ptrtoint %"class.libparest::MessageLog::Filters::Base"** %2 to i64, !dbg !3703
  %sub.ptr.rhs.cast = ptrtoint %"class.libparest::MessageLog::Filters::Base"** %5 to i64, !dbg !3703
  %sub.ptr.sub = sub i64 %sub.ptr.lhs.cast, %sub.ptr.rhs.cast, !dbg !3703
  %sub.ptr.div = sdiv exact i64 %sub.ptr.sub, 8, !dbg !3703
  ret i64 %sub.ptr.div, !dbg !3704
}

; Function Attrs: noinline nounwind uwtable
define linkonce_odr dso_local void @_ZN9libparest10delete_ptrIKNS_10MessageLog7Filters4BaseEEEvRPT_(%"class.libparest::MessageLog::Filters::Base"** dereferenceable(8) %p) #1 comdat !dbg !3705 {
entry:
  %p.addr = alloca %"class.libparest::MessageLog::Filters::Base"**, align 8
  store %"class.libparest::MessageLog::Filters::Base"** %p, %"class.libparest::MessageLog::Filters::Base"*** %p.addr, align 8
  call void @llvm.dbg.declare(metadata %"class.libparest::MessageLog::Filters::Base"*** %p.addr, metadata !3710, metadata !DIExpression()), !dbg !3711
  %0 = load %"class.libparest::MessageLog::Filters::Base"**, %"class.libparest::MessageLog::Filters::Base"*** %p.addr, align 8, !dbg !3712
  %1 = load %"class.libparest::MessageLog::Filters::Base"*, %"class.libparest::MessageLog::Filters::Base"** %0, align 8, !dbg !3712
  %cmp = icmp ne %"class.libparest::MessageLog::Filters::Base"* %1, null, !dbg !3714
  br i1 %cmp, label %if.then, label %if.end, !dbg !3715

if.then:                                          ; preds = %entry
  %2 = load %"class.libparest::MessageLog::Filters::Base"**, %"class.libparest::MessageLog::Filters::Base"*** %p.addr, align 8, !dbg !3716
  %3 = load %"class.libparest::MessageLog::Filters::Base"*, %"class.libparest::MessageLog::Filters::Base"** %2, align 8, !dbg !3716
  %isnull = icmp eq %"class.libparest::MessageLog::Filters::Base"* %3, null, !dbg !3718
  br i1 %isnull, label %delete.end, label %delete.notnull, !dbg !3718

delete.notnull:                                   ; preds = %if.then
  %4 = bitcast %"class.libparest::MessageLog::Filters::Base"* %3 to void (%"class.libparest::MessageLog::Filters::Base"*)***, !dbg !3718
  %vtable = load void (%"class.libparest::MessageLog::Filters::Base"*)**, void (%"class.libparest::MessageLog::Filters::Base"*)*** %4, align 8, !dbg !3718
  %vfn = getelementptr inbounds void (%"class.libparest::MessageLog::Filters::Base"*)*, void (%"class.libparest::MessageLog::Filters::Base"*)** %vtable, i64 1, !dbg !3718
  %5 = load void (%"class.libparest::MessageLog::Filters::Base"*)*, void (%"class.libparest::MessageLog::Filters::Base"*)** %vfn, align 8, !dbg !3718
  call void %5(%"class.libparest::MessageLog::Filters::Base"* %3) #4, !dbg !3718
  br label %delete.end, !dbg !3718

delete.end:                                       ; preds = %delete.notnull, %if.then
  %6 = load %"class.libparest::MessageLog::Filters::Base"**, %"class.libparest::MessageLog::Filters::Base"*** %p.addr, align 8, !dbg !3719
  store %"class.libparest::MessageLog::Filters::Base"* null, %"class.libparest::MessageLog::Filters::Base"** %6, align 8, !dbg !3720
  br label %if.end, !dbg !3721

if.end:                                           ; preds = %delete.end, %entry
  ret void, !dbg !3722
}

; Function Attrs: noinline nounwind uwtable
define linkonce_odr dso_local dereferenceable(8) %"class.libparest::MessageLog::Filters::Base"** @_ZNSt6vectorIPKN9libparest10MessageLog7Filters4BaseESaIS5_EEixEm(%"class.std::vector"* %this, i64 %__n) #1 comdat align 2 !dbg !3723 {
entry:
  %this.addr = alloca %"class.std::vector"*, align 8
  %__n.addr = alloca i64, align 8
  store %"class.std::vector"* %this, %"class.std::vector"** %this.addr, align 8
  call void @llvm.dbg.declare(metadata %"class.std::vector"** %this.addr, metadata !3724, metadata !DIExpression()), !dbg !3726
  store i64 %__n, i64* %__n.addr, align 8
  call void @llvm.dbg.declare(metadata i64* %__n.addr, metadata !3727, metadata !DIExpression()), !dbg !3728
  %this1 = load %"class.std::vector"*, %"class.std::vector"** %this.addr, align 8
  %0 = bitcast %"class.std::vector"* %this1 to %"struct.std::_Vector_base"*, !dbg !3729
  %_M_impl = getelementptr inbounds %"struct.std::_Vector_base", %"struct.std::_Vector_base"* %0, i32 0, i32 0, !dbg !3729
  %1 = bitcast %"struct.std::_Vector_base<const libparest::MessageLog::Filters::Base *, std::allocator<const libparest::MessageLog::Filters::Base *> >::_Vector_impl"* %_M_impl to %"struct.std::_Vector_base<const libparest::MessageLog::Filters::Base *, std::allocator<const libparest::MessageLog::Filters::Base *> >::_Vector_impl_data"*, !dbg !3730
  %_M_start = getelementptr inbounds %"struct.std::_Vector_base<const libparest::MessageLog::Filters::Base *, std::allocator<const libparest::MessageLog::Filters::Base *> >::_Vector_impl_data", %"struct.std::_Vector_base<const libparest::MessageLog::Filters::Base *, std::allocator<const libparest::MessageLog::Filters::Base *> >::_Vector_impl_data"* %1, i32 0, i32 0, !dbg !3731
  %2 = load %"class.libparest::MessageLog::Filters::Base"**, %"class.libparest::MessageLog::Filters::Base"*** %_M_start, align 8, !dbg !3731
  %3 = load i64, i64* %__n.addr, align 8, !dbg !3732
  %add.ptr = getelementptr inbounds %"class.libparest::MessageLog::Filters::Base"*, %"class.libparest::MessageLog::Filters::Base"** %2, i64 %3, !dbg !3733
  ret %"class.libparest::MessageLog::Filters::Base"** %add.ptr, !dbg !3734
}

; Function Attrs: noinline uwtable
define linkonce_odr dso_local void @_ZNSt6vectorIPKN9libparest10MessageLog7Filters4BaseESaIS5_EE6resizeEm(%"class.std::vector"* %this, i64 %__new_size) #0 comdat align 2 !dbg !3735 {
entry:
  %this.addr = alloca %"class.std::vector"*, align 8
  %__new_size.addr = alloca i64, align 8
  store %"class.std::vector"* %this, %"class.std::vector"** %this.addr, align 8
  call void @llvm.dbg.declare(metadata %"class.std::vector"** %this.addr, metadata !3736, metadata !DIExpression()), !dbg !3737
  store i64 %__new_size, i64* %__new_size.addr, align 8
  call void @llvm.dbg.declare(metadata i64* %__new_size.addr, metadata !3738, metadata !DIExpression()), !dbg !3739
  %this1 = load %"class.std::vector"*, %"class.std::vector"** %this.addr, align 8
  %0 = load i64, i64* %__new_size.addr, align 8, !dbg !3740
  %call = call i64 @_ZNKSt6vectorIPKN9libparest10MessageLog7Filters4BaseESaIS5_EE4sizeEv(%"class.std::vector"* %this1) #4, !dbg !3742
  %cmp = icmp ugt i64 %0, %call, !dbg !3743
  br i1 %cmp, label %if.then, label %if.else, !dbg !3744

if.then:                                          ; preds = %entry
  %1 = load i64, i64* %__new_size.addr, align 8, !dbg !3745
  %call2 = call i64 @_ZNKSt6vectorIPKN9libparest10MessageLog7Filters4BaseESaIS5_EE4sizeEv(%"class.std::vector"* %this1) #4, !dbg !3746
  %sub = sub i64 %1, %call2, !dbg !3747
  call void @_ZNSt6vectorIPKN9libparest10MessageLog7Filters4BaseESaIS5_EE17_M_default_appendEm(%"class.std::vector"* %this1, i64 %sub), !dbg !3748
  br label %if.end6, !dbg !3748

if.else:                                          ; preds = %entry
  %2 = load i64, i64* %__new_size.addr, align 8, !dbg !3749
  %call3 = call i64 @_ZNKSt6vectorIPKN9libparest10MessageLog7Filters4BaseESaIS5_EE4sizeEv(%"class.std::vector"* %this1) #4, !dbg !3751
  %cmp4 = icmp ult i64 %2, %call3, !dbg !3752
  br i1 %cmp4, label %if.then5, label %if.end, !dbg !3753

if.then5:                                         ; preds = %if.else
  %3 = bitcast %"class.std::vector"* %this1 to %"struct.std::_Vector_base"*, !dbg !3754
  %_M_impl = getelementptr inbounds %"struct.std::_Vector_base", %"struct.std::_Vector_base"* %3, i32 0, i32 0, !dbg !3754
  %4 = bitcast %"struct.std::_Vector_base<const libparest::MessageLog::Filters::Base *, std::allocator<const libparest::MessageLog::Filters::Base *> >::_Vector_impl"* %_M_impl to %"struct.std::_Vector_base<const libparest::MessageLog::Filters::Base *, std::allocator<const libparest::MessageLog::Filters::Base *> >::_Vector_impl_data"*, !dbg !3755
  %_M_start = getelementptr inbounds %"struct.std::_Vector_base<const libparest::MessageLog::Filters::Base *, std::allocator<const libparest::MessageLog::Filters::Base *> >::_Vector_impl_data", %"struct.std::_Vector_base<const libparest::MessageLog::Filters::Base *, std::allocator<const libparest::MessageLog::Filters::Base *> >::_Vector_impl_data"* %4, i32 0, i32 0, !dbg !3756
  %5 = load %"class.libparest::MessageLog::Filters::Base"**, %"class.libparest::MessageLog::Filters::Base"*** %_M_start, align 8, !dbg !3756
  %6 = load i64, i64* %__new_size.addr, align 8, !dbg !3757
  %add.ptr = getelementptr inbounds %"class.libparest::MessageLog::Filters::Base"*, %"class.libparest::MessageLog::Filters::Base"** %5, i64 %6, !dbg !3758
  call void @_ZNSt6vectorIPKN9libparest10MessageLog7Filters4BaseESaIS5_EE15_M_erase_at_endEPS5_(%"class.std::vector"* %this1, %"class.libparest::MessageLog::Filters::Base"** %add.ptr) #4, !dbg !3759
  br label %if.end, !dbg !3759

if.end:                                           ; preds = %if.then5, %if.else
  br label %if.end6

if.end6:                                          ; preds = %if.end, %if.then
  ret void, !dbg !3760
}

; Function Attrs: noinline nounwind uwtable
define linkonce_odr dso_local void @_ZNSt6vectorIPKN9libparest10MessageLog7Filters4BaseESaIS5_EED2Ev(%"class.std::vector"* %this) unnamed_addr #1 comdat align 2 personality i8* bitcast (i32 (...)* @__gxx_personality_v0 to i8*) !dbg !3761 {
entry:
  %this.addr = alloca %"class.std::vector"*, align 8
  %exn.slot = alloca i8*
  %ehselector.slot = alloca i32
  store %"class.std::vector"* %this, %"class.std::vector"** %this.addr, align 8
  call void @llvm.dbg.declare(metadata %"class.std::vector"** %this.addr, metadata !3762, metadata !DIExpression()), !dbg !3763
  %this1 = load %"class.std::vector"*, %"class.std::vector"** %this.addr, align 8
  %0 = bitcast %"class.std::vector"* %this1 to %"struct.std::_Vector_base"*, !dbg !3764
  %_M_impl = getelementptr inbounds %"struct.std::_Vector_base", %"struct.std::_Vector_base"* %0, i32 0, i32 0, !dbg !3764
  %1 = bitcast %"struct.std::_Vector_base<const libparest::MessageLog::Filters::Base *, std::allocator<const libparest::MessageLog::Filters::Base *> >::_Vector_impl"* %_M_impl to %"struct.std::_Vector_base<const libparest::MessageLog::Filters::Base *, std::allocator<const libparest::MessageLog::Filters::Base *> >::_Vector_impl_data"*, !dbg !3766
  %_M_start = getelementptr inbounds %"struct.std::_Vector_base<const libparest::MessageLog::Filters::Base *, std::allocator<const libparest::MessageLog::Filters::Base *> >::_Vector_impl_data", %"struct.std::_Vector_base<const libparest::MessageLog::Filters::Base *, std::allocator<const libparest::MessageLog::Filters::Base *> >::_Vector_impl_data"* %1, i32 0, i32 0, !dbg !3767
  %2 = load %"class.libparest::MessageLog::Filters::Base"**, %"class.libparest::MessageLog::Filters::Base"*** %_M_start, align 8, !dbg !3767
  %3 = bitcast %"class.std::vector"* %this1 to %"struct.std::_Vector_base"*, !dbg !3768
  %_M_impl2 = getelementptr inbounds %"struct.std::_Vector_base", %"struct.std::_Vector_base"* %3, i32 0, i32 0, !dbg !3768
  %4 = bitcast %"struct.std::_Vector_base<const libparest::MessageLog::Filters::Base *, std::allocator<const libparest::MessageLog::Filters::Base *> >::_Vector_impl"* %_M_impl2 to %"struct.std::_Vector_base<const libparest::MessageLog::Filters::Base *, std::allocator<const libparest::MessageLog::Filters::Base *> >::_Vector_impl_data"*, !dbg !3769
  %_M_finish = getelementptr inbounds %"struct.std::_Vector_base<const libparest::MessageLog::Filters::Base *, std::allocator<const libparest::MessageLog::Filters::Base *> >::_Vector_impl_data", %"struct.std::_Vector_base<const libparest::MessageLog::Filters::Base *, std::allocator<const libparest::MessageLog::Filters::Base *> >::_Vector_impl_data"* %4, i32 0, i32 1, !dbg !3770
  %5 = load %"class.libparest::MessageLog::Filters::Base"**, %"class.libparest::MessageLog::Filters::Base"*** %_M_finish, align 8, !dbg !3770
  %6 = bitcast %"class.std::vector"* %this1 to %"struct.std::_Vector_base"*, !dbg !3771
  %call = call dereferenceable(1) %"class.std::allocator.20"* @_ZNSt12_Vector_baseIPKN9libparest10MessageLog7Filters4BaseESaIS5_EE19_M_get_Tp_allocatorEv(%"struct.std::_Vector_base"* %6) #4, !dbg !3771
  invoke void @_ZSt8_DestroyIPPKN9libparest10MessageLog7Filters4BaseES5_EvT_S7_RSaIT0_E(%"class.libparest::MessageLog::Filters::Base"** %2, %"class.libparest::MessageLog::Filters::Base"** %5, %"class.std::allocator.20"* dereferenceable(1) %call)
          to label %invoke.cont unwind label %lpad, !dbg !3772

invoke.cont:                                      ; preds = %entry
  %7 = bitcast %"class.std::vector"* %this1 to %"struct.std::_Vector_base"*, !dbg !3773
  call void @_ZNSt12_Vector_baseIPKN9libparest10MessageLog7Filters4BaseESaIS5_EED2Ev(%"struct.std::_Vector_base"* %7) #4, !dbg !3773
  ret void, !dbg !3774

lpad:                                             ; preds = %entry
  %8 = landingpad { i8*, i32 }
          catch i8* null, !dbg !3773
  %9 = extractvalue { i8*, i32 } %8, 0, !dbg !3773
  store i8* %9, i8** %exn.slot, align 8, !dbg !3773
  %10 = extractvalue { i8*, i32 } %8, 1, !dbg !3773
  store i32 %10, i32* %ehselector.slot, align 4, !dbg !3773
  %11 = bitcast %"class.std::vector"* %this1 to %"struct.std::_Vector_base"*, !dbg !3773
  call void @_ZNSt12_Vector_baseIPKN9libparest10MessageLog7Filters4BaseESaIS5_EED2Ev(%"struct.std::_Vector_base"* %11) #4, !dbg !3773
  br label %terminate.handler, !dbg !3773

terminate.handler:                                ; preds = %lpad
  %exn = load i8*, i8** %exn.slot, align 8, !dbg !3773
  call void @__clang_call_terminate(i8* %exn) #13, !dbg !3773
  unreachable, !dbg !3773
}

; Function Attrs: nounwind
declare dso_local void @_ZN6dealii11SubscriptorD2Ev(%"class.dealii::Subscriptor"*) unnamed_addr #3

; Function Attrs: noinline noreturn nounwind
define linkonce_odr hidden void @__clang_call_terminate(i8* %0) #9 comdat {
  %2 = call i8* @__cxa_begin_catch(i8* %0) #4
  call void @_ZSt9terminatev() #13
  unreachable
}

declare dso_local i8* @__cxa_begin_catch(i8*)

declare dso_local void @_ZSt9terminatev()

; Function Attrs: noinline nounwind uwtable
define dso_local void @_ZN9libparest10MessageLog10ServerBaseD0Ev(%"class.libparest::MessageLog::ServerBase"* %this) unnamed_addr #1 align 2 !dbg !3775 {
entry:
  %this.addr = alloca %"class.libparest::MessageLog::ServerBase"*, align 8
  store %"class.libparest::MessageLog::ServerBase"* %this, %"class.libparest::MessageLog::ServerBase"** %this.addr, align 8
  call void @llvm.dbg.declare(metadata %"class.libparest::MessageLog::ServerBase"** %this.addr, metadata !3776, metadata !DIExpression()), !dbg !3777
  %this1 = load %"class.libparest::MessageLog::ServerBase"*, %"class.libparest::MessageLog::ServerBase"** %this.addr, align 8
  call void @llvm.trap() #13, !dbg !3778
  unreachable, !dbg !3778
}

; Function Attrs: noinline uwtable
define dso_local void @_ZN9libparest10MessageLog10ServerBase13attach_filterEPKNS0_7Filters4BaseE(%"class.libparest::MessageLog::ServerBase"* %this, %"class.libparest::MessageLog::Filters::Base"* %filter) unnamed_addr #0 align 2 !dbg !3779 {
entry:
  %this.addr = alloca %"class.libparest::MessageLog::ServerBase"*, align 8
  %filter.addr = alloca %"class.libparest::MessageLog::Filters::Base"*, align 8
  store %"class.libparest::MessageLog::ServerBase"* %this, %"class.libparest::MessageLog::ServerBase"** %this.addr, align 8
  call void @llvm.dbg.declare(metadata %"class.libparest::MessageLog::ServerBase"** %this.addr, metadata !3780, metadata !DIExpression()), !dbg !3781
  store %"class.libparest::MessageLog::Filters::Base"* %filter, %"class.libparest::MessageLog::Filters::Base"** %filter.addr, align 8
  call void @llvm.dbg.declare(metadata %"class.libparest::MessageLog::Filters::Base"** %filter.addr, metadata !3782, metadata !DIExpression()), !dbg !3783
  %this1 = load %"class.libparest::MessageLog::ServerBase"*, %"class.libparest::MessageLog::ServerBase"** %this.addr, align 8
  %filters = getelementptr inbounds %"class.libparest::MessageLog::ServerBase", %"class.libparest::MessageLog::ServerBase"* %this1, i32 0, i32 1, !dbg !3784
  call void @_ZNSt6vectorIPKN9libparest10MessageLog7Filters4BaseESaIS5_EE9push_backERKS5_(%"class.std::vector"* %filters, %"class.libparest::MessageLog::Filters::Base"** dereferenceable(8) %filter.addr), !dbg !3785
  ret void, !dbg !3786
}

; Function Attrs: noinline uwtable
define linkonce_odr dso_local void @_ZNSt6vectorIPKN9libparest10MessageLog7Filters4BaseESaIS5_EE9push_backERKS5_(%"class.std::vector"* %this, %"class.libparest::MessageLog::Filters::Base"** dereferenceable(8) %__x) #0 comdat align 2 !dbg !3787 {
entry:
  %this.addr = alloca %"class.std::vector"*, align 8
  %__x.addr = alloca %"class.libparest::MessageLog::Filters::Base"**, align 8
  %agg.tmp = alloca %"class.__gnu_cxx::__normal_iterator", align 8
  store %"class.std::vector"* %this, %"class.std::vector"** %this.addr, align 8
  call void @llvm.dbg.declare(metadata %"class.std::vector"** %this.addr, metadata !3788, metadata !DIExpression()), !dbg !3789
  store %"class.libparest::MessageLog::Filters::Base"** %__x, %"class.libparest::MessageLog::Filters::Base"*** %__x.addr, align 8
  call void @llvm.dbg.declare(metadata %"class.libparest::MessageLog::Filters::Base"*** %__x.addr, metadata !3790, metadata !DIExpression()), !dbg !3791
  %this1 = load %"class.std::vector"*, %"class.std::vector"** %this.addr, align 8
  %0 = bitcast %"class.std::vector"* %this1 to %"struct.std::_Vector_base"*, !dbg !3792
  %_M_impl = getelementptr inbounds %"struct.std::_Vector_base", %"struct.std::_Vector_base"* %0, i32 0, i32 0, !dbg !3792
  %1 = bitcast %"struct.std::_Vector_base<const libparest::MessageLog::Filters::Base *, std::allocator<const libparest::MessageLog::Filters::Base *> >::_Vector_impl"* %_M_impl to %"struct.std::_Vector_base<const libparest::MessageLog::Filters::Base *, std::allocator<const libparest::MessageLog::Filters::Base *> >::_Vector_impl_data"*, !dbg !3794
  %_M_finish = getelementptr inbounds %"struct.std::_Vector_base<const libparest::MessageLog::Filters::Base *, std::allocator<const libparest::MessageLog::Filters::Base *> >::_Vector_impl_data", %"struct.std::_Vector_base<const libparest::MessageLog::Filters::Base *, std::allocator<const libparest::MessageLog::Filters::Base *> >::_Vector_impl_data"* %1, i32 0, i32 1, !dbg !3795
  %2 = load %"class.libparest::MessageLog::Filters::Base"**, %"class.libparest::MessageLog::Filters::Base"*** %_M_finish, align 8, !dbg !3795
  %3 = bitcast %"class.std::vector"* %this1 to %"struct.std::_Vector_base"*, !dbg !3796
  %_M_impl2 = getelementptr inbounds %"struct.std::_Vector_base", %"struct.std::_Vector_base"* %3, i32 0, i32 0, !dbg !3796
  %4 = bitcast %"struct.std::_Vector_base<const libparest::MessageLog::Filters::Base *, std::allocator<const libparest::MessageLog::Filters::Base *> >::_Vector_impl"* %_M_impl2 to %"struct.std::_Vector_base<const libparest::MessageLog::Filters::Base *, std::allocator<const libparest::MessageLog::Filters::Base *> >::_Vector_impl_data"*, !dbg !3797
  %_M_end_of_storage = getelementptr inbounds %"struct.std::_Vector_base<const libparest::MessageLog::Filters::Base *, std::allocator<const libparest::MessageLog::Filters::Base *> >::_Vector_impl_data", %"struct.std::_Vector_base<const libparest::MessageLog::Filters::Base *, std::allocator<const libparest::MessageLog::Filters::Base *> >::_Vector_impl_data"* %4, i32 0, i32 2, !dbg !3798
  %5 = load %"class.libparest::MessageLog::Filters::Base"**, %"class.libparest::MessageLog::Filters::Base"*** %_M_end_of_storage, align 8, !dbg !3798
  %cmp = icmp ne %"class.libparest::MessageLog::Filters::Base"** %2, %5, !dbg !3799
  br i1 %cmp, label %if.then, label %if.else, !dbg !3800

if.then:                                          ; preds = %entry
  %6 = bitcast %"class.std::vector"* %this1 to %"struct.std::_Vector_base"*, !dbg !3801
  %_M_impl3 = getelementptr inbounds %"struct.std::_Vector_base", %"struct.std::_Vector_base"* %6, i32 0, i32 0, !dbg !3801
  %7 = bitcast %"struct.std::_Vector_base<const libparest::MessageLog::Filters::Base *, std::allocator<const libparest::MessageLog::Filters::Base *> >::_Vector_impl"* %_M_impl3 to %"class.std::allocator.20"*, !dbg !3803
  %8 = bitcast %"class.std::vector"* %this1 to %"struct.std::_Vector_base"*, !dbg !3804
  %_M_impl4 = getelementptr inbounds %"struct.std::_Vector_base", %"struct.std::_Vector_base"* %8, i32 0, i32 0, !dbg !3804
  %9 = bitcast %"struct.std::_Vector_base<const libparest::MessageLog::Filters::Base *, std::allocator<const libparest::MessageLog::Filters::Base *> >::_Vector_impl"* %_M_impl4 to %"struct.std::_Vector_base<const libparest::MessageLog::Filters::Base *, std::allocator<const libparest::MessageLog::Filters::Base *> >::_Vector_impl_data"*, !dbg !3805
  %_M_finish5 = getelementptr inbounds %"struct.std::_Vector_base<const libparest::MessageLog::Filters::Base *, std::allocator<const libparest::MessageLog::Filters::Base *> >::_Vector_impl_data", %"struct.std::_Vector_base<const libparest::MessageLog::Filters::Base *, std::allocator<const libparest::MessageLog::Filters::Base *> >::_Vector_impl_data"* %9, i32 0, i32 1, !dbg !3806
  %10 = load %"class.libparest::MessageLog::Filters::Base"**, %"class.libparest::MessageLog::Filters::Base"*** %_M_finish5, align 8, !dbg !3806
  %11 = load %"class.libparest::MessageLog::Filters::Base"**, %"class.libparest::MessageLog::Filters::Base"*** %__x.addr, align 8, !dbg !3807
  call void @_ZNSt16allocator_traitsISaIPKN9libparest10MessageLog7Filters4BaseEEE9constructIS5_JRKS5_EEEvRS6_PT_DpOT0_(%"class.std::allocator.20"* dereferenceable(1) %7, %"class.libparest::MessageLog::Filters::Base"** %10, %"class.libparest::MessageLog::Filters::Base"** dereferenceable(8) %11) #4, !dbg !3808
  %12 = bitcast %"class.std::vector"* %this1 to %"struct.std::_Vector_base"*, !dbg !3809
  %_M_impl6 = getelementptr inbounds %"struct.std::_Vector_base", %"struct.std::_Vector_base"* %12, i32 0, i32 0, !dbg !3809
  %13 = bitcast %"struct.std::_Vector_base<const libparest::MessageLog::Filters::Base *, std::allocator<const libparest::MessageLog::Filters::Base *> >::_Vector_impl"* %_M_impl6 to %"struct.std::_Vector_base<const libparest::MessageLog::Filters::Base *, std::allocator<const libparest::MessageLog::Filters::Base *> >::_Vector_impl_data"*, !dbg !3810
  %_M_finish7 = getelementptr inbounds %"struct.std::_Vector_base<const libparest::MessageLog::Filters::Base *, std::allocator<const libparest::MessageLog::Filters::Base *> >::_Vector_impl_data", %"struct.std::_Vector_base<const libparest::MessageLog::Filters::Base *, std::allocator<const libparest::MessageLog::Filters::Base *> >::_Vector_impl_data"* %13, i32 0, i32 1, !dbg !3811
  %14 = load %"class.libparest::MessageLog::Filters::Base"**, %"class.libparest::MessageLog::Filters::Base"*** %_M_finish7, align 8, !dbg !3812
  %incdec.ptr = getelementptr inbounds %"class.libparest::MessageLog::Filters::Base"*, %"class.libparest::MessageLog::Filters::Base"** %14, i32 1, !dbg !3812
  store %"class.libparest::MessageLog::Filters::Base"** %incdec.ptr, %"class.libparest::MessageLog::Filters::Base"*** %_M_finish7, align 8, !dbg !3812
  br label %if.end, !dbg !3813

if.else:                                          ; preds = %entry
  %call = call %"class.libparest::MessageLog::Filters::Base"** @_ZNSt6vectorIPKN9libparest10MessageLog7Filters4BaseESaIS5_EE3endEv(%"class.std::vector"* %this1) #4, !dbg !3814
  %coerce.dive = getelementptr inbounds %"class.__gnu_cxx::__normal_iterator", %"class.__gnu_cxx::__normal_iterator"* %agg.tmp, i32 0, i32 0, !dbg !3814
  store %"class.libparest::MessageLog::Filters::Base"** %call, %"class.libparest::MessageLog::Filters::Base"*** %coerce.dive, align 8, !dbg !3814
  %15 = load %"class.libparest::MessageLog::Filters::Base"**, %"class.libparest::MessageLog::Filters::Base"*** %__x.addr, align 8, !dbg !3815
  %coerce.dive8 = getelementptr inbounds %"class.__gnu_cxx::__normal_iterator", %"class.__gnu_cxx::__normal_iterator"* %agg.tmp, i32 0, i32 0, !dbg !3816
  %16 = load %"class.libparest::MessageLog::Filters::Base"**, %"class.libparest::MessageLog::Filters::Base"*** %coerce.dive8, align 8, !dbg !3816
  call void @_ZNSt6vectorIPKN9libparest10MessageLog7Filters4BaseESaIS5_EE17_M_realloc_insertIJRKS5_EEEvN9__gnu_cxx17__normal_iteratorIPS5_S7_EEDpOT_(%"class.std::vector"* %this1, %"class.libparest::MessageLog::Filters::Base"** %16, %"class.libparest::MessageLog::Filters::Base"** dereferenceable(8) %15), !dbg !3816
  br label %if.end

if.end:                                           ; preds = %if.else, %if.then
  ret void, !dbg !3817
}

; Function Attrs: noinline uwtable
define dso_local zeroext i1 @_ZNK9libparest10MessageLog10ServerBase13apply_filtersERKNSt7__cxx1112basic_stringIcSt11char_traitsIcESaIcEEES9_j(%"class.libparest::MessageLog::ServerBase"* %this, %"class.std::__cxx11::basic_string"* dereferenceable(32) %prefix, %"class.std::__cxx11::basic_string"* dereferenceable(32) %message, i32 %priority) #0 align 2 !dbg !3818 {
entry:
  %retval = alloca i1, align 1
  %this.addr = alloca %"class.libparest::MessageLog::ServerBase"*, align 8
  %prefix.addr = alloca %"class.std::__cxx11::basic_string"*, align 8
  %message.addr = alloca %"class.std::__cxx11::basic_string"*, align 8
  %priority.addr = alloca i32, align 4
  %i = alloca i32, align 4
  store %"class.libparest::MessageLog::ServerBase"* %this, %"class.libparest::MessageLog::ServerBase"** %this.addr, align 8
  call void @llvm.dbg.declare(metadata %"class.libparest::MessageLog::ServerBase"** %this.addr, metadata !3819, metadata !DIExpression()), !dbg !3821
  store %"class.std::__cxx11::basic_string"* %prefix, %"class.std::__cxx11::basic_string"** %prefix.addr, align 8
  call void @llvm.dbg.declare(metadata %"class.std::__cxx11::basic_string"** %prefix.addr, metadata !3822, metadata !DIExpression()), !dbg !3823
  store %"class.std::__cxx11::basic_string"* %message, %"class.std::__cxx11::basic_string"** %message.addr, align 8
  call void @llvm.dbg.declare(metadata %"class.std::__cxx11::basic_string"** %message.addr, metadata !3824, metadata !DIExpression()), !dbg !3825
  store i32 %priority, i32* %priority.addr, align 4
  call void @llvm.dbg.declare(metadata i32* %priority.addr, metadata !3826, metadata !DIExpression()), !dbg !3827
  %this1 = load %"class.libparest::MessageLog::ServerBase"*, %"class.libparest::MessageLog::ServerBase"** %this.addr, align 8
  call void @llvm.dbg.declare(metadata i32* %i, metadata !3828, metadata !DIExpression()), !dbg !3830
  %filters = getelementptr inbounds %"class.libparest::MessageLog::ServerBase", %"class.libparest::MessageLog::ServerBase"* %this1, i32 0, i32 1, !dbg !3831
  %call = call i64 @_ZNKSt6vectorIPKN9libparest10MessageLog7Filters4BaseESaIS5_EE4sizeEv(%"class.std::vector"* %filters) #4, !dbg !3832
  %sub = sub i64 %call, 1, !dbg !3833
  %conv = trunc i64 %sub to i32, !dbg !3831
  store i32 %conv, i32* %i, align 4, !dbg !3830
  br label %for.cond, !dbg !3834

for.cond:                                         ; preds = %for.inc, %entry
  %0 = load i32, i32* %i, align 4, !dbg !3835
  %cmp = icmp sge i32 %0, 0, !dbg !3837
  br i1 %cmp, label %for.body, label %for.end, !dbg !3838

for.body:                                         ; preds = %for.cond
  %filters2 = getelementptr inbounds %"class.libparest::MessageLog::ServerBase", %"class.libparest::MessageLog::ServerBase"* %this1, i32 0, i32 1, !dbg !3839
  %1 = load i32, i32* %i, align 4, !dbg !3841
  %conv3 = sext i32 %1 to i64, !dbg !3841
  %call4 = call dereferenceable(8) %"class.libparest::MessageLog::Filters::Base"** @_ZNKSt6vectorIPKN9libparest10MessageLog7Filters4BaseESaIS5_EEixEm(%"class.std::vector"* %filters2, i64 %conv3) #4, !dbg !3839
  %2 = load %"class.libparest::MessageLog::Filters::Base"*, %"class.libparest::MessageLog::Filters::Base"** %call4, align 8, !dbg !3839
  %3 = load %"class.std::__cxx11::basic_string"*, %"class.std::__cxx11::basic_string"** %prefix.addr, align 8, !dbg !3842
  %4 = load %"class.std::__cxx11::basic_string"*, %"class.std::__cxx11::basic_string"** %message.addr, align 8, !dbg !3843
  %5 = load i32, i32* %priority.addr, align 4, !dbg !3844
  %6 = bitcast %"class.libparest::MessageLog::Filters::Base"* %2 to i1 (%"class.libparest::MessageLog::Filters::Base"*, %"class.std::__cxx11::basic_string"*, %"class.std::__cxx11::basic_string"*, i32)***, !dbg !3845
  %vtable = load i1 (%"class.libparest::MessageLog::Filters::Base"*, %"class.std::__cxx11::basic_string"*, %"class.std::__cxx11::basic_string"*, i32)**, i1 (%"class.libparest::MessageLog::Filters::Base"*, %"class.std::__cxx11::basic_string"*, %"class.std::__cxx11::basic_string"*, i32)*** %6, align 8, !dbg !3845
  %vfn = getelementptr inbounds i1 (%"class.libparest::MessageLog::Filters::Base"*, %"class.std::__cxx11::basic_string"*, %"class.std::__cxx11::basic_string"*, i32)*, i1 (%"class.libparest::MessageLog::Filters::Base"*, %"class.std::__cxx11::basic_string"*, %"class.std::__cxx11::basic_string"*, i32)** %vtable, i64 2, !dbg !3845
  %7 = load i1 (%"class.libparest::MessageLog::Filters::Base"*, %"class.std::__cxx11::basic_string"*, %"class.std::__cxx11::basic_string"*, i32)*, i1 (%"class.libparest::MessageLog::Filters::Base"*, %"class.std::__cxx11::basic_string"*, %"class.std::__cxx11::basic_string"*, i32)** %vfn, align 8, !dbg !3845
  %call5 = call zeroext i1 %7(%"class.libparest::MessageLog::Filters::Base"* %2, %"class.std::__cxx11::basic_string"* dereferenceable(32) %3, %"class.std::__cxx11::basic_string"* dereferenceable(32) %4, i32 %5), !dbg !3845
  %conv6 = zext i1 %call5 to i32, !dbg !3839
  %cmp7 = icmp eq i32 %conv6, 1, !dbg !3846
  br i1 %cmp7, label %if.then, label %if.end, !dbg !3847

if.then:                                          ; preds = %for.body
  store i1 true, i1* %retval, align 1, !dbg !3848
  br label %return, !dbg !3848

if.end:                                           ; preds = %for.body
  br label %for.inc, !dbg !3849

for.inc:                                          ; preds = %if.end
  %8 = load i32, i32* %i, align 4, !dbg !3850
  %dec = add nsw i32 %8, -1, !dbg !3850
  store i32 %dec, i32* %i, align 4, !dbg !3850
  br label %for.cond, !dbg !3851, !llvm.loop !3852

for.end:                                          ; preds = %for.cond
  store i1 false, i1* %retval, align 1, !dbg !3854
  br label %return, !dbg !3854

return:                                           ; preds = %for.end, %if.then
  %9 = load i1, i1* %retval, align 1, !dbg !3855
  ret i1 %9, !dbg !3855
}

; Function Attrs: noinline nounwind uwtable
define linkonce_odr dso_local dereferenceable(8) %"class.libparest::MessageLog::Filters::Base"** @_ZNKSt6vectorIPKN9libparest10MessageLog7Filters4BaseESaIS5_EEixEm(%"class.std::vector"* %this, i64 %__n) #1 comdat align 2 !dbg !3856 {
entry:
  %this.addr = alloca %"class.std::vector"*, align 8
  %__n.addr = alloca i64, align 8
  store %"class.std::vector"* %this, %"class.std::vector"** %this.addr, align 8
  call void @llvm.dbg.declare(metadata %"class.std::vector"** %this.addr, metadata !3857, metadata !DIExpression()), !dbg !3858
  store i64 %__n, i64* %__n.addr, align 8
  call void @llvm.dbg.declare(metadata i64* %__n.addr, metadata !3859, metadata !DIExpression()), !dbg !3860
  %this1 = load %"class.std::vector"*, %"class.std::vector"** %this.addr, align 8
  %0 = bitcast %"class.std::vector"* %this1 to %"struct.std::_Vector_base"*, !dbg !3861
  %_M_impl = getelementptr inbounds %"struct.std::_Vector_base", %"struct.std::_Vector_base"* %0, i32 0, i32 0, !dbg !3861
  %1 = bitcast %"struct.std::_Vector_base<const libparest::MessageLog::Filters::Base *, std::allocator<const libparest::MessageLog::Filters::Base *> >::_Vector_impl"* %_M_impl to %"struct.std::_Vector_base<const libparest::MessageLog::Filters::Base *, std::allocator<const libparest::MessageLog::Filters::Base *> >::_Vector_impl_data"*, !dbg !3862
  %_M_start = getelementptr inbounds %"struct.std::_Vector_base<const libparest::MessageLog::Filters::Base *, std::allocator<const libparest::MessageLog::Filters::Base *> >::_Vector_impl_data", %"struct.std::_Vector_base<const libparest::MessageLog::Filters::Base *, std::allocator<const libparest::MessageLog::Filters::Base *> >::_Vector_impl_data"* %1, i32 0, i32 0, !dbg !3863
  %2 = load %"class.libparest::MessageLog::Filters::Base"**, %"class.libparest::MessageLog::Filters::Base"*** %_M_start, align 8, !dbg !3863
  %3 = load i64, i64* %__n.addr, align 8, !dbg !3864
  %add.ptr = getelementptr inbounds %"class.libparest::MessageLog::Filters::Base"*, %"class.libparest::MessageLog::Filters::Base"** %2, i64 %3, !dbg !3865
  ret %"class.libparest::MessageLog::Filters::Base"** %add.ptr, !dbg !3866
}

; Function Attrs: noinline nounwind uwtable
define dso_local void @_ZN9libparest10MessageLog6ServerD2Ev(%"class.libparest::MessageLog::Server"* %this) unnamed_addr #1 align 2 !dbg !3867 {
entry:
  %this.addr = alloca %"class.libparest::MessageLog::Server"*, align 8
  store %"class.libparest::MessageLog::Server"* %this, %"class.libparest::MessageLog::Server"** %this.addr, align 8
  call void @llvm.dbg.declare(metadata %"class.libparest::MessageLog::Server"** %this.addr, metadata !4059, metadata !DIExpression()), !dbg !4061
  %this1 = load %"class.libparest::MessageLog::Server"*, %"class.libparest::MessageLog::Server"** %this.addr, align 8
  %0 = bitcast %"class.libparest::MessageLog::Server"* %this1 to i32 (...)***, !dbg !4062
  store i32 (...)** bitcast (i8** getelementptr inbounds ({ [8 x i8*] }, { [8 x i8*] }* @_ZTVN9libparest10MessageLog6ServerE, i32 0, inrange i32 0, i32 2) to i32 (...)**), i32 (...)*** %0, align 8, !dbg !4062
  %id_to_name_map = getelementptr inbounds %"class.libparest::MessageLog::Server", %"class.libparest::MessageLog::Server"* %this1, i32 0, i32 1, !dbg !4063
  call void @_ZNSt3mapIjNSt7__cxx1112basic_stringIcSt11char_traitsIcESaIcEEESt4lessIjESaISt4pairIKjS5_EEED2Ev(%"class.std::map.23"* %id_to_name_map) #4, !dbg !4063
  %1 = bitcast %"class.libparest::MessageLog::Server"* %this1 to %"class.libparest::MessageLog::ServerBase"*, !dbg !4063
  call void @_ZN9libparest10MessageLog10ServerBaseD2Ev(%"class.libparest::MessageLog::ServerBase"* %1) #4, !dbg !4063
  ret void, !dbg !4065
}

; Function Attrs: noinline nounwind uwtable
define linkonce_odr dso_local void @_ZNSt3mapIjNSt7__cxx1112basic_stringIcSt11char_traitsIcESaIcEEESt4lessIjESaISt4pairIKjS5_EEED2Ev(%"class.std::map.23"* %this) unnamed_addr #1 comdat align 2 !dbg !4066 {
entry:
  %this.addr = alloca %"class.std::map.23"*, align 8
  store %"class.std::map.23"* %this, %"class.std::map.23"** %this.addr, align 8
  call void @llvm.dbg.declare(metadata %"class.std::map.23"** %this.addr, metadata !4067, metadata !DIExpression()), !dbg !4069
  %this1 = load %"class.std::map.23"*, %"class.std::map.23"** %this.addr, align 8
  %_M_t = getelementptr inbounds %"class.std::map.23", %"class.std::map.23"* %this1, i32 0, i32 0, !dbg !4070
  call void @_ZNSt8_Rb_treeIjSt4pairIKjNSt7__cxx1112basic_stringIcSt11char_traitsIcESaIcEEEESt10_Select1stIS8_ESt4lessIjESaIS8_EED2Ev(%"class.std::_Rb_tree.24"* %_M_t) #4, !dbg !4070
  ret void, !dbg !4072
}

; Function Attrs: noinline nounwind uwtable
define dso_local void @_ZN9libparest10MessageLog6ServerD0Ev(%"class.libparest::MessageLog::Server"* %this) unnamed_addr #1 align 2 !dbg !4073 {
entry:
  %this.addr = alloca %"class.libparest::MessageLog::Server"*, align 8
  store %"class.libparest::MessageLog::Server"* %this, %"class.libparest::MessageLog::Server"** %this.addr, align 8
  call void @llvm.dbg.declare(metadata %"class.libparest::MessageLog::Server"** %this.addr, metadata !4074, metadata !DIExpression()), !dbg !4075
  %this1 = load %"class.libparest::MessageLog::Server"*, %"class.libparest::MessageLog::Server"** %this.addr, align 8
  call void @_ZN9libparest10MessageLog6ServerD1Ev(%"class.libparest::MessageLog::Server"* %this1) #4, !dbg !4076
  %0 = bitcast %"class.libparest::MessageLog::Server"* %this1 to i8*, !dbg !4076
  call void @_ZdlPv(i8* %0) #15, !dbg !4076
  ret void, !dbg !4077
}

; Function Attrs: noinline uwtable
define dso_local void @_ZN9libparest10MessageLog6ServerC2Ev(%"class.libparest::MessageLog::Server"* %this) unnamed_addr #0 align 2 !dbg !4078 {
entry:
  %this.addr = alloca %"class.libparest::MessageLog::Server"*, align 8
  store %"class.libparest::MessageLog::Server"* %this, %"class.libparest::MessageLog::Server"** %this.addr, align 8
  call void @llvm.dbg.declare(metadata %"class.libparest::MessageLog::Server"** %this.addr, metadata !4079, metadata !DIExpression()), !dbg !4080
  %this1 = load %"class.libparest::MessageLog::Server"*, %"class.libparest::MessageLog::Server"** %this.addr, align 8
  %0 = bitcast %"class.libparest::MessageLog::Server"* %this1 to %"class.libparest::MessageLog::ServerBase"*, !dbg !4081
  call void @_ZN9libparest10MessageLog10ServerBaseC2Ev(%"class.libparest::MessageLog::ServerBase"* %0), !dbg !4082
  %1 = bitcast %"class.libparest::MessageLog::Server"* %this1 to i32 (...)***, !dbg !4081
  store i32 (...)** bitcast (i8** getelementptr inbounds ({ [8 x i8*] }, { [8 x i8*] }* @_ZTVN9libparest10MessageLog6ServerE, i32 0, inrange i32 0, i32 2) to i32 (...)**), i32 (...)*** %1, align 8, !dbg !4081
  %id_to_name_map = getelementptr inbounds %"class.libparest::MessageLog::Server", %"class.libparest::MessageLog::Server"* %this1, i32 0, i32 1, !dbg !4082
  call void @_ZNSt3mapIjNSt7__cxx1112basic_stringIcSt11char_traitsIcESaIcEEESt4lessIjESaISt4pairIKjS5_EEEC2Ev(%"class.std::map.23"* %id_to_name_map) #4, !dbg !4082
  %next_free_id = getelementptr inbounds %"class.libparest::MessageLog::Server", %"class.libparest::MessageLog::Server"* %this1, i32 0, i32 2, !dbg !4083
  store i32 0, i32* %next_free_id, align 8, !dbg !4083
  %max_name_length = getelementptr inbounds %"class.libparest::MessageLog::Server", %"class.libparest::MessageLog::Server"* %this1, i32 0, i32 3, !dbg !4084
  store i32 0, i32* %max_name_length, align 4, !dbg !4084
  %id_lock = getelementptr inbounds %"class.libparest::MessageLog::Server", %"class.libparest::MessageLog::Server"* %this1, i32 0, i32 4, !dbg !4082
  ret void, !dbg !4085
}

; Function Attrs: noinline uwtable
define linkonce_odr dso_local void @_ZN9libparest10MessageLog10ServerBaseC2Ev(%"class.libparest::MessageLog::ServerBase"* %this) unnamed_addr #0 comdat align 2 !dbg !4086 {
entry:
  %this.addr = alloca %"class.libparest::MessageLog::ServerBase"*, align 8
  store %"class.libparest::MessageLog::ServerBase"* %this, %"class.libparest::MessageLog::ServerBase"** %this.addr, align 8
  call void @llvm.dbg.declare(metadata %"class.libparest::MessageLog::ServerBase"** %this.addr, metadata !4088, metadata !DIExpression()), !dbg !4089
  %this1 = load %"class.libparest::MessageLog::ServerBase"*, %"class.libparest::MessageLog::ServerBase"** %this.addr, align 8
  %0 = bitcast %"class.libparest::MessageLog::ServerBase"* %this1 to %"class.dealii::Subscriptor"*, !dbg !4090
  call void @_ZN6dealii11SubscriptorC2Ev(%"class.dealii::Subscriptor"* %0), !dbg !4090
  %1 = bitcast %"class.libparest::MessageLog::ServerBase"* %this1 to i32 (...)***, !dbg !4090
  store i32 (...)** bitcast (i8** getelementptr inbounds ({ [8 x i8*] }, { [8 x i8*] }* @_ZTVN9libparest10MessageLog10ServerBaseE, i32 0, inrange i32 0, i32 2) to i32 (...)**), i32 (...)*** %1, align 8, !dbg !4090
  %filters = getelementptr inbounds %"class.libparest::MessageLog::ServerBase", %"class.libparest::MessageLog::ServerBase"* %this1, i32 0, i32 1, !dbg !4090
  call void @_ZNSt6vectorIPKN9libparest10MessageLog7Filters4BaseESaIS5_EEC2Ev(%"class.std::vector"* %filters) #4, !dbg !4090
  ret void, !dbg !4090
}

; Function Attrs: noinline nounwind uwtable
define linkonce_odr dso_local void @_ZNSt3mapIjNSt7__cxx1112basic_stringIcSt11char_traitsIcESaIcEEESt4lessIjESaISt4pairIKjS5_EEEC2Ev(%"class.std::map.23"* %this) unnamed_addr #1 comdat align 2 !dbg !4091 {
entry:
  %this.addr = alloca %"class.std::map.23"*, align 8
  store %"class.std::map.23"* %this, %"class.std::map.23"** %this.addr, align 8
  call void @llvm.dbg.declare(metadata %"class.std::map.23"** %this.addr, metadata !4092, metadata !DIExpression()), !dbg !4093
  %this1 = load %"class.std::map.23"*, %"class.std::map.23"** %this.addr, align 8
  %_M_t = getelementptr inbounds %"class.std::map.23", %"class.std::map.23"* %this1, i32 0, i32 0, !dbg !4094
  call void @_ZNSt8_Rb_treeIjSt4pairIKjNSt7__cxx1112basic_stringIcSt11char_traitsIcESaIcEEEESt10_Select1stIS8_ESt4lessIjESaIS8_EEC2Ev(%"class.std::_Rb_tree.24"* %_M_t) #4, !dbg !4094
  ret void, !dbg !4095
}

; Function Attrs: noinline uwtable
define dso_local i32 @_ZN9libparest10MessageLog6Server15register_clientERKNSt7__cxx1112basic_stringIcSt11char_traitsIcESaIcEEE(%"class.libparest::MessageLog::Server"* %this, %"class.std::__cxx11::basic_string"* dereferenceable(32) %name) unnamed_addr #0 align 2 personality i8* bitcast (i32 (...)* @__gxx_personality_v0 to i8*) !dbg !4096 {
entry:
  %this.addr = alloca %"class.libparest::MessageLog::Server"*, align 8
  %name.addr = alloca %"class.std::__cxx11::basic_string"*, align 8
  %lock = alloca %"class.dealii::Threads::DummyThreadMutex::ScopedLock", align 1
  %i = alloca %"struct.std::_Rb_tree_const_iterator", align 8
  %ref.tmp = alloca %"struct.std::_Rb_tree_iterator", align 8
  %ref.tmp2 = alloca %"struct.std::_Rb_tree_const_iterator", align 8
  %ref.tmp3 = alloca %"struct.std::_Rb_tree_iterator", align 8
  %agg.tmp = alloca %"class.libparest::MessageLog::ServerBase::ExcNameAlreadyUsed", align 8
  %agg.tmp10 = alloca %"class.std::__cxx11::basic_string", align 8
  %exn.slot = alloca i8*
  %ehselector.slot = alloca i32
  %id = alloca i32, align 4
  store %"class.libparest::MessageLog::Server"* %this, %"class.libparest::MessageLog::Server"** %this.addr, align 8
  call void @llvm.dbg.declare(metadata %"class.libparest::MessageLog::Server"** %this.addr, metadata !4097, metadata !DIExpression()), !dbg !4098
  store %"class.std::__cxx11::basic_string"* %name, %"class.std::__cxx11::basic_string"** %name.addr, align 8
  call void @llvm.dbg.declare(metadata %"class.std::__cxx11::basic_string"** %name.addr, metadata !4099, metadata !DIExpression()), !dbg !4100
  %this1 = load %"class.libparest::MessageLog::Server"*, %"class.libparest::MessageLog::Server"** %this.addr, align 8
  call void @llvm.dbg.declare(metadata %"class.dealii::Threads::DummyThreadMutex::ScopedLock"* %lock, metadata !4101, metadata !DIExpression()), !dbg !4102
  %id_lock = getelementptr inbounds %"class.libparest::MessageLog::Server", %"class.libparest::MessageLog::Server"* %this1, i32 0, i32 4, !dbg !4103
  call void @_ZN6dealii7Threads16DummyThreadMutex10ScopedLockC2ERS1_(%"class.dealii::Threads::DummyThreadMutex::ScopedLock"* %lock, %"class.dealii::Threads::DummyThreadMutex"* dereferenceable(1) %id_lock), !dbg !4102
  call void @llvm.dbg.declare(metadata %"struct.std::_Rb_tree_const_iterator"* %i, metadata !4104, metadata !DIExpression()), !dbg !4106
  %id_to_name_map = getelementptr inbounds %"class.libparest::MessageLog::Server", %"class.libparest::MessageLog::Server"* %this1, i32 0, i32 1, !dbg !4107
  %call = call %"struct.std::_Rb_tree_node_base"* @_ZNSt3mapIjNSt7__cxx1112basic_stringIcSt11char_traitsIcESaIcEEESt4lessIjESaISt4pairIKjS5_EEE5beginEv(%"class.std::map.23"* %id_to_name_map) #4, !dbg !4108
  %coerce.dive = getelementptr inbounds %"struct.std::_Rb_tree_iterator", %"struct.std::_Rb_tree_iterator"* %ref.tmp, i32 0, i32 0, !dbg !4108
  store %"struct.std::_Rb_tree_node_base"* %call, %"struct.std::_Rb_tree_node_base"** %coerce.dive, align 8, !dbg !4108
  call void @_ZNSt23_Rb_tree_const_iteratorISt4pairIKjNSt7__cxx1112basic_stringIcSt11char_traitsIcESaIcEEEEEC2ERKSt17_Rb_tree_iteratorIS8_E(%"struct.std::_Rb_tree_const_iterator"* %i, %"struct.std::_Rb_tree_iterator"* dereferenceable(8) %ref.tmp) #4, !dbg !4107
  br label %for.cond, !dbg !4109

for.cond:                                         ; preds = %for.inc, %entry
  %id_to_name_map4 = getelementptr inbounds %"class.libparest::MessageLog::Server", %"class.libparest::MessageLog::Server"* %this1, i32 0, i32 1, !dbg !4110
  %call5 = call %"struct.std::_Rb_tree_node_base"* @_ZNSt3mapIjNSt7__cxx1112basic_stringIcSt11char_traitsIcESaIcEEESt4lessIjESaISt4pairIKjS5_EEE3endEv(%"class.std::map.23"* %id_to_name_map4) #4, !dbg !4112
  %coerce.dive6 = getelementptr inbounds %"struct.std::_Rb_tree_iterator", %"struct.std::_Rb_tree_iterator"* %ref.tmp3, i32 0, i32 0, !dbg !4112
  store %"struct.std::_Rb_tree_node_base"* %call5, %"struct.std::_Rb_tree_node_base"** %coerce.dive6, align 8, !dbg !4112
  call void @_ZNSt23_Rb_tree_const_iteratorISt4pairIKjNSt7__cxx1112basic_stringIcSt11char_traitsIcESaIcEEEEEC2ERKSt17_Rb_tree_iteratorIS8_E(%"struct.std::_Rb_tree_const_iterator"* %ref.tmp2, %"struct.std::_Rb_tree_iterator"* dereferenceable(8) %ref.tmp3) #4, !dbg !4110
  %call7 = call zeroext i1 @_ZStneRKSt23_Rb_tree_const_iteratorISt4pairIKjNSt7__cxx1112basic_stringIcSt11char_traitsIcESaIcEEEEESB_(%"struct.std::_Rb_tree_const_iterator"* dereferenceable(8) %i, %"struct.std::_Rb_tree_const_iterator"* dereferenceable(8) %ref.tmp2) #4, !dbg !4113
  br i1 %call7, label %for.body, label %for.end, !dbg !4114

for.body:                                         ; preds = %for.cond
  %call8 = call %"struct.std::pair"* @_ZNKSt23_Rb_tree_const_iteratorISt4pairIKjNSt7__cxx1112basic_stringIcSt11char_traitsIcESaIcEEEEEptEv(%"struct.std::_Rb_tree_const_iterator"* %i) #4, !dbg !4115
  %second = getelementptr inbounds %"struct.std::pair", %"struct.std::pair"* %call8, i32 0, i32 1, !dbg !4117
  %0 = load %"class.std::__cxx11::basic_string"*, %"class.std::__cxx11::basic_string"** %name.addr, align 8, !dbg !4118
  %call9 = call zeroext i1 @_ZSteqIcEN9__gnu_cxx11__enable_ifIXsr9__is_charIT_EE7__valueEbE6__typeERKNSt7__cxx1112basic_stringIS2_St11char_traitsIS2_ESaIS2_EEESC_(%"class.std::__cxx11::basic_string"* dereferenceable(32) %second, %"class.std::__cxx11::basic_string"* dereferenceable(32) %0) #4, !dbg !4119
  br i1 %call9, label %if.then, label %if.end, !dbg !4120

if.then:                                          ; preds = %for.body
  %1 = load %"class.std::__cxx11::basic_string"*, %"class.std::__cxx11::basic_string"** %name.addr, align 8, !dbg !4121
  invoke void @_ZNSt7__cxx1112basic_stringIcSt11char_traitsIcESaIcEEC1ERKS4_(%"class.std::__cxx11::basic_string"* %agg.tmp10, %"class.std::__cxx11::basic_string"* dereferenceable(32) %1)
          to label %invoke.cont unwind label %lpad, !dbg !4121

invoke.cont:                                      ; preds = %if.then
  invoke void @_ZN9libparest10MessageLog10ServerBase18ExcNameAlreadyUsedC2ENSt7__cxx1112basic_stringIcSt11char_traitsIcESaIcEEE(%"class.libparest::MessageLog::ServerBase::ExcNameAlreadyUsed"* %agg.tmp, %"class.std::__cxx11::basic_string"* %agg.tmp10)
          to label %invoke.cont12 unwind label %lpad11, !dbg !4121

invoke.cont12:                                    ; preds = %invoke.cont
  invoke void @_ZN6dealii18deal_II_exceptions9internals17issue_error_throwIN9libparest10MessageLog10ServerBase18ExcNameAlreadyUsedEEEvPKciS8_S8_S8_T_(i8* getelementptr inbounds ([32 x i8], [32 x i8]* @.str.13, i64 0, i64 0), i32 189, i8* getelementptr inbounds ([1 x i8], [1 x i8]* @.str.14, i64 0, i64 0), i8* getelementptr inbounds ([6 x i8], [6 x i8]* @.str.18, i64 0, i64 0), i8* getelementptr inbounds ([26 x i8], [26 x i8]* @.str.19, i64 0, i64 0), %"class.libparest::MessageLog::ServerBase::ExcNameAlreadyUsed"* %agg.tmp)
          to label %invoke.cont14 unwind label %lpad13, !dbg !4121

invoke.cont14:                                    ; preds = %invoke.cont12
  call void @_ZN9libparest10MessageLog10ServerBase18ExcNameAlreadyUsedD2Ev(%"class.libparest::MessageLog::ServerBase::ExcNameAlreadyUsed"* %agg.tmp) #4, !dbg !4121
  call void @_ZNSt7__cxx1112basic_stringIcSt11char_traitsIcESaIcEED1Ev(%"class.std::__cxx11::basic_string"* %agg.tmp10) #4, !dbg !4121
  br label %if.end, !dbg !4124

lpad:                                             ; preds = %invoke.cont17, %for.end, %if.then
  %2 = landingpad { i8*, i32 }
          cleanup, !dbg !4125
  %3 = extractvalue { i8*, i32 } %2, 0, !dbg !4125
  store i8* %3, i8** %exn.slot, align 8, !dbg !4125
  %4 = extractvalue { i8*, i32 } %2, 1, !dbg !4125
  store i32 %4, i32* %ehselector.slot, align 4, !dbg !4125
  br label %ehcleanup28, !dbg !4125

lpad11:                                           ; preds = %invoke.cont
  %5 = landingpad { i8*, i32 }
          cleanup, !dbg !4125
  %6 = extractvalue { i8*, i32 } %5, 0, !dbg !4125
  store i8* %6, i8** %exn.slot, align 8, !dbg !4125
  %7 = extractvalue { i8*, i32 } %5, 1, !dbg !4125
  store i32 %7, i32* %ehselector.slot, align 4, !dbg !4125
  br label %ehcleanup, !dbg !4125

lpad13:                                           ; preds = %invoke.cont12
  %8 = landingpad { i8*, i32 }
          cleanup, !dbg !4125
  %9 = extractvalue { i8*, i32 } %8, 0, !dbg !4125
  store i8* %9, i8** %exn.slot, align 8, !dbg !4125
  %10 = extractvalue { i8*, i32 } %8, 1, !dbg !4125
  store i32 %10, i32* %ehselector.slot, align 4, !dbg !4125
  call void @_ZN9libparest10MessageLog10ServerBase18ExcNameAlreadyUsedD2Ev(%"class.libparest::MessageLog::ServerBase::ExcNameAlreadyUsed"* %agg.tmp) #4, !dbg !4121
  br label %ehcleanup, !dbg !4121

ehcleanup:                                        ; preds = %lpad13, %lpad11
  call void @_ZNSt7__cxx1112basic_stringIcSt11char_traitsIcESaIcEED1Ev(%"class.std::__cxx11::basic_string"* %agg.tmp10) #4, !dbg !4121
  br label %ehcleanup28, !dbg !4121

if.end:                                           ; preds = %invoke.cont14, %for.body
  br label %for.inc, !dbg !4118

for.inc:                                          ; preds = %if.end
  %call15 = call dereferenceable(8) %"struct.std::_Rb_tree_const_iterator"* @_ZNSt23_Rb_tree_const_iteratorISt4pairIKjNSt7__cxx1112basic_stringIcSt11char_traitsIcESaIcEEEEEppEv(%"struct.std::_Rb_tree_const_iterator"* %i) #4, !dbg !4126
  br label %for.cond, !dbg !4127, !llvm.loop !4128

for.end:                                          ; preds = %for.cond
  call void @llvm.dbg.declare(metadata i32* %id, metadata !4130, metadata !DIExpression()), !dbg !4131
  %next_free_id = getelementptr inbounds %"class.libparest::MessageLog::Server", %"class.libparest::MessageLog::Server"* %this1, i32 0, i32 2, !dbg !4132
  %11 = load i32, i32* %next_free_id, align 8, !dbg !4132
  store i32 %11, i32* %id, align 4, !dbg !4131
  %12 = load %"class.std::__cxx11::basic_string"*, %"class.std::__cxx11::basic_string"** %name.addr, align 8, !dbg !4133
  %id_to_name_map16 = getelementptr inbounds %"class.libparest::MessageLog::Server", %"class.libparest::MessageLog::Server"* %this1, i32 0, i32 1, !dbg !4134
  %call18 = invoke dereferenceable(32) %"class.std::__cxx11::basic_string"* @_ZNSt3mapIjNSt7__cxx1112basic_stringIcSt11char_traitsIcESaIcEEESt4lessIjESaISt4pairIKjS5_EEEixERS9_(%"class.std::map.23"* %id_to_name_map16, i32* dereferenceable(4) %id)
          to label %invoke.cont17 unwind label %lpad, !dbg !4134

invoke.cont17:                                    ; preds = %for.end
  %call20 = invoke dereferenceable(32) %"class.std::__cxx11::basic_string"* @_ZNSt7__cxx1112basic_stringIcSt11char_traitsIcESaIcEEaSERKS4_(%"class.std::__cxx11::basic_string"* %call18, %"class.std::__cxx11::basic_string"* dereferenceable(32) %12)
          to label %invoke.cont19 unwind label %lpad, !dbg !4135

invoke.cont19:                                    ; preds = %invoke.cont17
  %next_free_id21 = getelementptr inbounds %"class.libparest::MessageLog::Server", %"class.libparest::MessageLog::Server"* %this1, i32 0, i32 2, !dbg !4136
  %13 = load i32, i32* %next_free_id21, align 8, !dbg !4137
  %inc = add i32 %13, 1, !dbg !4137
  store i32 %inc, i32* %next_free_id21, align 8, !dbg !4137
  %14 = load %"class.std::__cxx11::basic_string"*, %"class.std::__cxx11::basic_string"** %name.addr, align 8, !dbg !4138
  %call22 = call i64 @_ZNKSt7__cxx1112basic_stringIcSt11char_traitsIcESaIcEE4sizeEv(%"class.std::__cxx11::basic_string"* %14) #4, !dbg !4140
  %max_name_length = getelementptr inbounds %"class.libparest::MessageLog::Server", %"class.libparest::MessageLog::Server"* %this1, i32 0, i32 3, !dbg !4141
  %15 = load i32, i32* %max_name_length, align 4, !dbg !4141
  %conv = zext i32 %15 to i64, !dbg !4141
  %cmp = icmp ugt i64 %call22, %conv, !dbg !4142
  br i1 %cmp, label %if.then23, label %if.end27, !dbg !4143

if.then23:                                        ; preds = %invoke.cont19
  %16 = load %"class.std::__cxx11::basic_string"*, %"class.std::__cxx11::basic_string"** %name.addr, align 8, !dbg !4144
  %call24 = call i64 @_ZNKSt7__cxx1112basic_stringIcSt11char_traitsIcESaIcEE4sizeEv(%"class.std::__cxx11::basic_string"* %16) #4, !dbg !4145
  %conv25 = trunc i64 %call24 to i32, !dbg !4144
  %max_name_length26 = getelementptr inbounds %"class.libparest::MessageLog::Server", %"class.libparest::MessageLog::Server"* %this1, i32 0, i32 3, !dbg !4146
  store i32 %conv25, i32* %max_name_length26, align 4, !dbg !4147
  br label %if.end27, !dbg !4146

if.end27:                                         ; preds = %if.then23, %invoke.cont19
  %17 = load i32, i32* %id, align 4, !dbg !4148
  call void @_ZN6dealii7Threads16DummyThreadMutex10ScopedLockD2Ev(%"class.dealii::Threads::DummyThreadMutex::ScopedLock"* %lock) #4, !dbg !4149
  ret i32 %17, !dbg !4149

ehcleanup28:                                      ; preds = %ehcleanup, %lpad
  call void @_ZN6dealii7Threads16DummyThreadMutex10ScopedLockD2Ev(%"class.dealii::Threads::DummyThreadMutex::ScopedLock"* %lock) #4, !dbg !4149
  br label %eh.resume, !dbg !4149

eh.resume:                                        ; preds = %ehcleanup28
  %exn = load i8*, i8** %exn.slot, align 8, !dbg !4149
  %sel = load i32, i32* %ehselector.slot, align 4, !dbg !4149
  %lpad.val = insertvalue { i8*, i32 } undef, i8* %exn, 0, !dbg !4149
  %lpad.val29 = insertvalue { i8*, i32 } %lpad.val, i32 %sel, 1, !dbg !4149
  resume { i8*, i32 } %lpad.val29, !dbg !4149
}

; Function Attrs: noinline nounwind uwtable
define linkonce_odr dso_local %"struct.std::_Rb_tree_node_base"* @_ZNSt3mapIjNSt7__cxx1112basic_stringIcSt11char_traitsIcESaIcEEESt4lessIjESaISt4pairIKjS5_EEE5beginEv(%"class.std::map.23"* %this) #1 comdat align 2 !dbg !4150 {
entry:
  %retval = alloca %"struct.std::_Rb_tree_iterator", align 8
  %this.addr = alloca %"class.std::map.23"*, align 8
  store %"class.std::map.23"* %this, %"class.std::map.23"** %this.addr, align 8
  call void @llvm.dbg.declare(metadata %"class.std::map.23"** %this.addr, metadata !4151, metadata !DIExpression()), !dbg !4152
  %this1 = load %"class.std::map.23"*, %"class.std::map.23"** %this.addr, align 8
  %_M_t = getelementptr inbounds %"class.std::map.23", %"class.std::map.23"* %this1, i32 0, i32 0, !dbg !4153
  %call = call %"struct.std::_Rb_tree_node_base"* @_ZNSt8_Rb_treeIjSt4pairIKjNSt7__cxx1112basic_stringIcSt11char_traitsIcESaIcEEEESt10_Select1stIS8_ESt4lessIjESaIS8_EE5beginEv(%"class.std::_Rb_tree.24"* %_M_t) #4, !dbg !4154
  %coerce.dive = getelementptr inbounds %"struct.std::_Rb_tree_iterator", %"struct.std::_Rb_tree_iterator"* %retval, i32 0, i32 0, !dbg !4154
  store %"struct.std::_Rb_tree_node_base"* %call, %"struct.std::_Rb_tree_node_base"** %coerce.dive, align 8, !dbg !4154
  %coerce.dive2 = getelementptr inbounds %"struct.std::_Rb_tree_iterator", %"struct.std::_Rb_tree_iterator"* %retval, i32 0, i32 0, !dbg !4155
  %0 = load %"struct.std::_Rb_tree_node_base"*, %"struct.std::_Rb_tree_node_base"** %coerce.dive2, align 8, !dbg !4155
  ret %"struct.std::_Rb_tree_node_base"* %0, !dbg !4155
}

; Function Attrs: noinline nounwind uwtable
define linkonce_odr dso_local void @_ZNSt23_Rb_tree_const_iteratorISt4pairIKjNSt7__cxx1112basic_stringIcSt11char_traitsIcESaIcEEEEEC2ERKSt17_Rb_tree_iteratorIS8_E(%"struct.std::_Rb_tree_const_iterator"* %this, %"struct.std::_Rb_tree_iterator"* dereferenceable(8) %__it) unnamed_addr #1 comdat align 2 !dbg !4156 {
entry:
  %this.addr = alloca %"struct.std::_Rb_tree_const_iterator"*, align 8
  %__it.addr = alloca %"struct.std::_Rb_tree_iterator"*, align 8
  store %"struct.std::_Rb_tree_const_iterator"* %this, %"struct.std::_Rb_tree_const_iterator"** %this.addr, align 8
  call void @llvm.dbg.declare(metadata %"struct.std::_Rb_tree_const_iterator"** %this.addr, metadata !4157, metadata !DIExpression()), !dbg !4159
  store %"struct.std::_Rb_tree_iterator"* %__it, %"struct.std::_Rb_tree_iterator"** %__it.addr, align 8
  call void @llvm.dbg.declare(metadata %"struct.std::_Rb_tree_iterator"** %__it.addr, metadata !4160, metadata !DIExpression()), !dbg !4161
  %this1 = load %"struct.std::_Rb_tree_const_iterator"*, %"struct.std::_Rb_tree_const_iterator"** %this.addr, align 8
  %_M_node = getelementptr inbounds %"struct.std::_Rb_tree_const_iterator", %"struct.std::_Rb_tree_const_iterator"* %this1, i32 0, i32 0, !dbg !4162
  %0 = load %"struct.std::_Rb_tree_iterator"*, %"struct.std::_Rb_tree_iterator"** %__it.addr, align 8, !dbg !4163
  %_M_node2 = getelementptr inbounds %"struct.std::_Rb_tree_iterator", %"struct.std::_Rb_tree_iterator"* %0, i32 0, i32 0, !dbg !4164
  %1 = load %"struct.std::_Rb_tree_node_base"*, %"struct.std::_Rb_tree_node_base"** %_M_node2, align 8, !dbg !4164
  store %"struct.std::_Rb_tree_node_base"* %1, %"struct.std::_Rb_tree_node_base"** %_M_node, align 8, !dbg !4162
  ret void, !dbg !4165
}

; Function Attrs: noinline nounwind uwtable
define linkonce_odr dso_local zeroext i1 @_ZStneRKSt23_Rb_tree_const_iteratorISt4pairIKjNSt7__cxx1112basic_stringIcSt11char_traitsIcESaIcEEEEESB_(%"struct.std::_Rb_tree_const_iterator"* dereferenceable(8) %__x, %"struct.std::_Rb_tree_const_iterator"* dereferenceable(8) %__y) #1 comdat !dbg !4166 {
entry:
  %__x.addr = alloca %"struct.std::_Rb_tree_const_iterator"*, align 8
  %__y.addr = alloca %"struct.std::_Rb_tree_const_iterator"*, align 8
  store %"struct.std::_Rb_tree_const_iterator"* %__x, %"struct.std::_Rb_tree_const_iterator"** %__x.addr, align 8
  call void @llvm.dbg.declare(metadata %"struct.std::_Rb_tree_const_iterator"** %__x.addr, metadata !4171, metadata !DIExpression()), !dbg !4172
  store %"struct.std::_Rb_tree_const_iterator"* %__y, %"struct.std::_Rb_tree_const_iterator"** %__y.addr, align 8
  call void @llvm.dbg.declare(metadata %"struct.std::_Rb_tree_const_iterator"** %__y.addr, metadata !4173, metadata !DIExpression()), !dbg !4174
  %0 = load %"struct.std::_Rb_tree_const_iterator"*, %"struct.std::_Rb_tree_const_iterator"** %__x.addr, align 8, !dbg !4175
  %_M_node = getelementptr inbounds %"struct.std::_Rb_tree_const_iterator", %"struct.std::_Rb_tree_const_iterator"* %0, i32 0, i32 0, !dbg !4176
  %1 = load %"struct.std::_Rb_tree_node_base"*, %"struct.std::_Rb_tree_node_base"** %_M_node, align 8, !dbg !4176
  %2 = load %"struct.std::_Rb_tree_const_iterator"*, %"struct.std::_Rb_tree_const_iterator"** %__y.addr, align 8, !dbg !4177
  %_M_node1 = getelementptr inbounds %"struct.std::_Rb_tree_const_iterator", %"struct.std::_Rb_tree_const_iterator"* %2, i32 0, i32 0, !dbg !4178
  %3 = load %"struct.std::_Rb_tree_node_base"*, %"struct.std::_Rb_tree_node_base"** %_M_node1, align 8, !dbg !4178
  %cmp = icmp ne %"struct.std::_Rb_tree_node_base"* %1, %3, !dbg !4179
  ret i1 %cmp, !dbg !4180
}

; Function Attrs: noinline nounwind uwtable
define linkonce_odr dso_local %"struct.std::_Rb_tree_node_base"* @_ZNSt3mapIjNSt7__cxx1112basic_stringIcSt11char_traitsIcESaIcEEESt4lessIjESaISt4pairIKjS5_EEE3endEv(%"class.std::map.23"* %this) #1 comdat align 2 !dbg !4181 {
entry:
  %retval = alloca %"struct.std::_Rb_tree_iterator", align 8
  %this.addr = alloca %"class.std::map.23"*, align 8
  store %"class.std::map.23"* %this, %"class.std::map.23"** %this.addr, align 8
  call void @llvm.dbg.declare(metadata %"class.std::map.23"** %this.addr, metadata !4182, metadata !DIExpression()), !dbg !4183
  %this1 = load %"class.std::map.23"*, %"class.std::map.23"** %this.addr, align 8
  %_M_t = getelementptr inbounds %"class.std::map.23", %"class.std::map.23"* %this1, i32 0, i32 0, !dbg !4184
  %call = call %"struct.std::_Rb_tree_node_base"* @_ZNSt8_Rb_treeIjSt4pairIKjNSt7__cxx1112basic_stringIcSt11char_traitsIcESaIcEEEESt10_Select1stIS8_ESt4lessIjESaIS8_EE3endEv(%"class.std::_Rb_tree.24"* %_M_t) #4, !dbg !4185
  %coerce.dive = getelementptr inbounds %"struct.std::_Rb_tree_iterator", %"struct.std::_Rb_tree_iterator"* %retval, i32 0, i32 0, !dbg !4185
  store %"struct.std::_Rb_tree_node_base"* %call, %"struct.std::_Rb_tree_node_base"** %coerce.dive, align 8, !dbg !4185
  %coerce.dive2 = getelementptr inbounds %"struct.std::_Rb_tree_iterator", %"struct.std::_Rb_tree_iterator"* %retval, i32 0, i32 0, !dbg !4186
  %0 = load %"struct.std::_Rb_tree_node_base"*, %"struct.std::_Rb_tree_node_base"** %coerce.dive2, align 8, !dbg !4186
  ret %"struct.std::_Rb_tree_node_base"* %0, !dbg !4186
}

; Function Attrs: noinline nounwind uwtable
define linkonce_odr dso_local zeroext i1 @_ZSteqIcEN9__gnu_cxx11__enable_ifIXsr9__is_charIT_EE7__valueEbE6__typeERKNSt7__cxx1112basic_stringIS2_St11char_traitsIS2_ESaIS2_EEESC_(%"class.std::__cxx11::basic_string"* dereferenceable(32) %__lhs, %"class.std::__cxx11::basic_string"* dereferenceable(32) %__rhs) #1 comdat personality i8* bitcast (i32 (...)* @__gxx_personality_v0 to i8*) !dbg !4187 {
entry:
  %__lhs.addr = alloca %"class.std::__cxx11::basic_string"*, align 8
  %__rhs.addr = alloca %"class.std::__cxx11::basic_string"*, align 8
  store %"class.std::__cxx11::basic_string"* %__lhs, %"class.std::__cxx11::basic_string"** %__lhs.addr, align 8
  call void @llvm.dbg.declare(metadata %"class.std::__cxx11::basic_string"** %__lhs.addr, metadata !4195, metadata !DIExpression()), !dbg !4196
  store %"class.std::__cxx11::basic_string"* %__rhs, %"class.std::__cxx11::basic_string"** %__rhs.addr, align 8
  call void @llvm.dbg.declare(metadata %"class.std::__cxx11::basic_string"** %__rhs.addr, metadata !4197, metadata !DIExpression()), !dbg !4198
  %0 = load %"class.std::__cxx11::basic_string"*, %"class.std::__cxx11::basic_string"** %__lhs.addr, align 8, !dbg !4199
  %call = call i64 @_ZNKSt7__cxx1112basic_stringIcSt11char_traitsIcESaIcEE4sizeEv(%"class.std::__cxx11::basic_string"* %0) #4, !dbg !4200
  %1 = load %"class.std::__cxx11::basic_string"*, %"class.std::__cxx11::basic_string"** %__rhs.addr, align 8, !dbg !4201
  %call1 = call i64 @_ZNKSt7__cxx1112basic_stringIcSt11char_traitsIcESaIcEE4sizeEv(%"class.std::__cxx11::basic_string"* %1) #4, !dbg !4202
  %cmp = icmp eq i64 %call, %call1, !dbg !4203
  br i1 %cmp, label %land.rhs, label %land.end, !dbg !4204

land.rhs:                                         ; preds = %entry
  %2 = load %"class.std::__cxx11::basic_string"*, %"class.std::__cxx11::basic_string"** %__lhs.addr, align 8, !dbg !4205
  %call2 = call i8* @_ZNKSt7__cxx1112basic_stringIcSt11char_traitsIcESaIcEE4dataEv(%"class.std::__cxx11::basic_string"* %2) #4, !dbg !4206
  %3 = load %"class.std::__cxx11::basic_string"*, %"class.std::__cxx11::basic_string"** %__rhs.addr, align 8, !dbg !4207
  %call3 = call i8* @_ZNKSt7__cxx1112basic_stringIcSt11char_traitsIcESaIcEE4dataEv(%"class.std::__cxx11::basic_string"* %3) #4, !dbg !4208
  %4 = load %"class.std::__cxx11::basic_string"*, %"class.std::__cxx11::basic_string"** %__lhs.addr, align 8, !dbg !4209
  %call4 = call i64 @_ZNKSt7__cxx1112basic_stringIcSt11char_traitsIcESaIcEE4sizeEv(%"class.std::__cxx11::basic_string"* %4) #4, !dbg !4210
  %call5 = invoke i32 @_ZNSt11char_traitsIcE7compareEPKcS2_m(i8* %call2, i8* %call3, i64 %call4)
          to label %invoke.cont unwind label %terminate.lpad, !dbg !4211

invoke.cont:                                      ; preds = %land.rhs
  %tobool = icmp ne i32 %call5, 0, !dbg !4211
  %lnot = xor i1 %tobool, true, !dbg !4212
  br label %land.end

land.end:                                         ; preds = %invoke.cont, %entry
  %5 = phi i1 [ false, %entry ], [ %lnot, %invoke.cont ], !dbg !4213
  ret i1 %5, !dbg !4214

terminate.lpad:                                   ; preds = %land.rhs
  %6 = landingpad { i8*, i32 }
          catch i8* null, !dbg !4211
  %7 = extractvalue { i8*, i32 } %6, 0, !dbg !4211
  call void @__clang_call_terminate(i8* %7) #13, !dbg !4211
  unreachable, !dbg !4211
}

; Function Attrs: noinline nounwind uwtable
define linkonce_odr dso_local %"struct.std::pair"* @_ZNKSt23_Rb_tree_const_iteratorISt4pairIKjNSt7__cxx1112basic_stringIcSt11char_traitsIcESaIcEEEEEptEv(%"struct.std::_Rb_tree_const_iterator"* %this) #1 comdat align 2 personality i8* bitcast (i32 (...)* @__gxx_personality_v0 to i8*) !dbg !4215 {
entry:
  %this.addr = alloca %"struct.std::_Rb_tree_const_iterator"*, align 8
  store %"struct.std::_Rb_tree_const_iterator"* %this, %"struct.std::_Rb_tree_const_iterator"** %this.addr, align 8
  call void @llvm.dbg.declare(metadata %"struct.std::_Rb_tree_const_iterator"** %this.addr, metadata !4216, metadata !DIExpression()), !dbg !4218
  %this1 = load %"struct.std::_Rb_tree_const_iterator"*, %"struct.std::_Rb_tree_const_iterator"** %this.addr, align 8
  %_M_node = getelementptr inbounds %"struct.std::_Rb_tree_const_iterator", %"struct.std::_Rb_tree_const_iterator"* %this1, i32 0, i32 0, !dbg !4219
  %0 = load %"struct.std::_Rb_tree_node_base"*, %"struct.std::_Rb_tree_node_base"** %_M_node, align 8, !dbg !4219
  %1 = bitcast %"struct.std::_Rb_tree_node_base"* %0 to %"struct.std::_Rb_tree_node"*, !dbg !4220
  %call = invoke %"struct.std::pair"* @_ZNKSt13_Rb_tree_nodeISt4pairIKjNSt7__cxx1112basic_stringIcSt11char_traitsIcESaIcEEEEE9_M_valptrEv(%"struct.std::_Rb_tree_node"* %1)
          to label %invoke.cont unwind label %terminate.lpad, !dbg !4221

invoke.cont:                                      ; preds = %entry
  ret %"struct.std::pair"* %call, !dbg !4222

terminate.lpad:                                   ; preds = %entry
  %2 = landingpad { i8*, i32 }
          catch i8* null, !dbg !4221
  %3 = extractvalue { i8*, i32 } %2, 0, !dbg !4221
  call void @__clang_call_terminate(i8* %3) #13, !dbg !4221
  unreachable, !dbg !4221
}

; Function Attrs: noinline uwtable
define linkonce_odr dso_local void @_ZN6dealii18deal_II_exceptions9internals17issue_error_throwIN9libparest10MessageLog10ServerBase18ExcNameAlreadyUsedEEEvPKciS8_S8_S8_T_(i8* %file, i32 %line, i8* %function, i8* %cond, i8* %exc_name, %"class.libparest::MessageLog::ServerBase::ExcNameAlreadyUsed"* %e) #0 comdat personality i8* bitcast (i32 (...)* @__gxx_personality_v0 to i8*) !dbg !4223 {
entry:
  %file.addr = alloca i8*, align 8
  %line.addr = alloca i32, align 4
  %function.addr = alloca i8*, align 8
  %cond.addr = alloca i8*, align 8
  %exc_name.addr = alloca i8*, align 8
  %exn.slot = alloca i8*
  %ehselector.slot = alloca i32
  store i8* %file, i8** %file.addr, align 8
  call void @llvm.dbg.declare(metadata i8** %file.addr, metadata !4228, metadata !DIExpression()), !dbg !4229
  store i32 %line, i32* %line.addr, align 4
  call void @llvm.dbg.declare(metadata i32* %line.addr, metadata !4230, metadata !DIExpression()), !dbg !4231
  store i8* %function, i8** %function.addr, align 8
  call void @llvm.dbg.declare(metadata i8** %function.addr, metadata !4232, metadata !DIExpression()), !dbg !4233
  store i8* %cond, i8** %cond.addr, align 8
  call void @llvm.dbg.declare(metadata i8** %cond.addr, metadata !4234, metadata !DIExpression()), !dbg !4235
  store i8* %exc_name, i8** %exc_name.addr, align 8
  call void @llvm.dbg.declare(metadata i8** %exc_name.addr, metadata !4236, metadata !DIExpression()), !dbg !4237
  call void @llvm.dbg.declare(metadata %"class.libparest::MessageLog::ServerBase::ExcNameAlreadyUsed"* %e, metadata !4238, metadata !DIExpression()), !dbg !4239
  %0 = bitcast %"class.libparest::MessageLog::ServerBase::ExcNameAlreadyUsed"* %e to %"class.dealii::ExceptionBase"*, !dbg !4240
  %1 = load i8*, i8** %file.addr, align 8, !dbg !4241
  %2 = load i32, i32* %line.addr, align 4, !dbg !4242
  %3 = load i8*, i8** %function.addr, align 8, !dbg !4243
  %4 = load i8*, i8** %cond.addr, align 8, !dbg !4244
  %5 = load i8*, i8** %exc_name.addr, align 8, !dbg !4245
  call void @_ZN6dealii13ExceptionBase10set_fieldsEPKciS2_S2_S2_(%"class.dealii::ExceptionBase"* %0, i8* %1, i32 %2, i8* %3, i8* %4, i8* %5), !dbg !4246
  %exception = call i8* @__cxa_allocate_exception(i64 96) #4, !dbg !4247
  %6 = bitcast i8* %exception to %"class.libparest::MessageLog::ServerBase::ExcNameAlreadyUsed"*, !dbg !4247
  invoke void @_ZN9libparest10MessageLog10ServerBase18ExcNameAlreadyUsedC2ERKS2_(%"class.libparest::MessageLog::ServerBase::ExcNameAlreadyUsed"* %6, %"class.libparest::MessageLog::ServerBase::ExcNameAlreadyUsed"* dereferenceable(96) %e)
          to label %invoke.cont unwind label %lpad, !dbg !4248

invoke.cont:                                      ; preds = %entry
  call void @__cxa_throw(i8* %exception, i8* bitcast ({ i8*, i8*, i8* }* @_ZTIN9libparest10MessageLog10ServerBase18ExcNameAlreadyUsedE to i8*), i8* bitcast (void (%"class.libparest::MessageLog::ServerBase::ExcNameAlreadyUsed"*)* @_ZN9libparest10MessageLog10ServerBase18ExcNameAlreadyUsedD2Ev to i8*)) #16, !dbg !4247
  unreachable, !dbg !4247

lpad:                                             ; preds = %entry
  %7 = landingpad { i8*, i32 }
          cleanup, !dbg !4249
  %8 = extractvalue { i8*, i32 } %7, 0, !dbg !4249
  store i8* %8, i8** %exn.slot, align 8, !dbg !4249
  %9 = extractvalue { i8*, i32 } %7, 1, !dbg !4249
  store i32 %9, i32* %ehselector.slot, align 4, !dbg !4249
  call void @__cxa_free_exception(i8* %exception) #4, !dbg !4247
  br label %eh.resume, !dbg !4247

eh.resume:                                        ; preds = %lpad
  %exn = load i8*, i8** %exn.slot, align 8, !dbg !4247
  %sel = load i32, i32* %ehselector.slot, align 4, !dbg !4247
  %lpad.val = insertvalue { i8*, i32 } undef, i8* %exn, 0, !dbg !4247
  %lpad.val1 = insertvalue { i8*, i32 } %lpad.val, i32 %sel, 1, !dbg !4247
  resume { i8*, i32 } %lpad.val1, !dbg !4247
}

declare dso_local void @_ZNSt7__cxx1112basic_stringIcSt11char_traitsIcESaIcEEC1ERKS4_(%"class.std::__cxx11::basic_string"*, %"class.std::__cxx11::basic_string"* dereferenceable(32)) unnamed_addr #2

; Function Attrs: noinline uwtable
define linkonce_odr dso_local void @_ZN9libparest10MessageLog10ServerBase18ExcNameAlreadyUsedC2ENSt7__cxx1112basic_stringIcSt11char_traitsIcESaIcEEE(%"class.libparest::MessageLog::ServerBase::ExcNameAlreadyUsed"* %this, %"class.std::__cxx11::basic_string"* %a1) unnamed_addr #0 comdat align 2 personality i8* bitcast (i32 (...)* @__gxx_personality_v0 to i8*) !dbg !4250 {
entry:
  %this.addr = alloca %"class.libparest::MessageLog::ServerBase::ExcNameAlreadyUsed"*, align 8
  %exn.slot = alloca i8*
  %ehselector.slot = alloca i32
  store %"class.libparest::MessageLog::ServerBase::ExcNameAlreadyUsed"* %this, %"class.libparest::MessageLog::ServerBase::ExcNameAlreadyUsed"** %this.addr, align 8
  call void @llvm.dbg.declare(metadata %"class.libparest::MessageLog::ServerBase::ExcNameAlreadyUsed"** %this.addr, metadata !4251, metadata !DIExpression()), !dbg !4253
  call void @llvm.dbg.declare(metadata %"class.std::__cxx11::basic_string"* %a1, metadata !4254, metadata !DIExpression()), !dbg !4255
  %this1 = load %"class.libparest::MessageLog::ServerBase::ExcNameAlreadyUsed"*, %"class.libparest::MessageLog::ServerBase::ExcNameAlreadyUsed"** %this.addr, align 8
  %0 = bitcast %"class.libparest::MessageLog::ServerBase::ExcNameAlreadyUsed"* %this1 to %"class.dealii::ExceptionBase"*, !dbg !4255
  call void @_ZN6dealii13ExceptionBaseC2Ev(%"class.dealii::ExceptionBase"* %0), !dbg !4255
  %1 = bitcast %"class.libparest::MessageLog::ServerBase::ExcNameAlreadyUsed"* %this1 to i32 (...)***, !dbg !4255
  store i32 (...)** bitcast (i8** getelementptr inbounds ({ [6 x i8*] }, { [6 x i8*] }* @_ZTVN9libparest10MessageLog10ServerBase18ExcNameAlreadyUsedE, i32 0, inrange i32 0, i32 2) to i32 (...)**), i32 (...)*** %1, align 8, !dbg !4255
  %arg1 = getelementptr inbounds %"class.libparest::MessageLog::ServerBase::ExcNameAlreadyUsed", %"class.libparest::MessageLog::ServerBase::ExcNameAlreadyUsed"* %this1, i32 0, i32 1, !dbg !4255
  invoke void @_ZNSt7__cxx1112basic_stringIcSt11char_traitsIcESaIcEEC1ERKS4_(%"class.std::__cxx11::basic_string"* %arg1, %"class.std::__cxx11::basic_string"* dereferenceable(32) %a1)
          to label %invoke.cont unwind label %lpad, !dbg !4255

invoke.cont:                                      ; preds = %entry
  ret void, !dbg !4255

lpad:                                             ; preds = %entry
  %2 = landingpad { i8*, i32 }
          cleanup, !dbg !4255
  %3 = extractvalue { i8*, i32 } %2, 0, !dbg !4255
  store i8* %3, i8** %exn.slot, align 8, !dbg !4255
  %4 = extractvalue { i8*, i32 } %2, 1, !dbg !4255
  store i32 %4, i32* %ehselector.slot, align 4, !dbg !4255
  %5 = bitcast %"class.libparest::MessageLog::ServerBase::ExcNameAlreadyUsed"* %this1 to %"class.dealii::ExceptionBase"*, !dbg !4256
  call void @_ZN6dealii13ExceptionBaseD2Ev(%"class.dealii::ExceptionBase"* %5) #4, !dbg !4256
  br label %eh.resume, !dbg !4256

eh.resume:                                        ; preds = %lpad
  %exn = load i8*, i8** %exn.slot, align 8, !dbg !4256
  %sel = load i32, i32* %ehselector.slot, align 4, !dbg !4256
  %lpad.val = insertvalue { i8*, i32 } undef, i8* %exn, 0, !dbg !4256
  %lpad.val2 = insertvalue { i8*, i32 } %lpad.val, i32 %sel, 1, !dbg !4256
  resume { i8*, i32 } %lpad.val2, !dbg !4256
}

; Function Attrs: noinline nounwind uwtable
define linkonce_odr dso_local void @_ZN9libparest10MessageLog10ServerBase18ExcNameAlreadyUsedD2Ev(%"class.libparest::MessageLog::ServerBase::ExcNameAlreadyUsed"* %this) unnamed_addr #1 comdat align 2 !dbg !4258 {
entry:
  %this.addr = alloca %"class.libparest::MessageLog::ServerBase::ExcNameAlreadyUsed"*, align 8
  store %"class.libparest::MessageLog::ServerBase::ExcNameAlreadyUsed"* %this, %"class.libparest::MessageLog::ServerBase::ExcNameAlreadyUsed"** %this.addr, align 8
  call void @llvm.dbg.declare(metadata %"class.libparest::MessageLog::ServerBase::ExcNameAlreadyUsed"** %this.addr, metadata !4259, metadata !DIExpression()), !dbg !4260
  %this1 = load %"class.libparest::MessageLog::ServerBase::ExcNameAlreadyUsed"*, %"class.libparest::MessageLog::ServerBase::ExcNameAlreadyUsed"** %this.addr, align 8
  %0 = bitcast %"class.libparest::MessageLog::ServerBase::ExcNameAlreadyUsed"* %this1 to i32 (...)***, !dbg !4261
  store i32 (...)** bitcast (i8** getelementptr inbounds ({ [6 x i8*] }, { [6 x i8*] }* @_ZTVN9libparest10MessageLog10ServerBase18ExcNameAlreadyUsedE, i32 0, inrange i32 0, i32 2) to i32 (...)**), i32 (...)*** %0, align 8, !dbg !4261
  %arg1 = getelementptr inbounds %"class.libparest::MessageLog::ServerBase::ExcNameAlreadyUsed", %"class.libparest::MessageLog::ServerBase::ExcNameAlreadyUsed"* %this1, i32 0, i32 1, !dbg !4262
  call void @_ZNSt7__cxx1112basic_stringIcSt11char_traitsIcESaIcEED1Ev(%"class.std::__cxx11::basic_string"* %arg1) #4, !dbg !4262
  %1 = bitcast %"class.libparest::MessageLog::ServerBase::ExcNameAlreadyUsed"* %this1 to %"class.dealii::ExceptionBase"*, !dbg !4262
  call void @_ZN6dealii13ExceptionBaseD2Ev(%"class.dealii::ExceptionBase"* %1) #4, !dbg !4262
  ret void, !dbg !4261
}

; Function Attrs: noinline nounwind uwtable
define linkonce_odr dso_local dereferenceable(8) %"struct.std::_Rb_tree_const_iterator"* @_ZNSt23_Rb_tree_const_iteratorISt4pairIKjNSt7__cxx1112basic_stringIcSt11char_traitsIcESaIcEEEEEppEv(%"struct.std::_Rb_tree_const_iterator"* %this) #1 comdat align 2 !dbg !4264 {
entry:
  %this.addr = alloca %"struct.std::_Rb_tree_const_iterator"*, align 8
  store %"struct.std::_Rb_tree_const_iterator"* %this, %"struct.std::_Rb_tree_const_iterator"** %this.addr, align 8
  call void @llvm.dbg.declare(metadata %"struct.std::_Rb_tree_const_iterator"** %this.addr, metadata !4265, metadata !DIExpression()), !dbg !4266
  %this1 = load %"struct.std::_Rb_tree_const_iterator"*, %"struct.std::_Rb_tree_const_iterator"** %this.addr, align 8
  %_M_node = getelementptr inbounds %"struct.std::_Rb_tree_const_iterator", %"struct.std::_Rb_tree_const_iterator"* %this1, i32 0, i32 0, !dbg !4267
  %0 = load %"struct.std::_Rb_tree_node_base"*, %"struct.std::_Rb_tree_node_base"** %_M_node, align 8, !dbg !4267
  %call = call %"struct.std::_Rb_tree_node_base"* @_ZSt18_Rb_tree_incrementPKSt18_Rb_tree_node_base(%"struct.std::_Rb_tree_node_base"* %0) #17, !dbg !4268
  %_M_node2 = getelementptr inbounds %"struct.std::_Rb_tree_const_iterator", %"struct.std::_Rb_tree_const_iterator"* %this1, i32 0, i32 0, !dbg !4269
  store %"struct.std::_Rb_tree_node_base"* %call, %"struct.std::_Rb_tree_node_base"** %_M_node2, align 8, !dbg !4270
  ret %"struct.std::_Rb_tree_const_iterator"* %this1, !dbg !4271
}

; Function Attrs: noinline uwtable
define linkonce_odr dso_local dereferenceable(32) %"class.std::__cxx11::basic_string"* @_ZNSt3mapIjNSt7__cxx1112basic_stringIcSt11char_traitsIcESaIcEEESt4lessIjESaISt4pairIKjS5_EEEixERS9_(%"class.std::map.23"* %this, i32* dereferenceable(4) %__k) #0 comdat align 2 !dbg !4272 {
entry:
  %this.addr = alloca %"class.std::map.23"*, align 8
  %__k.addr = alloca i32*, align 8
  %__i = alloca %"struct.std::_Rb_tree_iterator", align 8
  %ref.tmp = alloca %"struct.std::_Rb_tree_iterator", align 8
  %ref.tmp5 = alloca %"struct.std::less.29", align 1
  %undef.agg.tmp = alloca %"struct.std::less.29", align 1
  %ref.tmp8 = alloca %"struct.std::_Rb_tree_iterator", align 8
  %agg.tmp = alloca %"struct.std::_Rb_tree_const_iterator", align 8
  %ref.tmp9 = alloca %"class.std::tuple", align 8
  %ref.tmp10 = alloca %"class.std::tuple.31", align 1
  store %"class.std::map.23"* %this, %"class.std::map.23"** %this.addr, align 8
  call void @llvm.dbg.declare(metadata %"class.std::map.23"** %this.addr, metadata !4273, metadata !DIExpression()), !dbg !4274
  store i32* %__k, i32** %__k.addr, align 8
  call void @llvm.dbg.declare(metadata i32** %__k.addr, metadata !4275, metadata !DIExpression()), !dbg !4276
  %this1 = load %"class.std::map.23"*, %"class.std::map.23"** %this.addr, align 8
  call void @llvm.dbg.declare(metadata %"struct.std::_Rb_tree_iterator"* %__i, metadata !4277, metadata !DIExpression()), !dbg !4278
  %0 = load i32*, i32** %__k.addr, align 8, !dbg !4279
  %call = call %"struct.std::_Rb_tree_node_base"* @_ZNSt3mapIjNSt7__cxx1112basic_stringIcSt11char_traitsIcESaIcEEESt4lessIjESaISt4pairIKjS5_EEE11lower_boundERS9_(%"class.std::map.23"* %this1, i32* dereferenceable(4) %0), !dbg !4280
  %coerce.dive = getelementptr inbounds %"struct.std::_Rb_tree_iterator", %"struct.std::_Rb_tree_iterator"* %__i, i32 0, i32 0, !dbg !4280
  store %"struct.std::_Rb_tree_node_base"* %call, %"struct.std::_Rb_tree_node_base"** %coerce.dive, align 8, !dbg !4280
  %call2 = call %"struct.std::_Rb_tree_node_base"* @_ZNSt3mapIjNSt7__cxx1112basic_stringIcSt11char_traitsIcESaIcEEESt4lessIjESaISt4pairIKjS5_EEE3endEv(%"class.std::map.23"* %this1) #4, !dbg !4281
  %coerce.dive3 = getelementptr inbounds %"struct.std::_Rb_tree_iterator", %"struct.std::_Rb_tree_iterator"* %ref.tmp, i32 0, i32 0, !dbg !4281
  store %"struct.std::_Rb_tree_node_base"* %call2, %"struct.std::_Rb_tree_node_base"** %coerce.dive3, align 8, !dbg !4281
  %call4 = call zeroext i1 @_ZSteqRKSt17_Rb_tree_iteratorISt4pairIKjNSt7__cxx1112basic_stringIcSt11char_traitsIcESaIcEEEEESB_(%"struct.std::_Rb_tree_iterator"* dereferenceable(8) %__i, %"struct.std::_Rb_tree_iterator"* dereferenceable(8) %ref.tmp) #4, !dbg !4283
  br i1 %call4, label %lor.end, label %lor.rhs, !dbg !4284

lor.rhs:                                          ; preds = %entry
  call void @_ZNKSt3mapIjNSt7__cxx1112basic_stringIcSt11char_traitsIcESaIcEEESt4lessIjESaISt4pairIKjS5_EEE8key_compEv(%"class.std::map.23"* %this1), !dbg !4285
  %1 = load i32*, i32** %__k.addr, align 8, !dbg !4286
  %call6 = call dereferenceable(40) %"struct.std::pair"* @_ZNKSt17_Rb_tree_iteratorISt4pairIKjNSt7__cxx1112basic_stringIcSt11char_traitsIcESaIcEEEEEdeEv(%"struct.std::_Rb_tree_iterator"* %__i) #4, !dbg !4287
  %first = getelementptr inbounds %"struct.std::pair", %"struct.std::pair"* %call6, i32 0, i32 0, !dbg !4288
  %call7 = call zeroext i1 @_ZNKSt4lessIjEclERKjS2_(%"struct.std::less.29"* %ref.tmp5, i32* dereferenceable(4) %1, i32* dereferenceable(4) %first), !dbg !4285
  br label %lor.end, !dbg !4284

lor.end:                                          ; preds = %lor.rhs, %entry
  %2 = phi i1 [ true, %entry ], [ %call7, %lor.rhs ]
  br i1 %2, label %if.then, label %if.end, !dbg !4289

if.then:                                          ; preds = %lor.end
  %_M_t = getelementptr inbounds %"class.std::map.23", %"class.std::map.23"* %this1, i32 0, i32 0, !dbg !4290
  call void @_ZNSt23_Rb_tree_const_iteratorISt4pairIKjNSt7__cxx1112basic_stringIcSt11char_traitsIcESaIcEEEEEC2ERKSt17_Rb_tree_iteratorIS8_E(%"struct.std::_Rb_tree_const_iterator"* %agg.tmp, %"struct.std::_Rb_tree_iterator"* dereferenceable(8) %__i) #4, !dbg !4291
  %3 = load i32*, i32** %__k.addr, align 8, !dbg !4292
  call void @_ZNSt5tupleIJRKjEEC2ILb1ELb1EEES1_(%"class.std::tuple"* %ref.tmp9, i32* dereferenceable(4) %3) #4, !dbg !4293
  %coerce.dive11 = getelementptr inbounds %"struct.std::_Rb_tree_const_iterator", %"struct.std::_Rb_tree_const_iterator"* %agg.tmp, i32 0, i32 0, !dbg !4294
  %4 = load %"struct.std::_Rb_tree_node_base"*, %"struct.std::_Rb_tree_node_base"** %coerce.dive11, align 8, !dbg !4294
  %call12 = call %"struct.std::_Rb_tree_node_base"* @_ZNSt8_Rb_treeIjSt4pairIKjNSt7__cxx1112basic_stringIcSt11char_traitsIcESaIcEEEESt10_Select1stIS8_ESt4lessIjESaIS8_EE22_M_emplace_hint_uniqueIJRKSt21piecewise_construct_tSt5tupleIJRS1_EESJ_IJEEEEESt17_Rb_tree_iteratorIS8_ESt23_Rb_tree_const_iteratorIS8_EDpOT_(%"class.std::_Rb_tree.24"* %_M_t, %"struct.std::_Rb_tree_node_base"* %4, %"struct.std::piecewise_construct_t"* dereferenceable(1) @_ZStL19piecewise_construct, %"class.std::tuple"* dereferenceable(8) %ref.tmp9, %"class.std::tuple.31"* dereferenceable(1) %ref.tmp10), !dbg !4294
  %coerce.dive13 = getelementptr inbounds %"struct.std::_Rb_tree_iterator", %"struct.std::_Rb_tree_iterator"* %ref.tmp8, i32 0, i32 0, !dbg !4294
  store %"struct.std::_Rb_tree_node_base"* %call12, %"struct.std::_Rb_tree_node_base"** %coerce.dive13, align 8, !dbg !4294
  %5 = bitcast %"struct.std::_Rb_tree_iterator"* %__i to i8*, !dbg !4295
  %6 = bitcast %"struct.std::_Rb_tree_iterator"* %ref.tmp8 to i8*, !dbg !4295
  call void @llvm.memcpy.p0i8.p0i8.i64(i8* align 8 %5, i8* align 8 %6, i64 8, i1 false), !dbg !4295
  br label %if.end, !dbg !4296

if.end:                                           ; preds = %if.then, %lor.end
  %call14 = call dereferenceable(40) %"struct.std::pair"* @_ZNKSt17_Rb_tree_iteratorISt4pairIKjNSt7__cxx1112basic_stringIcSt11char_traitsIcESaIcEEEEEdeEv(%"struct.std::_Rb_tree_iterator"* %__i) #4, !dbg !4297
  %second = getelementptr inbounds %"struct.std::pair", %"struct.std::pair"* %call14, i32 0, i32 1, !dbg !4298
  ret %"class.std::__cxx11::basic_string"* %second, !dbg !4299
}

declare dso_local dereferenceable(32) %"class.std::__cxx11::basic_string"* @_ZNSt7__cxx1112basic_stringIcSt11char_traitsIcESaIcEEaSERKS4_(%"class.std::__cxx11::basic_string"*, %"class.std::__cxx11::basic_string"* dereferenceable(32)) #2

; Function Attrs: nounwind
declare dso_local i64 @_ZNKSt7__cxx1112basic_stringIcSt11char_traitsIcESaIcEE4sizeEv(%"class.std::__cxx11::basic_string"*) #3

; Function Attrs: noinline uwtable
define dso_local void @_ZN9libparest10MessageLog6Server17deregister_clientEj(%"class.libparest::MessageLog::Server"* %this, i32 %id) unnamed_addr #0 align 2 personality i8* bitcast (i32 (...)* @__gxx_personality_v0 to i8*) !dbg !4300 {
entry:
  %this.addr = alloca %"class.libparest::MessageLog::Server"*, align 8
  %id.addr = alloca i32, align 4
  %lock = alloca %"class.dealii::Threads::DummyThreadMutex::ScopedLock", align 1
  %ref.tmp = alloca %"struct.std::_Rb_tree_iterator", align 8
  %exn.slot = alloca i8*
  %ehselector.slot = alloca i32
  %ref.tmp2 = alloca %"struct.std::_Rb_tree_iterator", align 8
  %agg.tmp = alloca %"class.libparest::MessageLog::ServerBase::ExcIDNotRegistered", align 8
  %agg.tmp11 = alloca %"struct.std::_Rb_tree_iterator", align 8
  %coerce = alloca %"struct.std::_Rb_tree_iterator", align 8
  store %"class.libparest::MessageLog::Server"* %this, %"class.libparest::MessageLog::Server"** %this.addr, align 8
  call void @llvm.dbg.declare(metadata %"class.libparest::MessageLog::Server"** %this.addr, metadata !4301, metadata !DIExpression()), !dbg !4302
  store i32 %id, i32* %id.addr, align 4
  call void @llvm.dbg.declare(metadata i32* %id.addr, metadata !4303, metadata !DIExpression()), !dbg !4304
  %this1 = load %"class.libparest::MessageLog::Server"*, %"class.libparest::MessageLog::Server"** %this.addr, align 8
  call void @llvm.dbg.declare(metadata %"class.dealii::Threads::DummyThreadMutex::ScopedLock"* %lock, metadata !4305, metadata !DIExpression()), !dbg !4306
  %id_lock = getelementptr inbounds %"class.libparest::MessageLog::Server", %"class.libparest::MessageLog::Server"* %this1, i32 0, i32 4, !dbg !4307
  call void @_ZN6dealii7Threads16DummyThreadMutex10ScopedLockC2ERS1_(%"class.dealii::Threads::DummyThreadMutex::ScopedLock"* %lock, %"class.dealii::Threads::DummyThreadMutex"* dereferenceable(1) %id_lock), !dbg !4306
  %id_to_name_map = getelementptr inbounds %"class.libparest::MessageLog::Server", %"class.libparest::MessageLog::Server"* %this1, i32 0, i32 1, !dbg !4308
  %call = invoke %"struct.std::_Rb_tree_node_base"* @_ZNSt3mapIjNSt7__cxx1112basic_stringIcSt11char_traitsIcESaIcEEESt4lessIjESaISt4pairIKjS5_EEE4findERS9_(%"class.std::map.23"* %id_to_name_map, i32* dereferenceable(4) %id.addr)
          to label %invoke.cont unwind label %lpad, !dbg !4310

invoke.cont:                                      ; preds = %entry
  %coerce.dive = getelementptr inbounds %"struct.std::_Rb_tree_iterator", %"struct.std::_Rb_tree_iterator"* %ref.tmp, i32 0, i32 0, !dbg !4310
  store %"struct.std::_Rb_tree_node_base"* %call, %"struct.std::_Rb_tree_node_base"** %coerce.dive, align 8, !dbg !4310
  %id_to_name_map3 = getelementptr inbounds %"class.libparest::MessageLog::Server", %"class.libparest::MessageLog::Server"* %this1, i32 0, i32 1, !dbg !4311
  %call4 = call %"struct.std::_Rb_tree_node_base"* @_ZNSt3mapIjNSt7__cxx1112basic_stringIcSt11char_traitsIcESaIcEEESt4lessIjESaISt4pairIKjS5_EEE3endEv(%"class.std::map.23"* %id_to_name_map3) #4, !dbg !4312
  %coerce.dive5 = getelementptr inbounds %"struct.std::_Rb_tree_iterator", %"struct.std::_Rb_tree_iterator"* %ref.tmp2, i32 0, i32 0, !dbg !4312
  store %"struct.std::_Rb_tree_node_base"* %call4, %"struct.std::_Rb_tree_node_base"** %coerce.dive5, align 8, !dbg !4312
  %call6 = call zeroext i1 @_ZSteqRKSt17_Rb_tree_iteratorISt4pairIKjNSt7__cxx1112basic_stringIcSt11char_traitsIcESaIcEEEEESB_(%"struct.std::_Rb_tree_iterator"* dereferenceable(8) %ref.tmp, %"struct.std::_Rb_tree_iterator"* dereferenceable(8) %ref.tmp2) #4, !dbg !4313
  br i1 %call6, label %if.then, label %if.end, !dbg !4314

if.then:                                          ; preds = %invoke.cont
  %0 = load i32, i32* %id.addr, align 4, !dbg !4315
  invoke void @_ZN9libparest10MessageLog10ServerBase18ExcIDNotRegisteredC2Ej(%"class.libparest::MessageLog::ServerBase::ExcIDNotRegistered"* %agg.tmp, i32 %0)
          to label %invoke.cont7 unwind label %lpad, !dbg !4315

invoke.cont7:                                     ; preds = %if.then
  invoke void @_ZN6dealii18deal_II_exceptions9internals17issue_error_throwIN9libparest10MessageLog10ServerBase18ExcIDNotRegisteredEEEvPKciS8_S8_S8_T_(i8* getelementptr inbounds ([32 x i8], [32 x i8]* @.str.13, i64 0, i64 0), i32 209, i8* getelementptr inbounds ([1 x i8], [1 x i8]* @.str.14, i64 0, i64 0), i8* getelementptr inbounds ([6 x i8], [6 x i8]* @.str.18, i64 0, i64 0), i8* getelementptr inbounds ([24 x i8], [24 x i8]* @.str.20, i64 0, i64 0), %"class.libparest::MessageLog::ServerBase::ExcIDNotRegistered"* %agg.tmp)
          to label %invoke.cont9 unwind label %lpad8, !dbg !4315

invoke.cont9:                                     ; preds = %invoke.cont7
  call void @_ZN9libparest10MessageLog10ServerBase18ExcIDNotRegisteredD2Ev(%"class.libparest::MessageLog::ServerBase::ExcIDNotRegistered"* %agg.tmp) #4, !dbg !4315
  br label %if.end, !dbg !4318

lpad:                                             ; preds = %invoke.cont13, %if.end, %if.then, %entry
  %1 = landingpad { i8*, i32 }
          cleanup, !dbg !4319
  %2 = extractvalue { i8*, i32 } %1, 0, !dbg !4319
  store i8* %2, i8** %exn.slot, align 8, !dbg !4319
  %3 = extractvalue { i8*, i32 } %1, 1, !dbg !4319
  store i32 %3, i32* %ehselector.slot, align 4, !dbg !4319
  br label %ehcleanup, !dbg !4319

lpad8:                                            ; preds = %invoke.cont7
  %4 = landingpad { i8*, i32 }
          cleanup, !dbg !4320
  %5 = extractvalue { i8*, i32 } %4, 0, !dbg !4320
  store i8* %5, i8** %exn.slot, align 8, !dbg !4320
  %6 = extractvalue { i8*, i32 } %4, 1, !dbg !4320
  store i32 %6, i32* %ehselector.slot, align 4, !dbg !4320
  call void @_ZN9libparest10MessageLog10ServerBase18ExcIDNotRegisteredD2Ev(%"class.libparest::MessageLog::ServerBase::ExcIDNotRegistered"* %agg.tmp) #4, !dbg !4315
  br label %ehcleanup, !dbg !4315

if.end:                                           ; preds = %invoke.cont9, %invoke.cont
  %id_to_name_map10 = getelementptr inbounds %"class.libparest::MessageLog::Server", %"class.libparest::MessageLog::Server"* %this1, i32 0, i32 1, !dbg !4321
  %id_to_name_map12 = getelementptr inbounds %"class.libparest::MessageLog::Server", %"class.libparest::MessageLog::Server"* %this1, i32 0, i32 1, !dbg !4322
  %call14 = invoke %"struct.std::_Rb_tree_node_base"* @_ZNSt3mapIjNSt7__cxx1112basic_stringIcSt11char_traitsIcESaIcEEESt4lessIjESaISt4pairIKjS5_EEE4findERS9_(%"class.std::map.23"* %id_to_name_map12, i32* dereferenceable(4) %id.addr)
          to label %invoke.cont13 unwind label %lpad, !dbg !4323

invoke.cont13:                                    ; preds = %if.end
  %coerce.dive15 = getelementptr inbounds %"struct.std::_Rb_tree_iterator", %"struct.std::_Rb_tree_iterator"* %agg.tmp11, i32 0, i32 0, !dbg !4323
  store %"struct.std::_Rb_tree_node_base"* %call14, %"struct.std::_Rb_tree_node_base"** %coerce.dive15, align 8, !dbg !4323
  %coerce.dive16 = getelementptr inbounds %"struct.std::_Rb_tree_iterator", %"struct.std::_Rb_tree_iterator"* %agg.tmp11, i32 0, i32 0, !dbg !4324
  %7 = load %"struct.std::_Rb_tree_node_base"*, %"struct.std::_Rb_tree_node_base"** %coerce.dive16, align 8, !dbg !4324
  %call18 = invoke %"struct.std::_Rb_tree_node_base"* @_ZNSt3mapIjNSt7__cxx1112basic_stringIcSt11char_traitsIcESaIcEEESt4lessIjESaISt4pairIKjS5_EEE5eraseB5cxx11ESt17_Rb_tree_iteratorISA_E(%"class.std::map.23"* %id_to_name_map10, %"struct.std::_Rb_tree_node_base"* %7)
          to label %invoke.cont17 unwind label %lpad, !dbg !4324

invoke.cont17:                                    ; preds = %invoke.cont13
  %coerce.dive19 = getelementptr inbounds %"struct.std::_Rb_tree_iterator", %"struct.std::_Rb_tree_iterator"* %coerce, i32 0, i32 0, !dbg !4324
  store %"struct.std::_Rb_tree_node_base"* %call18, %"struct.std::_Rb_tree_node_base"** %coerce.dive19, align 8, !dbg !4324
  call void @_ZN6dealii7Threads16DummyThreadMutex10ScopedLockD2Ev(%"class.dealii::Threads::DummyThreadMutex::ScopedLock"* %lock) #4, !dbg !4325
  ret void, !dbg !4325

ehcleanup:                                        ; preds = %lpad8, %lpad
  call void @_ZN6dealii7Threads16DummyThreadMutex10ScopedLockD2Ev(%"class.dealii::Threads::DummyThreadMutex::ScopedLock"* %lock) #4, !dbg !4325
  br label %eh.resume, !dbg !4325

eh.resume:                                        ; preds = %ehcleanup
  %exn = load i8*, i8** %exn.slot, align 8, !dbg !4325
  %sel = load i32, i32* %ehselector.slot, align 4, !dbg !4325
  %lpad.val = insertvalue { i8*, i32 } undef, i8* %exn, 0, !dbg !4325
  %lpad.val20 = insertvalue { i8*, i32 } %lpad.val, i32 %sel, 1, !dbg !4325
  resume { i8*, i32 } %lpad.val20, !dbg !4325
}

; Function Attrs: noinline nounwind uwtable
define linkonce_odr dso_local zeroext i1 @_ZSteqRKSt17_Rb_tree_iteratorISt4pairIKjNSt7__cxx1112basic_stringIcSt11char_traitsIcESaIcEEEEESB_(%"struct.std::_Rb_tree_iterator"* dereferenceable(8) %__x, %"struct.std::_Rb_tree_iterator"* dereferenceable(8) %__y) #1 comdat !dbg !4326 {
entry:
  %__x.addr = alloca %"struct.std::_Rb_tree_iterator"*, align 8
  %__y.addr = alloca %"struct.std::_Rb_tree_iterator"*, align 8
  store %"struct.std::_Rb_tree_iterator"* %__x, %"struct.std::_Rb_tree_iterator"** %__x.addr, align 8
  call void @llvm.dbg.declare(metadata %"struct.std::_Rb_tree_iterator"** %__x.addr, metadata !4331, metadata !DIExpression()), !dbg !4332
  store %"struct.std::_Rb_tree_iterator"* %__y, %"struct.std::_Rb_tree_iterator"** %__y.addr, align 8
  call void @llvm.dbg.declare(metadata %"struct.std::_Rb_tree_iterator"** %__y.addr, metadata !4333, metadata !DIExpression()), !dbg !4334
  %0 = load %"struct.std::_Rb_tree_iterator"*, %"struct.std::_Rb_tree_iterator"** %__x.addr, align 8, !dbg !4335
  %_M_node = getelementptr inbounds %"struct.std::_Rb_tree_iterator", %"struct.std::_Rb_tree_iterator"* %0, i32 0, i32 0, !dbg !4336
  %1 = load %"struct.std::_Rb_tree_node_base"*, %"struct.std::_Rb_tree_node_base"** %_M_node, align 8, !dbg !4336
  %2 = load %"struct.std::_Rb_tree_iterator"*, %"struct.std::_Rb_tree_iterator"** %__y.addr, align 8, !dbg !4337
  %_M_node1 = getelementptr inbounds %"struct.std::_Rb_tree_iterator", %"struct.std::_Rb_tree_iterator"* %2, i32 0, i32 0, !dbg !4338
  %3 = load %"struct.std::_Rb_tree_node_base"*, %"struct.std::_Rb_tree_node_base"** %_M_node1, align 8, !dbg !4338
  %cmp = icmp eq %"struct.std::_Rb_tree_node_base"* %1, %3, !dbg !4339
  ret i1 %cmp, !dbg !4340
}

; Function Attrs: noinline uwtable
define linkonce_odr dso_local %"struct.std::_Rb_tree_node_base"* @_ZNSt3mapIjNSt7__cxx1112basic_stringIcSt11char_traitsIcESaIcEEESt4lessIjESaISt4pairIKjS5_EEE4findERS9_(%"class.std::map.23"* %this, i32* dereferenceable(4) %__x) #0 comdat align 2 !dbg !4341 {
entry:
  %retval = alloca %"struct.std::_Rb_tree_iterator", align 8
  %this.addr = alloca %"class.std::map.23"*, align 8
  %__x.addr = alloca i32*, align 8
  store %"class.std::map.23"* %this, %"class.std::map.23"** %this.addr, align 8
  call void @llvm.dbg.declare(metadata %"class.std::map.23"** %this.addr, metadata !4342, metadata !DIExpression()), !dbg !4343
  store i32* %__x, i32** %__x.addr, align 8
  call void @llvm.dbg.declare(metadata i32** %__x.addr, metadata !4344, metadata !DIExpression()), !dbg !4345
  %this1 = load %"class.std::map.23"*, %"class.std::map.23"** %this.addr, align 8
  %_M_t = getelementptr inbounds %"class.std::map.23", %"class.std::map.23"* %this1, i32 0, i32 0, !dbg !4346
  %0 = load i32*, i32** %__x.addr, align 8, !dbg !4347
  %call = call %"struct.std::_Rb_tree_node_base"* @_ZNSt8_Rb_treeIjSt4pairIKjNSt7__cxx1112basic_stringIcSt11char_traitsIcESaIcEEEESt10_Select1stIS8_ESt4lessIjESaIS8_EE4findERS1_(%"class.std::_Rb_tree.24"* %_M_t, i32* dereferenceable(4) %0), !dbg !4348
  %coerce.dive = getelementptr inbounds %"struct.std::_Rb_tree_iterator", %"struct.std::_Rb_tree_iterator"* %retval, i32 0, i32 0, !dbg !4348
  store %"struct.std::_Rb_tree_node_base"* %call, %"struct.std::_Rb_tree_node_base"** %coerce.dive, align 8, !dbg !4348
  %coerce.dive2 = getelementptr inbounds %"struct.std::_Rb_tree_iterator", %"struct.std::_Rb_tree_iterator"* %retval, i32 0, i32 0, !dbg !4349
  %1 = load %"struct.std::_Rb_tree_node_base"*, %"struct.std::_Rb_tree_node_base"** %coerce.dive2, align 8, !dbg !4349
  ret %"struct.std::_Rb_tree_node_base"* %1, !dbg !4349
}

; Function Attrs: noinline uwtable
define linkonce_odr dso_local void @_ZN6dealii18deal_II_exceptions9internals17issue_error_throwIN9libparest10MessageLog10ServerBase18ExcIDNotRegisteredEEEvPKciS8_S8_S8_T_(i8* %file, i32 %line, i8* %function, i8* %cond, i8* %exc_name, %"class.libparest::MessageLog::ServerBase::ExcIDNotRegistered"* %e) #0 comdat personality i8* bitcast (i32 (...)* @__gxx_personality_v0 to i8*) !dbg !4350 {
entry:
  %file.addr = alloca i8*, align 8
  %line.addr = alloca i32, align 4
  %function.addr = alloca i8*, align 8
  %cond.addr = alloca i8*, align 8
  %exc_name.addr = alloca i8*, align 8
  %exn.slot = alloca i8*
  %ehselector.slot = alloca i32
  store i8* %file, i8** %file.addr, align 8
  call void @llvm.dbg.declare(metadata i8** %file.addr, metadata !4355, metadata !DIExpression()), !dbg !4356
  store i32 %line, i32* %line.addr, align 4
  call void @llvm.dbg.declare(metadata i32* %line.addr, metadata !4357, metadata !DIExpression()), !dbg !4358
  store i8* %function, i8** %function.addr, align 8
  call void @llvm.dbg.declare(metadata i8** %function.addr, metadata !4359, metadata !DIExpression()), !dbg !4360
  store i8* %cond, i8** %cond.addr, align 8
  call void @llvm.dbg.declare(metadata i8** %cond.addr, metadata !4361, metadata !DIExpression()), !dbg !4362
  store i8* %exc_name, i8** %exc_name.addr, align 8
  call void @llvm.dbg.declare(metadata i8** %exc_name.addr, metadata !4363, metadata !DIExpression()), !dbg !4364
  call void @llvm.dbg.declare(metadata %"class.libparest::MessageLog::ServerBase::ExcIDNotRegistered"* %e, metadata !4365, metadata !DIExpression()), !dbg !4366
  %0 = bitcast %"class.libparest::MessageLog::ServerBase::ExcIDNotRegistered"* %e to %"class.dealii::ExceptionBase"*, !dbg !4367
  %1 = load i8*, i8** %file.addr, align 8, !dbg !4368
  %2 = load i32, i32* %line.addr, align 4, !dbg !4369
  %3 = load i8*, i8** %function.addr, align 8, !dbg !4370
  %4 = load i8*, i8** %cond.addr, align 8, !dbg !4371
  %5 = load i8*, i8** %exc_name.addr, align 8, !dbg !4372
  call void @_ZN6dealii13ExceptionBase10set_fieldsEPKciS2_S2_S2_(%"class.dealii::ExceptionBase"* %0, i8* %1, i32 %2, i8* %3, i8* %4, i8* %5), !dbg !4373
  %exception = call i8* @__cxa_allocate_exception(i64 64) #4, !dbg !4374
  %6 = bitcast i8* %exception to %"class.libparest::MessageLog::ServerBase::ExcIDNotRegistered"*, !dbg !4374
  invoke void @_ZN9libparest10MessageLog10ServerBase18ExcIDNotRegisteredC2ERKS2_(%"class.libparest::MessageLog::ServerBase::ExcIDNotRegistered"* %6, %"class.libparest::MessageLog::ServerBase::ExcIDNotRegistered"* dereferenceable(64) %e)
          to label %invoke.cont unwind label %lpad, !dbg !4375

invoke.cont:                                      ; preds = %entry
  call void @__cxa_throw(i8* %exception, i8* bitcast ({ i8*, i8*, i8* }* @_ZTIN9libparest10MessageLog10ServerBase18ExcIDNotRegisteredE to i8*), i8* bitcast (void (%"class.libparest::MessageLog::ServerBase::ExcIDNotRegistered"*)* @_ZN9libparest10MessageLog10ServerBase18ExcIDNotRegisteredD2Ev to i8*)) #16, !dbg !4374
  unreachable, !dbg !4374

lpad:                                             ; preds = %entry
  %7 = landingpad { i8*, i32 }
          cleanup, !dbg !4376
  %8 = extractvalue { i8*, i32 } %7, 0, !dbg !4376
  store i8* %8, i8** %exn.slot, align 8, !dbg !4376
  %9 = extractvalue { i8*, i32 } %7, 1, !dbg !4376
  store i32 %9, i32* %ehselector.slot, align 4, !dbg !4376
  call void @__cxa_free_exception(i8* %exception) #4, !dbg !4374
  br label %eh.resume, !dbg !4374

eh.resume:                                        ; preds = %lpad
  %exn = load i8*, i8** %exn.slot, align 8, !dbg !4374
  %sel = load i32, i32* %ehselector.slot, align 4, !dbg !4374
  %lpad.val = insertvalue { i8*, i32 } undef, i8* %exn, 0, !dbg !4374
  %lpad.val1 = insertvalue { i8*, i32 } %lpad.val, i32 %sel, 1, !dbg !4374
  resume { i8*, i32 } %lpad.val1, !dbg !4374
}

; Function Attrs: noinline uwtable
define linkonce_odr dso_local void @_ZN9libparest10MessageLog10ServerBase18ExcIDNotRegisteredC2Ej(%"class.libparest::MessageLog::ServerBase::ExcIDNotRegistered"* %this, i32 %a1) unnamed_addr #0 comdat align 2 !dbg !4377 {
entry:
  %this.addr = alloca %"class.libparest::MessageLog::ServerBase::ExcIDNotRegistered"*, align 8
  %a1.addr = alloca i32, align 4
  store %"class.libparest::MessageLog::ServerBase::ExcIDNotRegistered"* %this, %"class.libparest::MessageLog::ServerBase::ExcIDNotRegistered"** %this.addr, align 8
  call void @llvm.dbg.declare(metadata %"class.libparest::MessageLog::ServerBase::ExcIDNotRegistered"** %this.addr, metadata !4378, metadata !DIExpression()), !dbg !4380
  store i32 %a1, i32* %a1.addr, align 4
  call void @llvm.dbg.declare(metadata i32* %a1.addr, metadata !4381, metadata !DIExpression()), !dbg !4382
  %this1 = load %"class.libparest::MessageLog::ServerBase::ExcIDNotRegistered"*, %"class.libparest::MessageLog::ServerBase::ExcIDNotRegistered"** %this.addr, align 8
  %0 = bitcast %"class.libparest::MessageLog::ServerBase::ExcIDNotRegistered"* %this1 to %"class.dealii::ExceptionBase"*, !dbg !4382
  call void @_ZN6dealii13ExceptionBaseC2Ev(%"class.dealii::ExceptionBase"* %0), !dbg !4382
  %1 = bitcast %"class.libparest::MessageLog::ServerBase::ExcIDNotRegistered"* %this1 to i32 (...)***, !dbg !4382
  store i32 (...)** bitcast (i8** getelementptr inbounds ({ [6 x i8*] }, { [6 x i8*] }* @_ZTVN9libparest10MessageLog10ServerBase18ExcIDNotRegisteredE, i32 0, inrange i32 0, i32 2) to i32 (...)**), i32 (...)*** %1, align 8, !dbg !4382
  %arg1 = getelementptr inbounds %"class.libparest::MessageLog::ServerBase::ExcIDNotRegistered", %"class.libparest::MessageLog::ServerBase::ExcIDNotRegistered"* %this1, i32 0, i32 1, !dbg !4382
  %2 = load i32, i32* %a1.addr, align 4, !dbg !4382
  store i32 %2, i32* %arg1, align 4, !dbg !4382
  ret void, !dbg !4382
}

; Function Attrs: noinline nounwind uwtable
define linkonce_odr dso_local void @_ZN9libparest10MessageLog10ServerBase18ExcIDNotRegisteredD2Ev(%"class.libparest::MessageLog::ServerBase::ExcIDNotRegistered"* %this) unnamed_addr #1 comdat align 2 !dbg !4383 {
entry:
  %this.addr = alloca %"class.libparest::MessageLog::ServerBase::ExcIDNotRegistered"*, align 8
  store %"class.libparest::MessageLog::ServerBase::ExcIDNotRegistered"* %this, %"class.libparest::MessageLog::ServerBase::ExcIDNotRegistered"** %this.addr, align 8
  call void @llvm.dbg.declare(metadata %"class.libparest::MessageLog::ServerBase::ExcIDNotRegistered"** %this.addr, metadata !4384, metadata !DIExpression()), !dbg !4385
  %this1 = load %"class.libparest::MessageLog::ServerBase::ExcIDNotRegistered"*, %"class.libparest::MessageLog::ServerBase::ExcIDNotRegistered"** %this.addr, align 8
  %0 = bitcast %"class.libparest::MessageLog::ServerBase::ExcIDNotRegistered"* %this1 to %"class.dealii::ExceptionBase"*, !dbg !4386
  call void @_ZN6dealii13ExceptionBaseD2Ev(%"class.dealii::ExceptionBase"* %0) #4, !dbg !4386
  ret void, !dbg !4388
}

; Function Attrs: noinline uwtable
define linkonce_odr dso_local %"struct.std::_Rb_tree_node_base"* @_ZNSt3mapIjNSt7__cxx1112basic_stringIcSt11char_traitsIcESaIcEEESt4lessIjESaISt4pairIKjS5_EEE5eraseB5cxx11ESt17_Rb_tree_iteratorISA_E(%"class.std::map.23"* %this, %"struct.std::_Rb_tree_node_base"* %__position.coerce) #0 comdat align 2 !dbg !4389 {
entry:
  %retval = alloca %"struct.std::_Rb_tree_iterator", align 8
  %__position = alloca %"struct.std::_Rb_tree_iterator", align 8
  %this.addr = alloca %"class.std::map.23"*, align 8
  %agg.tmp = alloca %"struct.std::_Rb_tree_iterator", align 8
  %coerce.dive = getelementptr inbounds %"struct.std::_Rb_tree_iterator", %"struct.std::_Rb_tree_iterator"* %__position, i32 0, i32 0
  store %"struct.std::_Rb_tree_node_base"* %__position.coerce, %"struct.std::_Rb_tree_node_base"** %coerce.dive, align 8
  store %"class.std::map.23"* %this, %"class.std::map.23"** %this.addr, align 8
  call void @llvm.dbg.declare(metadata %"class.std::map.23"** %this.addr, metadata !4390, metadata !DIExpression()), !dbg !4391
  call void @llvm.dbg.declare(metadata %"struct.std::_Rb_tree_iterator"* %__position, metadata !4392, metadata !DIExpression()), !dbg !4393
  %this1 = load %"class.std::map.23"*, %"class.std::map.23"** %this.addr, align 8
  %_M_t = getelementptr inbounds %"class.std::map.23", %"class.std::map.23"* %this1, i32 0, i32 0, !dbg !4394
  %0 = bitcast %"struct.std::_Rb_tree_iterator"* %agg.tmp to i8*, !dbg !4395
  %1 = bitcast %"struct.std::_Rb_tree_iterator"* %__position to i8*, !dbg !4395
  call void @llvm.memcpy.p0i8.p0i8.i64(i8* align 8 %0, i8* align 8 %1, i64 8, i1 false), !dbg !4395
  %coerce.dive2 = getelementptr inbounds %"struct.std::_Rb_tree_iterator", %"struct.std::_Rb_tree_iterator"* %agg.tmp, i32 0, i32 0, !dbg !4396
  %2 = load %"struct.std::_Rb_tree_node_base"*, %"struct.std::_Rb_tree_node_base"** %coerce.dive2, align 8, !dbg !4396
  %call = call %"struct.std::_Rb_tree_node_base"* @_ZNSt8_Rb_treeIjSt4pairIKjNSt7__cxx1112basic_stringIcSt11char_traitsIcESaIcEEEESt10_Select1stIS8_ESt4lessIjESaIS8_EE5eraseB5cxx11ESt17_Rb_tree_iteratorIS8_E(%"class.std::_Rb_tree.24"* %_M_t, %"struct.std::_Rb_tree_node_base"* %2), !dbg !4396
  %coerce.dive3 = getelementptr inbounds %"struct.std::_Rb_tree_iterator", %"struct.std::_Rb_tree_iterator"* %retval, i32 0, i32 0, !dbg !4396
  store %"struct.std::_Rb_tree_node_base"* %call, %"struct.std::_Rb_tree_node_base"** %coerce.dive3, align 8, !dbg !4396
  %coerce.dive4 = getelementptr inbounds %"struct.std::_Rb_tree_iterator", %"struct.std::_Rb_tree_iterator"* %retval, i32 0, i32 0, !dbg !4397
  %3 = load %"struct.std::_Rb_tree_node_base"*, %"struct.std::_Rb_tree_node_base"** %coerce.dive4, align 8, !dbg !4397
  ret %"struct.std::_Rb_tree_node_base"* %3, !dbg !4397
}

; Function Attrs: noinline uwtable
define dso_local void @_ZN9libparest10MessageLog6Server11put_messageEjRKNSt7__cxx1112basic_stringIcSt11char_traitsIcESaIcEEEj(%"class.libparest::MessageLog::Server"* %this, i32 %id, %"class.std::__cxx11::basic_string"* dereferenceable(32) %s, i32 %priority) unnamed_addr #0 align 2 !dbg !4398 {
entry:
  %this.addr = alloca %"class.libparest::MessageLog::Server"*, align 8
  %id.addr = alloca i32, align 4
  %s.addr = alloca %"class.std::__cxx11::basic_string"*, align 8
  %priority.addr = alloca i32, align 4
  store %"class.libparest::MessageLog::Server"* %this, %"class.libparest::MessageLog::Server"** %this.addr, align 8
  call void @llvm.dbg.declare(metadata %"class.libparest::MessageLog::Server"** %this.addr, metadata !4399, metadata !DIExpression()), !dbg !4400
  store i32 %id, i32* %id.addr, align 4
  call void @llvm.dbg.declare(metadata i32* %id.addr, metadata !4401, metadata !DIExpression()), !dbg !4402
  store %"class.std::__cxx11::basic_string"* %s, %"class.std::__cxx11::basic_string"** %s.addr, align 8
  call void @llvm.dbg.declare(metadata %"class.std::__cxx11::basic_string"** %s.addr, metadata !4403, metadata !DIExpression()), !dbg !4404
  store i32 %priority, i32* %priority.addr, align 4
  call void @llvm.dbg.declare(metadata i32* %priority.addr, metadata !4405, metadata !DIExpression()), !dbg !4406
  %this1 = load %"class.libparest::MessageLog::Server"*, %"class.libparest::MessageLog::Server"** %this.addr, align 8
  %0 = bitcast %"class.libparest::MessageLog::Server"* %this1 to %"class.libparest::MessageLog::ServerBase"*, !dbg !4407
  %id_to_name_map = getelementptr inbounds %"class.libparest::MessageLog::Server", %"class.libparest::MessageLog::Server"* %this1, i32 0, i32 1, !dbg !4408
  %call = call dereferenceable(32) %"class.std::__cxx11::basic_string"* @_ZNSt3mapIjNSt7__cxx1112basic_stringIcSt11char_traitsIcESaIcEEESt4lessIjESaISt4pairIKjS5_EEEixERS9_(%"class.std::map.23"* %id_to_name_map, i32* dereferenceable(4) %id.addr), !dbg !4408
  %1 = load %"class.std::__cxx11::basic_string"*, %"class.std::__cxx11::basic_string"** %s.addr, align 8, !dbg !4409
  %2 = load i32, i32* %priority.addr, align 4, !dbg !4410
  %call2 = call zeroext i1 @_ZNK9libparest10MessageLog10ServerBase13apply_filtersERKNSt7__cxx1112basic_stringIcSt11char_traitsIcESaIcEEES9_j(%"class.libparest::MessageLog::ServerBase"* %0, %"class.std::__cxx11::basic_string"* dereferenceable(32) %call, %"class.std::__cxx11::basic_string"* dereferenceable(32) %1, i32 %2), !dbg !4407
  ret void, !dbg !4411
}

; Function Attrs: noinline uwtable
define dso_local void @_ZN9libparest10MessageLog6ClientC2ERNS0_10ServerBaseERKNSt7__cxx1112basic_stringIcSt11char_traitsIcESaIcEEE(%"class.libparest::MessageLog::Client"* %this, %"class.libparest::MessageLog::ServerBase"* dereferenceable(96) %message_log_server, %"class.std::__cxx11::basic_string"* dereferenceable(32) %name) unnamed_addr #0 align 2 personality i8* bitcast (i32 (...)* @__gxx_personality_v0 to i8*) !dbg !4412 {
entry:
  %this.addr = alloca %"class.libparest::MessageLog::Client"*, align 8
  %message_log_server.addr = alloca %"class.libparest::MessageLog::ServerBase"*, align 8
  %name.addr = alloca %"class.std::__cxx11::basic_string"*, align 8
  %exn.slot = alloca i8*
  %ehselector.slot = alloca i32
  store %"class.libparest::MessageLog::Client"* %this, %"class.libparest::MessageLog::Client"** %this.addr, align 8
  call void @llvm.dbg.declare(metadata %"class.libparest::MessageLog::Client"** %this.addr, metadata !4413, metadata !DIExpression()), !dbg !4415
  store %"class.libparest::MessageLog::ServerBase"* %message_log_server, %"class.libparest::MessageLog::ServerBase"** %message_log_server.addr, align 8
  call void @llvm.dbg.declare(metadata %"class.libparest::MessageLog::ServerBase"** %message_log_server.addr, metadata !4416, metadata !DIExpression()), !dbg !4417
  store %"class.std::__cxx11::basic_string"* %name, %"class.std::__cxx11::basic_string"** %name.addr, align 8
  call void @llvm.dbg.declare(metadata %"class.std::__cxx11::basic_string"** %name.addr, metadata !4418, metadata !DIExpression()), !dbg !4419
  %this1 = load %"class.libparest::MessageLog::Client"*, %"class.libparest::MessageLog::Client"** %this.addr, align 8
  %message_log_server2 = getelementptr inbounds %"class.libparest::MessageLog::Client", %"class.libparest::MessageLog::Client"* %this1, i32 0, i32 0, !dbg !4420
  %0 = load %"class.libparest::MessageLog::ServerBase"*, %"class.libparest::MessageLog::ServerBase"** %message_log_server.addr, align 8, !dbg !4421
  call void @_ZN6dealii12SmartPointerIN9libparest10MessageLog10ServerBaseEEC2EPS3_PKc(%"class.dealii::SmartPointer"* %message_log_server2, %"class.libparest::MessageLog::ServerBase"* %0, i8* null), !dbg !4420
  %id = getelementptr inbounds %"class.libparest::MessageLog::Client", %"class.libparest::MessageLog::Client"* %this1, i32 0, i32 1, !dbg !4422
  %1 = load %"class.libparest::MessageLog::ServerBase"*, %"class.libparest::MessageLog::ServerBase"** %message_log_server.addr, align 8, !dbg !4423
  %2 = load %"class.std::__cxx11::basic_string"*, %"class.std::__cxx11::basic_string"** %name.addr, align 8, !dbg !4424
  %3 = bitcast %"class.libparest::MessageLog::ServerBase"* %1 to i32 (%"class.libparest::MessageLog::ServerBase"*, %"class.std::__cxx11::basic_string"*)***, !dbg !4425
  %vtable = load i32 (%"class.libparest::MessageLog::ServerBase"*, %"class.std::__cxx11::basic_string"*)**, i32 (%"class.libparest::MessageLog::ServerBase"*, %"class.std::__cxx11::basic_string"*)*** %3, align 8, !dbg !4425
  %vfn = getelementptr inbounds i32 (%"class.libparest::MessageLog::ServerBase"*, %"class.std::__cxx11::basic_string"*)*, i32 (%"class.libparest::MessageLog::ServerBase"*, %"class.std::__cxx11::basic_string"*)** %vtable, i64 2, !dbg !4425
  %4 = load i32 (%"class.libparest::MessageLog::ServerBase"*, %"class.std::__cxx11::basic_string"*)*, i32 (%"class.libparest::MessageLog::ServerBase"*, %"class.std::__cxx11::basic_string"*)** %vfn, align 8, !dbg !4425
  %call = invoke i32 %4(%"class.libparest::MessageLog::ServerBase"* %1, %"class.std::__cxx11::basic_string"* dereferenceable(32) %2)
          to label %invoke.cont unwind label %lpad, !dbg !4425

invoke.cont:                                      ; preds = %entry
  store i32 %call, i32* %id, align 8, !dbg !4422
  %message_buffer = getelementptr inbounds %"class.libparest::MessageLog::Client", %"class.libparest::MessageLog::Client"* %this1, i32 0, i32 3, !dbg !4426
  %call4 = invoke i8* @_Znwm(i64 376) #14
          to label %invoke.cont3 unwind label %lpad, !dbg !4427

invoke.cont3:                                     ; preds = %invoke.cont
  %5 = bitcast i8* %call4 to %"class.std::__cxx11::basic_ostringstream"*, !dbg !4427
  invoke void @_ZNSt7__cxx1119basic_ostringstreamIcSt11char_traitsIcESaIcEEC1Ev(%"class.std::__cxx11::basic_ostringstream"* %5)
          to label %invoke.cont6 unwind label %lpad5, !dbg !4428

invoke.cont6:                                     ; preds = %invoke.cont3
  store %"class.std::__cxx11::basic_ostringstream"* %5, %"class.std::__cxx11::basic_ostringstream"** %message_buffer, align 8, !dbg !4426
  %next_priority = getelementptr inbounds %"class.libparest::MessageLog::Client", %"class.libparest::MessageLog::Client"* %this1, i32 0, i32 4, !dbg !4429
  store i32 0, i32* %next_priority, align 8, !dbg !4429
  %synchronisation_lock = getelementptr inbounds %"class.libparest::MessageLog::Client", %"class.libparest::MessageLog::Client"* %this1, i32 0, i32 5, !dbg !4430
  ret void, !dbg !4431

lpad:                                             ; preds = %invoke.cont, %entry
  %6 = landingpad { i8*, i32 }
          cleanup, !dbg !4431
  %7 = extractvalue { i8*, i32 } %6, 0, !dbg !4431
  store i8* %7, i8** %exn.slot, align 8, !dbg !4431
  %8 = extractvalue { i8*, i32 } %6, 1, !dbg !4431
  store i32 %8, i32* %ehselector.slot, align 4, !dbg !4431
  br label %ehcleanup, !dbg !4431

lpad5:                                            ; preds = %invoke.cont3
  %9 = landingpad { i8*, i32 }
          cleanup, !dbg !4431
  %10 = extractvalue { i8*, i32 } %9, 0, !dbg !4431
  store i8* %10, i8** %exn.slot, align 8, !dbg !4431
  %11 = extractvalue { i8*, i32 } %9, 1, !dbg !4431
  store i32 %11, i32* %ehselector.slot, align 4, !dbg !4431
  call void @_ZdlPv(i8* %call4) #15, !dbg !4427
  br label %ehcleanup, !dbg !4427

ehcleanup:                                        ; preds = %lpad5, %lpad
  call void @_ZN6dealii12SmartPointerIN9libparest10MessageLog10ServerBaseEED2Ev(%"class.dealii::SmartPointer"* %message_log_server2) #4, !dbg !4432
  br label %eh.resume, !dbg !4432

eh.resume:                                        ; preds = %ehcleanup
  %exn = load i8*, i8** %exn.slot, align 8, !dbg !4432
  %sel = load i32, i32* %ehselector.slot, align 4, !dbg !4432
  %lpad.val = insertvalue { i8*, i32 } undef, i8* %exn, 0, !dbg !4432
  %lpad.val7 = insertvalue { i8*, i32 } %lpad.val, i32 %sel, 1, !dbg !4432
  resume { i8*, i32 } %lpad.val7, !dbg !4432
}

; Function Attrs: noinline uwtable
define linkonce_odr dso_local void @_ZN6dealii12SmartPointerIN9libparest10MessageLog10ServerBaseEEC2EPS3_PKc(%"class.dealii::SmartPointer"* %this, %"class.libparest::MessageLog::ServerBase"* %t, i8* %id) unnamed_addr #0 comdat align 2 !dbg !4434 {
entry:
  %this.addr = alloca %"class.dealii::SmartPointer"*, align 8
  %t.addr = alloca %"class.libparest::MessageLog::ServerBase"*, align 8
  %id.addr = alloca i8*, align 8
  store %"class.dealii::SmartPointer"* %this, %"class.dealii::SmartPointer"** %this.addr, align 8
  call void @llvm.dbg.declare(metadata %"class.dealii::SmartPointer"** %this.addr, metadata !4435, metadata !DIExpression()), !dbg !4437
  store %"class.libparest::MessageLog::ServerBase"* %t, %"class.libparest::MessageLog::ServerBase"** %t.addr, align 8
  call void @llvm.dbg.declare(metadata %"class.libparest::MessageLog::ServerBase"** %t.addr, metadata !4438, metadata !DIExpression()), !dbg !4439
  store i8* %id, i8** %id.addr, align 8
  call void @llvm.dbg.declare(metadata i8** %id.addr, metadata !4440, metadata !DIExpression()), !dbg !4441
  %this1 = load %"class.dealii::SmartPointer"*, %"class.dealii::SmartPointer"** %this.addr, align 8
  %t2 = getelementptr inbounds %"class.dealii::SmartPointer", %"class.dealii::SmartPointer"* %this1, i32 0, i32 0, !dbg !4442
  %0 = load %"class.libparest::MessageLog::ServerBase"*, %"class.libparest::MessageLog::ServerBase"** %t.addr, align 8, !dbg !4443
  store %"class.libparest::MessageLog::ServerBase"* %0, %"class.libparest::MessageLog::ServerBase"** %t2, align 8, !dbg !4442
  %id3 = getelementptr inbounds %"class.dealii::SmartPointer", %"class.dealii::SmartPointer"* %this1, i32 0, i32 1, !dbg !4444
  %1 = load i8*, i8** %id.addr, align 8, !dbg !4445
  store i8* %1, i8** %id3, align 8, !dbg !4444
  %2 = load %"class.libparest::MessageLog::ServerBase"*, %"class.libparest::MessageLog::ServerBase"** %t.addr, align 8, !dbg !4446
  %cmp = icmp ne %"class.libparest::MessageLog::ServerBase"* %2, null, !dbg !4449
  br i1 %cmp, label %if.then, label %if.end, !dbg !4450

if.then:                                          ; preds = %entry
  %3 = load %"class.libparest::MessageLog::ServerBase"*, %"class.libparest::MessageLog::ServerBase"** %t.addr, align 8, !dbg !4451
  %4 = bitcast %"class.libparest::MessageLog::ServerBase"* %3 to %"class.dealii::Subscriptor"*, !dbg !4452
  %5 = load i8*, i8** %id.addr, align 8, !dbg !4453
  call void @_ZNK6dealii11Subscriptor9subscribeEPKc(%"class.dealii::Subscriptor"* %4, i8* %5), !dbg !4452
  br label %if.end, !dbg !4451

if.end:                                           ; preds = %if.then, %entry
  ret void, !dbg !4454
}

declare dso_local void @_ZNSt7__cxx1119basic_ostringstreamIcSt11char_traitsIcESaIcEEC1Ev(%"class.std::__cxx11::basic_ostringstream"*) unnamed_addr #2

; Function Attrs: noinline nounwind uwtable
define linkonce_odr dso_local void @_ZN6dealii12SmartPointerIN9libparest10MessageLog10ServerBaseEED2Ev(%"class.dealii::SmartPointer"* %this) unnamed_addr #1 comdat align 2 personality i8* bitcast (i32 (...)* @__gxx_personality_v0 to i8*) !dbg !4455 {
entry:
  %this.addr = alloca %"class.dealii::SmartPointer"*, align 8
  store %"class.dealii::SmartPointer"* %this, %"class.dealii::SmartPointer"** %this.addr, align 8
  call void @llvm.dbg.declare(metadata %"class.dealii::SmartPointer"** %this.addr, metadata !4456, metadata !DIExpression()), !dbg !4457
  %this1 = load %"class.dealii::SmartPointer"*, %"class.dealii::SmartPointer"** %this.addr, align 8
  %t = getelementptr inbounds %"class.dealii::SmartPointer", %"class.dealii::SmartPointer"* %this1, i32 0, i32 0, !dbg !4458
  %0 = load %"class.libparest::MessageLog::ServerBase"*, %"class.libparest::MessageLog::ServerBase"** %t, align 8, !dbg !4458
  %cmp = icmp ne %"class.libparest::MessageLog::ServerBase"* %0, null, !dbg !4461
  br i1 %cmp, label %if.then, label %if.end, !dbg !4462

if.then:                                          ; preds = %entry
  %t2 = getelementptr inbounds %"class.dealii::SmartPointer", %"class.dealii::SmartPointer"* %this1, i32 0, i32 0, !dbg !4463
  %1 = load %"class.libparest::MessageLog::ServerBase"*, %"class.libparest::MessageLog::ServerBase"** %t2, align 8, !dbg !4463
  %2 = bitcast %"class.libparest::MessageLog::ServerBase"* %1 to %"class.dealii::Subscriptor"*, !dbg !4464
  %id = getelementptr inbounds %"class.dealii::SmartPointer", %"class.dealii::SmartPointer"* %this1, i32 0, i32 1, !dbg !4465
  %3 = load i8*, i8** %id, align 8, !dbg !4465
  invoke void @_ZNK6dealii11Subscriptor11unsubscribeEPKc(%"class.dealii::Subscriptor"* %2, i8* %3)
          to label %invoke.cont unwind label %terminate.lpad, !dbg !4464

invoke.cont:                                      ; preds = %if.then
  br label %if.end, !dbg !4463

if.end:                                           ; preds = %invoke.cont, %entry
  ret void, !dbg !4466

terminate.lpad:                                   ; preds = %if.then
  %4 = landingpad { i8*, i32 }
          catch i8* null, !dbg !4464
  %5 = extractvalue { i8*, i32 } %4, 0, !dbg !4464
  call void @__clang_call_terminate(i8* %5) #13, !dbg !4464
  unreachable, !dbg !4464
}

; Function Attrs: noinline nounwind uwtable
define dso_local void @_ZN9libparest10MessageLog6ClientD2Ev(%"class.libparest::MessageLog::Client"* %this) unnamed_addr #1 align 2 personality i8* bitcast (i32 (...)* @__gxx_personality_v0 to i8*) !dbg !4467 {
entry:
  %this.addr = alloca %"class.libparest::MessageLog::Client"*, align 8
  %exn.slot = alloca i8*
  %ehselector.slot = alloca i32
  store %"class.libparest::MessageLog::Client"* %this, %"class.libparest::MessageLog::Client"** %this.addr, align 8
  call void @llvm.dbg.declare(metadata %"class.libparest::MessageLog::Client"** %this.addr, metadata !4468, metadata !DIExpression()), !dbg !4469
  %this1 = load %"class.libparest::MessageLog::Client"*, %"class.libparest::MessageLog::Client"** %this.addr, align 8
  %message_buffer = getelementptr inbounds %"class.libparest::MessageLog::Client", %"class.libparest::MessageLog::Client"* %this1, i32 0, i32 3, !dbg !4470
  invoke void @_ZN9libparest10delete_ptrINSt7__cxx1119basic_ostringstreamIcSt11char_traitsIcESaIcEEEEEvRPT_(%"class.std::__cxx11::basic_ostringstream"** dereferenceable(8) %message_buffer)
          to label %invoke.cont unwind label %lpad, !dbg !4472

invoke.cont:                                      ; preds = %entry
  %message_log_server = getelementptr inbounds %"class.libparest::MessageLog::Client", %"class.libparest::MessageLog::Client"* %this1, i32 0, i32 0, !dbg !4473
  %call = invoke %"class.libparest::MessageLog::ServerBase"* @_ZNK6dealii12SmartPointerIN9libparest10MessageLog10ServerBaseEEptEv(%"class.dealii::SmartPointer"* %message_log_server)
          to label %invoke.cont2 unwind label %lpad, !dbg !4473

invoke.cont2:                                     ; preds = %invoke.cont
  %id = getelementptr inbounds %"class.libparest::MessageLog::Client", %"class.libparest::MessageLog::Client"* %this1, i32 0, i32 1, !dbg !4474
  %0 = load i32, i32* %id, align 8, !dbg !4474
  %1 = bitcast %"class.libparest::MessageLog::ServerBase"* %call to void (%"class.libparest::MessageLog::ServerBase"*, i32)***, !dbg !4475
  %vtable = load void (%"class.libparest::MessageLog::ServerBase"*, i32)**, void (%"class.libparest::MessageLog::ServerBase"*, i32)*** %1, align 8, !dbg !4475
  %vfn = getelementptr inbounds void (%"class.libparest::MessageLog::ServerBase"*, i32)*, void (%"class.libparest::MessageLog::ServerBase"*, i32)** %vtable, i64 3, !dbg !4475
  %2 = load void (%"class.libparest::MessageLog::ServerBase"*, i32)*, void (%"class.libparest::MessageLog::ServerBase"*, i32)** %vfn, align 8, !dbg !4475
  invoke void %2(%"class.libparest::MessageLog::ServerBase"* %call, i32 %0)
          to label %invoke.cont3 unwind label %lpad, !dbg !4475

invoke.cont3:                                     ; preds = %invoke.cont2
  %message_log_server4 = getelementptr inbounds %"class.libparest::MessageLog::Client", %"class.libparest::MessageLog::Client"* %this1, i32 0, i32 0, !dbg !4476
  call void @_ZN6dealii12SmartPointerIN9libparest10MessageLog10ServerBaseEED2Ev(%"class.dealii::SmartPointer"* %message_log_server4) #4, !dbg !4476
  ret void, !dbg !4477

lpad:                                             ; preds = %invoke.cont2, %invoke.cont, %entry
  %3 = landingpad { i8*, i32 }
          catch i8* null, !dbg !4476
  %4 = extractvalue { i8*, i32 } %3, 0, !dbg !4476
  store i8* %4, i8** %exn.slot, align 8, !dbg !4476
  %5 = extractvalue { i8*, i32 } %3, 1, !dbg !4476
  store i32 %5, i32* %ehselector.slot, align 4, !dbg !4476
  %message_log_server5 = getelementptr inbounds %"class.libparest::MessageLog::Client", %"class.libparest::MessageLog::Client"* %this1, i32 0, i32 0, !dbg !4476
  call void @_ZN6dealii12SmartPointerIN9libparest10MessageLog10ServerBaseEED2Ev(%"class.dealii::SmartPointer"* %message_log_server5) #4, !dbg !4476
  br label %terminate.handler, !dbg !4476

terminate.handler:                                ; preds = %lpad
  %exn = load i8*, i8** %exn.slot, align 8, !dbg !4476
  call void @__clang_call_terminate(i8* %exn) #13, !dbg !4476
  unreachable, !dbg !4476
}

; Function Attrs: noinline nounwind uwtable
define linkonce_odr dso_local void @_ZN9libparest10delete_ptrINSt7__cxx1119basic_ostringstreamIcSt11char_traitsIcESaIcEEEEEvRPT_(%"class.std::__cxx11::basic_ostringstream"** dereferenceable(8) %p) #1 comdat !dbg !4478 {
entry:
  %p.addr = alloca %"class.std::__cxx11::basic_ostringstream"**, align 8
  store %"class.std::__cxx11::basic_ostringstream"** %p, %"class.std::__cxx11::basic_ostringstream"*** %p.addr, align 8
  call void @llvm.dbg.declare(metadata %"class.std::__cxx11::basic_ostringstream"*** %p.addr, metadata !4485, metadata !DIExpression()), !dbg !4486
  %0 = load %"class.std::__cxx11::basic_ostringstream"**, %"class.std::__cxx11::basic_ostringstream"*** %p.addr, align 8, !dbg !4487
  %1 = load %"class.std::__cxx11::basic_ostringstream"*, %"class.std::__cxx11::basic_ostringstream"** %0, align 8, !dbg !4487
  %cmp = icmp ne %"class.std::__cxx11::basic_ostringstream"* %1, null, !dbg !4489
  br i1 %cmp, label %if.then, label %if.end, !dbg !4490

if.then:                                          ; preds = %entry
  %2 = load %"class.std::__cxx11::basic_ostringstream"**, %"class.std::__cxx11::basic_ostringstream"*** %p.addr, align 8, !dbg !4491
  %3 = load %"class.std::__cxx11::basic_ostringstream"*, %"class.std::__cxx11::basic_ostringstream"** %2, align 8, !dbg !4491
  %isnull = icmp eq %"class.std::__cxx11::basic_ostringstream"* %3, null, !dbg !4493
  br i1 %isnull, label %delete.end, label %delete.notnull, !dbg !4493

delete.notnull:                                   ; preds = %if.then
  %4 = bitcast %"class.std::__cxx11::basic_ostringstream"* %3 to void (%"class.std::__cxx11::basic_ostringstream"*)***, !dbg !4493
  %vtable = load void (%"class.std::__cxx11::basic_ostringstream"*)**, void (%"class.std::__cxx11::basic_ostringstream"*)*** %4, align 8, !dbg !4493
  %vfn = getelementptr inbounds void (%"class.std::__cxx11::basic_ostringstream"*)*, void (%"class.std::__cxx11::basic_ostringstream"*)** %vtable, i64 1, !dbg !4493
  %5 = load void (%"class.std::__cxx11::basic_ostringstream"*)*, void (%"class.std::__cxx11::basic_ostringstream"*)** %vfn, align 8, !dbg !4493
  call void %5(%"class.std::__cxx11::basic_ostringstream"* %3) #4, !dbg !4493
  br label %delete.end, !dbg !4493

