; ModuleID = 'source/base/function_lib.cc'
source_filename = "source/base/function_lib.cc"
target datalayout = "e-m:e-p270:32:32-p271:32:32-p272:64:64-i64:64-f80:128-n8:16:32:64-S128"
target triple = "x86_64-unknown-linux-gnu"

%"class.dealii::Functions::PillowFunction" = type { %"class.dealii::Function.base", double }
%"class.dealii::Function.base" = type <{ %"class.dealii::FunctionTime", %"class.dealii::Subscriptor", i32 }>
%"class.dealii::FunctionTime" = type { i32 (...)**, double }
%"class.dealii::Subscriptor" = type { i32 (...)**, i32, %"class.std::map", %"class.std::type_info"* }
%"class.std::map" = type { %"class.std::_Rb_tree" }
%"class.std::_Rb_tree" = type { %"struct.std::_Rb_tree<const char *, std::pair<const char *const, unsigned int>, std::_Select1st<std::pair<const char *const, unsigned int> >, std::less<const char *>, std::allocator<std::pair<const char *const, unsigned int> > >::_Rb_tree_impl" }
%"struct.std::_Rb_tree<const char *, std::pair<const char *const, unsigned int>, std::_Select1st<std::pair<const char *const, unsigned int> >, std::less<const char *>, std::allocator<std::pair<const char *const, unsigned int> > >::_Rb_tree_impl" = type { %"struct.std::_Rb_tree_key_compare", %"struct.std::_Rb_tree_header" }
%"struct.std::_Rb_tree_key_compare" = type { %"struct.std::less" }
%"struct.std::less" = type { i8 }
%"struct.std::_Rb_tree_header" = type { %"struct.std::_Rb_tree_node_base", i64 }
%"struct.std::_Rb_tree_node_base" = type { i32, %"struct.std::_Rb_tree_node_base"*, %"struct.std::_Rb_tree_node_base"*, %"struct.std::_Rb_tree_node_base"* }
%"class.std::type_info" = type { i32 (...)**, i8* }
%"class.dealii::Functions::PillowFunction.69" = type { %"class.dealii::Function.base.15", double }
%"class.dealii::Function.base.15" = type <{ %"class.dealii::FunctionTime", %"class.dealii::Subscriptor", i32 }>
%"class.dealii::Functions::PillowFunction.70" = type { %"class.dealii::Function.base.31", double }
%"class.dealii::Function.base.31" = type <{ %"class.dealii::FunctionTime", %"class.dealii::Subscriptor", i32 }>
%"class.dealii::Functions::JumpFunction" = type { %"class.dealii::Function.base", %"class.dealii::Point", double, double, double, double }
%"class.dealii::Point" = type { %"class.dealii::Tensor" }
%"class.dealii::Tensor" = type { [1 x double] }
%"class.dealii::Functions::JumpFunction.97" = type { %"class.dealii::Function.base.15", %"class.dealii::Point.17", double, double, double, double }
%"class.dealii::Point.17" = type { %"class.dealii::Tensor.18" }
%"class.dealii::Tensor.18" = type { [2 x double] }
%"class.dealii::Functions::JumpFunction.98" = type { %"class.dealii::Function.base.31", %"class.dealii::Point.33", double, double, double, double }
%"class.dealii::Point.33" = type { %"class.dealii::Tensor.34" }
%"class.dealii::Tensor.34" = type { [3 x double] }
%"class.dealii::Functions::FourierCosineFunction" = type { %"class.dealii::Function.base", %"class.dealii::Point" }
%"class.dealii::Functions::FourierCosineFunction.99" = type { %"class.dealii::Function.base.15", %"class.dealii::Point.17" }
%"class.dealii::Functions::FourierCosineFunction.100" = type { %"class.dealii::Function.base.31", %"class.dealii::Point.33" }
%"class.dealii::Functions::FourierSineFunction" = type { %"class.dealii::Function.base", %"class.dealii::Point" }
%"class.dealii::Functions::FourierSineFunction.101" = type { %"class.dealii::Function.base.15", %"class.dealii::Point.17" }
%"class.dealii::Functions::FourierSineFunction.102" = type { %"class.dealii::Function.base.31", %"class.dealii::Point.33" }
%"class.dealii::Functions::FourierCosineSum" = type { %"class.dealii::Function.base", %"class.std::vector", %"class.std::vector.3" }
%"class.std::vector" = type { %"struct.std::_Vector_base" }
%"struct.std::_Vector_base" = type { %"struct.std::_Vector_base<dealii::Point<1>, std::allocator<dealii::Point<1> > >::_Vector_impl" }
%"struct.std::_Vector_base<dealii::Point<1>, std::allocator<dealii::Point<1> > >::_Vector_impl" = type { %"struct.std::_Vector_base<dealii::Point<1>, std::allocator<dealii::Point<1> > >::_Vector_impl_data" }
%"struct.std::_Vector_base<dealii::Point<1>, std::allocator<dealii::Point<1> > >::_Vector_impl_data" = type { %"class.dealii::Point"*, %"class.dealii::Point"*, %"class.dealii::Point"* }
%"class.std::vector.3" = type { %"struct.std::_Vector_base.4" }
%"struct.std::_Vector_base.4" = type { %"struct.std::_Vector_base<double, std::allocator<double> >::_Vector_impl" }
%"struct.std::_Vector_base<double, std::allocator<double> >::_Vector_impl" = type { %"struct.std::_Vector_base<double, std::allocator<double> >::_Vector_impl_data" }
%"struct.std::_Vector_base<double, std::allocator<double> >::_Vector_impl_data" = type { double*, double*, double* }
%"class.dealii::Functions::FourierCosineSum.103" = type { %"class.dealii::Function.base.15", %"class.std::vector.19", %"class.std::vector.3" }
%"class.std::vector.19" = type { %"struct.std::_Vector_base.20" }
%"struct.std::_Vector_base.20" = type { %"struct.std::_Vector_base<dealii::Point<2>, std::allocator<dealii::Point<2> > >::_Vector_impl" }
%"struct.std::_Vector_base<dealii::Point<2>, std::allocator<dealii::Point<2> > >::_Vector_impl" = type { %"struct.std::_Vector_base<dealii::Point<2>, std::allocator<dealii::Point<2> > >::_Vector_impl_data" }
%"struct.std::_Vector_base<dealii::Point<2>, std::allocator<dealii::Point<2> > >::_Vector_impl_data" = type { %"class.dealii::Point.17"*, %"class.dealii::Point.17"*, %"class.dealii::Point.17"* }
%"class.dealii::Functions::FourierCosineSum.104" = type { %"class.dealii::Function.base.31", %"class.std::vector.35", %"class.std::vector.3" }
%"class.std::vector.35" = type { %"struct.std::_Vector_base.36" }
%"struct.std::_Vector_base.36" = type { %"struct.std::_Vector_base<dealii::Point<3>, std::allocator<dealii::Point<3> > >::_Vector_impl" }
%"struct.std::_Vector_base<dealii::Point<3>, std::allocator<dealii::Point<3> > >::_Vector_impl" = type { %"struct.std::_Vector_base<dealii::Point<3>, std::allocator<dealii::Point<3> > >::_Vector_impl_data" }
%"struct.std::_Vector_base<dealii::Point<3>, std::allocator<dealii::Point<3> > >::_Vector_impl_data" = type { %"class.dealii::Point.33"*, %"class.dealii::Point.33"*, %"class.dealii::Point.33"* }
%"class.dealii::Functions::FourierSineSum" = type { %"class.dealii::Function.base", %"class.std::vector", %"class.std::vector.3" }
%"class.dealii::Functions::FourierSineSum.105" = type { %"class.dealii::Function.base.15", %"class.std::vector.19", %"class.std::vector.3" }
%"class.dealii::Functions::FourierSineSum.106" = type { %"class.dealii::Function.base.31", %"class.std::vector.35", %"class.std::vector.3" }
%"class.dealii::Functions::Monomial" = type { %"class.dealii::Function.base", %"class.dealii::Tensor" }
%"class.dealii::Functions::Monomial.109" = type { %"class.dealii::Function.base.15", %"class.dealii::Tensor.18" }
%"class.dealii::Functions::Monomial.110" = type { %"class.dealii::Function.base.31", %"class.dealii::Tensor.34" }
%"class.dealii::Functions::SquareFunction" = type { %"class.dealii::Function.base", [4 x i8] }
%"class.std::vector.8" = type { %"struct.std::_Vector_base.9" }
%"struct.std::_Vector_base.9" = type { %"struct.std::_Vector_base<dealii::Tensor<1, 1>, std::allocator<dealii::Tensor<1, 1> > >::_Vector_impl" }
%"struct.std::_Vector_base<dealii::Tensor<1, 1>, std::allocator<dealii::Tensor<1, 1> > >::_Vector_impl" = type { %"struct.std::_Vector_base<dealii::Tensor<1, 1>, std::allocator<dealii::Tensor<1, 1> > >::_Vector_impl_data" }
%"struct.std::_Vector_base<dealii::Tensor<1, 1>, std::allocator<dealii::Tensor<1, 1> > >::_Vector_impl_data" = type { %"class.dealii::Tensor"*, %"class.dealii::Tensor"*, %"class.dealii::Tensor"* }
%"class.dealii::Functions::SquareFunction.13" = type { %"class.dealii::Function.base.15", [4 x i8] }
%"class.std::vector.24" = type { %"struct.std::_Vector_base.25" }
%"struct.std::_Vector_base.25" = type { %"struct.std::_Vector_base<dealii::Tensor<1, 2>, std::allocator<dealii::Tensor<1, 2> > >::_Vector_impl" }
%"struct.std::_Vector_base<dealii::Tensor<1, 2>, std::allocator<dealii::Tensor<1, 2> > >::_Vector_impl" = type { %"struct.std::_Vector_base<dealii::Tensor<1, 2>, std::allocator<dealii::Tensor<1, 2> > >::_Vector_impl_data" }
%"struct.std::_Vector_base<dealii::Tensor<1, 2>, std::allocator<dealii::Tensor<1, 2> > >::_Vector_impl_data" = type { %"class.dealii::Tensor.18"*, %"class.dealii::Tensor.18"*, %"class.dealii::Tensor.18"* }
%"class.dealii::Functions::SquareFunction.29" = type { %"class.dealii::Function.base.31", [4 x i8] }
%"class.std::vector.40" = type { %"struct.std::_Vector_base.41" }
%"struct.std::_Vector_base.41" = type { %"struct.std::_Vector_base<dealii::Tensor<1, 3>, std::allocator<dealii::Tensor<1, 3> > >::_Vector_impl" }
%"struct.std::_Vector_base<dealii::Tensor<1, 3>, std::allocator<dealii::Tensor<1, 3> > >::_Vector_impl" = type { %"struct.std::_Vector_base<dealii::Tensor<1, 3>, std::allocator<dealii::Tensor<1, 3> > >::_Vector_impl_data" }
%"struct.std::_Vector_base<dealii::Tensor<1, 3>, std::allocator<dealii::Tensor<1, 3> > >::_Vector_impl_data" = type { %"class.dealii::Tensor.34"*, %"class.dealii::Tensor.34"*, %"class.dealii::Tensor.34"* }
%"class.dealii::Functions::Q1WedgeFunction" = type { %"class.dealii::Function.base", [4 x i8] }
%"class.std::vector.45" = type { %"struct.std::_Vector_base.46" }
%"struct.std::_Vector_base.46" = type { %"struct.std::_Vector_base<dealii::Vector<double>, std::allocator<dealii::Vector<double> > >::_Vector_impl" }
%"struct.std::_Vector_base<dealii::Vector<double>, std::allocator<dealii::Vector<double> > >::_Vector_impl" = type { %"struct.std::_Vector_base<dealii::Vector<double>, std::allocator<dealii::Vector<double> > >::_Vector_impl_data" }
%"struct.std::_Vector_base<dealii::Vector<double>, std::allocator<dealii::Vector<double> > >::_Vector_impl_data" = type { %"class.dealii::Vector"*, %"class.dealii::Vector"*, %"class.dealii::Vector"* }
%"class.dealii::Vector" = type { %"class.dealii::Subscriptor", i32, i32, double* }
%"class.std::vector.50" = type { %"struct.std::_Vector_base.51" }
%"struct.std::_Vector_base.51" = type { %"struct.std::_Vector_base<std::vector<dealii::Tensor<1, 1>, std::allocator<dealii::Tensor<1, 1> > >, std::allocator<std::vector<dealii::Tensor<1, 1>, std::allocator<dealii::Tensor<1, 1> > > > >::_Vector_impl" }
%"struct.std::_Vector_base<std::vector<dealii::Tensor<1, 1>, std::allocator<dealii::Tensor<1, 1> > >, std::allocator<std::vector<dealii::Tensor<1, 1>, std::allocator<dealii::Tensor<1, 1> > > > >::_Vector_impl" = type { %"struct.std::_Vector_base<std::vector<dealii::Tensor<1, 1>, std::allocator<dealii::Tensor<1, 1> > >, std::allocator<std::vector<dealii::Tensor<1, 1>, std::allocator<dealii::Tensor<1, 1> > > > >::_Vector_impl_data" }
%"struct.std::_Vector_base<std::vector<dealii::Tensor<1, 1>, std::allocator<dealii::Tensor<1, 1> > >, std::allocator<std::vector<dealii::Tensor<1, 1>, std::allocator<dealii::Tensor<1, 1> > > > >::_Vector_impl_data" = type { %"class.std::vector.8"*, %"class.std::vector.8"*, %"class.std::vector.8"* }
%"class.dealii::Functions::Q1WedgeFunction.55" = type { %"class.dealii::Function.base.15", [4 x i8] }
%"class.std::vector.57" = type { %"struct.std::_Vector_base.58" }
%"struct.std::_Vector_base.58" = type { %"struct.std::_Vector_base<std::vector<dealii::Tensor<1, 2>, std::allocator<dealii::Tensor<1, 2> > >, std::allocator<std::vector<dealii::Tensor<1, 2>, std::allocator<dealii::Tensor<1, 2> > > > >::_Vector_impl" }
%"struct.std::_Vector_base<std::vector<dealii::Tensor<1, 2>, std::allocator<dealii::Tensor<1, 2> > >, std::allocator<std::vector<dealii::Tensor<1, 2>, std::allocator<dealii::Tensor<1, 2> > > > >::_Vector_impl" = type { %"struct.std::_Vector_base<std::vector<dealii::Tensor<1, 2>, std::allocator<dealii::Tensor<1, 2> > >, std::allocator<std::vector<dealii::Tensor<1, 2>, std::allocator<dealii::Tensor<1, 2> > > > >::_Vector_impl_data" }
%"struct.std::_Vector_base<std::vector<dealii::Tensor<1, 2>, std::allocator<dealii::Tensor<1, 2> > >, std::allocator<std::vector<dealii::Tensor<1, 2>, std::allocator<dealii::Tensor<1, 2> > > > >::_Vector_impl_data" = type { %"class.std::vector.24"*, %"class.std::vector.24"*, %"class.std::vector.24"* }
%"class.dealii::Functions::Q1WedgeFunction.62" = type { %"class.dealii::Function.base.31", [4 x i8] }
%"class.std::vector.64" = type { %"struct.std::_Vector_base.65" }
%"struct.std::_Vector_base.65" = type { %"struct.std::_Vector_base<std::vector<dealii::Tensor<1, 3>, std::allocator<dealii::Tensor<1, 3> > >, std::allocator<std::vector<dealii::Tensor<1, 3>, std::allocator<dealii::Tensor<1, 3> > > > >::_Vector_impl" }
%"struct.std::_Vector_base<std::vector<dealii::Tensor<1, 3>, std::allocator<dealii::Tensor<1, 3> > >, std::allocator<std::vector<dealii::Tensor<1, 3>, std::allocator<dealii::Tensor<1, 3> > > > >::_Vector_impl" = type { %"struct.std::_Vector_base<std::vector<dealii::Tensor<1, 3>, std::allocator<dealii::Tensor<1, 3> > >, std::allocator<std::vector<dealii::Tensor<1, 3>, std::allocator<dealii::Tensor<1, 3> > > > >::_Vector_impl_data" }
%"struct.std::_Vector_base<std::vector<dealii::Tensor<1, 3>, std::allocator<dealii::Tensor<1, 3> > >, std::allocator<std::vector<dealii::Tensor<1, 3>, std::allocator<dealii::Tensor<1, 3> > > > >::_Vector_impl_data" = type { %"class.std::vector.40"*, %"class.std::vector.40"*, %"class.std::vector.40"* }
%"class.dealii::Function" = type <{ %"class.dealii::FunctionTime", %"class.dealii::Subscriptor", i32, [4 x i8] }>
%"class.dealii::Function.14" = type <{ %"class.dealii::FunctionTime", %"class.dealii::Subscriptor", i32, [4 x i8] }>
%"class.dealii::Function.30" = type <{ %"class.dealii::FunctionTime", %"class.dealii::Subscriptor", i32, [4 x i8] }>
%"class.dealii::Functions::CosineFunction" = type { %"class.dealii::Function.base", [4 x i8] }
%"class.dealii::Tensor.71" = type { [1 x %"class.dealii::Tensor"] }
%"class.std::vector.72" = type { %"struct.std::_Vector_base.73" }
%"struct.std::_Vector_base.73" = type { %"struct.std::_Vector_base<dealii::Tensor<2, 1>, std::allocator<dealii::Tensor<2, 1> > >::_Vector_impl" }
%"struct.std::_Vector_base<dealii::Tensor<2, 1>, std::allocator<dealii::Tensor<2, 1> > >::_Vector_impl" = type { %"struct.std::_Vector_base<dealii::Tensor<2, 1>, std::allocator<dealii::Tensor<2, 1> > >::_Vector_impl_data" }
%"struct.std::_Vector_base<dealii::Tensor<2, 1>, std::allocator<dealii::Tensor<2, 1> > >::_Vector_impl_data" = type { %"class.dealii::Tensor.71"*, %"class.dealii::Tensor.71"*, %"class.dealii::Tensor.71"* }
%"class.dealii::Functions::CosineFunction.77" = type { %"class.dealii::Function.base.15", [4 x i8] }
%"class.dealii::Tensor.79" = type { [2 x %"class.dealii::Tensor.18"] }
%"class.std::vector.80" = type { %"struct.std::_Vector_base.81" }
%"struct.std::_Vector_base.81" = type { %"struct.std::_Vector_base<dealii::Tensor<2, 2>, std::allocator<dealii::Tensor<2, 2> > >::_Vector_impl" }
%"struct.std::_Vector_base<dealii::Tensor<2, 2>, std::allocator<dealii::Tensor<2, 2> > >::_Vector_impl" = type { %"struct.std::_Vector_base<dealii::Tensor<2, 2>, std::allocator<dealii::Tensor<2, 2> > >::_Vector_impl_data" }
%"struct.std::_Vector_base<dealii::Tensor<2, 2>, std::allocator<dealii::Tensor<2, 2> > >::_Vector_impl_data" = type { %"class.dealii::Tensor.79"*, %"class.dealii::Tensor.79"*, %"class.dealii::Tensor.79"* }
%"class.dealii::Functions::CosineFunction.85" = type { %"class.dealii::Function.base.31", [4 x i8] }
%"class.dealii::Tensor.87" = type { [3 x %"class.dealii::Tensor.34"] }
%"class.std::vector.88" = type { %"struct.std::_Vector_base.89" }
%"struct.std::_Vector_base.89" = type { %"struct.std::_Vector_base<dealii::Tensor<2, 3>, std::allocator<dealii::Tensor<2, 3> > >::_Vector_impl" }
%"struct.std::_Vector_base<dealii::Tensor<2, 3>, std::allocator<dealii::Tensor<2, 3> > >::_Vector_impl" = type { %"struct.std::_Vector_base<dealii::Tensor<2, 3>, std::allocator<dealii::Tensor<2, 3> > >::_Vector_impl_data" }
%"struct.std::_Vector_base<dealii::Tensor<2, 3>, std::allocator<dealii::Tensor<2, 3> > >::_Vector_impl_data" = type { %"class.dealii::Tensor.87"*, %"class.dealii::Tensor.87"*, %"class.dealii::Tensor.87"* }
%"class.dealii::Functions::ExpFunction" = type { %"class.dealii::Function.base", [4 x i8] }
%"class.dealii::Functions::ExpFunction.93" = type { %"class.dealii::Function.base.15", [4 x i8] }
%"class.dealii::Functions::ExpFunction.95" = type { %"class.dealii::Function.base.31", [4 x i8] }
%"class.std::allocator.0" = type { i8 }
%"class.__gnu_cxx::__normal_iterator" = type { %"class.dealii::Point"* }
%"class.std::allocator.5" = type { i8 }
%"class.__gnu_cxx::__normal_iterator.111" = type { double* }
%"class.std::allocator.21" = type { i8 }
%"class.__gnu_cxx::__normal_iterator.112" = type { %"class.dealii::Point.17"* }
%"class.std::allocator.37" = type { i8 }
%"class.__gnu_cxx::__normal_iterator.113" = type { %"class.dealii::Point.33"* }
%"class.dealii::Functions::SlitSingularityFunction" = type { %"class.dealii::Function.base.15", [4 x i8] }
%"class.dealii::Functions::SlitSingularityFunction.107" = type { %"class.dealii::Function.base.31", [4 x i8] }
%"class.dealii::Functions::LSingularityFunction" = type { %"class.dealii::Function.base.15", [4 x i8] }
%"class.dealii::Functions::SlitHyperSingularityFunction" = type { %"class.dealii::Function.base.15", [4 x i8] }
%"class.__gnu_cxx::new_allocator.6" = type { i8 }
%"class.__gnu_cxx::new_allocator.1" = type { i8 }
%"class.__gnu_cxx::new_allocator.22" = type { i8 }
%"class.__gnu_cxx::new_allocator.38" = type { i8 }

$_ZNK6dealii9Functions14SquareFunctionILi1EE5valueERKNS_5PointILi1EEEj = comdat any

$_ZNK6dealii5PointILi1EE6squareEv = comdat any

$_ZNK6dealii9Functions14SquareFunctionILi1EE10value_listERKSt6vectorINS_5PointILi1EEESaIS5_EERS3_IdSaIdEEj = comdat any

$_ZNKSt6vectorIN6dealii5PointILi1EEESaIS2_EE4sizeEv = comdat any

$_ZNKSt6vectorIN6dealii5PointILi1EEESaIS2_EEixEm = comdat any

$_ZNSt6vectorIdSaIdEEixEm = comdat any

$_ZNK6dealii9Functions14SquareFunctionILi1EE8gradientERKNS_5PointILi1EEEj = comdat any

$_ZNK6dealii5PointILi1EEmlEd = comdat any

$_ZN6dealii6TensorILi1ELi1EEC2ERKS1_ = comdat any

$_ZNK6dealii9Functions14SquareFunctionILi1EE13gradient_listERKSt6vectorINS_5PointILi1EEESaIS5_EERS3_INS_6TensorILi1ELi1EEESaISB_EEj = comdat any

$_ZNSt6vectorIN6dealii6TensorILi1ELi1EEESaIS2_EEixEm = comdat any

$_ZN6dealii6TensorILi1ELi1EEaSERKS1_ = comdat any

$_ZNK6dealii9Functions14SquareFunctionILi1EE9laplacianERKNS_5PointILi1EEEj = comdat any

$_ZNK6dealii9Functions14SquareFunctionILi1EE14laplacian_listERKSt6vectorINS_5PointILi1EEESaIS5_EERS3_IdSaIdEEj = comdat any

$_ZNK6dealii9Functions14SquareFunctionILi2EE5valueERKNS_5PointILi2EEEj = comdat any

$_ZNK6dealii5PointILi2EE6squareEv = comdat any

$_ZNK6dealii9Functions14SquareFunctionILi2EE10value_listERKSt6vectorINS_5PointILi2EEESaIS5_EERS3_IdSaIdEEj = comdat any

$_ZNKSt6vectorIN6dealii5PointILi2EEESaIS2_EE4sizeEv = comdat any

$_ZNKSt6vectorIN6dealii5PointILi2EEESaIS2_EEixEm = comdat any

$_ZNK6dealii9Functions14SquareFunctionILi2EE8gradientERKNS_5PointILi2EEEj = comdat any

$_ZNK6dealii5PointILi2EEmlEd = comdat any

$_ZN6dealii6TensorILi1ELi2EEC2ERKS1_ = comdat any

$_ZNK6dealii9Functions14SquareFunctionILi2EE13gradient_listERKSt6vectorINS_5PointILi2EEESaIS5_EERS3_INS_6TensorILi1ELi2EEESaISB_EEj = comdat any

$_ZNSt6vectorIN6dealii6TensorILi1ELi2EEESaIS2_EEixEm = comdat any

$_ZN6dealii6TensorILi1ELi2EEaSERKS1_ = comdat any

$_ZNK6dealii9Functions14SquareFunctionILi2EE9laplacianERKNS_5PointILi2EEEj = comdat any

$_ZNK6dealii9Functions14SquareFunctionILi2EE14laplacian_listERKSt6vectorINS_5PointILi2EEESaIS5_EERS3_IdSaIdEEj = comdat any

$_ZNK6dealii9Functions14SquareFunctionILi3EE5valueERKNS_5PointILi3EEEj = comdat any

$_ZNK6dealii5PointILi3EE6squareEv = comdat any

$_ZNK6dealii9Functions14SquareFunctionILi3EE10value_listERKSt6vectorINS_5PointILi3EEESaIS5_EERS3_IdSaIdEEj = comdat any

$_ZNKSt6vectorIN6dealii5PointILi3EEESaIS2_EE4sizeEv = comdat any

$_ZNKSt6vectorIN6dealii5PointILi3EEESaIS2_EEixEm = comdat any

$_ZNK6dealii9Functions14SquareFunctionILi3EE8gradientERKNS_5PointILi3EEEj = comdat any

$_ZNK6dealii5PointILi3EEmlEd = comdat any

$_ZN6dealii6TensorILi1ELi3EEC2ERKS1_ = comdat any

$_ZNK6dealii9Functions14SquareFunctionILi3EE13gradient_listERKSt6vectorINS_5PointILi3EEESaIS5_EERS3_INS_6TensorILi1ELi3EEESaISB_EEj = comdat any

$_ZNSt6vectorIN6dealii6TensorILi1ELi3EEESaIS2_EEixEm = comdat any

$_ZN6dealii6TensorILi1ELi3EEaSERKS1_ = comdat any

$_ZNK6dealii9Functions14SquareFunctionILi3EE9laplacianERKNS_5PointILi3EEEj = comdat any

$_ZNK6dealii9Functions14SquareFunctionILi3EE14laplacian_listERKSt6vectorINS_5PointILi3EEESaIS5_EERS3_IdSaIdEEj = comdat any

$_ZNK6dealii9Functions15Q1WedgeFunctionILi1EE5valueERKNS_5PointILi1EEEj = comdat any

$_ZNK6dealii5PointILi1EEclEj = comdat any

$_ZNK6dealii9Functions15Q1WedgeFunctionILi1EE10value_listERKSt6vectorINS_5PointILi1EEESaIS5_EERS3_IdSaIdEEj = comdat any

$_ZNK6dealii9Functions15Q1WedgeFunctionILi1EE17vector_value_listERKSt6vectorINS_5PointILi1EEESaIS5_EERS3_INS_6VectorIdEESaISB_EE = comdat any

$_ZNSt6vectorIN6dealii6VectorIdEESaIS2_EEixEm = comdat any

$_ZN6dealii6VectorIdEclEj = comdat any

$_ZNK6dealii9Functions15Q1WedgeFunctionILi1EE8gradientERKNS_5PointILi1EEEj = comdat any

$_ZN6dealii6TensorILi1ELi1EEC2Eb = comdat any

$_ZN6dealii6TensorILi1ELi1EEixEj = comdat any

$_ZNK6dealii9Functions15Q1WedgeFunctionILi1EE13gradient_listERKSt6vectorINS_5PointILi1EEESaIS5_EERS3_INS_6TensorILi1ELi1EEESaISB_EEj = comdat any

$_ZNK6dealii9Functions15Q1WedgeFunctionILi1EE20vector_gradient_listERKSt6vectorINS_5PointILi1EEESaIS5_EERS3_IS3_INS_6TensorILi1ELi1EEESaISB_EESaISD_EE = comdat any

$_ZNSt6vectorIS_IN6dealii6TensorILi1ELi1EEESaIS2_EESaIS4_EEixEm = comdat any

$_ZNK6dealii9Functions15Q1WedgeFunctionILi1EE9laplacianERKNS_5PointILi1EEEj = comdat any

$_ZNK6dealii9Functions15Q1WedgeFunctionILi1EE14laplacian_listERKSt6vectorINS_5PointILi1EEESaIS5_EERS3_IdSaIdEEj = comdat any

$_ZNK6dealii9Functions15Q1WedgeFunctionILi2EE5valueERKNS_5PointILi2EEEj = comdat any

$_ZNK6dealii5PointILi2EEclEj = comdat any

$_ZNK6dealii9Functions15Q1WedgeFunctionILi2EE10value_listERKSt6vectorINS_5PointILi2EEESaIS5_EERS3_IdSaIdEEj = comdat any

$_ZNK6dealii9Functions15Q1WedgeFunctionILi2EE17vector_value_listERKSt6vectorINS_5PointILi2EEESaIS5_EERS3_INS_6VectorIdEESaISB_EE = comdat any

$_ZNK6dealii9Functions15Q1WedgeFunctionILi2EE8gradientERKNS_5PointILi2EEEj = comdat any

$_ZN6dealii6TensorILi1ELi2EEC2Eb = comdat any

$_ZN6dealii6TensorILi1ELi2EEixEj = comdat any

$_ZNK6dealii9Functions15Q1WedgeFunctionILi2EE13gradient_listERKSt6vectorINS_5PointILi2EEESaIS5_EERS3_INS_6TensorILi1ELi2EEESaISB_EEj = comdat any

$_ZNK6dealii9Functions15Q1WedgeFunctionILi2EE20vector_gradient_listERKSt6vectorINS_5PointILi2EEESaIS5_EERS3_IS3_INS_6TensorILi1ELi2EEESaISB_EESaISD_EE = comdat any

$_ZNSt6vectorIS_IN6dealii6TensorILi1ELi2EEESaIS2_EESaIS4_EEixEm = comdat any

$_ZNK6dealii9Functions15Q1WedgeFunctionILi2EE9laplacianERKNS_5PointILi2EEEj = comdat any

$_ZNK6dealii9Functions15Q1WedgeFunctionILi2EE14laplacian_listERKSt6vectorINS_5PointILi2EEESaIS5_EERS3_IdSaIdEEj = comdat any

$_ZNK6dealii9Functions15Q1WedgeFunctionILi3EE5valueERKNS_5PointILi3EEEj = comdat any

$_ZNK6dealii5PointILi3EEclEj = comdat any

$_ZNK6dealii9Functions15Q1WedgeFunctionILi3EE10value_listERKSt6vectorINS_5PointILi3EEESaIS5_EERS3_IdSaIdEEj = comdat any

$_ZNK6dealii9Functions15Q1WedgeFunctionILi3EE17vector_value_listERKSt6vectorINS_5PointILi3EEESaIS5_EERS3_INS_6VectorIdEESaISB_EE = comdat any

$_ZNK6dealii9Functions15Q1WedgeFunctionILi3EE8gradientERKNS_5PointILi3EEEj = comdat any

$_ZN6dealii6TensorILi1ELi3EEC2Eb = comdat any

$_ZN6dealii6TensorILi1ELi3EEixEj = comdat any

$_ZNK6dealii9Functions15Q1WedgeFunctionILi3EE13gradient_listERKSt6vectorINS_5PointILi3EEESaIS5_EERS3_INS_6TensorILi1ELi3EEESaISB_EEj = comdat any

$_ZNK6dealii9Functions15Q1WedgeFunctionILi3EE20vector_gradient_listERKSt6vectorINS_5PointILi3EEESaIS5_EERS3_IS3_INS_6TensorILi1ELi3EEESaISB_EESaISD_EE = comdat any

$_ZNSt6vectorIS_IN6dealii6TensorILi1ELi3EEESaIS2_EESaIS4_EEixEm = comdat any

$_ZNK6dealii9Functions15Q1WedgeFunctionILi3EE9laplacianERKNS_5PointILi3EEEj = comdat any

$_ZNK6dealii9Functions15Q1WedgeFunctionILi3EE14laplacian_listERKSt6vectorINS_5PointILi3EEESaIS5_EERS3_IdSaIdEEj = comdat any

$_ZN6dealii9Functions14PillowFunctionILi1EEC5Ed = comdat any

$_ZNK6dealii9Functions14PillowFunctionILi1EE5valueERKNS_5PointILi1EEEj = comdat any

$_ZNK6dealii9Functions14PillowFunctionILi1EE10value_listERKSt6vectorINS_5PointILi1EEESaIS5_EERS3_IdSaIdEEj = comdat any

$_ZNK6dealii9Functions14PillowFunctionILi1EE8gradientERKNS_5PointILi1EEEj = comdat any

$_ZNK6dealii9Functions14PillowFunctionILi1EE13gradient_listERKSt6vectorINS_5PointILi1EEESaIS5_EERS3_INS_6TensorILi1ELi1EEESaISB_EEj = comdat any

$_ZNK6dealii9Functions14PillowFunctionILi1EE9laplacianERKNS_5PointILi1EEEj = comdat any

$_ZNK6dealii9Functions14PillowFunctionILi1EE14laplacian_listERKSt6vectorINS_5PointILi1EEESaIS5_EERS3_IdSaIdEEj = comdat any

$_ZN6dealii9Functions14PillowFunctionILi2EEC5Ed = comdat any

$_ZNK6dealii9Functions14PillowFunctionILi2EE5valueERKNS_5PointILi2EEEj = comdat any

$_ZNK6dealii9Functions14PillowFunctionILi2EE10value_listERKSt6vectorINS_5PointILi2EEESaIS5_EERS3_IdSaIdEEj = comdat any

$_ZNK6dealii9Functions14PillowFunctionILi2EE8gradientERKNS_5PointILi2EEEj = comdat any

$_ZNK6dealii9Functions14PillowFunctionILi2EE13gradient_listERKSt6vectorINS_5PointILi2EEESaIS5_EERS3_INS_6TensorILi1ELi2EEESaISB_EEj = comdat any

$_ZNK6dealii9Functions14PillowFunctionILi2EE9laplacianERKNS_5PointILi2EEEj = comdat any

$_ZNK6dealii9Functions14PillowFunctionILi2EE14laplacian_listERKSt6vectorINS_5PointILi2EEESaIS5_EERS3_IdSaIdEEj = comdat any

$_ZN6dealii9Functions14PillowFunctionILi3EEC5Ed = comdat any

$_ZNK6dealii9Functions14PillowFunctionILi3EE5valueERKNS_5PointILi3EEEj = comdat any

$_ZNK6dealii9Functions14PillowFunctionILi3EE10value_listERKSt6vectorINS_5PointILi3EEESaIS5_EERS3_IdSaIdEEj = comdat any

$_ZNK6dealii9Functions14PillowFunctionILi3EE8gradientERKNS_5PointILi3EEEj = comdat any

$_ZNK6dealii9Functions14PillowFunctionILi3EE13gradient_listERKSt6vectorINS_5PointILi3EEESaIS5_EERS3_INS_6TensorILi1ELi3EEESaISB_EEj = comdat any

$_ZNK6dealii9Functions14PillowFunctionILi3EE9laplacianERKNS_5PointILi3EEEj = comdat any

$_ZNK6dealii9Functions14PillowFunctionILi3EE14laplacian_listERKSt6vectorINS_5PointILi3EEESaIS5_EERS3_IdSaIdEEj = comdat any

$_ZNK6dealii9Functions14CosineFunctionILi1EE5valueERKNS_5PointILi1EEEj = comdat any

$_ZNK6dealii9Functions14CosineFunctionILi1EE10value_listERKSt6vectorINS_5PointILi1EEESaIS5_EERS3_IdSaIdEEj = comdat any

$_ZNK6dealii9Functions14CosineFunctionILi1EE8gradientERKNS_5PointILi1EEEj = comdat any

$_ZNK6dealii9Functions14CosineFunctionILi1EE13gradient_listERKSt6vectorINS_5PointILi1EEESaIS5_EERS3_INS_6TensorILi1ELi1EEESaISB_EEj = comdat any

$_ZNK6dealii9Functions14CosineFunctionILi1EE9laplacianERKNS_5PointILi1EEEj = comdat any

$_ZNK6dealii9Functions14CosineFunctionILi1EE14laplacian_listERKSt6vectorINS_5PointILi1EEESaIS5_EERS3_IdSaIdEEj = comdat any

$_ZNK6dealii9Functions14CosineFunctionILi1EE7hessianERKNS_5PointILi1EEEj = comdat any

$_ZN6dealii6TensorILi2ELi1EEC2Ev = comdat any

$_ZN6dealii6TensorILi2ELi1EEixEj = comdat any

$_ZNK6dealii9Functions14CosineFunctionILi1EE12hessian_listERKSt6vectorINS_5PointILi1EEESaIS5_EERS3_INS_6TensorILi2ELi1EEESaISB_EEj = comdat any

$_ZNSt6vectorIN6dealii6TensorILi2ELi1EEESaIS2_EEixEm = comdat any

$_ZNK6dealii9Functions14CosineFunctionILi2EE5valueERKNS_5PointILi2EEEj = comdat any

$_ZNK6dealii9Functions14CosineFunctionILi2EE10value_listERKSt6vectorINS_5PointILi2EEESaIS5_EERS3_IdSaIdEEj = comdat any

$_ZNK6dealii9Functions14CosineFunctionILi2EE8gradientERKNS_5PointILi2EEEj = comdat any

$_ZNK6dealii9Functions14CosineFunctionILi2EE13gradient_listERKSt6vectorINS_5PointILi2EEESaIS5_EERS3_INS_6TensorILi1ELi2EEESaISB_EEj = comdat any

$_ZNK6dealii9Functions14CosineFunctionILi2EE9laplacianERKNS_5PointILi2EEEj = comdat any

$_ZNK6dealii9Functions14CosineFunctionILi2EE14laplacian_listERKSt6vectorINS_5PointILi2EEESaIS5_EERS3_IdSaIdEEj = comdat any

$_ZNK6dealii9Functions14CosineFunctionILi2EE7hessianERKNS_5PointILi2EEEj = comdat any

$_ZN6dealii6TensorILi2ELi2EEC2Ev = comdat any

$_ZN6dealii6TensorILi2ELi2EEixEj = comdat any

$_ZNK6dealii9Functions14CosineFunctionILi2EE12hessian_listERKSt6vectorINS_5PointILi2EEESaIS5_EERS3_INS_6TensorILi2ELi2EEESaISB_EEj = comdat any

$_ZNSt6vectorIN6dealii6TensorILi2ELi2EEESaIS2_EEixEm = comdat any

$_ZNK6dealii9Functions14CosineFunctionILi3EE5valueERKNS_5PointILi3EEEj = comdat any

$_ZNK6dealii9Functions14CosineFunctionILi3EE10value_listERKSt6vectorINS_5PointILi3EEESaIS5_EERS3_IdSaIdEEj = comdat any

$_ZNK6dealii9Functions14CosineFunctionILi3EE8gradientERKNS_5PointILi3EEEj = comdat any

$_ZNK6dealii9Functions14CosineFunctionILi3EE13gradient_listERKSt6vectorINS_5PointILi3EEESaIS5_EERS3_INS_6TensorILi1ELi3EEESaISB_EEj = comdat any

$_ZNK6dealii9Functions14CosineFunctionILi3EE9laplacianERKNS_5PointILi3EEEj = comdat any

$_ZNK6dealii9Functions14CosineFunctionILi3EE14laplacian_listERKSt6vectorINS_5PointILi3EEESaIS5_EERS3_IdSaIdEEj = comdat any

$_ZNK6dealii9Functions14CosineFunctionILi3EE7hessianERKNS_5PointILi3EEEj = comdat any

$_ZN6dealii6TensorILi2ELi3EEC2Ev = comdat any

$_ZN6dealii6TensorILi2ELi3EEixEj = comdat any

$_ZNK6dealii9Functions14CosineFunctionILi3EE12hessian_listERKSt6vectorINS_5PointILi3EEESaIS5_EERS3_INS_6TensorILi2ELi3EEESaISB_EEj = comdat any

$_ZNSt6vectorIN6dealii6TensorILi2ELi3EEESaIS2_EEixEm = comdat any

$_ZNK6dealii9Functions11ExpFunctionILi1EE5valueERKNS_5PointILi1EEEj = comdat any

$_ZNK6dealii9Functions11ExpFunctionILi1EE10value_listERKSt6vectorINS_5PointILi1EEESaIS5_EERS3_IdSaIdEEj = comdat any

$_ZNK6dealii9Functions11ExpFunctionILi1EE8gradientERKNS_5PointILi1EEEj = comdat any

$_ZNK6dealii9Functions11ExpFunctionILi1EE13gradient_listERKSt6vectorINS_5PointILi1EEESaIS5_EERS3_INS_6TensorILi1ELi1EEESaISB_EEj = comdat any

$_ZNK6dealii9Functions11ExpFunctionILi1EE9laplacianERKNS_5PointILi1EEEj = comdat any

$_ZNK6dealii9Functions11ExpFunctionILi1EE14laplacian_listERKSt6vectorINS_5PointILi1EEESaIS5_EERS3_IdSaIdEEj = comdat any

$_ZNK6dealii9Functions11ExpFunctionILi2EE5valueERKNS_5PointILi2EEEj = comdat any

$_ZNK6dealii9Functions11ExpFunctionILi2EE10value_listERKSt6vectorINS_5PointILi2EEESaIS5_EERS3_IdSaIdEEj = comdat any

$_ZNK6dealii9Functions11ExpFunctionILi2EE8gradientERKNS_5PointILi2EEEj = comdat any

$_ZNK6dealii9Functions11ExpFunctionILi2EE13gradient_listERKSt6vectorINS_5PointILi2EEESaIS5_EERS3_INS_6TensorILi1ELi2EEESaISB_EEj = comdat any

$_ZNK6dealii9Functions11ExpFunctionILi2EE9laplacianERKNS_5PointILi2EEEj = comdat any

$_ZNK6dealii9Functions11ExpFunctionILi2EE14laplacian_listERKSt6vectorINS_5PointILi2EEESaIS5_EERS3_IdSaIdEEj = comdat any

$_ZNK6dealii9Functions11ExpFunctionILi3EE5valueERKNS_5PointILi3EEEj = comdat any

$_ZNK6dealii9Functions11ExpFunctionILi3EE10value_listERKSt6vectorINS_5PointILi3EEESaIS5_EERS3_IdSaIdEEj = comdat any

$_ZNK6dealii9Functions11ExpFunctionILi3EE8gradientERKNS_5PointILi3EEEj = comdat any

$_ZNK6dealii9Functions11ExpFunctionILi3EE13gradient_listERKSt6vectorINS_5PointILi3EEESaIS5_EERS3_INS_6TensorILi1ELi3EEESaISB_EEj = comdat any

$_ZNK6dealii9Functions11ExpFunctionILi3EE9laplacianERKNS_5PointILi3EEEj = comdat any

$_ZNK6dealii9Functions11ExpFunctionILi3EE14laplacian_listERKSt6vectorINS_5PointILi3EEESaIS5_EERS3_IdSaIdEEj = comdat any

$_ZN6dealii9Functions12JumpFunctionILi1EEC5ERKNS_5PointILi1EEEd = comdat any

$_ZN6dealii5PointILi1EEC2ERKS1_ = comdat any

$_ZNK6dealii9Functions12JumpFunctionILi1EE5valueERKNS_5PointILi1EEEj = comdat any

$_ZNK6dealii9Functions12JumpFunctionILi1EE10value_listERKSt6vectorINS_5PointILi1EEESaIS5_EERS3_IdSaIdEEj = comdat any

$_ZNK6dealii9Functions12JumpFunctionILi1EE8gradientERKNS_5PointILi1EEEj = comdat any

$_ZNK6dealii9Functions12JumpFunctionILi1EE13gradient_listERKSt6vectorINS_5PointILi1EEESaIS5_EERS3_INS_6TensorILi1ELi1EEESaISB_EEj = comdat any

$_ZNK6dealii9Functions12JumpFunctionILi1EE9laplacianERKNS_5PointILi1EEEj = comdat any

$_ZNK6dealii9Functions12JumpFunctionILi1EE14laplacian_listERKSt6vectorINS_5PointILi1EEESaIS5_EERS3_IdSaIdEEj = comdat any

$_ZNK6dealii9Functions12JumpFunctionILi1EE18memory_consumptionEv = comdat any

$_ZN6dealii9Functions12JumpFunctionILi2EEC5ERKNS_5PointILi2EEEd = comdat any

$_ZN6dealii5PointILi2EEC2ERKS1_ = comdat any

$_ZNK6dealii9Functions12JumpFunctionILi2EE5valueERKNS_5PointILi2EEEj = comdat any

$_ZNK6dealii9Functions12JumpFunctionILi2EE10value_listERKSt6vectorINS_5PointILi2EEESaIS5_EERS3_IdSaIdEEj = comdat any

$_ZNK6dealii9Functions12JumpFunctionILi2EE8gradientERKNS_5PointILi2EEEj = comdat any

$_ZNK6dealii9Functions12JumpFunctionILi2EE13gradient_listERKSt6vectorINS_5PointILi2EEESaIS5_EERS3_INS_6TensorILi1ELi2EEESaISB_EEj = comdat any

$_ZNK6dealii9Functions12JumpFunctionILi2EE9laplacianERKNS_5PointILi2EEEj = comdat any

$_ZNK6dealii9Functions12JumpFunctionILi2EE14laplacian_listERKSt6vectorINS_5PointILi2EEESaIS5_EERS3_IdSaIdEEj = comdat any

$_ZNK6dealii9Functions12JumpFunctionILi2EE18memory_consumptionEv = comdat any

$_ZN6dealii9Functions12JumpFunctionILi3EEC5ERKNS_5PointILi3EEEd = comdat any

$_ZN6dealii5PointILi3EEC2ERKS1_ = comdat any

$_ZNK6dealii9Functions12JumpFunctionILi3EE5valueERKNS_5PointILi3EEEj = comdat any

$_ZNK6dealii9Functions12JumpFunctionILi3EE10value_listERKSt6vectorINS_5PointILi3EEESaIS5_EERS3_IdSaIdEEj = comdat any

$_ZNK6dealii9Functions12JumpFunctionILi3EE8gradientERKNS_5PointILi3EEEj = comdat any

$_ZNK6dealii9Functions12JumpFunctionILi3EE13gradient_listERKSt6vectorINS_5PointILi3EEESaIS5_EERS3_INS_6TensorILi1ELi3EEESaISB_EEj = comdat any

$_ZNK6dealii9Functions12JumpFunctionILi3EE9laplacianERKNS_5PointILi3EEEj = comdat any

$_ZNK6dealii9Functions12JumpFunctionILi3EE14laplacian_listERKSt6vectorINS_5PointILi3EEESaIS5_EERS3_IdSaIdEEj = comdat any

$_ZNK6dealii9Functions12JumpFunctionILi3EE18memory_consumptionEv = comdat any

$_ZN6dealii9Functions21FourierCosineFunctionILi1EEC5ERKNS_5PointILi1EEE = comdat any

$_ZNK6dealii9Functions21FourierCosineFunctionILi1EE5valueERKNS_5PointILi1EEEj = comdat any

$_ZNK6dealii5PointILi1EEmlERKNS_6TensorILi1ELi1EEE = comdat any

$_ZNK6dealii9Functions21FourierCosineFunctionILi1EE8gradientERKNS_5PointILi1EEEj = comdat any

$_ZNK6dealii5PointILi1EEngEv = comdat any

$_ZNK6dealii9Functions21FourierCosineFunctionILi1EE9laplacianERKNS_5PointILi1EEEj = comdat any

$_ZN6dealii9Functions21FourierCosineFunctionILi2EEC5ERKNS_5PointILi2EEE = comdat any

$_ZNK6dealii9Functions21FourierCosineFunctionILi2EE5valueERKNS_5PointILi2EEEj = comdat any

$_ZNK6dealii5PointILi2EEmlERKNS_6TensorILi1ELi2EEE = comdat any

$_ZNK6dealii9Functions21FourierCosineFunctionILi2EE8gradientERKNS_5PointILi2EEEj = comdat any

$_ZNK6dealii5PointILi2EEngEv = comdat any

$_ZNK6dealii9Functions21FourierCosineFunctionILi2EE9laplacianERKNS_5PointILi2EEEj = comdat any

$_ZN6dealii9Functions21FourierCosineFunctionILi3EEC5ERKNS_5PointILi3EEE = comdat any

$_ZNK6dealii9Functions21FourierCosineFunctionILi3EE5valueERKNS_5PointILi3EEEj = comdat any

$_ZNK6dealii5PointILi3EEmlERKNS_6TensorILi1ELi3EEE = comdat any

$_ZNK6dealii9Functions21FourierCosineFunctionILi3EE8gradientERKNS_5PointILi3EEEj = comdat any

$_ZNK6dealii5PointILi3EEngEv = comdat any

$_ZNK6dealii9Functions21FourierCosineFunctionILi3EE9laplacianERKNS_5PointILi3EEEj = comdat any

$_ZN6dealii9Functions19FourierSineFunctionILi1EEC5ERKNS_5PointILi1EEE = comdat any

$_ZNK6dealii9Functions19FourierSineFunctionILi1EE5valueERKNS_5PointILi1EEEj = comdat any

$_ZNK6dealii9Functions19FourierSineFunctionILi1EE8gradientERKNS_5PointILi1EEEj = comdat any

$_ZNK6dealii9Functions19FourierSineFunctionILi1EE9laplacianERKNS_5PointILi1EEEj = comdat any

$_ZN6dealii9Functions19FourierSineFunctionILi2EEC5ERKNS_5PointILi2EEE = comdat any

$_ZNK6dealii9Functions19FourierSineFunctionILi2EE5valueERKNS_5PointILi2EEEj = comdat any

$_ZNK6dealii9Functions19FourierSineFunctionILi2EE8gradientERKNS_5PointILi2EEEj = comdat any

$_ZNK6dealii9Functions19FourierSineFunctionILi2EE9laplacianERKNS_5PointILi2EEEj = comdat any

$_ZN6dealii9Functions19FourierSineFunctionILi3EEC5ERKNS_5PointILi3EEE = comdat any

$_ZNK6dealii9Functions19FourierSineFunctionILi3EE5valueERKNS_5PointILi3EEEj = comdat any

$_ZNK6dealii9Functions19FourierSineFunctionILi3EE8gradientERKNS_5PointILi3EEEj = comdat any

$_ZNK6dealii9Functions19FourierSineFunctionILi3EE9laplacianERKNS_5PointILi3EEEj = comdat any

$_ZN6dealii9Functions16FourierCosineSumILi1EEC5ERKSt6vectorINS_5PointILi1EEESaIS5_EERKS3_IdSaIdEE = comdat any

$_ZNSt6vectorIN6dealii5PointILi1EEESaIS2_EEC2ERKS4_ = comdat any

$_ZNSt6vectorIdSaIdEEC2ERKS1_ = comdat any

$_ZNSt6vectorIN6dealii5PointILi1EEESaIS2_EED2Ev = comdat any

$_ZNK6dealii9Functions16FourierCosineSumILi1EE5valueERKNS_5PointILi1EEEj = comdat any

$_ZNKSt6vectorIdSaIdEE4sizeEv = comdat any

$_ZNKSt6vectorIdSaIdEEixEm = comdat any

$_ZNK6dealii9Functions16FourierCosineSumILi1EE8gradientERKNS_5PointILi1EEEj = comdat any

$_ZN6dealii6TensorILi1ELi1EEmIERKS1_ = comdat any

$_ZNK6dealii9Functions16FourierCosineSumILi1EE9laplacianERKNS_5PointILi1EEEj = comdat any

$_ZN6dealii9Functions16FourierCosineSumILi2EEC5ERKSt6vectorINS_5PointILi2EEESaIS5_EERKS3_IdSaIdEE = comdat any

$_ZNSt6vectorIN6dealii5PointILi2EEESaIS2_EEC2ERKS4_ = comdat any

$_ZNSt6vectorIN6dealii5PointILi2EEESaIS2_EED2Ev = comdat any

$_ZNK6dealii9Functions16FourierCosineSumILi2EE5valueERKNS_5PointILi2EEEj = comdat any

$_ZNK6dealii9Functions16FourierCosineSumILi2EE8gradientERKNS_5PointILi2EEEj = comdat any

$_ZN6dealii6TensorILi1ELi2EEmIERKS1_ = comdat any

$_ZNK6dealii9Functions16FourierCosineSumILi2EE9laplacianERKNS_5PointILi2EEEj = comdat any

$_ZN6dealii9Functions16FourierCosineSumILi3EEC5ERKSt6vectorINS_5PointILi3EEESaIS5_EERKS3_IdSaIdEE = comdat any

$_ZNSt6vectorIN6dealii5PointILi3EEESaIS2_EEC2ERKS4_ = comdat any

$_ZNSt6vectorIN6dealii5PointILi3EEESaIS2_EED2Ev = comdat any

$_ZNK6dealii9Functions16FourierCosineSumILi3EE5valueERKNS_5PointILi3EEEj = comdat any

$_ZNK6dealii9Functions16FourierCosineSumILi3EE8gradientERKNS_5PointILi3EEEj = comdat any

$_ZN6dealii6TensorILi1ELi3EEmIERKS1_ = comdat any

$_ZNK6dealii9Functions16FourierCosineSumILi3EE9laplacianERKNS_5PointILi3EEEj = comdat any

$_ZN6dealii9Functions14FourierSineSumILi1EEC5ERKSt6vectorINS_5PointILi1EEESaIS5_EERKS3_IdSaIdEE = comdat any

$_ZNK6dealii9Functions14FourierSineSumILi1EE5valueERKNS_5PointILi1EEEj = comdat any

$_ZNK6dealii9Functions14FourierSineSumILi1EE8gradientERKNS_5PointILi1EEEj = comdat any

$_ZN6dealii6TensorILi1ELi1EEpLERKS1_ = comdat any

$_ZNK6dealii9Functions14FourierSineSumILi1EE9laplacianERKNS_5PointILi1EEEj = comdat any

$_ZN6dealii9Functions14FourierSineSumILi2EEC5ERKSt6vectorINS_5PointILi2EEESaIS5_EERKS3_IdSaIdEE = comdat any

$_ZNK6dealii9Functions14FourierSineSumILi2EE5valueERKNS_5PointILi2EEEj = comdat any

$_ZNK6dealii9Functions14FourierSineSumILi2EE8gradientERKNS_5PointILi2EEEj = comdat any

$_ZN6dealii6TensorILi1ELi2EEpLERKS1_ = comdat any

$_ZNK6dealii9Functions14FourierSineSumILi2EE9laplacianERKNS_5PointILi2EEEj = comdat any

$_ZN6dealii9Functions14FourierSineSumILi3EEC5ERKSt6vectorINS_5PointILi3EEESaIS5_EERKS3_IdSaIdEE = comdat any

$_ZNK6dealii9Functions14FourierSineSumILi3EE5valueERKNS_5PointILi3EEEj = comdat any

$_ZNK6dealii9Functions14FourierSineSumILi3EE8gradientERKNS_5PointILi3EEEj = comdat any

$_ZN6dealii6TensorILi1ELi3EEpLERKS1_ = comdat any

$_ZNK6dealii9Functions14FourierSineSumILi3EE9laplacianERKNS_5PointILi3EEEj = comdat any

$_ZNK6dealii9Functions23SlitSingularityFunctionILi2EE5valueERKNS_5PointILi2EEEj = comdat any

$_ZNK6dealii9Functions23SlitSingularityFunctionILi2EE10value_listERKSt6vectorINS_5PointILi2EEESaIS5_EERS3_IdSaIdEEj = comdat any

$_ZNK6dealii9Functions23SlitSingularityFunctionILi2EE17vector_value_listERKSt6vectorINS_5PointILi2EEESaIS5_EERS3_INS_6VectorIdEESaISB_EE = comdat any

$_ZNK6dealii9Functions23SlitSingularityFunctionILi2EE8gradientERKNS_5PointILi2EEEj = comdat any

$_ZNK6dealii9Functions23SlitSingularityFunctionILi2EE13gradient_listERKSt6vectorINS_5PointILi2EEESaIS5_EERS3_INS_6TensorILi1ELi2EEESaISB_EEj = comdat any

$_ZNK6dealii9Functions23SlitSingularityFunctionILi2EE20vector_gradient_listERKSt6vectorINS_5PointILi2EEESaIS5_EERS3_IS3_INS_6TensorILi1ELi2EEESaISB_EESaISD_EE = comdat any

$_ZNK6dealii9Functions23SlitSingularityFunctionILi2EE9laplacianERKNS_5PointILi2EEEj = comdat any

$_ZNK6dealii9Functions23SlitSingularityFunctionILi2EE14laplacian_listERKSt6vectorINS_5PointILi2EEESaIS5_EERS3_IdSaIdEEj = comdat any

$_ZNK6dealii9Functions23SlitSingularityFunctionILi3EE5valueERKNS_5PointILi3EEEj = comdat any

$_ZNK6dealii9Functions23SlitSingularityFunctionILi3EE10value_listERKSt6vectorINS_5PointILi3EEESaIS5_EERS3_IdSaIdEEj = comdat any

$_ZNK6dealii9Functions23SlitSingularityFunctionILi3EE17vector_value_listERKSt6vectorINS_5PointILi3EEESaIS5_EERS3_INS_6VectorIdEESaISB_EE = comdat any

$_ZNK6dealii9Functions23SlitSingularityFunctionILi3EE8gradientERKNS_5PointILi3EEEj = comdat any

$_ZNK6dealii9Functions23SlitSingularityFunctionILi3EE13gradient_listERKSt6vectorINS_5PointILi3EEESaIS5_EERS3_INS_6TensorILi1ELi3EEESaISB_EEj = comdat any

$_ZNK6dealii9Functions23SlitSingularityFunctionILi3EE20vector_gradient_listERKSt6vectorINS_5PointILi3EEESaIS5_EERS3_IS3_INS_6TensorILi1ELi3EEESaISB_EESaISD_EE = comdat any

$_ZNK6dealii9Functions23SlitSingularityFunctionILi3EE9laplacianERKNS_5PointILi3EEEj = comdat any

$_ZNK6dealii9Functions23SlitSingularityFunctionILi3EE14laplacian_listERKSt6vectorINS_5PointILi3EEESaIS5_EERS3_IdSaIdEEj = comdat any

$_ZN6dealii9Functions8MonomialILi1EEC5ERKNS_6TensorILi1ELi1EEEj = comdat any

$_ZNK6dealii9Functions8MonomialILi1EE5valueERKNS_5PointILi1EEEj = comdat any

$_ZNK6dealii6TensorILi1ELi1EEixEj = comdat any

$_ZNK6dealii9Functions8MonomialILi1EE12vector_valueERKNS_5PointILi1EEERNS_6VectorIdEE = comdat any

$_ZNK6dealii6VectorIdE4sizeEv = comdat any

$_ZNK6dealii9Functions8MonomialILi1EE10value_listERKSt6vectorINS_5PointILi1EEESaIS5_EERS3_IdSaIdEEj = comdat any

$_ZNK6dealii9Functions8MonomialILi1EE8gradientERKNS_5PointILi1EEEj = comdat any

$_ZN6dealii9Functions8MonomialILi2EEC5ERKNS_6TensorILi1ELi2EEEj = comdat any

$_ZNK6dealii9Functions8MonomialILi2EE5valueERKNS_5PointILi2EEEj = comdat any

$_ZNK6dealii6TensorILi1ELi2EEixEj = comdat any

$_ZNK6dealii9Functions8MonomialILi2EE12vector_valueERKNS_5PointILi2EEERNS_6VectorIdEE = comdat any

$_ZNK6dealii9Functions8MonomialILi2EE10value_listERKSt6vectorINS_5PointILi2EEESaIS5_EERS3_IdSaIdEEj = comdat any

$_ZNK6dealii9Functions8MonomialILi2EE8gradientERKNS_5PointILi2EEEj = comdat any

$_ZN6dealii9Functions8MonomialILi3EEC5ERKNS_6TensorILi1ELi3EEEj = comdat any

$_ZNK6dealii9Functions8MonomialILi3EE5valueERKNS_5PointILi3EEEj = comdat any

$_ZNK6dealii6TensorILi1ELi3EEixEj = comdat any

$_ZNK6dealii9Functions8MonomialILi3EE12vector_valueERKNS_5PointILi3EEERNS_6VectorIdEE = comdat any

$_ZNK6dealii9Functions8MonomialILi3EE10value_listERKSt6vectorINS_5PointILi3EEESaIS5_EERS3_IdSaIdEEj = comdat any

$_ZNK6dealii9Functions8MonomialILi3EE8gradientERKNS_5PointILi3EEEj = comdat any

$_ZN6dealii9Functions20LSingularityFunctionD2Ev = comdat any

$_ZN6dealii9Functions20LSingularityFunctionD0Ev = comdat any

$_ZThn16_N6dealii9Functions20LSingularityFunctionD1Ev = comdat any

$_ZThn16_N6dealii9Functions20LSingularityFunctionD0Ev = comdat any

$_ZN6dealii9Functions28SlitHyperSingularityFunctionD2Ev = comdat any

$_ZN6dealii9Functions28SlitHyperSingularityFunctionD0Ev = comdat any

$_ZThn16_N6dealii9Functions28SlitHyperSingularityFunctionD1Ev = comdat any

$_ZThn16_N6dealii9Functions28SlitHyperSingularityFunctionD0Ev = comdat any

$_ZN6dealii9Functions14SquareFunctionILi1EED2Ev = comdat any

$_ZN6dealii9Functions14SquareFunctionILi1EED0Ev = comdat any

$_ZThn16_N6dealii9Functions14SquareFunctionILi1EED1Ev = comdat any

$_ZThn16_N6dealii9Functions14SquareFunctionILi1EED0Ev = comdat any

$_ZN6dealii9Functions14SquareFunctionILi2EED2Ev = comdat any

$_ZN6dealii9Functions14SquareFunctionILi2EED0Ev = comdat any

$_ZThn16_N6dealii9Functions14SquareFunctionILi2EED1Ev = comdat any

$_ZThn16_N6dealii9Functions14SquareFunctionILi2EED0Ev = comdat any

$_ZN6dealii9Functions14SquareFunctionILi3EED2Ev = comdat any

$_ZN6dealii9Functions14SquareFunctionILi3EED0Ev = comdat any

$_ZThn16_N6dealii9Functions14SquareFunctionILi3EED1Ev = comdat any

$_ZThn16_N6dealii9Functions14SquareFunctionILi3EED0Ev = comdat any

$_ZN6dealii9Functions15Q1WedgeFunctionILi1EED2Ev = comdat any

$_ZN6dealii9Functions15Q1WedgeFunctionILi1EED0Ev = comdat any

$_ZThn16_N6dealii9Functions15Q1WedgeFunctionILi1EED1Ev = comdat any

$_ZThn16_N6dealii9Functions15Q1WedgeFunctionILi1EED0Ev = comdat any

$_ZN6dealii9Functions15Q1WedgeFunctionILi2EED2Ev = comdat any

$_ZN6dealii9Functions15Q1WedgeFunctionILi2EED0Ev = comdat any

$_ZThn16_N6dealii9Functions15Q1WedgeFunctionILi2EED1Ev = comdat any

$_ZThn16_N6dealii9Functions15Q1WedgeFunctionILi2EED0Ev = comdat any

$_ZN6dealii9Functions15Q1WedgeFunctionILi3EED2Ev = comdat any

$_ZN6dealii9Functions15Q1WedgeFunctionILi3EED0Ev = comdat any

$_ZThn16_N6dealii9Functions15Q1WedgeFunctionILi3EED1Ev = comdat any

$_ZThn16_N6dealii9Functions15Q1WedgeFunctionILi3EED0Ev = comdat any

$_ZN6dealii9Functions14PillowFunctionILi1EED2Ev = comdat any

$_ZN6dealii9Functions14PillowFunctionILi1EED0Ev = comdat any

$_ZThn16_N6dealii9Functions14PillowFunctionILi1EED1Ev = comdat any

$_ZThn16_N6dealii9Functions14PillowFunctionILi1EED0Ev = comdat any

$_ZN6dealii9Functions14PillowFunctionILi2EED2Ev = comdat any

$_ZN6dealii9Functions14PillowFunctionILi2EED0Ev = comdat any

$_ZThn16_N6dealii9Functions14PillowFunctionILi2EED1Ev = comdat any

$_ZThn16_N6dealii9Functions14PillowFunctionILi2EED0Ev = comdat any

$_ZN6dealii9Functions14PillowFunctionILi3EED2Ev = comdat any

$_ZN6dealii9Functions14PillowFunctionILi3EED0Ev = comdat any

$_ZThn16_N6dealii9Functions14PillowFunctionILi3EED1Ev = comdat any

$_ZThn16_N6dealii9Functions14PillowFunctionILi3EED0Ev = comdat any

$_ZN6dealii9Functions14CosineFunctionILi1EED2Ev = comdat any

$_ZN6dealii9Functions14CosineFunctionILi1EED0Ev = comdat any

$_ZThn16_N6dealii9Functions14CosineFunctionILi1EED1Ev = comdat any

$_ZThn16_N6dealii9Functions14CosineFunctionILi1EED0Ev = comdat any

$_ZN6dealii9Functions14CosineFunctionILi2EED2Ev = comdat any

$_ZN6dealii9Functions14CosineFunctionILi2EED0Ev = comdat any

$_ZThn16_N6dealii9Functions14CosineFunctionILi2EED1Ev = comdat any

$_ZThn16_N6dealii9Functions14CosineFunctionILi2EED0Ev = comdat any

$_ZN6dealii9Functions14CosineFunctionILi3EED2Ev = comdat any

$_ZN6dealii9Functions14CosineFunctionILi3EED0Ev = comdat any

$_ZThn16_N6dealii9Functions14CosineFunctionILi3EED1Ev = comdat any

$_ZThn16_N6dealii9Functions14CosineFunctionILi3EED0Ev = comdat any

$_ZN6dealii9Functions11ExpFunctionILi1EED2Ev = comdat any

$_ZN6dealii9Functions11ExpFunctionILi1EED0Ev = comdat any

$_ZThn16_N6dealii9Functions11ExpFunctionILi1EED1Ev = comdat any

$_ZThn16_N6dealii9Functions11ExpFunctionILi1EED0Ev = comdat any

$_ZN6dealii9Functions11ExpFunctionILi2EED2Ev = comdat any

$_ZN6dealii9Functions11ExpFunctionILi2EED0Ev = comdat any

$_ZThn16_N6dealii9Functions11ExpFunctionILi2EED1Ev = comdat any

$_ZThn16_N6dealii9Functions11ExpFunctionILi2EED0Ev = comdat any

$_ZN6dealii9Functions11ExpFunctionILi3EED2Ev = comdat any

$_ZN6dealii9Functions11ExpFunctionILi3EED0Ev = comdat any

$_ZThn16_N6dealii9Functions11ExpFunctionILi3EED1Ev = comdat any

$_ZThn16_N6dealii9Functions11ExpFunctionILi3EED0Ev = comdat any

$_ZN6dealii9Functions12JumpFunctionILi1EED2Ev = comdat any

$_ZN6dealii9Functions12JumpFunctionILi1EED0Ev = comdat any

$_ZThn16_N6dealii9Functions12JumpFunctionILi1EED1Ev = comdat any

$_ZThn16_N6dealii9Functions12JumpFunctionILi1EED0Ev = comdat any

$_ZN6dealii9Functions12JumpFunctionILi2EED2Ev = comdat any

$_ZN6dealii9Functions12JumpFunctionILi2EED0Ev = comdat any

$_ZThn16_N6dealii9Functions12JumpFunctionILi2EED1Ev = comdat any

$_ZThn16_N6dealii9Functions12JumpFunctionILi2EED0Ev = comdat any

$_ZN6dealii9Functions12JumpFunctionILi3EED2Ev = comdat any

$_ZN6dealii9Functions12JumpFunctionILi3EED0Ev = comdat any

$_ZThn16_N6dealii9Functions12JumpFunctionILi3EED1Ev = comdat any

$_ZThn16_N6dealii9Functions12JumpFunctionILi3EED0Ev = comdat any

$_ZN6dealii9Functions21FourierCosineFunctionILi1EED2Ev = comdat any

$_ZN6dealii9Functions21FourierCosineFunctionILi1EED0Ev = comdat any

$_ZThn16_N6dealii9Functions21FourierCosineFunctionILi1EED1Ev = comdat any

$_ZThn16_N6dealii9Functions21FourierCosineFunctionILi1EED0Ev = comdat any

$_ZN6dealii9Functions21FourierCosineFunctionILi2EED2Ev = comdat any

$_ZN6dealii9Functions21FourierCosineFunctionILi2EED0Ev = comdat any

$_ZThn16_N6dealii9Functions21FourierCosineFunctionILi2EED1Ev = comdat any

$_ZThn16_N6dealii9Functions21FourierCosineFunctionILi2EED0Ev = comdat any

$_ZN6dealii9Functions21FourierCosineFunctionILi3EED2Ev = comdat any

$_ZN6dealii9Functions21FourierCosineFunctionILi3EED0Ev = comdat any

$_ZThn16_N6dealii9Functions21FourierCosineFunctionILi3EED1Ev = comdat any

$_ZThn16_N6dealii9Functions21FourierCosineFunctionILi3EED0Ev = comdat any

$_ZN6dealii9Functions19FourierSineFunctionILi1EED2Ev = comdat any

$_ZN6dealii9Functions19FourierSineFunctionILi1EED0Ev = comdat any

$_ZThn16_N6dealii9Functions19FourierSineFunctionILi1EED1Ev = comdat any

$_ZThn16_N6dealii9Functions19FourierSineFunctionILi1EED0Ev = comdat any

$_ZN6dealii9Functions19FourierSineFunctionILi2EED2Ev = comdat any

$_ZN6dealii9Functions19FourierSineFunctionILi2EED0Ev = comdat any

$_ZThn16_N6dealii9Functions19FourierSineFunctionILi2EED1Ev = comdat any

$_ZThn16_N6dealii9Functions19FourierSineFunctionILi2EED0Ev = comdat any

$_ZN6dealii9Functions19FourierSineFunctionILi3EED2Ev = comdat any

$_ZN6dealii9Functions19FourierSineFunctionILi3EED0Ev = comdat any

$_ZThn16_N6dealii9Functions19FourierSineFunctionILi3EED1Ev = comdat any

$_ZThn16_N6dealii9Functions19FourierSineFunctionILi3EED0Ev = comdat any

$_ZN6dealii9Functions16FourierCosineSumILi1EED2Ev = comdat any

$_ZN6dealii9Functions16FourierCosineSumILi1EED0Ev = comdat any

$_ZThn16_N6dealii9Functions16FourierCosineSumILi1EED1Ev = comdat any

$_ZThn16_N6dealii9Functions16FourierCosineSumILi1EED0Ev = comdat any

$_ZN6dealii9Functions16FourierCosineSumILi2EED2Ev = comdat any

$_ZN6dealii9Functions16FourierCosineSumILi2EED0Ev = comdat any

$_ZThn16_N6dealii9Functions16FourierCosineSumILi2EED1Ev = comdat any

$_ZThn16_N6dealii9Functions16FourierCosineSumILi2EED0Ev = comdat any

$_ZN6dealii9Functions16FourierCosineSumILi3EED2Ev = comdat any

$_ZN6dealii9Functions16FourierCosineSumILi3EED0Ev = comdat any

$_ZThn16_N6dealii9Functions16FourierCosineSumILi3EED1Ev = comdat any

$_ZThn16_N6dealii9Functions16FourierCosineSumILi3EED0Ev = comdat any

$_ZN6dealii9Functions14FourierSineSumILi1EED2Ev = comdat any

$_ZN6dealii9Functions14FourierSineSumILi1EED0Ev = comdat any

$_ZThn16_N6dealii9Functions14FourierSineSumILi1EED1Ev = comdat any

$_ZThn16_N6dealii9Functions14FourierSineSumILi1EED0Ev = comdat any

$_ZN6dealii9Functions14FourierSineSumILi2EED2Ev = comdat any

$_ZN6dealii9Functions14FourierSineSumILi2EED0Ev = comdat any

$_ZThn16_N6dealii9Functions14FourierSineSumILi2EED1Ev = comdat any

$_ZThn16_N6dealii9Functions14FourierSineSumILi2EED0Ev = comdat any

$_ZN6dealii9Functions14FourierSineSumILi3EED2Ev = comdat any

$_ZN6dealii9Functions14FourierSineSumILi3EED0Ev = comdat any

$_ZThn16_N6dealii9Functions14FourierSineSumILi3EED1Ev = comdat any

$_ZThn16_N6dealii9Functions14FourierSineSumILi3EED0Ev = comdat any

$_ZN6dealii9Functions23SlitSingularityFunctionILi2EED2Ev = comdat any

$_ZN6dealii9Functions23SlitSingularityFunctionILi2EED0Ev = comdat any

$_ZThn16_N6dealii9Functions23SlitSingularityFunctionILi2EED1Ev = comdat any

$_ZThn16_N6dealii9Functions23SlitSingularityFunctionILi2EED0Ev = comdat any

$_ZN6dealii9Functions23SlitSingularityFunctionILi3EED2Ev = comdat any

$_ZN6dealii9Functions23SlitSingularityFunctionILi3EED0Ev = comdat any

$_ZThn16_N6dealii9Functions23SlitSingularityFunctionILi3EED1Ev = comdat any

$_ZThn16_N6dealii9Functions23SlitSingularityFunctionILi3EED0Ev = comdat any

$_ZN6dealii9Functions8MonomialILi1EED2Ev = comdat any

$_ZN6dealii9Functions8MonomialILi1EED0Ev = comdat any

$_ZThn16_N6dealii9Functions8MonomialILi1EED1Ev = comdat any

$_ZThn16_N6dealii9Functions8MonomialILi1EED0Ev = comdat any

$_ZN6dealii9Functions8MonomialILi2EED2Ev = comdat any

$_ZN6dealii9Functions8MonomialILi2EED0Ev = comdat any

$_ZThn16_N6dealii9Functions8MonomialILi2EED1Ev = comdat any

$_ZThn16_N6dealii9Functions8MonomialILi2EED0Ev = comdat any

$_ZN6dealii9Functions8MonomialILi3EED2Ev = comdat any

$_ZN6dealii9Functions8MonomialILi3EED0Ev = comdat any

$_ZThn16_N6dealii9Functions8MonomialILi3EED1Ev = comdat any

$_ZThn16_N6dealii9Functions8MonomialILi3EED0Ev = comdat any

$_ZNSt6vectorIdSaIdEED2Ev = comdat any

$_ZSt8_DestroyIPddEvT_S1_RSaIT0_E = comdat any

$_ZNSt12_Vector_baseIdSaIdEE19_M_get_Tp_allocatorEv = comdat any

$_ZNSt12_Vector_baseIdSaIdEED2Ev = comdat any

$__clang_call_terminate = comdat any

$_ZSt8_DestroyIPdEvT_S1_ = comdat any

$_ZNSt12_Destroy_auxILb1EE9__destroyIPdEEvT_S3_ = comdat any

$_ZNSt12_Vector_baseIdSaIdEE13_M_deallocateEPdm = comdat any

$_ZNSt12_Vector_baseIdSaIdEE12_Vector_implD2Ev = comdat any

$_ZNSt16allocator_traitsISaIdEE10deallocateERS0_Pdm = comdat any

$_ZN9__gnu_cxx13new_allocatorIdE10deallocateEPdm = comdat any

$_ZN9__gnu_cxx13new_allocatorIdED2Ev = comdat any

$_ZN6dealii6TensorILi1ELi1EEmLEd = comdat any

$_ZN6dealii5PointILi1EEC2ERKNS_6TensorILi1ELi1EEE = comdat any

$_ZN6dealii6TensorILi1ELi2EEmLEd = comdat any

$_ZN6dealii5PointILi2EEC2ERKNS_6TensorILi1ELi2EEE = comdat any

$_ZN6dealii6TensorILi1ELi3EEmLEd = comdat any

$_ZN6dealii5PointILi3EEC2ERKNS_6TensorILi1ELi3EEE = comdat any

$_ZNK6dealii6TensorILi1ELi1EEmlERKS1_ = comdat any

$_ZN6dealii5PointILi1EEC2Ev = comdat any

$_ZNK6dealii6TensorILi1ELi2EEmlERKS1_ = comdat any

$_ZN6dealii5PointILi2EEC2Ev = comdat any

$_ZNK6dealii6TensorILi1ELi3EEmlERKS1_ = comdat any

$_ZN6dealii5PointILi3EEC2Ev = comdat any

$_ZN9__gnu_cxx14__alloc_traitsISaIN6dealii5PointILi1EEEES3_E17_S_select_on_copyERKS4_ = comdat any

$_ZNKSt12_Vector_baseIN6dealii5PointILi1EEESaIS2_EE19_M_get_Tp_allocatorEv = comdat any

$_ZNSt12_Vector_baseIN6dealii5PointILi1EEESaIS2_EEC2EmRKS3_ = comdat any

$_ZNSaIN6dealii5PointILi1EEEED2Ev = comdat any

$_ZSt22__uninitialized_copy_aIN9__gnu_cxx17__normal_iteratorIPKN6dealii5PointILi1EEESt6vectorIS4_SaIS4_EEEEPS4_S4_ET0_T_SD_SC_RSaIT1_E = comdat any

$_ZNKSt6vectorIN6dealii5PointILi1EEESaIS2_EE5beginEv = comdat any

$_ZNKSt6vectorIN6dealii5PointILi1EEESaIS2_EE3endEv = comdat any

$_ZNSt12_Vector_baseIN6dealii5PointILi1EEESaIS2_EE19_M_get_Tp_allocatorEv = comdat any

$_ZNSt12_Vector_baseIN6dealii5PointILi1EEESaIS2_EED2Ev = comdat any

$_ZNSt16allocator_traitsISaIN6dealii5PointILi1EEEEE37select_on_container_copy_constructionERKS3_ = comdat any

$_ZNSaIN6dealii5PointILi1EEEEC2ERKS2_ = comdat any

$_ZN9__gnu_cxx13new_allocatorIN6dealii5PointILi1EEEEC2ERKS4_ = comdat any

$_ZNSt12_Vector_baseIN6dealii5PointILi1EEESaIS2_EE12_Vector_implC2ERKS3_ = comdat any

$_ZNSt12_Vector_baseIN6dealii5PointILi1EEESaIS2_EE17_M_create_storageEm = comdat any

$_ZNSt12_Vector_baseIN6dealii5PointILi1EEESaIS2_EE12_Vector_implD2Ev = comdat any

$_ZNSt12_Vector_baseIN6dealii5PointILi1EEESaIS2_EE17_Vector_impl_dataC2Ev = comdat any

$_ZNSt12_Vector_baseIN6dealii5PointILi1EEESaIS2_EE11_M_allocateEm = comdat any

$_ZNSt16allocator_traitsISaIN6dealii5PointILi1EEEEE8allocateERS3_m = comdat any

$_ZN9__gnu_cxx13new_allocatorIN6dealii5PointILi1EEEE8allocateEmPKv = comdat any

$_ZNK9__gnu_cxx13new_allocatorIN6dealii5PointILi1EEEE11_M_max_sizeEv = comdat any

$_ZN9__gnu_cxx13new_allocatorIN6dealii5PointILi1EEEED2Ev = comdat any

$_ZSt18uninitialized_copyIN9__gnu_cxx17__normal_iteratorIPKN6dealii5PointILi1EEESt6vectorIS4_SaIS4_EEEEPS4_ET0_T_SD_SC_ = comdat any

$_ZNSt20__uninitialized_copyILb0EE13__uninit_copyIN9__gnu_cxx17__normal_iteratorIPKN6dealii5PointILi1EEESt6vectorIS6_SaIS6_EEEEPS6_EET0_T_SF_SE_ = comdat any

$_ZN9__gnu_cxxneIPKN6dealii5PointILi1EEESt6vectorIS3_SaIS3_EEEEbRKNS_17__normal_iteratorIT_T0_EESE_ = comdat any

$_ZSt10_ConstructIN6dealii5PointILi1EEEJRKS2_EEvPT_DpOT0_ = comdat any

$_ZSt11__addressofIN6dealii5PointILi1EEEEPT_RS3_ = comdat any

$_ZNK9__gnu_cxx17__normal_iteratorIPKN6dealii5PointILi1EEESt6vectorIS3_SaIS3_EEEdeEv = comdat any

$_ZN9__gnu_cxx17__normal_iteratorIPKN6dealii5PointILi1EEESt6vectorIS3_SaIS3_EEEppEv = comdat any

$_ZSt8_DestroyIPN6dealii5PointILi1EEEEvT_S4_ = comdat any

$_ZNK9__gnu_cxx17__normal_iteratorIPKN6dealii5PointILi1EEESt6vectorIS3_SaIS3_EEE4baseEv = comdat any

$_ZSt7forwardIRKN6dealii5PointILi1EEEEOT_RNSt16remove_referenceIS5_E4typeE = comdat any

$_ZNSt12_Destroy_auxILb1EE9__destroyIPN6dealii5PointILi1EEEEEvT_S6_ = comdat any

$_ZN9__gnu_cxx17__normal_iteratorIPKN6dealii5PointILi1EEESt6vectorIS3_SaIS3_EEEC2ERKS5_ = comdat any

$_ZNSt12_Vector_baseIN6dealii5PointILi1EEESaIS2_EE13_M_deallocateEPS2_m = comdat any

$_ZNSt16allocator_traitsISaIN6dealii5PointILi1EEEEE10deallocateERS3_PS2_m = comdat any

$_ZN9__gnu_cxx13new_allocatorIN6dealii5PointILi1EEEE10deallocateEPS3_m = comdat any

$_ZN9__gnu_cxx14__alloc_traitsISaIdEdE17_S_select_on_copyERKS1_ = comdat any

$_ZNKSt12_Vector_baseIdSaIdEE19_M_get_Tp_allocatorEv = comdat any

$_ZNSt12_Vector_baseIdSaIdEEC2EmRKS0_ = comdat any

$_ZNSaIdED2Ev = comdat any

$_ZSt22__uninitialized_copy_aIN9__gnu_cxx17__normal_iteratorIPKdSt6vectorIdSaIdEEEEPddET0_T_SA_S9_RSaIT1_E = comdat any

$_ZNKSt6vectorIdSaIdEE5beginEv = comdat any

$_ZNKSt6vectorIdSaIdEE3endEv = comdat any

$_ZNSt16allocator_traitsISaIdEE37select_on_container_copy_constructionERKS0_ = comdat any

$_ZNSaIdEC2ERKS_ = comdat any

$_ZN9__gnu_cxx13new_allocatorIdEC2ERKS1_ = comdat any

$_ZNSt12_Vector_baseIdSaIdEE12_Vector_implC2ERKS0_ = comdat any

$_ZNSt12_Vector_baseIdSaIdEE17_M_create_storageEm = comdat any

$_ZNSt12_Vector_baseIdSaIdEE17_Vector_impl_dataC2Ev = comdat any

$_ZNSt12_Vector_baseIdSaIdEE11_M_allocateEm = comdat any

$_ZNSt16allocator_traitsISaIdEE8allocateERS0_m = comdat any

$_ZN9__gnu_cxx13new_allocatorIdE8allocateEmPKv = comdat any

$_ZNK9__gnu_cxx13new_allocatorIdE11_M_max_sizeEv = comdat any

$_ZSt18uninitialized_copyIN9__gnu_cxx17__normal_iteratorIPKdSt6vectorIdSaIdEEEEPdET0_T_SA_S9_ = comdat any

$_ZNSt20__uninitialized_copyILb1EE13__uninit_copyIN9__gnu_cxx17__normal_iteratorIPKdSt6vectorIdSaIdEEEEPdEET0_T_SC_SB_ = comdat any

$_ZSt4copyIN9__gnu_cxx17__normal_iteratorIPKdSt6vectorIdSaIdEEEEPdET0_T_SA_S9_ = comdat any

$_ZSt13__copy_move_aILb0EN9__gnu_cxx17__normal_iteratorIPKdSt6vectorIdSaIdEEEEPdET1_T0_SA_S9_ = comdat any

$_ZSt12__miter_baseIN9__gnu_cxx17__normal_iteratorIPKdSt6vectorIdSaIdEEEEET_S8_ = comdat any

$_ZSt12__niter_wrapIPdET_RKS1_S1_ = comdat any

$_ZSt14__copy_move_a1ILb0EPKdPdET1_T0_S4_S3_ = comdat any

$_ZSt12__niter_baseIPKdSt6vectorIdSaIdEEET_N9__gnu_cxx17__normal_iteratorIS5_T0_EE = comdat any

$_ZSt12__niter_baseIPdET_S1_ = comdat any

$_ZSt14__copy_move_a2ILb0EPKdPdET1_T0_S4_S3_ = comdat any

$_ZNSt11__copy_moveILb0ELb1ESt26random_access_iterator_tagE8__copy_mIdEEPT_PKS3_S6_S4_ = comdat any

$_ZNK9__gnu_cxx17__normal_iteratorIPKdSt6vectorIdSaIdEEE4baseEv = comdat any

$_ZN9__gnu_cxx17__normal_iteratorIPKdSt6vectorIdSaIdEEEC2ERKS2_ = comdat any

$_ZSt8_DestroyIPN6dealii5PointILi1EEES2_EvT_S4_RSaIT0_E = comdat any

$_ZN9__gnu_cxx14__alloc_traitsISaIN6dealii5PointILi2EEEES3_E17_S_select_on_copyERKS4_ = comdat any

$_ZNKSt12_Vector_baseIN6dealii5PointILi2EEESaIS2_EE19_M_get_Tp_allocatorEv = comdat any

$_ZNSt12_Vector_baseIN6dealii5PointILi2EEESaIS2_EEC2EmRKS3_ = comdat any

$_ZNSaIN6dealii5PointILi2EEEED2Ev = comdat any

$_ZSt22__uninitialized_copy_aIN9__gnu_cxx17__normal_iteratorIPKN6dealii5PointILi2EEESt6vectorIS4_SaIS4_EEEEPS4_S4_ET0_T_SD_SC_RSaIT1_E = comdat any

$_ZNKSt6vectorIN6dealii5PointILi2EEESaIS2_EE5beginEv = comdat any

$_ZNKSt6vectorIN6dealii5PointILi2EEESaIS2_EE3endEv = comdat any

$_ZNSt12_Vector_baseIN6dealii5PointILi2EEESaIS2_EE19_M_get_Tp_allocatorEv = comdat any

$_ZNSt12_Vector_baseIN6dealii5PointILi2EEESaIS2_EED2Ev = comdat any

$_ZNSt16allocator_traitsISaIN6dealii5PointILi2EEEEE37select_on_container_copy_constructionERKS3_ = comdat any

$_ZNSaIN6dealii5PointILi2EEEEC2ERKS2_ = comdat any

$_ZN9__gnu_cxx13new_allocatorIN6dealii5PointILi2EEEEC2ERKS4_ = comdat any

$_ZNSt12_Vector_baseIN6dealii5PointILi2EEESaIS2_EE12_Vector_implC2ERKS3_ = comdat any

$_ZNSt12_Vector_baseIN6dealii5PointILi2EEESaIS2_EE17_M_create_storageEm = comdat any

$_ZNSt12_Vector_baseIN6dealii5PointILi2EEESaIS2_EE12_Vector_implD2Ev = comdat any

$_ZNSt12_Vector_baseIN6dealii5PointILi2EEESaIS2_EE17_Vector_impl_dataC2Ev = comdat any

$_ZNSt12_Vector_baseIN6dealii5PointILi2EEESaIS2_EE11_M_allocateEm = comdat any

$_ZNSt16allocator_traitsISaIN6dealii5PointILi2EEEEE8allocateERS3_m = comdat any

$_ZN9__gnu_cxx13new_allocatorIN6dealii5PointILi2EEEE8allocateEmPKv = comdat any

$_ZNK9__gnu_cxx13new_allocatorIN6dealii5PointILi2EEEE11_M_max_sizeEv = comdat any

$_ZN9__gnu_cxx13new_allocatorIN6dealii5PointILi2EEEED2Ev = comdat any

$_ZSt18uninitialized_copyIN9__gnu_cxx17__normal_iteratorIPKN6dealii5PointILi2EEESt6vectorIS4_SaIS4_EEEEPS4_ET0_T_SD_SC_ = comdat any

$_ZNSt20__uninitialized_copyILb0EE13__uninit_copyIN9__gnu_cxx17__normal_iteratorIPKN6dealii5PointILi2EEESt6vectorIS6_SaIS6_EEEEPS6_EET0_T_SF_SE_ = comdat any

$_ZN9__gnu_cxxneIPKN6dealii5PointILi2EEESt6vectorIS3_SaIS3_EEEEbRKNS_17__normal_iteratorIT_T0_EESE_ = comdat any

$_ZSt10_ConstructIN6dealii5PointILi2EEEJRKS2_EEvPT_DpOT0_ = comdat any

$_ZSt11__addressofIN6dealii5PointILi2EEEEPT_RS3_ = comdat any

$_ZNK9__gnu_cxx17__normal_iteratorIPKN6dealii5PointILi2EEESt6vectorIS3_SaIS3_EEEdeEv = comdat any

$_ZN9__gnu_cxx17__normal_iteratorIPKN6dealii5PointILi2EEESt6vectorIS3_SaIS3_EEEppEv = comdat any

$_ZSt8_DestroyIPN6dealii5PointILi2EEEEvT_S4_ = comdat any

$_ZNK9__gnu_cxx17__normal_iteratorIPKN6dealii5PointILi2EEESt6vectorIS3_SaIS3_EEE4baseEv = comdat any

$_ZSt7forwardIRKN6dealii5PointILi2EEEEOT_RNSt16remove_referenceIS5_E4typeE = comdat any

$_ZNSt12_Destroy_auxILb1EE9__destroyIPN6dealii5PointILi2EEEEEvT_S6_ = comdat any

$_ZN9__gnu_cxx17__normal_iteratorIPKN6dealii5PointILi2EEESt6vectorIS3_SaIS3_EEEC2ERKS5_ = comdat any

$_ZNSt12_Vector_baseIN6dealii5PointILi2EEESaIS2_EE13_M_deallocateEPS2_m = comdat any

$_ZNSt16allocator_traitsISaIN6dealii5PointILi2EEEEE10deallocateERS3_PS2_m = comdat any

$_ZN9__gnu_cxx13new_allocatorIN6dealii5PointILi2EEEE10deallocateEPS3_m = comdat any

$_ZSt8_DestroyIPN6dealii5PointILi2EEES2_EvT_S4_RSaIT0_E = comdat any

$_ZN9__gnu_cxx14__alloc_traitsISaIN6dealii5PointILi3EEEES3_E17_S_select_on_copyERKS4_ = comdat any

$_ZNKSt12_Vector_baseIN6dealii5PointILi3EEESaIS2_EE19_M_get_Tp_allocatorEv = comdat any

$_ZNSt12_Vector_baseIN6dealii5PointILi3EEESaIS2_EEC2EmRKS3_ = comdat any

$_ZNSaIN6dealii5PointILi3EEEED2Ev = comdat any

$_ZSt22__uninitialized_copy_aIN9__gnu_cxx17__normal_iteratorIPKN6dealii5PointILi3EEESt6vectorIS4_SaIS4_EEEEPS4_S4_ET0_T_SD_SC_RSaIT1_E = comdat any

$_ZNKSt6vectorIN6dealii5PointILi3EEESaIS2_EE5beginEv = comdat any

$_ZNKSt6vectorIN6dealii5PointILi3EEESaIS2_EE3endEv = comdat any

$_ZNSt12_Vector_baseIN6dealii5PointILi3EEESaIS2_EE19_M_get_Tp_allocatorEv = comdat any

$_ZNSt12_Vector_baseIN6dealii5PointILi3EEESaIS2_EED2Ev = comdat any

$_ZNSt16allocator_traitsISaIN6dealii5PointILi3EEEEE37select_on_container_copy_constructionERKS3_ = comdat any

$_ZNSaIN6dealii5PointILi3EEEEC2ERKS2_ = comdat any

$_ZN9__gnu_cxx13new_allocatorIN6dealii5PointILi3EEEEC2ERKS4_ = comdat any

$_ZNSt12_Vector_baseIN6dealii5PointILi3EEESaIS2_EE12_Vector_implC2ERKS3_ = comdat any

$_ZNSt12_Vector_baseIN6dealii5PointILi3EEESaIS2_EE17_M_create_storageEm = comdat any

$_ZNSt12_Vector_baseIN6dealii5PointILi3EEESaIS2_EE12_Vector_implD2Ev = comdat any

$_ZNSt12_Vector_baseIN6dealii5PointILi3EEESaIS2_EE17_Vector_impl_dataC2Ev = comdat any

$_ZNSt12_Vector_baseIN6dealii5PointILi3EEESaIS2_EE11_M_allocateEm = comdat any

$_ZNSt16allocator_traitsISaIN6dealii5PointILi3EEEEE8allocateERS3_m = comdat any

$_ZN9__gnu_cxx13new_allocatorIN6dealii5PointILi3EEEE8allocateEmPKv = comdat any

$_ZNK9__gnu_cxx13new_allocatorIN6dealii5PointILi3EEEE11_M_max_sizeEv = comdat any

$_ZN9__gnu_cxx13new_allocatorIN6dealii5PointILi3EEEED2Ev = comdat any

$_ZSt18uninitialized_copyIN9__gnu_cxx17__normal_iteratorIPKN6dealii5PointILi3EEESt6vectorIS4_SaIS4_EEEEPS4_ET0_T_SD_SC_ = comdat any

$_ZNSt20__uninitialized_copyILb0EE13__uninit_copyIN9__gnu_cxx17__normal_iteratorIPKN6dealii5PointILi3EEESt6vectorIS6_SaIS6_EEEEPS6_EET0_T_SF_SE_ = comdat any

$_ZN9__gnu_cxxneIPKN6dealii5PointILi3EEESt6vectorIS3_SaIS3_EEEEbRKNS_17__normal_iteratorIT_T0_EESE_ = comdat any

$_ZSt10_ConstructIN6dealii5PointILi3EEEJRKS2_EEvPT_DpOT0_ = comdat any

$_ZSt11__addressofIN6dealii5PointILi3EEEEPT_RS3_ = comdat any

$_ZNK9__gnu_cxx17__normal_iteratorIPKN6dealii5PointILi3EEESt6vectorIS3_SaIS3_EEEdeEv = comdat any

$_ZN9__gnu_cxx17__normal_iteratorIPKN6dealii5PointILi3EEESt6vectorIS3_SaIS3_EEEppEv = comdat any

$_ZSt8_DestroyIPN6dealii5PointILi3EEEEvT_S4_ = comdat any

$_ZNK9__gnu_cxx17__normal_iteratorIPKN6dealii5PointILi3EEESt6vectorIS3_SaIS3_EEE4baseEv = comdat any

$_ZSt7forwardIRKN6dealii5PointILi3EEEEOT_RNSt16remove_referenceIS5_E4typeE = comdat any

$_ZNSt12_Destroy_auxILb1EE9__destroyIPN6dealii5PointILi3EEEEEvT_S6_ = comdat any

$_ZN9__gnu_cxx17__normal_iteratorIPKN6dealii5PointILi3EEESt6vectorIS3_SaIS3_EEEC2ERKS5_ = comdat any

$_ZNSt12_Vector_baseIN6dealii5PointILi3EEESaIS2_EE13_M_deallocateEPS2_m = comdat any

$_ZNSt16allocator_traitsISaIN6dealii5PointILi3EEEEE10deallocateERS3_PS2_m = comdat any

$_ZN9__gnu_cxx13new_allocatorIN6dealii5PointILi3EEEE10deallocateEPS3_m = comdat any

$_ZSt8_DestroyIPN6dealii5PointILi3EEES2_EvT_S4_RSaIT0_E = comdat any

$_ZTVN6dealii9Functions14PillowFunctionILi1EEE = comdat any

$_ZTVN6dealii9Functions14PillowFunctionILi2EEE = comdat any

$_ZTVN6dealii9Functions14PillowFunctionILi3EEE = comdat any

$_ZTVN6dealii9Functions12JumpFunctionILi1EEE = comdat any

$_ZTVN6dealii9Functions12JumpFunctionILi2EEE = comdat any

$_ZTVN6dealii9Functions12JumpFunctionILi3EEE = comdat any

$_ZTVN6dealii9Functions21FourierCosineFunctionILi1EEE = comdat any

$_ZTVN6dealii9Functions21FourierCosineFunctionILi2EEE = comdat any

$_ZTVN6dealii9Functions21FourierCosineFunctionILi3EEE = comdat any

$_ZTVN6dealii9Functions19FourierSineFunctionILi1EEE = comdat any

$_ZTVN6dealii9Functions19FourierSineFunctionILi2EEE = comdat any

$_ZTVN6dealii9Functions19FourierSineFunctionILi3EEE = comdat any

$_ZTVN6dealii9Functions16FourierCosineSumILi1EEE = comdat any

$_ZTVN6dealii9Functions16FourierCosineSumILi2EEE = comdat any

$_ZTVN6dealii9Functions16FourierCosineSumILi3EEE = comdat any

$_ZTVN6dealii9Functions14FourierSineSumILi1EEE = comdat any

$_ZTVN6dealii9Functions14FourierSineSumILi2EEE = comdat any

$_ZTVN6dealii9Functions14FourierSineSumILi3EEE = comdat any

$_ZTVN6dealii9Functions8MonomialILi1EEE = comdat any

$_ZTVN6dealii9Functions8MonomialILi2EEE = comdat any

$_ZTVN6dealii9Functions8MonomialILi3EEE = comdat any

$_ZTSN6dealii8FunctionILi2EEE = comdat any

$_ZTIN6dealii8FunctionILi2EEE = comdat any

$_ZTVN6dealii9Functions14SquareFunctionILi1EEE = comdat any

$_ZTSN6dealii9Functions14SquareFunctionILi1EEE = comdat any

$_ZTSN6dealii8FunctionILi1EEE = comdat any

$_ZTIN6dealii8FunctionILi1EEE = comdat any

$_ZTIN6dealii9Functions14SquareFunctionILi1EEE = comdat any

$_ZTVN6dealii9Functions14SquareFunctionILi2EEE = comdat any

$_ZTSN6dealii9Functions14SquareFunctionILi2EEE = comdat any

$_ZTIN6dealii9Functions14SquareFunctionILi2EEE = comdat any

$_ZTVN6dealii9Functions14SquareFunctionILi3EEE = comdat any

$_ZTSN6dealii9Functions14SquareFunctionILi3EEE = comdat any

$_ZTSN6dealii8FunctionILi3EEE = comdat any

$_ZTIN6dealii8FunctionILi3EEE = comdat any

$_ZTIN6dealii9Functions14SquareFunctionILi3EEE = comdat any

$_ZTVN6dealii9Functions15Q1WedgeFunctionILi1EEE = comdat any

$_ZTSN6dealii9Functions15Q1WedgeFunctionILi1EEE = comdat any

$_ZTIN6dealii9Functions15Q1WedgeFunctionILi1EEE = comdat any

$_ZTVN6dealii9Functions15Q1WedgeFunctionILi2EEE = comdat any

$_ZTSN6dealii9Functions15Q1WedgeFunctionILi2EEE = comdat any

$_ZTIN6dealii9Functions15Q1WedgeFunctionILi2EEE = comdat any

$_ZTVN6dealii9Functions15Q1WedgeFunctionILi3EEE = comdat any

$_ZTSN6dealii9Functions15Q1WedgeFunctionILi3EEE = comdat any

$_ZTIN6dealii9Functions15Q1WedgeFunctionILi3EEE = comdat any

$_ZTSN6dealii9Functions14PillowFunctionILi1EEE = comdat any

$_ZTIN6dealii9Functions14PillowFunctionILi1EEE = comdat any

$_ZTSN6dealii9Functions14PillowFunctionILi2EEE = comdat any

$_ZTIN6dealii9Functions14PillowFunctionILi2EEE = comdat any

$_ZTSN6dealii9Functions14PillowFunctionILi3EEE = comdat any

$_ZTIN6dealii9Functions14PillowFunctionILi3EEE = comdat any

$_ZTVN6dealii9Functions14CosineFunctionILi1EEE = comdat any

$_ZTSN6dealii9Functions14CosineFunctionILi1EEE = comdat any

$_ZTIN6dealii9Functions14CosineFunctionILi1EEE = comdat any

$_ZTVN6dealii9Functions14CosineFunctionILi2EEE = comdat any

$_ZTSN6dealii9Functions14CosineFunctionILi2EEE = comdat any

$_ZTIN6dealii9Functions14CosineFunctionILi2EEE = comdat any

$_ZTVN6dealii9Functions14CosineFunctionILi3EEE = comdat any

$_ZTSN6dealii9Functions14CosineFunctionILi3EEE = comdat any

$_ZTIN6dealii9Functions14CosineFunctionILi3EEE = comdat any

$_ZTVN6dealii9Functions11ExpFunctionILi1EEE = comdat any

$_ZTSN6dealii9Functions11ExpFunctionILi1EEE = comdat any

$_ZTIN6dealii9Functions11ExpFunctionILi1EEE = comdat any

$_ZTVN6dealii9Functions11ExpFunctionILi2EEE = comdat any

$_ZTSN6dealii9Functions11ExpFunctionILi2EEE = comdat any

$_ZTIN6dealii9Functions11ExpFunctionILi2EEE = comdat any

$_ZTVN6dealii9Functions11ExpFunctionILi3EEE = comdat any

$_ZTSN6dealii9Functions11ExpFunctionILi3EEE = comdat any

$_ZTIN6dealii9Functions11ExpFunctionILi3EEE = comdat any

$_ZTSN6dealii9Functions12JumpFunctionILi1EEE = comdat any

$_ZTIN6dealii9Functions12JumpFunctionILi1EEE = comdat any

$_ZTSN6dealii9Functions12JumpFunctionILi2EEE = comdat any

$_ZTIN6dealii9Functions12JumpFunctionILi2EEE = comdat any

$_ZTSN6dealii9Functions12JumpFunctionILi3EEE = comdat any

$_ZTIN6dealii9Functions12JumpFunctionILi3EEE = comdat any

$_ZTSN6dealii9Functions21FourierCosineFunctionILi1EEE = comdat any

$_ZTIN6dealii9Functions21FourierCosineFunctionILi1EEE = comdat any

$_ZTSN6dealii9Functions21FourierCosineFunctionILi2EEE = comdat any

$_ZTIN6dealii9Functions21FourierCosineFunctionILi2EEE = comdat any

$_ZTSN6dealii9Functions21FourierCosineFunctionILi3EEE = comdat any

$_ZTIN6dealii9Functions21FourierCosineFunctionILi3EEE = comdat any

$_ZTSN6dealii9Functions19FourierSineFunctionILi1EEE = comdat any

$_ZTIN6dealii9Functions19FourierSineFunctionILi1EEE = comdat any

$_ZTSN6dealii9Functions19FourierSineFunctionILi2EEE = comdat any

$_ZTIN6dealii9Functions19FourierSineFunctionILi2EEE = comdat any

$_ZTSN6dealii9Functions19FourierSineFunctionILi3EEE = comdat any

$_ZTIN6dealii9Functions19FourierSineFunctionILi3EEE = comdat any

$_ZTSN6dealii9Functions16FourierCosineSumILi1EEE = comdat any

$_ZTIN6dealii9Functions16FourierCosineSumILi1EEE = comdat any

$_ZTSN6dealii9Functions16FourierCosineSumILi2EEE = comdat any

$_ZTIN6dealii9Functions16FourierCosineSumILi2EEE = comdat any

$_ZTSN6dealii9Functions16FourierCosineSumILi3EEE = comdat any

$_ZTIN6dealii9Functions16FourierCosineSumILi3EEE = comdat any

$_ZTSN6dealii9Functions14FourierSineSumILi1EEE = comdat any

$_ZTIN6dealii9Functions14FourierSineSumILi1EEE = comdat any

$_ZTSN6dealii9Functions14FourierSineSumILi2EEE = comdat any

$_ZTIN6dealii9Functions14FourierSineSumILi2EEE = comdat any

$_ZTSN6dealii9Functions14FourierSineSumILi3EEE = comdat any

$_ZTIN6dealii9Functions14FourierSineSumILi3EEE = comdat any

$_ZTVN6dealii9Functions23SlitSingularityFunctionILi2EEE = comdat any

$_ZTSN6dealii9Functions23SlitSingularityFunctionILi2EEE = comdat any

$_ZTIN6dealii9Functions23SlitSingularityFunctionILi2EEE = comdat any

$_ZTVN6dealii9Functions23SlitSingularityFunctionILi3EEE = comdat any

$_ZTSN6dealii9Functions23SlitSingularityFunctionILi3EEE = comdat any

$_ZTIN6dealii9Functions23SlitSingularityFunctionILi3EEE = comdat any

$_ZTSN6dealii9Functions8MonomialILi1EEE = comdat any

$_ZTIN6dealii9Functions8MonomialILi1EEE = comdat any

$_ZTSN6dealii9Functions8MonomialILi2EEE = comdat any

$_ZTIN6dealii9Functions8MonomialILi2EEE = comdat any

$_ZTSN6dealii9Functions8MonomialILi3EEE = comdat any

$_ZTIN6dealii9Functions8MonomialILi3EEE = comdat any

@_ZTVN6dealii9Functions14PillowFunctionILi1EEE = weak_odr dso_local unnamed_addr constant { [18 x i8*], [4 x i8*] } { [18 x i8*] [i8* null, i8* bitcast ({ i8*, i8*, i8* }* @_ZTIN6dealii9Functions14PillowFunctionILi1EEE to i8*), i8* bitcast (void (%"class.dealii::Functions::PillowFunction"*)* @_ZN6dealii9Functions14PillowFunctionILi1EED2Ev to i8*), i8* bitcast (void (%"class.dealii::Functions::PillowFunction"*)* @_ZN6dealii9Functions14PillowFunctionILi1EED0Ev to i8*), i8* bitcast (void (%"class.dealii::FunctionTime"*, double)* @_ZN6dealii12FunctionTime8set_timeEd to i8*), i8* bitcast (void (%"class.dealii::FunctionTime"*, double)* @_ZN6dealii12FunctionTime12advance_timeEd to i8*), i8* bitcast (double (%"class.dealii::Functions::PillowFunction"*, %"class.dealii::Point"*, i32)* @_ZNK6dealii9Functions14PillowFunctionILi1EE5valueERKNS_5PointILi1EEEj to i8*), i8* bitcast (void (%"class.dealii::Function"*, %"class.dealii::Point"*, %"class.dealii::Vector"*)* @_ZNK6dealii8FunctionILi1EE12vector_valueERKNS_5PointILi1EEERNS_6VectorIdEE to i8*), i8* bitcast (void (%"class.dealii::Functions::PillowFunction"*, %"class.std::vector"*, %"class.std::vector.3"*, i32)* @_ZNK6dealii9Functions14PillowFunctionILi1EE10value_listERKSt6vectorINS_5PointILi1EEESaIS5_EERS3_IdSaIdEEj to i8*), i8* bitcast (void (%"class.dealii::Function"*, %"class.std::vector"*, %"class.std::vector.45"*)* @_ZNK6dealii8FunctionILi1EE17vector_value_listERKSt6vectorINS_5PointILi1EEESaIS4_EERS2_INS_6VectorIdEESaISA_EE to i8*), i8* bitcast (void (%"class.dealii::Tensor"*, %"class.dealii::Functions::PillowFunction"*, %"class.dealii::Point"*, i32)* @_ZNK6dealii9Functions14PillowFunctionILi1EE8gradientERKNS_5PointILi1EEEj to i8*), i8* bitcast (void (%"class.dealii::Function"*, %"class.dealii::Point"*, %"class.std::vector.8"*)* @_ZNK6dealii8FunctionILi1EE15vector_gradientERKNS_5PointILi1EEERSt6vectorINS_6TensorILi1ELi1EEESaIS8_EE to i8*), i8* bitcast (void (%"class.dealii::Functions::PillowFunction"*, %"class.std::vector"*, %"class.std::vector.8"*, i32)* @_ZNK6dealii9Functions14PillowFunctionILi1EE13gradient_listERKSt6vectorINS_5PointILi1EEESaIS5_EERS3_INS_6TensorILi1ELi1EEESaISB_EEj to i8*), i8* bitcast (void (%"class.dealii::Function"*, %"class.std::vector"*, %"class.std::vector.50"*)* @_ZNK6dealii8FunctionILi1EE20vector_gradient_listERKSt6vectorINS_5PointILi1EEESaIS4_EERS2_IS2_INS_6TensorILi1ELi1EEESaISA_EESaISC_EE to i8*), i8* bitcast (double (%"class.dealii::Functions::PillowFunction"*, %"class.dealii::Point"*, i32)* @_ZNK6dealii9Functions14PillowFunctionILi1EE9laplacianERKNS_5PointILi1EEEj to i8*), i8* bitcast (void (%"class.dealii::Function"*, %"class.dealii::Point"*, %"class.dealii::Vector"*)* @_ZNK6dealii8FunctionILi1EE16vector_laplacianERKNS_5PointILi1EEERNS_6VectorIdEE to i8*), i8* bitcast (void (%"class.dealii::Functions::PillowFunction"*, %"class.std::vector"*, %"class.std::vector.3"*, i32)* @_ZNK6dealii9Functions14PillowFunctionILi1EE14laplacian_listERKSt6vectorINS_5PointILi1EEESaIS5_EERS3_IdSaIdEEj to i8*), i8* bitcast (void (%"class.dealii::Function"*, %"class.std::vector"*, %"class.std::vector.45"*)* @_ZNK6dealii8FunctionILi1EE21vector_laplacian_listERKSt6vectorINS_5PointILi1EEESaIS4_EERS2_INS_6VectorIdEESaISA_EE to i8*)], [4 x i8*] [i8* inttoptr (i64 -16 to i8*), i8* bitcast ({ i8*, i8*, i8* }* @_ZTIN6dealii9Functions14PillowFunctionILi1EEE to i8*), i8* bitcast (void (%"class.dealii::Functions::PillowFunction"*)* @_ZThn16_N6dealii9Functions14PillowFunctionILi1EED1Ev to i8*), i8* bitcast (void (%"class.dealii::Functions::PillowFunction"*)* @_ZThn16_N6dealii9Functions14PillowFunctionILi1EED0Ev to i8*)] }, comdat, align 8
@_ZTVN6dealii9Functions14PillowFunctionILi2EEE = weak_odr dso_local unnamed_addr constant { [18 x i8*], [4 x i8*] } { [18 x i8*] [i8* null, i8* bitcast ({ i8*, i8*, i8* }* @_ZTIN6dealii9Functions14PillowFunctionILi2EEE to i8*), i8* bitcast (void (%"class.dealii::Functions::PillowFunction.69"*)* @_ZN6dealii9Functions14PillowFunctionILi2EED2Ev to i8*), i8* bitcast (void (%"class.dealii::Functions::PillowFunction.69"*)* @_ZN6dealii9Functions14PillowFunctionILi2EED0Ev to i8*), i8* bitcast (void (%"class.dealii::FunctionTime"*, double)* @_ZN6dealii12FunctionTime8set_timeEd to i8*), i8* bitcast (void (%"class.dealii::FunctionTime"*, double)* @_ZN6dealii12FunctionTime12advance_timeEd to i8*), i8* bitcast (double (%"class.dealii::Functions::PillowFunction.69"*, %"class.dealii::Point.17"*, i32)* @_ZNK6dealii9Functions14PillowFunctionILi2EE5valueERKNS_5PointILi2EEEj to i8*), i8* bitcast (void (%"class.dealii::Function.14"*, %"class.dealii::Point.17"*, %"class.dealii::Vector"*)* @_ZNK6dealii8FunctionILi2EE12vector_valueERKNS_5PointILi2EEERNS_6VectorIdEE to i8*), i8* bitcast (void (%"class.dealii::Functions::PillowFunction.69"*, %"class.std::vector.19"*, %"class.std::vector.3"*, i32)* @_ZNK6dealii9Functions14PillowFunctionILi2EE10value_listERKSt6vectorINS_5PointILi2EEESaIS5_EERS3_IdSaIdEEj to i8*), i8* bitcast (void (%"class.dealii::Function.14"*, %"class.std::vector.19"*, %"class.std::vector.45"*)* @_ZNK6dealii8FunctionILi2EE17vector_value_listERKSt6vectorINS_5PointILi2EEESaIS4_EERS2_INS_6VectorIdEESaISA_EE to i8*), i8* bitcast (void (%"class.dealii::Tensor.18"*, %"class.dealii::Functions::PillowFunction.69"*, %"class.dealii::Point.17"*, i32)* @_ZNK6dealii9Functions14PillowFunctionILi2EE8gradientERKNS_5PointILi2EEEj to i8*), i8* bitcast (void (%"class.dealii::Function.14"*, %"class.dealii::Point.17"*, %"class.std::vector.24"*)* @_ZNK6dealii8FunctionILi2EE15vector_gradientERKNS_5PointILi2EEERSt6vectorINS_6TensorILi1ELi2EEESaIS8_EE to i8*), i8* bitcast (void (%"class.dealii::Functions::PillowFunction.69"*, %"class.std::vector.19"*, %"class.std::vector.24"*, i32)* @_ZNK6dealii9Functions14PillowFunctionILi2EE13gradient_listERKSt6vectorINS_5PointILi2EEESaIS5_EERS3_INS_6TensorILi1ELi2EEESaISB_EEj to i8*), i8* bitcast (void (%"class.dealii::Function.14"*, %"class.std::vector.19"*, %"class.std::vector.57"*)* @_ZNK6dealii8FunctionILi2EE20vector_gradient_listERKSt6vectorINS_5PointILi2EEESaIS4_EERS2_IS2_INS_6TensorILi1ELi2EEESaISA_EESaISC_EE to i8*), i8* bitcast (double (%"class.dealii::Functions::PillowFunction.69"*, %"class.dealii::Point.17"*, i32)* @_ZNK6dealii9Functions14PillowFunctionILi2EE9laplacianERKNS_5PointILi2EEEj to i8*), i8* bitcast (void (%"class.dealii::Function.14"*, %"class.dealii::Point.17"*, %"class.dealii::Vector"*)* @_ZNK6dealii8FunctionILi2EE16vector_laplacianERKNS_5PointILi2EEERNS_6VectorIdEE to i8*), i8* bitcast (void (%"class.dealii::Functions::PillowFunction.69"*, %"class.std::vector.19"*, %"class.std::vector.3"*, i32)* @_ZNK6dealii9Functions14PillowFunctionILi2EE14laplacian_listERKSt6vectorINS_5PointILi2EEESaIS5_EERS3_IdSaIdEEj to i8*), i8* bitcast (void (%"class.dealii::Function.14"*, %"class.std::vector.19"*, %"class.std::vector.45"*)* @_ZNK6dealii8FunctionILi2EE21vector_laplacian_listERKSt6vectorINS_5PointILi2EEESaIS4_EERS2_INS_6VectorIdEESaISA_EE to i8*)], [4 x i8*] [i8* inttoptr (i64 -16 to i8*), i8* bitcast ({ i8*, i8*, i8* }* @_ZTIN6dealii9Functions14PillowFunctionILi2EEE to i8*), i8* bitcast (void (%"class.dealii::Functions::PillowFunction.69"*)* @_ZThn16_N6dealii9Functions14PillowFunctionILi2EED1Ev to i8*), i8* bitcast (void (%"class.dealii::Functions::PillowFunction.69"*)* @_ZThn16_N6dealii9Functions14PillowFunctionILi2EED0Ev to i8*)] }, comdat, align 8
@_ZTVN6dealii9Functions14PillowFunctionILi3EEE = weak_odr dso_local unnamed_addr constant { [18 x i8*], [4 x i8*] } { [18 x i8*] [i8* null, i8* bitcast ({ i8*, i8*, i8* }* @_ZTIN6dealii9Functions14PillowFunctionILi3EEE to i8*), i8* bitcast (void (%"class.dealii::Functions::PillowFunction.70"*)* @_ZN6dealii9Functions14PillowFunctionILi3EED2Ev to i8*), i8* bitcast (void (%"class.dealii::Functions::PillowFunction.70"*)* @_ZN6dealii9Functions14PillowFunctionILi3EED0Ev to i8*), i8* bitcast (void (%"class.dealii::FunctionTime"*, double)* @_ZN6dealii12FunctionTime8set_timeEd to i8*), i8* bitcast (void (%"class.dealii::FunctionTime"*, double)* @_ZN6dealii12FunctionTime12advance_timeEd to i8*), i8* bitcast (double (%"class.dealii::Functions::PillowFunction.70"*, %"class.dealii::Point.33"*, i32)* @_ZNK6dealii9Functions14PillowFunctionILi3EE5valueERKNS_5PointILi3EEEj to i8*), i8* bitcast (void (%"class.dealii::Function.30"*, %"class.dealii::Point.33"*, %"class.dealii::Vector"*)* @_ZNK6dealii8FunctionILi3EE12vector_valueERKNS_5PointILi3EEERNS_6VectorIdEE to i8*), i8* bitcast (void (%"class.dealii::Functions::PillowFunction.70"*, %"class.std::vector.35"*, %"class.std::vector.3"*, i32)* @_ZNK6dealii9Functions14PillowFunctionILi3EE10value_listERKSt6vectorINS_5PointILi3EEESaIS5_EERS3_IdSaIdEEj to i8*), i8* bitcast (void (%"class.dealii::Function.30"*, %"class.std::vector.35"*, %"class.std::vector.45"*)* @_ZNK6dealii8FunctionILi3EE17vector_value_listERKSt6vectorINS_5PointILi3EEESaIS4_EERS2_INS_6VectorIdEESaISA_EE to i8*), i8* bitcast (void (%"class.dealii::Tensor.34"*, %"class.dealii::Functions::PillowFunction.70"*, %"class.dealii::Point.33"*, i32)* @_ZNK6dealii9Functions14PillowFunctionILi3EE8gradientERKNS_5PointILi3EEEj to i8*), i8* bitcast (void (%"class.dealii::Function.30"*, %"class.dealii::Point.33"*, %"class.std::vector.40"*)* @_ZNK6dealii8FunctionILi3EE15vector_gradientERKNS_5PointILi3EEERSt6vectorINS_6TensorILi1ELi3EEESaIS8_EE to i8*), i8* bitcast (void (%"class.dealii::Functions::PillowFunction.70"*, %"class.std::vector.35"*, %"class.std::vector.40"*, i32)* @_ZNK6dealii9Functions14PillowFunctionILi3EE13gradient_listERKSt6vectorINS_5PointILi3EEESaIS5_EERS3_INS_6TensorILi1ELi3EEESaISB_EEj to i8*), i8* bitcast (void (%"class.dealii::Function.30"*, %"class.std::vector.35"*, %"class.std::vector.64"*)* @_ZNK6dealii8FunctionILi3EE20vector_gradient_listERKSt6vectorINS_5PointILi3EEESaIS4_EERS2_IS2_INS_6TensorILi1ELi3EEESaISA_EESaISC_EE to i8*), i8* bitcast (double (%"class.dealii::Functions::PillowFunction.70"*, %"class.dealii::Point.33"*, i32)* @_ZNK6dealii9Functions14PillowFunctionILi3EE9laplacianERKNS_5PointILi3EEEj to i8*), i8* bitcast (void (%"class.dealii::Function.30"*, %"class.dealii::Point.33"*, %"class.dealii::Vector"*)* @_ZNK6dealii8FunctionILi3EE16vector_laplacianERKNS_5PointILi3EEERNS_6VectorIdEE to i8*), i8* bitcast (void (%"class.dealii::Functions::PillowFunction.70"*, %"class.std::vector.35"*, %"class.std::vector.3"*, i32)* @_ZNK6dealii9Functions14PillowFunctionILi3EE14laplacian_listERKSt6vectorINS_5PointILi3EEESaIS5_EERS3_IdSaIdEEj to i8*), i8* bitcast (void (%"class.dealii::Function.30"*, %"class.std::vector.35"*, %"class.std::vector.45"*)* @_ZNK6dealii8FunctionILi3EE21vector_laplacian_listERKSt6vectorINS_5PointILi3EEESaIS4_EERS2_INS_6VectorIdEESaISA_EE to i8*)], [4 x i8*] [i8* inttoptr (i64 -16 to i8*), i8* bitcast ({ i8*, i8*, i8* }* @_ZTIN6dealii9Functions14PillowFunctionILi3EEE to i8*), i8* bitcast (void (%"class.dealii::Functions::PillowFunction.70"*)* @_ZThn16_N6dealii9Functions14PillowFunctionILi3EED1Ev to i8*), i8* bitcast (void (%"class.dealii::Functions::PillowFunction.70"*)* @_ZThn16_N6dealii9Functions14PillowFunctionILi3EED0Ev to i8*)] }, comdat, align 8
@_ZTVN6dealii9Functions12JumpFunctionILi1EEE = weak_odr dso_local unnamed_addr constant { [18 x i8*], [4 x i8*] } { [18 x i8*] [i8* null, i8* bitcast ({ i8*, i8*, i8* }* @_ZTIN6dealii9Functions12JumpFunctionILi1EEE to i8*), i8* bitcast (void (%"class.dealii::Functions::JumpFunction"*)* @_ZN6dealii9Functions12JumpFunctionILi1EED2Ev to i8*), i8* bitcast (void (%"class.dealii::Functions::JumpFunction"*)* @_ZN6dealii9Functions12JumpFunctionILi1EED0Ev to i8*), i8* bitcast (void (%"class.dealii::FunctionTime"*, double)* @_ZN6dealii12FunctionTime8set_timeEd to i8*), i8* bitcast (void (%"class.dealii::FunctionTime"*, double)* @_ZN6dealii12FunctionTime12advance_timeEd to i8*), i8* bitcast (double (%"class.dealii::Functions::JumpFunction"*, %"class.dealii::Point"*, i32)* @_ZNK6dealii9Functions12JumpFunctionILi1EE5valueERKNS_5PointILi1EEEj to i8*), i8* bitcast (void (%"class.dealii::Function"*, %"class.dealii::Point"*, %"class.dealii::Vector"*)* @_ZNK6dealii8FunctionILi1EE12vector_valueERKNS_5PointILi1EEERNS_6VectorIdEE to i8*), i8* bitcast (void (%"class.dealii::Functions::JumpFunction"*, %"class.std::vector"*, %"class.std::vector.3"*, i32)* @_ZNK6dealii9Functions12JumpFunctionILi1EE10value_listERKSt6vectorINS_5PointILi1EEESaIS5_EERS3_IdSaIdEEj to i8*), i8* bitcast (void (%"class.dealii::Function"*, %"class.std::vector"*, %"class.std::vector.45"*)* @_ZNK6dealii8FunctionILi1EE17vector_value_listERKSt6vectorINS_5PointILi1EEESaIS4_EERS2_INS_6VectorIdEESaISA_EE to i8*), i8* bitcast (void (%"class.dealii::Tensor"*, %"class.dealii::Functions::JumpFunction"*, %"class.dealii::Point"*, i32)* @_ZNK6dealii9Functions12JumpFunctionILi1EE8gradientERKNS_5PointILi1EEEj to i8*), i8* bitcast (void (%"class.dealii::Function"*, %"class.dealii::Point"*, %"class.std::vector.8"*)* @_ZNK6dealii8FunctionILi1EE15vector_gradientERKNS_5PointILi1EEERSt6vectorINS_6TensorILi1ELi1EEESaIS8_EE to i8*), i8* bitcast (void (%"class.dealii::Functions::JumpFunction"*, %"class.std::vector"*, %"class.std::vector.8"*, i32)* @_ZNK6dealii9Functions12JumpFunctionILi1EE13gradient_listERKSt6vectorINS_5PointILi1EEESaIS5_EERS3_INS_6TensorILi1ELi1EEESaISB_EEj to i8*), i8* bitcast (void (%"class.dealii::Function"*, %"class.std::vector"*, %"class.std::vector.50"*)* @_ZNK6dealii8FunctionILi1EE20vector_gradient_listERKSt6vectorINS_5PointILi1EEESaIS4_EERS2_IS2_INS_6TensorILi1ELi1EEESaISA_EESaISC_EE to i8*), i8* bitcast (double (%"class.dealii::Functions::JumpFunction"*, %"class.dealii::Point"*, i32)* @_ZNK6dealii9Functions12JumpFunctionILi1EE9laplacianERKNS_5PointILi1EEEj to i8*), i8* bitcast (void (%"class.dealii::Function"*, %"class.dealii::Point"*, %"class.dealii::Vector"*)* @_ZNK6dealii8FunctionILi1EE16vector_laplacianERKNS_5PointILi1EEERNS_6VectorIdEE to i8*), i8* bitcast (void (%"class.dealii::Functions::JumpFunction"*, %"class.std::vector"*, %"class.std::vector.3"*, i32)* @_ZNK6dealii9Functions12JumpFunctionILi1EE14laplacian_listERKSt6vectorINS_5PointILi1EEESaIS5_EERS3_IdSaIdEEj to i8*), i8* bitcast (void (%"class.dealii::Function"*, %"class.std::vector"*, %"class.std::vector.45"*)* @_ZNK6dealii8FunctionILi1EE21vector_laplacian_listERKSt6vectorINS_5PointILi1EEESaIS4_EERS2_INS_6VectorIdEESaISA_EE to i8*)], [4 x i8*] [i8* inttoptr (i64 -16 to i8*), i8* bitcast ({ i8*, i8*, i8* }* @_ZTIN6dealii9Functions12JumpFunctionILi1EEE to i8*), i8* bitcast (void (%"class.dealii::Functions::JumpFunction"*)* @_ZThn16_N6dealii9Functions12JumpFunctionILi1EED1Ev to i8*), i8* bitcast (void (%"class.dealii::Functions::JumpFunction"*)* @_ZThn16_N6dealii9Functions12JumpFunctionILi1EED0Ev to i8*)] }, comdat, align 8
@_ZTVN6dealii9Functions12JumpFunctionILi2EEE = weak_odr dso_local unnamed_addr constant { [18 x i8*], [4 x i8*] } { [18 x i8*] [i8* null, i8* bitcast ({ i8*, i8*, i8* }* @_ZTIN6dealii9Functions12JumpFunctionILi2EEE to i8*), i8* bitcast (void (%"class.dealii::Functions::JumpFunction.97"*)* @_ZN6dealii9Functions12JumpFunctionILi2EED2Ev to i8*), i8* bitcast (void (%"class.dealii::Functions::JumpFunction.97"*)* @_ZN6dealii9Functions12JumpFunctionILi2EED0Ev to i8*), i8* bitcast (void (%"class.dealii::FunctionTime"*, double)* @_ZN6dealii12FunctionTime8set_timeEd to i8*), i8* bitcast (void (%"class.dealii::FunctionTime"*, double)* @_ZN6dealii12FunctionTime12advance_timeEd to i8*), i8* bitcast (double (%"class.dealii::Functions::JumpFunction.97"*, %"class.dealii::Point.17"*, i32)* @_ZNK6dealii9Functions12JumpFunctionILi2EE5valueERKNS_5PointILi2EEEj to i8*), i8* bitcast (void (%"class.dealii::Function.14"*, %"class.dealii::Point.17"*, %"class.dealii::Vector"*)* @_ZNK6dealii8FunctionILi2EE12vector_valueERKNS_5PointILi2EEERNS_6VectorIdEE to i8*), i8* bitcast (void (%"class.dealii::Functions::JumpFunction.97"*, %"class.std::vector.19"*, %"class.std::vector.3"*, i32)* @_ZNK6dealii9Functions12JumpFunctionILi2EE10value_listERKSt6vectorINS_5PointILi2EEESaIS5_EERS3_IdSaIdEEj to i8*), i8* bitcast (void (%"class.dealii::Function.14"*, %"class.std::vector.19"*, %"class.std::vector.45"*)* @_ZNK6dealii8FunctionILi2EE17vector_value_listERKSt6vectorINS_5PointILi2EEESaIS4_EERS2_INS_6VectorIdEESaISA_EE to i8*), i8* bitcast (void (%"class.dealii::Tensor.18"*, %"class.dealii::Functions::JumpFunction.97"*, %"class.dealii::Point.17"*, i32)* @_ZNK6dealii9Functions12JumpFunctionILi2EE8gradientERKNS_5PointILi2EEEj to i8*), i8* bitcast (void (%"class.dealii::Function.14"*, %"class.dealii::Point.17"*, %"class.std::vector.24"*)* @_ZNK6dealii8FunctionILi2EE15vector_gradientERKNS_5PointILi2EEERSt6vectorINS_6TensorILi1ELi2EEESaIS8_EE to i8*), i8* bitcast (void (%"class.dealii::Functions::JumpFunction.97"*, %"class.std::vector.19"*, %"class.std::vector.24"*, i32)* @_ZNK6dealii9Functions12JumpFunctionILi2EE13gradient_listERKSt6vectorINS_5PointILi2EEESaIS5_EERS3_INS_6TensorILi1ELi2EEESaISB_EEj to i8*), i8* bitcast (void (%"class.dealii::Function.14"*, %"class.std::vector.19"*, %"class.std::vector.57"*)* @_ZNK6dealii8FunctionILi2EE20vector_gradient_listERKSt6vectorINS_5PointILi2EEESaIS4_EERS2_IS2_INS_6TensorILi1ELi2EEESaISA_EESaISC_EE to i8*), i8* bitcast (double (%"class.dealii::Functions::JumpFunction.97"*, %"class.dealii::Point.17"*, i32)* @_ZNK6dealii9Functions12JumpFunctionILi2EE9laplacianERKNS_5PointILi2EEEj to i8*), i8* bitcast (void (%"class.dealii::Function.14"*, %"class.dealii::Point.17"*, %"class.dealii::Vector"*)* @_ZNK6dealii8FunctionILi2EE16vector_laplacianERKNS_5PointILi2EEERNS_6VectorIdEE to i8*), i8* bitcast (void (%"class.dealii::Functions::JumpFunction.97"*, %"class.std::vector.19"*, %"class.std::vector.3"*, i32)* @_ZNK6dealii9Functions12JumpFunctionILi2EE14laplacian_listERKSt6vectorINS_5PointILi2EEESaIS5_EERS3_IdSaIdEEj to i8*), i8* bitcast (void (%"class.dealii::Function.14"*, %"class.std::vector.19"*, %"class.std::vector.45"*)* @_ZNK6dealii8FunctionILi2EE21vector_laplacian_listERKSt6vectorINS_5PointILi2EEESaIS4_EERS2_INS_6VectorIdEESaISA_EE to i8*)], [4 x i8*] [i8* inttoptr (i64 -16 to i8*), i8* bitcast ({ i8*, i8*, i8* }* @_ZTIN6dealii9Functions12JumpFunctionILi2EEE to i8*), i8* bitcast (void (%"class.dealii::Functions::JumpFunction.97"*)* @_ZThn16_N6dealii9Functions12JumpFunctionILi2EED1Ev to i8*), i8* bitcast (void (%"class.dealii::Functions::JumpFunction.97"*)* @_ZThn16_N6dealii9Functions12JumpFunctionILi2EED0Ev to i8*)] }, comdat, align 8
@_ZTVN6dealii9Functions12JumpFunctionILi3EEE = weak_odr dso_local unnamed_addr constant { [18 x i8*], [4 x i8*] } { [18 x i8*] [i8* null, i8* bitcast ({ i8*, i8*, i8* }* @_ZTIN6dealii9Functions12JumpFunctionILi3EEE to i8*), i8* bitcast (void (%"class.dealii::Functions::JumpFunction.98"*)* @_ZN6dealii9Functions12JumpFunctionILi3EED2Ev to i8*), i8* bitcast (void (%"class.dealii::Functions::JumpFunction.98"*)* @_ZN6dealii9Functions12JumpFunctionILi3EED0Ev to i8*), i8* bitcast (void (%"class.dealii::FunctionTime"*, double)* @_ZN6dealii12FunctionTime8set_timeEd to i8*), i8* bitcast (void (%"class.dealii::FunctionTime"*, double)* @_ZN6dealii12FunctionTime12advance_timeEd to i8*), i8* bitcast (double (%"class.dealii::Functions::JumpFunction.98"*, %"class.dealii::Point.33"*, i32)* @_ZNK6dealii9Functions12JumpFunctionILi3EE5valueERKNS_5PointILi3EEEj to i8*), i8* bitcast (void (%"class.dealii::Function.30"*, %"class.dealii::Point.33"*, %"class.dealii::Vector"*)* @_ZNK6dealii8FunctionILi3EE12vector_valueERKNS_5PointILi3EEERNS_6VectorIdEE to i8*), i8* bitcast (void (%"class.dealii::Functions::JumpFunction.98"*, %"class.std::vector.35"*, %"class.std::vector.3"*, i32)* @_ZNK6dealii9Functions12JumpFunctionILi3EE10value_listERKSt6vectorINS_5PointILi3EEESaIS5_EERS3_IdSaIdEEj to i8*), i8* bitcast (void (%"class.dealii::Function.30"*, %"class.std::vector.35"*, %"class.std::vector.45"*)* @_ZNK6dealii8FunctionILi3EE17vector_value_listERKSt6vectorINS_5PointILi3EEESaIS4_EERS2_INS_6VectorIdEESaISA_EE to i8*), i8* bitcast (void (%"class.dealii::Tensor.34"*, %"class.dealii::Functions::JumpFunction.98"*, %"class.dealii::Point.33"*, i32)* @_ZNK6dealii9Functions12JumpFunctionILi3EE8gradientERKNS_5PointILi3EEEj to i8*), i8* bitcast (void (%"class.dealii::Function.30"*, %"class.dealii::Point.33"*, %"class.std::vector.40"*)* @_ZNK6dealii8FunctionILi3EE15vector_gradientERKNS_5PointILi3EEERSt6vectorINS_6TensorILi1ELi3EEESaIS8_EE to i8*), i8* bitcast (void (%"class.dealii::Functions::JumpFunction.98"*, %"class.std::vector.35"*, %"class.std::vector.40"*, i32)* @_ZNK6dealii9Functions12JumpFunctionILi3EE13gradient_listERKSt6vectorINS_5PointILi3EEESaIS5_EERS3_INS_6TensorILi1ELi3EEESaISB_EEj to i8*), i8* bitcast (void (%"class.dealii::Function.30"*, %"class.std::vector.35"*, %"class.std::vector.64"*)* @_ZNK6dealii8FunctionILi3EE20vector_gradient_listERKSt6vectorINS_5PointILi3EEESaIS4_EERS2_IS2_INS_6TensorILi1ELi3EEESaISA_EESaISC_EE to i8*), i8* bitcast (double (%"class.dealii::Functions::JumpFunction.98"*, %"class.dealii::Point.33"*, i32)* @_ZNK6dealii9Functions12JumpFunctionILi3EE9laplacianERKNS_5PointILi3EEEj to i8*), i8* bitcast (void (%"class.dealii::Function.30"*, %"class.dealii::Point.33"*, %"class.dealii::Vector"*)* @_ZNK6dealii8FunctionILi3EE16vector_laplacianERKNS_5PointILi3EEERNS_6VectorIdEE to i8*), i8* bitcast (void (%"class.dealii::Functions::JumpFunction.98"*, %"class.std::vector.35"*, %"class.std::vector.3"*, i32)* @_ZNK6dealii9Functions12JumpFunctionILi3EE14laplacian_listERKSt6vectorINS_5PointILi3EEESaIS5_EERS3_IdSaIdEEj to i8*), i8* bitcast (void (%"class.dealii::Function.30"*, %"class.std::vector.35"*, %"class.std::vector.45"*)* @_ZNK6dealii8FunctionILi3EE21vector_laplacian_listERKSt6vectorINS_5PointILi3EEESaIS4_EERS2_INS_6VectorIdEESaISA_EE to i8*)], [4 x i8*] [i8* inttoptr (i64 -16 to i8*), i8* bitcast ({ i8*, i8*, i8* }* @_ZTIN6dealii9Functions12JumpFunctionILi3EEE to i8*), i8* bitcast (void (%"class.dealii::Functions::JumpFunction.98"*)* @_ZThn16_N6dealii9Functions12JumpFunctionILi3EED1Ev to i8*), i8* bitcast (void (%"class.dealii::Functions::JumpFunction.98"*)* @_ZThn16_N6dealii9Functions12JumpFunctionILi3EED0Ev to i8*)] }, comdat, align 8
@_ZTVN6dealii9Functions21FourierCosineFunctionILi1EEE = weak_odr dso_local unnamed_addr constant { [18 x i8*], [4 x i8*] } { [18 x i8*] [i8* null, i8* bitcast ({ i8*, i8*, i8* }* @_ZTIN6dealii9Functions21FourierCosineFunctionILi1EEE to i8*), i8* bitcast (void (%"class.dealii::Functions::FourierCosineFunction"*)* @_ZN6dealii9Functions21FourierCosineFunctionILi1EED2Ev to i8*), i8* bitcast (void (%"class.dealii::Functions::FourierCosineFunction"*)* @_ZN6dealii9Functions21FourierCosineFunctionILi1EED0Ev to i8*), i8* bitcast (void (%"class.dealii::FunctionTime"*, double)* @_ZN6dealii12FunctionTime8set_timeEd to i8*), i8* bitcast (void (%"class.dealii::FunctionTime"*, double)* @_ZN6dealii12FunctionTime12advance_timeEd to i8*), i8* bitcast (double (%"class.dealii::Functions::FourierCosineFunction"*, %"class.dealii::Point"*, i32)* @_ZNK6dealii9Functions21FourierCosineFunctionILi1EE5valueERKNS_5PointILi1EEEj to i8*), i8* bitcast (void (%"class.dealii::Function"*, %"class.dealii::Point"*, %"class.dealii::Vector"*)* @_ZNK6dealii8FunctionILi1EE12vector_valueERKNS_5PointILi1EEERNS_6VectorIdEE to i8*), i8* bitcast (void (%"class.dealii::Function"*, %"class.std::vector"*, %"class.std::vector.3"*, i32)* @_ZNK6dealii8FunctionILi1EE10value_listERKSt6vectorINS_5PointILi1EEESaIS4_EERS2_IdSaIdEEj to i8*), i8* bitcast (void (%"class.dealii::Function"*, %"class.std::vector"*, %"class.std::vector.45"*)* @_ZNK6dealii8FunctionILi1EE17vector_value_listERKSt6vectorINS_5PointILi1EEESaIS4_EERS2_INS_6VectorIdEESaISA_EE to i8*), i8* bitcast (void (%"class.dealii::Tensor"*, %"class.dealii::Functions::FourierCosineFunction"*, %"class.dealii::Point"*, i32)* @_ZNK6dealii9Functions21FourierCosineFunctionILi1EE8gradientERKNS_5PointILi1EEEj to i8*), i8* bitcast (void (%"class.dealii::Function"*, %"class.dealii::Point"*, %"class.std::vector.8"*)* @_ZNK6dealii8FunctionILi1EE15vector_gradientERKNS_5PointILi1EEERSt6vectorINS_6TensorILi1ELi1EEESaIS8_EE to i8*), i8* bitcast (void (%"class.dealii::Function"*, %"class.std::vector"*, %"class.std::vector.8"*, i32)* @_ZNK6dealii8FunctionILi1EE13gradient_listERKSt6vectorINS_5PointILi1EEESaIS4_EERS2_INS_6TensorILi1ELi1EEESaISA_EEj to i8*), i8* bitcast (void (%"class.dealii::Function"*, %"class.std::vector"*, %"class.std::vector.50"*)* @_ZNK6dealii8FunctionILi1EE20vector_gradient_listERKSt6vectorINS_5PointILi1EEESaIS4_EERS2_IS2_INS_6TensorILi1ELi1EEESaISA_EESaISC_EE to i8*), i8* bitcast (double (%"class.dealii::Functions::FourierCosineFunction"*, %"class.dealii::Point"*, i32)* @_ZNK6dealii9Functions21FourierCosineFunctionILi1EE9laplacianERKNS_5PointILi1EEEj to i8*), i8* bitcast (void (%"class.dealii::Function"*, %"class.dealii::Point"*, %"class.dealii::Vector"*)* @_ZNK6dealii8FunctionILi1EE16vector_laplacianERKNS_5PointILi1EEERNS_6VectorIdEE to i8*), i8* bitcast (void (%"class.dealii::Function"*, %"class.std::vector"*, %"class.std::vector.3"*, i32)* @_ZNK6dealii8FunctionILi1EE14laplacian_listERKSt6vectorINS_5PointILi1EEESaIS4_EERS2_IdSaIdEEj to i8*), i8* bitcast (void (%"class.dealii::Function"*, %"class.std::vector"*, %"class.std::vector.45"*)* @_ZNK6dealii8FunctionILi1EE21vector_laplacian_listERKSt6vectorINS_5PointILi1EEESaIS4_EERS2_INS_6VectorIdEESaISA_EE to i8*)], [4 x i8*] [i8* inttoptr (i64 -16 to i8*), i8* bitcast ({ i8*, i8*, i8* }* @_ZTIN6dealii9Functions21FourierCosineFunctionILi1EEE to i8*), i8* bitcast (void (%"class.dealii::Functions::FourierCosineFunction"*)* @_ZThn16_N6dealii9Functions21FourierCosineFunctionILi1EED1Ev to i8*), i8* bitcast (void (%"class.dealii::Functions::FourierCosineFunction"*)* @_ZThn16_N6dealii9Functions21FourierCosineFunctionILi1EED0Ev to i8*)] }, comdat, align 8
@_ZTVN6dealii9Functions21FourierCosineFunctionILi2EEE = weak_odr dso_local unnamed_addr constant { [18 x i8*], [4 x i8*] } { [18 x i8*] [i8* null, i8* bitcast ({ i8*, i8*, i8* }* @_ZTIN6dealii9Functions21FourierCosineFunctionILi2EEE to i8*), i8* bitcast (void (%"class.dealii::Functions::FourierCosineFunction.99"*)* @_ZN6dealii9Functions21FourierCosineFunctionILi2EED2Ev to i8*), i8* bitcast (void (%"class.dealii::Functions::FourierCosineFunction.99"*)* @_ZN6dealii9Functions21FourierCosineFunctionILi2EED0Ev to i8*), i8* bitcast (void (%"class.dealii::FunctionTime"*, double)* @_ZN6dealii12FunctionTime8set_timeEd to i8*), i8* bitcast (void (%"class.dealii::FunctionTime"*, double)* @_ZN6dealii12FunctionTime12advance_timeEd to i8*), i8* bitcast (double (%"class.dealii::Functions::FourierCosineFunction.99"*, %"class.dealii::Point.17"*, i32)* @_ZNK6dealii9Functions21FourierCosineFunctionILi2EE5valueERKNS_5PointILi2EEEj to i8*), i8* bitcast (void (%"class.dealii::Function.14"*, %"class.dealii::Point.17"*, %"class.dealii::Vector"*)* @_ZNK6dealii8FunctionILi2EE12vector_valueERKNS_5PointILi2EEERNS_6VectorIdEE to i8*), i8* bitcast (void (%"class.dealii::Function.14"*, %"class.std::vector.19"*, %"class.std::vector.3"*, i32)* @_ZNK6dealii8FunctionILi2EE10value_listERKSt6vectorINS_5PointILi2EEESaIS4_EERS2_IdSaIdEEj to i8*), i8* bitcast (void (%"class.dealii::Function.14"*, %"class.std::vector.19"*, %"class.std::vector.45"*)* @_ZNK6dealii8FunctionILi2EE17vector_value_listERKSt6vectorINS_5PointILi2EEESaIS4_EERS2_INS_6VectorIdEESaISA_EE to i8*), i8* bitcast (void (%"class.dealii::Tensor.18"*, %"class.dealii::Functions::FourierCosineFunction.99"*, %"class.dealii::Point.17"*, i32)* @_ZNK6dealii9Functions21FourierCosineFunctionILi2EE8gradientERKNS_5PointILi2EEEj to i8*), i8* bitcast (void (%"class.dealii::Function.14"*, %"class.dealii::Point.17"*, %"class.std::vector.24"*)* @_ZNK6dealii8FunctionILi2EE15vector_gradientERKNS_5PointILi2EEERSt6vectorINS_6TensorILi1ELi2EEESaIS8_EE to i8*), i8* bitcast (void (%"class.dealii::Function.14"*, %"class.std::vector.19"*, %"class.std::vector.24"*, i32)* @_ZNK6dealii8FunctionILi2EE13gradient_listERKSt6vectorINS_5PointILi2EEESaIS4_EERS2_INS_6TensorILi1ELi2EEESaISA_EEj to i8*), i8* bitcast (void (%"class.dealii::Function.14"*, %"class.std::vector.19"*, %"class.std::vector.57"*)* @_ZNK6dealii8FunctionILi2EE20vector_gradient_listERKSt6vectorINS_5PointILi2EEESaIS4_EERS2_IS2_INS_6TensorILi1ELi2EEESaISA_EESaISC_EE to i8*), i8* bitcast (double (%"class.dealii::Functions::FourierCosineFunction.99"*, %"class.dealii::Point.17"*, i32)* @_ZNK6dealii9Functions21FourierCosineFunctionILi2EE9laplacianERKNS_5PointILi2EEEj to i8*), i8* bitcast (void (%"class.dealii::Function.14"*, %"class.dealii::Point.17"*, %"class.dealii::Vector"*)* @_ZNK6dealii8FunctionILi2EE16vector_laplacianERKNS_5PointILi2EEERNS_6VectorIdEE to i8*), i8* bitcast (void (%"class.dealii::Function.14"*, %"class.std::vector.19"*, %"class.std::vector.3"*, i32)* @_ZNK6dealii8FunctionILi2EE14laplacian_listERKSt6vectorINS_5PointILi2EEESaIS4_EERS2_IdSaIdEEj to i8*), i8* bitcast (void (%"class.dealii::Function.14"*, %"class.std::vector.19"*, %"class.std::vector.45"*)* @_ZNK6dealii8FunctionILi2EE21vector_laplacian_listERKSt6vectorINS_5PointILi2EEESaIS4_EERS2_INS_6VectorIdEESaISA_EE to i8*)], [4 x i8*] [i8* inttoptr (i64 -16 to i8*), i8* bitcast ({ i8*, i8*, i8* }* @_ZTIN6dealii9Functions21FourierCosineFunctionILi2EEE to i8*), i8* bitcast (void (%"class.dealii::Functions::FourierCosineFunction.99"*)* @_ZThn16_N6dealii9Functions21FourierCosineFunctionILi2EED1Ev to i8*), i8* bitcast (void (%"class.dealii::Functions::FourierCosineFunction.99"*)* @_ZThn16_N6dealii9Functions21FourierCosineFunctionILi2EED0Ev to i8*)] }, comdat, align 8
@_ZTVN6dealii9Functions21FourierCosineFunctionILi3EEE = weak_odr dso_local unnamed_addr constant { [18 x i8*], [4 x i8*] } { [18 x i8*] [i8* null, i8* bitcast ({ i8*, i8*, i8* }* @_ZTIN6dealii9Functions21FourierCosineFunctionILi3EEE to i8*), i8* bitcast (void (%"class.dealii::Functions::FourierCosineFunction.100"*)* @_ZN6dealii9Functions21FourierCosineFunctionILi3EED2Ev to i8*), i8* bitcast (void (%"class.dealii::Functions::FourierCosineFunction.100"*)* @_ZN6dealii9Functions21FourierCosineFunctionILi3EED0Ev to i8*), i8* bitcast (void (%"class.dealii::FunctionTime"*, double)* @_ZN6dealii12FunctionTime8set_timeEd to i8*), i8* bitcast (void (%"class.dealii::FunctionTime"*, double)* @_ZN6dealii12FunctionTime12advance_timeEd to i8*), i8* bitcast (double (%"class.dealii::Functions::FourierCosineFunction.100"*, %"class.dealii::Point.33"*, i32)* @_ZNK6dealii9Functions21FourierCosineFunctionILi3EE5valueERKNS_5PointILi3EEEj to i8*), i8* bitcast (void (%"class.dealii::Function.30"*, %"class.dealii::Point.33"*, %"class.dealii::Vector"*)* @_ZNK6dealii8FunctionILi3EE12vector_valueERKNS_5PointILi3EEERNS_6VectorIdEE to i8*), i8* bitcast (void (%"class.dealii::Function.30"*, %"class.std::vector.35"*, %"class.std::vector.3"*, i32)* @_ZNK6dealii8FunctionILi3EE10value_listERKSt6vectorINS_5PointILi3EEESaIS4_EERS2_IdSaIdEEj to i8*), i8* bitcast (void (%"class.dealii::Function.30"*, %"class.std::vector.35"*, %"class.std::vector.45"*)* @_ZNK6dealii8FunctionILi3EE17vector_value_listERKSt6vectorINS_5PointILi3EEESaIS4_EERS2_INS_6VectorIdEESaISA_EE to i8*), i8* bitcast (void (%"class.dealii::Tensor.34"*, %"class.dealii::Functions::FourierCosineFunction.100"*, %"class.dealii::Point.33"*, i32)* @_ZNK6dealii9Functions21FourierCosineFunctionILi3EE8gradientERKNS_5PointILi3EEEj to i8*), i8* bitcast (void (%"class.dealii::Function.30"*, %"class.dealii::Point.33"*, %"class.std::vector.40"*)* @_ZNK6dealii8FunctionILi3EE15vector_gradientERKNS_5PointILi3EEERSt6vectorINS_6TensorILi1ELi3EEESaIS8_EE to i8*), i8* bitcast (void (%"class.dealii::Function.30"*, %"class.std::vector.35"*, %"class.std::vector.40"*, i32)* @_ZNK6dealii8FunctionILi3EE13gradient_listERKSt6vectorINS_5PointILi3EEESaIS4_EERS2_INS_6TensorILi1ELi3EEESaISA_EEj to i8*), i8* bitcast (void (%"class.dealii::Function.30"*, %"class.std::vector.35"*, %"class.std::vector.64"*)* @_ZNK6dealii8FunctionILi3EE20vector_gradient_listERKSt6vectorINS_5PointILi3EEESaIS4_EERS2_IS2_INS_6TensorILi1ELi3EEESaISA_EESaISC_EE to i8*), i8* bitcast (double (%"class.dealii::Functions::FourierCosineFunction.100"*, %"class.dealii::Point.33"*, i32)* @_ZNK6dealii9Functions21FourierCosineFunctionILi3EE9laplacianERKNS_5PointILi3EEEj to i8*), i8* bitcast (void (%"class.dealii::Function.30"*, %"class.dealii::Point.33"*, %"class.dealii::Vector"*)* @_ZNK6dealii8FunctionILi3EE16vector_laplacianERKNS_5PointILi3EEERNS_6VectorIdEE to i8*), i8* bitcast (void (%"class.dealii::Function.30"*, %"class.std::vector.35"*, %"class.std::vector.3"*, i32)* @_ZNK6dealii8FunctionILi3EE14laplacian_listERKSt6vectorINS_5PointILi3EEESaIS4_EERS2_IdSaIdEEj to i8*), i8* bitcast (void (%"class.dealii::Function.30"*, %"class.std::vector.35"*, %"class.std::vector.45"*)* @_ZNK6dealii8FunctionILi3EE21vector_laplacian_listERKSt6vectorINS_5PointILi3EEESaIS4_EERS2_INS_6VectorIdEESaISA_EE to i8*)], [4 x i8*] [i8* inttoptr (i64 -16 to i8*), i8* bitcast ({ i8*, i8*, i8* }* @_ZTIN6dealii9Functions21FourierCosineFunctionILi3EEE to i8*), i8* bitcast (void (%"class.dealii::Functions::FourierCosineFunction.100"*)* @_ZThn16_N6dealii9Functions21FourierCosineFunctionILi3EED1Ev to i8*), i8* bitcast (void (%"class.dealii::Functions::FourierCosineFunction.100"*)* @_ZThn16_N6dealii9Functions21FourierCosineFunctionILi3EED0Ev to i8*)] }, comdat, align 8
@_ZTVN6dealii9Functions19FourierSineFunctionILi1EEE = weak_odr dso_local unnamed_addr constant { [18 x i8*], [4 x i8*] } { [18 x i8*] [i8* null, i8* bitcast ({ i8*, i8*, i8* }* @_ZTIN6dealii9Functions19FourierSineFunctionILi1EEE to i8*), i8* bitcast (void (%"class.dealii::Functions::FourierSineFunction"*)* @_ZN6dealii9Functions19FourierSineFunctionILi1EED2Ev to i8*), i8* bitcast (void (%"class.dealii::Functions::FourierSineFunction"*)* @_ZN6dealii9Functions19FourierSineFunctionILi1EED0Ev to i8*), i8* bitcast (void (%"class.dealii::FunctionTime"*, double)* @_ZN6dealii12FunctionTime8set_timeEd to i8*), i8* bitcast (void (%"class.dealii::FunctionTime"*, double)* @_ZN6dealii12FunctionTime12advance_timeEd to i8*), i8* bitcast (double (%"class.dealii::Functions::FourierSineFunction"*, %"class.dealii::Point"*, i32)* @_ZNK6dealii9Functions19FourierSineFunctionILi1EE5valueERKNS_5PointILi1EEEj to i8*), i8* bitcast (void (%"class.dealii::Function"*, %"class.dealii::Point"*, %"class.dealii::Vector"*)* @_ZNK6dealii8FunctionILi1EE12vector_valueERKNS_5PointILi1EEERNS_6VectorIdEE to i8*), i8* bitcast (void (%"class.dealii::Function"*, %"class.std::vector"*, %"class.std::vector.3"*, i32)* @_ZNK6dealii8FunctionILi1EE10value_listERKSt6vectorINS_5PointILi1EEESaIS4_EERS2_IdSaIdEEj to i8*), i8* bitcast (void (%"class.dealii::Function"*, %"class.std::vector"*, %"class.std::vector.45"*)* @_ZNK6dealii8FunctionILi1EE17vector_value_listERKSt6vectorINS_5PointILi1EEESaIS4_EERS2_INS_6VectorIdEESaISA_EE to i8*), i8* bitcast (void (%"class.dealii::Tensor"*, %"class.dealii::Functions::FourierSineFunction"*, %"class.dealii::Point"*, i32)* @_ZNK6dealii9Functions19FourierSineFunctionILi1EE8gradientERKNS_5PointILi1EEEj to i8*), i8* bitcast (void (%"class.dealii::Function"*, %"class.dealii::Point"*, %"class.std::vector.8"*)* @_ZNK6dealii8FunctionILi1EE15vector_gradientERKNS_5PointILi1EEERSt6vectorINS_6TensorILi1ELi1EEESaIS8_EE to i8*), i8* bitcast (void (%"class.dealii::Function"*, %"class.std::vector"*, %"class.std::vector.8"*, i32)* @_ZNK6dealii8FunctionILi1EE13gradient_listERKSt6vectorINS_5PointILi1EEESaIS4_EERS2_INS_6TensorILi1ELi1EEESaISA_EEj to i8*), i8* bitcast (void (%"class.dealii::Function"*, %"class.std::vector"*, %"class.std::vector.50"*)* @_ZNK6dealii8FunctionILi1EE20vector_gradient_listERKSt6vectorINS_5PointILi1EEESaIS4_EERS2_IS2_INS_6TensorILi1ELi1EEESaISA_EESaISC_EE to i8*), i8* bitcast (double (%"class.dealii::Functions::FourierSineFunction"*, %"class.dealii::Point"*, i32)* @_ZNK6dealii9Functions19FourierSineFunctionILi1EE9laplacianERKNS_5PointILi1EEEj to i8*), i8* bitcast (void (%"class.dealii::Function"*, %"class.dealii::Point"*, %"class.dealii::Vector"*)* @_ZNK6dealii8FunctionILi1EE16vector_laplacianERKNS_5PointILi1EEERNS_6VectorIdEE to i8*), i8* bitcast (void (%"class.dealii::Function"*, %"class.std::vector"*, %"class.std::vector.3"*, i32)* @_ZNK6dealii8FunctionILi1EE14laplacian_listERKSt6vectorINS_5PointILi1EEESaIS4_EERS2_IdSaIdEEj to i8*), i8* bitcast (void (%"class.dealii::Function"*, %"class.std::vector"*, %"class.std::vector.45"*)* @_ZNK6dealii8FunctionILi1EE21vector_laplacian_listERKSt6vectorINS_5PointILi1EEESaIS4_EERS2_INS_6VectorIdEESaISA_EE to i8*)], [4 x i8*] [i8* inttoptr (i64 -16 to i8*), i8* bitcast ({ i8*, i8*, i8* }* @_ZTIN6dealii9Functions19FourierSineFunctionILi1EEE to i8*), i8* bitcast (void (%"class.dealii::Functions::FourierSineFunction"*)* @_ZThn16_N6dealii9Functions19FourierSineFunctionILi1EED1Ev to i8*), i8* bitcast (void (%"class.dealii::Functions::FourierSineFunction"*)* @_ZThn16_N6dealii9Functions19FourierSineFunctionILi1EED0Ev to i8*)] }, comdat, align 8
@_ZTVN6dealii9Functions19FourierSineFunctionILi2EEE = weak_odr dso_local unnamed_addr constant { [18 x i8*], [4 x i8*] } { [18 x i8*] [i8* null, i8* bitcast ({ i8*, i8*, i8* }* @_ZTIN6dealii9Functions19FourierSineFunctionILi2EEE to i8*), i8* bitcast (void (%"class.dealii::Functions::FourierSineFunction.101"*)* @_ZN6dealii9Functions19FourierSineFunctionILi2EED2Ev to i8*), i8* bitcast (void (%"class.dealii::Functions::FourierSineFunction.101"*)* @_ZN6dealii9Functions19FourierSineFunctionILi2EED0Ev to i8*), i8* bitcast (void (%"class.dealii::FunctionTime"*, double)* @_ZN6dealii12FunctionTime8set_timeEd to i8*), i8* bitcast (void (%"class.dealii::FunctionTime"*, double)* @_ZN6dealii12FunctionTime12advance_timeEd to i8*), i8* bitcast (double (%"class.dealii::Functions::FourierSineFunction.101"*, %"class.dealii::Point.17"*, i32)* @_ZNK6dealii9Functions19FourierSineFunctionILi2EE5valueERKNS_5PointILi2EEEj to i8*), i8* bitcast (void (%"class.dealii::Function.14"*, %"class.dealii::Point.17"*, %"class.dealii::Vector"*)* @_ZNK6dealii8FunctionILi2EE12vector_valueERKNS_5PointILi2EEERNS_6VectorIdEE to i8*), i8* bitcast (void (%"class.dealii::Function.14"*, %"class.std::vector.19"*, %"class.std::vector.3"*, i32)* @_ZNK6dealii8FunctionILi2EE10value_listERKSt6vectorINS_5PointILi2EEESaIS4_EERS2_IdSaIdEEj to i8*), i8* bitcast (void (%"class.dealii::Function.14"*, %"class.std::vector.19"*, %"class.std::vector.45"*)* @_ZNK6dealii8FunctionILi2EE17vector_value_listERKSt6vectorINS_5PointILi2EEESaIS4_EERS2_INS_6VectorIdEESaISA_EE to i8*), i8* bitcast (void (%"class.dealii::Tensor.18"*, %"class.dealii::Functions::FourierSineFunction.101"*, %"class.dealii::Point.17"*, i32)* @_ZNK6dealii9Functions19FourierSineFunctionILi2EE8gradientERKNS_5PointILi2EEEj to i8*), i8* bitcast (void (%"class.dealii::Function.14"*, %"class.dealii::Point.17"*, %"class.std::vector.24"*)* @_ZNK6dealii8FunctionILi2EE15vector_gradientERKNS_5PointILi2EEERSt6vectorINS_6TensorILi1ELi2EEESaIS8_EE to i8*), i8* bitcast (void (%"class.dealii::Function.14"*, %"class.std::vector.19"*, %"class.std::vector.24"*, i32)* @_ZNK6dealii8FunctionILi2EE13gradient_listERKSt6vectorINS_5PointILi2EEESaIS4_EERS2_INS_6TensorILi1ELi2EEESaISA_EEj to i8*), i8* bitcast (void (%"class.dealii::Function.14"*, %"class.std::vector.19"*, %"class.std::vector.57"*)* @_ZNK6dealii8FunctionILi2EE20vector_gradient_listERKSt6vectorINS_5PointILi2EEESaIS4_EERS2_IS2_INS_6TensorILi1ELi2EEESaISA_EESaISC_EE to i8*), i8* bitcast (double (%"class.dealii::Functions::FourierSineFunction.101"*, %"class.dealii::Point.17"*, i32)* @_ZNK6dealii9Functions19FourierSineFunctionILi2EE9laplacianERKNS_5PointILi2EEEj to i8*), i8* bitcast (void (%"class.dealii::Function.14"*, %"class.dealii::Point.17"*, %"class.dealii::Vector"*)* @_ZNK6dealii8FunctionILi2EE16vector_laplacianERKNS_5PointILi2EEERNS_6VectorIdEE to i8*), i8* bitcast (void (%"class.dealii::Function.14"*, %"class.std::vector.19"*, %"class.std::vector.3"*, i32)* @_ZNK6dealii8FunctionILi2EE14laplacian_listERKSt6vectorINS_5PointILi2EEESaIS4_EERS2_IdSaIdEEj to i8*), i8* bitcast (void (%"class.dealii::Function.14"*, %"class.std::vector.19"*, %"class.std::vector.45"*)* @_ZNK6dealii8FunctionILi2EE21vector_laplacian_listERKSt6vectorINS_5PointILi2EEESaIS4_EERS2_INS_6VectorIdEESaISA_EE to i8*)], [4 x i8*] [i8* inttoptr (i64 -16 to i8*), i8* bitcast ({ i8*, i8*, i8* }* @_ZTIN6dealii9Functions19FourierSineFunctionILi2EEE to i8*), i8* bitcast (void (%"class.dealii::Functions::FourierSineFunction.101"*)* @_ZThn16_N6dealii9Functions19FourierSineFunctionILi2EED1Ev to i8*), i8* bitcast (void (%"class.dealii::Functions::FourierSineFunction.101"*)* @_ZThn16_N6dealii9Functions19FourierSineFunctionILi2EED0Ev to i8*)] }, comdat, align 8
@_ZTVN6dealii9Functions19FourierSineFunctionILi3EEE = weak_odr dso_local unnamed_addr constant { [18 x i8*], [4 x i8*] } { [18 x i8*] [i8* null, i8* bitcast ({ i8*, i8*, i8* }* @_ZTIN6dealii9Functions19FourierSineFunctionILi3EEE to i8*), i8* bitcast (void (%"class.dealii::Functions::FourierSineFunction.102"*)* @_ZN6dealii9Functions19FourierSineFunctionILi3EED2Ev to i8*), i8* bitcast (void (%"class.dealii::Functions::FourierSineFunction.102"*)* @_ZN6dealii9Functions19FourierSineFunctionILi3EED0Ev to i8*), i8* bitcast (void (%"class.dealii::FunctionTime"*, double)* @_ZN6dealii12FunctionTime8set_timeEd to i8*), i8* bitcast (void (%"class.dealii::FunctionTime"*, double)* @_ZN6dealii12FunctionTime12advance_timeEd to i8*), i8* bitcast (double (%"class.dealii::Functions::FourierSineFunction.102"*, %"class.dealii::Point.33"*, i32)* @_ZNK6dealii9Functions19FourierSineFunctionILi3EE5valueERKNS_5PointILi3EEEj to i8*), i8* bitcast (void (%"class.dealii::Function.30"*, %"class.dealii::Point.33"*, %"class.dealii::Vector"*)* @_ZNK6dealii8FunctionILi3EE12vector_valueERKNS_5PointILi3EEERNS_6VectorIdEE to i8*), i8* bitcast (void (%"class.dealii::Function.30"*, %"class.std::vector.35"*, %"class.std::vector.3"*, i32)* @_ZNK6dealii8FunctionILi3EE10value_listERKSt6vectorINS_5PointILi3EEESaIS4_EERS2_IdSaIdEEj to i8*), i8* bitcast (void (%"class.dealii::Function.30"*, %"class.std::vector.35"*, %"class.std::vector.45"*)* @_ZNK6dealii8FunctionILi3EE17vector_value_listERKSt6vectorINS_5PointILi3EEESaIS4_EERS2_INS_6VectorIdEESaISA_EE to i8*), i8* bitcast (void (%"class.dealii::Tensor.34"*, %"class.dealii::Functions::FourierSineFunction.102"*, %"class.dealii::Point.33"*, i32)* @_ZNK6dealii9Functions19FourierSineFunctionILi3EE8gradientERKNS_5PointILi3EEEj to i8*), i8* bitcast (void (%"class.dealii::Function.30"*, %"class.dealii::Point.33"*, %"class.std::vector.40"*)* @_ZNK6dealii8FunctionILi3EE15vector_gradientERKNS_5PointILi3EEERSt6vectorINS_6TensorILi1ELi3EEESaIS8_EE to i8*), i8* bitcast (void (%"class.dealii::Function.30"*, %"class.std::vector.35"*, %"class.std::vector.40"*, i32)* @_ZNK6dealii8FunctionILi3EE13gradient_listERKSt6vectorINS_5PointILi3EEESaIS4_EERS2_INS_6TensorILi1ELi3EEESaISA_EEj to i8*), i8* bitcast (void (%"class.dealii::Function.30"*, %"class.std::vector.35"*, %"class.std::vector.64"*)* @_ZNK6dealii8FunctionILi3EE20vector_gradient_listERKSt6vectorINS_5PointILi3EEESaIS4_EERS2_IS2_INS_6TensorILi1ELi3EEESaISA_EESaISC_EE to i8*), i8* bitcast (double (%"class.dealii::Functions::FourierSineFunction.102"*, %"class.dealii::Point.33"*, i32)* @_ZNK6dealii9Functions19FourierSineFunctionILi3EE9laplacianERKNS_5PointILi3EEEj to i8*), i8* bitcast (void (%"class.dealii::Function.30"*, %"class.dealii::Point.33"*, %"class.dealii::Vector"*)* @_ZNK6dealii8FunctionILi3EE16vector_laplacianERKNS_5PointILi3EEERNS_6VectorIdEE to i8*), i8* bitcast (void (%"class.dealii::Function.30"*, %"class.std::vector.35"*, %"class.std::vector.3"*, i32)* @_ZNK6dealii8FunctionILi3EE14laplacian_listERKSt6vectorINS_5PointILi3EEESaIS4_EERS2_IdSaIdEEj to i8*), i8* bitcast (void (%"class.dealii::Function.30"*, %"class.std::vector.35"*, %"class.std::vector.45"*)* @_ZNK6dealii8FunctionILi3EE21vector_laplacian_listERKSt6vectorINS_5PointILi3EEESaIS4_EERS2_INS_6VectorIdEESaISA_EE to i8*)], [4 x i8*] [i8* inttoptr (i64 -16 to i8*), i8* bitcast ({ i8*, i8*, i8* }* @_ZTIN6dealii9Functions19FourierSineFunctionILi3EEE to i8*), i8* bitcast (void (%"class.dealii::Functions::FourierSineFunction.102"*)* @_ZThn16_N6dealii9Functions19FourierSineFunctionILi3EED1Ev to i8*), i8* bitcast (void (%"class.dealii::Functions::FourierSineFunction.102"*)* @_ZThn16_N6dealii9Functions19FourierSineFunctionILi3EED0Ev to i8*)] }, comdat, align 8
@_ZTVN6dealii9Functions16FourierCosineSumILi1EEE = weak_odr dso_local unnamed_addr constant { [18 x i8*], [4 x i8*] } { [18 x i8*] [i8* null, i8* bitcast ({ i8*, i8*, i8* }* @_ZTIN6dealii9Functions16FourierCosineSumILi1EEE to i8*), i8* bitcast (void (%"class.dealii::Functions::FourierCosineSum"*)* @_ZN6dealii9Functions16FourierCosineSumILi1EED2Ev to i8*), i8* bitcast (void (%"class.dealii::Functions::FourierCosineSum"*)* @_ZN6dealii9Functions16FourierCosineSumILi1EED0Ev to i8*), i8* bitcast (void (%"class.dealii::FunctionTime"*, double)* @_ZN6dealii12FunctionTime8set_timeEd to i8*), i8* bitcast (void (%"class.dealii::FunctionTime"*, double)* @_ZN6dealii12FunctionTime12advance_timeEd to i8*), i8* bitcast (double (%"class.dealii::Functions::FourierCosineSum"*, %"class.dealii::Point"*, i32)* @_ZNK6dealii9Functions16FourierCosineSumILi1EE5valueERKNS_5PointILi1EEEj to i8*), i8* bitcast (void (%"class.dealii::Function"*, %"class.dealii::Point"*, %"class.dealii::Vector"*)* @_ZNK6dealii8FunctionILi1EE12vector_valueERKNS_5PointILi1EEERNS_6VectorIdEE to i8*), i8* bitcast (void (%"class.dealii::Function"*, %"class.std::vector"*, %"class.std::vector.3"*, i32)* @_ZNK6dealii8FunctionILi1EE10value_listERKSt6vectorINS_5PointILi1EEESaIS4_EERS2_IdSaIdEEj to i8*), i8* bitcast (void (%"class.dealii::Function"*, %"class.std::vector"*, %"class.std::vector.45"*)* @_ZNK6dealii8FunctionILi1EE17vector_value_listERKSt6vectorINS_5PointILi1EEESaIS4_EERS2_INS_6VectorIdEESaISA_EE to i8*), i8* bitcast (void (%"class.dealii::Tensor"*, %"class.dealii::Functions::FourierCosineSum"*, %"class.dealii::Point"*, i32)* @_ZNK6dealii9Functions16FourierCosineSumILi1EE8gradientERKNS_5PointILi1EEEj to i8*), i8* bitcast (void (%"class.dealii::Function"*, %"class.dealii::Point"*, %"class.std::vector.8"*)* @_ZNK6dealii8FunctionILi1EE15vector_gradientERKNS_5PointILi1EEERSt6vectorINS_6TensorILi1ELi1EEESaIS8_EE to i8*), i8* bitcast (void (%"class.dealii::Function"*, %"class.std::vector"*, %"class.std::vector.8"*, i32)* @_ZNK6dealii8FunctionILi1EE13gradient_listERKSt6vectorINS_5PointILi1EEESaIS4_EERS2_INS_6TensorILi1ELi1EEESaISA_EEj to i8*), i8* bitcast (void (%"class.dealii::Function"*, %"class.std::vector"*, %"class.std::vector.50"*)* @_ZNK6dealii8FunctionILi1EE20vector_gradient_listERKSt6vectorINS_5PointILi1EEESaIS4_EERS2_IS2_INS_6TensorILi1ELi1EEESaISA_EESaISC_EE to i8*), i8* bitcast (double (%"class.dealii::Functions::FourierCosineSum"*, %"class.dealii::Point"*, i32)* @_ZNK6dealii9Functions16FourierCosineSumILi1EE9laplacianERKNS_5PointILi1EEEj to i8*), i8* bitcast (void (%"class.dealii::Function"*, %"class.dealii::Point"*, %"class.dealii::Vector"*)* @_ZNK6dealii8FunctionILi1EE16vector_laplacianERKNS_5PointILi1EEERNS_6VectorIdEE to i8*), i8* bitcast (void (%"class.dealii::Function"*, %"class.std::vector"*, %"class.std::vector.3"*, i32)* @_ZNK6dealii8FunctionILi1EE14laplacian_listERKSt6vectorINS_5PointILi1EEESaIS4_EERS2_IdSaIdEEj to i8*), i8* bitcast (void (%"class.dealii::Function"*, %"class.std::vector"*, %"class.std::vector.45"*)* @_ZNK6dealii8FunctionILi1EE21vector_laplacian_listERKSt6vectorINS_5PointILi1EEESaIS4_EERS2_INS_6VectorIdEESaISA_EE to i8*)], [4 x i8*] [i8* inttoptr (i64 -16 to i8*), i8* bitcast ({ i8*, i8*, i8* }* @_ZTIN6dealii9Functions16FourierCosineSumILi1EEE to i8*), i8* bitcast (void (%"class.dealii::Functions::FourierCosineSum"*)* @_ZThn16_N6dealii9Functions16FourierCosineSumILi1EED1Ev to i8*), i8* bitcast (void (%"class.dealii::Functions::FourierCosineSum"*)* @_ZThn16_N6dealii9Functions16FourierCosineSumILi1EED0Ev to i8*)] }, comdat, align 8
@_ZTVN6dealii9Functions16FourierCosineSumILi2EEE = weak_odr dso_local unnamed_addr constant { [18 x i8*], [4 x i8*] } { [18 x i8*] [i8* null, i8* bitcast ({ i8*, i8*, i8* }* @_ZTIN6dealii9Functions16FourierCosineSumILi2EEE to i8*), i8* bitcast (void (%"class.dealii::Functions::FourierCosineSum.103"*)* @_ZN6dealii9Functions16FourierCosineSumILi2EED2Ev to i8*), i8* bitcast (void (%"class.dealii::Functions::FourierCosineSum.103"*)* @_ZN6dealii9Functions16FourierCosineSumILi2EED0Ev to i8*), i8* bitcast (void (%"class.dealii::FunctionTime"*, double)* @_ZN6dealii12FunctionTime8set_timeEd to i8*), i8* bitcast (void (%"class.dealii::FunctionTime"*, double)* @_ZN6dealii12FunctionTime12advance_timeEd to i8*), i8* bitcast (double (%"class.dealii::Functions::FourierCosineSum.103"*, %"class.dealii::Point.17"*, i32)* @_ZNK6dealii9Functions16FourierCosineSumILi2EE5valueERKNS_5PointILi2EEEj to i8*), i8* bitcast (void (%"class.dealii::Function.14"*, %"class.dealii::Point.17"*, %"class.dealii::Vector"*)* @_ZNK6dealii8FunctionILi2EE12vector_valueERKNS_5PointILi2EEERNS_6VectorIdEE to i8*), i8* bitcast (void (%"class.dealii::Function.14"*, %"class.std::vector.19"*, %"class.std::vector.3"*, i32)* @_ZNK6dealii8FunctionILi2EE10value_listERKSt6vectorINS_5PointILi2EEESaIS4_EERS2_IdSaIdEEj to i8*), i8* bitcast (void (%"class.dealii::Function.14"*, %"class.std::vector.19"*, %"class.std::vector.45"*)* @_ZNK6dealii8FunctionILi2EE17vector_value_listERKSt6vectorINS_5PointILi2EEESaIS4_EERS2_INS_6VectorIdEESaISA_EE to i8*), i8* bitcast (void (%"class.dealii::Tensor.18"*, %"class.dealii::Functions::FourierCosineSum.103"*, %"class.dealii::Point.17"*, i32)* @_ZNK6dealii9Functions16FourierCosineSumILi2EE8gradientERKNS_5PointILi2EEEj to i8*), i8* bitcast (void (%"class.dealii::Function.14"*, %"class.dealii::Point.17"*, %"class.std::vector.24"*)* @_ZNK6dealii8FunctionILi2EE15vector_gradientERKNS_5PointILi2EEERSt6vectorINS_6TensorILi1ELi2EEESaIS8_EE to i8*), i8* bitcast (void (%"class.dealii::Function.14"*, %"class.std::vector.19"*, %"class.std::vector.24"*, i32)* @_ZNK6dealii8FunctionILi2EE13gradient_listERKSt6vectorINS_5PointILi2EEESaIS4_EERS2_INS_6TensorILi1ELi2EEESaISA_EEj to i8*), i8* bitcast (void (%"class.dealii::Function.14"*, %"class.std::vector.19"*, %"class.std::vector.57"*)* @_ZNK6dealii8FunctionILi2EE20vector_gradient_listERKSt6vectorINS_5PointILi2EEESaIS4_EERS2_IS2_INS_6TensorILi1ELi2EEESaISA_EESaISC_EE to i8*), i8* bitcast (double (%"class.dealii::Functions::FourierCosineSum.103"*, %"class.dealii::Point.17"*, i32)* @_ZNK6dealii9Functions16FourierCosineSumILi2EE9laplacianERKNS_5PointILi2EEEj to i8*), i8* bitcast (void (%"class.dealii::Function.14"*, %"class.dealii::Point.17"*, %"class.dealii::Vector"*)* @_ZNK6dealii8FunctionILi2EE16vector_laplacianERKNS_5PointILi2EEERNS_6VectorIdEE to i8*), i8* bitcast (void (%"class.dealii::Function.14"*, %"class.std::vector.19"*, %"class.std::vector.3"*, i32)* @_ZNK6dealii8FunctionILi2EE14laplacian_listERKSt6vectorINS_5PointILi2EEESaIS4_EERS2_IdSaIdEEj to i8*), i8* bitcast (void (%"class.dealii::Function.14"*, %"class.std::vector.19"*, %"class.std::vector.45"*)* @_ZNK6dealii8FunctionILi2EE21vector_laplacian_listERKSt6vectorINS_5PointILi2EEESaIS4_EERS2_INS_6VectorIdEESaISA_EE to i8*)], [4 x i8*] [i8* inttoptr (i64 -16 to i8*), i8* bitcast ({ i8*, i8*, i8* }* @_ZTIN6dealii9Functions16FourierCosineSumILi2EEE to i8*), i8* bitcast (void (%"class.dealii::Functions::FourierCosineSum.103"*)* @_ZThn16_N6dealii9Functions16FourierCosineSumILi2EED1Ev to i8*), i8* bitcast (void (%"class.dealii::Functions::FourierCosineSum.103"*)* @_ZThn16_N6dealii9Functions16FourierCosineSumILi2EED0Ev to i8*)] }, comdat, align 8
@_ZTVN6dealii9Functions16FourierCosineSumILi3EEE = weak_odr dso_local unnamed_addr constant { [18 x i8*], [4 x i8*] } { [18 x i8*] [i8* null, i8* bitcast ({ i8*, i8*, i8* }* @_ZTIN6dealii9Functions16FourierCosineSumILi3EEE to i8*), i8* bitcast (void (%"class.dealii::Functions::FourierCosineSum.104"*)* @_ZN6dealii9Functions16FourierCosineSumILi3EED2Ev to i8*), i8* bitcast (void (%"class.dealii::Functions::FourierCosineSum.104"*)* @_ZN6dealii9Functions16FourierCosineSumILi3EED0Ev to i8*), i8* bitcast (void (%"class.dealii::FunctionTime"*, double)* @_ZN6dealii12FunctionTime8set_timeEd to i8*), i8* bitcast (void (%"class.dealii::FunctionTime"*, double)* @_ZN6dealii12FunctionTime12advance_timeEd to i8*), i8* bitcast (double (%"class.dealii::Functions::FourierCosineSum.104"*, %"class.dealii::Point.33"*, i32)* @_ZNK6dealii9Functions16FourierCosineSumILi3EE5valueERKNS_5PointILi3EEEj to i8*), i8* bitcast (void (%"class.dealii::Function.30"*, %"class.dealii::Point.33"*, %"class.dealii::Vector"*)* @_ZNK6dealii8FunctionILi3EE12vector_valueERKNS_5PointILi3EEERNS_6VectorIdEE to i8*), i8* bitcast (void (%"class.dealii::Function.30"*, %"class.std::vector.35"*, %"class.std::vector.3"*, i32)* @_ZNK6dealii8FunctionILi3EE10value_listERKSt6vectorINS_5PointILi3EEESaIS4_EERS2_IdSaIdEEj to i8*), i8* bitcast (void (%"class.dealii::Function.30"*, %"class.std::vector.35"*, %"class.std::vector.45"*)* @_ZNK6dealii8FunctionILi3EE17vector_value_listERKSt6vectorINS_5PointILi3EEESaIS4_EERS2_INS_6VectorIdEESaISA_EE to i8*), i8* bitcast (void (%"class.dealii::Tensor.34"*, %"class.dealii::Functions::FourierCosineSum.104"*, %"class.dealii::Point.33"*, i32)* @_ZNK6dealii9Functions16FourierCosineSumILi3EE8gradientERKNS_5PointILi3EEEj to i8*), i8* bitcast (void (%"class.dealii::Function.30"*, %"class.dealii::Point.33"*, %"class.std::vector.40"*)* @_ZNK6dealii8FunctionILi3EE15vector_gradientERKNS_5PointILi3EEERSt6vectorINS_6TensorILi1ELi3EEESaIS8_EE to i8*), i8* bitcast (void (%"class.dealii::Function.30"*, %"class.std::vector.35"*, %"class.std::vector.40"*, i32)* @_ZNK6dealii8FunctionILi3EE13gradient_listERKSt6vectorINS_5PointILi3EEESaIS4_EERS2_INS_6TensorILi1ELi3EEESaISA_EEj to i8*), i8* bitcast (void (%"class.dealii::Function.30"*, %"class.std::vector.35"*, %"class.std::vector.64"*)* @_ZNK6dealii8FunctionILi3EE20vector_gradient_listERKSt6vectorINS_5PointILi3EEESaIS4_EERS2_IS2_INS_6TensorILi1ELi3EEESaISA_EESaISC_EE to i8*), i8* bitcast (double (%"class.dealii::Functions::FourierCosineSum.104"*, %"class.dealii::Point.33"*, i32)* @_ZNK6dealii9Functions16FourierCosineSumILi3EE9laplacianERKNS_5PointILi3EEEj to i8*), i8* bitcast (void (%"class.dealii::Function.30"*, %"class.dealii::Point.33"*, %"class.dealii::Vector"*)* @_ZNK6dealii8FunctionILi3EE16vector_laplacianERKNS_5PointILi3EEERNS_6VectorIdEE to i8*), i8* bitcast (void (%"class.dealii::Function.30"*, %"class.std::vector.35"*, %"class.std::vector.3"*, i32)* @_ZNK6dealii8FunctionILi3EE14laplacian_listERKSt6vectorINS_5PointILi3EEESaIS4_EERS2_IdSaIdEEj to i8*), i8* bitcast (void (%"class.dealii::Function.30"*, %"class.std::vector.35"*, %"class.std::vector.45"*)* @_ZNK6dealii8FunctionILi3EE21vector_laplacian_listERKSt6vectorINS_5PointILi3EEESaIS4_EERS2_INS_6VectorIdEESaISA_EE to i8*)], [4 x i8*] [i8* inttoptr (i64 -16 to i8*), i8* bitcast ({ i8*, i8*, i8* }* @_ZTIN6dealii9Functions16FourierCosineSumILi3EEE to i8*), i8* bitcast (void (%"class.dealii::Functions::FourierCosineSum.104"*)* @_ZThn16_N6dealii9Functions16FourierCosineSumILi3EED1Ev to i8*), i8* bitcast (void (%"class.dealii::Functions::FourierCosineSum.104"*)* @_ZThn16_N6dealii9Functions16FourierCosineSumILi3EED0Ev to i8*)] }, comdat, align 8
@_ZTVN6dealii9Functions14FourierSineSumILi1EEE = weak_odr dso_local unnamed_addr constant { [18 x i8*], [4 x i8*] } { [18 x i8*] [i8* null, i8* bitcast ({ i8*, i8*, i8* }* @_ZTIN6dealii9Functions14FourierSineSumILi1EEE to i8*), i8* bitcast (void (%"class.dealii::Functions::FourierSineSum"*)* @_ZN6dealii9Functions14FourierSineSumILi1EED2Ev to i8*), i8* bitcast (void (%"class.dealii::Functions::FourierSineSum"*)* @_ZN6dealii9Functions14FourierSineSumILi1EED0Ev to i8*), i8* bitcast (void (%"class.dealii::FunctionTime"*, double)* @_ZN6dealii12FunctionTime8set_timeEd to i8*), i8* bitcast (void (%"class.dealii::FunctionTime"*, double)* @_ZN6dealii12FunctionTime12advance_timeEd to i8*), i8* bitcast (double (%"class.dealii::Functions::FourierSineSum"*, %"class.dealii::Point"*, i32)* @_ZNK6dealii9Functions14FourierSineSumILi1EE5valueERKNS_5PointILi1EEEj to i8*), i8* bitcast (void (%"class.dealii::Function"*, %"class.dealii::Point"*, %"class.dealii::Vector"*)* @_ZNK6dealii8FunctionILi1EE12vector_valueERKNS_5PointILi1EEERNS_6VectorIdEE to i8*), i8* bitcast (void (%"class.dealii::Function"*, %"class.std::vector"*, %"class.std::vector.3"*, i32)* @_ZNK6dealii8FunctionILi1EE10value_listERKSt6vectorINS_5PointILi1EEESaIS4_EERS2_IdSaIdEEj to i8*), i8* bitcast (void (%"class.dealii::Function"*, %"class.std::vector"*, %"class.std::vector.45"*)* @_ZNK6dealii8FunctionILi1EE17vector_value_listERKSt6vectorINS_5PointILi1EEESaIS4_EERS2_INS_6VectorIdEESaISA_EE to i8*), i8* bitcast (void (%"class.dealii::Tensor"*, %"class.dealii::Functions::FourierSineSum"*, %"class.dealii::Point"*, i32)* @_ZNK6dealii9Functions14FourierSineSumILi1EE8gradientERKNS_5PointILi1EEEj to i8*), i8* bitcast (void (%"class.dealii::Function"*, %"class.dealii::Point"*, %"class.std::vector.8"*)* @_ZNK6dealii8FunctionILi1EE15vector_gradientERKNS_5PointILi1EEERSt6vectorINS_6TensorILi1ELi1EEESaIS8_EE to i8*), i8* bitcast (void (%"class.dealii::Function"*, %"class.std::vector"*, %"class.std::vector.8"*, i32)* @_ZNK6dealii8FunctionILi1EE13gradient_listERKSt6vectorINS_5PointILi1EEESaIS4_EERS2_INS_6TensorILi1ELi1EEESaISA_EEj to i8*), i8* bitcast (void (%"class.dealii::Function"*, %"class.std::vector"*, %"class.std::vector.50"*)* @_ZNK6dealii8FunctionILi1EE20vector_gradient_listERKSt6vectorINS_5PointILi1EEESaIS4_EERS2_IS2_INS_6TensorILi1ELi1EEESaISA_EESaISC_EE to i8*), i8* bitcast (double (%"class.dealii::Functions::FourierSineSum"*, %"class.dealii::Point"*, i32)* @_ZNK6dealii9Functions14FourierSineSumILi1EE9laplacianERKNS_5PointILi1EEEj to i8*), i8* bitcast (void (%"class.dealii::Function"*, %"class.dealii::Point"*, %"class.dealii::Vector"*)* @_ZNK6dealii8FunctionILi1EE16vector_laplacianERKNS_5PointILi1EEERNS_6VectorIdEE to i8*), i8* bitcast (void (%"class.dealii::Function"*, %"class.std::vector"*, %"class.std::vector.3"*, i32)* @_ZNK6dealii8FunctionILi1EE14laplacian_listERKSt6vectorINS_5PointILi1EEESaIS4_EERS2_IdSaIdEEj to i8*), i8* bitcast (void (%"class.dealii::Function"*, %"class.std::vector"*, %"class.std::vector.45"*)* @_ZNK6dealii8FunctionILi1EE21vector_laplacian_listERKSt6vectorINS_5PointILi1EEESaIS4_EERS2_INS_6VectorIdEESaISA_EE to i8*)], [4 x i8*] [i8* inttoptr (i64 -16 to i8*), i8* bitcast ({ i8*, i8*, i8* }* @_ZTIN6dealii9Functions14FourierSineSumILi1EEE to i8*), i8* bitcast (void (%"class.dealii::Functions::FourierSineSum"*)* @_ZThn16_N6dealii9Functions14FourierSineSumILi1EED1Ev to i8*), i8* bitcast (void (%"class.dealii::Functions::FourierSineSum"*)* @_ZThn16_N6dealii9Functions14FourierSineSumILi1EED0Ev to i8*)] }, comdat, align 8
@_ZTVN6dealii9Functions14FourierSineSumILi2EEE = weak_odr dso_local unnamed_addr constant { [18 x i8*], [4 x i8*] } { [18 x i8*] [i8* null, i8* bitcast ({ i8*, i8*, i8* }* @_ZTIN6dealii9Functions14FourierSineSumILi2EEE to i8*), i8* bitcast (void (%"class.dealii::Functions::FourierSineSum.105"*)* @_ZN6dealii9Functions14FourierSineSumILi2EED2Ev to i8*), i8* bitcast (void (%"class.dealii::Functions::FourierSineSum.105"*)* @_ZN6dealii9Functions14FourierSineSumILi2EED0Ev to i8*), i8* bitcast (void (%"class.dealii::FunctionTime"*, double)* @_ZN6dealii12FunctionTime8set_timeEd to i8*), i8* bitcast (void (%"class.dealii::FunctionTime"*, double)* @_ZN6dealii12FunctionTime12advance_timeEd to i8*), i8* bitcast (double (%"class.dealii::Functions::FourierSineSum.105"*, %"class.dealii::Point.17"*, i32)* @_ZNK6dealii9Functions14FourierSineSumILi2EE5valueERKNS_5PointILi2EEEj to i8*), i8* bitcast (void (%"class.dealii::Function.14"*, %"class.dealii::Point.17"*, %"class.dealii::Vector"*)* @_ZNK6dealii8FunctionILi2EE12vector_valueERKNS_5PointILi2EEERNS_6VectorIdEE to i8*), i8* bitcast (void (%"class.dealii::Function.14"*, %"class.std::vector.19"*, %"class.std::vector.3"*, i32)* @_ZNK6dealii8FunctionILi2EE10value_listERKSt6vectorINS_5PointILi2EEESaIS4_EERS2_IdSaIdEEj to i8*), i8* bitcast (void (%"class.dealii::Function.14"*, %"class.std::vector.19"*, %"class.std::vector.45"*)* @_ZNK6dealii8FunctionILi2EE17vector_value_listERKSt6vectorINS_5PointILi2EEESaIS4_EERS2_INS_6VectorIdEESaISA_EE to i8*), i8* bitcast (void (%"class.dealii::Tensor.18"*, %"class.dealii::Functions::FourierSineSum.105"*, %"class.dealii::Point.17"*, i32)* @_ZNK6dealii9Functions14FourierSineSumILi2EE8gradientERKNS_5PointILi2EEEj to i8*), i8* bitcast (void (%"class.dealii::Function.14"*, %"class.dealii::Point.17"*, %"class.std::vector.24"*)* @_ZNK6dealii8FunctionILi2EE15vector_gradientERKNS_5PointILi2EEERSt6vectorINS_6TensorILi1ELi2EEESaIS8_EE to i8*), i8* bitcast (void (%"class.dealii::Function.14"*, %"class.std::vector.19"*, %"class.std::vector.24"*, i32)* @_ZNK6dealii8FunctionILi2EE13gradient_listERKSt6vectorINS_5PointILi2EEESaIS4_EERS2_INS_6TensorILi1ELi2EEESaISA_EEj to i8*), i8* bitcast (void (%"class.dealii::Function.14"*, %"class.std::vector.19"*, %"class.std::vector.57"*)* @_ZNK6dealii8FunctionILi2EE20vector_gradient_listERKSt6vectorINS_5PointILi2EEESaIS4_EERS2_IS2_INS_6TensorILi1ELi2EEESaISA_EESaISC_EE to i8*), i8* bitcast (double (%"class.dealii::Functions::FourierSineSum.105"*, %"class.dealii::Point.17"*, i32)* @_ZNK6dealii9Functions14FourierSineSumILi2EE9laplacianERKNS_5PointILi2EEEj to i8*), i8* bitcast (void (%"class.dealii::Function.14"*, %"class.dealii::Point.17"*, %"class.dealii::Vector"*)* @_ZNK6dealii8FunctionILi2EE16vector_laplacianERKNS_5PointILi2EEERNS_6VectorIdEE to i8*), i8* bitcast (void (%"class.dealii::Function.14"*, %"class.std::vector.19"*, %"class.std::vector.3"*, i32)* @_ZNK6dealii8FunctionILi2EE14laplacian_listERKSt6vectorINS_5PointILi2EEESaIS4_EERS2_IdSaIdEEj to i8*), i8* bitcast (void (%"class.dealii::Function.14"*, %"class.std::vector.19"*, %"class.std::vector.45"*)* @_ZNK6dealii8FunctionILi2EE21vector_laplacian_listERKSt6vectorINS_5PointILi2EEESaIS4_EERS2_INS_6VectorIdEESaISA_EE to i8*)], [4 x i8*] [i8* inttoptr (i64 -16 to i8*), i8* bitcast ({ i8*, i8*, i8* }* @_ZTIN6dealii9Functions14FourierSineSumILi2EEE to i8*), i8* bitcast (void (%"class.dealii::Functions::FourierSineSum.105"*)* @_ZThn16_N6dealii9Functions14FourierSineSumILi2EED1Ev to i8*), i8* bitcast (void (%"class.dealii::Functions::FourierSineSum.105"*)* @_ZThn16_N6dealii9Functions14FourierSineSumILi2EED0Ev to i8*)] }, comdat, align 8
@_ZTVN6dealii9Functions14FourierSineSumILi3EEE = weak_odr dso_local unnamed_addr constant { [18 x i8*], [4 x i8*] } { [18 x i8*] [i8* null, i8* bitcast ({ i8*, i8*, i8* }* @_ZTIN6dealii9Functions14FourierSineSumILi3EEE to i8*), i8* bitcast (void (%"class.dealii::Functions::FourierSineSum.106"*)* @_ZN6dealii9Functions14FourierSineSumILi3EED2Ev to i8*), i8* bitcast (void (%"class.dealii::Functions::FourierSineSum.106"*)* @_ZN6dealii9Functions14FourierSineSumILi3EED0Ev to i8*), i8* bitcast (void (%"class.dealii::FunctionTime"*, double)* @_ZN6dealii12FunctionTime8set_timeEd to i8*), i8* bitcast (void (%"class.dealii::FunctionTime"*, double)* @_ZN6dealii12FunctionTime12advance_timeEd to i8*), i8* bitcast (double (%"class.dealii::Functions::FourierSineSum.106"*, %"class.dealii::Point.33"*, i32)* @_ZNK6dealii9Functions14FourierSineSumILi3EE5valueERKNS_5PointILi3EEEj to i8*), i8* bitcast (void (%"class.dealii::Function.30"*, %"class.dealii::Point.33"*, %"class.dealii::Vector"*)* @_ZNK6dealii8FunctionILi3EE12vector_valueERKNS_5PointILi3EEERNS_6VectorIdEE to i8*), i8* bitcast (void (%"class.dealii::Function.30"*, %"class.std::vector.35"*, %"class.std::vector.3"*, i32)* @_ZNK6dealii8FunctionILi3EE10value_listERKSt6vectorINS_5PointILi3EEESaIS4_EERS2_IdSaIdEEj to i8*), i8* bitcast (void (%"class.dealii::Function.30"*, %"class.std::vector.35"*, %"class.std::vector.45"*)* @_ZNK6dealii8FunctionILi3EE17vector_value_listERKSt6vectorINS_5PointILi3EEESaIS4_EERS2_INS_6VectorIdEESaISA_EE to i8*), i8* bitcast (void (%"class.dealii::Tensor.34"*, %"class.dealii::Functions::FourierSineSum.106"*, %"class.dealii::Point.33"*, i32)* @_ZNK6dealii9Functions14FourierSineSumILi3EE8gradientERKNS_5PointILi3EEEj to i8*), i8* bitcast (void (%"class.dealii::Function.30"*, %"class.dealii::Point.33"*, %"class.std::vector.40"*)* @_ZNK6dealii8FunctionILi3EE15vector_gradientERKNS_5PointILi3EEERSt6vectorINS_6TensorILi1ELi3EEESaIS8_EE to i8*), i8* bitcast (void (%"class.dealii::Function.30"*, %"class.std::vector.35"*, %"class.std::vector.40"*, i32)* @_ZNK6dealii8FunctionILi3EE13gradient_listERKSt6vectorINS_5PointILi3EEESaIS4_EERS2_INS_6TensorILi1ELi3EEESaISA_EEj to i8*), i8* bitcast (void (%"class.dealii::Function.30"*, %"class.std::vector.35"*, %"class.std::vector.64"*)* @_ZNK6dealii8FunctionILi3EE20vector_gradient_listERKSt6vectorINS_5PointILi3EEESaIS4_EERS2_IS2_INS_6TensorILi1ELi3EEESaISA_EESaISC_EE to i8*), i8* bitcast (double (%"class.dealii::Functions::FourierSineSum.106"*, %"class.dealii::Point.33"*, i32)* @_ZNK6dealii9Functions14FourierSineSumILi3EE9laplacianERKNS_5PointILi3EEEj to i8*), i8* bitcast (void (%"class.dealii::Function.30"*, %"class.dealii::Point.33"*, %"class.dealii::Vector"*)* @_ZNK6dealii8FunctionILi3EE16vector_laplacianERKNS_5PointILi3EEERNS_6VectorIdEE to i8*), i8* bitcast (void (%"class.dealii::Function.30"*, %"class.std::vector.35"*, %"class.std::vector.3"*, i32)* @_ZNK6dealii8FunctionILi3EE14laplacian_listERKSt6vectorINS_5PointILi3EEESaIS4_EERS2_IdSaIdEEj to i8*), i8* bitcast (void (%"class.dealii::Function.30"*, %"class.std::vector.35"*, %"class.std::vector.45"*)* @_ZNK6dealii8FunctionILi3EE21vector_laplacian_listERKSt6vectorINS_5PointILi3EEESaIS4_EERS2_INS_6VectorIdEESaISA_EE to i8*)], [4 x i8*] [i8* inttoptr (i64 -16 to i8*), i8* bitcast ({ i8*, i8*, i8* }* @_ZTIN6dealii9Functions14FourierSineSumILi3EEE to i8*), i8* bitcast (void (%"class.dealii::Functions::FourierSineSum.106"*)* @_ZThn16_N6dealii9Functions14FourierSineSumILi3EED1Ev to i8*), i8* bitcast (void (%"class.dealii::Functions::FourierSineSum.106"*)* @_ZThn16_N6dealii9Functions14FourierSineSumILi3EED0Ev to i8*)] }, comdat, align 8
@_ZTVN6dealii9Functions8MonomialILi1EEE = weak_odr dso_local unnamed_addr constant { [18 x i8*], [4 x i8*] } { [18 x i8*] [i8* null, i8* bitcast ({ i8*, i8*, i8* }* @_ZTIN6dealii9Functions8MonomialILi1EEE to i8*), i8* bitcast (void (%"class.dealii::Functions::Monomial"*)* @_ZN6dealii9Functions8MonomialILi1EED2Ev to i8*), i8* bitcast (void (%"class.dealii::Functions::Monomial"*)* @_ZN6dealii9Functions8MonomialILi1EED0Ev to i8*), i8* bitcast (void (%"class.dealii::FunctionTime"*, double)* @_ZN6dealii12FunctionTime8set_timeEd to i8*), i8* bitcast (void (%"class.dealii::FunctionTime"*, double)* @_ZN6dealii12FunctionTime12advance_timeEd to i8*), i8* bitcast (double (%"class.dealii::Functions::Monomial"*, %"class.dealii::Point"*, i32)* @_ZNK6dealii9Functions8MonomialILi1EE5valueERKNS_5PointILi1EEEj to i8*), i8* bitcast (void (%"class.dealii::Functions::Monomial"*, %"class.dealii::Point"*, %"class.dealii::Vector"*)* @_ZNK6dealii9Functions8MonomialILi1EE12vector_valueERKNS_5PointILi1EEERNS_6VectorIdEE to i8*), i8* bitcast (void (%"class.dealii::Functions::Monomial"*, %"class.std::vector"*, %"class.std::vector.3"*, i32)* @_ZNK6dealii9Functions8MonomialILi1EE10value_listERKSt6vectorINS_5PointILi1EEESaIS5_EERS3_IdSaIdEEj to i8*), i8* bitcast (void (%"class.dealii::Function"*, %"class.std::vector"*, %"class.std::vector.45"*)* @_ZNK6dealii8FunctionILi1EE17vector_value_listERKSt6vectorINS_5PointILi1EEESaIS4_EERS2_INS_6VectorIdEESaISA_EE to i8*), i8* bitcast (void (%"class.dealii::Tensor"*, %"class.dealii::Functions::Monomial"*, %"class.dealii::Point"*, i32)* @_ZNK6dealii9Functions8MonomialILi1EE8gradientERKNS_5PointILi1EEEj to i8*), i8* bitcast (void (%"class.dealii::Function"*, %"class.dealii::Point"*, %"class.std::vector.8"*)* @_ZNK6dealii8FunctionILi1EE15vector_gradientERKNS_5PointILi1EEERSt6vectorINS_6TensorILi1ELi1EEESaIS8_EE to i8*), i8* bitcast (void (%"class.dealii::Function"*, %"class.std::vector"*, %"class.std::vector.8"*, i32)* @_ZNK6dealii8FunctionILi1EE13gradient_listERKSt6vectorINS_5PointILi1EEESaIS4_EERS2_INS_6TensorILi1ELi1EEESaISA_EEj to i8*), i8* bitcast (void (%"class.dealii::Function"*, %"class.std::vector"*, %"class.std::vector.50"*)* @_ZNK6dealii8FunctionILi1EE20vector_gradient_listERKSt6vectorINS_5PointILi1EEESaIS4_EERS2_IS2_INS_6TensorILi1ELi1EEESaISA_EESaISC_EE to i8*), i8* bitcast (double (%"class.dealii::Function"*, %"class.dealii::Point"*, i32)* @_ZNK6dealii8FunctionILi1EE9laplacianERKNS_5PointILi1EEEj to i8*), i8* bitcast (void (%"class.dealii::Function"*, %"class.dealii::Point"*, %"class.dealii::Vector"*)* @_ZNK6dealii8FunctionILi1EE16vector_laplacianERKNS_5PointILi1EEERNS_6VectorIdEE to i8*), i8* bitcast (void (%"class.dealii::Function"*, %"class.std::vector"*, %"class.std::vector.3"*, i32)* @_ZNK6dealii8FunctionILi1EE14laplacian_listERKSt6vectorINS_5PointILi1EEESaIS4_EERS2_IdSaIdEEj to i8*), i8* bitcast (void (%"class.dealii::Function"*, %"class.std::vector"*, %"class.std::vector.45"*)* @_ZNK6dealii8FunctionILi1EE21vector_laplacian_listERKSt6vectorINS_5PointILi1EEESaIS4_EERS2_INS_6VectorIdEESaISA_EE to i8*)], [4 x i8*] [i8* inttoptr (i64 -16 to i8*), i8* bitcast ({ i8*, i8*, i8* }* @_ZTIN6dealii9Functions8MonomialILi1EEE to i8*), i8* bitcast (void (%"class.dealii::Functions::Monomial"*)* @_ZThn16_N6dealii9Functions8MonomialILi1EED1Ev to i8*), i8* bitcast (void (%"class.dealii::Functions::Monomial"*)* @_ZThn16_N6dealii9Functions8MonomialILi1EED0Ev to i8*)] }, comdat, align 8
@_ZTVN6dealii9Functions8MonomialILi2EEE = weak_odr dso_local unnamed_addr constant { [18 x i8*], [4 x i8*] } { [18 x i8*] [i8* null, i8* bitcast ({ i8*, i8*, i8* }* @_ZTIN6dealii9Functions8MonomialILi2EEE to i8*), i8* bitcast (void (%"class.dealii::Functions::Monomial.109"*)* @_ZN6dealii9Functions8MonomialILi2EED2Ev to i8*), i8* bitcast (void (%"class.dealii::Functions::Monomial.109"*)* @_ZN6dealii9Functions8MonomialILi2EED0Ev to i8*), i8* bitcast (void (%"class.dealii::FunctionTime"*, double)* @_ZN6dealii12FunctionTime8set_timeEd to i8*), i8* bitcast (void (%"class.dealii::FunctionTime"*, double)* @_ZN6dealii12FunctionTime12advance_timeEd to i8*), i8* bitcast (double (%"class.dealii::Functions::Monomial.109"*, %"class.dealii::Point.17"*, i32)* @_ZNK6dealii9Functions8MonomialILi2EE5valueERKNS_5PointILi2EEEj to i8*), i8* bitcast (void (%"class.dealii::Functions::Monomial.109"*, %"class.dealii::Point.17"*, %"class.dealii::Vector"*)* @_ZNK6dealii9Functions8MonomialILi2EE12vector_valueERKNS_5PointILi2EEERNS_6VectorIdEE to i8*), i8* bitcast (void (%"class.dealii::Functions::Monomial.109"*, %"class.std::vector.19"*, %"class.std::vector.3"*, i32)* @_ZNK6dealii9Functions8MonomialILi2EE10value_listERKSt6vectorINS_5PointILi2EEESaIS5_EERS3_IdSaIdEEj to i8*), i8* bitcast (void (%"class.dealii::Function.14"*, %"class.std::vector.19"*, %"class.std::vector.45"*)* @_ZNK6dealii8FunctionILi2EE17vector_value_listERKSt6vectorINS_5PointILi2EEESaIS4_EERS2_INS_6VectorIdEESaISA_EE to i8*), i8* bitcast (void (%"class.dealii::Tensor.18"*, %"class.dealii::Functions::Monomial.109"*, %"class.dealii::Point.17"*, i32)* @_ZNK6dealii9Functions8MonomialILi2EE8gradientERKNS_5PointILi2EEEj to i8*), i8* bitcast (void (%"class.dealii::Function.14"*, %"class.dealii::Point.17"*, %"class.std::vector.24"*)* @_ZNK6dealii8FunctionILi2EE15vector_gradientERKNS_5PointILi2EEERSt6vectorINS_6TensorILi1ELi2EEESaIS8_EE to i8*), i8* bitcast (void (%"class.dealii::Function.14"*, %"class.std::vector.19"*, %"class.std::vector.24"*, i32)* @_ZNK6dealii8FunctionILi2EE13gradient_listERKSt6vectorINS_5PointILi2EEESaIS4_EERS2_INS_6TensorILi1ELi2EEESaISA_EEj to i8*), i8* bitcast (void (%"class.dealii::Function.14"*, %"class.std::vector.19"*, %"class.std::vector.57"*)* @_ZNK6dealii8FunctionILi2EE20vector_gradient_listERKSt6vectorINS_5PointILi2EEESaIS4_EERS2_IS2_INS_6TensorILi1ELi2EEESaISA_EESaISC_EE to i8*), i8* bitcast (double (%"class.dealii::Function.14"*, %"class.dealii::Point.17"*, i32)* @_ZNK6dealii8FunctionILi2EE9laplacianERKNS_5PointILi2EEEj to i8*), i8* bitcast (void (%"class.dealii::Function.14"*, %"class.dealii::Point.17"*, %"class.dealii::Vector"*)* @_ZNK6dealii8FunctionILi2EE16vector_laplacianERKNS_5PointILi2EEERNS_6VectorIdEE to i8*), i8* bitcast (void (%"class.dealii::Function.14"*, %"class.std::vector.19"*, %"class.std::vector.3"*, i32)* @_ZNK6dealii8FunctionILi2EE14laplacian_listERKSt6vectorINS_5PointILi2EEESaIS4_EERS2_IdSaIdEEj to i8*), i8* bitcast (void (%"class.dealii::Function.14"*, %"class.std::vector.19"*, %"class.std::vector.45"*)* @_ZNK6dealii8FunctionILi2EE21vector_laplacian_listERKSt6vectorINS_5PointILi2EEESaIS4_EERS2_INS_6VectorIdEESaISA_EE to i8*)], [4 x i8*] [i8* inttoptr (i64 -16 to i8*), i8* bitcast ({ i8*, i8*, i8* }* @_ZTIN6dealii9Functions8MonomialILi2EEE to i8*), i8* bitcast (void (%"class.dealii::Functions::Monomial.109"*)* @_ZThn16_N6dealii9Functions8MonomialILi2EED1Ev to i8*), i8* bitcast (void (%"class.dealii::Functions::Monomial.109"*)* @_ZThn16_N6dealii9Functions8MonomialILi2EED0Ev to i8*)] }, comdat, align 8
@_ZTVN6dealii9Functions8MonomialILi3EEE = weak_odr dso_local unnamed_addr constant { [18 x i8*], [4 x i8*] } { [18 x i8*] [i8* null, i8* bitcast ({ i8*, i8*, i8* }* @_ZTIN6dealii9Functions8MonomialILi3EEE to i8*), i8* bitcast (void (%"class.dealii::Functions::Monomial.110"*)* @_ZN6dealii9Functions8MonomialILi3EED2Ev to i8*), i8* bitcast (void (%"class.dealii::Functions::Monomial.110"*)* @_ZN6dealii9Functions8MonomialILi3EED0Ev to i8*), i8* bitcast (void (%"class.dealii::FunctionTime"*, double)* @_ZN6dealii12FunctionTime8set_timeEd to i8*), i8* bitcast (void (%"class.dealii::FunctionTime"*, double)* @_ZN6dealii12FunctionTime12advance_timeEd to i8*), i8* bitcast (double (%"class.dealii::Functions::Monomial.110"*, %"class.dealii::Point.33"*, i32)* @_ZNK6dealii9Functions8MonomialILi3EE5valueERKNS_5PointILi3EEEj to i8*), i8* bitcast (void (%"class.dealii::Functions::Monomial.110"*, %"class.dealii::Point.33"*, %"class.dealii::Vector"*)* @_ZNK6dealii9Functions8MonomialILi3EE12vector_valueERKNS_5PointILi3EEERNS_6VectorIdEE to i8*), i8* bitcast (void (%"class.dealii::Functions::Monomial.110"*, %"class.std::vector.35"*, %"class.std::vector.3"*, i32)* @_ZNK6dealii9Functions8MonomialILi3EE10value_listERKSt6vectorINS_5PointILi3EEESaIS5_EERS3_IdSaIdEEj to i8*), i8* bitcast (void (%"class.dealii::Function.30"*, %"class.std::vector.35"*, %"class.std::vector.45"*)* @_ZNK6dealii8FunctionILi3EE17vector_value_listERKSt6vectorINS_5PointILi3EEESaIS4_EERS2_INS_6VectorIdEESaISA_EE to i8*), i8* bitcast (void (%"class.dealii::Tensor.34"*, %"class.dealii::Functions::Monomial.110"*, %"class.dealii::Point.33"*, i32)* @_ZNK6dealii9Functions8MonomialILi3EE8gradientERKNS_5PointILi3EEEj to i8*), i8* bitcast (void (%"class.dealii::Function.30"*, %"class.dealii::Point.33"*, %"class.std::vector.40"*)* @_ZNK6dealii8FunctionILi3EE15vector_gradientERKNS_5PointILi3EEERSt6vectorINS_6TensorILi1ELi3EEESaIS8_EE to i8*), i8* bitcast (void (%"class.dealii::Function.30"*, %"class.std::vector.35"*, %"class.std::vector.40"*, i32)* @_ZNK6dealii8FunctionILi3EE13gradient_listERKSt6vectorINS_5PointILi3EEESaIS4_EERS2_INS_6TensorILi1ELi3EEESaISA_EEj to i8*), i8* bitcast (void (%"class.dealii::Function.30"*, %"class.std::vector.35"*, %"class.std::vector.64"*)* @_ZNK6dealii8FunctionILi3EE20vector_gradient_listERKSt6vectorINS_5PointILi3EEESaIS4_EERS2_IS2_INS_6TensorILi1ELi3EEESaISA_EESaISC_EE to i8*), i8* bitcast (double (%"class.dealii::Function.30"*, %"class.dealii::Point.33"*, i32)* @_ZNK6dealii8FunctionILi3EE9laplacianERKNS_5PointILi3EEEj to i8*), i8* bitcast (void (%"class.dealii::Function.30"*, %"class.dealii::Point.33"*, %"class.dealii::Vector"*)* @_ZNK6dealii8FunctionILi3EE16vector_laplacianERKNS_5PointILi3EEERNS_6VectorIdEE to i8*), i8* bitcast (void (%"class.dealii::Function.30"*, %"class.std::vector.35"*, %"class.std::vector.3"*, i32)* @_ZNK6dealii8FunctionILi3EE14laplacian_listERKSt6vectorINS_5PointILi3EEESaIS4_EERS2_IdSaIdEEj to i8*), i8* bitcast (void (%"class.dealii::Function.30"*, %"class.std::vector.35"*, %"class.std::vector.45"*)* @_ZNK6dealii8FunctionILi3EE21vector_laplacian_listERKSt6vectorINS_5PointILi3EEESaIS4_EERS2_INS_6VectorIdEESaISA_EE to i8*)], [4 x i8*] [i8* inttoptr (i64 -16 to i8*), i8* bitcast ({ i8*, i8*, i8* }* @_ZTIN6dealii9Functions8MonomialILi3EEE to i8*), i8* bitcast (void (%"class.dealii::Functions::Monomial.110"*)* @_ZThn16_N6dealii9Functions8MonomialILi3EED1Ev to i8*), i8* bitcast (void (%"class.dealii::Functions::Monomial.110"*)* @_ZThn16_N6dealii9Functions8MonomialILi3EED0Ev to i8*)] }, comdat, align 8
@_ZTVN6dealii9Functions20LSingularityFunctionE = dso_local unnamed_addr constant { [18 x i8*], [4 x i8*] } { [18 x i8*] [i8* null, i8* bitcast ({ i8*, i8*, i8* }* @_ZTIN6dealii9Functions20LSingularityFunctionE to i8*), i8* bitcast (void (%"class.dealii::Functions::LSingularityFunction"*)* @_ZN6dealii9Functions20LSingularityFunctionD2Ev to i8*), i8* bitcast (void (%"class.dealii::Functions::LSingularityFunction"*)* @_ZN6dealii9Functions20LSingularityFunctionD0Ev to i8*), i8* bitcast (void (%"class.dealii::FunctionTime"*, double)* @_ZN6dealii12FunctionTime8set_timeEd to i8*), i8* bitcast (void (%"class.dealii::FunctionTime"*, double)* @_ZN6dealii12FunctionTime12advance_timeEd to i8*), i8* bitcast (double (%"class.dealii::Functions::LSingularityFunction"*, %"class.dealii::Point.17"*, i32)* @_ZNK6dealii9Functions20LSingularityFunction5valueERKNS_5PointILi2EEEj to i8*), i8* bitcast (void (%"class.dealii::Function.14"*, %"class.dealii::Point.17"*, %"class.dealii::Vector"*)* @_ZNK6dealii8FunctionILi2EE12vector_valueERKNS_5PointILi2EEERNS_6VectorIdEE to i8*), i8* bitcast (void (%"class.dealii::Functions::LSingularityFunction"*, %"class.std::vector.19"*, %"class.std::vector.3"*, i32)* @_ZNK6dealii9Functions20LSingularityFunction10value_listERKSt6vectorINS_5PointILi2EEESaIS4_EERS2_IdSaIdEEj to i8*), i8* bitcast (void (%"class.dealii::Functions::LSingularityFunction"*, %"class.std::vector.19"*, %"class.std::vector.45"*)* @_ZNK6dealii9Functions20LSingularityFunction17vector_value_listERKSt6vectorINS_5PointILi2EEESaIS4_EERS2_INS_6VectorIdEESaISA_EE to i8*), i8* bitcast (void (%"class.dealii::Tensor.18"*, %"class.dealii::Functions::LSingularityFunction"*, %"class.dealii::Point.17"*, i32)* @_ZNK6dealii9Functions20LSingularityFunction8gradientERKNS_5PointILi2EEEj to i8*), i8* bitcast (void (%"class.dealii::Function.14"*, %"class.dealii::Point.17"*, %"class.std::vector.24"*)* @_ZNK6dealii8FunctionILi2EE15vector_gradientERKNS_5PointILi2EEERSt6vectorINS_6TensorILi1ELi2EEESaIS8_EE to i8*), i8* bitcast (void (%"class.dealii::Functions::LSingularityFunction"*, %"class.std::vector.19"*, %"class.std::vector.24"*, i32)* @_ZNK6dealii9Functions20LSingularityFunction13gradient_listERKSt6vectorINS_5PointILi2EEESaIS4_EERS2_INS_6TensorILi1ELi2EEESaISA_EEj to i8*), i8* bitcast (void (%"class.dealii::Functions::LSingularityFunction"*, %"class.std::vector.19"*, %"class.std::vector.57"*)* @_ZNK6dealii9Functions20LSingularityFunction20vector_gradient_listERKSt6vectorINS_5PointILi2EEESaIS4_EERS2_IS2_INS_6TensorILi1ELi2EEESaISA_EESaISC_EE to i8*), i8* bitcast (double (%"class.dealii::Functions::LSingularityFunction"*, %"class.dealii::Point.17"*, i32)* @_ZNK6dealii9Functions20LSingularityFunction9laplacianERKNS_5PointILi2EEEj to i8*), i8* bitcast (void (%"class.dealii::Function.14"*, %"class.dealii::Point.17"*, %"class.dealii::Vector"*)* @_ZNK6dealii8FunctionILi2EE16vector_laplacianERKNS_5PointILi2EEERNS_6VectorIdEE to i8*), i8* bitcast (void (%"class.dealii::Functions::LSingularityFunction"*, %"class.std::vector.19"*, %"class.std::vector.3"*, i32)* @_ZNK6dealii9Functions20LSingularityFunction14laplacian_listERKSt6vectorINS_5PointILi2EEESaIS4_EERS2_IdSaIdEEj to i8*), i8* bitcast (void (%"class.dealii::Function.14"*, %"class.std::vector.19"*, %"class.std::vector.45"*)* @_ZNK6dealii8FunctionILi2EE21vector_laplacian_listERKSt6vectorINS_5PointILi2EEESaIS4_EERS2_INS_6VectorIdEESaISA_EE to i8*)], [4 x i8*] [i8* inttoptr (i64 -16 to i8*), i8* bitcast ({ i8*, i8*, i8* }* @_ZTIN6dealii9Functions20LSingularityFunctionE to i8*), i8* bitcast (void (%"class.dealii::Functions::LSingularityFunction"*)* @_ZThn16_N6dealii9Functions20LSingularityFunctionD1Ev to i8*), i8* bitcast (void (%"class.dealii::Functions::LSingularityFunction"*)* @_ZThn16_N6dealii9Functions20LSingularityFunctionD0Ev to i8*)] }, align 8
@_ZTVN10__cxxabiv120__si_class_type_infoE = external dso_local global i8*
@_ZTSN6dealii9Functions20LSingularityFunctionE = dso_local constant [42 x i8] c"N6dealii9Functions20LSingularityFunctionE\00", align 1
@_ZTVN10__cxxabiv121__vmi_class_type_infoE = external dso_local global i8*
@_ZTSN6dealii8FunctionILi2EEE = linkonce_odr dso_local constant [25 x i8] c"N6dealii8FunctionILi2EEE\00", comdat, align 1
@_ZTIN6dealii12FunctionTimeE = external dso_local constant i8*
@_ZTIN6dealii11SubscriptorE = external dso_local constant i8*
@_ZTIN6dealii8FunctionILi2EEE = linkonce_odr dso_local constant { i8*, i8*, i32, i32, i8*, i64, i8*, i64 } { i8* bitcast (i8** getelementptr inbounds (i8*, i8** @_ZTVN10__cxxabiv121__vmi_class_type_infoE, i64 2) to i8*), i8* getelementptr inbounds ([25 x i8], [25 x i8]* @_ZTSN6dealii8FunctionILi2EEE, i32 0, i32 0), i32 0, i32 2, i8* bitcast (i8** @_ZTIN6dealii12FunctionTimeE to i8*), i64 2, i8* bitcast (i8** @_ZTIN6dealii11SubscriptorE to i8*), i64 4098 }, comdat, align 8
@_ZTIN6dealii9Functions20LSingularityFunctionE = dso_local constant { i8*, i8*, i8* } { i8* bitcast (i8** getelementptr inbounds (i8*, i8** @_ZTVN10__cxxabiv120__si_class_type_infoE, i64 2) to i8*), i8* getelementptr inbounds ([42 x i8], [42 x i8]* @_ZTSN6dealii9Functions20LSingularityFunctionE, i32 0, i32 0), i8* bitcast ({ i8*, i8*, i32, i32, i8*, i64, i8*, i64 }* @_ZTIN6dealii8FunctionILi2EEE to i8*) }, align 8
@_ZTVN6dealii9Functions28SlitHyperSingularityFunctionE = dso_local unnamed_addr constant { [18 x i8*], [4 x i8*] } { [18 x i8*] [i8* null, i8* bitcast ({ i8*, i8*, i8* }* @_ZTIN6dealii9Functions28SlitHyperSingularityFunctionE to i8*), i8* bitcast (void (%"class.dealii::Functions::SlitHyperSingularityFunction"*)* @_ZN6dealii9Functions28SlitHyperSingularityFunctionD2Ev to i8*), i8* bitcast (void (%"class.dealii::Functions::SlitHyperSingularityFunction"*)* @_ZN6dealii9Functions28SlitHyperSingularityFunctionD0Ev to i8*), i8* bitcast (void (%"class.dealii::FunctionTime"*, double)* @_ZN6dealii12FunctionTime8set_timeEd to i8*), i8* bitcast (void (%"class.dealii::FunctionTime"*, double)* @_ZN6dealii12FunctionTime12advance_timeEd to i8*), i8* bitcast (double (%"class.dealii::Functions::SlitHyperSingularityFunction"*, %"class.dealii::Point.17"*, i32)* @_ZNK6dealii9Functions28SlitHyperSingularityFunction5valueERKNS_5PointILi2EEEj to i8*), i8* bitcast (void (%"class.dealii::Function.14"*, %"class.dealii::Point.17"*, %"class.dealii::Vector"*)* @_ZNK6dealii8FunctionILi2EE12vector_valueERKNS_5PointILi2EEERNS_6VectorIdEE to i8*), i8* bitcast (void (%"class.dealii::Functions::SlitHyperSingularityFunction"*, %"class.std::vector.19"*, %"class.std::vector.3"*, i32)* @_ZNK6dealii9Functions28SlitHyperSingularityFunction10value_listERKSt6vectorINS_5PointILi2EEESaIS4_EERS2_IdSaIdEEj to i8*), i8* bitcast (void (%"class.dealii::Functions::SlitHyperSingularityFunction"*, %"class.std::vector.19"*, %"class.std::vector.45"*)* @_ZNK6dealii9Functions28SlitHyperSingularityFunction17vector_value_listERKSt6vectorINS_5PointILi2EEESaIS4_EERS2_INS_6VectorIdEESaISA_EE to i8*), i8* bitcast (void (%"class.dealii::Tensor.18"*, %"class.dealii::Functions::SlitHyperSingularityFunction"*, %"class.dealii::Point.17"*, i32)* @_ZNK6dealii9Functions28SlitHyperSingularityFunction8gradientERKNS_5PointILi2EEEj to i8*), i8* bitcast (void (%"class.dealii::Function.14"*, %"class.dealii::Point.17"*, %"class.std::vector.24"*)* @_ZNK6dealii8FunctionILi2EE15vector_gradientERKNS_5PointILi2EEERSt6vectorINS_6TensorILi1ELi2EEESaIS8_EE to i8*), i8* bitcast (void (%"class.dealii::Functions::SlitHyperSingularityFunction"*, %"class.std::vector.19"*, %"class.std::vector.24"*, i32)* @_ZNK6dealii9Functions28SlitHyperSingularityFunction13gradient_listERKSt6vectorINS_5PointILi2EEESaIS4_EERS2_INS_6TensorILi1ELi2EEESaISA_EEj to i8*), i8* bitcast (void (%"class.dealii::Functions::SlitHyperSingularityFunction"*, %"class.std::vector.19"*, %"class.std::vector.57"*)* @_ZNK6dealii9Functions28SlitHyperSingularityFunction20vector_gradient_listERKSt6vectorINS_5PointILi2EEESaIS4_EERS2_IS2_INS_6TensorILi1ELi2EEESaISA_EESaISC_EE to i8*), i8* bitcast (double (%"class.dealii::Functions::SlitHyperSingularityFunction"*, %"class.dealii::Point.17"*, i32)* @_ZNK6dealii9Functions28SlitHyperSingularityFunction9laplacianERKNS_5PointILi2EEEj to i8*), i8* bitcast (void (%"class.dealii::Function.14"*, %"class.dealii::Point.17"*, %"class.dealii::Vector"*)* @_ZNK6dealii8FunctionILi2EE16vector_laplacianERKNS_5PointILi2EEERNS_6VectorIdEE to i8*), i8* bitcast (void (%"class.dealii::Functions::SlitHyperSingularityFunction"*, %"class.std::vector.19"*, %"class.std::vector.3"*, i32)* @_ZNK6dealii9Functions28SlitHyperSingularityFunction14laplacian_listERKSt6vectorINS_5PointILi2EEESaIS4_EERS2_IdSaIdEEj to i8*), i8* bitcast (void (%"class.dealii::Function.14"*, %"class.std::vector.19"*, %"class.std::vector.45"*)* @_ZNK6dealii8FunctionILi2EE21vector_laplacian_listERKSt6vectorINS_5PointILi2EEESaIS4_EERS2_INS_6VectorIdEESaISA_EE to i8*)], [4 x i8*] [i8* inttoptr (i64 -16 to i8*), i8* bitcast ({ i8*, i8*, i8* }* @_ZTIN6dealii9Functions28SlitHyperSingularityFunctionE to i8*), i8* bitcast (void (%"class.dealii::Functions::SlitHyperSingularityFunction"*)* @_ZThn16_N6dealii9Functions28SlitHyperSingularityFunctionD1Ev to i8*), i8* bitcast (void (%"class.dealii::Functions::SlitHyperSingularityFunction"*)* @_ZThn16_N6dealii9Functions28SlitHyperSingularityFunctionD0Ev to i8*)] }, align 8
@_ZTSN6dealii9Functions28SlitHyperSingularityFunctionE = dso_local constant [50 x i8] c"N6dealii9Functions28SlitHyperSingularityFunctionE\00", align 1
@_ZTIN6dealii9Functions28SlitHyperSingularityFunctionE = dso_local constant { i8*, i8*, i8* } { i8* bitcast (i8** getelementptr inbounds (i8*, i8** @_ZTVN10__cxxabiv120__si_class_type_infoE, i64 2) to i8*), i8* getelementptr inbounds ([50 x i8], [50 x i8]* @_ZTSN6dealii9Functions28SlitHyperSingularityFunctionE, i32 0, i32 0), i8* bitcast ({ i8*, i8*, i32, i32, i8*, i64, i8*, i64 }* @_ZTIN6dealii8FunctionILi2EEE to i8*) }, align 8
@_ZTVN6dealii9Functions14SquareFunctionILi1EEE = weak_odr dso_local unnamed_addr constant { [18 x i8*], [4 x i8*] } { [18 x i8*] [i8* null, i8* bitcast ({ i8*, i8*, i8* }* @_ZTIN6dealii9Functions14SquareFunctionILi1EEE to i8*), i8* bitcast (void (%"class.dealii::Functions::SquareFunction"*)* @_ZN6dealii9Functions14SquareFunctionILi1EED2Ev to i8*), i8* bitcast (void (%"class.dealii::Functions::SquareFunction"*)* @_ZN6dealii9Functions14SquareFunctionILi1EED0Ev to i8*), i8* bitcast (void (%"class.dealii::FunctionTime"*, double)* @_ZN6dealii12FunctionTime8set_timeEd to i8*), i8* bitcast (void (%"class.dealii::FunctionTime"*, double)* @_ZN6dealii12FunctionTime12advance_timeEd to i8*), i8* bitcast (double (%"class.dealii::Functions::SquareFunction"*, %"class.dealii::Point"*, i32)* @_ZNK6dealii9Functions14SquareFunctionILi1EE5valueERKNS_5PointILi1EEEj to i8*), i8* bitcast (void (%"class.dealii::Function"*, %"class.dealii::Point"*, %"class.dealii::Vector"*)* @_ZNK6dealii8FunctionILi1EE12vector_valueERKNS_5PointILi1EEERNS_6VectorIdEE to i8*), i8* bitcast (void (%"class.dealii::Functions::SquareFunction"*, %"class.std::vector"*, %"class.std::vector.3"*, i32)* @_ZNK6dealii9Functions14SquareFunctionILi1EE10value_listERKSt6vectorINS_5PointILi1EEESaIS5_EERS3_IdSaIdEEj to i8*), i8* bitcast (void (%"class.dealii::Function"*, %"class.std::vector"*, %"class.std::vector.45"*)* @_ZNK6dealii8FunctionILi1EE17vector_value_listERKSt6vectorINS_5PointILi1EEESaIS4_EERS2_INS_6VectorIdEESaISA_EE to i8*), i8* bitcast (void (%"class.dealii::Tensor"*, %"class.dealii::Functions::SquareFunction"*, %"class.dealii::Point"*, i32)* @_ZNK6dealii9Functions14SquareFunctionILi1EE8gradientERKNS_5PointILi1EEEj to i8*), i8* bitcast (void (%"class.dealii::Function"*, %"class.dealii::Point"*, %"class.std::vector.8"*)* @_ZNK6dealii8FunctionILi1EE15vector_gradientERKNS_5PointILi1EEERSt6vectorINS_6TensorILi1ELi1EEESaIS8_EE to i8*), i8* bitcast (void (%"class.dealii::Functions::SquareFunction"*, %"class.std::vector"*, %"class.std::vector.8"*, i32)* @_ZNK6dealii9Functions14SquareFunctionILi1EE13gradient_listERKSt6vectorINS_5PointILi1EEESaIS5_EERS3_INS_6TensorILi1ELi1EEESaISB_EEj to i8*), i8* bitcast (void (%"class.dealii::Function"*, %"class.std::vector"*, %"class.std::vector.50"*)* @_ZNK6dealii8FunctionILi1EE20vector_gradient_listERKSt6vectorINS_5PointILi1EEESaIS4_EERS2_IS2_INS_6TensorILi1ELi1EEESaISA_EESaISC_EE to i8*), i8* bitcast (double (%"class.dealii::Functions::SquareFunction"*, %"class.dealii::Point"*, i32)* @_ZNK6dealii9Functions14SquareFunctionILi1EE9laplacianERKNS_5PointILi1EEEj to i8*), i8* bitcast (void (%"class.dealii::Function"*, %"class.dealii::Point"*, %"class.dealii::Vector"*)* @_ZNK6dealii8FunctionILi1EE16vector_laplacianERKNS_5PointILi1EEERNS_6VectorIdEE to i8*), i8* bitcast (void (%"class.dealii::Functions::SquareFunction"*, %"class.std::vector"*, %"class.std::vector.3"*, i32)* @_ZNK6dealii9Functions14SquareFunctionILi1EE14laplacian_listERKSt6vectorINS_5PointILi1EEESaIS5_EERS3_IdSaIdEEj to i8*), i8* bitcast (void (%"class.dealii::Function"*, %"class.std::vector"*, %"class.std::vector.45"*)* @_ZNK6dealii8FunctionILi1EE21vector_laplacian_listERKSt6vectorINS_5PointILi1EEESaIS4_EERS2_INS_6VectorIdEESaISA_EE to i8*)], [4 x i8*] [i8* inttoptr (i64 -16 to i8*), i8* bitcast ({ i8*, i8*, i8* }* @_ZTIN6dealii9Functions14SquareFunctionILi1EEE to i8*), i8* bitcast (void (%"class.dealii::Functions::SquareFunction"*)* @_ZThn16_N6dealii9Functions14SquareFunctionILi1EED1Ev to i8*), i8* bitcast (void (%"class.dealii::Functions::SquareFunction"*)* @_ZThn16_N6dealii9Functions14SquareFunctionILi1EED0Ev to i8*)] }, comdat, align 8
@_ZTSN6dealii9Functions14SquareFunctionILi1EEE = weak_odr dso_local constant [42 x i8] c"N6dealii9Functions14SquareFunctionILi1EEE\00", comdat, align 1
@_ZTSN6dealii8FunctionILi1EEE = linkonce_odr dso_local constant [25 x i8] c"N6dealii8FunctionILi1EEE\00", comdat, align 1
@_ZTIN6dealii8FunctionILi1EEE = linkonce_odr dso_local constant { i8*, i8*, i32, i32, i8*, i64, i8*, i64 } { i8* bitcast (i8** getelementptr inbounds (i8*, i8** @_ZTVN10__cxxabiv121__vmi_class_type_infoE, i64 2) to i8*), i8* getelementptr inbounds ([25 x i8], [25 x i8]* @_ZTSN6dealii8FunctionILi1EEE, i32 0, i32 0), i32 0, i32 2, i8* bitcast (i8** @_ZTIN6dealii12FunctionTimeE to i8*), i64 2, i8* bitcast (i8** @_ZTIN6dealii11SubscriptorE to i8*), i64 4098 }, comdat, align 8
@_ZTIN6dealii9Functions14SquareFunctionILi1EEE = weak_odr dso_local constant { i8*, i8*, i8* } { i8* bitcast (i8** getelementptr inbounds (i8*, i8** @_ZTVN10__cxxabiv120__si_class_type_infoE, i64 2) to i8*), i8* getelementptr inbounds ([42 x i8], [42 x i8]* @_ZTSN6dealii9Functions14SquareFunctionILi1EEE, i32 0, i32 0), i8* bitcast ({ i8*, i8*, i32, i32, i8*, i64, i8*, i64 }* @_ZTIN6dealii8FunctionILi1EEE to i8*) }, comdat, align 8
@_ZTVN6dealii9Functions14SquareFunctionILi2EEE = weak_odr dso_local unnamed_addr constant { [18 x i8*], [4 x i8*] } { [18 x i8*] [i8* null, i8* bitcast ({ i8*, i8*, i8* }* @_ZTIN6dealii9Functions14SquareFunctionILi2EEE to i8*), i8* bitcast (void (%"class.dealii::Functions::SquareFunction.13"*)* @_ZN6dealii9Functions14SquareFunctionILi2EED2Ev to i8*), i8* bitcast (void (%"class.dealii::Functions::SquareFunction.13"*)* @_ZN6dealii9Functions14SquareFunctionILi2EED0Ev to i8*), i8* bitcast (void (%"class.dealii::FunctionTime"*, double)* @_ZN6dealii12FunctionTime8set_timeEd to i8*), i8* bitcast (void (%"class.dealii::FunctionTime"*, double)* @_ZN6dealii12FunctionTime12advance_timeEd to i8*), i8* bitcast (double (%"class.dealii::Functions::SquareFunction.13"*, %"class.dealii::Point.17"*, i32)* @_ZNK6dealii9Functions14SquareFunctionILi2EE5valueERKNS_5PointILi2EEEj to i8*), i8* bitcast (void (%"class.dealii::Function.14"*, %"class.dealii::Point.17"*, %"class.dealii::Vector"*)* @_ZNK6dealii8FunctionILi2EE12vector_valueERKNS_5PointILi2EEERNS_6VectorIdEE to i8*), i8* bitcast (void (%"class.dealii::Functions::SquareFunction.13"*, %"class.std::vector.19"*, %"class.std::vector.3"*, i32)* @_ZNK6dealii9Functions14SquareFunctionILi2EE10value_listERKSt6vectorINS_5PointILi2EEESaIS5_EERS3_IdSaIdEEj to i8*), i8* bitcast (void (%"class.dealii::Function.14"*, %"class.std::vector.19"*, %"class.std::vector.45"*)* @_ZNK6dealii8FunctionILi2EE17vector_value_listERKSt6vectorINS_5PointILi2EEESaIS4_EERS2_INS_6VectorIdEESaISA_EE to i8*), i8* bitcast (void (%"class.dealii::Tensor.18"*, %"class.dealii::Functions::SquareFunction.13"*, %"class.dealii::Point.17"*, i32)* @_ZNK6dealii9Functions14SquareFunctionILi2EE8gradientERKNS_5PointILi2EEEj to i8*), i8* bitcast (void (%"class.dealii::Function.14"*, %"class.dealii::Point.17"*, %"class.std::vector.24"*)* @_ZNK6dealii8FunctionILi2EE15vector_gradientERKNS_5PointILi2EEERSt6vectorINS_6TensorILi1ELi2EEESaIS8_EE to i8*), i8* bitcast (void (%"class.dealii::Functions::SquareFunction.13"*, %"class.std::vector.19"*, %"class.std::vector.24"*, i32)* @_ZNK6dealii9Functions14SquareFunctionILi2EE13gradient_listERKSt6vectorINS_5PointILi2EEESaIS5_EERS3_INS_6TensorILi1ELi2EEESaISB_EEj to i8*), i8* bitcast (void (%"class.dealii::Function.14"*, %"class.std::vector.19"*, %"class.std::vector.57"*)* @_ZNK6dealii8FunctionILi2EE20vector_gradient_listERKSt6vectorINS_5PointILi2EEESaIS4_EERS2_IS2_INS_6TensorILi1ELi2EEESaISA_EESaISC_EE to i8*), i8* bitcast (double (%"class.dealii::Functions::SquareFunction.13"*, %"class.dealii::Point.17"*, i32)* @_ZNK6dealii9Functions14SquareFunctionILi2EE9laplacianERKNS_5PointILi2EEEj to i8*), i8* bitcast (void (%"class.dealii::Function.14"*, %"class.dealii::Point.17"*, %"class.dealii::Vector"*)* @_ZNK6dealii8FunctionILi2EE16vector_laplacianERKNS_5PointILi2EEERNS_6VectorIdEE to i8*), i8* bitcast (void (%"class.dealii::Functions::SquareFunction.13"*, %"class.std::vector.19"*, %"class.std::vector.3"*, i32)* @_ZNK6dealii9Functions14SquareFunctionILi2EE14laplacian_listERKSt6vectorINS_5PointILi2EEESaIS5_EERS3_IdSaIdEEj to i8*), i8* bitcast (void (%"class.dealii::Function.14"*, %"class.std::vector.19"*, %"class.std::vector.45"*)* @_ZNK6dealii8FunctionILi2EE21vector_laplacian_listERKSt6vectorINS_5PointILi2EEESaIS4_EERS2_INS_6VectorIdEESaISA_EE to i8*)], [4 x i8*] [i8* inttoptr (i64 -16 to i8*), i8* bitcast ({ i8*, i8*, i8* }* @_ZTIN6dealii9Functions14SquareFunctionILi2EEE to i8*), i8* bitcast (void (%"class.dealii::Functions::SquareFunction.13"*)* @_ZThn16_N6dealii9Functions14SquareFunctionILi2EED1Ev to i8*), i8* bitcast (void (%"class.dealii::Functions::SquareFunction.13"*)* @_ZThn16_N6dealii9Functions14SquareFunctionILi2EED0Ev to i8*)] }, comdat, align 8
@_ZTSN6dealii9Functions14SquareFunctionILi2EEE = weak_odr dso_local constant [42 x i8] c"N6dealii9Functions14SquareFunctionILi2EEE\00", comdat, align 1
@_ZTIN6dealii9Functions14SquareFunctionILi2EEE = weak_odr dso_local constant { i8*, i8*, i8* } { i8* bitcast (i8** getelementptr inbounds (i8*, i8** @_ZTVN10__cxxabiv120__si_class_type_infoE, i64 2) to i8*), i8* getelementptr inbounds ([42 x i8], [42 x i8]* @_ZTSN6dealii9Functions14SquareFunctionILi2EEE, i32 0, i32 0), i8* bitcast ({ i8*, i8*, i32, i32, i8*, i64, i8*, i64 }* @_ZTIN6dealii8FunctionILi2EEE to i8*) }, comdat, align 8
@_ZTVN6dealii9Functions14SquareFunctionILi3EEE = weak_odr dso_local unnamed_addr constant { [18 x i8*], [4 x i8*] } { [18 x i8*] [i8* null, i8* bitcast ({ i8*, i8*, i8* }* @_ZTIN6dealii9Functions14SquareFunctionILi3EEE to i8*), i8* bitcast (void (%"class.dealii::Functions::SquareFunction.29"*)* @_ZN6dealii9Functions14SquareFunctionILi3EED2Ev to i8*), i8* bitcast (void (%"class.dealii::Functions::SquareFunction.29"*)* @_ZN6dealii9Functions14SquareFunctionILi3EED0Ev to i8*), i8* bitcast (void (%"class.dealii::FunctionTime"*, double)* @_ZN6dealii12FunctionTime8set_timeEd to i8*), i8* bitcast (void (%"class.dealii::FunctionTime"*, double)* @_ZN6dealii12FunctionTime12advance_timeEd to i8*), i8* bitcast (double (%"class.dealii::Functions::SquareFunction.29"*, %"class.dealii::Point.33"*, i32)* @_ZNK6dealii9Functions14SquareFunctionILi3EE5valueERKNS_5PointILi3EEEj to i8*), i8* bitcast (void (%"class.dealii::Function.30"*, %"class.dealii::Point.33"*, %"class.dealii::Vector"*)* @_ZNK6dealii8FunctionILi3EE12vector_valueERKNS_5PointILi3EEERNS_6VectorIdEE to i8*), i8* bitcast (void (%"class.dealii::Functions::SquareFunction.29"*, %"class.std::vector.35"*, %"class.std::vector.3"*, i32)* @_ZNK6dealii9Functions14SquareFunctionILi3EE10value_listERKSt6vectorINS_5PointILi3EEESaIS5_EERS3_IdSaIdEEj to i8*), i8* bitcast (void (%"class.dealii::Function.30"*, %"class.std::vector.35"*, %"class.std::vector.45"*)* @_ZNK6dealii8FunctionILi3EE17vector_value_listERKSt6vectorINS_5PointILi3EEESaIS4_EERS2_INS_6VectorIdEESaISA_EE to i8*), i8* bitcast (void (%"class.dealii::Tensor.34"*, %"class.dealii::Functions::SquareFunction.29"*, %"class.dealii::Point.33"*, i32)* @_ZNK6dealii9Functions14SquareFunctionILi3EE8gradientERKNS_5PointILi3EEEj to i8*), i8* bitcast (void (%"class.dealii::Function.30"*, %"class.dealii::Point.33"*, %"class.std::vector.40"*)* @_ZNK6dealii8FunctionILi3EE15vector_gradientERKNS_5PointILi3EEERSt6vectorINS_6TensorILi1ELi3EEESaIS8_EE to i8*), i8* bitcast (void (%"class.dealii::Functions::SquareFunction.29"*, %"class.std::vector.35"*, %"class.std::vector.40"*, i32)* @_ZNK6dealii9Functions14SquareFunctionILi3EE13gradient_listERKSt6vectorINS_5PointILi3EEESaIS5_EERS3_INS_6TensorILi1ELi3EEESaISB_EEj to i8*), i8* bitcast (void (%"class.dealii::Function.30"*, %"class.std::vector.35"*, %"class.std::vector.64"*)* @_ZNK6dealii8FunctionILi3EE20vector_gradient_listERKSt6vectorINS_5PointILi3EEESaIS4_EERS2_IS2_INS_6TensorILi1ELi3EEESaISA_EESaISC_EE to i8*), i8* bitcast (double (%"class.dealii::Functions::SquareFunction.29"*, %"class.dealii::Point.33"*, i32)* @_ZNK6dealii9Functions14SquareFunctionILi3EE9laplacianERKNS_5PointILi3EEEj to i8*), i8* bitcast (void (%"class.dealii::Function.30"*, %"class.dealii::Point.33"*, %"class.dealii::Vector"*)* @_ZNK6dealii8FunctionILi3EE16vector_laplacianERKNS_5PointILi3EEERNS_6VectorIdEE to i8*), i8* bitcast (void (%"class.dealii::Functions::SquareFunction.29"*, %"class.std::vector.35"*, %"class.std::vector.3"*, i32)* @_ZNK6dealii9Functions14SquareFunctionILi3EE14laplacian_listERKSt6vectorINS_5PointILi3EEESaIS5_EERS3_IdSaIdEEj to i8*), i8* bitcast (void (%"class.dealii::Function.30"*, %"class.std::vector.35"*, %"class.std::vector.45"*)* @_ZNK6dealii8FunctionILi3EE21vector_laplacian_listERKSt6vectorINS_5PointILi3EEESaIS4_EERS2_INS_6VectorIdEESaISA_EE to i8*)], [4 x i8*] [i8* inttoptr (i64 -16 to i8*), i8* bitcast ({ i8*, i8*, i8* }* @_ZTIN6dealii9Functions14SquareFunctionILi3EEE to i8*), i8* bitcast (void (%"class.dealii::Functions::SquareFunction.29"*)* @_ZThn16_N6dealii9Functions14SquareFunctionILi3EED1Ev to i8*), i8* bitcast (void (%"class.dealii::Functions::SquareFunction.29"*)* @_ZThn16_N6dealii9Functions14SquareFunctionILi3EED0Ev to i8*)] }, comdat, align 8
@_ZTSN6dealii9Functions14SquareFunctionILi3EEE = weak_odr dso_local constant [42 x i8] c"N6dealii9Functions14SquareFunctionILi3EEE\00", comdat, align 1
@_ZTSN6dealii8FunctionILi3EEE = linkonce_odr dso_local constant [25 x i8] c"N6dealii8FunctionILi3EEE\00", comdat, align 1
@_ZTIN6dealii8FunctionILi3EEE = linkonce_odr dso_local constant { i8*, i8*, i32, i32, i8*, i64, i8*, i64 } { i8* bitcast (i8** getelementptr inbounds (i8*, i8** @_ZTVN10__cxxabiv121__vmi_class_type_infoE, i64 2) to i8*), i8* getelementptr inbounds ([25 x i8], [25 x i8]* @_ZTSN6dealii8FunctionILi3EEE, i32 0, i32 0), i32 0, i32 2, i8* bitcast (i8** @_ZTIN6dealii12FunctionTimeE to i8*), i64 2, i8* bitcast (i8** @_ZTIN6dealii11SubscriptorE to i8*), i64 4098 }, comdat, align 8
@_ZTIN6dealii9Functions14SquareFunctionILi3EEE = weak_odr dso_local constant { i8*, i8*, i8* } { i8* bitcast (i8** getelementptr inbounds (i8*, i8** @_ZTVN10__cxxabiv120__si_class_type_infoE, i64 2) to i8*), i8* getelementptr inbounds ([42 x i8], [42 x i8]* @_ZTSN6dealii9Functions14SquareFunctionILi3EEE, i32 0, i32 0), i8* bitcast ({ i8*, i8*, i32, i32, i8*, i64, i8*, i64 }* @_ZTIN6dealii8FunctionILi3EEE to i8*) }, comdat, align 8
@_ZTVN6dealii9Functions15Q1WedgeFunctionILi1EEE = weak_odr dso_local unnamed_addr constant { [18 x i8*], [4 x i8*] } { [18 x i8*] [i8* null, i8* bitcast ({ i8*, i8*, i8* }* @_ZTIN6dealii9Functions15Q1WedgeFunctionILi1EEE to i8*), i8* bitcast (void (%"class.dealii::Functions::Q1WedgeFunction"*)* @_ZN6dealii9Functions15Q1WedgeFunctionILi1EED2Ev to i8*), i8* bitcast (void (%"class.dealii::Functions::Q1WedgeFunction"*)* @_ZN6dealii9Functions15Q1WedgeFunctionILi1EED0Ev to i8*), i8* bitcast (void (%"class.dealii::FunctionTime"*, double)* @_ZN6dealii12FunctionTime8set_timeEd to i8*), i8* bitcast (void (%"class.dealii::FunctionTime"*, double)* @_ZN6dealii12FunctionTime12advance_timeEd to i8*), i8* bitcast (double (%"class.dealii::Functions::Q1WedgeFunction"*, %"class.dealii::Point"*, i32)* @_ZNK6dealii9Functions15Q1WedgeFunctionILi1EE5valueERKNS_5PointILi1EEEj to i8*), i8* bitcast (void (%"class.dealii::Function"*, %"class.dealii::Point"*, %"class.dealii::Vector"*)* @_ZNK6dealii8FunctionILi1EE12vector_valueERKNS_5PointILi1EEERNS_6VectorIdEE to i8*), i8* bitcast (void (%"class.dealii::Functions::Q1WedgeFunction"*, %"class.std::vector"*, %"class.std::vector.3"*, i32)* @_ZNK6dealii9Functions15Q1WedgeFunctionILi1EE10value_listERKSt6vectorINS_5PointILi1EEESaIS5_EERS3_IdSaIdEEj to i8*), i8* bitcast (void (%"class.dealii::Functions::Q1WedgeFunction"*, %"class.std::vector"*, %"class.std::vector.45"*)* @_ZNK6dealii9Functions15Q1WedgeFunctionILi1EE17vector_value_listERKSt6vectorINS_5PointILi1EEESaIS5_EERS3_INS_6VectorIdEESaISB_EE to i8*), i8* bitcast (void (%"class.dealii::Tensor"*, %"class.dealii::Functions::Q1WedgeFunction"*, %"class.dealii::Point"*, i32)* @_ZNK6dealii9Functions15Q1WedgeFunctionILi1EE8gradientERKNS_5PointILi1EEEj to i8*), i8* bitcast (void (%"class.dealii::Function"*, %"class.dealii::Point"*, %"class.std::vector.8"*)* @_ZNK6dealii8FunctionILi1EE15vector_gradientERKNS_5PointILi1EEERSt6vectorINS_6TensorILi1ELi1EEESaIS8_EE to i8*), i8* bitcast (void (%"class.dealii::Functions::Q1WedgeFunction"*, %"class.std::vector"*, %"class.std::vector.8"*, i32)* @_ZNK6dealii9Functions15Q1WedgeFunctionILi1EE13gradient_listERKSt6vectorINS_5PointILi1EEESaIS5_EERS3_INS_6TensorILi1ELi1EEESaISB_EEj to i8*), i8* bitcast (void (%"class.dealii::Functions::Q1WedgeFunction"*, %"class.std::vector"*, %"class.std::vector.50"*)* @_ZNK6dealii9Functions15Q1WedgeFunctionILi1EE20vector_gradient_listERKSt6vectorINS_5PointILi1EEESaIS5_EERS3_IS3_INS_6TensorILi1ELi1EEESaISB_EESaISD_EE to i8*), i8* bitcast (double (%"class.dealii::Functions::Q1WedgeFunction"*, %"class.dealii::Point"*, i32)* @_ZNK6dealii9Functions15Q1WedgeFunctionILi1EE9laplacianERKNS_5PointILi1EEEj to i8*), i8* bitcast (void (%"class.dealii::Function"*, %"class.dealii::Point"*, %"class.dealii::Vector"*)* @_ZNK6dealii8FunctionILi1EE16vector_laplacianERKNS_5PointILi1EEERNS_6VectorIdEE to i8*), i8* bitcast (void (%"class.dealii::Functions::Q1WedgeFunction"*, %"class.std::vector"*, %"class.std::vector.3"*, i32)* @_ZNK6dealii9Functions15Q1WedgeFunctionILi1EE14laplacian_listERKSt6vectorINS_5PointILi1EEESaIS5_EERS3_IdSaIdEEj to i8*), i8* bitcast (void (%"class.dealii::Function"*, %"class.std::vector"*, %"class.std::vector.45"*)* @_ZNK6dealii8FunctionILi1EE21vector_laplacian_listERKSt6vectorINS_5PointILi1EEESaIS4_EERS2_INS_6VectorIdEESaISA_EE to i8*)], [4 x i8*] [i8* inttoptr (i64 -16 to i8*), i8* bitcast ({ i8*, i8*, i8* }* @_ZTIN6dealii9Functions15Q1WedgeFunctionILi1EEE to i8*), i8* bitcast (void (%"class.dealii::Functions::Q1WedgeFunction"*)* @_ZThn16_N6dealii9Functions15Q1WedgeFunctionILi1EED1Ev to i8*), i8* bitcast (void (%"class.dealii::Functions::Q1WedgeFunction"*)* @_ZThn16_N6dealii9Functions15Q1WedgeFunctionILi1EED0Ev to i8*)] }, comdat, align 8
@_ZTSN6dealii9Functions15Q1WedgeFunctionILi1EEE = weak_odr dso_local constant [43 x i8] c"N6dealii9Functions15Q1WedgeFunctionILi1EEE\00", comdat, align 1
@_ZTIN6dealii9Functions15Q1WedgeFunctionILi1EEE = weak_odr dso_local constant { i8*, i8*, i8* } { i8* bitcast (i8** getelementptr inbounds (i8*, i8** @_ZTVN10__cxxabiv120__si_class_type_infoE, i64 2) to i8*), i8* getelementptr inbounds ([43 x i8], [43 x i8]* @_ZTSN6dealii9Functions15Q1WedgeFunctionILi1EEE, i32 0, i32 0), i8* bitcast ({ i8*, i8*, i32, i32, i8*, i64, i8*, i64 }* @_ZTIN6dealii8FunctionILi1EEE to i8*) }, comdat, align 8
@_ZTVN6dealii9Functions15Q1WedgeFunctionILi2EEE = weak_odr dso_local unnamed_addr constant { [18 x i8*], [4 x i8*] } { [18 x i8*] [i8* null, i8* bitcast ({ i8*, i8*, i8* }* @_ZTIN6dealii9Functions15Q1WedgeFunctionILi2EEE to i8*), i8* bitcast (void (%"class.dealii::Functions::Q1WedgeFunction.55"*)* @_ZN6dealii9Functions15Q1WedgeFunctionILi2EED2Ev to i8*), i8* bitcast (void (%"class.dealii::Functions::Q1WedgeFunction.55"*)* @_ZN6dealii9Functions15Q1WedgeFunctionILi2EED0Ev to i8*), i8* bitcast (void (%"class.dealii::FunctionTime"*, double)* @_ZN6dealii12FunctionTime8set_timeEd to i8*), i8* bitcast (void (%"class.dealii::FunctionTime"*, double)* @_ZN6dealii12FunctionTime12advance_timeEd to i8*), i8* bitcast (double (%"class.dealii::Functions::Q1WedgeFunction.55"*, %"class.dealii::Point.17"*, i32)* @_ZNK6dealii9Functions15Q1WedgeFunctionILi2EE5valueERKNS_5PointILi2EEEj to i8*), i8* bitcast (void (%"class.dealii::Function.14"*, %"class.dealii::Point.17"*, %"class.dealii::Vector"*)* @_ZNK6dealii8FunctionILi2EE12vector_valueERKNS_5PointILi2EEERNS_6VectorIdEE to i8*), i8* bitcast (void (%"class.dealii::Functions::Q1WedgeFunction.55"*, %"class.std::vector.19"*, %"class.std::vector.3"*, i32)* @_ZNK6dealii9Functions15Q1WedgeFunctionILi2EE10value_listERKSt6vectorINS_5PointILi2EEESaIS5_EERS3_IdSaIdEEj to i8*), i8* bitcast (void (%"class.dealii::Functions::Q1WedgeFunction.55"*, %"class.std::vector.19"*, %"class.std::vector.45"*)* @_ZNK6dealii9Functions15Q1WedgeFunctionILi2EE17vector_value_listERKSt6vectorINS_5PointILi2EEESaIS5_EERS3_INS_6VectorIdEESaISB_EE to i8*), i8* bitcast (void (%"class.dealii::Tensor.18"*, %"class.dealii::Functions::Q1WedgeFunction.55"*, %"class.dealii::Point.17"*, i32)* @_ZNK6dealii9Functions15Q1WedgeFunctionILi2EE8gradientERKNS_5PointILi2EEEj to i8*), i8* bitcast (void (%"class.dealii::Function.14"*, %"class.dealii::Point.17"*, %"class.std::vector.24"*)* @_ZNK6dealii8FunctionILi2EE15vector_gradientERKNS_5PointILi2EEERSt6vectorINS_6TensorILi1ELi2EEESaIS8_EE to i8*), i8* bitcast (void (%"class.dealii::Functions::Q1WedgeFunction.55"*, %"class.std::vector.19"*, %"class.std::vector.24"*, i32)* @_ZNK6dealii9Functions15Q1WedgeFunctionILi2EE13gradient_listERKSt6vectorINS_5PointILi2EEESaIS5_EERS3_INS_6TensorILi1ELi2EEESaISB_EEj to i8*), i8* bitcast (void (%"class.dealii::Functions::Q1WedgeFunction.55"*, %"class.std::vector.19"*, %"class.std::vector.57"*)* @_ZNK6dealii9Functions15Q1WedgeFunctionILi2EE20vector_gradient_listERKSt6vectorINS_5PointILi2EEESaIS5_EERS3_IS3_INS_6TensorILi1ELi2EEESaISB_EESaISD_EE to i8*), i8* bitcast (double (%"class.dealii::Functions::Q1WedgeFunction.55"*, %"class.dealii::Point.17"*, i32)* @_ZNK6dealii9Functions15Q1WedgeFunctionILi2EE9laplacianERKNS_5PointILi2EEEj to i8*), i8* bitcast (void (%"class.dealii::Function.14"*, %"class.dealii::Point.17"*, %"class.dealii::Vector"*)* @_ZNK6dealii8FunctionILi2EE16vector_laplacianERKNS_5PointILi2EEERNS_6VectorIdEE to i8*), i8* bitcast (void (%"class.dealii::Functions::Q1WedgeFunction.55"*, %"class.std::vector.19"*, %"class.std::vector.3"*, i32)* @_ZNK6dealii9Functions15Q1WedgeFunctionILi2EE14laplacian_listERKSt6vectorINS_5PointILi2EEESaIS5_EERS3_IdSaIdEEj to i8*), i8* bitcast (void (%"class.dealii::Function.14"*, %"class.std::vector.19"*, %"class.std::vector.45"*)* @_ZNK6dealii8FunctionILi2EE21vector_laplacian_listERKSt6vectorINS_5PointILi2EEESaIS4_EERS2_INS_6VectorIdEESaISA_EE to i8*)], [4 x i8*] [i8* inttoptr (i64 -16 to i8*), i8* bitcast ({ i8*, i8*, i8* }* @_ZTIN6dealii9Functions15Q1WedgeFunctionILi2EEE to i8*), i8* bitcast (void (%"class.dealii::Functions::Q1WedgeFunction.55"*)* @_ZThn16_N6dealii9Functions15Q1WedgeFunctionILi2EED1Ev to i8*), i8* bitcast (void (%"class.dealii::Functions::Q1WedgeFunction.55"*)* @_ZThn16_N6dealii9Functions15Q1WedgeFunctionILi2EED0Ev to i8*)] }, comdat, align 8
@_ZTSN6dealii9Functions15Q1WedgeFunctionILi2EEE = weak_odr dso_local constant [43 x i8] c"N6dealii9Functions15Q1WedgeFunctionILi2EEE\00", comdat, align 1
@_ZTIN6dealii9Functions15Q1WedgeFunctionILi2EEE = weak_odr dso_local constant { i8*, i8*, i8* } { i8* bitcast (i8** getelementptr inbounds (i8*, i8** @_ZTVN10__cxxabiv120__si_class_type_infoE, i64 2) to i8*), i8* getelementptr inbounds ([43 x i8], [43 x i8]* @_ZTSN6dealii9Functions15Q1WedgeFunctionILi2EEE, i32 0, i32 0), i8* bitcast ({ i8*, i8*, i32, i32, i8*, i64, i8*, i64 }* @_ZTIN6dealii8FunctionILi2EEE to i8*) }, comdat, align 8
@_ZTVN6dealii9Functions15Q1WedgeFunctionILi3EEE = weak_odr dso_local unnamed_addr constant { [18 x i8*], [4 x i8*] } { [18 x i8*] [i8* null, i8* bitcast ({ i8*, i8*, i8* }* @_ZTIN6dealii9Functions15Q1WedgeFunctionILi3EEE to i8*), i8* bitcast (void (%"class.dealii::Functions::Q1WedgeFunction.62"*)* @_ZN6dealii9Functions15Q1WedgeFunctionILi3EED2Ev to i8*), i8* bitcast (void (%"class.dealii::Functions::Q1WedgeFunction.62"*)* @_ZN6dealii9Functions15Q1WedgeFunctionILi3EED0Ev to i8*), i8* bitcast (void (%"class.dealii::FunctionTime"*, double)* @_ZN6dealii12FunctionTime8set_timeEd to i8*), i8* bitcast (void (%"class.dealii::FunctionTime"*, double)* @_ZN6dealii12FunctionTime12advance_timeEd to i8*), i8* bitcast (double (%"class.dealii::Functions::Q1WedgeFunction.62"*, %"class.dealii::Point.33"*, i32)* @_ZNK6dealii9Functions15Q1WedgeFunctionILi3EE5valueERKNS_5PointILi3EEEj to i8*), i8* bitcast (void (%"class.dealii::Function.30"*, %"class.dealii::Point.33"*, %"class.dealii::Vector"*)* @_ZNK6dealii8FunctionILi3EE12vector_valueERKNS_5PointILi3EEERNS_6VectorIdEE to i8*), i8* bitcast (void (%"class.dealii::Functions::Q1WedgeFunction.62"*, %"class.std::vector.35"*, %"class.std::vector.3"*, i32)* @_ZNK6dealii9Functions15Q1WedgeFunctionILi3EE10value_listERKSt6vectorINS_5PointILi3EEESaIS5_EERS3_IdSaIdEEj to i8*), i8* bitcast (void (%"class.dealii::Functions::Q1WedgeFunction.62"*, %"class.std::vector.35"*, %"class.std::vector.45"*)* @_ZNK6dealii9Functions15Q1WedgeFunctionILi3EE17vector_value_listERKSt6vectorINS_5PointILi3EEESaIS5_EERS3_INS_6VectorIdEESaISB_EE to i8*), i8* bitcast (void (%"class.dealii::Tensor.34"*, %"class.dealii::Functions::Q1WedgeFunction.62"*, %"class.dealii::Point.33"*, i32)* @_ZNK6dealii9Functions15Q1WedgeFunctionILi3EE8gradientERKNS_5PointILi3EEEj to i8*), i8* bitcast (void (%"class.dealii::Function.30"*, %"class.dealii::Point.33"*, %"class.std::vector.40"*)* @_ZNK6dealii8FunctionILi3EE15vector_gradientERKNS_5PointILi3EEERSt6vectorINS_6TensorILi1ELi3EEESaIS8_EE to i8*), i8* bitcast (void (%"class.dealii::Functions::Q1WedgeFunction.62"*, %"class.std::vector.35"*, %"class.std::vector.40"*, i32)* @_ZNK6dealii9Functions15Q1WedgeFunctionILi3EE13gradient_listERKSt6vectorINS_5PointILi3EEESaIS5_EERS3_INS_6TensorILi1ELi3EEESaISB_EEj to i8*), i8* bitcast (void (%"class.dealii::Functions::Q1WedgeFunction.62"*, %"class.std::vector.35"*, %"class.std::vector.64"*)* @_ZNK6dealii9Functions15Q1WedgeFunctionILi3EE20vector_gradient_listERKSt6vectorINS_5PointILi3EEESaIS5_EERS3_IS3_INS_6TensorILi1ELi3EEESaISB_EESaISD_EE to i8*), i8* bitcast (double (%"class.dealii::Functions::Q1WedgeFunction.62"*, %"class.dealii::Point.33"*, i32)* @_ZNK6dealii9Functions15Q1WedgeFunctionILi3EE9laplacianERKNS_5PointILi3EEEj to i8*), i8* bitcast (void (%"class.dealii::Function.30"*, %"class.dealii::Point.33"*, %"class.dealii::Vector"*)* @_ZNK6dealii8FunctionILi3EE16vector_laplacianERKNS_5PointILi3EEERNS_6VectorIdEE to i8*), i8* bitcast (void (%"class.dealii::Functions::Q1WedgeFunction.62"*, %"class.std::vector.35"*, %"class.std::vector.3"*, i32)* @_ZNK6dealii9Functions15Q1WedgeFunctionILi3EE14laplacian_listERKSt6vectorINS_5PointILi3EEESaIS5_EERS3_IdSaIdEEj to i8*), i8* bitcast (void (%"class.dealii::Function.30"*, %"class.std::vector.35"*, %"class.std::vector.45"*)* @_ZNK6dealii8FunctionILi3EE21vector_laplacian_listERKSt6vectorINS_5PointILi3EEESaIS4_EERS2_INS_6VectorIdEESaISA_EE to i8*)], [4 x i8*] [i8* inttoptr (i64 -16 to i8*), i8* bitcast ({ i8*, i8*, i8* }* @_ZTIN6dealii9Functions15Q1WedgeFunctionILi3EEE to i8*), i8* bitcast (void (%"class.dealii::Functions::Q1WedgeFunction.62"*)* @_ZThn16_N6dealii9Functions15Q1WedgeFunctionILi3EED1Ev to i8*), i8* bitcast (void (%"class.dealii::Functions::Q1WedgeFunction.62"*)* @_ZThn16_N6dealii9Functions15Q1WedgeFunctionILi3EED0Ev to i8*)] }, comdat, align 8
@_ZTSN6dealii9Functions15Q1WedgeFunctionILi3EEE = weak_odr dso_local constant [43 x i8] c"N6dealii9Functions15Q1WedgeFunctionILi3EEE\00", comdat, align 1
@_ZTIN6dealii9Functions15Q1WedgeFunctionILi3EEE = weak_odr dso_local constant { i8*, i8*, i8* } { i8* bitcast (i8** getelementptr inbounds (i8*, i8** @_ZTVN10__cxxabiv120__si_class_type_infoE, i64 2) to i8*), i8* getelementptr inbounds ([43 x i8], [43 x i8]* @_ZTSN6dealii9Functions15Q1WedgeFunctionILi3EEE, i32 0, i32 0), i8* bitcast ({ i8*, i8*, i32, i32, i8*, i64, i8*, i64 }* @_ZTIN6dealii8FunctionILi3EEE to i8*) }, comdat, align 8
@_ZTSN6dealii9Functions14PillowFunctionILi1EEE = weak_odr dso_local constant [42 x i8] c"N6dealii9Functions14PillowFunctionILi1EEE\00", comdat, align 1
@_ZTIN6dealii9Functions14PillowFunctionILi1EEE = weak_odr dso_local constant { i8*, i8*, i8* } { i8* bitcast (i8** getelementptr inbounds (i8*, i8** @_ZTVN10__cxxabiv120__si_class_type_infoE, i64 2) to i8*), i8* getelementptr inbounds ([42 x i8], [42 x i8]* @_ZTSN6dealii9Functions14PillowFunctionILi1EEE, i32 0, i32 0), i8* bitcast ({ i8*, i8*, i32, i32, i8*, i64, i8*, i64 }* @_ZTIN6dealii8FunctionILi1EEE to i8*) }, comdat, align 8
@_ZTSN6dealii9Functions14PillowFunctionILi2EEE = weak_odr dso_local constant [42 x i8] c"N6dealii9Functions14PillowFunctionILi2EEE\00", comdat, align 1
@_ZTIN6dealii9Functions14PillowFunctionILi2EEE = weak_odr dso_local constant { i8*, i8*, i8* } { i8* bitcast (i8** getelementptr inbounds (i8*, i8** @_ZTVN10__cxxabiv120__si_class_type_infoE, i64 2) to i8*), i8* getelementptr inbounds ([42 x i8], [42 x i8]* @_ZTSN6dealii9Functions14PillowFunctionILi2EEE, i32 0, i32 0), i8* bitcast ({ i8*, i8*, i32, i32, i8*, i64, i8*, i64 }* @_ZTIN6dealii8FunctionILi2EEE to i8*) }, comdat, align 8
@_ZTSN6dealii9Functions14PillowFunctionILi3EEE = weak_odr dso_local constant [42 x i8] c"N6dealii9Functions14PillowFunctionILi3EEE\00", comdat, align 1
@_ZTIN6dealii9Functions14PillowFunctionILi3EEE = weak_odr dso_local constant { i8*, i8*, i8* } { i8* bitcast (i8** getelementptr inbounds (i8*, i8** @_ZTVN10__cxxabiv120__si_class_type_infoE, i64 2) to i8*), i8* getelementptr inbounds ([42 x i8], [42 x i8]* @_ZTSN6dealii9Functions14PillowFunctionILi3EEE, i32 0, i32 0), i8* bitcast ({ i8*, i8*, i32, i32, i8*, i64, i8*, i64 }* @_ZTIN6dealii8FunctionILi3EEE to i8*) }, comdat, align 8
@_ZTVN6dealii9Functions14CosineFunctionILi1EEE = weak_odr dso_local unnamed_addr constant { [20 x i8*], [4 x i8*] } { [20 x i8*] [i8* null, i8* bitcast ({ i8*, i8*, i8* }* @_ZTIN6dealii9Functions14CosineFunctionILi1EEE to i8*), i8* bitcast (void (%"class.dealii::Functions::CosineFunction"*)* @_ZN6dealii9Functions14CosineFunctionILi1EED2Ev to i8*), i8* bitcast (void (%"class.dealii::Functions::CosineFunction"*)* @_ZN6dealii9Functions14CosineFunctionILi1EED0Ev to i8*), i8* bitcast (void (%"class.dealii::FunctionTime"*, double)* @_ZN6dealii12FunctionTime8set_timeEd to i8*), i8* bitcast (void (%"class.dealii::FunctionTime"*, double)* @_ZN6dealii12FunctionTime12advance_timeEd to i8*), i8* bitcast (double (%"class.dealii::Functions::CosineFunction"*, %"class.dealii::Point"*, i32)* @_ZNK6dealii9Functions14CosineFunctionILi1EE5valueERKNS_5PointILi1EEEj to i8*), i8* bitcast (void (%"class.dealii::Function"*, %"class.dealii::Point"*, %"class.dealii::Vector"*)* @_ZNK6dealii8FunctionILi1EE12vector_valueERKNS_5PointILi1EEERNS_6VectorIdEE to i8*), i8* bitcast (void (%"class.dealii::Functions::CosineFunction"*, %"class.std::vector"*, %"class.std::vector.3"*, i32)* @_ZNK6dealii9Functions14CosineFunctionILi1EE10value_listERKSt6vectorINS_5PointILi1EEESaIS5_EERS3_IdSaIdEEj to i8*), i8* bitcast (void (%"class.dealii::Function"*, %"class.std::vector"*, %"class.std::vector.45"*)* @_ZNK6dealii8FunctionILi1EE17vector_value_listERKSt6vectorINS_5PointILi1EEESaIS4_EERS2_INS_6VectorIdEESaISA_EE to i8*), i8* bitcast (void (%"class.dealii::Tensor"*, %"class.dealii::Functions::CosineFunction"*, %"class.dealii::Point"*, i32)* @_ZNK6dealii9Functions14CosineFunctionILi1EE8gradientERKNS_5PointILi1EEEj to i8*), i8* bitcast (void (%"class.dealii::Function"*, %"class.dealii::Point"*, %"class.std::vector.8"*)* @_ZNK6dealii8FunctionILi1EE15vector_gradientERKNS_5PointILi1EEERSt6vectorINS_6TensorILi1ELi1EEESaIS8_EE to i8*), i8* bitcast (void (%"class.dealii::Functions::CosineFunction"*, %"class.std::vector"*, %"class.std::vector.8"*, i32)* @_ZNK6dealii9Functions14CosineFunctionILi1EE13gradient_listERKSt6vectorINS_5PointILi1EEESaIS5_EERS3_INS_6TensorILi1ELi1EEESaISB_EEj to i8*), i8* bitcast (void (%"class.dealii::Function"*, %"class.std::vector"*, %"class.std::vector.50"*)* @_ZNK6dealii8FunctionILi1EE20vector_gradient_listERKSt6vectorINS_5PointILi1EEESaIS4_EERS2_IS2_INS_6TensorILi1ELi1EEESaISA_EESaISC_EE to i8*), i8* bitcast (double (%"class.dealii::Functions::CosineFunction"*, %"class.dealii::Point"*, i32)* @_ZNK6dealii9Functions14CosineFunctionILi1EE9laplacianERKNS_5PointILi1EEEj to i8*), i8* bitcast (void (%"class.dealii::Function"*, %"class.dealii::Point"*, %"class.dealii::Vector"*)* @_ZNK6dealii8FunctionILi1EE16vector_laplacianERKNS_5PointILi1EEERNS_6VectorIdEE to i8*), i8* bitcast (void (%"class.dealii::Functions::CosineFunction"*, %"class.std::vector"*, %"class.std::vector.3"*, i32)* @_ZNK6dealii9Functions14CosineFunctionILi1EE14laplacian_listERKSt6vectorINS_5PointILi1EEESaIS5_EERS3_IdSaIdEEj to i8*), i8* bitcast (void (%"class.dealii::Function"*, %"class.std::vector"*, %"class.std::vector.45"*)* @_ZNK6dealii8FunctionILi1EE21vector_laplacian_listERKSt6vectorINS_5PointILi1EEESaIS4_EERS2_INS_6VectorIdEESaISA_EE to i8*), i8* bitcast (void (%"class.dealii::Tensor.71"*, %"class.dealii::Functions::CosineFunction"*, %"class.dealii::Point"*, i32)* @_ZNK6dealii9Functions14CosineFunctionILi1EE7hessianERKNS_5PointILi1EEEj to i8*), i8* bitcast (void (%"class.dealii::Functions::CosineFunction"*, %"class.std::vector"*, %"class.std::vector.72"*, i32)* @_ZNK6dealii9Functions14CosineFunctionILi1EE12hessian_listERKSt6vectorINS_5PointILi1EEESaIS5_EERS3_INS_6TensorILi2ELi1EEESaISB_EEj to i8*)], [4 x i8*] [i8* inttoptr (i64 -16 to i8*), i8* bitcast ({ i8*, i8*, i8* }* @_ZTIN6dealii9Functions14CosineFunctionILi1EEE to i8*), i8* bitcast (void (%"class.dealii::Functions::CosineFunction"*)* @_ZThn16_N6dealii9Functions14CosineFunctionILi1EED1Ev to i8*), i8* bitcast (void (%"class.dealii::Functions::CosineFunction"*)* @_ZThn16_N6dealii9Functions14CosineFunctionILi1EED0Ev to i8*)] }, comdat, align 8
@_ZTSN6dealii9Functions14CosineFunctionILi1EEE = weak_odr dso_local constant [42 x i8] c"N6dealii9Functions14CosineFunctionILi1EEE\00", comdat, align 1
@_ZTIN6dealii9Functions14CosineFunctionILi1EEE = weak_odr dso_local constant { i8*, i8*, i8* } { i8* bitcast (i8** getelementptr inbounds (i8*, i8** @_ZTVN10__cxxabiv120__si_class_type_infoE, i64 2) to i8*), i8* getelementptr inbounds ([42 x i8], [42 x i8]* @_ZTSN6dealii9Functions14CosineFunctionILi1EEE, i32 0, i32 0), i8* bitcast ({ i8*, i8*, i32, i32, i8*, i64, i8*, i64 }* @_ZTIN6dealii8FunctionILi1EEE to i8*) }, comdat, align 8
@_ZTVN6dealii9Functions14CosineFunctionILi2EEE = weak_odr dso_local unnamed_addr constant { [20 x i8*], [4 x i8*] } { [20 x i8*] [i8* null, i8* bitcast ({ i8*, i8*, i8* }* @_ZTIN6dealii9Functions14CosineFunctionILi2EEE to i8*), i8* bitcast (void (%"class.dealii::Functions::CosineFunction.77"*)* @_ZN6dealii9Functions14CosineFunctionILi2EED2Ev to i8*), i8* bitcast (void (%"class.dealii::Functions::CosineFunction.77"*)* @_ZN6dealii9Functions14CosineFunctionILi2EED0Ev to i8*), i8* bitcast (void (%"class.dealii::FunctionTime"*, double)* @_ZN6dealii12FunctionTime8set_timeEd to i8*), i8* bitcast (void (%"class.dealii::FunctionTime"*, double)* @_ZN6dealii12FunctionTime12advance_timeEd to i8*), i8* bitcast (double (%"class.dealii::Functions::CosineFunction.77"*, %"class.dealii::Point.17"*, i32)* @_ZNK6dealii9Functions14CosineFunctionILi2EE5valueERKNS_5PointILi2EEEj to i8*), i8* bitcast (void (%"class.dealii::Function.14"*, %"class.dealii::Point.17"*, %"class.dealii::Vector"*)* @_ZNK6dealii8FunctionILi2EE12vector_valueERKNS_5PointILi2EEERNS_6VectorIdEE to i8*), i8* bitcast (void (%"class.dealii::Functions::CosineFunction.77"*, %"class.std::vector.19"*, %"class.std::vector.3"*, i32)* @_ZNK6dealii9Functions14CosineFunctionILi2EE10value_listERKSt6vectorINS_5PointILi2EEESaIS5_EERS3_IdSaIdEEj to i8*), i8* bitcast (void (%"class.dealii::Function.14"*, %"class.std::vector.19"*, %"class.std::vector.45"*)* @_ZNK6dealii8FunctionILi2EE17vector_value_listERKSt6vectorINS_5PointILi2EEESaIS4_EERS2_INS_6VectorIdEESaISA_EE to i8*), i8* bitcast (void (%"class.dealii::Tensor.18"*, %"class.dealii::Functions::CosineFunction.77"*, %"class.dealii::Point.17"*, i32)* @_ZNK6dealii9Functions14CosineFunctionILi2EE8gradientERKNS_5PointILi2EEEj to i8*), i8* bitcast (void (%"class.dealii::Function.14"*, %"class.dealii::Point.17"*, %"class.std::vector.24"*)* @_ZNK6dealii8FunctionILi2EE15vector_gradientERKNS_5PointILi2EEERSt6vectorINS_6TensorILi1ELi2EEESaIS8_EE to i8*), i8* bitcast (void (%"class.dealii::Functions::CosineFunction.77"*, %"class.std::vector.19"*, %"class.std::vector.24"*, i32)* @_ZNK6dealii9Functions14CosineFunctionILi2EE13gradient_listERKSt6vectorINS_5PointILi2EEESaIS5_EERS3_INS_6TensorILi1ELi2EEESaISB_EEj to i8*), i8* bitcast (void (%"class.dealii::Function.14"*, %"class.std::vector.19"*, %"class.std::vector.57"*)* @_ZNK6dealii8FunctionILi2EE20vector_gradient_listERKSt6vectorINS_5PointILi2EEESaIS4_EERS2_IS2_INS_6TensorILi1ELi2EEESaISA_EESaISC_EE to i8*), i8* bitcast (double (%"class.dealii::Functions::CosineFunction.77"*, %"class.dealii::Point.17"*, i32)* @_ZNK6dealii9Functions14CosineFunctionILi2EE9laplacianERKNS_5PointILi2EEEj to i8*), i8* bitcast (void (%"class.dealii::Function.14"*, %"class.dealii::Point.17"*, %"class.dealii::Vector"*)* @_ZNK6dealii8FunctionILi2EE16vector_laplacianERKNS_5PointILi2EEERNS_6VectorIdEE to i8*), i8* bitcast (void (%"class.dealii::Functions::CosineFunction.77"*, %"class.std::vector.19"*, %"class.std::vector.3"*, i32)* @_ZNK6dealii9Functions14CosineFunctionILi2EE14laplacian_listERKSt6vectorINS_5PointILi2EEESaIS5_EERS3_IdSaIdEEj to i8*), i8* bitcast (void (%"class.dealii::Function.14"*, %"class.std::vector.19"*, %"class.std::vector.45"*)* @_ZNK6dealii8FunctionILi2EE21vector_laplacian_listERKSt6vectorINS_5PointILi2EEESaIS4_EERS2_INS_6VectorIdEESaISA_EE to i8*), i8* bitcast (void (%"class.dealii::Tensor.79"*, %"class.dealii::Functions::CosineFunction.77"*, %"class.dealii::Point.17"*, i32)* @_ZNK6dealii9Functions14CosineFunctionILi2EE7hessianERKNS_5PointILi2EEEj to i8*), i8* bitcast (void (%"class.dealii::Functions::CosineFunction.77"*, %"class.std::vector.19"*, %"class.std::vector.80"*, i32)* @_ZNK6dealii9Functions14CosineFunctionILi2EE12hessian_listERKSt6vectorINS_5PointILi2EEESaIS5_EERS3_INS_6TensorILi2ELi2EEESaISB_EEj to i8*)], [4 x i8*] [i8* inttoptr (i64 -16 to i8*), i8* bitcast ({ i8*, i8*, i8* }* @_ZTIN6dealii9Functions14CosineFunctionILi2EEE to i8*), i8* bitcast (void (%"class.dealii::Functions::CosineFunction.77"*)* @_ZThn16_N6dealii9Functions14CosineFunctionILi2EED1Ev to i8*), i8* bitcast (void (%"class.dealii::Functions::CosineFunction.77"*)* @_ZThn16_N6dealii9Functions14CosineFunctionILi2EED0Ev to i8*)] }, comdat, align 8
@_ZTSN6dealii9Functions14CosineFunctionILi2EEE = weak_odr dso_local constant [42 x i8] c"N6dealii9Functions14CosineFunctionILi2EEE\00", comdat, align 1
@_ZTIN6dealii9Functions14CosineFunctionILi2EEE = weak_odr dso_local constant { i8*, i8*, i8* } { i8* bitcast (i8** getelementptr inbounds (i8*, i8** @_ZTVN10__cxxabiv120__si_class_type_infoE, i64 2) to i8*), i8* getelementptr inbounds ([42 x i8], [42 x i8]* @_ZTSN6dealii9Functions14CosineFunctionILi2EEE, i32 0, i32 0), i8* bitcast ({ i8*, i8*, i32, i32, i8*, i64, i8*, i64 }* @_ZTIN6dealii8FunctionILi2EEE to i8*) }, comdat, align 8
@_ZTVN6dealii9Functions14CosineFunctionILi3EEE = weak_odr dso_local unnamed_addr constant { [20 x i8*], [4 x i8*] } { [20 x i8*] [i8* null, i8* bitcast ({ i8*, i8*, i8* }* @_ZTIN6dealii9Functions14CosineFunctionILi3EEE to i8*), i8* bitcast (void (%"class.dealii::Functions::CosineFunction.85"*)* @_ZN6dealii9Functions14CosineFunctionILi3EED2Ev to i8*), i8* bitcast (void (%"class.dealii::Functions::CosineFunction.85"*)* @_ZN6dealii9Functions14CosineFunctionILi3EED0Ev to i8*), i8* bitcast (void (%"class.dealii::FunctionTime"*, double)* @_ZN6dealii12FunctionTime8set_timeEd to i8*), i8* bitcast (void (%"class.dealii::FunctionTime"*, double)* @_ZN6dealii12FunctionTime12advance_timeEd to i8*), i8* bitcast (double (%"class.dealii::Functions::CosineFunction.85"*, %"class.dealii::Point.33"*, i32)* @_ZNK6dealii9Functions14CosineFunctionILi3EE5valueERKNS_5PointILi3EEEj to i8*), i8* bitcast (void (%"class.dealii::Function.30"*, %"class.dealii::Point.33"*, %"class.dealii::Vector"*)* @_ZNK6dealii8FunctionILi3EE12vector_valueERKNS_5PointILi3EEERNS_6VectorIdEE to i8*), i8* bitcast (void (%"class.dealii::Functions::CosineFunction.85"*, %"class.std::vector.35"*, %"class.std::vector.3"*, i32)* @_ZNK6dealii9Functions14CosineFunctionILi3EE10value_listERKSt6vectorINS_5PointILi3EEESaIS5_EERS3_IdSaIdEEj to i8*), i8* bitcast (void (%"class.dealii::Function.30"*, %"class.std::vector.35"*, %"class.std::vector.45"*)* @_ZNK6dealii8FunctionILi3EE17vector_value_listERKSt6vectorINS_5PointILi3EEESaIS4_EERS2_INS_6VectorIdEESaISA_EE to i8*), i8* bitcast (void (%"class.dealii::Tensor.34"*, %"class.dealii::Functions::CosineFunction.85"*, %"class.dealii::Point.33"*, i32)* @_ZNK6dealii9Functions14CosineFunctionILi3EE8gradientERKNS_5PointILi3EEEj to i8*), i8* bitcast (void (%"class.dealii::Function.30"*, %"class.dealii::Point.33"*, %"class.std::vector.40"*)* @_ZNK6dealii8FunctionILi3EE15vector_gradientERKNS_5PointILi3EEERSt6vectorINS_6TensorILi1ELi3EEESaIS8_EE to i8*), i8* bitcast (void (%"class.dealii::Functions::CosineFunction.85"*, %"class.std::vector.35"*, %"class.std::vector.40"*, i32)* @_ZNK6dealii9Functions14CosineFunctionILi3EE13gradient_listERKSt6vectorINS_5PointILi3EEESaIS5_EERS3_INS_6TensorILi1ELi3EEESaISB_EEj to i8*), i8* bitcast (void (%"class.dealii::Function.30"*, %"class.std::vector.35"*, %"class.std::vector.64"*)* @_ZNK6dealii8FunctionILi3EE20vector_gradient_listERKSt6vectorINS_5PointILi3EEESaIS4_EERS2_IS2_INS_6TensorILi1ELi3EEESaISA_EESaISC_EE to i8*), i8* bitcast (double (%"class.dealii::Functions::CosineFunction.85"*, %"class.dealii::Point.33"*, i32)* @_ZNK6dealii9Functions14CosineFunctionILi3EE9laplacianERKNS_5PointILi3EEEj to i8*), i8* bitcast (void (%"class.dealii::Function.30"*, %"class.dealii::Point.33"*, %"class.dealii::Vector"*)* @_ZNK6dealii8FunctionILi3EE16vector_laplacianERKNS_5PointILi3EEERNS_6VectorIdEE to i8*), i8* bitcast (void (%"class.dealii::Functions::CosineFunction.85"*, %"class.std::vector.35"*, %"class.std::vector.3"*, i32)* @_ZNK6dealii9Functions14CosineFunctionILi3EE14laplacian_listERKSt6vectorINS_5PointILi3EEESaIS5_EERS3_IdSaIdEEj to i8*), i8* bitcast (void (%"class.dealii::Function.30"*, %"class.std::vector.35"*, %"class.std::vector.45"*)* @_ZNK6dealii8FunctionILi3EE21vector_laplacian_listERKSt6vectorINS_5PointILi3EEESaIS4_EERS2_INS_6VectorIdEESaISA_EE to i8*), i8* bitcast (void (%"class.dealii::Tensor.87"*, %"class.dealii::Functions::CosineFunction.85"*, %"class.dealii::Point.33"*, i32)* @_ZNK6dealii9Functions14CosineFunctionILi3EE7hessianERKNS_5PointILi3EEEj to i8*), i8* bitcast (void (%"class.dealii::Functions::CosineFunction.85"*, %"class.std::vector.35"*, %"class.std::vector.88"*, i32)* @_ZNK6dealii9Functions14CosineFunctionILi3EE12hessian_listERKSt6vectorINS_5PointILi3EEESaIS5_EERS3_INS_6TensorILi2ELi3EEESaISB_EEj to i8*)], [4 x i8*] [i8* inttoptr (i64 -16 to i8*), i8* bitcast ({ i8*, i8*, i8* }* @_ZTIN6dealii9Functions14CosineFunctionILi3EEE to i8*), i8* bitcast (void (%"class.dealii::Functions::CosineFunction.85"*)* @_ZThn16_N6dealii9Functions14CosineFunctionILi3EED1Ev to i8*), i8* bitcast (void (%"class.dealii::Functions::CosineFunction.85"*)* @_ZThn16_N6dealii9Functions14CosineFunctionILi3EED0Ev to i8*)] }, comdat, align 8
@_ZTSN6dealii9Functions14CosineFunctionILi3EEE = weak_odr dso_local constant [42 x i8] c"N6dealii9Functions14CosineFunctionILi3EEE\00", comdat, align 1
@_ZTIN6dealii9Functions14CosineFunctionILi3EEE = weak_odr dso_local constant { i8*, i8*, i8* } { i8* bitcast (i8** getelementptr inbounds (i8*, i8** @_ZTVN10__cxxabiv120__si_class_type_infoE, i64 2) to i8*), i8* getelementptr inbounds ([42 x i8], [42 x i8]* @_ZTSN6dealii9Functions14CosineFunctionILi3EEE, i32 0, i32 0), i8* bitcast ({ i8*, i8*, i32, i32, i8*, i64, i8*, i64 }* @_ZTIN6dealii8FunctionILi3EEE to i8*) }, comdat, align 8
@_ZTVN6dealii9Functions11ExpFunctionILi1EEE = weak_odr dso_local unnamed_addr constant { [18 x i8*], [4 x i8*] } { [18 x i8*] [i8* null, i8* bitcast ({ i8*, i8*, i8* }* @_ZTIN6dealii9Functions11ExpFunctionILi1EEE to i8*), i8* bitcast (void (%"class.dealii::Functions::ExpFunction"*)* @_ZN6dealii9Functions11ExpFunctionILi1EED2Ev to i8*), i8* bitcast (void (%"class.dealii::Functions::ExpFunction"*)* @_ZN6dealii9Functions11ExpFunctionILi1EED0Ev to i8*), i8* bitcast (void (%"class.dealii::FunctionTime"*, double)* @_ZN6dealii12FunctionTime8set_timeEd to i8*), i8* bitcast (void (%"class.dealii::FunctionTime"*, double)* @_ZN6dealii12FunctionTime12advance_timeEd to i8*), i8* bitcast (double (%"class.dealii::Functions::ExpFunction"*, %"class.dealii::Point"*, i32)* @_ZNK6dealii9Functions11ExpFunctionILi1EE5valueERKNS_5PointILi1EEEj to i8*), i8* bitcast (void (%"class.dealii::Function"*, %"class.dealii::Point"*, %"class.dealii::Vector"*)* @_ZNK6dealii8FunctionILi1EE12vector_valueERKNS_5PointILi1EEERNS_6VectorIdEE to i8*), i8* bitcast (void (%"class.dealii::Functions::ExpFunction"*, %"class.std::vector"*, %"class.std::vector.3"*, i32)* @_ZNK6dealii9Functions11ExpFunctionILi1EE10value_listERKSt6vectorINS_5PointILi1EEESaIS5_EERS3_IdSaIdEEj to i8*), i8* bitcast (void (%"class.dealii::Function"*, %"class.std::vector"*, %"class.std::vector.45"*)* @_ZNK6dealii8FunctionILi1EE17vector_value_listERKSt6vectorINS_5PointILi1EEESaIS4_EERS2_INS_6VectorIdEESaISA_EE to i8*), i8* bitcast (void (%"class.dealii::Tensor"*, %"class.dealii::Functions::ExpFunction"*, %"class.dealii::Point"*, i32)* @_ZNK6dealii9Functions11ExpFunctionILi1EE8gradientERKNS_5PointILi1EEEj to i8*), i8* bitcast (void (%"class.dealii::Function"*, %"class.dealii::Point"*, %"class.std::vector.8"*)* @_ZNK6dealii8FunctionILi1EE15vector_gradientERKNS_5PointILi1EEERSt6vectorINS_6TensorILi1ELi1EEESaIS8_EE to i8*), i8* bitcast (void (%"class.dealii::Functions::ExpFunction"*, %"class.std::vector"*, %"class.std::vector.8"*, i32)* @_ZNK6dealii9Functions11ExpFunctionILi1EE13gradient_listERKSt6vectorINS_5PointILi1EEESaIS5_EERS3_INS_6TensorILi1ELi1EEESaISB_EEj to i8*), i8* bitcast (void (%"class.dealii::Function"*, %"class.std::vector"*, %"class.std::vector.50"*)* @_ZNK6dealii8FunctionILi1EE20vector_gradient_listERKSt6vectorINS_5PointILi1EEESaIS4_EERS2_IS2_INS_6TensorILi1ELi1EEESaISA_EESaISC_EE to i8*), i8* bitcast (double (%"class.dealii::Functions::ExpFunction"*, %"class.dealii::Point"*, i32)* @_ZNK6dealii9Functions11ExpFunctionILi1EE9laplacianERKNS_5PointILi1EEEj to i8*), i8* bitcast (void (%"class.dealii::Function"*, %"class.dealii::Point"*, %"class.dealii::Vector"*)* @_ZNK6dealii8FunctionILi1EE16vector_laplacianERKNS_5PointILi1EEERNS_6VectorIdEE to i8*), i8* bitcast (void (%"class.dealii::Functions::ExpFunction"*, %"class.std::vector"*, %"class.std::vector.3"*, i32)* @_ZNK6dealii9Functions11ExpFunctionILi1EE14laplacian_listERKSt6vectorINS_5PointILi1EEESaIS5_EERS3_IdSaIdEEj to i8*), i8* bitcast (void (%"class.dealii::Function"*, %"class.std::vector"*, %"class.std::vector.45"*)* @_ZNK6dealii8FunctionILi1EE21vector_laplacian_listERKSt6vectorINS_5PointILi1EEESaIS4_EERS2_INS_6VectorIdEESaISA_EE to i8*)], [4 x i8*] [i8* inttoptr (i64 -16 to i8*), i8* bitcast ({ i8*, i8*, i8* }* @_ZTIN6dealii9Functions11ExpFunctionILi1EEE to i8*), i8* bitcast (void (%"class.dealii::Functions::ExpFunction"*)* @_ZThn16_N6dealii9Functions11ExpFunctionILi1EED1Ev to i8*), i8* bitcast (void (%"class.dealii::Functions::ExpFunction"*)* @_ZThn16_N6dealii9Functions11ExpFunctionILi1EED0Ev to i8*)] }, comdat, align 8
@_ZTSN6dealii9Functions11ExpFunctionILi1EEE = weak_odr dso_local constant [39 x i8] c"N6dealii9Functions11ExpFunctionILi1EEE\00", comdat, align 1
@_ZTIN6dealii9Functions11ExpFunctionILi1EEE = weak_odr dso_local constant { i8*, i8*, i8* } { i8* bitcast (i8** getelementptr inbounds (i8*, i8** @_ZTVN10__cxxabiv120__si_class_type_infoE, i64 2) to i8*), i8* getelementptr inbounds ([39 x i8], [39 x i8]* @_ZTSN6dealii9Functions11ExpFunctionILi1EEE, i32 0, i32 0), i8* bitcast ({ i8*, i8*, i32, i32, i8*, i64, i8*, i64 }* @_ZTIN6dealii8FunctionILi1EEE to i8*) }, comdat, align 8
@_ZTVN6dealii9Functions11ExpFunctionILi2EEE = weak_odr dso_local unnamed_addr constant { [18 x i8*], [4 x i8*] } { [18 x i8*] [i8* null, i8* bitcast ({ i8*, i8*, i8* }* @_ZTIN6dealii9Functions11ExpFunctionILi2EEE to i8*), i8* bitcast (void (%"class.dealii::Functions::ExpFunction.93"*)* @_ZN6dealii9Functions11ExpFunctionILi2EED2Ev to i8*), i8* bitcast (void (%"class.dealii::Functions::ExpFunction.93"*)* @_ZN6dealii9Functions11ExpFunctionILi2EED0Ev to i8*), i8* bitcast (void (%"class.dealii::FunctionTime"*, double)* @_ZN6dealii12FunctionTime8set_timeEd to i8*), i8* bitcast (void (%"class.dealii::FunctionTime"*, double)* @_ZN6dealii12FunctionTime12advance_timeEd to i8*), i8* bitcast (double (%"class.dealii::Functions::ExpFunction.93"*, %"class.dealii::Point.17"*, i32)* @_ZNK6dealii9Functions11ExpFunctionILi2EE5valueERKNS_5PointILi2EEEj to i8*), i8* bitcast (void (%"class.dealii::Function.14"*, %"class.dealii::Point.17"*, %"class.dealii::Vector"*)* @_ZNK6dealii8FunctionILi2EE12vector_valueERKNS_5PointILi2EEERNS_6VectorIdEE to i8*), i8* bitcast (void (%"class.dealii::Functions::ExpFunction.93"*, %"class.std::vector.19"*, %"class.std::vector.3"*, i32)* @_ZNK6dealii9Functions11ExpFunctionILi2EE10value_listERKSt6vectorINS_5PointILi2EEESaIS5_EERS3_IdSaIdEEj to i8*), i8* bitcast (void (%"class.dealii::Function.14"*, %"class.std::vector.19"*, %"class.std::vector.45"*)* @_ZNK6dealii8FunctionILi2EE17vector_value_listERKSt6vectorINS_5PointILi2EEESaIS4_EERS2_INS_6VectorIdEESaISA_EE to i8*), i8* bitcast (void (%"class.dealii::Tensor.18"*, %"class.dealii::Functions::ExpFunction.93"*, %"class.dealii::Point.17"*, i32)* @_ZNK6dealii9Functions11ExpFunctionILi2EE8gradientERKNS_5PointILi2EEEj to i8*), i8* bitcast (void (%"class.dealii::Function.14"*, %"class.dealii::Point.17"*, %"class.std::vector.24"*)* @_ZNK6dealii8FunctionILi2EE15vector_gradientERKNS_5PointILi2EEERSt6vectorINS_6TensorILi1ELi2EEESaIS8_EE to i8*), i8* bitcast (void (%"class.dealii::Functions::ExpFunction.93"*, %"class.std::vector.19"*, %"class.std::vector.24"*, i32)* @_ZNK6dealii9Functions11ExpFunctionILi2EE13gradient_listERKSt6vectorINS_5PointILi2EEESaIS5_EERS3_INS_6TensorILi1ELi2EEESaISB_EEj to i8*), i8* bitcast (void (%"class.dealii::Function.14"*, %"class.std::vector.19"*, %"class.std::vector.57"*)* @_ZNK6dealii8FunctionILi2EE20vector_gradient_listERKSt6vectorINS_5PointILi2EEESaIS4_EERS2_IS2_INS_6TensorILi1ELi2EEESaISA_EESaISC_EE to i8*), i8* bitcast (double (%"class.dealii::Functions::ExpFunction.93"*, %"class.dealii::Point.17"*, i32)* @_ZNK6dealii9Functions11ExpFunctionILi2EE9laplacianERKNS_5PointILi2EEEj to i8*), i8* bitcast (void (%"class.dealii::Function.14"*, %"class.dealii::Point.17"*, %"class.dealii::Vector"*)* @_ZNK6dealii8FunctionILi2EE16vector_laplacianERKNS_5PointILi2EEERNS_6VectorIdEE to i8*), i8* bitcast (void (%"class.dealii::Functions::ExpFunction.93"*, %"class.std::vector.19"*, %"class.std::vector.3"*, i32)* @_ZNK6dealii9Functions11ExpFunctionILi2EE14laplacian_listERKSt6vectorINS_5PointILi2EEESaIS5_EERS3_IdSaIdEEj to i8*), i8* bitcast (void (%"class.dealii::Function.14"*, %"class.std::vector.19"*, %"class.std::vector.45"*)* @_ZNK6dealii8FunctionILi2EE21vector_laplacian_listERKSt6vectorINS_5PointILi2EEESaIS4_EERS2_INS_6VectorIdEESaISA_EE to i8*)], [4 x i8*] [i8* inttoptr (i64 -16 to i8*), i8* bitcast ({ i8*, i8*, i8* }* @_ZTIN6dealii9Functions11ExpFunctionILi2EEE to i8*), i8* bitcast (void (%"class.dealii::Functions::ExpFunction.93"*)* @_ZThn16_N6dealii9Functions11ExpFunctionILi2EED1Ev to i8*), i8* bitcast (void (%"class.dealii::Functions::ExpFunction.93"*)* @_ZThn16_N6dealii9Functions11ExpFunctionILi2EED0Ev to i8*)] }, comdat, align 8
@_ZTSN6dealii9Functions11ExpFunctionILi2EEE = weak_odr dso_local constant [39 x i8] c"N6dealii9Functions11ExpFunctionILi2EEE\00", comdat, align 1
@_ZTIN6dealii9Functions11ExpFunctionILi2EEE = weak_odr dso_local constant { i8*, i8*, i8* } { i8* bitcast (i8** getelementptr inbounds (i8*, i8** @_ZTVN10__cxxabiv120__si_class_type_infoE, i64 2) to i8*), i8* getelementptr inbounds ([39 x i8], [39 x i8]* @_ZTSN6dealii9Functions11ExpFunctionILi2EEE, i32 0, i32 0), i8* bitcast ({ i8*, i8*, i32, i32, i8*, i64, i8*, i64 }* @_ZTIN6dealii8FunctionILi2EEE to i8*) }, comdat, align 8
@_ZTVN6dealii9Functions11ExpFunctionILi3EEE = weak_odr dso_local unnamed_addr constant { [18 x i8*], [4 x i8*] } { [18 x i8*] [i8* null, i8* bitcast ({ i8*, i8*, i8* }* @_ZTIN6dealii9Functions11ExpFunctionILi3EEE to i8*), i8* bitcast (void (%"class.dealii::Functions::ExpFunction.95"*)* @_ZN6dealii9Functions11ExpFunctionILi3EED2Ev to i8*), i8* bitcast (void (%"class.dealii::Functions::ExpFunction.95"*)* @_ZN6dealii9Functions11ExpFunctionILi3EED0Ev to i8*), i8* bitcast (void (%"class.dealii::FunctionTime"*, double)* @_ZN6dealii12FunctionTime8set_timeEd to i8*), i8* bitcast (void (%"class.dealii::FunctionTime"*, double)* @_ZN6dealii12FunctionTime12advance_timeEd to i8*), i8* bitcast (double (%"class.dealii::Functions::ExpFunction.95"*, %"class.dealii::Point.33"*, i32)* @_ZNK6dealii9Functions11ExpFunctionILi3EE5valueERKNS_5PointILi3EEEj to i8*), i8* bitcast (void (%"class.dealii::Function.30"*, %"class.dealii::Point.33"*, %"class.dealii::Vector"*)* @_ZNK6dealii8FunctionILi3EE12vector_valueERKNS_5PointILi3EEERNS_6VectorIdEE to i8*), i8* bitcast (void (%"class.dealii::Functions::ExpFunction.95"*, %"class.std::vector.35"*, %"class.std::vector.3"*, i32)* @_ZNK6dealii9Functions11ExpFunctionILi3EE10value_listERKSt6vectorINS_5PointILi3EEESaIS5_EERS3_IdSaIdEEj to i8*), i8* bitcast (void (%"class.dealii::Function.30"*, %"class.std::vector.35"*, %"class.std::vector.45"*)* @_ZNK6dealii8FunctionILi3EE17vector_value_listERKSt6vectorINS_5PointILi3EEESaIS4_EERS2_INS_6VectorIdEESaISA_EE to i8*), i8* bitcast (void (%"class.dealii::Tensor.34"*, %"class.dealii::Functions::ExpFunction.95"*, %"class.dealii::Point.33"*, i32)* @_ZNK6dealii9Functions11ExpFunctionILi3EE8gradientERKNS_5PointILi3EEEj to i8*), i8* bitcast (void (%"class.dealii::Function.30"*, %"class.dealii::Point.33"*, %"class.std::vector.40"*)* @_ZNK6dealii8FunctionILi3EE15vector_gradientERKNS_5PointILi3EEERSt6vectorINS_6TensorILi1ELi3EEESaIS8_EE to i8*), i8* bitcast (void (%"class.dealii::Functions::ExpFunction.95"*, %"class.std::vector.35"*, %"class.std::vector.40"*, i32)* @_ZNK6dealii9Functions11ExpFunctionILi3EE13gradient_listERKSt6vectorINS_5PointILi3EEESaIS5_EERS3_INS_6TensorILi1ELi3EEESaISB_EEj to i8*), i8* bitcast (void (%"class.dealii::Function.30"*, %"class.std::vector.35"*, %"class.std::vector.64"*)* @_ZNK6dealii8FunctionILi3EE20vector_gradient_listERKSt6vectorINS_5PointILi3EEESaIS4_EERS2_IS2_INS_6TensorILi1ELi3EEESaISA_EESaISC_EE to i8*), i8* bitcast (double (%"class.dealii::Functions::ExpFunction.95"*, %"class.dealii::Point.33"*, i32)* @_ZNK6dealii9Functions11ExpFunctionILi3EE9laplacianERKNS_5PointILi3EEEj to i8*), i8* bitcast (void (%"class.dealii::Function.30"*, %"class.dealii::Point.33"*, %"class.dealii::Vector"*)* @_ZNK6dealii8FunctionILi3EE16vector_laplacianERKNS_5PointILi3EEERNS_6VectorIdEE to i8*), i8* bitcast (void (%"class.dealii::Functions::ExpFunction.95"*, %"class.std::vector.35"*, %"class.std::vector.3"*, i32)* @_ZNK6dealii9Functions11ExpFunctionILi3EE14laplacian_listERKSt6vectorINS_5PointILi3EEESaIS5_EERS3_IdSaIdEEj to i8*), i8* bitcast (void (%"class.dealii::Function.30"*, %"class.std::vector.35"*, %"class.std::vector.45"*)* @_ZNK6dealii8FunctionILi3EE21vector_laplacian_listERKSt6vectorINS_5PointILi3EEESaIS4_EERS2_INS_6VectorIdEESaISA_EE to i8*)], [4 x i8*] [i8* inttoptr (i64 -16 to i8*), i8* bitcast ({ i8*, i8*, i8* }* @_ZTIN6dealii9Functions11ExpFunctionILi3EEE to i8*), i8* bitcast (void (%"class.dealii::Functions::ExpFunction.95"*)* @_ZThn16_N6dealii9Functions11ExpFunctionILi3EED1Ev to i8*), i8* bitcast (void (%"class.dealii::Functions::ExpFunction.95"*)* @_ZThn16_N6dealii9Functions11ExpFunctionILi3EED0Ev to i8*)] }, comdat, align 8
@_ZTSN6dealii9Functions11ExpFunctionILi3EEE = weak_odr dso_local constant [39 x i8] c"N6dealii9Functions11ExpFunctionILi3EEE\00", comdat, align 1
@_ZTIN6dealii9Functions11ExpFunctionILi3EEE = weak_odr dso_local constant { i8*, i8*, i8* } { i8* bitcast (i8** getelementptr inbounds (i8*, i8** @_ZTVN10__cxxabiv120__si_class_type_infoE, i64 2) to i8*), i8* getelementptr inbounds ([39 x i8], [39 x i8]* @_ZTSN6dealii9Functions11ExpFunctionILi3EEE, i32 0, i32 0), i8* bitcast ({ i8*, i8*, i32, i32, i8*, i64, i8*, i64 }* @_ZTIN6dealii8FunctionILi3EEE to i8*) }, comdat, align 8
@_ZTSN6dealii9Functions12JumpFunctionILi1EEE = weak_odr dso_local constant [40 x i8] c"N6dealii9Functions12JumpFunctionILi1EEE\00", comdat, align 1
@_ZTIN6dealii9Functions12JumpFunctionILi1EEE = weak_odr dso_local constant { i8*, i8*, i8* } { i8* bitcast (i8** getelementptr inbounds (i8*, i8** @_ZTVN10__cxxabiv120__si_class_type_infoE, i64 2) to i8*), i8* getelementptr inbounds ([40 x i8], [40 x i8]* @_ZTSN6dealii9Functions12JumpFunctionILi1EEE, i32 0, i32 0), i8* bitcast ({ i8*, i8*, i32, i32, i8*, i64, i8*, i64 }* @_ZTIN6dealii8FunctionILi1EEE to i8*) }, comdat, align 8
@_ZTSN6dealii9Functions12JumpFunctionILi2EEE = weak_odr dso_local constant [40 x i8] c"N6dealii9Functions12JumpFunctionILi2EEE\00", comdat, align 1
@_ZTIN6dealii9Functions12JumpFunctionILi2EEE = weak_odr dso_local constant { i8*, i8*, i8* } { i8* bitcast (i8** getelementptr inbounds (i8*, i8** @_ZTVN10__cxxabiv120__si_class_type_infoE, i64 2) to i8*), i8* getelementptr inbounds ([40 x i8], [40 x i8]* @_ZTSN6dealii9Functions12JumpFunctionILi2EEE, i32 0, i32 0), i8* bitcast ({ i8*, i8*, i32, i32, i8*, i64, i8*, i64 }* @_ZTIN6dealii8FunctionILi2EEE to i8*) }, comdat, align 8
@_ZTSN6dealii9Functions12JumpFunctionILi3EEE = weak_odr dso_local constant [40 x i8] c"N6dealii9Functions12JumpFunctionILi3EEE\00", comdat, align 1
@_ZTIN6dealii9Functions12JumpFunctionILi3EEE = weak_odr dso_local constant { i8*, i8*, i8* } { i8* bitcast (i8** getelementptr inbounds (i8*, i8** @_ZTVN10__cxxabiv120__si_class_type_infoE, i64 2) to i8*), i8* getelementptr inbounds ([40 x i8], [40 x i8]* @_ZTSN6dealii9Functions12JumpFunctionILi3EEE, i32 0, i32 0), i8* bitcast ({ i8*, i8*, i32, i32, i8*, i64, i8*, i64 }* @_ZTIN6dealii8FunctionILi3EEE to i8*) }, comdat, align 8
@_ZTSN6dealii9Functions21FourierCosineFunctionILi1EEE = weak_odr dso_local constant [49 x i8] c"N6dealii9Functions21FourierCosineFunctionILi1EEE\00", comdat, align 1
@_ZTIN6dealii9Functions21FourierCosineFunctionILi1EEE = weak_odr dso_local constant { i8*, i8*, i8* } { i8* bitcast (i8** getelementptr inbounds (i8*, i8** @_ZTVN10__cxxabiv120__si_class_type_infoE, i64 2) to i8*), i8* getelementptr inbounds ([49 x i8], [49 x i8]* @_ZTSN6dealii9Functions21FourierCosineFunctionILi1EEE, i32 0, i32 0), i8* bitcast ({ i8*, i8*, i32, i32, i8*, i64, i8*, i64 }* @_ZTIN6dealii8FunctionILi1EEE to i8*) }, comdat, align 8
@_ZTSN6dealii9Functions21FourierCosineFunctionILi2EEE = weak_odr dso_local constant [49 x i8] c"N6dealii9Functions21FourierCosineFunctionILi2EEE\00", comdat, align 1
@_ZTIN6dealii9Functions21FourierCosineFunctionILi2EEE = weak_odr dso_local constant { i8*, i8*, i8* } { i8* bitcast (i8** getelementptr inbounds (i8*, i8** @_ZTVN10__cxxabiv120__si_class_type_infoE, i64 2) to i8*), i8* getelementptr inbounds ([49 x i8], [49 x i8]* @_ZTSN6dealii9Functions21FourierCosineFunctionILi2EEE, i32 0, i32 0), i8* bitcast ({ i8*, i8*, i32, i32, i8*, i64, i8*, i64 }* @_ZTIN6dealii8FunctionILi2EEE to i8*) }, comdat, align 8
@_ZTSN6dealii9Functions21FourierCosineFunctionILi3EEE = weak_odr dso_local constant [49 x i8] c"N6dealii9Functions21FourierCosineFunctionILi3EEE\00", comdat, align 1
@_ZTIN6dealii9Functions21FourierCosineFunctionILi3EEE = weak_odr dso_local constant { i8*, i8*, i8* } { i8* bitcast (i8** getelementptr inbounds (i8*, i8** @_ZTVN10__cxxabiv120__si_class_type_infoE, i64 2) to i8*), i8* getelementptr inbounds ([49 x i8], [49 x i8]* @_ZTSN6dealii9Functions21FourierCosineFunctionILi3EEE, i32 0, i32 0), i8* bitcast ({ i8*, i8*, i32, i32, i8*, i64, i8*, i64 }* @_ZTIN6dealii8FunctionILi3EEE to i8*) }, comdat, align 8
@_ZTSN6dealii9Functions19FourierSineFunctionILi1EEE = weak_odr dso_local constant [47 x i8] c"N6dealii9Functions19FourierSineFunctionILi1EEE\00", comdat, align 1
@_ZTIN6dealii9Functions19FourierSineFunctionILi1EEE = weak_odr dso_local constant { i8*, i8*, i8* } { i8* bitcast (i8** getelementptr inbounds (i8*, i8** @_ZTVN10__cxxabiv120__si_class_type_infoE, i64 2) to i8*), i8* getelementptr inbounds ([47 x i8], [47 x i8]* @_ZTSN6dealii9Functions19FourierSineFunctionILi1EEE, i32 0, i32 0), i8* bitcast ({ i8*, i8*, i32, i32, i8*, i64, i8*, i64 }* @_ZTIN6dealii8FunctionILi1EEE to i8*) }, comdat, align 8
@_ZTSN6dealii9Functions19FourierSineFunctionILi2EEE = weak_odr dso_local constant [47 x i8] c"N6dealii9Functions19FourierSineFunctionILi2EEE\00", comdat, align 1
@_ZTIN6dealii9Functions19FourierSineFunctionILi2EEE = weak_odr dso_local constant { i8*, i8*, i8* } { i8* bitcast (i8** getelementptr inbounds (i8*, i8** @_ZTVN10__cxxabiv120__si_class_type_infoE, i64 2) to i8*), i8* getelementptr inbounds ([47 x i8], [47 x i8]* @_ZTSN6dealii9Functions19FourierSineFunctionILi2EEE, i32 0, i32 0), i8* bitcast ({ i8*, i8*, i32, i32, i8*, i64, i8*, i64 }* @_ZTIN6dealii8FunctionILi2EEE to i8*) }, comdat, align 8
@_ZTSN6dealii9Functions19FourierSineFunctionILi3EEE = weak_odr dso_local constant [47 x i8] c"N6dealii9Functions19FourierSineFunctionILi3EEE\00", comdat, align 1
@_ZTIN6dealii9Functions19FourierSineFunctionILi3EEE = weak_odr dso_local constant { i8*, i8*, i8* } { i8* bitcast (i8** getelementptr inbounds (i8*, i8** @_ZTVN10__cxxabiv120__si_class_type_infoE, i64 2) to i8*), i8* getelementptr inbounds ([47 x i8], [47 x i8]* @_ZTSN6dealii9Functions19FourierSineFunctionILi3EEE, i32 0, i32 0), i8* bitcast ({ i8*, i8*, i32, i32, i8*, i64, i8*, i64 }* @_ZTIN6dealii8FunctionILi3EEE to i8*) }, comdat, align 8
@_ZTSN6dealii9Functions16FourierCosineSumILi1EEE = weak_odr dso_local constant [44 x i8] c"N6dealii9Functions16FourierCosineSumILi1EEE\00", comdat, align 1
@_ZTIN6dealii9Functions16FourierCosineSumILi1EEE = weak_odr dso_local constant { i8*, i8*, i8* } { i8* bitcast (i8** getelementptr inbounds (i8*, i8** @_ZTVN10__cxxabiv120__si_class_type_infoE, i64 2) to i8*), i8* getelementptr inbounds ([44 x i8], [44 x i8]* @_ZTSN6dealii9Functions16FourierCosineSumILi1EEE, i32 0, i32 0), i8* bitcast ({ i8*, i8*, i32, i32, i8*, i64, i8*, i64 }* @_ZTIN6dealii8FunctionILi1EEE to i8*) }, comdat, align 8
@_ZTSN6dealii9Functions16FourierCosineSumILi2EEE = weak_odr dso_local constant [44 x i8] c"N6dealii9Functions16FourierCosineSumILi2EEE\00", comdat, align 1
@_ZTIN6dealii9Functions16FourierCosineSumILi2EEE = weak_odr dso_local constant { i8*, i8*, i8* } { i8* bitcast (i8** getelementptr inbounds (i8*, i8** @_ZTVN10__cxxabiv120__si_class_type_infoE, i64 2) to i8*), i8* getelementptr inbounds ([44 x i8], [44 x i8]* @_ZTSN6dealii9Functions16FourierCosineSumILi2EEE, i32 0, i32 0), i8* bitcast ({ i8*, i8*, i32, i32, i8*, i64, i8*, i64 }* @_ZTIN6dealii8FunctionILi2EEE to i8*) }, comdat, align 8
@_ZTSN6dealii9Functions16FourierCosineSumILi3EEE = weak_odr dso_local constant [44 x i8] c"N6dealii9Functions16FourierCosineSumILi3EEE\00", comdat, align 1
@_ZTIN6dealii9Functions16FourierCosineSumILi3EEE = weak_odr dso_local constant { i8*, i8*, i8* } { i8* bitcast (i8** getelementptr inbounds (i8*, i8** @_ZTVN10__cxxabiv120__si_class_type_infoE, i64 2) to i8*), i8* getelementptr inbounds ([44 x i8], [44 x i8]* @_ZTSN6dealii9Functions16FourierCosineSumILi3EEE, i32 0, i32 0), i8* bitcast ({ i8*, i8*, i32, i32, i8*, i64, i8*, i64 }* @_ZTIN6dealii8FunctionILi3EEE to i8*) }, comdat, align 8
@_ZTSN6dealii9Functions14FourierSineSumILi1EEE = weak_odr dso_local constant [42 x i8] c"N6dealii9Functions14FourierSineSumILi1EEE\00", comdat, align 1
@_ZTIN6dealii9Functions14FourierSineSumILi1EEE = weak_odr dso_local constant { i8*, i8*, i8* } { i8* bitcast (i8** getelementptr inbounds (i8*, i8** @_ZTVN10__cxxabiv120__si_class_type_infoE, i64 2) to i8*), i8* getelementptr inbounds ([42 x i8], [42 x i8]* @_ZTSN6dealii9Functions14FourierSineSumILi1EEE, i32 0, i32 0), i8* bitcast ({ i8*, i8*, i32, i32, i8*, i64, i8*, i64 }* @_ZTIN6dealii8FunctionILi1EEE to i8*) }, comdat, align 8
@_ZTSN6dealii9Functions14FourierSineSumILi2EEE = weak_odr dso_local constant [42 x i8] c"N6dealii9Functions14FourierSineSumILi2EEE\00", comdat, align 1
@_ZTIN6dealii9Functions14FourierSineSumILi2EEE = weak_odr dso_local constant { i8*, i8*, i8* } { i8* bitcast (i8** getelementptr inbounds (i8*, i8** @_ZTVN10__cxxabiv120__si_class_type_infoE, i64 2) to i8*), i8* getelementptr inbounds ([42 x i8], [42 x i8]* @_ZTSN6dealii9Functions14FourierSineSumILi2EEE, i32 0, i32 0), i8* bitcast ({ i8*, i8*, i32, i32, i8*, i64, i8*, i64 }* @_ZTIN6dealii8FunctionILi2EEE to i8*) }, comdat, align 8
@_ZTSN6dealii9Functions14FourierSineSumILi3EEE = weak_odr dso_local constant [42 x i8] c"N6dealii9Functions14FourierSineSumILi3EEE\00", comdat, align 1
@_ZTIN6dealii9Functions14FourierSineSumILi3EEE = weak_odr dso_local constant { i8*, i8*, i8* } { i8* bitcast (i8** getelementptr inbounds (i8*, i8** @_ZTVN10__cxxabiv120__si_class_type_infoE, i64 2) to i8*), i8* getelementptr inbounds ([42 x i8], [42 x i8]* @_ZTSN6dealii9Functions14FourierSineSumILi3EEE, i32 0, i32 0), i8* bitcast ({ i8*, i8*, i32, i32, i8*, i64, i8*, i64 }* @_ZTIN6dealii8FunctionILi3EEE to i8*) }, comdat, align 8
@_ZTVN6dealii9Functions23SlitSingularityFunctionILi2EEE = weak_odr dso_local unnamed_addr constant { [18 x i8*], [4 x i8*] } { [18 x i8*] [i8* null, i8* bitcast ({ i8*, i8*, i8* }* @_ZTIN6dealii9Functions23SlitSingularityFunctionILi2EEE to i8*), i8* bitcast (void (%"class.dealii::Functions::SlitSingularityFunction"*)* @_ZN6dealii9Functions23SlitSingularityFunctionILi2EED2Ev to i8*), i8* bitcast (void (%"class.dealii::Functions::SlitSingularityFunction"*)* @_ZN6dealii9Functions23SlitSingularityFunctionILi2EED0Ev to i8*), i8* bitcast (void (%"class.dealii::FunctionTime"*, double)* @_ZN6dealii12FunctionTime8set_timeEd to i8*), i8* bitcast (void (%"class.dealii::FunctionTime"*, double)* @_ZN6dealii12FunctionTime12advance_timeEd to i8*), i8* bitcast (double (%"class.dealii::Functions::SlitSingularityFunction"*, %"class.dealii::Point.17"*, i32)* @_ZNK6dealii9Functions23SlitSingularityFunctionILi2EE5valueERKNS_5PointILi2EEEj to i8*), i8* bitcast (void (%"class.dealii::Function.14"*, %"class.dealii::Point.17"*, %"class.dealii::Vector"*)* @_ZNK6dealii8FunctionILi2EE12vector_valueERKNS_5PointILi2EEERNS_6VectorIdEE to i8*), i8* bitcast (void (%"class.dealii::Functions::SlitSingularityFunction"*, %"class.std::vector.19"*, %"class.std::vector.3"*, i32)* @_ZNK6dealii9Functions23SlitSingularityFunctionILi2EE10value_listERKSt6vectorINS_5PointILi2EEESaIS5_EERS3_IdSaIdEEj to i8*), i8* bitcast (void (%"class.dealii::Functions::SlitSingularityFunction"*, %"class.std::vector.19"*, %"class.std::vector.45"*)* @_ZNK6dealii9Functions23SlitSingularityFunctionILi2EE17vector_value_listERKSt6vectorINS_5PointILi2EEESaIS5_EERS3_INS_6VectorIdEESaISB_EE to i8*), i8* bitcast (void (%"class.dealii::Tensor.18"*, %"class.dealii::Functions::SlitSingularityFunction"*, %"class.dealii::Point.17"*, i32)* @_ZNK6dealii9Functions23SlitSingularityFunctionILi2EE8gradientERKNS_5PointILi2EEEj to i8*), i8* bitcast (void (%"class.dealii::Function.14"*, %"class.dealii::Point.17"*, %"class.std::vector.24"*)* @_ZNK6dealii8FunctionILi2EE15vector_gradientERKNS_5PointILi2EEERSt6vectorINS_6TensorILi1ELi2EEESaIS8_EE to i8*), i8* bitcast (void (%"class.dealii::Functions::SlitSingularityFunction"*, %"class.std::vector.19"*, %"class.std::vector.24"*, i32)* @_ZNK6dealii9Functions23SlitSingularityFunctionILi2EE13gradient_listERKSt6vectorINS_5PointILi2EEESaIS5_EERS3_INS_6TensorILi1ELi2EEESaISB_EEj to i8*), i8* bitcast (void (%"class.dealii::Functions::SlitSingularityFunction"*, %"class.std::vector.19"*, %"class.std::vector.57"*)* @_ZNK6dealii9Functions23SlitSingularityFunctionILi2EE20vector_gradient_listERKSt6vectorINS_5PointILi2EEESaIS5_EERS3_IS3_INS_6TensorILi1ELi2EEESaISB_EESaISD_EE to i8*), i8* bitcast (double (%"class.dealii::Functions::SlitSingularityFunction"*, %"class.dealii::Point.17"*, i32)* @_ZNK6dealii9Functions23SlitSingularityFunctionILi2EE9laplacianERKNS_5PointILi2EEEj to i8*), i8* bitcast (void (%"class.dealii::Function.14"*, %"class.dealii::Point.17"*, %"class.dealii::Vector"*)* @_ZNK6dealii8FunctionILi2EE16vector_laplacianERKNS_5PointILi2EEERNS_6VectorIdEE to i8*), i8* bitcast (void (%"class.dealii::Functions::SlitSingularityFunction"*, %"class.std::vector.19"*, %"class.std::vector.3"*, i32)* @_ZNK6dealii9Functions23SlitSingularityFunctionILi2EE14laplacian_listERKSt6vectorINS_5PointILi2EEESaIS5_EERS3_IdSaIdEEj to i8*), i8* bitcast (void (%"class.dealii::Function.14"*, %"class.std::vector.19"*, %"class.std::vector.45"*)* @_ZNK6dealii8FunctionILi2EE21vector_laplacian_listERKSt6vectorINS_5PointILi2EEESaIS4_EERS2_INS_6VectorIdEESaISA_EE to i8*)], [4 x i8*] [i8* inttoptr (i64 -16 to i8*), i8* bitcast ({ i8*, i8*, i8* }* @_ZTIN6dealii9Functions23SlitSingularityFunctionILi2EEE to i8*), i8* bitcast (void (%"class.dealii::Functions::SlitSingularityFunction"*)* @_ZThn16_N6dealii9Functions23SlitSingularityFunctionILi2EED1Ev to i8*), i8* bitcast (void (%"class.dealii::Functions::SlitSingularityFunction"*)* @_ZThn16_N6dealii9Functions23SlitSingularityFunctionILi2EED0Ev to i8*)] }, comdat, align 8
@_ZTSN6dealii9Functions23SlitSingularityFunctionILi2EEE = weak_odr dso_local constant [51 x i8] c"N6dealii9Functions23SlitSingularityFunctionILi2EEE\00", comdat, align 1
@_ZTIN6dealii9Functions23SlitSingularityFunctionILi2EEE = weak_odr dso_local constant { i8*, i8*, i8* } { i8* bitcast (i8** getelementptr inbounds (i8*, i8** @_ZTVN10__cxxabiv120__si_class_type_infoE, i64 2) to i8*), i8* getelementptr inbounds ([51 x i8], [51 x i8]* @_ZTSN6dealii9Functions23SlitSingularityFunctionILi2EEE, i32 0, i32 0), i8* bitcast ({ i8*, i8*, i32, i32, i8*, i64, i8*, i64 }* @_ZTIN6dealii8FunctionILi2EEE to i8*) }, comdat, align 8
@_ZTVN6dealii9Functions23SlitSingularityFunctionILi3EEE = weak_odr dso_local unnamed_addr constant { [18 x i8*], [4 x i8*] } { [18 x i8*] [i8* null, i8* bitcast ({ i8*, i8*, i8* }* @_ZTIN6dealii9Functions23SlitSingularityFunctionILi3EEE to i8*), i8* bitcast (void (%"class.dealii::Functions::SlitSingularityFunction.107"*)* @_ZN6dealii9Functions23SlitSingularityFunctionILi3EED2Ev to i8*), i8* bitcast (void (%"class.dealii::Functions::SlitSingularityFunction.107"*)* @_ZN6dealii9Functions23SlitSingularityFunctionILi3EED0Ev to i8*), i8* bitcast (void (%"class.dealii::FunctionTime"*, double)* @_ZN6dealii12FunctionTime8set_timeEd to i8*), i8* bitcast (void (%"class.dealii::FunctionTime"*, double)* @_ZN6dealii12FunctionTime12advance_timeEd to i8*), i8* bitcast (double (%"class.dealii::Functions::SlitSingularityFunction.107"*, %"class.dealii::Point.33"*, i32)* @_ZNK6dealii9Functions23SlitSingularityFunctionILi3EE5valueERKNS_5PointILi3EEEj to i8*), i8* bitcast (void (%"class.dealii::Function.30"*, %"class.dealii::Point.33"*, %"class.dealii::Vector"*)* @_ZNK6dealii8FunctionILi3EE12vector_valueERKNS_5PointILi3EEERNS_6VectorIdEE to i8*), i8* bitcast (void (%"class.dealii::Functions::SlitSingularityFunction.107"*, %"class.std::vector.35"*, %"class.std::vector.3"*, i32)* @_ZNK6dealii9Functions23SlitSingularityFunctionILi3EE10value_listERKSt6vectorINS_5PointILi3EEESaIS5_EERS3_IdSaIdEEj to i8*), i8* bitcast (void (%"class.dealii::Functions::SlitSingularityFunction.107"*, %"class.std::vector.35"*, %"class.std::vector.45"*)* @_ZNK6dealii9Functions23SlitSingularityFunctionILi3EE17vector_value_listERKSt6vectorINS_5PointILi3EEESaIS5_EERS3_INS_6VectorIdEESaISB_EE to i8*), i8* bitcast (void (%"class.dealii::Tensor.34"*, %"class.dealii::Functions::SlitSingularityFunction.107"*, %"class.dealii::Point.33"*, i32)* @_ZNK6dealii9Functions23SlitSingularityFunctionILi3EE8gradientERKNS_5PointILi3EEEj to i8*), i8* bitcast (void (%"class.dealii::Function.30"*, %"class.dealii::Point.33"*, %"class.std::vector.40"*)* @_ZNK6dealii8FunctionILi3EE15vector_gradientERKNS_5PointILi3EEERSt6vectorINS_6TensorILi1ELi3EEESaIS8_EE to i8*), i8* bitcast (void (%"class.dealii::Functions::SlitSingularityFunction.107"*, %"class.std::vector.35"*, %"class.std::vector.40"*, i32)* @_ZNK6dealii9Functions23SlitSingularityFunctionILi3EE13gradient_listERKSt6vectorINS_5PointILi3EEESaIS5_EERS3_INS_6TensorILi1ELi3EEESaISB_EEj to i8*), i8* bitcast (void (%"class.dealii::Functions::SlitSingularityFunction.107"*, %"class.std::vector.35"*, %"class.std::vector.64"*)* @_ZNK6dealii9Functions23SlitSingularityFunctionILi3EE20vector_gradient_listERKSt6vectorINS_5PointILi3EEESaIS5_EERS3_IS3_INS_6TensorILi1ELi3EEESaISB_EESaISD_EE to i8*), i8* bitcast (double (%"class.dealii::Functions::SlitSingularityFunction.107"*, %"class.dealii::Point.33"*, i32)* @_ZNK6dealii9Functions23SlitSingularityFunctionILi3EE9laplacianERKNS_5PointILi3EEEj to i8*), i8* bitcast (void (%"class.dealii::Function.30"*, %"class.dealii::Point.33"*, %"class.dealii::Vector"*)* @_ZNK6dealii8FunctionILi3EE16vector_laplacianERKNS_5PointILi3EEERNS_6VectorIdEE to i8*), i8* bitcast (void (%"class.dealii::Functions::SlitSingularityFunction.107"*, %"class.std::vector.35"*, %"class.std::vector.3"*, i32)* @_ZNK6dealii9Functions23SlitSingularityFunctionILi3EE14laplacian_listERKSt6vectorINS_5PointILi3EEESaIS5_EERS3_IdSaIdEEj to i8*), i8* bitcast (void (%"class.dealii::Function.30"*, %"class.std::vector.35"*, %"class.std::vector.45"*)* @_ZNK6dealii8FunctionILi3EE21vector_laplacian_listERKSt6vectorINS_5PointILi3EEESaIS4_EERS2_INS_6VectorIdEESaISA_EE to i8*)], [4 x i8*] [i8* inttoptr (i64 -16 to i8*), i8* bitcast ({ i8*, i8*, i8* }* @_ZTIN6dealii9Functions23SlitSingularityFunctionILi3EEE to i8*), i8* bitcast (void (%"class.dealii::Functions::SlitSingularityFunction.107"*)* @_ZThn16_N6dealii9Functions23SlitSingularityFunctionILi3EED1Ev to i8*), i8* bitcast (void (%"class.dealii::Functions::SlitSingularityFunction.107"*)* @_ZThn16_N6dealii9Functions23SlitSingularityFunctionILi3EED0Ev to i8*)] }, comdat, align 8
@_ZTSN6dealii9Functions23SlitSingularityFunctionILi3EEE = weak_odr dso_local constant [51 x i8] c"N6dealii9Functions23SlitSingularityFunctionILi3EEE\00", comdat, align 1
@_ZTIN6dealii9Functions23SlitSingularityFunctionILi3EEE = weak_odr dso_local constant { i8*, i8*, i8* } { i8* bitcast (i8** getelementptr inbounds (i8*, i8** @_ZTVN10__cxxabiv120__si_class_type_infoE, i64 2) to i8*), i8* getelementptr inbounds ([51 x i8], [51 x i8]* @_ZTSN6dealii9Functions23SlitSingularityFunctionILi3EEE, i32 0, i32 0), i8* bitcast ({ i8*, i8*, i32, i32, i8*, i64, i8*, i64 }* @_ZTIN6dealii8FunctionILi3EEE to i8*) }, comdat, align 8
@_ZTSN6dealii9Functions8MonomialILi1EEE = weak_odr dso_local constant [35 x i8] c"N6dealii9Functions8MonomialILi1EEE\00", comdat, align 1
@_ZTIN6dealii9Functions8MonomialILi1EEE = weak_odr dso_local constant { i8*, i8*, i8* } { i8* bitcast (i8** getelementptr inbounds (i8*, i8** @_ZTVN10__cxxabiv120__si_class_type_infoE, i64 2) to i8*), i8* getelementptr inbounds ([35 x i8], [35 x i8]* @_ZTSN6dealii9Functions8MonomialILi1EEE, i32 0, i32 0), i8* bitcast ({ i8*, i8*, i32, i32, i8*, i64, i8*, i64 }* @_ZTIN6dealii8FunctionILi1EEE to i8*) }, comdat, align 8
@_ZTSN6dealii9Functions8MonomialILi2EEE = weak_odr dso_local constant [35 x i8] c"N6dealii9Functions8MonomialILi2EEE\00", comdat, align 1
@_ZTIN6dealii9Functions8MonomialILi2EEE = weak_odr dso_local constant { i8*, i8*, i8* } { i8* bitcast (i8** getelementptr inbounds (i8*, i8** @_ZTVN10__cxxabiv120__si_class_type_infoE, i64 2) to i8*), i8* getelementptr inbounds ([35 x i8], [35 x i8]* @_ZTSN6dealii9Functions8MonomialILi2EEE, i32 0, i32 0), i8* bitcast ({ i8*, i8*, i32, i32, i8*, i64, i8*, i64 }* @_ZTIN6dealii8FunctionILi2EEE to i8*) }, comdat, align 8
@_ZTSN6dealii9Functions8MonomialILi3EEE = weak_odr dso_local constant [35 x i8] c"N6dealii9Functions8MonomialILi3EEE\00", comdat, align 1
@_ZTIN6dealii9Functions8MonomialILi3EEE = weak_odr dso_local constant { i8*, i8*, i8* } { i8* bitcast (i8** getelementptr inbounds (i8*, i8** @_ZTVN10__cxxabiv120__si_class_type_infoE, i64 2) to i8*), i8* getelementptr inbounds ([35 x i8], [35 x i8]* @_ZTSN6dealii9Functions8MonomialILi3EEE, i32 0, i32 0), i8* bitcast ({ i8*, i8*, i32, i32, i8*, i64, i8*, i64 }* @_ZTIN6dealii8FunctionILi3EEE to i8*) }, comdat, align 8

@_ZN6dealii9Functions14PillowFunctionILi1EEC1Ed = weak_odr dso_local unnamed_addr alias void (%"class.dealii::Functions::PillowFunction"*, double), void (%"class.dealii::Functions::PillowFunction"*, double)* @_ZN6dealii9Functions14PillowFunctionILi1EEC2Ed
@_ZN6dealii9Functions14PillowFunctionILi2EEC1Ed = weak_odr dso_local unnamed_addr alias void (%"class.dealii::Functions::PillowFunction.69"*, double), void (%"class.dealii::Functions::PillowFunction.69"*, double)* @_ZN6dealii9Functions14PillowFunctionILi2EEC2Ed
@_ZN6dealii9Functions14PillowFunctionILi3EEC1Ed = weak_odr dso_local unnamed_addr alias void (%"class.dealii::Functions::PillowFunction.70"*, double), void (%"class.dealii::Functions::PillowFunction.70"*, double)* @_ZN6dealii9Functions14PillowFunctionILi3EEC2Ed
@_ZN6dealii9Functions12JumpFunctionILi1EEC1ERKNS_5PointILi1EEEd = weak_odr dso_local unnamed_addr alias void (%"class.dealii::Functions::JumpFunction"*, %"class.dealii::Point"*, double), void (%"class.dealii::Functions::JumpFunction"*, %"class.dealii::Point"*, double)* @_ZN6dealii9Functions12JumpFunctionILi1EEC2ERKNS_5PointILi1EEEd
@_ZN6dealii9Functions12JumpFunctionILi2EEC1ERKNS_5PointILi2EEEd = weak_odr dso_local unnamed_addr alias void (%"class.dealii::Functions::JumpFunction.97"*, %"class.dealii::Point.17"*, double), void (%"class.dealii::Functions::JumpFunction.97"*, %"class.dealii::Point.17"*, double)* @_ZN6dealii9Functions12JumpFunctionILi2EEC2ERKNS_5PointILi2EEEd
@_ZN6dealii9Functions12JumpFunctionILi3EEC1ERKNS_5PointILi3EEEd = weak_odr dso_local unnamed_addr alias void (%"class.dealii::Functions::JumpFunction.98"*, %"class.dealii::Point.33"*, double), void (%"class.dealii::Functions::JumpFunction.98"*, %"class.dealii::Point.33"*, double)* @_ZN6dealii9Functions12JumpFunctionILi3EEC2ERKNS_5PointILi3EEEd
@_ZN6dealii9Functions21FourierCosineFunctionILi1EEC1ERKNS_5PointILi1EEE = weak_odr dso_local unnamed_addr alias void (%"class.dealii::Functions::FourierCosineFunction"*, %"class.dealii::Point"*), void (%"class.dealii::Functions::FourierCosineFunction"*, %"class.dealii::Point"*)* @_ZN6dealii9Functions21FourierCosineFunctionILi1EEC2ERKNS_5PointILi1EEE
@_ZN6dealii9Functions21FourierCosineFunctionILi2EEC1ERKNS_5PointILi2EEE = weak_odr dso_local unnamed_addr alias void (%"class.dealii::Functions::FourierCosineFunction.99"*, %"class.dealii::Point.17"*), void (%"class.dealii::Functions::FourierCosineFunction.99"*, %"class.dealii::Point.17"*)* @_ZN6dealii9Functions21FourierCosineFunctionILi2EEC2ERKNS_5PointILi2EEE
@_ZN6dealii9Functions21FourierCosineFunctionILi3EEC1ERKNS_5PointILi3EEE = weak_odr dso_local unnamed_addr alias void (%"class.dealii::Functions::FourierCosineFunction.100"*, %"class.dealii::Point.33"*), void (%"class.dealii::Functions::FourierCosineFunction.100"*, %"class.dealii::Point.33"*)* @_ZN6dealii9Functions21FourierCosineFunctionILi3EEC2ERKNS_5PointILi3EEE
@_ZN6dealii9Functions19FourierSineFunctionILi1EEC1ERKNS_5PointILi1EEE = weak_odr dso_local unnamed_addr alias void (%"class.dealii::Functions::FourierSineFunction"*, %"class.dealii::Point"*), void (%"class.dealii::Functions::FourierSineFunction"*, %"class.dealii::Point"*)* @_ZN6dealii9Functions19FourierSineFunctionILi1EEC2ERKNS_5PointILi1EEE
@_ZN6dealii9Functions19FourierSineFunctionILi2EEC1ERKNS_5PointILi2EEE = weak_odr dso_local unnamed_addr alias void (%"class.dealii::Functions::FourierSineFunction.101"*, %"class.dealii::Point.17"*), void (%"class.dealii::Functions::FourierSineFunction.101"*, %"class.dealii::Point.17"*)* @_ZN6dealii9Functions19FourierSineFunctionILi2EEC2ERKNS_5PointILi2EEE
@_ZN6dealii9Functions19FourierSineFunctionILi3EEC1ERKNS_5PointILi3EEE = weak_odr dso_local unnamed_addr alias void (%"class.dealii::Functions::FourierSineFunction.102"*, %"class.dealii::Point.33"*), void (%"class.dealii::Functions::FourierSineFunction.102"*, %"class.dealii::Point.33"*)* @_ZN6dealii9Functions19FourierSineFunctionILi3EEC2ERKNS_5PointILi3EEE
@_ZN6dealii9Functions16FourierCosineSumILi1EEC1ERKSt6vectorINS_5PointILi1EEESaIS5_EERKS3_IdSaIdEE = weak_odr dso_local unnamed_addr alias void (%"class.dealii::Functions::FourierCosineSum"*, %"class.std::vector"*, %"class.std::vector.3"*), void (%"class.dealii::Functions::FourierCosineSum"*, %"class.std::vector"*, %"class.std::vector.3"*)* @_ZN6dealii9Functions16FourierCosineSumILi1EEC2ERKSt6vectorINS_5PointILi1EEESaIS5_EERKS3_IdSaIdEE
@_ZN6dealii9Functions16FourierCosineSumILi2EEC1ERKSt6vectorINS_5PointILi2EEESaIS5_EERKS3_IdSaIdEE = weak_odr dso_local unnamed_addr alias void (%"class.dealii::Functions::FourierCosineSum.103"*, %"class.std::vector.19"*, %"class.std::vector.3"*), void (%"class.dealii::Functions::FourierCosineSum.103"*, %"class.std::vector.19"*, %"class.std::vector.3"*)* @_ZN6dealii9Functions16FourierCosineSumILi2EEC2ERKSt6vectorINS_5PointILi2EEESaIS5_EERKS3_IdSaIdEE
@_ZN6dealii9Functions16FourierCosineSumILi3EEC1ERKSt6vectorINS_5PointILi3EEESaIS5_EERKS3_IdSaIdEE = weak_odr dso_local unnamed_addr alias void (%"class.dealii::Functions::FourierCosineSum.104"*, %"class.std::vector.35"*, %"class.std::vector.3"*), void (%"class.dealii::Functions::FourierCosineSum.104"*, %"class.std::vector.35"*, %"class.std::vector.3"*)* @_ZN6dealii9Functions16FourierCosineSumILi3EEC2ERKSt6vectorINS_5PointILi3EEESaIS5_EERKS3_IdSaIdEE
@_ZN6dealii9Functions14FourierSineSumILi1EEC1ERKSt6vectorINS_5PointILi1EEESaIS5_EERKS3_IdSaIdEE = weak_odr dso_local unnamed_addr alias void (%"class.dealii::Functions::FourierSineSum"*, %"class.std::vector"*, %"class.std::vector.3"*), void (%"class.dealii::Functions::FourierSineSum"*, %"class.std::vector"*, %"class.std::vector.3"*)* @_ZN6dealii9Functions14FourierSineSumILi1EEC2ERKSt6vectorINS_5PointILi1EEESaIS5_EERKS3_IdSaIdEE
@_ZN6dealii9Functions14FourierSineSumILi2EEC1ERKSt6vectorINS_5PointILi2EEESaIS5_EERKS3_IdSaIdEE = weak_odr dso_local unnamed_addr alias void (%"class.dealii::Functions::FourierSineSum.105"*, %"class.std::vector.19"*, %"class.std::vector.3"*), void (%"class.dealii::Functions::FourierSineSum.105"*, %"class.std::vector.19"*, %"class.std::vector.3"*)* @_ZN6dealii9Functions14FourierSineSumILi2EEC2ERKSt6vectorINS_5PointILi2EEESaIS5_EERKS3_IdSaIdEE
@_ZN6dealii9Functions14FourierSineSumILi3EEC1ERKSt6vectorINS_5PointILi3EEESaIS5_EERKS3_IdSaIdEE = weak_odr dso_local unnamed_addr alias void (%"class.dealii::Functions::FourierSineSum.106"*, %"class.std::vector.35"*, %"class.std::vector.3"*), void (%"class.dealii::Functions::FourierSineSum.106"*, %"class.std::vector.35"*, %"class.std::vector.3"*)* @_ZN6dealii9Functions14FourierSineSumILi3EEC2ERKSt6vectorINS_5PointILi3EEESaIS5_EERKS3_IdSaIdEE
@_ZN6dealii9Functions8MonomialILi1EEC1ERKNS_6TensorILi1ELi1EEEj = weak_odr dso_local unnamed_addr alias void (%"class.dealii::Functions::Monomial"*, %"class.dealii::Tensor"*, i32), void (%"class.dealii::Functions::Monomial"*, %"class.dealii::Tensor"*, i32)* @_ZN6dealii9Functions8MonomialILi1EEC2ERKNS_6TensorILi1ELi1EEEj
@_ZN6dealii9Functions8MonomialILi2EEC1ERKNS_6TensorILi1ELi2EEEj = weak_odr dso_local unnamed_addr alias void (%"class.dealii::Functions::Monomial.109"*, %"class.dealii::Tensor.18"*, i32), void (%"class.dealii::Functions::Monomial.109"*, %"class.dealii::Tensor.18"*, i32)* @_ZN6dealii9Functions8MonomialILi2EEC2ERKNS_6TensorILi1ELi2EEEj
@_ZN6dealii9Functions8MonomialILi3EEC1ERKNS_6TensorILi1ELi3EEEj = weak_odr dso_local unnamed_addr alias void (%"class.dealii::Functions::Monomial.110"*, %"class.dealii::Tensor.34"*, i32), void (%"class.dealii::Functions::Monomial.110"*, %"class.dealii::Tensor.34"*, i32)* @_ZN6dealii9Functions8MonomialILi3EEC2ERKNS_6TensorILi1ELi3EEEj

; Function Attrs: noinline uwtable
define weak_odr dso_local double @_ZNK6dealii9Functions14SquareFunctionILi1EE5valueERKNS_5PointILi1EEEj(%"class.dealii::Functions::SquareFunction"* %this, %"class.dealii::Point"* dereferenceable(8) %p, i32 %0) unnamed_addr #0 comdat align 2 !dbg !8795 {
entry:
  %this.addr = alloca %"class.dealii::Functions::SquareFunction"*, align 8
  %p.addr = alloca %"class.dealii::Point"*, align 8
  %.addr = alloca i32, align 4
  store %"class.dealii::Functions::SquareFunction"* %this, %"class.dealii::Functions::SquareFunction"** %this.addr, align 8
  call void @llvm.dbg.declare(metadata %"class.dealii::Functions::SquareFunction"** %this.addr, metadata !8796, metadata !DIExpression()), !dbg !8798
  store %"class.dealii::Point"* %p, %"class.dealii::Point"** %p.addr, align 8
  call void @llvm.dbg.declare(metadata %"class.dealii::Point"** %p.addr, metadata !8799, metadata !DIExpression()), !dbg !8800
  store i32 %0, i32* %.addr, align 4
  call void @llvm.dbg.declare(metadata i32* %.addr, metadata !8801, metadata !DIExpression()), !dbg !8802
  %this1 = load %"class.dealii::Functions::SquareFunction"*, %"class.dealii::Functions::SquareFunction"** %this.addr, align 8
  %1 = load %"class.dealii::Point"*, %"class.dealii::Point"** %p.addr, align 8, !dbg !8803
  %call = call double @_ZNK6dealii5PointILi1EE6squareEv(%"class.dealii::Point"* %1), !dbg !8804
  ret double %call, !dbg !8805
}

; Function Attrs: nounwind readnone speculatable willreturn
declare void @llvm.dbg.declare(metadata, metadata, metadata) #1

; Function Attrs: noinline nounwind uwtable
define linkonce_odr dso_local double @_ZNK6dealii5PointILi1EE6squareEv(%"class.dealii::Point"* %this) #2 comdat align 2 !dbg !8806 {
entry:
  %this.addr = alloca %"class.dealii::Point"*, align 8
  %q = alloca double, align 8
  %i = alloca i32, align 4
  store %"class.dealii::Point"* %this, %"class.dealii::Point"** %this.addr, align 8
  call void @llvm.dbg.declare(metadata %"class.dealii::Point"** %this.addr, metadata !8807, metadata !DIExpression()), !dbg !8808
  %this1 = load %"class.dealii::Point"*, %"class.dealii::Point"** %this.addr, align 8
  call void @llvm.dbg.declare(metadata double* %q, metadata !8809, metadata !DIExpression()), !dbg !8810
  store double 0.000000e+00, double* %q, align 8, !dbg !8810
  call void @llvm.dbg.declare(metadata i32* %i, metadata !8811, metadata !DIExpression()), !dbg !8813
  store i32 0, i32* %i, align 4, !dbg !8813
  br label %for.cond, !dbg !8814

for.cond:                                         ; preds = %for.inc, %entry
  %0 = load i32, i32* %i, align 4, !dbg !8815
  %cmp = icmp ult i32 %0, 1, !dbg !8817
  br i1 %cmp, label %for.body, label %for.end, !dbg !8818

for.body:                                         ; preds = %for.cond
  %1 = bitcast %"class.dealii::Point"* %this1 to %"class.dealii::Tensor"*, !dbg !8819
  %values = getelementptr inbounds %"class.dealii::Tensor", %"class.dealii::Tensor"* %1, i32 0, i32 0, !dbg !8819
  %2 = load i32, i32* %i, align 4, !dbg !8820
  %idxprom = zext i32 %2 to i64, !dbg !8821
  %arrayidx = getelementptr inbounds [1 x double], [1 x double]* %values, i64 0, i64 %idxprom, !dbg !8821
  %3 = load double, double* %arrayidx, align 8, !dbg !8821
  %4 = bitcast %"class.dealii::Point"* %this1 to %"class.dealii::Tensor"*, !dbg !8822
  %values2 = getelementptr inbounds %"class.dealii::Tensor", %"class.dealii::Tensor"* %4, i32 0, i32 0, !dbg !8822
  %5 = load i32, i32* %i, align 4, !dbg !8823
  %idxprom3 = zext i32 %5 to i64, !dbg !8824
  %arrayidx4 = getelementptr inbounds [1 x double], [1 x double]* %values2, i64 0, i64 %idxprom3, !dbg !8824
  %6 = load double, double* %arrayidx4, align 8, !dbg !8824
  %mul = fmul double %3, %6, !dbg !8825
  %7 = load double, double* %q, align 8, !dbg !8826
  %add = fadd double %7, %mul, !dbg !8826
  store double %add, double* %q, align 8, !dbg !8826
  br label %for.inc, !dbg !8827

for.inc:                                          ; preds = %for.body
  %8 = load i32, i32* %i, align 4, !dbg !8828
  %inc = add i32 %8, 1, !dbg !8828
  store i32 %inc, i32* %i, align 4, !dbg !8828
  br label %for.cond, !dbg !8829, !llvm.loop !8830

for.end:                                          ; preds = %for.cond
  %9 = load double, double* %q, align 8, !dbg !8832
  ret double %9, !dbg !8833
}

; Function Attrs: noinline uwtable
define weak_odr dso_local void @_ZNK6dealii9Functions14SquareFunctionILi1EE10value_listERKSt6vectorINS_5PointILi1EEESaIS5_EERS3_IdSaIdEEj(%"class.dealii::Functions::SquareFunction"* %this, %"class.std::vector"* dereferenceable(24) %points, %"class.std::vector.3"* dereferenceable(24) %values, i32 %0) unnamed_addr #0 comdat align 2 !dbg !8834 {
entry:
  %this.addr = alloca %"class.dealii::Functions::SquareFunction"*, align 8
  %points.addr = alloca %"class.std::vector"*, align 8
  %values.addr = alloca %"class.std::vector.3"*, align 8
  %.addr = alloca i32, align 4
  %i = alloca i32, align 4
  %p = alloca %"class.dealii::Point"*, align 8
  store %"class.dealii::Functions::SquareFunction"* %this, %"class.dealii::Functions::SquareFunction"** %this.addr, align 8
  call void @llvm.dbg.declare(metadata %"class.dealii::Functions::SquareFunction"** %this.addr, metadata !8835, metadata !DIExpression()), !dbg !8836
  store %"class.std::vector"* %points, %"class.std::vector"** %points.addr, align 8
  call void @llvm.dbg.declare(metadata %"class.std::vector"** %points.addr, metadata !8837, metadata !DIExpression()), !dbg !8838
  store %"class.std::vector.3"* %values, %"class.std::vector.3"** %values.addr, align 8
  call void @llvm.dbg.declare(metadata %"class.std::vector.3"** %values.addr, metadata !8839, metadata !DIExpression()), !dbg !8840
  store i32 %0, i32* %.addr, align 4
  call void @llvm.dbg.declare(metadata i32* %.addr, metadata !8841, metadata !DIExpression()), !dbg !8842
  %this1 = load %"class.dealii::Functions::SquareFunction"*, %"class.dealii::Functions::SquareFunction"** %this.addr, align 8
  call void @llvm.dbg.declare(metadata i32* %i, metadata !8843, metadata !DIExpression()), !dbg !8845
  store i32 0, i32* %i, align 4, !dbg !8845
  br label %for.cond, !dbg !8846

for.cond:                                         ; preds = %for.inc, %entry
  %1 = load i32, i32* %i, align 4, !dbg !8847
  %conv = zext i32 %1 to i64, !dbg !8847
  %2 = load %"class.std::vector"*, %"class.std::vector"** %points.addr, align 8, !dbg !8849
  %call = call i64 @_ZNKSt6vectorIN6dealii5PointILi1EEESaIS2_EE4sizeEv(%"class.std::vector"* %2) #11, !dbg !8850
  %cmp = icmp ult i64 %conv, %call, !dbg !8851
  br i1 %cmp, label %for.body, label %for.end, !dbg !8852

for.body:                                         ; preds = %for.cond
  call void @llvm.dbg.declare(metadata %"class.dealii::Point"** %p, metadata !8853, metadata !DIExpression()), !dbg !8855
  %3 = load %"class.std::vector"*, %"class.std::vector"** %points.addr, align 8, !dbg !8856
  %4 = load i32, i32* %i, align 4, !dbg !8857
  %conv2 = zext i32 %4 to i64, !dbg !8857
  %call3 = call dereferenceable(8) %"class.dealii::Point"* @_ZNKSt6vectorIN6dealii5PointILi1EEESaIS2_EEixEm(%"class.std::vector"* %3, i64 %conv2) #11, !dbg !8856
  store %"class.dealii::Point"* %call3, %"class.dealii::Point"** %p, align 8, !dbg !8855
  %5 = load %"class.dealii::Point"*, %"class.dealii::Point"** %p, align 8, !dbg !8858
  %call4 = call double @_ZNK6dealii5PointILi1EE6squareEv(%"class.dealii::Point"* %5), !dbg !8859
  %6 = load %"class.std::vector.3"*, %"class.std::vector.3"** %values.addr, align 8, !dbg !8860
  %7 = load i32, i32* %i, align 4, !dbg !8861
  %conv5 = zext i32 %7 to i64, !dbg !8861
  %call6 = call dereferenceable(8) double* @_ZNSt6vectorIdSaIdEEixEm(%"class.std::vector.3"* %6, i64 %conv5) #11, !dbg !8860
  store double %call4, double* %call6, align 8, !dbg !8862
  br label %for.inc, !dbg !8863

for.inc:                                          ; preds = %for.body
  %8 = load i32, i32* %i, align 4, !dbg !8864
  %inc = add i32 %8, 1, !dbg !8864
  store i32 %inc, i32* %i, align 4, !dbg !8864
  br label %for.cond, !dbg !8865, !llvm.loop !8866

for.end:                                          ; preds = %for.cond
  ret void, !dbg !8868
}

; Function Attrs: noinline nounwind uwtable
define linkonce_odr dso_local i64 @_ZNKSt6vectorIN6dealii5PointILi1EEESaIS2_EE4sizeEv(%"class.std::vector"* %this) #2 comdat align 2 !dbg !8869 {
entry:
  %this.addr = alloca %"class.std::vector"*, align 8
  store %"class.std::vector"* %this, %"class.std::vector"** %this.addr, align 8
  call void @llvm.dbg.declare(metadata %"class.std::vector"** %this.addr, metadata !8870, metadata !DIExpression()), !dbg !8872
  %this1 = load %"class.std::vector"*, %"class.std::vector"** %this.addr, align 8
  %0 = bitcast %"class.std::vector"* %this1 to %"struct.std::_Vector_base"*, !dbg !8873
  %_M_impl = getelementptr inbounds %"struct.std::_Vector_base", %"struct.std::_Vector_base"* %0, i32 0, i32 0, !dbg !8873
  %1 = bitcast %"struct.std::_Vector_base<dealii::Point<1>, std::allocator<dealii::Point<1> > >::_Vector_impl"* %_M_impl to %"struct.std::_Vector_base<dealii::Point<1>, std::allocator<dealii::Point<1> > >::_Vector_impl_data"*, !dbg !8874
  %_M_finish = getelementptr inbounds %"struct.std::_Vector_base<dealii::Point<1>, std::allocator<dealii::Point<1> > >::_Vector_impl_data", %"struct.std::_Vector_base<dealii::Point<1>, std::allocator<dealii::Point<1> > >::_Vector_impl_data"* %1, i32 0, i32 1, !dbg !8875
  %2 = load %"class.dealii::Point"*, %"class.dealii::Point"** %_M_finish, align 8, !dbg !8875
  %3 = bitcast %"class.std::vector"* %this1 to %"struct.std::_Vector_base"*, !dbg !8876
  %_M_impl2 = getelementptr inbounds %"struct.std::_Vector_base", %"struct.std::_Vector_base"* %3, i32 0, i32 0, !dbg !8876
  %4 = bitcast %"struct.std::_Vector_base<dealii::Point<1>, std::allocator<dealii::Point<1> > >::_Vector_impl"* %_M_impl2 to %"struct.std::_Vector_base<dealii::Point<1>, std::allocator<dealii::Point<1> > >::_Vector_impl_data"*, !dbg !8877
  %_M_start = getelementptr inbounds %"struct.std::_Vector_base<dealii::Point<1>, std::allocator<dealii::Point<1> > >::_Vector_impl_data", %"struct.std::_Vector_base<dealii::Point<1>, std::allocator<dealii::Point<1> > >::_Vector_impl_data"* %4, i32 0, i32 0, !dbg !8878
  %5 = load %"class.dealii::Point"*, %"class.dealii::Point"** %_M_start, align 8, !dbg !8878
  %sub.ptr.lhs.cast = ptrtoint %"class.dealii::Point"* %2 to i64, !dbg !8879
  %sub.ptr.rhs.cast = ptrtoint %"class.dealii::Point"* %5 to i64, !dbg !8879
  %sub.ptr.sub = sub i64 %sub.ptr.lhs.cast, %sub.ptr.rhs.cast, !dbg !8879
  %sub.ptr.div = sdiv exact i64 %sub.ptr.sub, 8, !dbg !8879
  ret i64 %sub.ptr.div, !dbg !8880
}

; Function Attrs: noinline nounwind uwtable
define linkonce_odr dso_local dereferenceable(8) %"class.dealii::Point"* @_ZNKSt6vectorIN6dealii5PointILi1EEESaIS2_EEixEm(%"class.std::vector"* %this, i64 %__n) #2 comdat align 2 !dbg !8881 {
entry:
  %this.addr = alloca %"class.std::vector"*, align 8
  %__n.addr = alloca i64, align 8
  store %"class.std::vector"* %this, %"class.std::vector"** %this.addr, align 8
  call void @llvm.dbg.declare(metadata %"class.std::vector"** %this.addr, metadata !8882, metadata !DIExpression()), !dbg !8883
  store i64 %__n, i64* %__n.addr, align 8
  call void @llvm.dbg.declare(metadata i64* %__n.addr, metadata !8884, metadata !DIExpression()), !dbg !8885
  %this1 = load %"class.std::vector"*, %"class.std::vector"** %this.addr, align 8
  %0 = bitcast %"class.std::vector"* %this1 to %"struct.std::_Vector_base"*, !dbg !8886
  %_M_impl = getelementptr inbounds %"struct.std::_Vector_base", %"struct.std::_Vector_base"* %0, i32 0, i32 0, !dbg !8886
  %1 = bitcast %"struct.std::_Vector_base<dealii::Point<1>, std::allocator<dealii::Point<1> > >::_Vector_impl"* %_M_impl to %"struct.std::_Vector_base<dealii::Point<1>, std::allocator<dealii::Point<1> > >::_Vector_impl_data"*, !dbg !8887
  %_M_start = getelementptr inbounds %"struct.std::_Vector_base<dealii::Point<1>, std::allocator<dealii::Point<1> > >::_Vector_impl_data", %"struct.std::_Vector_base<dealii::Point<1>, std::allocator<dealii::Point<1> > >::_Vector_impl_data"* %1, i32 0, i32 0, !dbg !8888
  %2 = load %"class.dealii::Point"*, %"class.dealii::Point"** %_M_start, align 8, !dbg !8888
  %3 = load i64, i64* %__n.addr, align 8, !dbg !8889
  %add.ptr = getelementptr inbounds %"class.dealii::Point", %"class.dealii::Point"* %2, i64 %3, !dbg !8890
  ret %"class.dealii::Point"* %add.ptr, !dbg !8891
}

; Function Attrs: noinline nounwind uwtable
define linkonce_odr dso_local dereferenceable(8) double* @_ZNSt6vectorIdSaIdEEixEm(%"class.std::vector.3"* %this, i64 %__n) #2 comdat align 2 !dbg !8892 {
entry:
  %this.addr = alloca %"class.std::vector.3"*, align 8
  %__n.addr = alloca i64, align 8
  store %"class.std::vector.3"* %this, %"class.std::vector.3"** %this.addr, align 8
  call void @llvm.dbg.declare(metadata %"class.std::vector.3"** %this.addr, metadata !8893, metadata !DIExpression()), !dbg !8895
  store i64 %__n, i64* %__n.addr, align 8
  call void @llvm.dbg.declare(metadata i64* %__n.addr, metadata !8896, metadata !DIExpression()), !dbg !8897
  %this1 = load %"class.std::vector.3"*, %"class.std::vector.3"** %this.addr, align 8
  %0 = bitcast %"class.std::vector.3"* %this1 to %"struct.std::_Vector_base.4"*, !dbg !8898
  %_M_impl = getelementptr inbounds %"struct.std::_Vector_base.4", %"struct.std::_Vector_base.4"* %0, i32 0, i32 0, !dbg !8898
  %1 = bitcast %"struct.std::_Vector_base<double, std::allocator<double> >::_Vector_impl"* %_M_impl to %"struct.std::_Vector_base<double, std::allocator<double> >::_Vector_impl_data"*, !dbg !8899
  %_M_start = getelementptr inbounds %"struct.std::_Vector_base<double, std::allocator<double> >::_Vector_impl_data", %"struct.std::_Vector_base<double, std::allocator<double> >::_Vector_impl_data"* %1, i32 0, i32 0, !dbg !8900
  %2 = load double*, double** %_M_start, align 8, !dbg !8900
  %3 = load i64, i64* %__n.addr, align 8, !dbg !8901
  %add.ptr = getelementptr inbounds double, double* %2, i64 %3, !dbg !8902
  ret double* %add.ptr, !dbg !8903
}

; Function Attrs: noinline uwtable
define weak_odr dso_local void @_ZNK6dealii9Functions14SquareFunctionILi1EE8gradientERKNS_5PointILi1EEEj(%"class.dealii::Tensor"* noalias sret %agg.result, %"class.dealii::Functions::SquareFunction"* %this, %"class.dealii::Point"* dereferenceable(8) %p, i32 %0) unnamed_addr #0 comdat align 2 !dbg !8904 {
entry:
  %result.ptr = alloca i8*, align 8
  %this.addr = alloca %"class.dealii::Functions::SquareFunction"*, align 8
  %p.addr = alloca %"class.dealii::Point"*, align 8
  %.addr = alloca i32, align 4
  %ref.tmp = alloca %"class.dealii::Point", align 8
  %1 = bitcast %"class.dealii::Tensor"* %agg.result to i8*
  store i8* %1, i8** %result.ptr, align 8
  store %"class.dealii::Functions::SquareFunction"* %this, %"class.dealii::Functions::SquareFunction"** %this.addr, align 8
  call void @llvm.dbg.declare(metadata %"class.dealii::Functions::SquareFunction"** %this.addr, metadata !8905, metadata !DIExpression()), !dbg !8906
  store %"class.dealii::Point"* %p, %"class.dealii::Point"** %p.addr, align 8
  call void @llvm.dbg.declare(metadata %"class.dealii::Point"** %p.addr, metadata !8907, metadata !DIExpression()), !dbg !8908
  store i32 %0, i32* %.addr, align 4
  call void @llvm.dbg.declare(metadata i32* %.addr, metadata !8909, metadata !DIExpression()), !dbg !8910
  %this1 = load %"class.dealii::Functions::SquareFunction"*, %"class.dealii::Functions::SquareFunction"** %this.addr, align 8
  %2 = load %"class.dealii::Point"*, %"class.dealii::Point"** %p.addr, align 8, !dbg !8911
  call void @_ZNK6dealii5PointILi1EEmlEd(%"class.dealii::Point"* sret %ref.tmp, %"class.dealii::Point"* %2, double 2.000000e+00), !dbg !8912
  %3 = bitcast %"class.dealii::Point"* %ref.tmp to %"class.dealii::Tensor"*, !dbg !8911
  call void @_ZN6dealii6TensorILi1ELi1EEC2ERKS1_(%"class.dealii::Tensor"* %agg.result, %"class.dealii::Tensor"* dereferenceable(8) %3), !dbg !8911
  ret void, !dbg !8913
}

; Function Attrs: noinline uwtable
define linkonce_odr dso_local void @_ZNK6dealii5PointILi1EEmlEd(%"class.dealii::Point"* noalias sret %agg.result, %"class.dealii::Point"* %this, double %factor) #0 comdat align 2 !dbg !8914 {
entry:
  %result.ptr = alloca i8*, align 8
  %this.addr = alloca %"class.dealii::Point"*, align 8
  %factor.addr = alloca double, align 8
  %ref.tmp = alloca %"class.dealii::Point", align 8
  %0 = bitcast %"class.dealii::Point"* %agg.result to i8*
  store i8* %0, i8** %result.ptr, align 8
  store %"class.dealii::Point"* %this, %"class.dealii::Point"** %this.addr, align 8
  call void @llvm.dbg.declare(metadata %"class.dealii::Point"** %this.addr, metadata !8915, metadata !DIExpression()), !dbg !8916
  store double %factor, double* %factor.addr, align 8
  call void @llvm.dbg.declare(metadata double* %factor.addr, metadata !8917, metadata !DIExpression()), !dbg !8918
  %this1 = load %"class.dealii::Point"*, %"class.dealii::Point"** %this.addr, align 8
  %1 = load double, double* %factor.addr, align 8, !dbg !8919
  call void @_ZN6dealii5PointILi1EEC2ERKS1_(%"class.dealii::Point"* %ref.tmp, %"class.dealii::Point"* dereferenceable(8) %this1), !dbg !8920
  %2 = bitcast %"class.dealii::Point"* %ref.tmp to %"class.dealii::Tensor"*, !dbg !8920
  %call = call dereferenceable(8) %"class.dealii::Tensor"* @_ZN6dealii6TensorILi1ELi1EEmLEd(%"class.dealii::Tensor"* %2, double %1), !dbg !8921
  call void @_ZN6dealii5PointILi1EEC2ERKNS_6TensorILi1ELi1EEE(%"class.dealii::Point"* %agg.result, %"class.dealii::Tensor"* dereferenceable(8) %call), !dbg !8922
  ret void, !dbg !8923
}

; Function Attrs: noinline nounwind uwtable
define linkonce_odr dso_local void @_ZN6dealii6TensorILi1ELi1EEC2ERKS1_(%"class.dealii::Tensor"* %this, %"class.dealii::Tensor"* dereferenceable(8) %p) unnamed_addr #2 comdat align 2 !dbg !8924 {
entry:
  %this.addr = alloca %"class.dealii::Tensor"*, align 8
  %p.addr = alloca %"class.dealii::Tensor"*, align 8
  %i = alloca i32, align 4
  store %"class.dealii::Tensor"* %this, %"class.dealii::Tensor"** %this.addr, align 8
  call void @llvm.dbg.declare(metadata %"class.dealii::Tensor"** %this.addr, metadata !8925, metadata !DIExpression()), !dbg !8926
  store %"class.dealii::Tensor"* %p, %"class.dealii::Tensor"** %p.addr, align 8
  call void @llvm.dbg.declare(metadata %"class.dealii::Tensor"** %p.addr, metadata !8927, metadata !DIExpression()), !dbg !8928
  %this1 = load %"class.dealii::Tensor"*, %"class.dealii::Tensor"** %this.addr, align 8
  call void @llvm.dbg.declare(metadata i32* %i, metadata !8929, metadata !DIExpression()), !dbg !8932
  store i32 0, i32* %i, align 4, !dbg !8932
  br label %for.cond, !dbg !8933

for.cond:                                         ; preds = %for.inc, %entry
  %0 = load i32, i32* %i, align 4, !dbg !8934
  %cmp = icmp ult i32 %0, 1, !dbg !8936
  br i1 %cmp, label %for.body, label %for.end, !dbg !8937

for.body:                                         ; preds = %for.cond
  %1 = load %"class.dealii::Tensor"*, %"class.dealii::Tensor"** %p.addr, align 8, !dbg !8938
  %values = getelementptr inbounds %"class.dealii::Tensor", %"class.dealii::Tensor"* %1, i32 0, i32 0, !dbg !8939
  %2 = load i32, i32* %i, align 4, !dbg !8940
  %idxprom = zext i32 %2 to i64, !dbg !8938
  %arrayidx = getelementptr inbounds [1 x double], [1 x double]* %values, i64 0, i64 %idxprom, !dbg !8938
  %3 = load double, double* %arrayidx, align 8, !dbg !8938
  %values2 = getelementptr inbounds %"class.dealii::Tensor", %"class.dealii::Tensor"* %this1, i32 0, i32 0, !dbg !8941
  %4 = load i32, i32* %i, align 4, !dbg !8942
  %idxprom3 = zext i32 %4 to i64, !dbg !8941
  %arrayidx4 = getelementptr inbounds [1 x double], [1 x double]* %values2, i64 0, i64 %idxprom3, !dbg !8941
  store double %3, double* %arrayidx4, align 8, !dbg !8943
  br label %for.inc, !dbg !8941

for.inc:                                          ; preds = %for.body
  %5 = load i32, i32* %i, align 4, !dbg !8944
  %inc = add i32 %5, 1, !dbg !8944
  store i32 %inc, i32* %i, align 4, !dbg !8944
  br label %for.cond, !dbg !8945, !llvm.loop !8946

for.end:                                          ; preds = %for.cond
  ret void, !dbg !8948
}

; Function Attrs: noinline uwtable
define weak_odr dso_local void @_ZNK6dealii9Functions14SquareFunctionILi1EE13gradient_listERKSt6vectorINS_5PointILi1EEESaIS5_EERS3_INS_6TensorILi1ELi1EEESaISB_EEj(%"class.dealii::Functions::SquareFunction"* %this, %"class.std::vector"* dereferenceable(24) %points, %"class.std::vector.8"* dereferenceable(24) %gradients, i32 %0) unnamed_addr #0 comdat align 2 !dbg !8949 {
entry:
  %this.addr = alloca %"class.dealii::Functions::SquareFunction"*, align 8
  %points.addr = alloca %"class.std::vector"*, align 8
  %gradients.addr = alloca %"class.std::vector.8"*, align 8
  %.addr = alloca i32, align 4
  %i = alloca i32, align 4
  %ref.tmp = alloca %"class.dealii::Point", align 8
  store %"class.dealii::Functions::SquareFunction"* %this, %"class.dealii::Functions::SquareFunction"** %this.addr, align 8
  call void @llvm.dbg.declare(metadata %"class.dealii::Functions::SquareFunction"** %this.addr, metadata !8950, metadata !DIExpression()), !dbg !8951
  store %"class.std::vector"* %points, %"class.std::vector"** %points.addr, align 8
  call void @llvm.dbg.declare(metadata %"class.std::vector"** %points.addr, metadata !8952, metadata !DIExpression()), !dbg !8953
  store %"class.std::vector.8"* %gradients, %"class.std::vector.8"** %gradients.addr, align 8
  call void @llvm.dbg.declare(metadata %"class.std::vector.8"** %gradients.addr, metadata !8954, metadata !DIExpression()), !dbg !8955
  store i32 %0, i32* %.addr, align 4
  call void @llvm.dbg.declare(metadata i32* %.addr, metadata !8956, metadata !DIExpression()), !dbg !8957
  %this1 = load %"class.dealii::Functions::SquareFunction"*, %"class.dealii::Functions::SquareFunction"** %this.addr, align 8
  call void @llvm.dbg.declare(metadata i32* %i, metadata !8958, metadata !DIExpression()), !dbg !8960
  store i32 0, i32* %i, align 4, !dbg !8960
  br label %for.cond, !dbg !8961

for.cond:                                         ; preds = %for.inc, %entry
  %1 = load i32, i32* %i, align 4, !dbg !8962
  %conv = zext i32 %1 to i64, !dbg !8962
  %2 = load %"class.std::vector"*, %"class.std::vector"** %points.addr, align 8, !dbg !8964
  %call = call i64 @_ZNKSt6vectorIN6dealii5PointILi1EEESaIS2_EE4sizeEv(%"class.std::vector"* %2) #11, !dbg !8965
  %cmp = icmp ult i64 %conv, %call, !dbg !8966
  br i1 %cmp, label %for.body, label %for.end, !dbg !8967

for.body:                                         ; preds = %for.cond
  %3 = load %"class.std::vector"*, %"class.std::vector"** %points.addr, align 8, !dbg !8968
  %4 = load i32, i32* %i, align 4, !dbg !8969
  %conv2 = zext i32 %4 to i64, !dbg !8969
  %call3 = call dereferenceable(8) %"class.dealii::Point"* @_ZNKSt6vectorIN6dealii5PointILi1EEESaIS2_EEixEm(%"class.std::vector"* %3, i64 %conv2) #11, !dbg !8968
  call void @_ZNK6dealii5PointILi1EEmlEd(%"class.dealii::Point"* sret %ref.tmp, %"class.dealii::Point"* %call3, double 2.000000e+00), !dbg !8970
  %5 = bitcast %"class.dealii::Point"* %ref.tmp to %"class.dealii::Tensor"*, !dbg !8968
  %6 = load %"class.std::vector.8"*, %"class.std::vector.8"** %gradients.addr, align 8, !dbg !8971
  %7 = load i32, i32* %i, align 4, !dbg !8972
  %conv4 = zext i32 %7 to i64, !dbg !8972
  %call5 = call dereferenceable(8) %"class.dealii::Tensor"* @_ZNSt6vectorIN6dealii6TensorILi1ELi1EEESaIS2_EEixEm(%"class.std::vector.8"* %6, i64 %conv4) #11, !dbg !8971
  %call6 = call dereferenceable(8) %"class.dealii::Tensor"* @_ZN6dealii6TensorILi1ELi1EEaSERKS1_(%"class.dealii::Tensor"* %call5, %"class.dealii::Tensor"* dereferenceable(8) %5), !dbg !8973
  br label %for.inc, !dbg !8971

for.inc:                                          ; preds = %for.body
  %8 = load i32, i32* %i, align 4, !dbg !8974
  %inc = add i32 %8, 1, !dbg !8974
  store i32 %inc, i32* %i, align 4, !dbg !8974
  br label %for.cond, !dbg !8975, !llvm.loop !8976

for.end:                                          ; preds = %for.cond
  ret void, !dbg !8978
}

; Function Attrs: noinline nounwind uwtable
define linkonce_odr dso_local dereferenceable(8) %"class.dealii::Tensor"* @_ZNSt6vectorIN6dealii6TensorILi1ELi1EEESaIS2_EEixEm(%"class.std::vector.8"* %this, i64 %__n) #2 comdat align 2 !dbg !8979 {
entry:
  %this.addr = alloca %"class.std::vector.8"*, align 8
  %__n.addr = alloca i64, align 8
  store %"class.std::vector.8"* %this, %"class.std::vector.8"** %this.addr, align 8
  call void @llvm.dbg.declare(metadata %"class.std::vector.8"** %this.addr, metadata !8980, metadata !DIExpression()), !dbg !8981
  store i64 %__n, i64* %__n.addr, align 8
  call void @llvm.dbg.declare(metadata i64* %__n.addr, metadata !8982, metadata !DIExpression()), !dbg !8983
  %this1 = load %"class.std::vector.8"*, %"class.std::vector.8"** %this.addr, align 8
  %0 = bitcast %"class.std::vector.8"* %this1 to %"struct.std::_Vector_base.9"*, !dbg !8984
  %_M_impl = getelementptr inbounds %"struct.std::_Vector_base.9", %"struct.std::_Vector_base.9"* %0, i32 0, i32 0, !dbg !8984
  %1 = bitcast %"struct.std::_Vector_base<dealii::Tensor<1, 1>, std::allocator<dealii::Tensor<1, 1> > >::_Vector_impl"* %_M_impl to %"struct.std::_Vector_base<dealii::Tensor<1, 1>, std::allocator<dealii::Tensor<1, 1> > >::_Vector_impl_data"*, !dbg !8985
  %_M_start = getelementptr inbounds %"struct.std::_Vector_base<dealii::Tensor<1, 1>, std::allocator<dealii::Tensor<1, 1> > >::_Vector_impl_data", %"struct.std::_Vector_base<dealii::Tensor<1, 1>, std::allocator<dealii::Tensor<1, 1> > >::_Vector_impl_data"* %1, i32 0, i32 0, !dbg !8986
  %2 = load %"class.dealii::Tensor"*, %"class.dealii::Tensor"** %_M_start, align 8, !dbg !8986
  %3 = load i64, i64* %__n.addr, align 8, !dbg !8987
  %add.ptr = getelementptr inbounds %"class.dealii::Tensor", %"class.dealii::Tensor"* %2, i64 %3, !dbg !8988
  ret %"class.dealii::Tensor"* %add.ptr, !dbg !8989
}

; Function Attrs: noinline nounwind uwtable
define linkonce_odr dso_local dereferenceable(8) %"class.dealii::Tensor"* @_ZN6dealii6TensorILi1ELi1EEaSERKS1_(%"class.dealii::Tensor"* %this, %"class.dealii::Tensor"* dereferenceable(8) %p) #2 comdat align 2 !dbg !8990 {
entry:
  %this.addr = alloca %"class.dealii::Tensor"*, align 8
  %p.addr = alloca %"class.dealii::Tensor"*, align 8
  store %"class.dealii::Tensor"* %this, %"class.dealii::Tensor"** %this.addr, align 8
  call void @llvm.dbg.declare(metadata %"class.dealii::Tensor"** %this.addr, metadata !8991, metadata !DIExpression()), !dbg !8992
  store %"class.dealii::Tensor"* %p, %"class.dealii::Tensor"** %p.addr, align 8
  call void @llvm.dbg.declare(metadata %"class.dealii::Tensor"** %p.addr, metadata !8993, metadata !DIExpression()), !dbg !8994
  %this1 = load %"class.dealii::Tensor"*, %"class.dealii::Tensor"** %this.addr, align 8
  %0 = load %"class.dealii::Tensor"*, %"class.dealii::Tensor"** %p.addr, align 8, !dbg !8995
  %values = getelementptr inbounds %"class.dealii::Tensor", %"class.dealii::Tensor"* %0, i32 0, i32 0, !dbg !8996
  %arrayidx = getelementptr inbounds [1 x double], [1 x double]* %values, i64 0, i64 0, !dbg !8995
  %1 = load double, double* %arrayidx, align 8, !dbg !8995
  %values2 = getelementptr inbounds %"class.dealii::Tensor", %"class.dealii::Tensor"* %this1, i32 0, i32 0, !dbg !8997
  %arrayidx3 = getelementptr inbounds [1 x double], [1 x double]* %values2, i64 0, i64 0, !dbg !8997
  store double %1, double* %arrayidx3, align 8, !dbg !8998
  ret %"class.dealii::Tensor"* %this1, !dbg !8999
}

; Function Attrs: noinline nounwind uwtable
define weak_odr dso_local double @_ZNK6dealii9Functions14SquareFunctionILi1EE9laplacianERKNS_5PointILi1EEEj(%"class.dealii::Functions::SquareFunction"* %this, %"class.dealii::Point"* dereferenceable(8) %0, i32 %1) unnamed_addr #2 comdat align 2 !dbg !9000 {
entry:
  %this.addr = alloca %"class.dealii::Functions::SquareFunction"*, align 8
  %.addr = alloca %"class.dealii::Point"*, align 8
  %.addr1 = alloca i32, align 4
  store %"class.dealii::Functions::SquareFunction"* %this, %"class.dealii::Functions::SquareFunction"** %this.addr, align 8
  call void @llvm.dbg.declare(metadata %"class.dealii::Functions::SquareFunction"** %this.addr, metadata !9001, metadata !DIExpression()), !dbg !9002
  store %"class.dealii::Point"* %0, %"class.dealii::Point"** %.addr, align 8
  call void @llvm.dbg.declare(metadata %"class.dealii::Point"** %.addr, metadata !9003, metadata !DIExpression()), !dbg !9004
  store i32 %1, i32* %.addr1, align 4
  call void @llvm.dbg.declare(metadata i32* %.addr1, metadata !9005, metadata !DIExpression()), !dbg !9006
  %this2 = load %"class.dealii::Functions::SquareFunction"*, %"class.dealii::Functions::SquareFunction"** %this.addr, align 8
  ret double 2.000000e+00, !dbg !9007
}

; Function Attrs: noinline nounwind uwtable
define weak_odr dso_local void @_ZNK6dealii9Functions14SquareFunctionILi1EE14laplacian_listERKSt6vectorINS_5PointILi1EEESaIS5_EERS3_IdSaIdEEj(%"class.dealii::Functions::SquareFunction"* %this, %"class.std::vector"* dereferenceable(24) %points, %"class.std::vector.3"* dereferenceable(24) %values, i32 %0) unnamed_addr #2 comdat align 2 !dbg !9008 {
entry:
  %this.addr = alloca %"class.dealii::Functions::SquareFunction"*, align 8
  %points.addr = alloca %"class.std::vector"*, align 8
  %values.addr = alloca %"class.std::vector.3"*, align 8
  %.addr = alloca i32, align 4
  %i = alloca i32, align 4
  store %"class.dealii::Functions::SquareFunction"* %this, %"class.dealii::Functions::SquareFunction"** %this.addr, align 8
  call void @llvm.dbg.declare(metadata %"class.dealii::Functions::SquareFunction"** %this.addr, metadata !9009, metadata !DIExpression()), !dbg !9010
  store %"class.std::vector"* %points, %"class.std::vector"** %points.addr, align 8
  call void @llvm.dbg.declare(metadata %"class.std::vector"** %points.addr, metadata !9011, metadata !DIExpression()), !dbg !9012
  store %"class.std::vector.3"* %values, %"class.std::vector.3"** %values.addr, align 8
  call void @llvm.dbg.declare(metadata %"class.std::vector.3"** %values.addr, metadata !9013, metadata !DIExpression()), !dbg !9014
  store i32 %0, i32* %.addr, align 4
  call void @llvm.dbg.declare(metadata i32* %.addr, metadata !9015, metadata !DIExpression()), !dbg !9016
  %this1 = load %"class.dealii::Functions::SquareFunction"*, %"class.dealii::Functions::SquareFunction"** %this.addr, align 8
  call void @llvm.dbg.declare(metadata i32* %i, metadata !9017, metadata !DIExpression()), !dbg !9019
  store i32 0, i32* %i, align 4, !dbg !9019
  br label %for.cond, !dbg !9020

for.cond:                                         ; preds = %for.inc, %entry
  %1 = load i32, i32* %i, align 4, !dbg !9021
  %conv = zext i32 %1 to i64, !dbg !9021
  %2 = load %"class.std::vector"*, %"class.std::vector"** %points.addr, align 8, !dbg !9023
  %call = call i64 @_ZNKSt6vectorIN6dealii5PointILi1EEESaIS2_EE4sizeEv(%"class.std::vector"* %2) #11, !dbg !9024
  %cmp = icmp ult i64 %conv, %call, !dbg !9025
  br i1 %cmp, label %for.body, label %for.end, !dbg !9026

for.body:                                         ; preds = %for.cond
  %3 = load %"class.std::vector.3"*, %"class.std::vector.3"** %values.addr, align 8, !dbg !9027
  %4 = load i32, i32* %i, align 4, !dbg !9028
  %conv2 = zext i32 %4 to i64, !dbg !9028
  %call3 = call dereferenceable(8) double* @_ZNSt6vectorIdSaIdEEixEm(%"class.std::vector.3"* %3, i64 %conv2) #11, !dbg !9027
  store double 2.000000e+00, double* %call3, align 8, !dbg !9029
  br label %for.inc, !dbg !9027

for.inc:                                          ; preds = %for.body
  %5 = load i32, i32* %i, align 4, !dbg !9030
  %inc = add i32 %5, 1, !dbg !9030
  store i32 %inc, i32* %i, align 4, !dbg !9030
  br label %for.cond, !dbg !9031, !llvm.loop !9032

for.end:                                          ; preds = %for.cond
  ret void, !dbg !9034
}

; Function Attrs: noinline uwtable
define weak_odr dso_local double @_ZNK6dealii9Functions14SquareFunctionILi2EE5valueERKNS_5PointILi2EEEj(%"class.dealii::Functions::SquareFunction.13"* %this, %"class.dealii::Point.17"* dereferenceable(16) %p, i32 %0) unnamed_addr #0 comdat align 2 !dbg !9035 {
entry:
  %this.addr = alloca %"class.dealii::Functions::SquareFunction.13"*, align 8
  %p.addr = alloca %"class.dealii::Point.17"*, align 8
  %.addr = alloca i32, align 4
  store %"class.dealii::Functions::SquareFunction.13"* %this, %"class.dealii::Functions::SquareFunction.13"** %this.addr, align 8
  call void @llvm.dbg.declare(metadata %"class.dealii::Functions::SquareFunction.13"** %this.addr, metadata !9036, metadata !DIExpression()), !dbg !9038
  store %"class.dealii::Point.17"* %p, %"class.dealii::Point.17"** %p.addr, align 8
  call void @llvm.dbg.declare(metadata %"class.dealii::Point.17"** %p.addr, metadata !9039, metadata !DIExpression()), !dbg !9040
  store i32 %0, i32* %.addr, align 4
  call void @llvm.dbg.declare(metadata i32* %.addr, metadata !9041, metadata !DIExpression()), !dbg !9042
  %this1 = load %"class.dealii::Functions::SquareFunction.13"*, %"class.dealii::Functions::SquareFunction.13"** %this.addr, align 8
  %1 = load %"class.dealii::Point.17"*, %"class.dealii::Point.17"** %p.addr, align 8, !dbg !9043
  %call = call double @_ZNK6dealii5PointILi2EE6squareEv(%"class.dealii::Point.17"* %1), !dbg !9044
  ret double %call, !dbg !9045
}

; Function Attrs: noinline nounwind uwtable
define linkonce_odr dso_local double @_ZNK6dealii5PointILi2EE6squareEv(%"class.dealii::Point.17"* %this) #2 comdat align 2 !dbg !9046 {
entry:
  %this.addr = alloca %"class.dealii::Point.17"*, align 8
  %q = alloca double, align 8
  %i = alloca i32, align 4
  store %"class.dealii::Point.17"* %this, %"class.dealii::Point.17"** %this.addr, align 8
  call void @llvm.dbg.declare(metadata %"class.dealii::Point.17"** %this.addr, metadata !9047, metadata !DIExpression()), !dbg !9048
  %this1 = load %"class.dealii::Point.17"*, %"class.dealii::Point.17"** %this.addr, align 8
  call void @llvm.dbg.declare(metadata double* %q, metadata !9049, metadata !DIExpression()), !dbg !9050
  store double 0.000000e+00, double* %q, align 8, !dbg !9050
  call void @llvm.dbg.declare(metadata i32* %i, metadata !9051, metadata !DIExpression()), !dbg !9053
  store i32 0, i32* %i, align 4, !dbg !9053
  br label %for.cond, !dbg !9054

for.cond:                                         ; preds = %for.inc, %entry
  %0 = load i32, i32* %i, align 4, !dbg !9055
  %cmp = icmp ult i32 %0, 2, !dbg !9057
  br i1 %cmp, label %for.body, label %for.end, !dbg !9058

for.body:                                         ; preds = %for.cond
  %1 = bitcast %"class.dealii::Point.17"* %this1 to %"class.dealii::Tensor.18"*, !dbg !9059
  %values = getelementptr inbounds %"class.dealii::Tensor.18", %"class.dealii::Tensor.18"* %1, i32 0, i32 0, !dbg !9059
  %2 = load i32, i32* %i, align 4, !dbg !9060
  %idxprom = zext i32 %2 to i64, !dbg !9061
  %arrayidx = getelementptr inbounds [2 x double], [2 x double]* %values, i64 0, i64 %idxprom, !dbg !9061
  %3 = load double, double* %arrayidx, align 8, !dbg !9061
  %4 = bitcast %"class.dealii::Point.17"* %this1 to %"class.dealii::Tensor.18"*, !dbg !9062
  %values2 = getelementptr inbounds %"class.dealii::Tensor.18", %"class.dealii::Tensor.18"* %4, i32 0, i32 0, !dbg !9062
  %5 = load i32, i32* %i, align 4, !dbg !9063
  %idxprom3 = zext i32 %5 to i64, !dbg !9064
  %arrayidx4 = getelementptr inbounds [2 x double], [2 x double]* %values2, i64 0, i64 %idxprom3, !dbg !9064
  %6 = load double, double* %arrayidx4, align 8, !dbg !9064
  %mul = fmul double %3, %6, !dbg !9065
  %7 = load double, double* %q, align 8, !dbg !9066
  %add = fadd double %7, %mul, !dbg !9066
  store double %add, double* %q, align 8, !dbg !9066
  br label %for.inc, !dbg !9067

for.inc:                                          ; preds = %for.body
  %8 = load i32, i32* %i, align 4, !dbg !9068
  %inc = add i32 %8, 1, !dbg !9068
  store i32 %inc, i32* %i, align 4, !dbg !9068
  br label %for.cond, !dbg !9069, !llvm.loop !9070

for.end:                                          ; preds = %for.cond
  %9 = load double, double* %q, align 8, !dbg !9072
  ret double %9, !dbg !9073
}

; Function Attrs: noinline uwtable
define weak_odr dso_local void @_ZNK6dealii9Functions14SquareFunctionILi2EE10value_listERKSt6vectorINS_5PointILi2EEESaIS5_EERS3_IdSaIdEEj(%"class.dealii::Functions::SquareFunction.13"* %this, %"class.std::vector.19"* dereferenceable(24) %points, %"class.std::vector.3"* dereferenceable(24) %values, i32 %0) unnamed_addr #0 comdat align 2 !dbg !9074 {
entry:
  %this.addr = alloca %"class.dealii::Functions::SquareFunction.13"*, align 8
  %points.addr = alloca %"class.std::vector.19"*, align 8
  %values.addr = alloca %"class.std::vector.3"*, align 8
  %.addr = alloca i32, align 4
  %i = alloca i32, align 4
  %p = alloca %"class.dealii::Point.17"*, align 8
  store %"class.dealii::Functions::SquareFunction.13"* %this, %"class.dealii::Functions::SquareFunction.13"** %this.addr, align 8
  call void @llvm.dbg.declare(metadata %"class.dealii::Functions::SquareFunction.13"** %this.addr, metadata !9075, metadata !DIExpression()), !dbg !9076
  store %"class.std::vector.19"* %points, %"class.std::vector.19"** %points.addr, align 8
  call void @llvm.dbg.declare(metadata %"class.std::vector.19"** %points.addr, metadata !9077, metadata !DIExpression()), !dbg !9078
  store %"class.std::vector.3"* %values, %"class.std::vector.3"** %values.addr, align 8
  call void @llvm.dbg.declare(metadata %"class.std::vector.3"** %values.addr, metadata !9079, metadata !DIExpression()), !dbg !9080
  store i32 %0, i32* %.addr, align 4
  call void @llvm.dbg.declare(metadata i32* %.addr, metadata !9081, metadata !DIExpression()), !dbg !9082
  %this1 = load %"class.dealii::Functions::SquareFunction.13"*, %"class.dealii::Functions::SquareFunction.13"** %this.addr, align 8
  call void @llvm.dbg.declare(metadata i32* %i, metadata !9083, metadata !DIExpression()), !dbg !9085
  store i32 0, i32* %i, align 4, !dbg !9085
  br label %for.cond, !dbg !9086

for.cond:                                         ; preds = %for.inc, %entry
  %1 = load i32, i32* %i, align 4, !dbg !9087
  %conv = zext i32 %1 to i64, !dbg !9087
  %2 = load %"class.std::vector.19"*, %"class.std::vector.19"** %points.addr, align 8, !dbg !9089
  %call = call i64 @_ZNKSt6vectorIN6dealii5PointILi2EEESaIS2_EE4sizeEv(%"class.std::vector.19"* %2) #11, !dbg !9090
  %cmp = icmp ult i64 %conv, %call, !dbg !9091
  br i1 %cmp, label %for.body, label %for.end, !dbg !9092

for.body:                                         ; preds = %for.cond
  call void @llvm.dbg.declare(metadata %"class.dealii::Point.17"** %p, metadata !9093, metadata !DIExpression()), !dbg !9095
  %3 = load %"class.std::vector.19"*, %"class.std::vector.19"** %points.addr, align 8, !dbg !9096
  %4 = load i32, i32* %i, align 4, !dbg !9097
  %conv2 = zext i32 %4 to i64, !dbg !9097
  %call3 = call dereferenceable(16) %"class.dealii::Point.17"* @_ZNKSt6vectorIN6dealii5PointILi2EEESaIS2_EEixEm(%"class.std::vector.19"* %3, i64 %conv2) #11, !dbg !9096
  store %"class.dealii::Point.17"* %call3, %"class.dealii::Point.17"** %p, align 8, !dbg !9095
  %5 = load %"class.dealii::Point.17"*, %"class.dealii::Point.17"** %p, align 8, !dbg !9098
  %call4 = call double @_ZNK6dealii5PointILi2EE6squareEv(%"class.dealii::Point.17"* %5), !dbg !9099
  %6 = load %"class.std::vector.3"*, %"class.std::vector.3"** %values.addr, align 8, !dbg !9100
  %7 = load i32, i32* %i, align 4, !dbg !9101
  %conv5 = zext i32 %7 to i64, !dbg !9101
  %call6 = call dereferenceable(8) double* @_ZNSt6vectorIdSaIdEEixEm(%"class.std::vector.3"* %6, i64 %conv5) #11, !dbg !9100
  store double %call4, double* %call6, align 8, !dbg !9102
  br label %for.inc, !dbg !9103

for.inc:                                          ; preds = %for.body
  %8 = load i32, i32* %i, align 4, !dbg !9104
  %inc = add i32 %8, 1, !dbg !9104
  store i32 %inc, i32* %i, align 4, !dbg !9104
  br label %for.cond, !dbg !9105, !llvm.loop !9106

for.end:                                          ; preds = %for.cond
  ret void, !dbg !9108
}

; Function Attrs: noinline nounwind uwtable
define linkonce_odr dso_local i64 @_ZNKSt6vectorIN6dealii5PointILi2EEESaIS2_EE4sizeEv(%"class.std::vector.19"* %this) #2 comdat align 2 !dbg !9109 {
entry:
  %this.addr = alloca %"class.std::vector.19"*, align 8
  store %"class.std::vector.19"* %this, %"class.std::vector.19"** %this.addr, align 8
  call void @llvm.dbg.declare(metadata %"class.std::vector.19"** %this.addr, metadata !9110, metadata !DIExpression()), !dbg !9112
  %this1 = load %"class.std::vector.19"*, %"class.std::vector.19"** %this.addr, align 8
  %0 = bitcast %"class.std::vector.19"* %this1 to %"struct.std::_Vector_base.20"*, !dbg !9113
  %_M_impl = getelementptr inbounds %"struct.std::_Vector_base.20", %"struct.std::_Vector_base.20"* %0, i32 0, i32 0, !dbg !9113
  %1 = bitcast %"struct.std::_Vector_base<dealii::Point<2>, std::allocator<dealii::Point<2> > >::_Vector_impl"* %_M_impl to %"struct.std::_Vector_base<dealii::Point<2>, std::allocator<dealii::Point<2> > >::_Vector_impl_data"*, !dbg !9114
  %_M_finish = getelementptr inbounds %"struct.std::_Vector_base<dealii::Point<2>, std::allocator<dealii::Point<2> > >::_Vector_impl_data", %"struct.std::_Vector_base<dealii::Point<2>, std::allocator<dealii::Point<2> > >::_Vector_impl_data"* %1, i32 0, i32 1, !dbg !9115
  %2 = load %"class.dealii::Point.17"*, %"class.dealii::Point.17"** %_M_finish, align 8, !dbg !9115
  %3 = bitcast %"class.std::vector.19"* %this1 to %"struct.std::_Vector_base.20"*, !dbg !9116
  %_M_impl2 = getelementptr inbounds %"struct.std::_Vector_base.20", %"struct.std::_Vector_base.20"* %3, i32 0, i32 0, !dbg !9116
  %4 = bitcast %"struct.std::_Vector_base<dealii::Point<2>, std::allocator<dealii::Point<2> > >::_Vector_impl"* %_M_impl2 to %"struct.std::_Vector_base<dealii::Point<2>, std::allocator<dealii::Point<2> > >::_Vector_impl_data"*, !dbg !9117
  %_M_start = getelementptr inbounds %"struct.std::_Vector_base<dealii::Point<2>, std::allocator<dealii::Point<2> > >::_Vector_impl_data", %"struct.std::_Vector_base<dealii::Point<2>, std::allocator<dealii::Point<2> > >::_Vector_impl_data"* %4, i32 0, i32 0, !dbg !9118
  %5 = load %"class.dealii::Point.17"*, %"class.dealii::Point.17"** %_M_start, align 8, !dbg !9118
  %sub.ptr.lhs.cast = ptrtoint %"class.dealii::Point.17"* %2 to i64, !dbg !9119
  %sub.ptr.rhs.cast = ptrtoint %"class.dealii::Point.17"* %5 to i64, !dbg !9119
  %sub.ptr.sub = sub i64 %sub.ptr.lhs.cast, %sub.ptr.rhs.cast, !dbg !9119
  %sub.ptr.div = sdiv exact i64 %sub.ptr.sub, 16, !dbg !9119
  ret i64 %sub.ptr.div, !dbg !9120
}

; Function Attrs: noinline nounwind uwtable
define linkonce_odr dso_local dereferenceable(16) %"class.dealii::Point.17"* @_ZNKSt6vectorIN6dealii5PointILi2EEESaIS2_EEixEm(%"class.std::vector.19"* %this, i64 %__n) #2 comdat align 2 !dbg !9121 {
entry:
  %this.addr = alloca %"class.std::vector.19"*, align 8
  %__n.addr = alloca i64, align 8
  store %"class.std::vector.19"* %this, %"class.std::vector.19"** %this.addr, align 8
  call void @llvm.dbg.declare(metadata %"class.std::vector.19"** %this.addr, metadata !9122, metadata !DIExpression()), !dbg !9123
  store i64 %__n, i64* %__n.addr, align 8
  call void @llvm.dbg.declare(metadata i64* %__n.addr, metadata !9124, metadata !DIExpression()), !dbg !9125
  %this1 = load %"class.std::vector.19"*, %"class.std::vector.19"** %this.addr, align 8
  %0 = bitcast %"class.std::vector.19"* %this1 to %"struct.std::_Vector_base.20"*, !dbg !9126
  %_M_impl = getelementptr inbounds %"struct.std::_Vector_base.20", %"struct.std::_Vector_base.20"* %0, i32 0, i32 0, !dbg !9126
  %1 = bitcast %"struct.std::_Vector_base<dealii::Point<2>, std::allocator<dealii::Point<2> > >::_Vector_impl"* %_M_impl to %"struct.std::_Vector_base<dealii::Point<2>, std::allocator<dealii::Point<2> > >::_Vector_impl_data"*, !dbg !9127
  %_M_start = getelementptr inbounds %"struct.std::_Vector_base<dealii::Point<2>, std::allocator<dealii::Point<2> > >::_Vector_impl_data", %"struct.std::_Vector_base<dealii::Point<2>, std::allocator<dealii::Point<2> > >::_Vector_impl_data"* %1, i32 0, i32 0, !dbg !9128
  %2 = load %"class.dealii::Point.17"*, %"class.dealii::Point.17"** %_M_start, align 8, !dbg !9128
  %3 = load i64, i64* %__n.addr, align 8, !dbg !9129
  %add.ptr = getelementptr inbounds %"class.dealii::Point.17", %"class.dealii::Point.17"* %2, i64 %3, !dbg !9130
  ret %"class.dealii::Point.17"* %add.ptr, !dbg !9131
}

; Function Attrs: noinline uwtable
define weak_odr dso_local void @_ZNK6dealii9Functions14SquareFunctionILi2EE8gradientERKNS_5PointILi2EEEj(%"class.dealii::Tensor.18"* noalias sret %agg.result, %"class.dealii::Functions::SquareFunction.13"* %this, %"class.dealii::Point.17"* dereferenceable(16) %p, i32 %0) unnamed_addr #0 comdat align 2 !dbg !9132 {
entry:
  %result.ptr = alloca i8*, align 8
  %this.addr = alloca %"class.dealii::Functions::SquareFunction.13"*, align 8
  %p.addr = alloca %"class.dealii::Point.17"*, align 8
  %.addr = alloca i32, align 4
  %ref.tmp = alloca %"class.dealii::Point.17", align 8
  %1 = bitcast %"class.dealii::Tensor.18"* %agg.result to i8*
  store i8* %1, i8** %result.ptr, align 8
  store %"class.dealii::Functions::SquareFunction.13"* %this, %"class.dealii::Functions::SquareFunction.13"** %this.addr, align 8
  call void @llvm.dbg.declare(metadata %"class.dealii::Functions::SquareFunction.13"** %this.addr, metadata !9133, metadata !DIExpression()), !dbg !9134
  store %"class.dealii::Point.17"* %p, %"class.dealii::Point.17"** %p.addr, align 8
  call void @llvm.dbg.declare(metadata %"class.dealii::Point.17"** %p.addr, metadata !9135, metadata !DIExpression()), !dbg !9136
  store i32 %0, i32* %.addr, align 4
  call void @llvm.dbg.declare(metadata i32* %.addr, metadata !9137, metadata !DIExpression()), !dbg !9138
  %this1 = load %"class.dealii::Functions::SquareFunction.13"*, %"class.dealii::Functions::SquareFunction.13"** %this.addr, align 8
  %2 = load %"class.dealii::Point.17"*, %"class.dealii::Point.17"** %p.addr, align 8, !dbg !9139
  call void @_ZNK6dealii5PointILi2EEmlEd(%"class.dealii::Point.17"* sret %ref.tmp, %"class.dealii::Point.17"* %2, double 2.000000e+00), !dbg !9140
  %3 = bitcast %"class.dealii::Point.17"* %ref.tmp to %"class.dealii::Tensor.18"*, !dbg !9139
  call void @_ZN6dealii6TensorILi1ELi2EEC2ERKS1_(%"class.dealii::Tensor.18"* %agg.result, %"class.dealii::Tensor.18"* dereferenceable(16) %3), !dbg !9139
  ret void, !dbg !9141
}

; Function Attrs: noinline uwtable
define linkonce_odr dso_local void @_ZNK6dealii5PointILi2EEmlEd(%"class.dealii::Point.17"* noalias sret %agg.result, %"class.dealii::Point.17"* %this, double %factor) #0 comdat align 2 !dbg !9142 {
entry:
  %result.ptr = alloca i8*, align 8
  %this.addr = alloca %"class.dealii::Point.17"*, align 8
  %factor.addr = alloca double, align 8
  %ref.tmp = alloca %"class.dealii::Point.17", align 8
  %0 = bitcast %"class.dealii::Point.17"* %agg.result to i8*
  store i8* %0, i8** %result.ptr, align 8
  store %"class.dealii::Point.17"* %this, %"class.dealii::Point.17"** %this.addr, align 8
  call void @llvm.dbg.declare(metadata %"class.dealii::Point.17"** %this.addr, metadata !9143, metadata !DIExpression()), !dbg !9144
  store double %factor, double* %factor.addr, align 8
  call void @llvm.dbg.declare(metadata double* %factor.addr, metadata !9145, metadata !DIExpression()), !dbg !9146
  %this1 = load %"class.dealii::Point.17"*, %"class.dealii::Point.17"** %this.addr, align 8
  %1 = load double, double* %factor.addr, align 8, !dbg !9147
  call void @_ZN6dealii5PointILi2EEC2ERKS1_(%"class.dealii::Point.17"* %ref.tmp, %"class.dealii::Point.17"* dereferenceable(16) %this1), !dbg !9148
  %2 = bitcast %"class.dealii::Point.17"* %ref.tmp to %"class.dealii::Tensor.18"*, !dbg !9148
  %call = call dereferenceable(16) %"class.dealii::Tensor.18"* @_ZN6dealii6TensorILi1ELi2EEmLEd(%"class.dealii::Tensor.18"* %2, double %1), !dbg !9149
  call void @_ZN6dealii5PointILi2EEC2ERKNS_6TensorILi1ELi2EEE(%"class.dealii::Point.17"* %agg.result, %"class.dealii::Tensor.18"* dereferenceable(16) %call), !dbg !9150
  ret void, !dbg !9151
}

; Function Attrs: noinline nounwind uwtable
define linkonce_odr dso_local void @_ZN6dealii6TensorILi1ELi2EEC2ERKS1_(%"class.dealii::Tensor.18"* %this, %"class.dealii::Tensor.18"* dereferenceable(16) %p) unnamed_addr #2 comdat align 2 !dbg !9152 {
entry:
  %this.addr = alloca %"class.dealii::Tensor.18"*, align 8
  %p.addr = alloca %"class.dealii::Tensor.18"*, align 8
  %i = alloca i32, align 4
  store %"class.dealii::Tensor.18"* %this, %"class.dealii::Tensor.18"** %this.addr, align 8
  call void @llvm.dbg.declare(metadata %"class.dealii::Tensor.18"** %this.addr, metadata !9153, metadata !DIExpression()), !dbg !9154
  store %"class.dealii::Tensor.18"* %p, %"class.dealii::Tensor.18"** %p.addr, align 8
  call void @llvm.dbg.declare(metadata %"class.dealii::Tensor.18"** %p.addr, metadata !9155, metadata !DIExpression()), !dbg !9156
  %this1 = load %"class.dealii::Tensor.18"*, %"class.dealii::Tensor.18"** %this.addr, align 8
  call void @llvm.dbg.declare(metadata i32* %i, metadata !9157, metadata !DIExpression()), !dbg !9160
  store i32 0, i32* %i, align 4, !dbg !9160
  br label %for.cond, !dbg !9161

for.cond:                                         ; preds = %for.inc, %entry
  %0 = load i32, i32* %i, align 4, !dbg !9162
  %cmp = icmp ult i32 %0, 2, !dbg !9164
  br i1 %cmp, label %for.body, label %for.end, !dbg !9165

for.body:                                         ; preds = %for.cond
  %1 = load %"class.dealii::Tensor.18"*, %"class.dealii::Tensor.18"** %p.addr, align 8, !dbg !9166
  %values = getelementptr inbounds %"class.dealii::Tensor.18", %"class.dealii::Tensor.18"* %1, i32 0, i32 0, !dbg !9167
  %2 = load i32, i32* %i, align 4, !dbg !9168
  %idxprom = zext i32 %2 to i64, !dbg !9166
  %arrayidx = getelementptr inbounds [2 x double], [2 x double]* %values, i64 0, i64 %idxprom, !dbg !9166
  %3 = load double, double* %arrayidx, align 8, !dbg !9166
  %values2 = getelementptr inbounds %"class.dealii::Tensor.18", %"class.dealii::Tensor.18"* %this1, i32 0, i32 0, !dbg !9169
  %4 = load i32, i32* %i, align 4, !dbg !9170
  %idxprom3 = zext i32 %4 to i64, !dbg !9169
  %arrayidx4 = getelementptr inbounds [2 x double], [2 x double]* %values2, i64 0, i64 %idxprom3, !dbg !9169
  store double %3, double* %arrayidx4, align 8, !dbg !9171
  br label %for.inc, !dbg !9169

for.inc:                                          ; preds = %for.body
  %5 = load i32, i32* %i, align 4, !dbg !9172
  %inc = add i32 %5, 1, !dbg !9172
  store i32 %inc, i32* %i, align 4, !dbg !9172
  br label %for.cond, !dbg !9173, !llvm.loop !9174

for.end:                                          ; preds = %for.cond
  ret void, !dbg !9176
}

; Function Attrs: noinline uwtable
define weak_odr dso_local void @_ZNK6dealii9Functions14SquareFunctionILi2EE13gradient_listERKSt6vectorINS_5PointILi2EEESaIS5_EERS3_INS_6TensorILi1ELi2EEESaISB_EEj(%"class.dealii::Functions::SquareFunction.13"* %this, %"class.std::vector.19"* dereferenceable(24) %points, %"class.std::vector.24"* dereferenceable(24) %gradients, i32 %0) unnamed_addr #0 comdat align 2 !dbg !9177 {
entry:
  %this.addr = alloca %"class.dealii::Functions::SquareFunction.13"*, align 8
  %points.addr = alloca %"class.std::vector.19"*, align 8
  %gradients.addr = alloca %"class.std::vector.24"*, align 8
  %.addr = alloca i32, align 4
  %i = alloca i32, align 4
  %ref.tmp = alloca %"class.dealii::Point.17", align 8
  store %"class.dealii::Functions::SquareFunction.13"* %this, %"class.dealii::Functions::SquareFunction.13"** %this.addr, align 8
  call void @llvm.dbg.declare(metadata %"class.dealii::Functions::SquareFunction.13"** %this.addr, metadata !9178, metadata !DIExpression()), !dbg !9179
  store %"class.std::vector.19"* %points, %"class.std::vector.19"** %points.addr, align 8
  call void @llvm.dbg.declare(metadata %"class.std::vector.19"** %points.addr, metadata !9180, metadata !DIExpression()), !dbg !9181
  store %"class.std::vector.24"* %gradients, %"class.std::vector.24"** %gradients.addr, align 8
  call void @llvm.dbg.declare(metadata %"class.std::vector.24"** %gradients.addr, metadata !9182, metadata !DIExpression()), !dbg !9183
  store i32 %0, i32* %.addr, align 4
  call void @llvm.dbg.declare(metadata i32* %.addr, metadata !9184, metadata !DIExpression()), !dbg !9185
  %this1 = load %"class.dealii::Functions::SquareFunction.13"*, %"class.dealii::Functions::SquareFunction.13"** %this.addr, align 8
  call void @llvm.dbg.declare(metadata i32* %i, metadata !9186, metadata !DIExpression()), !dbg !9188
  store i32 0, i32* %i, align 4, !dbg !9188
  br label %for.cond, !dbg !9189

for.cond:                                         ; preds = %for.inc, %entry
  %1 = load i32, i32* %i, align 4, !dbg !9190
  %conv = zext i32 %1 to i64, !dbg !9190
  %2 = load %"class.std::vector.19"*, %"class.std::vector.19"** %points.addr, align 8, !dbg !9192
  %call = call i64 @_ZNKSt6vectorIN6dealii5PointILi2EEESaIS2_EE4sizeEv(%"class.std::vector.19"* %2) #11, !dbg !9193
  %cmp = icmp ult i64 %conv, %call, !dbg !9194
  br i1 %cmp, label %for.body, label %for.end, !dbg !9195

for.body:                                         ; preds = %for.cond
  %3 = load %"class.std::vector.19"*, %"class.std::vector.19"** %points.addr, align 8, !dbg !9196
  %4 = load i32, i32* %i, align 4, !dbg !9197
  %conv2 = zext i32 %4 to i64, !dbg !9197
  %call3 = call dereferenceable(16) %"class.dealii::Point.17"* @_ZNKSt6vectorIN6dealii5PointILi2EEESaIS2_EEixEm(%"class.std::vector.19"* %3, i64 %conv2) #11, !dbg !9196
  call void @_ZNK6dealii5PointILi2EEmlEd(%"class.dealii::Point.17"* sret %ref.tmp, %"class.dealii::Point.17"* %call3, double 2.000000e+00), !dbg !9198
  %5 = bitcast %"class.dealii::Point.17"* %ref.tmp to %"class.dealii::Tensor.18"*, !dbg !9196
  %6 = load %"class.std::vector.24"*, %"class.std::vector.24"** %gradients.addr, align 8, !dbg !9199
  %7 = load i32, i32* %i, align 4, !dbg !9200
  %conv4 = zext i32 %7 to i64, !dbg !9200
  %call5 = call dereferenceable(16) %"class.dealii::Tensor.18"* @_ZNSt6vectorIN6dealii6TensorILi1ELi2EEESaIS2_EEixEm(%"class.std::vector.24"* %6, i64 %conv4) #11, !dbg !9199
  %call6 = call dereferenceable(16) %"class.dealii::Tensor.18"* @_ZN6dealii6TensorILi1ELi2EEaSERKS1_(%"class.dealii::Tensor.18"* %call5, %"class.dealii::Tensor.18"* dereferenceable(16) %5), !dbg !9201
  br label %for.inc, !dbg !9199

for.inc:                                          ; preds = %for.body
  %8 = load i32, i32* %i, align 4, !dbg !9202
  %inc = add i32 %8, 1, !dbg !9202
  store i32 %inc, i32* %i, align 4, !dbg !9202
  br label %for.cond, !dbg !9203, !llvm.loop !9204

for.end:                                          ; preds = %for.cond
  ret void, !dbg !9206
}

; Function Attrs: noinline nounwind uwtable
define linkonce_odr dso_local dereferenceable(16) %"class.dealii::Tensor.18"* @_ZNSt6vectorIN6dealii6TensorILi1ELi2EEESaIS2_EEixEm(%"class.std::vector.24"* %this, i64 %__n) #2 comdat align 2 !dbg !9207 {
entry:
  %this.addr = alloca %"class.std::vector.24"*, align 8
  %__n.addr = alloca i64, align 8
  store %"class.std::vector.24"* %this, %"class.std::vector.24"** %this.addr, align 8
  call void @llvm.dbg.declare(metadata %"class.std::vector.24"** %this.addr, metadata !9208, metadata !DIExpression()), !dbg !9209
  store i64 %__n, i64* %__n.addr, align 8
  call void @llvm.dbg.declare(metadata i64* %__n.addr, metadata !9210, metadata !DIExpression()), !dbg !9211
  %this1 = load %"class.std::vector.24"*, %"class.std::vector.24"** %this.addr, align 8
  %0 = bitcast %"class.std::vector.24"* %this1 to %"struct.std::_Vector_base.25"*, !dbg !9212
  %_M_impl = getelementptr inbounds %"struct.std::_Vector_base.25", %"struct.std::_Vector_base.25"* %0, i32 0, i32 0, !dbg !9212
  %1 = bitcast %"struct.std::_Vector_base<dealii::Tensor<1, 2>, std::allocator<dealii::Tensor<1, 2> > >::_Vector_impl"* %_M_impl to %"struct.std::_Vector_base<dealii::Tensor<1, 2>, std::allocator<dealii::Tensor<1, 2> > >::_Vector_impl_data"*, !dbg !9213
  %_M_start = getelementptr inbounds %"struct.std::_Vector_base<dealii::Tensor<1, 2>, std::allocator<dealii::Tensor<1, 2> > >::_Vector_impl_data", %"struct.std::_Vector_base<dealii::Tensor<1, 2>, std::allocator<dealii::Tensor<1, 2> > >::_Vector_impl_data"* %1, i32 0, i32 0, !dbg !9214
  %2 = load %"class.dealii::Tensor.18"*, %"class.dealii::Tensor.18"** %_M_start, align 8, !dbg !9214
  %3 = load i64, i64* %__n.addr, align 8, !dbg !9215
  %add.ptr = getelementptr inbounds %"class.dealii::Tensor.18", %"class.dealii::Tensor.18"* %2, i64 %3, !dbg !9216
  ret %"class.dealii::Tensor.18"* %add.ptr, !dbg !9217
}

; Function Attrs: noinline nounwind uwtable
define linkonce_odr dso_local dereferenceable(16) %"class.dealii::Tensor.18"* @_ZN6dealii6TensorILi1ELi2EEaSERKS1_(%"class.dealii::Tensor.18"* %this, %"class.dealii::Tensor.18"* dereferenceable(16) %p) #2 comdat align 2 !dbg !9218 {
entry:
  %this.addr = alloca %"class.dealii::Tensor.18"*, align 8
  %p.addr = alloca %"class.dealii::Tensor.18"*, align 8
  store %"class.dealii::Tensor.18"* %this, %"class.dealii::Tensor.18"** %this.addr, align 8
  call void @llvm.dbg.declare(metadata %"class.dealii::Tensor.18"** %this.addr, metadata !9219, metadata !DIExpression()), !dbg !9220
  store %"class.dealii::Tensor.18"* %p, %"class.dealii::Tensor.18"** %p.addr, align 8
  call void @llvm.dbg.declare(metadata %"class.dealii::Tensor.18"** %p.addr, metadata !9221, metadata !DIExpression()), !dbg !9222
  %this1 = load %"class.dealii::Tensor.18"*, %"class.dealii::Tensor.18"** %this.addr, align 8
  %0 = load %"class.dealii::Tensor.18"*, %"class.dealii::Tensor.18"** %p.addr, align 8, !dbg !9223
  %values = getelementptr inbounds %"class.dealii::Tensor.18", %"class.dealii::Tensor.18"* %0, i32 0, i32 0, !dbg !9224
  %arrayidx = getelementptr inbounds [2 x double], [2 x double]* %values, i64 0, i64 0, !dbg !9223
  %1 = load double, double* %arrayidx, align 8, !dbg !9223
  %values2 = getelementptr inbounds %"class.dealii::Tensor.18", %"class.dealii::Tensor.18"* %this1, i32 0, i32 0, !dbg !9225
  %arrayidx3 = getelementptr inbounds [2 x double], [2 x double]* %values2, i64 0, i64 0, !dbg !9225
  store double %1, double* %arrayidx3, align 8, !dbg !9226
  %2 = load %"class.dealii::Tensor.18"*, %"class.dealii::Tensor.18"** %p.addr, align 8, !dbg !9227
  %values4 = getelementptr inbounds %"class.dealii::Tensor.18", %"class.dealii::Tensor.18"* %2, i32 0, i32 0, !dbg !9228
  %arrayidx5 = getelementptr inbounds [2 x double], [2 x double]* %values4, i64 0, i64 1, !dbg !9227
  %3 = load double, double* %arrayidx5, align 8, !dbg !9227
  %values6 = getelementptr inbounds %"class.dealii::Tensor.18", %"class.dealii::Tensor.18"* %this1, i32 0, i32 0, !dbg !9229
  %arrayidx7 = getelementptr inbounds [2 x double], [2 x double]* %values6, i64 0, i64 1, !dbg !9229
  store double %3, double* %arrayidx7, align 8, !dbg !9230
  ret %"class.dealii::Tensor.18"* %this1, !dbg !9231
}

; Function Attrs: noinline nounwind uwtable
define weak_odr dso_local double @_ZNK6dealii9Functions14SquareFunctionILi2EE9laplacianERKNS_5PointILi2EEEj(%"class.dealii::Functions::SquareFunction.13"* %this, %"class.dealii::Point.17"* dereferenceable(16) %0, i32 %1) unnamed_addr #2 comdat align 2 !dbg !9232 {
entry:
  %this.addr = alloca %"class.dealii::Functions::SquareFunction.13"*, align 8
  %.addr = alloca %"class.dealii::Point.17"*, align 8
  %.addr1 = alloca i32, align 4
  store %"class.dealii::Functions::SquareFunction.13"* %this, %"class.dealii::Functions::SquareFunction.13"** %this.addr, align 8
  call void @llvm.dbg.declare(metadata %"class.dealii::Functions::SquareFunction.13"** %this.addr, metadata !9233, metadata !DIExpression()), !dbg !9234
  store %"class.dealii::Point.17"* %0, %"class.dealii::Point.17"** %.addr, align 8
  call void @llvm.dbg.declare(metadata %"class.dealii::Point.17"** %.addr, metadata !9235, metadata !DIExpression()), !dbg !9236
  store i32 %1, i32* %.addr1, align 4
  call void @llvm.dbg.declare(metadata i32* %.addr1, metadata !9237, metadata !DIExpression()), !dbg !9238
  %this2 = load %"class.dealii::Functions::SquareFunction.13"*, %"class.dealii::Functions::SquareFunction.13"** %this.addr, align 8
  ret double 4.000000e+00, !dbg !9239
}

; Function Attrs: noinline nounwind uwtable
define weak_odr dso_local void @_ZNK6dealii9Functions14SquareFunctionILi2EE14laplacian_listERKSt6vectorINS_5PointILi2EEESaIS5_EERS3_IdSaIdEEj(%"class.dealii::Functions::SquareFunction.13"* %this, %"class.std::vector.19"* dereferenceable(24) %points, %"class.std::vector.3"* dereferenceable(24) %values, i32 %0) unnamed_addr #2 comdat align 2 !dbg !9240 {
entry:
  %this.addr = alloca %"class.dealii::Functions::SquareFunction.13"*, align 8
  %points.addr = alloca %"class.std::vector.19"*, align 8
  %values.addr = alloca %"class.std::vector.3"*, align 8
  %.addr = alloca i32, align 4
  %i = alloca i32, align 4
  store %"class.dealii::Functions::SquareFunction.13"* %this, %"class.dealii::Functions::SquareFunction.13"** %this.addr, align 8
  call void @llvm.dbg.declare(metadata %"class.dealii::Functions::SquareFunction.13"** %this.addr, metadata !9241, metadata !DIExpression()), !dbg !9242
  store %"class.std::vector.19"* %points, %"class.std::vector.19"** %points.addr, align 8
  call void @llvm.dbg.declare(metadata %"class.std::vector.19"** %points.addr, metadata !9243, metadata !DIExpression()), !dbg !9244
  store %"class.std::vector.3"* %values, %"class.std::vector.3"** %values.addr, align 8
  call void @llvm.dbg.declare(metadata %"class.std::vector.3"** %values.addr, metadata !9245, metadata !DIExpression()), !dbg !9246
  store i32 %0, i32* %.addr, align 4
  call void @llvm.dbg.declare(metadata i32* %.addr, metadata !9247, metadata !DIExpression()), !dbg !9248
  %this1 = load %"class.dealii::Functions::SquareFunction.13"*, %"class.dealii::Functions::SquareFunction.13"** %this.addr, align 8
  call void @llvm.dbg.declare(metadata i32* %i, metadata !9249, metadata !DIExpression()), !dbg !9251
  store i32 0, i32* %i, align 4, !dbg !9251
  br label %for.cond, !dbg !9252

for.cond:                                         ; preds = %for.inc, %entry
  %1 = load i32, i32* %i, align 4, !dbg !9253
  %conv = zext i32 %1 to i64, !dbg !9253
  %2 = load %"class.std::vector.19"*, %"class.std::vector.19"** %points.addr, align 8, !dbg !9255
  %call = call i64 @_ZNKSt6vectorIN6dealii5PointILi2EEESaIS2_EE4sizeEv(%"class.std::vector.19"* %2) #11, !dbg !9256
  %cmp = icmp ult i64 %conv, %call, !dbg !9257
  br i1 %cmp, label %for.body, label %for.end, !dbg !9258

for.body:                                         ; preds = %for.cond
  %3 = load %"class.std::vector.3"*, %"class.std::vector.3"** %values.addr, align 8, !dbg !9259
  %4 = load i32, i32* %i, align 4, !dbg !9260
  %conv2 = zext i32 %4 to i64, !dbg !9260
  %call3 = call dereferenceable(8) double* @_ZNSt6vectorIdSaIdEEixEm(%"class.std::vector.3"* %3, i64 %conv2) #11, !dbg !9259
  store double 4.000000e+00, double* %call3, align 8, !dbg !9261
  br label %for.inc, !dbg !9259

for.inc:                                          ; preds = %for.body
  %5 = load i32, i32* %i, align 4, !dbg !9262
  %inc = add i32 %5, 1, !dbg !9262
  store i32 %inc, i32* %i, align 4, !dbg !9262
  br label %for.cond, !dbg !9263, !llvm.loop !9264

for.end:                                          ; preds = %for.cond
  ret void, !dbg !9266
}

; Function Attrs: noinline uwtable
define weak_odr dso_local double @_ZNK6dealii9Functions14SquareFunctionILi3EE5valueERKNS_5PointILi3EEEj(%"class.dealii::Functions::SquareFunction.29"* %this, %"class.dealii::Point.33"* dereferenceable(24) %p, i32 %0) unnamed_addr #0 comdat align 2 !dbg !9267 {
entry:
  %this.addr = alloca %"class.dealii::Functions::SquareFunction.29"*, align 8
  %p.addr = alloca %"class.dealii::Point.33"*, align 8
  %.addr = alloca i32, align 4
  store %"class.dealii::Functions::SquareFunction.29"* %this, %"class.dealii::Functions::SquareFunction.29"** %this.addr, align 8
  call void @llvm.dbg.declare(metadata %"class.dealii::Functions::SquareFunction.29"** %this.addr, metadata !9268, metadata !DIExpression()), !dbg !9270
  store %"class.dealii::Point.33"* %p, %"class.dealii::Point.33"** %p.addr, align 8
  call void @llvm.dbg.declare(metadata %"class.dealii::Point.33"** %p.addr, metadata !9271, metadata !DIExpression()), !dbg !9272
  store i32 %0, i32* %.addr, align 4
  call void @llvm.dbg.declare(metadata i32* %.addr, metadata !9273, metadata !DIExpression()), !dbg !9274
  %this1 = load %"class.dealii::Functions::SquareFunction.29"*, %"class.dealii::Functions::SquareFunction.29"** %this.addr, align 8
  %1 = load %"class.dealii::Point.33"*, %"class.dealii::Point.33"** %p.addr, align 8, !dbg !9275
  %call = call double @_ZNK6dealii5PointILi3EE6squareEv(%"class.dealii::Point.33"* %1), !dbg !9276
  ret double %call, !dbg !9277
}

; Function Attrs: noinline nounwind uwtable
define linkonce_odr dso_local double @_ZNK6dealii5PointILi3EE6squareEv(%"class.dealii::Point.33"* %this) #2 comdat align 2 !dbg !9278 {
entry:
  %this.addr = alloca %"class.dealii::Point.33"*, align 8
  %q = alloca double, align 8
  %i = alloca i32, align 4
  store %"class.dealii::Point.33"* %this, %"class.dealii::Point.33"** %this.addr, align 8
  call void @llvm.dbg.declare(metadata %"class.dealii::Point.33"** %this.addr, metadata !9279, metadata !DIExpression()), !dbg !9280
  %this1 = load %"class.dealii::Point.33"*, %"class.dealii::Point.33"** %this.addr, align 8
  call void @llvm.dbg.declare(metadata double* %q, metadata !9281, metadata !DIExpression()), !dbg !9282
  store double 0.000000e+00, double* %q, align 8, !dbg !9282
  call void @llvm.dbg.declare(metadata i32* %i, metadata !9283, metadata !DIExpression()), !dbg !9285
  store i32 0, i32* %i, align 4, !dbg !9285
  br label %for.cond, !dbg !9286

for.cond:                                         ; preds = %for.inc, %entry
  %0 = load i32, i32* %i, align 4, !dbg !9287
  %cmp = icmp ult i32 %0, 3, !dbg !9289
  br i1 %cmp, label %for.body, label %for.end, !dbg !9290

for.body:                                         ; preds = %for.cond
  %1 = bitcast %"class.dealii::Point.33"* %this1 to %"class.dealii::Tensor.34"*, !dbg !9291
  %values = getelementptr inbounds %"class.dealii::Tensor.34", %"class.dealii::Tensor.34"* %1, i32 0, i32 0, !dbg !9291
  %2 = load i32, i32* %i, align 4, !dbg !9292
  %idxprom = zext i32 %2 to i64, !dbg !9293
  %arrayidx = getelementptr inbounds [3 x double], [3 x double]* %values, i64 0, i64 %idxprom, !dbg !9293
  %3 = load double, double* %arrayidx, align 8, !dbg !9293
  %4 = bitcast %"class.dealii::Point.33"* %this1 to %"class.dealii::Tensor.34"*, !dbg !9294
  %values2 = getelementptr inbounds %"class.dealii::Tensor.34", %"class.dealii::Tensor.34"* %4, i32 0, i32 0, !dbg !9294
  %5 = load i32, i32* %i, align 4, !dbg !9295
  %idxprom3 = zext i32 %5 to i64, !dbg !9296
  %arrayidx4 = getelementptr inbounds [3 x double], [3 x double]* %values2, i64 0, i64 %idxprom3, !dbg !9296
  %6 = load double, double* %arrayidx4, align 8, !dbg !9296
  %mul = fmul double %3, %6, !dbg !9297
  %7 = load double, double* %q, align 8, !dbg !9298
  %add = fadd double %7, %mul, !dbg !9298
  store double %add, double* %q, align 8, !dbg !9298
  br label %for.inc, !dbg !9299

for.inc:                                          ; preds = %for.body
  %8 = load i32, i32* %i, align 4, !dbg !9300
  %inc = add i32 %8, 1, !dbg !9300
  store i32 %inc, i32* %i, align 4, !dbg !9300
  br label %for.cond, !dbg !9301, !llvm.loop !9302

for.end:                                          ; preds = %for.cond
  %9 = load double, double* %q, align 8, !dbg !9304
  ret double %9, !dbg !9305
}

; Function Attrs: noinline uwtable
define weak_odr dso_local void @_ZNK6dealii9Functions14SquareFunctionILi3EE10value_listERKSt6vectorINS_5PointILi3EEESaIS5_EERS3_IdSaIdEEj(%"class.dealii::Functions::SquareFunction.29"* %this, %"class.std::vector.35"* dereferenceable(24) %points, %"class.std::vector.3"* dereferenceable(24) %values, i32 %0) unnamed_addr #0 comdat align 2 !dbg !9306 {
entry:
  %this.addr = alloca %"class.dealii::Functions::SquareFunction.29"*, align 8
  %points.addr = alloca %"class.std::vector.35"*, align 8
  %values.addr = alloca %"class.std::vector.3"*, align 8
  %.addr = alloca i32, align 4
  %i = alloca i32, align 4
  %p = alloca %"class.dealii::Point.33"*, align 8
  store %"class.dealii::Functions::SquareFunction.29"* %this, %"class.dealii::Functions::SquareFunction.29"** %this.addr, align 8
  call void @llvm.dbg.declare(metadata %"class.dealii::Functions::SquareFunction.29"** %this.addr, metadata !9307, metadata !DIExpression()), !dbg !9308
  store %"class.std::vector.35"* %points, %"class.std::vector.35"** %points.addr, align 8
  call void @llvm.dbg.declare(metadata %"class.std::vector.35"** %points.addr, metadata !9309, metadata !DIExpression()), !dbg !9310
  store %"class.std::vector.3"* %values, %"class.std::vector.3"** %values.addr, align 8
  call void @llvm.dbg.declare(metadata %"class.std::vector.3"** %values.addr, metadata !9311, metadata !DIExpression()), !dbg !9312
  store i32 %0, i32* %.addr, align 4
  call void @llvm.dbg.declare(metadata i32* %.addr, metadata !9313, metadata !DIExpression()), !dbg !9314
  %this1 = load %"class.dealii::Functions::SquareFunction.29"*, %"class.dealii::Functions::SquareFunction.29"** %this.addr, align 8
  call void @llvm.dbg.declare(metadata i32* %i, metadata !9315, metadata !DIExpression()), !dbg !9317
  store i32 0, i32* %i, align 4, !dbg !9317
  br label %for.cond, !dbg !9318

for.cond:                                         ; preds = %for.inc, %entry
  %1 = load i32, i32* %i, align 4, !dbg !9319
  %conv = zext i32 %1 to i64, !dbg !9319
  %2 = load %"class.std::vector.35"*, %"class.std::vector.35"** %points.addr, align 8, !dbg !9321
  %call = call i64 @_ZNKSt6vectorIN6dealii5PointILi3EEESaIS2_EE4sizeEv(%"class.std::vector.35"* %2) #11, !dbg !9322
  %cmp = icmp ult i64 %conv, %call, !dbg !9323
  br i1 %cmp, label %for.body, label %for.end, !dbg !9324

for.body:                                         ; preds = %for.cond
  call void @llvm.dbg.declare(metadata %"class.dealii::Point.33"** %p, metadata !9325, metadata !DIExpression()), !dbg !9327
  %3 = load %"class.std::vector.35"*, %"class.std::vector.35"** %points.addr, align 8, !dbg !9328
  %4 = load i32, i32* %i, align 4, !dbg !9329
  %conv2 = zext i32 %4 to i64, !dbg !9329
  %call3 = call dereferenceable(24) %"class.dealii::Point.33"* @_ZNKSt6vectorIN6dealii5PointILi3EEESaIS2_EEixEm(%"class.std::vector.35"* %3, i64 %conv2) #11, !dbg !9328
  store %"class.dealii::Point.33"* %call3, %"class.dealii::Point.33"** %p, align 8, !dbg !9327
  %5 = load %"class.dealii::Point.33"*, %"class.dealii::Point.33"** %p, align 8, !dbg !9330
  %call4 = call double @_ZNK6dealii5PointILi3EE6squareEv(%"class.dealii::Point.33"* %5), !dbg !9331
  %6 = load %"class.std::vector.3"*, %"class.std::vector.3"** %values.addr, align 8, !dbg !9332
  %7 = load i32, i32* %i, align 4, !dbg !9333
  %conv5 = zext i32 %7 to i64, !dbg !9333
  %call6 = call dereferenceable(8) double* @_ZNSt6vectorIdSaIdEEixEm(%"class.std::vector.3"* %6, i64 %conv5) #11, !dbg !9332
  store double %call4, double* %call6, align 8, !dbg !9334
  br label %for.inc, !dbg !9335

for.inc:                                          ; preds = %for.body
  %8 = load i32, i32* %i, align 4, !dbg !9336
  %inc = add i32 %8, 1, !dbg !9336
  store i32 %inc, i32* %i, align 4, !dbg !9336
  br label %for.cond, !dbg !9337, !llvm.loop !9338

for.end:                                          ; preds = %for.cond
  ret void, !dbg !9340
}

; Function Attrs: noinline nounwind uwtable
define linkonce_odr dso_local i64 @_ZNKSt6vectorIN6dealii5PointILi3EEESaIS2_EE4sizeEv(%"class.std::vector.35"* %this) #2 comdat align 2 !dbg !9341 {
entry:
  %this.addr = alloca %"class.std::vector.35"*, align 8
  store %"class.std::vector.35"* %this, %"class.std::vector.35"** %this.addr, align 8
  call void @llvm.dbg.declare(metadata %"class.std::vector.35"** %this.addr, metadata !9342, metadata !DIExpression()), !dbg !9344
  %this1 = load %"class.std::vector.35"*, %"class.std::vector.35"** %this.addr, align 8
  %0 = bitcast %"class.std::vector.35"* %this1 to %"struct.std::_Vector_base.36"*, !dbg !9345
  %_M_impl = getelementptr inbounds %"struct.std::_Vector_base.36", %"struct.std::_Vector_base.36"* %0, i32 0, i32 0, !dbg !9345
  %1 = bitcast %"struct.std::_Vector_base<dealii::Point<3>, std::allocator<dealii::Point<3> > >::_Vector_impl"* %_M_impl to %"struct.std::_Vector_base<dealii::Point<3>, std::allocator<dealii::Point<3> > >::_Vector_impl_data"*, !dbg !9346
  %_M_finish = getelementptr inbounds %"struct.std::_Vector_base<dealii::Point<3>, std::allocator<dealii::Point<3> > >::_Vector_impl_data", %"struct.std::_Vector_base<dealii::Point<3>, std::allocator<dealii::Point<3> > >::_Vector_impl_data"* %1, i32 0, i32 1, !dbg !9347
  %2 = load %"class.dealii::Point.33"*, %"class.dealii::Point.33"** %_M_finish, align 8, !dbg !9347
  %3 = bitcast %"class.std::vector.35"* %this1 to %"struct.std::_Vector_base.36"*, !dbg !9348
  %_M_impl2 = getelementptr inbounds %"struct.std::_Vector_base.36", %"struct.std::_Vector_base.36"* %3, i32 0, i32 0, !dbg !9348
  %4 = bitcast %"struct.std::_Vector_base<dealii::Point<3>, std::allocator<dealii::Point<3> > >::_Vector_impl"* %_M_impl2 to %"struct.std::_Vector_base<dealii::Point<3>, std::allocator<dealii::Point<3> > >::_Vector_impl_data"*, !dbg !9349
  %_M_start = getelementptr inbounds %"struct.std::_Vector_base<dealii::Point<3>, std::allocator<dealii::Point<3> > >::_Vector_impl_data", %"struct.std::_Vector_base<dealii::Point<3>, std::allocator<dealii::Point<3> > >::_Vector_impl_data"* %4, i32 0, i32 0, !dbg !9350
  %5 = load %"class.dealii::Point.33"*, %"class.dealii::Point.33"** %_M_start, align 8, !dbg !9350
  %sub.ptr.lhs.cast = ptrtoint %"class.dealii::Point.33"* %2 to i64, !dbg !9351
  %sub.ptr.rhs.cast = ptrtoint %"class.dealii::Point.33"* %5 to i64, !dbg !9351
  %sub.ptr.sub = sub i64 %sub.ptr.lhs.cast, %sub.ptr.rhs.cast, !dbg !9351
  %sub.ptr.div = sdiv exact i64 %sub.ptr.sub, 24, !dbg !9351
  ret i64 %sub.ptr.div, !dbg !9352
}

; Function Attrs: noinline nounwind uwtable
define linkonce_odr dso_local dereferenceable(24) %"class.dealii::Point.33"* @_ZNKSt6vectorIN6dealii5PointILi3EEESaIS2_EEixEm(%"class.std::vector.35"* %this, i64 %__n) #2 comdat align 2 !dbg !9353 {
entry:
  %this.addr = alloca %"class.std::vector.35"*, align 8
  %__n.addr = alloca i64, align 8
  store %"class.std::vector.35"* %this, %"class.std::vector.35"** %this.addr, align 8
  call void @llvm.dbg.declare(metadata %"class.std::vector.35"** %this.addr, metadata !9354, metadata !DIExpression()), !dbg !9355
  store i64 %__n, i64* %__n.addr, align 8
  call void @llvm.dbg.declare(metadata i64* %__n.addr, metadata !9356, metadata !DIExpression()), !dbg !9357
  %this1 = load %"class.std::vector.35"*, %"class.std::vector.35"** %this.addr, align 8
  %0 = bitcast %"class.std::vector.35"* %this1 to %"struct.std::_Vector_base.36"*, !dbg !9358
  %_M_impl = getelementptr inbounds %"struct.std::_Vector_base.36", %"struct.std::_Vector_base.36"* %0, i32 0, i32 0, !dbg !9358
  %1 = bitcast %"struct.std::_Vector_base<dealii::Point<3>, std::allocator<dealii::Point<3> > >::_Vector_impl"* %_M_impl to %"struct.std::_Vector_base<dealii::Point<3>, std::allocator<dealii::Point<3> > >::_Vector_impl_data"*, !dbg !9359
  %_M_start = getelementptr inbounds %"struct.std::_Vector_base<dealii::Point<3>, std::allocator<dealii::Point<3> > >::_Vector_impl_data", %"struct.std::_Vector_base<dealii::Point<3>, std::allocator<dealii::Point<3> > >::_Vector_impl_data"* %1, i32 0, i32 0, !dbg !9360
  %2 = load %"class.dealii::Point.33"*, %"class.dealii::Point.33"** %_M_start, align 8, !dbg !9360
  %3 = load i64, i64* %__n.addr, align 8, !dbg !9361
  %add.ptr = getelementptr inbounds %"class.dealii::Point.33", %"class.dealii::Point.33"* %2, i64 %3, !dbg !9362
  ret %"class.dealii::Point.33"* %add.ptr, !dbg !9363
}

; Function Attrs: noinline uwtable
define weak_odr dso_local void @_ZNK6dealii9Functions14SquareFunctionILi3EE8gradientERKNS_5PointILi3EEEj(%"class.dealii::Tensor.34"* noalias sret %agg.result, %"class.dealii::Functions::SquareFunction.29"* %this, %"class.dealii::Point.33"* dereferenceable(24) %p, i32 %0) unnamed_addr #0 comdat align 2 !dbg !9364 {
entry:
  %result.ptr = alloca i8*, align 8
  %this.addr = alloca %"class.dealii::Functions::SquareFunction.29"*, align 8
  %p.addr = alloca %"class.dealii::Point.33"*, align 8
  %.addr = alloca i32, align 4
  %ref.tmp = alloca %"class.dealii::Point.33", align 8
  %1 = bitcast %"class.dealii::Tensor.34"* %agg.result to i8*
  store i8* %1, i8** %result.ptr, align 8
  store %"class.dealii::Functions::SquareFunction.29"* %this, %"class.dealii::Functions::SquareFunction.29"** %this.addr, align 8
  call void @llvm.dbg.declare(metadata %"class.dealii::Functions::SquareFunction.29"** %this.addr, metadata !9365, metadata !DIExpression()), !dbg !9366
  store %"class.dealii::Point.33"* %p, %"class.dealii::Point.33"** %p.addr, align 8
  call void @llvm.dbg.declare(metadata %"class.dealii::Point.33"** %p.addr, metadata !9367, metadata !DIExpression()), !dbg !9368
  store i32 %0, i32* %.addr, align 4
  call void @llvm.dbg.declare(metadata i32* %.addr, metadata !9369, metadata !DIExpression()), !dbg !9370
  %this1 = load %"class.dealii::Functions::SquareFunction.29"*, %"class.dealii::Functions::SquareFunction.29"** %this.addr, align 8
  %2 = load %"class.dealii::Point.33"*, %"class.dealii::Point.33"** %p.addr, align 8, !dbg !9371
  call void @_ZNK6dealii5PointILi3EEmlEd(%"class.dealii::Point.33"* sret %ref.tmp, %"class.dealii::Point.33"* %2, double 2.000000e+00), !dbg !9372
  %3 = bitcast %"class.dealii::Point.33"* %ref.tmp to %"class.dealii::Tensor.34"*, !dbg !9371
  call void @_ZN6dealii6TensorILi1ELi3EEC2ERKS1_(%"class.dealii::Tensor.34"* %agg.result, %"class.dealii::Tensor.34"* dereferenceable(24) %3), !dbg !9371
  ret void, !dbg !9373
}

; Function Attrs: noinline uwtable
define linkonce_odr dso_local void @_ZNK6dealii5PointILi3EEmlEd(%"class.dealii::Point.33"* noalias sret %agg.result, %"class.dealii::Point.33"* %this, double %factor) #0 comdat align 2 !dbg !9374 {
entry:
  %result.ptr = alloca i8*, align 8
  %this.addr = alloca %"class.dealii::Point.33"*, align 8
  %factor.addr = alloca double, align 8
  %ref.tmp = alloca %"class.dealii::Point.33", align 8
  %0 = bitcast %"class.dealii::Point.33"* %agg.result to i8*
  store i8* %0, i8** %result.ptr, align 8
  store %"class.dealii::Point.33"* %this, %"class.dealii::Point.33"** %this.addr, align 8
  call void @llvm.dbg.declare(metadata %"class.dealii::Point.33"** %this.addr, metadata !9375, metadata !DIExpression()), !dbg !9376
  store double %factor, double* %factor.addr, align 8
  call void @llvm.dbg.declare(metadata double* %factor.addr, metadata !9377, metadata !DIExpression()), !dbg !9378
  %this1 = load %"class.dealii::Point.33"*, %"class.dealii::Point.33"** %this.addr, align 8
  %1 = load double, double* %factor.addr, align 8, !dbg !9379
  call void @_ZN6dealii5PointILi3EEC2ERKS1_(%"class.dealii::Point.33"* %ref.tmp, %"class.dealii::Point.33"* dereferenceable(24) %this1), !dbg !9380
  %2 = bitcast %"class.dealii::Point.33"* %ref.tmp to %"class.dealii::Tensor.34"*, !dbg !9380
  %call = call dereferenceable(24) %"class.dealii::Tensor.34"* @_ZN6dealii6TensorILi1ELi3EEmLEd(%"class.dealii::Tensor.34"* %2, double %1), !dbg !9381
  call void @_ZN6dealii5PointILi3EEC2ERKNS_6TensorILi1ELi3EEE(%"class.dealii::Point.33"* %agg.result, %"class.dealii::Tensor.34"* dereferenceable(24) %call), !dbg !9382
  ret void, !dbg !9383
}

; Function Attrs: noinline nounwind uwtable
define linkonce_odr dso_local void @_ZN6dealii6TensorILi1ELi3EEC2ERKS1_(%"class.dealii::Tensor.34"* %this, %"class.dealii::Tensor.34"* dereferenceable(24) %p) unnamed_addr #2 comdat align 2 !dbg !9384 {
entry:
  %this.addr = alloca %"class.dealii::Tensor.34"*, align 8
  %p.addr = alloca %"class.dealii::Tensor.34"*, align 8
  %i = alloca i32, align 4
  store %"class.dealii::Tensor.34"* %this, %"class.dealii::Tensor.34"** %this.addr, align 8
  call void @llvm.dbg.declare(metadata %"class.dealii::Tensor.34"** %this.addr, metadata !9385, metadata !DIExpression()), !dbg !9386
  store %"class.dealii::Tensor.34"* %p, %"class.dealii::Tensor.34"** %p.addr, align 8
  call void @llvm.dbg.declare(metadata %"class.dealii::Tensor.34"** %p.addr, metadata !9387, metadata !DIExpression()), !dbg !9388
  %this1 = load %"class.dealii::Tensor.34"*, %"class.dealii::Tensor.34"** %this.addr, align 8
  call void @llvm.dbg.declare(metadata i32* %i, metadata !9389, metadata !DIExpression()), !dbg !9392
  store i32 0, i32* %i, align 4, !dbg !9392
  br label %for.cond, !dbg !9393

for.cond:                                         ; preds = %for.inc, %entry
  %0 = load i32, i32* %i, align 4, !dbg !9394
  %cmp = icmp ult i32 %0, 3, !dbg !9396
  br i1 %cmp, label %for.body, label %for.end, !dbg !9397

for.body:                                         ; preds = %for.cond
  %1 = load %"class.dealii::Tensor.34"*, %"class.dealii::Tensor.34"** %p.addr, align 8, !dbg !9398
  %values = getelementptr inbounds %"class.dealii::Tensor.34", %"class.dealii::Tensor.34"* %1, i32 0, i32 0, !dbg !9399
  %2 = load i32, i32* %i, align 4, !dbg !9400
  %idxprom = zext i32 %2 to i64, !dbg !9398
  %arrayidx = getelementptr inbounds [3 x double], [3 x double]* %values, i64 0, i64 %idxprom, !dbg !9398
  %3 = load double, double* %arrayidx, align 8, !dbg !9398
  %values2 = getelementptr inbounds %"class.dealii::Tensor.34", %"class.dealii::Tensor.34"* %this1, i32 0, i32 0, !dbg !9401
  %4 = load i32, i32* %i, align 4, !dbg !9402
  %idxprom3 = zext i32 %4 to i64, !dbg !9401
  %arrayidx4 = getelementptr inbounds [3 x double], [3 x double]* %values2, i64 0, i64 %idxprom3, !dbg !9401
  store double %3, double* %arrayidx4, align 8, !dbg !9403
  br label %for.inc, !dbg !9401

for.inc:                                          ; preds = %for.body
  %5 = load i32, i32* %i, align 4, !dbg !9404
  %inc = add i32 %5, 1, !dbg !9404
  store i32 %inc, i32* %i, align 4, !dbg !9404
  br label %for.cond, !dbg !9405, !llvm.loop !9406

for.end:                                          ; preds = %for.cond
  ret void, !dbg !9408
}

; Function Attrs: noinline uwtable
define weak_odr dso_local void @_ZNK6dealii9Functions14SquareFunctionILi3EE13gradient_listERKSt6vectorINS_5PointILi3EEESaIS5_EERS3_INS_6TensorILi1ELi3EEESaISB_EEj(%"class.dealii::Functions::SquareFunction.29"* %this, %"class.std::vector.35"* dereferenceable(24) %points, %"class.std::vector.40"* dereferenceable(24) %gradients, i32 %0) unnamed_addr #0 comdat align 2 !dbg !9409 {
entry:
  %this.addr = alloca %"class.dealii::Functions::SquareFunction.29"*, align 8
  %points.addr = alloca %"class.std::vector.35"*, align 8
  %gradients.addr = alloca %"class.std::vector.40"*, align 8
  %.addr = alloca i32, align 4
  %i = alloca i32, align 4
  %ref.tmp = alloca %"class.dealii::Point.33", align 8
  store %"class.dealii::Functions::SquareFunction.29"* %this, %"class.dealii::Functions::SquareFunction.29"** %this.addr, align 8
  call void @llvm.dbg.declare(metadata %"class.dealii::Functions::SquareFunction.29"** %this.addr, metadata !9410, metadata !DIExpression()), !dbg !9411
  store %"class.std::vector.35"* %points, %"class.std::vector.35"** %points.addr, align 8
  call void @llvm.dbg.declare(metadata %"class.std::vector.35"** %points.addr, metadata !9412, metadata !DIExpression()), !dbg !9413
  store %"class.std::vector.40"* %gradients, %"class.std::vector.40"** %gradients.addr, align 8
  call void @llvm.dbg.declare(metadata %"class.std::vector.40"** %gradients.addr, metadata !9414, metadata !DIExpression()), !dbg !9415
  store i32 %0, i32* %.addr, align 4
  call void @llvm.dbg.declare(metadata i32* %.addr, metadata !9416, metadata !DIExpression()), !dbg !9417
  %this1 = load %"class.dealii::Functions::SquareFunction.29"*, %"class.dealii::Functions::SquareFunction.29"** %this.addr, align 8
  call void @llvm.dbg.declare(metadata i32* %i, metadata !9418, metadata !DIExpression()), !dbg !9420
  store i32 0, i32* %i, align 4, !dbg !9420
  br label %for.cond, !dbg !9421

for.cond:                                         ; preds = %for.inc, %entry
  %1 = load i32, i32* %i, align 4, !dbg !9422
  %conv = zext i32 %1 to i64, !dbg !9422
  %2 = load %"class.std::vector.35"*, %"class.std::vector.35"** %points.addr, align 8, !dbg !9424
  %call = call i64 @_ZNKSt6vectorIN6dealii5PointILi3EEESaIS2_EE4sizeEv(%"class.std::vector.35"* %2) #11, !dbg !9425
  %cmp = icmp ult i64 %conv, %call, !dbg !9426
  br i1 %cmp, label %for.body, label %for.end, !dbg !9427

for.body:                                         ; preds = %for.cond
  %3 = load %"class.std::vector.35"*, %"class.std::vector.35"** %points.addr, align 8, !dbg !9428
  %4 = load i32, i32* %i, align 4, !dbg !9429
  %conv2 = zext i32 %4 to i64, !dbg !9429
  %call3 = call dereferenceable(24) %"class.dealii::Point.33"* @_ZNKSt6vectorIN6dealii5PointILi3EEESaIS2_EEixEm(%"class.std::vector.35"* %3, i64 %conv2) #11, !dbg !9428
  call void @_ZNK6dealii5PointILi3EEmlEd(%"class.dealii::Point.33"* sret %ref.tmp, %"class.dealii::Point.33"* %call3, double 2.000000e+00), !dbg !9430
  %5 = bitcast %"class.dealii::Point.33"* %ref.tmp to %"class.dealii::Tensor.34"*, !dbg !9428
  %6 = load %"class.std::vector.40"*, %"class.std::vector.40"** %gradients.addr, align 8, !dbg !9431
  %7 = load i32, i32* %i, align 4, !dbg !9432
  %conv4 = zext i32 %7 to i64, !dbg !9432
  %call5 = call dereferenceable(24) %"class.dealii::Tensor.34"* @_ZNSt6vectorIN6dealii6TensorILi1ELi3EEESaIS2_EEixEm(%"class.std::vector.40"* %6, i64 %conv4) #11, !dbg !9431
  %call6 = call dereferenceable(24) %"class.dealii::Tensor.34"* @_ZN6dealii6TensorILi1ELi3EEaSERKS1_(%"class.dealii::Tensor.34"* %call5, %"class.dealii::Tensor.34"* dereferenceable(24) %5), !dbg !9433
  br label %for.inc, !dbg !9431

for.inc:                                          ; preds = %for.body
  %8 = load i32, i32* %i, align 4, !dbg !9434
  %inc = add i32 %8, 1, !dbg !9434
  store i32 %inc, i32* %i, align 4, !dbg !9434
  br label %for.cond, !dbg !9435, !llvm.loop !9436

for.end:                                          ; preds = %for.cond
  ret void, !dbg !9438
}

; Function Attrs: noinline nounwind uwtable
define linkonce_odr dso_local dereferenceable(24) %"class.dealii::Tensor.34"* @_ZNSt6vectorIN6dealii6TensorILi1ELi3EEESaIS2_EEixEm(%"class.std::vector.40"* %this, i64 %__n) #2 comdat align 2 !dbg !9439 {
entry:
  %this.addr = alloca %"class.std::vector.40"*, align 8
  %__n.addr = alloca i64, align 8
  store %"class.std::vector.40"* %this, %"class.std::vector.40"** %this.addr, align 8
  call void @llvm.dbg.declare(metadata %"class.std::vector.40"** %this.addr, metadata !9440, metadata !DIExpression()), !dbg !9441
  store i64 %__n, i64* %__n.addr, align 8
  call void @llvm.dbg.declare(metadata i64* %__n.addr, metadata !9442, metadata !DIExpression()), !dbg !9443
  %this1 = load %"class.std::vector.40"*, %"class.std::vector.40"** %this.addr, align 8
  %0 = bitcast %"class.std::vector.40"* %this1 to %"struct.std::_Vector_base.41"*, !dbg !9444
  %_M_impl = getelementptr inbounds %"struct.std::_Vector_base.41", %"struct.std::_Vector_base.41"* %0, i32 0, i32 0, !dbg !9444
  %1 = bitcast %"struct.std::_Vector_base<dealii::Tensor<1, 3>, std::allocator<dealii::Tensor<1, 3> > >::_Vector_impl"* %_M_impl to %"struct.std::_Vector_base<dealii::Tensor<1, 3>, std::allocator<dealii::Tensor<1, 3> > >::_Vector_impl_data"*, !dbg !9445
  %_M_start = getelementptr inbounds %"struct.std::_Vector_base<dealii::Tensor<1, 3>, std::allocator<dealii::Tensor<1, 3> > >::_Vector_impl_data", %"struct.std::_Vector_base<dealii::Tensor<1, 3>, std::allocator<dealii::Tensor<1, 3> > >::_Vector_impl_data"* %1, i32 0, i32 0, !dbg !9446
  %2 = load %"class.dealii::Tensor.34"*, %"class.dealii::Tensor.34"** %_M_start, align 8, !dbg !9446
  %3 = load i64, i64* %__n.addr, align 8, !dbg !9447
  %add.ptr = getelementptr inbounds %"class.dealii::Tensor.34", %"class.dealii::Tensor.34"* %2, i64 %3, !dbg !9448
  ret %"class.dealii::Tensor.34"* %add.ptr, !dbg !9449
}

; Function Attrs: noinline nounwind uwtable
define linkonce_odr dso_local dereferenceable(24) %"class.dealii::Tensor.34"* @_ZN6dealii6TensorILi1ELi3EEaSERKS1_(%"class.dealii::Tensor.34"* %this, %"class.dealii::Tensor.34"* dereferenceable(24) %p) #2 comdat align 2 !dbg !9450 {
entry:
  %this.addr = alloca %"class.dealii::Tensor.34"*, align 8
  %p.addr = alloca %"class.dealii::Tensor.34"*, align 8
  store %"class.dealii::Tensor.34"* %this, %"class.dealii::Tensor.34"** %this.addr, align 8
  call void @llvm.dbg.declare(metadata %"class.dealii::Tensor.34"** %this.addr, metadata !9451, metadata !DIExpression()), !dbg !9452
  store %"class.dealii::Tensor.34"* %p, %"class.dealii::Tensor.34"** %p.addr, align 8
  call void @llvm.dbg.declare(metadata %"class.dealii::Tensor.34"** %p.addr, metadata !9453, metadata !DIExpression()), !dbg !9454
  %this1 = load %"class.dealii::Tensor.34"*, %"class.dealii::Tensor.34"** %this.addr, align 8
  %0 = load %"class.dealii::Tensor.34"*, %"class.dealii::Tensor.34"** %p.addr, align 8, !dbg !9455
  %values = getelementptr inbounds %"class.dealii::Tensor.34", %"class.dealii::Tensor.34"* %0, i32 0, i32 0, !dbg !9456
  %arrayidx = getelementptr inbounds [3 x double], [3 x double]* %values, i64 0, i64 0, !dbg !9455
  %1 = load double, double* %arrayidx, align 8, !dbg !9455
  %values2 = getelementptr inbounds %"class.dealii::Tensor.34", %"class.dealii::Tensor.34"* %this1, i32 0, i32 0, !dbg !9457
  %arrayidx3 = getelementptr inbounds [3 x double], [3 x double]* %values2, i64 0, i64 0, !dbg !9457
  store double %1, double* %arrayidx3, align 8, !dbg !9458
  %2 = load %"class.dealii::Tensor.34"*, %"class.dealii::Tensor.34"** %p.addr, align 8, !dbg !9459
  %values4 = getelementptr inbounds %"class.dealii::Tensor.34", %"class.dealii::Tensor.34"* %2, i32 0, i32 0, !dbg !9460
  %arrayidx5 = getelementptr inbounds [3 x double], [3 x double]* %values4, i64 0, i64 1, !dbg !9459
  %3 = load double, double* %arrayidx5, align 8, !dbg !9459
  %values6 = getelementptr inbounds %"class.dealii::Tensor.34", %"class.dealii::Tensor.34"* %this1, i32 0, i32 0, !dbg !9461
  %arrayidx7 = getelementptr inbounds [3 x double], [3 x double]* %values6, i64 0, i64 1, !dbg !9461
  store double %3, double* %arrayidx7, align 8, !dbg !9462
  %4 = load %"class.dealii::Tensor.34"*, %"class.dealii::Tensor.34"** %p.addr, align 8, !dbg !9463
  %values8 = getelementptr inbounds %"class.dealii::Tensor.34", %"class.dealii::Tensor.34"* %4, i32 0, i32 0, !dbg !9464
  %arrayidx9 = getelementptr inbounds [3 x double], [3 x double]* %values8, i64 0, i64 2, !dbg !9463
  %5 = load double, double* %arrayidx9, align 8, !dbg !9463
  %values10 = getelementptr inbounds %"class.dealii::Tensor.34", %"class.dealii::Tensor.34"* %this1, i32 0, i32 0, !dbg !9465
  %arrayidx11 = getelementptr inbounds [3 x double], [3 x double]* %values10, i64 0, i64 2, !dbg !9465
  store double %5, double* %arrayidx11, align 8, !dbg !9466
  ret %"class.dealii::Tensor.34"* %this1, !dbg !9467
}

; Function Attrs: noinline nounwind uwtable
define weak_odr dso_local double @_ZNK6dealii9Functions14SquareFunctionILi3EE9laplacianERKNS_5PointILi3EEEj(%"class.dealii::Functions::SquareFunction.29"* %this, %"class.dealii::Point.33"* dereferenceable(24) %0, i32 %1) unnamed_addr #2 comdat align 2 !dbg !9468 {
entry:
  %this.addr = alloca %"class.dealii::Functions::SquareFunction.29"*, align 8
  %.addr = alloca %"class.dealii::Point.33"*, align 8
  %.addr1 = alloca i32, align 4
  store %"class.dealii::Functions::SquareFunction.29"* %this, %"class.dealii::Functions::SquareFunction.29"** %this.addr, align 8
  call void @llvm.dbg.declare(metadata %"class.dealii::Functions::SquareFunction.29"** %this.addr, metadata !9469, metadata !DIExpression()), !dbg !9470
  store %"class.dealii::Point.33"* %0, %"class.dealii::Point.33"** %.addr, align 8
  call void @llvm.dbg.declare(metadata %"class.dealii::Point.33"** %.addr, metadata !9471, metadata !DIExpression()), !dbg !9472
  store i32 %1, i32* %.addr1, align 4
  call void @llvm.dbg.declare(metadata i32* %.addr1, metadata !9473, metadata !DIExpression()), !dbg !9474
  %this2 = load %"class.dealii::Functions::SquareFunction.29"*, %"class.dealii::Functions::SquareFunction.29"** %this.addr, align 8
  ret double 6.000000e+00, !dbg !9475
}

; Function Attrs: noinline nounwind uwtable
define weak_odr dso_local void @_ZNK6dealii9Functions14SquareFunctionILi3EE14laplacian_listERKSt6vectorINS_5PointILi3EEESaIS5_EERS3_IdSaIdEEj(%"class.dealii::Functions::SquareFunction.29"* %this, %"class.std::vector.35"* dereferenceable(24) %points, %"class.std::vector.3"* dereferenceable(24) %values, i32 %0) unnamed_addr #2 comdat align 2 !dbg !9476 {
entry:
  %this.addr = alloca %"class.dealii::Functions::SquareFunction.29"*, align 8
  %points.addr = alloca %"class.std::vector.35"*, align 8
  %values.addr = alloca %"class.std::vector.3"*, align 8
  %.addr = alloca i32, align 4
  %i = alloca i32, align 4
  store %"class.dealii::Functions::SquareFunction.29"* %this, %"class.dealii::Functions::SquareFunction.29"** %this.addr, align 8
  call void @llvm.dbg.declare(metadata %"class.dealii::Functions::SquareFunction.29"** %this.addr, metadata !9477, metadata !DIExpression()), !dbg !9478
  store %"class.std::vector.35"* %points, %"class.std::vector.35"** %points.addr, align 8
  call void @llvm.dbg.declare(metadata %"class.std::vector.35"** %points.addr, metadata !9479, metadata !DIExpression()), !dbg !9480
  store %"class.std::vector.3"* %values, %"class.std::vector.3"** %values.addr, align 8
  call void @llvm.dbg.declare(metadata %"class.std::vector.3"** %values.addr, metadata !9481, metadata !DIExpression()), !dbg !9482
  store i32 %0, i32* %.addr, align 4
  call void @llvm.dbg.declare(metadata i32* %.addr, metadata !9483, metadata !DIExpression()), !dbg !9484
  %this1 = load %"class.dealii::Functions::SquareFunction.29"*, %"class.dealii::Functions::SquareFunction.29"** %this.addr, align 8
  call void @llvm.dbg.declare(metadata i32* %i, metadata !9485, metadata !DIExpression()), !dbg !9487
  store i32 0, i32* %i, align 4, !dbg !9487
  br label %for.cond, !dbg !9488

for.cond:                                         ; preds = %for.inc, %entry
  %1 = load i32, i32* %i, align 4, !dbg !9489
  %conv = zext i32 %1 to i64, !dbg !9489
  %2 = load %"class.std::vector.35"*, %"class.std::vector.35"** %points.addr, align 8, !dbg !9491
  %call = call i64 @_ZNKSt6vectorIN6dealii5PointILi3EEESaIS2_EE4sizeEv(%"class.std::vector.35"* %2) #11, !dbg !9492
  %cmp = icmp ult i64 %conv, %call, !dbg !9493
  br i1 %cmp, label %for.body, label %for.end, !dbg !9494

for.body:                                         ; preds = %for.cond
  %3 = load %"class.std::vector.3"*, %"class.std::vector.3"** %values.addr, align 8, !dbg !9495
  %4 = load i32, i32* %i, align 4, !dbg !9496
  %conv2 = zext i32 %4 to i64, !dbg !9496
  %call3 = call dereferenceable(8) double* @_ZNSt6vectorIdSaIdEEixEm(%"class.std::vector.3"* %3, i64 %conv2) #11, !dbg !9495
  store double 6.000000e+00, double* %call3, align 8, !dbg !9497
  br label %for.inc, !dbg !9495

for.inc:                                          ; preds = %for.body
  %5 = load i32, i32* %i, align 4, !dbg !9498
  %inc = add i32 %5, 1, !dbg !9498
  store i32 %inc, i32* %i, align 4, !dbg !9498
  br label %for.cond, !dbg !9499, !llvm.loop !9500

for.end:                                          ; preds = %for.cond
  ret void, !dbg !9502
}

; Function Attrs: noinline uwtable
define weak_odr dso_local double @_ZNK6dealii9Functions15Q1WedgeFunctionILi1EE5valueERKNS_5PointILi1EEEj(%"class.dealii::Functions::Q1WedgeFunction"* %this, %"class.dealii::Point"* dereferenceable(8) %p, i32 %0) unnamed_addr #0 comdat align 2 !dbg !9503 {
entry:
  %this.addr = alloca %"class.dealii::Functions::Q1WedgeFunction"*, align 8
  %p.addr = alloca %"class.dealii::Point"*, align 8
  %.addr = alloca i32, align 4
  store %"class.dealii::Functions::Q1WedgeFunction"* %this, %"class.dealii::Functions::Q1WedgeFunction"** %this.addr, align 8
  call void @llvm.dbg.declare(metadata %"class.dealii::Functions::Q1WedgeFunction"** %this.addr, metadata !9504, metadata !DIExpression()), !dbg !9506
  store %"class.dealii::Point"* %p, %"class.dealii::Point"** %p.addr, align 8
  call void @llvm.dbg.declare(metadata %"class.dealii::Point"** %p.addr, metadata !9507, metadata !DIExpression()), !dbg !9508
  store i32 %0, i32* %.addr, align 4
  call void @llvm.dbg.declare(metadata i32* %.addr, metadata !9509, metadata !DIExpression()), !dbg !9510
  %this1 = load %"class.dealii::Functions::Q1WedgeFunction"*, %"class.dealii::Functions::Q1WedgeFunction"** %this.addr, align 8
  %1 = load %"class.dealii::Point"*, %"class.dealii::Point"** %p.addr, align 8, !dbg !9511
  %call = call double @_ZNK6dealii5PointILi1EEclEj(%"class.dealii::Point"* %1, i32 0), !dbg !9511
  %2 = load %"class.dealii::Point"*, %"class.dealii::Point"** %p.addr, align 8, !dbg !9512
  %call2 = call double @_ZNK6dealii5PointILi1EEclEj(%"class.dealii::Point"* %2, i32 1), !dbg !9512
  %mul = fmul double %call, %call2, !dbg !9513
  ret double %mul, !dbg !9514
}

; Function Attrs: noinline nounwind uwtable
define linkonce_odr dso_local double @_ZNK6dealii5PointILi1EEclEj(%"class.dealii::Point"* %this, i32 %index) #2 comdat align 2 !dbg !9515 {
entry:
  %this.addr = alloca %"class.dealii::Point"*, align 8
  %index.addr = alloca i32, align 4
  store %"class.dealii::Point"* %this, %"class.dealii::Point"** %this.addr, align 8
  call void @llvm.dbg.declare(metadata %"class.dealii::Point"** %this.addr, metadata !9516, metadata !DIExpression()), !dbg !9517
  store i32 %index, i32* %index.addr, align 4
  call void @llvm.dbg.declare(metadata i32* %index.addr, metadata !9518, metadata !DIExpression()), !dbg !9519
  %this1 = load %"class.dealii::Point"*, %"class.dealii::Point"** %this.addr, align 8
  %0 = bitcast %"class.dealii::Point"* %this1 to %"class.dealii::Tensor"*, !dbg !9520
  %values = getelementptr inbounds %"class.dealii::Tensor", %"class.dealii::Tensor"* %0, i32 0, i32 0, !dbg !9520
  %1 = load i32, i32* %index.addr, align 4, !dbg !9521
  %idxprom = zext i32 %1 to i64, !dbg !9522
  %arrayidx = getelementptr inbounds [1 x double], [1 x double]* %values, i64 0, i64 %idxprom, !dbg !9522
  %2 = load double, double* %arrayidx, align 8, !dbg !9522
  ret double %2, !dbg !9523
}

; Function Attrs: noinline uwtable
define weak_odr dso_local void @_ZNK6dealii9Functions15Q1WedgeFunctionILi1EE10value_listERKSt6vectorINS_5PointILi1EEESaIS5_EERS3_IdSaIdEEj(%"class.dealii::Functions::Q1WedgeFunction"* %this, %"class.std::vector"* dereferenceable(24) %points, %"class.std::vector.3"* dereferenceable(24) %values, i32 %0) unnamed_addr #0 comdat align 2 !dbg !9524 {
entry:
  %this.addr = alloca %"class.dealii::Functions::Q1WedgeFunction"*, align 8
  %points.addr = alloca %"class.std::vector"*, align 8
  %values.addr = alloca %"class.std::vector.3"*, align 8
  %.addr = alloca i32, align 4
  %i = alloca i32, align 4
  %p = alloca %"class.dealii::Point"*, align 8
  store %"class.dealii::Functions::Q1WedgeFunction"* %this, %"class.dealii::Functions::Q1WedgeFunction"** %this.addr, align 8
  call void @llvm.dbg.declare(metadata %"class.dealii::Functions::Q1WedgeFunction"** %this.addr, metadata !9525, metadata !DIExpression()), !dbg !9526
  store %"class.std::vector"* %points, %"class.std::vector"** %points.addr, align 8
  call void @llvm.dbg.declare(metadata %"class.std::vector"** %points.addr, metadata !9527, metadata !DIExpression()), !dbg !9528
  store %"class.std::vector.3"* %values, %"class.std::vector.3"** %values.addr, align 8
  call void @llvm.dbg.declare(metadata %"class.std::vector.3"** %values.addr, metadata !9529, metadata !DIExpression()), !dbg !9530
  store i32 %0, i32* %.addr, align 4
  call void @llvm.dbg.declare(metadata i32* %.addr, metadata !9531, metadata !DIExpression()), !dbg !9532
  %this1 = load %"class.dealii::Functions::Q1WedgeFunction"*, %"class.dealii::Functions::Q1WedgeFunction"** %this.addr, align 8
  call void @llvm.dbg.declare(metadata i32* %i, metadata !9533, metadata !DIExpression()), !dbg !9535
  store i32 0, i32* %i, align 4, !dbg !9535
  br label %for.cond, !dbg !9536

for.cond:                                         ; preds = %for.inc, %entry
  %1 = load i32, i32* %i, align 4, !dbg !9537
  %conv = zext i32 %1 to i64, !dbg !9537
  %2 = load %"class.std::vector"*, %"class.std::vector"** %points.addr, align 8, !dbg !9539
  %call = call i64 @_ZNKSt6vectorIN6dealii5PointILi1EEESaIS2_EE4sizeEv(%"class.std::vector"* %2) #11, !dbg !9540
  %cmp = icmp ult i64 %conv, %call, !dbg !9541
  br i1 %cmp, label %for.body, label %for.end, !dbg !9542

for.body:                                         ; preds = %for.cond
  call void @llvm.dbg.declare(metadata %"class.dealii::Point"** %p, metadata !9543, metadata !DIExpression()), !dbg !9545
  %3 = load %"class.std::vector"*, %"class.std::vector"** %points.addr, align 8, !dbg !9546
  %4 = load i32, i32* %i, align 4, !dbg !9547
  %conv2 = zext i32 %4 to i64, !dbg !9547
  %call3 = call dereferenceable(8) %"class.dealii::Point"* @_ZNKSt6vectorIN6dealii5PointILi1EEESaIS2_EEixEm(%"class.std::vector"* %3, i64 %conv2) #11, !dbg !9546
  store %"class.dealii::Point"* %call3, %"class.dealii::Point"** %p, align 8, !dbg !9545
  %5 = load %"class.dealii::Point"*, %"class.dealii::Point"** %p, align 8, !dbg !9548
  %call4 = call double @_ZNK6dealii5PointILi1EEclEj(%"class.dealii::Point"* %5, i32 0), !dbg !9548
  %6 = load %"class.dealii::Point"*, %"class.dealii::Point"** %p, align 8, !dbg !9549
  %call5 = call double @_ZNK6dealii5PointILi1EEclEj(%"class.dealii::Point"* %6, i32 1), !dbg !9549
  %mul = fmul double %call4, %call5, !dbg !9550
  %7 = load %"class.std::vector.3"*, %"class.std::vector.3"** %values.addr, align 8, !dbg !9551
  %8 = load i32, i32* %i, align 4, !dbg !9552
  %conv6 = zext i32 %8 to i64, !dbg !9552
  %call7 = call dereferenceable(8) double* @_ZNSt6vectorIdSaIdEEixEm(%"class.std::vector.3"* %7, i64 %conv6) #11, !dbg !9551
  store double %mul, double* %call7, align 8, !dbg !9553
  br label %for.inc, !dbg !9554

for.inc:                                          ; preds = %for.body
  %9 = load i32, i32* %i, align 4, !dbg !9555
  %inc = add i32 %9, 1, !dbg !9555
  store i32 %inc, i32* %i, align 4, !dbg !9555
  br label %for.cond, !dbg !9556, !llvm.loop !9557

for.end:                                          ; preds = %for.cond
  ret void, !dbg !9559
}

; Function Attrs: noinline uwtable
define weak_odr dso_local void @_ZNK6dealii9Functions15Q1WedgeFunctionILi1EE17vector_value_listERKSt6vectorINS_5PointILi1EEESaIS5_EERS3_INS_6VectorIdEESaISB_EE(%"class.dealii::Functions::Q1WedgeFunction"* %this, %"class.std::vector"* dereferenceable(24) %points, %"class.std::vector.45"* dereferenceable(24) %values) unnamed_addr #0 comdat align 2 !dbg !9560 {
entry:
  %this.addr = alloca %"class.dealii::Functions::Q1WedgeFunction"*, align 8
  %points.addr = alloca %"class.std::vector"*, align 8
  %values.addr = alloca %"class.std::vector.45"*, align 8
  %i = alloca i32, align 4
  %p = alloca %"class.dealii::Point"*, align 8
  store %"class.dealii::Functions::Q1WedgeFunction"* %this, %"class.dealii::Functions::Q1WedgeFunction"** %this.addr, align 8
  call void @llvm.dbg.declare(metadata %"class.dealii::Functions::Q1WedgeFunction"** %this.addr, metadata !9561, metadata !DIExpression()), !dbg !9562
  store %"class.std::vector"* %points, %"class.std::vector"** %points.addr, align 8
  call void @llvm.dbg.declare(metadata %"class.std::vector"** %points.addr, metadata !9563, metadata !DIExpression()), !dbg !9564
  store %"class.std::vector.45"* %values, %"class.std::vector.45"** %values.addr, align 8
  call void @llvm.dbg.declare(metadata %"class.std::vector.45"** %values.addr, metadata !9565, metadata !DIExpression()), !dbg !9566
  %this1 = load %"class.dealii::Functions::Q1WedgeFunction"*, %"class.dealii::Functions::Q1WedgeFunction"** %this.addr, align 8
  call void @llvm.dbg.declare(metadata i32* %i, metadata !9567, metadata !DIExpression()), !dbg !9569
  store i32 0, i32* %i, align 4, !dbg !9569
  br label %for.cond, !dbg !9570

for.cond:                                         ; preds = %for.inc, %entry
  %0 = load i32, i32* %i, align 4, !dbg !9571
  %conv = zext i32 %0 to i64, !dbg !9571
  %1 = load %"class.std::vector"*, %"class.std::vector"** %points.addr, align 8, !dbg !9573
  %call = call i64 @_ZNKSt6vectorIN6dealii5PointILi1EEESaIS2_EE4sizeEv(%"class.std::vector"* %1) #11, !dbg !9574
  %cmp = icmp ult i64 %conv, %call, !dbg !9575
  br i1 %cmp, label %for.body, label %for.end, !dbg !9576

for.body:                                         ; preds = %for.cond
  call void @llvm.dbg.declare(metadata %"class.dealii::Point"** %p, metadata !9577, metadata !DIExpression()), !dbg !9579
  %2 = load %"class.std::vector"*, %"class.std::vector"** %points.addr, align 8, !dbg !9580
  %3 = load i32, i32* %i, align 4, !dbg !9581
  %conv2 = zext i32 %3 to i64, !dbg !9581
  %call3 = call dereferenceable(8) %"class.dealii::Point"* @_ZNKSt6vectorIN6dealii5PointILi1EEESaIS2_EEixEm(%"class.std::vector"* %2, i64 %conv2) #11, !dbg !9580
  store %"class.dealii::Point"* %call3, %"class.dealii::Point"** %p, align 8, !dbg !9579
  %4 = load %"class.dealii::Point"*, %"class.dealii::Point"** %p, align 8, !dbg !9582
  %call4 = call double @_ZNK6dealii5PointILi1EEclEj(%"class.dealii::Point"* %4, i32 0), !dbg !9582
  %5 = load %"class.dealii::Point"*, %"class.dealii::Point"** %p, align 8, !dbg !9583
  %call5 = call double @_ZNK6dealii5PointILi1EEclEj(%"class.dealii::Point"* %5, i32 1), !dbg !9583
  %mul = fmul double %call4, %call5, !dbg !9584
  %6 = load %"class.std::vector.45"*, %"class.std::vector.45"** %values.addr, align 8, !dbg !9585
  %7 = load i32, i32* %i, align 4, !dbg !9586
  %conv6 = zext i32 %7 to i64, !dbg !9586
  %call7 = call dereferenceable(88) %"class.dealii::Vector"* @_ZNSt6vectorIN6dealii6VectorIdEESaIS2_EEixEm(%"class.std::vector.45"* %6, i64 %conv6) #11, !dbg !9585
  %call8 = call dereferenceable(8) double* @_ZN6dealii6VectorIdEclEj(%"class.dealii::Vector"* %call7, i32 0), !dbg !9585
  store double %mul, double* %call8, align 8, !dbg !9587
  br label %for.inc, !dbg !9588

for.inc:                                          ; preds = %for.body
  %8 = load i32, i32* %i, align 4, !dbg !9589
  %inc = add i32 %8, 1, !dbg !9589
  store i32 %inc, i32* %i, align 4, !dbg !9589
  br label %for.cond, !dbg !9590, !llvm.loop !9591

for.end:                                          ; preds = %for.cond
  ret void, !dbg !9593
}

; Function Attrs: noinline nounwind uwtable
define linkonce_odr dso_local dereferenceable(88) %"class.dealii::Vector"* @_ZNSt6vectorIN6dealii6VectorIdEESaIS2_EEixEm(%"class.std::vector.45"* %this, i64 %__n) #2 comdat align 2 !dbg !9594 {
entry:
  %this.addr = alloca %"class.std::vector.45"*, align 8
  %__n.addr = alloca i64, align 8
  store %"class.std::vector.45"* %this, %"class.std::vector.45"** %this.addr, align 8
  call void @llvm.dbg.declare(metadata %"class.std::vector.45"** %this.addr, metadata !9595, metadata !DIExpression()), !dbg !9597
  store i64 %__n, i64* %__n.addr, align 8
  call void @llvm.dbg.declare(metadata i64* %__n.addr, metadata !9598, metadata !DIExpression()), !dbg !9599
  %this1 = load %"class.std::vector.45"*, %"class.std::vector.45"** %this.addr, align 8
  %0 = bitcast %"class.std::vector.45"* %this1 to %"struct.std::_Vector_base.46"*, !dbg !9600
  %_M_impl = getelementptr inbounds %"struct.std::_Vector_base.46", %"struct.std::_Vector_base.46"* %0, i32 0, i32 0, !dbg !9600
  %1 = bitcast %"struct.std::_Vector_base<dealii::Vector<double>, std::allocator<dealii::Vector<double> > >::_Vector_impl"* %_M_impl to %"struct.std::_Vector_base<dealii::Vector<double>, std::allocator<dealii::Vector<double> > >::_Vector_impl_data"*, !dbg !9601
  %_M_start = getelementptr inbounds %"struct.std::_Vector_base<dealii::Vector<double>, std::allocator<dealii::Vector<double> > >::_Vector_impl_data", %"struct.std::_Vector_base<dealii::Vector<double>, std::allocator<dealii::Vector<double> > >::_Vector_impl_data"* %1, i32 0, i32 0, !dbg !9602
  %2 = load %"class.dealii::Vector"*, %"class.dealii::Vector"** %_M_start, align 8, !dbg !9602
  %3 = load i64, i64* %__n.addr, align 8, !dbg !9603
  %add.ptr = getelementptr inbounds %"class.dealii::Vector", %"class.dealii::Vector"* %2, i64 %3, !dbg !9604
  ret %"class.dealii::Vector"* %add.ptr, !dbg !9605
}

; Function Attrs: noinline nounwind uwtable
define linkonce_odr dso_local dereferenceable(8) double* @_ZN6dealii6VectorIdEclEj(%"class.dealii::Vector"* %this, i32 %i) #2 comdat align 2 !dbg !9606 {
entry:
  %this.addr = alloca %"class.dealii::Vector"*, align 8
  %i.addr = alloca i32, align 4
  store %"class.dealii::Vector"* %this, %"class.dealii::Vector"** %this.addr, align 8
  call void @llvm.dbg.declare(metadata %"class.dealii::Vector"** %this.addr, metadata !9611, metadata !DIExpression()), !dbg !9612
  store i32 %i, i32* %i.addr, align 4
  call void @llvm.dbg.declare(metadata i32* %i.addr, metadata !9613, metadata !DIExpression()), !dbg !9614
  %this1 = load %"class.dealii::Vector"*, %"class.dealii::Vector"** %this.addr, align 8
  %val = getelementptr inbounds %"class.dealii::Vector", %"class.dealii::Vector"* %this1, i32 0, i32 3, !dbg !9615
  %0 = load double*, double** %val, align 8, !dbg !9615
  %1 = load i32, i32* %i.addr, align 4, !dbg !9616
  %idxprom = zext i32 %1 to i64, !dbg !9615
  %arrayidx = getelementptr inbounds double, double* %0, i64 %idxprom, !dbg !9615
  ret double* %arrayidx, !dbg !9617
}

; Function Attrs: noinline uwtable
define weak_odr dso_local void @_ZNK6dealii9Functions15Q1WedgeFunctionILi1EE8gradientERKNS_5PointILi1EEEj(%"class.dealii::Tensor"* noalias sret %agg.result, %"class.dealii::Functions::Q1WedgeFunction"* %this, %"class.dealii::Point"* dereferenceable(8) %p, i32 %0) unnamed_addr #0 comdat align 2 !dbg !9618 {
entry:
  %result.ptr = alloca i8*, align 8
  %this.addr = alloca %"class.dealii::Functions::Q1WedgeFunction"*, align 8
  %p.addr = alloca %"class.dealii::Point"*, align 8
  %.addr = alloca i32, align 4
  %1 = bitcast %"class.dealii::Tensor"* %agg.result to i8*
  store i8* %1, i8** %result.ptr, align 8
  store %"class.dealii::Functions::Q1WedgeFunction"* %this, %"class.dealii::Functions::Q1WedgeFunction"** %this.addr, align 8
  call void @llvm.dbg.declare(metadata %"class.dealii::Functions::Q1WedgeFunction"** %this.addr, metadata !9619, metadata !DIExpression()), !dbg !9620
  store %"class.dealii::Point"* %p, %"class.dealii::Point"** %p.addr, align 8
  call void @llvm.dbg.declare(metadata %"class.dealii::Point"** %p.addr, metadata !9621, metadata !DIExpression()), !dbg !9622
  store i32 %0, i32* %.addr, align 4
  call void @llvm.dbg.declare(metadata i32* %.addr, metadata !9623, metadata !DIExpression()), !dbg !9624
  %this1 = load %"class.dealii::Functions::Q1WedgeFunction"*, %"class.dealii::Functions::Q1WedgeFunction"** %this.addr, align 8
  call void @llvm.dbg.declare(metadata i8** %result.ptr, metadata !9625, metadata !DIExpression(DW_OP_deref)), !dbg !9626
  call void @_ZN6dealii6TensorILi1ELi1EEC2Eb(%"class.dealii::Tensor"* %agg.result, i1 zeroext true), !dbg !9626
  %2 = load %"class.dealii::Point"*, %"class.dealii::Point"** %p.addr, align 8, !dbg !9627
  %call = call double @_ZNK6dealii5PointILi1EEclEj(%"class.dealii::Point"* %2, i32 1), !dbg !9627
  %call2 = call dereferenceable(8) double* @_ZN6dealii6TensorILi1ELi1EEixEj(%"class.dealii::Tensor"* %agg.result, i32 0), !dbg !9628
  store double %call, double* %call2, align 8, !dbg !9629
  %3 = load %"class.dealii::Point"*, %"class.dealii::Point"** %p.addr, align 8, !dbg !9630
  %call3 = call double @_ZNK6dealii5PointILi1EEclEj(%"class.dealii::Point"* %3, i32 0), !dbg !9630
  %call4 = call dereferenceable(8) double* @_ZN6dealii6TensorILi1ELi1EEixEj(%"class.dealii::Tensor"* %agg.result, i32 1), !dbg !9631
  store double %call3, double* %call4, align 8, !dbg !9632
  ret void, !dbg !9633
}

; Function Attrs: noinline nounwind uwtable
define linkonce_odr dso_local void @_ZN6dealii6TensorILi1ELi1EEC2Eb(%"class.dealii::Tensor"* %this, i1 zeroext %initialize) unnamed_addr #2 comdat align 2 !dbg !9634 {
entry:
  %this.addr = alloca %"class.dealii::Tensor"*, align 8
  %initialize.addr = alloca i8, align 1
  %i = alloca i32, align 4
  store %"class.dealii::Tensor"* %this, %"class.dealii::Tensor"** %this.addr, align 8
  call void @llvm.dbg.declare(metadata %"class.dealii::Tensor"** %this.addr, metadata !9635, metadata !DIExpression()), !dbg !9636
  %frombool = zext i1 %initialize to i8
  store i8 %frombool, i8* %initialize.addr, align 1
  call void @llvm.dbg.declare(metadata i8* %initialize.addr, metadata !9637, metadata !DIExpression()), !dbg !9638
  %this1 = load %"class.dealii::Tensor"*, %"class.dealii::Tensor"** %this.addr, align 8
  %0 = load i8, i8* %initialize.addr, align 1, !dbg !9639
  %tobool = trunc i8 %0 to i1, !dbg !9639
  br i1 %tobool, label %if.then, label %if.end, !dbg !9642

if.then:                                          ; preds = %entry
  call void @llvm.dbg.declare(metadata i32* %i, metadata !9643, metadata !DIExpression()), !dbg !9645
  store i32 0, i32* %i, align 4, !dbg !9645
  br label %for.cond, !dbg !9646

for.cond:                                         ; preds = %for.inc, %if.then
  %1 = load i32, i32* %i, align 4, !dbg !9647
  %cmp = icmp ne i32 %1, 1, !dbg !9649
  br i1 %cmp, label %for.body, label %for.end, !dbg !9650

for.body:                                         ; preds = %for.cond
  %values = getelementptr inbounds %"class.dealii::Tensor", %"class.dealii::Tensor"* %this1, i32 0, i32 0, !dbg !9651
  %2 = load i32, i32* %i, align 4, !dbg !9652
  %idxprom = zext i32 %2 to i64, !dbg !9651
  %arrayidx = getelementptr inbounds [1 x double], [1 x double]* %values, i64 0, i64 %idxprom, !dbg !9651
  store double 0.000000e+00, double* %arrayidx, align 8, !dbg !9653
  br label %for.inc, !dbg !9651

for.inc:                                          ; preds = %for.body
  %3 = load i32, i32* %i, align 4, !dbg !9654
  %inc = add i32 %3, 1, !dbg !9654
  store i32 %inc, i32* %i, align 4, !dbg !9654
  br label %for.cond, !dbg !9655, !llvm.loop !9656

for.end:                                          ; preds = %for.cond
  br label %if.end, !dbg !9657

if.end:                                           ; preds = %for.end, %entry
  ret void, !dbg !9658
}

; Function Attrs: noinline nounwind uwtable
define linkonce_odr dso_local dereferenceable(8) double* @_ZN6dealii6TensorILi1ELi1EEixEj(%"class.dealii::Tensor"* %this, i32 %index) #2 comdat align 2 !dbg !9659 {
entry:
  %this.addr = alloca %"class.dealii::Tensor"*, align 8
  %index.addr = alloca i32, align 4
  store %"class.dealii::Tensor"* %this, %"class.dealii::Tensor"** %this.addr, align 8
  call void @llvm.dbg.declare(metadata %"class.dealii::Tensor"** %this.addr, metadata !9660, metadata !DIExpression()), !dbg !9661
  store i32 %index, i32* %index.addr, align 4
  call void @llvm.dbg.declare(metadata i32* %index.addr, metadata !9662, metadata !DIExpression()), !dbg !9663
  %this1 = load %"class.dealii::Tensor"*, %"class.dealii::Tensor"** %this.addr, align 8
  %values = getelementptr inbounds %"class.dealii::Tensor", %"class.dealii::Tensor"* %this1, i32 0, i32 0, !dbg !9664
  %0 = load i32, i32* %index.addr, align 4, !dbg !9665
  %idxprom = zext i32 %0 to i64, !dbg !9664
  %arrayidx = getelementptr inbounds [1 x double], [1 x double]* %values, i64 0, i64 %idxprom, !dbg !9664
  ret double* %arrayidx, !dbg !9666
}

; Function Attrs: noinline uwtable
define weak_odr dso_local void @_ZNK6dealii9Functions15Q1WedgeFunctionILi1EE13gradient_listERKSt6vectorINS_5PointILi1EEESaIS5_EERS3_INS_6TensorILi1ELi1EEESaISB_EEj(%"class.dealii::Functions::Q1WedgeFunction"* %this, %"class.std::vector"* dereferenceable(24) %points, %"class.std::vector.8"* dereferenceable(24) %gradients, i32 %0) unnamed_addr #0 comdat align 2 !dbg !9667 {
entry:
  %this.addr = alloca %"class.dealii::Functions::Q1WedgeFunction"*, align 8
  %points.addr = alloca %"class.std::vector"*, align 8
  %gradients.addr = alloca %"class.std::vector.8"*, align 8
  %.addr = alloca i32, align 4
  %i = alloca i32, align 4
  store %"class.dealii::Functions::Q1WedgeFunction"* %this, %"class.dealii::Functions::Q1WedgeFunction"** %this.addr, align 8
  call void @llvm.dbg.declare(metadata %"class.dealii::Functions::Q1WedgeFunction"** %this.addr, metadata !9668, metadata !DIExpression()), !dbg !9669
  store %"class.std::vector"* %points, %"class.std::vector"** %points.addr, align 8
  call void @llvm.dbg.declare(metadata %"class.std::vector"** %points.addr, metadata !9670, metadata !DIExpression()), !dbg !9671
  store %"class.std::vector.8"* %gradients, %"class.std::vector.8"** %gradients.addr, align 8
  call void @llvm.dbg.declare(metadata %"class.std::vector.8"** %gradients.addr, metadata !9672, metadata !DIExpression()), !dbg !9673
  store i32 %0, i32* %.addr, align 4
  call void @llvm.dbg.declare(metadata i32* %.addr, metadata !9674, metadata !DIExpression()), !dbg !9675
  %this1 = load %"class.dealii::Functions::Q1WedgeFunction"*, %"class.dealii::Functions::Q1WedgeFunction"** %this.addr, align 8
  call void @llvm.dbg.declare(metadata i32* %i, metadata !9676, metadata !DIExpression()), !dbg !9678
  store i32 0, i32* %i, align 4, !dbg !9678
  br label %for.cond, !dbg !9679

for.cond:                                         ; preds = %for.inc, %entry
  %1 = load i32, i32* %i, align 4, !dbg !9680
  %conv = zext i32 %1 to i64, !dbg !9680
  %2 = load %"class.std::vector"*, %"class.std::vector"** %points.addr, align 8, !dbg !9682
  %call = call i64 @_ZNKSt6vectorIN6dealii5PointILi1EEESaIS2_EE4sizeEv(%"class.std::vector"* %2) #11, !dbg !9683
  %cmp = icmp ult i64 %conv, %call, !dbg !9684
  br i1 %cmp, label %for.body, label %for.end, !dbg !9685

for.body:                                         ; preds = %for.cond
  %3 = load %"class.std::vector"*, %"class.std::vector"** %points.addr, align 8, !dbg !9686
  %4 = load i32, i32* %i, align 4, !dbg !9688
  %conv2 = zext i32 %4 to i64, !dbg !9688
  %call3 = call dereferenceable(8) %"class.dealii::Point"* @_ZNKSt6vectorIN6dealii5PointILi1EEESaIS2_EEixEm(%"class.std::vector"* %3, i64 %conv2) #11, !dbg !9686
  %call4 = call double @_ZNK6dealii5PointILi1EEclEj(%"class.dealii::Point"* %call3, i32 1), !dbg !9686
  %5 = load %"class.std::vector.8"*, %"class.std::vector.8"** %gradients.addr, align 8, !dbg !9689
  %6 = load i32, i32* %i, align 4, !dbg !9690
  %conv5 = zext i32 %6 to i64, !dbg !9690
  %call6 = call dereferenceable(8) %"class.dealii::Tensor"* @_ZNSt6vectorIN6dealii6TensorILi1ELi1EEESaIS2_EEixEm(%"class.std::vector.8"* %5, i64 %conv5) #11, !dbg !9689
  %call7 = call dereferenceable(8) double* @_ZN6dealii6TensorILi1ELi1EEixEj(%"class.dealii::Tensor"* %call6, i32 0), !dbg !9689
  store double %call4, double* %call7, align 8, !dbg !9691
  %7 = load %"class.std::vector"*, %"class.std::vector"** %points.addr, align 8, !dbg !9692
  %8 = load i32, i32* %i, align 4, !dbg !9693
  %conv8 = zext i32 %8 to i64, !dbg !9693
  %call9 = call dereferenceable(8) %"class.dealii::Point"* @_ZNKSt6vectorIN6dealii5PointILi1EEESaIS2_EEixEm(%"class.std::vector"* %7, i64 %conv8) #11, !dbg !9692
  %call10 = call double @_ZNK6dealii5PointILi1EEclEj(%"class.dealii::Point"* %call9, i32 0), !dbg !9692
  %9 = load %"class.std::vector.8"*, %"class.std::vector.8"** %gradients.addr, align 8, !dbg !9694
  %10 = load i32, i32* %i, align 4, !dbg !9695
  %conv11 = zext i32 %10 to i64, !dbg !9695
  %call12 = call dereferenceable(8) %"class.dealii::Tensor"* @_ZNSt6vectorIN6dealii6TensorILi1ELi1EEESaIS2_EEixEm(%"class.std::vector.8"* %9, i64 %conv11) #11, !dbg !9694
  %call13 = call dereferenceable(8) double* @_ZN6dealii6TensorILi1ELi1EEixEj(%"class.dealii::Tensor"* %call12, i32 1), !dbg !9694
  store double %call10, double* %call13, align 8, !dbg !9696
  br label %for.inc, !dbg !9697

for.inc:                                          ; preds = %for.body
  %11 = load i32, i32* %i, align 4, !dbg !9698
  %inc = add i32 %11, 1, !dbg !9698
  store i32 %inc, i32* %i, align 4, !dbg !9698
  br label %for.cond, !dbg !9699, !llvm.loop !9700

for.end:                                          ; preds = %for.cond
  ret void, !dbg !9702
}

; Function Attrs: noinline uwtable
define weak_odr dso_local void @_ZNK6dealii9Functions15Q1WedgeFunctionILi1EE20vector_gradient_listERKSt6vectorINS_5PointILi1EEESaIS5_EERS3_IS3_INS_6TensorILi1ELi1EEESaISB_EESaISD_EE(%"class.dealii::Functions::Q1WedgeFunction"* %this, %"class.std::vector"* dereferenceable(24) %points, %"class.std::vector.50"* dereferenceable(24) %gradients) unnamed_addr #0 comdat align 2 !dbg !9703 {
entry:
  %this.addr = alloca %"class.dealii::Functions::Q1WedgeFunction"*, align 8
  %points.addr = alloca %"class.std::vector"*, align 8
  %gradients.addr = alloca %"class.std::vector.50"*, align 8
  %i = alloca i32, align 4
  store %"class.dealii::Functions::Q1WedgeFunction"* %this, %"class.dealii::Functions::Q1WedgeFunction"** %this.addr, align 8
  call void @llvm.dbg.declare(metadata %"class.dealii::Functions::Q1WedgeFunction"** %this.addr, metadata !9704, metadata !DIExpression()), !dbg !9705
  store %"class.std::vector"* %points, %"class.std::vector"** %points.addr, align 8
  call void @llvm.dbg.declare(metadata %"class.std::vector"** %points.addr, metadata !9706, metadata !DIExpression()), !dbg !9707
  store %"class.std::vector.50"* %gradients, %"class.std::vector.50"** %gradients.addr, align 8
  call void @llvm.dbg.declare(metadata %"class.std::vector.50"** %gradients.addr, metadata !9708, metadata !DIExpression()), !dbg !9709
  %this1 = load %"class.dealii::Functions::Q1WedgeFunction"*, %"class.dealii::Functions::Q1WedgeFunction"** %this.addr, align 8
  call void @llvm.dbg.declare(metadata i32* %i, metadata !9710, metadata !DIExpression()), !dbg !9712
  store i32 0, i32* %i, align 4, !dbg !9712
  br label %for.cond, !dbg !9713

for.cond:                                         ; preds = %for.inc, %entry
  %0 = load i32, i32* %i, align 4, !dbg !9714
  %conv = zext i32 %0 to i64, !dbg !9714
  %1 = load %"class.std::vector"*, %"class.std::vector"** %points.addr, align 8, !dbg !9716
  %call = call i64 @_ZNKSt6vectorIN6dealii5PointILi1EEESaIS2_EE4sizeEv(%"class.std::vector"* %1) #11, !dbg !9717
  %cmp = icmp ult i64 %conv, %call, !dbg !9718
  br i1 %cmp, label %for.body, label %for.end, !dbg !9719

for.body:                                         ; preds = %for.cond
  %2 = load %"class.std::vector"*, %"class.std::vector"** %points.addr, align 8, !dbg !9720
  %3 = load i32, i32* %i, align 4, !dbg !9722
  %conv2 = zext i32 %3 to i64, !dbg !9722
  %call3 = call dereferenceable(8) %"class.dealii::Point"* @_ZNKSt6vectorIN6dealii5PointILi1EEESaIS2_EEixEm(%"class.std::vector"* %2, i64 %conv2) #11, !dbg !9720
  %call4 = call double @_ZNK6dealii5PointILi1EEclEj(%"class.dealii::Point"* %call3, i32 1), !dbg !9720
  %4 = load %"class.std::vector.50"*, %"class.std::vector.50"** %gradients.addr, align 8, !dbg !9723
  %5 = load i32, i32* %i, align 4, !dbg !9724
  %conv5 = zext i32 %5 to i64, !dbg !9724
  %call6 = call dereferenceable(24) %"class.std::vector.8"* @_ZNSt6vectorIS_IN6dealii6TensorILi1ELi1EEESaIS2_EESaIS4_EEixEm(%"class.std::vector.50"* %4, i64 %conv5) #11, !dbg !9723
  %call7 = call dereferenceable(8) %"class.dealii::Tensor"* @_ZNSt6vectorIN6dealii6TensorILi1ELi1EEESaIS2_EEixEm(%"class.std::vector.8"* %call6, i64 0) #11, !dbg !9723
  %call8 = call dereferenceable(8) double* @_ZN6dealii6TensorILi1ELi1EEixEj(%"class.dealii::Tensor"* %call7, i32 0), !dbg !9723
  store double %call4, double* %call8, align 8, !dbg !9725
  %6 = load %"class.std::vector"*, %"class.std::vector"** %points.addr, align 8, !dbg !9726
  %7 = load i32, i32* %i, align 4, !dbg !9727
  %conv9 = zext i32 %7 to i64, !dbg !9727
  %call10 = call dereferenceable(8) %"class.dealii::Point"* @_ZNKSt6vectorIN6dealii5PointILi1EEESaIS2_EEixEm(%"class.std::vector"* %6, i64 %conv9) #11, !dbg !9726
  %call11 = call double @_ZNK6dealii5PointILi1EEclEj(%"class.dealii::Point"* %call10, i32 0), !dbg !9726
  %8 = load %"class.std::vector.50"*, %"class.std::vector.50"** %gradients.addr, align 8, !dbg !9728
  %9 = load i32, i32* %i, align 4, !dbg !9729
  %conv12 = zext i32 %9 to i64, !dbg !9729
  %call13 = call dereferenceable(24) %"class.std::vector.8"* @_ZNSt6vectorIS_IN6dealii6TensorILi1ELi1EEESaIS2_EESaIS4_EEixEm(%"class.std::vector.50"* %8, i64 %conv12) #11, !dbg !9728
  %call14 = call dereferenceable(8) %"class.dealii::Tensor"* @_ZNSt6vectorIN6dealii6TensorILi1ELi1EEESaIS2_EEixEm(%"class.std::vector.8"* %call13, i64 0) #11, !dbg !9728
  %call15 = call dereferenceable(8) double* @_ZN6dealii6TensorILi1ELi1EEixEj(%"class.dealii::Tensor"* %call14, i32 1), !dbg !9728
  store double %call11, double* %call15, align 8, !dbg !9730
  br label %for.inc, !dbg !9731

for.inc:                                          ; preds = %for.body
  %10 = load i32, i32* %i, align 4, !dbg !9732
  %inc = add i32 %10, 1, !dbg !9732
  store i32 %inc, i32* %i, align 4, !dbg !9732
  br label %for.cond, !dbg !9733, !llvm.loop !9734

for.end:                                          ; preds = %for.cond
  ret void, !dbg !9736
}

; Function Attrs: noinline nounwind uwtable
define linkonce_odr dso_local dereferenceable(24) %"class.std::vector.8"* @_ZNSt6vectorIS_IN6dealii6TensorILi1ELi1EEESaIS2_EESaIS4_EEixEm(%"class.std::vector.50"* %this, i64 %__n) #2 comdat align 2 !dbg !9737 {
entry:
  %this.addr = alloca %"class.std::vector.50"*, align 8
  %__n.addr = alloca i64, align 8
  store %"class.std::vector.50"* %this, %"class.std::vector.50"** %this.addr, align 8
  call void @llvm.dbg.declare(metadata %"class.std::vector.50"** %this.addr, metadata !9738, metadata !DIExpression()), !dbg !9740
  store i64 %__n, i64* %__n.addr, align 8
  call void @llvm.dbg.declare(metadata i64* %__n.addr, metadata !9741, metadata !DIExpression()), !dbg !9742
  %this1 = load %"class.std::vector.50"*, %"class.std::vector.50"** %this.addr, align 8
  %0 = bitcast %"class.std::vector.50"* %this1 to %"struct.std::_Vector_base.51"*, !dbg !9743
  %_M_impl = getelementptr inbounds %"struct.std::_Vector_base.51", %"struct.std::_Vector_base.51"* %0, i32 0, i32 0, !dbg !9743
  %1 = bitcast %"struct.std::_Vector_base<std::vector<dealii::Tensor<1, 1>, std::allocator<dealii::Tensor<1, 1> > >, std::allocator<std::vector<dealii::Tensor<1, 1>, std::allocator<dealii::Tensor<1, 1> > > > >::_Vector_impl"* %_M_impl to %"struct.std::_Vector_base<std::vector<dealii::Tensor<1, 1>, std::allocator<dealii::Tensor<1, 1> > >, std::allocator<std::vector<dealii::Tensor<1, 1>, std::allocator<dealii::Tensor<1, 1> > > > >::_Vector_impl_data"*, !dbg !9744
  %_M_start = getelementptr inbounds %"struct.std::_Vector_base<std::vector<dealii::Tensor<1, 1>, std::allocator<dealii::Tensor<1, 1> > >, std::allocator<std::vector<dealii::Tensor<1, 1>, std::allocator<dealii::Tensor<1, 1> > > > >::_Vector_impl_data", %"struct.std::_Vector_base<std::vector<dealii::Tensor<1, 1>, std::allocator<dealii::Tensor<1, 1> > >, std::allocator<std::vector<dealii::Tensor<1, 1>, std::allocator<dealii::Tensor<1, 1> > > > >::_Vector_impl_data"* %1, i32 0, i32 0, !dbg !9745
  %2 = load %"class.std::vector.8"*, %"class.std::vector.8"** %_M_start, align 8, !dbg !9745
  %3 = load i64, i64* %__n.addr, align 8, !dbg !9746
  %add.ptr = getelementptr inbounds %"class.std::vector.8", %"class.std::vector.8"* %2, i64 %3, !dbg !9747
  ret %"class.std::vector.8"* %add.ptr, !dbg !9748
}

; Function Attrs: noinline nounwind uwtable
define weak_odr dso_local double @_ZNK6dealii9Functions15Q1WedgeFunctionILi1EE9laplacianERKNS_5PointILi1EEEj(%"class.dealii::Functions::Q1WedgeFunction"* %this, %"class.dealii::Point"* dereferenceable(8) %0, i32 %1) unnamed_addr #2 comdat align 2 !dbg !9749 {
entry:
  %this.addr = alloca %"class.dealii::Functions::Q1WedgeFunction"*, align 8
  %.addr = alloca %"class.dealii::Point"*, align 8
  %.addr1 = alloca i32, align 4
  store %"class.dealii::Functions::Q1WedgeFunction"* %this, %"class.dealii::Functions::Q1WedgeFunction"** %this.addr, align 8
  call void @llvm.dbg.declare(metadata %"class.dealii::Functions::Q1WedgeFunction"** %this.addr, metadata !9750, metadata !DIExpression()), !dbg !9751
  store %"class.dealii::Point"* %0, %"class.dealii::Point"** %.addr, align 8
  call void @llvm.dbg.declare(metadata %"class.dealii::Point"** %.addr, metadata !9752, metadata !DIExpression()), !dbg !9753
  store i32 %1, i32* %.addr1, align 4
  call void @llvm.dbg.declare(metadata i32* %.addr1, metadata !9754, metadata !DIExpression()), !dbg !9755
  %this2 = load %"class.dealii::Functions::Q1WedgeFunction"*, %"class.dealii::Functions::Q1WedgeFunction"** %this.addr, align 8
  ret double 0.000000e+00, !dbg !9756
}

; Function Attrs: noinline nounwind uwtable
define weak_odr dso_local void @_ZNK6dealii9Functions15Q1WedgeFunctionILi1EE14laplacian_listERKSt6vectorINS_5PointILi1EEESaIS5_EERS3_IdSaIdEEj(%"class.dealii::Functions::Q1WedgeFunction"* %this, %"class.std::vector"* dereferenceable(24) %points, %"class.std::vector.3"* dereferenceable(24) %values, i32 %0) unnamed_addr #2 comdat align 2 !dbg !9757 {
entry:
  %this.addr = alloca %"class.dealii::Functions::Q1WedgeFunction"*, align 8
  %points.addr = alloca %"class.std::vector"*, align 8
  %values.addr = alloca %"class.std::vector.3"*, align 8
  %.addr = alloca i32, align 4
  %i = alloca i32, align 4
  store %"class.dealii::Functions::Q1WedgeFunction"* %this, %"class.dealii::Functions::Q1WedgeFunction"** %this.addr, align 8
  call void @llvm.dbg.declare(metadata %"class.dealii::Functions::Q1WedgeFunction"** %this.addr, metadata !9758, metadata !DIExpression()), !dbg !9759
  store %"class.std::vector"* %points, %"class.std::vector"** %points.addr, align 8
  call void @llvm.dbg.declare(metadata %"class.std::vector"** %points.addr, metadata !9760, metadata !DIExpression()), !dbg !9761
  store %"class.std::vector.3"* %values, %"class.std::vector.3"** %values.addr, align 8
  call void @llvm.dbg.declare(metadata %"class.std::vector.3"** %values.addr, metadata !9762, metadata !DIExpression()), !dbg !9763
  store i32 %0, i32* %.addr, align 4
  call void @llvm.dbg.declare(metadata i32* %.addr, metadata !9764, metadata !DIExpression()), !dbg !9765
  %this1 = load %"class.dealii::Functions::Q1WedgeFunction"*, %"class.dealii::Functions::Q1WedgeFunction"** %this.addr, align 8
  call void @llvm.dbg.declare(metadata i32* %i, metadata !9766, metadata !DIExpression()), !dbg !9768
  store i32 0, i32* %i, align 4, !dbg !9768
  br label %for.cond, !dbg !9769

for.cond:                                         ; preds = %for.inc, %entry
  %1 = load i32, i32* %i, align 4, !dbg !9770
  %conv = zext i32 %1 to i64, !dbg !9770
  %2 = load %"class.std::vector"*, %"class.std::vector"** %points.addr, align 8, !dbg !9772
  %call = call i64 @_ZNKSt6vectorIN6dealii5PointILi1EEESaIS2_EE4sizeEv(%"class.std::vector"* %2) #11, !dbg !9773
  %cmp = icmp ult i64 %conv, %call, !dbg !9774
  br i1 %cmp, label %for.body, label %for.end, !dbg !9775

for.body:                                         ; preds = %for.cond
  %3 = load %"class.std::vector.3"*, %"class.std::vector.3"** %values.addr, align 8, !dbg !9776
  %4 = load i32, i32* %i, align 4, !dbg !9777
  %conv2 = zext i32 %4 to i64, !dbg !9777
  %call3 = call dereferenceable(8) double* @_ZNSt6vectorIdSaIdEEixEm(%"class.std::vector.3"* %3, i64 %conv2) #11, !dbg !9776
  store double 0.000000e+00, double* %call3, align 8, !dbg !9778
  br label %for.inc, !dbg !9776

for.inc:                                          ; preds = %for.body
  %5 = load i32, i32* %i, align 4, !dbg !9779
  %inc = add i32 %5, 1, !dbg !9779
  store i32 %inc, i32* %i, align 4, !dbg !9779
  br label %for.cond, !dbg !9780, !llvm.loop !9781

for.end:                                          ; preds = %for.cond
  ret void, !dbg !9783
}

; Function Attrs: noinline uwtable
define weak_odr dso_local double @_ZNK6dealii9Functions15Q1WedgeFunctionILi2EE5valueERKNS_5PointILi2EEEj(%"class.dealii::Functions::Q1WedgeFunction.55"* %this, %"class.dealii::Point.17"* dereferenceable(16) %p, i32 %0) unnamed_addr #0 comdat align 2 !dbg !9784 {
entry:
  %this.addr = alloca %"class.dealii::Functions::Q1WedgeFunction.55"*, align 8
  %p.addr = alloca %"class.dealii::Point.17"*, align 8
  %.addr = alloca i32, align 4
  store %"class.dealii::Functions::Q1WedgeFunction.55"* %this, %"class.dealii::Functions::Q1WedgeFunction.55"** %this.addr, align 8
  call void @llvm.dbg.declare(metadata %"class.dealii::Functions::Q1WedgeFunction.55"** %this.addr, metadata !9785, metadata !DIExpression()), !dbg !9787
  store %"class.dealii::Point.17"* %p, %"class.dealii::Point.17"** %p.addr, align 8
  call void @llvm.dbg.declare(metadata %"class.dealii::Point.17"** %p.addr, metadata !9788, metadata !DIExpression()), !dbg !9789
  store i32 %0, i32* %.addr, align 4
  call void @llvm.dbg.declare(metadata i32* %.addr, metadata !9790, metadata !DIExpression()), !dbg !9791
  %this1 = load %"class.dealii::Functions::Q1WedgeFunction.55"*, %"class.dealii::Functions::Q1WedgeFunction.55"** %this.addr, align 8
  %1 = load %"class.dealii::Point.17"*, %"class.dealii::Point.17"** %p.addr, align 8, !dbg !9792
  %call = call double @_ZNK6dealii5PointILi2EEclEj(%"class.dealii::Point.17"* %1, i32 0), !dbg !9792
  %2 = load %"class.dealii::Point.17"*, %"class.dealii::Point.17"** %p.addr, align 8, !dbg !9793
  %call2 = call double @_ZNK6dealii5PointILi2EEclEj(%"class.dealii::Point.17"* %2, i32 1), !dbg !9793
  %mul = fmul double %call, %call2, !dbg !9794
  ret double %mul, !dbg !9795
}

; Function Attrs: noinline nounwind uwtable
define linkonce_odr dso_local double @_ZNK6dealii5PointILi2EEclEj(%"class.dealii::Point.17"* %this, i32 %index) #2 comdat align 2 !dbg !9796 {
entry:
  %this.addr = alloca %"class.dealii::Point.17"*, align 8
  %index.addr = alloca i32, align 4
  store %"class.dealii::Point.17"* %this, %"class.dealii::Point.17"** %this.addr, align 8
  call void @llvm.dbg.declare(metadata %"class.dealii::Point.17"** %this.addr, metadata !9797, metadata !DIExpression()), !dbg !9798
  store i32 %index, i32* %index.addr, align 4
  call void @llvm.dbg.declare(metadata i32* %index.addr, metadata !9799, metadata !DIExpression()), !dbg !9800
  %this1 = load %"class.dealii::Point.17"*, %"class.dealii::Point.17"** %this.addr, align 8
  %0 = bitcast %"class.dealii::Point.17"* %this1 to %"class.dealii::Tensor.18"*, !dbg !9801
  %values = getelementptr inbounds %"class.dealii::Tensor.18", %"class.dealii::Tensor.18"* %0, i32 0, i32 0, !dbg !9801
  %1 = load i32, i32* %index.addr, align 4, !dbg !9802
  %idxprom = zext i32 %1 to i64, !dbg !9803
  %arrayidx = getelementptr inbounds [2 x double], [2 x double]* %values, i64 0, i64 %idxprom, !dbg !9803
  %2 = load double, double* %arrayidx, align 8, !dbg !9803
  ret double %2, !dbg !9804
}

; Function Attrs: noinline uwtable
define weak_odr dso_local void @_ZNK6dealii9Functions15Q1WedgeFunctionILi2EE10value_listERKSt6vectorINS_5PointILi2EEESaIS5_EERS3_IdSaIdEEj(%"class.dealii::Functions::Q1WedgeFunction.55"* %this, %"class.std::vector.19"* dereferenceable(24) %points, %"class.std::vector.3"* dereferenceable(24) %values, i32 %0) unnamed_addr #0 comdat align 2 !dbg !9805 {
entry:
  %this.addr = alloca %"class.dealii::Functions::Q1WedgeFunction.55"*, align 8
  %points.addr = alloca %"class.std::vector.19"*, align 8
  %values.addr = alloca %"class.std::vector.3"*, align 8
  %.addr = alloca i32, align 4
  %i = alloca i32, align 4
  %p = alloca %"class.dealii::Point.17"*, align 8
  store %"class.dealii::Functions::Q1WedgeFunction.55"* %this, %"class.dealii::Functions::Q1WedgeFunction.55"** %this.addr, align 8
  call void @llvm.dbg.declare(metadata %"class.dealii::Functions::Q1WedgeFunction.55"** %this.addr, metadata !9806, metadata !DIExpression()), !dbg !9807
  store %"class.std::vector.19"* %points, %"class.std::vector.19"** %points.addr, align 8
  call void @llvm.dbg.declare(metadata %"class.std::vector.19"** %points.addr, metadata !9808, metadata !DIExpression()), !dbg !9809
  store %"class.std::vector.3"* %values, %"class.std::vector.3"** %values.addr, align 8
  call void @llvm.dbg.declare(metadata %"class.std::vector.3"** %values.addr, metadata !9810, metadata !DIExpression()), !dbg !9811
  store i32 %0, i32* %.addr, align 4
  call void @llvm.dbg.declare(metadata i32* %.addr, metadata !9812, metadata !DIExpression()), !dbg !9813
  %this1 = load %"class.dealii::Functions::Q1WedgeFunction.55"*, %"class.dealii::Functions::Q1WedgeFunction.55"** %this.addr, align 8
  call void @llvm.dbg.declare(metadata i32* %i, metadata !9814, metadata !DIExpression()), !dbg !9816
  store i32 0, i32* %i, align 4, !dbg !9816
  br label %for.cond, !dbg !9817

for.cond:                                         ; preds = %for.inc, %entry
  %1 = load i32, i32* %i, align 4, !dbg !9818
  %conv = zext i32 %1 to i64, !dbg !9818
  %2 = load %"class.std::vector.19"*, %"class.std::vector.19"** %points.addr, align 8, !dbg !9820
  %call = call i64 @_ZNKSt6vectorIN6dealii5PointILi2EEESaIS2_EE4sizeEv(%"class.std::vector.19"* %2) #11, !dbg !9821
  %cmp = icmp ult i64 %conv, %call, !dbg !9822
  br i1 %cmp, label %for.body, label %for.end, !dbg !9823

for.body:                                         ; preds = %for.cond
  call void @llvm.dbg.declare(metadata %"class.dealii::Point.17"** %p, metadata !9824, metadata !DIExpression()), !dbg !9826
  %3 = load %"class.std::vector.19"*, %"class.std::vector.19"** %points.addr, align 8, !dbg !9827
  %4 = load i32, i32* %i, align 4, !dbg !9828
  %conv2 = zext i32 %4 to i64, !dbg !9828
  %call3 = call dereferenceable(16) %"class.dealii::Point.17"* @_ZNKSt6vectorIN6dealii5PointILi2EEESaIS2_EEixEm(%"class.std::vector.19"* %3, i64 %conv2) #11, !dbg !9827
  store %"class.dealii::Point.17"* %call3, %"class.dealii::Point.17"** %p, align 8, !dbg !9826
  %5 = load %"class.dealii::Point.17"*, %"class.dealii::Point.17"** %p, align 8, !dbg !9829
  %call4 = call double @_ZNK6dealii5PointILi2EEclEj(%"class.dealii::Point.17"* %5, i32 0), !dbg !9829
  %6 = load %"class.dealii::Point.17"*, %"class.dealii::Point.17"** %p, align 8, !dbg !9830
  %call5 = call double @_ZNK6dealii5PointILi2EEclEj(%"class.dealii::Point.17"* %6, i32 1), !dbg !9830
  %mul = fmul double %call4, %call5, !dbg !9831
  %7 = load %"class.std::vector.3"*, %"class.std::vector.3"** %values.addr, align 8, !dbg !9832
  %8 = load i32, i32* %i, align 4, !dbg !9833
  %conv6 = zext i32 %8 to i64, !dbg !9833
  %call7 = call dereferenceable(8) double* @_ZNSt6vectorIdSaIdEEixEm(%"class.std::vector.3"* %7, i64 %conv6) #11, !dbg !9832
  store double %mul, double* %call7, align 8, !dbg !9834
  br label %for.inc, !dbg !9835

for.inc:                                          ; preds = %for.body
  %9 = load i32, i32* %i, align 4, !dbg !9836
  %inc = add i32 %9, 1, !dbg !9836
  store i32 %inc, i32* %i, align 4, !dbg !9836
  br label %for.cond, !dbg !9837, !llvm.loop !9838

for.end:                                          ; preds = %for.cond
  ret void, !dbg !9840
}

; Function Attrs: noinline uwtable
define weak_odr dso_local void @_ZNK6dealii9Functions15Q1WedgeFunctionILi2EE17vector_value_listERKSt6vectorINS_5PointILi2EEESaIS5_EERS3_INS_6VectorIdEESaISB_EE(%"class.dealii::Functions::Q1WedgeFunction.55"* %this, %"class.std::vector.19"* dereferenceable(24) %points, %"class.std::vector.45"* dereferenceable(24) %values) unnamed_addr #0 comdat align 2 !dbg !9841 {
entry:
  %this.addr = alloca %"class.dealii::Functions::Q1WedgeFunction.55"*, align 8
  %points.addr = alloca %"class.std::vector.19"*, align 8
  %values.addr = alloca %"class.std::vector.45"*, align 8
  %i = alloca i32, align 4
  %p = alloca %"class.dealii::Point.17"*, align 8
  store %"class.dealii::Functions::Q1WedgeFunction.55"* %this, %"class.dealii::Functions::Q1WedgeFunction.55"** %this.addr, align 8
  call void @llvm.dbg.declare(metadata %"class.dealii::Functions::Q1WedgeFunction.55"** %this.addr, metadata !9842, metadata !DIExpression()), !dbg !9843
  store %"class.std::vector.19"* %points, %"class.std::vector.19"** %points.addr, align 8
  call void @llvm.dbg.declare(metadata %"class.std::vector.19"** %points.addr, metadata !9844, metadata !DIExpression()), !dbg !9845
  store %"class.std::vector.45"* %values, %"class.std::vector.45"** %values.addr, align 8
  call void @llvm.dbg.declare(metadata %"class.std::vector.45"** %values.addr, metadata !9846, metadata !DIExpression()), !dbg !9847
  %this1 = load %"class.dealii::Functions::Q1WedgeFunction.55"*, %"class.dealii::Functions::Q1WedgeFunction.55"** %this.addr, align 8
  call void @llvm.dbg.declare(metadata i32* %i, metadata !9848, metadata !DIExpression()), !dbg !9850
  store i32 0, i32* %i, align 4, !dbg !9850
  br label %for.cond, !dbg !9851

for.cond:                                         ; preds = %for.inc, %entry
  %0 = load i32, i32* %i, align 4, !dbg !9852
  %conv = zext i32 %0 to i64, !dbg !9852
  %1 = load %"class.std::vector.19"*, %"class.std::vector.19"** %points.addr, align 8, !dbg !9854
  %call = call i64 @_ZNKSt6vectorIN6dealii5PointILi2EEESaIS2_EE4sizeEv(%"class.std::vector.19"* %1) #11, !dbg !9855
  %cmp = icmp ult i64 %conv, %call, !dbg !9856
  br i1 %cmp, label %for.body, label %for.end, !dbg !9857

for.body:                                         ; preds = %for.cond
  call void @llvm.dbg.declare(metadata %"class.dealii::Point.17"** %p, metadata !9858, metadata !DIExpression()), !dbg !9860
  %2 = load %"class.std::vector.19"*, %"class.std::vector.19"** %points.addr, align 8, !dbg !9861
  %3 = load i32, i32* %i, align 4, !dbg !9862
  %conv2 = zext i32 %3 to i64, !dbg !9862
  %call3 = call dereferenceable(16) %"class.dealii::Point.17"* @_ZNKSt6vectorIN6dealii5PointILi2EEESaIS2_EEixEm(%"class.std::vector.19"* %2, i64 %conv2) #11, !dbg !9861
  store %"class.dealii::Point.17"* %call3, %"class.dealii::Point.17"** %p, align 8, !dbg !9860
  %4 = load %"class.dealii::Point.17"*, %"class.dealii::Point.17"** %p, align 8, !dbg !9863
  %call4 = call double @_ZNK6dealii5PointILi2EEclEj(%"class.dealii::Point.17"* %4, i32 0), !dbg !9863
  %5 = load %"class.dealii::Point.17"*, %"class.dealii::Point.17"** %p, align 8, !dbg !9864
  %call5 = call double @_ZNK6dealii5PointILi2EEclEj(%"class.dealii::Point.17"* %5, i32 1), !dbg !9864
  %mul = fmul double %call4, %call5, !dbg !9865
  %6 = load %"class.std::vector.45"*, %"class.std::vector.45"** %values.addr, align 8, !dbg !9866
  %7 = load i32, i32* %i, align 4, !dbg !9867
  %conv6 = zext i32 %7 to i64, !dbg !9867
  %call7 = call dereferenceable(88) %"class.dealii::Vector"* @_ZNSt6vectorIN6dealii6VectorIdEESaIS2_EEixEm(%"class.std::vector.45"* %6, i64 %conv6) #11, !dbg !9866
  %call8 = call dereferenceable(8) double* @_ZN6dealii6VectorIdEclEj(%"class.dealii::Vector"* %call7, i32 0), !dbg !9866
  store double %mul, double* %call8, align 8, !dbg !9868
  br label %for.inc, !dbg !9869

for.inc:                                          ; preds = %for.body
  %8 = load i32, i32* %i, align 4, !dbg !9870
  %inc = add i32 %8, 1, !dbg !9870
  store i32 %inc, i32* %i, align 4, !dbg !9870
  br label %for.cond, !dbg !9871, !llvm.loop !9872

for.end:                                          ; preds = %for.cond
  ret void, !dbg !9874
}

; Function Attrs: noinline uwtable
define weak_odr dso_local void @_ZNK6dealii9Functions15Q1WedgeFunctionILi2EE8gradientERKNS_5PointILi2EEEj(%"class.dealii::Tensor.18"* noalias sret %agg.result, %"class.dealii::Functions::Q1WedgeFunction.55"* %this, %"class.dealii::Point.17"* dereferenceable(16) %p, i32 %0) unnamed_addr #0 comdat align 2 !dbg !9875 {
entry:
  %result.ptr = alloca i8*, align 8
  %this.addr = alloca %"class.dealii::Functions::Q1WedgeFunction.55"*, align 8
  %p.addr = alloca %"class.dealii::Point.17"*, align 8
  %.addr = alloca i32, align 4
  %1 = bitcast %"class.dealii::Tensor.18"* %agg.result to i8*
  store i8* %1, i8** %result.ptr, align 8
  store %"class.dealii::Functions::Q1WedgeFunction.55"* %this, %"class.dealii::Functions::Q1WedgeFunction.55"** %this.addr, align 8
  call void @llvm.dbg.declare(metadata %"class.dealii::Functions::Q1WedgeFunction.55"** %this.addr, metadata !9876, metadata !DIExpression()), !dbg !9877
  store %"class.dealii::Point.17"* %p, %"class.dealii::Point.17"** %p.addr, align 8
  call void @llvm.dbg.declare(metadata %"class.dealii::Point.17"** %p.addr, metadata !9878, metadata !DIExpression()), !dbg !9879
  store i32 %0, i32* %.addr, align 4
  call void @llvm.dbg.declare(metadata i32* %.addr, metadata !9880, metadata !DIExpression()), !dbg !9881
  %this1 = load %"class.dealii::Functions::Q1WedgeFunction.55"*, %"class.dealii::Functions::Q1WedgeFunction.55"** %this.addr, align 8
  call void @llvm.dbg.declare(metadata i8** %result.ptr, metadata !9882, metadata !DIExpression(DW_OP_deref)), !dbg !9883
  call void @_ZN6dealii6TensorILi1ELi2EEC2Eb(%"class.dealii::Tensor.18"* %agg.result, i1 zeroext true), !dbg !9883
  %2 = load %"class.dealii::Point.17"*, %"class.dealii::Point.17"** %p.addr, align 8, !dbg !9884
  %call = call double @_ZNK6dealii5PointILi2EEclEj(%"class.dealii::Point.17"* %2, i32 1), !dbg !9884
  %call2 = call dereferenceable(8) double* @_ZN6dealii6TensorILi1ELi2EEixEj(%"class.dealii::Tensor.18"* %agg.result, i32 0), !dbg !9885
  store double %call, double* %call2, align 8, !dbg !9886
  %3 = load %"class.dealii::Point.17"*, %"class.dealii::Point.17"** %p.addr, align 8, !dbg !9887
  %call3 = call double @_ZNK6dealii5PointILi2EEclEj(%"class.dealii::Point.17"* %3, i32 0), !dbg !9887
  %call4 = call dereferenceable(8) double* @_ZN6dealii6TensorILi1ELi2EEixEj(%"class.dealii::Tensor.18"* %agg.result, i32 1), !dbg !9888
  store double %call3, double* %call4, align 8, !dbg !9889
  ret void, !dbg !9890
}

; Function Attrs: noinline nounwind uwtable
define linkonce_odr dso_local void @_ZN6dealii6TensorILi1ELi2EEC2Eb(%"class.dealii::Tensor.18"* %this, i1 zeroext %initialize) unnamed_addr #2 comdat align 2 !dbg !9891 {
entry:
  %this.addr = alloca %"class.dealii::Tensor.18"*, align 8
  %initialize.addr = alloca i8, align 1
  %i = alloca i32, align 4
  store %"class.dealii::Tensor.18"* %this, %"class.dealii::Tensor.18"** %this.addr, align 8
  call void @llvm.dbg.declare(metadata %"class.dealii::Tensor.18"** %this.addr, metadata !9892, metadata !DIExpression()), !dbg !9893
  %frombool = zext i1 %initialize to i8
  store i8 %frombool, i8* %initialize.addr, align 1
  call void @llvm.dbg.declare(metadata i8* %initialize.addr, metadata !9894, metadata !DIExpression()), !dbg !9895
  %this1 = load %"class.dealii::Tensor.18"*, %"class.dealii::Tensor.18"** %this.addr, align 8
  %0 = load i8, i8* %initialize.addr, align 1, !dbg !9896
  %tobool = trunc i8 %0 to i1, !dbg !9896
  br i1 %tobool, label %if.then, label %if.end, !dbg !9899

if.then:                                          ; preds = %entry
  call void @llvm.dbg.declare(metadata i32* %i, metadata !9900, metadata !DIExpression()), !dbg !9902
  store i32 0, i32* %i, align 4, !dbg !9902
  br label %for.cond, !dbg !9903

for.cond:                                         ; preds = %for.inc, %if.then
  %1 = load i32, i32* %i, align 4, !dbg !9904
  %cmp = icmp ne i32 %1, 2, !dbg !9906
  br i1 %cmp, label %for.body, label %for.end, !dbg !9907

for.body:                                         ; preds = %for.cond
  %values = getelementptr inbounds %"class.dealii::Tensor.18", %"class.dealii::Tensor.18"* %this1, i32 0, i32 0, !dbg !9908
  %2 = load i32, i32* %i, align 4, !dbg !9909
  %idxprom = zext i32 %2 to i64, !dbg !9908
  %arrayidx = getelementptr inbounds [2 x double], [2 x double]* %values, i64 0, i64 %idxprom, !dbg !9908
  store double 0.000000e+00, double* %arrayidx, align 8, !dbg !9910
  br label %for.inc, !dbg !9908

for.inc:                                          ; preds = %for.body
  %3 = load i32, i32* %i, align 4, !dbg !9911
  %inc = add i32 %3, 1, !dbg !9911
  store i32 %inc, i32* %i, align 4, !dbg !9911
  br label %for.cond, !dbg !9912, !llvm.loop !9913

for.end:                                          ; preds = %for.cond
  br label %if.end, !dbg !9914

if.end:                                           ; preds = %for.end, %entry
  ret void, !dbg !9915
}

; Function Attrs: noinline nounwind uwtable
define linkonce_odr dso_local dereferenceable(8) double* @_ZN6dealii6TensorILi1ELi2EEixEj(%"class.dealii::Tensor.18"* %this, i32 %index) #2 comdat align 2 !dbg !9916 {
entry:
  %this.addr = alloca %"class.dealii::Tensor.18"*, align 8
  %index.addr = alloca i32, align 4
  store %"class.dealii::Tensor.18"* %this, %"class.dealii::Tensor.18"** %this.addr, align 8
  call void @llvm.dbg.declare(metadata %"class.dealii::Tensor.18"** %this.addr, metadata !9917, metadata !DIExpression()), !dbg !9918
  store i32 %index, i32* %index.addr, align 4
  call void @llvm.dbg.declare(metadata i32* %index.addr, metadata !9919, metadata !DIExpression()), !dbg !9920
  %this1 = load %"class.dealii::Tensor.18"*, %"class.dealii::Tensor.18"** %this.addr, align 8
  %values = getelementptr inbounds %"class.dealii::Tensor.18", %"class.dealii::Tensor.18"* %this1, i32 0, i32 0, !dbg !9921
  %0 = load i32, i32* %index.addr, align 4, !dbg !9922
  %idxprom = zext i32 %0 to i64, !dbg !9921
  %arrayidx = getelementptr inbounds [2 x double], [2 x double]* %values, i64 0, i64 %idxprom, !dbg !9921
  ret double* %arrayidx, !dbg !9923
}

; Function Attrs: noinline uwtable
define weak_odr dso_local void @_ZNK6dealii9Functions15Q1WedgeFunctionILi2EE13gradient_listERKSt6vectorINS_5PointILi2EEESaIS5_EERS3_INS_6TensorILi1ELi2EEESaISB_EEj(%"class.dealii::Functions::Q1WedgeFunction.55"* %this, %"class.std::vector.19"* dereferenceable(24) %points, %"class.std::vector.24"* dereferenceable(24) %gradients, i32 %0) unnamed_addr #0 comdat align 2 !dbg !9924 {
entry:
  %this.addr = alloca %"class.dealii::Functions::Q1WedgeFunction.55"*, align 8
  %points.addr = alloca %"class.std::vector.19"*, align 8
  %gradients.addr = alloca %"class.std::vector.24"*, align 8
  %.addr = alloca i32, align 4
  %i = alloca i32, align 4
  store %"class.dealii::Functions::Q1WedgeFunction.55"* %this, %"class.dealii::Functions::Q1WedgeFunction.55"** %this.addr, align 8
  call void @llvm.dbg.declare(metadata %"class.dealii::Functions::Q1WedgeFunction.55"** %this.addr, metadata !9925, metadata !DIExpression()), !dbg !9926
  store %"class.std::vector.19"* %points, %"class.std::vector.19"** %points.addr, align 8
  call void @llvm.dbg.declare(metadata %"class.std::vector.19"** %points.addr, metadata !9927, metadata !DIExpression()), !dbg !9928
  store %"class.std::vector.24"* %gradients, %"class.std::vector.24"** %gradients.addr, align 8
  call void @llvm.dbg.declare(metadata %"class.std::vector.24"** %gradients.addr, metadata !9929, metadata !DIExpression()), !dbg !9930
  store i32 %0, i32* %.addr, align 4
  call void @llvm.dbg.declare(metadata i32* %.addr, metadata !9931, metadata !DIExpression()), !dbg !9932
  %this1 = load %"class.dealii::Functions::Q1WedgeFunction.55"*, %"class.dealii::Functions::Q1WedgeFunction.55"** %this.addr, align 8
  call void @llvm.dbg.declare(metadata i32* %i, metadata !9933, metadata !DIExpression()), !dbg !9935
  store i32 0, i32* %i, align 4, !dbg !9935
  br label %for.cond, !dbg !9936

for.cond:                                         ; preds = %for.inc, %entry
  %1 = load i32, i32* %i, align 4, !dbg !9937
  %conv = zext i32 %1 to i64, !dbg !9937
  %2 = load %"class.std::vector.19"*, %"class.std::vector.19"** %points.addr, align 8, !dbg !9939
  %call = call i64 @_ZNKSt6vectorIN6dealii5PointILi2EEESaIS2_EE4sizeEv(%"class.std::vector.19"* %2) #11, !dbg !9940
  %cmp = icmp ult i64 %conv, %call, !dbg !9941
  br i1 %cmp, label %for.body, label %for.end, !dbg !9942

for.body:                                         ; preds = %for.cond
  %3 = load %"class.std::vector.19"*, %"class.std::vector.19"** %points.addr, align 8, !dbg !9943
  %4 = load i32, i32* %i, align 4, !dbg !9945
  %conv2 = zext i32 %4 to i64, !dbg !9945
  %call3 = call dereferenceable(16) %"class.dealii::Point.17"* @_ZNKSt6vectorIN6dealii5PointILi2EEESaIS2_EEixEm(%"class.std::vector.19"* %3, i64 %conv2) #11, !dbg !9943
  %call4 = call double @_ZNK6dealii5PointILi2EEclEj(%"class.dealii::Point.17"* %call3, i32 1), !dbg !9943
  %5 = load %"class.std::vector.24"*, %"class.std::vector.24"** %gradients.addr, align 8, !dbg !9946
  %6 = load i32, i32* %i, align 4, !dbg !9947
  %conv5 = zext i32 %6 to i64, !dbg !9947
  %call6 = call dereferenceable(16) %"class.dealii::Tensor.18"* @_ZNSt6vectorIN6dealii6TensorILi1ELi2EEESaIS2_EEixEm(%"class.std::vector.24"* %5, i64 %conv5) #11, !dbg !9946
  %call7 = call dereferenceable(8) double* @_ZN6dealii6TensorILi1ELi2EEixEj(%"class.dealii::Tensor.18"* %call6, i32 0), !dbg !9946
  store double %call4, double* %call7, align 8, !dbg !9948
  %7 = load %"class.std::vector.19"*, %"class.std::vector.19"** %points.addr, align 8, !dbg !9949
  %8 = load i32, i32* %i, align 4, !dbg !9950
  %conv8 = zext i32 %8 to i64, !dbg !9950
  %call9 = call dereferenceable(16) %"class.dealii::Point.17"* @_ZNKSt6vectorIN6dealii5PointILi2EEESaIS2_EEixEm(%"class.std::vector.19"* %7, i64 %conv8) #11, !dbg !9949
  %call10 = call double @_ZNK6dealii5PointILi2EEclEj(%"class.dealii::Point.17"* %call9, i32 0), !dbg !9949
  %9 = load %"class.std::vector.24"*, %"class.std::vector.24"** %gradients.addr, align 8, !dbg !9951
  %10 = load i32, i32* %i, align 4, !dbg !9952
  %conv11 = zext i32 %10 to i64, !dbg !9952
  %call12 = call dereferenceable(16) %"class.dealii::Tensor.18"* @_ZNSt6vectorIN6dealii6TensorILi1ELi2EEESaIS2_EEixEm(%"class.std::vector.24"* %9, i64 %conv11) #11, !dbg !9951
  %call13 = call dereferenceable(8) double* @_ZN6dealii6TensorILi1ELi2EEixEj(%"class.dealii::Tensor.18"* %call12, i32 1), !dbg !9951
  store double %call10, double* %call13, align 8, !dbg !9953
  br label %for.inc, !dbg !9954

for.inc:                                          ; preds = %for.body
  %11 = load i32, i32* %i, align 4, !dbg !9955
  %inc = add i32 %11, 1, !dbg !9955
  store i32 %inc, i32* %i, align 4, !dbg !9955
  br label %for.cond, !dbg !9956, !llvm.loop !9957

for.end:                                          ; preds = %for.cond
  ret void, !dbg !9959
}

; Function Attrs: noinline uwtable
define weak_odr dso_local void @_ZNK6dealii9Functions15Q1WedgeFunctionILi2EE20vector_gradient_listERKSt6vectorINS_5PointILi2EEESaIS5_EERS3_IS3_INS_6TensorILi1ELi2EEESaISB_EESaISD_EE(%"class.dealii::Functions::Q1WedgeFunction.55"* %this, %"class.std::vector.19"* dereferenceable(24) %points, %"class.std::vector.57"* dereferenceable(24) %gradients) unnamed_addr #0 comdat align 2 !dbg !9960 {
entry:
  %this.addr = alloca %"class.dealii::Functions::Q1WedgeFunction.55"*, align 8
  %points.addr = alloca %"class.std::vector.19"*, align 8
  %gradients.addr = alloca %"class.std::vector.57"*, align 8
  %i = alloca i32, align 4
  store %"class.dealii::Functions::Q1WedgeFunction.55"* %this, %"class.dealii::Functions::Q1WedgeFunction.55"** %this.addr, align 8
  call void @llvm.dbg.declare(metadata %"class.dealii::Functions::Q1WedgeFunction.55"** %this.addr, metadata !9961, metadata !DIExpression()), !dbg !9962
  store %"class.std::vector.19"* %points, %"class.std::vector.19"** %points.addr, align 8
  call void @llvm.dbg.declare(metadata %"class.std::vector.19"** %points.addr, metadata !9963, metadata !DIExpression()), !dbg !9964
  store %"class.std::vector.57"* %gradients, %"class.std::vector.57"** %gradients.addr, align 8
  call void @llvm.dbg.declare(metadata %"class.std::vector.57"** %gradients.addr, metadata !9965, metadata !DIExpression()), !dbg !9966
  %this1 = load %"class.dealii::Functions::Q1WedgeFunction.55"*, %"class.dealii::Functions::Q1WedgeFunction.55"** %this.addr, align 8
  call void @llvm.dbg.declare(metadata i32* %i, metadata !9967, metadata !DIExpression()), !dbg !9969
  store i32 0, i32* %i, align 4, !dbg !9969
  br label %for.cond, !dbg !9970

for.cond:                                         ; preds = %for.inc, %entry
  %0 = load i32, i32* %i, align 4, !dbg !9971
  %conv = zext i32 %0 to i64, !dbg !9971
  %1 = load %"class.std::vector.19"*, %"class.std::vector.19"** %points.addr, align 8, !dbg !9973
  %call = call i64 @_ZNKSt6vectorIN6dealii5PointILi2EEESaIS2_EE4sizeEv(%"class.std::vector.19"* %1) #11, !dbg !9974
  %cmp = icmp ult i64 %conv, %call, !dbg !9975
  br i1 %cmp, label %for.body, label %for.end, !dbg !9976

for.body:                                         ; preds = %for.cond
  %2 = load %"class.std::vector.19"*, %"class.std::vector.19"** %points.addr, align 8, !dbg !9977
  %3 = load i32, i32* %i, align 4, !dbg !9979
  %conv2 = zext i32 %3 to i64, !dbg !9979
  %call3 = call dereferenceable(16) %"class.dealii::Point.17"* @_ZNKSt6vectorIN6dealii5PointILi2EEESaIS2_EEixEm(%"class.std::vector.19"* %2, i64 %conv2) #11, !dbg !9977
  %call4 = call double @_ZNK6dealii5PointILi2EEclEj(%"class.dealii::Point.17"* %call3, i32 1), !dbg !9977
  %4 = load %"class.std::vector.57"*, %"class.std::vector.57"** %gradients.addr, align 8, !dbg !9980
  %5 = load i32, i32* %i, align 4, !dbg !9981
  %conv5 = zext i32 %5 to i64, !dbg !9981
  %call6 = call dereferenceable(24) %"class.std::vector.24"* @_ZNSt6vectorIS_IN6dealii6TensorILi1ELi2EEESaIS2_EESaIS4_EEixEm(%"class.std::vector.57"* %4, i64 %conv5) #11, !dbg !9980
  %call7 = call dereferenceable(16) %"class.dealii::Tensor.18"* @_ZNSt6vectorIN6dealii6TensorILi1ELi2EEESaIS2_EEixEm(%"class.std::vector.24"* %call6, i64 0) #11, !dbg !9980
  %call8 = call dereferenceable(8) double* @_ZN6dealii6TensorILi1ELi2EEixEj(%"class.dealii::Tensor.18"* %call7, i32 0), !dbg !9980
  store double %call4, double* %call8, align 8, !dbg !9982
  %6 = load %"class.std::vector.19"*, %"class.std::vector.19"** %points.addr, align 8, !dbg !9983
  %7 = load i32, i32* %i, align 4, !dbg !9984
  %conv9 = zext i32 %7 to i64, !dbg !9984
  %call10 = call dereferenceable(16) %"class.dealii::Point.17"* @_ZNKSt6vectorIN6dealii5PointILi2EEESaIS2_EEixEm(%"class.std::vector.19"* %6, i64 %conv9) #11, !dbg !9983
  %call11 = call double @_ZNK6dealii5PointILi2EEclEj(%"class.dealii::Point.17"* %call10, i32 0), !dbg !9983
  %8 = load %"class.std::vector.57"*, %"class.std::vector.57"** %gradients.addr, align 8, !dbg !9985
  %9 = load i32, i32* %i, align 4, !dbg !9986
  %conv12 = zext i32 %9 to i64, !dbg !9986
  %call13 = call dereferenceable(24) %"class.std::vector.24"* @_ZNSt6vectorIS_IN6dealii6TensorILi1ELi2EEESaIS2_EESaIS4_EEixEm(%"class.std::vector.57"* %8, i64 %conv12) #11, !dbg !9985
  %call14 = call dereferenceable(16) %"class.dealii::Tensor.18"* @_ZNSt6vectorIN6dealii6TensorILi1ELi2EEESaIS2_EEixEm(%"class.std::vector.24"* %call13, i64 0) #11, !dbg !9985
  %call15 = call dereferenceable(8) double* @_ZN6dealii6TensorILi1ELi2EEixEj(%"class.dealii::Tensor.18"* %call14, i32 1), !dbg !9985
  store double %call11, double* %call15, align 8, !dbg !9987
  br label %for.inc, !dbg !9988

for.inc:                                          ; preds = %for.body
  %10 = load i32, i32* %i, align 4, !dbg !9989
  %inc = add i32 %10, 1, !dbg !9989
  store i32 %inc, i32* %i, align 4, !dbg !9989
  br label %for.cond, !dbg !9990, !llvm.loop !9991

for.end:                                          ; preds = %for.cond
  ret void, !dbg !9993
}

; Function Attrs: noinline nounwind uwtable
define linkonce_odr dso_local dereferenceable(24) %"class.std::vector.24"* @_ZNSt6vectorIS_IN6dealii6TensorILi1ELi2EEESaIS2_EESaIS4_EEixEm(%"class.std::vector.57"* %this, i64 %__n) #2 comdat align 2 !dbg !9994 {
entry:
  %this.addr = alloca %"class.std::vector.57"*, align 8
  %__n.addr = alloca i64, align 8
  store %"class.std::vector.57"* %this, %"class.std::vector.57"** %this.addr, align 8
  call void @llvm.dbg.declare(metadata %"class.std::vector.57"** %this.addr, metadata !9995, metadata !DIExpression()), !dbg !9997
  store i64 %__n, i64* %__n.addr, align 8
  call void @llvm.dbg.declare(metadata i64* %__n.addr, metadata !9998, metadata !DIExpression()), !dbg !9999
  %this1 = load %"class.std::vector.57"*, %"class.std::vector.57"** %this.addr, align 8
  %0 = bitcast %"class.std::vector.57"* %this1 to %"struct.std::_Vector_base.58"*, !dbg !10000
  %_M_impl = getelementptr inbounds %"struct.std::_Vector_base.58", %"struct.std::_Vector_base.58"* %0, i32 0, i32 0, !dbg !10000
  %1 = bitcast %"struct.std::_Vector_base<std::vector<dealii::Tensor<1, 2>, std::allocator<dealii::Tensor<1, 2> > >, std::allocator<std::vector<dealii::Tensor<1, 2>, std::allocator<dealii::Tensor<1, 2> > > > >::_Vector_impl"* %_M_impl to %"struct.std::_Vector_base<std::vector<dealii::Tensor<1, 2>, std::allocator<dealii::Tensor<1, 2> > >, std::allocator<std::vector<dealii::Tensor<1, 2>, std::allocator<dealii::Tensor<1, 2> > > > >::_Vector_impl_data"*, !dbg !10001
  %_M_start = getelementptr inbounds %"struct.std::_Vector_base<std::vector<dealii::Tensor<1, 2>, std::allocator<dealii::Tensor<1, 2> > >, std::allocator<std::vector<dealii::Tensor<1, 2>, std::allocator<dealii::Tensor<1, 2> > > > >::_Vector_impl_data", %"struct.std::_Vector_base<std::vector<dealii::Tensor<1, 2>, std::allocator<dealii::Tensor<1, 2> > >, std::allocator<std::vector<dealii::Tensor<1, 2>, std::allocator<dealii::Tensor<1, 2> > > > >::_Vector_impl_data"* %1, i32 0, i32 0, !dbg !10002
  %2 = load %"class.std::vector.24"*, %"class.std::vector.24"** %_M_start, align 8, !dbg !10002
  %3 = load i64, i64* %__n.addr, align 8, !dbg !10003
  %add.ptr = getelementptr inbounds %"class.std::vector.24", %"class.std::vector.24"* %2, i64 %3, !dbg !10004
  ret %"class.std::vector.24"* %add.ptr, !dbg !10005
}

; Function Attrs: noinline nounwind uwtable
define weak_odr dso_local double @_ZNK6dealii9Functions15Q1WedgeFunctionILi2EE9laplacianERKNS_5PointILi2EEEj(%"class.dealii::Functions::Q1WedgeFunction.55"* %this, %"class.dealii::Point.17"* dereferenceable(16) %0, i32 %1) unnamed_addr #2 comdat align 2 !dbg !10006 {
entry:
  %this.addr = alloca %"class.dealii::Functions::Q1WedgeFunction.55"*, align 8
  %.addr = alloca %"class.dealii::Point.17"*, align 8
  %.addr1 = alloca i32, align 4
  store %"class.dealii::Functions::Q1WedgeFunction.55"* %this, %"class.dealii::Functions::Q1WedgeFunction.55"** %this.addr, align 8
  call void @llvm.dbg.declare(metadata %"class.dealii::Functions::Q1WedgeFunction.55"** %this.addr, metadata !10007, metadata !DIExpression()), !dbg !10008
  store %"class.dealii::Point.17"* %0, %"class.dealii::Point.17"** %.addr, align 8
  call void @llvm.dbg.declare(metadata %"class.dealii::Point.17"** %.addr, metadata !10009, metadata !DIExpression()), !dbg !10010
  store i32 %1, i32* %.addr1, align 4
  call void @llvm.dbg.declare(metadata i32* %.addr1, metadata !10011, metadata !DIExpression()), !dbg !10012
  %this2 = load %"class.dealii::Functions::Q1WedgeFunction.55"*, %"class.dealii::Functions::Q1WedgeFunction.55"** %this.addr, align 8
  ret double 0.000000e+00, !dbg !10013
}

; Function Attrs: noinline nounwind uwtable
define weak_odr dso_local void @_ZNK6dealii9Functions15Q1WedgeFunctionILi2EE14laplacian_listERKSt6vectorINS_5PointILi2EEESaIS5_EERS3_IdSaIdEEj(%"class.dealii::Functions::Q1WedgeFunction.55"* %this, %"class.std::vector.19"* dereferenceable(24) %points, %"class.std::vector.3"* dereferenceable(24) %values, i32 %0) unnamed_addr #2 comdat align 2 !dbg !10014 {
entry:
  %this.addr = alloca %"class.dealii::Functions::Q1WedgeFunction.55"*, align 8
  %points.addr = alloca %"class.std::vector.19"*, align 8
  %values.addr = alloca %"class.std::vector.3"*, align 8
  %.addr = alloca i32, align 4
  %i = alloca i32, align 4
  store %"class.dealii::Functions::Q1WedgeFunction.55"* %this, %"class.dealii::Functions::Q1WedgeFunction.55"** %this.addr, align 8
  call void @llvm.dbg.declare(metadata %"class.dealii::Functions::Q1WedgeFunction.55"** %this.addr, metadata !10015, metadata !DIExpression()), !dbg !10016
  store %"class.std::vector.19"* %points, %"class.std::vector.19"** %points.addr, align 8
  call void @llvm.dbg.declare(metadata %"class.std::vector.19"** %points.addr, metadata !10017, metadata !DIExpression()), !dbg !10018
  store %"class.std::vector.3"* %values, %"class.std::vector.3"** %values.addr, align 8
  call void @llvm.dbg.declare(metadata %"class.std::vector.3"** %values.addr, metadata !10019, metadata !DIExpression()), !dbg !10020
  store i32 %0, i32* %.addr, align 4
  call void @llvm.dbg.declare(metadata i32* %.addr, metadata !10021, metadata !DIExpression()), !dbg !10022
  %this1 = load %"class.dealii::Functions::Q1WedgeFunction.55"*, %"class.dealii::Functions::Q1WedgeFunction.55"** %this.addr, align 8
  call void @llvm.dbg.declare(metadata i32* %i, metadata !10023, metadata !DIExpression()), !dbg !10025
  store i32 0, i32* %i, align 4, !dbg !10025
  br label %for.cond, !dbg !10026

for.cond:                                         ; preds = %for.inc, %entry
  %1 = load i32, i32* %i, align 4, !dbg !10027
  %conv = zext i32 %1 to i64, !dbg !10027
  %2 = load %"class.std::vector.19"*, %"class.std::vector.19"** %points.addr, align 8, !dbg !10029
  %call = call i64 @_ZNKSt6vectorIN6dealii5PointILi2EEESaIS2_EE4sizeEv(%"class.std::vector.19"* %2) #11, !dbg !10030
  %cmp = icmp ult i64 %conv, %call, !dbg !10031
  br i1 %cmp, label %for.body, label %for.end, !dbg !10032

for.body:                                         ; preds = %for.cond
  %3 = load %"class.std::vector.3"*, %"class.std::vector.3"** %values.addr, align 8, !dbg !10033
  %4 = load i32, i32* %i, align 4, !dbg !10034
  %conv2 = zext i32 %4 to i64, !dbg !10034
  %call3 = call dereferenceable(8) double* @_ZNSt6vectorIdSaIdEEixEm(%"class.std::vector.3"* %3, i64 %conv2) #11, !dbg !10033
  store double 0.000000e+00, double* %call3, align 8, !dbg !10035
  br label %for.inc, !dbg !10033

for.inc:                                          ; preds = %for.body
  %5 = load i32, i32* %i, align 4, !dbg !10036
  %inc = add i32 %5, 1, !dbg !10036
  store i32 %inc, i32* %i, align 4, !dbg !10036
  br label %for.cond, !dbg !10037, !llvm.loop !10038

for.end:                                          ; preds = %for.cond
  ret void, !dbg !10040
}

; Function Attrs: noinline uwtable
define weak_odr dso_local double @_ZNK6dealii9Functions15Q1WedgeFunctionILi3EE5valueERKNS_5PointILi3EEEj(%"class.dealii::Functions::Q1WedgeFunction.62"* %this, %"class.dealii::Point.33"* dereferenceable(24) %p, i32 %0) unnamed_addr #0 comdat align 2 !dbg !10041 {
entry:
  %this.addr = alloca %"class.dealii::Functions::Q1WedgeFunction.62"*, align 8
  %p.addr = alloca %"class.dealii::Point.33"*, align 8
  %.addr = alloca i32, align 4
  store %"class.dealii::Functions::Q1WedgeFunction.62"* %this, %"class.dealii::Functions::Q1WedgeFunction.62"** %this.addr, align 8
  call void @llvm.dbg.declare(metadata %"class.dealii::Functions::Q1WedgeFunction.62"** %this.addr, metadata !10042, metadata !DIExpression()), !dbg !10044
  store %"class.dealii::Point.33"* %p, %"class.dealii::Point.33"** %p.addr, align 8
  call void @llvm.dbg.declare(metadata %"class.dealii::Point.33"** %p.addr, metadata !10045, metadata !DIExpression()), !dbg !10046
  store i32 %0, i32* %.addr, align 4
  call void @llvm.dbg.declare(metadata i32* %.addr, metadata !10047, metadata !DIExpression()), !dbg !10048
  %this1 = load %"class.dealii::Functions::Q1WedgeFunction.62"*, %"class.dealii::Functions::Q1WedgeFunction.62"** %this.addr, align 8
  %1 = load %"class.dealii::Point.33"*, %"class.dealii::Point.33"** %p.addr, align 8, !dbg !10049
  %call = call double @_ZNK6dealii5PointILi3EEclEj(%"class.dealii::Point.33"* %1, i32 0), !dbg !10049
  %2 = load %"class.dealii::Point.33"*, %"class.dealii::Point.33"** %p.addr, align 8, !dbg !10050
  %call2 = call double @_ZNK6dealii5PointILi3EEclEj(%"class.dealii::Point.33"* %2, i32 1), !dbg !10050
  %mul = fmul double %call, %call2, !dbg !10051
  ret double %mul, !dbg !10052
}

; Function Attrs: noinline nounwind uwtable
define linkonce_odr dso_local double @_ZNK6dealii5PointILi3EEclEj(%"class.dealii::Point.33"* %this, i32 %index) #2 comdat align 2 !dbg !10053 {
entry:
  %this.addr = alloca %"class.dealii::Point.33"*, align 8
  %index.addr = alloca i32, align 4
  store %"class.dealii::Point.33"* %this, %"class.dealii::Point.33"** %this.addr, align 8
  call void @llvm.dbg.declare(metadata %"class.dealii::Point.33"** %this.addr, metadata !10054, metadata !DIExpression()), !dbg !10055
  store i32 %index, i32* %index.addr, align 4
  call void @llvm.dbg.declare(metadata i32* %index.addr, metadata !10056, metadata !DIExpression()), !dbg !10057
  %this1 = load %"class.dealii::Point.33"*, %"class.dealii::Point.33"** %this.addr, align 8
  %0 = bitcast %"class.dealii::Point.33"* %this1 to %"class.dealii::Tensor.34"*, !dbg !10058
  %values = getelementptr inbounds %"class.dealii::Tensor.34", %"class.dealii::Tensor.34"* %0, i32 0, i32 0, !dbg !10058
  %1 = load i32, i32* %index.addr, align 4, !dbg !10059
  %idxprom = zext i32 %1 to i64, !dbg !10060
  %arrayidx = getelementptr inbounds [3 x double], [3 x double]* %values, i64 0, i64 %idxprom, !dbg !10060
  %2 = load double, double* %arrayidx, align 8, !dbg !10060
  ret double %2, !dbg !10061
}

; Function Attrs: noinline uwtable
define weak_odr dso_local void @_ZNK6dealii9Functions15Q1WedgeFunctionILi3EE10value_listERKSt6vectorINS_5PointILi3EEESaIS5_EERS3_IdSaIdEEj(%"class.dealii::Functions::Q1WedgeFunction.62"* %this, %"class.std::vector.35"* dereferenceable(24) %points, %"class.std::vector.3"* dereferenceable(24) %values, i32 %0) unnamed_addr #0 comdat align 2 !dbg !10062 {
entry:
  %this.addr = alloca %"class.dealii::Functions::Q1WedgeFunction.62"*, align 8
  %points.addr = alloca %"class.std::vector.35"*, align 8
  %values.addr = alloca %"class.std::vector.3"*, align 8
  %.addr = alloca i32, align 4
  %i = alloca i32, align 4
  %p = alloca %"class.dealii::Point.33"*, align 8
  store %"class.dealii::Functions::Q1WedgeFunction.62"* %this, %"class.dealii::Functions::Q1WedgeFunction.62"** %this.addr, align 8
  call void @llvm.dbg.declare(metadata %"class.dealii::Functions::Q1WedgeFunction.62"** %this.addr, metadata !10063, metadata !DIExpression()), !dbg !10064
  store %"class.std::vector.35"* %points, %"class.std::vector.35"** %points.addr, align 8
  call void @llvm.dbg.declare(metadata %"class.std::vector.35"** %points.addr, metadata !10065, metadata !DIExpression()), !dbg !10066
  store %"class.std::vector.3"* %values, %"class.std::vector.3"** %values.addr, align 8
  call void @llvm.dbg.declare(metadata %"class.std::vector.3"** %values.addr, metadata !10067, metadata !DIExpression()), !dbg !10068
  store i32 %0, i32* %.addr, align 4
  call void @llvm.dbg.declare(metadata i32* %.addr, metadata !10069, metadata !DIExpression()), !dbg !10070
  %this1 = load %"class.dealii::Functions::Q1WedgeFunction.62"*, %"class.dealii::Functions::Q1WedgeFunction.62"** %this.addr, align 8
  call void @llvm.dbg.declare(metadata i32* %i, metadata !10071, metadata !DIExpression()), !dbg !10073
  store i32 0, i32* %i, align 4, !dbg !10073
  br label %for.cond, !dbg !10074

for.cond:                                         ; preds = %for.inc, %entry
  %1 = load i32, i32* %i, align 4, !dbg !10075
  %conv = zext i32 %1 to i64, !dbg !10075
  %2 = load %"class.std::vector.35"*, %"class.std::vector.35"** %points.addr, align 8, !dbg !10077
  %call = call i64 @_ZNKSt6vectorIN6dealii5PointILi3EEESaIS2_EE4sizeEv(%"class.std::vector.35"* %2) #11, !dbg !10078
  %cmp = icmp ult i64 %conv, %call, !dbg !10079
  br i1 %cmp, label %for.body, label %for.end, !dbg !10080

for.body:                                         ; preds = %for.cond
  call void @llvm.dbg.declare(metadata %"class.dealii::Point.33"** %p, metadata !10081, metadata !DIExpression()), !dbg !10083
  %3 = load %"class.std::vector.35"*, %"class.std::vector.35"** %points.addr, align 8, !dbg !10084
  %4 = load i32, i32* %i, align 4, !dbg !10085
  %conv2 = zext i32 %4 to i64, !dbg !10085
  %call3 = call dereferenceable(24) %"class.dealii::Point.33"* @_ZNKSt6vectorIN6dealii5PointILi3EEESaIS2_EEixEm(%"class.std::vector.35"* %3, i64 %conv2) #11, !dbg !10084
  store %"class.dealii::Point.33"* %call3, %"class.dealii::Point.33"** %p, align 8, !dbg !10083
  %5 = load %"class.dealii::Point.33"*, %"class.dealii::Point.33"** %p, align 8, !dbg !10086
  %call4 = call double @_ZNK6dealii5PointILi3EEclEj(%"class.dealii::Point.33"* %5, i32 0), !dbg !10086
  %6 = load %"class.dealii::Point.33"*, %"class.dealii::Point.33"** %p, align 8, !dbg !10087
  %call5 = call double @_ZNK6dealii5PointILi3EEclEj(%"class.dealii::Point.33"* %6, i32 1), !dbg !10087
  %mul = fmul double %call4, %call5, !dbg !10088
  %7 = load %"class.std::vector.3"*, %"class.std::vector.3"** %values.addr, align 8, !dbg !10089
  %8 = load i32, i32* %i, align 4, !dbg !10090
  %conv6 = zext i32 %8 to i64, !dbg !10090
  %call7 = call dereferenceable(8) double* @_ZNSt6vectorIdSaIdEEixEm(%"class.std::vector.3"* %7, i64 %conv6) #11, !dbg !10089
  store double %mul, double* %call7, align 8, !dbg !10091
  br label %for.inc, !dbg !10092

for.inc:                                          ; preds = %for.body
  %9 = load i32, i32* %i, align 4, !dbg !10093
  %inc = add i32 %9, 1, !dbg !10093
  store i32 %inc, i32* %i, align 4, !dbg !10093
  br label %for.cond, !dbg !10094, !llvm.loop !10095

for.end:                                          ; preds = %for.cond
  ret void, !dbg !10097
}

; Function Attrs: noinline uwtable
define weak_odr dso_local void @_ZNK6dealii9Functions15Q1WedgeFunctionILi3EE17vector_value_listERKSt6vectorINS_5PointILi3EEESaIS5_EERS3_INS_6VectorIdEESaISB_EE(%"class.dealii::Functions::Q1WedgeFunction.62"* %this, %"class.std::vector.35"* dereferenceable(24) %points, %"class.std::vector.45"* dereferenceable(24) %values) unnamed_addr #0 comdat align 2 !dbg !10098 {
entry:
  %this.addr = alloca %"class.dealii::Functions::Q1WedgeFunction.62"*, align 8
  %points.addr = alloca %"class.std::vector.35"*, align 8
  %values.addr = alloca %"class.std::vector.45"*, align 8
  %i = alloca i32, align 4
  %p = alloca %"class.dealii::Point.33"*, align 8
  store %"class.dealii::Functions::Q1WedgeFunction.62"* %this, %"class.dealii::Functions::Q1WedgeFunction.62"** %this.addr, align 8
  call void @llvm.dbg.declare(metadata %"class.dealii::Functions::Q1WedgeFunction.62"** %this.addr, metadata !10099, metadata !DIExpression()), !dbg !10100
  store %"class.std::vector.35"* %points, %"class.std::vector.35"** %points.addr, align 8
  call void @llvm.dbg.declare(metadata %"class.std::vector.35"** %points.addr, metadata !10101, metadata !DIExpression()), !dbg !10102
  store %"class.std::vector.45"* %values, %"class.std::vector.45"** %values.addr, align 8
  call void @llvm.dbg.declare(metadata %"class.std::vector.45"** %values.addr, metadata !10103, metadata !DIExpression()), !dbg !10104
  %this1 = load %"class.dealii::Functions::Q1WedgeFunction.62"*, %"class.dealii::Functions::Q1WedgeFunction.62"** %this.addr, align 8
  call void @llvm.dbg.declare(metadata i32* %i, metadata !10105, metadata !DIExpression()), !dbg !10107
  store i32 0, i32* %i, align 4, !dbg !10107
  br label %for.cond, !dbg !10108

for.cond:                                         ; preds = %for.inc, %entry
  %0 = load i32, i32* %i, align 4, !dbg !10109
  %conv = zext i32 %0 to i64, !dbg !10109
  %1 = load %"class.std::vector.35"*, %"class.std::vector.35"** %points.addr, align 8, !dbg !10111
  %call = call i64 @_ZNKSt6vectorIN6dealii5PointILi3EEESaIS2_EE4sizeEv(%"class.std::vector.35"* %1) #11, !dbg !10112
  %cmp = icmp ult i64 %conv, %call, !dbg !10113
  br i1 %cmp, label %for.body, label %for.end, !dbg !10114

for.body:                                         ; preds = %for.cond
  call void @llvm.dbg.declare(metadata %"class.dealii::Point.33"** %p, metadata !10115, metadata !DIExpression()), !dbg !10117
  %2 = load %"class.std::vector.35"*, %"class.std::vector.35"** %points.addr, align 8, !dbg !10118
  %3 = load i32, i32* %i, align 4, !dbg !10119
  %conv2 = zext i32 %3 to i64, !dbg !10119
  %call3 = call dereferenceable(24) %"class.dealii::Point.33"* @_ZNKSt6vectorIN6dealii5PointILi3EEESaIS2_EEixEm(%"class.std::vector.35"* %2, i64 %conv2) #11, !dbg !10118
  store %"class.dealii::Point.33"* %call3, %"class.dealii::Point.33"** %p, align 8, !dbg !10117
  %4 = load %"class.dealii::Point.33"*, %"class.dealii::Point.33"** %p, align 8, !dbg !10120
  %call4 = call double @_ZNK6dealii5PointILi3EEclEj(%"class.dealii::Point.33"* %4, i32 0), !dbg !10120
  %5 = load %"class.dealii::Point.33"*, %"class.dealii::Point.33"** %p, align 8, !dbg !10121
  %call5 = call double @_ZNK6dealii5PointILi3EEclEj(%"class.dealii::Point.33"* %5, i32 1), !dbg !10121
  %mul = fmul double %call4, %call5, !dbg !10122
  %6 = load %"class.std::vector.45"*, %"class.std::vector.45"** %values.addr, align 8, !dbg !10123
  %7 = load i32, i32* %i, align 4, !dbg !10124
  %conv6 = zext i32 %7 to i64, !dbg !10124
  %call7 = call dereferenceable(88) %"class.dealii::Vector"* @_ZNSt6vectorIN6dealii6VectorIdEESaIS2_EEixEm(%"class.std::vector.45"* %6, i64 %conv6) #11, !dbg !10123
  %call8 = call dereferenceable(8) double* @_ZN6dealii6VectorIdEclEj(%"class.dealii::Vector"* %call7, i32 0), !dbg !10123
  store double %mul, double* %call8, align 8, !dbg !10125
  br label %for.inc, !dbg !10126

for.inc:                                          ; preds = %for.body
  %8 = load i32, i32* %i, align 4, !dbg !10127
  %inc = add i32 %8, 1, !dbg !10127
  store i32 %inc, i32* %i, align 4, !dbg !10127
  br label %for.cond, !dbg !10128, !llvm.loop !10129

for.end:                                          ; preds = %for.cond
  ret void, !dbg !10131
}

; Function Attrs: noinline uwtable
define weak_odr dso_local void @_ZNK6dealii9Functions15Q1WedgeFunctionILi3EE8gradientERKNS_5PointILi3EEEj(%"class.dealii::Tensor.34"* noalias sret %agg.result, %"class.dealii::Functions::Q1WedgeFunction.62"* %this, %"class.dealii::Point.33"* dereferenceable(24) %p, i32 %0) unnamed_addr #0 comdat align 2 !dbg !10132 {
entry:
  %result.ptr = alloca i8*, align 8
  %this.addr = alloca %"class.dealii::Functions::Q1WedgeFunction.62"*, align 8
  %p.addr = alloca %"class.dealii::Point.33"*, align 8
  %.addr = alloca i32, align 4
  %1 = bitcast %"class.dealii::Tensor.34"* %agg.result to i8*
  store i8* %1, i8** %result.ptr, align 8
  store %"class.dealii::Functions::Q1WedgeFunction.62"* %this, %"class.dealii::Functions::Q1WedgeFunction.62"** %this.addr, align 8
  call void @llvm.dbg.declare(metadata %"class.dealii::Functions::Q1WedgeFunction.62"** %this.addr, metadata !10133, metadata !DIExpression()), !dbg !10134
  store %"class.dealii::Point.33"* %p, %"class.dealii::Point.33"** %p.addr, align 8
  call void @llvm.dbg.declare(metadata %"class.dealii::Point.33"** %p.addr, metadata !10135, metadata !DIExpression()), !dbg !10136
  store i32 %0, i32* %.addr, align 4
  call void @llvm.dbg.declare(metadata i32* %.addr, metadata !10137, metadata !DIExpression()), !dbg !10138
  %this1 = load %"class.dealii::Functions::Q1WedgeFunction.62"*, %"class.dealii::Functions::Q1WedgeFunction.62"** %this.addr, align 8
  call void @llvm.dbg.declare(metadata i8** %result.ptr, metadata !10139, metadata !DIExpression(DW_OP_deref)), !dbg !10140
  call void @_ZN6dealii6TensorILi1ELi3EEC2Eb(%"class.dealii::Tensor.34"* %agg.result, i1 zeroext true), !dbg !10140
  %2 = load %"class.dealii::Point.33"*, %"class.dealii::Point.33"** %p.addr, align 8, !dbg !10141
  %call = call double @_ZNK6dealii5PointILi3EEclEj(%"class.dealii::Point.33"* %2, i32 1), !dbg !10141
  %call2 = call dereferenceable(8) double* @_ZN6dealii6TensorILi1ELi3EEixEj(%"class.dealii::Tensor.34"* %agg.result, i32 0), !dbg !10142
  store double %call, double* %call2, align 8, !dbg !10143
  %3 = load %"class.dealii::Point.33"*, %"class.dealii::Point.33"** %p.addr, align 8, !dbg !10144
  %call3 = call double @_ZNK6dealii5PointILi3EEclEj(%"class.dealii::Point.33"* %3, i32 0), !dbg !10144
  %call4 = call dereferenceable(8) double* @_ZN6dealii6TensorILi1ELi3EEixEj(%"class.dealii::Tensor.34"* %agg.result, i32 1), !dbg !10145
  store double %call3, double* %call4, align 8, !dbg !10146
  ret void, !dbg !10147
}

; Function Attrs: noinline nounwind uwtable
define linkonce_odr dso_local void @_ZN6dealii6TensorILi1ELi3EEC2Eb(%"class.dealii::Tensor.34"* %this, i1 zeroext %initialize) unnamed_addr #2 comdat align 2 !dbg !10148 {
entry:
  %this.addr = alloca %"class.dealii::Tensor.34"*, align 8
  %initialize.addr = alloca i8, align 1
  %i = alloca i32, align 4
  store %"class.dealii::Tensor.34"* %this, %"class.dealii::Tensor.34"** %this.addr, align 8
  call void @llvm.dbg.declare(metadata %"class.dealii::Tensor.34"** %this.addr, metadata !10149, metadata !DIExpression()), !dbg !10150
  %frombool = zext i1 %initialize to i8
  store i8 %frombool, i8* %initialize.addr, align 1
  call void @llvm.dbg.declare(metadata i8* %initialize.addr, metadata !10151, metadata !DIExpression()), !dbg !10152
  %this1 = load %"class.dealii::Tensor.34"*, %"class.dealii::Tensor.34"** %this.addr, align 8
  %0 = load i8, i8* %initialize.addr, align 1, !dbg !10153
  %tobool = trunc i8 %0 to i1, !dbg !10153
  br i1 %tobool, label %if.then, label %if.end, !dbg !10156

if.then:                                          ; preds = %entry
  call void @llvm.dbg.declare(metadata i32* %i, metadata !10157, metadata !DIExpression()), !dbg !10159
  store i32 0, i32* %i, align 4, !dbg !10159
  br label %for.cond, !dbg !10160

for.cond:                                         ; preds = %for.inc, %if.then
  %1 = load i32, i32* %i, align 4, !dbg !10161
  %cmp = icmp ne i32 %1, 3, !dbg !10163
  br i1 %cmp, label %for.body, label %for.end, !dbg !10164

for.body:                                         ; preds = %for.cond
  %values = getelementptr inbounds %"class.dealii::Tensor.34", %"class.dealii::Tensor.34"* %this1, i32 0, i32 0, !dbg !10165
  %2 = load i32, i32* %i, align 4, !dbg !10166
  %idxprom = zext i32 %2 to i64, !dbg !10165
  %arrayidx = getelementptr inbounds [3 x double], [3 x double]* %values, i64 0, i64 %idxprom, !dbg !10165
  store double 0.000000e+00, double* %arrayidx, align 8, !dbg !10167
  br label %for.inc, !dbg !10165

for.inc:                                          ; preds = %for.body
  %3 = load i32, i32* %i, align 4, !dbg !10168
  %inc = add i32 %3, 1, !dbg !10168
  store i32 %inc, i32* %i, align 4, !dbg !10168
  br label %for.cond, !dbg !10169, !llvm.loop !10170

for.end:                                          ; preds = %for.cond
  br label %if.end, !dbg !10171

if.end:                                           ; preds = %for.end, %entry
  ret void, !dbg !10172
}

; Function Attrs: noinline nounwind uwtable
define linkonce_odr dso_local dereferenceable(8) double* @_ZN6dealii6TensorILi1ELi3EEixEj(%"class.dealii::Tensor.34"* %this, i32 %index) #2 comdat align 2 !dbg !10173 {
entry:
  %this.addr = alloca %"class.dealii::Tensor.34"*, align 8
  %index.addr = alloca i32, align 4
  store %"class.dealii::Tensor.34"* %this, %"class.dealii::Tensor.34"** %this.addr, align 8
  call void @llvm.dbg.declare(metadata %"class.dealii::Tensor.34"** %this.addr, metadata !10174, metadata !DIExpression()), !dbg !10175
  store i32 %index, i32* %index.addr, align 4
  call void @llvm.dbg.declare(metadata i32* %index.addr, metadata !10176, metadata !DIExpression()), !dbg !10177
  %this1 = load %"class.dealii::Tensor.34"*, %"class.dealii::Tensor.34"** %this.addr, align 8
  %values = getelementptr inbounds %"class.dealii::Tensor.34", %"class.dealii::Tensor.34"* %this1, i32 0, i32 0, !dbg !10178
  %0 = load i32, i32* %index.addr, align 4, !dbg !10179
  %idxprom = zext i32 %0 to i64, !dbg !10178
  %arrayidx = getelementptr inbounds [3 x double], [3 x double]* %values, i64 0, i64 %idxprom, !dbg !10178
  ret double* %arrayidx, !dbg !10180
}

; Function Attrs: noinline uwtable
define weak_odr dso_local void @_ZNK6dealii9Functions15Q1WedgeFunctionILi3EE13gradient_listERKSt6vectorINS_5PointILi3EEESaIS5_EERS3_INS_6TensorILi1ELi3EEESaISB_EEj(%"class.dealii::Functions::Q1WedgeFunction.62"* %this, %"class.std::vector.35"* dereferenceable(24) %points, %"class.std::vector.40"* dereferenceable(24) %gradients, i32 %0) unnamed_addr #0 comdat align 2 !dbg !10181 {
entry:
  %this.addr = alloca %"class.dealii::Functions::Q1WedgeFunction.62"*, align 8
  %points.addr = alloca %"class.std::vector.35"*, align 8
  %gradients.addr = alloca %"class.std::vector.40"*, align 8
  %.addr = alloca i32, align 4
  %i = alloca i32, align 4
  store %"class.dealii::Functions::Q1WedgeFunction.62"* %this, %"class.dealii::Functions::Q1WedgeFunction.62"** %this.addr, align 8
  call void @llvm.dbg.declare(metadata %"class.dealii::Functions::Q1WedgeFunction.62"** %this.addr, metadata !10182, metadata !DIExpression()), !dbg !10183
  store %"class.std::vector.35"* %points, %"class.std::vector.35"** %points.addr, align 8
  call void @llvm.dbg.declare(metadata %"class.std::vector.35"** %points.addr, metadata !10184, metadata !DIExpression()), !dbg !10185
  store %"class.std::vector.40"* %gradients, %"class.std::vector.40"** %gradients.addr, align 8
  call void @llvm.dbg.declare(metadata %"class.std::vector.40"** %gradients.addr, metadata !10186, metadata !DIExpression()), !dbg !10187
  store i32 %0, i32* %.addr, align 4
  call void @llvm.dbg.declare(metadata i32* %.addr, metadata !10188, metadata !DIExpression()), !dbg !10189
  %this1 = load %"class.dealii::Functions::Q1WedgeFunction.62"*, %"class.dealii::Functions::Q1WedgeFunction.62"** %this.addr, align 8
  call void @llvm.dbg.declare(metadata i32* %i, metadata !10190, metadata !DIExpression()), !dbg !10192
  store i32 0, i32* %i, align 4, !dbg !10192
  br label %for.cond, !dbg !10193

for.cond:                                         ; preds = %for.inc, %entry
  %1 = load i32, i32* %i, align 4, !dbg !10194
  %conv = zext i32 %1 to i64, !dbg !10194
  %2 = load %"class.std::vector.35"*, %"class.std::vector.35"** %points.addr, align 8, !dbg !10196
  %call = call i64 @_ZNKSt6vectorIN6dealii5PointILi3EEESaIS2_EE4sizeEv(%"class.std::vector.35"* %2) #11, !dbg !10197
  %cmp = icmp ult i64 %conv, %call, !dbg !10198
  br i1 %cmp, label %for.body, label %for.end, !dbg !10199

for.body:                                         ; preds = %for.cond
  %3 = load %"class.std::vector.35"*, %"class.std::vector.35"** %points.addr, align 8, !dbg !10200
  %4 = load i32, i32* %i, align 4, !dbg !10202
  %conv2 = zext i32 %4 to i64, !dbg !10202
  %call3 = call dereferenceable(24) %"class.dealii::Point.33"* @_ZNKSt6vectorIN6dealii5PointILi3EEESaIS2_EEixEm(%"class.std::vector.35"* %3, i64 %conv2) #11, !dbg !10200
  %call4 = call double @_ZNK6dealii5PointILi3EEclEj(%"class.dealii::Point.33"* %call3, i32 1), !dbg !10200
  %5 = load %"class.std::vector.40"*, %"class.std::vector.40"** %gradients.addr, align 8, !dbg !10203
  %6 = load i32, i32* %i, align 4, !dbg !10204
  %conv5 = zext i32 %6 to i64, !dbg !10204
  %call6 = call dereferenceable(24) %"class.dealii::Tensor.34"* @_ZNSt6vectorIN6dealii6TensorILi1ELi3EEESaIS2_EEixEm(%"class.std::vector.40"* %5, i64 %conv5) #11, !dbg !10203
  %call7 = call dereferenceable(8) double* @_ZN6dealii6TensorILi1ELi3EEixEj(%"class.dealii::Tensor.34"* %call6, i32 0), !dbg !10203
  store double %call4, double* %call7, align 8, !dbg !10205
  %7 = load %"class.std::vector.35"*, %"class.std::vector.35"** %points.addr, align 8, !dbg !10206
  %8 = load i32, i32* %i, align 4, !dbg !10207
  %conv8 = zext i32 %8 to i64, !dbg !10207
  %call9 = call dereferenceable(24) %"class.dealii::Point.33"* @_ZNKSt6vectorIN6dealii5PointILi3EEESaIS2_EEixEm(%"class.std::vector.35"* %7, i64 %conv8) #11, !dbg !10206
  %call10 = call double @_ZNK6dealii5PointILi3EEclEj(%"class.dealii::Point.33"* %call9, i32 0), !dbg !10206
  %9 = load %"class.std::vector.40"*, %"class.std::vector.40"** %gradients.addr, align 8, !dbg !10208
  %10 = load i32, i32* %i, align 4, !dbg !10209
  %conv11 = zext i32 %10 to i64, !dbg !10209
  %call12 = call dereferenceable(24) %"class.dealii::Tensor.34"* @_ZNSt6vectorIN6dealii6TensorILi1ELi3EEESaIS2_EEixEm(%"class.std::vector.40"* %9, i64 %conv11) #11, !dbg !10208
  %call13 = call dereferenceable(8) double* @_ZN6dealii6TensorILi1ELi3EEixEj(%"class.dealii::Tensor.34"* %call12, i32 1), !dbg !10208
  store double %call10, double* %call13, align 8, !dbg !10210
  br label %for.inc, !dbg !10211

for.inc:                                          ; preds = %for.body
  %11 = load i32, i32* %i, align 4, !dbg !10212
  %inc = add i32 %11, 1, !dbg !10212
  store i32 %inc, i32* %i, align 4, !dbg !10212
  br label %for.cond, !dbg !10213, !llvm.loop !10214

for.end:                                          ; preds = %for.cond
  ret void, !dbg !10216
}

; Function Attrs: noinline uwtable
define weak_odr dso_local void @_ZNK6dealii9Functions15Q1WedgeFunctionILi3EE20vector_gradient_listERKSt6vectorINS_5PointILi3EEESaIS5_EERS3_IS3_INS_6TensorILi1ELi3EEESaISB_EESaISD_EE(%"class.dealii::Functions::Q1WedgeFunction.62"* %this, %"class.std::vector.35"* dereferenceable(24) %points, %"class.std::vector.64"* dereferenceable(24) %gradients) unnamed_addr #0 comdat align 2 !dbg !10217 {
entry:
  %this.addr = alloca %"class.dealii::Functions::Q1WedgeFunction.62"*, align 8
  %points.addr = alloca %"class.std::vector.35"*, align 8
  %gradients.addr = alloca %"class.std::vector.64"*, align 8
  %i = alloca i32, align 4
  store %"class.dealii::Functions::Q1WedgeFunction.62"* %this, %"class.dealii::Functions::Q1WedgeFunction.62"** %this.addr, align 8
  call void @llvm.dbg.declare(metadata %"class.dealii::Functions::Q1WedgeFunction.62"** %this.addr, metadata !10218, metadata !DIExpression()), !dbg !10219
  store %"class.std::vector.35"* %points, %"class.std::vector.35"** %points.addr, align 8
  call void @llvm.dbg.declare(metadata %"class.std::vector.35"** %points.addr, metadata !10220, metadata !DIExpression()), !dbg !10221
  store %"class.std::vector.64"* %gradients, %"class.std::vector.64"** %gradients.addr, align 8
  call void @llvm.dbg.declare(metadata %"class.std::vector.64"** %gradients.addr, metadata !10222, metadata !DIExpression()), !dbg !10223
  %this1 = load %"class.dealii::Functions::Q1WedgeFunction.62"*, %"class.dealii::Functions::Q1WedgeFunction.62"** %this.addr, align 8
  call void @llvm.dbg.declare(metadata i32* %i, metadata !10224, metadata !DIExpression()), !dbg !10226
  store i32 0, i32* %i, align 4, !dbg !10226
  br label %for.cond, !dbg !10227

for.cond:                                         ; preds = %for.inc, %entry
  %0 = load i32, i32* %i, align 4, !dbg !10228
  %conv = zext i32 %0 to i64, !dbg !10228
  %1 = load %"class.std::vector.35"*, %"class.std::vector.35"** %points.addr, align 8, !dbg !10230
  %call = call i64 @_ZNKSt6vectorIN6dealii5PointILi3EEESaIS2_EE4sizeEv(%"class.std::vector.35"* %1) #11, !dbg !10231
  %cmp = icmp ult i64 %conv, %call, !dbg !10232
  br i1 %cmp, label %for.body, label %for.end, !dbg !10233

for.body:                                         ; preds = %for.cond
  %2 = load %"class.std::vector.35"*, %"class.std::vector.35"** %points.addr, align 8, !dbg !10234
  %3 = load i32, i32* %i, align 4, !dbg !10236
  %conv2 = zext i32 %3 to i64, !dbg !10236
  %call3 = call dereferenceable(24) %"class.dealii::Point.33"* @_ZNKSt6vectorIN6dealii5PointILi3EEESaIS2_EEixEm(%"class.std::vector.35"* %2, i64 %conv2) #11, !dbg !10234
  %call4 = call double @_ZNK6dealii5PointILi3EEclEj(%"class.dealii::Point.33"* %call3, i32 1), !dbg !10234
  %4 = load %"class.std::vector.64"*, %"class.std::vector.64"** %gradients.addr, align 8, !dbg !10237
  %5 = load i32, i32* %i, align 4, !dbg !10238
  %conv5 = zext i32 %5 to i64, !dbg !10238
  %call6 = call dereferenceable(24) %"class.std::vector.40"* @_ZNSt6vectorIS_IN6dealii6TensorILi1ELi3EEESaIS2_EESaIS4_EEixEm(%"class.std::vector.64"* %4, i64 %conv5) #11, !dbg !10237
  %call7 = call dereferenceable(24) %"class.dealii::Tensor.34"* @_ZNSt6vectorIN6dealii6TensorILi1ELi3EEESaIS2_EEixEm(%"class.std::vector.40"* %call6, i64 0) #11, !dbg !10237
  %call8 = call dereferenceable(8) double* @_ZN6dealii6TensorILi1ELi3EEixEj(%"class.dealii::Tensor.34"* %call7, i32 0), !dbg !10237
  store double %call4, double* %call8, align 8, !dbg !10239
  %6 = load %"class.std::vector.35"*, %"class.std::vector.35"** %points.addr, align 8, !dbg !10240
  %7 = load i32, i32* %i, align 4, !dbg !10241
  %conv9 = zext i32 %7 to i64, !dbg !10241
  %call10 = call dereferenceable(24) %"class.dealii::Point.33"* @_ZNKSt6vectorIN6dealii5PointILi3EEESaIS2_EEixEm(%"class.std::vector.35"* %6, i64 %conv9) #11, !dbg !10240
  %call11 = call double @_ZNK6dealii5PointILi3EEclEj(%"class.dealii::Point.33"* %call10, i32 0), !dbg !10240
  %8 = load %"class.std::vector.64"*, %"class.std::vector.64"** %gradients.addr, align 8, !dbg !10242
  %9 = load i32, i32* %i, align 4, !dbg !10243
  %conv12 = zext i32 %9 to i64, !dbg !10243
  %call13 = call dereferenceable(24) %"class.std::vector.40"* @_ZNSt6vectorIS_IN6dealii6TensorILi1ELi3EEESaIS2_EESaIS4_EEixEm(%"class.std::vector.64"* %8, i64 %conv12) #11, !dbg !10242
  %call14 = call dereferenceable(24) %"class.dealii::Tensor.34"* @_ZNSt6vectorIN6dealii6TensorILi1ELi3EEESaIS2_EEixEm(%"class.std::vector.40"* %call13, i64 0) #11, !dbg !10242
  %call15 = call dereferenceable(8) double* @_ZN6dealii6TensorILi1ELi3EEixEj(%"class.dealii::Tensor.34"* %call14, i32 1), !dbg !10242
  store double %call11, double* %call15, align 8, !dbg !10244
  br label %for.inc, !dbg !10245

for.inc:                                          ; preds = %for.body
  %10 = load i32, i32* %i, align 4, !dbg !10246
  %inc = add i32 %10, 1, !dbg !10246
  store i32 %inc, i32* %i, align 4, !dbg !10246
  br label %for.cond, !dbg !10247, !llvm.loop !10248

for.end:                                          ; preds = %for.cond
  ret void, !dbg !10250
}

; Function Attrs: noinline nounwind uwtable
define linkonce_odr dso_local dereferenceable(24) %"class.std::vector.40"* @_ZNSt6vectorIS_IN6dealii6TensorILi1ELi3EEESaIS2_EESaIS4_EEixEm(%"class.std::vector.64"* %this, i64 %__n) #2 comdat align 2 !dbg !10251 {
entry:
  %this.addr = alloca %"class.std::vector.64"*, align 8
  %__n.addr = alloca i64, align 8
  store %"class.std::vector.64"* %this, %"class.std::vector.64"** %this.addr, align 8
  call void @llvm.dbg.declare(metadata %"class.std::vector.64"** %this.addr, metadata !10252, metadata !DIExpression()), !dbg !10254
  store i64 %__n, i64* %__n.addr, align 8
  call void @llvm.dbg.declare(metadata i64* %__n.addr, metadata !10255, metadata !DIExpression()), !dbg !10256
  %this1 = load %"class.std::vector.64"*, %"class.std::vector.64"** %this.addr, align 8
  %0 = bitcast %"class.std::vector.64"* %this1 to %"struct.std::_Vector_base.65"*, !dbg !10257
  %_M_impl = getelementptr inbounds %"struct.std::_Vector_base.65", %"struct.std::_Vector_base.65"* %0, i32 0, i32 0, !dbg !10257
  %1 = bitcast %"struct.std::_Vector_base<std::vector<dealii::Tensor<1, 3>, std::allocator<dealii::Tensor<1, 3> > >, std::allocator<std::vector<dealii::Tensor<1, 3>, std::allocator<dealii::Tensor<1, 3> > > > >::_Vector_impl"* %_M_impl to %"struct.std::_Vector_base<std::vector<dealii::Tensor<1, 3>, std::allocator<dealii::Tensor<1, 3> > >, std::allocator<std::vector<dealii::Tensor<1, 3>, std::allocator<dealii::Tensor<1, 3> > > > >::_Vector_impl_data"*, !dbg !10258
  %_M_start = getelementptr inbounds %"struct.std::_Vector_base<std::vector<dealii::Tensor<1, 3>, std::allocator<dealii::Tensor<1, 3> > >, std::allocator<std::vector<dealii::Tensor<1, 3>, std::allocator<dealii::Tensor<1, 3> > > > >::_Vector_impl_data", %"struct.std::_Vector_base<std::vector<dealii::Tensor<1, 3>, std::allocator<dealii::Tensor<1, 3> > >, std::allocator<std::vector<dealii::Tensor<1, 3>, std::allocator<dealii::Tensor<1, 3> > > > >::_Vector_impl_data"* %1, i32 0, i32 0, !dbg !10259
  %2 = load %"class.std::vector.40"*, %"class.std::vector.40"** %_M_start, align 8, !dbg !10259
  %3 = load i64, i64* %__n.addr, align 8, !dbg !10260
  %add.ptr = getelementptr inbounds %"class.std::vector.40", %"class.std::vector.40"* %2, i64 %3, !dbg !10261
  ret %"class.std::vector.40"* %add.ptr, !dbg !10262
}

; Function Attrs: noinline nounwind uwtable
define weak_odr dso_local double @_ZNK6dealii9Functions15Q1WedgeFunctionILi3EE9laplacianERKNS_5PointILi3EEEj(%"class.dealii::Functions::Q1WedgeFunction.62"* %this, %"class.dealii::Point.33"* dereferenceable(24) %0, i32 %1) unnamed_addr #2 comdat align 2 !dbg !10263 {
entry:
  %this.addr = alloca %"class.dealii::Functions::Q1WedgeFunction.62"*, align 8
  %.addr = alloca %"class.dealii::Point.33"*, align 8
  %.addr1 = alloca i32, align 4
  store %"class.dealii::Functions::Q1WedgeFunction.62"* %this, %"class.dealii::Functions::Q1WedgeFunction.62"** %this.addr, align 8
  call void @llvm.dbg.declare(metadata %"class.dealii::Functions::Q1WedgeFunction.62"** %this.addr, metadata !10264, metadata !DIExpression()), !dbg !10265
  store %"class.dealii::Point.33"* %0, %"class.dealii::Point.33"** %.addr, align 8
  call void @llvm.dbg.declare(metadata %"class.dealii::Point.33"** %.addr, metadata !10266, metadata !DIExpression()), !dbg !10267
  store i32 %1, i32* %.addr1, align 4
  call void @llvm.dbg.declare(metadata i32* %.addr1, metadata !10268, metadata !DIExpression()), !dbg !10269
  %this2 = load %"class.dealii::Functions::Q1WedgeFunction.62"*, %"class.dealii::Functions::Q1WedgeFunction.62"** %this.addr, align 8
  ret double 0.000000e+00, !dbg !10270
}

; Function Attrs: noinline nounwind uwtable
define weak_odr dso_local void @_ZNK6dealii9Functions15Q1WedgeFunctionILi3EE14laplacian_listERKSt6vectorINS_5PointILi3EEESaIS5_EERS3_IdSaIdEEj(%"class.dealii::Functions::Q1WedgeFunction.62"* %this, %"class.std::vector.35"* dereferenceable(24) %points, %"class.std::vector.3"* dereferenceable(24) %values, i32 %0) unnamed_addr #2 comdat align 2 !dbg !10271 {
entry:
  %this.addr = alloca %"class.dealii::Functions::Q1WedgeFunction.62"*, align 8
  %points.addr = alloca %"class.std::vector.35"*, align 8
  %values.addr = alloca %"class.std::vector.3"*, align 8
  %.addr = alloca i32, align 4
  %i = alloca i32, align 4
  store %"class.dealii::Functions::Q1WedgeFunction.62"* %this, %"class.dealii::Functions::Q1WedgeFunction.62"** %this.addr, align 8
  call void @llvm.dbg.declare(metadata %"class.dealii::Functions::Q1WedgeFunction.62"** %this.addr, metadata !10272, metadata !DIExpression()), !dbg !10273
  store %"class.std::vector.35"* %points, %"class.std::vector.35"** %points.addr, align 8
  call void @llvm.dbg.declare(metadata %"class.std::vector.35"** %points.addr, metadata !10274, metadata !DIExpression()), !dbg !10275
  store %"class.std::vector.3"* %values, %"class.std::vector.3"** %values.addr, align 8
  call void @llvm.dbg.declare(metadata %"class.std::vector.3"** %values.addr, metadata !10276, metadata !DIExpression()), !dbg !10277
  store i32 %0, i32* %.addr, align 4
  call void @llvm.dbg.declare(metadata i32* %.addr, metadata !10278, metadata !DIExpression()), !dbg !10279
  %this1 = load %"class.dealii::Functions::Q1WedgeFunction.62"*, %"class.dealii::Functions::Q1WedgeFunction.62"** %this.addr, align 8
  call void @llvm.dbg.declare(metadata i32* %i, metadata !10280, metadata !DIExpression()), !dbg !10282
  store i32 0, i32* %i, align 4, !dbg !10282
  br label %for.cond, !dbg !10283

for.cond:                                         ; preds = %for.inc, %entry
  %1 = load i32, i32* %i, align 4, !dbg !10284
  %conv = zext i32 %1 to i64, !dbg !10284
  %2 = load %"class.std::vector.35"*, %"class.std::vector.35"** %points.addr, align 8, !dbg !10286
  %call = call i64 @_ZNKSt6vectorIN6dealii5PointILi3EEESaIS2_EE4sizeEv(%"class.std::vector.35"* %2) #11, !dbg !10287
  %cmp = icmp ult i64 %conv, %call, !dbg !10288
  br i1 %cmp, label %for.body, label %for.end, !dbg !10289

for.body:                                         ; preds = %for.cond
  %3 = load %"class.std::vector.3"*, %"class.std::vector.3"** %values.addr, align 8, !dbg !10290
  %4 = load i32, i32* %i, align 4, !dbg !10291
  %conv2 = zext i32 %4 to i64, !dbg !10291
  %call3 = call dereferenceable(8) double* @_ZNSt6vectorIdSaIdEEixEm(%"class.std::vector.3"* %3, i64 %conv2) #11, !dbg !10290
  store double 0.000000e+00, double* %call3, align 8, !dbg !10292
  br label %for.inc, !dbg !10290

for.inc:                                          ; preds = %for.body
  %5 = load i32, i32* %i, align 4, !dbg !10293
  %inc = add i32 %5, 1, !dbg !10293
  store i32 %inc, i32* %i, align 4, !dbg !10293
  br label %for.cond, !dbg !10294, !llvm.loop !10295

for.end:                                          ; preds = %for.cond
  ret void, !dbg !10297
}

; Function Attrs: noinline uwtable
define weak_odr dso_local void @_ZN6dealii9Functions14PillowFunctionILi1EEC2Ed(%"class.dealii::Functions::PillowFunction"* %this, double %offset) unnamed_addr #0 comdat($_ZN6dealii9Functions14PillowFunctionILi1EEC5Ed) align 2 !dbg !10298 {
entry:
  %this.addr = alloca %"class.dealii::Functions::PillowFunction"*, align 8
  %offset.addr = alloca double, align 8
  store %"class.dealii::Functions::PillowFunction"* %this, %"class.dealii::Functions::PillowFunction"** %this.addr, align 8
  call void @llvm.dbg.declare(metadata %"class.dealii::Functions::PillowFunction"** %this.addr, metadata !10299, metadata !DIExpression()), !dbg !10301
  store double %offset, double* %offset.addr, align 8
  call void @llvm.dbg.declare(metadata double* %offset.addr, metadata !10302, metadata !DIExpression()), !dbg !10303
  %this1 = load %"class.dealii::Functions::PillowFunction"*, %"class.dealii::Functions::PillowFunction"** %this.addr, align 8
  %0 = bitcast %"class.dealii::Functions::PillowFunction"* %this1 to %"class.dealii::Function"*, !dbg !10304
  call void @_ZN6dealii8FunctionILi1EEC2Ejd(%"class.dealii::Function"* %0, i32 1, double 0.000000e+00), !dbg !10305
  %1 = bitcast %"class.dealii::Functions::PillowFunction"* %this1 to i32 (...)***, !dbg !10304
  store i32 (...)** bitcast (i8** getelementptr inbounds ({ [18 x i8*], [4 x i8*] }, { [18 x i8*], [4 x i8*] }* @_ZTVN6dealii9Functions14PillowFunctionILi1EEE, i32 0, inrange i32 0, i32 2) to i32 (...)**), i32 (...)*** %1, align 8, !dbg !10304
  %2 = bitcast %"class.dealii::Functions::PillowFunction"* %this1 to i8*, !dbg !10304
  %add.ptr = getelementptr inbounds i8, i8* %2, i64 16, !dbg !10304
  %3 = bitcast i8* %add.ptr to i32 (...)***, !dbg !10304
  store i32 (...)** bitcast (i8** getelementptr inbounds ({ [18 x i8*], [4 x i8*] }, { [18 x i8*], [4 x i8*] }* @_ZTVN6dealii9Functions14PillowFunctionILi1EEE, i32 0, inrange i32 1, i32 2) to i32 (...)**), i32 (...)*** %3, align 8, !dbg !10304
  %offset2 = getelementptr inbounds %"class.dealii::Functions::PillowFunction", %"class.dealii::Functions::PillowFunction"* %this1, i32 0, i32 1, !dbg !10307
  %4 = load double, double* %offset.addr, align 8, !dbg !10309
  store double %4, double* %offset2, align 8, !dbg !10307
  ret void, !dbg !10310
}

declare dso_local void @_ZN6dealii8FunctionILi1EEC2Ejd(%"class.dealii::Function"*, i32, double) unnamed_addr #3

; Function Attrs: noinline uwtable
define weak_odr dso_local double @_ZNK6dealii9Functions14PillowFunctionILi1EE5valueERKNS_5PointILi1EEEj(%"class.dealii::Functions::PillowFunction"* %this, %"class.dealii::Point"* dereferenceable(8) %p, i32 %0) unnamed_addr #0 comdat align 2 !dbg !10311 {
entry:
  %this.addr = alloca %"class.dealii::Functions::PillowFunction"*, align 8
  %p.addr = alloca %"class.dealii::Point"*, align 8
  %.addr = alloca i32, align 4
  store %"class.dealii::Functions::PillowFunction"* %this, %"class.dealii::Functions::PillowFunction"** %this.addr, align 8
  call void @llvm.dbg.declare(metadata %"class.dealii::Functions::PillowFunction"** %this.addr, metadata !10312, metadata !DIExpression()), !dbg !10314
  store %"class.dealii::Point"* %p, %"class.dealii::Point"** %p.addr, align 8
  call void @llvm.dbg.declare(metadata %"class.dealii::Point"** %p.addr, metadata !10315, metadata !DIExpression()), !dbg !10316
  store i32 %0, i32* %.addr, align 4
  call void @llvm.dbg.declare(metadata i32* %.addr, metadata !10317, metadata !DIExpression()), !dbg !10318
  %this1 = load %"class.dealii::Functions::PillowFunction"*, %"class.dealii::Functions::PillowFunction"** %this.addr, align 8
  %1 = load %"class.dealii::Point"*, %"class.dealii::Point"** %p.addr, align 8, !dbg !10319
  %call = call double @_ZNK6dealii5PointILi1EEclEj(%"class.dealii::Point"* %1, i32 0), !dbg !10319
  %2 = load %"class.dealii::Point"*, %"class.dealii::Point"** %p.addr, align 8, !dbg !10320
  %call2 = call double @_ZNK6dealii5PointILi1EEclEj(%"class.dealii::Point"* %2, i32 0), !dbg !10320
  %mul = fmul double %call, %call2, !dbg !10321
  %sub = fsub double 1.000000e+00, %mul, !dbg !10322
  %offset = getelementptr inbounds %"class.dealii::Functions::PillowFunction", %"class.dealii::Functions::PillowFunction"* %this1, i32 0, i32 1, !dbg !10323
  %3 = load double, double* %offset, align 8, !dbg !10323
  %add = fadd double %sub, %3, !dbg !10324
  ret double %add, !dbg !10325
}

; Function Attrs: noinline uwtable
define weak_odr dso_local void @_ZNK6dealii9Functions14PillowFunctionILi1EE10value_listERKSt6vectorINS_5PointILi1EEESaIS5_EERS3_IdSaIdEEj(%"class.dealii::Functions::PillowFunction"* %this, %"class.std::vector"* dereferenceable(24) %points, %"class.std::vector.3"* dereferenceable(24) %values, i32 %0) unnamed_addr #0 comdat align 2 !dbg !10326 {
entry:
  %this.addr = alloca %"class.dealii::Functions::PillowFunction"*, align 8
  %points.addr = alloca %"class.std::vector"*, align 8
  %values.addr = alloca %"class.std::vector.3"*, align 8
  %.addr = alloca i32, align 4
  %i = alloca i32, align 4
  %p = alloca %"class.dealii::Point"*, align 8
  store %"class.dealii::Functions::PillowFunction"* %this, %"class.dealii::Functions::PillowFunction"** %this.addr, align 8
  call void @llvm.dbg.declare(metadata %"class.dealii::Functions::PillowFunction"** %this.addr, metadata !10327, metadata !DIExpression()), !dbg !10328
  store %"class.std::vector"* %points, %"class.std::vector"** %points.addr, align 8
  call void @llvm.dbg.declare(metadata %"class.std::vector"** %points.addr, metadata !10329, metadata !DIExpression()), !dbg !10330
  store %"class.std::vector.3"* %values, %"class.std::vector.3"** %values.addr, align 8
  call void @llvm.dbg.declare(metadata %"class.std::vector.3"** %values.addr, metadata !10331, metadata !DIExpression()), !dbg !10332
  store i32 %0, i32* %.addr, align 4
  call void @llvm.dbg.declare(metadata i32* %.addr, metadata !10333, metadata !DIExpression()), !dbg !10334
  %this1 = load %"class.dealii::Functions::PillowFunction"*, %"class.dealii::Functions::PillowFunction"** %this.addr, align 8
  call void @llvm.dbg.declare(metadata i32* %i, metadata !10335, metadata !DIExpression()), !dbg !10337
  store i32 0, i32* %i, align 4, !dbg !10337
  br label %for.cond, !dbg !10338

for.cond:                                         ; preds = %for.inc, %entry
  %1 = load i32, i32* %i, align 4, !dbg !10339
  %conv = zext i32 %1 to i64, !dbg !10339
  %2 = load %"class.std::vector"*, %"class.std::vector"** %points.addr, align 8, !dbg !10341
  %call = call i64 @_ZNKSt6vectorIN6dealii5PointILi1EEESaIS2_EE4sizeEv(%"class.std::vector"* %2) #11, !dbg !10342
  %cmp = icmp ult i64 %conv, %call, !dbg !10343
  br i1 %cmp, label %for.body, label %for.end, !dbg !10344

for.body:                                         ; preds = %for.cond
  call void @llvm.dbg.declare(metadata %"class.dealii::Point"** %p, metadata !10345, metadata !DIExpression()), !dbg !10347
  %3 = load %"class.std::vector"*, %"class.std::vector"** %points.addr, align 8, !dbg !10348
  %4 = load i32, i32* %i, align 4, !dbg !10349
  %conv2 = zext i32 %4 to i64, !dbg !10349
  %call3 = call dereferenceable(8) %"class.dealii::Point"* @_ZNKSt6vectorIN6dealii5PointILi1EEESaIS2_EEixEm(%"class.std::vector"* %3, i64 %conv2) #11, !dbg !10348
  store %"class.dealii::Point"* %call3, %"class.dealii::Point"** %p, align 8, !dbg !10347
  %5 = load %"class.dealii::Point"*, %"class.dealii::Point"** %p, align 8, !dbg !10350
  %call4 = call double @_ZNK6dealii5PointILi1EEclEj(%"class.dealii::Point"* %5, i32 0), !dbg !10350
  %6 = load %"class.dealii::Point"*, %"class.dealii::Point"** %p, align 8, !dbg !10351
  %call5 = call double @_ZNK6dealii5PointILi1EEclEj(%"class.dealii::Point"* %6, i32 0), !dbg !10351
  %mul = fmul double %call4, %call5, !dbg !10352
  %sub = fsub double 1.000000e+00, %mul, !dbg !10353
  %offset = getelementptr inbounds %"class.dealii::Functions::PillowFunction", %"class.dealii::Functions::PillowFunction"* %this1, i32 0, i32 1, !dbg !10354
  %7 = load double, double* %offset, align 8, !dbg !10354
  %add = fadd double %sub, %7, !dbg !10355
  %8 = load %"class.std::vector.3"*, %"class.std::vector.3"** %values.addr, align 8, !dbg !10356
  %9 = load i32, i32* %i, align 4, !dbg !10357
  %conv6 = zext i32 %9 to i64, !dbg !10357
  %call7 = call dereferenceable(8) double* @_ZNSt6vectorIdSaIdEEixEm(%"class.std::vector.3"* %8, i64 %conv6) #11, !dbg !10356
  store double %add, double* %call7, align 8, !dbg !10358
  br label %for.inc, !dbg !10359

for.inc:                                          ; preds = %for.body
  %10 = load i32, i32* %i, align 4, !dbg !10360
  %inc = add i32 %10, 1, !dbg !10360
  store i32 %inc, i32* %i, align 4, !dbg !10360
  br label %for.cond, !dbg !10361, !llvm.loop !10362

for.end:                                          ; preds = %for.cond
  ret void, !dbg !10364
}

; Function Attrs: noinline uwtable
define weak_odr dso_local void @_ZNK6dealii9Functions14PillowFunctionILi1EE8gradientERKNS_5PointILi1EEEj(%"class.dealii::Tensor"* noalias sret %agg.result, %"class.dealii::Functions::PillowFunction"* %this, %"class.dealii::Point"* dereferenceable(8) %p, i32 %0) unnamed_addr #0 comdat align 2 !dbg !10365 {
entry:
  %result.ptr = alloca i8*, align 8
  %this.addr = alloca %"class.dealii::Functions::PillowFunction"*, align 8
  %p.addr = alloca %"class.dealii::Point"*, align 8
  %.addr = alloca i32, align 4
  %1 = bitcast %"class.dealii::Tensor"* %agg.result to i8*
  store i8* %1, i8** %result.ptr, align 8
  store %"class.dealii::Functions::PillowFunction"* %this, %"class.dealii::Functions::PillowFunction"** %this.addr, align 8
  call void @llvm.dbg.declare(metadata %"class.dealii::Functions::PillowFunction"** %this.addr, metadata !10366, metadata !DIExpression()), !dbg !10367
  store %"class.dealii::Point"* %p, %"class.dealii::Point"** %p.addr, align 8
  call void @llvm.dbg.declare(metadata %"class.dealii::Point"** %p.addr, metadata !10368, metadata !DIExpression()), !dbg !10369
  store i32 %0, i32* %.addr, align 4
  call void @llvm.dbg.declare(metadata i32* %.addr, metadata !10370, metadata !DIExpression()), !dbg !10371
  %this1 = load %"class.dealii::Functions::PillowFunction"*, %"class.dealii::Functions::PillowFunction"** %this.addr, align 8
  call void @llvm.dbg.declare(metadata i8** %result.ptr, metadata !10372, metadata !DIExpression(DW_OP_deref)), !dbg !10373
  call void @_ZN6dealii6TensorILi1ELi1EEC2Eb(%"class.dealii::Tensor"* %agg.result, i1 zeroext true), !dbg !10373
  %2 = load %"class.dealii::Point"*, %"class.dealii::Point"** %p.addr, align 8, !dbg !10374
  %call = call double @_ZNK6dealii5PointILi1EEclEj(%"class.dealii::Point"* %2, i32 0), !dbg !10374
  %mul = fmul double -2.000000e+00, %call, !dbg !10375
  %call2 = call dereferenceable(8) double* @_ZN6dealii6TensorILi1ELi1EEixEj(%"class.dealii::Tensor"* %agg.result, i32 0), !dbg !10376
  store double %mul, double* %call2, align 8, !dbg !10377
  ret void, !dbg !10378
}

; Function Attrs: noinline uwtable
define weak_odr dso_local void @_ZNK6dealii9Functions14PillowFunctionILi1EE13gradient_listERKSt6vectorINS_5PointILi1EEESaIS5_EERS3_INS_6TensorILi1ELi1EEESaISB_EEj(%"class.dealii::Functions::PillowFunction"* %this, %"class.std::vector"* dereferenceable(24) %points, %"class.std::vector.8"* dereferenceable(24) %gradients, i32 %0) unnamed_addr #0 comdat align 2 !dbg !10379 {
entry:
  %this.addr = alloca %"class.dealii::Functions::PillowFunction"*, align 8
  %points.addr = alloca %"class.std::vector"*, align 8
  %gradients.addr = alloca %"class.std::vector.8"*, align 8
  %.addr = alloca i32, align 4
  %i = alloca i32, align 4
  %p = alloca %"class.dealii::Point"*, align 8
  store %"class.dealii::Functions::PillowFunction"* %this, %"class.dealii::Functions::PillowFunction"** %this.addr, align 8
  call void @llvm.dbg.declare(metadata %"class.dealii::Functions::PillowFunction"** %this.addr, metadata !10380, metadata !DIExpression()), !dbg !10381
  store %"class.std::vector"* %points, %"class.std::vector"** %points.addr, align 8
  call void @llvm.dbg.declare(metadata %"class.std::vector"** %points.addr, metadata !10382, metadata !DIExpression()), !dbg !10383
  store %"class.std::vector.8"* %gradients, %"class.std::vector.8"** %gradients.addr, align 8
  call void @llvm.dbg.declare(metadata %"class.std::vector.8"** %gradients.addr, metadata !10384, metadata !DIExpression()), !dbg !10385
  store i32 %0, i32* %.addr, align 4
  call void @llvm.dbg.declare(metadata i32* %.addr, metadata !10386, metadata !DIExpression()), !dbg !10387
  %this1 = load %"class.dealii::Functions::PillowFunction"*, %"class.dealii::Functions::PillowFunction"** %this.addr, align 8
  call void @llvm.dbg.declare(metadata i32* %i, metadata !10388, metadata !DIExpression()), !dbg !10390
  store i32 0, i32* %i, align 4, !dbg !10390
  br label %for.cond, !dbg !10391

for.cond:                                         ; preds = %for.inc, %entry
  %1 = load i32, i32* %i, align 4, !dbg !10392
  %conv = zext i32 %1 to i64, !dbg !10392
  %2 = load %"class.std::vector"*, %"class.std::vector"** %points.addr, align 8, !dbg !10394
  %call = call i64 @_ZNKSt6vectorIN6dealii5PointILi1EEESaIS2_EE4sizeEv(%"class.std::vector"* %2) #11, !dbg !10395
  %cmp = icmp ult i64 %conv, %call, !dbg !10396
  br i1 %cmp, label %for.body, label %for.end, !dbg !10397

for.body:                                         ; preds = %for.cond
  call void @llvm.dbg.declare(metadata %"class.dealii::Point"** %p, metadata !10398, metadata !DIExpression()), !dbg !10400
  %3 = load %"class.std::vector"*, %"class.std::vector"** %points.addr, align 8, !dbg !10401
  %4 = load i32, i32* %i, align 4, !dbg !10402
  %conv2 = zext i32 %4 to i64, !dbg !10402
  %call3 = call dereferenceable(8) %"class.dealii::Point"* @_ZNKSt6vectorIN6dealii5PointILi1EEESaIS2_EEixEm(%"class.std::vector"* %3, i64 %conv2) #11, !dbg !10401
  store %"class.dealii::Point"* %call3, %"class.dealii::Point"** %p, align 8, !dbg !10400
  %5 = load %"class.dealii::Point"*, %"class.dealii::Point"** %p, align 8, !dbg !10403
  %call4 = call double @_ZNK6dealii5PointILi1EEclEj(%"class.dealii::Point"* %5, i32 0), !dbg !10403
  %mul = fmul double -2.000000e+00, %call4, !dbg !10404
  %6 = load %"class.std::vector.8"*, %"class.std::vector.8"** %gradients.addr, align 8, !dbg !10405
  %7 = load i32, i32* %i, align 4, !dbg !10406
  %conv5 = zext i32 %7 to i64, !dbg !10406
  %call6 = call dereferenceable(8) %"class.dealii::Tensor"* @_ZNSt6vectorIN6dealii6TensorILi1ELi1EEESaIS2_EEixEm(%"class.std::vector.8"* %6, i64 %conv5) #11, !dbg !10405
  %call7 = call dereferenceable(8) double* @_ZN6dealii6TensorILi1ELi1EEixEj(%"class.dealii::Tensor"* %call6, i32 0), !dbg !10405
  store double %mul, double* %call7, align 8, !dbg !10407
  br label %for.inc, !dbg !10408

for.inc:                                          ; preds = %for.body
  %8 = load i32, i32* %i, align 4, !dbg !10409
  %inc = add i32 %8, 1, !dbg !10409
  store i32 %inc, i32* %i, align 4, !dbg !10409
  br label %for.cond, !dbg !10410, !llvm.loop !10411

for.end:                                          ; preds = %for.cond
  ret void, !dbg !10413
}

; Function Attrs: noinline nounwind uwtable
define weak_odr dso_local double @_ZNK6dealii9Functions14PillowFunctionILi1EE9laplacianERKNS_5PointILi1EEEj(%"class.dealii::Functions::PillowFunction"* %this, %"class.dealii::Point"* dereferenceable(8) %p, i32 %0) unnamed_addr #2 comdat align 2 !dbg !10414 {
entry:
  %this.addr = alloca %"class.dealii::Functions::PillowFunction"*, align 8
  %p.addr = alloca %"class.dealii::Point"*, align 8
  %.addr = alloca i32, align 4
  store %"class.dealii::Functions::PillowFunction"* %this, %"class.dealii::Functions::PillowFunction"** %this.addr, align 8
  call void @llvm.dbg.declare(metadata %"class.dealii::Functions::PillowFunction"** %this.addr, metadata !10415, metadata !DIExpression()), !dbg !10416
  store %"class.dealii::Point"* %p, %"class.dealii::Point"** %p.addr, align 8
  call void @llvm.dbg.declare(metadata %"class.dealii::Point"** %p.addr, metadata !10417, metadata !DIExpression()), !dbg !10418
  store i32 %0, i32* %.addr, align 4
  call void @llvm.dbg.declare(metadata i32* %.addr, metadata !10419, metadata !DIExpression()), !dbg !10420
  %this1 = load %"class.dealii::Functions::PillowFunction"*, %"class.dealii::Functions::PillowFunction"** %this.addr, align 8
  ret double -2.000000e+00, !dbg !10421
}

; Function Attrs: noinline nounwind uwtable
define weak_odr dso_local void @_ZNK6dealii9Functions14PillowFunctionILi1EE14laplacian_listERKSt6vectorINS_5PointILi1EEESaIS5_EERS3_IdSaIdEEj(%"class.dealii::Functions::PillowFunction"* %this, %"class.std::vector"* dereferenceable(24) %points, %"class.std::vector.3"* dereferenceable(24) %values, i32 %0) unnamed_addr #2 comdat align 2 !dbg !10422 {
entry:
  %this.addr = alloca %"class.dealii::Functions::PillowFunction"*, align 8
  %points.addr = alloca %"class.std::vector"*, align 8
  %values.addr = alloca %"class.std::vector.3"*, align 8
  %.addr = alloca i32, align 4
  %i = alloca i32, align 4
  %p = alloca %"class.dealii::Point"*, align 8
  store %"class.dealii::Functions::PillowFunction"* %this, %"class.dealii::Functions::PillowFunction"** %this.addr, align 8
  call void @llvm.dbg.declare(metadata %"class.dealii::Functions::PillowFunction"** %this.addr, metadata !10423, metadata !DIExpression()), !dbg !10424
  store %"class.std::vector"* %points, %"class.std::vector"** %points.addr, align 8
  call void @llvm.dbg.declare(metadata %"class.std::vector"** %points.addr, metadata !10425, metadata !DIExpression()), !dbg !10426
  store %"class.std::vector.3"* %values, %"class.std::vector.3"** %values.addr, align 8
  call void @llvm.dbg.declare(metadata %"class.std::vector.3"** %values.addr, metadata !10427, metadata !DIExpression()), !dbg !10428
  store i32 %0, i32* %.addr, align 4
  call void @llvm.dbg.declare(metadata i32* %.addr, metadata !10429, metadata !DIExpression()), !dbg !10430
  %this1 = load %"class.dealii::Functions::PillowFunction"*, %"class.dealii::Functions::PillowFunction"** %this.addr, align 8
  call void @llvm.dbg.declare(metadata i32* %i, metadata !10431, metadata !DIExpression()), !dbg !10433
  store i32 0, i32* %i, align 4, !dbg !10433
  br label %for.cond, !dbg !10434

for.cond:                                         ; preds = %for.inc, %entry
  %1 = load i32, i32* %i, align 4, !dbg !10435
  %conv = zext i32 %1 to i64, !dbg !10435
  %2 = load %"class.std::vector"*, %"class.std::vector"** %points.addr, align 8, !dbg !10437
  %call = call i64 @_ZNKSt6vectorIN6dealii5PointILi1EEESaIS2_EE4sizeEv(%"class.std::vector"* %2) #11, !dbg !10438
  %cmp = icmp ult i64 %conv, %call, !dbg !10439
  br i1 %cmp, label %for.body, label %for.end, !dbg !10440

for.body:                                         ; preds = %for.cond
  call void @llvm.dbg.declare(metadata %"class.dealii::Point"** %p, metadata !10441, metadata !DIExpression()), !dbg !10443
  %3 = load %"class.std::vector"*, %"class.std::vector"** %points.addr, align 8, !dbg !10444
  %4 = load i32, i32* %i, align 4, !dbg !10445
  %conv2 = zext i32 %4 to i64, !dbg !10445
  %call3 = call dereferenceable(8) %"class.dealii::Point"* @_ZNKSt6vectorIN6dealii5PointILi1EEESaIS2_EEixEm(%"class.std::vector"* %3, i64 %conv2) #11, !dbg !10444
  store %"class.dealii::Point"* %call3, %"class.dealii::Point"** %p, align 8, !dbg !10443
  %5 = load %"class.std::vector.3"*, %"class.std::vector.3"** %values.addr, align 8, !dbg !10446
  %6 = load i32, i32* %i, align 4, !dbg !10447
  %conv4 = zext i32 %6 to i64, !dbg !10447
  %call5 = call dereferenceable(8) double* @_ZNSt6vectorIdSaIdEEixEm(%"class.std::vector.3"* %5, i64 %conv4) #11, !dbg !10446
  store double -2.000000e+00, double* %call5, align 8, !dbg !10448
  br label %for.inc, !dbg !10449

for.inc:                                          ; preds = %for.body
  %7 = load i32, i32* %i, align 4, !dbg !10450
  %inc = add i32 %7, 1, !dbg !10450
  store i32 %inc, i32* %i, align 4, !dbg !10450
  br label %for.cond, !dbg !10451, !llvm.loop !10452

for.end:                                          ; preds = %for.cond
  ret void, !dbg !10454
}

; Function Attrs: noinline uwtable
define weak_odr dso_local void @_ZN6dealii9Functions14PillowFunctionILi2EEC2Ed(%"class.dealii::Functions::PillowFunction.69"* %this, double %offset) unnamed_addr #0 comdat($_ZN6dealii9Functions14PillowFunctionILi2EEC5Ed) align 2 !dbg !10455 {
entry:
  %this.addr = alloca %"class.dealii::Functions::PillowFunction.69"*, align 8
  %offset.addr = alloca double, align 8
  store %"class.dealii::Functions::PillowFunction.69"* %this, %"class.dealii::Functions::PillowFunction.69"** %this.addr, align 8
  call void @llvm.dbg.declare(metadata %"class.dealii::Functions::PillowFunction.69"** %this.addr, metadata !10456, metadata !DIExpression()), !dbg !10458
  store double %offset, double* %offset.addr, align 8
  call void @llvm.dbg.declare(metadata double* %offset.addr, metadata !10459, metadata !DIExpression()), !dbg !10460
  %this1 = load %"class.dealii::Functions::PillowFunction.69"*, %"class.dealii::Functions::PillowFunction.69"** %this.addr, align 8
  %0 = bitcast %"class.dealii::Functions::PillowFunction.69"* %this1 to %"class.dealii::Function.14"*, !dbg !10461
  call void @_ZN6dealii8FunctionILi2EEC2Ejd(%"class.dealii::Function.14"* %0, i32 1, double 0.000000e+00), !dbg !10462
  %1 = bitcast %"class.dealii::Functions::PillowFunction.69"* %this1 to i32 (...)***, !dbg !10461
  store i32 (...)** bitcast (i8** getelementptr inbounds ({ [18 x i8*], [4 x i8*] }, { [18 x i8*], [4 x i8*] }* @_ZTVN6dealii9Functions14PillowFunctionILi2EEE, i32 0, inrange i32 0, i32 2) to i32 (...)**), i32 (...)*** %1, align 8, !dbg !10461
  %2 = bitcast %"class.dealii::Functions::PillowFunction.69"* %this1 to i8*, !dbg !10461
  %add.ptr = getelementptr inbounds i8, i8* %2, i64 16, !dbg !10461
  %3 = bitcast i8* %add.ptr to i32 (...)***, !dbg !10461
  store i32 (...)** bitcast (i8** getelementptr inbounds ({ [18 x i8*], [4 x i8*] }, { [18 x i8*], [4 x i8*] }* @_ZTVN6dealii9Functions14PillowFunctionILi2EEE, i32 0, inrange i32 1, i32 2) to i32 (...)**), i32 (...)*** %3, align 8, !dbg !10461
  %offset2 = getelementptr inbounds %"class.dealii::Functions::PillowFunction.69", %"class.dealii::Functions::PillowFunction.69"* %this1, i32 0, i32 1, !dbg !10464
  %4 = load double, double* %offset.addr, align 8, !dbg !10466
  store double %4, double* %offset2, align 8, !dbg !10464
  ret void, !dbg !10467
}

declare dso_local void @_ZN6dealii8FunctionILi2EEC2Ejd(%"class.dealii::Function.14"*, i32, double) unnamed_addr #3

; Function Attrs: noinline uwtable
define weak_odr dso_local double @_ZNK6dealii9Functions14PillowFunctionILi2EE5valueERKNS_5PointILi2EEEj(%"class.dealii::Functions::PillowFunction.69"* %this, %"class.dealii::Point.17"* dereferenceable(16) %p, i32 %0) unnamed_addr #0 comdat align 2 !dbg !10468 {
entry:
  %this.addr = alloca %"class.dealii::Functions::PillowFunction.69"*, align 8
  %p.addr = alloca %"class.dealii::Point.17"*, align 8
  %.addr = alloca i32, align 4
  store %"class.dealii::Functions::PillowFunction.69"* %this, %"class.dealii::Functions::PillowFunction.69"** %this.addr, align 8
  call void @llvm.dbg.declare(metadata %"class.dealii::Functions::PillowFunction.69"** %this.addr, metadata !10469, metadata !DIExpression()), !dbg !10471
  store %"class.dealii::Point.17"* %p, %"class.dealii::Point.17"** %p.addr, align 8
  call void @llvm.dbg.declare(metadata %"class.dealii::Point.17"** %p.addr, metadata !10472, metadata !DIExpression()), !dbg !10473
  store i32 %0, i32* %.addr, align 4
  call void @llvm.dbg.declare(metadata i32* %.addr, metadata !10474, metadata !DIExpression()), !dbg !10475
  %this1 = load %"class.dealii::Functions::PillowFunction.69"*, %"class.dealii::Functions::PillowFunction.69"** %this.addr, align 8
  %1 = load %"class.dealii::Point.17"*, %"class.dealii::Point.17"** %p.addr, align 8, !dbg !10476
  %call = call double @_ZNK6dealii5PointILi2EEclEj(%"class.dealii::Point.17"* %1, i32 0), !dbg !10476
  %2 = load %"class.dealii::Point.17"*, %"class.dealii::Point.17"** %p.addr, align 8, !dbg !10477
  %call2 = call double @_ZNK6dealii5PointILi2EEclEj(%"class.dealii::Point.17"* %2, i32 0), !dbg !10477
  %mul = fmul double %call, %call2, !dbg !10478
  %sub = fsub double 1.000000e+00, %mul, !dbg !10479
  %3 = load %"class.dealii::Point.17"*, %"class.dealii::Point.17"** %p.addr, align 8, !dbg !10480
  %call3 = call double @_ZNK6dealii5PointILi2EEclEj(%"class.dealii::Point.17"* %3, i32 1), !dbg !10480
  %4 = load %"class.dealii::Point.17"*, %"class.dealii::Point.17"** %p.addr, align 8, !dbg !10481
  %call4 = call double @_ZNK6dealii5PointILi2EEclEj(%"class.dealii::Point.17"* %4, i32 1), !dbg !10481
  %mul5 = fmul double %call3, %call4, !dbg !10482
  %sub6 = fsub double 1.000000e+00, %mul5, !dbg !10483
  %mul7 = fmul double %sub, %sub6, !dbg !10484
  %offset = getelementptr inbounds %"class.dealii::Functions::PillowFunction.69", %"class.dealii::Functions::PillowFunction.69"* %this1, i32 0, i32 1, !dbg !10485
  %5 = load double, double* %offset, align 8, !dbg !10485
  %add = fadd double %mul7, %5, !dbg !10486
  ret double %add, !dbg !10487
}

; Function Attrs: noinline uwtable
define weak_odr dso_local void @_ZNK6dealii9Functions14PillowFunctionILi2EE10value_listERKSt6vectorINS_5PointILi2EEESaIS5_EERS3_IdSaIdEEj(%"class.dealii::Functions::PillowFunction.69"* %this, %"class.std::vector.19"* dereferenceable(24) %points, %"class.std::vector.3"* dereferenceable(24) %values, i32 %0) unnamed_addr #0 comdat align 2 !dbg !10488 {
entry:
  %this.addr = alloca %"class.dealii::Functions::PillowFunction.69"*, align 8
  %points.addr = alloca %"class.std::vector.19"*, align 8
  %values.addr = alloca %"class.std::vector.3"*, align 8
  %.addr = alloca i32, align 4
  %i = alloca i32, align 4
  %p = alloca %"class.dealii::Point.17"*, align 8
  store %"class.dealii::Functions::PillowFunction.69"* %this, %"class.dealii::Functions::PillowFunction.69"** %this.addr, align 8
  call void @llvm.dbg.declare(metadata %"class.dealii::Functions::PillowFunction.69"** %this.addr, metadata !10489, metadata !DIExpression()), !dbg !10490
  store %"class.std::vector.19"* %points, %"class.std::vector.19"** %points.addr, align 8
  call void @llvm.dbg.declare(metadata %"class.std::vector.19"** %points.addr, metadata !10491, metadata !DIExpression()), !dbg !10492
  store %"class.std::vector.3"* %values, %"class.std::vector.3"** %values.addr, align 8
  call void @llvm.dbg.declare(metadata %"class.std::vector.3"** %values.addr, metadata !10493, metadata !DIExpression()), !dbg !10494
  store i32 %0, i32* %.addr, align 4
  call void @llvm.dbg.declare(metadata i32* %.addr, metadata !10495, metadata !DIExpression()), !dbg !10496
  %this1 = load %"class.dealii::Functions::PillowFunction.69"*, %"class.dealii::Functions::PillowFunction.69"** %this.addr, align 8
  call void @llvm.dbg.declare(metadata i32* %i, metadata !10497, metadata !DIExpression()), !dbg !10499
  store i32 0, i32* %i, align 4, !dbg !10499
  br label %for.cond, !dbg !10500

for.cond:                                         ; preds = %for.inc, %entry
  %1 = load i32, i32* %i, align 4, !dbg !10501
  %conv = zext i32 %1 to i64, !dbg !10501
  %2 = load %"class.std::vector.19"*, %"class.std::vector.19"** %points.addr, align 8, !dbg !10503
  %call = call i64 @_ZNKSt6vectorIN6dealii5PointILi2EEESaIS2_EE4sizeEv(%"class.std::vector.19"* %2) #11, !dbg !10504
  %cmp = icmp ult i64 %conv, %call, !dbg !10505
  br i1 %cmp, label %for.body, label %for.end, !dbg !10506

for.body:                                         ; preds = %for.cond
  call void @llvm.dbg.declare(metadata %"class.dealii::Point.17"** %p, metadata !10507, metadata !DIExpression()), !dbg !10509
  %3 = load %"class.std::vector.19"*, %"class.std::vector.19"** %points.addr, align 8, !dbg !10510
  %4 = load i32, i32* %i, align 4, !dbg !10511
  %conv2 = zext i32 %4 to i64, !dbg !10511
  %call3 = call dereferenceable(16) %"class.dealii::Point.17"* @_ZNKSt6vectorIN6dealii5PointILi2EEESaIS2_EEixEm(%"class.std::vector.19"* %3, i64 %conv2) #11, !dbg !10510
  store %"class.dealii::Point.17"* %call3, %"class.dealii::Point.17"** %p, align 8, !dbg !10509
  %5 = load %"class.dealii::Point.17"*, %"class.dealii::Point.17"** %p, align 8, !dbg !10512
  %call4 = call double @_ZNK6dealii5PointILi2EEclEj(%"class.dealii::Point.17"* %5, i32 0), !dbg !10512
  %6 = load %"class.dealii::Point.17"*, %"class.dealii::Point.17"** %p, align 8, !dbg !10513
  %call5 = call double @_ZNK6dealii5PointILi2EEclEj(%"class.dealii::Point.17"* %6, i32 0), !dbg !10513
  %mul = fmul double %call4, %call5, !dbg !10514
  %sub = fsub double 1.000000e+00, %mul, !dbg !10515
  %7 = load %"class.dealii::Point.17"*, %"class.dealii::Point.17"** %p, align 8, !dbg !10516
  %call6 = call double @_ZNK6dealii5PointILi2EEclEj(%"class.dealii::Point.17"* %7, i32 1), !dbg !10516
  %8 = load %"class.dealii::Point.17"*, %"class.dealii::Point.17"** %p, align 8, !dbg !10517
  %call7 = call double @_ZNK6dealii5PointILi2EEclEj(%"class.dealii::Point.17"* %8, i32 1), !dbg !10517
  %mul8 = fmul double %call6, %call7, !dbg !10518
  %sub9 = fsub double 1.000000e+00, %mul8, !dbg !10519
  %mul10 = fmul double %sub, %sub9, !dbg !10520
  %offset = getelementptr inbounds %"class.dealii::Functions::PillowFunction.69", %"class.dealii::Functions::PillowFunction.69"* %this1, i32 0, i32 1, !dbg !10521
  %9 = load double, double* %offset, align 8, !dbg !10521
  %add = fadd double %mul10, %9, !dbg !10522
  %10 = load %"class.std::vector.3"*, %"class.std::vector.3"** %values.addr, align 8, !dbg !10523
  %11 = load i32, i32* %i, align 4, !dbg !10524
  %conv11 = zext i32 %11 to i64, !dbg !10524
  %call12 = call dereferenceable(8) double* @_ZNSt6vectorIdSaIdEEixEm(%"class.std::vector.3"* %10, i64 %conv11) #11, !dbg !10523
  store double %add, double* %call12, align 8, !dbg !10525
  br label %for.inc, !dbg !10526

for.inc:                                          ; preds = %for.body
  %12 = load i32, i32* %i, align 4, !dbg !10527
  %inc = add i32 %12, 1, !dbg !10527
  store i32 %inc, i32* %i, align 4, !dbg !10527
  br label %for.cond, !dbg !10528, !llvm.loop !10529

for.end:                                          ; preds = %for.cond
  ret void, !dbg !10531
}

; Function Attrs: noinline uwtable
define weak_odr dso_local void @_ZNK6dealii9Functions14PillowFunctionILi2EE8gradientERKNS_5PointILi2EEEj(%"class.dealii::Tensor.18"* noalias sret %agg.result, %"class.dealii::Functions::PillowFunction.69"* %this, %"class.dealii::Point.17"* dereferenceable(16) %p, i32 %0) unnamed_addr #0 comdat align 2 !dbg !10532 {
entry:
  %result.ptr = alloca i8*, align 8
  %this.addr = alloca %"class.dealii::Functions::PillowFunction.69"*, align 8
  %p.addr = alloca %"class.dealii::Point.17"*, align 8
  %.addr = alloca i32, align 4
  %1 = bitcast %"class.dealii::Tensor.18"* %agg.result to i8*
  store i8* %1, i8** %result.ptr, align 8
  store %"class.dealii::Functions::PillowFunction.69"* %this, %"class.dealii::Functions::PillowFunction.69"** %this.addr, align 8
  call void @llvm.dbg.declare(metadata %"class.dealii::Functions::PillowFunction.69"** %this.addr, metadata !10533, metadata !DIExpression()), !dbg !10534
  store %"class.dealii::Point.17"* %p, %"class.dealii::Point.17"** %p.addr, align 8
  call void @llvm.dbg.declare(metadata %"class.dealii::Point.17"** %p.addr, metadata !10535, metadata !DIExpression()), !dbg !10536
  store i32 %0, i32* %.addr, align 4
  call void @llvm.dbg.declare(metadata i32* %.addr, metadata !10537, metadata !DIExpression()), !dbg !10538
  %this1 = load %"class.dealii::Functions::PillowFunction.69"*, %"class.dealii::Functions::PillowFunction.69"** %this.addr, align 8
  call void @llvm.dbg.declare(metadata i8** %result.ptr, metadata !10539, metadata !DIExpression(DW_OP_deref)), !dbg !10540
  call void @_ZN6dealii6TensorILi1ELi2EEC2Eb(%"class.dealii::Tensor.18"* %agg.result, i1 zeroext true), !dbg !10540
  %2 = load %"class.dealii::Point.17"*, %"class.dealii::Point.17"** %p.addr, align 8, !dbg !10541
  %call = call double @_ZNK6dealii5PointILi2EEclEj(%"class.dealii::Point.17"* %2, i32 0), !dbg !10541
  %mul = fmul double -2.000000e+00, %call, !dbg !10542
  %3 = load %"class.dealii::Point.17"*, %"class.dealii::Point.17"** %p.addr, align 8, !dbg !10543
  %call2 = call double @_ZNK6dealii5PointILi2EEclEj(%"class.dealii::Point.17"* %3, i32 1), !dbg !10543
  %4 = load %"class.dealii::Point.17"*, %"class.dealii::Point.17"** %p.addr, align 8, !dbg !10544
  %call3 = call double @_ZNK6dealii5PointILi2EEclEj(%"class.dealii::Point.17"* %4, i32 1), !dbg !10544
  %mul4 = fmul double %call2, %call3, !dbg !10545
  %sub = fsub double 1.000000e+00, %mul4, !dbg !10546
  %mul5 = fmul double %mul, %sub, !dbg !10547
  %call6 = call dereferenceable(8) double* @_ZN6dealii6TensorILi1ELi2EEixEj(%"class.dealii::Tensor.18"* %agg.result, i32 0), !dbg !10548
  store double %mul5, double* %call6, align 8, !dbg !10549
  %5 = load %"class.dealii::Point.17"*, %"class.dealii::Point.17"** %p.addr, align 8, !dbg !10550
  %call7 = call double @_ZNK6dealii5PointILi2EEclEj(%"class.dealii::Point.17"* %5, i32 1), !dbg !10550
  %mul8 = fmul double -2.000000e+00, %call7, !dbg !10551
  %6 = load %"class.dealii::Point.17"*, %"class.dealii::Point.17"** %p.addr, align 8, !dbg !10552
  %call9 = call double @_ZNK6dealii5PointILi2EEclEj(%"class.dealii::Point.17"* %6, i32 0), !dbg !10552
  %7 = load %"class.dealii::Point.17"*, %"class.dealii::Point.17"** %p.addr, align 8, !dbg !10553
  %call10 = call double @_ZNK6dealii5PointILi2EEclEj(%"class.dealii::Point.17"* %7, i32 0), !dbg !10553
  %mul11 = fmul double %call9, %call10, !dbg !10554
  %sub12 = fsub double 1.000000e+00, %mul11, !dbg !10555
  %mul13 = fmul double %mul8, %sub12, !dbg !10556
  %call14 = call dereferenceable(8) double* @_ZN6dealii6TensorILi1ELi2EEixEj(%"class.dealii::Tensor.18"* %agg.result, i32 1), !dbg !10557
  store double %mul13, double* %call14, align 8, !dbg !10558
  ret void, !dbg !10559
}

; Function Attrs: noinline uwtable
define weak_odr dso_local void @_ZNK6dealii9Functions14PillowFunctionILi2EE13gradient_listERKSt6vectorINS_5PointILi2EEESaIS5_EERS3_INS_6TensorILi1ELi2EEESaISB_EEj(%"class.dealii::Functions::PillowFunction.69"* %this, %"class.std::vector.19"* dereferenceable(24) %points, %"class.std::vector.24"* dereferenceable(24) %gradients, i32 %0) unnamed_addr #0 comdat align 2 !dbg !10560 {
entry:
  %this.addr = alloca %"class.dealii::Functions::PillowFunction.69"*, align 8
  %points.addr = alloca %"class.std::vector.19"*, align 8
  %gradients.addr = alloca %"class.std::vector.24"*, align 8
  %.addr = alloca i32, align 4
  %i = alloca i32, align 4
  %p = alloca %"class.dealii::Point.17"*, align 8
  store %"class.dealii::Functions::PillowFunction.69"* %this, %"class.dealii::Functions::PillowFunction.69"** %this.addr, align 8
  call void @llvm.dbg.declare(metadata %"class.dealii::Functions::PillowFunction.69"** %this.addr, metadata !10561, metadata !DIExpression()), !dbg !10562
  store %"class.std::vector.19"* %points, %"class.std::vector.19"** %points.addr, align 8
  call void @llvm.dbg.declare(metadata %"class.std::vector.19"** %points.addr, metadata !10563, metadata !DIExpression()), !dbg !10564
  store %"class.std::vector.24"* %gradients, %"class.std::vector.24"** %gradients.addr, align 8
  call void @llvm.dbg.declare(metadata %"class.std::vector.24"** %gradients.addr, metadata !10565, metadata !DIExpression()), !dbg !10566
  store i32 %0, i32* %.addr, align 4
  call void @llvm.dbg.declare(metadata i32* %.addr, metadata !10567, metadata !DIExpression()), !dbg !10568
  %this1 = load %"class.dealii::Functions::PillowFunction.69"*, %"class.dealii::Functions::PillowFunction.69"** %this.addr, align 8
  call void @llvm.dbg.declare(metadata i32* %i, metadata !10569, metadata !DIExpression()), !dbg !10571
  store i32 0, i32* %i, align 4, !dbg !10571
  br label %for.cond, !dbg !10572

for.cond:                                         ; preds = %for.inc, %entry
  %1 = load i32, i32* %i, align 4, !dbg !10573
  %conv = zext i32 %1 to i64, !dbg !10573
  %2 = load %"class.std::vector.19"*, %"class.std::vector.19"** %points.addr, align 8, !dbg !10575
  %call = call i64 @_ZNKSt6vectorIN6dealii5PointILi2EEESaIS2_EE4sizeEv(%"class.std::vector.19"* %2) #11, !dbg !10576
  %cmp = icmp ult i64 %conv, %call, !dbg !10577
  br i1 %cmp, label %for.body, label %for.end, !dbg !10578

for.body:                                         ; preds = %for.cond
  call void @llvm.dbg.declare(metadata %"class.dealii::Point.17"** %p, metadata !10579, metadata !DIExpression()), !dbg !10581
  %3 = load %"class.std::vector.19"*, %"class.std::vector.19"** %points.addr, align 8, !dbg !10582
  %4 = load i32, i32* %i, align 4, !dbg !10583
  %conv2 = zext i32 %4 to i64, !dbg !10583
  %call3 = call dereferenceable(16) %"class.dealii::Point.17"* @_ZNKSt6vectorIN6dealii5PointILi2EEESaIS2_EEixEm(%"class.std::vector.19"* %3, i64 %conv2) #11, !dbg !10582
  store %"class.dealii::Point.17"* %call3, %"class.dealii::Point.17"** %p, align 8, !dbg !10581
  %5 = load %"class.dealii::Point.17"*, %"class.dealii::Point.17"** %p, align 8, !dbg !10584
  %call4 = call double @_ZNK6dealii5PointILi2EEclEj(%"class.dealii::Point.17"* %5, i32 0), !dbg !10584
  %mul = fmul double -2.000000e+00, %call4, !dbg !10585
  %6 = load %"class.dealii::Point.17"*, %"class.dealii::Point.17"** %p, align 8, !dbg !10586
  %call5 = call double @_ZNK6dealii5PointILi2EEclEj(%"class.dealii::Point.17"* %6, i32 1), !dbg !10586
  %7 = load %"class.dealii::Point.17"*, %"class.dealii::Point.17"** %p, align 8, !dbg !10587
  %call6 = call double @_ZNK6dealii5PointILi2EEclEj(%"class.dealii::Point.17"* %7, i32 1), !dbg !10587
  %mul7 = fmul double %call5, %call6, !dbg !10588
  %sub = fsub double 1.000000e+00, %mul7, !dbg !10589
  %mul8 = fmul double %mul, %sub, !dbg !10590
  %8 = load %"class.std::vector.24"*, %"class.std::vector.24"** %gradients.addr, align 8, !dbg !10591
  %9 = load i32, i32* %i, align 4, !dbg !10592
  %conv9 = zext i32 %9 to i64, !dbg !10592
  %call10 = call dereferenceable(16) %"class.dealii::Tensor.18"* @_ZNSt6vectorIN6dealii6TensorILi1ELi2EEESaIS2_EEixEm(%"class.std::vector.24"* %8, i64 %conv9) #11, !dbg !10591
  %call11 = call dereferenceable(8) double* @_ZN6dealii6TensorILi1ELi2EEixEj(%"class.dealii::Tensor.18"* %call10, i32 0), !dbg !10591
  store double %mul8, double* %call11, align 8, !dbg !10593
  %10 = load %"class.dealii::Point.17"*, %"class.dealii::Point.17"** %p, align 8, !dbg !10594
  %call12 = call double @_ZNK6dealii5PointILi2EEclEj(%"class.dealii::Point.17"* %10, i32 1), !dbg !10594
  %mul13 = fmul double -2.000000e+00, %call12, !dbg !10595
  %11 = load %"class.dealii::Point.17"*, %"class.dealii::Point.17"** %p, align 8, !dbg !10596
  %call14 = call double @_ZNK6dealii5PointILi2EEclEj(%"class.dealii::Point.17"* %11, i32 0), !dbg !10596
  %12 = load %"class.dealii::Point.17"*, %"class.dealii::Point.17"** %p, align 8, !dbg !10597
  %call15 = call double @_ZNK6dealii5PointILi2EEclEj(%"class.dealii::Point.17"* %12, i32 0), !dbg !10597
  %mul16 = fmul double %call14, %call15, !dbg !10598
  %sub17 = fsub double 1.000000e+00, %mul16, !dbg !10599
  %mul18 = fmul double %mul13, %sub17, !dbg !10600
  %13 = load %"class.std::vector.24"*, %"class.std::vector.24"** %gradients.addr, align 8, !dbg !10601
  %14 = load i32, i32* %i, align 4, !dbg !10602
  %conv19 = zext i32 %14 to i64, !dbg !10602
  %call20 = call dereferenceable(16) %"class.dealii::Tensor.18"* @_ZNSt6vectorIN6dealii6TensorILi1ELi2EEESaIS2_EEixEm(%"class.std::vector.24"* %13, i64 %conv19) #11, !dbg !10601
  %call21 = call dereferenceable(8) double* @_ZN6dealii6TensorILi1ELi2EEixEj(%"class.dealii::Tensor.18"* %call20, i32 1), !dbg !10601
  store double %mul18, double* %call21, align 8, !dbg !10603
  br label %for.inc, !dbg !10604

for.inc:                                          ; preds = %for.body
  %15 = load i32, i32* %i, align 4, !dbg !10605
  %inc = add i32 %15, 1, !dbg !10605
  store i32 %inc, i32* %i, align 4, !dbg !10605
  br label %for.cond, !dbg !10606, !llvm.loop !10607

for.end:                                          ; preds = %for.cond
  ret void, !dbg !10609
}

; Function Attrs: noinline uwtable
define weak_odr dso_local double @_ZNK6dealii9Functions14PillowFunctionILi2EE9laplacianERKNS_5PointILi2EEEj(%"class.dealii::Functions::PillowFunction.69"* %this, %"class.dealii::Point.17"* dereferenceable(16) %p, i32 %0) unnamed_addr #0 comdat align 2 !dbg !10610 {
entry:
  %this.addr = alloca %"class.dealii::Functions::PillowFunction.69"*, align 8
  %p.addr = alloca %"class.dealii::Point.17"*, align 8
  %.addr = alloca i32, align 4
  store %"class.dealii::Functions::PillowFunction.69"* %this, %"class.dealii::Functions::PillowFunction.69"** %this.addr, align 8
  call void @llvm.dbg.declare(metadata %"class.dealii::Functions::PillowFunction.69"** %this.addr, metadata !10611, metadata !DIExpression()), !dbg !10612
  store %"class.dealii::Point.17"* %p, %"class.dealii::Point.17"** %p.addr, align 8
  call void @llvm.dbg.declare(metadata %"class.dealii::Point.17"** %p.addr, metadata !10613, metadata !DIExpression()), !dbg !10614
  store i32 %0, i32* %.addr, align 4
  call void @llvm.dbg.declare(metadata i32* %.addr, metadata !10615, metadata !DIExpression()), !dbg !10616
  %this1 = load %"class.dealii::Functions::PillowFunction.69"*, %"class.dealii::Functions::PillowFunction.69"** %this.addr, align 8
  %1 = load %"class.dealii::Point.17"*, %"class.dealii::Point.17"** %p.addr, align 8, !dbg !10617
  %call = call double @_ZNK6dealii5PointILi2EEclEj(%"class.dealii::Point.17"* %1, i32 0), !dbg !10617
  %2 = load %"class.dealii::Point.17"*, %"class.dealii::Point.17"** %p.addr, align 8, !dbg !10618
  %call2 = call double @_ZNK6dealii5PointILi2EEclEj(%"class.dealii::Point.17"* %2, i32 0), !dbg !10618
  %mul = fmul double %call, %call2, !dbg !10619
  %sub = fsub double 1.000000e+00, %mul, !dbg !10620
  %3 = load %"class.dealii::Point.17"*, %"class.dealii::Point.17"** %p.addr, align 8, !dbg !10621
  %call3 = call double @_ZNK6dealii5PointILi2EEclEj(%"class.dealii::Point.17"* %3, i32 1), !dbg !10621
  %4 = load %"class.dealii::Point.17"*, %"class.dealii::Point.17"** %p.addr, align 8, !dbg !10622
  %call4 = call double @_ZNK6dealii5PointILi2EEclEj(%"class.dealii::Point.17"* %4, i32 1), !dbg !10622
  %mul5 = fmul double %call3, %call4, !dbg !10623
  %sub6 = fsub double 1.000000e+00, %mul5, !dbg !10624
  %add = fadd double %sub, %sub6, !dbg !10625
  %mul7 = fmul double -2.000000e+00, %add, !dbg !10626
  ret double %mul7, !dbg !10627
}

; Function Attrs: noinline uwtable
define weak_odr dso_local void @_ZNK6dealii9Functions14PillowFunctionILi2EE14laplacian_listERKSt6vectorINS_5PointILi2EEESaIS5_EERS3_IdSaIdEEj(%"class.dealii::Functions::PillowFunction.69"* %this, %"class.std::vector.19"* dereferenceable(24) %points, %"class.std::vector.3"* dereferenceable(24) %values, i32 %0) unnamed_addr #0 comdat align 2 !dbg !10628 {
entry:
  %this.addr = alloca %"class.dealii::Functions::PillowFunction.69"*, align 8
  %points.addr = alloca %"class.std::vector.19"*, align 8
  %values.addr = alloca %"class.std::vector.3"*, align 8
  %.addr = alloca i32, align 4
  %i = alloca i32, align 4
  %p = alloca %"class.dealii::Point.17"*, align 8
  store %"class.dealii::Functions::PillowFunction.69"* %this, %"class.dealii::Functions::PillowFunction.69"** %this.addr, align 8
  call void @llvm.dbg.declare(metadata %"class.dealii::Functions::PillowFunction.69"** %this.addr, metadata !10629, metadata !DIExpression()), !dbg !10630
  store %"class.std::vector.19"* %points, %"class.std::vector.19"** %points.addr, align 8
  call void @llvm.dbg.declare(metadata %"class.std::vector.19"** %points.addr, metadata !10631, metadata !DIExpression()), !dbg !10632
  store %"class.std::vector.3"* %values, %"class.std::vector.3"** %values.addr, align 8
  call void @llvm.dbg.declare(metadata %"class.std::vector.3"** %values.addr, metadata !10633, metadata !DIExpression()), !dbg !10634
  store i32 %0, i32* %.addr, align 4
  call void @llvm.dbg.declare(metadata i32* %.addr, metadata !10635, metadata !DIExpression()), !dbg !10636
  %this1 = load %"class.dealii::Functions::PillowFunction.69"*, %"class.dealii::Functions::PillowFunction.69"** %this.addr, align 8
  call void @llvm.dbg.declare(metadata i32* %i, metadata !10637, metadata !DIExpression()), !dbg !10639
  store i32 0, i32* %i, align 4, !dbg !10639
  br label %for.cond, !dbg !10640

for.cond:                                         ; preds = %for.inc, %entry
  %1 = load i32, i32* %i, align 4, !dbg !10641
  %conv = zext i32 %1 to i64, !dbg !10641
  %2 = load %"class.std::vector.19"*, %"class.std::vector.19"** %points.addr, align 8, !dbg !10643
  %call = call i64 @_ZNKSt6vectorIN6dealii5PointILi2EEESaIS2_EE4sizeEv(%"class.std::vector.19"* %2) #11, !dbg !10644
  %cmp = icmp ult i64 %conv, %call, !dbg !10645
  br i1 %cmp, label %for.body, label %for.end, !dbg !10646

for.body:                                         ; preds = %for.cond
  call void @llvm.dbg.declare(metadata %"class.dealii::Point.17"** %p, metadata !10647, metadata !DIExpression()), !dbg !10649
  %3 = load %"class.std::vector.19"*, %"class.std::vector.19"** %points.addr, align 8, !dbg !10650
  %4 = load i32, i32* %i, align 4, !dbg !10651
  %conv2 = zext i32 %4 to i64, !dbg !10651
  %call3 = call dereferenceable(16) %"class.dealii::Point.17"* @_ZNKSt6vectorIN6dealii5PointILi2EEESaIS2_EEixEm(%"class.std::vector.19"* %3, i64 %conv2) #11, !dbg !10650
  store %"class.dealii::Point.17"* %call3, %"class.dealii::Point.17"** %p, align 8, !dbg !10649
  %5 = load %"class.dealii::Point.17"*, %"class.dealii::Point.17"** %p, align 8, !dbg !10652
  %call4 = call double @_ZNK6dealii5PointILi2EEclEj(%"class.dealii::Point.17"* %5, i32 0), !dbg !10652
  %6 = load %"class.dealii::Point.17"*, %"class.dealii::Point.17"** %p, align 8, !dbg !10653
  %call5 = call double @_ZNK6dealii5PointILi2EEclEj(%"class.dealii::Point.17"* %6, i32 0), !dbg !10653
  %mul = fmul double %call4, %call5, !dbg !10654
  %sub = fsub double 1.000000e+00, %mul, !dbg !10655
  %7 = load %"class.dealii::Point.17"*, %"class.dealii::Point.17"** %p, align 8, !dbg !10656
  %call6 = call double @_ZNK6dealii5PointILi2EEclEj(%"class.dealii::Point.17"* %7, i32 1), !dbg !10656
  %8 = load %"class.dealii::Point.17"*, %"class.dealii::Point.17"** %p, align 8, !dbg !10657
  %call7 = call double @_ZNK6dealii5PointILi2EEclEj(%"class.dealii::Point.17"* %8, i32 1), !dbg !10657
  %mul8 = fmul double %call6, %call7, !dbg !10658
  %sub9 = fsub double 1.000000e+00, %mul8, !dbg !10659
  %add = fadd double %sub, %sub9, !dbg !10660
  %mul10 = fmul double -2.000000e+00, %add, !dbg !10661
  %9 = load %"class.std::vector.3"*, %"class.std::vector.3"** %values.addr, align 8, !dbg !10662
  %10 = load i32, i32* %i, align 4, !dbg !10663
  %conv11 = zext i32 %10 to i64, !dbg !10663
  %call12 = call dereferenceable(8) double* @_ZNSt6vectorIdSaIdEEixEm(%"class.std::vector.3"* %9, i64 %conv11) #11, !dbg !10662
  store double %mul10, double* %call12, align 8, !dbg !10664
  br label %for.inc, !dbg !10665

for.inc:                                          ; preds = %for.body
  %11 = load i32, i32* %i, align 4, !dbg !10666
  %inc = add i32 %11, 1, !dbg !10666
  store i32 %inc, i32* %i, align 4, !dbg !10666
  br label %for.cond, !dbg !10667, !llvm.loop !10668

for.end:                                          ; preds = %for.cond
  ret void, !dbg !10670
}

; Function Attrs: noinline uwtable
define weak_odr dso_local void @_ZN6dealii9Functions14PillowFunctionILi3EEC2Ed(%"class.dealii::Functions::PillowFunction.70"* %this, double %offset) unnamed_addr #0 comdat($_ZN6dealii9Functions14PillowFunctionILi3EEC5Ed) align 2 !dbg !10671 {
entry:
  %this.addr = alloca %"class.dealii::Functions::PillowFunction.70"*, align 8
  %offset.addr = alloca double, align 8
  store %"class.dealii::Functions::PillowFunction.70"* %this, %"class.dealii::Functions::PillowFunction.70"** %this.addr, align 8
  call void @llvm.dbg.declare(metadata %"class.dealii::Functions::PillowFunction.70"** %this.addr, metadata !10672, metadata !DIExpression()), !dbg !10674
  store double %offset, double* %offset.addr, align 8
  call void @llvm.dbg.declare(metadata double* %offset.addr, metadata !10675, metadata !DIExpression()), !dbg !10676
  %this1 = load %"class.dealii::Functions::PillowFunction.70"*, %"class.dealii::Functions::PillowFunction.70"** %this.addr, align 8
  %0 = bitcast %"class.dealii::Functions::PillowFunction.70"* %this1 to %"class.dealii::Function.30"*, !dbg !10677
  call void @_ZN6dealii8FunctionILi3EEC2Ejd(%"class.dealii::Function.30"* %0, i32 1, double 0.000000e+00), !dbg !10678
  %1 = bitcast %"class.dealii::Functions::PillowFunction.70"* %this1 to i32 (...)***, !dbg !10677
  store i32 (...)** bitcast (i8** getelementptr inbounds ({ [18 x i8*], [4 x i8*] }, { [18 x i8*], [4 x i8*] }* @_ZTVN6dealii9Functions14PillowFunctionILi3EEE, i32 0, inrange i32 0, i32 2) to i32 (...)**), i32 (...)*** %1, align 8, !dbg !10677
  %2 = bitcast %"class.dealii::Functions::PillowFunction.70"* %this1 to i8*, !dbg !10677
  %add.ptr = getelementptr inbounds i8, i8* %2, i64 16, !dbg !10677
  %3 = bitcast i8* %add.ptr to i32 (...)***, !dbg !10677
  store i32 (...)** bitcast (i8** getelementptr inbounds ({ [18 x i8*], [4 x i8*] }, { [18 x i8*], [4 x i8*] }* @_ZTVN6dealii9Functions14PillowFunctionILi3EEE, i32 0, inrange i32 1, i32 2) to i32 (...)**), i32 (...)*** %3, align 8, !dbg !10677
  %offset2 = getelementptr inbounds %"class.dealii::Functions::PillowFunction.70", %"class.dealii::Functions::PillowFunction.70"* %this1, i32 0, i32 1, !dbg !10680
  %4 = load double, double* %offset.addr, align 8, !dbg !10682
  store double %4, double* %offset2, align 8, !dbg !10680
  ret void, !dbg !10683
}

declare dso_local void @_ZN6dealii8FunctionILi3EEC2Ejd(%"class.dealii::Function.30"*, i32, double) unnamed_addr #3

; Function Attrs: noinline uwtable
define weak_odr dso_local double @_ZNK6dealii9Functions14PillowFunctionILi3EE5valueERKNS_5PointILi3EEEj(%"class.dealii::Functions::PillowFunction.70"* %this, %"class.dealii::Point.33"* dereferenceable(24) %p, i32 %0) unnamed_addr #0 comdat align 2 !dbg !10684 {
entry:
  %this.addr = alloca %"class.dealii::Functions::PillowFunction.70"*, align 8
  %p.addr = alloca %"class.dealii::Point.33"*, align 8
  %.addr = alloca i32, align 4
  store %"class.dealii::Functions::PillowFunction.70"* %this, %"class.dealii::Functions::PillowFunction.70"** %this.addr, align 8
  call void @llvm.dbg.declare(metadata %"class.dealii::Functions::PillowFunction.70"** %this.addr, metadata !10685, metadata !DIExpression()), !dbg !10687
  store %"class.dealii::Point.33"* %p, %"class.dealii::Point.33"** %p.addr, align 8
  call void @llvm.dbg.declare(metadata %"class.dealii::Point.33"** %p.addr, metadata !10688, metadata !DIExpression()), !dbg !10689
  store i32 %0, i32* %.addr, align 4
  call void @llvm.dbg.declare(metadata i32* %.addr, metadata !10690, metadata !DIExpression()), !dbg !10691
  %this1 = load %"class.dealii::Functions::PillowFunction.70"*, %"class.dealii::Functions::PillowFunction.70"** %this.addr, align 8
  %1 = load %"class.dealii::Point.33"*, %"class.dealii::Point.33"** %p.addr, align 8, !dbg !10692
  %call = call double @_ZNK6dealii5PointILi3EEclEj(%"class.dealii::Point.33"* %1, i32 0), !dbg !10692
  %2 = load %"class.dealii::Point.33"*, %"class.dealii::Point.33"** %p.addr, align 8, !dbg !10693
  %call2 = call double @_ZNK6dealii5PointILi3EEclEj(%"class.dealii::Point.33"* %2, i32 0), !dbg !10693
  %mul = fmul double %call, %call2, !dbg !10694
  %sub = fsub double 1.000000e+00, %mul, !dbg !10695
  %3 = load %"class.dealii::Point.33"*, %"class.dealii::Point.33"** %p.addr, align 8, !dbg !10696
  %call3 = call double @_ZNK6dealii5PointILi3EEclEj(%"class.dealii::Point.33"* %3, i32 1), !dbg !10696
  %4 = load %"class.dealii::Point.33"*, %"class.dealii::Point.33"** %p.addr, align 8, !dbg !10697
  %call4 = call double @_ZNK6dealii5PointILi3EEclEj(%"class.dealii::Point.33"* %4, i32 1), !dbg !10697
  %mul5 = fmul double %call3, %call4, !dbg !10698
  %sub6 = fsub double 1.000000e+00, %mul5, !dbg !10699
  %mul7 = fmul double %sub, %sub6, !dbg !10700
  %5 = load %"class.dealii::Point.33"*, %"class.dealii::Point.33"** %p.addr, align 8, !dbg !10701
  %call8 = call double @_ZNK6dealii5PointILi3EEclEj(%"class.dealii::Point.33"* %5, i32 2), !dbg !10701
  %6 = load %"class.dealii::Point.33"*, %"class.dealii::Point.33"** %p.addr, align 8, !dbg !10702
  %call9 = call double @_ZNK6dealii5PointILi3EEclEj(%"class.dealii::Point.33"* %6, i32 2), !dbg !10702
  %mul10 = fmul double %call8, %call9, !dbg !10703
  %sub11 = fsub double 1.000000e+00, %mul10, !dbg !10704
  %mul12 = fmul double %mul7, %sub11, !dbg !10705
  %offset = getelementptr inbounds %"class.dealii::Functions::PillowFunction.70", %"class.dealii::Functions::PillowFunction.70"* %this1, i32 0, i32 1, !dbg !10706
  %7 = load double, double* %offset, align 8, !dbg !10706
  %add = fadd double %mul12, %7, !dbg !10707
  ret double %add, !dbg !10708
}

; Function Attrs: noinline uwtable
define weak_odr dso_local void @_ZNK6dealii9Functions14PillowFunctionILi3EE10value_listERKSt6vectorINS_5PointILi3EEESaIS5_EERS3_IdSaIdEEj(%"class.dealii::Functions::PillowFunction.70"* %this, %"class.std::vector.35"* dereferenceable(24) %points, %"class.std::vector.3"* dereferenceable(24) %values, i32 %0) unnamed_addr #0 comdat align 2 !dbg !10709 {
entry:
  %this.addr = alloca %"class.dealii::Functions::PillowFunction.70"*, align 8
  %points.addr = alloca %"class.std::vector.35"*, align 8
  %values.addr = alloca %"class.std::vector.3"*, align 8
  %.addr = alloca i32, align 4
  %i = alloca i32, align 4
  %p = alloca %"class.dealii::Point.33"*, align 8
  store %"class.dealii::Functions::PillowFunction.70"* %this, %"class.dealii::Functions::PillowFunction.70"** %this.addr, align 8
  call void @llvm.dbg.declare(metadata %"class.dealii::Functions::PillowFunction.70"** %this.addr, metadata !10710, metadata !DIExpression()), !dbg !10711
  store %"class.std::vector.35"* %points, %"class.std::vector.35"** %points.addr, align 8
  call void @llvm.dbg.declare(metadata %"class.std::vector.35"** %points.addr, metadata !10712, metadata !DIExpression()), !dbg !10713
  store %"class.std::vector.3"* %values, %"class.std::vector.3"** %values.addr, align 8
  call void @llvm.dbg.declare(metadata %"class.std::vector.3"** %values.addr, metadata !10714, metadata !DIExpression()), !dbg !10715
  store i32 %0, i32* %.addr, align 4
  call void @llvm.dbg.declare(metadata i32* %.addr, metadata !10716, metadata !DIExpression()), !dbg !10717
  %this1 = load %"class.dealii::Functions::PillowFunction.70"*, %"class.dealii::Functions::PillowFunction.70"** %this.addr, align 8
  call void @llvm.dbg.declare(metadata i32* %i, metadata !10718, metadata !DIExpression()), !dbg !10720
  store i32 0, i32* %i, align 4, !dbg !10720
  br label %for.cond, !dbg !10721

for.cond:                                         ; preds = %for.inc, %entry
  %1 = load i32, i32* %i, align 4, !dbg !10722
  %conv = zext i32 %1 to i64, !dbg !10722
  %2 = load %"class.std::vector.35"*, %"class.std::vector.35"** %points.addr, align 8, !dbg !10724
  %call = call i64 @_ZNKSt6vectorIN6dealii5PointILi3EEESaIS2_EE4sizeEv(%"class.std::vector.35"* %2) #11, !dbg !10725
  %cmp = icmp ult i64 %conv, %call, !dbg !10726
  br i1 %cmp, label %for.body, label %for.end, !dbg !10727

for.body:                                         ; preds = %for.cond
  call void @llvm.dbg.declare(metadata %"class.dealii::Point.33"** %p, metadata !10728, metadata !DIExpression()), !dbg !10730
  %3 = load %"class.std::vector.35"*, %"class.std::vector.35"** %points.addr, align 8, !dbg !10731
  %4 = load i32, i32* %i, align 4, !dbg !10732
  %conv2 = zext i32 %4 to i64, !dbg !10732
