; ModuleID = 'source/lac/compressed_sparsity_pattern.cc'
source_filename = "source/lac/compressed_sparsity_pattern.cc"
target datalayout = "e-m:e-p270:32:32-p271:32:32-p272:64:64-i64:64-f80:128-n8:16:32:64-S128"
target triple = "x86_64-unknown-linux-gnu"

%"class.std::ios_base::Init" = type { i8 }
%"class.dealii::CompressedSparsityPattern" = type { %"class.dealii::Subscriptor", i32, i32, %"class.std::vector.3" }
%"class.dealii::Subscriptor" = type { i32 (...)**, i32, %"class.std::map", %"class.std::type_info"* }
%"class.std::map" = type { %"class.std::_Rb_tree" }
%"class.std::_Rb_tree" = type { %"struct.std::_Rb_tree<const char *, std::pair<const char *const, unsigned int>, std::_Select1st<std::pair<const char *const, unsigned int> >, std::less<const char *>, std::allocator<std::pair<const char *const, unsigned int> > >::_Rb_tree_impl" }
%"struct.std::_Rb_tree<const char *, std::pair<const char *const, unsigned int>, std::_Select1st<std::pair<const char *const, unsigned int> >, std::less<const char *>, std::allocator<std::pair<const char *const, unsigned int> > >::_Rb_tree_impl" = type { %"struct.std::_Rb_tree_key_compare", %"struct.std::_Rb_tree_header" }
%"struct.std::_Rb_tree_key_compare" = type { %"struct.std::less" }
%"struct.std::less" = type { i8 }
%"struct.std::_Rb_tree_header" = type { %"struct.std::_Rb_tree_node_base", i64 }
%"struct.std::_Rb_tree_node_base" = type { i32, %"struct.std::_Rb_tree_node_base"*, %"struct.std::_Rb_tree_node_base"*, %"struct.std::_Rb_tree_node_base"* }
%"class.std::type_info" = type { i32 (...)**, i8* }
%"class.std::vector.3" = type { %"struct.std::_Vector_base.4" }
%"struct.std::_Vector_base.4" = type { %"struct.std::_Vector_base<dealii::CompressedSparsityPattern::Line, std::allocator<dealii::CompressedSparsityPattern::Line> >::_Vector_impl" }
%"struct.std::_Vector_base<dealii::CompressedSparsityPattern::Line, std::allocator<dealii::CompressedSparsityPattern::Line> >::_Vector_impl" = type { %"struct.std::_Vector_base<dealii::CompressedSparsityPattern::Line, std::allocator<dealii::CompressedSparsityPattern::Line> >::_Vector_impl_data" }
%"struct.std::_Vector_base<dealii::CompressedSparsityPattern::Line, std::allocator<dealii::CompressedSparsityPattern::Line> >::_Vector_impl_data" = type { %"struct.dealii::CompressedSparsityPattern::Line"*, %"struct.dealii::CompressedSparsityPattern::Line"*, %"struct.dealii::CompressedSparsityPattern::Line"* }
%"struct.dealii::CompressedSparsityPattern::Line" = type <{ %"class.std::vector", [8 x i32], i32, [4 x i8] }>
%"class.std::vector" = type { %"struct.std::_Vector_base" }
%"struct.std::_Vector_base" = type { %"struct.std::_Vector_base<unsigned int, std::allocator<unsigned int> >::_Vector_impl" }
%"struct.std::_Vector_base<unsigned int, std::allocator<unsigned int> >::_Vector_impl" = type { %"struct.std::_Vector_base<unsigned int, std::allocator<unsigned int> >::_Vector_impl_data" }
%"struct.std::_Vector_base<unsigned int, std::allocator<unsigned int> >::_Vector_impl_data" = type { i32*, i32*, i32* }
%"struct.__gnu_cxx::__ops::_Iter_less_iter" = type { i8 }
%"class.std::allocator" = type { i8 }
%"class.__gnu_cxx::__normal_iterator" = type { i32* }
%"class.std::allocator.5" = type { i8 }
%"class.__gnu_cxx::new_allocator.6" = type { i8 }
%"struct.__gnu_cxx::__ops::_Iter_less_val" = type { i8 }
%"class.__gnu_cxx::__normal_iterator.8" = type { i32* }
%"class.std::basic_ostream" = type { i32 (...)**, %"class.std::basic_ios" }
%"class.std::basic_ios" = type { %"class.std::ios_base", %"class.std::basic_ostream"*, i8, i8, %"class.std::basic_streambuf"*, %"class.std::ctype"*, %"class.std::num_put"*, %"class.std::num_get"* }
%"class.std::ios_base" = type { i32 (...)**, i64, i64, i32, i32, i32, %"struct.std::ios_base::_Callback_list"*, %"struct.std::ios_base::_Words", [8 x %"struct.std::ios_base::_Words"], i32, %"struct.std::ios_base::_Words"*, %"class.std::locale" }
%"struct.std::ios_base::_Callback_list" = type { %"struct.std::ios_base::_Callback_list"*, void (i32, %"class.std::ios_base"*, i32)*, i32, i32 }
%"struct.std::ios_base::_Words" = type { i8*, i64 }
%"class.std::locale" = type { %"class.std::locale::_Impl"* }
%"class.std::locale::_Impl" = type { i32, %"class.std::locale::facet"**, i64, %"class.std::locale::facet"**, i8** }
%"class.std::locale::facet" = type <{ i32 (...)**, i32, [4 x i8] }>
%"class.std::basic_streambuf" = type { i32 (...)**, i8*, i8*, i8*, i8*, i8*, i8*, %"class.std::locale" }
%"class.std::ctype" = type <{ %"class.std::locale::facet.base", [4 x i8], %struct.__locale_struct*, i8, [7 x i8], i32*, i32*, i16*, i8, [256 x i8], [256 x i8], i8, [6 x i8] }>
%"class.std::locale::facet.base" = type <{ i32 (...)**, i32 }>
%struct.__locale_struct = type { [13 x %struct.__locale_data*], i16*, i32*, i32*, [13 x i8*] }
%struct.__locale_data = type opaque
%"class.std::num_put" = type { %"class.std::locale::facet.base", [4 x i8] }
%"class.std::num_get" = type { %"class.std::locale::facet.base", [4 x i8] }
%"class.dealii::StandardExceptions::ExcIO" = type { %"class.dealii::ExceptionBase.base", [4 x i8] }
%"class.dealii::ExceptionBase.base" = type <{ %"class.std::exception", i8*, i32, [4 x i8], i8*, i8*, i8*, i8**, i32 }>
%"class.std::exception" = type { i32 (...)** }
%"class.dealii::ExceptionBase" = type <{ %"class.std::exception", i8*, i32, [4 x i8], i8*, i8*, i8*, i8**, i32, [4 x i8] }>
%"class.__gnu_cxx::new_allocator" = type { i8 }
%"struct.__gnu_cxx::__ops::_Val_less_iter" = type { i8 }
%"struct.std::integral_constant" = type { i8 }
%"struct.std::random_access_iterator_tag" = type { i8 }
%"struct.std::integral_constant.9" = type { i8 }

$_ZSt4swapIjENSt9enable_ifIXsr6__and_ISt6__not_ISt15__is_tuple_likeIT_EESt21is_move_constructibleIS3_ESt18is_move_assignableIS3_EEE5valueEvE4typeERS3_SC_ = comdat any

$_ZSt4sortIPjEvT_S1_ = comdat any

$_ZNKSt6vectorIjSaIjEE4sizeEv = comdat any

$_ZNSt6vectorIjSaIjEE6resizeEm = comdat any

$_ZNSt6vectorIjSaIjEEixEm = comdat any

$_ZNSt6vectorIjSaIjEEC2Ev = comdat any

$_ZNSt6vectorIjSaIjEE7reserveEm = comdat any

$_ZNSt6vectorIjSaIjEE9push_backERKj = comdat any

$_ZNSt6vectorIjSaIjEE4swapERS1_ = comdat any

$_ZNSt6vectorIjSaIjEED2Ev = comdat any

$_ZNSt6vectorIN6dealii25CompressedSparsityPattern4LineESaIS2_EEC2Ev = comdat any

$_ZNSt6vectorIN6dealii25CompressedSparsityPattern4LineESaIS2_EED2Ev = comdat any

$_ZNSaIN6dealii25CompressedSparsityPattern4LineEEC2Ev = comdat any

$_ZNSt6vectorIN6dealii25CompressedSparsityPattern4LineESaIS2_EEC2EmRKS3_ = comdat any

$_ZNSaIN6dealii25CompressedSparsityPattern4LineEED2Ev = comdat any

$_ZNSt6vectorIN6dealii25CompressedSparsityPattern4LineESaIS2_EE4swapERS4_ = comdat any

$_ZNKSt6vectorIN6dealii25CompressedSparsityPattern4LineESaIS2_EEixEm = comdat any

$_ZSt3maxIjERKT_S2_S2_ = comdat any

$_ZSt13binary_searchIN9__gnu_cxx17__normal_iteratorIPjSt6vectorIjSaIjEEEEjEbT_S7_RKT0_ = comdat any

$_ZNSt6vectorIjSaIjEE5beginEv = comdat any

$_ZNSt6vectorIjSaIjEE3endEv = comdat any

$_ZNSt6vectorIN6dealii25CompressedSparsityPattern4LineESaIS2_EEixEm = comdat any

$_ZN9__gnu_cxx17__normal_iteratorIPKjSt6vectorIjSaIjEEEC2IPjEERKNS0_IT_NS_11__enable_ifIXsr3std10__are_sameIS9_S8_EE7__valueES5_E6__typeEEE = comdat any

$_ZN9__gnu_cxxneIPKjPjSt6vectorIjSaIjEEEEbRKNS_17__normal_iteratorIT_T1_EERKNS7_IT0_S9_EE = comdat any

$_ZNK9__gnu_cxx17__normal_iteratorIPKjSt6vectorIjSaIjEEEdeEv = comdat any

$_ZN6dealii25CompressedSparsityPattern3addEjj = comdat any

$_ZN9__gnu_cxx17__normal_iteratorIPKjSt6vectorIjSaIjEEEppEv = comdat any

$_ZN6dealii18deal_II_exceptions9internals17issue_error_throwINS_18StandardExceptions5ExcIOEEEvPKciS6_S6_S6_T_ = comdat any

$_ZN6dealii18StandardExceptions5ExcIOC2Ev = comdat any

$_ZN6dealii18StandardExceptions5ExcIOD2Ev = comdat any

$_ZN6dealii25CompressedSparsityPatternD2Ev = comdat any

$_ZN6dealii25CompressedSparsityPatternD0Ev = comdat any

$_ZNSt12_Vector_baseIjSaIjEEC2Ev = comdat any

$_ZNSt12_Vector_baseIjSaIjEE12_Vector_implC2Ev = comdat any

$_ZNSaIjEC2Ev = comdat any

$_ZN9__gnu_cxx13new_allocatorIjEC2Ev = comdat any

$_ZNSt12_Vector_baseIN6dealii25CompressedSparsityPattern4LineESaIS2_EEC2Ev = comdat any

$_ZNSt12_Vector_baseIN6dealii25CompressedSparsityPattern4LineESaIS2_EE12_Vector_implC2Ev = comdat any

$_ZN9__gnu_cxx13new_allocatorIN6dealii25CompressedSparsityPattern4LineEEC2Ev = comdat any

$_ZN6dealii25CompressedSparsityPattern4Line3addEj = comdat any

$_ZN6dealii18StandardExceptions5ExcIOD0Ev = comdat any

$_ZSt8_DestroyIPjjEvT_S1_RSaIT0_E = comdat any

$_ZNSt12_Vector_baseIjSaIjEE19_M_get_Tp_allocatorEv = comdat any

$_ZNSt12_Vector_baseIjSaIjEED2Ev = comdat any

$__clang_call_terminate = comdat any

$_ZSt8_DestroyIPjEvT_S1_ = comdat any

$_ZNSt12_Destroy_auxILb1EE9__destroyIPjEEvT_S3_ = comdat any

$_ZNSt12_Vector_baseIjSaIjEE13_M_deallocateEPjm = comdat any

$_ZNSt12_Vector_baseIjSaIjEE12_Vector_implD2Ev = comdat any

$_ZNSt16allocator_traitsISaIjEE10deallocateERS0_Pjm = comdat any

$_ZN9__gnu_cxx13new_allocatorIjE10deallocateEPjm = comdat any

$_ZNSaIjED2Ev = comdat any

$_ZN9__gnu_cxx13new_allocatorIjED2Ev = comdat any

$_ZSt4moveIRjEONSt16remove_referenceIT_E4typeEOS2_ = comdat any

$_ZSt6__sortIPjN9__gnu_cxx5__ops15_Iter_less_iterEEvT_S4_T0_ = comdat any

$_ZN9__gnu_cxx5__ops16__iter_less_iterEv = comdat any

$_ZSt16__introsort_loopIPjlN9__gnu_cxx5__ops15_Iter_less_iterEEvT_S4_T0_T1_ = comdat any

$_ZSt4__lgl = comdat any

$_ZSt22__final_insertion_sortIPjN9__gnu_cxx5__ops15_Iter_less_iterEEvT_S4_T0_ = comdat any

$_ZSt14__partial_sortIPjN9__gnu_cxx5__ops15_Iter_less_iterEEvT_S4_S4_T0_ = comdat any

$_ZSt27__unguarded_partition_pivotIPjN9__gnu_cxx5__ops15_Iter_less_iterEET_S4_S4_T0_ = comdat any

$_ZSt13__heap_selectIPjN9__gnu_cxx5__ops15_Iter_less_iterEEvT_S4_S4_T0_ = comdat any

$_ZSt11__sort_heapIPjN9__gnu_cxx5__ops15_Iter_less_iterEEvT_S4_RT0_ = comdat any

$_ZSt11__make_heapIPjN9__gnu_cxx5__ops15_Iter_less_iterEEvT_S4_RT0_ = comdat any

$_ZNK9__gnu_cxx5__ops15_Iter_less_iterclIPjS3_EEbT_T0_ = comdat any

$_ZSt10__pop_heapIPjN9__gnu_cxx5__ops15_Iter_less_iterEEvT_S4_S4_RT0_ = comdat any

$_ZSt13__adjust_heapIPjljN9__gnu_cxx5__ops15_Iter_less_iterEEvT_T0_S5_T1_T2_ = comdat any

$_ZSt4moveIRN9__gnu_cxx5__ops15_Iter_less_iterEEONSt16remove_referenceIT_E4typeEOS5_ = comdat any

$_ZN9__gnu_cxx5__ops14_Iter_less_valC2ENS0_15_Iter_less_iterE = comdat any

$_ZSt11__push_heapIPjljN9__gnu_cxx5__ops14_Iter_less_valEEvT_T0_S5_T1_RT2_ = comdat any

$_ZNK9__gnu_cxx5__ops14_Iter_less_valclIPjjEEbT_RT0_ = comdat any

$_ZSt22__move_median_to_firstIPjN9__gnu_cxx5__ops15_Iter_less_iterEEvT_S4_S4_S4_T0_ = comdat any

$_ZSt21__unguarded_partitionIPjN9__gnu_cxx5__ops15_Iter_less_iterEET_S4_S4_S4_T0_ = comdat any

$_ZSt9iter_swapIPjS0_EvT_T0_ = comdat any

$_ZSt16__insertion_sortIPjN9__gnu_cxx5__ops15_Iter_less_iterEEvT_S4_T0_ = comdat any

$_ZSt26__unguarded_insertion_sortIPjN9__gnu_cxx5__ops15_Iter_less_iterEEvT_S4_T0_ = comdat any

$_ZSt13move_backwardIPjS0_ET0_T_S2_S1_ = comdat any

$_ZSt25__unguarded_linear_insertIPjN9__gnu_cxx5__ops14_Val_less_iterEEvT_T0_ = comdat any

$_ZN9__gnu_cxx5__ops15__val_comp_iterENS0_15_Iter_less_iterE = comdat any

$_ZSt22__copy_move_backward_aILb1EPjS0_ET1_T0_S2_S1_ = comdat any

$_ZSt12__miter_baseIPjET_S1_ = comdat any

$_ZSt12__niter_wrapIPjET_RKS1_S1_ = comdat any

$_ZSt23__copy_move_backward_a1ILb1EPjS0_ET1_T0_S2_S1_ = comdat any

$_ZSt12__niter_baseIPjET_S1_ = comdat any

$_ZSt23__copy_move_backward_a2ILb1EPjS0_ET1_T0_S2_S1_ = comdat any

$_ZNSt20__copy_move_backwardILb1ELb1ESt26random_access_iterator_tagE13__copy_move_bIjEEPT_PKS3_S6_S4_ = comdat any

$_ZNK9__gnu_cxx5__ops14_Val_less_iterclIjPjEEbRT_T0_ = comdat any

$_ZNSt6vectorIjSaIjEE17_M_default_appendEm = comdat any

$_ZNSt6vectorIjSaIjEE15_M_erase_at_endEPj = comdat any

$_ZNKSt6vectorIjSaIjEE8max_sizeEv = comdat any

$_ZSt27__uninitialized_default_n_aIPjmjET_S1_T0_RSaIT1_E = comdat any

$_ZNKSt6vectorIjSaIjEE12_M_check_lenEmPKc = comdat any

$_ZNSt12_Vector_baseIjSaIjEE11_M_allocateEm = comdat any

$_ZNSt6vectorIjSaIjEE11_S_relocateEPjS2_S2_RS0_ = comdat any

$_ZNSt6vectorIjSaIjEE11_S_max_sizeERKS0_ = comdat any

$_ZNKSt12_Vector_baseIjSaIjEE19_M_get_Tp_allocatorEv = comdat any

$_ZNSt16allocator_traitsISaIjEE8max_sizeERKS0_ = comdat any

$_ZSt3minImERKT_S2_S2_ = comdat any

$_ZNK9__gnu_cxx13new_allocatorIjE8max_sizeEv = comdat any

$_ZNK9__gnu_cxx13new_allocatorIjE11_M_max_sizeEv = comdat any

$_ZSt25__uninitialized_default_nIPjmET_S1_T0_ = comdat any

$_ZNSt27__uninitialized_default_n_1ILb1EE18__uninit_default_nIPjmEET_S3_T0_ = comdat any

$_ZSt6fill_nIPjmjET_S1_T0_RKT1_ = comdat any

$_ZSt10__fill_n_aIPjmjET_S1_T0_RKT1_St26random_access_iterator_tag = comdat any

$_ZSt17__size_to_integerm = comdat any

$_ZSt19__iterator_categoryIPjENSt15iterator_traitsIT_E17iterator_categoryERKS2_ = comdat any

$_ZSt8__fill_aIPjjEvT_S1_RKT0_ = comdat any

$_ZSt9__fill_a1IPjjEN9__gnu_cxx11__enable_ifIXsr11__is_scalarIT0_EE7__valueEvE6__typeET_S6_RKS3_ = comdat any

$_ZSt3maxImERKT_S2_S2_ = comdat any

$_ZNSt16allocator_traitsISaIjEE8allocateERS0_m = comdat any

$_ZN9__gnu_cxx13new_allocatorIjE8allocateEmPKv = comdat any

$_ZNSt6vectorIjSaIjEE14_S_do_relocateEPjS2_S2_RS0_St17integral_constantIbLb1EE = comdat any

$_ZSt12__relocate_aIPjS0_SaIjEET0_T_S3_S2_RT1_ = comdat any

$_ZSt14__relocate_a_1IjjENSt9enable_ifIXsr3std24__is_bitwise_relocatableIT_EE5valueEPS1_E4typeES2_S2_S2_RSaIT0_E = comdat any

$_ZNKSt6vectorIjSaIjEE8capacityEv = comdat any

$_ZNSt16allocator_traitsISaIjEE9constructIjJRKjEEEvRS0_PT_DpOT0_ = comdat any

$_ZNSt6vectorIjSaIjEE17_M_realloc_insertIJRKjEEEvN9__gnu_cxx17__normal_iteratorIPjS1_EEDpOT_ = comdat any

$_ZN9__gnu_cxx13new_allocatorIjE9constructIjJRKjEEEvPT_DpOT0_ = comdat any

$_ZSt7forwardIRKjEOT_RNSt16remove_referenceIS2_E4typeE = comdat any

$_ZN9__gnu_cxxmiIPjSt6vectorIjSaIjEEEENS_17__normal_iteratorIT_T0_E15difference_typeERKS8_SB_ = comdat any

$_ZNK9__gnu_cxx17__normal_iteratorIPjSt6vectorIjSaIjEEE4baseEv = comdat any

$_ZNSt12_Vector_baseIjSaIjEE17_Vector_impl_data12_M_swap_dataERS2_ = comdat any

$_ZN9__gnu_cxx14__alloc_traitsISaIjEjE10_S_on_swapERS1_S3_ = comdat any

$_ZNSt12_Vector_baseIjSaIjEE17_Vector_impl_dataC2Ev = comdat any

$_ZNSt12_Vector_baseIjSaIjEE17_Vector_impl_data12_M_copy_dataERKS2_ = comdat any

$_ZSt15__alloc_on_swapISaIjEEvRT_S2_ = comdat any

$_ZSt18__do_alloc_on_swapISaIjEEvRT_S2_St17integral_constantIbLb0EE = comdat any

$_ZN9__gnu_cxx13new_allocatorIN6dealii25CompressedSparsityPattern4LineEED2Ev = comdat any

$_ZSt8_DestroyIPN6dealii25CompressedSparsityPattern4LineES2_EvT_S4_RSaIT0_E = comdat any

$_ZNSt12_Vector_baseIN6dealii25CompressedSparsityPattern4LineESaIS2_EE19_M_get_Tp_allocatorEv = comdat any

$_ZNSt12_Vector_baseIN6dealii25CompressedSparsityPattern4LineESaIS2_EED2Ev = comdat any

$_ZSt8_DestroyIPN6dealii25CompressedSparsityPattern4LineEEvT_S4_ = comdat any

$_ZNSt12_Destroy_auxILb0EE9__destroyIPN6dealii25CompressedSparsityPattern4LineEEEvT_S6_ = comdat any

$_ZSt8_DestroyIN6dealii25CompressedSparsityPattern4LineEEvPT_ = comdat any

$_ZSt11__addressofIN6dealii25CompressedSparsityPattern4LineEEPT_RS3_ = comdat any

$_ZN6dealii25CompressedSparsityPattern4LineD2Ev = comdat any

$_ZNSt12_Vector_baseIN6dealii25CompressedSparsityPattern4LineESaIS2_EE13_M_deallocateEPS2_m = comdat any

$_ZNSt12_Vector_baseIN6dealii25CompressedSparsityPattern4LineESaIS2_EE12_Vector_implD2Ev = comdat any

$_ZNSt16allocator_traitsISaIN6dealii25CompressedSparsityPattern4LineEEE10deallocateERS3_PS2_m = comdat any

$_ZN9__gnu_cxx13new_allocatorIN6dealii25CompressedSparsityPattern4LineEE10deallocateEPS3_m = comdat any

$_ZNSt6vectorIN6dealii25CompressedSparsityPattern4LineESaIS2_EE17_S_check_init_lenEmRKS3_ = comdat any

$_ZNSt12_Vector_baseIN6dealii25CompressedSparsityPattern4LineESaIS2_EEC2EmRKS3_ = comdat any

$_ZNSt6vectorIN6dealii25CompressedSparsityPattern4LineESaIS2_EE21_M_default_initializeEm = comdat any

$_ZNSt6vectorIN6dealii25CompressedSparsityPattern4LineESaIS2_EE11_S_max_sizeERKS3_ = comdat any

$_ZNSaIN6dealii25CompressedSparsityPattern4LineEEC2ERKS2_ = comdat any

$_ZNSt16allocator_traitsISaIN6dealii25CompressedSparsityPattern4LineEEE8max_sizeERKS3_ = comdat any

$_ZNK9__gnu_cxx13new_allocatorIN6dealii25CompressedSparsityPattern4LineEE8max_sizeEv = comdat any

$_ZNK9__gnu_cxx13new_allocatorIN6dealii25CompressedSparsityPattern4LineEE11_M_max_sizeEv = comdat any

$_ZN9__gnu_cxx13new_allocatorIN6dealii25CompressedSparsityPattern4LineEEC2ERKS4_ = comdat any

$_ZNSt12_Vector_baseIN6dealii25CompressedSparsityPattern4LineESaIS2_EE12_Vector_implC2ERKS3_ = comdat any

$_ZNSt12_Vector_baseIN6dealii25CompressedSparsityPattern4LineESaIS2_EE17_M_create_storageEm = comdat any

$_ZNSt12_Vector_baseIN6dealii25CompressedSparsityPattern4LineESaIS2_EE11_M_allocateEm = comdat any

$_ZNSt16allocator_traitsISaIN6dealii25CompressedSparsityPattern4LineEEE8allocateERS3_m = comdat any

$_ZN9__gnu_cxx13new_allocatorIN6dealii25CompressedSparsityPattern4LineEE8allocateEmPKv = comdat any

$_ZSt27__uninitialized_default_n_aIPN6dealii25CompressedSparsityPattern4LineEmS2_ET_S4_T0_RSaIT1_E = comdat any

$_ZSt25__uninitialized_default_nIPN6dealii25CompressedSparsityPattern4LineEmET_S4_T0_ = comdat any

$_ZNSt27__uninitialized_default_n_1ILb0EE18__uninit_default_nIPN6dealii25CompressedSparsityPattern4LineEmEET_S6_T0_ = comdat any

$_ZSt10_ConstructIN6dealii25CompressedSparsityPattern4LineEJEEvPT_DpOT0_ = comdat any

$_ZN6dealii25CompressedSparsityPattern4LineC2Ev = comdat any

$_ZNSt12_Vector_baseIN6dealii25CompressedSparsityPattern4LineESaIS2_EE17_Vector_impl_data12_M_swap_dataERS5_ = comdat any

$_ZN9__gnu_cxx14__alloc_traitsISaIN6dealii25CompressedSparsityPattern4LineEES3_E10_S_on_swapERS4_S6_ = comdat any

$_ZNSt12_Vector_baseIN6dealii25CompressedSparsityPattern4LineESaIS2_EE17_Vector_impl_dataC2Ev = comdat any

$_ZNSt12_Vector_baseIN6dealii25CompressedSparsityPattern4LineESaIS2_EE17_Vector_impl_data12_M_copy_dataERKS5_ = comdat any

$_ZSt15__alloc_on_swapISaIN6dealii25CompressedSparsityPattern4LineEEEvRT_S5_ = comdat any

$_ZSt18__do_alloc_on_swapISaIN6dealii25CompressedSparsityPattern4LineEEEvRT_S5_St17integral_constantIbLb0EE = comdat any

$_ZN9__gnu_cxx17__normal_iteratorIPjSt6vectorIjSaIjEEEC2ERKS1_ = comdat any

$_ZSt13__lower_boundIN9__gnu_cxx17__normal_iteratorIPjSt6vectorIjSaIjEEEEjNS0_5__ops14_Iter_less_valEET_S9_S9_RKT0_T1_ = comdat any

$_ZN9__gnu_cxx5__ops15__iter_less_valEv = comdat any

$_ZN9__gnu_cxxneIPjSt6vectorIjSaIjEEEEbRKNS_17__normal_iteratorIT_T0_EESA_ = comdat any

$_ZNK9__gnu_cxx17__normal_iteratorIPjSt6vectorIjSaIjEEEdeEv = comdat any

$_ZSt8distanceIN9__gnu_cxx17__normal_iteratorIPjSt6vectorIjSaIjEEEEENSt15iterator_traitsIT_E15difference_typeES8_S8_ = comdat any

$_ZSt7advanceIN9__gnu_cxx17__normal_iteratorIPjSt6vectorIjSaIjEEEElEvRT_T0_ = comdat any

$_ZNK9__gnu_cxx5__ops14_Iter_less_valclINS_17__normal_iteratorIPjSt6vectorIjSaIjEEEEKjEEbT_RT0_ = comdat any

$_ZN9__gnu_cxx17__normal_iteratorIPjSt6vectorIjSaIjEEEppEv = comdat any

$_ZSt10__distanceIN9__gnu_cxx17__normal_iteratorIPjSt6vectorIjSaIjEEEEENSt15iterator_traitsIT_E15difference_typeES8_S8_St26random_access_iterator_tag = comdat any

$_ZSt19__iterator_categoryIN9__gnu_cxx17__normal_iteratorIPjSt6vectorIjSaIjEEEEENSt15iterator_traitsIT_E17iterator_categoryERKS8_ = comdat any

$_ZSt9__advanceIN9__gnu_cxx17__normal_iteratorIPjSt6vectorIjSaIjEEEElEvRT_T0_St26random_access_iterator_tag = comdat any

$_ZN9__gnu_cxx17__normal_iteratorIPjSt6vectorIjSaIjEEEmmEv = comdat any

$_ZN9__gnu_cxx17__normal_iteratorIPjSt6vectorIjSaIjEEEpLEl = comdat any

$_ZNK9__gnu_cxx17__normal_iteratorIPKjSt6vectorIjSaIjEEE4baseEv = comdat any

$_ZN6dealii18StandardExceptions5ExcIOC2EOS1_ = comdat any

$_ZTVN6dealii25CompressedSparsityPatternE = comdat any

$_ZTSN6dealii25CompressedSparsityPatternE = comdat any

$_ZTIN6dealii25CompressedSparsityPatternE = comdat any

$_ZTVN6dealii18StandardExceptions5ExcIOE = comdat any

$_ZTSN6dealii18StandardExceptions5ExcIOE = comdat any

$_ZTIN6dealii18StandardExceptions5ExcIOE = comdat any

@_ZStL8__ioinit = internal global %"class.std::ios_base::Init" zeroinitializer, align 1, !dbg !0
@__dso_handle = external hidden global i8
@_ZN6dealii25CompressedSparsityPattern4Line10cache_sizeE = dso_local constant i32 8, align 4, !dbg !28
@_ZTVN6dealii25CompressedSparsityPatternE = linkonce_odr dso_local unnamed_addr constant { [4 x i8*] } { [4 x i8*] [i8* null, i8* bitcast ({ i8*, i8*, i8* }* @_ZTIN6dealii25CompressedSparsityPatternE to i8*), i8* bitcast (void (%"class.dealii::CompressedSparsityPattern"*)* @_ZN6dealii25CompressedSparsityPatternD2Ev to i8*), i8* bitcast (void (%"class.dealii::CompressedSparsityPattern"*)* @_ZN6dealii25CompressedSparsityPatternD0Ev to i8*)] }, comdat, align 8
@.str = private unnamed_addr constant [42 x i8] c"source/lac/compressed_sparsity_pattern.cc\00", align 1
@.str.1 = private unnamed_addr constant [1 x i8] zeroinitializer, align 1
@.str.2 = private unnamed_addr constant [4 x i8] c"out\00", align 1
@.str.3 = private unnamed_addr constant [8 x i8] c"ExcIO()\00", align 1
@.str.4 = private unnamed_addr constant [2 x i8] c" \00", align 1
@_ZTVN10__cxxabiv120__si_class_type_infoE = external dso_local global i8*
@_ZTSN6dealii25CompressedSparsityPatternE = linkonce_odr dso_local constant [37 x i8] c"N6dealii25CompressedSparsityPatternE\00", comdat, align 1
@_ZTIN6dealii11SubscriptorE = external dso_local constant i8*
@_ZTIN6dealii25CompressedSparsityPatternE = linkonce_odr dso_local constant { i8*, i8*, i8* } { i8* bitcast (i8** getelementptr inbounds (i8*, i8** @_ZTVN10__cxxabiv120__si_class_type_infoE, i64 2) to i8*), i8* getelementptr inbounds ([37 x i8], [37 x i8]* @_ZTSN6dealii25CompressedSparsityPatternE, i32 0, i32 0), i8* bitcast (i8** @_ZTIN6dealii11SubscriptorE to i8*) }, comdat, align 8
@_ZTVN6dealii18StandardExceptions5ExcIOE = linkonce_odr dso_local unnamed_addr constant { [6 x i8*] } { [6 x i8*] [i8* null, i8* bitcast ({ i8*, i8*, i8* }* @_ZTIN6dealii18StandardExceptions5ExcIOE to i8*), i8* bitcast (void (%"class.dealii::StandardExceptions::ExcIO"*)* @_ZN6dealii18StandardExceptions5ExcIOD2Ev to i8*), i8* bitcast (void (%"class.dealii::StandardExceptions::ExcIO"*)* @_ZN6dealii18StandardExceptions5ExcIOD0Ev to i8*), i8* bitcast (i8* (%"class.dealii::ExceptionBase"*)* @_ZNK6dealii13ExceptionBase4whatEv to i8*), i8* bitcast (void (%"class.dealii::ExceptionBase"*, %"class.std::basic_ostream"*)* @_ZNK6dealii13ExceptionBase10print_infoERSo to i8*)] }, comdat, align 8
@_ZTSN6dealii18StandardExceptions5ExcIOE = linkonce_odr dso_local constant [36 x i8] c"N6dealii18StandardExceptions5ExcIOE\00", comdat, align 1
@_ZTIN6dealii13ExceptionBaseE = external dso_local constant i8*
@_ZTIN6dealii18StandardExceptions5ExcIOE = linkonce_odr dso_local constant { i8*, i8*, i8* } { i8* bitcast (i8** getelementptr inbounds (i8*, i8** @_ZTVN10__cxxabiv120__si_class_type_infoE, i64 2) to i8*), i8* getelementptr inbounds ([36 x i8], [36 x i8]* @_ZTSN6dealii18StandardExceptions5ExcIOE, i32 0, i32 0), i8* bitcast (i8** @_ZTIN6dealii13ExceptionBaseE to i8*) }, comdat, align 8
@.str.5 = private unnamed_addr constant [26 x i8] c"vector::_M_default_append\00", align 1
@.str.6 = private unnamed_addr constant [16 x i8] c"vector::reserve\00", align 1
@.str.7 = private unnamed_addr constant [26 x i8] c"vector::_M_realloc_insert\00", align 1
@.str.8 = private unnamed_addr constant [49 x i8] c"cannot create std::vector larger than max_size()\00", align 1
@llvm.global_ctors = appending global [1 x { i32, void ()*, i8* }] [{ i32, void ()*, i8* } { i32 65535, void ()* @_GLOBAL__sub_I_compressed_sparsity_pattern.cc, i8* null }]

@_ZN6dealii25CompressedSparsityPatternC1Ev = dso_local unnamed_addr alias void (%"class.dealii::CompressedSparsityPattern"*), void (%"class.dealii::CompressedSparsityPattern"*)* @_ZN6dealii25CompressedSparsityPatternC2Ev
@_ZN6dealii25CompressedSparsityPatternC1ERKS0_ = dso_local unnamed_addr alias void (%"class.dealii::CompressedSparsityPattern"*, %"class.dealii::CompressedSparsityPattern"*), void (%"class.dealii::CompressedSparsityPattern"*, %"class.dealii::CompressedSparsityPattern"*)* @_ZN6dealii25CompressedSparsityPatternC2ERKS0_
@_ZN6dealii25CompressedSparsityPatternC1Ejj = dso_local unnamed_addr alias void (%"class.dealii::CompressedSparsityPattern"*, i32, i32), void (%"class.dealii::CompressedSparsityPattern"*, i32, i32)* @_ZN6dealii25CompressedSparsityPatternC2Ejj
@_ZN6dealii25CompressedSparsityPatternC1Ej = dso_local unnamed_addr alias void (%"class.dealii::CompressedSparsityPattern"*, i32), void (%"class.dealii::CompressedSparsityPattern"*, i32)* @_ZN6dealii25CompressedSparsityPatternC2Ej

; Function Attrs: noinline uwtable
define internal void @__cxx_global_var_init() #0 section ".text.startup" !dbg !2443 {
entry:
  call void @_ZNSt8ios_base4InitC1Ev(%"class.std::ios_base::Init"* @_ZStL8__ioinit), !dbg !2444
  %0 = call i32 @__cxa_atexit(void (i8*)* bitcast (void (%"class.std::ios_base::Init"*)* @_ZNSt8ios_base4InitD1Ev to void (i8*)*), i8* getelementptr inbounds (%"class.std::ios_base::Init", %"class.std::ios_base::Init"* @_ZStL8__ioinit, i32 0, i32 0), i8* @__dso_handle) #3, !dbg !2444
  ret void, !dbg !2444
}

declare dso_local void @_ZNSt8ios_base4InitC1Ev(%"class.std::ios_base::Init"*) unnamed_addr #1

; Function Attrs: nounwind
declare dso_local void @_ZNSt8ios_base4InitD1Ev(%"class.std::ios_base::Init"*) unnamed_addr #2

; Function Attrs: nounwind
declare dso_local i32 @__cxa_atexit(void (i8*)*, i8*, i8*) #3

; Function Attrs: noinline uwtable
define dso_local void @_ZNK6dealii25CompressedSparsityPattern4Line11flush_cacheEv(%"struct.dealii::CompressedSparsityPattern::Line"* %this) #0 align 2 personality i8* bitcast (i32 (...)* @__gxx_personality_v0 to i8*) !dbg !2445 {
entry:
  %this.addr = alloca %"struct.dealii::CompressedSparsityPattern::Line"*, align 8
  %i = alloca i32, align 4
  %j = alloca i32, align 4
  %i77 = alloca i32, align 4
  %n_new_entries = alloca i32, align 4
  %cache_position = alloca i32, align 4
  %entry_position = alloca i32, align 4
  %new_entries = alloca %"class.std::vector", align 8
  %exn.slot = alloca i8*
  %ehselector.slot = alloca i32
  %cache_position138 = alloca i32, align 4
  %entry_position139 = alloca i32, align 4
  store %"struct.dealii::CompressedSparsityPattern::Line"* %this, %"struct.dealii::CompressedSparsityPattern::Line"** %this.addr, align 8
  call void @llvm.dbg.declare(metadata %"struct.dealii::CompressedSparsityPattern::Line"** %this.addr, metadata !2446, metadata !DIExpression()), !dbg !2447
  %this1 = load %"struct.dealii::CompressedSparsityPattern::Line"*, %"struct.dealii::CompressedSparsityPattern::Line"** %this.addr, align 8
  %cache_entries = getelementptr inbounds %"struct.dealii::CompressedSparsityPattern::Line", %"struct.dealii::CompressedSparsityPattern::Line"* %this1, i32 0, i32 2, !dbg !2448
  %0 = load i32, i32* %cache_entries, align 8, !dbg !2448
  switch i32 %0, label %sw.default [
    i32 1, label %sw.bb
    i32 2, label %sw.bb2
    i32 3, label %sw.bb9
    i32 4, label %sw.bb43
    i32 5, label %sw.bb43
    i32 6, label %sw.bb43
    i32 7, label %sw.bb43
  ], !dbg !2449

sw.bb:                                            ; preds = %entry
  br label %sw.epilog, !dbg !2450

sw.bb2:                                           ; preds = %entry
  %cache = getelementptr inbounds %"struct.dealii::CompressedSparsityPattern::Line", %"struct.dealii::CompressedSparsityPattern::Line"* %this1, i32 0, i32 1, !dbg !2453
  %arrayidx = getelementptr inbounds [8 x i32], [8 x i32]* %cache, i64 0, i64 1, !dbg !2453
  %1 = load i32, i32* %arrayidx, align 4, !dbg !2453
  %cache3 = getelementptr inbounds %"struct.dealii::CompressedSparsityPattern::Line", %"struct.dealii::CompressedSparsityPattern::Line"* %this1, i32 0, i32 1, !dbg !2456
  %arrayidx4 = getelementptr inbounds [8 x i32], [8 x i32]* %cache3, i64 0, i64 0, !dbg !2456
  %2 = load i32, i32* %arrayidx4, align 8, !dbg !2456
  %cmp = icmp ult i32 %1, %2, !dbg !2457
  br i1 %cmp, label %if.then, label %if.end, !dbg !2458

if.then:                                          ; preds = %sw.bb2
  %cache5 = getelementptr inbounds %"struct.dealii::CompressedSparsityPattern::Line", %"struct.dealii::CompressedSparsityPattern::Line"* %this1, i32 0, i32 1, !dbg !2459
  %arrayidx6 = getelementptr inbounds [8 x i32], [8 x i32]* %cache5, i64 0, i64 0, !dbg !2459
  %cache7 = getelementptr inbounds %"struct.dealii::CompressedSparsityPattern::Line", %"struct.dealii::CompressedSparsityPattern::Line"* %this1, i32 0, i32 1, !dbg !2460
  %arrayidx8 = getelementptr inbounds [8 x i32], [8 x i32]* %cache7, i64 0, i64 1, !dbg !2460
  call void @_ZSt4swapIjENSt9enable_ifIXsr6__and_ISt6__not_ISt15__is_tuple_likeIT_EESt21is_move_constructibleIS3_ESt18is_move_assignableIS3_EEE5valueEvE4typeERS3_SC_(i32* dereferenceable(4) %arrayidx6, i32* dereferenceable(4) %arrayidx8) #3, !dbg !2461
  br label %if.end, !dbg !2461

if.end:                                           ; preds = %if.then, %sw.bb2
  br label %sw.epilog, !dbg !2462

sw.bb9:                                           ; preds = %entry
  %cache10 = getelementptr inbounds %"struct.dealii::CompressedSparsityPattern::Line", %"struct.dealii::CompressedSparsityPattern::Line"* %this1, i32 0, i32 1, !dbg !2463
  %arrayidx11 = getelementptr inbounds [8 x i32], [8 x i32]* %cache10, i64 0, i64 1, !dbg !2463
  %3 = load i32, i32* %arrayidx11, align 4, !dbg !2463
  %cache12 = getelementptr inbounds %"struct.dealii::CompressedSparsityPattern::Line", %"struct.dealii::CompressedSparsityPattern::Line"* %this1, i32 0, i32 1, !dbg !2466
  %arrayidx13 = getelementptr inbounds [8 x i32], [8 x i32]* %cache12, i64 0, i64 0, !dbg !2466
  %4 = load i32, i32* %arrayidx13, align 8, !dbg !2466
  %cmp14 = icmp ult i32 %3, %4, !dbg !2467
  br i1 %cmp14, label %if.then15, label %if.end20, !dbg !2468

if.then15:                                        ; preds = %sw.bb9
  %cache16 = getelementptr inbounds %"struct.dealii::CompressedSparsityPattern::Line", %"struct.dealii::CompressedSparsityPattern::Line"* %this1, i32 0, i32 1, !dbg !2469
  %arrayidx17 = getelementptr inbounds [8 x i32], [8 x i32]* %cache16, i64 0, i64 0, !dbg !2469
  %cache18 = getelementptr inbounds %"struct.dealii::CompressedSparsityPattern::Line", %"struct.dealii::CompressedSparsityPattern::Line"* %this1, i32 0, i32 1, !dbg !2470
  %arrayidx19 = getelementptr inbounds [8 x i32], [8 x i32]* %cache18, i64 0, i64 1, !dbg !2470
  call void @_ZSt4swapIjENSt9enable_ifIXsr6__and_ISt6__not_ISt15__is_tuple_likeIT_EESt21is_move_constructibleIS3_ESt18is_move_assignableIS3_EEE5valueEvE4typeERS3_SC_(i32* dereferenceable(4) %arrayidx17, i32* dereferenceable(4) %arrayidx19) #3, !dbg !2471
  br label %if.end20, !dbg !2471

if.end20:                                         ; preds = %if.then15, %sw.bb9
  %cache21 = getelementptr inbounds %"struct.dealii::CompressedSparsityPattern::Line", %"struct.dealii::CompressedSparsityPattern::Line"* %this1, i32 0, i32 1, !dbg !2472
  %arrayidx22 = getelementptr inbounds [8 x i32], [8 x i32]* %cache21, i64 0, i64 2, !dbg !2472
  %5 = load i32, i32* %arrayidx22, align 8, !dbg !2472
  %cache23 = getelementptr inbounds %"struct.dealii::CompressedSparsityPattern::Line", %"struct.dealii::CompressedSparsityPattern::Line"* %this1, i32 0, i32 1, !dbg !2474
  %arrayidx24 = getelementptr inbounds [8 x i32], [8 x i32]* %cache23, i64 0, i64 1, !dbg !2474
  %6 = load i32, i32* %arrayidx24, align 4, !dbg !2474
  %cmp25 = icmp ult i32 %5, %6, !dbg !2475
  br i1 %cmp25, label %if.then26, label %if.end31, !dbg !2476

if.then26:                                        ; preds = %if.end20
  %cache27 = getelementptr inbounds %"struct.dealii::CompressedSparsityPattern::Line", %"struct.dealii::CompressedSparsityPattern::Line"* %this1, i32 0, i32 1, !dbg !2477
  %arrayidx28 = getelementptr inbounds [8 x i32], [8 x i32]* %cache27, i64 0, i64 1, !dbg !2477
  %cache29 = getelementptr inbounds %"struct.dealii::CompressedSparsityPattern::Line", %"struct.dealii::CompressedSparsityPattern::Line"* %this1, i32 0, i32 1, !dbg !2478
  %arrayidx30 = getelementptr inbounds [8 x i32], [8 x i32]* %cache29, i64 0, i64 2, !dbg !2478
  call void @_ZSt4swapIjENSt9enable_ifIXsr6__and_ISt6__not_ISt15__is_tuple_likeIT_EESt21is_move_constructibleIS3_ESt18is_move_assignableIS3_EEE5valueEvE4typeERS3_SC_(i32* dereferenceable(4) %arrayidx28, i32* dereferenceable(4) %arrayidx30) #3, !dbg !2479
  br label %if.end31, !dbg !2479

if.end31:                                         ; preds = %if.then26, %if.end20
  %cache32 = getelementptr inbounds %"struct.dealii::CompressedSparsityPattern::Line", %"struct.dealii::CompressedSparsityPattern::Line"* %this1, i32 0, i32 1, !dbg !2480
  %arrayidx33 = getelementptr inbounds [8 x i32], [8 x i32]* %cache32, i64 0, i64 1, !dbg !2480
  %7 = load i32, i32* %arrayidx33, align 4, !dbg !2480
  %cache34 = getelementptr inbounds %"struct.dealii::CompressedSparsityPattern::Line", %"struct.dealii::CompressedSparsityPattern::Line"* %this1, i32 0, i32 1, !dbg !2482
  %arrayidx35 = getelementptr inbounds [8 x i32], [8 x i32]* %cache34, i64 0, i64 0, !dbg !2482
  %8 = load i32, i32* %arrayidx35, align 8, !dbg !2482
  %cmp36 = icmp ult i32 %7, %8, !dbg !2483
  br i1 %cmp36, label %if.then37, label %if.end42, !dbg !2484

if.then37:                                        ; preds = %if.end31
  %cache38 = getelementptr inbounds %"struct.dealii::CompressedSparsityPattern::Line", %"struct.dealii::CompressedSparsityPattern::Line"* %this1, i32 0, i32 1, !dbg !2485
  %arrayidx39 = getelementptr inbounds [8 x i32], [8 x i32]* %cache38, i64 0, i64 0, !dbg !2485
  %cache40 = getelementptr inbounds %"struct.dealii::CompressedSparsityPattern::Line", %"struct.dealii::CompressedSparsityPattern::Line"* %this1, i32 0, i32 1, !dbg !2486
  %arrayidx41 = getelementptr inbounds [8 x i32], [8 x i32]* %cache40, i64 0, i64 1, !dbg !2486
  call void @_ZSt4swapIjENSt9enable_ifIXsr6__and_ISt6__not_ISt15__is_tuple_likeIT_EESt21is_move_constructibleIS3_ESt18is_move_assignableIS3_EEE5valueEvE4typeERS3_SC_(i32* dereferenceable(4) %arrayidx39, i32* dereferenceable(4) %arrayidx41) #3, !dbg !2487
  br label %if.end42, !dbg !2487

if.end42:                                         ; preds = %if.then37, %if.end31
  br label %sw.epilog, !dbg !2488

sw.bb43:                                          ; preds = %entry, %entry, %entry, %entry
  call void @llvm.dbg.declare(metadata i32* %i, metadata !2489, metadata !DIExpression()), !dbg !2492
  store i32 0, i32* %i, align 4, !dbg !2492
  br label %for.cond, !dbg !2493

for.cond:                                         ; preds = %for.inc64, %sw.bb43
  %9 = load i32, i32* %i, align 4, !dbg !2494
  %cache_entries44 = getelementptr inbounds %"struct.dealii::CompressedSparsityPattern::Line", %"struct.dealii::CompressedSparsityPattern::Line"* %this1, i32 0, i32 2, !dbg !2496
  %10 = load i32, i32* %cache_entries44, align 8, !dbg !2496
  %cmp45 = icmp ult i32 %9, %10, !dbg !2497
  br i1 %cmp45, label %for.body, label %for.end66, !dbg !2498

for.body:                                         ; preds = %for.cond
  call void @llvm.dbg.declare(metadata i32* %j, metadata !2499, metadata !DIExpression()), !dbg !2501
  %11 = load i32, i32* %i, align 4, !dbg !2502
  %add = add i32 %11, 1, !dbg !2503
  store i32 %add, i32* %j, align 4, !dbg !2501
  br label %for.cond46, !dbg !2504

for.cond46:                                       ; preds = %for.inc, %for.body
  %12 = load i32, i32* %j, align 4, !dbg !2505
  %cache_entries47 = getelementptr inbounds %"struct.dealii::CompressedSparsityPattern::Line", %"struct.dealii::CompressedSparsityPattern::Line"* %this1, i32 0, i32 2, !dbg !2507
  %13 = load i32, i32* %cache_entries47, align 8, !dbg !2507
  %cmp48 = icmp ult i32 %12, %13, !dbg !2508
  br i1 %cmp48, label %for.body49, label %for.end, !dbg !2509

for.body49:                                       ; preds = %for.cond46
  %cache50 = getelementptr inbounds %"struct.dealii::CompressedSparsityPattern::Line", %"struct.dealii::CompressedSparsityPattern::Line"* %this1, i32 0, i32 1, !dbg !2510
  %14 = load i32, i32* %j, align 4, !dbg !2512
  %idxprom = zext i32 %14 to i64, !dbg !2510
  %arrayidx51 = getelementptr inbounds [8 x i32], [8 x i32]* %cache50, i64 0, i64 %idxprom, !dbg !2510
  %15 = load i32, i32* %arrayidx51, align 4, !dbg !2510
  %cache52 = getelementptr inbounds %"struct.dealii::CompressedSparsityPattern::Line", %"struct.dealii::CompressedSparsityPattern::Line"* %this1, i32 0, i32 1, !dbg !2513
  %16 = load i32, i32* %i, align 4, !dbg !2514
  %idxprom53 = zext i32 %16 to i64, !dbg !2513
  %arrayidx54 = getelementptr inbounds [8 x i32], [8 x i32]* %cache52, i64 0, i64 %idxprom53, !dbg !2513
  %17 = load i32, i32* %arrayidx54, align 4, !dbg !2513
  %cmp55 = icmp ult i32 %15, %17, !dbg !2515
  br i1 %cmp55, label %if.then56, label %if.end63, !dbg !2516

if.then56:                                        ; preds = %for.body49
  %cache57 = getelementptr inbounds %"struct.dealii::CompressedSparsityPattern::Line", %"struct.dealii::CompressedSparsityPattern::Line"* %this1, i32 0, i32 1, !dbg !2517
  %18 = load i32, i32* %i, align 4, !dbg !2518
  %idxprom58 = zext i32 %18 to i64, !dbg !2517
  %arrayidx59 = getelementptr inbounds [8 x i32], [8 x i32]* %cache57, i64 0, i64 %idxprom58, !dbg !2517
  %cache60 = getelementptr inbounds %"struct.dealii::CompressedSparsityPattern::Line", %"struct.dealii::CompressedSparsityPattern::Line"* %this1, i32 0, i32 1, !dbg !2519
  %19 = load i32, i32* %j, align 4, !dbg !2520
  %idxprom61 = zext i32 %19 to i64, !dbg !2519
  %arrayidx62 = getelementptr inbounds [8 x i32], [8 x i32]* %cache60, i64 0, i64 %idxprom61, !dbg !2519
  call void @_ZSt4swapIjENSt9enable_ifIXsr6__and_ISt6__not_ISt15__is_tuple_likeIT_EESt21is_move_constructibleIS3_ESt18is_move_assignableIS3_EEE5valueEvE4typeERS3_SC_(i32* dereferenceable(4) %arrayidx59, i32* dereferenceable(4) %arrayidx62) #3, !dbg !2521
  br label %if.end63, !dbg !2521

if.end63:                                         ; preds = %if.then56, %for.body49
  br label %for.inc, !dbg !2522

for.inc:                                          ; preds = %if.end63
  %20 = load i32, i32* %j, align 4, !dbg !2523
  %inc = add i32 %20, 1, !dbg !2523
  store i32 %inc, i32* %j, align 4, !dbg !2523
  br label %for.cond46, !dbg !2524, !llvm.loop !2525

for.end:                                          ; preds = %for.cond46
  br label %for.inc64, !dbg !2526

for.inc64:                                        ; preds = %for.end
  %21 = load i32, i32* %i, align 4, !dbg !2527
  %inc65 = add i32 %21, 1, !dbg !2527
  store i32 %inc65, i32* %i, align 4, !dbg !2527
  br label %for.cond, !dbg !2528, !llvm.loop !2529

for.end66:                                        ; preds = %for.cond
  br label %sw.epilog, !dbg !2531

sw.default:                                       ; preds = %entry
  %cache67 = getelementptr inbounds %"struct.dealii::CompressedSparsityPattern::Line", %"struct.dealii::CompressedSparsityPattern::Line"* %this1, i32 0, i32 1, !dbg !2532
  %arrayidx68 = getelementptr inbounds [8 x i32], [8 x i32]* %cache67, i64 0, i64 0, !dbg !2532
  %cache69 = getelementptr inbounds %"struct.dealii::CompressedSparsityPattern::Line", %"struct.dealii::CompressedSparsityPattern::Line"* %this1, i32 0, i32 1, !dbg !2534
  %cache_entries70 = getelementptr inbounds %"struct.dealii::CompressedSparsityPattern::Line", %"struct.dealii::CompressedSparsityPattern::Line"* %this1, i32 0, i32 2, !dbg !2535
  %22 = load i32, i32* %cache_entries70, align 8, !dbg !2535
  %idxprom71 = zext i32 %22 to i64, !dbg !2534
  %arrayidx72 = getelementptr inbounds [8 x i32], [8 x i32]* %cache69, i64 0, i64 %idxprom71, !dbg !2534
  call void @_ZSt4sortIPjEvT_S1_(i32* %arrayidx68, i32* %arrayidx72), !dbg !2536
  br label %sw.epilog, !dbg !2537

sw.epilog:                                        ; preds = %sw.default, %for.end66, %if.end42, %if.end, %sw.bb
  %entries = getelementptr inbounds %"struct.dealii::CompressedSparsityPattern::Line", %"struct.dealii::CompressedSparsityPattern::Line"* %this1, i32 0, i32 0, !dbg !2538
  %call = call i64 @_ZNKSt6vectorIjSaIjEE4sizeEv(%"class.std::vector"* %entries) #3, !dbg !2540
  %cmp73 = icmp eq i64 %call, 0, !dbg !2541
  br i1 %cmp73, label %if.then74, label %if.else, !dbg !2542

if.then74:                                        ; preds = %sw.epilog
  %entries75 = getelementptr inbounds %"struct.dealii::CompressedSparsityPattern::Line", %"struct.dealii::CompressedSparsityPattern::Line"* %this1, i32 0, i32 0, !dbg !2543
  %cache_entries76 = getelementptr inbounds %"struct.dealii::CompressedSparsityPattern::Line", %"struct.dealii::CompressedSparsityPattern::Line"* %this1, i32 0, i32 2, !dbg !2545
  %23 = load i32, i32* %cache_entries76, align 8, !dbg !2545
  %conv = zext i32 %23 to i64, !dbg !2545
  call void @_ZNSt6vectorIjSaIjEE6resizeEm(%"class.std::vector"* %entries75, i64 %conv), !dbg !2546
  call void @llvm.dbg.declare(metadata i32* %i77, metadata !2547, metadata !DIExpression()), !dbg !2549
  store i32 0, i32* %i77, align 4, !dbg !2549
  br label %for.cond78, !dbg !2550

for.cond78:                                       ; preds = %for.inc88, %if.then74
  %24 = load i32, i32* %i77, align 4, !dbg !2551
  %cache_entries79 = getelementptr inbounds %"struct.dealii::CompressedSparsityPattern::Line", %"struct.dealii::CompressedSparsityPattern::Line"* %this1, i32 0, i32 2, !dbg !2553
  %25 = load i32, i32* %cache_entries79, align 8, !dbg !2553
  %cmp80 = icmp ult i32 %24, %25, !dbg !2554
  br i1 %cmp80, label %for.body81, label %for.end90, !dbg !2555

for.body81:                                       ; preds = %for.cond78
  %cache82 = getelementptr inbounds %"struct.dealii::CompressedSparsityPattern::Line", %"struct.dealii::CompressedSparsityPattern::Line"* %this1, i32 0, i32 1, !dbg !2556
  %26 = load i32, i32* %i77, align 4, !dbg !2557
  %idxprom83 = zext i32 %26 to i64, !dbg !2556
  %arrayidx84 = getelementptr inbounds [8 x i32], [8 x i32]* %cache82, i64 0, i64 %idxprom83, !dbg !2556
  %27 = load i32, i32* %arrayidx84, align 4, !dbg !2556
  %entries85 = getelementptr inbounds %"struct.dealii::CompressedSparsityPattern::Line", %"struct.dealii::CompressedSparsityPattern::Line"* %this1, i32 0, i32 0, !dbg !2558
  %28 = load i32, i32* %i77, align 4, !dbg !2559
  %conv86 = zext i32 %28 to i64, !dbg !2559
  %call87 = call dereferenceable(4) i32* @_ZNSt6vectorIjSaIjEEixEm(%"class.std::vector"* %entries85, i64 %conv86) #3, !dbg !2558
  store i32 %27, i32* %call87, align 4, !dbg !2560
  br label %for.inc88, !dbg !2558

for.inc88:                                        ; preds = %for.body81
  %29 = load i32, i32* %i77, align 4, !dbg !2561
  %inc89 = add i32 %29, 1, !dbg !2561
  store i32 %inc89, i32* %i77, align 4, !dbg !2561
  br label %for.cond78, !dbg !2562, !llvm.loop !2563

for.end90:                                        ; preds = %for.cond78
  br label %if.end213, !dbg !2565

if.else:                                          ; preds = %sw.epilog
  call void @llvm.dbg.declare(metadata i32* %n_new_entries, metadata !2566, metadata !DIExpression()), !dbg !2568
  store i32 0, i32* %n_new_entries, align 4, !dbg !2568
  call void @llvm.dbg.declare(metadata i32* %cache_position, metadata !2569, metadata !DIExpression()), !dbg !2571
  store i32 0, i32* %cache_position, align 4, !dbg !2571
  call void @llvm.dbg.declare(metadata i32* %entry_position, metadata !2572, metadata !DIExpression()), !dbg !2573
  store i32 0, i32* %entry_position, align 4, !dbg !2573
  br label %while.cond, !dbg !2574

while.cond:                                       ; preds = %if.end121, %if.else
  %30 = load i32, i32* %entry_position, align 4, !dbg !2575
  %conv91 = zext i32 %30 to i64, !dbg !2575
  %entries92 = getelementptr inbounds %"struct.dealii::CompressedSparsityPattern::Line", %"struct.dealii::CompressedSparsityPattern::Line"* %this1, i32 0, i32 0, !dbg !2576
  %call93 = call i64 @_ZNKSt6vectorIjSaIjEE4sizeEv(%"class.std::vector"* %entries92) #3, !dbg !2577
  %cmp94 = icmp ult i64 %conv91, %call93, !dbg !2578
  br i1 %cmp94, label %land.rhs, label %land.end, !dbg !2579

land.rhs:                                         ; preds = %while.cond
  %31 = load i32, i32* %cache_position, align 4, !dbg !2580
  %cache_entries95 = getelementptr inbounds %"struct.dealii::CompressedSparsityPattern::Line", %"struct.dealii::CompressedSparsityPattern::Line"* %this1, i32 0, i32 2, !dbg !2581
  %32 = load i32, i32* %cache_entries95, align 8, !dbg !2581
  %cmp96 = icmp ult i32 %31, %32, !dbg !2582
  br label %land.end

land.end:                                         ; preds = %land.rhs, %while.cond
  %33 = phi i1 [ false, %while.cond ], [ %cmp96, %land.rhs ], !dbg !2583
  br i1 %33, label %while.body, label %while.end, !dbg !2574

while.body:                                       ; preds = %land.end
  %34 = load i32, i32* %n_new_entries, align 4, !dbg !2584
  %inc97 = add i32 %34, 1, !dbg !2584
  store i32 %inc97, i32* %n_new_entries, align 4, !dbg !2584
  %entries98 = getelementptr inbounds %"struct.dealii::CompressedSparsityPattern::Line", %"struct.dealii::CompressedSparsityPattern::Line"* %this1, i32 0, i32 0, !dbg !2586
  %35 = load i32, i32* %entry_position, align 4, !dbg !2588
  %conv99 = zext i32 %35 to i64, !dbg !2588
  %call100 = call dereferenceable(4) i32* @_ZNSt6vectorIjSaIjEEixEm(%"class.std::vector"* %entries98, i64 %conv99) #3, !dbg !2586
  %36 = load i32, i32* %call100, align 4, !dbg !2586
  %cache101 = getelementptr inbounds %"struct.dealii::CompressedSparsityPattern::Line", %"struct.dealii::CompressedSparsityPattern::Line"* %this1, i32 0, i32 1, !dbg !2589
  %37 = load i32, i32* %cache_position, align 4, !dbg !2590
  %idxprom102 = zext i32 %37 to i64, !dbg !2589
  %arrayidx103 = getelementptr inbounds [8 x i32], [8 x i32]* %cache101, i64 0, i64 %idxprom102, !dbg !2589
  %38 = load i32, i32* %arrayidx103, align 4, !dbg !2589
  %cmp104 = icmp ult i32 %36, %38, !dbg !2591
  br i1 %cmp104, label %if.then105, label %if.else107, !dbg !2592

if.then105:                                       ; preds = %while.body
  %39 = load i32, i32* %entry_position, align 4, !dbg !2593
  %inc106 = add i32 %39, 1, !dbg !2593
  store i32 %inc106, i32* %entry_position, align 4, !dbg !2593
  br label %if.end121, !dbg !2593

if.else107:                                       ; preds = %while.body
  %entries108 = getelementptr inbounds %"struct.dealii::CompressedSparsityPattern::Line", %"struct.dealii::CompressedSparsityPattern::Line"* %this1, i32 0, i32 0, !dbg !2594
  %40 = load i32, i32* %entry_position, align 4, !dbg !2596
  %conv109 = zext i32 %40 to i64, !dbg !2596
  %call110 = call dereferenceable(4) i32* @_ZNSt6vectorIjSaIjEEixEm(%"class.std::vector"* %entries108, i64 %conv109) #3, !dbg !2594
  %41 = load i32, i32* %call110, align 4, !dbg !2594
  %cache111 = getelementptr inbounds %"struct.dealii::CompressedSparsityPattern::Line", %"struct.dealii::CompressedSparsityPattern::Line"* %this1, i32 0, i32 1, !dbg !2597
  %42 = load i32, i32* %cache_position, align 4, !dbg !2598
  %idxprom112 = zext i32 %42 to i64, !dbg !2597
  %arrayidx113 = getelementptr inbounds [8 x i32], [8 x i32]* %cache111, i64 0, i64 %idxprom112, !dbg !2597
  %43 = load i32, i32* %arrayidx113, align 4, !dbg !2597
  %cmp114 = icmp eq i32 %41, %43, !dbg !2599
  br i1 %cmp114, label %if.then115, label %if.else118, !dbg !2600

if.then115:                                       ; preds = %if.else107
  %44 = load i32, i32* %entry_position, align 4, !dbg !2601
  %inc116 = add i32 %44, 1, !dbg !2601
  store i32 %inc116, i32* %entry_position, align 4, !dbg !2601
  %45 = load i32, i32* %cache_position, align 4, !dbg !2603
  %inc117 = add i32 %45, 1, !dbg !2603
  store i32 %inc117, i32* %cache_position, align 4, !dbg !2603
  br label %if.end120, !dbg !2604

if.else118:                                       ; preds = %if.else107
  %46 = load i32, i32* %cache_position, align 4, !dbg !2605
  %inc119 = add i32 %46, 1, !dbg !2605
  store i32 %inc119, i32* %cache_position, align 4, !dbg !2605
  br label %if.end120

if.end120:                                        ; preds = %if.else118, %if.then115
  br label %if.end121

if.end121:                                        ; preds = %if.end120, %if.then105
  br label %while.cond, !dbg !2574, !llvm.loop !2606

while.end:                                        ; preds = %land.end
  %entries122 = getelementptr inbounds %"struct.dealii::CompressedSparsityPattern::Line", %"struct.dealii::CompressedSparsityPattern::Line"* %this1, i32 0, i32 0, !dbg !2608
  %call123 = call i64 @_ZNKSt6vectorIjSaIjEE4sizeEv(%"class.std::vector"* %entries122) #3, !dbg !2609
  %47 = load i32, i32* %entry_position, align 4, !dbg !2610
  %conv124 = zext i32 %47 to i64, !dbg !2610
  %sub = sub i64 %call123, %conv124, !dbg !2611
  %cache_entries125 = getelementptr inbounds %"struct.dealii::CompressedSparsityPattern::Line", %"struct.dealii::CompressedSparsityPattern::Line"* %this1, i32 0, i32 2, !dbg !2612
  %48 = load i32, i32* %cache_entries125, align 8, !dbg !2612
  %49 = load i32, i32* %cache_position, align 4, !dbg !2613
  %sub126 = sub i32 %48, %49, !dbg !2614
  %conv127 = zext i32 %sub126 to i64, !dbg !2615
  %add128 = add i64 %sub, %conv127, !dbg !2616
  %50 = load i32, i32* %n_new_entries, align 4, !dbg !2617
  %conv129 = zext i32 %50 to i64, !dbg !2617
  %add130 = add i64 %conv129, %add128, !dbg !2617
  %conv131 = trunc i64 %add130 to i32, !dbg !2617
  store i32 %conv131, i32* %n_new_entries, align 4, !dbg !2617
  %51 = load i32, i32* %n_new_entries, align 4, !dbg !2618
  %conv132 = zext i32 %51 to i64, !dbg !2618
  %entries133 = getelementptr inbounds %"struct.dealii::CompressedSparsityPattern::Line", %"struct.dealii::CompressedSparsityPattern::Line"* %this1, i32 0, i32 0, !dbg !2620
  %call134 = call i64 @_ZNKSt6vectorIjSaIjEE4sizeEv(%"class.std::vector"* %entries133) #3, !dbg !2621
  %cmp135 = icmp ugt i64 %conv132, %call134, !dbg !2622
  br i1 %cmp135, label %if.then136, label %if.end212, !dbg !2623

if.then136:                                       ; preds = %while.end
  call void @llvm.dbg.declare(metadata %"class.std::vector"* %new_entries, metadata !2624, metadata !DIExpression()), !dbg !2626
  call void @_ZNSt6vectorIjSaIjEEC2Ev(%"class.std::vector"* %new_entries) #3, !dbg !2626
  %52 = load i32, i32* %n_new_entries, align 4, !dbg !2627
  %conv137 = zext i32 %52 to i64, !dbg !2627
  invoke void @_ZNSt6vectorIjSaIjEE7reserveEm(%"class.std::vector"* %new_entries, i64 %conv137)
          to label %invoke.cont unwind label %lpad, !dbg !2628

invoke.cont:                                      ; preds = %if.then136
  call void @llvm.dbg.declare(metadata i32* %cache_position138, metadata !2629, metadata !DIExpression()), !dbg !2630
  store i32 0, i32* %cache_position138, align 4, !dbg !2630
  call void @llvm.dbg.declare(metadata i32* %entry_position139, metadata !2631, metadata !DIExpression()), !dbg !2632
  store i32 0, i32* %entry_position139, align 4, !dbg !2632
  br label %while.cond140, !dbg !2633

while.cond140:                                    ; preds = %if.end185, %invoke.cont
  %53 = load i32, i32* %entry_position139, align 4, !dbg !2634
  %conv141 = zext i32 %53 to i64, !dbg !2634
  %entries142 = getelementptr inbounds %"struct.dealii::CompressedSparsityPattern::Line", %"struct.dealii::CompressedSparsityPattern::Line"* %this1, i32 0, i32 0, !dbg !2635
  %call143 = call i64 @_ZNKSt6vectorIjSaIjEE4sizeEv(%"class.std::vector"* %entries142) #3, !dbg !2636
  %cmp144 = icmp ult i64 %conv141, %call143, !dbg !2637
  br i1 %cmp144, label %land.rhs145, label %land.end148, !dbg !2638

land.rhs145:                                      ; preds = %while.cond140
  %54 = load i32, i32* %cache_position138, align 4, !dbg !2639
  %cache_entries146 = getelementptr inbounds %"struct.dealii::CompressedSparsityPattern::Line", %"struct.dealii::CompressedSparsityPattern::Line"* %this1, i32 0, i32 2, !dbg !2640
  %55 = load i32, i32* %cache_entries146, align 8, !dbg !2640
  %cmp147 = icmp ult i32 %54, %55, !dbg !2641
  br label %land.end148

land.end148:                                      ; preds = %land.rhs145, %while.cond140
  %56 = phi i1 [ false, %while.cond140 ], [ %cmp147, %land.rhs145 ], !dbg !2642
  br i1 %56, label %while.body149, label %while.end186, !dbg !2633

while.body149:                                    ; preds = %land.end148
  %entries150 = getelementptr inbounds %"struct.dealii::CompressedSparsityPattern::Line", %"struct.dealii::CompressedSparsityPattern::Line"* %this1, i32 0, i32 0, !dbg !2643
  %57 = load i32, i32* %entry_position139, align 4, !dbg !2645
  %conv151 = zext i32 %57 to i64, !dbg !2645
  %call152 = call dereferenceable(4) i32* @_ZNSt6vectorIjSaIjEEixEm(%"class.std::vector"* %entries150, i64 %conv151) #3, !dbg !2643
  %58 = load i32, i32* %call152, align 4, !dbg !2643
  %cache153 = getelementptr inbounds %"struct.dealii::CompressedSparsityPattern::Line", %"struct.dealii::CompressedSparsityPattern::Line"* %this1, i32 0, i32 1, !dbg !2646
  %59 = load i32, i32* %cache_position138, align 4, !dbg !2647
  %idxprom154 = zext i32 %59 to i64, !dbg !2646
  %arrayidx155 = getelementptr inbounds [8 x i32], [8 x i32]* %cache153, i64 0, i64 %idxprom154, !dbg !2646
  %60 = load i32, i32* %arrayidx155, align 4, !dbg !2646
  %cmp156 = icmp ult i32 %58, %60, !dbg !2648
  br i1 %cmp156, label %if.then157, label %if.else163, !dbg !2649

if.then157:                                       ; preds = %while.body149
  %entries158 = getelementptr inbounds %"struct.dealii::CompressedSparsityPattern::Line", %"struct.dealii::CompressedSparsityPattern::Line"* %this1, i32 0, i32 0, !dbg !2650
  %61 = load i32, i32* %entry_position139, align 4, !dbg !2652
  %conv159 = zext i32 %61 to i64, !dbg !2652
  %call160 = call dereferenceable(4) i32* @_ZNSt6vectorIjSaIjEEixEm(%"class.std::vector"* %entries158, i64 %conv159) #3, !dbg !2650
  invoke void @_ZNSt6vectorIjSaIjEE9push_backERKj(%"class.std::vector"* %new_entries, i32* dereferenceable(4) %call160)
          to label %invoke.cont161 unwind label %lpad, !dbg !2653

invoke.cont161:                                   ; preds = %if.then157
  %62 = load i32, i32* %entry_position139, align 4, !dbg !2654
  %inc162 = add i32 %62, 1, !dbg !2654
  store i32 %inc162, i32* %entry_position139, align 4, !dbg !2654
  br label %if.end185, !dbg !2655

lpad:                                             ; preds = %for.body203, %for.body192, %if.else178, %if.then171, %if.then157, %if.then136
  %63 = landingpad { i8*, i32 }
          cleanup, !dbg !2656
  %64 = extractvalue { i8*, i32 } %63, 0, !dbg !2656
  store i8* %64, i8** %exn.slot, align 8, !dbg !2656
  %65 = extractvalue { i8*, i32 } %63, 1, !dbg !2656
  store i32 %65, i32* %ehselector.slot, align 4, !dbg !2656
  call void @_ZNSt6vectorIjSaIjEED2Ev(%"class.std::vector"* %new_entries) #3, !dbg !2657
  br label %eh.resume, !dbg !2657

if.else163:                                       ; preds = %while.body149
  %entries164 = getelementptr inbounds %"struct.dealii::CompressedSparsityPattern::Line", %"struct.dealii::CompressedSparsityPattern::Line"* %this1, i32 0, i32 0, !dbg !2658
  %66 = load i32, i32* %entry_position139, align 4, !dbg !2660
  %conv165 = zext i32 %66 to i64, !dbg !2660
  %call166 = call dereferenceable(4) i32* @_ZNSt6vectorIjSaIjEEixEm(%"class.std::vector"* %entries164, i64 %conv165) #3, !dbg !2658
  %67 = load i32, i32* %call166, align 4, !dbg !2658
  %cache167 = getelementptr inbounds %"struct.dealii::CompressedSparsityPattern::Line", %"struct.dealii::CompressedSparsityPattern::Line"* %this1, i32 0, i32 1, !dbg !2661
  %68 = load i32, i32* %cache_position138, align 4, !dbg !2662
  %idxprom168 = zext i32 %68 to i64, !dbg !2661
  %arrayidx169 = getelementptr inbounds [8 x i32], [8 x i32]* %cache167, i64 0, i64 %idxprom168, !dbg !2661
  %69 = load i32, i32* %arrayidx169, align 4, !dbg !2661
  %cmp170 = icmp eq i32 %67, %69, !dbg !2663
  br i1 %cmp170, label %if.then171, label %if.else178, !dbg !2664

if.then171:                                       ; preds = %if.else163
  %entries172 = getelementptr inbounds %"struct.dealii::CompressedSparsityPattern::Line", %"struct.dealii::CompressedSparsityPattern::Line"* %this1, i32 0, i32 0, !dbg !2665
  %70 = load i32, i32* %entry_position139, align 4, !dbg !2667
  %conv173 = zext i32 %70 to i64, !dbg !2667
  %call174 = call dereferenceable(4) i32* @_ZNSt6vectorIjSaIjEEixEm(%"class.std::vector"* %entries172, i64 %conv173) #3, !dbg !2665
  invoke void @_ZNSt6vectorIjSaIjEE9push_backERKj(%"class.std::vector"* %new_entries, i32* dereferenceable(4) %call174)
          to label %invoke.cont175 unwind label %lpad, !dbg !2668

invoke.cont175:                                   ; preds = %if.then171
  %71 = load i32, i32* %entry_position139, align 4, !dbg !2669
  %inc176 = add i32 %71, 1, !dbg !2669
  store i32 %inc176, i32* %entry_position139, align 4, !dbg !2669
  %72 = load i32, i32* %cache_position138, align 4, !dbg !2670
  %inc177 = add i32 %72, 1, !dbg !2670
  store i32 %inc177, i32* %cache_position138, align 4, !dbg !2670
  br label %if.end184, !dbg !2671

if.else178:                                       ; preds = %if.else163
  %cache179 = getelementptr inbounds %"struct.dealii::CompressedSparsityPattern::Line", %"struct.dealii::CompressedSparsityPattern::Line"* %this1, i32 0, i32 1, !dbg !2672
  %73 = load i32, i32* %cache_position138, align 4, !dbg !2674
  %idxprom180 = zext i32 %73 to i64, !dbg !2672
  %arrayidx181 = getelementptr inbounds [8 x i32], [8 x i32]* %cache179, i64 0, i64 %idxprom180, !dbg !2672
  invoke void @_ZNSt6vectorIjSaIjEE9push_backERKj(%"class.std::vector"* %new_entries, i32* dereferenceable(4) %arrayidx181)
          to label %invoke.cont182 unwind label %lpad, !dbg !2675

invoke.cont182:                                   ; preds = %if.else178
  %74 = load i32, i32* %cache_position138, align 4, !dbg !2676
  %inc183 = add i32 %74, 1, !dbg !2676
  store i32 %inc183, i32* %cache_position138, align 4, !dbg !2676
  br label %if.end184

if.end184:                                        ; preds = %invoke.cont182, %invoke.cont175
  br label %if.end185

if.end185:                                        ; preds = %if.end184, %invoke.cont161
  br label %while.cond140, !dbg !2633, !llvm.loop !2677

while.end186:                                     ; preds = %land.end148
  br label %for.cond187, !dbg !2679

for.cond187:                                      ; preds = %for.inc197, %while.end186
  %75 = load i32, i32* %entry_position139, align 4, !dbg !2680
  %conv188 = zext i32 %75 to i64, !dbg !2680
  %entries189 = getelementptr inbounds %"struct.dealii::CompressedSparsityPattern::Line", %"struct.dealii::CompressedSparsityPattern::Line"* %this1, i32 0, i32 0, !dbg !2683
  %call190 = call i64 @_ZNKSt6vectorIjSaIjEE4sizeEv(%"class.std::vector"* %entries189) #3, !dbg !2684
  %cmp191 = icmp ult i64 %conv188, %call190, !dbg !2685
  br i1 %cmp191, label %for.body192, label %for.end199, !dbg !2686

for.body192:                                      ; preds = %for.cond187
  %entries193 = getelementptr inbounds %"struct.dealii::CompressedSparsityPattern::Line", %"struct.dealii::CompressedSparsityPattern::Line"* %this1, i32 0, i32 0, !dbg !2687
  %76 = load i32, i32* %entry_position139, align 4, !dbg !2688
  %conv194 = zext i32 %76 to i64, !dbg !2688
  %call195 = call dereferenceable(4) i32* @_ZNSt6vectorIjSaIjEEixEm(%"class.std::vector"* %entries193, i64 %conv194) #3, !dbg !2687
  invoke void @_ZNSt6vectorIjSaIjEE9push_backERKj(%"class.std::vector"* %new_entries, i32* dereferenceable(4) %call195)
          to label %invoke.cont196 unwind label %lpad, !dbg !2689

invoke.cont196:                                   ; preds = %for.body192
  br label %for.inc197, !dbg !2690

for.inc197:                                       ; preds = %invoke.cont196
  %77 = load i32, i32* %entry_position139, align 4, !dbg !2691
  %inc198 = add i32 %77, 1, !dbg !2691
  store i32 %inc198, i32* %entry_position139, align 4, !dbg !2691
  br label %for.cond187, !dbg !2692, !llvm.loop !2693

for.end199:                                       ; preds = %for.cond187
  br label %for.cond200, !dbg !2695

for.cond200:                                      ; preds = %for.inc208, %for.end199
  %78 = load i32, i32* %cache_position138, align 4, !dbg !2696
  %cache_entries201 = getelementptr inbounds %"struct.dealii::CompressedSparsityPattern::Line", %"struct.dealii::CompressedSparsityPattern::Line"* %this1, i32 0, i32 2, !dbg !2699
  %79 = load i32, i32* %cache_entries201, align 8, !dbg !2699
  %cmp202 = icmp ult i32 %78, %79, !dbg !2700
  br i1 %cmp202, label %for.body203, label %for.end210, !dbg !2701

for.body203:                                      ; preds = %for.cond200
  %cache204 = getelementptr inbounds %"struct.dealii::CompressedSparsityPattern::Line", %"struct.dealii::CompressedSparsityPattern::Line"* %this1, i32 0, i32 1, !dbg !2702
  %80 = load i32, i32* %cache_position138, align 4, !dbg !2703
  %idxprom205 = zext i32 %80 to i64, !dbg !2702
  %arrayidx206 = getelementptr inbounds [8 x i32], [8 x i32]* %cache204, i64 0, i64 %idxprom205, !dbg !2702
  invoke void @_ZNSt6vectorIjSaIjEE9push_backERKj(%"class.std::vector"* %new_entries, i32* dereferenceable(4) %arrayidx206)
          to label %invoke.cont207 unwind label %lpad, !dbg !2704

invoke.cont207:                                   ; preds = %for.body203
  br label %for.inc208, !dbg !2705

for.inc208:                                       ; preds = %invoke.cont207
  %81 = load i32, i32* %cache_position138, align 4, !dbg !2706
  %inc209 = add i32 %81, 1, !dbg !2706
  store i32 %inc209, i32* %cache_position138, align 4, !dbg !2706
  br label %for.cond200, !dbg !2707, !llvm.loop !2708

for.end210:                                       ; preds = %for.cond200
  %entries211 = getelementptr inbounds %"struct.dealii::CompressedSparsityPattern::Line", %"struct.dealii::CompressedSparsityPattern::Line"* %this1, i32 0, i32 0, !dbg !2710
  call void @_ZNSt6vectorIjSaIjEE4swapERS1_(%"class.std::vector"* %new_entries, %"class.std::vector"* dereferenceable(24) %entries211) #3, !dbg !2711
  call void @_ZNSt6vectorIjSaIjEED2Ev(%"class.std::vector"* %new_entries) #3, !dbg !2657
  br label %if.end212, !dbg !2712

if.end212:                                        ; preds = %for.end210, %while.end
  br label %if.end213

if.end213:                                        ; preds = %if.end212, %for.end90
  %cache_entries214 = getelementptr inbounds %"struct.dealii::CompressedSparsityPattern::Line", %"struct.dealii::CompressedSparsityPattern::Line"* %this1, i32 0, i32 2, !dbg !2713
  store i32 0, i32* %cache_entries214, align 8, !dbg !2714
  ret void, !dbg !2715

eh.resume:                                        ; preds = %lpad
  %exn = load i8*, i8** %exn.slot, align 8, !dbg !2657
  %sel = load i32, i32* %ehselector.slot, align 4, !dbg !2657
  %lpad.val = insertvalue { i8*, i32 } undef, i8* %exn, 0, !dbg !2657
  %lpad.val215 = insertvalue { i8*, i32 } %lpad.val, i32 %sel, 1, !dbg !2657
  resume { i8*, i32 } %lpad.val215, !dbg !2657
}

; Function Attrs: nounwind readnone speculatable willreturn
declare void @llvm.dbg.declare(metadata, metadata, metadata) #4

; Function Attrs: noinline nounwind uwtable
define linkonce_odr dso_local void @_ZSt4swapIjENSt9enable_ifIXsr6__and_ISt6__not_ISt15__is_tuple_likeIT_EESt21is_move_constructibleIS3_ESt18is_move_assignableIS3_EEE5valueEvE4typeERS3_SC_(i32* dereferenceable(4) %__a, i32* dereferenceable(4) %__b) #5 comdat !dbg !2716 {
entry:
  %__a.addr = alloca i32*, align 8
  %__b.addr = alloca i32*, align 8
  %__tmp = alloca i32, align 4
  store i32* %__a, i32** %__a.addr, align 8
  call void @llvm.dbg.declare(metadata i32** %__a.addr, metadata !2725, metadata !DIExpression()), !dbg !2726
  store i32* %__b, i32** %__b.addr, align 8
  call void @llvm.dbg.declare(metadata i32** %__b.addr, metadata !2727, metadata !DIExpression()), !dbg !2728
  call void @llvm.dbg.declare(metadata i32* %__tmp, metadata !2729, metadata !DIExpression()), !dbg !2730
  %0 = load i32*, i32** %__a.addr, align 8, !dbg !2731
  %call = call dereferenceable(4) i32* @_ZSt4moveIRjEONSt16remove_referenceIT_E4typeEOS2_(i32* dereferenceable(4) %0) #3, !dbg !2731
  %1 = load i32, i32* %call, align 4, !dbg !2731
  store i32 %1, i32* %__tmp, align 4, !dbg !2730
  %2 = load i32*, i32** %__b.addr, align 8, !dbg !2732
  %call1 = call dereferenceable(4) i32* @_ZSt4moveIRjEONSt16remove_referenceIT_E4typeEOS2_(i32* dereferenceable(4) %2) #3, !dbg !2732
  %3 = load i32, i32* %call1, align 4, !dbg !2732
  %4 = load i32*, i32** %__a.addr, align 8, !dbg !2733
  store i32 %3, i32* %4, align 4, !dbg !2734
  %call2 = call dereferenceable(4) i32* @_ZSt4moveIRjEONSt16remove_referenceIT_E4typeEOS2_(i32* dereferenceable(4) %__tmp) #3, !dbg !2735
  %5 = load i32, i32* %call2, align 4, !dbg !2735
  %6 = load i32*, i32** %__b.addr, align 8, !dbg !2736
  store i32 %5, i32* %6, align 4, !dbg !2737
  ret void, !dbg !2738
}

; Function Attrs: noinline uwtable
define linkonce_odr dso_local void @_ZSt4sortIPjEvT_S1_(i32* %__first, i32* %__last) #0 comdat !dbg !2739 {
entry:
  %__first.addr = alloca i32*, align 8
  %__last.addr = alloca i32*, align 8
  %agg.tmp = alloca %"struct.__gnu_cxx::__ops::_Iter_less_iter", align 1
  %undef.agg.tmp = alloca %"struct.__gnu_cxx::__ops::_Iter_less_iter", align 1
  store i32* %__first, i32** %__first.addr, align 8
  call void @llvm.dbg.declare(metadata i32** %__first.addr, metadata !2743, metadata !DIExpression()), !dbg !2744
  store i32* %__last, i32** %__last.addr, align 8
  call void @llvm.dbg.declare(metadata i32** %__last.addr, metadata !2745, metadata !DIExpression()), !dbg !2746
  %0 = load i32*, i32** %__first.addr, align 8, !dbg !2747
  %1 = load i32*, i32** %__last.addr, align 8, !dbg !2748
  call void @_ZN9__gnu_cxx5__ops16__iter_less_iterEv(), !dbg !2749
  call void @_ZSt6__sortIPjN9__gnu_cxx5__ops15_Iter_less_iterEEvT_S4_T0_(i32* %0, i32* %1), !dbg !2750
  ret void, !dbg !2751
}

; Function Attrs: noinline nounwind uwtable
define linkonce_odr dso_local i64 @_ZNKSt6vectorIjSaIjEE4sizeEv(%"class.std::vector"* %this) #5 comdat align 2 !dbg !2752 {
entry:
  %this.addr = alloca %"class.std::vector"*, align 8
  store %"class.std::vector"* %this, %"class.std::vector"** %this.addr, align 8
  call void @llvm.dbg.declare(metadata %"class.std::vector"** %this.addr, metadata !2753, metadata !DIExpression()), !dbg !2755
  %this1 = load %"class.std::vector"*, %"class.std::vector"** %this.addr, align 8
  %0 = bitcast %"class.std::vector"* %this1 to %"struct.std::_Vector_base"*, !dbg !2756
  %_M_impl = getelementptr inbounds %"struct.std::_Vector_base", %"struct.std::_Vector_base"* %0, i32 0, i32 0, !dbg !2756
  %1 = bitcast %"struct.std::_Vector_base<unsigned int, std::allocator<unsigned int> >::_Vector_impl"* %_M_impl to %"struct.std::_Vector_base<unsigned int, std::allocator<unsigned int> >::_Vector_impl_data"*, !dbg !2757
  %_M_finish = getelementptr inbounds %"struct.std::_Vector_base<unsigned int, std::allocator<unsigned int> >::_Vector_impl_data", %"struct.std::_Vector_base<unsigned int, std::allocator<unsigned int> >::_Vector_impl_data"* %1, i32 0, i32 1, !dbg !2758
  %2 = load i32*, i32** %_M_finish, align 8, !dbg !2758
  %3 = bitcast %"class.std::vector"* %this1 to %"struct.std::_Vector_base"*, !dbg !2759
  %_M_impl2 = getelementptr inbounds %"struct.std::_Vector_base", %"struct.std::_Vector_base"* %3, i32 0, i32 0, !dbg !2759
  %4 = bitcast %"struct.std::_Vector_base<unsigned int, std::allocator<unsigned int> >::_Vector_impl"* %_M_impl2 to %"struct.std::_Vector_base<unsigned int, std::allocator<unsigned int> >::_Vector_impl_data"*, !dbg !2760
  %_M_start = getelementptr inbounds %"struct.std::_Vector_base<unsigned int, std::allocator<unsigned int> >::_Vector_impl_data", %"struct.std::_Vector_base<unsigned int, std::allocator<unsigned int> >::_Vector_impl_data"* %4, i32 0, i32 0, !dbg !2761
  %5 = load i32*, i32** %_M_start, align 8, !dbg !2761
  %sub.ptr.lhs.cast = ptrtoint i32* %2 to i64, !dbg !2762
  %sub.ptr.rhs.cast = ptrtoint i32* %5 to i64, !dbg !2762
  %sub.ptr.sub = sub i64 %sub.ptr.lhs.cast, %sub.ptr.rhs.cast, !dbg !2762
  %sub.ptr.div = sdiv exact i64 %sub.ptr.sub, 4, !dbg !2762
  ret i64 %sub.ptr.div, !dbg !2763
}

; Function Attrs: noinline uwtable
define linkonce_odr dso_local void @_ZNSt6vectorIjSaIjEE6resizeEm(%"class.std::vector"* %this, i64 %__new_size) #0 comdat align 2 !dbg !2764 {
entry:
  %this.addr = alloca %"class.std::vector"*, align 8
  %__new_size.addr = alloca i64, align 8
  store %"class.std::vector"* %this, %"class.std::vector"** %this.addr, align 8
  call void @llvm.dbg.declare(metadata %"class.std::vector"** %this.addr, metadata !2765, metadata !DIExpression()), !dbg !2767
  store i64 %__new_size, i64* %__new_size.addr, align 8
  call void @llvm.dbg.declare(metadata i64* %__new_size.addr, metadata !2768, metadata !DIExpression()), !dbg !2769
  %this1 = load %"class.std::vector"*, %"class.std::vector"** %this.addr, align 8
  %0 = load i64, i64* %__new_size.addr, align 8, !dbg !2770
  %call = call i64 @_ZNKSt6vectorIjSaIjEE4sizeEv(%"class.std::vector"* %this1) #3, !dbg !2772
  %cmp = icmp ugt i64 %0, %call, !dbg !2773
  br i1 %cmp, label %if.then, label %if.else, !dbg !2774

if.then:                                          ; preds = %entry
  %1 = load i64, i64* %__new_size.addr, align 8, !dbg !2775
  %call2 = call i64 @_ZNKSt6vectorIjSaIjEE4sizeEv(%"class.std::vector"* %this1) #3, !dbg !2776
  %sub = sub i64 %1, %call2, !dbg !2777
  call void @_ZNSt6vectorIjSaIjEE17_M_default_appendEm(%"class.std::vector"* %this1, i64 %sub), !dbg !2778
  br label %if.end6, !dbg !2778

if.else:                                          ; preds = %entry
  %2 = load i64, i64* %__new_size.addr, align 8, !dbg !2779
  %call3 = call i64 @_ZNKSt6vectorIjSaIjEE4sizeEv(%"class.std::vector"* %this1) #3, !dbg !2781
  %cmp4 = icmp ult i64 %2, %call3, !dbg !2782
  br i1 %cmp4, label %if.then5, label %if.end, !dbg !2783

if.then5:                                         ; preds = %if.else
  %3 = bitcast %"class.std::vector"* %this1 to %"struct.std::_Vector_base"*, !dbg !2784
  %_M_impl = getelementptr inbounds %"struct.std::_Vector_base", %"struct.std::_Vector_base"* %3, i32 0, i32 0, !dbg !2784
  %4 = bitcast %"struct.std::_Vector_base<unsigned int, std::allocator<unsigned int> >::_Vector_impl"* %_M_impl to %"struct.std::_Vector_base<unsigned int, std::allocator<unsigned int> >::_Vector_impl_data"*, !dbg !2785
  %_M_start = getelementptr inbounds %"struct.std::_Vector_base<unsigned int, std::allocator<unsigned int> >::_Vector_impl_data", %"struct.std::_Vector_base<unsigned int, std::allocator<unsigned int> >::_Vector_impl_data"* %4, i32 0, i32 0, !dbg !2786
  %5 = load i32*, i32** %_M_start, align 8, !dbg !2786
  %6 = load i64, i64* %__new_size.addr, align 8, !dbg !2787
  %add.ptr = getelementptr inbounds i32, i32* %5, i64 %6, !dbg !2788
  call void @_ZNSt6vectorIjSaIjEE15_M_erase_at_endEPj(%"class.std::vector"* %this1, i32* %add.ptr) #3, !dbg !2789
  br label %if.end, !dbg !2789

if.end:                                           ; preds = %if.then5, %if.else
  br label %if.end6

if.end6:                                          ; preds = %if.end, %if.then
  ret void, !dbg !2790
}

; Function Attrs: noinline nounwind uwtable
define linkonce_odr dso_local dereferenceable(4) i32* @_ZNSt6vectorIjSaIjEEixEm(%"class.std::vector"* %this, i64 %__n) #5 comdat align 2 !dbg !2791 {
entry:
  %this.addr = alloca %"class.std::vector"*, align 8
  %__n.addr = alloca i64, align 8
  store %"class.std::vector"* %this, %"class.std::vector"** %this.addr, align 8
  call void @llvm.dbg.declare(metadata %"class.std::vector"** %this.addr, metadata !2792, metadata !DIExpression()), !dbg !2793
  store i64 %__n, i64* %__n.addr, align 8
  call void @llvm.dbg.declare(metadata i64* %__n.addr, metadata !2794, metadata !DIExpression()), !dbg !2795
  %this1 = load %"class.std::vector"*, %"class.std::vector"** %this.addr, align 8
  %0 = bitcast %"class.std::vector"* %this1 to %"struct.std::_Vector_base"*, !dbg !2796
  %_M_impl = getelementptr inbounds %"struct.std::_Vector_base", %"struct.std::_Vector_base"* %0, i32 0, i32 0, !dbg !2796
  %1 = bitcast %"struct.std::_Vector_base<unsigned int, std::allocator<unsigned int> >::_Vector_impl"* %_M_impl to %"struct.std::_Vector_base<unsigned int, std::allocator<unsigned int> >::_Vector_impl_data"*, !dbg !2797
  %_M_start = getelementptr inbounds %"struct.std::_Vector_base<unsigned int, std::allocator<unsigned int> >::_Vector_impl_data", %"struct.std::_Vector_base<unsigned int, std::allocator<unsigned int> >::_Vector_impl_data"* %1, i32 0, i32 0, !dbg !2798
  %2 = load i32*, i32** %_M_start, align 8, !dbg !2798
  %3 = load i64, i64* %__n.addr, align 8, !dbg !2799
  %add.ptr = getelementptr inbounds i32, i32* %2, i64 %3, !dbg !2800
  ret i32* %add.ptr, !dbg !2801
}

; Function Attrs: noinline nounwind uwtable
define linkonce_odr dso_local void @_ZNSt6vectorIjSaIjEEC2Ev(%"class.std::vector"* %this) unnamed_addr #5 comdat align 2 !dbg !2802 {
entry:
  %this.addr = alloca %"class.std::vector"*, align 8
  store %"class.std::vector"* %this, %"class.std::vector"** %this.addr, align 8
  call void @llvm.dbg.declare(metadata %"class.std::vector"** %this.addr, metadata !2803, metadata !DIExpression()), !dbg !2804
  %this1 = load %"class.std::vector"*, %"class.std::vector"** %this.addr, align 8
  %0 = bitcast %"class.std::vector"* %this1 to %"struct.std::_Vector_base"*, !dbg !2805
  call void @_ZNSt12_Vector_baseIjSaIjEEC2Ev(%"struct.std::_Vector_base"* %0) #3, !dbg !2806
  ret void, !dbg !2805
}

; Function Attrs: noinline uwtable
define linkonce_odr dso_local void @_ZNSt6vectorIjSaIjEE7reserveEm(%"class.std::vector"* %this, i64 %__n) #0 comdat align 2 !dbg !2807 {
entry:
  %this.addr = alloca %"class.std::vector"*, align 8
  %__n.addr = alloca i64, align 8
  %__old_size = alloca i64, align 8
  %__tmp = alloca i32*, align 8
  store %"class.std::vector"* %this, %"class.std::vector"** %this.addr, align 8
  call void @llvm.dbg.declare(metadata %"class.std::vector"** %this.addr, metadata !2809, metadata !DIExpression()), !dbg !2810
  store i64 %__n, i64* %__n.addr, align 8
  call void @llvm.dbg.declare(metadata i64* %__n.addr, metadata !2811, metadata !DIExpression()), !dbg !2812
  %this1 = load %"class.std::vector"*, %"class.std::vector"** %this.addr, align 8
  %0 = load i64, i64* %__n.addr, align 8, !dbg !2813
  %call = call i64 @_ZNKSt6vectorIjSaIjEE8max_sizeEv(%"class.std::vector"* %this1) #3, !dbg !2815
  %cmp = icmp ugt i64 %0, %call, !dbg !2816
  br i1 %cmp, label %if.then, label %if.end, !dbg !2817

if.then:                                          ; preds = %entry
  call void @_ZSt20__throw_length_errorPKc(i8* getelementptr inbounds ([16 x i8], [16 x i8]* @.str.6, i64 0, i64 0)) #14, !dbg !2818
  unreachable, !dbg !2818

if.end:                                           ; preds = %entry
  %call2 = call i64 @_ZNKSt6vectorIjSaIjEE8capacityEv(%"class.std::vector"* %this1) #3, !dbg !2819
  %1 = load i64, i64* %__n.addr, align 8, !dbg !2821
  %cmp3 = icmp ult i64 %call2, %1, !dbg !2822
  br i1 %cmp3, label %if.then4, label %if.end24, !dbg !2823

if.then4:                                         ; preds = %if.end
  call void @llvm.dbg.declare(metadata i64* %__old_size, metadata !2824, metadata !DIExpression()), !dbg !2827
  %call5 = call i64 @_ZNKSt6vectorIjSaIjEE4sizeEv(%"class.std::vector"* %this1) #3, !dbg !2828
  store i64 %call5, i64* %__old_size, align 8, !dbg !2827
  call void @llvm.dbg.declare(metadata i32** %__tmp, metadata !2829, metadata !DIExpression()), !dbg !2830
  %2 = bitcast %"class.std::vector"* %this1 to %"struct.std::_Vector_base"*, !dbg !2831
  %3 = load i64, i64* %__n.addr, align 8, !dbg !2834
  %call6 = call i32* @_ZNSt12_Vector_baseIjSaIjEE11_M_allocateEm(%"struct.std::_Vector_base"* %2, i64 %3), !dbg !2831
  store i32* %call6, i32** %__tmp, align 8, !dbg !2835
  %4 = bitcast %"class.std::vector"* %this1 to %"struct.std::_Vector_base"*, !dbg !2836
  %_M_impl = getelementptr inbounds %"struct.std::_Vector_base", %"struct.std::_Vector_base"* %4, i32 0, i32 0, !dbg !2836
  %5 = bitcast %"struct.std::_Vector_base<unsigned int, std::allocator<unsigned int> >::_Vector_impl"* %_M_impl to %"struct.std::_Vector_base<unsigned int, std::allocator<unsigned int> >::_Vector_impl_data"*, !dbg !2837
  %_M_start = getelementptr inbounds %"struct.std::_Vector_base<unsigned int, std::allocator<unsigned int> >::_Vector_impl_data", %"struct.std::_Vector_base<unsigned int, std::allocator<unsigned int> >::_Vector_impl_data"* %5, i32 0, i32 0, !dbg !2838
  %6 = load i32*, i32** %_M_start, align 8, !dbg !2838
  %7 = bitcast %"class.std::vector"* %this1 to %"struct.std::_Vector_base"*, !dbg !2839
  %_M_impl7 = getelementptr inbounds %"struct.std::_Vector_base", %"struct.std::_Vector_base"* %7, i32 0, i32 0, !dbg !2839
  %8 = bitcast %"struct.std::_Vector_base<unsigned int, std::allocator<unsigned int> >::_Vector_impl"* %_M_impl7 to %"struct.std::_Vector_base<unsigned int, std::allocator<unsigned int> >::_Vector_impl_data"*, !dbg !2840
  %_M_finish = getelementptr inbounds %"struct.std::_Vector_base<unsigned int, std::allocator<unsigned int> >::_Vector_impl_data", %"struct.std::_Vector_base<unsigned int, std::allocator<unsigned int> >::_Vector_impl_data"* %8, i32 0, i32 1, !dbg !2841
  %9 = load i32*, i32** %_M_finish, align 8, !dbg !2841
  %10 = load i32*, i32** %__tmp, align 8, !dbg !2842
  %11 = bitcast %"class.std::vector"* %this1 to %"struct.std::_Vector_base"*, !dbg !2843
  %call8 = call dereferenceable(1) %"class.std::allocator"* @_ZNSt12_Vector_baseIjSaIjEE19_M_get_Tp_allocatorEv(%"struct.std::_Vector_base"* %11) #3, !dbg !2843
  %call9 = call i32* @_ZNSt6vectorIjSaIjEE11_S_relocateEPjS2_S2_RS0_(i32* %6, i32* %9, i32* %10, %"class.std::allocator"* dereferenceable(1) %call8) #3, !dbg !2844
  %12 = bitcast %"class.std::vector"* %this1 to %"struct.std::_Vector_base"*, !dbg !2845
  %13 = bitcast %"class.std::vector"* %this1 to %"struct.std::_Vector_base"*, !dbg !2846
  %_M_impl10 = getelementptr inbounds %"struct.std::_Vector_base", %"struct.std::_Vector_base"* %13, i32 0, i32 0, !dbg !2846
  %14 = bitcast %"struct.std::_Vector_base<unsigned int, std::allocator<unsigned int> >::_Vector_impl"* %_M_impl10 to %"struct.std::_Vector_base<unsigned int, std::allocator<unsigned int> >::_Vector_impl_data"*, !dbg !2847
  %_M_start11 = getelementptr inbounds %"struct.std::_Vector_base<unsigned int, std::allocator<unsigned int> >::_Vector_impl_data", %"struct.std::_Vector_base<unsigned int, std::allocator<unsigned int> >::_Vector_impl_data"* %14, i32 0, i32 0, !dbg !2848
  %15 = load i32*, i32** %_M_start11, align 8, !dbg !2848
  %16 = bitcast %"class.std::vector"* %this1 to %"struct.std::_Vector_base"*, !dbg !2849
  %_M_impl12 = getelementptr inbounds %"struct.std::_Vector_base", %"struct.std::_Vector_base"* %16, i32 0, i32 0, !dbg !2849
  %17 = bitcast %"struct.std::_Vector_base<unsigned int, std::allocator<unsigned int> >::_Vector_impl"* %_M_impl12 to %"struct.std::_Vector_base<unsigned int, std::allocator<unsigned int> >::_Vector_impl_data"*, !dbg !2850
  %_M_end_of_storage = getelementptr inbounds %"struct.std::_Vector_base<unsigned int, std::allocator<unsigned int> >::_Vector_impl_data", %"struct.std::_Vector_base<unsigned int, std::allocator<unsigned int> >::_Vector_impl_data"* %17, i32 0, i32 2, !dbg !2851
  %18 = load i32*, i32** %_M_end_of_storage, align 8, !dbg !2851
  %19 = bitcast %"class.std::vector"* %this1 to %"struct.std::_Vector_base"*, !dbg !2852
  %_M_impl13 = getelementptr inbounds %"struct.std::_Vector_base", %"struct.std::_Vector_base"* %19, i32 0, i32 0, !dbg !2852
  %20 = bitcast %"struct.std::_Vector_base<unsigned int, std::allocator<unsigned int> >::_Vector_impl"* %_M_impl13 to %"struct.std::_Vector_base<unsigned int, std::allocator<unsigned int> >::_Vector_impl_data"*, !dbg !2853
  %_M_start14 = getelementptr inbounds %"struct.std::_Vector_base<unsigned int, std::allocator<unsigned int> >::_Vector_impl_data", %"struct.std::_Vector_base<unsigned int, std::allocator<unsigned int> >::_Vector_impl_data"* %20, i32 0, i32 0, !dbg !2854
  %21 = load i32*, i32** %_M_start14, align 8, !dbg !2854
  %sub.ptr.lhs.cast = ptrtoint i32* %18 to i64, !dbg !2855
  %sub.ptr.rhs.cast = ptrtoint i32* %21 to i64, !dbg !2855
  %sub.ptr.sub = sub i64 %sub.ptr.lhs.cast, %sub.ptr.rhs.cast, !dbg !2855
  %sub.ptr.div = sdiv exact i64 %sub.ptr.sub, 4, !dbg !2855
  call void @_ZNSt12_Vector_baseIjSaIjEE13_M_deallocateEPjm(%"struct.std::_Vector_base"* %12, i32* %15, i64 %sub.ptr.div), !dbg !2845
  %22 = load i32*, i32** %__tmp, align 8, !dbg !2856
  %23 = bitcast %"class.std::vector"* %this1 to %"struct.std::_Vector_base"*, !dbg !2857
  %_M_impl15 = getelementptr inbounds %"struct.std::_Vector_base", %"struct.std::_Vector_base"* %23, i32 0, i32 0, !dbg !2857
  %24 = bitcast %"struct.std::_Vector_base<unsigned int, std::allocator<unsigned int> >::_Vector_impl"* %_M_impl15 to %"struct.std::_Vector_base<unsigned int, std::allocator<unsigned int> >::_Vector_impl_data"*, !dbg !2858
  %_M_start16 = getelementptr inbounds %"struct.std::_Vector_base<unsigned int, std::allocator<unsigned int> >::_Vector_impl_data", %"struct.std::_Vector_base<unsigned int, std::allocator<unsigned int> >::_Vector_impl_data"* %24, i32 0, i32 0, !dbg !2859
  store i32* %22, i32** %_M_start16, align 8, !dbg !2860
  %25 = load i32*, i32** %__tmp, align 8, !dbg !2861
  %26 = load i64, i64* %__old_size, align 8, !dbg !2862
  %add.ptr = getelementptr inbounds i32, i32* %25, i64 %26, !dbg !2863
  %27 = bitcast %"class.std::vector"* %this1 to %"struct.std::_Vector_base"*, !dbg !2864
  %_M_impl17 = getelementptr inbounds %"struct.std::_Vector_base", %"struct.std::_Vector_base"* %27, i32 0, i32 0, !dbg !2864
  %28 = bitcast %"struct.std::_Vector_base<unsigned int, std::allocator<unsigned int> >::_Vector_impl"* %_M_impl17 to %"struct.std::_Vector_base<unsigned int, std::allocator<unsigned int> >::_Vector_impl_data"*, !dbg !2865
  %_M_finish18 = getelementptr inbounds %"struct.std::_Vector_base<unsigned int, std::allocator<unsigned int> >::_Vector_impl_data", %"struct.std::_Vector_base<unsigned int, std::allocator<unsigned int> >::_Vector_impl_data"* %28, i32 0, i32 1, !dbg !2866
  store i32* %add.ptr, i32** %_M_finish18, align 8, !dbg !2867
  %29 = bitcast %"class.std::vector"* %this1 to %"struct.std::_Vector_base"*, !dbg !2868
  %_M_impl19 = getelementptr inbounds %"struct.std::_Vector_base", %"struct.std::_Vector_base"* %29, i32 0, i32 0, !dbg !2868
  %30 = bitcast %"struct.std::_Vector_base<unsigned int, std::allocator<unsigned int> >::_Vector_impl"* %_M_impl19 to %"struct.std::_Vector_base<unsigned int, std::allocator<unsigned int> >::_Vector_impl_data"*, !dbg !2869
  %_M_start20 = getelementptr inbounds %"struct.std::_Vector_base<unsigned int, std::allocator<unsigned int> >::_Vector_impl_data", %"struct.std::_Vector_base<unsigned int, std::allocator<unsigned int> >::_Vector_impl_data"* %30, i32 0, i32 0, !dbg !2870
  %31 = load i32*, i32** %_M_start20, align 8, !dbg !2870
  %32 = load i64, i64* %__n.addr, align 8, !dbg !2871
  %add.ptr21 = getelementptr inbounds i32, i32* %31, i64 %32, !dbg !2872
  %33 = bitcast %"class.std::vector"* %this1 to %"struct.std::_Vector_base"*, !dbg !2873
  %_M_impl22 = getelementptr inbounds %"struct.std::_Vector_base", %"struct.std::_Vector_base"* %33, i32 0, i32 0, !dbg !2873
  %34 = bitcast %"struct.std::_Vector_base<unsigned int, std::allocator<unsigned int> >::_Vector_impl"* %_M_impl22 to %"struct.std::_Vector_base<unsigned int, std::allocator<unsigned int> >::_Vector_impl_data"*, !dbg !2874
  %_M_end_of_storage23 = getelementptr inbounds %"struct.std::_Vector_base<unsigned int, std::allocator<unsigned int> >::_Vector_impl_data", %"struct.std::_Vector_base<unsigned int, std::allocator<unsigned int> >::_Vector_impl_data"* %34, i32 0, i32 2, !dbg !2875
  store i32* %add.ptr21, i32** %_M_end_of_storage23, align 8, !dbg !2876
  br label %if.end24, !dbg !2877

if.end24:                                         ; preds = %if.then4, %if.end
  ret void, !dbg !2878
}

declare dso_local i32 @__gxx_personality_v0(...)

; Function Attrs: noinline uwtable
define linkonce_odr dso_local void @_ZNSt6vectorIjSaIjEE9push_backERKj(%"class.std::vector"* %this, i32* dereferenceable(4) %__x) #0 comdat align 2 !dbg !2879 {
entry:
  %this.addr = alloca %"class.std::vector"*, align 8
  %__x.addr = alloca i32*, align 8
  %agg.tmp = alloca %"class.__gnu_cxx::__normal_iterator", align 8
  store %"class.std::vector"* %this, %"class.std::vector"** %this.addr, align 8
  call void @llvm.dbg.declare(metadata %"class.std::vector"** %this.addr, metadata !2880, metadata !DIExpression()), !dbg !2881
  store i32* %__x, i32** %__x.addr, align 8
  call void @llvm.dbg.declare(metadata i32** %__x.addr, metadata !2882, metadata !DIExpression()), !dbg !2883
  %this1 = load %"class.std::vector"*, %"class.std::vector"** %this.addr, align 8
  %0 = bitcast %"class.std::vector"* %this1 to %"struct.std::_Vector_base"*, !dbg !2884
  %_M_impl = getelementptr inbounds %"struct.std::_Vector_base", %"struct.std::_Vector_base"* %0, i32 0, i32 0, !dbg !2884
  %1 = bitcast %"struct.std::_Vector_base<unsigned int, std::allocator<unsigned int> >::_Vector_impl"* %_M_impl to %"struct.std::_Vector_base<unsigned int, std::allocator<unsigned int> >::_Vector_impl_data"*, !dbg !2886
  %_M_finish = getelementptr inbounds %"struct.std::_Vector_base<unsigned int, std::allocator<unsigned int> >::_Vector_impl_data", %"struct.std::_Vector_base<unsigned int, std::allocator<unsigned int> >::_Vector_impl_data"* %1, i32 0, i32 1, !dbg !2887
  %2 = load i32*, i32** %_M_finish, align 8, !dbg !2887
  %3 = bitcast %"class.std::vector"* %this1 to %"struct.std::_Vector_base"*, !dbg !2888
  %_M_impl2 = getelementptr inbounds %"struct.std::_Vector_base", %"struct.std::_Vector_base"* %3, i32 0, i32 0, !dbg !2888
  %4 = bitcast %"struct.std::_Vector_base<unsigned int, std::allocator<unsigned int> >::_Vector_impl"* %_M_impl2 to %"struct.std::_Vector_base<unsigned int, std::allocator<unsigned int> >::_Vector_impl_data"*, !dbg !2889
  %_M_end_of_storage = getelementptr inbounds %"struct.std::_Vector_base<unsigned int, std::allocator<unsigned int> >::_Vector_impl_data", %"struct.std::_Vector_base<unsigned int, std::allocator<unsigned int> >::_Vector_impl_data"* %4, i32 0, i32 2, !dbg !2890
  %5 = load i32*, i32** %_M_end_of_storage, align 8, !dbg !2890
  %cmp = icmp ne i32* %2, %5, !dbg !2891
  br i1 %cmp, label %if.then, label %if.else, !dbg !2892

if.then:                                          ; preds = %entry
  %6 = bitcast %"class.std::vector"* %this1 to %"struct.std::_Vector_base"*, !dbg !2893
  %_M_impl3 = getelementptr inbounds %"struct.std::_Vector_base", %"struct.std::_Vector_base"* %6, i32 0, i32 0, !dbg !2893
  %7 = bitcast %"struct.std::_Vector_base<unsigned int, std::allocator<unsigned int> >::_Vector_impl"* %_M_impl3 to %"class.std::allocator"*, !dbg !2895
  %8 = bitcast %"class.std::vector"* %this1 to %"struct.std::_Vector_base"*, !dbg !2896
  %_M_impl4 = getelementptr inbounds %"struct.std::_Vector_base", %"struct.std::_Vector_base"* %8, i32 0, i32 0, !dbg !2896
  %9 = bitcast %"struct.std::_Vector_base<unsigned int, std::allocator<unsigned int> >::_Vector_impl"* %_M_impl4 to %"struct.std::_Vector_base<unsigned int, std::allocator<unsigned int> >::_Vector_impl_data"*, !dbg !2897
  %_M_finish5 = getelementptr inbounds %"struct.std::_Vector_base<unsigned int, std::allocator<unsigned int> >::_Vector_impl_data", %"struct.std::_Vector_base<unsigned int, std::allocator<unsigned int> >::_Vector_impl_data"* %9, i32 0, i32 1, !dbg !2898
  %10 = load i32*, i32** %_M_finish5, align 8, !dbg !2898
  %11 = load i32*, i32** %__x.addr, align 8, !dbg !2899
  call void @_ZNSt16allocator_traitsISaIjEE9constructIjJRKjEEEvRS0_PT_DpOT0_(%"class.std::allocator"* dereferenceable(1) %7, i32* %10, i32* dereferenceable(4) %11) #3, !dbg !2900
  %12 = bitcast %"class.std::vector"* %this1 to %"struct.std::_Vector_base"*, !dbg !2901
  %_M_impl6 = getelementptr inbounds %"struct.std::_Vector_base", %"struct.std::_Vector_base"* %12, i32 0, i32 0, !dbg !2901
  %13 = bitcast %"struct.std::_Vector_base<unsigned int, std::allocator<unsigned int> >::_Vector_impl"* %_M_impl6 to %"struct.std::_Vector_base<unsigned int, std::allocator<unsigned int> >::_Vector_impl_data"*, !dbg !2902
  %_M_finish7 = getelementptr inbounds %"struct.std::_Vector_base<unsigned int, std::allocator<unsigned int> >::_Vector_impl_data", %"struct.std::_Vector_base<unsigned int, std::allocator<unsigned int> >::_Vector_impl_data"* %13, i32 0, i32 1, !dbg !2903
  %14 = load i32*, i32** %_M_finish7, align 8, !dbg !2904
  %incdec.ptr = getelementptr inbounds i32, i32* %14, i32 1, !dbg !2904
  store i32* %incdec.ptr, i32** %_M_finish7, align 8, !dbg !2904
  br label %if.end, !dbg !2905

if.else:                                          ; preds = %entry
  %call = call i32* @_ZNSt6vectorIjSaIjEE3endEv(%"class.std::vector"* %this1) #3, !dbg !2906
  %coerce.dive = getelementptr inbounds %"class.__gnu_cxx::__normal_iterator", %"class.__gnu_cxx::__normal_iterator"* %agg.tmp, i32 0, i32 0, !dbg !2906
  store i32* %call, i32** %coerce.dive, align 8, !dbg !2906
  %15 = load i32*, i32** %__x.addr, align 8, !dbg !2907
  %coerce.dive8 = getelementptr inbounds %"class.__gnu_cxx::__normal_iterator", %"class.__gnu_cxx::__normal_iterator"* %agg.tmp, i32 0, i32 0, !dbg !2908
  %16 = load i32*, i32** %coerce.dive8, align 8, !dbg !2908
  call void @_ZNSt6vectorIjSaIjEE17_M_realloc_insertIJRKjEEEvN9__gnu_cxx17__normal_iteratorIPjS1_EEDpOT_(%"class.std::vector"* %this1, i32* %16, i32* dereferenceable(4) %15), !dbg !2908
  br label %if.end

if.end:                                           ; preds = %if.else, %if.then
  ret void, !dbg !2909
}

; Function Attrs: noinline nounwind uwtable
define linkonce_odr dso_local void @_ZNSt6vectorIjSaIjEE4swapERS1_(%"class.std::vector"* %this, %"class.std::vector"* dereferenceable(24) %__x) #5 comdat align 2 personality i8* bitcast (i32 (...)* @__gxx_personality_v0 to i8*) !dbg !2910 {
entry:
  %this.addr = alloca %"class.std::vector"*, align 8
  %__x.addr = alloca %"class.std::vector"*, align 8
  store %"class.std::vector"* %this, %"class.std::vector"** %this.addr, align 8
  call void @llvm.dbg.declare(metadata %"class.std::vector"** %this.addr, metadata !2911, metadata !DIExpression()), !dbg !2912
  store %"class.std::vector"* %__x, %"class.std::vector"** %__x.addr, align 8
  call void @llvm.dbg.declare(metadata %"class.std::vector"** %__x.addr, metadata !2913, metadata !DIExpression()), !dbg !2914
  %this1 = load %"class.std::vector"*, %"class.std::vector"** %this.addr, align 8
  %0 = bitcast %"class.std::vector"* %this1 to %"struct.std::_Vector_base"*, !dbg !2915
  %_M_impl = getelementptr inbounds %"struct.std::_Vector_base", %"struct.std::_Vector_base"* %0, i32 0, i32 0, !dbg !2915
  %1 = bitcast %"struct.std::_Vector_base<unsigned int, std::allocator<unsigned int> >::_Vector_impl"* %_M_impl to %"struct.std::_Vector_base<unsigned int, std::allocator<unsigned int> >::_Vector_impl_data"*, !dbg !2916
  %2 = load %"class.std::vector"*, %"class.std::vector"** %__x.addr, align 8, !dbg !2917
  %3 = bitcast %"class.std::vector"* %2 to %"struct.std::_Vector_base"*, !dbg !2917
  %_M_impl2 = getelementptr inbounds %"struct.std::_Vector_base", %"struct.std::_Vector_base"* %3, i32 0, i32 0, !dbg !2918
  %4 = bitcast %"struct.std::_Vector_base<unsigned int, std::allocator<unsigned int> >::_Vector_impl"* %_M_impl2 to %"struct.std::_Vector_base<unsigned int, std::allocator<unsigned int> >::_Vector_impl_data"*, !dbg !2917
  call void @_ZNSt12_Vector_baseIjSaIjEE17_Vector_impl_data12_M_swap_dataERS2_(%"struct.std::_Vector_base<unsigned int, std::allocator<unsigned int> >::_Vector_impl_data"* %1, %"struct.std::_Vector_base<unsigned int, std::allocator<unsigned int> >::_Vector_impl_data"* dereferenceable(24) %4) #3, !dbg !2919
  %5 = bitcast %"class.std::vector"* %this1 to %"struct.std::_Vector_base"*, !dbg !2920
  %call = call dereferenceable(1) %"class.std::allocator"* @_ZNSt12_Vector_baseIjSaIjEE19_M_get_Tp_allocatorEv(%"struct.std::_Vector_base"* %5) #3, !dbg !2920
  %6 = load %"class.std::vector"*, %"class.std::vector"** %__x.addr, align 8, !dbg !2921
  %7 = bitcast %"class.std::vector"* %6 to %"struct.std::_Vector_base"*, !dbg !2921
  %call3 = call dereferenceable(1) %"class.std::allocator"* @_ZNSt12_Vector_baseIjSaIjEE19_M_get_Tp_allocatorEv(%"struct.std::_Vector_base"* %7) #3, !dbg !2922
  invoke void @_ZN9__gnu_cxx14__alloc_traitsISaIjEjE10_S_on_swapERS1_S3_(%"class.std::allocator"* dereferenceable(1) %call, %"class.std::allocator"* dereferenceable(1) %call3)
          to label %invoke.cont unwind label %terminate.lpad, !dbg !2923

invoke.cont:                                      ; preds = %entry
  ret void, !dbg !2924

terminate.lpad:                                   ; preds = %entry
  %8 = landingpad { i8*, i32 }
          catch i8* null, !dbg !2923
  %9 = extractvalue { i8*, i32 } %8, 0, !dbg !2923
  call void @__clang_call_terminate(i8* %9) #15, !dbg !2923
  unreachable, !dbg !2923
}

; Function Attrs: noinline nounwind uwtable
define linkonce_odr dso_local void @_ZNSt6vectorIjSaIjEED2Ev(%"class.std::vector"* %this) unnamed_addr #5 comdat align 2 personality i8* bitcast (i32 (...)* @__gxx_personality_v0 to i8*) !dbg !2925 {
entry:
  %this.addr = alloca %"class.std::vector"*, align 8
  %exn.slot = alloca i8*
  %ehselector.slot = alloca i32
  store %"class.std::vector"* %this, %"class.std::vector"** %this.addr, align 8
  call void @llvm.dbg.declare(metadata %"class.std::vector"** %this.addr, metadata !2926, metadata !DIExpression()), !dbg !2927
  %this1 = load %"class.std::vector"*, %"class.std::vector"** %this.addr, align 8
  %0 = bitcast %"class.std::vector"* %this1 to %"struct.std::_Vector_base"*, !dbg !2928
  %_M_impl = getelementptr inbounds %"struct.std::_Vector_base", %"struct.std::_Vector_base"* %0, i32 0, i32 0, !dbg !2928
  %1 = bitcast %"struct.std::_Vector_base<unsigned int, std::allocator<unsigned int> >::_Vector_impl"* %_M_impl to %"struct.std::_Vector_base<unsigned int, std::allocator<unsigned int> >::_Vector_impl_data"*, !dbg !2930
  %_M_start = getelementptr inbounds %"struct.std::_Vector_base<unsigned int, std::allocator<unsigned int> >::_Vector_impl_data", %"struct.std::_Vector_base<unsigned int, std::allocator<unsigned int> >::_Vector_impl_data"* %1, i32 0, i32 0, !dbg !2931
  %2 = load i32*, i32** %_M_start, align 8, !dbg !2931
  %3 = bitcast %"class.std::vector"* %this1 to %"struct.std::_Vector_base"*, !dbg !2932
  %_M_impl2 = getelementptr inbounds %"struct.std::_Vector_base", %"struct.std::_Vector_base"* %3, i32 0, i32 0, !dbg !2932
  %4 = bitcast %"struct.std::_Vector_base<unsigned int, std::allocator<unsigned int> >::_Vector_impl"* %_M_impl2 to %"struct.std::_Vector_base<unsigned int, std::allocator<unsigned int> >::_Vector_impl_data"*, !dbg !2933
  %_M_finish = getelementptr inbounds %"struct.std::_Vector_base<unsigned int, std::allocator<unsigned int> >::_Vector_impl_data", %"struct.std::_Vector_base<unsigned int, std::allocator<unsigned int> >::_Vector_impl_data"* %4, i32 0, i32 1, !dbg !2934
  %5 = load i32*, i32** %_M_finish, align 8, !dbg !2934
  %6 = bitcast %"class.std::vector"* %this1 to %"struct.std::_Vector_base"*, !dbg !2935
  %call = call dereferenceable(1) %"class.std::allocator"* @_ZNSt12_Vector_baseIjSaIjEE19_M_get_Tp_allocatorEv(%"struct.std::_Vector_base"* %6) #3, !dbg !2935
  invoke void @_ZSt8_DestroyIPjjEvT_S1_RSaIT0_E(i32* %2, i32* %5, %"class.std::allocator"* dereferenceable(1) %call)
          to label %invoke.cont unwind label %lpad, !dbg !2936

invoke.cont:                                      ; preds = %entry
  %7 = bitcast %"class.std::vector"* %this1 to %"struct.std::_Vector_base"*, !dbg !2937
  call void @_ZNSt12_Vector_baseIjSaIjEED2Ev(%"struct.std::_Vector_base"* %7) #3, !dbg !2937
  ret void, !dbg !2938

lpad:                                             ; preds = %entry
  %8 = landingpad { i8*, i32 }
          catch i8* null, !dbg !2937
  %9 = extractvalue { i8*, i32 } %8, 0, !dbg !2937
  store i8* %9, i8** %exn.slot, align 8, !dbg !2937
  %10 = extractvalue { i8*, i32 } %8, 1, !dbg !2937
  store i32 %10, i32* %ehselector.slot, align 4, !dbg !2937
  %11 = bitcast %"class.std::vector"* %this1 to %"struct.std::_Vector_base"*, !dbg !2937
  call void @_ZNSt12_Vector_baseIjSaIjEED2Ev(%"struct.std::_Vector_base"* %11) #3, !dbg !2937
  br label %terminate.handler, !dbg !2937

terminate.handler:                                ; preds = %lpad
  %exn = load i8*, i8** %exn.slot, align 8, !dbg !2937
  call void @__clang_call_terminate(i8* %exn) #15, !dbg !2937
  unreachable, !dbg !2937
}

; Function Attrs: noinline uwtable
define dso_local void @_ZN6dealii25CompressedSparsityPatternC2Ev(%"class.dealii::CompressedSparsityPattern"* %this) unnamed_addr #0 align 2 !dbg !2939 {
entry:
  %this.addr = alloca %"class.dealii::CompressedSparsityPattern"*, align 8
  store %"class.dealii::CompressedSparsityPattern"* %this, %"class.dealii::CompressedSparsityPattern"** %this.addr, align 8
  call void @llvm.dbg.declare(metadata %"class.dealii::CompressedSparsityPattern"** %this.addr, metadata !2940, metadata !DIExpression()), !dbg !2942
  %this1 = load %"class.dealii::CompressedSparsityPattern"*, %"class.dealii::CompressedSparsityPattern"** %this.addr, align 8
  %0 = bitcast %"class.dealii::CompressedSparsityPattern"* %this1 to %"class.dealii::Subscriptor"*, !dbg !2943
  call void @_ZN6dealii11SubscriptorC2Ev(%"class.dealii::Subscriptor"* %0), !dbg !2944
  %1 = bitcast %"class.dealii::CompressedSparsityPattern"* %this1 to i32 (...)***, !dbg !2943
  store i32 (...)** bitcast (i8** getelementptr inbounds ({ [4 x i8*] }, { [4 x i8*] }* @_ZTVN6dealii25CompressedSparsityPatternE, i32 0, inrange i32 0, i32 2) to i32 (...)**), i32 (...)*** %1, align 8, !dbg !2943
  %rows = getelementptr inbounds %"class.dealii::CompressedSparsityPattern", %"class.dealii::CompressedSparsityPattern"* %this1, i32 0, i32 1, !dbg !2945
  store i32 0, i32* %rows, align 8, !dbg !2945
  %cols = getelementptr inbounds %"class.dealii::CompressedSparsityPattern", %"class.dealii::CompressedSparsityPattern"* %this1, i32 0, i32 2, !dbg !2946
  store i32 0, i32* %cols, align 4, !dbg !2946
  %lines = getelementptr inbounds %"class.dealii::CompressedSparsityPattern", %"class.dealii::CompressedSparsityPattern"* %this1, i32 0, i32 3, !dbg !2944
  call void @_ZNSt6vectorIN6dealii25CompressedSparsityPattern4LineESaIS2_EEC2Ev(%"class.std::vector.3"* %lines) #3, !dbg !2944
  ret void, !dbg !2947
}

declare dso_local void @_ZN6dealii11SubscriptorC2Ev(%"class.dealii::Subscriptor"*) unnamed_addr #1

; Function Attrs: noinline nounwind uwtable
define linkonce_odr dso_local void @_ZNSt6vectorIN6dealii25CompressedSparsityPattern4LineESaIS2_EEC2Ev(%"class.std::vector.3"* %this) unnamed_addr #5 comdat align 2 !dbg !2948 {
entry:
  %this.addr = alloca %"class.std::vector.3"*, align 8
  store %"class.std::vector.3"* %this, %"class.std::vector.3"** %this.addr, align 8
  call void @llvm.dbg.declare(metadata %"class.std::vector.3"** %this.addr, metadata !2949, metadata !DIExpression()), !dbg !2951
  %this1 = load %"class.std::vector.3"*, %"class.std::vector.3"** %this.addr, align 8
  %0 = bitcast %"class.std::vector.3"* %this1 to %"struct.std::_Vector_base.4"*, !dbg !2952
  call void @_ZNSt12_Vector_baseIN6dealii25CompressedSparsityPattern4LineESaIS2_EEC2Ev(%"struct.std::_Vector_base.4"* %0) #3, !dbg !2953
  ret void, !dbg !2952
}

; Function Attrs: noinline uwtable
define dso_local void @_ZN6dealii25CompressedSparsityPatternC2ERKS0_(%"class.dealii::CompressedSparsityPattern"* %this, %"class.dealii::CompressedSparsityPattern"* dereferenceable(104) %s) unnamed_addr #0 align 2 !dbg !2954 {
entry:
  %this.addr = alloca %"class.dealii::CompressedSparsityPattern"*, align 8
  %s.addr = alloca %"class.dealii::CompressedSparsityPattern"*, align 8
  store %"class.dealii::CompressedSparsityPattern"* %this, %"class.dealii::CompressedSparsityPattern"** %this.addr, align 8
  call void @llvm.dbg.declare(metadata %"class.dealii::CompressedSparsityPattern"** %this.addr, metadata !2955, metadata !DIExpression()), !dbg !2956
  store %"class.dealii::CompressedSparsityPattern"* %s, %"class.dealii::CompressedSparsityPattern"** %s.addr, align 8
  call void @llvm.dbg.declare(metadata %"class.dealii::CompressedSparsityPattern"** %s.addr, metadata !2957, metadata !DIExpression()), !dbg !2958
  %this1 = load %"class.dealii::CompressedSparsityPattern"*, %"class.dealii::CompressedSparsityPattern"** %this.addr, align 8
  %0 = bitcast %"class.dealii::CompressedSparsityPattern"* %this1 to %"class.dealii::Subscriptor"*, !dbg !2959
  call void @_ZN6dealii11SubscriptorC2Ev(%"class.dealii::Subscriptor"* %0), !dbg !2960
  %1 = bitcast %"class.dealii::CompressedSparsityPattern"* %this1 to i32 (...)***, !dbg !2959
  store i32 (...)** bitcast (i8** getelementptr inbounds ({ [4 x i8*] }, { [4 x i8*] }* @_ZTVN6dealii25CompressedSparsityPatternE, i32 0, inrange i32 0, i32 2) to i32 (...)**), i32 (...)*** %1, align 8, !dbg !2959
  %rows = getelementptr inbounds %"class.dealii::CompressedSparsityPattern", %"class.dealii::CompressedSparsityPattern"* %this1, i32 0, i32 1, !dbg !2961
  store i32 0, i32* %rows, align 8, !dbg !2961
  %cols = getelementptr inbounds %"class.dealii::CompressedSparsityPattern", %"class.dealii::CompressedSparsityPattern"* %this1, i32 0, i32 2, !dbg !2962
  store i32 0, i32* %cols, align 4, !dbg !2962
  %lines = getelementptr inbounds %"class.dealii::CompressedSparsityPattern", %"class.dealii::CompressedSparsityPattern"* %this1, i32 0, i32 3, !dbg !2963
  call void @_ZNSt6vectorIN6dealii25CompressedSparsityPattern4LineESaIS2_EEC2Ev(%"class.std::vector.3"* %lines) #3, !dbg !2963
  ret void, !dbg !2964
}

; Function Attrs: noinline uwtable
define dso_local void @_ZN6dealii25CompressedSparsityPatternC2Ejj(%"class.dealii::CompressedSparsityPattern"* %this, i32 %m, i32 %n) unnamed_addr #0 align 2 personality i8* bitcast (i32 (...)* @__gxx_personality_v0 to i8*) !dbg !2965 {
entry:
  %this.addr = alloca %"class.dealii::CompressedSparsityPattern"*, align 8
  %m.addr = alloca i32, align 4
  %n.addr = alloca i32, align 4
  %exn.slot = alloca i8*
  %ehselector.slot = alloca i32
  store %"class.dealii::CompressedSparsityPattern"* %this, %"class.dealii::CompressedSparsityPattern"** %this.addr, align 8
  call void @llvm.dbg.declare(metadata %"class.dealii::CompressedSparsityPattern"** %this.addr, metadata !2966, metadata !DIExpression()), !dbg !2967
  store i32 %m, i32* %m.addr, align 4
  call void @llvm.dbg.declare(metadata i32* %m.addr, metadata !2968, metadata !DIExpression()), !dbg !2969
  store i32 %n, i32* %n.addr, align 4
  call void @llvm.dbg.declare(metadata i32* %n.addr, metadata !2970, metadata !DIExpression()), !dbg !2971
  %this1 = load %"class.dealii::CompressedSparsityPattern"*, %"class.dealii::CompressedSparsityPattern"** %this.addr, align 8
  %0 = bitcast %"class.dealii::CompressedSparsityPattern"* %this1 to %"class.dealii::Subscriptor"*, !dbg !2972
  call void @_ZN6dealii11SubscriptorC2Ev(%"class.dealii::Subscriptor"* %0), !dbg !2973
  %1 = bitcast %"class.dealii::CompressedSparsityPattern"* %this1 to i32 (...)***, !dbg !2972
  store i32 (...)** bitcast (i8** getelementptr inbounds ({ [4 x i8*] }, { [4 x i8*] }* @_ZTVN6dealii25CompressedSparsityPatternE, i32 0, inrange i32 0, i32 2) to i32 (...)**), i32 (...)*** %1, align 8, !dbg !2972
  %rows = getelementptr inbounds %"class.dealii::CompressedSparsityPattern", %"class.dealii::CompressedSparsityPattern"* %this1, i32 0, i32 1, !dbg !2974
  store i32 0, i32* %rows, align 8, !dbg !2974
  %cols = getelementptr inbounds %"class.dealii::CompressedSparsityPattern", %"class.dealii::CompressedSparsityPattern"* %this1, i32 0, i32 2, !dbg !2975
  store i32 0, i32* %cols, align 4, !dbg !2975
  %lines = getelementptr inbounds %"class.dealii::CompressedSparsityPattern", %"class.dealii::CompressedSparsityPattern"* %this1, i32 0, i32 3, !dbg !2973
  call void @_ZNSt6vectorIN6dealii25CompressedSparsityPattern4LineESaIS2_EEC2Ev(%"class.std::vector.3"* %lines) #3, !dbg !2973
  %2 = load i32, i32* %m.addr, align 4, !dbg !2976
  %3 = load i32, i32* %n.addr, align 4, !dbg !2978
  invoke void @_ZN6dealii25CompressedSparsityPattern6reinitEjj(%"class.dealii::CompressedSparsityPattern"* %this1, i32 %2, i32 %3)
          to label %invoke.cont unwind label %lpad, !dbg !2979

invoke.cont:                                      ; preds = %entry
  ret void, !dbg !2980

lpad:                                             ; preds = %entry
  %4 = landingpad { i8*, i32 }
          cleanup, !dbg !2981
  %5 = extractvalue { i8*, i32 } %4, 0, !dbg !2981
  store i8* %5, i8** %exn.slot, align 8, !dbg !2981
  %6 = extractvalue { i8*, i32 } %4, 1, !dbg !2981
  store i32 %6, i32* %ehselector.slot, align 4, !dbg !2981
  call void @_ZNSt6vectorIN6dealii25CompressedSparsityPattern4LineESaIS2_EED2Ev(%"class.std::vector.3"* %lines) #3, !dbg !2981
  %7 = bitcast %"class.dealii::CompressedSparsityPattern"* %this1 to %"class.dealii::Subscriptor"*, !dbg !2981
  call void @_ZN6dealii11SubscriptorD2Ev(%"class.dealii::Subscriptor"* %7) #3, !dbg !2981
  br label %eh.resume, !dbg !2981

eh.resume:                                        ; preds = %lpad
  %exn = load i8*, i8** %exn.slot, align 8, !dbg !2981
  %sel = load i32, i32* %ehselector.slot, align 4, !dbg !2981
  %lpad.val = insertvalue { i8*, i32 } undef, i8* %exn, 0, !dbg !2981
  %lpad.val2 = insertvalue { i8*, i32 } %lpad.val, i32 %sel, 1, !dbg !2981
  resume { i8*, i32 } %lpad.val2, !dbg !2981
}

; Function Attrs: noinline uwtable
define dso_local void @_ZN6dealii25CompressedSparsityPattern6reinitEjj(%"class.dealii::CompressedSparsityPattern"* %this, i32 %m, i32 %n) #0 align 2 personality i8* bitcast (i32 (...)* @__gxx_personality_v0 to i8*) !dbg !2982 {
entry:
  %this.addr = alloca %"class.dealii::CompressedSparsityPattern"*, align 8
  %m.addr = alloca i32, align 4
  %n.addr = alloca i32, align 4
  %new_lines = alloca %"class.std::vector.3", align 8
  %ref.tmp = alloca %"class.std::allocator.5", align 1
  %exn.slot = alloca i8*
  %ehselector.slot = alloca i32
  store %"class.dealii::CompressedSparsityPattern"* %this, %"class.dealii::CompressedSparsityPattern"** %this.addr, align 8
  call void @llvm.dbg.declare(metadata %"class.dealii::CompressedSparsityPattern"** %this.addr, metadata !2983, metadata !DIExpression()), !dbg !2984
  store i32 %m, i32* %m.addr, align 4
  call void @llvm.dbg.declare(metadata i32* %m.addr, metadata !2985, metadata !DIExpression()), !dbg !2986
  store i32 %n, i32* %n.addr, align 4
  call void @llvm.dbg.declare(metadata i32* %n.addr, metadata !2987, metadata !DIExpression()), !dbg !2988
  %this1 = load %"class.dealii::CompressedSparsityPattern"*, %"class.dealii::CompressedSparsityPattern"** %this.addr, align 8
  %0 = load i32, i32* %m.addr, align 4, !dbg !2989
  %rows = getelementptr inbounds %"class.dealii::CompressedSparsityPattern", %"class.dealii::CompressedSparsityPattern"* %this1, i32 0, i32 1, !dbg !2990
  store i32 %0, i32* %rows, align 8, !dbg !2991
  %1 = load i32, i32* %n.addr, align 4, !dbg !2992
  %cols = getelementptr inbounds %"class.dealii::CompressedSparsityPattern", %"class.dealii::CompressedSparsityPattern"* %this1, i32 0, i32 2, !dbg !2993
  store i32 %1, i32* %cols, align 4, !dbg !2994
  call void @llvm.dbg.declare(metadata %"class.std::vector.3"* %new_lines, metadata !2995, metadata !DIExpression()), !dbg !2996
  %rows2 = getelementptr inbounds %"class.dealii::CompressedSparsityPattern", %"class.dealii::CompressedSparsityPattern"* %this1, i32 0, i32 1, !dbg !2997
  %2 = load i32, i32* %rows2, align 8, !dbg !2997
  %conv = zext i32 %2 to i64, !dbg !2997
  call void @_ZNSaIN6dealii25CompressedSparsityPattern4LineEEC2Ev(%"class.std::allocator.5"* %ref.tmp) #3, !dbg !2996
  invoke void @_ZNSt6vectorIN6dealii25CompressedSparsityPattern4LineESaIS2_EEC2EmRKS3_(%"class.std::vector.3"* %new_lines, i64 %conv, %"class.std::allocator.5"* dereferenceable(1) %ref.tmp)
          to label %invoke.cont unwind label %lpad, !dbg !2996

invoke.cont:                                      ; preds = %entry
  call void @_ZNSaIN6dealii25CompressedSparsityPattern4LineEED2Ev(%"class.std::allocator.5"* %ref.tmp) #3, !dbg !2996
  %lines = getelementptr inbounds %"class.dealii::CompressedSparsityPattern", %"class.dealii::CompressedSparsityPattern"* %this1, i32 0, i32 3, !dbg !2998
  call void @_ZNSt6vectorIN6dealii25CompressedSparsityPattern4LineESaIS2_EE4swapERS4_(%"class.std::vector.3"* %lines, %"class.std::vector.3"* dereferenceable(24) %new_lines) #3, !dbg !2999
  call void @_ZNSt6vectorIN6dealii25CompressedSparsityPattern4LineESaIS2_EED2Ev(%"class.std::vector.3"* %new_lines) #3, !dbg !3000
  ret void, !dbg !3000

lpad:                                             ; preds = %entry
  %3 = landingpad { i8*, i32 }
          cleanup, !dbg !3000
  %4 = extractvalue { i8*, i32 } %3, 0, !dbg !3000
  store i8* %4, i8** %exn.slot, align 8, !dbg !3000
  %5 = extractvalue { i8*, i32 } %3, 1, !dbg !3000
  store i32 %5, i32* %ehselector.slot, align 4, !dbg !3000
  call void @_ZNSaIN6dealii25CompressedSparsityPattern4LineEED2Ev(%"class.std::allocator.5"* %ref.tmp) #3, !dbg !2996
  br label %eh.resume, !dbg !2996

eh.resume:                                        ; preds = %lpad
  %exn = load i8*, i8** %exn.slot, align 8, !dbg !2996
  %sel = load i32, i32* %ehselector.slot, align 4, !dbg !2996
  %lpad.val = insertvalue { i8*, i32 } undef, i8* %exn, 0, !dbg !2996
  %lpad.val3 = insertvalue { i8*, i32 } %lpad.val, i32 %sel, 1, !dbg !2996
  resume { i8*, i32 } %lpad.val3, !dbg !2996
}

; Function Attrs: noinline nounwind uwtable
define linkonce_odr dso_local void @_ZNSt6vectorIN6dealii25CompressedSparsityPattern4LineESaIS2_EED2Ev(%"class.std::vector.3"* %this) unnamed_addr #5 comdat align 2 personality i8* bitcast (i32 (...)* @__gxx_personality_v0 to i8*) !dbg !3001 {
entry:
  %this.addr = alloca %"class.std::vector.3"*, align 8
  %exn.slot = alloca i8*
  %ehselector.slot = alloca i32
  store %"class.std::vector.3"* %this, %"class.std::vector.3"** %this.addr, align 8
  call void @llvm.dbg.declare(metadata %"class.std::vector.3"** %this.addr, metadata !3002, metadata !DIExpression()), !dbg !3003
  %this1 = load %"class.std::vector.3"*, %"class.std::vector.3"** %this.addr, align 8
  %0 = bitcast %"class.std::vector.3"* %this1 to %"struct.std::_Vector_base.4"*, !dbg !3004
  %_M_impl = getelementptr inbounds %"struct.std::_Vector_base.4", %"struct.std::_Vector_base.4"* %0, i32 0, i32 0, !dbg !3004
  %1 = bitcast %"struct.std::_Vector_base<dealii::CompressedSparsityPattern::Line, std::allocator<dealii::CompressedSparsityPattern::Line> >::_Vector_impl"* %_M_impl to %"struct.std::_Vector_base<dealii::CompressedSparsityPattern::Line, std::allocator<dealii::CompressedSparsityPattern::Line> >::_Vector_impl_data"*, !dbg !3006
  %_M_start = getelementptr inbounds %"struct.std::_Vector_base<dealii::CompressedSparsityPattern::Line, std::allocator<dealii::CompressedSparsityPattern::Line> >::_Vector_impl_data", %"struct.std::_Vector_base<dealii::CompressedSparsityPattern::Line, std::allocator<dealii::CompressedSparsityPattern::Line> >::_Vector_impl_data"* %1, i32 0, i32 0, !dbg !3007
  %2 = load %"struct.dealii::CompressedSparsityPattern::Line"*, %"struct.dealii::CompressedSparsityPattern::Line"** %_M_start, align 8, !dbg !3007
  %3 = bitcast %"class.std::vector.3"* %this1 to %"struct.std::_Vector_base.4"*, !dbg !3008
  %_M_impl2 = getelementptr inbounds %"struct.std::_Vector_base.4", %"struct.std::_Vector_base.4"* %3, i32 0, i32 0, !dbg !3008
  %4 = bitcast %"struct.std::_Vector_base<dealii::CompressedSparsityPattern::Line, std::allocator<dealii::CompressedSparsityPattern::Line> >::_Vector_impl"* %_M_impl2 to %"struct.std::_Vector_base<dealii::CompressedSparsityPattern::Line, std::allocator<dealii::CompressedSparsityPattern::Line> >::_Vector_impl_data"*, !dbg !3009
  %_M_finish = getelementptr inbounds %"struct.std::_Vector_base<dealii::CompressedSparsityPattern::Line, std::allocator<dealii::CompressedSparsityPattern::Line> >::_Vector_impl_data", %"struct.std::_Vector_base<dealii::CompressedSparsityPattern::Line, std::allocator<dealii::CompressedSparsityPattern::Line> >::_Vector_impl_data"* %4, i32 0, i32 1, !dbg !3010
  %5 = load %"struct.dealii::CompressedSparsityPattern::Line"*, %"struct.dealii::CompressedSparsityPattern::Line"** %_M_finish, align 8, !dbg !3010
  %6 = bitcast %"class.std::vector.3"* %this1 to %"struct.std::_Vector_base.4"*, !dbg !3011
  %call = call dereferenceable(1) %"class.std::allocator.5"* @_ZNSt12_Vector_baseIN6dealii25CompressedSparsityPattern4LineESaIS2_EE19_M_get_Tp_allocatorEv(%"struct.std::_Vector_base.4"* %6) #3, !dbg !3011
  invoke void @_ZSt8_DestroyIPN6dealii25CompressedSparsityPattern4LineES2_EvT_S4_RSaIT0_E(%"struct.dealii::CompressedSparsityPattern::Line"* %2, %"struct.dealii::CompressedSparsityPattern::Line"* %5, %"class.std::allocator.5"* dereferenceable(1) %call)
          to label %invoke.cont unwind label %lpad, !dbg !3012

invoke.cont:                                      ; preds = %entry
  %7 = bitcast %"class.std::vector.3"* %this1 to %"struct.std::_Vector_base.4"*, !dbg !3013
  call void @_ZNSt12_Vector_baseIN6dealii25CompressedSparsityPattern4LineESaIS2_EED2Ev(%"struct.std::_Vector_base.4"* %7) #3, !dbg !3013
  ret void, !dbg !3014

lpad:                                             ; preds = %entry
  %8 = landingpad { i8*, i32 }
          catch i8* null, !dbg !3013
  %9 = extractvalue { i8*, i32 } %8, 0, !dbg !3013
  store i8* %9, i8** %exn.slot, align 8, !dbg !3013
  %10 = extractvalue { i8*, i32 } %8, 1, !dbg !3013
  store i32 %10, i32* %ehselector.slot, align 4, !dbg !3013
  %11 = bitcast %"class.std::vector.3"* %this1 to %"struct.std::_Vector_base.4"*, !dbg !3013
  call void @_ZNSt12_Vector_baseIN6dealii25CompressedSparsityPattern4LineESaIS2_EED2Ev(%"struct.std::_Vector_base.4"* %11) #3, !dbg !3013
  br label %terminate.handler, !dbg !3013

terminate.handler:                                ; preds = %lpad
  %exn = load i8*, i8** %exn.slot, align 8, !dbg !3013
  call void @__clang_call_terminate(i8* %exn) #15, !dbg !3013
  unreachable, !dbg !3013
}

; Function Attrs: nounwind
declare dso_local void @_ZN6dealii11SubscriptorD2Ev(%"class.dealii::Subscriptor"*) unnamed_addr #2

; Function Attrs: noinline uwtable
define dso_local void @_ZN6dealii25CompressedSparsityPatternC2Ej(%"class.dealii::CompressedSparsityPattern"* %this, i32 %n) unnamed_addr #0 align 2 personality i8* bitcast (i32 (...)* @__gxx_personality_v0 to i8*) !dbg !3015 {
entry:
  %this.addr = alloca %"class.dealii::CompressedSparsityPattern"*, align 8
  %n.addr = alloca i32, align 4
  %exn.slot = alloca i8*
  %ehselector.slot = alloca i32
  store %"class.dealii::CompressedSparsityPattern"* %this, %"class.dealii::CompressedSparsityPattern"** %this.addr, align 8
  call void @llvm.dbg.declare(metadata %"class.dealii::CompressedSparsityPattern"** %this.addr, metadata !3016, metadata !DIExpression()), !dbg !3017
  store i32 %n, i32* %n.addr, align 4
  call void @llvm.dbg.declare(metadata i32* %n.addr, metadata !3018, metadata !DIExpression()), !dbg !3019
  %this1 = load %"class.dealii::CompressedSparsityPattern"*, %"class.dealii::CompressedSparsityPattern"** %this.addr, align 8
  %0 = bitcast %"class.dealii::CompressedSparsityPattern"* %this1 to %"class.dealii::Subscriptor"*, !dbg !3020
  call void @_ZN6dealii11SubscriptorC2Ev(%"class.dealii::Subscriptor"* %0), !dbg !3021
  %1 = bitcast %"class.dealii::CompressedSparsityPattern"* %this1 to i32 (...)***, !dbg !3020
  store i32 (...)** bitcast (i8** getelementptr inbounds ({ [4 x i8*] }, { [4 x i8*] }* @_ZTVN6dealii25CompressedSparsityPatternE, i32 0, inrange i32 0, i32 2) to i32 (...)**), i32 (...)*** %1, align 8, !dbg !3020
  %rows = getelementptr inbounds %"class.dealii::CompressedSparsityPattern", %"class.dealii::CompressedSparsityPattern"* %this1, i32 0, i32 1, !dbg !3022
  store i32 0, i32* %rows, align 8, !dbg !3022
  %cols = getelementptr inbounds %"class.dealii::CompressedSparsityPattern", %"class.dealii::CompressedSparsityPattern"* %this1, i32 0, i32 2, !dbg !3023
  store i32 0, i32* %cols, align 4, !dbg !3023
  %lines = getelementptr inbounds %"class.dealii::CompressedSparsityPattern", %"class.dealii::CompressedSparsityPattern"* %this1, i32 0, i32 3, !dbg !3021
  call void @_ZNSt6vectorIN6dealii25CompressedSparsityPattern4LineESaIS2_EEC2Ev(%"class.std::vector.3"* %lines) #3, !dbg !3021
  %2 = load i32, i32* %n.addr, align 4, !dbg !3024
  %3 = load i32, i32* %n.addr, align 4, !dbg !3026
  invoke void @_ZN6dealii25CompressedSparsityPattern6reinitEjj(%"class.dealii::CompressedSparsityPattern"* %this1, i32 %2, i32 %3)
          to label %invoke.cont unwind label %lpad, !dbg !3027

invoke.cont:                                      ; preds = %entry
  ret void, !dbg !3028

lpad:                                             ; preds = %entry
  %4 = landingpad { i8*, i32 }
          cleanup, !dbg !3029
  %5 = extractvalue { i8*, i32 } %4, 0, !dbg !3029
  store i8* %5, i8** %exn.slot, align 8, !dbg !3029
  %6 = extractvalue { i8*, i32 } %4, 1, !dbg !3029
  store i32 %6, i32* %ehselector.slot, align 4, !dbg !3029
  call void @_ZNSt6vectorIN6dealii25CompressedSparsityPattern4LineESaIS2_EED2Ev(%"class.std::vector.3"* %lines) #3, !dbg !3029
  %7 = bitcast %"class.dealii::CompressedSparsityPattern"* %this1 to %"class.dealii::Subscriptor"*, !dbg !3029
  call void @_ZN6dealii11SubscriptorD2Ev(%"class.dealii::Subscriptor"* %7) #3, !dbg !3029
  br label %eh.resume, !dbg !3029

eh.resume:                                        ; preds = %lpad
  %exn = load i8*, i8** %exn.slot, align 8, !dbg !3029
  %sel = load i32, i32* %ehselector.slot, align 4, !dbg !3029
  %lpad.val = insertvalue { i8*, i32 } undef, i8* %exn, 0, !dbg !3029
  %lpad.val2 = insertvalue { i8*, i32 } %lpad.val, i32 %sel, 1, !dbg !3029
  resume { i8*, i32 } %lpad.val2, !dbg !3029
}

; Function Attrs: noinline nounwind uwtable
define dso_local dereferenceable(104) %"class.dealii::CompressedSparsityPattern"* @_ZN6dealii25CompressedSparsityPatternaSERKS0_(%"class.dealii::CompressedSparsityPattern"* %this, %"class.dealii::CompressedSparsityPattern"* dereferenceable(104) %s) #5 align 2 !dbg !3030 {
entry:
  %this.addr = alloca %"class.dealii::CompressedSparsityPattern"*, align 8
  %s.addr = alloca %"class.dealii::CompressedSparsityPattern"*, align 8
  store %"class.dealii::CompressedSparsityPattern"* %this, %"class.dealii::CompressedSparsityPattern"** %this.addr, align 8
  call void @llvm.dbg.declare(metadata %"class.dealii::CompressedSparsityPattern"** %this.addr, metadata !3031, metadata !DIExpression()), !dbg !3032
  store %"class.dealii::CompressedSparsityPattern"* %s, %"class.dealii::CompressedSparsityPattern"** %s.addr, align 8
  call void @llvm.dbg.declare(metadata %"class.dealii::CompressedSparsityPattern"** %s.addr, metadata !3033, metadata !DIExpression()), !dbg !3034
  %this1 = load %"class.dealii::CompressedSparsityPattern"*, %"class.dealii::CompressedSparsityPattern"** %this.addr, align 8
  ret %"class.dealii::CompressedSparsityPattern"* %this1, !dbg !3035
}

; Function Attrs: noinline nounwind uwtable
define linkonce_odr dso_local void @_ZNSaIN6dealii25CompressedSparsityPattern4LineEEC2Ev(%"class.std::allocator.5"* %this) unnamed_addr #5 comdat align 2 !dbg !3036 {
entry:
  %this.addr = alloca %"class.std::allocator.5"*, align 8
  store %"class.std::allocator.5"* %this, %"class.std::allocator.5"** %this.addr, align 8
  call void @llvm.dbg.declare(metadata %"class.std::allocator.5"** %this.addr, metadata !3037, metadata !DIExpression()), !dbg !3039
  %this1 = load %"class.std::allocator.5"*, %"class.std::allocator.5"** %this.addr, align 8
  %0 = bitcast %"class.std::allocator.5"* %this1 to %"class.__gnu_cxx::new_allocator.6"*, !dbg !3040
  call void @_ZN9__gnu_cxx13new_allocatorIN6dealii25CompressedSparsityPattern4LineEEC2Ev(%"class.__gnu_cxx::new_allocator.6"* %0) #3, !dbg !3041
  ret void, !dbg !3042
}

; Function Attrs: noinline uwtable
define linkonce_odr dso_local void @_ZNSt6vectorIN6dealii25CompressedSparsityPattern4LineESaIS2_EEC2EmRKS3_(%"class.std::vector.3"* %this, i64 %__n, %"class.std::allocator.5"* dereferenceable(1) %__a) unnamed_addr #0 comdat align 2 personality i8* bitcast (i32 (...)* @__gxx_personality_v0 to i8*) !dbg !3043 {
entry:
  %this.addr = alloca %"class.std::vector.3"*, align 8
  %__n.addr = alloca i64, align 8
  %__a.addr = alloca %"class.std::allocator.5"*, align 8
  %exn.slot = alloca i8*
  %ehselector.slot = alloca i32
  store %"class.std::vector.3"* %this, %"class.std::vector.3"** %this.addr, align 8
  call void @llvm.dbg.declare(metadata %"class.std::vector.3"** %this.addr, metadata !3044, metadata !DIExpression()), !dbg !3045
  store i64 %__n, i64* %__n.addr, align 8
  call void @llvm.dbg.declare(metadata i64* %__n.addr, metadata !3046, metadata !DIExpression()), !dbg !3047
  store %"class.std::allocator.5"* %__a, %"class.std::allocator.5"** %__a.addr, align 8
  call void @llvm.dbg.declare(metadata %"class.std::allocator.5"** %__a.addr, metadata !3048, metadata !DIExpression()), !dbg !3049
  %this1 = load %"class.std::vector.3"*, %"class.std::vector.3"** %this.addr, align 8
  %0 = bitcast %"class.std::vector.3"* %this1 to %"struct.std::_Vector_base.4"*, !dbg !3050
  %1 = load i64, i64* %__n.addr, align 8, !dbg !3051
  %2 = load %"class.std::allocator.5"*, %"class.std::allocator.5"** %__a.addr, align 8, !dbg !3052
  %call = call i64 @_ZNSt6vectorIN6dealii25CompressedSparsityPattern4LineESaIS2_EE17_S_check_init_lenEmRKS3_(i64 %1, %"class.std::allocator.5"* dereferenceable(1) %2), !dbg !3053
  %3 = load %"class.std::allocator.5"*, %"class.std::allocator.5"** %__a.addr, align 8, !dbg !3054
  call void @_ZNSt12_Vector_baseIN6dealii25CompressedSparsityPattern4LineESaIS2_EEC2EmRKS3_(%"struct.std::_Vector_base.4"* %0, i64 %call, %"class.std::allocator.5"* dereferenceable(1) %3), !dbg !3055
  %4 = load i64, i64* %__n.addr, align 8, !dbg !3056
  invoke void @_ZNSt6vectorIN6dealii25CompressedSparsityPattern4LineESaIS2_EE21_M_default_initializeEm(%"class.std::vector.3"* %this1, i64 %4)
          to label %invoke.cont unwind label %lpad, !dbg !3058

invoke.cont:                                      ; preds = %entry
  ret void, !dbg !3059

lpad:                                             ; preds = %entry
  %5 = landingpad { i8*, i32 }
          cleanup, !dbg !3060
  %6 = extractvalue { i8*, i32 } %5, 0, !dbg !3060
  store i8* %6, i8** %exn.slot, align 8, !dbg !3060
  %7 = extractvalue { i8*, i32 } %5, 1, !dbg !3060
  store i32 %7, i32* %ehselector.slot, align 4, !dbg !3060
  %8 = bitcast %"class.std::vector.3"* %this1 to %"struct.std::_Vector_base.4"*, !dbg !3060
  call void @_ZNSt12_Vector_baseIN6dealii25CompressedSparsityPattern4LineESaIS2_EED2Ev(%"struct.std::_Vector_base.4"* %8) #3, !dbg !3060
  br label %eh.resume, !dbg !3060

eh.resume:                                        ; preds = %lpad
  %exn = load i8*, i8** %exn.slot, align 8, !dbg !3060
  %sel = load i32, i32* %ehselector.slot, align 4, !dbg !3060
  %lpad.val = insertvalue { i8*, i32 } undef, i8* %exn, 0, !dbg !3060
  %lpad.val2 = insertvalue { i8*, i32 } %lpad.val, i32 %sel, 1, !dbg !3060
  resume { i8*, i32 } %lpad.val2, !dbg !3060
}

; Function Attrs: noinline nounwind uwtable
define linkonce_odr dso_local void @_ZNSaIN6dealii25CompressedSparsityPattern4LineEED2Ev(%"class.std::allocator.5"* %this) unnamed_addr #5 comdat align 2 !dbg !3061 {
entry:
  %this.addr = alloca %"class.std::allocator.5"*, align 8
  store %"class.std::allocator.5"* %this, %"class.std::allocator.5"** %this.addr, align 8
  call void @llvm.dbg.declare(metadata %"class.std::allocator.5"** %this.addr, metadata !3062, metadata !DIExpression()), !dbg !3063
  %this1 = load %"class.std::allocator.5"*, %"class.std::allocator.5"** %this.addr, align 8
  %0 = bitcast %"class.std::allocator.5"* %this1 to %"class.__gnu_cxx::new_allocator.6"*, !dbg !3064
  call void @_ZN9__gnu_cxx13new_allocatorIN6dealii25CompressedSparsityPattern4LineEED2Ev(%"class.__gnu_cxx::new_allocator.6"* %0) #3, !dbg !3064
  ret void, !dbg !3066
}

; Function Attrs: noinline nounwind uwtable
define linkonce_odr dso_local void @_ZNSt6vectorIN6dealii25CompressedSparsityPattern4LineESaIS2_EE4swapERS4_(%"class.std::vector.3"* %this, %"class.std::vector.3"* dereferenceable(24) %__x) #5 comdat align 2 personality i8* bitcast (i32 (...)* @__gxx_personality_v0 to i8*) !dbg !3067 {
entry:
  %this.addr = alloca %"class.std::vector.3"*, align 8
  %__x.addr = alloca %"class.std::vector.3"*, align 8
  store %"class.std::vector.3"* %this, %"class.std::vector.3"** %this.addr, align 8
  call void @llvm.dbg.declare(metadata %"class.std::vector.3"** %this.addr, metadata !3068, metadata !DIExpression()), !dbg !3069
  store %"class.std::vector.3"* %__x, %"class.std::vector.3"** %__x.addr, align 8
  call void @llvm.dbg.declare(metadata %"class.std::vector.3"** %__x.addr, metadata !3070, metadata !DIExpression()), !dbg !3071
  %this1 = load %"class.std::vector.3"*, %"class.std::vector.3"** %this.addr, align 8
  %0 = bitcast %"class.std::vector.3"* %this1 to %"struct.std::_Vector_base.4"*, !dbg !3072
  %_M_impl = getelementptr inbounds %"struct.std::_Vector_base.4", %"struct.std::_Vector_base.4"* %0, i32 0, i32 0, !dbg !3072
  %1 = bitcast %"struct.std::_Vector_base<dealii::CompressedSparsityPattern::Line, std::allocator<dealii::CompressedSparsityPattern::Line> >::_Vector_impl"* %_M_impl to %"struct.std::_Vector_base<dealii::CompressedSparsityPattern::Line, std::allocator<dealii::CompressedSparsityPattern::Line> >::_Vector_impl_data"*, !dbg !3073
  %2 = load %"class.std::vector.3"*, %"class.std::vector.3"** %__x.addr, align 8, !dbg !3074
  %3 = bitcast %"class.std::vector.3"* %2 to %"struct.std::_Vector_base.4"*, !dbg !3074
  %_M_impl2 = getelementptr inbounds %"struct.std::_Vector_base.4", %"struct.std::_Vector_base.4"* %3, i32 0, i32 0, !dbg !3075
  %4 = bitcast %"struct.std::_Vector_base<dealii::CompressedSparsityPattern::Line, std::allocator<dealii::CompressedSparsityPattern::Line> >::_Vector_impl"* %_M_impl2 to %"struct.std::_Vector_base<dealii::CompressedSparsityPattern::Line, std::allocator<dealii::CompressedSparsityPattern::Line> >::_Vector_impl_data"*, !dbg !3074
  call void @_ZNSt12_Vector_baseIN6dealii25CompressedSparsityPattern4LineESaIS2_EE17_Vector_impl_data12_M_swap_dataERS5_(%"struct.std::_Vector_base<dealii::CompressedSparsityPattern::Line, std::allocator<dealii::CompressedSparsityPattern::Line> >::_Vector_impl_data"* %1, %"struct.std::_Vector_base<dealii::CompressedSparsityPattern::Line, std::allocator<dealii::CompressedSparsityPattern::Line> >::_Vector_impl_data"* dereferenceable(24) %4) #3, !dbg !3076
  %5 = bitcast %"class.std::vector.3"* %this1 to %"struct.std::_Vector_base.4"*, !dbg !3077
  %call = call dereferenceable(1) %"class.std::allocator.5"* @_ZNSt12_Vector_baseIN6dealii25CompressedSparsityPattern4LineESaIS2_EE19_M_get_Tp_allocatorEv(%"struct.std::_Vector_base.4"* %5) #3, !dbg !3077
  %6 = load %"class.std::vector.3"*, %"class.std::vector.3"** %__x.addr, align 8, !dbg !3078
  %7 = bitcast %"class.std::vector.3"* %6 to %"struct.std::_Vector_base.4"*, !dbg !3078
  %call3 = call dereferenceable(1) %"class.std::allocator.5"* @_ZNSt12_Vector_baseIN6dealii25CompressedSparsityPattern4LineESaIS2_EE19_M_get_Tp_allocatorEv(%"struct.std::_Vector_base.4"* %7) #3, !dbg !3079
  invoke void @_ZN9__gnu_cxx14__alloc_traitsISaIN6dealii25CompressedSparsityPattern4LineEES3_E10_S_on_swapERS4_S6_(%"class.std::allocator.5"* dereferenceable(1) %call, %"class.std::allocator.5"* dereferenceable(1) %call3)
          to label %invoke.cont unwind label %terminate.lpad, !dbg !3080

invoke.cont:                                      ; preds = %entry
  ret void, !dbg !3081

terminate.lpad:                                   ; preds = %entry
  %8 = landingpad { i8*, i32 }
          catch i8* null, !dbg !3080
  %9 = extractvalue { i8*, i32 } %8, 0, !dbg !3080
  call void @__clang_call_terminate(i8* %9) #15, !dbg !3080
  unreachable, !dbg !3080
}

; Function Attrs: noinline nounwind uwtable
define dso_local void @_ZN6dealii25CompressedSparsityPattern8compressEv(%"class.dealii::CompressedSparsityPattern"* %this) #5 align 2 !dbg !3082 {
entry:
  %this.addr = alloca %"class.dealii::CompressedSparsityPattern"*, align 8
  store %"class.dealii::CompressedSparsityPattern"* %this, %"class.dealii::CompressedSparsityPattern"** %this.addr, align 8
  call void @llvm.dbg.declare(metadata %"class.dealii::CompressedSparsityPattern"** %this.addr, metadata !3083, metadata !DIExpression()), !dbg !3084
  %this1 = load %"class.dealii::CompressedSparsityPattern"*, %"class.dealii::CompressedSparsityPattern"** %this.addr, align 8
  ret void, !dbg !3085
}

; Function Attrs: noinline nounwind uwtable
define dso_local zeroext i1 @_ZNK6dealii25CompressedSparsityPattern5emptyEv(%"class.dealii::CompressedSparsityPattern"* %this) #5 align 2 !dbg !3086 {
entry:
  %this.addr = alloca %"class.dealii::CompressedSparsityPattern"*, align 8
  store %"class.dealii::CompressedSparsityPattern"* %this, %"class.dealii::CompressedSparsityPattern"** %this.addr, align 8
  call void @llvm.dbg.declare(metadata %"class.dealii::CompressedSparsityPattern"** %this.addr, metadata !3087, metadata !DIExpression()), !dbg !3089
  %this1 = load %"class.dealii::CompressedSparsityPattern"*, %"class.dealii::CompressedSparsityPattern"** %this.addr, align 8
  %rows = getelementptr inbounds %"class.dealii::CompressedSparsityPattern", %"class.dealii::CompressedSparsityPattern"* %this1, i32 0, i32 1, !dbg !3090
  %0 = load i32, i32* %rows, align 8, !dbg !3090
  %cmp = icmp eq i32 %0, 0, !dbg !3091
  br i1 %cmp, label %land.rhs, label %land.end, !dbg !3092

land.rhs:                                         ; preds = %entry
  %cols = getelementptr inbounds %"class.dealii::CompressedSparsityPattern", %"class.dealii::CompressedSparsityPattern"* %this1, i32 0, i32 2, !dbg !3093
  %1 = load i32, i32* %cols, align 4, !dbg !3093
  %cmp2 = icmp eq i32 %1, 0, !dbg !3094
  br label %land.end

land.end:                                         ; preds = %land.rhs, %entry
  %2 = phi i1 [ false, %entry ], [ %cmp2, %land.rhs ], !dbg !3089
  ret i1 %2, !dbg !3095
}

; Function Attrs: noinline uwtable
define dso_local i32 @_ZNK6dealii25CompressedSparsityPattern19max_entries_per_rowEv(%"class.dealii::CompressedSparsityPattern"* %this) #0 align 2 !dbg !3096 {
entry:
  %this.addr = alloca %"class.dealii::CompressedSparsityPattern"*, align 8
  %m = alloca i32, align 4
  %i = alloca i32, align 4
  %ref.tmp = alloca i32, align 4
  store %"class.dealii::CompressedSparsityPattern"* %this, %"class.dealii::CompressedSparsityPattern"** %this.addr, align 8
  call void @llvm.dbg.declare(metadata %"class.dealii::CompressedSparsityPattern"** %this.addr, metadata !3097, metadata !DIExpression()), !dbg !3098
  %this1 = load %"class.dealii::CompressedSparsityPattern"*, %"class.dealii::CompressedSparsityPattern"** %this.addr, align 8
  call void @llvm.dbg.declare(metadata i32* %m, metadata !3099, metadata !DIExpression()), !dbg !3100
  store i32 0, i32* %m, align 4, !dbg !3100
  call void @llvm.dbg.declare(metadata i32* %i, metadata !3101, metadata !DIExpression()), !dbg !3103
  store i32 0, i32* %i, align 4, !dbg !3103
  br label %for.cond, !dbg !3104

for.cond:                                         ; preds = %for.inc, %entry
  %0 = load i32, i32* %i, align 4, !dbg !3105
  %rows = getelementptr inbounds %"class.dealii::CompressedSparsityPattern", %"class.dealii::CompressedSparsityPattern"* %this1, i32 0, i32 1, !dbg !3107
  %1 = load i32, i32* %rows, align 8, !dbg !3107
  %cmp = icmp ult i32 %0, %1, !dbg !3108
  br i1 %cmp, label %for.body, label %for.end, !dbg !3109

for.body:                                         ; preds = %for.cond
  %lines = getelementptr inbounds %"class.dealii::CompressedSparsityPattern", %"class.dealii::CompressedSparsityPattern"* %this1, i32 0, i32 3, !dbg !3110
  %2 = load i32, i32* %i, align 4, !dbg !3113
  %conv = zext i32 %2 to i64, !dbg !3113
  %call = call dereferenceable(64) %"struct.dealii::CompressedSparsityPattern::Line"* @_ZNKSt6vectorIN6dealii25CompressedSparsityPattern4LineESaIS2_EEixEm(%"class.std::vector.3"* %lines, i64 %conv) #3, !dbg !3110
  %cache_entries = getelementptr inbounds %"struct.dealii::CompressedSparsityPattern::Line", %"struct.dealii::CompressedSparsityPattern::Line"* %call, i32 0, i32 2, !dbg !3114
  %3 = load i32, i32* %cache_entries, align 8, !dbg !3114
  %cmp2 = icmp ne i32 %3, 0, !dbg !3115
  br i1 %cmp2, label %if.then, label %if.end, !dbg !3116

if.then:                                          ; preds = %for.body
  %lines3 = getelementptr inbounds %"class.dealii::CompressedSparsityPattern", %"class.dealii::CompressedSparsityPattern"* %this1, i32 0, i32 3, !dbg !3117
  %4 = load i32, i32* %i, align 4, !dbg !3118
  %conv4 = zext i32 %4 to i64, !dbg !3118
  %call5 = call dereferenceable(64) %"struct.dealii::CompressedSparsityPattern::Line"* @_ZNKSt6vectorIN6dealii25CompressedSparsityPattern4LineESaIS2_EEixEm(%"class.std::vector.3"* %lines3, i64 %conv4) #3, !dbg !3117
  call void @_ZNK6dealii25CompressedSparsityPattern4Line11flush_cacheEv(%"struct.dealii::CompressedSparsityPattern::Line"* %call5), !dbg !3119
  br label %if.end, !dbg !3117

if.end:                                           ; preds = %if.then, %for.body
  %lines6 = getelementptr inbounds %"class.dealii::CompressedSparsityPattern", %"class.dealii::CompressedSparsityPattern"* %this1, i32 0, i32 3, !dbg !3120
  %5 = load i32, i32* %i, align 4, !dbg !3121
  %conv7 = zext i32 %5 to i64, !dbg !3121
  %call8 = call dereferenceable(64) %"struct.dealii::CompressedSparsityPattern::Line"* @_ZNKSt6vectorIN6dealii25CompressedSparsityPattern4LineESaIS2_EEixEm(%"class.std::vector.3"* %lines6, i64 %conv7) #3, !dbg !3120
  %entries = getelementptr inbounds %"struct.dealii::CompressedSparsityPattern::Line", %"struct.dealii::CompressedSparsityPattern::Line"* %call8, i32 0, i32 0, !dbg !3122
  %call9 = call i64 @_ZNKSt6vectorIjSaIjEE4sizeEv(%"class.std::vector"* %entries) #3, !dbg !3123
  %conv10 = trunc i64 %call9 to i32, !dbg !3120
  store i32 %conv10, i32* %ref.tmp, align 4, !dbg !3124
  %call11 = call dereferenceable(4) i32* @_ZSt3maxIjERKT_S2_S2_(i32* dereferenceable(4) %m, i32* dereferenceable(4) %ref.tmp), !dbg !3125
  %6 = load i32, i32* %call11, align 4, !dbg !3125
  store i32 %6, i32* %m, align 4, !dbg !3126
  br label %for.inc, !dbg !3127

for.inc:                                          ; preds = %if.end
  %7 = load i32, i32* %i, align 4, !dbg !3128
  %inc = add i32 %7, 1, !dbg !3128
  store i32 %inc, i32* %i, align 4, !dbg !3128
  br label %for.cond, !dbg !3129, !llvm.loop !3130

for.end:                                          ; preds = %for.cond
  %8 = load i32, i32* %m, align 4, !dbg !3132
  ret i32 %8, !dbg !3133
}

; Function Attrs: noinline nounwind uwtable
define linkonce_odr dso_local dereferenceable(64) %"struct.dealii::CompressedSparsityPattern::Line"* @_ZNKSt6vectorIN6dealii25CompressedSparsityPattern4LineESaIS2_EEixEm(%"class.std::vector.3"* %this, i64 %__n) #5 comdat align 2 !dbg !3134 {
entry:
  %this.addr = alloca %"class.std::vector.3"*, align 8
  %__n.addr = alloca i64, align 8
  store %"class.std::vector.3"* %this, %"class.std::vector.3"** %this.addr, align 8
  call void @llvm.dbg.declare(metadata %"class.std::vector.3"** %this.addr, metadata !3135, metadata !DIExpression()), !dbg !3137
  store i64 %__n, i64* %__n.addr, align 8
  call void @llvm.dbg.declare(metadata i64* %__n.addr, metadata !3138, metadata !DIExpression()), !dbg !3139
  %this1 = load %"class.std::vector.3"*, %"class.std::vector.3"** %this.addr, align 8
  %0 = bitcast %"class.std::vector.3"* %this1 to %"struct.std::_Vector_base.4"*, !dbg !3140
  %_M_impl = getelementptr inbounds %"struct.std::_Vector_base.4", %"struct.std::_Vector_base.4"* %0, i32 0, i32 0, !dbg !3140
  %1 = bitcast %"struct.std::_Vector_base<dealii::CompressedSparsityPattern::Line, std::allocator<dealii::CompressedSparsityPattern::Line> >::_Vector_impl"* %_M_impl to %"struct.std::_Vector_base<dealii::CompressedSparsityPattern::Line, std::allocator<dealii::CompressedSparsityPattern::Line> >::_Vector_impl_data"*, !dbg !3141
  %_M_start = getelementptr inbounds %"struct.std::_Vector_base<dealii::CompressedSparsityPattern::Line, std::allocator<dealii::CompressedSparsityPattern::Line> >::_Vector_impl_data", %"struct.std::_Vector_base<dealii::CompressedSparsityPattern::Line, std::allocator<dealii::CompressedSparsityPattern::Line> >::_Vector_impl_data"* %1, i32 0, i32 0, !dbg !3142
  %2 = load %"struct.dealii::CompressedSparsityPattern::Line"*, %"struct.dealii::CompressedSparsityPattern::Line"** %_M_start, align 8, !dbg !3142
  %3 = load i64, i64* %__n.addr, align 8, !dbg !3143
  %add.ptr = getelementptr inbounds %"struct.dealii::CompressedSparsityPattern::Line", %"struct.dealii::CompressedSparsityPattern::Line"* %2, i64 %3, !dbg !3144
  ret %"struct.dealii::CompressedSparsityPattern::Line"* %add.ptr, !dbg !3145
}

; Function Attrs: noinline nounwind uwtable
define linkonce_odr dso_local dereferenceable(4) i32* @_ZSt3maxIjERKT_S2_S2_(i32* dereferenceable(4) %__a, i32* dereferenceable(4) %__b) #5 comdat !dbg !3146 {
entry:
  %retval = alloca i32*, align 8
  %__a.addr = alloca i32*, align 8
  %__b.addr = alloca i32*, align 8
  store i32* %__a, i32** %__a.addr, align 8
  call void @llvm.dbg.declare(metadata i32** %__a.addr, metadata !3150, metadata !DIExpression()), !dbg !3152
  store i32* %__b, i32** %__b.addr, align 8
  call void @llvm.dbg.declare(metadata i32** %__b.addr, metadata !3153, metadata !DIExpression()), !dbg !3154
  %0 = load i32*, i32** %__a.addr, align 8, !dbg !3155
  %1 = load i32, i32* %0, align 4, !dbg !3155
  %2 = load i32*, i32** %__b.addr, align 8, !dbg !3157
  %3 = load i32, i32* %2, align 4, !dbg !3157
  %cmp = icmp ult i32 %1, %3, !dbg !3158
  br i1 %cmp, label %if.then, label %if.end, !dbg !3159

if.then:                                          ; preds = %entry
  %4 = load i32*, i32** %__b.addr, align 8, !dbg !3160
  store i32* %4, i32** %retval, align 8, !dbg !3161
  br label %return, !dbg !3161

if.end:                                           ; preds = %entry
  %5 = load i32*, i32** %__a.addr, align 8, !dbg !3162
  store i32* %5, i32** %retval, align 8, !dbg !3163
  br label %return, !dbg !3163

return:                                           ; preds = %if.end, %if.then
  %6 = load i32*, i32** %retval, align 8, !dbg !3164
  ret i32* %6, !dbg !3164
}

; Function Attrs: noinline uwtable
define dso_local zeroext i1 @_ZNK6dealii25CompressedSparsityPattern6existsEjj(%"class.dealii::CompressedSparsityPattern"* %this, i32 %i, i32 %j) #0 align 2 !dbg !3165 {
entry:
  %this.addr = alloca %"class.dealii::CompressedSparsityPattern"*, align 8
  %i.addr = alloca i32, align 4
  %j.addr = alloca i32, align 4
  %agg.tmp = alloca %"class.__gnu_cxx::__normal_iterator", align 8
  %agg.tmp9 = alloca %"class.__gnu_cxx::__normal_iterator", align 8
  store %"class.dealii::CompressedSparsityPattern"* %this, %"class.dealii::CompressedSparsityPattern"** %this.addr, align 8
  call void @llvm.dbg.declare(metadata %"class.dealii::CompressedSparsityPattern"** %this.addr, metadata !3166, metadata !DIExpression()), !dbg !3167
  store i32 %i, i32* %i.addr, align 4
  call void @llvm.dbg.declare(metadata i32* %i.addr, metadata !3168, metadata !DIExpression()), !dbg !3169
  store i32 %j, i32* %j.addr, align 4
  call void @llvm.dbg.declare(metadata i32* %j.addr, metadata !3170, metadata !DIExpression()), !dbg !3171
  %this1 = load %"class.dealii::CompressedSparsityPattern"*, %"class.dealii::CompressedSparsityPattern"** %this.addr, align 8
  %lines = getelementptr inbounds %"class.dealii::CompressedSparsityPattern", %"class.dealii::CompressedSparsityPattern"* %this1, i32 0, i32 3, !dbg !3172
  %0 = load i32, i32* %i.addr, align 4, !dbg !3174
  %conv = zext i32 %0 to i64, !dbg !3174
  %call = call dereferenceable(64) %"struct.dealii::CompressedSparsityPattern::Line"* @_ZNKSt6vectorIN6dealii25CompressedSparsityPattern4LineESaIS2_EEixEm(%"class.std::vector.3"* %lines, i64 %conv) #3, !dbg !3172
  %cache_entries = getelementptr inbounds %"struct.dealii::CompressedSparsityPattern::Line", %"struct.dealii::CompressedSparsityPattern::Line"* %call, i32 0, i32 2, !dbg !3175
  %1 = load i32, i32* %cache_entries, align 8, !dbg !3175
  %cmp = icmp ne i32 %1, 0, !dbg !3176
  br i1 %cmp, label %if.then, label %if.end, !dbg !3177

if.then:                                          ; preds = %entry
  %lines2 = getelementptr inbounds %"class.dealii::CompressedSparsityPattern", %"class.dealii::CompressedSparsityPattern"* %this1, i32 0, i32 3, !dbg !3178
  %2 = load i32, i32* %i.addr, align 4, !dbg !3179
  %conv3 = zext i32 %2 to i64, !dbg !3179
  %call4 = call dereferenceable(64) %"struct.dealii::CompressedSparsityPattern::Line"* @_ZNKSt6vectorIN6dealii25CompressedSparsityPattern4LineESaIS2_EEixEm(%"class.std::vector.3"* %lines2, i64 %conv3) #3, !dbg !3178
  call void @_ZNK6dealii25CompressedSparsityPattern4Line11flush_cacheEv(%"struct.dealii::CompressedSparsityPattern::Line"* %call4), !dbg !3180
  br label %if.end, !dbg !3178

if.end:                                           ; preds = %if.then, %entry
  %lines5 = getelementptr inbounds %"class.dealii::CompressedSparsityPattern", %"class.dealii::CompressedSparsityPattern"* %this1, i32 0, i32 3, !dbg !3181
  %3 = load i32, i32* %i.addr, align 4, !dbg !3182
  %conv6 = zext i32 %3 to i64, !dbg !3182
  %call7 = call dereferenceable(64) %"struct.dealii::CompressedSparsityPattern::Line"* @_ZNKSt6vectorIN6dealii25CompressedSparsityPattern4LineESaIS2_EEixEm(%"class.std::vector.3"* %lines5, i64 %conv6) #3, !dbg !3181
  %entries = getelementptr inbounds %"struct.dealii::CompressedSparsityPattern::Line", %"struct.dealii::CompressedSparsityPattern::Line"* %call7, i32 0, i32 0, !dbg !3183
  %call8 = call i32* @_ZNSt6vectorIjSaIjEE5beginEv(%"class.std::vector"* %entries) #3, !dbg !3184
  %coerce.dive = getelementptr inbounds %"class.__gnu_cxx::__normal_iterator", %"class.__gnu_cxx::__normal_iterator"* %agg.tmp, i32 0, i32 0, !dbg !3184
  store i32* %call8, i32** %coerce.dive, align 8, !dbg !3184
  %lines10 = getelementptr inbounds %"class.dealii::CompressedSparsityPattern", %"class.dealii::CompressedSparsityPattern"* %this1, i32 0, i32 3, !dbg !3185
  %4 = load i32, i32* %i.addr, align 4, !dbg !3186
  %conv11 = zext i32 %4 to i64, !dbg !3186
  %call12 = call dereferenceable(64) %"struct.dealii::CompressedSparsityPattern::Line"* @_ZNKSt6vectorIN6dealii25CompressedSparsityPattern4LineESaIS2_EEixEm(%"class.std::vector.3"* %lines10, i64 %conv11) #3, !dbg !3185
  %entries13 = getelementptr inbounds %"struct.dealii::CompressedSparsityPattern::Line", %"struct.dealii::CompressedSparsityPattern::Line"* %call12, i32 0, i32 0, !dbg !3187
  %call14 = call i32* @_ZNSt6vectorIjSaIjEE3endEv(%"class.std::vector"* %entries13) #3, !dbg !3188
  %coerce.dive15 = getelementptr inbounds %"class.__gnu_cxx::__normal_iterator", %"class.__gnu_cxx::__normal_iterator"* %agg.tmp9, i32 0, i32 0, !dbg !3188
  store i32* %call14, i32** %coerce.dive15, align 8, !dbg !3188
  %coerce.dive16 = getelementptr inbounds %"class.__gnu_cxx::__normal_iterator", %"class.__gnu_cxx::__normal_iterator"* %agg.tmp, i32 0, i32 0, !dbg !3189
  %5 = load i32*, i32** %coerce.dive16, align 8, !dbg !3189
  %coerce.dive17 = getelementptr inbounds %"class.__gnu_cxx::__normal_iterator", %"class.__gnu_cxx::__normal_iterator"* %agg.tmp9, i32 0, i32 0, !dbg !3189
  %6 = load i32*, i32** %coerce.dive17, align 8, !dbg !3189
  %call18 = call zeroext i1 @_ZSt13binary_searchIN9__gnu_cxx17__normal_iteratorIPjSt6vectorIjSaIjEEEEjEbT_S7_RKT0_(i32* %5, i32* %6, i32* dereferenceable(4) %j.addr), !dbg !3189
  ret i1 %call18, !dbg !3190
}

; Function Attrs: noinline uwtable
define linkonce_odr dso_local zeroext i1 @_ZSt13binary_searchIN9__gnu_cxx17__normal_iteratorIPjSt6vectorIjSaIjEEEEjEbT_S7_RKT0_(i32* %__first.coerce, i32* %__last.coerce, i32* dereferenceable(4) %__val) #0 comdat !dbg !3191 {
entry:
  %__first = alloca %"class.__gnu_cxx::__normal_iterator", align 8
  %__last = alloca %"class.__gnu_cxx::__normal_iterator", align 8
  %__val.addr = alloca i32*, align 8
  %__i = alloca %"class.__gnu_cxx::__normal_iterator", align 8
  %agg.tmp = alloca %"class.__gnu_cxx::__normal_iterator", align 8
  %agg.tmp2 = alloca %"class.__gnu_cxx::__normal_iterator", align 8
  %agg.tmp3 = alloca %"struct.__gnu_cxx::__ops::_Iter_less_val", align 1
  %undef.agg.tmp = alloca %"struct.__gnu_cxx::__ops::_Iter_less_val", align 1
  %coerce.dive = getelementptr inbounds %"class.__gnu_cxx::__normal_iterator", %"class.__gnu_cxx::__normal_iterator"* %__first, i32 0, i32 0
  store i32* %__first.coerce, i32** %coerce.dive, align 8
  %coerce.dive1 = getelementptr inbounds %"class.__gnu_cxx::__normal_iterator", %"class.__gnu_cxx::__normal_iterator"* %__last, i32 0, i32 0
  store i32* %__last.coerce, i32** %coerce.dive1, align 8
  call void @llvm.dbg.declare(metadata %"class.__gnu_cxx::__normal_iterator"* %__first, metadata !3196, metadata !DIExpression()), !dbg !3197
  call void @llvm.dbg.declare(metadata %"class.__gnu_cxx::__normal_iterator"* %__last, metadata !3198, metadata !DIExpression()), !dbg !3199
  store i32* %__val, i32** %__val.addr, align 8
  call void @llvm.dbg.declare(metadata i32** %__val.addr, metadata !3200, metadata !DIExpression()), !dbg !3201
  call void @llvm.dbg.declare(metadata %"class.__gnu_cxx::__normal_iterator"* %__i, metadata !3202, metadata !DIExpression()), !dbg !3203
  %0 = bitcast %"class.__gnu_cxx::__normal_iterator"* %agg.tmp to i8*, !dbg !3204
  %1 = bitcast %"class.__gnu_cxx::__normal_iterator"* %__first to i8*, !dbg !3204
  call void @llvm.memcpy.p0i8.p0i8.i64(i8* align 8 %0, i8* align 8 %1, i64 8, i1 false), !dbg !3204
  %2 = bitcast %"class.__gnu_cxx::__normal_iterator"* %agg.tmp2 to i8*, !dbg !3205
  %3 = bitcast %"class.__gnu_cxx::__normal_iterator"* %__last to i8*, !dbg !3205
  call void @llvm.memcpy.p0i8.p0i8.i64(i8* align 8 %2, i8* align 8 %3, i64 8, i1 false), !dbg !3205
  %4 = load i32*, i32** %__val.addr, align 8, !dbg !3206
  call void @_ZN9__gnu_cxx5__ops15__iter_less_valEv(), !dbg !3207
  %coerce.dive4 = getelementptr inbounds %"class.__gnu_cxx::__normal_iterator", %"class.__gnu_cxx::__normal_iterator"* %agg.tmp, i32 0, i32 0, !dbg !3208
  %5 = load i32*, i32** %coerce.dive4, align 8, !dbg !3208
  %coerce.dive5 = getelementptr inbounds %"class.__gnu_cxx::__normal_iterator", %"class.__gnu_cxx::__normal_iterator"* %agg.tmp2, i32 0, i32 0, !dbg !3208
  %6 = load i32*, i32** %coerce.dive5, align 8, !dbg !3208
  %call = call i32* @_ZSt13__lower_boundIN9__gnu_cxx17__normal_iteratorIPjSt6vectorIjSaIjEEEEjNS0_5__ops14_Iter_less_valEET_S9_S9_RKT0_T1_(i32* %5, i32* %6, i32* dereferenceable(4) %4), !dbg !3208
  %coerce.dive6 = getelementptr inbounds %"class.__gnu_cxx::__normal_iterator", %"class.__gnu_cxx::__normal_iterator"* %__i, i32 0, i32 0, !dbg !3208
  store i32* %call, i32** %coerce.dive6, align 8, !dbg !3208
  %call7 = call zeroext i1 @_ZN9__gnu_cxxneIPjSt6vectorIjSaIjEEEEbRKNS_17__normal_iteratorIT_T0_EESA_(%"class.__gnu_cxx::__normal_iterator"* dereferenceable(8) %__i, %"class.__gnu_cxx::__normal_iterator"* dereferenceable(8) %__last) #3, !dbg !3209
  br i1 %call7, label %land.rhs, label %land.end, !dbg !3210

land.rhs:                                         ; preds = %entry
  %7 = load i32*, i32** %__val.addr, align 8, !dbg !3211
  %8 = load i32, i32* %7, align 4, !dbg !3211
  %call8 = call dereferenceable(4) i32* @_ZNK9__gnu_cxx17__normal_iteratorIPjSt6vectorIjSaIjEEEdeEv(%"class.__gnu_cxx::__normal_iterator"* %__i) #3, !dbg !3212
  %9 = load i32, i32* %call8, align 4, !dbg !3212
  %cmp = icmp ult i32 %8, %9, !dbg !3213
  %lnot = xor i1 %cmp, true, !dbg !3214
  br label %land.end

land.end:                                         ; preds = %land.rhs, %entry
  %10 = phi i1 [ false, %entry ], [ %lnot, %land.rhs ], !dbg !3215
  ret i1 %10, !dbg !3216
}

; Function Attrs: noinline nounwind uwtable
define linkonce_odr dso_local i32* @_ZNSt6vectorIjSaIjEE5beginEv(%"class.std::vector"* %this) #5 comdat align 2 !dbg !3217 {
entry:
  %retval = alloca %"class.__gnu_cxx::__normal_iterator", align 8
  %this.addr = alloca %"class.std::vector"*, align 8
  store %"class.std::vector"* %this, %"class.std::vector"** %this.addr, align 8
  call void @llvm.dbg.declare(metadata %"class.std::vector"** %this.addr, metadata !3218, metadata !DIExpression()), !dbg !3219
  %this1 = load %"class.std::vector"*, %"class.std::vector"** %this.addr, align 8
  %0 = bitcast %"class.std::vector"* %this1 to %"struct.std::_Vector_base"*, !dbg !3220
  %_M_impl = getelementptr inbounds %"struct.std::_Vector_base", %"struct.std::_Vector_base"* %0, i32 0, i32 0, !dbg !3220
  %1 = bitcast %"struct.std::_Vector_base<unsigned int, std::allocator<unsigned int> >::_Vector_impl"* %_M_impl to %"struct.std::_Vector_base<unsigned int, std::allocator<unsigned int> >::_Vector_impl_data"*, !dbg !3221
  %_M_start = getelementptr inbounds %"struct.std::_Vector_base<unsigned int, std::allocator<unsigned int> >::_Vector_impl_data", %"struct.std::_Vector_base<unsigned int, std::allocator<unsigned int> >::_Vector_impl_data"* %1, i32 0, i32 0, !dbg !3222
  call void @_ZN9__gnu_cxx17__normal_iteratorIPjSt6vectorIjSaIjEEEC2ERKS1_(%"class.__gnu_cxx::__normal_iterator"* %retval, i32** dereferenceable(8) %_M_start) #3, !dbg !3223
  %coerce.dive = getelementptr inbounds %"class.__gnu_cxx::__normal_iterator", %"class.__gnu_cxx::__normal_iterator"* %retval, i32 0, i32 0, !dbg !3224
  %2 = load i32*, i32** %coerce.dive, align 8, !dbg !3224
  ret i32* %2, !dbg !3224
}

; Function Attrs: noinline nounwind uwtable
define linkonce_odr dso_local i32* @_ZNSt6vectorIjSaIjEE3endEv(%"class.std::vector"* %this) #5 comdat align 2 !dbg !3225 {
entry:
  %retval = alloca %"class.__gnu_cxx::__normal_iterator", align 8
  %this.addr = alloca %"class.std::vector"*, align 8
  store %"class.std::vector"* %this, %"class.std::vector"** %this.addr, align 8
  call void @llvm.dbg.declare(metadata %"class.std::vector"** %this.addr, metadata !3226, metadata !DIExpression()), !dbg !3227
  %this1 = load %"class.std::vector"*, %"class.std::vector"** %this.addr, align 8
  %0 = bitcast %"class.std::vector"* %this1 to %"struct.std::_Vector_base"*, !dbg !3228
  %_M_impl = getelementptr inbounds %"struct.std::_Vector_base", %"struct.std::_Vector_base"* %0, i32 0, i32 0, !dbg !3228
  %1 = bitcast %"struct.std::_Vector_base<unsigned int, std::allocator<unsigned int> >::_Vector_impl"* %_M_impl to %"struct.std::_Vector_base<unsigned int, std::allocator<unsigned int> >::_Vector_impl_data"*, !dbg !3229
  %_M_finish = getelementptr inbounds %"struct.std::_Vector_base<unsigned int, std::allocator<unsigned int> >::_Vector_impl_data", %"struct.std::_Vector_base<unsigned int, std::allocator<unsigned int> >::_Vector_impl_data"* %1, i32 0, i32 1, !dbg !3230
  call void @_ZN9__gnu_cxx17__normal_iteratorIPjSt6vectorIjSaIjEEEC2ERKS1_(%"class.__gnu_cxx::__normal_iterator"* %retval, i32** dereferenceable(8) %_M_finish) #3, !dbg !3231
  %coerce.dive = getelementptr inbounds %"class.__gnu_cxx::__normal_iterator", %"class.__gnu_cxx::__normal_iterator"* %retval, i32 0, i32 0, !dbg !3232
  %2 = load i32*, i32** %coerce.dive, align 8, !dbg !3232
  ret i32* %2, !dbg !3232
}

; Function Attrs: noinline uwtable
define dso_local void @_ZN6dealii25CompressedSparsityPattern10symmetrizeEv(%"class.dealii::CompressedSparsityPattern"* %this) #0 align 2 !dbg !3233 {
entry:
  %this.addr = alloca %"class.dealii::CompressedSparsityPattern"*, align 8
  %row = alloca i32, align 4
  %j = alloca %"class.__gnu_cxx::__normal_iterator.8", align 8
  %ref.tmp = alloca %"class.__gnu_cxx::__normal_iterator", align 8
  %ref.tmp11 = alloca %"class.__gnu_cxx::__normal_iterator", align 8
  store %"class.dealii::CompressedSparsityPattern"* %this, %"class.dealii::CompressedSparsityPattern"** %this.addr, align 8
  call void @llvm.dbg.declare(metadata %"class.dealii::CompressedSparsityPattern"** %this.addr, metadata !3234, metadata !DIExpression()), !dbg !3235
  %this1 = load %"class.dealii::CompressedSparsityPattern"*, %"class.dealii::CompressedSparsityPattern"** %this.addr, align 8
  call void @llvm.dbg.declare(metadata i32* %row, metadata !3236, metadata !DIExpression()), !dbg !3238
  store i32 0, i32* %row, align 4, !dbg !3238
  br label %for.cond, !dbg !3239

for.cond:                                         ; preds = %for.inc26, %entry
  %0 = load i32, i32* %row, align 4, !dbg !3240
  %rows = getelementptr inbounds %"class.dealii::CompressedSparsityPattern", %"class.dealii::CompressedSparsityPattern"* %this1, i32 0, i32 1, !dbg !3242
  %1 = load i32, i32* %rows, align 8, !dbg !3242
  %cmp = icmp ult i32 %0, %1, !dbg !3243
  br i1 %cmp, label %for.body, label %for.end27, !dbg !3244

for.body:                                         ; preds = %for.cond
  %lines = getelementptr inbounds %"class.dealii::CompressedSparsityPattern", %"class.dealii::CompressedSparsityPattern"* %this1, i32 0, i32 3, !dbg !3245
  %2 = load i32, i32* %row, align 4, !dbg !3248
  %conv = zext i32 %2 to i64, !dbg !3248
  %call = call dereferenceable(64) %"struct.dealii::CompressedSparsityPattern::Line"* @_ZNSt6vectorIN6dealii25CompressedSparsityPattern4LineESaIS2_EEixEm(%"class.std::vector.3"* %lines, i64 %conv) #3, !dbg !3245
  %cache_entries = getelementptr inbounds %"struct.dealii::CompressedSparsityPattern::Line", %"struct.dealii::CompressedSparsityPattern::Line"* %call, i32 0, i32 2, !dbg !3249
  %3 = load i32, i32* %cache_entries, align 8, !dbg !3249
  %cmp2 = icmp ne i32 %3, 0, !dbg !3250
  br i1 %cmp2, label %if.then, label %if.end, !dbg !3251

if.then:                                          ; preds = %for.body
  %lines3 = getelementptr inbounds %"class.dealii::CompressedSparsityPattern", %"class.dealii::CompressedSparsityPattern"* %this1, i32 0, i32 3, !dbg !3252
  %4 = load i32, i32* %row, align 4, !dbg !3253
  %conv4 = zext i32 %4 to i64, !dbg !3253
  %call5 = call dereferenceable(64) %"struct.dealii::CompressedSparsityPattern::Line"* @_ZNSt6vectorIN6dealii25CompressedSparsityPattern4LineESaIS2_EEixEm(%"class.std::vector.3"* %lines3, i64 %conv4) #3, !dbg !3252
  call void @_ZNK6dealii25CompressedSparsityPattern4Line11flush_cacheEv(%"struct.dealii::CompressedSparsityPattern::Line"* %call5), !dbg !3254
  br label %if.end, !dbg !3252

if.end:                                           ; preds = %if.then, %for.body
  call void @llvm.dbg.declare(metadata %"class.__gnu_cxx::__normal_iterator.8"* %j, metadata !3255, metadata !DIExpression()), !dbg !3257
  %lines6 = getelementptr inbounds %"class.dealii::CompressedSparsityPattern", %"class.dealii::CompressedSparsityPattern"* %this1, i32 0, i32 3, !dbg !3258
  %5 = load i32, i32* %row, align 4, !dbg !3259
  %conv7 = zext i32 %5 to i64, !dbg !3259
  %call8 = call dereferenceable(64) %"struct.dealii::CompressedSparsityPattern::Line"* @_ZNSt6vectorIN6dealii25CompressedSparsityPattern4LineESaIS2_EEixEm(%"class.std::vector.3"* %lines6, i64 %conv7) #3, !dbg !3258
  %entries = getelementptr inbounds %"struct.dealii::CompressedSparsityPattern::Line", %"struct.dealii::CompressedSparsityPattern::Line"* %call8, i32 0, i32 0, !dbg !3260
  %call9 = call i32* @_ZNSt6vectorIjSaIjEE5beginEv(%"class.std::vector"* %entries) #3, !dbg !3261
  %coerce.dive = getelementptr inbounds %"class.__gnu_cxx::__normal_iterator", %"class.__gnu_cxx::__normal_iterator"* %ref.tmp, i32 0, i32 0, !dbg !3261
  store i32* %call9, i32** %coerce.dive, align 8, !dbg !3261
  call void @_ZN9__gnu_cxx17__normal_iteratorIPKjSt6vectorIjSaIjEEEC2IPjEERKNS0_IT_NS_11__enable_ifIXsr3std10__are_sameIS9_S8_EE7__valueES5_E6__typeEEE(%"class.__gnu_cxx::__normal_iterator.8"* %j, %"class.__gnu_cxx::__normal_iterator"* dereferenceable(8) %ref.tmp) #3, !dbg !3258
  br label %for.cond10, !dbg !3262

for.cond10:                                       ; preds = %for.inc, %if.end
  %lines12 = getelementptr inbounds %"class.dealii::CompressedSparsityPattern", %"class.dealii::CompressedSparsityPattern"* %this1, i32 0, i32 3, !dbg !3263
  %6 = load i32, i32* %row, align 4, !dbg !3265
  %conv13 = zext i32 %6 to i64, !dbg !3265
  %call14 = call dereferenceable(64) %"struct.dealii::CompressedSparsityPattern::Line"* @_ZNSt6vectorIN6dealii25CompressedSparsityPattern4LineESaIS2_EEixEm(%"class.std::vector.3"* %lines12, i64 %conv13) #3, !dbg !3263
  %entries15 = getelementptr inbounds %"struct.dealii::CompressedSparsityPattern::Line", %"struct.dealii::CompressedSparsityPattern::Line"* %call14, i32 0, i32 0, !dbg !3266
  %call16 = call i32* @_ZNSt6vectorIjSaIjEE3endEv(%"class.std::vector"* %entries15) #3, !dbg !3267
  %coerce.dive17 = getelementptr inbounds %"class.__gnu_cxx::__normal_iterator", %"class.__gnu_cxx::__normal_iterator"* %ref.tmp11, i32 0, i32 0, !dbg !3267
  store i32* %call16, i32** %coerce.dive17, align 8, !dbg !3267
  %call18 = call zeroext i1 @_ZN9__gnu_cxxneIPKjPjSt6vectorIjSaIjEEEEbRKNS_17__normal_iteratorIT_T1_EERKNS7_IT0_S9_EE(%"class.__gnu_cxx::__normal_iterator.8"* dereferenceable(8) %j, %"class.__gnu_cxx::__normal_iterator"* dereferenceable(8) %ref.tmp11) #3, !dbg !3268
  br i1 %call18, label %for.body19, label %for.end, !dbg !3269

for.body19:                                       ; preds = %for.cond10
  %7 = load i32, i32* %row, align 4, !dbg !3270
  %call20 = call dereferenceable(4) i32* @_ZNK9__gnu_cxx17__normal_iteratorIPKjSt6vectorIjSaIjEEEdeEv(%"class.__gnu_cxx::__normal_iterator.8"* %j) #3, !dbg !3272
  %8 = load i32, i32* %call20, align 4, !dbg !3272
  %cmp21 = icmp ne i32 %7, %8, !dbg !3273
  br i1 %cmp21, label %if.then22, label %if.end24, !dbg !3274

if.then22:                                        ; preds = %for.body19
  %call23 = call dereferenceable(4) i32* @_ZNK9__gnu_cxx17__normal_iteratorIPKjSt6vectorIjSaIjEEEdeEv(%"class.__gnu_cxx::__normal_iterator.8"* %j) #3, !dbg !3275
  %9 = load i32, i32* %call23, align 4, !dbg !3275
  %10 = load i32, i32* %row, align 4, !dbg !3276
  call void @_ZN6dealii25CompressedSparsityPattern3addEjj(%"class.dealii::CompressedSparsityPattern"* %this1, i32 %9, i32 %10), !dbg !3277
  br label %if.end24, !dbg !3277

if.end24:                                         ; preds = %if.then22, %for.body19
  br label %for.inc, !dbg !3278

for.inc:                                          ; preds = %if.end24
  %call25 = call dereferenceable(8) %"class.__gnu_cxx::__normal_iterator.8"* @_ZN9__gnu_cxx17__normal_iteratorIPKjSt6vectorIjSaIjEEEppEv(%"class.__gnu_cxx::__normal_iterator.8"* %j) #3, !dbg !3279
  br label %for.cond10, !dbg !3280, !llvm.loop !3281

for.end:                                          ; preds = %for.cond10
  br label %for.inc26, !dbg !3283

for.inc26:                                        ; preds = %for.end
  %11 = load i32, i32* %row, align 4, !dbg !3284
  %inc = add i32 %11, 1, !dbg !3284
  store i32 %inc, i32* %row, align 4, !dbg !3284
  br label %for.cond, !dbg !3285, !llvm.loop !3286

for.end27:                                        ; preds = %for.cond
  ret void, !dbg !3288
}

; Function Attrs: noinline nounwind uwtable
define linkonce_odr dso_local dereferenceable(64) %"struct.dealii::CompressedSparsityPattern::Line"* @_ZNSt6vectorIN6dealii25CompressedSparsityPattern4LineESaIS2_EEixEm(%"class.std::vector.3"* %this, i64 %__n) #5 comdat align 2 !dbg !3289 {
entry:
  %this.addr = alloca %"class.std::vector.3"*, align 8
  %__n.addr = alloca i64, align 8
  store %"class.std::vector.3"* %this, %"class.std::vector.3"** %this.addr, align 8
  call void @llvm.dbg.declare(metadata %"class.std::vector.3"** %this.addr, metadata !3290, metadata !DIExpression()), !dbg !3291
  store i64 %__n, i64* %__n.addr, align 8
  call void @llvm.dbg.declare(metadata i64* %__n.addr, metadata !3292, metadata !DIExpression()), !dbg !3293
  %this1 = load %"class.std::vector.3"*, %"class.std::vector.3"** %this.addr, align 8
  %0 = bitcast %"class.std::vector.3"* %this1 to %"struct.std::_Vector_base.4"*, !dbg !3294
  %_M_impl = getelementptr inbounds %"struct.std::_Vector_base.4", %"struct.std::_Vector_base.4"* %0, i32 0, i32 0, !dbg !3294
  %1 = bitcast %"struct.std::_Vector_base<dealii::CompressedSparsityPattern::Line, std::allocator<dealii::CompressedSparsityPattern::Line> >::_Vector_impl"* %_M_impl to %"struct.std::_Vector_base<dealii::CompressedSparsityPattern::Line, std::allocator<dealii::CompressedSparsityPattern::Line> >::_Vector_impl_data"*, !dbg !3295
  %_M_start = getelementptr inbounds %"struct.std::_Vector_base<dealii::CompressedSparsityPattern::Line, std::allocator<dealii::CompressedSparsityPattern::Line> >::_Vector_impl_data", %"struct.std::_Vector_base<dealii::CompressedSparsityPattern::Line, std::allocator<dealii::CompressedSparsityPattern::Line> >::_Vector_impl_data"* %1, i32 0, i32 0, !dbg !3296
  %2 = load %"struct.dealii::CompressedSparsityPattern::Line"*, %"struct.dealii::CompressedSparsityPattern::Line"** %_M_start, align 8, !dbg !3296
  %3 = load i64, i64* %__n.addr, align 8, !dbg !3297
  %add.ptr = getelementptr inbounds %"struct.dealii::CompressedSparsityPattern::Line", %"struct.dealii::CompressedSparsityPattern::Line"* %2, i64 %3, !dbg !3298
  ret %"struct.dealii::CompressedSparsityPattern::Line"* %add.ptr, !dbg !3299
}

; Function Attrs: noinline nounwind uwtable
define linkonce_odr dso_local void @_ZN9__gnu_cxx17__normal_iteratorIPKjSt6vectorIjSaIjEEEC2IPjEERKNS0_IT_NS_11__enable_ifIXsr3std10__are_sameIS9_S8_EE7__valueES5_E6__typeEEE(%"class.__gnu_cxx::__normal_iterator.8"* %this, %"class.__gnu_cxx::__normal_iterator"* dereferenceable(8) %__i) unnamed_addr #5 comdat align 2 !dbg !3300 {
entry:
  %this.addr = alloca %"class.__gnu_cxx::__normal_iterator.8"*, align 8
  %__i.addr = alloca %"class.__gnu_cxx::__normal_iterator"*, align 8
  store %"class.__gnu_cxx::__normal_iterator.8"* %this, %"class.__gnu_cxx::__normal_iterator.8"** %this.addr, align 8
  call void @llvm.dbg.declare(metadata %"class.__gnu_cxx::__normal_iterator.8"** %this.addr, metadata !3307, metadata !DIExpression()), !dbg !3309
  store %"class.__gnu_cxx::__normal_iterator"* %__i, %"class.__gnu_cxx::__normal_iterator"** %__i.addr, align 8
  call void @llvm.dbg.declare(metadata %"class.__gnu_cxx::__normal_iterator"** %__i.addr, metadata !3310, metadata !DIExpression()), !dbg !3311
  %this1 = load %"class.__gnu_cxx::__normal_iterator.8"*, %"class.__gnu_cxx::__normal_iterator.8"** %this.addr, align 8
  %_M_current = getelementptr inbounds %"class.__gnu_cxx::__normal_iterator.8", %"class.__gnu_cxx::__normal_iterator.8"* %this1, i32 0, i32 0, !dbg !3312
  %0 = load %"class.__gnu_cxx::__normal_iterator"*, %"class.__gnu_cxx::__normal_iterator"** %__i.addr, align 8, !dbg !3313
  %call = call dereferenceable(8) i32** @_ZNK9__gnu_cxx17__normal_iteratorIPjSt6vectorIjSaIjEEE4baseEv(%"class.__gnu_cxx::__normal_iterator"* %0) #3, !dbg !3314
  %1 = load i32*, i32** %call, align 8, !dbg !3314
  store i32* %1, i32** %_M_current, align 8, !dbg !3312
  ret void, !dbg !3315
}

; Function Attrs: noinline nounwind uwtable
define linkonce_odr dso_local zeroext i1 @_ZN9__gnu_cxxneIPKjPjSt6vectorIjSaIjEEEEbRKNS_17__normal_iteratorIT_T1_EERKNS7_IT0_S9_EE(%"class.__gnu_cxx::__normal_iterator.8"* dereferenceable(8) %__lhs, %"class.__gnu_cxx::__normal_iterator"* dereferenceable(8) %__rhs) #5 comdat !dbg !3316 {
entry:
  %__lhs.addr = alloca %"class.__gnu_cxx::__normal_iterator.8"*, align 8
  %__rhs.addr = alloca %"class.__gnu_cxx::__normal_iterator"*, align 8
  store %"class.__gnu_cxx::__normal_iterator.8"* %__lhs, %"class.__gnu_cxx::__normal_iterator.8"** %__lhs.addr, align 8
  call void @llvm.dbg.declare(metadata %"class.__gnu_cxx::__normal_iterator.8"** %__lhs.addr, metadata !3323, metadata !DIExpression()), !dbg !3324
  store %"class.__gnu_cxx::__normal_iterator"* %__rhs, %"class.__gnu_cxx::__normal_iterator"** %__rhs.addr, align 8
  call void @llvm.dbg.declare(metadata %"class.__gnu_cxx::__normal_iterator"** %__rhs.addr, metadata !3325, metadata !DIExpression()), !dbg !3326
  %0 = load %"class.__gnu_cxx::__normal_iterator.8"*, %"class.__gnu_cxx::__normal_iterator.8"** %__lhs.addr, align 8, !dbg !3327
  %call = call dereferenceable(8) i32** @_ZNK9__gnu_cxx17__normal_iteratorIPKjSt6vectorIjSaIjEEE4baseEv(%"class.__gnu_cxx::__normal_iterator.8"* %0) #3, !dbg !3328
  %1 = load i32*, i32** %call, align 8, !dbg !3328
  %2 = load %"class.__gnu_cxx::__normal_iterator"*, %"class.__gnu_cxx::__normal_iterator"** %__rhs.addr, align 8, !dbg !3329
  %call1 = call dereferenceable(8) i32** @_ZNK9__gnu_cxx17__normal_iteratorIPjSt6vectorIjSaIjEEE4baseEv(%"class.__gnu_cxx::__normal_iterator"* %2) #3, !dbg !3330
  %3 = load i32*, i32** %call1, align 8, !dbg !3330
  %cmp = icmp ne i32* %1, %3, !dbg !3331
  ret i1 %cmp, !dbg !3332
}

; Function Attrs: noinline nounwind uwtable
define linkonce_odr dso_local dereferenceable(4) i32* @_ZNK9__gnu_cxx17__normal_iteratorIPKjSt6vectorIjSaIjEEEdeEv(%"class.__gnu_cxx::__normal_iterator.8"* %this) #5 comdat align 2 !dbg !3333 {
entry:
  %this.addr = alloca %"class.__gnu_cxx::__normal_iterator.8"*, align 8
  store %"class.__gnu_cxx::__normal_iterator.8"* %this, %"class.__gnu_cxx::__normal_iterator.8"** %this.addr, align 8
  call void @llvm.dbg.declare(metadata %"class.__gnu_cxx::__normal_iterator.8"** %this.addr, metadata !3334, metadata !DIExpression()), !dbg !3336
  %this1 = load %"class.__gnu_cxx::__normal_iterator.8"*, %"class.__gnu_cxx::__normal_iterator.8"** %this.addr, align 8
  %_M_current = getelementptr inbounds %"class.__gnu_cxx::__normal_iterator.8", %"class.__gnu_cxx::__normal_iterator.8"* %this1, i32 0, i32 0, !dbg !3337
  %0 = load i32*, i32** %_M_current, align 8, !dbg !3337
  ret i32* %0, !dbg !3338
}

; Function Attrs: noinline uwtable
define linkonce_odr dso_local void @_ZN6dealii25CompressedSparsityPattern3addEjj(%"class.dealii::CompressedSparsityPattern"* %this, i32 %i, i32 %j) #0 comdat align 2 !dbg !3339 {
entry:
  %this.addr = alloca %"class.dealii::CompressedSparsityPattern"*, align 8
  %i.addr = alloca i32, align 4
  %j.addr = alloca i32, align 4
  store %"class.dealii::CompressedSparsityPattern"* %this, %"class.dealii::CompressedSparsityPattern"** %this.addr, align 8
  call void @llvm.dbg.declare(metadata %"class.dealii::CompressedSparsityPattern"** %this.addr, metadata !3340, metadata !DIExpression()), !dbg !3341
  store i32 %i, i32* %i.addr, align 4
  call void @llvm.dbg.declare(metadata i32* %i.addr, metadata !3342, metadata !DIExpression()), !dbg !3343
  store i32 %j, i32* %j.addr, align 4
  call void @llvm.dbg.declare(metadata i32* %j.addr, metadata !3344, metadata !DIExpression()), !dbg !3345
  %this1 = load %"class.dealii::CompressedSparsityPattern"*, %"class.dealii::CompressedSparsityPattern"** %this.addr, align 8
  %lines = getelementptr inbounds %"class.dealii::CompressedSparsityPattern", %"class.dealii::CompressedSparsityPattern"* %this1, i32 0, i32 3, !dbg !3346
  %0 = load i32, i32* %i.addr, align 4, !dbg !3347
  %conv = zext i32 %0 to i64, !dbg !3347
  %call = call dereferenceable(64) %"struct.dealii::CompressedSparsityPattern::Line"* @_ZNSt6vectorIN6dealii25CompressedSparsityPattern4LineESaIS2_EEixEm(%"class.std::vector.3"* %lines, i64 %conv) #3, !dbg !3346
  %1 = load i32, i32* %j.addr, align 4, !dbg !3348
  call void @_ZN6dealii25CompressedSparsityPattern4Line3addEj(%"struct.dealii::CompressedSparsityPattern::Line"* %call, i32 %1), !dbg !3349
  ret void, !dbg !3350
}

; Function Attrs: noinline nounwind uwtable
define linkonce_odr dso_local dereferenceable(8) %"class.__gnu_cxx::__normal_iterator.8"* @_ZN9__gnu_cxx17__normal_iteratorIPKjSt6vectorIjSaIjEEEppEv(%"class.__gnu_cxx::__normal_iterator.8"* %this) #5 comdat align 2 !dbg !3351 {
entry:
  %this.addr = alloca %"class.__gnu_cxx::__normal_iterator.8"*, align 8
  store %"class.__gnu_cxx::__normal_iterator.8"* %this, %"class.__gnu_cxx::__normal_iterator.8"** %this.addr, align 8
  call void @llvm.dbg.declare(metadata %"class.__gnu_cxx::__normal_iterator.8"** %this.addr, metadata !3352, metadata !DIExpression()), !dbg !3353
  %this1 = load %"class.__gnu_cxx::__normal_iterator.8"*, %"class.__gnu_cxx::__normal_iterator.8"** %this.addr, align 8
  %_M_current = getelementptr inbounds %"class.__gnu_cxx::__normal_iterator.8", %"class.__gnu_cxx::__normal_iterator.8"* %this1, i32 0, i32 0, !dbg !3354
  %0 = load i32*, i32** %_M_current, align 8, !dbg !3355
  %incdec.ptr = getelementptr inbounds i32, i32* %0, i32 1, !dbg !3355
  store i32* %incdec.ptr, i32** %_M_current, align 8, !dbg !3355
  ret %"class.__gnu_cxx::__normal_iterator.8"* %this1, !dbg !3356
}

; Function Attrs: noinline uwtable
define dso_local void @_ZNK6dealii25CompressedSparsityPattern5printERSo(%"class.dealii::CompressedSparsityPattern"* %this, %"class.std::basic_ostream"* dereferenceable(272) %out) #0 align 2 personality i8* bitcast (i32 (...)* @__gxx_personality_v0 to i8*) !dbg !3357 {
entry:
  %this.addr = alloca %"class.dealii::CompressedSparsityPattern"*, align 8
  %out.addr = alloca %"class.std::basic_ostream"*, align 8
  %row = alloca i32, align 4
  %j = alloca %"class.__gnu_cxx::__normal_iterator.8", align 8
  %ref.tmp = alloca %"class.__gnu_cxx::__normal_iterator", align 8
  %ref.tmp13 = alloca %"class.__gnu_cxx::__normal_iterator", align 8
  %agg.tmp = alloca %"class.dealii::StandardExceptions::ExcIO", align 8
  %exn.slot = alloca i8*
  %ehselector.slot = alloca i32
  store %"class.dealii::CompressedSparsityPattern"* %this, %"class.dealii::CompressedSparsityPattern"** %this.addr, align 8
  call void @llvm.dbg.declare(metadata %"class.dealii::CompressedSparsityPattern"** %this.addr, metadata !3358, metadata !DIExpression()), !dbg !3359
  store %"class.std::basic_ostream"* %out, %"class.std::basic_ostream"** %out.addr, align 8
  call void @llvm.dbg.declare(metadata %"class.std::basic_ostream"** %out.addr, metadata !3360, metadata !DIExpression()), !dbg !3361
  %this1 = load %"class.dealii::CompressedSparsityPattern"*, %"class.dealii::CompressedSparsityPattern"** %this.addr, align 8
  call void @llvm.dbg.declare(metadata i32* %row, metadata !3362, metadata !DIExpression()), !dbg !3364
  store i32 0, i32* %row, align 4, !dbg !3364
  br label %for.cond, !dbg !3365

for.cond:                                         ; preds = %for.inc28, %entry
  %0 = load i32, i32* %row, align 4, !dbg !3366
  %rows = getelementptr inbounds %"class.dealii::CompressedSparsityPattern", %"class.dealii::CompressedSparsityPattern"* %this1, i32 0, i32 1, !dbg !3368
  %1 = load i32, i32* %rows, align 8, !dbg !3368
  %cmp = icmp ult i32 %0, %1, !dbg !3369
  br i1 %cmp, label %for.body, label %for.end29, !dbg !3370

for.body:                                         ; preds = %for.cond
  %lines = getelementptr inbounds %"class.dealii::CompressedSparsityPattern", %"class.dealii::CompressedSparsityPattern"* %this1, i32 0, i32 3, !dbg !3371
  %2 = load i32, i32* %row, align 4, !dbg !3374
  %conv = zext i32 %2 to i64, !dbg !3374
  %call = call dereferenceable(64) %"struct.dealii::CompressedSparsityPattern::Line"* @_ZNKSt6vectorIN6dealii25CompressedSparsityPattern4LineESaIS2_EEixEm(%"class.std::vector.3"* %lines, i64 %conv) #3, !dbg !3371
  %cache_entries = getelementptr inbounds %"struct.dealii::CompressedSparsityPattern::Line", %"struct.dealii::CompressedSparsityPattern::Line"* %call, i32 0, i32 2, !dbg !3375
  %3 = load i32, i32* %cache_entries, align 8, !dbg !3375
  %cmp2 = icmp ne i32 %3, 0, !dbg !3376
  br i1 %cmp2, label %if.then, label %if.end, !dbg !3377

if.then:                                          ; preds = %for.body
  %lines3 = getelementptr inbounds %"class.dealii::CompressedSparsityPattern", %"class.dealii::CompressedSparsityPattern"* %this1, i32 0, i32 3, !dbg !3378
  %4 = load i32, i32* %row, align 4, !dbg !3379
  %conv4 = zext i32 %4 to i64, !dbg !3379
  %call5 = call dereferenceable(64) %"struct.dealii::CompressedSparsityPattern::Line"* @_ZNKSt6vectorIN6dealii25CompressedSparsityPattern4LineESaIS2_EEixEm(%"class.std::vector.3"* %lines3, i64 %conv4) #3, !dbg !3378
  call void @_ZNK6dealii25CompressedSparsityPattern4Line11flush_cacheEv(%"struct.dealii::CompressedSparsityPattern::Line"* %call5), !dbg !3380
  br label %if.end, !dbg !3378

if.end:                                           ; preds = %if.then, %for.body
  %5 = load %"class.std::basic_ostream"*, %"class.std::basic_ostream"** %out.addr, align 8, !dbg !3381
  %call6 = call dereferenceable(272) %"class.std::basic_ostream"* @_ZStlsISt11char_traitsIcEERSt13basic_ostreamIcT_ES5_c(%"class.std::basic_ostream"* dereferenceable(272) %5, i8 signext 91), !dbg !3382
  %6 = load i32, i32* %row, align 4, !dbg !3383
  %call7 = call dereferenceable(272) %"class.std::basic_ostream"* @_ZNSolsEj(%"class.std::basic_ostream"* %call6, i32 %6), !dbg !3384
  call void @llvm.dbg.declare(metadata %"class.__gnu_cxx::__normal_iterator.8"* %j, metadata !3385, metadata !DIExpression()), !dbg !3387
  %lines8 = getelementptr inbounds %"class.dealii::CompressedSparsityPattern", %"class.dealii::CompressedSparsityPattern"* %this1, i32 0, i32 3, !dbg !3388
  %7 = load i32, i32* %row, align 4, !dbg !3389
  %conv9 = zext i32 %7 to i64, !dbg !3389
  %call10 = call dereferenceable(64) %"struct.dealii::CompressedSparsityPattern::Line"* @_ZNKSt6vectorIN6dealii25CompressedSparsityPattern4LineESaIS2_EEixEm(%"class.std::vector.3"* %lines8, i64 %conv9) #3, !dbg !3388
  %entries = getelementptr inbounds %"struct.dealii::CompressedSparsityPattern::Line", %"struct.dealii::CompressedSparsityPattern::Line"* %call10, i32 0, i32 0, !dbg !3390
  %call11 = call i32* @_ZNSt6vectorIjSaIjEE5beginEv(%"class.std::vector"* %entries) #3, !dbg !3391
  %coerce.dive = getelementptr inbounds %"class.__gnu_cxx::__normal_iterator", %"class.__gnu_cxx::__normal_iterator"* %ref.tmp, i32 0, i32 0, !dbg !3391
  store i32* %call11, i32** %coerce.dive, align 8, !dbg !3391
  call void @_ZN9__gnu_cxx17__normal_iteratorIPKjSt6vectorIjSaIjEEEC2IPjEERKNS0_IT_NS_11__enable_ifIXsr3std10__are_sameIS9_S8_EE7__valueES5_E6__typeEEE(%"class.__gnu_cxx::__normal_iterator.8"* %j, %"class.__gnu_cxx::__normal_iterator"* dereferenceable(8) %ref.tmp) #3, !dbg !3388
  br label %for.cond12, !dbg !3392

for.cond12:                                       ; preds = %for.inc, %if.end
  %lines14 = getelementptr inbounds %"class.dealii::CompressedSparsityPattern", %"class.dealii::CompressedSparsityPattern"* %this1, i32 0, i32 3, !dbg !3393
  %8 = load i32, i32* %row, align 4, !dbg !3395
  %conv15 = zext i32 %8 to i64, !dbg !3395
  %call16 = call dereferenceable(64) %"struct.dealii::CompressedSparsityPattern::Line"* @_ZNKSt6vectorIN6dealii25CompressedSparsityPattern4LineESaIS2_EEixEm(%"class.std::vector.3"* %lines14, i64 %conv15) #3, !dbg !3393
  %entries17 = getelementptr inbounds %"struct.dealii::CompressedSparsityPattern::Line", %"struct.dealii::CompressedSparsityPattern::Line"* %call16, i32 0, i32 0, !dbg !3396
  %call18 = call i32* @_ZNSt6vectorIjSaIjEE3endEv(%"class.std::vector"* %entries17) #3, !dbg !3397
  %coerce.dive19 = getelementptr inbounds %"class.__gnu_cxx::__normal_iterator", %"class.__gnu_cxx::__normal_iterator"* %ref.tmp13, i32 0, i32 0, !dbg !3397
  store i32* %call18, i32** %coerce.dive19, align 8, !dbg !3397
  %call20 = call zeroext i1 @_ZN9__gnu_cxxneIPKjPjSt6vectorIjSaIjEEEEbRKNS_17__normal_iteratorIT_T1_EERKNS7_IT0_S9_EE(%"class.__gnu_cxx::__normal_iterator.8"* dereferenceable(8) %j, %"class.__gnu_cxx::__normal_iterator"* dereferenceable(8) %ref.tmp13) #3, !dbg !3398
  br i1 %call20, label %for.body21, label %for.end, !dbg !3399

for.body21:                                       ; preds = %for.cond12
  %9 = load %"class.std::basic_ostream"*, %"class.std::basic_ostream"** %out.addr, align 8, !dbg !3400
  %call22 = call dereferenceable(272) %"class.std::basic_ostream"* @_ZStlsISt11char_traitsIcEERSt13basic_ostreamIcT_ES5_c(%"class.std::basic_ostream"* dereferenceable(272) %9, i8 signext 44), !dbg !3401
  %call23 = call dereferenceable(4) i32* @_ZNK9__gnu_cxx17__normal_iteratorIPKjSt6vectorIjSaIjEEEdeEv(%"class.__gnu_cxx::__normal_iterator.8"* %j) #3, !dbg !3402
  %10 = load i32, i32* %call23, align 4, !dbg !3402
  %call24 = call dereferenceable(272) %"class.std::basic_ostream"* @_ZNSolsEj(%"class.std::basic_ostream"* %call22, i32 %10), !dbg !3403
  br label %for.inc, !dbg !3400

for.inc:                                          ; preds = %for.body21
  %call25 = call dereferenceable(8) %"class.__gnu_cxx::__normal_iterator.8"* @_ZN9__gnu_cxx17__normal_iteratorIPKjSt6vectorIjSaIjEEEppEv(%"class.__gnu_cxx::__normal_iterator.8"* %j) #3, !dbg !3404
  br label %for.cond12, !dbg !3405, !llvm.loop !3406

for.end:                                          ; preds = %for.cond12
  %11 = load %"class.std::basic_ostream"*, %"class.std::basic_ostream"** %out.addr, align 8, !dbg !3408
  %call26 = call dereferenceable(272) %"class.std::basic_ostream"* @_ZStlsISt11char_traitsIcEERSt13basic_ostreamIcT_ES5_c(%"class.std::basic_ostream"* dereferenceable(272) %11, i8 signext 93), !dbg !3409
  %call27 = call dereferenceable(272) %"class.std::basic_ostream"* @_ZNSolsEPFRSoS_E(%"class.std::basic_ostream"* %call26, %"class.std::basic_ostream"* (%"class.std::basic_ostream"*)* @_ZSt4endlIcSt11char_traitsIcEERSt13basic_ostreamIT_T0_ES6_), !dbg !3410
  br label %for.inc28, !dbg !3411

for.inc28:                                        ; preds = %for.end
  %12 = load i32, i32* %row, align 4, !dbg !3412
  %inc = add i32 %12, 1, !dbg !3412
  store i32 %inc, i32* %row, align 4, !dbg !3412
  br label %for.cond, !dbg !3413, !llvm.loop !3414

for.end29:                                        ; preds = %for.cond
  %13 = load %"class.std::basic_ostream"*, %"class.std::basic_ostream"** %out.addr, align 8, !dbg !3416
  %14 = bitcast %"class.std::basic_ostream"* %13 to i8**, !dbg !3416
  %vtable = load i8*, i8** %14, align 8, !dbg !3416
  %vbase.offset.ptr = getelementptr i8, i8* %vtable, i64 -24, !dbg !3416
  %15 = bitcast i8* %vbase.offset.ptr to i64*, !dbg !3416
  %vbase.offset = load i64, i64* %15, align 8, !dbg !3416
  %16 = bitcast %"class.std::basic_ostream"* %13 to i8*, !dbg !3416
  %add.ptr = getelementptr inbounds i8, i8* %16, i64 %vbase.offset, !dbg !3416
  %17 = bitcast i8* %add.ptr to %"class.std::basic_ios"*, !dbg !3416
  %call30 = call zeroext i1 @_ZNKSt9basic_iosIcSt11char_traitsIcEEntEv(%"class.std::basic_ios"* %17), !dbg !3416
  br i1 %call30, label %if.then31, label %if.end32, !dbg !3419

if.then31:                                        ; preds = %for.end29
  %18 = bitcast %"class.dealii::StandardExceptions::ExcIO"* %agg.tmp to i8*, !dbg !3416
  call void @llvm.memset.p0i8.i64(i8* align 8 %18, i8 0, i64 64, i1 false), !dbg !3416
  call void @_ZN6dealii18StandardExceptions5ExcIOC2Ev(%"class.dealii::StandardExceptions::ExcIO"* %agg.tmp), !dbg !3416
  invoke void @_ZN6dealii18deal_II_exceptions9internals17issue_error_throwINS_18StandardExceptions5ExcIOEEEvPKciS6_S6_S6_T_(i8* getelementptr inbounds ([42 x i8], [42 x i8]* @.str, i64 0, i64 0), i32 368, i8* getelementptr inbounds ([1 x i8], [1 x i8]* @.str.1, i64 0, i64 0), i8* getelementptr inbounds ([4 x i8], [4 x i8]* @.str.2, i64 0, i64 0), i8* getelementptr inbounds ([8 x i8], [8 x i8]* @.str.3, i64 0, i64 0), %"class.dealii::StandardExceptions::ExcIO"* %agg.tmp)
          to label %invoke.cont unwind label %lpad, !dbg !3416

invoke.cont:                                      ; preds = %if.then31
  call void @_ZN6dealii18StandardExceptions5ExcIOD2Ev(%"class.dealii::StandardExceptions::ExcIO"* %agg.tmp) #3, !dbg !3416
  br label %if.end32, !dbg !3416

lpad:                                             ; preds = %if.then31
  %19 = landingpad { i8*, i32 }
          cleanup, !dbg !3420
  %20 = extractvalue { i8*, i32 } %19, 0, !dbg !3420
  store i8* %20, i8** %exn.slot, align 8, !dbg !3420
  %21 = extractvalue { i8*, i32 } %19, 1, !dbg !3420
  store i32 %21, i32* %ehselector.slot, align 4, !dbg !3420
  call void @_ZN6dealii18StandardExceptions5ExcIOD2Ev(%"class.dealii::StandardExceptions::ExcIO"* %agg.tmp) #3, !dbg !3416
  br label %eh.resume, !dbg !3416

if.end32:                                         ; preds = %invoke.cont, %for.end29
  ret void, !dbg !3421

eh.resume:                                        ; preds = %lpad
  %exn = load i8*, i8** %exn.slot, align 8, !dbg !3416
  %sel = load i32, i32* %ehselector.slot, align 4, !dbg !3416
  %lpad.val = insertvalue { i8*, i32 } undef, i8* %exn, 0, !dbg !3416
  %lpad.val33 = insertvalue { i8*, i32 } %lpad.val, i32 %sel, 1, !dbg !3416
  resume { i8*, i32 } %lpad.val33, !dbg !3416
}

declare dso_local dereferenceable(272) %"class.std::basic_ostream"* @_ZStlsISt11char_traitsIcEERSt13basic_ostreamIcT_ES5_c(%"class.std::basic_ostream"* dereferenceable(272), i8 signext) #1

declare dso_local dereferenceable(272) %"class.std::basic_ostream"* @_ZNSolsEj(%"class.std::basic_ostream"*, i32) #1

declare dso_local dereferenceable(272) %"class.std::basic_ostream"* @_ZNSolsEPFRSoS_E(%"class.std::basic_ostream"*, %"class.std::basic_ostream"* (%"class.std::basic_ostream"*)*) #1

declare dso_local dereferenceable(272) %"class.std::basic_ostream"* @_ZSt4endlIcSt11char_traitsIcEERSt13basic_ostreamIT_T0_ES6_(%"class.std::basic_ostream"* dereferenceable(272)) #1

declare dso_local zeroext i1 @_ZNKSt9basic_iosIcSt11char_traitsIcEEntEv(%"class.std::basic_ios"*) #1

; Function Attrs: noinline uwtable
define linkonce_odr dso_local void @_ZN6dealii18deal_II_exceptions9internals17issue_error_throwINS_18StandardExceptions5ExcIOEEEvPKciS6_S6_S6_T_(i8* %file, i32 %line, i8* %function, i8* %cond, i8* %exc_name, %"class.dealii::StandardExceptions::ExcIO"* %e) #0 comdat personality i8* bitcast (i32 (...)* @__gxx_personality_v0 to i8*) !dbg !3422 {
entry:
  %file.addr = alloca i8*, align 8
  %line.addr = alloca i32, align 4
  %function.addr = alloca i8*, align 8
  %cond.addr = alloca i8*, align 8
  %exc_name.addr = alloca i8*, align 8
  %exn.slot = alloca i8*
  %ehselector.slot = alloca i32
  store i8* %file, i8** %file.addr, align 8
  call void @llvm.dbg.declare(metadata i8** %file.addr, metadata !3435, metadata !DIExpression()), !dbg !3436
  store i32 %line, i32* %line.addr, align 4
  call void @llvm.dbg.declare(metadata i32* %line.addr, metadata !3437, metadata !DIExpression()), !dbg !3438
  store i8* %function, i8** %function.addr, align 8
  call void @llvm.dbg.declare(metadata i8** %function.addr, metadata !3439, metadata !DIExpression()), !dbg !3440
  store i8* %cond, i8** %cond.addr, align 8
  call void @llvm.dbg.declare(metadata i8** %cond.addr, metadata !3441, metadata !DIExpression()), !dbg !3442
  store i8* %exc_name, i8** %exc_name.addr, align 8
  call void @llvm.dbg.declare(metadata i8** %exc_name.addr, metadata !3443, metadata !DIExpression()), !dbg !3444
  call void @llvm.dbg.declare(metadata %"class.dealii::StandardExceptions::ExcIO"* %e, metadata !3445, metadata !DIExpression()), !dbg !3446
  %0 = bitcast %"class.dealii::StandardExceptions::ExcIO"* %e to %"class.dealii::ExceptionBase"*, !dbg !3447
  %1 = load i8*, i8** %file.addr, align 8, !dbg !3448
  %2 = load i32, i32* %line.addr, align 4, !dbg !3449
  %3 = load i8*, i8** %function.addr, align 8, !dbg !3450
  %4 = load i8*, i8** %cond.addr, align 8, !dbg !3451
  %5 = load i8*, i8** %exc_name.addr, align 8, !dbg !3452
  call void @_ZN6dealii13ExceptionBase10set_fieldsEPKciS2_S2_S2_(%"class.dealii::ExceptionBase"* %0, i8* %1, i32 %2, i8* %3, i8* %4, i8* %5), !dbg !3453
  %exception = call i8* @__cxa_allocate_exception(i64 64) #3, !dbg !3454
  %6 = bitcast i8* %exception to %"class.dealii::StandardExceptions::ExcIO"*, !dbg !3454
  invoke void @_ZN6dealii18StandardExceptions5ExcIOC2EOS1_(%"class.dealii::StandardExceptions::ExcIO"* %6, %"class.dealii::StandardExceptions::ExcIO"* dereferenceable(64) %e)
          to label %invoke.cont unwind label %lpad, !dbg !3455

invoke.cont:                                      ; preds = %entry
  call void @__cxa_throw(i8* %exception, i8* bitcast ({ i8*, i8*, i8* }* @_ZTIN6dealii18StandardExceptions5ExcIOE to i8*), i8* bitcast (void (%"class.dealii::StandardExceptions::ExcIO"*)* @_ZN6dealii18StandardExceptions5ExcIOD2Ev to i8*)) #14, !dbg !3454
  unreachable, !dbg !3454

lpad:                                             ; preds = %entry
  %7 = landingpad { i8*, i32 }
          cleanup, !dbg !3456
  %8 = extractvalue { i8*, i32 } %7, 0, !dbg !3456
  store i8* %8, i8** %exn.slot, align 8, !dbg !3456
  %9 = extractvalue { i8*, i32 } %7, 1, !dbg !3456
  store i32 %9, i32* %ehselector.slot, align 4, !dbg !3456
  call void @__cxa_free_exception(i8* %exception) #3, !dbg !3454
  br label %eh.resume, !dbg !3454

eh.resume:                                        ; preds = %lpad
  %exn = load i8*, i8** %exn.slot, align 8, !dbg !3454
  %sel = load i32, i32* %ehselector.slot, align 4, !dbg !3454
  %lpad.val = insertvalue { i8*, i32 } undef, i8* %exn, 0, !dbg !3454
  %lpad.val1 = insertvalue { i8*, i32 } %lpad.val, i32 %sel, 1, !dbg !3454
  resume { i8*, i32 } %lpad.val1, !dbg !3454
}

; Function Attrs: argmemonly nounwind willreturn
declare void @llvm.memset.p0i8.i64(i8* nocapture writeonly, i8, i64, i1 immarg) #6

; Function Attrs: noinline uwtable
define linkonce_odr dso_local void @_ZN6dealii18StandardExceptions5ExcIOC2Ev(%"class.dealii::StandardExceptions::ExcIO"* %this) unnamed_addr #0 comdat align 2 !dbg !3457 {
entry:
  %this.addr = alloca %"class.dealii::StandardExceptions::ExcIO"*, align 8
  store %"class.dealii::StandardExceptions::ExcIO"* %this, %"class.dealii::StandardExceptions::ExcIO"** %this.addr, align 8
  call void @llvm.dbg.declare(metadata %"class.dealii::StandardExceptions::ExcIO"** %this.addr, metadata !3462, metadata !DIExpression()), !dbg !3464
  %this1 = load %"class.dealii::StandardExceptions::ExcIO"*, %"class.dealii::StandardExceptions::ExcIO"** %this.addr, align 8
  %0 = bitcast %"class.dealii::StandardExceptions::ExcIO"* %this1 to %"class.dealii::ExceptionBase"*, !dbg !3465
  call void @_ZN6dealii13ExceptionBaseC2Ev(%"class.dealii::ExceptionBase"* %0), !dbg !3465
  %1 = bitcast %"class.dealii::StandardExceptions::ExcIO"* %this1 to i32 (...)***, !dbg !3465
  store i32 (...)** bitcast (i8** getelementptr inbounds ({ [6 x i8*] }, { [6 x i8*] }* @_ZTVN6dealii18StandardExceptions5ExcIOE, i32 0, inrange i32 0, i32 2) to i32 (...)**), i32 (...)*** %1, align 8, !dbg !3465
  ret void, !dbg !3465
}

; Function Attrs: noinline nounwind uwtable
define linkonce_odr dso_local void @_ZN6dealii18StandardExceptions5ExcIOD2Ev(%"class.dealii::StandardExceptions::ExcIO"* %this) unnamed_addr #5 comdat align 2 !dbg !3466 {
entry:
  %this.addr = alloca %"class.dealii::StandardExceptions::ExcIO"*, align 8
  store %"class.dealii::StandardExceptions::ExcIO"* %this, %"class.dealii::StandardExceptions::ExcIO"** %this.addr, align 8
  call void @llvm.dbg.declare(metadata %"class.dealii::StandardExceptions::ExcIO"** %this.addr, metadata !3468, metadata !DIExpression()), !dbg !3469
  %this1 = load %"class.dealii::StandardExceptions::ExcIO"*, %"class.dealii::StandardExceptions::ExcIO"** %this.addr, align 8
  %0 = bitcast %"class.dealii::StandardExceptions::ExcIO"* %this1 to %"class.dealii::ExceptionBase"*, !dbg !3470
  call void @_ZN6dealii13ExceptionBaseD2Ev(%"class.dealii::ExceptionBase"* %0) #3, !dbg !3470
  ret void, !dbg !3472
}

; Function Attrs: noinline uwtable
define dso_local void @_ZNK6dealii25CompressedSparsityPattern13print_gnuplotERSo(%"class.dealii::CompressedSparsityPattern"* %this, %"class.std::basic_ostream"* dereferenceable(272) %out) #0 align 2 personality i8* bitcast (i32 (...)* @__gxx_personality_v0 to i8*) !dbg !3473 {
entry:
  %this.addr = alloca %"class.dealii::CompressedSparsityPattern"*, align 8
  %out.addr = alloca %"class.std::basic_ostream"*, align 8
  %row = alloca i32, align 4
  %j = alloca %"class.__gnu_cxx::__normal_iterator.8", align 8
  %ref.tmp = alloca %"class.__gnu_cxx::__normal_iterator", align 8
  %ref.tmp11 = alloca %"class.__gnu_cxx::__normal_iterator", align 8
  %agg.tmp = alloca %"class.dealii::StandardExceptions::ExcIO", align 8
  %exn.slot = alloca i8*
  %ehselector.slot = alloca i32
  store %"class.dealii::CompressedSparsityPattern"* %this, %"class.dealii::CompressedSparsityPattern"** %this.addr, align 8
  call void @llvm.dbg.declare(metadata %"class.dealii::CompressedSparsityPattern"** %this.addr, metadata !3474, metadata !DIExpression()), !dbg !3475
  store %"class.std::basic_ostream"* %out, %"class.std::basic_ostream"** %out.addr, align 8
  call void @llvm.dbg.declare(metadata %"class.std::basic_ostream"** %out.addr, metadata !3476, metadata !DIExpression()), !dbg !3477
  %this1 = load %"class.dealii::CompressedSparsityPattern"*, %"class.dealii::CompressedSparsityPattern"** %this.addr, align 8
  call void @llvm.dbg.declare(metadata i32* %row, metadata !3478, metadata !DIExpression()), !dbg !3480
  store i32 0, i32* %row, align 4, !dbg !3480
  br label %for.cond, !dbg !3481

for.cond:                                         ; preds = %for.inc26, %entry
  %0 = load i32, i32* %row, align 4, !dbg !3482
  %rows = getelementptr inbounds %"class.dealii::CompressedSparsityPattern", %"class.dealii::CompressedSparsityPattern"* %this1, i32 0, i32 1, !dbg !3484
  %1 = load i32, i32* %rows, align 8, !dbg !3484
  %cmp = icmp ult i32 %0, %1, !dbg !3485
  br i1 %cmp, label %for.body, label %for.end27, !dbg !3486

for.body:                                         ; preds = %for.cond
  %lines = getelementptr inbounds %"class.dealii::CompressedSparsityPattern", %"class.dealii::CompressedSparsityPattern"* %this1, i32 0, i32 3, !dbg !3487
  %2 = load i32, i32* %row, align 4, !dbg !3490
  %conv = zext i32 %2 to i64, !dbg !3490
  %call = call dereferenceable(64) %"struct.dealii::CompressedSparsityPattern::Line"* @_ZNKSt6vectorIN6dealii25CompressedSparsityPattern4LineESaIS2_EEixEm(%"class.std::vector.3"* %lines, i64 %conv) #3, !dbg !3487
  %cache_entries = getelementptr inbounds %"struct.dealii::CompressedSparsityPattern::Line", %"struct.dealii::CompressedSparsityPattern::Line"* %call, i32 0, i32 2, !dbg !3491
  %3 = load i32, i32* %cache_entries, align 8, !dbg !3491
  %cmp2 = icmp ne i32 %3, 0, !dbg !3492
  br i1 %cmp2, label %if.then, label %if.end, !dbg !3493

if.then:                                          ; preds = %for.body
  %lines3 = getelementptr inbounds %"class.dealii::CompressedSparsityPattern", %"class.dealii::CompressedSparsityPattern"* %this1, i32 0, i32 3, !dbg !3494
  %4 = load i32, i32* %row, align 4, !dbg !3495
  %conv4 = zext i32 %4 to i64, !dbg !3495
  %call5 = call dereferenceable(64) %"struct.dealii::CompressedSparsityPattern::Line"* @_ZNKSt6vectorIN6dealii25CompressedSparsityPattern4LineESaIS2_EEixEm(%"class.std::vector.3"* %lines3, i64 %conv4) #3, !dbg !3494
  call void @_ZNK6dealii25CompressedSparsityPattern4Line11flush_cacheEv(%"struct.dealii::CompressedSparsityPattern::Line"* %call5), !dbg !3496
  br label %if.end, !dbg !3494

if.end:                                           ; preds = %if.then, %for.body
  call void @llvm.dbg.declare(metadata %"class.__gnu_cxx::__normal_iterator.8"* %j, metadata !3497, metadata !DIExpression()), !dbg !3499
  %lines6 = getelementptr inbounds %"class.dealii::CompressedSparsityPattern", %"class.dealii::CompressedSparsityPattern"* %this1, i32 0, i32 3, !dbg !3500
  %5 = load i32, i32* %row, align 4, !dbg !3501
  %conv7 = zext i32 %5 to i64, !dbg !3501
  %call8 = call dereferenceable(64) %"struct.dealii::CompressedSparsityPattern::Line"* @_ZNKSt6vectorIN6dealii25CompressedSparsityPattern4LineESaIS2_EEixEm(%"class.std::vector.3"* %lines6, i64 %conv7) #3, !dbg !3500
  %entries = getelementptr inbounds %"struct.dealii::CompressedSparsityPattern::Line", %"struct.dealii::CompressedSparsityPattern::Line"* %call8, i32 0, i32 0, !dbg !3502
  %call9 = call i32* @_ZNSt6vectorIjSaIjEE5beginEv(%"class.std::vector"* %entries) #3, !dbg !3503
  %coerce.dive = getelementptr inbounds %"class.__gnu_cxx::__normal_iterator", %"class.__gnu_cxx::__normal_iterator"* %ref.tmp, i32 0, i32 0, !dbg !3503
  store i32* %call9, i32** %coerce.dive, align 8, !dbg !3503
  call void @_ZN9__gnu_cxx17__normal_iteratorIPKjSt6vectorIjSaIjEEEC2IPjEERKNS0_IT_NS_11__enable_ifIXsr3std10__are_sameIS9_S8_EE7__valueES5_E6__typeEEE(%"class.__gnu_cxx::__normal_iterator.8"* %j, %"class.__gnu_cxx::__normal_iterator"* dereferenceable(8) %ref.tmp) #3, !dbg !3500
  br label %for.cond10, !dbg !3504

for.cond10:                                       ; preds = %for.inc, %if.end
  %lines12 = getelementptr inbounds %"class.dealii::CompressedSparsityPattern", %"class.dealii::CompressedSparsityPattern"* %this1, i32 0, i32 3, !dbg !3505
  %6 = load i32, i32* %row, align 4, !dbg !3507
  %conv13 = zext i32 %6 to i64, !dbg !3507
  %call14 = call dereferenceable(64) %"struct.dealii::CompressedSparsityPattern::Line"* @_ZNKSt6vectorIN6dealii25CompressedSparsityPattern4LineESaIS2_EEixEm(%"class.std::vector.3"* %lines12, i64 %conv13) #3, !dbg !3505
  %entries15 = getelementptr inbounds %"struct.dealii::CompressedSparsityPattern::Line", %"struct.dealii::CompressedSparsityPattern::Line"* %call14, i32 0, i32 0, !dbg !3508
  %call16 = call i32* @_ZNSt6vectorIjSaIjEE3endEv(%"class.std::vector"* %entries15) #3, !dbg !3509
  %coerce.dive17 = getelementptr inbounds %"class.__gnu_cxx::__normal_iterator", %"class.__gnu_cxx::__normal_iterator"* %ref.tmp11, i32 0, i32 0, !dbg !3509
  store i32* %call16, i32** %coerce.dive17, align 8, !dbg !3509
  %call18 = call zeroext i1 @_ZN9__gnu_cxxneIPKjPjSt6vectorIjSaIjEEEEbRKNS_17__normal_iteratorIT_T1_EERKNS7_IT0_S9_EE(%"class.__gnu_cxx::__normal_iterator.8"* dereferenceable(8) %j, %"class.__gnu_cxx::__normal_iterator"* dereferenceable(8) %ref.tmp11) #3, !dbg !3510
  br i1 %call18, label %for.body19, label %for.end, !dbg !3511

for.body19:                                       ; preds = %for.cond10
  %7 = load %"class.std::basic_ostream"*, %"class.std::basic_ostream"** %out.addr, align 8, !dbg !3512
  %call20 = call dereferenceable(4) i32* @_ZNK9__gnu_cxx17__normal_iteratorIPKjSt6vectorIjSaIjEEEdeEv(%"class.__gnu_cxx::__normal_iterator.8"* %j) #3, !dbg !3513
  %8 = load i32, i32* %call20, align 4, !dbg !3513
  %call21 = call dereferenceable(272) %"class.std::basic_ostream"* @_ZNSolsEj(%"class.std::basic_ostream"* %7, i32 %8), !dbg !3514
  %call22 = call dereferenceable(272) %"class.std::basic_ostream"* @_ZStlsISt11char_traitsIcEERSt13basic_ostreamIcT_ES5_PKc(%"class.std::basic_ostream"* dereferenceable(272) %call21, i8* getelementptr inbounds ([2 x i8], [2 x i8]* @.str.4, i64 0, i64 0)), !dbg !3515
  %9 = load i32, i32* %row, align 4, !dbg !3516
  %sub = sub nsw i32 0, %9, !dbg !3517
  %call23 = call dereferenceable(272) %"class.std::basic_ostream"* @_ZNSolsEi(%"class.std::basic_ostream"* %call22, i32 %sub), !dbg !3518
  %call24 = call dereferenceable(272) %"class.std::basic_ostream"* @_ZNSolsEPFRSoS_E(%"class.std::basic_ostream"* %call23, %"class.std::basic_ostream"* (%"class.std::basic_ostream"*)* @_ZSt4endlIcSt11char_traitsIcEERSt13basic_ostreamIT_T0_ES6_), !dbg !3519
  br label %for.inc, !dbg !3512

for.inc:                                          ; preds = %for.body19
  %call25 = call dereferenceable(8) %"class.__gnu_cxx::__normal_iterator.8"* @_ZN9__gnu_cxx17__normal_iteratorIPKjSt6vectorIjSaIjEEEppEv(%"class.__gnu_cxx::__normal_iterator.8"* %j) #3, !dbg !3520
  br label %for.cond10, !dbg !3521, !llvm.loop !3522

for.end:                                          ; preds = %for.cond10
  br label %for.inc26, !dbg !3524

for.inc26:                                        ; preds = %for.end
  %10 = load i32, i32* %row, align 4, !dbg !3525
  %inc = add i32 %10, 1, !dbg !3525
  store i32 %inc, i32* %row, align 4, !dbg !3525
  br label %for.cond, !dbg !3526, !llvm.loop !3527

for.end27:                                        ; preds = %for.cond
  %11 = load %"class.std::basic_ostream"*, %"class.std::basic_ostream"** %out.addr, align 8, !dbg !3529
  %12 = bitcast %"class.std::basic_ostream"* %11 to i8**, !dbg !3529
  %vtable = load i8*, i8** %12, align 8, !dbg !3529
  %vbase.offset.ptr = getelementptr i8, i8* %vtable, i64 -24, !dbg !3529
  %13 = bitcast i8* %vbase.offset.ptr to i64*, !dbg !3529
  %vbase.offset = load i64, i64* %13, align 8, !dbg !3529
  %14 = bitcast %"class.std::basic_ostream"* %11 to i8*, !dbg !3529
  %add.ptr = getelementptr inbounds i8, i8* %14, i64 %vbase.offset, !dbg !3529
  %15 = bitcast i8* %add.ptr to %"class.std::basic_ios"*, !dbg !3529
  %call28 = call zeroext i1 @_ZNKSt9basic_iosIcSt11char_traitsIcEEntEv(%"class.std::basic_ios"* %15), !dbg !3529
  br i1 %call28, label %if.then29, label %if.end30, !dbg !3532

if.then29:                                        ; preds = %for.end27
  %16 = bitcast %"class.dealii::StandardExceptions::ExcIO"* %agg.tmp to i8*, !dbg !3529
  call void @llvm.memset.p0i8.i64(i8* align 8 %16, i8 0, i64 64, i1 false), !dbg !3529
  call void @_ZN6dealii18StandardExceptions5ExcIOC2Ev(%"class.dealii::StandardExceptions::ExcIO"* %agg.tmp), !dbg !3529
  invoke void @_ZN6dealii18deal_II_exceptions9internals17issue_error_throwINS_18StandardExceptions5ExcIOEEEvPKciS6_S6_S6_T_(i8* getelementptr inbounds ([42 x i8], [42 x i8]* @.str, i64 0, i64 0), i32 391, i8* getelementptr inbounds ([1 x i8], [1 x i8]* @.str.1, i64 0, i64 0), i8* getelementptr inbounds ([4 x i8], [4 x i8]* @.str.2, i64 0, i64 0), i8* getelementptr inbounds ([8 x i8], [8 x i8]* @.str.3, i64 0, i64 0), %"class.dealii::StandardExceptions::ExcIO"* %agg.tmp)
          to label %invoke.cont unwind label %lpad, !dbg !3529

invoke.cont:                                      ; preds = %if.then29
  call void @_ZN6dealii18StandardExceptions5ExcIOD2Ev(%"class.dealii::StandardExceptions::ExcIO"* %agg.tmp) #3, !dbg !3529
  br label %if.end30, !dbg !3529

lpad:                                             ; preds = %if.then29
  %17 = landingpad { i8*, i32 }
          cleanup, !dbg !3533
  %18 = extractvalue { i8*, i32 } %17, 0, !dbg !3533
  store i8* %18, i8** %exn.slot, align 8, !dbg !3533
  %19 = extractvalue { i8*, i32 } %17, 1, !dbg !3533
  store i32 %19, i32* %ehselector.slot, align 4, !dbg !3533
  call void @_ZN6dealii18StandardExceptions5ExcIOD2Ev(%"class.dealii::StandardExceptions::ExcIO"* %agg.tmp) #3, !dbg !3529
  br label %eh.resume, !dbg !3529

if.end30:                                         ; preds = %invoke.cont, %for.end27
  ret void, !dbg !3534

eh.resume:                                        ; preds = %lpad
  %exn = load i8*, i8** %exn.slot, align 8, !dbg !3529
  %sel = load i32, i32* %ehselector.slot, align 4, !dbg !3529
  %lpad.val = insertvalue { i8*, i32 } undef, i8* %exn, 0, !dbg !3529
  %lpad.val31 = insertvalue { i8*, i32 } %lpad.val, i32 %sel, 1, !dbg !3529
  resume { i8*, i32 } %lpad.val31, !dbg !3529
}

declare dso_local dereferenceable(272) %"class.std::basic_ostream"* @_ZStlsISt11char_traitsIcEERSt13basic_ostreamIcT_ES5_PKc(%"class.std::basic_ostream"* dereferenceable(272), i8*) #1

declare dso_local dereferenceable(272) %"class.std::basic_ostream"* @_ZNSolsEi(%"class.std::basic_ostream"*, i32) #1

; Function Attrs: noinline uwtable
define dso_local i32 @_ZNK6dealii25CompressedSparsityPattern9bandwidthEv(%"class.dealii::CompressedSparsityPattern"* %this) #0 align 2 !dbg !3535 {
entry:
  %this.addr = alloca %"class.dealii::CompressedSparsityPattern"*, align 8
  %b = alloca i32, align 4
  %row = alloca i32, align 4
  %j = alloca %"class.__gnu_cxx::__normal_iterator.8", align 8
  %ref.tmp = alloca %"class.__gnu_cxx::__normal_iterator", align 8
  %ref.tmp11 = alloca %"class.__gnu_cxx::__normal_iterator", align 8
  store %"class.dealii::CompressedSparsityPattern"* %this, %"class.dealii::CompressedSparsityPattern"** %this.addr, align 8
  call void @llvm.dbg.declare(metadata %"class.dealii::CompressedSparsityPattern"** %this.addr, metadata !3536, metadata !DIExpression()), !dbg !3537
  %this1 = load %"class.dealii::CompressedSparsityPattern"*, %"class.dealii::CompressedSparsityPattern"** %this.addr, align 8
  call void @llvm.dbg.declare(metadata i32* %b, metadata !3538, metadata !DIExpression()), !dbg !3539
  store i32 0, i32* %b, align 4, !dbg !3539
  call void @llvm.dbg.declare(metadata i32* %row, metadata !3540, metadata !DIExpression()), !dbg !3542
  store i32 0, i32* %row, align 4, !dbg !3542
  br label %for.cond, !dbg !3543

for.cond:                                         ; preds = %for.inc29, %entry
  %0 = load i32, i32* %row, align 4, !dbg !3544
  %rows = getelementptr inbounds %"class.dealii::CompressedSparsityPattern", %"class.dealii::CompressedSparsityPattern"* %this1, i32 0, i32 1, !dbg !3546
  %1 = load i32, i32* %rows, align 8, !dbg !3546
  %cmp = icmp ult i32 %0, %1, !dbg !3547
  br i1 %cmp, label %for.body, label %for.end30, !dbg !3548

for.body:                                         ; preds = %for.cond
  %lines = getelementptr inbounds %"class.dealii::CompressedSparsityPattern", %"class.dealii::CompressedSparsityPattern"* %this1, i32 0, i32 3, !dbg !3549
  %2 = load i32, i32* %row, align 4, !dbg !3552
  %conv = zext i32 %2 to i64, !dbg !3552
  %call = call dereferenceable(64) %"struct.dealii::CompressedSparsityPattern::Line"* @_ZNKSt6vectorIN6dealii25CompressedSparsityPattern4LineESaIS2_EEixEm(%"class.std::vector.3"* %lines, i64 %conv) #3, !dbg !3549
  %cache_entries = getelementptr inbounds %"struct.dealii::CompressedSparsityPattern::Line", %"struct.dealii::CompressedSparsityPattern::Line"* %call, i32 0, i32 2, !dbg !3553
  %3 = load i32, i32* %cache_entries, align 8, !dbg !3553
  %cmp2 = icmp ne i32 %3, 0, !dbg !3554
  br i1 %cmp2, label %if.then, label %if.end, !dbg !3555

if.then:                                          ; preds = %for.body
  %lines3 = getelementptr inbounds %"class.dealii::CompressedSparsityPattern", %"class.dealii::CompressedSparsityPattern"* %this1, i32 0, i32 3, !dbg !3556
  %4 = load i32, i32* %row, align 4, !dbg !3557
  %conv4 = zext i32 %4 to i64, !dbg !3557
  %call5 = call dereferenceable(64) %"struct.dealii::CompressedSparsityPattern::Line"* @_ZNKSt6vectorIN6dealii25CompressedSparsityPattern4LineESaIS2_EEixEm(%"class.std::vector.3"* %lines3, i64 %conv4) #3, !dbg !3556
  call void @_ZNK6dealii25CompressedSparsityPattern4Line11flush_cacheEv(%"struct.dealii::CompressedSparsityPattern::Line"* %call5), !dbg !3558
  br label %if.end, !dbg !3556

if.end:                                           ; preds = %if.then, %for.body
  call void @llvm.dbg.declare(metadata %"class.__gnu_cxx::__normal_iterator.8"* %j, metadata !3559, metadata !DIExpression()), !dbg !3561
  %lines6 = getelementptr inbounds %"class.dealii::CompressedSparsityPattern", %"class.dealii::CompressedSparsityPattern"* %this1, i32 0, i32 3, !dbg !3562
  %5 = load i32, i32* %row, align 4, !dbg !3563
  %conv7 = zext i32 %5 to i64, !dbg !3563
  %call8 = call dereferenceable(64) %"struct.dealii::CompressedSparsityPattern::Line"* @_ZNKSt6vectorIN6dealii25CompressedSparsityPattern4LineESaIS2_EEixEm(%"class.std::vector.3"* %lines6, i64 %conv7) #3, !dbg !3562
  %entries = getelementptr inbounds %"struct.dealii::CompressedSparsityPattern::Line", %"struct.dealii::CompressedSparsityPattern::Line"* %call8, i32 0, i32 0, !dbg !3564
  %call9 = call i32* @_ZNSt6vectorIjSaIjEE5beginEv(%"class.std::vector"* %entries) #3, !dbg !3565
  %coerce.dive = getelementptr inbounds %"class.__gnu_cxx::__normal_iterator", %"class.__gnu_cxx::__normal_iterator"* %ref.tmp, i32 0, i32 0, !dbg !3565
  store i32* %call9, i32** %coerce.dive, align 8, !dbg !3565
  call void @_ZN9__gnu_cxx17__normal_iteratorIPKjSt6vectorIjSaIjEEEC2IPjEERKNS0_IT_NS_11__enable_ifIXsr3std10__are_sameIS9_S8_EE7__valueES5_E6__typeEEE(%"class.__gnu_cxx::__normal_iterator.8"* %j, %"class.__gnu_cxx::__normal_iterator"* dereferenceable(8) %ref.tmp) #3, !dbg !3562
  br label %for.cond10, !dbg !3566

for.cond10:                                       ; preds = %for.inc, %if.end
  %lines12 = getelementptr inbounds %"class.dealii::CompressedSparsityPattern", %"class.dealii::CompressedSparsityPattern"* %this1, i32 0, i32 3, !dbg !3567
  %6 = load i32, i32* %row, align 4, !dbg !3569
  %conv13 = zext i32 %6 to i64, !dbg !3569
  %call14 = call dereferenceable(64) %"struct.dealii::CompressedSparsityPattern::Line"* @_ZNKSt6vectorIN6dealii25CompressedSparsityPattern4LineESaIS2_EEixEm(%"class.std::vector.3"* %lines12, i64 %conv13) #3, !dbg !3567
  %entries15 = getelementptr inbounds %"struct.dealii::CompressedSparsityPattern::Line", %"struct.dealii::CompressedSparsityPattern::Line"* %call14, i32 0, i32 0, !dbg !3570
  %call16 = call i32* @_ZNSt6vectorIjSaIjEE3endEv(%"class.std::vector"* %entries15) #3, !dbg !3571
  %coerce.dive17 = getelementptr inbounds %"class.__gnu_cxx::__normal_iterator", %"class.__gnu_cxx::__normal_iterator"* %ref.tmp11, i32 0, i32 0, !dbg !3571
  store i32* %call16, i32** %coerce.dive17, align 8, !dbg !3571
  %call18 = call zeroext i1 @_ZN9__gnu_cxxneIPKjPjSt6vectorIjSaIjEEEEbRKNS_17__normal_iteratorIT_T1_EERKNS7_IT0_S9_EE(%"class.__gnu_cxx::__normal_iterator.8"* dereferenceable(8) %j, %"class.__gnu_cxx::__normal_iterator"* dereferenceable(8) %ref.tmp11) #3, !dbg !3572
  br i1 %call18, label %for.body19, label %for.end, !dbg !3573

for.body19:                                       ; preds = %for.cond10
  %7 = load i32, i32* %row, align 4, !dbg !3574
  %call20 = call dereferenceable(4) i32* @_ZNK9__gnu_cxx17__normal_iteratorIPKjSt6vectorIjSaIjEEEdeEv(%"class.__gnu_cxx::__normal_iterator.8"* %j) #3, !dbg !3576
  %8 = load i32, i32* %call20, align 4, !dbg !3576
  %sub = sub i32 %7, %8, !dbg !3577
  %call21 = call i32 @abs(i32 %sub) #16, !dbg !3578
  %9 = load i32, i32* %b, align 4, !dbg !3579
  %cmp22 = icmp ugt i32 %call21, %9, !dbg !3580
  br i1 %cmp22, label %if.then23, label %if.end27, !dbg !3581

if.then23:                                        ; preds = %for.body19
  %10 = load i32, i32* %row, align 4, !dbg !3582
  %call24 = call dereferenceable(4) i32* @_ZNK9__gnu_cxx17__normal_iteratorIPKjSt6vectorIjSaIjEEEdeEv(%"class.__gnu_cxx::__normal_iterator.8"* %j) #3, !dbg !3583
  %11 = load i32, i32* %call24, align 4, !dbg !3583
  %sub25 = sub i32 %10, %11, !dbg !3584
  %call26 = call i32 @abs(i32 %sub25) #16, !dbg !3585
  store i32 %call26, i32* %b, align 4, !dbg !3586
  br label %if.end27, !dbg !3587

if.end27:                                         ; preds = %if.then23, %for.body19
  br label %for.inc, !dbg !3579

for.inc:                                          ; preds = %if.end27
  %call28 = call dereferenceable(8) %"class.__gnu_cxx::__normal_iterator.8"* @_ZN9__gnu_cxx17__normal_iteratorIPKjSt6vectorIjSaIjEEEppEv(%"class.__gnu_cxx::__normal_iterator.8"* %j) #3, !dbg !3588
  br label %for.cond10, !dbg !3589, !llvm.loop !3590

for.end:                                          ; preds = %for.cond10
  br label %for.inc29, !dbg !3592

for.inc29:                                        ; preds = %for.end
  %12 = load i32, i32* %row, align 4, !dbg !3593
  %inc = add i32 %12, 1, !dbg !3593
  store i32 %inc, i32* %row, align 4, !dbg !3593
  br label %for.cond, !dbg !3594, !llvm.loop !3595

for.end30:                                        ; preds = %for.cond
  %13 = load i32, i32* %b, align 4, !dbg !3597
  ret i32 %13, !dbg !3598
}

; Function Attrs: nounwind readnone
declare dso_local i32 @abs(i32) #7

; Function Attrs: noinline uwtable
define dso_local i32 @_ZNK6dealii25CompressedSparsityPattern18n_nonzero_elementsEv(%"class.dealii::CompressedSparsityPattern"* %this) #0 align 2 !dbg !3599 {
entry:
  %this.addr = alloca %"class.dealii::CompressedSparsityPattern"*, align 8
  %n = alloca i32, align 4
  %i = alloca i32, align 4
  store %"class.dealii::CompressedSparsityPattern"* %this, %"class.dealii::CompressedSparsityPattern"** %this.addr, align 8
  call void @llvm.dbg.declare(metadata %"class.dealii::CompressedSparsityPattern"** %this.addr, metadata !3600, metadata !DIExpression()), !dbg !3601
  %this1 = load %"class.dealii::CompressedSparsityPattern"*, %"class.dealii::CompressedSparsityPattern"** %this.addr, align 8
  call void @llvm.dbg.declare(metadata i32* %n, metadata !3602, metadata !DIExpression()), !dbg !3603
  store i32 0, i32* %n, align 4, !dbg !3603
  call void @llvm.dbg.declare(metadata i32* %i, metadata !3604, metadata !DIExpression()), !dbg !3606
  store i32 0, i32* %i, align 4, !dbg !3606
  br label %for.cond, !dbg !3607

for.cond:                                         ; preds = %for.inc, %entry
  %0 = load i32, i32* %i, align 4, !dbg !3608
  %rows = getelementptr inbounds %"class.dealii::CompressedSparsityPattern", %"class.dealii::CompressedSparsityPattern"* %this1, i32 0, i32 1, !dbg !3610
  %1 = load i32, i32* %rows, align 8, !dbg !3610
  %cmp = icmp ult i32 %0, %1, !dbg !3611
  br i1 %cmp, label %for.body, label %for.end, !dbg !3612

for.body:                                         ; preds = %for.cond
  %lines = getelementptr inbounds %"class.dealii::CompressedSparsityPattern", %"class.dealii::CompressedSparsityPattern"* %this1, i32 0, i32 3, !dbg !3613
  %2 = load i32, i32* %i, align 4, !dbg !3616
  %conv = zext i32 %2 to i64, !dbg !3616
  %call = call dereferenceable(64) %"struct.dealii::CompressedSparsityPattern::Line"* @_ZNKSt6vectorIN6dealii25CompressedSparsityPattern4LineESaIS2_EEixEm(%"class.std::vector.3"* %lines, i64 %conv) #3, !dbg !3613
  %cache_entries = getelementptr inbounds %"struct.dealii::CompressedSparsityPattern::Line", %"struct.dealii::CompressedSparsityPattern::Line"* %call, i32 0, i32 2, !dbg !3617
  %3 = load i32, i32* %cache_entries, align 8, !dbg !3617
  %cmp2 = icmp ne i32 %3, 0, !dbg !3618
  br i1 %cmp2, label %if.then, label %if.end, !dbg !3619

if.then:                                          ; preds = %for.body
  %lines3 = getelementptr inbounds %"class.dealii::CompressedSparsityPattern", %"class.dealii::CompressedSparsityPattern"* %this1, i32 0, i32 3, !dbg !3620
  %4 = load i32, i32* %i, align 4, !dbg !3621
  %conv4 = zext i32 %4 to i64, !dbg !3621
  %call5 = call dereferenceable(64) %"struct.dealii::CompressedSparsityPattern::Line"* @_ZNKSt6vectorIN6dealii25CompressedSparsityPattern4LineESaIS2_EEixEm(%"class.std::vector.3"* %lines3, i64 %conv4) #3, !dbg !3620
  call void @_ZNK6dealii25CompressedSparsityPattern4Line11flush_cacheEv(%"struct.dealii::CompressedSparsityPattern::Line"* %call5), !dbg !3622
  br label %if.end, !dbg !3620

if.end:                                           ; preds = %if.then, %for.body
  %lines6 = getelementptr inbounds %"class.dealii::CompressedSparsityPattern", %"class.dealii::CompressedSparsityPattern"* %this1, i32 0, i32 3, !dbg !3623
  %5 = load i32, i32* %i, align 4, !dbg !3624
  %conv7 = zext i32 %5 to i64, !dbg !3624
  %call8 = call dereferenceable(64) %"struct.dealii::CompressedSparsityPattern::Line"* @_ZNKSt6vectorIN6dealii25CompressedSparsityPattern4LineESaIS2_EEixEm(%"class.std::vector.3"* %lines6, i64 %conv7) #3, !dbg !3623
  %entries = getelementptr inbounds %"struct.dealii::CompressedSparsityPattern::Line", %"struct.dealii::CompressedSparsityPattern::Line"* %call8, i32 0, i32 0, !dbg !3625
  %call9 = call i64 @_ZNKSt6vectorIjSaIjEE4sizeEv(%"class.std::vector"* %entries) #3, !dbg !3626
  %6 = load i32, i32* %n, align 4, !dbg !3627
  %conv10 = zext i32 %6 to i64, !dbg !3627
  %add = add i64 %conv10, %call9, !dbg !3627
  %conv11 = trunc i64 %add to i32, !dbg !3627
  store i32 %conv11, i32* %n, align 4, !dbg !3627
  br label %for.inc, !dbg !3628

for.inc:                                          ; preds = %if.end
  %7 = load i32, i32* %i, align 4, !dbg !3629
  %inc = add i32 %7, 1, !dbg !3629
  store i32 %inc, i32* %i, align 4, !dbg !3629
  br label %for.cond, !dbg !3630, !llvm.loop !3631

for.end:                                          ; preds = %for.cond
  %8 = load i32, i32* %n, align 4, !dbg !3633
  ret i32 %8, !dbg !3634
}

; Function Attrs: noinline nounwind uwtable
define linkonce_odr dso_local void @_ZN6dealii25CompressedSparsityPatternD2Ev(%"class.dealii::CompressedSparsityPattern"* %this) unnamed_addr #5 comdat align 2 !dbg !3635 {
entry:
  %this.addr = alloca %"class.dealii::CompressedSparsityPattern"*, align 8
  store %"class.dealii::CompressedSparsityPattern"* %this, %"class.dealii::CompressedSparsityPattern"** %this.addr, align 8
  call void @llvm.dbg.declare(metadata %"class.dealii::CompressedSparsityPattern"** %this.addr, metadata !3637, metadata !DIExpression()), !dbg !3638
  %this1 = load %"class.dealii::CompressedSparsityPattern"*, %"class.dealii::CompressedSparsityPattern"** %this.addr, align 8
  %0 = bitcast %"class.dealii::CompressedSparsityPattern"* %this1 to i32 (...)***, !dbg !3639
  store i32 (...)** bitcast (i8** getelementptr inbounds ({ [4 x i8*] }, { [4 x i8*] }* @_ZTVN6dealii25CompressedSparsityPatternE, i32 0, inrange i32 0, i32 2) to i32 (...)**), i32 (...)*** %0, align 8, !dbg !3639
  %lines = getelementptr inbounds %"class.dealii::CompressedSparsityPattern", %"class.dealii::CompressedSparsityPattern"* %this1, i32 0, i32 3, !dbg !3640
  call void @_ZNSt6vectorIN6dealii25CompressedSparsityPattern4LineESaIS2_EED2Ev(%"class.std::vector.3"* %lines) #3, !dbg !3640
  %1 = bitcast %"class.dealii::CompressedSparsityPattern"* %this1 to %"class.dealii::Subscriptor"*, !dbg !3640
  call void @_ZN6dealii11SubscriptorD2Ev(%"class.dealii::Subscriptor"* %1) #3, !dbg !3640
  ret void, !dbg !3639
}

; Function Attrs: noinline nounwind uwtable
define linkonce_odr dso_local void @_ZN6dealii25CompressedSparsityPatternD0Ev(%"class.dealii::CompressedSparsityPattern"* %this) unnamed_addr #5 comdat align 2 !dbg !3642 {
entry:
  %this.addr = alloca %"class.dealii::CompressedSparsityPattern"*, align 8
  store %"class.dealii::CompressedSparsityPattern"* %this, %"class.dealii::CompressedSparsityPattern"** %this.addr, align 8
  call void @llvm.dbg.declare(metadata %"class.dealii::CompressedSparsityPattern"** %this.addr, metadata !3643, metadata !DIExpression()), !dbg !3644
  %this1 = load %"class.dealii::CompressedSparsityPattern"*, %"class.dealii::CompressedSparsityPattern"** %this.addr, align 8
  call void @_ZN6dealii25CompressedSparsityPatternD2Ev(%"class.dealii::CompressedSparsityPattern"* %this1) #3, !dbg !3645
  %0 = bitcast %"class.dealii::CompressedSparsityPattern"* %this1 to i8*, !dbg !3645
  call void @_ZdlPv(i8* %0) #17, !dbg !3645
  ret void, !dbg !3645
}

; Function Attrs: noinline nounwind uwtable
define linkonce_odr dso_local void @_ZNSt12_Vector_baseIjSaIjEEC2Ev(%"struct.std::_Vector_base"* %this) unnamed_addr #5 comdat align 2 !dbg !3646 {
entry:
  %this.addr = alloca %"struct.std::_Vector_base"*, align 8
  store %"struct.std::_Vector_base"* %this, %"struct.std::_Vector_base"** %this.addr, align 8
  call void @llvm.dbg.declare(metadata %"struct.std::_Vector_base"** %this.addr, metadata !3647, metadata !DIExpression()), !dbg !3649
  %this1 = load %"struct.std::_Vector_base"*, %"struct.std::_Vector_base"** %this.addr, align 8
  %_M_impl = getelementptr inbounds %"struct.std::_Vector_base", %"struct.std::_Vector_base"* %this1, i32 0, i32 0, !dbg !3650
  call void @_ZNSt12_Vector_baseIjSaIjEE12_Vector_implC2Ev(%"struct.std::_Vector_base<unsigned int, std::allocator<unsigned int> >::_Vector_impl"* %_M_impl) #3, !dbg !3650
  ret void, !dbg !3651
}

; Function Attrs: noinline nounwind uwtable
define linkonce_odr dso_local void @_ZNSt12_Vector_baseIjSaIjEE12_Vector_implC2Ev(%"struct.std::_Vector_base<unsigned int, std::allocator<unsigned int> >::_Vector_impl"* %this) unnamed_addr #5 comdat align 2 !dbg !3652 {
entry:
  %this.addr = alloca %"struct.std::_Vector_base<unsigned int, std::allocator<unsigned int> >::_Vector_impl"*, align 8
  store %"struct.std::_Vector_base<unsigned int, std::allocator<unsigned int> >::_Vector_impl"* %this, %"struct.std::_Vector_base<unsigned int, std::allocator<unsigned int> >::_Vector_impl"** %this.addr, align 8
  call void @llvm.dbg.declare(metadata %"struct.std::_Vector_base<unsigned int, std::allocator<unsigned int> >::_Vector_impl"** %this.addr, metadata !3653, metadata !DIExpression()), !dbg !3655
  %this1 = load %"struct.std::_Vector_base<unsigned int, std::allocator<unsigned int> >::_Vector_impl"*, %"struct.std::_Vector_base<unsigned int, std::allocator<unsigned int> >::_Vector_impl"** %this.addr, align 8
  %0 = bitcast %"struct.std::_Vector_base<unsigned int, std::allocator<unsigned int> >::_Vector_impl"* %this1 to %"class.std::allocator"*, !dbg !3656
  call void @_ZNSaIjEC2Ev(%"class.std::allocator"* %0) #3, !dbg !3657
  %1 = bitcast %"struct.std::_Vector_base<unsigned int, std::allocator<unsigned int> >::_Vector_impl"* %this1 to %"struct.std::_Vector_base<unsigned int, std::allocator<unsigned int> >::_Vector_impl_data"*, !dbg !3656
  call void @_ZNSt12_Vector_baseIjSaIjEE17_Vector_impl_dataC2Ev(%"struct.std::_Vector_base<unsigned int, std::allocator<unsigned int> >::_Vector_impl_data"* %1) #3, !dbg !3658
  ret void, !dbg !3659
}

; Function Attrs: noinline nounwind uwtable
define linkonce_odr dso_local void @_ZNSaIjEC2Ev(%"class.std::allocator"* %this) unnamed_addr #5 comdat align 2 !dbg !3660 {
entry:
  %this.addr = alloca %"class.std::allocator"*, align 8
  store %"class.std::allocator"* %this, %"class.std::allocator"** %this.addr, align 8
  call void @llvm.dbg.declare(metadata %"class.std::allocator"** %this.addr, metadata !3661, metadata !DIExpression()), !dbg !3663
  %this1 = load %"class.std::allocator"*, %"class.std::allocator"** %this.addr, align 8
  %0 = bitcast %"class.std::allocator"* %this1 to %"class.__gnu_cxx::new_allocator"*, !dbg !3664
  call void @_ZN9__gnu_cxx13new_allocatorIjEC2Ev(%"class.__gnu_cxx::new_allocator"* %0) #3, !dbg !3665
  ret void, !dbg !3666
}

; Function Attrs: noinline nounwind uwtable
define linkonce_odr dso_local void @_ZN9__gnu_cxx13new_allocatorIjEC2Ev(%"class.__gnu_cxx::new_allocator"* %this) unnamed_addr #5 comdat align 2 !dbg !3667 {
entry:
  %this.addr = alloca %"class.__gnu_cxx::new_allocator"*, align 8
  store %"class.__gnu_cxx::new_allocator"* %this, %"class.__gnu_cxx::new_allocator"** %this.addr, align 8
  call void @llvm.dbg.declare(metadata %"class.__gnu_cxx::new_allocator"** %this.addr, metadata !3668, metadata !DIExpression()), !dbg !3670
  %this1 = load %"class.__gnu_cxx::new_allocator"*, %"class.__gnu_cxx::new_allocator"** %this.addr, align 8
  ret void, !dbg !3671
}

; Function Attrs: noinline nounwind uwtable
define linkonce_odr dso_local void @_ZNSt12_Vector_baseIN6dealii25CompressedSparsityPattern4LineESaIS2_EEC2Ev(%"struct.std::_Vector_base.4"* %this) unnamed_addr #5 comdat align 2 !dbg !3672 {
entry:
  %this.addr = alloca %"struct.std::_Vector_base.4"*, align 8
  store %"struct.std::_Vector_base.4"* %this, %"struct.std::_Vector_base.4"** %this.addr, align 8
  call void @llvm.dbg.declare(metadata %"struct.std::_Vector_base.4"** %this.addr, metadata !3673, metadata !DIExpression()), !dbg !3675
  %this1 = load %"struct.std::_Vector_base.4"*, %"struct.std::_Vector_base.4"** %this.addr, align 8
  %_M_impl = getelementptr inbounds %"struct.std::_Vector_base.4", %"struct.std::_Vector_base.4"* %this1, i32 0, i32 0, !dbg !3676
  call void @_ZNSt12_Vector_baseIN6dealii25CompressedSparsityPattern4LineESaIS2_EE12_Vector_implC2Ev(%"struct.std::_Vector_base<dealii::CompressedSparsityPattern::Line, std::allocator<dealii::CompressedSparsityPattern::Line> >::_Vector_impl"* %_M_impl) #3, !dbg !3676
  ret void, !dbg !3677
}

; Function Attrs: noinline nounwind uwtable
define linkonce_odr dso_local void @_ZNSt12_Vector_baseIN6dealii25CompressedSparsityPattern4LineESaIS2_EE12_Vector_implC2Ev(%"struct.std::_Vector_base<dealii::CompressedSparsityPattern::Line, std::allocator<dealii::CompressedSparsityPattern::Line> >::_Vector_impl"* %this) unnamed_addr #5 comdat align 2 !dbg !3678 {
entry:
  %this.addr = alloca %"struct.std::_Vector_base<dealii::CompressedSparsityPattern::Line, std::allocator<dealii::CompressedSparsityPattern::Line> >::_Vector_impl"*, align 8
  store %"struct.std::_Vector_base<dealii::CompressedSparsityPattern::Line, std::allocator<dealii::CompressedSparsityPattern::Line> >::_Vector_impl"* %this, %"struct.std::_Vector_base<dealii::CompressedSparsityPattern::Line, std::allocator<dealii::CompressedSparsityPattern::Line> >::_Vector_impl"** %this.addr, align 8
  call void @llvm.dbg.declare(metadata %"struct.std::_Vector_base<dealii::CompressedSparsityPattern::Line, std::allocator<dealii::CompressedSparsityPattern::Line> >::_Vector_impl"** %this.addr, metadata !3679, metadata !DIExpression()), !dbg !3681
  %this1 = load %"struct.std::_Vector_base<dealii::CompressedSparsityPattern::Line, std::allocator<dealii::CompressedSparsityPattern::Line> >::_Vector_impl"*, %"struct.std::_Vector_base<dealii::CompressedSparsityPattern::Line, std::allocator<dealii::CompressedSparsityPattern::Line> >::_Vector_impl"** %this.addr, align 8
  %0 = bitcast %"struct.std::_Vector_base<dealii::CompressedSparsityPattern::Line, std::allocator<dealii::CompressedSparsityPattern::Line> >::_Vector_impl"* %this1 to %"class.std::allocator.5"*, !dbg !3682
  call void @_ZNSaIN6dealii25CompressedSparsityPattern4LineEEC2Ev(%"class.std::allocator.5"* %0) #3, !dbg !3683
  %1 = bitcast %"struct.std::_Vector_base<dealii::CompressedSparsityPattern::Line, std::allocator<dealii::CompressedSparsityPattern::Line> >::_Vector_impl"* %this1 to %"struct.std::_Vector_base<dealii::CompressedSparsityPattern::Line, std::allocator<dealii::CompressedSparsityPattern::Line> >::_Vector_impl_data"*, !dbg !3682
  call void @_ZNSt12_Vector_baseIN6dealii25CompressedSparsityPattern4LineESaIS2_EE17_Vector_impl_dataC2Ev(%"struct.std::_Vector_base<dealii::CompressedSparsityPattern::Line, std::allocator<dealii::CompressedSparsityPattern::Line> >::_Vector_impl_data"* %1) #3, !dbg !3684
  ret void, !dbg !3685
}

; Function Attrs: noinline nounwind uwtable
define linkonce_odr dso_local void @_ZN9__gnu_cxx13new_allocatorIN6dealii25CompressedSparsityPattern4LineEEC2Ev(%"class.__gnu_cxx::new_allocator.6"* %this) unnamed_addr #5 comdat align 2 !dbg !3686 {
entry:
  %this.addr = alloca %"class.__gnu_cxx::new_allocator.6"*, align 8
  store %"class.__gnu_cxx::new_allocator.6"* %this, %"class.__gnu_cxx::new_allocator.6"** %this.addr, align 8
  call void @llvm.dbg.declare(metadata %"class.__gnu_cxx::new_allocator.6"** %this.addr, metadata !3687, metadata !DIExpression()), !dbg !3689
  %this1 = load %"class.__gnu_cxx::new_allocator.6"*, %"class.__gnu_cxx::new_allocator.6"** %this.addr, align 8
  ret void, !dbg !3690
}

; Function Attrs: noinline uwtable
define linkonce_odr dso_local void @_ZN6dealii25CompressedSparsityPattern4Line3addEj(%"struct.dealii::CompressedSparsityPattern::Line"* %this, i32 %j) #0 comdat align 2 !dbg !3691 {
entry:
  %this.addr = alloca %"struct.dealii::CompressedSparsityPattern::Line"*, align 8
  %j.addr = alloca i32, align 4
  %i = alloca i32, align 4
  store %"struct.dealii::CompressedSparsityPattern::Line"* %this, %"struct.dealii::CompressedSparsityPattern::Line"** %this.addr, align 8
  call void @llvm.dbg.declare(metadata %"struct.dealii::CompressedSparsityPattern::Line"** %this.addr, metadata !3692, metadata !DIExpression()), !dbg !3693
  store i32 %j, i32* %j.addr, align 4
  call void @llvm.dbg.declare(metadata i32* %j.addr, metadata !3694, metadata !DIExpression()), !dbg !3695
  %this1 = load %"struct.dealii::CompressedSparsityPattern::Line"*, %"struct.dealii::CompressedSparsityPattern::Line"** %this.addr, align 8
  call void @llvm.dbg.declare(metadata i32* %i, metadata !3696, metadata !DIExpression()), !dbg !3698
  store i32 0, i32* %i, align 4, !dbg !3698
  br label %for.cond, !dbg !3699

for.cond:                                         ; preds = %for.inc, %entry
  %0 = load i32, i32* %i, align 4, !dbg !3700
  %cache_entries = getelementptr inbounds %"struct.dealii::CompressedSparsityPattern::Line", %"struct.dealii::CompressedSparsityPattern::Line"* %this1, i32 0, i32 2, !dbg !3702
  %1 = load i32, i32* %cache_entries, align 8, !dbg !3702
  %cmp = icmp ult i32 %0, %1, !dbg !3703
  br i1 %cmp, label %for.body, label %for.end, !dbg !3704

for.body:                                         ; preds = %for.cond
  %cache = getelementptr inbounds %"struct.dealii::CompressedSparsityPattern::Line", %"struct.dealii::CompressedSparsityPattern::Line"* %this1, i32 0, i32 1, !dbg !3705
  %2 = load i32, i32* %i, align 4, !dbg !3707
  %idxprom = zext i32 %2 to i64, !dbg !3705
  %arrayidx = getelementptr inbounds [8 x i32], [8 x i32]* %cache, i64 0, i64 %idxprom, !dbg !3705
  %3 = load i32, i32* %arrayidx, align 4, !dbg !3705
  %4 = load i32, i32* %j.addr, align 4, !dbg !3708
  %cmp2 = icmp eq i32 %3, %4, !dbg !3709
  br i1 %cmp2, label %if.then, label %if.end, !dbg !3710

if.then:                                          ; preds = %for.body
  br label %return, !dbg !3711

if.end:                                           ; preds = %for.body
  br label %for.inc, !dbg !3708

for.inc:                                          ; preds = %if.end
  %5 = load i32, i32* %i, align 4, !dbg !3712
  %inc = add i32 %5, 1, !dbg !3712
  store i32 %inc, i32* %i, align 4, !dbg !3712
  br label %for.cond, !dbg !3713, !llvm.loop !3714

for.end:                                          ; preds = %for.cond
  %cache_entries3 = getelementptr inbounds %"struct.dealii::CompressedSparsityPattern::Line", %"struct.dealii::CompressedSparsityPattern::Line"* %this1, i32 0, i32 2, !dbg !3716
  %6 = load i32, i32* %cache_entries3, align 8, !dbg !3716
  %cmp4 = icmp eq i32 %6, 8, !dbg !3718
  br i1 %cmp4, label %land.lhs.true, label %if.end8, !dbg !3719

land.lhs.true:                                    ; preds = %for.end
  %cache_entries5 = getelementptr inbounds %"struct.dealii::CompressedSparsityPattern::Line", %"struct.dealii::CompressedSparsityPattern::Line"* %this1, i32 0, i32 2, !dbg !3720
  %7 = load i32, i32* %cache_entries5, align 8, !dbg !3720
  %cmp6 = icmp ne i32 %7, 0, !dbg !3721
  br i1 %cmp6, label %if.then7, label %if.end8, !dbg !3722

if.then7:                                         ; preds = %land.lhs.true
  call void @_ZNK6dealii25CompressedSparsityPattern4Line11flush_cacheEv(%"struct.dealii::CompressedSparsityPattern::Line"* %this1), !dbg !3723
  br label %if.end8, !dbg !3723

if.end8:                                          ; preds = %if.then7, %land.lhs.true, %for.end
  %8 = load i32, i32* %j.addr, align 4, !dbg !3724
  %cache9 = getelementptr inbounds %"struct.dealii::CompressedSparsityPattern::Line", %"struct.dealii::CompressedSparsityPattern::Line"* %this1, i32 0, i32 1, !dbg !3725
  %cache_entries10 = getelementptr inbounds %"struct.dealii::CompressedSparsityPattern::Line", %"struct.dealii::CompressedSparsityPattern::Line"* %this1, i32 0, i32 2, !dbg !3726
  %9 = load i32, i32* %cache_entries10, align 8, !dbg !3726
  %idxprom11 = zext i32 %9 to i64, !dbg !3725
  %arrayidx12 = getelementptr inbounds [8 x i32], [8 x i32]* %cache9, i64 0, i64 %idxprom11, !dbg !3725
  store i32 %8, i32* %arrayidx12, align 4, !dbg !3727
  %cache_entries13 = getelementptr inbounds %"struct.dealii::CompressedSparsityPattern::Line", %"struct.dealii::CompressedSparsityPattern::Line"* %this1, i32 0, i32 2, !dbg !3728
  %10 = load i32, i32* %cache_entries13, align 8, !dbg !3729
  %inc14 = add i32 %10, 1, !dbg !3729
  store i32 %inc14, i32* %cache_entries13, align 8, !dbg !3729
  br label %return, !dbg !3730

return:                                           ; preds = %if.end8, %if.then
  ret void, !dbg !3730
}

declare dso_local void @_ZN6dealii13ExceptionBaseC2Ev(%"class.dealii::ExceptionBase"*) unnamed_addr #1

; Function Attrs: noinline nounwind uwtable
define linkonce_odr dso_local void @_ZN6dealii18StandardExceptions5ExcIOD0Ev(%"class.dealii::StandardExceptions::ExcIO"* %this) unnamed_addr #5 comdat align 2 !dbg !3731 {
entry:
  %this.addr = alloca %"class.dealii::StandardExceptions::ExcIO"*, align 8
  store %"class.dealii::StandardExceptions::ExcIO"* %this, %"class.dealii::StandardExceptions::ExcIO"** %this.addr, align 8
  call void @llvm.dbg.declare(metadata %"class.dealii::StandardExceptions::ExcIO"** %this.addr, metadata !3732, metadata !DIExpression()), !dbg !3733
  %this1 = load %"class.dealii::StandardExceptions::ExcIO"*, %"class.dealii::StandardExceptions::ExcIO"** %this.addr, align 8
  call void @_ZN6dealii18StandardExceptions5ExcIOD2Ev(%"class.dealii::StandardExceptions::ExcIO"* %this1) #3, !dbg !3734
  %0 = bitcast %"class.dealii::StandardExceptions::ExcIO"* %this1 to i8*, !dbg !3734
  call void @_ZdlPv(i8* %0) #17, !dbg !3734
  ret void, !dbg !3734
}

; Function Attrs: nounwind
declare dso_local i8* @_ZNK6dealii13ExceptionBase4whatEv(%"class.dealii::ExceptionBase"*) unnamed_addr #2

declare dso_local void @_ZNK6dealii13ExceptionBase10print_infoERSo(%"class.dealii::ExceptionBase"*, %"class.std::basic_ostream"* dereferenceable(272)) unnamed_addr #1

; Function Attrs: nobuiltin nounwind
declare dso_local void @_ZdlPv(i8*) #8

; Function Attrs: nounwind
declare dso_local void @_ZN6dealii13ExceptionBaseD2Ev(%"class.dealii::ExceptionBase"*) unnamed_addr #2

; Function Attrs: noinline uwtable
define linkonce_odr dso_local void @_ZSt8_DestroyIPjjEvT_S1_RSaIT0_E(i32* %__first, i32* %__last, %"class.std::allocator"* dereferenceable(1) %0) #0 comdat !dbg !3735 {
entry:
  %__first.addr = alloca i32*, align 8
  %__last.addr = alloca i32*, align 8
  %.addr = alloca %"class.std::allocator"*, align 8
  store i32* %__first, i32** %__first.addr, align 8
  call void @llvm.dbg.declare(metadata i32** %__first.addr, metadata !3740, metadata !DIExpression()), !dbg !3741
  store i32* %__last, i32** %__last.addr, align 8
  call void @llvm.dbg.declare(metadata i32** %__last.addr, metadata !3742, metadata !DIExpression()), !dbg !3743
  store %"class.std::allocator"* %0, %"class.std::allocator"** %.addr, align 8
  call void @llvm.dbg.declare(metadata %"class.std::allocator"** %.addr, metadata !3744, metadata !DIExpression()), !dbg !3745
  %1 = load i32*, i32** %__first.addr, align 8, !dbg !3746
  %2 = load i32*, i32** %__last.addr, align 8, !dbg !3747
  call void @_ZSt8_DestroyIPjEvT_S1_(i32* %1, i32* %2), !dbg !3748
  ret void, !dbg !3749
}

; Function Attrs: noinline nounwind uwtable
define linkonce_odr dso_local dereferenceable(1) %"class.std::allocator"* @_ZNSt12_Vector_baseIjSaIjEE19_M_get_Tp_allocatorEv(%"struct.std::_Vector_base"* %this) #5 comdat align 2 !dbg !3750 {
entry:
  %this.addr = alloca %"struct.std::_Vector_base"*, align 8
  store %"struct.std::_Vector_base"* %this, %"struct.std::_Vector_base"** %this.addr, align 8
  call void @llvm.dbg.declare(metadata %"struct.std::_Vector_base"** %this.addr, metadata !3751, metadata !DIExpression()), !dbg !3752
  %this1 = load %"struct.std::_Vector_base"*, %"struct.std::_Vector_base"** %this.addr, align 8
  %_M_impl = getelementptr inbounds %"struct.std::_Vector_base", %"struct.std::_Vector_base"* %this1, i32 0, i32 0, !dbg !3753
  %0 = bitcast %"struct.std::_Vector_base<unsigned int, std::allocator<unsigned int> >::_Vector_impl"* %_M_impl to %"class.std::allocator"*, !dbg !3754
  ret %"class.std::allocator"* %0, !dbg !3755
}

; Function Attrs: noinline nounwind uwtable
define linkonce_odr dso_local void @_ZNSt12_Vector_baseIjSaIjEED2Ev(%"struct.std::_Vector_base"* %this) unnamed_addr #5 comdat align 2 personality i8* bitcast (i32 (...)* @__gxx_personality_v0 to i8*) !dbg !3756 {
entry:
  %this.addr = alloca %"struct.std::_Vector_base"*, align 8
  %exn.slot = alloca i8*
  %ehselector.slot = alloca i32
  store %"struct.std::_Vector_base"* %this, %"struct.std::_Vector_base"** %this.addr, align 8
  call void @llvm.dbg.declare(metadata %"struct.std::_Vector_base"** %this.addr, metadata !3757, metadata !DIExpression()), !dbg !3758
  %this1 = load %"struct.std::_Vector_base"*, %"struct.std::_Vector_base"** %this.addr, align 8
  %_M_impl = getelementptr inbounds %"struct.std::_Vector_base", %"struct.std::_Vector_base"* %this1, i32 0, i32 0, !dbg !3759
  %0 = bitcast %"struct.std::_Vector_base<unsigned int, std::allocator<unsigned int> >::_Vector_impl"* %_M_impl to %"struct.std::_Vector_base<unsigned int, std::allocator<unsigned int> >::_Vector_impl_data"*, !dbg !3759
  %_M_start = getelementptr inbounds %"struct.std::_Vector_base<unsigned int, std::allocator<unsigned int> >::_Vector_impl_data", %"struct.std::_Vector_base<unsigned int, std::allocator<unsigned int> >::_Vector_impl_data"* %0, i32 0, i32 0, !dbg !3761
  %1 = load i32*, i32** %_M_start, align 8, !dbg !3761
  %_M_impl2 = getelementptr inbounds %"struct.std::_Vector_base", %"struct.std::_Vector_base"* %this1, i32 0, i32 0, !dbg !3762
  %2 = bitcast %"struct.std::_Vector_base<unsigned int, std::allocator<unsigned int> >::_Vector_impl"* %_M_impl2 to %"struct.std::_Vector_base<unsigned int, std::allocator<unsigned int> >::_Vector_impl_data"*, !dbg !3762
  %_M_end_of_storage = getelementptr inbounds %"struct.std::_Vector_base<unsigned int, std::allocator<unsigned int> >::_Vector_impl_data", %"struct.std::_Vector_base<unsigned int, std::allocator<unsigned int> >::_Vector_impl_data"* %2, i32 0, i32 2, !dbg !3763
  %3 = load i32*, i32** %_M_end_of_storage, align 8, !dbg !3763
  %_M_impl3 = getelementptr inbounds %"struct.std::_Vector_base", %"struct.std::_Vector_base"* %this1, i32 0, i32 0, !dbg !3764
  %4 = bitcast %"struct.std::_Vector_base<unsigned int, std::allocator<unsigned int> >::_Vector_impl"* %_M_impl3 to %"struct.std::_Vector_base<unsigned int, std::allocator<unsigned int> >::_Vector_impl_data"*, !dbg !3764
  %_M_start4 = getelementptr inbounds %"struct.std::_Vector_base<unsigned int, std::allocator<unsigned int> >::_Vector_impl_data", %"struct.std::_Vector_base<unsigned int, std::allocator<unsigned int> >::_Vector_impl_data"* %4, i32 0, i32 0, !dbg !3765
  %5 = load i32*, i32** %_M_start4, align 8, !dbg !3765
  %sub.ptr.lhs.cast = ptrtoint i32* %3 to i64, !dbg !3766
  %sub.ptr.rhs.cast = ptrtoint i32* %5 to i64, !dbg !3766
  %sub.ptr.sub = sub i64 %sub.ptr.lhs.cast, %sub.ptr.rhs.cast, !dbg !3766
  %sub.ptr.div = sdiv exact i64 %sub.ptr.sub, 4, !dbg !3766
  invoke void @_ZNSt12_Vector_baseIjSaIjEE13_M_deallocateEPjm(%"struct.std::_Vector_base"* %this1, i32* %1, i64 %sub.ptr.div)
          to label %invoke.cont unwind label %lpad, !dbg !3767

invoke.cont:                                      ; preds = %entry
  %_M_impl5 = getelementptr inbounds %"struct.std::_Vector_base", %"struct.std::_Vector_base"* %this1, i32 0, i32 0, !dbg !3768
  call void @_ZNSt12_Vector_baseIjSaIjEE12_Vector_implD2Ev(%"struct.std::_Vector_base<unsigned int, std::allocator<unsigned int> >::_Vector_impl"* %_M_impl5) #3, !dbg !3768
  ret void, !dbg !3769

lpad:                                             ; preds = %entry
  %6 = landingpad { i8*, i32 }
          catch i8* null, !dbg !3768
  %7 = extractvalue { i8*, i32 } %6, 0, !dbg !3768
  store i8* %7, i8** %exn.slot, align 8, !dbg !3768
  %8 = extractvalue { i8*, i32 } %6, 1, !dbg !3768
  store i32 %8, i32* %ehselector.slot, align 4, !dbg !3768
  %_M_impl6 = getelementptr inbounds %"struct.std::_Vector_base", %"struct.std::_Vector_base"* %this1, i32 0, i32 0, !dbg !3768
  call void @_ZNSt12_Vector_baseIjSaIjEE12_Vector_implD2Ev(%"struct.std::_Vector_base<unsigned int, std::allocator<unsigned int> >::_Vector_impl"* %_M_impl6) #3, !dbg !3768
  br label %terminate.handler, !dbg !3768

terminate.handler:                                ; preds = %lpad
  %exn = load i8*, i8** %exn.slot, align 8, !dbg !3768
  call void @__clang_call_terminate(i8* %exn) #15, !dbg !3768
  unreachable, !dbg !3768
}

; Function Attrs: noinline noreturn nounwind
define linkonce_odr hidden void @__clang_call_terminate(i8* %0) #9 comdat {
  %2 = call i8* @__cxa_begin_catch(i8* %0) #3
  call void @_ZSt9terminatev() #15
  unreachable
}

declare dso_local i8* @__cxa_begin_catch(i8*)

declare dso_local void @_ZSt9terminatev()

; Function Attrs: noinline uwtable
define linkonce_odr dso_local void @_ZSt8_DestroyIPjEvT_S1_(i32* %__first, i32* %__last) #0 comdat !dbg !3770 {
entry:
  %__first.addr = alloca i32*, align 8
  %__last.addr = alloca i32*, align 8
  store i32* %__first, i32** %__first.addr, align 8
  call void @llvm.dbg.declare(metadata i32** %__first.addr, metadata !3773, metadata !DIExpression()), !dbg !3774
  store i32* %__last, i32** %__last.addr, align 8
  call void @llvm.dbg.declare(metadata i32** %__last.addr, metadata !3775, metadata !DIExpression()), !dbg !3776
  %0 = load i32*, i32** %__first.addr, align 8, !dbg !3777
  %1 = load i32*, i32** %__last.addr, align 8, !dbg !3778
  call void @_ZNSt12_Destroy_auxILb1EE9__destroyIPjEEvT_S3_(i32* %0, i32* %1), !dbg !3779
  ret void, !dbg !3780
}

; Function Attrs: noinline nounwind uwtable
define linkonce_odr dso_local void @_ZNSt12_Destroy_auxILb1EE9__destroyIPjEEvT_S3_(i32* %0, i32* %1) #5 comdat align 2 !dbg !3781 {
entry:
  %.addr = alloca i32*, align 8
  %.addr1 = alloca i32*, align 8
  store i32* %0, i32** %.addr, align 8
  call void @llvm.dbg.declare(metadata i32** %.addr, metadata !3785, metadata !DIExpression()), !dbg !3786
  store i32* %1, i32** %.addr1, align 8
  call void @llvm.dbg.declare(metadata i32** %.addr1, metadata !3787, metadata !DIExpression()), !dbg !3788
  ret void, !dbg !3789
}

; Function Attrs: noinline uwtable
define linkonce_odr dso_local void @_ZNSt12_Vector_baseIjSaIjEE13_M_deallocateEPjm(%"struct.std::_Vector_base"* %this, i32* %__p, i64 %__n) #0 comdat align 2 !dbg !3790 {
entry:
  %this.addr = alloca %"struct.std::_Vector_base"*, align 8
  %__p.addr = alloca i32*, align 8
  %__n.addr = alloca i64, align 8
  store %"struct.std::_Vector_base"* %this, %"struct.std::_Vector_base"** %this.addr, align 8
  call void @llvm.dbg.declare(metadata %"struct.std::_Vector_base"** %this.addr, metadata !3791, metadata !DIExpression()), !dbg !3792
  store i32* %__p, i32** %__p.addr, align 8
  call void @llvm.dbg.declare(metadata i32** %__p.addr, metadata !3793, metadata !DIExpression()), !dbg !3794
  store i64 %__n, i64* %__n.addr, align 8
  call void @llvm.dbg.declare(metadata i64* %__n.addr, metadata !3795, metadata !DIExpression()), !dbg !3796
  %this1 = load %"struct.std::_Vector_base"*, %"struct.std::_Vector_base"** %this.addr, align 8
  %0 = load i32*, i32** %__p.addr, align 8, !dbg !3797
  %tobool = icmp ne i32* %0, null, !dbg !3797
  br i1 %tobool, label %if.then, label %if.end, !dbg !3799

if.then:                                          ; preds = %entry
  %_M_impl = getelementptr inbounds %"struct.std::_Vector_base", %"struct.std::_Vector_base"* %this1, i32 0, i32 0, !dbg !3800
  %1 = bitcast %"struct.std::_Vector_base<unsigned int, std::allocator<unsigned int> >::_Vector_impl"* %_M_impl to %"class.std::allocator"*, !dbg !3800
  %2 = load i32*, i32** %__p.addr, align 8, !dbg !3801
  %3 = load i64, i64* %__n.addr, align 8, !dbg !3802
  call void @_ZNSt16allocator_traitsISaIjEE10deallocateERS0_Pjm(%"class.std::allocator"* dereferenceable(1) %1, i32* %2, i64 %3), !dbg !3803
  br label %if.end, !dbg !3803

if.end:                                           ; preds = %if.then, %entry
  ret void, !dbg !3804
}

; Function Attrs: noinline nounwind uwtable
define linkonce_odr dso_local void @_ZNSt12_Vector_baseIjSaIjEE12_Vector_implD2Ev(%"struct.std::_Vector_base<unsigned int, std::allocator<unsigned int> >::_Vector_impl"* %this) unnamed_addr #5 comdat align 2 !dbg !3805 {
entry:
  %this.addr = alloca %"struct.std::_Vector_base<unsigned int, std::allocator<unsigned int> >::_Vector_impl"*, align 8
  store %"struct.std::_Vector_base<unsigned int, std::allocator<unsigned int> >::_Vector_impl"* %this, %"struct.std::_Vector_base<unsigned int, std::allocator<unsigned int> >::_Vector_impl"** %this.addr, align 8
  call void @llvm.dbg.declare(metadata %"struct.std::_Vector_base<unsigned int, std::allocator<unsigned int> >::_Vector_impl"** %this.addr, metadata !3807, metadata !DIExpression()), !dbg !3808
  %this1 = load %"struct.std::_Vector_base<unsigned int, std::allocator<unsigned int> >::_Vector_impl"*, %"struct.std::_Vector_base<unsigned int, std::allocator<unsigned int> >::_Vector_impl"** %this.addr, align 8
  %0 = bitcast %"struct.std::_Vector_base<unsigned int, std::allocator<unsigned int> >::_Vector_impl"* %this1 to %"class.std::allocator"*, !dbg !3809
  call void @_ZNSaIjED2Ev(%"class.std::allocator"* %0) #3, !dbg !3809
  ret void, !dbg !3811
}

; Function Attrs: noinline uwtable
define linkonce_odr dso_local void @_ZNSt16allocator_traitsISaIjEE10deallocateERS0_Pjm(%"class.std::allocator"* dereferenceable(1) %__a, i32* %__p, i64 %__n) #0 comdat align 2 !dbg !3812 {
entry:
  %__a.addr = alloca %"class.std::allocator"*, align 8
  %__p.addr = alloca i32*, align 8
  %__n.addr = alloca i64, align 8
  store %"class.std::allocator"* %__a, %"class.std::allocator"** %__a.addr, align 8
  call void @llvm.dbg.declare(metadata %"class.std::allocator"** %__a.addr, metadata !3813, metadata !DIExpression()), !dbg !3814
  store i32* %__p, i32** %__p.addr, align 8
  call void @llvm.dbg.declare(metadata i32** %__p.addr, metadata !3815, metadata !DIExpression()), !dbg !3816
  store i64 %__n, i64* %__n.addr, align 8
  call void @llvm.dbg.declare(metadata i64* %__n.addr, metadata !3817, metadata !DIExpression()), !dbg !3818
  %0 = load %"class.std::allocator"*, %"class.std::allocator"** %__a.addr, align 8, !dbg !3819
  %1 = bitcast %"class.std::allocator"* %0 to %"class.__gnu_cxx::new_allocator"*, !dbg !3819
  %2 = load i32*, i32** %__p.addr, align 8, !dbg !3820
  %3 = load i64, i64* %__n.addr, align 8, !dbg !3821
  call void @_ZN9__gnu_cxx13new_allocatorIjE10deallocateEPjm(%"class.__gnu_cxx::new_allocator"* %1, i32* %2, i64 %3), !dbg !3822
  ret void, !dbg !3823
}

; Function Attrs: noinline nounwind uwtable
define linkonce_odr dso_local void @_ZN9__gnu_cxx13new_allocatorIjE10deallocateEPjm(%"class.__gnu_cxx::new_allocator"* %this, i32* %__p, i64 %__t) #5 comdat align 2 !dbg !3824 {
entry:
  %this.addr = alloca %"class.__gnu_cxx::new_allocator"*, align 8
  %__p.addr = alloca i32*, align 8
  %__t.addr = alloca i64, align 8
  store %"class.__gnu_cxx::new_allocator"* %this, %"class.__gnu_cxx::new_allocator"** %this.addr, align 8
  call void @llvm.dbg.declare(metadata %"class.__gnu_cxx::new_allocator"** %this.addr, metadata !3825, metadata !DIExpression()), !dbg !3826
  store i32* %__p, i32** %__p.addr, align 8
  call void @llvm.dbg.declare(metadata i32** %__p.addr, metadata !3827, metadata !DIExpression()), !dbg !3828
  store i64 %__t, i64* %__t.addr, align 8
  call void @llvm.dbg.declare(metadata i64* %__t.addr, metadata !3829, metadata !DIExpression()), !dbg !3830
  %this1 = load %"class.__gnu_cxx::new_allocator"*, %"class.__gnu_cxx::new_allocator"** %this.addr, align 8
  %0 = load i32*, i32** %__p.addr, align 8, !dbg !3831
  %1 = bitcast i32* %0 to i8*, !dbg !3831
  call void @_ZdlPv(i8* %1) #3, !dbg !3832
  ret void, !dbg !3833
}

; Function Attrs: noinline nounwind uwtable
define linkonce_odr dso_local void @_ZNSaIjED2Ev(%"class.std::allocator"* %this) unnamed_addr #5 comdat align 2 !dbg !3834 {
entry:
  %this.addr = alloca %"class.std::allocator"*, align 8
  store %"class.std::allocator"* %this, %"class.std::allocator"** %this.addr, align 8
  call void @llvm.dbg.declare(metadata %"class.std::allocator"** %this.addr, metadata !3835, metadata !DIExpression()), !dbg !3836
  %this1 = load %"class.std::allocator"*, %"class.std::allocator"** %this.addr, align 8
  %0 = bitcast %"class.std::allocator"* %this1 to %"class.__gnu_cxx::new_allocator"*, !dbg !3837
  call void @_ZN9__gnu_cxx13new_allocatorIjED2Ev(%"class.__gnu_cxx::new_allocator"* %0) #3, !dbg !3837
  ret void, !dbg !3839
}

; Function Attrs: noinline nounwind uwtable
define linkonce_odr dso_local void @_ZN9__gnu_cxx13new_allocatorIjED2Ev(%"class.__gnu_cxx::new_allocator"* %this) unnamed_addr #5 comdat align 2 !dbg !3840 {
entry:
  %this.addr = alloca %"class.__gnu_cxx::new_allocator"*, align 8
  store %"class.__gnu_cxx::new_allocator"* %this, %"class.__gnu_cxx::new_allocator"** %this.addr, align 8
  call void @llvm.dbg.declare(metadata %"class.__gnu_cxx::new_allocator"** %this.addr, metadata !3841, metadata !DIExpression()), !dbg !3842
  %this1 = load %"class.__gnu_cxx::new_allocator"*, %"class.__gnu_cxx::new_allocator"** %this.addr, align 8
  ret void, !dbg !3843
}

; Function Attrs: noinline nounwind uwtable
define linkonce_odr dso_local dereferenceable(4) i32* @_ZSt4moveIRjEONSt16remove_referenceIT_E4typeEOS2_(i32* dereferenceable(4) %__t) #5 comdat !dbg !3844 {
entry:
  %__t.addr = alloca i32*, align 8
  store i32* %__t, i32** %__t.addr, align 8
  call void @llvm.dbg.declare(metadata i32** %__t.addr, metadata !3852, metadata !DIExpression()), !dbg !3853
  %0 = load i32*, i32** %__t.addr, align 8, !dbg !3854
  ret i32* %0, !dbg !3855
}

; Function Attrs: noinline uwtable
define linkonce_odr dso_local void @_ZSt6__sortIPjN9__gnu_cxx5__ops15_Iter_less_iterEEvT_S4_T0_(i32* %__first, i32* %__last) #0 comdat !dbg !3856 {
entry:
  %__comp = alloca %"struct.__gnu_cxx::__ops::_Iter_less_iter", align 1
  %__first.addr = alloca i32*, align 8
  %__last.addr = alloca i32*, align 8
  %agg.tmp = alloca %"struct.__gnu_cxx::__ops::_Iter_less_iter", align 1
  %agg.tmp1 = alloca %"struct.__gnu_cxx::__ops::_Iter_less_iter", align 1
  store i32* %__first, i32** %__first.addr, align 8
  call void @llvm.dbg.declare(metadata i32** %__first.addr, metadata !3859, metadata !DIExpression()), !dbg !3860
  store i32* %__last, i32** %__last.addr, align 8
  call void @llvm.dbg.declare(metadata i32** %__last.addr, metadata !3861, metadata !DIExpression()), !dbg !3862
  call void @llvm.dbg.declare(metadata %"struct.__gnu_cxx::__ops::_Iter_less_iter"* %__comp, metadata !3863, metadata !DIExpression()), !dbg !3864
  %0 = load i32*, i32** %__first.addr, align 8, !dbg !3865
  %1 = load i32*, i32** %__last.addr, align 8, !dbg !3867
  %cmp = icmp ne i32* %0, %1, !dbg !3868
  br i1 %cmp, label %if.then, label %if.end, !dbg !3869

if.then:                                          ; preds = %entry
  %2 = load i32*, i32** %__first.addr, align 8, !dbg !3870
  %3 = load i32*, i32** %__last.addr, align 8, !dbg !3872
  %4 = load i32*, i32** %__last.addr, align 8, !dbg !3873
  %5 = load i32*, i32** %__first.addr, align 8, !dbg !3874
  %sub.ptr.lhs.cast = ptrtoint i32* %4 to i64, !dbg !3875
  %sub.ptr.rhs.cast = ptrtoint i32* %5 to i64, !dbg !3875
  %sub.ptr.sub = sub i64 %sub.ptr.lhs.cast, %sub.ptr.rhs.cast, !dbg !3875
  %sub.ptr.div = sdiv exact i64 %sub.ptr.sub, 4, !dbg !3875
  %call = call i64 @_ZSt4__lgl(i64 %sub.ptr.div), !dbg !3876
  %mul = mul nsw i64 %call, 2, !dbg !3877
  call void @_ZSt16__introsort_loopIPjlN9__gnu_cxx5__ops15_Iter_less_iterEEvT_S4_T0_T1_(i32* %2, i32* %3, i64 %mul), !dbg !3878
  %6 = load i32*, i32** %__first.addr, align 8, !dbg !3879
  %7 = load i32*, i32** %__last.addr, align 8, !dbg !3880
  call void @_ZSt22__final_insertion_sortIPjN9__gnu_cxx5__ops15_Iter_less_iterEEvT_S4_T0_(i32* %6, i32* %7), !dbg !3881
  br label %if.end, !dbg !3882

if.end:                                           ; preds = %if.then, %entry
  ret void, !dbg !3883
}

; Function Attrs: noinline nounwind uwtable
define linkonce_odr dso_local void @_ZN9__gnu_cxx5__ops16__iter_less_iterEv() #5 comdat !dbg !3884 {
entry:
  ret void, !dbg !3887
}

; Function Attrs: noinline uwtable
define linkonce_odr dso_local void @_ZSt16__introsort_loopIPjlN9__gnu_cxx5__ops15_Iter_less_iterEEvT_S4_T0_T1_(i32* %__first, i32* %__last, i64 %__depth_limit) #0 comdat !dbg !3888 {
entry:
  %__comp = alloca %"struct.__gnu_cxx::__ops::_Iter_less_iter", align 1
  %__first.addr = alloca i32*, align 8
  %__last.addr = alloca i32*, align 8
  %__depth_limit.addr = alloca i64, align 8
  %agg.tmp = alloca %"struct.__gnu_cxx::__ops::_Iter_less_iter", align 1
  %__cut = alloca i32*, align 8
  %agg.tmp2 = alloca %"struct.__gnu_cxx::__ops::_Iter_less_iter", align 1
  %agg.tmp3 = alloca %"struct.__gnu_cxx::__ops::_Iter_less_iter", align 1
  store i32* %__first, i32** %__first.addr, align 8
  call void @llvm.dbg.declare(metadata i32** %__first.addr, metadata !3893, metadata !DIExpression()), !dbg !3894
  store i32* %__last, i32** %__last.addr, align 8
  call void @llvm.dbg.declare(metadata i32** %__last.addr, metadata !3895, metadata !DIExpression()), !dbg !3896
  store i64 %__depth_limit, i64* %__depth_limit.addr, align 8
  call void @llvm.dbg.declare(metadata i64* %__depth_limit.addr, metadata !3897, metadata !DIExpression()), !dbg !3898
  call void @llvm.dbg.declare(metadata %"struct.__gnu_cxx::__ops::_Iter_less_iter"* %__comp, metadata !3899, metadata !DIExpression()), !dbg !3900
  br label %while.cond, !dbg !3901

while.cond:                                       ; preds = %if.end, %entry
  %0 = load i32*, i32** %__last.addr, align 8, !dbg !3902
  %1 = load i32*, i32** %__first.addr, align 8, !dbg !3903
  %sub.ptr.lhs.cast = ptrtoint i32* %0 to i64, !dbg !3904
  %sub.ptr.rhs.cast = ptrtoint i32* %1 to i64, !dbg !3904
  %sub.ptr.sub = sub i64 %sub.ptr.lhs.cast, %sub.ptr.rhs.cast, !dbg !3904
  %sub.ptr.div = sdiv exact i64 %sub.ptr.sub, 4, !dbg !3904
  %cmp = icmp sgt i64 %sub.ptr.div, 16, !dbg !3905
  br i1 %cmp, label %while.body, label %while.end, !dbg !3901

while.body:                                       ; preds = %while.cond
  %2 = load i64, i64* %__depth_limit.addr, align 8, !dbg !3906
  %cmp1 = icmp eq i64 %2, 0, !dbg !3909
  br i1 %cmp1, label %if.then, label %if.end, !dbg !3910

if.then:                                          ; preds = %while.body
