; ModuleID = 'source/libparest/statistics.cc'
source_filename = "source/libparest/statistics.cc"
target datalayout = "e-m:e-p270:32:32-p271:32:32-p272:64:64-i64:64-f80:128-n8:16:32:64-S128"
target triple = "x86_64-unknown-linux-gnu"

%"struct.boost::arg" = type { i8 }
%"struct.boost::arg.0" = type { i8 }
%"struct.boost::arg.2" = type { i8 }
%"struct.boost::arg.4" = type { i8 }
%"struct.boost::arg.6" = type { i8 }
%"struct.boost::arg.8" = type { i8 }
%"struct.boost::arg.10" = type { i8 }
%"struct.boost::arg.12" = type { i8 }
%"struct.boost::arg.14" = type { i8 }
%"class.std::ios_base::Init" = type { i8 }
%"class.libparest::PerStepStatistics" = type { %"class.dealii::Subscriptor" }
%"class.dealii::Subscriptor" = type { i32 (...)**, i32, %"class.std::map", %"class.std::type_info"* }
%"class.std::map" = type { %"class.std::_Rb_tree" }
%"class.std::_Rb_tree" = type { %"struct.std::_Rb_tree<const char *, std::pair<const char *const, unsigned int>, std::_Select1st<std::pair<const char *const, unsigned int> >, std::less<const char *>, std::allocator<std::pair<const char *const, unsigned int> > >::_Rb_tree_impl" }
%"struct.std::_Rb_tree<const char *, std::pair<const char *const, unsigned int>, std::_Select1st<std::pair<const char *const, unsigned int> >, std::less<const char *>, std::allocator<std::pair<const char *const, unsigned int> > >::_Rb_tree_impl" = type { %"struct.std::_Rb_tree_key_compare", %"struct.std::_Rb_tree_header" }
%"struct.std::_Rb_tree_key_compare" = type { %"struct.std::less" }
%"struct.std::less" = type { i8 }
%"struct.std::_Rb_tree_header" = type { %"struct.std::_Rb_tree_node_base", i64 }
%"struct.std::_Rb_tree_node_base" = type { i32, %"struct.std::_Rb_tree_node_base"*, %"struct.std::_Rb_tree_node_base"*, %"struct.std::_Rb_tree_node_base"* }
%"class.std::type_info" = type { i32 (...)**, i8* }
%"class.libparest::Statistics" = type { %"class.std::__cxx11::list", %"class.std::__cxx11::list.19" }
%"class.std::__cxx11::list" = type { %"class.std::__cxx11::_List_base" }
%"class.std::__cxx11::_List_base" = type { %"struct.std::__cxx11::_List_base<dealii::SmartPointer<libparest::PerStepStatistics>, std::allocator<dealii::SmartPointer<libparest::PerStepStatistics> > >::_List_impl" }
%"struct.std::__cxx11::_List_base<dealii::SmartPointer<libparest::PerStepStatistics>, std::allocator<dealii::SmartPointer<libparest::PerStepStatistics> > >::_List_impl" = type { %"struct.std::__detail::_List_node_header" }
%"struct.std::__detail::_List_node_header" = type { %"struct.std::__detail::_List_node_base", i64 }
%"struct.std::__detail::_List_node_base" = type { %"struct.std::__detail::_List_node_base"*, %"struct.std::__detail::_List_node_base"* }
%"class.std::__cxx11::list.19" = type { %"class.std::__cxx11::_List_base.20" }
%"class.std::__cxx11::_List_base.20" = type { %"struct.std::__cxx11::_List_base<std::__cxx11::basic_string<char>, std::allocator<std::__cxx11::basic_string<char> > >::_List_impl" }
%"struct.std::__cxx11::_List_base<std::__cxx11::basic_string<char>, std::allocator<std::__cxx11::basic_string<char> > >::_List_impl" = type { %"struct.std::__detail::_List_node_header" }
%"class.dealii::SmartPointer" = type { %"class.libparest::PerStepStatistics"*, i8* }
%"struct.std::_List_iterator.34" = type { %"struct.std::__detail::_List_node_base"* }
%"class.std::basic_ostream" = type { i32 (...)**, %"class.std::basic_ios" }
%"class.std::basic_ios" = type { %"class.std::ios_base", %"class.std::basic_ostream"*, i8, i8, %"class.std::basic_streambuf"*, %"class.std::ctype"*, %"class.std::num_put"*, %"class.std::num_get"* }
%"class.std::ios_base" = type { i32 (...)**, i64, i64, i32, i32, i32, %"struct.std::ios_base::_Callback_list"*, %"struct.std::ios_base::_Words", [8 x %"struct.std::ios_base::_Words"], i32, %"struct.std::ios_base::_Words"*, %"class.std::locale" }
%"struct.std::ios_base::_Callback_list" = type { %"struct.std::ios_base::_Callback_list"*, void (i32, %"class.std::ios_base"*, i32)*, i32, i32 }
%"struct.std::ios_base::_Words" = type { i8*, i64 }
%"class.std::locale" = type { %"class.std::locale::_Impl"* }
%"class.std::locale::_Impl" = type { i32, %"class.std::locale::facet"**, i64, %"class.std::locale::facet"**, i8** }
%"class.std::locale::facet" = type <{ i32 (...)**, i32, [4 x i8] }>
%"class.std::basic_streambuf" = type { i32 (...)**, i8*, i8*, i8*, i8*, i8*, i8*, %"class.std::locale" }
%"class.std::ctype" = type <{ %"class.std::locale::facet.base", [4 x i8], %struct.__locale_struct*, i8, [7 x i8], i32*, i32*, i16*, i8, [256 x i8], [256 x i8], i8, [6 x i8] }>
%"class.std::locale::facet.base" = type <{ i32 (...)**, i32 }>
%struct.__locale_struct = type { [13 x %struct.__locale_data*], i16*, i32*, i32*, [13 x i8*] }
%struct.__locale_data = type opaque
%"class.std::num_put" = type { %"class.std::locale::facet.base", [4 x i8] }
%"class.std::num_get" = type { %"class.std::locale::facet.base", [4 x i8] }
%"struct.std::_List_const_iterator" = type { %"struct.std::__detail::_List_node_base"* }
%"struct.std::_List_const_iterator.24" = type { %"struct.std::__detail::_List_node_base"* }
%"struct.std::_List_iterator" = type { %"struct.std::__detail::_List_node_base"* }
%"class.std::__cxx11::basic_string" = type { %"struct.std::__cxx11::basic_string<char, std::char_traits<char>, std::allocator<char> >::_Alloc_hider", i64, %union.anon }
%"struct.std::__cxx11::basic_string<char, std::char_traits<char>, std::allocator<char> >::_Alloc_hider" = type { i8* }
%union.anon = type { i64, [8 x i8] }
%"class.std::__cxx11::list.28" = type { %"class.std::__cxx11::_List_base.29" }
%"class.std::__cxx11::_List_base.29" = type { %"struct.std::__cxx11::_List_base<double, std::allocator<double> >::_List_impl" }
%"struct.std::__cxx11::_List_base<double, std::allocator<double> >::_List_impl" = type { %"struct.std::__detail::_List_node_header" }
%"struct.std::_List_const_iterator.33" = type { %"struct.std::__detail::_List_node_base"* }
%"struct.std::_Setw" = type { i32 }
%"struct.std::_Setprecision" = type { i32 }
%"struct.std::_List_node.35" = type { %"struct.std::__detail::_List_node_base", %"struct.__gnu_cxx::__aligned_membuf.36" }
%"struct.__gnu_cxx::__aligned_membuf.36" = type { [16 x i8] }
%"struct.std::integral_constant" = type { i8 }
%"struct.std::_List_node" = type { %"struct.std::__detail::_List_node_base", %"struct.__gnu_cxx::__aligned_membuf" }
%"struct.__gnu_cxx::__aligned_membuf" = type { [32 x i8] }
%"struct.std::_List_node.37" = type { %"struct.std::__detail::_List_node_base", %"struct.__gnu_cxx::__aligned_membuf.38" }
%"struct.__gnu_cxx::__aligned_membuf.38" = type { [8 x i8] }
%"struct.std::bidirectional_iterator_tag" = type { i8 }
%"class.std::allocator.21" = type { i8 }
%"class.__gnu_cxx::new_allocator.22" = type { i8 }
%"class.std::allocator.16" = type { i8 }
%"class.__gnu_cxx::new_allocator.17" = type { i8 }
%"class.std::allocator.30" = type { i8 }
%"class.__gnu_cxx::new_allocator.31" = type { i8 }
%"struct.std::__allocated_ptr" = type { %"class.std::allocator.16"*, %"struct.std::_List_node.35"* }

$_ZN5boost3argILi1EEC2Ev = comdat any

$_ZN5boost3argILi2EEC2Ev = comdat any

$_ZN5boost3argILi3EEC2Ev = comdat any

$_ZN5boost3argILi4EEC2Ev = comdat any

$_ZN5boost3argILi5EEC2Ev = comdat any

$_ZN5boost3argILi6EEC2Ev = comdat any

$_ZN5boost3argILi7EEC2Ev = comdat any

$_ZN5boost3argILi8EEC2Ev = comdat any

$_ZN5boost3argILi9EEC2Ev = comdat any

$_ZNKSt7__cxx114listIN6dealii12SmartPointerIN9libparest17PerStepStatisticsEEESaIS5_EE4sizeEv = comdat any

$_ZN9libparest10delete_ptrINS_17PerStepStatisticsEEEvRN6dealii12SmartPointerIT_EE = comdat any

$_ZNSt7__cxx114listIN6dealii12SmartPointerIN9libparest17PerStepStatisticsEEESaIS5_EE4backEv = comdat any

$_ZNSt7__cxx114listIN6dealii12SmartPointerIN9libparest17PerStepStatisticsEEESaIS5_EE8pop_backEv = comdat any

$_ZNSt7__cxx114listINS_12basic_stringIcSt11char_traitsIcESaIcEEESaIS5_EED2Ev = comdat any

$_ZNSt7__cxx114listIN6dealii12SmartPointerIN9libparest17PerStepStatisticsEEESaIS5_EED2Ev = comdat any

$__clang_call_terminate = comdat any

$_ZNSt7__cxx114listIN6dealii12SmartPointerIN9libparest17PerStepStatisticsEEESaIS5_EE9push_backEOS5_ = comdat any

$_ZN6dealii12SmartPointerIN9libparest17PerStepStatisticsEEC2EPS2_PKc = comdat any

$_ZN6dealii12SmartPointerIN9libparest17PerStepStatisticsEED2Ev = comdat any

$_ZNKSt7__cxx114listINS_12basic_stringIcSt11char_traitsIcESaIcEEESaIS5_EE4sizeEv = comdat any

$_ZNKSt7__cxx114listIN6dealii12SmartPointerIN9libparest17PerStepStatisticsEEESaIS5_EE5beginEv = comdat any

$_ZNKSt20_List_const_iteratorIN6dealii12SmartPointerIN9libparest17PerStepStatisticsEEEEdeEv = comdat any

$_ZNK6dealii12SmartPointerIN9libparest17PerStepStatisticsEEptEv = comdat any

$_ZNSt7__cxx114listINS_12basic_stringIcSt11char_traitsIcESaIcEEESaIS5_EEaSEOS7_ = comdat any

$_ZNSt7__cxx114listINS_12basic_stringIcSt11char_traitsIcESaIcEEESaIS5_EE5beginEv = comdat any

$_ZNSt20_List_const_iteratorINSt7__cxx1112basic_stringIcSt11char_traitsIcESaIcEEEEC2ERKSt14_List_iteratorIS5_E = comdat any

$_ZStneRKSt20_List_const_iteratorINSt7__cxx1112basic_stringIcSt11char_traitsIcESaIcEEEES8_ = comdat any

$_ZNSt7__cxx114listINS_12basic_stringIcSt11char_traitsIcESaIcEEESaIS5_EE3endEv = comdat any

$_ZNKSt20_List_const_iteratorINSt7__cxx1112basic_stringIcSt11char_traitsIcESaIcEEEEdeEv = comdat any

$_ZNSt20_List_const_iteratorINSt7__cxx1112basic_stringIcSt11char_traitsIcESaIcEEEEppEv = comdat any

$_ZStneRKSt20_List_const_iteratorIN6dealii12SmartPointerIN9libparest17PerStepStatisticsEEEES7_ = comdat any

$_ZNKSt7__cxx114listIN6dealii12SmartPointerIN9libparest17PerStepStatisticsEEESaIS5_EE3endEv = comdat any

$_ZNKSt7__cxx114listIdSaIdEE5beginEv = comdat any

$_ZStneRKSt20_List_const_iteratorIdES2_ = comdat any

$_ZNKSt7__cxx114listIdSaIdEE3endEv = comdat any

$_ZSt4setwi = comdat any

$_ZSt12setprecisioni = comdat any

$_ZNKSt20_List_const_iteratorIdEdeEv = comdat any

$_ZNSt20_List_const_iteratorIdEppEv = comdat any

$_ZNSt7__cxx114listIdSaIdEED2Ev = comdat any

$_ZNSt20_List_const_iteratorIN6dealii12SmartPointerIN9libparest17PerStepStatisticsEEEEppEv = comdat any

$_ZNSt7__cxx114listIN6dealii12SmartPointerIN9libparest17PerStepStatisticsEEESaIS5_EE5beginEv = comdat any

$_ZNSt20_List_const_iteratorIN6dealii12SmartPointerIN9libparest17PerStepStatisticsEEEEC2ERKSt14_List_iteratorIS4_E = comdat any

$_ZSt7advanceISt20_List_const_iteratorIN6dealii12SmartPointerIN9libparest17PerStepStatisticsEEEEjEvRT_T0_ = comdat any

$_ZNK6dealii12SmartPointerIN9libparest17PerStepStatisticsEEcvPS2_Ev = comdat any

$_ZNKSt7__cxx114listIN6dealii12SmartPointerIN9libparest17PerStepStatisticsEEESaIS5_EE4backEv = comdat any

$_ZNSt7__cxx1110_List_baseINS_12basic_stringIcSt11char_traitsIcESaIcEEESaIS5_EED2Ev = comdat any

$_ZNSt7__cxx1110_List_baseINS_12basic_stringIcSt11char_traitsIcESaIcEEESaIS5_EE8_M_clearEv = comdat any

$_ZNSt7__cxx1110_List_baseINS_12basic_stringIcSt11char_traitsIcESaIcEEESaIS5_EE10_List_implD2Ev = comdat any

$_ZNSt10_List_nodeINSt7__cxx1112basic_stringIcSt11char_traitsIcESaIcEEEE9_M_valptrEv = comdat any

$_ZNSt16allocator_traitsISaISt10_List_nodeINSt7__cxx1112basic_stringIcSt11char_traitsIcESaIcEEEEEE7destroyIS6_EEvRS8_PT_ = comdat any

$_ZNSt7__cxx1110_List_baseINS_12basic_stringIcSt11char_traitsIcESaIcEEESaIS5_EE21_M_get_Node_allocatorEv = comdat any

$_ZNSt7__cxx1110_List_baseINS_12basic_stringIcSt11char_traitsIcESaIcEEESaIS5_EE11_M_put_nodeEPSt10_List_nodeIS5_E = comdat any

$_ZN9__gnu_cxx16__aligned_membufINSt7__cxx1112basic_stringIcSt11char_traitsIcESaIcEEEE6_M_ptrEv = comdat any

$_ZN9__gnu_cxx16__aligned_membufINSt7__cxx1112basic_stringIcSt11char_traitsIcESaIcEEEE7_M_addrEv = comdat any

$_ZN9__gnu_cxx13new_allocatorISt10_List_nodeINSt7__cxx1112basic_stringIcSt11char_traitsIcESaIcEEEEE7destroyIS7_EEvPT_ = comdat any

$_ZNSt16allocator_traitsISaISt10_List_nodeINSt7__cxx1112basic_stringIcSt11char_traitsIcESaIcEEEEEE10deallocateERS8_PS7_m = comdat any

$_ZN9__gnu_cxx13new_allocatorISt10_List_nodeINSt7__cxx1112basic_stringIcSt11char_traitsIcESaIcEEEEE10deallocateEPS8_m = comdat any

$_ZNSaISt10_List_nodeINSt7__cxx1112basic_stringIcSt11char_traitsIcESaIcEEEEED2Ev = comdat any

$_ZN9__gnu_cxx13new_allocatorISt10_List_nodeINSt7__cxx1112basic_stringIcSt11char_traitsIcESaIcEEEEED2Ev = comdat any

$_ZNSt7__cxx1110_List_baseIN6dealii12SmartPointerIN9libparest17PerStepStatisticsEEESaIS5_EED2Ev = comdat any

$_ZNSt7__cxx1110_List_baseIN6dealii12SmartPointerIN9libparest17PerStepStatisticsEEESaIS5_EE8_M_clearEv = comdat any

$_ZNSt7__cxx1110_List_baseIN6dealii12SmartPointerIN9libparest17PerStepStatisticsEEESaIS5_EE10_List_implD2Ev = comdat any

$_ZNSt10_List_nodeIN6dealii12SmartPointerIN9libparest17PerStepStatisticsEEEE9_M_valptrEv = comdat any

$_ZNSt16allocator_traitsISaISt10_List_nodeIN6dealii12SmartPointerIN9libparest17PerStepStatisticsEEEEEE7destroyIS5_EEvRS7_PT_ = comdat any

$_ZNSt7__cxx1110_List_baseIN6dealii12SmartPointerIN9libparest17PerStepStatisticsEEESaIS5_EE21_M_get_Node_allocatorEv = comdat any

$_ZNSt7__cxx1110_List_baseIN6dealii12SmartPointerIN9libparest17PerStepStatisticsEEESaIS5_EE11_M_put_nodeEPSt10_List_nodeIS5_E = comdat any

$_ZN9__gnu_cxx16__aligned_membufIN6dealii12SmartPointerIN9libparest17PerStepStatisticsEEEE6_M_ptrEv = comdat any

$_ZN9__gnu_cxx16__aligned_membufIN6dealii12SmartPointerIN9libparest17PerStepStatisticsEEEE7_M_addrEv = comdat any

$_ZN9__gnu_cxx13new_allocatorISt10_List_nodeIN6dealii12SmartPointerIN9libparest17PerStepStatisticsEEEEE7destroyIS6_EEvPT_ = comdat any

$_ZNSt16allocator_traitsISaISt10_List_nodeIN6dealii12SmartPointerIN9libparest17PerStepStatisticsEEEEEE10deallocateERS7_PS6_m = comdat any

$_ZN9__gnu_cxx13new_allocatorISt10_List_nodeIN6dealii12SmartPointerIN9libparest17PerStepStatisticsEEEEE10deallocateEPS7_m = comdat any

$_ZNSaISt10_List_nodeIN6dealii12SmartPointerIN9libparest17PerStepStatisticsEEEEED2Ev = comdat any

$_ZN9__gnu_cxx13new_allocatorISt10_List_nodeIN6dealii12SmartPointerIN9libparest17PerStepStatisticsEEEEED2Ev = comdat any

$_ZNSt7__cxx1110_List_baseIdSaIdEED2Ev = comdat any

$_ZNSt7__cxx1110_List_baseIdSaIdEE8_M_clearEv = comdat any

$_ZNSt7__cxx1110_List_baseIdSaIdEE10_List_implD2Ev = comdat any

$_ZNSt10_List_nodeIdE9_M_valptrEv = comdat any

$_ZNSt16allocator_traitsISaISt10_List_nodeIdEEE7destroyIdEEvRS2_PT_ = comdat any

$_ZNSt7__cxx1110_List_baseIdSaIdEE21_M_get_Node_allocatorEv = comdat any

$_ZNSt7__cxx1110_List_baseIdSaIdEE11_M_put_nodeEPSt10_List_nodeIdE = comdat any

$_ZN9__gnu_cxx16__aligned_membufIdE6_M_ptrEv = comdat any

$_ZN9__gnu_cxx16__aligned_membufIdE7_M_addrEv = comdat any

$_ZN9__gnu_cxx13new_allocatorISt10_List_nodeIdEE7destroyIdEEvPT_ = comdat any

$_ZNSt16allocator_traitsISaISt10_List_nodeIdEEE10deallocateERS2_PS1_m = comdat any

$_ZN9__gnu_cxx13new_allocatorISt10_List_nodeIdEE10deallocateEPS2_m = comdat any

$_ZNSaISt10_List_nodeIdEED2Ev = comdat any

$_ZN9__gnu_cxx13new_allocatorISt10_List_nodeIdEED2Ev = comdat any

$_ZNKSt7__cxx114listIN6dealii12SmartPointerIN9libparest17PerStepStatisticsEEESaIS5_EE13_M_node_countEv = comdat any

$_ZNKSt7__cxx1110_List_baseIN6dealii12SmartPointerIN9libparest17PerStepStatisticsEEESaIS5_EE11_M_get_sizeEv = comdat any

$_ZNSt7__cxx114listIN6dealii12SmartPointerIN9libparest17PerStepStatisticsEEESaIS5_EE3endEv = comdat any

$_ZNSt14_List_iteratorIN6dealii12SmartPointerIN9libparest17PerStepStatisticsEEEEmmEv = comdat any

$_ZNKSt14_List_iteratorIN6dealii12SmartPointerIN9libparest17PerStepStatisticsEEEEdeEv = comdat any

$_ZNSt14_List_iteratorIN6dealii12SmartPointerIN9libparest17PerStepStatisticsEEEEC2EPNSt8__detail15_List_node_baseE = comdat any

$_ZN6dealii12SmartPointerIN9libparest17PerStepStatisticsEEaSEPS2_ = comdat any

$_ZNK6dealii11Subscriptor11unsubscribeEPKc = comdat any

$_ZNK6dealii11Subscriptor9subscribeEPKc = comdat any

$_ZNSt7__cxx114listIN6dealii12SmartPointerIN9libparest17PerStepStatisticsEEESaIS5_EE8_M_eraseESt14_List_iteratorIS5_E = comdat any

$_ZNSt7__cxx1110_List_baseIN6dealii12SmartPointerIN9libparest17PerStepStatisticsEEESaIS5_EE11_M_dec_sizeEm = comdat any

$_ZNSt7__cxx114listIN6dealii12SmartPointerIN9libparest17PerStepStatisticsEEESaIS5_EE9_M_insertIJS5_EEEvSt14_List_iteratorIS5_EDpOT_ = comdat any

$_ZSt4moveIRN6dealii12SmartPointerIN9libparest17PerStepStatisticsEEEEONSt16remove_referenceIT_E4typeEOS7_ = comdat any

$_ZNSt7__cxx114listIN6dealii12SmartPointerIN9libparest17PerStepStatisticsEEESaIS5_EE14_M_create_nodeIJS5_EEEPSt10_List_nodeIS5_EDpOT_ = comdat any

$_ZSt7forwardIN6dealii12SmartPointerIN9libparest17PerStepStatisticsEEEEOT_RNSt16remove_referenceIS5_E4typeE = comdat any

$_ZNSt7__cxx1110_List_baseIN6dealii12SmartPointerIN9libparest17PerStepStatisticsEEESaIS5_EE11_M_inc_sizeEm = comdat any

$_ZNSt7__cxx1110_List_baseIN6dealii12SmartPointerIN9libparest17PerStepStatisticsEEESaIS5_EE11_M_get_nodeEv = comdat any

$_ZNSt15__allocated_ptrISaISt10_List_nodeIN6dealii12SmartPointerIN9libparest17PerStepStatisticsEEEEEEC2ERS7_PS6_ = comdat any

$_ZNSt16allocator_traitsISaISt10_List_nodeIN6dealii12SmartPointerIN9libparest17PerStepStatisticsEEEEEE9constructIS5_JS5_EEEvRS7_PT_DpOT0_ = comdat any

$_ZNSt15__allocated_ptrISaISt10_List_nodeIN6dealii12SmartPointerIN9libparest17PerStepStatisticsEEEEEEaSEDn = comdat any

$_ZNSt15__allocated_ptrISaISt10_List_nodeIN6dealii12SmartPointerIN9libparest17PerStepStatisticsEEEEEED2Ev = comdat any

$_ZNSt16allocator_traitsISaISt10_List_nodeIN6dealii12SmartPointerIN9libparest17PerStepStatisticsEEEEEE8allocateERS7_m = comdat any

$_ZN9__gnu_cxx13new_allocatorISt10_List_nodeIN6dealii12SmartPointerIN9libparest17PerStepStatisticsEEEEE8allocateEmPKv = comdat any

$_ZNK9__gnu_cxx13new_allocatorISt10_List_nodeIN6dealii12SmartPointerIN9libparest17PerStepStatisticsEEEEE11_M_max_sizeEv = comdat any

$_ZSt11__addressofISaISt10_List_nodeIN6dealii12SmartPointerIN9libparest17PerStepStatisticsEEEEEEPT_RS8_ = comdat any

$_ZN9__gnu_cxx13new_allocatorISt10_List_nodeIN6dealii12SmartPointerIN9libparest17PerStepStatisticsEEEEE9constructIS6_JS6_EEEvPT_DpOT0_ = comdat any

$_ZN6dealii12SmartPointerIN9libparest17PerStepStatisticsEEC2ERKS3_ = comdat any

$_ZNKSt7__cxx114listINS_12basic_stringIcSt11char_traitsIcESaIcEEESaIS5_EE13_M_node_countEv = comdat any

$_ZNKSt7__cxx1110_List_baseINS_12basic_stringIcSt11char_traitsIcESaIcEEESaIS5_EE11_M_get_sizeEv = comdat any

$_ZNSt20_List_const_iteratorIN6dealii12SmartPointerIN9libparest17PerStepStatisticsEEEEC2EPKNSt8__detail15_List_node_baseE = comdat any

$_ZNKSt10_List_nodeIN6dealii12SmartPointerIN9libparest17PerStepStatisticsEEEE9_M_valptrEv = comdat any

$_ZNK9__gnu_cxx16__aligned_membufIN6dealii12SmartPointerIN9libparest17PerStepStatisticsEEEE6_M_ptrEv = comdat any

$_ZNK9__gnu_cxx16__aligned_membufIN6dealii12SmartPointerIN9libparest17PerStepStatisticsEEEE7_M_addrEv = comdat any

$_ZNSt7__cxx114listINS_12basic_stringIcSt11char_traitsIcESaIcEEESaIS5_EE14_M_move_assignEOS7_St17integral_constantIbLb1EE = comdat any

$_ZSt4moveIRNSt7__cxx114listINS0_12basic_stringIcSt11char_traitsIcESaIcEEESaIS6_EEEEONSt16remove_referenceIT_E4typeEOSB_ = comdat any

$_ZNSt7__cxx1110_List_baseINS_12basic_stringIcSt11char_traitsIcESaIcEEESaIS5_EE13_M_move_nodesEOS7_ = comdat any

$_ZSt15__alloc_on_moveISaISt10_List_nodeINSt7__cxx1112basic_stringIcSt11char_traitsIcESaIcEEEEEEvRT_SA_ = comdat any

$_ZNSt8__detail17_List_node_header13_M_move_nodesEOS0_ = comdat any

$_ZSt4moveIRNSt8__detail17_List_node_headerEEONSt16remove_referenceIT_E4typeEOS4_ = comdat any

$_ZNSt8__detail17_List_node_header7_M_baseEv = comdat any

$_ZNSt8__detail17_List_node_header7_M_initEv = comdat any

$_ZSt18__do_alloc_on_moveISaISt10_List_nodeINSt7__cxx1112basic_stringIcSt11char_traitsIcESaIcEEEEEEvRT_SA_St17integral_constantIbLb1EE = comdat any

$_ZSt4moveIRSaISt10_List_nodeINSt7__cxx1112basic_stringIcSt11char_traitsIcESaIcEEEEEEONSt16remove_referenceIT_E4typeEOSB_ = comdat any

$_ZNSt14_List_iteratorINSt7__cxx1112basic_stringIcSt11char_traitsIcESaIcEEEEC2EPNSt8__detail15_List_node_baseE = comdat any

$_ZNKSt10_List_nodeINSt7__cxx1112basic_stringIcSt11char_traitsIcESaIcEEEE9_M_valptrEv = comdat any

$_ZNK9__gnu_cxx16__aligned_membufINSt7__cxx1112basic_stringIcSt11char_traitsIcESaIcEEEE6_M_ptrEv = comdat any

$_ZNK9__gnu_cxx16__aligned_membufINSt7__cxx1112basic_stringIcSt11char_traitsIcESaIcEEEE7_M_addrEv = comdat any

$_ZNSt20_List_const_iteratorIdEC2EPKNSt8__detail15_List_node_baseE = comdat any

$_ZNKSt10_List_nodeIdE9_M_valptrEv = comdat any

$_ZNK9__gnu_cxx16__aligned_membufIdE6_M_ptrEv = comdat any

$_ZNK9__gnu_cxx16__aligned_membufIdE7_M_addrEv = comdat any

$_ZSt9__advanceISt20_List_const_iteratorIN6dealii12SmartPointerIN9libparest17PerStepStatisticsEEEElEvRT_T0_St26bidirectional_iterator_tag = comdat any

$_ZSt19__iterator_categoryISt20_List_const_iteratorIN6dealii12SmartPointerIN9libparest17PerStepStatisticsEEEEENSt15iterator_traitsIT_E17iterator_categoryERKS8_ = comdat any

$_ZNSt20_List_const_iteratorIN6dealii12SmartPointerIN9libparest17PerStepStatisticsEEEEmmEv = comdat any

@_ZN12_GLOBAL__N_12_1E = internal global %"struct.boost::arg" zeroinitializer, align 1, !dbg !0
@_ZN12_GLOBAL__N_12_2E = internal global %"struct.boost::arg.0" zeroinitializer, align 1, !dbg !15
@_ZN12_GLOBAL__N_12_3E = internal global %"struct.boost::arg.2" zeroinitializer, align 1, !dbg !25
@_ZN12_GLOBAL__N_12_4E = internal global %"struct.boost::arg.4" zeroinitializer, align 1, !dbg !35
@_ZN12_GLOBAL__N_12_5E = internal global %"struct.boost::arg.6" zeroinitializer, align 1, !dbg !45
@_ZN12_GLOBAL__N_12_6E = internal global %"struct.boost::arg.8" zeroinitializer, align 1, !dbg !55
@_ZN12_GLOBAL__N_12_7E = internal global %"struct.boost::arg.10" zeroinitializer, align 1, !dbg !65
@_ZN12_GLOBAL__N_12_8E = internal global %"struct.boost::arg.12" zeroinitializer, align 1, !dbg !75
@_ZN12_GLOBAL__N_12_9E = internal global %"struct.boost::arg.14" zeroinitializer, align 1, !dbg !85
@_ZStL8__ioinit = internal global %"class.std::ios_base::Init" zeroinitializer, align 1, !dbg !95
@__dso_handle = external hidden global i8
@.str = private unnamed_addr constant [3 x i8] c"# \00", align 1
@.str.10 = private unnamed_addr constant [3 x i8] c": \00", align 1
@.str.11 = private unnamed_addr constant [2 x i8] c"\0A\00", align 1
@_ZTVN9libparest17PerStepStatisticsE = dso_local unnamed_addr constant { [6 x i8*] } { [6 x i8*] [i8* null, i8* bitcast ({ i8*, i8*, i8* }* @_ZTIN9libparest17PerStepStatisticsE to i8*), i8* bitcast (void (%"class.libparest::PerStepStatistics"*)* @_ZN9libparest17PerStepStatisticsD1Ev to i8*), i8* bitcast (void (%"class.libparest::PerStepStatistics"*)* @_ZN9libparest17PerStepStatisticsD0Ev to i8*), i8* bitcast (void ()* @__cxa_pure_virtual to i8*), i8* bitcast (void ()* @__cxa_pure_virtual to i8*)] }, align 8
@_ZTVN10__cxxabiv120__si_class_type_infoE = external dso_local global i8*
@_ZTSN9libparest17PerStepStatisticsE = dso_local constant [32 x i8] c"N9libparest17PerStepStatisticsE\00", align 1
@_ZTIN6dealii11SubscriptorE = external dso_local constant i8*
@_ZTIN9libparest17PerStepStatisticsE = dso_local constant { i8*, i8*, i8* } { i8* bitcast (i8** getelementptr inbounds (i8*, i8** @_ZTVN10__cxxabiv120__si_class_type_infoE, i64 2) to i8*), i8* getelementptr inbounds ([32 x i8], [32 x i8]* @_ZTSN9libparest17PerStepStatisticsE, i32 0, i32 0), i8* bitcast (i8** @_ZTIN6dealii11SubscriptorE to i8*) }, align 8
@llvm.global_ctors = appending global [1 x { i32, void ()*, i8* }] [{ i32, void ()*, i8* } { i32 65535, void ()* @_GLOBAL__sub_I_statistics.cc, i8* null }]

@_ZN9libparest17PerStepStatisticsD1Ev = dso_local unnamed_addr alias void (%"class.libparest::PerStepStatistics"*), void (%"class.libparest::PerStepStatistics"*)* @_ZN9libparest17PerStepStatisticsD2Ev
@_ZN9libparest10StatisticsD1Ev = dso_local unnamed_addr alias void (%"class.libparest::Statistics"*), void (%"class.libparest::Statistics"*)* @_ZN9libparest10StatisticsD2Ev

; Function Attrs: noinline uwtable
define internal void @__cxx_global_var_init() #0 section ".text.startup" !dbg !3512 {
entry:
  call void @_ZN5boost3argILi1EEC2Ev(%"struct.boost::arg"* @_ZN12_GLOBAL__N_12_1E), !dbg !3513
  ret void, !dbg !3513
}

; Function Attrs: noinline nounwind uwtable
define linkonce_odr dso_local void @_ZN5boost3argILi1EEC2Ev(%"struct.boost::arg"* %this) unnamed_addr #1 comdat align 2 !dbg !3514 {
entry:
  %this.addr = alloca %"struct.boost::arg"*, align 8
  store %"struct.boost::arg"* %this, %"struct.boost::arg"** %this.addr, align 8
  call void @llvm.dbg.declare(metadata %"struct.boost::arg"** %this.addr, metadata !3515, metadata !DIExpression()), !dbg !3517
  %this1 = load %"struct.boost::arg"*, %"struct.boost::arg"** %this.addr, align 8
  ret void, !dbg !3518
}

; Function Attrs: noinline uwtable
define internal void @__cxx_global_var_init.1() #0 section ".text.startup" !dbg !3519 {
entry:
  call void @_ZN5boost3argILi2EEC2Ev(%"struct.boost::arg.0"* @_ZN12_GLOBAL__N_12_2E), !dbg !3520
  ret void, !dbg !3520
}

; Function Attrs: noinline nounwind uwtable
define linkonce_odr dso_local void @_ZN5boost3argILi2EEC2Ev(%"struct.boost::arg.0"* %this) unnamed_addr #1 comdat align 2 !dbg !3521 {
entry:
  %this.addr = alloca %"struct.boost::arg.0"*, align 8
  store %"struct.boost::arg.0"* %this, %"struct.boost::arg.0"** %this.addr, align 8
  call void @llvm.dbg.declare(metadata %"struct.boost::arg.0"** %this.addr, metadata !3522, metadata !DIExpression()), !dbg !3524
  %this1 = load %"struct.boost::arg.0"*, %"struct.boost::arg.0"** %this.addr, align 8
  ret void, !dbg !3525
}

; Function Attrs: noinline uwtable
define internal void @__cxx_global_var_init.2() #0 section ".text.startup" !dbg !3526 {
entry:
  call void @_ZN5boost3argILi3EEC2Ev(%"struct.boost::arg.2"* @_ZN12_GLOBAL__N_12_3E), !dbg !3527
  ret void, !dbg !3527
}

; Function Attrs: noinline nounwind uwtable
define linkonce_odr dso_local void @_ZN5boost3argILi3EEC2Ev(%"struct.boost::arg.2"* %this) unnamed_addr #1 comdat align 2 !dbg !3528 {
entry:
  %this.addr = alloca %"struct.boost::arg.2"*, align 8
  store %"struct.boost::arg.2"* %this, %"struct.boost::arg.2"** %this.addr, align 8
  call void @llvm.dbg.declare(metadata %"struct.boost::arg.2"** %this.addr, metadata !3529, metadata !DIExpression()), !dbg !3531
  %this1 = load %"struct.boost::arg.2"*, %"struct.boost::arg.2"** %this.addr, align 8
  ret void, !dbg !3532
}

; Function Attrs: noinline uwtable
define internal void @__cxx_global_var_init.3() #0 section ".text.startup" !dbg !3533 {
entry:
  call void @_ZN5boost3argILi4EEC2Ev(%"struct.boost::arg.4"* @_ZN12_GLOBAL__N_12_4E), !dbg !3534
  ret void, !dbg !3534
}

; Function Attrs: noinline nounwind uwtable
define linkonce_odr dso_local void @_ZN5boost3argILi4EEC2Ev(%"struct.boost::arg.4"* %this) unnamed_addr #1 comdat align 2 !dbg !3535 {
entry:
  %this.addr = alloca %"struct.boost::arg.4"*, align 8
  store %"struct.boost::arg.4"* %this, %"struct.boost::arg.4"** %this.addr, align 8
  call void @llvm.dbg.declare(metadata %"struct.boost::arg.4"** %this.addr, metadata !3536, metadata !DIExpression()), !dbg !3538
  %this1 = load %"struct.boost::arg.4"*, %"struct.boost::arg.4"** %this.addr, align 8
  ret void, !dbg !3539
}

; Function Attrs: noinline uwtable
define internal void @__cxx_global_var_init.4() #0 section ".text.startup" !dbg !3540 {
entry:
  call void @_ZN5boost3argILi5EEC2Ev(%"struct.boost::arg.6"* @_ZN12_GLOBAL__N_12_5E), !dbg !3541
  ret void, !dbg !3541
}

; Function Attrs: noinline nounwind uwtable
define linkonce_odr dso_local void @_ZN5boost3argILi5EEC2Ev(%"struct.boost::arg.6"* %this) unnamed_addr #1 comdat align 2 !dbg !3542 {
entry:
  %this.addr = alloca %"struct.boost::arg.6"*, align 8
  store %"struct.boost::arg.6"* %this, %"struct.boost::arg.6"** %this.addr, align 8
  call void @llvm.dbg.declare(metadata %"struct.boost::arg.6"** %this.addr, metadata !3543, metadata !DIExpression()), !dbg !3545
  %this1 = load %"struct.boost::arg.6"*, %"struct.boost::arg.6"** %this.addr, align 8
  ret void, !dbg !3546
}

; Function Attrs: noinline uwtable
define internal void @__cxx_global_var_init.5() #0 section ".text.startup" !dbg !3547 {
entry:
  call void @_ZN5boost3argILi6EEC2Ev(%"struct.boost::arg.8"* @_ZN12_GLOBAL__N_12_6E), !dbg !3548
  ret void, !dbg !3548
}

; Function Attrs: noinline nounwind uwtable
define linkonce_odr dso_local void @_ZN5boost3argILi6EEC2Ev(%"struct.boost::arg.8"* %this) unnamed_addr #1 comdat align 2 !dbg !3549 {
entry:
  %this.addr = alloca %"struct.boost::arg.8"*, align 8
  store %"struct.boost::arg.8"* %this, %"struct.boost::arg.8"** %this.addr, align 8
  call void @llvm.dbg.declare(metadata %"struct.boost::arg.8"** %this.addr, metadata !3550, metadata !DIExpression()), !dbg !3552
  %this1 = load %"struct.boost::arg.8"*, %"struct.boost::arg.8"** %this.addr, align 8
  ret void, !dbg !3553
}

; Function Attrs: noinline uwtable
define internal void @__cxx_global_var_init.6() #0 section ".text.startup" !dbg !3554 {
entry:
  call void @_ZN5boost3argILi7EEC2Ev(%"struct.boost::arg.10"* @_ZN12_GLOBAL__N_12_7E), !dbg !3555
  ret void, !dbg !3555
}

; Function Attrs: noinline nounwind uwtable
define linkonce_odr dso_local void @_ZN5boost3argILi7EEC2Ev(%"struct.boost::arg.10"* %this) unnamed_addr #1 comdat align 2 !dbg !3556 {
entry:
  %this.addr = alloca %"struct.boost::arg.10"*, align 8
  store %"struct.boost::arg.10"* %this, %"struct.boost::arg.10"** %this.addr, align 8
  call void @llvm.dbg.declare(metadata %"struct.boost::arg.10"** %this.addr, metadata !3557, metadata !DIExpression()), !dbg !3559
  %this1 = load %"struct.boost::arg.10"*, %"struct.boost::arg.10"** %this.addr, align 8
  ret void, !dbg !3560
}

; Function Attrs: noinline uwtable
define internal void @__cxx_global_var_init.7() #0 section ".text.startup" !dbg !3561 {
entry:
  call void @_ZN5boost3argILi8EEC2Ev(%"struct.boost::arg.12"* @_ZN12_GLOBAL__N_12_8E), !dbg !3562
  ret void, !dbg !3562
}

; Function Attrs: noinline nounwind uwtable
define linkonce_odr dso_local void @_ZN5boost3argILi8EEC2Ev(%"struct.boost::arg.12"* %this) unnamed_addr #1 comdat align 2 !dbg !3563 {
entry:
  %this.addr = alloca %"struct.boost::arg.12"*, align 8
  store %"struct.boost::arg.12"* %this, %"struct.boost::arg.12"** %this.addr, align 8
  call void @llvm.dbg.declare(metadata %"struct.boost::arg.12"** %this.addr, metadata !3564, metadata !DIExpression()), !dbg !3566
  %this1 = load %"struct.boost::arg.12"*, %"struct.boost::arg.12"** %this.addr, align 8
  ret void, !dbg !3567
}

; Function Attrs: noinline uwtable
define internal void @__cxx_global_var_init.8() #0 section ".text.startup" !dbg !3568 {
entry:
  call void @_ZN5boost3argILi9EEC2Ev(%"struct.boost::arg.14"* @_ZN12_GLOBAL__N_12_9E), !dbg !3569
  ret void, !dbg !3569
}

; Function Attrs: noinline nounwind uwtable
define linkonce_odr dso_local void @_ZN5boost3argILi9EEC2Ev(%"struct.boost::arg.14"* %this) unnamed_addr #1 comdat align 2 !dbg !3570 {
entry:
  %this.addr = alloca %"struct.boost::arg.14"*, align 8
  store %"struct.boost::arg.14"* %this, %"struct.boost::arg.14"** %this.addr, align 8
  call void @llvm.dbg.declare(metadata %"struct.boost::arg.14"** %this.addr, metadata !3571, metadata !DIExpression()), !dbg !3573
  %this1 = load %"struct.boost::arg.14"*, %"struct.boost::arg.14"** %this.addr, align 8
  ret void, !dbg !3574
}

; Function Attrs: noinline uwtable
define internal void @__cxx_global_var_init.9() #0 section ".text.startup" !dbg !3575 {
entry:
  call void @_ZNSt8ios_base4InitC1Ev(%"class.std::ios_base::Init"* @_ZStL8__ioinit), !dbg !3576
  %0 = call i32 @__cxa_atexit(void (i8*)* bitcast (void (%"class.std::ios_base::Init"*)* @_ZNSt8ios_base4InitD1Ev to void (i8*)*), i8* getelementptr inbounds (%"class.std::ios_base::Init", %"class.std::ios_base::Init"* @_ZStL8__ioinit, i32 0, i32 0), i8* @__dso_handle) #4, !dbg !3576
  ret void, !dbg !3576
}

declare dso_local void @_ZNSt8ios_base4InitC1Ev(%"class.std::ios_base::Init"*) unnamed_addr #2

; Function Attrs: nounwind
declare dso_local void @_ZNSt8ios_base4InitD1Ev(%"class.std::ios_base::Init"*) unnamed_addr #3

; Function Attrs: nounwind
declare dso_local i32 @__cxa_atexit(void (i8*)*, i8*, i8*) #4

; Function Attrs: noinline nounwind uwtable
define dso_local void @_ZN9libparest17PerStepStatisticsD2Ev(%"class.libparest::PerStepStatistics"* %this) unnamed_addr #1 align 2 !dbg !3577 {
entry:
  %this.addr = alloca %"class.libparest::PerStepStatistics"*, align 8
  store %"class.libparest::PerStepStatistics"* %this, %"class.libparest::PerStepStatistics"** %this.addr, align 8
  call void @llvm.dbg.declare(metadata %"class.libparest::PerStepStatistics"** %this.addr, metadata !3578, metadata !DIExpression()), !dbg !3579
  %this1 = load %"class.libparest::PerStepStatistics"*, %"class.libparest::PerStepStatistics"** %this.addr, align 8
  %0 = bitcast %"class.libparest::PerStepStatistics"* %this1 to %"class.dealii::Subscriptor"*, !dbg !3580
  call void @_ZN6dealii11SubscriptorD2Ev(%"class.dealii::Subscriptor"* %0) #4, !dbg !3580
  ret void, !dbg !3582
}

; Function Attrs: nounwind readnone speculatable willreturn
declare void @llvm.dbg.declare(metadata, metadata, metadata) #5

; Function Attrs: nounwind
declare dso_local void @_ZN6dealii11SubscriptorD2Ev(%"class.dealii::Subscriptor"*) unnamed_addr #3

; Function Attrs: noinline nounwind uwtable
define dso_local void @_ZN9libparest17PerStepStatisticsD0Ev(%"class.libparest::PerStepStatistics"* %this) unnamed_addr #1 align 2 !dbg !3583 {
entry:
  %this.addr = alloca %"class.libparest::PerStepStatistics"*, align 8
  store %"class.libparest::PerStepStatistics"* %this, %"class.libparest::PerStepStatistics"** %this.addr, align 8
  call void @llvm.dbg.declare(metadata %"class.libparest::PerStepStatistics"** %this.addr, metadata !3584, metadata !DIExpression()), !dbg !3585
  %this1 = load %"class.libparest::PerStepStatistics"*, %"class.libparest::PerStepStatistics"** %this.addr, align 8
  call void @llvm.trap() #11, !dbg !3586
  unreachable, !dbg !3586
}

; Function Attrs: cold noreturn nounwind
declare void @llvm.trap() #6

; Function Attrs: noinline nounwind uwtable
define dso_local void @_ZN9libparest10StatisticsD2Ev(%"class.libparest::Statistics"* %this) unnamed_addr #1 align 2 personality i8* bitcast (i32 (...)* @__gxx_personality_v0 to i8*) !dbg !3587 {
entry:
  %this.addr = alloca %"class.libparest::Statistics"*, align 8
  %exn.slot = alloca i8*
  %ehselector.slot = alloca i32
  store %"class.libparest::Statistics"* %this, %"class.libparest::Statistics"** %this.addr, align 8
  call void @llvm.dbg.declare(metadata %"class.libparest::Statistics"** %this.addr, metadata !3626, metadata !DIExpression()), !dbg !3628
  %this1 = load %"class.libparest::Statistics"*, %"class.libparest::Statistics"** %this.addr, align 8
  br label %while.cond, !dbg !3629

while.cond:                                       ; preds = %invoke.cont, %entry
  %steps = getelementptr inbounds %"class.libparest::Statistics", %"class.libparest::Statistics"* %this1, i32 0, i32 0, !dbg !3631
  %call = call i64 @_ZNKSt7__cxx114listIN6dealii12SmartPointerIN9libparest17PerStepStatisticsEEESaIS5_EE4sizeEv(%"class.std::__cxx11::list"* %steps) #4, !dbg !3632
  %cmp = icmp ne i64 %call, 0, !dbg !3633
  br i1 %cmp, label %while.body, label %while.end, !dbg !3629

while.body:                                       ; preds = %while.cond
  %steps2 = getelementptr inbounds %"class.libparest::Statistics", %"class.libparest::Statistics"* %this1, i32 0, i32 0, !dbg !3634
  %call3 = call dereferenceable(16) %"class.dealii::SmartPointer"* @_ZNSt7__cxx114listIN6dealii12SmartPointerIN9libparest17PerStepStatisticsEEESaIS5_EE4backEv(%"class.std::__cxx11::list"* %steps2) #4, !dbg !3636
  invoke void @_ZN9libparest10delete_ptrINS_17PerStepStatisticsEEEvRN6dealii12SmartPointerIT_EE(%"class.dealii::SmartPointer"* dereferenceable(16) %call3)
          to label %invoke.cont unwind label %lpad, !dbg !3637

invoke.cont:                                      ; preds = %while.body
  %steps4 = getelementptr inbounds %"class.libparest::Statistics", %"class.libparest::Statistics"* %this1, i32 0, i32 0, !dbg !3638
  call void @_ZNSt7__cxx114listIN6dealii12SmartPointerIN9libparest17PerStepStatisticsEEESaIS5_EE8pop_backEv(%"class.std::__cxx11::list"* %steps4) #4, !dbg !3639
  br label %while.cond, !dbg !3629, !llvm.loop !3640

lpad:                                             ; preds = %while.body
  %0 = landingpad { i8*, i32 }
          catch i8* null, !dbg !3642
  %1 = extractvalue { i8*, i32 } %0, 0, !dbg !3642
  store i8* %1, i8** %exn.slot, align 8, !dbg !3642
  %2 = extractvalue { i8*, i32 } %0, 1, !dbg !3642
  store i32 %2, i32* %ehselector.slot, align 4, !dbg !3642
  %cached_column_names5 = getelementptr inbounds %"class.libparest::Statistics", %"class.libparest::Statistics"* %this1, i32 0, i32 1, !dbg !3643
  call void @_ZNSt7__cxx114listINS_12basic_stringIcSt11char_traitsIcESaIcEEESaIS5_EED2Ev(%"class.std::__cxx11::list.19"* %cached_column_names5) #4, !dbg !3643
  %steps7 = getelementptr inbounds %"class.libparest::Statistics", %"class.libparest::Statistics"* %this1, i32 0, i32 0, !dbg !3643
  call void @_ZNSt7__cxx114listIN6dealii12SmartPointerIN9libparest17PerStepStatisticsEEESaIS5_EED2Ev(%"class.std::__cxx11::list"* %steps7) #4, !dbg !3643
  br label %terminate.handler, !dbg !3643

while.end:                                        ; preds = %while.cond
  %cached_column_names = getelementptr inbounds %"class.libparest::Statistics", %"class.libparest::Statistics"* %this1, i32 0, i32 1, !dbg !3643
  call void @_ZNSt7__cxx114listINS_12basic_stringIcSt11char_traitsIcESaIcEEESaIS5_EED2Ev(%"class.std::__cxx11::list.19"* %cached_column_names) #4, !dbg !3643
  %steps6 = getelementptr inbounds %"class.libparest::Statistics", %"class.libparest::Statistics"* %this1, i32 0, i32 0, !dbg !3643
  call void @_ZNSt7__cxx114listIN6dealii12SmartPointerIN9libparest17PerStepStatisticsEEESaIS5_EED2Ev(%"class.std::__cxx11::list"* %steps6) #4, !dbg !3643
  ret void, !dbg !3644

terminate.handler:                                ; preds = %lpad
  %exn = load i8*, i8** %exn.slot, align 8, !dbg !3643
  call void @__clang_call_terminate(i8* %exn) #11, !dbg !3643
  unreachable, !dbg !3643
}

; Function Attrs: noinline nounwind uwtable
define linkonce_odr dso_local i64 @_ZNKSt7__cxx114listIN6dealii12SmartPointerIN9libparest17PerStepStatisticsEEESaIS5_EE4sizeEv(%"class.std::__cxx11::list"* %this) #1 comdat align 2 personality i8* bitcast (i32 (...)* @__gxx_personality_v0 to i8*) !dbg !3645 {
entry:
  %this.addr = alloca %"class.std::__cxx11::list"*, align 8
  store %"class.std::__cxx11::list"* %this, %"class.std::__cxx11::list"** %this.addr, align 8
  call void @llvm.dbg.declare(metadata %"class.std::__cxx11::list"** %this.addr, metadata !3646, metadata !DIExpression()), !dbg !3648
  %this1 = load %"class.std::__cxx11::list"*, %"class.std::__cxx11::list"** %this.addr, align 8
  %call = invoke i64 @_ZNKSt7__cxx114listIN6dealii12SmartPointerIN9libparest17PerStepStatisticsEEESaIS5_EE13_M_node_countEv(%"class.std::__cxx11::list"* %this1)
          to label %invoke.cont unwind label %terminate.lpad, !dbg !3649

invoke.cont:                                      ; preds = %entry
  ret i64 %call, !dbg !3650

terminate.lpad:                                   ; preds = %entry
  %0 = landingpad { i8*, i32 }
          catch i8* null, !dbg !3649
  %1 = extractvalue { i8*, i32 } %0, 0, !dbg !3649
  call void @__clang_call_terminate(i8* %1) #11, !dbg !3649
  unreachable, !dbg !3649
}

; Function Attrs: noinline uwtable
define linkonce_odr dso_local void @_ZN9libparest10delete_ptrINS_17PerStepStatisticsEEEvRN6dealii12SmartPointerIT_EE(%"class.dealii::SmartPointer"* dereferenceable(16) %p) #0 comdat !dbg !3651 {
entry:
  %p.addr = alloca %"class.dealii::SmartPointer"*, align 8
  %x = alloca %"class.libparest::PerStepStatistics"*, align 8
  store %"class.dealii::SmartPointer"* %p, %"class.dealii::SmartPointer"** %p.addr, align 8
  call void @llvm.dbg.declare(metadata %"class.dealii::SmartPointer"** %p.addr, metadata !3654, metadata !DIExpression()), !dbg !3655
  %0 = load %"class.dealii::SmartPointer"*, %"class.dealii::SmartPointer"** %p.addr, align 8, !dbg !3656
  %call = call %"class.libparest::PerStepStatistics"* @_ZNK6dealii12SmartPointerIN9libparest17PerStepStatisticsEEcvPS2_Ev(%"class.dealii::SmartPointer"* %0), !dbg !3656
  %cmp = icmp ne %"class.libparest::PerStepStatistics"* %call, null, !dbg !3658
  br i1 %cmp, label %if.then, label %if.end, !dbg !3659

if.then:                                          ; preds = %entry
  call void @llvm.dbg.declare(metadata %"class.libparest::PerStepStatistics"** %x, metadata !3660, metadata !DIExpression()), !dbg !3662
  %1 = load %"class.dealii::SmartPointer"*, %"class.dealii::SmartPointer"** %p.addr, align 8, !dbg !3663
  %call1 = call %"class.libparest::PerStepStatistics"* @_ZNK6dealii12SmartPointerIN9libparest17PerStepStatisticsEEcvPS2_Ev(%"class.dealii::SmartPointer"* %1), !dbg !3663
  store %"class.libparest::PerStepStatistics"* %call1, %"class.libparest::PerStepStatistics"** %x, align 8, !dbg !3662
  %2 = load %"class.dealii::SmartPointer"*, %"class.dealii::SmartPointer"** %p.addr, align 8, !dbg !3664
  %call2 = call dereferenceable(16) %"class.dealii::SmartPointer"* @_ZN6dealii12SmartPointerIN9libparest17PerStepStatisticsEEaSEPS2_(%"class.dealii::SmartPointer"* %2, %"class.libparest::PerStepStatistics"* null), !dbg !3665
  %3 = load %"class.libparest::PerStepStatistics"*, %"class.libparest::PerStepStatistics"** %x, align 8, !dbg !3666
  %isnull = icmp eq %"class.libparest::PerStepStatistics"* %3, null, !dbg !3667
  br i1 %isnull, label %delete.end, label %delete.notnull, !dbg !3667

delete.notnull:                                   ; preds = %if.then
  %4 = bitcast %"class.libparest::PerStepStatistics"* %3 to void (%"class.libparest::PerStepStatistics"*)***, !dbg !3667
  %vtable = load void (%"class.libparest::PerStepStatistics"*)**, void (%"class.libparest::PerStepStatistics"*)*** %4, align 8, !dbg !3667
  %vfn = getelementptr inbounds void (%"class.libparest::PerStepStatistics"*)*, void (%"class.libparest::PerStepStatistics"*)** %vtable, i64 1, !dbg !3667
  %5 = load void (%"class.libparest::PerStepStatistics"*)*, void (%"class.libparest::PerStepStatistics"*)** %vfn, align 8, !dbg !3667
  call void %5(%"class.libparest::PerStepStatistics"* %3) #4, !dbg !3667
  br label %delete.end, !dbg !3667

delete.end:                                       ; preds = %delete.notnull, %if.then
  br label %if.end, !dbg !3668

if.end:                                           ; preds = %delete.end, %entry
  ret void, !dbg !3669
}

; Function Attrs: noinline nounwind uwtable
define linkonce_odr dso_local dereferenceable(16) %"class.dealii::SmartPointer"* @_ZNSt7__cxx114listIN6dealii12SmartPointerIN9libparest17PerStepStatisticsEEESaIS5_EE4backEv(%"class.std::__cxx11::list"* %this) #1 comdat align 2 !dbg !3670 {
entry:
  %this.addr = alloca %"class.std::__cxx11::list"*, align 8
  %__tmp = alloca %"struct.std::_List_iterator.34", align 8
  store %"class.std::__cxx11::list"* %this, %"class.std::__cxx11::list"** %this.addr, align 8
  call void @llvm.dbg.declare(metadata %"class.std::__cxx11::list"** %this.addr, metadata !3671, metadata !DIExpression()), !dbg !3673
  %this1 = load %"class.std::__cxx11::list"*, %"class.std::__cxx11::list"** %this.addr, align 8
  call void @llvm.dbg.declare(metadata %"struct.std::_List_iterator.34"* %__tmp, metadata !3674, metadata !DIExpression()), !dbg !3675
  %call = call %"struct.std::__detail::_List_node_base"* @_ZNSt7__cxx114listIN6dealii12SmartPointerIN9libparest17PerStepStatisticsEEESaIS5_EE3endEv(%"class.std::__cxx11::list"* %this1) #4, !dbg !3676
  %coerce.dive = getelementptr inbounds %"struct.std::_List_iterator.34", %"struct.std::_List_iterator.34"* %__tmp, i32 0, i32 0, !dbg !3676
  store %"struct.std::__detail::_List_node_base"* %call, %"struct.std::__detail::_List_node_base"** %coerce.dive, align 8, !dbg !3676
  %call2 = call dereferenceable(8) %"struct.std::_List_iterator.34"* @_ZNSt14_List_iteratorIN6dealii12SmartPointerIN9libparest17PerStepStatisticsEEEEmmEv(%"struct.std::_List_iterator.34"* %__tmp) #4, !dbg !3677
  %call3 = call dereferenceable(16) %"class.dealii::SmartPointer"* @_ZNKSt14_List_iteratorIN6dealii12SmartPointerIN9libparest17PerStepStatisticsEEEEdeEv(%"struct.std::_List_iterator.34"* %__tmp) #4, !dbg !3678
  ret %"class.dealii::SmartPointer"* %call3, !dbg !3679
}

declare dso_local i32 @__gxx_personality_v0(...)

; Function Attrs: noinline nounwind uwtable
define linkonce_odr dso_local void @_ZNSt7__cxx114listIN6dealii12SmartPointerIN9libparest17PerStepStatisticsEEESaIS5_EE8pop_backEv(%"class.std::__cxx11::list"* %this) #1 comdat align 2 !dbg !3680 {
entry:
  %this.addr = alloca %"class.std::__cxx11::list"*, align 8
  %agg.tmp = alloca %"struct.std::_List_iterator.34", align 8
  store %"class.std::__cxx11::list"* %this, %"class.std::__cxx11::list"** %this.addr, align 8
  call void @llvm.dbg.declare(metadata %"class.std::__cxx11::list"** %this.addr, metadata !3681, metadata !DIExpression()), !dbg !3682
  %this1 = load %"class.std::__cxx11::list"*, %"class.std::__cxx11::list"** %this.addr, align 8
  %0 = bitcast %"class.std::__cxx11::list"* %this1 to %"class.std::__cxx11::_List_base"*, !dbg !3683
  %_M_impl = getelementptr inbounds %"class.std::__cxx11::_List_base", %"class.std::__cxx11::_List_base"* %0, i32 0, i32 0, !dbg !3683
  %_M_node = getelementptr inbounds %"struct.std::__cxx11::_List_base<dealii::SmartPointer<libparest::PerStepStatistics>, std::allocator<dealii::SmartPointer<libparest::PerStepStatistics> > >::_List_impl", %"struct.std::__cxx11::_List_base<dealii::SmartPointer<libparest::PerStepStatistics>, std::allocator<dealii::SmartPointer<libparest::PerStepStatistics> > >::_List_impl"* %_M_impl, i32 0, i32 0, !dbg !3684
  %1 = bitcast %"struct.std::__detail::_List_node_header"* %_M_node to %"struct.std::__detail::_List_node_base"*, !dbg !3685
  %_M_prev = getelementptr inbounds %"struct.std::__detail::_List_node_base", %"struct.std::__detail::_List_node_base"* %1, i32 0, i32 1, !dbg !3686
  %2 = load %"struct.std::__detail::_List_node_base"*, %"struct.std::__detail::_List_node_base"** %_M_prev, align 8, !dbg !3686
  call void @_ZNSt14_List_iteratorIN6dealii12SmartPointerIN9libparest17PerStepStatisticsEEEEC2EPNSt8__detail15_List_node_baseE(%"struct.std::_List_iterator.34"* %agg.tmp, %"struct.std::__detail::_List_node_base"* %2) #4, !dbg !3687
  %coerce.dive = getelementptr inbounds %"struct.std::_List_iterator.34", %"struct.std::_List_iterator.34"* %agg.tmp, i32 0, i32 0, !dbg !3688
  %3 = load %"struct.std::__detail::_List_node_base"*, %"struct.std::__detail::_List_node_base"** %coerce.dive, align 8, !dbg !3688
  call void @_ZNSt7__cxx114listIN6dealii12SmartPointerIN9libparest17PerStepStatisticsEEESaIS5_EE8_M_eraseESt14_List_iteratorIS5_E(%"class.std::__cxx11::list"* %this1, %"struct.std::__detail::_List_node_base"* %3) #4, !dbg !3688
  ret void, !dbg !3689
}

; Function Attrs: noinline nounwind uwtable
define linkonce_odr dso_local void @_ZNSt7__cxx114listINS_12basic_stringIcSt11char_traitsIcESaIcEEESaIS5_EED2Ev(%"class.std::__cxx11::list.19"* %this) unnamed_addr #1 comdat align 2 !dbg !3690 {
entry:
  %this.addr = alloca %"class.std::__cxx11::list.19"*, align 8
  store %"class.std::__cxx11::list.19"* %this, %"class.std::__cxx11::list.19"** %this.addr, align 8
  call void @llvm.dbg.declare(metadata %"class.std::__cxx11::list.19"** %this.addr, metadata !3691, metadata !DIExpression()), !dbg !3693
  %this1 = load %"class.std::__cxx11::list.19"*, %"class.std::__cxx11::list.19"** %this.addr, align 8
  %0 = bitcast %"class.std::__cxx11::list.19"* %this1 to %"class.std::__cxx11::_List_base.20"*, !dbg !3694
  call void @_ZNSt7__cxx1110_List_baseINS_12basic_stringIcSt11char_traitsIcESaIcEEESaIS5_EED2Ev(%"class.std::__cxx11::_List_base.20"* %0) #4, !dbg !3694
  ret void, !dbg !3696
}

; Function Attrs: noinline nounwind uwtable
define linkonce_odr dso_local void @_ZNSt7__cxx114listIN6dealii12SmartPointerIN9libparest17PerStepStatisticsEEESaIS5_EED2Ev(%"class.std::__cxx11::list"* %this) unnamed_addr #1 comdat align 2 !dbg !3697 {
entry:
  %this.addr = alloca %"class.std::__cxx11::list"*, align 8
  store %"class.std::__cxx11::list"* %this, %"class.std::__cxx11::list"** %this.addr, align 8
  call void @llvm.dbg.declare(metadata %"class.std::__cxx11::list"** %this.addr, metadata !3698, metadata !DIExpression()), !dbg !3699
  %this1 = load %"class.std::__cxx11::list"*, %"class.std::__cxx11::list"** %this.addr, align 8
  %0 = bitcast %"class.std::__cxx11::list"* %this1 to %"class.std::__cxx11::_List_base"*, !dbg !3700
  call void @_ZNSt7__cxx1110_List_baseIN6dealii12SmartPointerIN9libparest17PerStepStatisticsEEESaIS5_EED2Ev(%"class.std::__cxx11::_List_base"* %0) #4, !dbg !3700
  ret void, !dbg !3702
}

; Function Attrs: noinline noreturn nounwind
define linkonce_odr hidden void @__clang_call_terminate(i8* %0) #7 comdat {
  %2 = call i8* @__cxa_begin_catch(i8* %0) #4
  call void @_ZSt9terminatev() #11
  unreachable
}

declare dso_local i8* @__cxa_begin_catch(i8*)

declare dso_local void @_ZSt9terminatev()

; Function Attrs: noinline uwtable
define dso_local void @_ZN9libparest10Statistics8add_stepEPNS_17PerStepStatisticsE(%"class.libparest::Statistics"* %this, %"class.libparest::PerStepStatistics"* %s) #0 align 2 personality i8* bitcast (i32 (...)* @__gxx_personality_v0 to i8*) !dbg !3703 {
entry:
  %this.addr = alloca %"class.libparest::Statistics"*, align 8
  %s.addr = alloca %"class.libparest::PerStepStatistics"*, align 8
  %ref.tmp = alloca %"class.dealii::SmartPointer", align 8
  %exn.slot = alloca i8*
  %ehselector.slot = alloca i32
  store %"class.libparest::Statistics"* %this, %"class.libparest::Statistics"** %this.addr, align 8
  call void @llvm.dbg.declare(metadata %"class.libparest::Statistics"** %this.addr, metadata !3704, metadata !DIExpression()), !dbg !3705
  store %"class.libparest::PerStepStatistics"* %s, %"class.libparest::PerStepStatistics"** %s.addr, align 8
  call void @llvm.dbg.declare(metadata %"class.libparest::PerStepStatistics"** %s.addr, metadata !3706, metadata !DIExpression()), !dbg !3707
  %this1 = load %"class.libparest::Statistics"*, %"class.libparest::Statistics"** %this.addr, align 8
  %steps = getelementptr inbounds %"class.libparest::Statistics", %"class.libparest::Statistics"* %this1, i32 0, i32 0, !dbg !3708
  %0 = load %"class.libparest::PerStepStatistics"*, %"class.libparest::PerStepStatistics"** %s.addr, align 8, !dbg !3709
  call void @_ZN6dealii12SmartPointerIN9libparest17PerStepStatisticsEEC2EPS2_PKc(%"class.dealii::SmartPointer"* %ref.tmp, %"class.libparest::PerStepStatistics"* %0, i8* null), !dbg !3709
  invoke void @_ZNSt7__cxx114listIN6dealii12SmartPointerIN9libparest17PerStepStatisticsEEESaIS5_EE9push_backEOS5_(%"class.std::__cxx11::list"* %steps, %"class.dealii::SmartPointer"* dereferenceable(16) %ref.tmp)
          to label %invoke.cont unwind label %lpad, !dbg !3710

invoke.cont:                                      ; preds = %entry
  call void @_ZN6dealii12SmartPointerIN9libparest17PerStepStatisticsEED2Ev(%"class.dealii::SmartPointer"* %ref.tmp) #4, !dbg !3708
  ret void, !dbg !3711

lpad:                                             ; preds = %entry
  %1 = landingpad { i8*, i32 }
          cleanup, !dbg !3711
  %2 = extractvalue { i8*, i32 } %1, 0, !dbg !3711
  store i8* %2, i8** %exn.slot, align 8, !dbg !3711
  %3 = extractvalue { i8*, i32 } %1, 1, !dbg !3711
  store i32 %3, i32* %ehselector.slot, align 4, !dbg !3711
  call void @_ZN6dealii12SmartPointerIN9libparest17PerStepStatisticsEED2Ev(%"class.dealii::SmartPointer"* %ref.tmp) #4, !dbg !3708
  br label %eh.resume, !dbg !3708

eh.resume:                                        ; preds = %lpad
  %exn = load i8*, i8** %exn.slot, align 8, !dbg !3708
  %sel = load i32, i32* %ehselector.slot, align 4, !dbg !3708
  %lpad.val = insertvalue { i8*, i32 } undef, i8* %exn, 0, !dbg !3708
  %lpad.val2 = insertvalue { i8*, i32 } %lpad.val, i32 %sel, 1, !dbg !3708
  resume { i8*, i32 } %lpad.val2, !dbg !3708
}

; Function Attrs: noinline uwtable
define linkonce_odr dso_local void @_ZNSt7__cxx114listIN6dealii12SmartPointerIN9libparest17PerStepStatisticsEEESaIS5_EE9push_backEOS5_(%"class.std::__cxx11::list"* %this, %"class.dealii::SmartPointer"* dereferenceable(16) %__x) #0 comdat align 2 !dbg !3712 {
entry:
  %this.addr = alloca %"class.std::__cxx11::list"*, align 8
  %__x.addr = alloca %"class.dealii::SmartPointer"*, align 8
  %agg.tmp = alloca %"struct.std::_List_iterator.34", align 8
  store %"class.std::__cxx11::list"* %this, %"class.std::__cxx11::list"** %this.addr, align 8
  call void @llvm.dbg.declare(metadata %"class.std::__cxx11::list"** %this.addr, metadata !3713, metadata !DIExpression()), !dbg !3714
  store %"class.dealii::SmartPointer"* %__x, %"class.dealii::SmartPointer"** %__x.addr, align 8
  call void @llvm.dbg.declare(metadata %"class.dealii::SmartPointer"** %__x.addr, metadata !3715, metadata !DIExpression()), !dbg !3716
  %this1 = load %"class.std::__cxx11::list"*, %"class.std::__cxx11::list"** %this.addr, align 8
  %call = call %"struct.std::__detail::_List_node_base"* @_ZNSt7__cxx114listIN6dealii12SmartPointerIN9libparest17PerStepStatisticsEEESaIS5_EE3endEv(%"class.std::__cxx11::list"* %this1) #4, !dbg !3717
  %coerce.dive = getelementptr inbounds %"struct.std::_List_iterator.34", %"struct.std::_List_iterator.34"* %agg.tmp, i32 0, i32 0, !dbg !3717
  store %"struct.std::__detail::_List_node_base"* %call, %"struct.std::__detail::_List_node_base"** %coerce.dive, align 8, !dbg !3717
  %0 = load %"class.dealii::SmartPointer"*, %"class.dealii::SmartPointer"** %__x.addr, align 8, !dbg !3718
  %call2 = call dereferenceable(16) %"class.dealii::SmartPointer"* @_ZSt4moveIRN6dealii12SmartPointerIN9libparest17PerStepStatisticsEEEEONSt16remove_referenceIT_E4typeEOS7_(%"class.dealii::SmartPointer"* dereferenceable(16) %0) #4, !dbg !3719
  %coerce.dive3 = getelementptr inbounds %"struct.std::_List_iterator.34", %"struct.std::_List_iterator.34"* %agg.tmp, i32 0, i32 0, !dbg !3720
  %1 = load %"struct.std::__detail::_List_node_base"*, %"struct.std::__detail::_List_node_base"** %coerce.dive3, align 8, !dbg !3720
  call void @_ZNSt7__cxx114listIN6dealii12SmartPointerIN9libparest17PerStepStatisticsEEESaIS5_EE9_M_insertIJS5_EEEvSt14_List_iteratorIS5_EDpOT_(%"class.std::__cxx11::list"* %this1, %"struct.std::__detail::_List_node_base"* %1, %"class.dealii::SmartPointer"* dereferenceable(16) %call2), !dbg !3720
  ret void, !dbg !3721
}

; Function Attrs: noinline nounwind uwtable
define linkonce_odr dso_local void @_ZN6dealii12SmartPointerIN9libparest17PerStepStatisticsEEC2EPS2_PKc(%"class.dealii::SmartPointer"* %this, %"class.libparest::PerStepStatistics"* %t, i8* %id) unnamed_addr #1 comdat align 2 !dbg !3722 {
entry:
  %this.addr = alloca %"class.dealii::SmartPointer"*, align 8
  %t.addr = alloca %"class.libparest::PerStepStatistics"*, align 8
  %id.addr = alloca i8*, align 8
  store %"class.dealii::SmartPointer"* %this, %"class.dealii::SmartPointer"** %this.addr, align 8
  call void @llvm.dbg.declare(metadata %"class.dealii::SmartPointer"** %this.addr, metadata !3723, metadata !DIExpression()), !dbg !3724
  store %"class.libparest::PerStepStatistics"* %t, %"class.libparest::PerStepStatistics"** %t.addr, align 8
  call void @llvm.dbg.declare(metadata %"class.libparest::PerStepStatistics"** %t.addr, metadata !3725, metadata !DIExpression()), !dbg !3726
  store i8* %id, i8** %id.addr, align 8
  call void @llvm.dbg.declare(metadata i8** %id.addr, metadata !3727, metadata !DIExpression()), !dbg !3728
  %this1 = load %"class.dealii::SmartPointer"*, %"class.dealii::SmartPointer"** %this.addr, align 8
  %t2 = getelementptr inbounds %"class.dealii::SmartPointer", %"class.dealii::SmartPointer"* %this1, i32 0, i32 0, !dbg !3729
  %0 = load %"class.libparest::PerStepStatistics"*, %"class.libparest::PerStepStatistics"** %t.addr, align 8, !dbg !3730
  store %"class.libparest::PerStepStatistics"* %0, %"class.libparest::PerStepStatistics"** %t2, align 8, !dbg !3729
  %id3 = getelementptr inbounds %"class.dealii::SmartPointer", %"class.dealii::SmartPointer"* %this1, i32 0, i32 1, !dbg !3731
  %1 = load i8*, i8** %id.addr, align 8, !dbg !3732
  store i8* %1, i8** %id3, align 8, !dbg !3731
  %2 = load %"class.libparest::PerStepStatistics"*, %"class.libparest::PerStepStatistics"** %t.addr, align 8, !dbg !3733
  %cmp = icmp ne %"class.libparest::PerStepStatistics"* %2, null, !dbg !3736
  br i1 %cmp, label %if.then, label %if.end, !dbg !3737

if.then:                                          ; preds = %entry
  %3 = load %"class.libparest::PerStepStatistics"*, %"class.libparest::PerStepStatistics"** %t.addr, align 8, !dbg !3738
  %4 = bitcast %"class.libparest::PerStepStatistics"* %3 to %"class.dealii::Subscriptor"*, !dbg !3739
  %5 = load i8*, i8** %id.addr, align 8, !dbg !3740
  call void @_ZNK6dealii11Subscriptor9subscribeEPKc(%"class.dealii::Subscriptor"* %4, i8* %5), !dbg !3739
  br label %if.end, !dbg !3738

if.end:                                           ; preds = %if.then, %entry
  ret void, !dbg !3741
}

; Function Attrs: noinline nounwind uwtable
define linkonce_odr dso_local void @_ZN6dealii12SmartPointerIN9libparest17PerStepStatisticsEED2Ev(%"class.dealii::SmartPointer"* %this) unnamed_addr #1 comdat align 2 personality i8* bitcast (i32 (...)* @__gxx_personality_v0 to i8*) !dbg !3742 {
entry:
  %this.addr = alloca %"class.dealii::SmartPointer"*, align 8
  store %"class.dealii::SmartPointer"* %this, %"class.dealii::SmartPointer"** %this.addr, align 8
  call void @llvm.dbg.declare(metadata %"class.dealii::SmartPointer"** %this.addr, metadata !3743, metadata !DIExpression()), !dbg !3744
  %this1 = load %"class.dealii::SmartPointer"*, %"class.dealii::SmartPointer"** %this.addr, align 8
  %t = getelementptr inbounds %"class.dealii::SmartPointer", %"class.dealii::SmartPointer"* %this1, i32 0, i32 0, !dbg !3745
  %0 = load %"class.libparest::PerStepStatistics"*, %"class.libparest::PerStepStatistics"** %t, align 8, !dbg !3745
  %cmp = icmp ne %"class.libparest::PerStepStatistics"* %0, null, !dbg !3748
  br i1 %cmp, label %if.then, label %if.end, !dbg !3749

if.then:                                          ; preds = %entry
  %t2 = getelementptr inbounds %"class.dealii::SmartPointer", %"class.dealii::SmartPointer"* %this1, i32 0, i32 0, !dbg !3750
  %1 = load %"class.libparest::PerStepStatistics"*, %"class.libparest::PerStepStatistics"** %t2, align 8, !dbg !3750
  %2 = bitcast %"class.libparest::PerStepStatistics"* %1 to %"class.dealii::Subscriptor"*, !dbg !3751
  %id = getelementptr inbounds %"class.dealii::SmartPointer", %"class.dealii::SmartPointer"* %this1, i32 0, i32 1, !dbg !3752
  %3 = load i8*, i8** %id, align 8, !dbg !3752
  invoke void @_ZNK6dealii11Subscriptor11unsubscribeEPKc(%"class.dealii::Subscriptor"* %2, i8* %3)
          to label %invoke.cont unwind label %terminate.lpad, !dbg !3751

invoke.cont:                                      ; preds = %if.then
  br label %if.end, !dbg !3750

if.end:                                           ; preds = %invoke.cont, %entry
  ret void, !dbg !3753

terminate.lpad:                                   ; preds = %if.then
  %4 = landingpad { i8*, i32 }
          catch i8* null, !dbg !3751
  %5 = extractvalue { i8*, i32 } %4, 0, !dbg !3751
  call void @__clang_call_terminate(i8* %5) #11, !dbg !3751
  unreachable, !dbg !3751
}

; Function Attrs: noinline uwtable
define dso_local void @_ZNK9libparest10Statistics5printERSo(%"class.libparest::Statistics"* %this, %"class.std::basic_ostream"* dereferenceable(272) %out) #0 align 2 personality i8* bitcast (i32 (...)* @__gxx_personality_v0 to i8*) !dbg !3754 {
entry:
  %this.addr = alloca %"class.libparest::Statistics"*, align 8
  %out.addr = alloca %"class.std::basic_ostream"*, align 8
  %ref.tmp = alloca %"class.std::__cxx11::list.19", align 8
  %ref.tmp2 = alloca %"struct.std::_List_const_iterator", align 8
  %index = alloca i32, align 4
  %name = alloca %"struct.std::_List_const_iterator.24", align 8
  %ref.tmp8 = alloca %"struct.std::_List_iterator", align 8
  %ref.tmp12 = alloca %"struct.std::_List_const_iterator.24", align 8
  %ref.tmp13 = alloca %"struct.std::_List_iterator", align 8
  %ref.tmp19 = alloca %"class.std::__cxx11::basic_string", align 8
  %exn.slot = alloca i8*
  %ehselector.slot = alloca i32
  %sindex = alloca i32, align 4
  %step = alloca %"struct.std::_List_const_iterator", align 8
  %ref.tmp36 = alloca %"struct.std::_List_const_iterator", align 8
  %values = alloca %"class.std::__cxx11::list.28", align 8
  %i = alloca %"struct.std::_List_const_iterator.33", align 8
  %ref.tmp49 = alloca %"struct.std::_List_const_iterator.33", align 8
  %agg.tmp = alloca %"struct.std::_Setw", align 4
  %agg.tmp61 = alloca %"struct.std::_Setprecision", align 4
  store %"class.libparest::Statistics"* %this, %"class.libparest::Statistics"** %this.addr, align 8
  call void @llvm.dbg.declare(metadata %"class.libparest::Statistics"** %this.addr, metadata !3755, metadata !DIExpression()), !dbg !3757
  store %"class.std::basic_ostream"* %out, %"class.std::basic_ostream"** %out.addr, align 8
  call void @llvm.dbg.declare(metadata %"class.std::basic_ostream"** %out.addr, metadata !3758, metadata !DIExpression()), !dbg !3759
  %this1 = load %"class.libparest::Statistics"*, %"class.libparest::Statistics"** %this.addr, align 8
  %cached_column_names = getelementptr inbounds %"class.libparest::Statistics", %"class.libparest::Statistics"* %this1, i32 0, i32 1, !dbg !3760
  %call = call i64 @_ZNKSt7__cxx114listINS_12basic_stringIcSt11char_traitsIcESaIcEEESaIS5_EE4sizeEv(%"class.std::__cxx11::list.19"* %cached_column_names) #4, !dbg !3762
  %cmp = icmp eq i64 %call, 0, !dbg !3763
  br i1 %cmp, label %if.then, label %if.end, !dbg !3764

if.then:                                          ; preds = %entry
  %steps = getelementptr inbounds %"class.libparest::Statistics", %"class.libparest::Statistics"* %this1, i32 0, i32 0, !dbg !3765
  %call3 = call %"struct.std::__detail::_List_node_base"* @_ZNKSt7__cxx114listIN6dealii12SmartPointerIN9libparest17PerStepStatisticsEEESaIS5_EE5beginEv(%"class.std::__cxx11::list"* %steps) #4, !dbg !3766
  %coerce.dive = getelementptr inbounds %"struct.std::_List_const_iterator", %"struct.std::_List_const_iterator"* %ref.tmp2, i32 0, i32 0, !dbg !3766
  store %"struct.std::__detail::_List_node_base"* %call3, %"struct.std::__detail::_List_node_base"** %coerce.dive, align 8, !dbg !3766
  %call4 = call dereferenceable(16) %"class.dealii::SmartPointer"* @_ZNKSt20_List_const_iteratorIN6dealii12SmartPointerIN9libparest17PerStepStatisticsEEEEdeEv(%"struct.std::_List_const_iterator"* %ref.tmp2) #4, !dbg !3767
  %call5 = call %"class.libparest::PerStepStatistics"* @_ZNK6dealii12SmartPointerIN9libparest17PerStepStatisticsEEptEv(%"class.dealii::SmartPointer"* %call4), !dbg !3768
  %0 = bitcast %"class.libparest::PerStepStatistics"* %call5 to void (%"class.std::__cxx11::list.19"*, %"class.libparest::PerStepStatistics"*)***, !dbg !3769
  %vtable = load void (%"class.std::__cxx11::list.19"*, %"class.libparest::PerStepStatistics"*)**, void (%"class.std::__cxx11::list.19"*, %"class.libparest::PerStepStatistics"*)*** %0, align 8, !dbg !3769
  %vfn = getelementptr inbounds void (%"class.std::__cxx11::list.19"*, %"class.libparest::PerStepStatistics"*)*, void (%"class.std::__cxx11::list.19"*, %"class.libparest::PerStepStatistics"*)** %vtable, i64 2, !dbg !3769
  %1 = load void (%"class.std::__cxx11::list.19"*, %"class.libparest::PerStepStatistics"*)*, void (%"class.std::__cxx11::list.19"*, %"class.libparest::PerStepStatistics"*)** %vfn, align 8, !dbg !3769
  call void %1(%"class.std::__cxx11::list.19"* sret %ref.tmp, %"class.libparest::PerStepStatistics"* %call5), !dbg !3769
  %cached_column_names6 = getelementptr inbounds %"class.libparest::Statistics", %"class.libparest::Statistics"* %this1, i32 0, i32 1, !dbg !3770
  %call7 = call dereferenceable(24) %"class.std::__cxx11::list.19"* @_ZNSt7__cxx114listINS_12basic_stringIcSt11char_traitsIcESaIcEEESaIS5_EEaSEOS7_(%"class.std::__cxx11::list.19"* %cached_column_names6, %"class.std::__cxx11::list.19"* dereferenceable(24) %ref.tmp) #4, !dbg !3771
  call void @_ZNSt7__cxx114listINS_12basic_stringIcSt11char_traitsIcESaIcEEESaIS5_EED2Ev(%"class.std::__cxx11::list.19"* %ref.tmp) #4, !dbg !3770
  br label %if.end, !dbg !3770

if.end:                                           ; preds = %if.then, %entry
  call void @llvm.dbg.declare(metadata i32* %index, metadata !3772, metadata !DIExpression()), !dbg !3773
  store i32 1, i32* %index, align 4, !dbg !3773
  call void @llvm.dbg.declare(metadata %"struct.std::_List_const_iterator.24"* %name, metadata !3774, metadata !DIExpression()), !dbg !3776
  %cached_column_names9 = getelementptr inbounds %"class.libparest::Statistics", %"class.libparest::Statistics"* %this1, i32 0, i32 1, !dbg !3777
  %call10 = call %"struct.std::__detail::_List_node_base"* @_ZNSt7__cxx114listINS_12basic_stringIcSt11char_traitsIcESaIcEEESaIS5_EE5beginEv(%"class.std::__cxx11::list.19"* %cached_column_names9) #4, !dbg !3778
  %coerce.dive11 = getelementptr inbounds %"struct.std::_List_iterator", %"struct.std::_List_iterator"* %ref.tmp8, i32 0, i32 0, !dbg !3778
  store %"struct.std::__detail::_List_node_base"* %call10, %"struct.std::__detail::_List_node_base"** %coerce.dive11, align 8, !dbg !3778
  call void @_ZNSt20_List_const_iteratorINSt7__cxx1112basic_stringIcSt11char_traitsIcESaIcEEEEC2ERKSt14_List_iteratorIS5_E(%"struct.std::_List_const_iterator.24"* %name, %"struct.std::_List_iterator"* dereferenceable(8) %ref.tmp8) #4, !dbg !3777
  br label %for.cond, !dbg !3779

for.cond:                                         ; preds = %for.inc, %if.end
  %cached_column_names14 = getelementptr inbounds %"class.libparest::Statistics", %"class.libparest::Statistics"* %this1, i32 0, i32 1, !dbg !3780
  %call15 = call %"struct.std::__detail::_List_node_base"* @_ZNSt7__cxx114listINS_12basic_stringIcSt11char_traitsIcESaIcEEESaIS5_EE3endEv(%"class.std::__cxx11::list.19"* %cached_column_names14) #4, !dbg !3782
  %coerce.dive16 = getelementptr inbounds %"struct.std::_List_iterator", %"struct.std::_List_iterator"* %ref.tmp13, i32 0, i32 0, !dbg !3782
  store %"struct.std::__detail::_List_node_base"* %call15, %"struct.std::__detail::_List_node_base"** %coerce.dive16, align 8, !dbg !3782
  call void @_ZNSt20_List_const_iteratorINSt7__cxx1112basic_stringIcSt11char_traitsIcESaIcEEEEC2ERKSt14_List_iteratorIS5_E(%"struct.std::_List_const_iterator.24"* %ref.tmp12, %"struct.std::_List_iterator"* dereferenceable(8) %ref.tmp13) #4, !dbg !3780
  %call17 = call zeroext i1 @_ZStneRKSt20_List_const_iteratorINSt7__cxx1112basic_stringIcSt11char_traitsIcESaIcEEEES8_(%"struct.std::_List_const_iterator.24"* dereferenceable(8) %name, %"struct.std::_List_const_iterator.24"* dereferenceable(8) %ref.tmp12) #4, !dbg !3783
  br i1 %call17, label %for.body, label %for.end, !dbg !3784

for.body:                                         ; preds = %for.cond
  %2 = load %"class.std::basic_ostream"*, %"class.std::basic_ostream"** %out.addr, align 8, !dbg !3785
  %call18 = call dereferenceable(272) %"class.std::basic_ostream"* @_ZStlsISt11char_traitsIcEERSt13basic_ostreamIcT_ES5_PKc(%"class.std::basic_ostream"* dereferenceable(272) %2, i8* getelementptr inbounds ([3 x i8], [3 x i8]* @.str, i64 0, i64 0)), !dbg !3786
  %3 = load i32, i32* %index, align 4, !dbg !3787
  %cached_column_names20 = getelementptr inbounds %"class.libparest::Statistics", %"class.libparest::Statistics"* %this1, i32 0, i32 1, !dbg !3788
  %call21 = call i64 @_ZNKSt7__cxx114listINS_12basic_stringIcSt11char_traitsIcESaIcEEESaIS5_EE4sizeEv(%"class.std::__cxx11::list.19"* %cached_column_names20) #4, !dbg !3789
  %conv = trunc i64 %call21 to i32, !dbg !3788
  %call22 = call i32 @_ZN6dealii9Utilities13needed_digitsEj(i32 %conv), !dbg !3790
  call void @_ZN6dealii9Utilities13int_to_stringB5cxx11Ejj(%"class.std::__cxx11::basic_string"* sret %ref.tmp19, i32 %3, i32 %call22), !dbg !3791
  %call23 = invoke dereferenceable(272) %"class.std::basic_ostream"* @_ZStlsIcSt11char_traitsIcESaIcEERSt13basic_ostreamIT_T0_ES7_RKNSt7__cxx1112basic_stringIS4_S5_T1_EE(%"class.std::basic_ostream"* dereferenceable(272) %call18, %"class.std::__cxx11::basic_string"* dereferenceable(32) %ref.tmp19)
          to label %invoke.cont unwind label %lpad, !dbg !3792

invoke.cont:                                      ; preds = %for.body
  %call25 = invoke dereferenceable(272) %"class.std::basic_ostream"* @_ZStlsISt11char_traitsIcEERSt13basic_ostreamIcT_ES5_PKc(%"class.std::basic_ostream"* dereferenceable(272) %call23, i8* getelementptr inbounds ([3 x i8], [3 x i8]* @.str.10, i64 0, i64 0))
          to label %invoke.cont24 unwind label %lpad, !dbg !3793

invoke.cont24:                                    ; preds = %invoke.cont
  %call26 = call dereferenceable(32) %"class.std::__cxx11::basic_string"* @_ZNKSt20_List_const_iteratorINSt7__cxx1112basic_stringIcSt11char_traitsIcESaIcEEEEdeEv(%"struct.std::_List_const_iterator.24"* %name) #4, !dbg !3794
  %call28 = invoke dereferenceable(272) %"class.std::basic_ostream"* @_ZStlsIcSt11char_traitsIcESaIcEERSt13basic_ostreamIT_T0_ES7_RKNSt7__cxx1112basic_stringIS4_S5_T1_EE(%"class.std::basic_ostream"* dereferenceable(272) %call25, %"class.std::__cxx11::basic_string"* dereferenceable(32) %call26)
          to label %invoke.cont27 unwind label %lpad, !dbg !3795

invoke.cont27:                                    ; preds = %invoke.cont24
  %call30 = invoke dereferenceable(272) %"class.std::basic_ostream"* @_ZNSolsEPFRSoS_E(%"class.std::basic_ostream"* %call28, %"class.std::basic_ostream"* (%"class.std::basic_ostream"*)* @_ZSt4endlIcSt11char_traitsIcEERSt13basic_ostreamIT_T0_ES6_)
          to label %invoke.cont29 unwind label %lpad, !dbg !3796

invoke.cont29:                                    ; preds = %invoke.cont27
  call void @_ZNSt7__cxx1112basic_stringIcSt11char_traitsIcESaIcEED1Ev(%"class.std::__cxx11::basic_string"* %ref.tmp19) #4, !dbg !3785
  br label %for.inc, !dbg !3785

for.inc:                                          ; preds = %invoke.cont29
  %call31 = call dereferenceable(8) %"struct.std::_List_const_iterator.24"* @_ZNSt20_List_const_iteratorINSt7__cxx1112basic_stringIcSt11char_traitsIcESaIcEEEEppEv(%"struct.std::_List_const_iterator.24"* %name) #4, !dbg !3797
  %4 = load i32, i32* %index, align 4, !dbg !3798
  %inc = add i32 %4, 1, !dbg !3798
  store i32 %inc, i32* %index, align 4, !dbg !3798
  br label %for.cond, !dbg !3799, !llvm.loop !3800

lpad:                                             ; preds = %invoke.cont27, %invoke.cont24, %invoke.cont, %for.body
  %5 = landingpad { i8*, i32 }
          cleanup, !dbg !3802
  %6 = extractvalue { i8*, i32 } %5, 0, !dbg !3802
  store i8* %6, i8** %exn.slot, align 8, !dbg !3802
  %7 = extractvalue { i8*, i32 } %5, 1, !dbg !3802
  store i32 %7, i32* %ehselector.slot, align 4, !dbg !3802
  call void @_ZNSt7__cxx1112basic_stringIcSt11char_traitsIcESaIcEED1Ev(%"class.std::__cxx11::basic_string"* %ref.tmp19) #4, !dbg !3785
  br label %eh.resume, !dbg !3785

for.end:                                          ; preds = %for.cond
  call void @llvm.dbg.declare(metadata i32* %sindex, metadata !3803, metadata !DIExpression()), !dbg !3804
  store i32 0, i32* %sindex, align 4, !dbg !3804
  call void @llvm.dbg.declare(metadata %"struct.std::_List_const_iterator"* %step, metadata !3805, metadata !DIExpression()), !dbg !3807
  %steps32 = getelementptr inbounds %"class.libparest::Statistics", %"class.libparest::Statistics"* %this1, i32 0, i32 0, !dbg !3808
  %call33 = call %"struct.std::__detail::_List_node_base"* @_ZNKSt7__cxx114listIN6dealii12SmartPointerIN9libparest17PerStepStatisticsEEESaIS5_EE5beginEv(%"class.std::__cxx11::list"* %steps32) #4, !dbg !3809
  %coerce.dive34 = getelementptr inbounds %"struct.std::_List_const_iterator", %"struct.std::_List_const_iterator"* %step, i32 0, i32 0, !dbg !3809
  store %"struct.std::__detail::_List_node_base"* %call33, %"struct.std::__detail::_List_node_base"** %coerce.dive34, align 8, !dbg !3809
  br label %for.cond35, !dbg !3810

for.cond35:                                       ; preds = %for.inc78, %for.end
  %steps37 = getelementptr inbounds %"class.libparest::Statistics", %"class.libparest::Statistics"* %this1, i32 0, i32 0, !dbg !3811
  %call38 = call %"struct.std::__detail::_List_node_base"* @_ZNKSt7__cxx114listIN6dealii12SmartPointerIN9libparest17PerStepStatisticsEEESaIS5_EE3endEv(%"class.std::__cxx11::list"* %steps37) #4, !dbg !3813
  %coerce.dive39 = getelementptr inbounds %"struct.std::_List_const_iterator", %"struct.std::_List_const_iterator"* %ref.tmp36, i32 0, i32 0, !dbg !3813
  store %"struct.std::__detail::_List_node_base"* %call38, %"struct.std::__detail::_List_node_base"** %coerce.dive39, align 8, !dbg !3813
  %call40 = call zeroext i1 @_ZStneRKSt20_List_const_iteratorIN6dealii12SmartPointerIN9libparest17PerStepStatisticsEEEES7_(%"struct.std::_List_const_iterator"* dereferenceable(8) %step, %"struct.std::_List_const_iterator"* dereferenceable(8) %ref.tmp36) #4, !dbg !3814
  br i1 %call40, label %for.body41, label %for.end81, !dbg !3815

for.body41:                                       ; preds = %for.cond35
  call void @llvm.dbg.declare(metadata %"class.std::__cxx11::list.28"* %values, metadata !3816, metadata !DIExpression()), !dbg !3818
  %call42 = call dereferenceable(16) %"class.dealii::SmartPointer"* @_ZNKSt20_List_const_iteratorIN6dealii12SmartPointerIN9libparest17PerStepStatisticsEEEEdeEv(%"struct.std::_List_const_iterator"* %step) #4, !dbg !3819
  %call43 = call %"class.libparest::PerStepStatistics"* @_ZNK6dealii12SmartPointerIN9libparest17PerStepStatisticsEEptEv(%"class.dealii::SmartPointer"* %call42), !dbg !3820
  %8 = bitcast %"class.libparest::PerStepStatistics"* %call43 to void (%"class.std::__cxx11::list.28"*, %"class.libparest::PerStepStatistics"*)***, !dbg !3821
  %vtable44 = load void (%"class.std::__cxx11::list.28"*, %"class.libparest::PerStepStatistics"*)**, void (%"class.std::__cxx11::list.28"*, %"class.libparest::PerStepStatistics"*)*** %8, align 8, !dbg !3821
  %vfn45 = getelementptr inbounds void (%"class.std::__cxx11::list.28"*, %"class.libparest::PerStepStatistics"*)*, void (%"class.std::__cxx11::list.28"*, %"class.libparest::PerStepStatistics"*)** %vtable44, i64 3, !dbg !3821
  %9 = load void (%"class.std::__cxx11::list.28"*, %"class.libparest::PerStepStatistics"*)*, void (%"class.std::__cxx11::list.28"*, %"class.libparest::PerStepStatistics"*)** %vfn45, align 8, !dbg !3821
  call void %9(%"class.std::__cxx11::list.28"* sret %values, %"class.libparest::PerStepStatistics"* %call43), !dbg !3821
  call void @llvm.dbg.declare(metadata %"struct.std::_List_const_iterator.33"* %i, metadata !3822, metadata !DIExpression()), !dbg !3824
  %call46 = call %"struct.std::__detail::_List_node_base"* @_ZNKSt7__cxx114listIdSaIdEE5beginEv(%"class.std::__cxx11::list.28"* %values) #4, !dbg !3825
  %coerce.dive47 = getelementptr inbounds %"struct.std::_List_const_iterator.33", %"struct.std::_List_const_iterator.33"* %i, i32 0, i32 0, !dbg !3825
  store %"struct.std::__detail::_List_node_base"* %call46, %"struct.std::__detail::_List_node_base"** %coerce.dive47, align 8, !dbg !3825
  br label %for.cond48, !dbg !3826

for.cond48:                                       ; preds = %for.inc73, %for.body41
  %call50 = call %"struct.std::__detail::_List_node_base"* @_ZNKSt7__cxx114listIdSaIdEE3endEv(%"class.std::__cxx11::list.28"* %values) #4, !dbg !3827
  %coerce.dive51 = getelementptr inbounds %"struct.std::_List_const_iterator.33", %"struct.std::_List_const_iterator.33"* %ref.tmp49, i32 0, i32 0, !dbg !3827
  store %"struct.std::__detail::_List_node_base"* %call50, %"struct.std::__detail::_List_node_base"** %coerce.dive51, align 8, !dbg !3827
  %call52 = call zeroext i1 @_ZStneRKSt20_List_const_iteratorIdES2_(%"struct.std::_List_const_iterator.33"* dereferenceable(8) %i, %"struct.std::_List_const_iterator.33"* dereferenceable(8) %ref.tmp49) #4, !dbg !3829
  br i1 %call52, label %for.body53, label %for.end75, !dbg !3830

for.body53:                                       ; preds = %for.cond48
  %10 = load %"class.std::basic_ostream"*, %"class.std::basic_ostream"** %out.addr, align 8, !dbg !3831
  %call56 = invoke i32 @_ZSt4setwi(i32 10)
          to label %invoke.cont55 unwind label %lpad54, !dbg !3832

invoke.cont55:                                    ; preds = %for.body53
  %coerce.dive57 = getelementptr inbounds %"struct.std::_Setw", %"struct.std::_Setw"* %agg.tmp, i32 0, i32 0, !dbg !3832
  store i32 %call56, i32* %coerce.dive57, align 4, !dbg !3832
  %coerce.dive58 = getelementptr inbounds %"struct.std::_Setw", %"struct.std::_Setw"* %agg.tmp, i32 0, i32 0, !dbg !3833
  %11 = load i32, i32* %coerce.dive58, align 4, !dbg !3833
  %call60 = invoke dereferenceable(272) %"class.std::basic_ostream"* @_ZStlsIcSt11char_traitsIcEERSt13basic_ostreamIT_T0_ES6_St5_Setw(%"class.std::basic_ostream"* dereferenceable(272) %10, i32 %11)
          to label %invoke.cont59 unwind label %lpad54, !dbg !3833

invoke.cont59:                                    ; preds = %invoke.cont55
  %call63 = invoke i32 @_ZSt12setprecisioni(i32 6)
          to label %invoke.cont62 unwind label %lpad54, !dbg !3834

invoke.cont62:                                    ; preds = %invoke.cont59
  %coerce.dive64 = getelementptr inbounds %"struct.std::_Setprecision", %"struct.std::_Setprecision"* %agg.tmp61, i32 0, i32 0, !dbg !3834
  store i32 %call63, i32* %coerce.dive64, align 4, !dbg !3834
  %coerce.dive65 = getelementptr inbounds %"struct.std::_Setprecision", %"struct.std::_Setprecision"* %agg.tmp61, i32 0, i32 0, !dbg !3835
  %12 = load i32, i32* %coerce.dive65, align 4, !dbg !3835
  %call67 = invoke dereferenceable(272) %"class.std::basic_ostream"* @_ZStlsIcSt11char_traitsIcEERSt13basic_ostreamIT_T0_ES6_St13_Setprecision(%"class.std::basic_ostream"* dereferenceable(272) %call60, i32 %12)
          to label %invoke.cont66 unwind label %lpad54, !dbg !3835

invoke.cont66:                                    ; preds = %invoke.cont62
  %call68 = call dereferenceable(8) double* @_ZNKSt20_List_const_iteratorIdEdeEv(%"struct.std::_List_const_iterator.33"* %i) #4, !dbg !3836
  %13 = load double, double* %call68, align 8, !dbg !3836
  %call70 = invoke dereferenceable(272) %"class.std::basic_ostream"* @_ZNSolsEd(%"class.std::basic_ostream"* %call67, double %13)
          to label %invoke.cont69 unwind label %lpad54, !dbg !3837

invoke.cont69:                                    ; preds = %invoke.cont66
  %call72 = invoke dereferenceable(272) %"class.std::basic_ostream"* @_ZStlsISt11char_traitsIcEERSt13basic_ostreamIcT_ES5_PKc(%"class.std::basic_ostream"* dereferenceable(272) %call70, i8* getelementptr inbounds ([2 x i8], [2 x i8]* @.str.11, i64 0, i64 0))
          to label %invoke.cont71 unwind label %lpad54, !dbg !3838

invoke.cont71:                                    ; preds = %invoke.cont69
  br label %for.inc73, !dbg !3831

for.inc73:                                        ; preds = %invoke.cont71
  %call74 = call dereferenceable(8) %"struct.std::_List_const_iterator.33"* @_ZNSt20_List_const_iteratorIdEppEv(%"struct.std::_List_const_iterator.33"* %i) #4, !dbg !3839
  br label %for.cond48, !dbg !3840, !llvm.loop !3841

lpad54:                                           ; preds = %for.end75, %invoke.cont69, %invoke.cont66, %invoke.cont62, %invoke.cont59, %invoke.cont55, %for.body53
  %14 = landingpad { i8*, i32 }
          cleanup, !dbg !3843
  %15 = extractvalue { i8*, i32 } %14, 0, !dbg !3843
  store i8* %15, i8** %exn.slot, align 8, !dbg !3843
  %16 = extractvalue { i8*, i32 } %14, 1, !dbg !3843
  store i32 %16, i32* %ehselector.slot, align 4, !dbg !3843
  call void @_ZNSt7__cxx114listIdSaIdEED2Ev(%"class.std::__cxx11::list.28"* %values) #4, !dbg !3844
  br label %eh.resume, !dbg !3844

for.end75:                                        ; preds = %for.cond48
  %17 = load %"class.std::basic_ostream"*, %"class.std::basic_ostream"** %out.addr, align 8, !dbg !3845
  %call77 = invoke dereferenceable(272) %"class.std::basic_ostream"* @_ZNSolsEPFRSoS_E(%"class.std::basic_ostream"* %17, %"class.std::basic_ostream"* (%"class.std::basic_ostream"*)* @_ZSt4endlIcSt11char_traitsIcEERSt13basic_ostreamIT_T0_ES6_)
          to label %invoke.cont76 unwind label %lpad54, !dbg !3846

invoke.cont76:                                    ; preds = %for.end75
  call void @_ZNSt7__cxx114listIdSaIdEED2Ev(%"class.std::__cxx11::list.28"* %values) #4, !dbg !3844
  br label %for.inc78, !dbg !3847

for.inc78:                                        ; preds = %invoke.cont76
  %call79 = call dereferenceable(8) %"struct.std::_List_const_iterator"* @_ZNSt20_List_const_iteratorIN6dealii12SmartPointerIN9libparest17PerStepStatisticsEEEEppEv(%"struct.std::_List_const_iterator"* %step) #4, !dbg !3848
  %18 = load i32, i32* %sindex, align 4, !dbg !3849
  %inc80 = add nsw i32 %18, 1, !dbg !3849
  store i32 %inc80, i32* %sindex, align 4, !dbg !3849
  br label %for.cond35, !dbg !3850, !llvm.loop !3851

for.end81:                                        ; preds = %for.cond35
  ret void, !dbg !3853

eh.resume:                                        ; preds = %lpad54, %lpad
  %exn = load i8*, i8** %exn.slot, align 8, !dbg !3785
  %sel = load i32, i32* %ehselector.slot, align 4, !dbg !3785
  %lpad.val = insertvalue { i8*, i32 } undef, i8* %exn, 0, !dbg !3785
  %lpad.val82 = insertvalue { i8*, i32 } %lpad.val, i32 %sel, 1, !dbg !3785
  resume { i8*, i32 } %lpad.val82, !dbg !3785
}

; Function Attrs: noinline nounwind uwtable
define linkonce_odr dso_local i64 @_ZNKSt7__cxx114listINS_12basic_stringIcSt11char_traitsIcESaIcEEESaIS5_EE4sizeEv(%"class.std::__cxx11::list.19"* %this) #1 comdat align 2 personality i8* bitcast (i32 (...)* @__gxx_personality_v0 to i8*) !dbg !3854 {
entry:
  %this.addr = alloca %"class.std::__cxx11::list.19"*, align 8
  store %"class.std::__cxx11::list.19"* %this, %"class.std::__cxx11::list.19"** %this.addr, align 8
  call void @llvm.dbg.declare(metadata %"class.std::__cxx11::list.19"** %this.addr, metadata !3855, metadata !DIExpression()), !dbg !3857
  %this1 = load %"class.std::__cxx11::list.19"*, %"class.std::__cxx11::list.19"** %this.addr, align 8
  %call = invoke i64 @_ZNKSt7__cxx114listINS_12basic_stringIcSt11char_traitsIcESaIcEEESaIS5_EE13_M_node_countEv(%"class.std::__cxx11::list.19"* %this1)
          to label %invoke.cont unwind label %terminate.lpad, !dbg !3858

invoke.cont:                                      ; preds = %entry
  ret i64 %call, !dbg !3859

terminate.lpad:                                   ; preds = %entry
  %0 = landingpad { i8*, i32 }
          catch i8* null, !dbg !3858
  %1 = extractvalue { i8*, i32 } %0, 0, !dbg !3858
  call void @__clang_call_terminate(i8* %1) #11, !dbg !3858
  unreachable, !dbg !3858
}

; Function Attrs: noinline nounwind uwtable
define linkonce_odr dso_local %"struct.std::__detail::_List_node_base"* @_ZNKSt7__cxx114listIN6dealii12SmartPointerIN9libparest17PerStepStatisticsEEESaIS5_EE5beginEv(%"class.std::__cxx11::list"* %this) #1 comdat align 2 !dbg !3860 {
entry:
  %retval = alloca %"struct.std::_List_const_iterator", align 8
  %this.addr = alloca %"class.std::__cxx11::list"*, align 8
  store %"class.std::__cxx11::list"* %this, %"class.std::__cxx11::list"** %this.addr, align 8
  call void @llvm.dbg.declare(metadata %"class.std::__cxx11::list"** %this.addr, metadata !3861, metadata !DIExpression()), !dbg !3862
  %this1 = load %"class.std::__cxx11::list"*, %"class.std::__cxx11::list"** %this.addr, align 8
  %0 = bitcast %"class.std::__cxx11::list"* %this1 to %"class.std::__cxx11::_List_base"*, !dbg !3863
  %_M_impl = getelementptr inbounds %"class.std::__cxx11::_List_base", %"class.std::__cxx11::_List_base"* %0, i32 0, i32 0, !dbg !3863
  %_M_node = getelementptr inbounds %"struct.std::__cxx11::_List_base<dealii::SmartPointer<libparest::PerStepStatistics>, std::allocator<dealii::SmartPointer<libparest::PerStepStatistics> > >::_List_impl", %"struct.std::__cxx11::_List_base<dealii::SmartPointer<libparest::PerStepStatistics>, std::allocator<dealii::SmartPointer<libparest::PerStepStatistics> > >::_List_impl"* %_M_impl, i32 0, i32 0, !dbg !3864
  %1 = bitcast %"struct.std::__detail::_List_node_header"* %_M_node to %"struct.std::__detail::_List_node_base"*, !dbg !3865
  %_M_next = getelementptr inbounds %"struct.std::__detail::_List_node_base", %"struct.std::__detail::_List_node_base"* %1, i32 0, i32 0, !dbg !3866
  %2 = load %"struct.std::__detail::_List_node_base"*, %"struct.std::__detail::_List_node_base"** %_M_next, align 8, !dbg !3866
  call void @_ZNSt20_List_const_iteratorIN6dealii12SmartPointerIN9libparest17PerStepStatisticsEEEEC2EPKNSt8__detail15_List_node_baseE(%"struct.std::_List_const_iterator"* %retval, %"struct.std::__detail::_List_node_base"* %2) #4, !dbg !3867
  %coerce.dive = getelementptr inbounds %"struct.std::_List_const_iterator", %"struct.std::_List_const_iterator"* %retval, i32 0, i32 0, !dbg !3868
  %3 = load %"struct.std::__detail::_List_node_base"*, %"struct.std::__detail::_List_node_base"** %coerce.dive, align 8, !dbg !3868
  ret %"struct.std::__detail::_List_node_base"* %3, !dbg !3868
}

; Function Attrs: noinline nounwind uwtable
define linkonce_odr dso_local dereferenceable(16) %"class.dealii::SmartPointer"* @_ZNKSt20_List_const_iteratorIN6dealii12SmartPointerIN9libparest17PerStepStatisticsEEEEdeEv(%"struct.std::_List_const_iterator"* %this) #1 comdat align 2 personality i8* bitcast (i32 (...)* @__gxx_personality_v0 to i8*) !dbg !3869 {
entry:
  %this.addr = alloca %"struct.std::_List_const_iterator"*, align 8
  store %"struct.std::_List_const_iterator"* %this, %"struct.std::_List_const_iterator"** %this.addr, align 8
  call void @llvm.dbg.declare(metadata %"struct.std::_List_const_iterator"** %this.addr, metadata !3870, metadata !DIExpression()), !dbg !3872
  %this1 = load %"struct.std::_List_const_iterator"*, %"struct.std::_List_const_iterator"** %this.addr, align 8
  %_M_node = getelementptr inbounds %"struct.std::_List_const_iterator", %"struct.std::_List_const_iterator"* %this1, i32 0, i32 0, !dbg !3873
  %0 = load %"struct.std::__detail::_List_node_base"*, %"struct.std::__detail::_List_node_base"** %_M_node, align 8, !dbg !3873
  %1 = bitcast %"struct.std::__detail::_List_node_base"* %0 to %"struct.std::_List_node.35"*, !dbg !3874
  %call = invoke %"class.dealii::SmartPointer"* @_ZNKSt10_List_nodeIN6dealii12SmartPointerIN9libparest17PerStepStatisticsEEEE9_M_valptrEv(%"struct.std::_List_node.35"* %1)
          to label %invoke.cont unwind label %terminate.lpad, !dbg !3875

invoke.cont:                                      ; preds = %entry
  ret %"class.dealii::SmartPointer"* %call, !dbg !3876

terminate.lpad:                                   ; preds = %entry
  %2 = landingpad { i8*, i32 }
          catch i8* null, !dbg !3875
  %3 = extractvalue { i8*, i32 } %2, 0, !dbg !3875
  call void @__clang_call_terminate(i8* %3) #11, !dbg !3875
  unreachable, !dbg !3875
}

; Function Attrs: noinline nounwind uwtable
define linkonce_odr dso_local %"class.libparest::PerStepStatistics"* @_ZNK6dealii12SmartPointerIN9libparest17PerStepStatisticsEEptEv(%"class.dealii::SmartPointer"* %this) #1 comdat align 2 !dbg !3877 {
entry:
  %this.addr = alloca %"class.dealii::SmartPointer"*, align 8
  store %"class.dealii::SmartPointer"* %this, %"class.dealii::SmartPointer"** %this.addr, align 8
  call void @llvm.dbg.declare(metadata %"class.dealii::SmartPointer"** %this.addr, metadata !3878, metadata !DIExpression()), !dbg !3879
  %this1 = load %"class.dealii::SmartPointer"*, %"class.dealii::SmartPointer"** %this.addr, align 8
  %t = getelementptr inbounds %"class.dealii::SmartPointer", %"class.dealii::SmartPointer"* %this1, i32 0, i32 0, !dbg !3880
  %0 = load %"class.libparest::PerStepStatistics"*, %"class.libparest::PerStepStatistics"** %t, align 8, !dbg !3880
  ret %"class.libparest::PerStepStatistics"* %0, !dbg !3881
}

; Function Attrs: noinline nounwind uwtable
define linkonce_odr dso_local dereferenceable(24) %"class.std::__cxx11::list.19"* @_ZNSt7__cxx114listINS_12basic_stringIcSt11char_traitsIcESaIcEEESaIS5_EEaSEOS7_(%"class.std::__cxx11::list.19"* %this, %"class.std::__cxx11::list.19"* dereferenceable(24) %__x) #1 comdat align 2 !dbg !3882 {
entry:
  %this.addr = alloca %"class.std::__cxx11::list.19"*, align 8
  %__x.addr = alloca %"class.std::__cxx11::list.19"*, align 8
  %__move_storage = alloca i8, align 1
  %agg.tmp = alloca %"struct.std::integral_constant", align 1
  store %"class.std::__cxx11::list.19"* %this, %"class.std::__cxx11::list.19"** %this.addr, align 8
  call void @llvm.dbg.declare(metadata %"class.std::__cxx11::list.19"** %this.addr, metadata !3883, metadata !DIExpression()), !dbg !3884
  store %"class.std::__cxx11::list.19"* %__x, %"class.std::__cxx11::list.19"** %__x.addr, align 8
  call void @llvm.dbg.declare(metadata %"class.std::__cxx11::list.19"** %__x.addr, metadata !3885, metadata !DIExpression()), !dbg !3886
  %this1 = load %"class.std::__cxx11::list.19"*, %"class.std::__cxx11::list.19"** %this.addr, align 8
  call void @llvm.dbg.declare(metadata i8* %__move_storage, metadata !3887, metadata !DIExpression()), !dbg !3888
  store i8 1, i8* %__move_storage, align 1, !dbg !3888
  %0 = load %"class.std::__cxx11::list.19"*, %"class.std::__cxx11::list.19"** %__x.addr, align 8, !dbg !3889
  %call = call dereferenceable(24) %"class.std::__cxx11::list.19"* @_ZSt4moveIRNSt7__cxx114listINS0_12basic_stringIcSt11char_traitsIcESaIcEEESaIS6_EEEEONSt16remove_referenceIT_E4typeEOSB_(%"class.std::__cxx11::list.19"* dereferenceable(24) %0) #4, !dbg !3890
  call void @_ZNSt7__cxx114listINS_12basic_stringIcSt11char_traitsIcESaIcEEESaIS5_EE14_M_move_assignEOS7_St17integral_constantIbLb1EE(%"class.std::__cxx11::list.19"* %this1, %"class.std::__cxx11::list.19"* dereferenceable(24) %call) #4, !dbg !3891
  ret %"class.std::__cxx11::list.19"* %this1, !dbg !3892
}

; Function Attrs: noinline nounwind uwtable
define linkonce_odr dso_local %"struct.std::__detail::_List_node_base"* @_ZNSt7__cxx114listINS_12basic_stringIcSt11char_traitsIcESaIcEEESaIS5_EE5beginEv(%"class.std::__cxx11::list.19"* %this) #1 comdat align 2 !dbg !3893 {
entry:
  %retval = alloca %"struct.std::_List_iterator", align 8
  %this.addr = alloca %"class.std::__cxx11::list.19"*, align 8
  store %"class.std::__cxx11::list.19"* %this, %"class.std::__cxx11::list.19"** %this.addr, align 8
  call void @llvm.dbg.declare(metadata %"class.std::__cxx11::list.19"** %this.addr, metadata !3894, metadata !DIExpression()), !dbg !3895
  %this1 = load %"class.std::__cxx11::list.19"*, %"class.std::__cxx11::list.19"** %this.addr, align 8
  %0 = bitcast %"class.std::__cxx11::list.19"* %this1 to %"class.std::__cxx11::_List_base.20"*, !dbg !3896
  %_M_impl = getelementptr inbounds %"class.std::__cxx11::_List_base.20", %"class.std::__cxx11::_List_base.20"* %0, i32 0, i32 0, !dbg !3896
  %_M_node = getelementptr inbounds %"struct.std::__cxx11::_List_base<std::__cxx11::basic_string<char>, std::allocator<std::__cxx11::basic_string<char> > >::_List_impl", %"struct.std::__cxx11::_List_base<std::__cxx11::basic_string<char>, std::allocator<std::__cxx11::basic_string<char> > >::_List_impl"* %_M_impl, i32 0, i32 0, !dbg !3897
  %1 = bitcast %"struct.std::__detail::_List_node_header"* %_M_node to %"struct.std::__detail::_List_node_base"*, !dbg !3898
  %_M_next = getelementptr inbounds %"struct.std::__detail::_List_node_base", %"struct.std::__detail::_List_node_base"* %1, i32 0, i32 0, !dbg !3899
  %2 = load %"struct.std::__detail::_List_node_base"*, %"struct.std::__detail::_List_node_base"** %_M_next, align 8, !dbg !3899
  call void @_ZNSt14_List_iteratorINSt7__cxx1112basic_stringIcSt11char_traitsIcESaIcEEEEC2EPNSt8__detail15_List_node_baseE(%"struct.std::_List_iterator"* %retval, %"struct.std::__detail::_List_node_base"* %2) #4, !dbg !3900
  %coerce.dive = getelementptr inbounds %"struct.std::_List_iterator", %"struct.std::_List_iterator"* %retval, i32 0, i32 0, !dbg !3901
  %3 = load %"struct.std::__detail::_List_node_base"*, %"struct.std::__detail::_List_node_base"** %coerce.dive, align 8, !dbg !3901
  ret %"struct.std::__detail::_List_node_base"* %3, !dbg !3901
}

; Function Attrs: noinline nounwind uwtable
define linkonce_odr dso_local void @_ZNSt20_List_const_iteratorINSt7__cxx1112basic_stringIcSt11char_traitsIcESaIcEEEEC2ERKSt14_List_iteratorIS5_E(%"struct.std::_List_const_iterator.24"* %this, %"struct.std::_List_iterator"* dereferenceable(8) %__x) unnamed_addr #1 comdat align 2 !dbg !3902 {
entry:
  %this.addr = alloca %"struct.std::_List_const_iterator.24"*, align 8
  %__x.addr = alloca %"struct.std::_List_iterator"*, align 8
  store %"struct.std::_List_const_iterator.24"* %this, %"struct.std::_List_const_iterator.24"** %this.addr, align 8
  call void @llvm.dbg.declare(metadata %"struct.std::_List_const_iterator.24"** %this.addr, metadata !3903, metadata !DIExpression()), !dbg !3905
  store %"struct.std::_List_iterator"* %__x, %"struct.std::_List_iterator"** %__x.addr, align 8
  call void @llvm.dbg.declare(metadata %"struct.std::_List_iterator"** %__x.addr, metadata !3906, metadata !DIExpression()), !dbg !3907
  %this1 = load %"struct.std::_List_const_iterator.24"*, %"struct.std::_List_const_iterator.24"** %this.addr, align 8
  %_M_node = getelementptr inbounds %"struct.std::_List_const_iterator.24", %"struct.std::_List_const_iterator.24"* %this1, i32 0, i32 0, !dbg !3908
  %0 = load %"struct.std::_List_iterator"*, %"struct.std::_List_iterator"** %__x.addr, align 8, !dbg !3909
  %_M_node2 = getelementptr inbounds %"struct.std::_List_iterator", %"struct.std::_List_iterator"* %0, i32 0, i32 0, !dbg !3910
  %1 = load %"struct.std::__detail::_List_node_base"*, %"struct.std::__detail::_List_node_base"** %_M_node2, align 8, !dbg !3910
  store %"struct.std::__detail::_List_node_base"* %1, %"struct.std::__detail::_List_node_base"** %_M_node, align 8, !dbg !3908
  ret void, !dbg !3911
}

; Function Attrs: noinline nounwind uwtable
define linkonce_odr dso_local zeroext i1 @_ZStneRKSt20_List_const_iteratorINSt7__cxx1112basic_stringIcSt11char_traitsIcESaIcEEEES8_(%"struct.std::_List_const_iterator.24"* dereferenceable(8) %__x, %"struct.std::_List_const_iterator.24"* dereferenceable(8) %__y) #1 comdat !dbg !3912 {
entry:
  %__x.addr = alloca %"struct.std::_List_const_iterator.24"*, align 8
  %__y.addr = alloca %"struct.std::_List_const_iterator.24"*, align 8
  store %"struct.std::_List_const_iterator.24"* %__x, %"struct.std::_List_const_iterator.24"** %__x.addr, align 8
  call void @llvm.dbg.declare(metadata %"struct.std::_List_const_iterator.24"** %__x.addr, metadata !3917, metadata !DIExpression()), !dbg !3918
  store %"struct.std::_List_const_iterator.24"* %__y, %"struct.std::_List_const_iterator.24"** %__y.addr, align 8
  call void @llvm.dbg.declare(metadata %"struct.std::_List_const_iterator.24"** %__y.addr, metadata !3919, metadata !DIExpression()), !dbg !3920
  %0 = load %"struct.std::_List_const_iterator.24"*, %"struct.std::_List_const_iterator.24"** %__x.addr, align 8, !dbg !3921
  %_M_node = getelementptr inbounds %"struct.std::_List_const_iterator.24", %"struct.std::_List_const_iterator.24"* %0, i32 0, i32 0, !dbg !3922
  %1 = load %"struct.std::__detail::_List_node_base"*, %"struct.std::__detail::_List_node_base"** %_M_node, align 8, !dbg !3922
  %2 = load %"struct.std::_List_const_iterator.24"*, %"struct.std::_List_const_iterator.24"** %__y.addr, align 8, !dbg !3923
  %_M_node1 = getelementptr inbounds %"struct.std::_List_const_iterator.24", %"struct.std::_List_const_iterator.24"* %2, i32 0, i32 0, !dbg !3924
  %3 = load %"struct.std::__detail::_List_node_base"*, %"struct.std::__detail::_List_node_base"** %_M_node1, align 8, !dbg !3924
  %cmp = icmp ne %"struct.std::__detail::_List_node_base"* %1, %3, !dbg !3925
  ret i1 %cmp, !dbg !3926
}

; Function Attrs: noinline nounwind uwtable
define linkonce_odr dso_local %"struct.std::__detail::_List_node_base"* @_ZNSt7__cxx114listINS_12basic_stringIcSt11char_traitsIcESaIcEEESaIS5_EE3endEv(%"class.std::__cxx11::list.19"* %this) #1 comdat align 2 !dbg !3927 {
entry:
  %retval = alloca %"struct.std::_List_iterator", align 8
  %this.addr = alloca %"class.std::__cxx11::list.19"*, align 8
  store %"class.std::__cxx11::list.19"* %this, %"class.std::__cxx11::list.19"** %this.addr, align 8
  call void @llvm.dbg.declare(metadata %"class.std::__cxx11::list.19"** %this.addr, metadata !3928, metadata !DIExpression()), !dbg !3929
  %this1 = load %"class.std::__cxx11::list.19"*, %"class.std::__cxx11::list.19"** %this.addr, align 8
  %0 = bitcast %"class.std::__cxx11::list.19"* %this1 to %"class.std::__cxx11::_List_base.20"*, !dbg !3930
  %_M_impl = getelementptr inbounds %"class.std::__cxx11::_List_base.20", %"class.std::__cxx11::_List_base.20"* %0, i32 0, i32 0, !dbg !3930
  %_M_node = getelementptr inbounds %"struct.std::__cxx11::_List_base<std::__cxx11::basic_string<char>, std::allocator<std::__cxx11::basic_string<char> > >::_List_impl", %"struct.std::__cxx11::_List_base<std::__cxx11::basic_string<char>, std::allocator<std::__cxx11::basic_string<char> > >::_List_impl"* %_M_impl, i32 0, i32 0, !dbg !3931
  %1 = bitcast %"struct.std::__detail::_List_node_header"* %_M_node to %"struct.std::__detail::_List_node_base"*, !dbg !3932
  call void @_ZNSt14_List_iteratorINSt7__cxx1112basic_stringIcSt11char_traitsIcESaIcEEEEC2EPNSt8__detail15_List_node_baseE(%"struct.std::_List_iterator"* %retval, %"struct.std::__detail::_List_node_base"* %1) #4, !dbg !3933
  %coerce.dive = getelementptr inbounds %"struct.std::_List_iterator", %"struct.std::_List_iterator"* %retval, i32 0, i32 0, !dbg !3934
  %2 = load %"struct.std::__detail::_List_node_base"*, %"struct.std::__detail::_List_node_base"** %coerce.dive, align 8, !dbg !3934
  ret %"struct.std::__detail::_List_node_base"* %2, !dbg !3934
}

declare dso_local dereferenceable(272) %"class.std::basic_ostream"* @_ZStlsIcSt11char_traitsIcESaIcEERSt13basic_ostreamIT_T0_ES7_RKNSt7__cxx1112basic_stringIS4_S5_T1_EE(%"class.std::basic_ostream"* dereferenceable(272), %"class.std::__cxx11::basic_string"* dereferenceable(32)) #2

declare dso_local dereferenceable(272) %"class.std::basic_ostream"* @_ZStlsISt11char_traitsIcEERSt13basic_ostreamIcT_ES5_PKc(%"class.std::basic_ostream"* dereferenceable(272), i8*) #2

declare dso_local void @_ZN6dealii9Utilities13int_to_stringB5cxx11Ejj(%"class.std::__cxx11::basic_string"* sret, i32, i32) #2

declare dso_local i32 @_ZN6dealii9Utilities13needed_digitsEj(i32) #2

; Function Attrs: noinline nounwind uwtable
define linkonce_odr dso_local dereferenceable(32) %"class.std::__cxx11::basic_string"* @_ZNKSt20_List_const_iteratorINSt7__cxx1112basic_stringIcSt11char_traitsIcESaIcEEEEdeEv(%"struct.std::_List_const_iterator.24"* %this) #1 comdat align 2 personality i8* bitcast (i32 (...)* @__gxx_personality_v0 to i8*) !dbg !3935 {
entry:
  %this.addr = alloca %"struct.std::_List_const_iterator.24"*, align 8
  store %"struct.std::_List_const_iterator.24"* %this, %"struct.std::_List_const_iterator.24"** %this.addr, align 8
  call void @llvm.dbg.declare(metadata %"struct.std::_List_const_iterator.24"** %this.addr, metadata !3936, metadata !DIExpression()), !dbg !3938
  %this1 = load %"struct.std::_List_const_iterator.24"*, %"struct.std::_List_const_iterator.24"** %this.addr, align 8
  %_M_node = getelementptr inbounds %"struct.std::_List_const_iterator.24", %"struct.std::_List_const_iterator.24"* %this1, i32 0, i32 0, !dbg !3939
  %0 = load %"struct.std::__detail::_List_node_base"*, %"struct.std::__detail::_List_node_base"** %_M_node, align 8, !dbg !3939
  %1 = bitcast %"struct.std::__detail::_List_node_base"* %0 to %"struct.std::_List_node"*, !dbg !3940
  %call = invoke %"class.std::__cxx11::basic_string"* @_ZNKSt10_List_nodeINSt7__cxx1112basic_stringIcSt11char_traitsIcESaIcEEEE9_M_valptrEv(%"struct.std::_List_node"* %1)
          to label %invoke.cont unwind label %terminate.lpad, !dbg !3941

invoke.cont:                                      ; preds = %entry
  ret %"class.std::__cxx11::basic_string"* %call, !dbg !3942

terminate.lpad:                                   ; preds = %entry
  %2 = landingpad { i8*, i32 }
          catch i8* null, !dbg !3941
  %3 = extractvalue { i8*, i32 } %2, 0, !dbg !3941
  call void @__clang_call_terminate(i8* %3) #11, !dbg !3941
  unreachable, !dbg !3941
}

declare dso_local dereferenceable(272) %"class.std::basic_ostream"* @_ZNSolsEPFRSoS_E(%"class.std::basic_ostream"*, %"class.std::basic_ostream"* (%"class.std::basic_ostream"*)*) #2

declare dso_local dereferenceable(272) %"class.std::basic_ostream"* @_ZSt4endlIcSt11char_traitsIcEERSt13basic_ostreamIT_T0_ES6_(%"class.std::basic_ostream"* dereferenceable(272)) #2

; Function Attrs: nounwind
declare dso_local void @_ZNSt7__cxx1112basic_stringIcSt11char_traitsIcESaIcEED1Ev(%"class.std::__cxx11::basic_string"*) unnamed_addr #3

; Function Attrs: noinline nounwind uwtable
define linkonce_odr dso_local dereferenceable(8) %"struct.std::_List_const_iterator.24"* @_ZNSt20_List_const_iteratorINSt7__cxx1112basic_stringIcSt11char_traitsIcESaIcEEEEppEv(%"struct.std::_List_const_iterator.24"* %this) #1 comdat align 2 !dbg !3943 {
entry:
  %this.addr = alloca %"struct.std::_List_const_iterator.24"*, align 8
  store %"struct.std::_List_const_iterator.24"* %this, %"struct.std::_List_const_iterator.24"** %this.addr, align 8
  call void @llvm.dbg.declare(metadata %"struct.std::_List_const_iterator.24"** %this.addr, metadata !3944, metadata !DIExpression()), !dbg !3945
  %this1 = load %"struct.std::_List_const_iterator.24"*, %"struct.std::_List_const_iterator.24"** %this.addr, align 8
  %_M_node = getelementptr inbounds %"struct.std::_List_const_iterator.24", %"struct.std::_List_const_iterator.24"* %this1, i32 0, i32 0, !dbg !3946
  %0 = load %"struct.std::__detail::_List_node_base"*, %"struct.std::__detail::_List_node_base"** %_M_node, align 8, !dbg !3946
  %_M_next = getelementptr inbounds %"struct.std::__detail::_List_node_base", %"struct.std::__detail::_List_node_base"* %0, i32 0, i32 0, !dbg !3947
  %1 = load %"struct.std::__detail::_List_node_base"*, %"struct.std::__detail::_List_node_base"** %_M_next, align 8, !dbg !3947
  %_M_node2 = getelementptr inbounds %"struct.std::_List_const_iterator.24", %"struct.std::_List_const_iterator.24"* %this1, i32 0, i32 0, !dbg !3948
  store %"struct.std::__detail::_List_node_base"* %1, %"struct.std::__detail::_List_node_base"** %_M_node2, align 8, !dbg !3949
  ret %"struct.std::_List_const_iterator.24"* %this1, !dbg !3950
}

; Function Attrs: noinline nounwind uwtable
define linkonce_odr dso_local zeroext i1 @_ZStneRKSt20_List_const_iteratorIN6dealii12SmartPointerIN9libparest17PerStepStatisticsEEEES7_(%"struct.std::_List_const_iterator"* dereferenceable(8) %__x, %"struct.std::_List_const_iterator"* dereferenceable(8) %__y) #1 comdat !dbg !3951 {
entry:
  %__x.addr = alloca %"struct.std::_List_const_iterator"*, align 8
  %__y.addr = alloca %"struct.std::_List_const_iterator"*, align 8
  store %"struct.std::_List_const_iterator"* %__x, %"struct.std::_List_const_iterator"** %__x.addr, align 8
  call void @llvm.dbg.declare(metadata %"struct.std::_List_const_iterator"** %__x.addr, metadata !3956, metadata !DIExpression()), !dbg !3957
  store %"struct.std::_List_const_iterator"* %__y, %"struct.std::_List_const_iterator"** %__y.addr, align 8
  call void @llvm.dbg.declare(metadata %"struct.std::_List_const_iterator"** %__y.addr, metadata !3958, metadata !DIExpression()), !dbg !3959
  %0 = load %"struct.std::_List_const_iterator"*, %"struct.std::_List_const_iterator"** %__x.addr, align 8, !dbg !3960
  %_M_node = getelementptr inbounds %"struct.std::_List_const_iterator", %"struct.std::_List_const_iterator"* %0, i32 0, i32 0, !dbg !3961
  %1 = load %"struct.std::__detail::_List_node_base"*, %"struct.std::__detail::_List_node_base"** %_M_node, align 8, !dbg !3961
  %2 = load %"struct.std::_List_const_iterator"*, %"struct.std::_List_const_iterator"** %__y.addr, align 8, !dbg !3962
  %_M_node1 = getelementptr inbounds %"struct.std::_List_const_iterator", %"struct.std::_List_const_iterator"* %2, i32 0, i32 0, !dbg !3963
  %3 = load %"struct.std::__detail::_List_node_base"*, %"struct.std::__detail::_List_node_base"** %_M_node1, align 8, !dbg !3963
  %cmp = icmp ne %"struct.std::__detail::_List_node_base"* %1, %3, !dbg !3964
  ret i1 %cmp, !dbg !3965
}

; Function Attrs: noinline nounwind uwtable
define linkonce_odr dso_local %"struct.std::__detail::_List_node_base"* @_ZNKSt7__cxx114listIN6dealii12SmartPointerIN9libparest17PerStepStatisticsEEESaIS5_EE3endEv(%"class.std::__cxx11::list"* %this) #1 comdat align 2 !dbg !3966 {
entry:
  %retval = alloca %"struct.std::_List_const_iterator", align 8
  %this.addr = alloca %"class.std::__cxx11::list"*, align 8
  store %"class.std::__cxx11::list"* %this, %"class.std::__cxx11::list"** %this.addr, align 8
  call void @llvm.dbg.declare(metadata %"class.std::__cxx11::list"** %this.addr, metadata !3967, metadata !DIExpression()), !dbg !3968
  %this1 = load %"class.std::__cxx11::list"*, %"class.std::__cxx11::list"** %this.addr, align 8
  %0 = bitcast %"class.std::__cxx11::list"* %this1 to %"class.std::__cxx11::_List_base"*, !dbg !3969
  %_M_impl = getelementptr inbounds %"class.std::__cxx11::_List_base", %"class.std::__cxx11::_List_base"* %0, i32 0, i32 0, !dbg !3969
  %_M_node = getelementptr inbounds %"struct.std::__cxx11::_List_base<dealii::SmartPointer<libparest::PerStepStatistics>, std::allocator<dealii::SmartPointer<libparest::PerStepStatistics> > >::_List_impl", %"struct.std::__cxx11::_List_base<dealii::SmartPointer<libparest::PerStepStatistics>, std::allocator<dealii::SmartPointer<libparest::PerStepStatistics> > >::_List_impl"* %_M_impl, i32 0, i32 0, !dbg !3970
  %1 = bitcast %"struct.std::__detail::_List_node_header"* %_M_node to %"struct.std::__detail::_List_node_base"*, !dbg !3971
  call void @_ZNSt20_List_const_iteratorIN6dealii12SmartPointerIN9libparest17PerStepStatisticsEEEEC2EPKNSt8__detail15_List_node_baseE(%"struct.std::_List_const_iterator"* %retval, %"struct.std::__detail::_List_node_base"* %1) #4, !dbg !3972
  %coerce.dive = getelementptr inbounds %"struct.std::_List_const_iterator", %"struct.std::_List_const_iterator"* %retval, i32 0, i32 0, !dbg !3973
  %2 = load %"struct.std::__detail::_List_node_base"*, %"struct.std::__detail::_List_node_base"** %coerce.dive, align 8, !dbg !3973
  ret %"struct.std::__detail::_List_node_base"* %2, !dbg !3973
}

; Function Attrs: noinline nounwind uwtable
define linkonce_odr dso_local %"struct.std::__detail::_List_node_base"* @_ZNKSt7__cxx114listIdSaIdEE5beginEv(%"class.std::__cxx11::list.28"* %this) #1 comdat align 2 !dbg !3974 {
entry:
  %retval = alloca %"struct.std::_List_const_iterator.33", align 8
  %this.addr = alloca %"class.std::__cxx11::list.28"*, align 8
  store %"class.std::__cxx11::list.28"* %this, %"class.std::__cxx11::list.28"** %this.addr, align 8
  call void @llvm.dbg.declare(metadata %"class.std::__cxx11::list.28"** %this.addr, metadata !3975, metadata !DIExpression()), !dbg !3977
  %this1 = load %"class.std::__cxx11::list.28"*, %"class.std::__cxx11::list.28"** %this.addr, align 8
  %0 = bitcast %"class.std::__cxx11::list.28"* %this1 to %"class.std::__cxx11::_List_base.29"*, !dbg !3978
  %_M_impl = getelementptr inbounds %"class.std::__cxx11::_List_base.29", %"class.std::__cxx11::_List_base.29"* %0, i32 0, i32 0, !dbg !3978
  %_M_node = getelementptr inbounds %"struct.std::__cxx11::_List_base<double, std::allocator<double> >::_List_impl", %"struct.std::__cxx11::_List_base<double, std::allocator<double> >::_List_impl"* %_M_impl, i32 0, i32 0, !dbg !3979
  %1 = bitcast %"struct.std::__detail::_List_node_header"* %_M_node to %"struct.std::__detail::_List_node_base"*, !dbg !3980
  %_M_next = getelementptr inbounds %"struct.std::__detail::_List_node_base", %"struct.std::__detail::_List_node_base"* %1, i32 0, i32 0, !dbg !3981
  %2 = load %"struct.std::__detail::_List_node_base"*, %"struct.std::__detail::_List_node_base"** %_M_next, align 8, !dbg !3981
  call void @_ZNSt20_List_const_iteratorIdEC2EPKNSt8__detail15_List_node_baseE(%"struct.std::_List_const_iterator.33"* %retval, %"struct.std::__detail::_List_node_base"* %2) #4, !dbg !3982
  %coerce.dive = getelementptr inbounds %"struct.std::_List_const_iterator.33", %"struct.std::_List_const_iterator.33"* %retval, i32 0, i32 0, !dbg !3983
  %3 = load %"struct.std::__detail::_List_node_base"*, %"struct.std::__detail::_List_node_base"** %coerce.dive, align 8, !dbg !3983
  ret %"struct.std::__detail::_List_node_base"* %3, !dbg !3983
}

; Function Attrs: noinline nounwind uwtable
define linkonce_odr dso_local zeroext i1 @_ZStneRKSt20_List_const_iteratorIdES2_(%"struct.std::_List_const_iterator.33"* dereferenceable(8) %__x, %"struct.std::_List_const_iterator.33"* dereferenceable(8) %__y) #1 comdat !dbg !3984 {
entry:
  %__x.addr = alloca %"struct.std::_List_const_iterator.33"*, align 8
  %__y.addr = alloca %"struct.std::_List_const_iterator.33"*, align 8
  store %"struct.std::_List_const_iterator.33"* %__x, %"struct.std::_List_const_iterator.33"** %__x.addr, align 8
  call void @llvm.dbg.declare(metadata %"struct.std::_List_const_iterator.33"** %__x.addr, metadata !3989, metadata !DIExpression()), !dbg !3990
  store %"struct.std::_List_const_iterator.33"* %__y, %"struct.std::_List_const_iterator.33"** %__y.addr, align 8
  call void @llvm.dbg.declare(metadata %"struct.std::_List_const_iterator.33"** %__y.addr, metadata !3991, metadata !DIExpression()), !dbg !3992
  %0 = load %"struct.std::_List_const_iterator.33"*, %"struct.std::_List_const_iterator.33"** %__x.addr, align 8, !dbg !3993
  %_M_node = getelementptr inbounds %"struct.std::_List_const_iterator.33", %"struct.std::_List_const_iterator.33"* %0, i32 0, i32 0, !dbg !3994
  %1 = load %"struct.std::__detail::_List_node_base"*, %"struct.std::__detail::_List_node_base"** %_M_node, align 8, !dbg !3994
  %2 = load %"struct.std::_List_const_iterator.33"*, %"struct.std::_List_const_iterator.33"** %__y.addr, align 8, !dbg !3995
  %_M_node1 = getelementptr inbounds %"struct.std::_List_const_iterator.33", %"struct.std::_List_const_iterator.33"* %2, i32 0, i32 0, !dbg !3996
  %3 = load %"struct.std::__detail::_List_node_base"*, %"struct.std::__detail::_List_node_base"** %_M_node1, align 8, !dbg !3996
  %cmp = icmp ne %"struct.std::__detail::_List_node_base"* %1, %3, !dbg !3997
  ret i1 %cmp, !dbg !3998
}

; Function Attrs: noinline nounwind uwtable
define linkonce_odr dso_local %"struct.std::__detail::_List_node_base"* @_ZNKSt7__cxx114listIdSaIdEE3endEv(%"class.std::__cxx11::list.28"* %this) #1 comdat align 2 !dbg !3999 {
entry:
  %retval = alloca %"struct.std::_List_const_iterator.33", align 8
  %this.addr = alloca %"class.std::__cxx11::list.28"*, align 8
  store %"class.std::__cxx11::list.28"* %this, %"class.std::__cxx11::list.28"** %this.addr, align 8
  call void @llvm.dbg.declare(metadata %"class.std::__cxx11::list.28"** %this.addr, metadata !4000, metadata !DIExpression()), !dbg !4001
  %this1 = load %"class.std::__cxx11::list.28"*, %"class.std::__cxx11::list.28"** %this.addr, align 8
  %0 = bitcast %"class.std::__cxx11::list.28"* %this1 to %"class.std::__cxx11::_List_base.29"*, !dbg !4002
  %_M_impl = getelementptr inbounds %"class.std::__cxx11::_List_base.29", %"class.std::__cxx11::_List_base.29"* %0, i32 0, i32 0, !dbg !4002
  %_M_node = getelementptr inbounds %"struct.std::__cxx11::_List_base<double, std::allocator<double> >::_List_impl", %"struct.std::__cxx11::_List_base<double, std::allocator<double> >::_List_impl"* %_M_impl, i32 0, i32 0, !dbg !4003
  %1 = bitcast %"struct.std::__detail::_List_node_header"* %_M_node to %"struct.std::__detail::_List_node_base"*, !dbg !4004
  call void @_ZNSt20_List_const_iteratorIdEC2EPKNSt8__detail15_List_node_baseE(%"struct.std::_List_const_iterator.33"* %retval, %"struct.std::__detail::_List_node_base"* %1) #4, !dbg !4005
  %coerce.dive = getelementptr inbounds %"struct.std::_List_const_iterator.33", %"struct.std::_List_const_iterator.33"* %retval, i32 0, i32 0, !dbg !4006
  %2 = load %"struct.std::__detail::_List_node_base"*, %"struct.std::__detail::_List_node_base"** %coerce.dive, align 8, !dbg !4006
  ret %"struct.std::__detail::_List_node_base"* %2, !dbg !4006
}

declare dso_local dereferenceable(272) %"class.std::basic_ostream"* @_ZStlsIcSt11char_traitsIcEERSt13basic_ostreamIT_T0_ES6_St13_Setprecision(%"class.std::basic_ostream"* dereferenceable(272), i32) #2

declare dso_local dereferenceable(272) %"class.std::basic_ostream"* @_ZStlsIcSt11char_traitsIcEERSt13basic_ostreamIT_T0_ES6_St5_Setw(%"class.std::basic_ostream"* dereferenceable(272), i32) #2

; Function Attrs: noinline nounwind uwtable
define linkonce_odr dso_local i32 @_ZSt4setwi(i32 %__n) #1 comdat !dbg !4007 {
entry:
  %retval = alloca %"struct.std::_Setw", align 4
  %__n.addr = alloca i32, align 4
  store i32 %__n, i32* %__n.addr, align 4
  call void @llvm.dbg.declare(metadata i32* %__n.addr, metadata !4014, metadata !DIExpression()), !dbg !4015
  %_M_n = getelementptr inbounds %"struct.std::_Setw", %"struct.std::_Setw"* %retval, i32 0, i32 0, !dbg !4016
  %0 = load i32, i32* %__n.addr, align 4, !dbg !4017
  store i32 %0, i32* %_M_n, align 4, !dbg !4016
  %coerce.dive = getelementptr inbounds %"struct.std::_Setw", %"struct.std::_Setw"* %retval, i32 0, i32 0, !dbg !4018
  %1 = load i32, i32* %coerce.dive, align 4, !dbg !4018
  ret i32 %1, !dbg !4018
}

; Function Attrs: noinline nounwind uwtable
define linkonce_odr dso_local i32 @_ZSt12setprecisioni(i32 %__n) #1 comdat !dbg !4019 {
entry:
  %retval = alloca %"struct.std::_Setprecision", align 4
  %__n.addr = alloca i32, align 4
  store i32 %__n, i32* %__n.addr, align 4
  call void @llvm.dbg.declare(metadata i32* %__n.addr, metadata !4025, metadata !DIExpression()), !dbg !4026
  %_M_n = getelementptr inbounds %"struct.std::_Setprecision", %"struct.std::_Setprecision"* %retval, i32 0, i32 0, !dbg !4027
  %0 = load i32, i32* %__n.addr, align 4, !dbg !4028
  store i32 %0, i32* %_M_n, align 4, !dbg !4027
  %coerce.dive = getelementptr inbounds %"struct.std::_Setprecision", %"struct.std::_Setprecision"* %retval, i32 0, i32 0, !dbg !4029
  %1 = load i32, i32* %coerce.dive, align 4, !dbg !4029
  ret i32 %1, !dbg !4029
}

declare dso_local dereferenceable(272) %"class.std::basic_ostream"* @_ZNSolsEd(%"class.std::basic_ostream"*, double) #2

; Function Attrs: noinline nounwind uwtable
define linkonce_odr dso_local dereferenceable(8) double* @_ZNKSt20_List_const_iteratorIdEdeEv(%"struct.std::_List_const_iterator.33"* %this) #1 comdat align 2 personality i8* bitcast (i32 (...)* @__gxx_personality_v0 to i8*) !dbg !4030 {
entry:
  %this.addr = alloca %"struct.std::_List_const_iterator.33"*, align 8
  store %"struct.std::_List_const_iterator.33"* %this, %"struct.std::_List_const_iterator.33"** %this.addr, align 8
  call void @llvm.dbg.declare(metadata %"struct.std::_List_const_iterator.33"** %this.addr, metadata !4031, metadata !DIExpression()), !dbg !4033
  %this1 = load %"struct.std::_List_const_iterator.33"*, %"struct.std::_List_const_iterator.33"** %this.addr, align 8
  %_M_node = getelementptr inbounds %"struct.std::_List_const_iterator.33", %"struct.std::_List_const_iterator.33"* %this1, i32 0, i32 0, !dbg !4034
  %0 = load %"struct.std::__detail::_List_node_base"*, %"struct.std::__detail::_List_node_base"** %_M_node, align 8, !dbg !4034
  %1 = bitcast %"struct.std::__detail::_List_node_base"* %0 to %"struct.std::_List_node.37"*, !dbg !4035
  %call = invoke double* @_ZNKSt10_List_nodeIdE9_M_valptrEv(%"struct.std::_List_node.37"* %1)
          to label %invoke.cont unwind label %terminate.lpad, !dbg !4036

invoke.cont:                                      ; preds = %entry
  ret double* %call, !dbg !4037

terminate.lpad:                                   ; preds = %entry
  %2 = landingpad { i8*, i32 }
          catch i8* null, !dbg !4036
  %3 = extractvalue { i8*, i32 } %2, 0, !dbg !4036
  call void @__clang_call_terminate(i8* %3) #11, !dbg !4036
  unreachable, !dbg !4036
}

; Function Attrs: noinline nounwind uwtable
define linkonce_odr dso_local dereferenceable(8) %"struct.std::_List_const_iterator.33"* @_ZNSt20_List_const_iteratorIdEppEv(%"struct.std::_List_const_iterator.33"* %this) #1 comdat align 2 !dbg !4038 {
entry:
  %this.addr = alloca %"struct.std::_List_const_iterator.33"*, align 8
  store %"struct.std::_List_const_iterator.33"* %this, %"struct.std::_List_const_iterator.33"** %this.addr, align 8
  call void @llvm.dbg.declare(metadata %"struct.std::_List_const_iterator.33"** %this.addr, metadata !4039, metadata !DIExpression()), !dbg !4041
  %this1 = load %"struct.std::_List_const_iterator.33"*, %"struct.std::_List_const_iterator.33"** %this.addr, align 8
  %_M_node = getelementptr inbounds %"struct.std::_List_const_iterator.33", %"struct.std::_List_const_iterator.33"* %this1, i32 0, i32 0, !dbg !4042
  %0 = load %"struct.std::__detail::_List_node_base"*, %"struct.std::__detail::_List_node_base"** %_M_node, align 8, !dbg !4042
  %_M_next = getelementptr inbounds %"struct.std::__detail::_List_node_base", %"struct.std::__detail::_List_node_base"* %0, i32 0, i32 0, !dbg !4043
  %1 = load %"struct.std::__detail::_List_node_base"*, %"struct.std::__detail::_List_node_base"** %_M_next, align 8, !dbg !4043
  %_M_node2 = getelementptr inbounds %"struct.std::_List_const_iterator.33", %"struct.std::_List_const_iterator.33"* %this1, i32 0, i32 0, !dbg !4044
  store %"struct.std::__detail::_List_node_base"* %1, %"struct.std::__detail::_List_node_base"** %_M_node2, align 8, !dbg !4045
  ret %"struct.std::_List_const_iterator.33"* %this1, !dbg !4046
}

; Function Attrs: noinline nounwind uwtable
define linkonce_odr dso_local void @_ZNSt7__cxx114listIdSaIdEED2Ev(%"class.std::__cxx11::list.28"* %this) unnamed_addr #1 comdat align 2 !dbg !4047 {
entry:
  %this.addr = alloca %"class.std::__cxx11::list.28"*, align 8
  store %"class.std::__cxx11::list.28"* %this, %"class.std::__cxx11::list.28"** %this.addr, align 8
  call void @llvm.dbg.declare(metadata %"class.std::__cxx11::list.28"** %this.addr, metadata !4048, metadata !DIExpression()), !dbg !4050
  %this1 = load %"class.std::__cxx11::list.28"*, %"class.std::__cxx11::list.28"** %this.addr, align 8
  %0 = bitcast %"class.std::__cxx11::list.28"* %this1 to %"class.std::__cxx11::_List_base.29"*, !dbg !4051
  call void @_ZNSt7__cxx1110_List_baseIdSaIdEED2Ev(%"class.std::__cxx11::_List_base.29"* %0) #4, !dbg !4051
  ret void, !dbg !4053
}

; Function Attrs: noinline nounwind uwtable
define linkonce_odr dso_local dereferenceable(8) %"struct.std::_List_const_iterator"* @_ZNSt20_List_const_iteratorIN6dealii12SmartPointerIN9libparest17PerStepStatisticsEEEEppEv(%"struct.std::_List_const_iterator"* %this) #1 comdat align 2 !dbg !4054 {
entry:
  %this.addr = alloca %"struct.std::_List_const_iterator"*, align 8
  store %"struct.std::_List_const_iterator"* %this, %"struct.std::_List_const_iterator"** %this.addr, align 8
  call void @llvm.dbg.declare(metadata %"struct.std::_List_const_iterator"** %this.addr, metadata !4055, metadata !DIExpression()), !dbg !4057
  %this1 = load %"struct.std::_List_const_iterator"*, %"struct.std::_List_const_iterator"** %this.addr, align 8
  %_M_node = getelementptr inbounds %"struct.std::_List_const_iterator", %"struct.std::_List_const_iterator"* %this1, i32 0, i32 0, !dbg !4058
  %0 = load %"struct.std::__detail::_List_node_base"*, %"struct.std::__detail::_List_node_base"** %_M_node, align 8, !dbg !4058
  %_M_next = getelementptr inbounds %"struct.std::__detail::_List_node_base", %"struct.std::__detail::_List_node_base"* %0, i32 0, i32 0, !dbg !4059
  %1 = load %"struct.std::__detail::_List_node_base"*, %"struct.std::__detail::_List_node_base"** %_M_next, align 8, !dbg !4059
  %_M_node2 = getelementptr inbounds %"struct.std::_List_const_iterator", %"struct.std::_List_const_iterator"* %this1, i32 0, i32 0, !dbg !4060
  store %"struct.std::__detail::_List_node_base"* %1, %"struct.std::__detail::_List_node_base"** %_M_node2, align 8, !dbg !4061
  ret %"struct.std::_List_const_iterator"* %this1, !dbg !4062
}

; Function Attrs: noinline nounwind uwtable
define dso_local i32 @_ZNK9libparest10Statistics4sizeEv(%"class.libparest::Statistics"* %this) #1 align 2 !dbg !4063 {
entry:
  %this.addr = alloca %"class.libparest::Statistics"*, align 8
  store %"class.libparest::Statistics"* %this, %"class.libparest::Statistics"** %this.addr, align 8
  call void @llvm.dbg.declare(metadata %"class.libparest::Statistics"** %this.addr, metadata !4064, metadata !DIExpression()), !dbg !4065
  %this1 = load %"class.libparest::Statistics"*, %"class.libparest::Statistics"** %this.addr, align 8
  %steps = getelementptr inbounds %"class.libparest::Statistics", %"class.libparest::Statistics"* %this1, i32 0, i32 0, !dbg !4066
  %call = call i64 @_ZNKSt7__cxx114listIN6dealii12SmartPointerIN9libparest17PerStepStatisticsEEESaIS5_EE4sizeEv(%"class.std::__cxx11::list"* %steps) #4, !dbg !4067
  %conv = trunc i64 %call to i32, !dbg !4066
  ret i32 %conv, !dbg !4068
}

; Function Attrs: noinline uwtable
define dso_local %"class.libparest::PerStepStatistics"* @_ZN9libparest10StatisticsixEj(%"class.libparest::Statistics"* %this, i32 %index) #0 align 2 !dbg !4069 {
entry:
  %this.addr = alloca %"class.libparest::Statistics"*, align 8
  %index.addr = alloca i32, align 4
  %i = alloca %"struct.std::_List_const_iterator", align 8
  %ref.tmp = alloca %"struct.std::_List_iterator.34", align 8
  store %"class.libparest::Statistics"* %this, %"class.libparest::Statistics"** %this.addr, align 8
  call void @llvm.dbg.declare(metadata %"class.libparest::Statistics"** %this.addr, metadata !4070, metadata !DIExpression()), !dbg !4071
  store i32 %index, i32* %index.addr, align 4
  call void @llvm.dbg.declare(metadata i32* %index.addr, metadata !4072, metadata !DIExpression()), !dbg !4073
  %this1 = load %"class.libparest::Statistics"*, %"class.libparest::Statistics"** %this.addr, align 8
  call void @llvm.dbg.declare(metadata %"struct.std::_List_const_iterator"* %i, metadata !4074, metadata !DIExpression()), !dbg !4075
  %steps = getelementptr inbounds %"class.libparest::Statistics", %"class.libparest::Statistics"* %this1, i32 0, i32 0, !dbg !4076
  %call = call %"struct.std::__detail::_List_node_base"* @_ZNSt7__cxx114listIN6dealii12SmartPointerIN9libparest17PerStepStatisticsEEESaIS5_EE5beginEv(%"class.std::__cxx11::list"* %steps) #4, !dbg !4077
  %coerce.dive = getelementptr inbounds %"struct.std::_List_iterator.34", %"struct.std::_List_iterator.34"* %ref.tmp, i32 0, i32 0, !dbg !4077
  store %"struct.std::__detail::_List_node_base"* %call, %"struct.std::__detail::_List_node_base"** %coerce.dive, align 8, !dbg !4077
  call void @_ZNSt20_List_const_iteratorIN6dealii12SmartPointerIN9libparest17PerStepStatisticsEEEEC2ERKSt14_List_iteratorIS4_E(%"struct.std::_List_const_iterator"* %i, %"struct.std::_List_iterator.34"* dereferenceable(8) %ref.tmp) #4, !dbg !4076
  %0 = load i32, i32* %index.addr, align 4, !dbg !4078
  call void @_ZSt7advanceISt20_List_const_iteratorIN6dealii12SmartPointerIN9libparest17PerStepStatisticsEEEEjEvRT_T0_(%"struct.std::_List_const_iterator"* dereferenceable(8) %i, i32 %0), !dbg !4079
  %call2 = call dereferenceable(16) %"class.dealii::SmartPointer"* @_ZNKSt20_List_const_iteratorIN6dealii12SmartPointerIN9libparest17PerStepStatisticsEEEEdeEv(%"struct.std::_List_const_iterator"* %i) #4, !dbg !4080
  %call3 = call %"class.libparest::PerStepStatistics"* @_ZNK6dealii12SmartPointerIN9libparest17PerStepStatisticsEEcvPS2_Ev(%"class.dealii::SmartPointer"* %call2), !dbg !4080
  ret %"class.libparest::PerStepStatistics"* %call3, !dbg !4081
}

; Function Attrs: noinline nounwind uwtable
define linkonce_odr dso_local %"struct.std::__detail::_List_node_base"* @_ZNSt7__cxx114listIN6dealii12SmartPointerIN9libparest17PerStepStatisticsEEESaIS5_EE5beginEv(%"class.std::__cxx11::list"* %this) #1 comdat align 2 !dbg !4082 {
entry:
  %retval = alloca %"struct.std::_List_iterator.34", align 8
  %this.addr = alloca %"class.std::__cxx11::list"*, align 8
  store %"class.std::__cxx11::list"* %this, %"class.std::__cxx11::list"** %this.addr, align 8
  call void @llvm.dbg.declare(metadata %"class.std::__cxx11::list"** %this.addr, metadata !4083, metadata !DIExpression()), !dbg !4084
  %this1 = load %"class.std::__cxx11::list"*, %"class.std::__cxx11::list"** %this.addr, align 8
  %0 = bitcast %"class.std::__cxx11::list"* %this1 to %"class.std::__cxx11::_List_base"*, !dbg !4085
  %_M_impl = getelementptr inbounds %"class.std::__cxx11::_List_base", %"class.std::__cxx11::_List_base"* %0, i32 0, i32 0, !dbg !4085
  %_M_node = getelementptr inbounds %"struct.std::__cxx11::_List_base<dealii::SmartPointer<libparest::PerStepStatistics>, std::allocator<dealii::SmartPointer<libparest::PerStepStatistics> > >::_List_impl", %"struct.std::__cxx11::_List_base<dealii::SmartPointer<libparest::PerStepStatistics>, std::allocator<dealii::SmartPointer<libparest::PerStepStatistics> > >::_List_impl"* %_M_impl, i32 0, i32 0, !dbg !4086
  %1 = bitcast %"struct.std::__detail::_List_node_header"* %_M_node to %"struct.std::__detail::_List_node_base"*, !dbg !4087
  %_M_next = getelementptr inbounds %"struct.std::__detail::_List_node_base", %"struct.std::__detail::_List_node_base"* %1, i32 0, i32 0, !dbg !4088
  %2 = load %"struct.std::__detail::_List_node_base"*, %"struct.std::__detail::_List_node_base"** %_M_next, align 8, !dbg !4088
  call void @_ZNSt14_List_iteratorIN6dealii12SmartPointerIN9libparest17PerStepStatisticsEEEEC2EPNSt8__detail15_List_node_baseE(%"struct.std::_List_iterator.34"* %retval, %"struct.std::__detail::_List_node_base"* %2) #4, !dbg !4089
  %coerce.dive = getelementptr inbounds %"struct.std::_List_iterator.34", %"struct.std::_List_iterator.34"* %retval, i32 0, i32 0, !dbg !4090
  %3 = load %"struct.std::__detail::_List_node_base"*, %"struct.std::__detail::_List_node_base"** %coerce.dive, align 8, !dbg !4090
  ret %"struct.std::__detail::_List_node_base"* %3, !dbg !4090
}

; Function Attrs: noinline nounwind uwtable
define linkonce_odr dso_local void @_ZNSt20_List_const_iteratorIN6dealii12SmartPointerIN9libparest17PerStepStatisticsEEEEC2ERKSt14_List_iteratorIS4_E(%"struct.std::_List_const_iterator"* %this, %"struct.std::_List_iterator.34"* dereferenceable(8) %__x) unnamed_addr #1 comdat align 2 !dbg !4091 {
entry:
  %this.addr = alloca %"struct.std::_List_const_iterator"*, align 8
  %__x.addr = alloca %"struct.std::_List_iterator.34"*, align 8
  store %"struct.std::_List_const_iterator"* %this, %"struct.std::_List_const_iterator"** %this.addr, align 8
  call void @llvm.dbg.declare(metadata %"struct.std::_List_const_iterator"** %this.addr, metadata !4092, metadata !DIExpression()), !dbg !4093
  store %"struct.std::_List_iterator.34"* %__x, %"struct.std::_List_iterator.34"** %__x.addr, align 8
  call void @llvm.dbg.declare(metadata %"struct.std::_List_iterator.34"** %__x.addr, metadata !4094, metadata !DIExpression()), !dbg !4095
  %this1 = load %"struct.std::_List_const_iterator"*, %"struct.std::_List_const_iterator"** %this.addr, align 8
  %_M_node = getelementptr inbounds %"struct.std::_List_const_iterator", %"struct.std::_List_const_iterator"* %this1, i32 0, i32 0, !dbg !4096
  %0 = load %"struct.std::_List_iterator.34"*, %"struct.std::_List_iterator.34"** %__x.addr, align 8, !dbg !4097
  %_M_node2 = getelementptr inbounds %"struct.std::_List_iterator.34", %"struct.std::_List_iterator.34"* %0, i32 0, i32 0, !dbg !4098
  %1 = load %"struct.std::__detail::_List_node_base"*, %"struct.std::__detail::_List_node_base"** %_M_node2, align 8, !dbg !4098
  store %"struct.std::__detail::_List_node_base"* %1, %"struct.std::__detail::_List_node_base"** %_M_node, align 8, !dbg !4096
  ret void, !dbg !4099
}

; Function Attrs: noinline uwtable
define linkonce_odr dso_local void @_ZSt7advanceISt20_List_const_iteratorIN6dealii12SmartPointerIN9libparest17PerStepStatisticsEEEEjEvRT_T0_(%"struct.std::_List_const_iterator"* dereferenceable(8) %__i, i32 %__n) #0 comdat !dbg !4100 {
entry:
  %__i.addr = alloca %"struct.std::_List_const_iterator"*, align 8
  %__n.addr = alloca i32, align 4
  %__d = alloca i64, align 8
  %agg.tmp = alloca %"struct.std::bidirectional_iterator_tag", align 1
  %undef.agg.tmp = alloca %"struct.std::bidirectional_iterator_tag", align 1
  store %"struct.std::_List_const_iterator"* %__i, %"struct.std::_List_const_iterator"** %__i.addr, align 8
  call void @llvm.dbg.declare(metadata %"struct.std::_List_const_iterator"** %__i.addr, metadata !4108, metadata !DIExpression()), !dbg !4109
  store i32 %__n, i32* %__n.addr, align 4
  call void @llvm.dbg.declare(metadata i32* %__n.addr, metadata !4110, metadata !DIExpression()), !dbg !4111
  call void @llvm.dbg.declare(metadata i64* %__d, metadata !4112, metadata !DIExpression()), !dbg !4121
  %0 = load i32, i32* %__n.addr, align 4, !dbg !4122
  %conv = zext i32 %0 to i64, !dbg !4122
  store i64 %conv, i64* %__d, align 8, !dbg !4121
  %1 = load %"struct.std::_List_const_iterator"*, %"struct.std::_List_const_iterator"** %__i.addr, align 8, !dbg !4123
  %2 = load i64, i64* %__d, align 8, !dbg !4124
  %3 = load %"struct.std::_List_const_iterator"*, %"struct.std::_List_const_iterator"** %__i.addr, align 8, !dbg !4125
  call void @_ZSt19__iterator_categoryISt20_List_const_iteratorIN6dealii12SmartPointerIN9libparest17PerStepStatisticsEEEEENSt15iterator_traitsIT_E17iterator_categoryERKS8_(%"struct.std::_List_const_iterator"* dereferenceable(8) %3), !dbg !4126
  call void @_ZSt9__advanceISt20_List_const_iteratorIN6dealii12SmartPointerIN9libparest17PerStepStatisticsEEEElEvRT_T0_St26bidirectional_iterator_tag(%"struct.std::_List_const_iterator"* dereferenceable(8) %1, i64 %2), !dbg !4127
  ret void, !dbg !4128
}

; Function Attrs: noinline nounwind uwtable
define linkonce_odr dso_local %"class.libparest::PerStepStatistics"* @_ZNK6dealii12SmartPointerIN9libparest17PerStepStatisticsEEcvPS2_Ev(%"class.dealii::SmartPointer"* %this) #1 comdat align 2 !dbg !4129 {
entry:
  %this.addr = alloca %"class.dealii::SmartPointer"*, align 8
  store %"class.dealii::SmartPointer"* %this, %"class.dealii::SmartPointer"** %this.addr, align 8
  call void @llvm.dbg.declare(metadata %"class.dealii::SmartPointer"** %this.addr, metadata !4130, metadata !DIExpression()), !dbg !4131
  %this1 = load %"class.dealii::SmartPointer"*, %"class.dealii::SmartPointer"** %this.addr, align 8
  %t = getelementptr inbounds %"class.dealii::SmartPointer", %"class.dealii::SmartPointer"* %this1, i32 0, i32 0, !dbg !4132
  %0 = load %"class.libparest::PerStepStatistics"*, %"class.libparest::PerStepStatistics"** %t, align 8, !dbg !4132
  ret %"class.libparest::PerStepStatistics"* %0, !dbg !4133
}

; Function Attrs: noinline uwtable
define dso_local %"class.libparest::PerStepStatistics"* @_ZNK9libparest10StatisticsixEj(%"class.libparest::Statistics"* %this, i32 %index) #0 align 2 !dbg !4134 {
entry:
  %this.addr = alloca %"class.libparest::Statistics"*, align 8
  %index.addr = alloca i32, align 4
  %i = alloca %"struct.std::_List_const_iterator", align 8
  store %"class.libparest::Statistics"* %this, %"class.libparest::Statistics"** %this.addr, align 8
  call void @llvm.dbg.declare(metadata %"class.libparest::Statistics"** %this.addr, metadata !4135, metadata !DIExpression()), !dbg !4136
  store i32 %index, i32* %index.addr, align 4
  call void @llvm.dbg.declare(metadata i32* %index.addr, metadata !4137, metadata !DIExpression()), !dbg !4138
  %this1 = load %"class.libparest::Statistics"*, %"class.libparest::Statistics"** %this.addr, align 8
  call void @llvm.dbg.declare(metadata %"struct.std::_List_const_iterator"* %i, metadata !4139, metadata !DIExpression()), !dbg !4140
  %steps = getelementptr inbounds %"class.libparest::Statistics", %"class.libparest::Statistics"* %this1, i32 0, i32 0, !dbg !4141
  %call = call %"struct.std::__detail::_List_node_base"* @_ZNKSt7__cxx114listIN6dealii12SmartPointerIN9libparest17PerStepStatisticsEEESaIS5_EE5beginEv(%"class.std::__cxx11::list"* %steps) #4, !dbg !4142
  %coerce.dive = getelementptr inbounds %"struct.std::_List_const_iterator", %"struct.std::_List_const_iterator"* %i, i32 0, i32 0, !dbg !4142
  store %"struct.std::__detail::_List_node_base"* %call, %"struct.std::__detail::_List_node_base"** %coerce.dive, align 8, !dbg !4142
  %0 = load i32, i32* %index.addr, align 4, !dbg !4143
  call void @_ZSt7advanceISt20_List_const_iteratorIN6dealii12SmartPointerIN9libparest17PerStepStatisticsEEEEjEvRT_T0_(%"struct.std::_List_const_iterator"* dereferenceable(8) %i, i32 %0), !dbg !4144
  %call2 = call dereferenceable(16) %"class.dealii::SmartPointer"* @_ZNKSt20_List_const_iteratorIN6dealii12SmartPointerIN9libparest17PerStepStatisticsEEEEdeEv(%"struct.std::_List_const_iterator"* %i) #4, !dbg !4145
  %call3 = call %"class.libparest::PerStepStatistics"* @_ZNK6dealii12SmartPointerIN9libparest17PerStepStatisticsEEcvPS2_Ev(%"class.dealii::SmartPointer"* %call2), !dbg !4145
  ret %"class.libparest::PerStepStatistics"* %call3, !dbg !4146
}

; Function Attrs: noinline uwtable
define dso_local %"class.libparest::PerStepStatistics"* @_ZN9libparest10Statistics4backEv(%"class.libparest::Statistics"* %this) #0 align 2 !dbg !4147 {
entry:
  %this.addr = alloca %"class.libparest::Statistics"*, align 8
  store %"class.libparest::Statistics"* %this, %"class.libparest::Statistics"** %this.addr, align 8
  call void @llvm.dbg.declare(metadata %"class.libparest::Statistics"** %this.addr, metadata !4148, metadata !DIExpression()), !dbg !4149
  %this1 = load %"class.libparest::Statistics"*, %"class.libparest::Statistics"** %this.addr, align 8
  %steps = getelementptr inbounds %"class.libparest::Statistics", %"class.libparest::Statistics"* %this1, i32 0, i32 0, !dbg !4150
  %call = call dereferenceable(16) %"class.dealii::SmartPointer"* @_ZNSt7__cxx114listIN6dealii12SmartPointerIN9libparest17PerStepStatisticsEEESaIS5_EE4backEv(%"class.std::__cxx11::list"* %steps) #4, !dbg !4151
  %call2 = call %"class.libparest::PerStepStatistics"* @_ZNK6dealii12SmartPointerIN9libparest17PerStepStatisticsEEcvPS2_Ev(%"class.dealii::SmartPointer"* %call), !dbg !4150
  ret %"class.libparest::PerStepStatistics"* %call2, !dbg !4152
}

; Function Attrs: noinline uwtable
define dso_local %"class.libparest::PerStepStatistics"* @_ZNK9libparest10Statistics4backEv(%"class.libparest::Statistics"* %this) #0 align 2 !dbg !4153 {
entry:
  %this.addr = alloca %"class.libparest::Statistics"*, align 8
  store %"class.libparest::Statistics"* %this, %"class.libparest::Statistics"** %this.addr, align 8
  call void @llvm.dbg.declare(metadata %"class.libparest::Statistics"** %this.addr, metadata !4154, metadata !DIExpression()), !dbg !4155
  %this1 = load %"class.libparest::Statistics"*, %"class.libparest::Statistics"** %this.addr, align 8
  %steps = getelementptr inbounds %"class.libparest::Statistics", %"class.libparest::Statistics"* %this1, i32 0, i32 0, !dbg !4156
  %call = call dereferenceable(16) %"class.dealii::SmartPointer"* @_ZNKSt7__cxx114listIN6dealii12SmartPointerIN9libparest17PerStepStatisticsEEESaIS5_EE4backEv(%"class.std::__cxx11::list"* %steps) #4, !dbg !4157
  %call2 = call %"class.libparest::PerStepStatistics"* @_ZNK6dealii12SmartPointerIN9libparest17PerStepStatisticsEEcvPS2_Ev(%"class.dealii::SmartPointer"* %call), !dbg !4156
  ret %"class.libparest::PerStepStatistics"* %call2, !dbg !4158
}

; Function Attrs: noinline nounwind uwtable
define linkonce_odr dso_local dereferenceable(16) %"class.dealii::SmartPointer"* @_ZNKSt7__cxx114listIN6dealii12SmartPointerIN9libparest17PerStepStatisticsEEESaIS5_EE4backEv(%"class.std::__cxx11::list"* %this) #1 comdat align 2 !dbg !4159 {
entry:
  %this.addr = alloca %"class.std::__cxx11::list"*, align 8
  %__tmp = alloca %"struct.std::_List_const_iterator", align 8
  store %"class.std::__cxx11::list"* %this, %"class.std::__cxx11::list"** %this.addr, align 8
  call void @llvm.dbg.declare(metadata %"class.std::__cxx11::list"** %this.addr, metadata !4160, metadata !DIExpression()), !dbg !4161
  %this1 = load %"class.std::__cxx11::list"*, %"class.std::__cxx11::list"** %this.addr, align 8
  call void @llvm.dbg.declare(metadata %"struct.std::_List_const_iterator"* %__tmp, metadata !4162, metadata !DIExpression()), !dbg !4163
  %call = call %"struct.std::__detail::_List_node_base"* @_ZNKSt7__cxx114listIN6dealii12SmartPointerIN9libparest17PerStepStatisticsEEESaIS5_EE3endEv(%"class.std::__cxx11::list"* %this1) #4, !dbg !4164
  %coerce.dive = getelementptr inbounds %"struct.std::_List_const_iterator", %"struct.std::_List_const_iterator"* %__tmp, i32 0, i32 0, !dbg !4164
  store %"struct.std::__detail::_List_node_base"* %call, %"struct.std::__detail::_List_node_base"** %coerce.dive, align 8, !dbg !4164
  %call2 = call dereferenceable(8) %"struct.std::_List_const_iterator"* @_ZNSt20_List_const_iteratorIN6dealii12SmartPointerIN9libparest17PerStepStatisticsEEEEmmEv(%"struct.std::_List_const_iterator"* %__tmp) #4, !dbg !4165
  %call3 = call dereferenceable(16) %"class.dealii::SmartPointer"* @_ZNKSt20_List_const_iteratorIN6dealii12SmartPointerIN9libparest17PerStepStatisticsEEEEdeEv(%"struct.std::_List_const_iterator"* %__tmp) #4, !dbg !4166
  ret %"class.dealii::SmartPointer"* %call3, !dbg !4167
}

declare dso_local void @__cxa_pure_virtual() unnamed_addr

; Function Attrs: noinline nounwind uwtable
define linkonce_odr dso_local void @_ZNSt7__cxx1110_List_baseINS_12basic_stringIcSt11char_traitsIcESaIcEEESaIS5_EED2Ev(%"class.std::__cxx11::_List_base.20"* %this) unnamed_addr #1 comdat align 2 !dbg !4168 {
entry:
  %this.addr = alloca %"class.std::__cxx11::_List_base.20"*, align 8
  store %"class.std::__cxx11::_List_base.20"* %this, %"class.std::__cxx11::_List_base.20"** %this.addr, align 8
  call void @llvm.dbg.declare(metadata %"class.std::__cxx11::_List_base.20"** %this.addr, metadata !4169, metadata !DIExpression()), !dbg !4171
  %this1 = load %"class.std::__cxx11::_List_base.20"*, %"class.std::__cxx11::_List_base.20"** %this.addr, align 8
  call void @_ZNSt7__cxx1110_List_baseINS_12basic_stringIcSt11char_traitsIcESaIcEEESaIS5_EE8_M_clearEv(%"class.std::__cxx11::_List_base.20"* %this1) #4, !dbg !4172
  %_M_impl = getelementptr inbounds %"class.std::__cxx11::_List_base.20", %"class.std::__cxx11::_List_base.20"* %this1, i32 0, i32 0, !dbg !4174
  call void @_ZNSt7__cxx1110_List_baseINS_12basic_stringIcSt11char_traitsIcESaIcEEESaIS5_EE10_List_implD2Ev(%"struct.std::__cxx11::_List_base<std::__cxx11::basic_string<char>, std::allocator<std::__cxx11::basic_string<char> > >::_List_impl"* %_M_impl) #4, !dbg !4174
  ret void, !dbg !4175
}

; Function Attrs: noinline nounwind uwtable
define linkonce_odr dso_local void @_ZNSt7__cxx1110_List_baseINS_12basic_stringIcSt11char_traitsIcESaIcEEESaIS5_EE8_M_clearEv(%"class.std::__cxx11::_List_base.20"* %this) #1 comdat align 2 personality i8* bitcast (i32 (...)* @__gxx_personality_v0 to i8*) !dbg !137 {
entry:
  %this.addr = alloca %"class.std::__cxx11::_List_base.20"*, align 8
  %__cur = alloca %"struct.std::__detail::_List_node_base"*, align 8
  %__tmp = alloca %"struct.std::_List_node"*, align 8
  %__val = alloca %"class.std::__cxx11::basic_string"*, align 8
  store %"class.std::__cxx11::_List_base.20"* %this, %"class.std::__cxx11::_List_base.20"** %this.addr, align 8
  call void @llvm.dbg.declare(metadata %"class.std::__cxx11::_List_base.20"** %this.addr, metadata !4176, metadata !DIExpression()), !dbg !4177
  %this1 = load %"class.std::__cxx11::_List_base.20"*, %"class.std::__cxx11::_List_base.20"** %this.addr, align 8
  call void @llvm.dbg.declare(metadata %"struct.std::__detail::_List_node_base"** %__cur, metadata !4178, metadata !DIExpression()), !dbg !4179
  %_M_impl = getelementptr inbounds %"class.std::__cxx11::_List_base.20", %"class.std::__cxx11::_List_base.20"* %this1, i32 0, i32 0, !dbg !4180
  %_M_node = getelementptr inbounds %"struct.std::__cxx11::_List_base<std::__cxx11::basic_string<char>, std::allocator<std::__cxx11::basic_string<char> > >::_List_impl", %"struct.std::__cxx11::_List_base<std::__cxx11::basic_string<char>, std::allocator<std::__cxx11::basic_string<char> > >::_List_impl"* %_M_impl, i32 0, i32 0, !dbg !4181
  %0 = bitcast %"struct.std::__detail::_List_node_header"* %_M_node to %"struct.std::__detail::_List_node_base"*, !dbg !4180
  %_M_next = getelementptr inbounds %"struct.std::__detail::_List_node_base", %"struct.std::__detail::_List_node_base"* %0, i32 0, i32 0, !dbg !4182
  %1 = load %"struct.std::__detail::_List_node_base"*, %"struct.std::__detail::_List_node_base"** %_M_next, align 8, !dbg !4182
  store %"struct.std::__detail::_List_node_base"* %1, %"struct.std::__detail::_List_node_base"** %__cur, align 8, !dbg !4179
  br label %while.cond, !dbg !4183

while.cond:                                       ; preds = %invoke.cont, %entry
  %2 = load %"struct.std::__detail::_List_node_base"*, %"struct.std::__detail::_List_node_base"** %__cur, align 8, !dbg !4184
  %_M_impl2 = getelementptr inbounds %"class.std::__cxx11::_List_base.20", %"class.std::__cxx11::_List_base.20"* %this1, i32 0, i32 0, !dbg !4185
  %_M_node3 = getelementptr inbounds %"struct.std::__cxx11::_List_base<std::__cxx11::basic_string<char>, std::allocator<std::__cxx11::basic_string<char> > >::_List_impl", %"struct.std::__cxx11::_List_base<std::__cxx11::basic_string<char>, std::allocator<std::__cxx11::basic_string<char> > >::_List_impl"* %_M_impl2, i32 0, i32 0, !dbg !4186
  %3 = bitcast %"struct.std::__detail::_List_node_header"* %_M_node3 to %"struct.std::__detail::_List_node_base"*, !dbg !4187
  %cmp = icmp ne %"struct.std::__detail::_List_node_base"* %2, %3, !dbg !4188
  br i1 %cmp, label %while.body, label %while.end, !dbg !4183

while.body:                                       ; preds = %while.cond
  call void @llvm.dbg.declare(metadata %"struct.std::_List_node"** %__tmp, metadata !4189, metadata !DIExpression()), !dbg !4191
  %4 = load %"struct.std::__detail::_List_node_base"*, %"struct.std::__detail::_List_node_base"** %__cur, align 8, !dbg !4192
  %5 = bitcast %"struct.std::__detail::_List_node_base"* %4 to %"struct.std::_List_node"*, !dbg !4193
  store %"struct.std::_List_node"* %5, %"struct.std::_List_node"** %__tmp, align 8, !dbg !4191
  %6 = load %"struct.std::_List_node"*, %"struct.std::_List_node"** %__tmp, align 8, !dbg !4194
  %7 = bitcast %"struct.std::_List_node"* %6 to %"struct.std::__detail::_List_node_base"*, !dbg !4195
  %_M_next4 = getelementptr inbounds %"struct.std::__detail::_List_node_base", %"struct.std::__detail::_List_node_base"* %7, i32 0, i32 0, !dbg !4195
  %8 = load %"struct.std::__detail::_List_node_base"*, %"struct.std::__detail::_List_node_base"** %_M_next4, align 8, !dbg !4195
  store %"struct.std::__detail::_List_node_base"* %8, %"struct.std::__detail::_List_node_base"** %__cur, align 8, !dbg !4196
  call void @llvm.dbg.declare(metadata %"class.std::__cxx11::basic_string"** %__val, metadata !4197, metadata !DIExpression()), !dbg !4198
  %9 = load %"struct.std::_List_node"*, %"struct.std::_List_node"** %__tmp, align 8, !dbg !4199
  %call = invoke %"class.std::__cxx11::basic_string"* @_ZNSt10_List_nodeINSt7__cxx1112basic_stringIcSt11char_traitsIcESaIcEEEE9_M_valptrEv(%"struct.std::_List_node"* %9)
          to label %invoke.cont unwind label %terminate.lpad, !dbg !4200

invoke.cont:                                      ; preds = %while.body
  store %"class.std::__cxx11::basic_string"* %call, %"class.std::__cxx11::basic_string"** %__val, align 8, !dbg !4198
  %call5 = call dereferenceable(1) %"class.std::allocator.21"* @_ZNSt7__cxx1110_List_baseINS_12basic_stringIcSt11char_traitsIcESaIcEEESaIS5_EE21_M_get_Node_allocatorEv(%"class.std::__cxx11::_List_base.20"* %this1) #4, !dbg !4201
  %10 = load %"class.std::__cxx11::basic_string"*, %"class.std::__cxx11::basic_string"** %__val, align 8, !dbg !4202
  call void @_ZNSt16allocator_traitsISaISt10_List_nodeINSt7__cxx1112basic_stringIcSt11char_traitsIcESaIcEEEEEE7destroyIS6_EEvRS8_PT_(%"class.std::allocator.21"* dereferenceable(1) %call5, %"class.std::__cxx11::basic_string"* %10) #4, !dbg !4203
  %11 = load %"struct.std::_List_node"*, %"struct.std::_List_node"** %__tmp, align 8, !dbg !4204
  call void @_ZNSt7__cxx1110_List_baseINS_12basic_stringIcSt11char_traitsIcESaIcEEESaIS5_EE11_M_put_nodeEPSt10_List_nodeIS5_E(%"class.std::__cxx11::_List_base.20"* %this1, %"struct.std::_List_node"* %11) #4, !dbg !4205
  br label %while.cond, !dbg !4183, !llvm.loop !4206

while.end:                                        ; preds = %while.cond
  ret void, !dbg !4208

terminate.lpad:                                   ; preds = %while.body
  %12 = landingpad { i8*, i32 }
          catch i8* null, !dbg !4200
  %13 = extractvalue { i8*, i32 } %12, 0, !dbg !4200
  call void @__clang_call_terminate(i8* %13) #11, !dbg !4200
  unreachable, !dbg !4200
}

; Function Attrs: noinline nounwind uwtable
define linkonce_odr dso_local void @_ZNSt7__cxx1110_List_baseINS_12basic_stringIcSt11char_traitsIcESaIcEEESaIS5_EE10_List_implD2Ev(%"struct.std::__cxx11::_List_base<std::__cxx11::basic_string<char>, std::allocator<std::__cxx11::basic_string<char> > >::_List_impl"* %this) unnamed_addr #1 comdat align 2 !dbg !4209 {
entry:
  %this.addr = alloca %"struct.std::__cxx11::_List_base<std::__cxx11::basic_string<char>, std::allocator<std::__cxx11::basic_string<char> > >::_List_impl"*, align 8
  store %"struct.std::__cxx11::_List_base<std::__cxx11::basic_string<char>, std::allocator<std::__cxx11::basic_string<char> > >::_List_impl"* %this, %"struct.std::__cxx11::_List_base<std::__cxx11::basic_string<char>, std::allocator<std::__cxx11::basic_string<char> > >::_List_impl"** %this.addr, align 8
  call void @llvm.dbg.declare(metadata %"struct.std::__cxx11::_List_base<std::__cxx11::basic_string<char>, std::allocator<std::__cxx11::basic_string<char> > >::_List_impl"** %this.addr, metadata !4211, metadata !DIExpression()), !dbg !4213
  %this1 = load %"struct.std::__cxx11::_List_base<std::__cxx11::basic_string<char>, std::allocator<std::__cxx11::basic_string<char> > >::_List_impl"*, %"struct.std::__cxx11::_List_base<std::__cxx11::basic_string<char>, std::allocator<std::__cxx11::basic_string<char> > >::_List_impl"** %this.addr, align 8
  %0 = bitcast %"struct.std::__cxx11::_List_base<std::__cxx11::basic_string<char>, std::allocator<std::__cxx11::basic_string<char> > >::_List_impl"* %this1 to %"class.std::allocator.21"*, !dbg !4214
  call void @_ZNSaISt10_List_nodeINSt7__cxx1112basic_stringIcSt11char_traitsIcESaIcEEEEED2Ev(%"class.std::allocator.21"* %0) #4, !dbg !4214
  ret void, !dbg !4216
}

; Function Attrs: noinline nounwind uwtable
define linkonce_odr dso_local %"class.std::__cxx11::basic_string"* @_ZNSt10_List_nodeINSt7__cxx1112basic_stringIcSt11char_traitsIcESaIcEEEE9_M_valptrEv(%"struct.std::_List_node"* %this) #1 comdat align 2 !dbg !4217 {
entry:
  %this.addr = alloca %"struct.std::_List_node"*, align 8
  store %"struct.std::_List_node"* %this, %"struct.std::_List_node"** %this.addr, align 8
  call void @llvm.dbg.declare(metadata %"struct.std::_List_node"** %this.addr, metadata !4218, metadata !DIExpression()), !dbg !4219
  %this1 = load %"struct.std::_List_node"*, %"struct.std::_List_node"** %this.addr, align 8
  %_M_storage = getelementptr inbounds %"struct.std::_List_node", %"struct.std::_List_node"* %this1, i32 0, i32 1, !dbg !4220
  %call = call %"class.std::__cxx11::basic_string"* @_ZN9__gnu_cxx16__aligned_membufINSt7__cxx1112basic_stringIcSt11char_traitsIcESaIcEEEE6_M_ptrEv(%"struct.__gnu_cxx::__aligned_membuf"* %_M_storage) #4, !dbg !4221
  ret %"class.std::__cxx11::basic_string"* %call, !dbg !4222
}

; Function Attrs: noinline nounwind uwtable
define linkonce_odr dso_local void @_ZNSt16allocator_traitsISaISt10_List_nodeINSt7__cxx1112basic_stringIcSt11char_traitsIcESaIcEEEEEE7destroyIS6_EEvRS8_PT_(%"class.std::allocator.21"* dereferenceable(1) %__a, %"class.std::__cxx11::basic_string"* %__p) #1 comdat align 2 !dbg !4223 {
entry:
  %__a.addr = alloca %"class.std::allocator.21"*, align 8
  %__p.addr = alloca %"class.std::__cxx11::basic_string"*, align 8
  store %"class.std::allocator.21"* %__a, %"class.std::allocator.21"** %__a.addr, align 8
  call void @llvm.dbg.declare(metadata %"class.std::allocator.21"** %__a.addr, metadata !4229, metadata !DIExpression()), !dbg !4230
  store %"class.std::__cxx11::basic_string"* %__p, %"class.std::__cxx11::basic_string"** %__p.addr, align 8
  call void @llvm.dbg.declare(metadata %"class.std::__cxx11::basic_string"** %__p.addr, metadata !4231, metadata !DIExpression()), !dbg !4232
  %0 = load %"class.std::allocator.21"*, %"class.std::allocator.21"** %__a.addr, align 8, !dbg !4233
  %1 = bitcast %"class.std::allocator.21"* %0 to %"class.__gnu_cxx::new_allocator.22"*, !dbg !4233
  %2 = load %"class.std::__cxx11::basic_string"*, %"class.std::__cxx11::basic_string"** %__p.addr, align 8, !dbg !4234
  call void @_ZN9__gnu_cxx13new_allocatorISt10_List_nodeINSt7__cxx1112basic_stringIcSt11char_traitsIcESaIcEEEEE7destroyIS7_EEvPT_(%"class.__gnu_cxx::new_allocator.22"* %1, %"class.std::__cxx11::basic_string"* %2) #4, !dbg !4235
  ret void, !dbg !4236
}

; Function Attrs: noinline nounwind uwtable
define linkonce_odr dso_local dereferenceable(1) %"class.std::allocator.21"* @_ZNSt7__cxx1110_List_baseINS_12basic_stringIcSt11char_traitsIcESaIcEEESaIS5_EE21_M_get_Node_allocatorEv(%"class.std::__cxx11::_List_base.20"* %this) #1 comdat align 2 !dbg !4237 {
entry:
  %this.addr = alloca %"class.std::__cxx11::_List_base.20"*, align 8
  store %"class.std::__cxx11::_List_base.20"* %this, %"class.std::__cxx11::_List_base.20"** %this.addr, align 8
  call void @llvm.dbg.declare(metadata %"class.std::__cxx11::_List_base.20"** %this.addr, metadata !4238, metadata !DIExpression()), !dbg !4239
  %this1 = load %"class.std::__cxx11::_List_base.20"*, %"class.std::__cxx11::_List_base.20"** %this.addr, align 8
  %_M_impl = getelementptr inbounds %"class.std::__cxx11::_List_base.20", %"class.std::__cxx11::_List_base.20"* %this1, i32 0, i32 0, !dbg !4240
  %0 = bitcast %"struct.std::__cxx11::_List_base<std::__cxx11::basic_string<char>, std::allocator<std::__cxx11::basic_string<char> > >::_List_impl"* %_M_impl to %"class.std::allocator.21"*, !dbg !4240
  ret %"class.std::allocator.21"* %0, !dbg !4241
}

; Function Attrs: noinline nounwind uwtable
define linkonce_odr dso_local void @_ZNSt7__cxx1110_List_baseINS_12basic_stringIcSt11char_traitsIcESaIcEEESaIS5_EE11_M_put_nodeEPSt10_List_nodeIS5_E(%"class.std::__cxx11::_List_base.20"* %this, %"struct.std::_List_node"* %__p) #1 comdat align 2 personality i8* bitcast (i32 (...)* @__gxx_personality_v0 to i8*) !dbg !4242 {
entry:
  %this.addr = alloca %"class.std::__cxx11::_List_base.20"*, align 8
  %__p.addr = alloca %"struct.std::_List_node"*, align 8
  store %"class.std::__cxx11::_List_base.20"* %this, %"class.std::__cxx11::_List_base.20"** %this.addr, align 8
  call void @llvm.dbg.declare(metadata %"class.std::__cxx11::_List_base.20"** %this.addr, metadata !4243, metadata !DIExpression()), !dbg !4244
  store %"struct.std::_List_node"* %__p, %"struct.std::_List_node"** %__p.addr, align 8
  call void @llvm.dbg.declare(metadata %"struct.std::_List_node"** %__p.addr, metadata !4245, metadata !DIExpression()), !dbg !4246
  %this1 = load %"class.std::__cxx11::_List_base.20"*, %"class.std::__cxx11::_List_base.20"** %this.addr, align 8
  %_M_impl = getelementptr inbounds %"class.std::__cxx11::_List_base.20", %"class.std::__cxx11::_List_base.20"* %this1, i32 0, i32 0, !dbg !4247
  %0 = bitcast %"struct.std::__cxx11::_List_base<std::__cxx11::basic_string<char>, std::allocator<std::__cxx11::basic_string<char> > >::_List_impl"* %_M_impl to %"class.std::allocator.21"*, !dbg !4247
  %1 = load %"struct.std::_List_node"*, %"struct.std::_List_node"** %__p.addr, align 8, !dbg !4248
  invoke void @_ZNSt16allocator_traitsISaISt10_List_nodeINSt7__cxx1112basic_stringIcSt11char_traitsIcESaIcEEEEEE10deallocateERS8_PS7_m(%"class.std::allocator.21"* dereferenceable(1) %0, %"struct.std::_List_node"* %1, i64 1)
          to label %invoke.cont unwind label %terminate.lpad, !dbg !4249

invoke.cont:                                      ; preds = %entry
  ret void, !dbg !4250

terminate.lpad:                                   ; preds = %entry
  %2 = landingpad { i8*, i32 }
          catch i8* null, !dbg !4249
  %3 = extractvalue { i8*, i32 } %2, 0, !dbg !4249
  call void @__clang_call_terminate(i8* %3) #11, !dbg !4249
  unreachable, !dbg !4249
}

; Function Attrs: noinline nounwind uwtable
define linkonce_odr dso_local %"class.std::__cxx11::basic_string"* @_ZN9__gnu_cxx16__aligned_membufINSt7__cxx1112basic_stringIcSt11char_traitsIcESaIcEEEE6_M_ptrEv(%"struct.__gnu_cxx::__aligned_membuf"* %this) #1 comdat align 2 !dbg !4251 {
entry:
  %this.addr = alloca %"struct.__gnu_cxx::__aligned_membuf"*, align 8
  store %"struct.__gnu_cxx::__aligned_membuf"* %this, %"struct.__gnu_cxx::__aligned_membuf"** %this.addr, align 8
  call void @llvm.dbg.declare(metadata %"struct.__gnu_cxx::__aligned_membuf"** %this.addr, metadata !4252, metadata !DIExpression()), !dbg !4254
  %this1 = load %"struct.__gnu_cxx::__aligned_membuf"*, %"struct.__gnu_cxx::__aligned_membuf"** %this.addr, align 8
  %call = call i8* @_ZN9__gnu_cxx16__aligned_membufINSt7__cxx1112basic_stringIcSt11char_traitsIcESaIcEEEE7_M_addrEv(%"struct.__gnu_cxx::__aligned_membuf"* %this1) #4, !dbg !4255
  %0 = bitcast i8* %call to %"class.std::__cxx11::basic_string"*, !dbg !4256
  ret %"class.std::__cxx11::basic_string"* %0, !dbg !4257
}

; Function Attrs: noinline nounwind uwtable
define linkonce_odr dso_local i8* @_ZN9__gnu_cxx16__aligned_membufINSt7__cxx1112basic_stringIcSt11char_traitsIcESaIcEEEE7_M_addrEv(%"struct.__gnu_cxx::__aligned_membuf"* %this) #1 comdat align 2 !dbg !4258 {
entry:
  %this.addr = alloca %"struct.__gnu_cxx::__aligned_membuf"*, align 8
  store %"struct.__gnu_cxx::__aligned_membuf"* %this, %"struct.__gnu_cxx::__aligned_membuf"** %this.addr, align 8
  call void @llvm.dbg.declare(metadata %"struct.__gnu_cxx::__aligned_membuf"** %this.addr, metadata !4259, metadata !DIExpression()), !dbg !4260
  %this1 = load %"struct.__gnu_cxx::__aligned_membuf"*, %"struct.__gnu_cxx::__aligned_membuf"** %this.addr, align 8
  %_M_storage = getelementptr inbounds %"struct.__gnu_cxx::__aligned_membuf", %"struct.__gnu_cxx::__aligned_membuf"* %this1, i32 0, i32 0, !dbg !4261
  %0 = bitcast [32 x i8]* %_M_storage to i8*, !dbg !4262
  ret i8* %0, !dbg !4263
}

; Function Attrs: noinline nounwind uwtable
define linkonce_odr dso_local void @_ZN9__gnu_cxx13new_allocatorISt10_List_nodeINSt7__cxx1112basic_stringIcSt11char_traitsIcESaIcEEEEE7destroyIS7_EEvPT_(%"class.__gnu_cxx::new_allocator.22"* %this, %"class.std::__cxx11::basic_string"* %__p) #1 comdat align 2 !dbg !4264 {
entry:
  %this.addr = alloca %"class.__gnu_cxx::new_allocator.22"*, align 8
  %__p.addr = alloca %"class.std::__cxx11::basic_string"*, align 8
  store %"class.__gnu_cxx::new_allocator.22"* %this, %"class.__gnu_cxx::new_allocator.22"** %this.addr, align 8
  call void @llvm.dbg.declare(metadata %"class.__gnu_cxx::new_allocator.22"** %this.addr, metadata !4268, metadata !DIExpression()), !dbg !4270
  store %"class.std::__cxx11::basic_string"* %__p, %"class.std::__cxx11::basic_string"** %__p.addr, align 8
  call void @llvm.dbg.declare(metadata %"class.std::__cxx11::basic_string"** %__p.addr, metadata !4271, metadata !DIExpression()), !dbg !4272
  %this1 = load %"class.__gnu_cxx::new_allocator.22"*, %"class.__gnu_cxx::new_allocator.22"** %this.addr, align 8
  %0 = load %"class.std::__cxx11::basic_string"*, %"class.std::__cxx11::basic_string"** %__p.addr, align 8, !dbg !4273
  call void @_ZNSt7__cxx1112basic_stringIcSt11char_traitsIcESaIcEED1Ev(%"class.std::__cxx11::basic_string"* %0) #4, !dbg !4274
  ret void, !dbg !4275
}

; Function Attrs: noinline uwtable
define linkonce_odr dso_local void @_ZNSt16allocator_traitsISaISt10_List_nodeINSt7__cxx1112basic_stringIcSt11char_traitsIcESaIcEEEEEE10deallocateERS8_PS7_m(%"class.std::allocator.21"* dereferenceable(1) %__a, %"struct.std::_List_node"* %__p, i64 %__n) #0 comdat align 2 !dbg !4276 {
entry:
  %__a.addr = alloca %"class.std::allocator.21"*, align 8
  %__p.addr = alloca %"struct.std::_List_node"*, align 8
  %__n.addr = alloca i64, align 8
  store %"class.std::allocator.21"* %__a, %"class.std::allocator.21"** %__a.addr, align 8
  call void @llvm.dbg.declare(metadata %"class.std::allocator.21"** %__a.addr, metadata !4277, metadata !DIExpression()), !dbg !4278
  store %"struct.std::_List_node"* %__p, %"struct.std::_List_node"** %__p.addr, align 8
  call void @llvm.dbg.declare(metadata %"struct.std::_List_node"** %__p.addr, metadata !4279, metadata !DIExpression()), !dbg !4280
  store i64 %__n, i64* %__n.addr, align 8
  call void @llvm.dbg.declare(metadata i64* %__n.addr, metadata !4281, metadata !DIExpression()), !dbg !4282
  %0 = load %"class.std::allocator.21"*, %"class.std::allocator.21"** %__a.addr, align 8, !dbg !4283
  %1 = bitcast %"class.std::allocator.21"* %0 to %"class.__gnu_cxx::new_allocator.22"*, !dbg !4283
  %2 = load %"struct.std::_List_node"*, %"struct.std::_List_node"** %__p.addr, align 8, !dbg !4284
  %3 = load i64, i64* %__n.addr, align 8, !dbg !4285
  call void @_ZN9__gnu_cxx13new_allocatorISt10_List_nodeINSt7__cxx1112basic_stringIcSt11char_traitsIcESaIcEEEEE10deallocateEPS8_m(%"class.__gnu_cxx::new_allocator.22"* %1, %"struct.std::_List_node"* %2, i64 %3), !dbg !4286
  ret void, !dbg !4287
}

; Function Attrs: noinline nounwind uwtable
define linkonce_odr dso_local void @_ZN9__gnu_cxx13new_allocatorISt10_List_nodeINSt7__cxx1112basic_stringIcSt11char_traitsIcESaIcEEEEE10deallocateEPS8_m(%"class.__gnu_cxx::new_allocator.22"* %this, %"struct.std::_List_node"* %__p, i64 %__t) #1 comdat align 2 !dbg !4288 {
entry:
  %this.addr = alloca %"class.__gnu_cxx::new_allocator.22"*, align 8
  %__p.addr = alloca %"struct.std::_List_node"*, align 8
  %__t.addr = alloca i64, align 8
  store %"class.__gnu_cxx::new_allocator.22"* %this, %"class.__gnu_cxx::new_allocator.22"** %this.addr, align 8
  call void @llvm.dbg.declare(metadata %"class.__gnu_cxx::new_allocator.22"** %this.addr, metadata !4289, metadata !DIExpression()), !dbg !4290
  store %"struct.std::_List_node"* %__p, %"struct.std::_List_node"** %__p.addr, align 8
  call void @llvm.dbg.declare(metadata %"struct.std::_List_node"** %__p.addr, metadata !4291, metadata !DIExpression()), !dbg !4292
  store i64 %__t, i64* %__t.addr, align 8
  call void @llvm.dbg.declare(metadata i64* %__t.addr, metadata !4293, metadata !DIExpression()), !dbg !4294
  %this1 = load %"class.__gnu_cxx::new_allocator.22"*, %"class.__gnu_cxx::new_allocator.22"** %this.addr, align 8
  %0 = load %"struct.std::_List_node"*, %"struct.std::_List_node"** %__p.addr, align 8, !dbg !4295
  %1 = bitcast %"struct.std::_List_node"* %0 to i8*, !dbg !4295
  call void @_ZdlPv(i8* %1) #4, !dbg !4296
  ret void, !dbg !4297
}

; Function Attrs: nobuiltin nounwind
declare dso_local void @_ZdlPv(i8*) #8

; Function Attrs: noinline nounwind uwtable
define linkonce_odr dso_local void @_ZNSaISt10_List_nodeINSt7__cxx1112basic_stringIcSt11char_traitsIcESaIcEEEEED2Ev(%"class.std::allocator.21"* %this) unnamed_addr #1 comdat align 2 !dbg !4298 {
entry:
  %this.addr = alloca %"class.std::allocator.21"*, align 8
  store %"class.std::allocator.21"* %this, %"class.std::allocator.21"** %this.addr, align 8
  call void @llvm.dbg.declare(metadata %"class.std::allocator.21"** %this.addr, metadata !4299, metadata !DIExpression()), !dbg !4301
  %this1 = load %"class.std::allocator.21"*, %"class.std::allocator.21"** %this.addr, align 8
  %0 = bitcast %"class.std::allocator.21"* %this1 to %"class.__gnu_cxx::new_allocator.22"*, !dbg !4302
  call void @_ZN9__gnu_cxx13new_allocatorISt10_List_nodeINSt7__cxx1112basic_stringIcSt11char_traitsIcESaIcEEEEED2Ev(%"class.__gnu_cxx::new_allocator.22"* %0) #4, !dbg !4302
  ret void, !dbg !4304
}

; Function Attrs: noinline nounwind uwtable
define linkonce_odr dso_local void @_ZN9__gnu_cxx13new_allocatorISt10_List_nodeINSt7__cxx1112basic_stringIcSt11char_traitsIcESaIcEEEEED2Ev(%"class.__gnu_cxx::new_allocator.22"* %this) unnamed_addr #1 comdat align 2 !dbg !4305 {
entry:
  %this.addr = alloca %"class.__gnu_cxx::new_allocator.22"*, align 8
  store %"class.__gnu_cxx::new_allocator.22"* %this, %"class.__gnu_cxx::new_allocator.22"** %this.addr, align 8
  call void @llvm.dbg.declare(metadata %"class.__gnu_cxx::new_allocator.22"** %this.addr, metadata !4306, metadata !DIExpression()), !dbg !4307
  %this1 = load %"class.__gnu_cxx::new_allocator.22"*, %"class.__gnu_cxx::new_allocator.22"** %this.addr, align 8
  ret void, !dbg !4308
}

; Function Attrs: noinline nounwind uwtable
define linkonce_odr dso_local void @_ZNSt7__cxx1110_List_baseIN6dealii12SmartPointerIN9libparest17PerStepStatisticsEEESaIS5_EED2Ev(%"class.std::__cxx11::_List_base"* %this) unnamed_addr #1 comdat align 2 !dbg !4309 {
entry:
  %this.addr = alloca %"class.std::__cxx11::_List_base"*, align 8
  store %"class.std::__cxx11::_List_base"* %this, %"class.std::__cxx11::_List_base"** %this.addr, align 8
  call void @llvm.dbg.declare(metadata %"class.std::__cxx11::_List_base"** %this.addr, metadata !4310, metadata !DIExpression()), !dbg !4312
  %this1 = load %"class.std::__cxx11::_List_base"*, %"class.std::__cxx11::_List_base"** %this.addr, align 8
  call void @_ZNSt7__cxx1110_List_baseIN6dealii12SmartPointerIN9libparest17PerStepStatisticsEEESaIS5_EE8_M_clearEv(%"class.std::__cxx11::_List_base"* %this1) #4, !dbg !4313
  %_M_impl = getelementptr inbounds %"class.std::__cxx11::_List_base", %"class.std::__cxx11::_List_base"* %this1, i32 0, i32 0, !dbg !4315
  call void @_ZNSt7__cxx1110_List_baseIN6dealii12SmartPointerIN9libparest17PerStepStatisticsEEESaIS5_EE10_List_implD2Ev(%"struct.std::__cxx11::_List_base<dealii::SmartPointer<libparest::PerStepStatistics>, std::allocator<dealii::SmartPointer<libparest::PerStepStatistics> > >::_List_impl"* %_M_impl) #4, !dbg !4315
  ret void, !dbg !4316
}

; Function Attrs: noinline nounwind uwtable
define linkonce_odr dso_local void @_ZNSt7__cxx1110_List_baseIN6dealii12SmartPointerIN9libparest17PerStepStatisticsEEESaIS5_EE8_M_clearEv(%"class.std::__cxx11::_List_base"* %this) #1 comdat align 2 personality i8* bitcast (i32 (...)* @__gxx_personality_v0 to i8*) !dbg !530 {
entry:
  %this.addr = alloca %"class.std::__cxx11::_List_base"*, align 8
  %__cur = alloca %"struct.std::__detail::_List_node_base"*, align 8
  %__tmp = alloca %"struct.std::_List_node.35"*, align 8
  %__val = alloca %"class.dealii::SmartPointer"*, align 8
  store %"class.std::__cxx11::_List_base"* %this, %"class.std::__cxx11::_List_base"** %this.addr, align 8
  call void @llvm.dbg.declare(metadata %"class.std::__cxx11::_List_base"** %this.addr, metadata !4317, metadata !DIExpression()), !dbg !4318
  %this1 = load %"class.std::__cxx11::_List_base"*, %"class.std::__cxx11::_List_base"** %this.addr, align 8
  call void @llvm.dbg.declare(metadata %"struct.std::__detail::_List_node_base"** %__cur, metadata !4319, metadata !DIExpression()), !dbg !4320
  %_M_impl = getelementptr inbounds %"class.std::__cxx11::_List_base", %"class.std::__cxx11::_List_base"* %this1, i32 0, i32 0, !dbg !4321
  %_M_node = getelementptr inbounds %"struct.std::__cxx11::_List_base<dealii::SmartPointer<libparest::PerStepStatistics>, std::allocator<dealii::SmartPointer<libparest::PerStepStatistics> > >::_List_impl", %"struct.std::__cxx11::_List_base<dealii::SmartPointer<libparest::PerStepStatistics>, std::allocator<dealii::SmartPointer<libparest::PerStepStatistics> > >::_List_impl"* %_M_impl, i32 0, i32 0, !dbg !4322
  %0 = bitcast %"struct.std::__detail::_List_node_header"* %_M_node to %"struct.std::__detail::_List_node_base"*, !dbg !4321
  %_M_next = getelementptr inbounds %"struct.std::__detail::_List_node_base", %"struct.std::__detail::_List_node_base"* %0, i32 0, i32 0, !dbg !4323
  %1 = load %"struct.std::__detail::_List_node_base"*, %"struct.std::__detail::_List_node_base"** %_M_next, align 8, !dbg !4323
  store %"struct.std::__detail::_List_node_base"* %1, %"struct.std::__detail::_List_node_base"** %__cur, align 8, !dbg !4320
  br label %while.cond, !dbg !4324

while.cond:                                       ; preds = %invoke.cont, %entry
  %2 = load %"struct.std::__detail::_List_node_base"*, %"struct.std::__detail::_List_node_base"** %__cur, align 8, !dbg !4325
  %_M_impl2 = getelementptr inbounds %"class.std::__cxx11::_List_base", %"class.std::__cxx11::_List_base"* %this1, i32 0, i32 0, !dbg !4326
  %_M_node3 = getelementptr inbounds %"struct.std::__cxx11::_List_base<dealii::SmartPointer<libparest::PerStepStatistics>, std::allocator<dealii::SmartPointer<libparest::PerStepStatistics> > >::_List_impl", %"struct.std::__cxx11::_List_base<dealii::SmartPointer<libparest::PerStepStatistics>, std::allocator<dealii::SmartPointer<libparest::PerStepStatistics> > >::_List_impl"* %_M_impl2, i32 0, i32 0, !dbg !4327
  %3 = bitcast %"struct.std::__detail::_List_node_header"* %_M_node3 to %"struct.std::__detail::_List_node_base"*, !dbg !4328
  %cmp = icmp ne %"struct.std::__detail::_List_node_base"* %2, %3, !dbg !4329
  br i1 %cmp, label %while.body, label %while.end, !dbg !4324

while.body:                                       ; preds = %while.cond
  call void @llvm.dbg.declare(metadata %"struct.std::_List_node.35"** %__tmp, metadata !4330, metadata !DIExpression()), !dbg !4332
  %4 = load %"struct.std::__detail::_List_node_base"*, %"struct.std::__detail::_List_node_base"** %__cur, align 8, !dbg !4333
  %5 = bitcast %"struct.std::__detail::_List_node_base"* %4 to %"struct.std::_List_node.35"*, !dbg !4334
  store %"struct.std::_List_node.35"* %5, %"struct.std::_List_node.35"** %__tmp, align 8, !dbg !4332
  %6 = load %"struct.std::_List_node.35"*, %"struct.std::_List_node.35"** %__tmp, align 8, !dbg !4335
  %7 = bitcast %"struct.std::_List_node.35"* %6 to %"struct.std::__detail::_List_node_base"*, !dbg !4336
  %_M_next4 = getelementptr inbounds %"struct.std::__detail::_List_node_base", %"struct.std::__detail::_List_node_base"* %7, i32 0, i32 0, !dbg !4336
  %8 = load %"struct.std::__detail::_List_node_base"*, %"struct.std::__detail::_List_node_base"** %_M_next4, align 8, !dbg !4336
  store %"struct.std::__detail::_List_node_base"* %8, %"struct.std::__detail::_List_node_base"** %__cur, align 8, !dbg !4337
  call void @llvm.dbg.declare(metadata %"class.dealii::SmartPointer"** %__val, metadata !4338, metadata !DIExpression()), !dbg !4339
  %9 = load %"struct.std::_List_node.35"*, %"struct.std::_List_node.35"** %__tmp, align 8, !dbg !4340
  %call = invoke %"class.dealii::SmartPointer"* @_ZNSt10_List_nodeIN6dealii12SmartPointerIN9libparest17PerStepStatisticsEEEE9_M_valptrEv(%"struct.std::_List_node.35"* %9)
          to label %invoke.cont unwind label %terminate.lpad, !dbg !4341

invoke.cont:                                      ; preds = %while.body
  store %"class.dealii::SmartPointer"* %call, %"class.dealii::SmartPointer"** %__val, align 8, !dbg !4339
  %call5 = call dereferenceable(1) %"class.std::allocator.16"* @_ZNSt7__cxx1110_List_baseIN6dealii12SmartPointerIN9libparest17PerStepStatisticsEEESaIS5_EE21_M_get_Node_allocatorEv(%"class.std::__cxx11::_List_base"* %this1) #4, !dbg !4342
  %10 = load %"class.dealii::SmartPointer"*, %"class.dealii::SmartPointer"** %__val, align 8, !dbg !4343
  call void @_ZNSt16allocator_traitsISaISt10_List_nodeIN6dealii12SmartPointerIN9libparest17PerStepStatisticsEEEEEE7destroyIS5_EEvRS7_PT_(%"class.std::allocator.16"* dereferenceable(1) %call5, %"class.dealii::SmartPointer"* %10) #4, !dbg !4344
  %11 = load %"struct.std::_List_node.35"*, %"struct.std::_List_node.35"** %__tmp, align 8, !dbg !4345
  call void @_ZNSt7__cxx1110_List_baseIN6dealii12SmartPointerIN9libparest17PerStepStatisticsEEESaIS5_EE11_M_put_nodeEPSt10_List_nodeIS5_E(%"class.std::__cxx11::_List_base"* %this1, %"struct.std::_List_node.35"* %11) #4, !dbg !4346
  br label %while.cond, !dbg !4324, !llvm.loop !4347

while.end:                                        ; preds = %while.cond
  ret void, !dbg !4349

terminate.lpad:                                   ; preds = %while.body
  %12 = landingpad { i8*, i32 }
          catch i8* null, !dbg !4341
  %13 = extractvalue { i8*, i32 } %12, 0, !dbg !4341
  call void @__clang_call_terminate(i8* %13) #11, !dbg !4341
  unreachable, !dbg !4341
}

; Function Attrs: noinline nounwind uwtable
define linkonce_odr dso_local void @_ZNSt7__cxx1110_List_baseIN6dealii12SmartPointerIN9libparest17PerStepStatisticsEEESaIS5_EE10_List_implD2Ev(%"struct.std::__cxx11::_List_base<dealii::SmartPointer<libparest::PerStepStatistics>, std::allocator<dealii::SmartPointer<libparest::PerStepStatistics> > >::_List_impl"* %this) unnamed_addr #1 comdat align 2 !dbg !4350 {
entry:
  %this.addr = alloca %"struct.std::__cxx11::_List_base<dealii::SmartPointer<libparest::PerStepStatistics>, std::allocator<dealii::SmartPointer<libparest::PerStepStatistics> > >::_List_impl"*, align 8
  store %"struct.std::__cxx11::_List_base<dealii::SmartPointer<libparest::PerStepStatistics>, std::allocator<dealii::SmartPointer<libparest::PerStepStatistics> > >::_List_impl"* %this, %"struct.std::__cxx11::_List_base<dealii::SmartPointer<libparest::PerStepStatistics>, std::allocator<dealii::SmartPointer<libparest::PerStepStatistics> > >::_List_impl"** %this.addr, align 8
  call void @llvm.dbg.declare(metadata %"struct.std::__cxx11::_List_base<dealii::SmartPointer<libparest::PerStepStatistics>, std::allocator<dealii::SmartPointer<libparest::PerStepStatistics> > >::_List_impl"** %this.addr, metadata !4352, metadata !DIExpression()), !dbg !4354
  %this1 = load %"struct.std::__cxx11::_List_base<dealii::SmartPointer<libparest::PerStepStatistics>, std::allocator<dealii::SmartPointer<libparest::PerStepStatistics> > >::_List_impl"*, %"struct.std::__cxx11::_List_base<dealii::SmartPointer<libparest::PerStepStatistics>, std::allocator<dealii::SmartPointer<libparest::PerStepStatistics> > >::_List_impl"** %this.addr, align 8
  %0 = bitcast %"struct.std::__cxx11::_List_base<dealii::SmartPointer<libparest::PerStepStatistics>, std::allocator<dealii::SmartPointer<libparest::PerStepStatistics> > >::_List_impl"* %this1 to %"class.std::allocator.16"*, !dbg !4355
  call void @_ZNSaISt10_List_nodeIN6dealii12SmartPointerIN9libparest17PerStepStatisticsEEEEED2Ev(%"class.std::allocator.16"* %0) #4, !dbg !4355
  ret void, !dbg !4357
}

; Function Attrs: noinline nounwind uwtable
define linkonce_odr dso_local %"class.dealii::SmartPointer"* @_ZNSt10_List_nodeIN6dealii12SmartPointerIN9libparest17PerStepStatisticsEEEE9_M_valptrEv(%"struct.std::_List_node.35"* %this) #1 comdat align 2 !dbg !4358 {
entry:
  %this.addr = alloca %"struct.std::_List_node.35"*, align 8
  store %"struct.std::_List_node.35"* %this, %"struct.std::_List_node.35"** %this.addr, align 8
  call void @llvm.dbg.declare(metadata %"struct.std::_List_node.35"** %this.addr, metadata !4359, metadata !DIExpression()), !dbg !4360
  %this1 = load %"struct.std::_List_node.35"*, %"struct.std::_List_node.35"** %this.addr, align 8
  %_M_storage = getelementptr inbounds %"struct.std::_List_node.35", %"struct.std::_List_node.35"* %this1, i32 0, i32 1, !dbg !4361
  %call = call %"class.dealii::SmartPointer"* @_ZN9__gnu_cxx16__aligned_membufIN6dealii12SmartPointerIN9libparest17PerStepStatisticsEEEE6_M_ptrEv(%"struct.__gnu_cxx::__aligned_membuf.36"* %_M_storage) #4, !dbg !4362
  ret %"class.dealii::SmartPointer"* %call, !dbg !4363
}

; Function Attrs: noinline nounwind uwtable
define linkonce_odr dso_local void @_ZNSt16allocator_traitsISaISt10_List_nodeIN6dealii12SmartPointerIN9libparest17PerStepStatisticsEEEEEE7destroyIS5_EEvRS7_PT_(%"class.std::allocator.16"* dereferenceable(1) %__a, %"class.dealii::SmartPointer"* %__p) #1 comdat align 2 !dbg !4364 {
entry:
  %__a.addr = alloca %"class.std::allocator.16"*, align 8
  %__p.addr = alloca %"class.dealii::SmartPointer"*, align 8
  store %"class.std::allocator.16"* %__a, %"class.std::allocator.16"** %__a.addr, align 8
  call void @llvm.dbg.declare(metadata %"class.std::allocator.16"** %__a.addr, metadata !4370, metadata !DIExpression()), !dbg !4371
  store %"class.dealii::SmartPointer"* %__p, %"class.dealii::SmartPointer"** %__p.addr, align 8
  call void @llvm.dbg.declare(metadata %"class.dealii::SmartPointer"** %__p.addr, metadata !4372, metadata !DIExpression()), !dbg !4373
  %0 = load %"class.std::allocator.16"*, %"class.std::allocator.16"** %__a.addr, align 8, !dbg !4374
  %1 = bitcast %"class.std::allocator.16"* %0 to %"class.__gnu_cxx::new_allocator.17"*, !dbg !4374
  %2 = load %"class.dealii::SmartPointer"*, %"class.dealii::SmartPointer"** %__p.addr, align 8, !dbg !4375
  call void @_ZN9__gnu_cxx13new_allocatorISt10_List_nodeIN6dealii12SmartPointerIN9libparest17PerStepStatisticsEEEEE7destroyIS6_EEvPT_(%"class.__gnu_cxx::new_allocator.17"* %1, %"class.dealii::SmartPointer"* %2) #4, !dbg !4376
  ret void, !dbg !4377
}

; Function Attrs: noinline nounwind uwtable
define linkonce_odr dso_local dereferenceable(1) %"class.std::allocator.16"* @_ZNSt7__cxx1110_List_baseIN6dealii12SmartPointerIN9libparest17PerStepStatisticsEEESaIS5_EE21_M_get_Node_allocatorEv(%"class.std::__cxx11::_List_base"* %this) #1 comdat align 2 !dbg !4378 {
entry:
  %this.addr = alloca %"class.std::__cxx11::_List_base"*, align 8
  store %"class.std::__cxx11::_List_base"* %this, %"class.std::__cxx11::_List_base"** %this.addr, align 8
  call void @llvm.dbg.declare(metadata %"class.std::__cxx11::_List_base"** %this.addr, metadata !4379, metadata !DIExpression()), !dbg !4380
  %this1 = load %"class.std::__cxx11::_List_base"*, %"class.std::__cxx11::_List_base"** %this.addr, align 8
  %_M_impl = getelementptr inbounds %"class.std::__cxx11::_List_base", %"class.std::__cxx11::_List_base"* %this1, i32 0, i32 0, !dbg !4381
  %0 = bitcast %"struct.std::__cxx11::_List_base<dealii::SmartPointer<libparest::PerStepStatistics>, std::allocator<dealii::SmartPointer<libparest::PerStepStatistics> > >::_List_impl"* %_M_impl to %"class.std::allocator.16"*, !dbg !4381
  ret %"class.std::allocator.16"* %0, !dbg !4382
}

; Function Attrs: noinline nounwind uwtable
define linkonce_odr dso_local void @_ZNSt7__cxx1110_List_baseIN6dealii12SmartPointerIN9libparest17PerStepStatisticsEEESaIS5_EE11_M_put_nodeEPSt10_List_nodeIS5_E(%"class.std::__cxx11::_List_base"* %this, %"struct.std::_List_node.35"* %__p) #1 comdat align 2 personality i8* bitcast (i32 (...)* @__gxx_personality_v0 to i8*) !dbg !4383 {
entry:
  %this.addr = alloca %"class.std::__cxx11::_List_base"*, align 8
  %__p.addr = alloca %"struct.std::_List_node.35"*, align 8
  store %"class.std::__cxx11::_List_base"* %this, %"class.std::__cxx11::_List_base"** %this.addr, align 8
  call void @llvm.dbg.declare(metadata %"class.std::__cxx11::_List_base"** %this.addr, metadata !4384, metadata !DIExpression()), !dbg !4385
  store %"struct.std::_List_node.35"* %__p, %"struct.std::_List_node.35"** %__p.addr, align 8
  call void @llvm.dbg.declare(metadata %"struct.std::_List_node.35"** %__p.addr, metadata !4386, metadata !DIExpression()), !dbg !4387
  %this1 = load %"class.std::__cxx11::_List_base"*, %"class.std::__cxx11::_List_base"** %this.addr, align 8
  %_M_impl = getelementptr inbounds %"class.std::__cxx11::_List_base", %"class.std::__cxx11::_List_base"* %this1, i32 0, i32 0, !dbg !4388
  %0 = bitcast %"struct.std::__cxx11::_List_base<dealii::SmartPointer<libparest::PerStepStatistics>, std::allocator<dealii::SmartPointer<libparest::PerStepStatistics> > >::_List_impl"* %_M_impl to %"class.std::allocator.16"*, !dbg !4388
  %1 = load %"struct.std::_List_node.35"*, %"struct.std::_List_node.35"** %__p.addr, align 8, !dbg !4389
  invoke void @_ZNSt16allocator_traitsISaISt10_List_nodeIN6dealii12SmartPointerIN9libparest17PerStepStatisticsEEEEEE10deallocateERS7_PS6_m(%"class.std::allocator.16"* dereferenceable(1) %0, %"struct.std::_List_node.35"* %1, i64 1)
          to label %invoke.cont unwind label %terminate.lpad, !dbg !4390

invoke.cont:                                      ; preds = %entry
  ret void, !dbg !4391

terminate.lpad:                                   ; preds = %entry
  %2 = landingpad { i8*, i32 }
          catch i8* null, !dbg !4390
  %3 = extractvalue { i8*, i32 } %2, 0, !dbg !4390
  call void @__clang_call_terminate(i8* %3) #11, !dbg !4390
  unreachable, !dbg !4390
}

; Function Attrs: noinline nounwind uwtable
define linkonce_odr dso_local %"class.dealii::SmartPointer"* @_ZN9__gnu_cxx16__aligned_membufIN6dealii12SmartPointerIN9libparest17PerStepStatisticsEEEE6_M_ptrEv(%"struct.__gnu_cxx::__aligned_membuf.36"* %this) #1 comdat align 2 !dbg !4392 {
entry:
  %this.addr = alloca %"struct.__gnu_cxx::__aligned_membuf.36"*, align 8
  store %"struct.__gnu_cxx::__aligned_membuf.36"* %this, %"struct.__gnu_cxx::__aligned_membuf.36"** %this.addr, align 8
  call void @llvm.dbg.declare(metadata %"struct.__gnu_cxx::__aligned_membuf.36"** %this.addr, metadata !4393, metadata !DIExpression()), !dbg !4395
  %this1 = load %"struct.__gnu_cxx::__aligned_membuf.36"*, %"struct.__gnu_cxx::__aligned_membuf.36"** %this.addr, align 8
  %call = call i8* @_ZN9__gnu_cxx16__aligned_membufIN6dealii12SmartPointerIN9libparest17PerStepStatisticsEEEE7_M_addrEv(%"struct.__gnu_cxx::__aligned_membuf.36"* %this1) #4, !dbg !4396
  %0 = bitcast i8* %call to %"class.dealii::SmartPointer"*, !dbg !4397
  ret %"class.dealii::SmartPointer"* %0, !dbg !4398
}

; Function Attrs: noinline nounwind uwtable
define linkonce_odr dso_local i8* @_ZN9__gnu_cxx16__aligned_membufIN6dealii12SmartPointerIN9libparest17PerStepStatisticsEEEE7_M_addrEv(%"struct.__gnu_cxx::__aligned_membuf.36"* %this) #1 comdat align 2 !dbg !4399 {
entry:
  %this.addr = alloca %"struct.__gnu_cxx::__aligned_membuf.36"*, align 8
  store %"struct.__gnu_cxx::__aligned_membuf.36"* %this, %"struct.__gnu_cxx::__aligned_membuf.36"** %this.addr, align 8
  call void @llvm.dbg.declare(metadata %"struct.__gnu_cxx::__aligned_membuf.36"** %this.addr, metadata !4400, metadata !DIExpression()), !dbg !4401
  %this1 = load %"struct.__gnu_cxx::__aligned_membuf.36"*, %"struct.__gnu_cxx::__aligned_membuf.36"** %this.addr, align 8
  %_M_storage = getelementptr inbounds %"struct.__gnu_cxx::__aligned_membuf.36", %"struct.__gnu_cxx::__aligned_membuf.36"* %this1, i32 0, i32 0, !dbg !4402
  %0 = bitcast [16 x i8]* %_M_storage to i8*, !dbg !4403
  ret i8* %0, !dbg !4404
}

; Function Attrs: noinline nounwind uwtable
define linkonce_odr dso_local void @_ZN9__gnu_cxx13new_allocatorISt10_List_nodeIN6dealii12SmartPointerIN9libparest17PerStepStatisticsEEEEE7destroyIS6_EEvPT_(%"class.__gnu_cxx::new_allocator.17"* %this, %"class.dealii::SmartPointer"* %__p) #1 comdat align 2 !dbg !4405 {
entry:
  %this.addr = alloca %"class.__gnu_cxx::new_allocator.17"*, align 8
  %__p.addr = alloca %"class.dealii::SmartPointer"*, align 8
  store %"class.__gnu_cxx::new_allocator.17"* %this, %"class.__gnu_cxx::new_allocator.17"** %this.addr, align 8
  call void @llvm.dbg.declare(metadata %"class.__gnu_cxx::new_allocator.17"** %this.addr, metadata !4409, metadata !DIExpression()), !dbg !4411
  store %"class.dealii::SmartPointer"* %__p, %"class.dealii::SmartPointer"** %__p.addr, align 8
  call void @llvm.dbg.declare(metadata %"class.dealii::SmartPointer"** %__p.addr, metadata !4412, metadata !DIExpression()), !dbg !4413
  %this1 = load %"class.__gnu_cxx::new_allocator.17"*, %"class.__gnu_cxx::new_allocator.17"** %this.addr, align 8
  %0 = load %"class.dealii::SmartPointer"*, %"class.dealii::SmartPointer"** %__p.addr, align 8, !dbg !4414
  call void @_ZN6dealii12SmartPointerIN9libparest17PerStepStatisticsEED2Ev(%"class.dealii::SmartPointer"* %0) #4, !dbg !4415
  ret void, !dbg !4416
}

; Function Attrs: noinline uwtable
define linkonce_odr dso_local void @_ZNSt16allocator_traitsISaISt10_List_nodeIN6dealii12SmartPointerIN9libparest17PerStepStatisticsEEEEEE10deallocateERS7_PS6_m(%"class.std::allocator.16"* dereferenceable(1) %__a, %"struct.std::_List_node.35"* %__p, i64 %__n) #0 comdat align 2 !dbg !4417 {
entry:
  %__a.addr = alloca %"class.std::allocator.16"*, align 8
  %__p.addr = alloca %"struct.std::_List_node.35"*, align 8
  %__n.addr = alloca i64, align 8
  store %"class.std::allocator.16"* %__a, %"class.std::allocator.16"** %__a.addr, align 8
  call void @llvm.dbg.declare(metadata %"class.std::allocator.16"** %__a.addr, metadata !4418, metadata !DIExpression()), !dbg !4419
  store %"struct.std::_List_node.35"* %__p, %"struct.std::_List_node.35"** %__p.addr, align 8
  call void @llvm.dbg.declare(metadata %"struct.std::_List_node.35"** %__p.addr, metadata !4420, metadata !DIExpression()), !dbg !4421
  store i64 %__n, i64* %__n.addr, align 8
  call void @llvm.dbg.declare(metadata i64* %__n.addr, metadata !4422, metadata !DIExpression()), !dbg !4423
  %0 = load %"class.std::allocator.16"*, %"class.std::allocator.16"** %__a.addr, align 8, !dbg !4424
  %1 = bitcast %"class.std::allocator.16"* %0 to %"class.__gnu_cxx::new_allocator.17"*, !dbg !4424
  %2 = load %"struct.std::_List_node.35"*, %"struct.std::_List_node.35"** %__p.addr, align 8, !dbg !4425
  %3 = load i64, i64* %__n.addr, align 8, !dbg !4426
  call void @_ZN9__gnu_cxx13new_allocatorISt10_List_nodeIN6dealii12SmartPointerIN9libparest17PerStepStatisticsEEEEE10deallocateEPS7_m(%"class.__gnu_cxx::new_allocator.17"* %1, %"struct.std::_List_node.35"* %2, i64 %3), !dbg !4427
  ret void, !dbg !4428
}

; Function Attrs: noinline nounwind uwtable
define linkonce_odr dso_local void @_ZN9__gnu_cxx13new_allocatorISt10_List_nodeIN6dealii12SmartPointerIN9libparest17PerStepStatisticsEEEEE10deallocateEPS7_m(%"class.__gnu_cxx::new_allocator.17"* %this, %"struct.std::_List_node.35"* %__p, i64 %__t) #1 comdat align 2 !dbg !4429 {
entry:
  %this.addr = alloca %"class.__gnu_cxx::new_allocator.17"*, align 8
  %__p.addr = alloca %"struct.std::_List_node.35"*, align 8
  %__t.addr = alloca i64, align 8
  store %"class.__gnu_cxx::new_allocator.17"* %this, %"class.__gnu_cxx::new_allocator.17"** %this.addr, align 8
  call void @llvm.dbg.declare(metadata %"class.__gnu_cxx::new_allocator.17"** %this.addr, metadata !4430, metadata !DIExpression()), !dbg !4431
  store %"struct.std::_List_node.35"* %__p, %"struct.std::_List_node.35"** %__p.addr, align 8
  call void @llvm.dbg.declare(metadata %"struct.std::_List_node.35"** %__p.addr, metadata !4432, metadata !DIExpression()), !dbg !4433
  store i64 %__t, i64* %__t.addr, align 8
  call void @llvm.dbg.declare(metadata i64* %__t.addr, metadata !4434, metadata !DIExpression()), !dbg !4435
  %this1 = load %"class.__gnu_cxx::new_allocator.17"*, %"class.__gnu_cxx::new_allocator.17"** %this.addr, align 8
  %0 = load %"struct.std::_List_node.35"*, %"struct.std::_List_node.35"** %__p.addr, align 8, !dbg !4436
  %1 = bitcast %"struct.std::_List_node.35"* %0 to i8*, !dbg !4436
  call void @_ZdlPv(i8* %1) #4, !dbg !4437
  ret void, !dbg !4438
}

; Function Attrs: noinline nounwind uwtable
define linkonce_odr dso_local void @_ZNSaISt10_List_nodeIN6dealii12SmartPointerIN9libparest17PerStepStatisticsEEEEED2Ev(%"class.std::allocator.16"* %this) unnamed_addr #1 comdat align 2 !dbg !4439 {
entry:
  %this.addr = alloca %"class.std::allocator.16"*, align 8
  store %"class.std::allocator.16"* %this, %"class.std::allocator.16"** %this.addr, align 8
  call void @llvm.dbg.declare(metadata %"class.std::allocator.16"** %this.addr, metadata !4440, metadata !DIExpression()), !dbg !4442
  %this1 = load %"class.std::allocator.16"*, %"class.std::allocator.16"** %this.addr, align 8
  %0 = bitcast %"class.std::allocator.16"* %this1 to %"class.__gnu_cxx::new_allocator.17"*, !dbg !4443
  call void @_ZN9__gnu_cxx13new_allocatorISt10_List_nodeIN6dealii12SmartPointerIN9libparest17PerStepStatisticsEEEEED2Ev(%"class.__gnu_cxx::new_allocator.17"* %0) #4, !dbg !4443
  ret void, !dbg !4445
}

; Function Attrs: noinline nounwind uwtable
define linkonce_odr dso_local void @_ZN9__gnu_cxx13new_allocatorISt10_List_nodeIN6dealii12SmartPointerIN9libparest17PerStepStatisticsEEEEED2Ev(%"class.__gnu_cxx::new_allocator.17"* %this) unnamed_addr #1 comdat align 2 !dbg !4446 {
entry:
  %this.addr = alloca %"class.__gnu_cxx::new_allocator.17"*, align 8
  store %"class.__gnu_cxx::new_allocator.17"* %this, %"class.__gnu_cxx::new_allocator.17"** %this.addr, align 8
  call void @llvm.dbg.declare(metadata %"class.__gnu_cxx::new_allocator.17"** %this.addr, metadata !4447, metadata !DIExpression()), !dbg !4448
  %this1 = load %"class.__gnu_cxx::new_allocator.17"*, %"class.__gnu_cxx::new_allocator.17"** %this.addr, align 8
  ret void, !dbg !4449
}

; Function Attrs: noinline nounwind uwtable
define linkonce_odr dso_local void @_ZNSt7__cxx1110_List_baseIdSaIdEED2Ev(%"class.std::__cxx11::_List_base.29"* %this) unnamed_addr #1 comdat align 2 !dbg !4450 {
entry:
  %this.addr = alloca %"class.std::__cxx11::_List_base.29"*, align 8
  store %"class.std::__cxx11::_List_base.29"* %this, %"class.std::__cxx11::_List_base.29"** %this.addr, align 8
  call void @llvm.dbg.declare(metadata %"class.std::__cxx11::_List_base.29"** %this.addr, metadata !4451, metadata !DIExpression()), !dbg !4453
  %this1 = load %"class.std::__cxx11::_List_base.29"*, %"class.std::__cxx11::_List_base.29"** %this.addr, align 8
  call void @_ZNSt7__cxx1110_List_baseIdSaIdEE8_M_clearEv(%"class.std::__cxx11::_List_base.29"* %this1) #4, !dbg !4454
  %_M_impl = getelementptr inbounds %"class.std::__cxx11::_List_base.29", %"class.std::__cxx11::_List_base.29"* %this1, i32 0, i32 0, !dbg !4456
  call void @_ZNSt7__cxx1110_List_baseIdSaIdEE10_List_implD2Ev(%"struct.std::__cxx11::_List_base<double, std::allocator<double> >::_List_impl"* %_M_impl) #4, !dbg !4456
  ret void, !dbg !4457
}

; Function Attrs: noinline nounwind uwtable
define linkonce_odr dso_local void @_ZNSt7__cxx1110_List_baseIdSaIdEE8_M_clearEv(%"class.std::__cxx11::_List_base.29"* %this) #1 comdat align 2 personality i8* bitcast (i32 (...)* @__gxx_personality_v0 to i8*) !dbg !1812 {
entry:
  %this.addr = alloca %"class.std::__cxx11::_List_base.29"*, align 8
  %__cur = alloca %"struct.std::__detail::_List_node_base"*, align 8
  %__tmp = alloca %"struct.std::_List_node.37"*, align 8
  %__val = alloca double*, align 8
  store %"class.std::__cxx11::_List_base.29"* %this, %"class.std::__cxx11::_List_base.29"** %this.addr, align 8
  call void @llvm.dbg.declare(metadata %"class.std::__cxx11::_List_base.29"** %this.addr, metadata !4458, metadata !DIExpression()), !dbg !4459
  %this1 = load %"class.std::__cxx11::_List_base.29"*, %"class.std::__cxx11::_List_base.29"** %this.addr, align 8
  call void @llvm.dbg.declare(metadata %"struct.std::__detail::_List_node_base"** %__cur, metadata !4460, metadata !DIExpression()), !dbg !4461
  %_M_impl = getelementptr inbounds %"class.std::__cxx11::_List_base.29", %"class.std::__cxx11::_List_base.29"* %this1, i32 0, i32 0, !dbg !4462
  %_M_node = getelementptr inbounds %"struct.std::__cxx11::_List_base<double, std::allocator<double> >::_List_impl", %"struct.std::__cxx11::_List_base<double, std::allocator<double> >::_List_impl"* %_M_impl, i32 0, i32 0, !dbg !4463
  %0 = bitcast %"struct.std::__detail::_List_node_header"* %_M_node to %"struct.std::__detail::_List_node_base"*, !dbg !4462
  %_M_next = getelementptr inbounds %"struct.std::__detail::_List_node_base", %"struct.std::__detail::_List_node_base"* %0, i32 0, i32 0, !dbg !4464
  %1 = load %"struct.std::__detail::_List_node_base"*, %"struct.std::__detail::_List_node_base"** %_M_next, align 8, !dbg !4464
  store %"struct.std::__detail::_List_node_base"* %1, %"struct.std::__detail::_List_node_base"** %__cur, align 8, !dbg !4461
  br label %while.cond, !dbg !4465

while.cond:                                       ; preds = %invoke.cont, %entry
  %2 = load %"struct.std::__detail::_List_node_base"*, %"struct.std::__detail::_List_node_base"** %__cur, align 8, !dbg !4466
  %_M_impl2 = getelementptr inbounds %"class.std::__cxx11::_List_base.29", %"class.std::__cxx11::_List_base.29"* %this1, i32 0, i32 0, !dbg !4467
  %_M_node3 = getelementptr inbounds %"struct.std::__cxx11::_List_base<double, std::allocator<double> >::_List_impl", %"struct.std::__cxx11::_List_base<double, std::allocator<double> >::_List_impl"* %_M_impl2, i32 0, i32 0, !dbg !4468
  %3 = bitcast %"struct.std::__detail::_List_node_header"* %_M_node3 to %"struct.std::__detail::_List_node_base"*, !dbg !4469
  %cmp = icmp ne %"struct.std::__detail::_List_node_base"* %2, %3, !dbg !4470
  br i1 %cmp, label %while.body, label %while.end, !dbg !4465

while.body:                                       ; preds = %while.cond
  call void @llvm.dbg.declare(metadata %"struct.std::_List_node.37"** %__tmp, metadata !4471, metadata !DIExpression()), !dbg !4473
  %4 = load %"struct.std::__detail::_List_node_base"*, %"struct.std::__detail::_List_node_base"** %__cur, align 8, !dbg !4474
  %5 = bitcast %"struct.std::__detail::_List_node_base"* %4 to %"struct.std::_List_node.37"*, !dbg !4475
  store %"struct.std::_List_node.37"* %5, %"struct.std::_List_node.37"** %__tmp, align 8, !dbg !4473
  %6 = load %"struct.std::_List_node.37"*, %"struct.std::_List_node.37"** %__tmp, align 8, !dbg !4476
  %7 = bitcast %"struct.std::_List_node.37"* %6 to %"struct.std::__detail::_List_node_base"*, !dbg !4477
  %_M_next4 = getelementptr inbounds %"struct.std::__detail::_List_node_base", %"struct.std::__detail::_List_node_base"* %7, i32 0, i32 0, !dbg !4477
  %8 = load %"struct.std::__detail::_List_node_base"*, %"struct.std::__detail::_List_node_base"** %_M_next4, align 8, !dbg !4477
  store %"struct.std::__detail::_List_node_base"* %8, %"struct.std::__detail::_List_node_base"** %__cur, align 8, !dbg !4478
  call void @llvm.dbg.declare(metadata double** %__val, metadata !4479, metadata !DIExpression()), !dbg !4480
  %9 = load %"struct.std::_List_node.37"*, %"struct.std::_List_node.37"** %__tmp, align 8, !dbg !4481
  %call = invoke double* @_ZNSt10_List_nodeIdE9_M_valptrEv(%"struct.std::_List_node.37"* %9)
          to label %invoke.cont unwind label %terminate.lpad, !dbg !4482

invoke.cont:                                      ; preds = %while.body
  store double* %call, double** %__val, align 8, !dbg !4480
  %call5 = call dereferenceable(1) %"class.std::allocator.30"* @_ZNSt7__cxx1110_List_baseIdSaIdEE21_M_get_Node_allocatorEv(%"class.std::__cxx11::_List_base.29"* %this1) #4, !dbg !4483
  %10 = load double*, double** %__val, align 8, !dbg !4484
  call void @_ZNSt16allocator_traitsISaISt10_List_nodeIdEEE7destroyIdEEvRS2_PT_(%"class.std::allocator.30"* dereferenceable(1) %call5, double* %10) #4, !dbg !4485
  %11 = load %"struct.std::_List_node.37"*, %"struct.std::_List_node.37"** %__tmp, align 8, !dbg !4486
  call void @_ZNSt7__cxx1110_List_baseIdSaIdEE11_M_put_nodeEPSt10_List_nodeIdE(%"class.std::__cxx11::_List_base.29"* %this1, %"struct.std::_List_node.37"* %11) #4, !dbg !4487
  br label %while.cond, !dbg !4465, !llvm.loop !4488

while.end:                                        ; preds = %while.cond
  ret void, !dbg !4490

terminate.lpad:                                   ; preds = %while.body
  %12 = landingpad { i8*, i32 }
          catch i8* null, !dbg !4482
  %13 = extractvalue { i8*, i32 } %12, 0, !dbg !4482
  call void @__clang_call_terminate(i8* %13) #11, !dbg !4482
  unreachable, !dbg !4482
}

; Function Attrs: noinline nounwind uwtable
define linkonce_odr dso_local void @_ZNSt7__cxx1110_List_baseIdSaIdEE10_List_implD2Ev(%"struct.std::__cxx11::_List_base<double, std::allocator<double> >::_List_impl"* %this) unnamed_addr #1 comdat align 2 !dbg !4491 {
entry:
  %this.addr = alloca %"struct.std::__cxx11::_List_base<double, std::allocator<double> >::_List_impl"*, align 8
  store %"struct.std::__cxx11::_List_base<double, std::allocator<double> >::_List_impl"* %this, %"struct.std::__cxx11::_List_base<double, std::allocator<double> >::_List_impl"** %this.addr, align 8
  call void @llvm.dbg.declare(metadata %"struct.std::__cxx11::_List_base<double, std::allocator<double> >::_List_impl"** %this.addr, metadata !4493, metadata !DIExpression()), !dbg !4495
  %this1 = load %"struct.std::__cxx11::_List_base<double, std::allocator<double> >::_List_impl"*, %"struct.std::__cxx11::_List_base<double, std::allocator<double> >::_List_impl"** %this.addr, align 8
  %0 = bitcast %"struct.std::__cxx11::_List_base<double, std::allocator<double> >::_List_impl"* %this1 to %"class.std::allocator.30"*, !dbg !4496
  call void @_ZNSaISt10_List_nodeIdEED2Ev(%"class.std::allocator.30"* %0) #4, !dbg !4496
  ret void, !dbg !4498
}

; Function Attrs: noinline nounwind uwtable
define linkonce_odr dso_local double* @_ZNSt10_List_nodeIdE9_M_valptrEv(%"struct.std::_List_node.37"* %this) #1 comdat align 2 !dbg !4499 {
entry:
  %this.addr = alloca %"struct.std::_List_node.37"*, align 8
  store %"struct.std::_List_node.37"* %this, %"struct.std::_List_node.37"** %this.addr, align 8
  call void @llvm.dbg.declare(metadata %"struct.std::_List_node.37"** %this.addr, metadata !4500, metadata !DIExpression()), !dbg !4501
  %this1 = load %"struct.std::_List_node.37"*, %"struct.std::_List_node.37"** %this.addr, align 8
  %_M_storage = getelementptr inbounds %"struct.std::_List_node.37", %"struct.std::_List_node.37"* %this1, i32 0, i32 1, !dbg !4502
  %call = call double* @_ZN9__gnu_cxx16__aligned_membufIdE6_M_ptrEv(%"struct.__gnu_cxx::__aligned_membuf.38"* %_M_storage) #4, !dbg !4503
  ret double* %call, !dbg !4504
}

; Function Attrs: noinline nounwind uwtable
define linkonce_odr dso_local void @_ZNSt16allocator_traitsISaISt10_List_nodeIdEEE7destroyIdEEvRS2_PT_(%"class.std::allocator.30"* dereferenceable(1) %__a, double* %__p) #1 comdat align 2 !dbg !4505 {
entry:
  %__a.addr = alloca %"class.std::allocator.30"*, align 8
  %__p.addr = alloca double*, align 8
  store %"class.std::allocator.30"* %__a, %"class.std::allocator.30"** %__a.addr, align 8
  call void @llvm.dbg.declare(metadata %"class.std::allocator.30"** %__a.addr, metadata !4511, metadata !DIExpression()), !dbg !4512
  store double* %__p, double** %__p.addr, align 8
  call void @llvm.dbg.declare(metadata double** %__p.addr, metadata !4513, metadata !DIExpression()), !dbg !4514
  %0 = load %"class.std::allocator.30"*, %"class.std::allocator.30"** %__a.addr, align 8, !dbg !4515
  %1 = bitcast %"class.std::allocator.30"* %0 to %"class.__gnu_cxx::new_allocator.31"*, !dbg !4515
  %2 = load double*, double** %__p.addr, align 8, !dbg !4516
  call void @_ZN9__gnu_cxx13new_allocatorISt10_List_nodeIdEE7destroyIdEEvPT_(%"class.__gnu_cxx::new_allocator.31"* %1, double* %2) #4, !dbg !4517
  ret void, !dbg !4518
}

; Function Attrs: noinline nounwind uwtable
define linkonce_odr dso_local dereferenceable(1) %"class.std::allocator.30"* @_ZNSt7__cxx1110_List_baseIdSaIdEE21_M_get_Node_allocatorEv(%"class.std::__cxx11::_List_base.29"* %this) #1 comdat align 2 !dbg !4519 {
entry:
  %this.addr = alloca %"class.std::__cxx11::_List_base.29"*, align 8
  store %"class.std::__cxx11::_List_base.29"* %this, %"class.std::__cxx11::_List_base.29"** %this.addr, align 8
  call void @llvm.dbg.declare(metadata %"class.std::__cxx11::_List_base.29"** %this.addr, metadata !4520, metadata !DIExpression()), !dbg !4521
  %this1 = load %"class.std::__cxx11::_List_base.29"*, %"class.std::__cxx11::_List_base.29"** %this.addr, align 8
  %_M_impl = getelementptr inbounds %"class.std::__cxx11::_List_base.29", %"class.std::__cxx11::_List_base.29"* %this1, i32 0, i32 0, !dbg !4522
  %0 = bitcast %"struct.std::__cxx11::_List_base<double, std::allocator<double> >::_List_impl"* %_M_impl to %"class.std::allocator.30"*, !dbg !4522
  ret %"class.std::allocator.30"* %0, !dbg !4523
}

; Function Attrs: noinline nounwind uwtable
define linkonce_odr dso_local void @_ZNSt7__cxx1110_List_baseIdSaIdEE11_M_put_nodeEPSt10_List_nodeIdE(%"class.std::__cxx11::_List_base.29"* %this, %"struct.std::_List_node.37"* %__p) #1 comdat align 2 personality i8* bitcast (i32 (...)* @__gxx_personality_v0 to i8*) !dbg !4524 {
entry:
  %this.addr = alloca %"class.std::__cxx11::_List_base.29"*, align 8
  %__p.addr = alloca %"struct.std::_List_node.37"*, align 8
  store %"class.std::__cxx11::_List_base.29"* %this, %"class.std::__cxx11::_List_base.29"** %this.addr, align 8
  call void @llvm.dbg.declare(metadata %"class.std::__cxx11::_List_base.29"** %this.addr, metadata !4525, metadata !DIExpression()), !dbg !4526
  store %"struct.std::_List_node.37"* %__p, %"struct.std::_List_node.37"** %__p.addr, align 8
  call void @llvm.dbg.declare(metadata %"struct.std::_List_node.37"** %__p.addr, metadata !4527, metadata !DIExpression()), !dbg !4528
  %this1 = load %"class.std::__cxx11::_List_base.29"*, %"class.std::__cxx11::_List_base.29"** %this.addr, align 8
  %_M_impl = getelementptr inbounds %"class.std::__cxx11::_List_base.29", %"class.std::__cxx11::_List_base.29"* %this1, i32 0, i32 0, !dbg !4529
  %0 = bitcast %"struct.std::__cxx11::_List_base<double, std::allocator<double> >::_List_impl"* %_M_impl to %"class.std::allocator.30"*, !dbg !4529
  %1 = load %"struct.std::_List_node.37"*, %"struct.std::_List_node.37"** %__p.addr, align 8, !dbg !4530
  invoke void @_ZNSt16allocator_traitsISaISt10_List_nodeIdEEE10deallocateERS2_PS1_m(%"class.std::allocator.30"* dereferenceable(1) %0, %"struct.std::_List_node.37"* %1, i64 1)
          to label %invoke.cont unwind label %terminate.lpad, !dbg !4531

invoke.cont:                                      ; preds = %entry
  ret void, !dbg !4532

terminate.lpad:                                   ; preds = %entry
  %2 = landingpad { i8*, i32 }
          catch i8* null, !dbg !4531
  %3 = extractvalue { i8*, i32 } %2, 0, !dbg !4531
  call void @__clang_call_terminate(i8* %3) #11, !dbg !4531
  unreachable, !dbg !4531
}

; Function Attrs: noinline nounwind uwtable
define linkonce_odr dso_local double* @_ZN9__gnu_cxx16__aligned_membufIdE6_M_ptrEv(%"struct.__gnu_cxx::__aligned_membuf.38"* %this) #1 comdat align 2 !dbg !4533 {
entry:
  %this.addr = alloca %"struct.__gnu_cxx::__aligned_membuf.38"*, align 8
  store %"struct.__gnu_cxx::__aligned_membuf.38"* %this, %"struct.__gnu_cxx::__aligned_membuf.38"** %this.addr, align 8
  call void @llvm.dbg.declare(metadata %"struct.__gnu_cxx::__aligned_membuf.38"** %this.addr, metadata !4534, metadata !DIExpression()), !dbg !4536
  %this1 = load %"struct.__gnu_cxx::__aligned_membuf.38"*, %"struct.__gnu_cxx::__aligned_membuf.38"** %this.addr, align 8
  %call = call i8* @_ZN9__gnu_cxx16__aligned_membufIdE7_M_addrEv(%"struct.__gnu_cxx::__aligned_membuf.38"* %this1) #4, !dbg !4537
  %0 = bitcast i8* %call to double*, !dbg !4538
  ret double* %0, !dbg !4539
}

; Function Attrs: noinline nounwind uwtable
define linkonce_odr dso_local i8* @_ZN9__gnu_cxx16__aligned_membufIdE7_M_addrEv(%"struct.__gnu_cxx::__aligned_membuf.38"* %this) #1 comdat align 2 !dbg !4540 {
entry:
  %this.addr = alloca %"struct.__gnu_cxx::__aligned_membuf.38"*, align 8
  store %"struct.__gnu_cxx::__aligned_membuf.38"* %this, %"struct.__gnu_cxx::__aligned_membuf.38"** %this.addr, align 8
  call void @llvm.dbg.declare(metadata %"struct.__gnu_cxx::__aligned_membuf.38"** %this.addr, metadata !4541, metadata !DIExpression()), !dbg !4542
  %this1 = load %"struct.__gnu_cxx::__aligned_membuf.38"*, %"struct.__gnu_cxx::__aligned_membuf.38"** %this.addr, align 8
  %_M_storage = getelementptr inbounds %"struct.__gnu_cxx::__aligned_membuf.38", %"struct.__gnu_cxx::__aligned_membuf.38"* %this1, i32 0, i32 0, !dbg !4543
  %0 = bitcast [8 x i8]* %_M_storage to i8*, !dbg !4544
  ret i8* %0, !dbg !4545
}

; Function Attrs: noinline nounwind uwtable
define linkonce_odr dso_local void @_ZN9__gnu_cxx13new_allocatorISt10_List_nodeIdEE7destroyIdEEvPT_(%"class.__gnu_cxx::new_allocator.31"* %this, double* %__p) #1 comdat align 2 !dbg !4546 {
entry:
  %this.addr = alloca %"class.__gnu_cxx::new_allocator.31"*, align 8
  %__p.addr = alloca double*, align 8
  store %"class.__gnu_cxx::new_allocator.31"* %this, %"class.__gnu_cxx::new_allocator.31"** %this.addr, align 8
  call void @llvm.dbg.declare(metadata %"class.__gnu_cxx::new_allocator.31"** %this.addr, metadata !4550, metadata !DIExpression()), !dbg !4552
  store double* %__p, double** %__p.addr, align 8
  call void @llvm.dbg.declare(metadata double** %__p.addr, metadata !4553, metadata !DIExpression()), !dbg !4554
  %this1 = load %"class.__gnu_cxx::new_allocator.31"*, %"class.__gnu_cxx::new_allocator.31"** %this.addr, align 8
  ret void, !dbg !4555
}

; Function Attrs: noinline uwtable
define linkonce_odr dso_local void @_ZNSt16allocator_traitsISaISt10_List_nodeIdEEE10deallocateERS2_PS1_m(%"class.std::allocator.30"* dereferenceable(1) %__a, %"struct.std::_List_node.37"* %__p, i64 %__n) #0 comdat align 2 !dbg !4556 {
entry:
  %__a.addr = alloca %"class.std::allocator.30"*, align 8
  %__p.addr = alloca %"struct.std::_List_node.37"*, align 8
  %__n.addr = alloca i64, align 8
  store %"class.std::allocator.30"* %__a, %"class.std::allocator.30"** %__a.addr, align 8
  call void @llvm.dbg.declare(metadata %"class.std::allocator.30"** %__a.addr, metadata !4557, metadata !DIExpression()), !dbg !4558
  store %"struct.std::_List_node.37"* %__p, %"struct.std::_List_node.37"** %__p.addr, align 8
  call void @llvm.dbg.declare(metadata %"struct.std::_List_node.37"** %__p.addr, metadata !4559, metadata !DIExpression()), !dbg !4560
  store i64 %__n, i64* %__n.addr, align 8
  call void @llvm.dbg.declare(metadata i64* %__n.addr, metadata !4561, metadata !DIExpression()), !dbg !4562
  %0 = load %"class.std::allocator.30"*, %"class.std::allocator.30"** %__a.addr, align 8, !dbg !4563
  %1 = bitcast %"class.std::allocator.30"* %0 to %"class.__gnu_cxx::new_allocator.31"*, !dbg !4563
  %2 = load %"struct.std::_List_node.37"*, %"struct.std::_List_node.37"** %__p.addr, align 8, !dbg !4564
  %3 = load i64, i64* %__n.addr, align 8, !dbg !4565
  call void @_ZN9__gnu_cxx13new_allocatorISt10_List_nodeIdEE10deallocateEPS2_m(%"class.__gnu_cxx::new_allocator.31"* %1, %"struct.std::_List_node.37"* %2, i64 %3), !dbg !4566
  ret void, !dbg !4567
}

; Function Attrs: noinline nounwind uwtable
define linkonce_odr dso_local void @_ZN9__gnu_cxx13new_allocatorISt10_List_nodeIdEE10deallocateEPS2_m(%"class.__gnu_cxx::new_allocator.31"* %this, %"struct.std::_List_node.37"* %__p, i64 %__t) #1 comdat align 2 !dbg !4568 {
entry:
  %this.addr = alloca %"class.__gnu_cxx::new_allocator.31"*, align 8
  %__p.addr = alloca %"struct.std::_List_node.37"*, align 8
  %__t.addr = alloca i64, align 8
  store %"class.__gnu_cxx::new_allocator.31"* %this, %"class.__gnu_cxx::new_allocator.31"** %this.addr, align 8
  call void @llvm.dbg.declare(metadata %"class.__gnu_cxx::new_allocator.31"** %this.addr, metadata !4569, metadata !DIExpression()), !dbg !4570
  store %"struct.std::_List_node.37"* %__p, %"struct.std::_List_node.37"** %__p.addr, align 8
  call void @llvm.dbg.declare(metadata %"struct.std::_List_node.37"** %__p.addr, metadata !4571, metadata !DIExpression()), !dbg !4572
  store i64 %__t, i64* %__t.addr, align 8
  call void @llvm.dbg.declare(metadata i64* %__t.addr, metadata !4573, metadata !DIExpression()), !dbg !4574
  %this1 = load %"class.__gnu_cxx::new_allocator.31"*, %"class.__gnu_cxx::new_allocator.31"** %this.addr, align 8
  %0 = load %"struct.std::_List_node.37"*, %"struct.std::_List_node.37"** %__p.addr, align 8, !dbg !4575
  %1 = bitcast %"struct.std::_List_node.37"* %0 to i8*, !dbg !4575
  call void @_ZdlPv(i8* %1) #4, !dbg !4576
  ret void, !dbg !4577
}

; Function Attrs: noinline nounwind uwtable
define linkonce_odr dso_local void @_ZNSaISt10_List_nodeIdEED2Ev(%"class.std::allocator.30"* %this) unnamed_addr #1 comdat align 2 !dbg !4578 {
entry:
  %this.addr = alloca %"class.std::allocator.30"*, align 8
  store %"class.std::allocator.30"* %this, %"class.std::allocator.30"** %this.addr, align 8
  call void @llvm.dbg.declare(metadata %"class.std::allocator.30"** %this.addr, metadata !4579, metadata !DIExpression()), !dbg !4581
  %this1 = load %"class.std::allocator.30"*, %"class.std::allocator.30"** %this.addr, align 8
  %0 = bitcast %"class.std::allocator.30"* %this1 to %"class.__gnu_cxx::new_allocator.31"*, !dbg !4582
  call void @_ZN9__gnu_cxx13new_allocatorISt10_List_nodeIdEED2Ev(%"class.__gnu_cxx::new_allocator.31"* %0) #4, !dbg !4582
  ret void, !dbg !4584
}

; Function Attrs: noinline nounwind uwtable
define linkonce_odr dso_local void @_ZN9__gnu_cxx13new_allocatorISt10_List_nodeIdEED2Ev(%"class.__gnu_cxx::new_allocator.31"* %this) unnamed_addr #1 comdat align 2 !dbg !4585 {
entry:
  %this.addr = alloca %"class.__gnu_cxx::new_allocator.31"*, align 8
  store %"class.__gnu_cxx::new_allocator.31"* %this, %"class.__gnu_cxx::new_allocator.31"** %this.addr, align 8
  call void @llvm.dbg.declare(metadata %"class.__gnu_cxx::new_allocator.31"** %this.addr, metadata !4586, metadata !DIExpression()), !dbg !4587
  %this1 = load %"class.__gnu_cxx::new_allocator.31"*, %"class.__gnu_cxx::new_allocator.31"** %this.addr, align 8
  ret void, !dbg !4588
}

; Function Attrs: noinline uwtable
define linkonce_odr dso_local i64 @_ZNKSt7__cxx114listIN6dealii12SmartPointerIN9libparest17PerStepStatisticsEEESaIS5_EE13_M_node_countEv(%"class.std::__cxx11::list"* %this) #0 comdat align 2 !dbg !4589 {
entry:
  %this.addr = alloca %"class.std::__cxx11::list"*, align 8
  store %"class.std::__cxx11::list"* %this, %"class.std::__cxx11::list"** %this.addr, align 8
  call void @llvm.dbg.declare(metadata %"class.std::__cxx11::list"** %this.addr, metadata !4590, metadata !DIExpression()), !dbg !4591
  %this1 = load %"class.std::__cxx11::list"*, %"class.std::__cxx11::list"** %this.addr, align 8
  %0 = bitcast %"class.std::__cxx11::list"* %this1 to %"class.std::__cxx11::_List_base"*, !dbg !4592
  %call = call i64 @_ZNKSt7__cxx1110_List_baseIN6dealii12SmartPointerIN9libparest17PerStepStatisticsEEESaIS5_EE11_M_get_sizeEv(%"class.std::__cxx11::_List_base"* %0), !dbg !4592
  ret i64 %call, !dbg !4593
}

; Function Attrs: noinline nounwind uwtable
define linkonce_odr dso_local i64 @_ZNKSt7__cxx1110_List_baseIN6dealii12SmartPointerIN9libparest17PerStepStatisticsEEESaIS5_EE11_M_get_sizeEv(%"class.std::__cxx11::_List_base"* %this) #1 comdat align 2 !dbg !4594 {
entry:
  %this.addr = alloca %"class.std::__cxx11::_List_base"*, align 8
  store %"class.std::__cxx11::_List_base"* %this, %"class.std::__cxx11::_List_base"** %this.addr, align 8
  call void @llvm.dbg.declare(metadata %"class.std::__cxx11::_List_base"** %this.addr, metadata !4595, metadata !DIExpression()), !dbg !4597
  %this1 = load %"class.std::__cxx11::_List_base"*, %"class.std::__cxx11::_List_base"** %this.addr, align 8
  %_M_impl = getelementptr inbounds %"class.std::__cxx11::_List_base", %"class.std::__cxx11::_List_base"* %this1, i32 0, i32 0, !dbg !4598
  %_M_node = getelementptr inbounds %"struct.std::__cxx11::_List_base<dealii::SmartPointer<libparest::PerStepStatistics>, std::allocator<dealii::SmartPointer<libparest::PerStepStatistics> > >::_List_impl", %"struct.std::__cxx11::_List_base<dealii::SmartPointer<libparest::PerStepStatistics>, std::allocator<dealii::SmartPointer<libparest::PerStepStatistics> > >::_List_impl"* %_M_impl, i32 0, i32 0, !dbg !4599
  %_M_size = getelementptr inbounds %"struct.std::__detail::_List_node_header", %"struct.std::__detail::_List_node_header"* %_M_node, i32 0, i32 1, !dbg !4600
  %0 = load i64, i64* %_M_size, align 8, !dbg !4600
  ret i64 %0, !dbg !4601
}

; Function Attrs: noinline nounwind uwtable
define linkonce_odr dso_local %"struct.std::__detail::_List_node_base"* @_ZNSt7__cxx114listIN6dealii12SmartPointerIN9libparest17PerStepStatisticsEEESaIS5_EE3endEv(%"class.std::__cxx11::list"* %this) #1 comdat align 2 !dbg !4602 {
entry:
  %retval = alloca %"struct.std::_List_iterator.34", align 8
  %this.addr = alloca %"class.std::__cxx11::list"*, align 8
  store %"class.std::__cxx11::list"* %this, %"class.std::__cxx11::list"** %this.addr, align 8
  call void @llvm.dbg.declare(metadata %"class.std::__cxx11::list"** %this.addr, metadata !4603, metadata !DIExpression()), !dbg !4604
  %this1 = load %"class.std::__cxx11::list"*, %"class.std::__cxx11::list"** %this.addr, align 8
  %0 = bitcast %"class.std::__cxx11::list"* %this1 to %"class.std::__cxx11::_List_base"*, !dbg !4605
  %_M_impl = getelementptr inbounds %"class.std::__cxx11::_List_base", %"class.std::__cxx11::_List_base"* %0, i32 0, i32 0, !dbg !4605
  %_M_node = getelementptr inbounds %"struct.std::__cxx11::_List_base<dealii::SmartPointer<libparest::PerStepStatistics>, std::allocator<dealii::SmartPointer<libparest::PerStepStatistics> > >::_List_impl", %"struct.std::__cxx11::_List_base<dealii::SmartPointer<libparest::PerStepStatistics>, std::allocator<dealii::SmartPointer<libparest::PerStepStatistics> > >::_List_impl"* %_M_impl, i32 0, i32 0, !dbg !4606
  %1 = bitcast %"struct.std::__detail::_List_node_header"* %_M_node to %"struct.std::__detail::_List_node_base"*, !dbg !4607
  call void @_ZNSt14_List_iteratorIN6dealii12SmartPointerIN9libparest17PerStepStatisticsEEEEC2EPNSt8__detail15_List_node_baseE(%"struct.std::_List_iterator.34"* %retval, %"struct.std::__detail::_List_node_base"* %1) #4, !dbg !4608
  %coerce.dive = getelementptr inbounds %"struct.std::_List_iterator.34", %"struct.std::_List_iterator.34"* %retval, i32 0, i32 0, !dbg !4609
  %2 = load %"struct.std::__detail::_List_node_base"*, %"struct.std::__detail::_List_node_base"** %coerce.dive, align 8, !dbg !4609
  ret %"struct.std::__detail::_List_node_base"* %2, !dbg !4609
}

; Function Attrs: noinline nounwind uwtable
define linkonce_odr dso_local dereferenceable(8) %"struct.std::_List_iterator.34"* @_ZNSt14_List_iteratorIN6dealii12SmartPointerIN9libparest17PerStepStatisticsEEEEmmEv(%"struct.std::_List_iterator.34"* %this) #1 comdat align 2 !dbg !4610 {
entry:
  %this.addr = alloca %"struct.std::_List_iterator.34"*, align 8
  store %"struct.std::_List_iterator.34"* %this, %"struct.std::_List_iterator.34"** %this.addr, align 8
  call void @llvm.dbg.declare(metadata %"struct.std::_List_iterator.34"** %this.addr, metadata !4611, metadata !DIExpression()), !dbg !4613
  %this1 = load %"struct.std::_List_iterator.34"*, %"struct.std::_List_iterator.34"** %this.addr, align 8
  %_M_node = getelementptr inbounds %"struct.std::_List_iterator.34", %"struct.std::_List_iterator.34"* %this1, i32 0, i32 0, !dbg !4614
  %0 = load %"struct.std::__detail::_List_node_base"*, %"struct.std::__detail::_List_node_base"** %_M_node, align 8, !dbg !4614
  %_M_prev = getelementptr inbounds %"struct.std::__detail::_List_node_base", %"struct.std::__detail::_List_node_base"* %0, i32 0, i32 1, !dbg !4615
  %1 = load %"struct.std::__detail::_List_node_base"*, %"struct.std::__detail::_List_node_base"** %_M_prev, align 8, !dbg !4615
  %_M_node2 = getelementptr inbounds %"struct.std::_List_iterator.34", %"struct.std::_List_iterator.34"* %this1, i32 0, i32 0, !dbg !4616
  store %"struct.std::__detail::_List_node_base"* %1, %"struct.std::__detail::_List_node_base"** %_M_node2, align 8, !dbg !4617
  ret %"struct.std::_List_iterator.34"* %this1, !dbg !4618
}

; Function Attrs: noinline nounwind uwtable
define linkonce_odr dso_local dereferenceable(16) %"class.dealii::SmartPointer"* @_ZNKSt14_List_iteratorIN6dealii12SmartPointerIN9libparest17PerStepStatisticsEEEEdeEv(%"struct.std::_List_iterator.34"* %this) #1 comdat align 2 personality i8* bitcast (i32 (...)* @__gxx_personality_v0 to i8*) !dbg !4619 {
entry:
  %this.addr = alloca %"struct.std::_List_iterator.34"*, align 8
  store %"struct.std::_List_iterator.34"* %this, %"struct.std::_List_iterator.34"** %this.addr, align 8
  call void @llvm.dbg.declare(metadata %"struct.std::_List_iterator.34"** %this.addr, metadata !4620, metadata !DIExpression()), !dbg !4622
  %this1 = load %"struct.std::_List_iterator.34"*, %"struct.std::_List_iterator.34"** %this.addr, align 8
  %_M_node = getelementptr inbounds %"struct.std::_List_iterator.34", %"struct.std::_List_iterator.34"* %this1, i32 0, i32 0, !dbg !4623
  %0 = load %"struct.std::__detail::_List_node_base"*, %"struct.std::__detail::_List_node_base"** %_M_node, align 8, !dbg !4623
  %1 = bitcast %"struct.std::__detail::_List_node_base"* %0 to %"struct.std::_List_node.35"*, !dbg !4624
  %call = invoke %"class.dealii::SmartPointer"* @_ZNSt10_List_nodeIN6dealii12SmartPointerIN9libparest17PerStepStatisticsEEEE9_M_valptrEv(%"struct.std::_List_node.35"* %1)
          to label %invoke.cont unwind label %terminate.lpad, !dbg !4625

invoke.cont:                                      ; preds = %entry
  ret %"class.dealii::SmartPointer"* %call, !dbg !4626

terminate.lpad:                                   ; preds = %entry
  %2 = landingpad { i8*, i32 }
          catch i8* null, !dbg !4625
  %3 = extractvalue { i8*, i32 } %2, 0, !dbg !4625
  call void @__clang_call_terminate(i8* %3) #11, !dbg !4625
  unreachable, !dbg !4625
}

; Function Attrs: noinline nounwind uwtable
define linkonce_odr dso_local void @_ZNSt14_List_iteratorIN6dealii12SmartPointerIN9libparest17PerStepStatisticsEEEEC2EPNSt8__detail15_List_node_baseE(%"struct.std::_List_iterator.34"* %this, %"struct.std::__detail::_List_node_base"* %__x) unnamed_addr #1 comdat align 2 !dbg !4627 {
entry:
  %this.addr = alloca %"struct.std::_List_iterator.34"*, align 8
  %__x.addr = alloca %"struct.std::__detail::_List_node_base"*, align 8
  store %"struct.std::_List_iterator.34"* %this, %"struct.std::_List_iterator.34"** %this.addr, align 8
  call void @llvm.dbg.declare(metadata %"struct.std::_List_iterator.34"** %this.addr, metadata !4628, metadata !DIExpression()), !dbg !4629
  store %"struct.std::__detail::_List_node_base"* %__x, %"struct.std::__detail::_List_node_base"** %__x.addr, align 8
  call void @llvm.dbg.declare(metadata %"struct.std::__detail::_List_node_base"** %__x.addr, metadata !4630, metadata !DIExpression()), !dbg !4631
  %this1 = load %"struct.std::_List_iterator.34"*, %"struct.std::_List_iterator.34"** %this.addr, align 8
  %_M_node = getelementptr inbounds %"struct.std::_List_iterator.34", %"struct.std::_List_iterator.34"* %this1, i32 0, i32 0, !dbg !4632
  %0 = load %"struct.std::__detail::_List_node_base"*, %"struct.std::__detail::_List_node_base"** %__x.addr, align 8, !dbg !4633
  store %"struct.std::__detail::_List_node_base"* %0, %"struct.std::__detail::_List_node_base"** %_M_node, align 8, !dbg !4632
  ret void, !dbg !4634
}

; Function Attrs: noinline uwtable
define linkonce_odr dso_local dereferenceable(16) %"class.dealii::SmartPointer"* @_ZN6dealii12SmartPointerIN9libparest17PerStepStatisticsEEaSEPS2_(%"class.dealii::SmartPointer"* %this, %"class.libparest::PerStepStatistics"* %tt) #0 comdat align 2 !dbg !4635 {
entry:
  %retval = alloca %"class.dealii::SmartPointer"*, align 8
  %this.addr = alloca %"class.dealii::SmartPointer"*, align 8
  %tt.addr = alloca %"class.libparest::PerStepStatistics"*, align 8
  store %"class.dealii::SmartPointer"* %this, %"class.dealii::SmartPointer"** %this.addr, align 8
  call void @llvm.dbg.declare(metadata %"class.dealii::SmartPointer"** %this.addr, metadata !4636, metadata !DIExpression()), !dbg !4637
  store %"class.libparest::PerStepStatistics"* %tt, %"class.libparest::PerStepStatistics"** %tt.addr, align 8
  call void @llvm.dbg.declare(metadata %"class.libparest::PerStepStatistics"** %tt.addr, metadata !4638, metadata !DIExpression()), !dbg !4639
  %this1 = load %"class.dealii::SmartPointer"*, %"class.dealii::SmartPointer"** %this.addr, align 8
  %t = getelementptr inbounds %"class.dealii::SmartPointer", %"class.dealii::SmartPointer"* %this1, i32 0, i32 0, !dbg !4640
  %0 = load %"class.libparest::PerStepStatistics"*, %"class.libparest::PerStepStatistics"** %t, align 8, !dbg !4640
  %1 = load %"class.libparest::PerStepStatistics"*, %"class.libparest::PerStepStatistics"** %tt.addr, align 8, !dbg !4642
  %cmp = icmp eq %"class.libparest::PerStepStatistics"* %0, %1, !dbg !4643
  br i1 %cmp, label %if.then, label %if.end, !dbg !4644

if.then:                                          ; preds = %entry
  store %"class.dealii::SmartPointer"* %this1, %"class.dealii::SmartPointer"** %retval, align 8, !dbg !4645
  br label %return, !dbg !4645

if.end:                                           ; preds = %entry
  %t2 = getelementptr inbounds %"class.dealii::SmartPointer", %"class.dealii::SmartPointer"* %this1, i32 0, i32 0, !dbg !4646
  %2 = load %"class.libparest::PerStepStatistics"*, %"class.libparest::PerStepStatistics"** %t2, align 8, !dbg !4646
  %cmp3 = icmp ne %"class.libparest::PerStepStatistics"* %2, null, !dbg !4648
  br i1 %cmp3, label %if.then4, label %if.end6, !dbg !4649

if.then4:                                         ; preds = %if.end
  %t5 = getelementptr inbounds %"class.dealii::SmartPointer", %"class.dealii::SmartPointer"* %this1, i32 0, i32 0, !dbg !4650
  %3 = load %"class.libparest::PerStepStatistics"*, %"class.libparest::PerStepStatistics"** %t5, align 8, !dbg !4650
  %4 = bitcast %"class.libparest::PerStepStatistics"* %3 to %"class.dealii::Subscriptor"*, !dbg !4651
  %id = getelementptr inbounds %"class.dealii::SmartPointer", %"class.dealii::SmartPointer"* %this1, i32 0, i32 1, !dbg !4652
  %5 = load i8*, i8** %id, align 8, !dbg !4652
  call void @_ZNK6dealii11Subscriptor11unsubscribeEPKc(%"class.dealii::Subscriptor"* %4, i8* %5), !dbg !4651
  br label %if.end6, !dbg !4650

if.end6:                                          ; preds = %if.then4, %if.end
  %6 = load %"class.libparest::PerStepStatistics"*, %"class.libparest::PerStepStatistics"** %tt.addr, align 8, !dbg !4653
  %t7 = getelementptr inbounds %"class.dealii::SmartPointer", %"class.dealii::SmartPointer"* %this1, i32 0, i32 0, !dbg !4654
  store %"class.libparest::PerStepStatistics"* %6, %"class.libparest::PerStepStatistics"** %t7, align 8, !dbg !4655
  %7 = load %"class.libparest::PerStepStatistics"*, %"class.libparest::PerStepStatistics"** %tt.addr, align 8, !dbg !4656
  %cmp8 = icmp ne %"class.libparest::PerStepStatistics"* %7, null, !dbg !4658
  br i1 %cmp8, label %if.then9, label %if.end11, !dbg !4659

if.then9:                                         ; preds = %if.end6
  %8 = load %"class.libparest::PerStepStatistics"*, %"class.libparest::PerStepStatistics"** %tt.addr, align 8, !dbg !4660
  %9 = bitcast %"class.libparest::PerStepStatistics"* %8 to %"class.dealii::Subscriptor"*, !dbg !4661
  %id10 = getelementptr inbounds %"class.dealii::SmartPointer", %"class.dealii::SmartPointer"* %this1, i32 0, i32 1, !dbg !4662
  %10 = load i8*, i8** %id10, align 8, !dbg !4662
  call void @_ZNK6dealii11Subscriptor9subscribeEPKc(%"class.dealii::Subscriptor"* %9, i8* %10), !dbg !4661
  br label %if.end11, !dbg !4660

if.end11:                                         ; preds = %if.then9, %if.end6
  store %"class.dealii::SmartPointer"* %this1, %"class.dealii::SmartPointer"** %retval, align 8, !dbg !4663
  br label %return, !dbg !4663

return:                                           ; preds = %if.end11, %if.then
  %11 = load %"class.dealii::SmartPointer"*, %"class.dealii::SmartPointer"** %retval, align 8, !dbg !4664
  ret %"class.dealii::SmartPointer"* %11, !dbg !4664
}

; Function Attrs: noinline nounwind uwtable
define linkonce_odr dso_local void @_ZNK6dealii11Subscriptor11unsubscribeEPKc(%"class.dealii::Subscriptor"* %this, i8* %0) #1 comdat align 2 !dbg !4665 {
entry:
  %this.addr = alloca %"class.dealii::Subscriptor"*, align 8
  %.addr = alloca i8*, align 8
  store %"class.dealii::Subscriptor"* %this, %"class.dealii::Subscriptor"** %this.addr, align 8
  call void @llvm.dbg.declare(metadata %"class.dealii::Subscriptor"** %this.addr, metadata !4671, metadata !DIExpression()), !dbg !4673
  store i8* %0, i8** %.addr, align 8
  call void @llvm.dbg.declare(metadata i8** %.addr, metadata !4674, metadata !DIExpression()), !dbg !4675
  %this1 = load %"class.dealii::Subscriptor"*, %"class.dealii::Subscriptor"** %this.addr, align 8
  ret void, !dbg !4676
}

; Function Attrs: noinline nounwind uwtable
define linkonce_odr dso_local void @_ZNK6dealii11Subscriptor9subscribeEPKc(%"class.dealii::Subscriptor"* %this, i8* %0) #1 comdat align 2 !dbg !4677 {
entry:
  %this.addr = alloca %"class.dealii::Subscriptor"*, align 8
  %.addr = alloca i8*, align 8
  store %"class.dealii::Subscriptor"* %this, %"class.dealii::Subscriptor"** %this.addr, align 8
  call void @llvm.dbg.declare(metadata %"class.dealii::Subscriptor"** %this.addr, metadata !4679, metadata !DIExpression()), !dbg !4680
  store i8* %0, i8** %.addr, align 8
  call void @llvm.dbg.declare(metadata i8** %.addr, metadata !4681, metadata !DIExpression()), !dbg !4682
  %this1 = load %"class.dealii::Subscriptor"*, %"class.dealii::Subscriptor"** %this.addr, align 8
  ret void, !dbg !4683
}

; Function Attrs: noinline nounwind uwtable
define linkonce_odr dso_local void @_ZNSt7__cxx114listIN6dealii12SmartPointerIN9libparest17PerStepStatisticsEEESaIS5_EE8_M_eraseESt14_List_iteratorIS5_E(%"class.std::__cxx11::list"* %this, %"struct.std::__detail::_List_node_base"* %__position.coerce) #1 comdat align 2 personality i8* bitcast (i32 (...)* @__gxx_personality_v0 to i8*) !dbg !4684 {
entry:
  %__position = alloca %"struct.std::_List_iterator.34", align 8
  %this.addr = alloca %"class.std::__cxx11::list"*, align 8
  %__n = alloca %"struct.std::_List_node.35"*, align 8
  %coerce.dive = getelementptr inbounds %"struct.std::_List_iterator.34", %"struct.std::_List_iterator.34"* %__position, i32 0, i32 0
  store %"struct.std::__detail::_List_node_base"* %__position.coerce, %"struct.std::__detail::_List_node_base"** %coerce.dive, align 8
  store %"class.std::__cxx11::list"* %this, %"class.std::__cxx11::list"** %this.addr, align 8
  call void @llvm.dbg.declare(metadata %"class.std::__cxx11::list"** %this.addr, metadata !4685, metadata !DIExpression()), !dbg !4686
  call void @llvm.dbg.declare(metadata %"struct.std::_List_iterator.34"* %__position, metadata !4687, metadata !DIExpression()), !dbg !4688
  %this1 = load %"class.std::__cxx11::list"*, %"class.std::__cxx11::list"** %this.addr, align 8
  %0 = bitcast %"class.std::__cxx11::list"* %this1 to %"class.std::__cxx11::_List_base"*, !dbg !4689
  invoke void @_ZNSt7__cxx1110_List_baseIN6dealii12SmartPointerIN9libparest17PerStepStatisticsEEESaIS5_EE11_M_dec_sizeEm(%"class.std::__cxx11::_List_base"* %0, i64 1)
          to label %invoke.cont unwind label %terminate.lpad, !dbg !4689

invoke.cont:                                      ; preds = %entry
  %_M_node = getelementptr inbounds %"struct.std::_List_iterator.34", %"struct.std::_List_iterator.34"* %__position, i32 0, i32 0, !dbg !4690
  %1 = load %"struct.std::__detail::_List_node_base"*, %"struct.std::__detail::_List_node_base"** %_M_node, align 8, !dbg !4690
  call void @_ZNSt8__detail15_List_node_base9_M_unhookEv(%"struct.std::__detail::_List_node_base"* %1) #4, !dbg !4691
  call void @llvm.dbg.declare(metadata %"struct.std::_List_node.35"** %__n, metadata !4692, metadata !DIExpression()), !dbg !4693
  %_M_node2 = getelementptr inbounds %"struct.std::_List_iterator.34", %"struct.std::_List_iterator.34"* %__position, i32 0, i32 0, !dbg !4694
  %2 = load %"struct.std::__detail::_List_node_base"*, %"struct.std::__detail::_List_node_base"** %_M_node2, align 8, !dbg !4694
  %3 = bitcast %"struct.std::__detail::_List_node_base"* %2 to %"struct.std::_List_node.35"*, !dbg !4695
  store %"struct.std::_List_node.35"* %3, %"struct.std::_List_node.35"** %__n, align 8, !dbg !4693
  %4 = bitcast %"class.std::__cxx11::list"* %this1 to %"class.std::__cxx11::_List_base"*, !dbg !4696
  %call = call dereferenceable(1) %"class.std::allocator.16"* @_ZNSt7__cxx1110_List_baseIN6dealii12SmartPointerIN9libparest17PerStepStatisticsEEESaIS5_EE21_M_get_Node_allocatorEv(%"class.std::__cxx11::_List_base"* %4) #4, !dbg !4696
  %5 = load %"struct.std::_List_node.35"*, %"struct.std::_List_node.35"** %__n, align 8, !dbg !4697
  %call4 = invoke %"class.dealii::SmartPointer"* @_ZNSt10_List_nodeIN6dealii12SmartPointerIN9libparest17PerStepStatisticsEEEE9_M_valptrEv(%"struct.std::_List_node.35"* %5)
          to label %invoke.cont3 unwind label %terminate.lpad, !dbg !4698

invoke.cont3:                                     ; preds = %invoke.cont
  call void @_ZNSt16allocator_traitsISaISt10_List_nodeIN6dealii12SmartPointerIN9libparest17PerStepStatisticsEEEEEE7destroyIS5_EEvRS7_PT_(%"class.std::allocator.16"* dereferenceable(1) %call, %"class.dealii::SmartPointer"* %call4) #4, !dbg !4699
  %6 = bitcast %"class.std::__cxx11::list"* %this1 to %"class.std::__cxx11::_List_base"*, !dbg !4700
  %7 = load %"struct.std::_List_node.35"*, %"struct.std::_List_node.35"** %__n, align 8, !dbg !4701
  call void @_ZNSt7__cxx1110_List_baseIN6dealii12SmartPointerIN9libparest17PerStepStatisticsEEESaIS5_EE11_M_put_nodeEPSt10_List_nodeIS5_E(%"class.std::__cxx11::_List_base"* %6, %"struct.std::_List_node.35"* %7) #4, !dbg !4700
  ret void, !dbg !4702

terminate.lpad:                                   ; preds = %invoke.cont, %entry
  %8 = landingpad { i8*, i32 }
          catch i8* null, !dbg !4689
  %9 = extractvalue { i8*, i32 } %8, 0, !dbg !4689
  call void @__clang_call_terminate(i8* %9) #11, !dbg !4689
  unreachable, !dbg !4689
}

; Function Attrs: noinline nounwind uwtable
define linkonce_odr dso_local void @_ZNSt7__cxx1110_List_baseIN6dealii12SmartPointerIN9libparest17PerStepStatisticsEEESaIS5_EE11_M_dec_sizeEm(%"class.std::__cxx11::_List_base"* %this, i64 %__n) #1 comdat align 2 !dbg !4703 {
entry:
  %this.addr = alloca %"class.std::__cxx11::_List_base"*, align 8
  %__n.addr = alloca i64, align 8
  store %"class.std::__cxx11::_List_base"* %this, %"class.std::__cxx11::_List_base"** %this.addr, align 8
  call void @llvm.dbg.declare(metadata %"class.std::__cxx11::_List_base"** %this.addr, metadata !4704, metadata !DIExpression()), !dbg !4705
  store i64 %__n, i64* %__n.addr, align 8
  call void @llvm.dbg.declare(metadata i64* %__n.addr, metadata !4706, metadata !DIExpression()), !dbg !4707
  %this1 = load %"class.std::__cxx11::_List_base"*, %"class.std::__cxx11::_List_base"** %this.addr, align 8
  %0 = load i64, i64* %__n.addr, align 8, !dbg !4708
  %_M_impl = getelementptr inbounds %"class.std::__cxx11::_List_base", %"class.std::__cxx11::_List_base"* %this1, i32 0, i32 0, !dbg !4709
  %_M_node = getelementptr inbounds %"struct.std::__cxx11::_List_base<dealii::SmartPointer<libparest::PerStepStatistics>, std::allocator<dealii::SmartPointer<libparest::PerStepStatistics> > >::_List_impl", %"struct.std::__cxx11::_List_base<dealii::SmartPointer<libparest::PerStepStatistics>, std::allocator<dealii::SmartPointer<libparest::PerStepStatistics> > >::_List_impl"* %_M_impl, i32 0, i32 0, !dbg !4710
  %_M_size = getelementptr inbounds %"struct.std::__detail::_List_node_header", %"struct.std::__detail::_List_node_header"* %_M_node, i32 0, i32 1, !dbg !4711
  %1 = load i64, i64* %_M_size, align 8, !dbg !4712
  %sub = sub i64 %1, %0, !dbg !4712
  store i64 %sub, i64* %_M_size, align 8, !dbg !4712
  ret void, !dbg !4713
}

; Function Attrs: nounwind
declare dso_local void @_ZNSt8__detail15_List_node_base9_M_unhookEv(%"struct.std::__detail::_List_node_base"*) #3

; Function Attrs: noinline uwtable
define linkonce_odr dso_local void @_ZNSt7__cxx114listIN6dealii12SmartPointerIN9libparest17PerStepStatisticsEEESaIS5_EE9_M_insertIJS5_EEEvSt14_List_iteratorIS5_EDpOT_(%"class.std::__cxx11::list"* %this, %"struct.std::__detail::_List_node_base"* %__position.coerce, %"class.dealii::SmartPointer"* dereferenceable(16) %__args) #0 comdat align 2 !dbg !4714 {
entry:
  %__position = alloca %"struct.std::_List_iterator.34", align 8
  %this.addr = alloca %"class.std::__cxx11::list"*, align 8
  %__args.addr = alloca %"class.dealii::SmartPointer"*, align 8
  %__tmp = alloca %"struct.std::_List_node.35"*, align 8
  %coerce.dive = getelementptr inbounds %"struct.std::_List_iterator.34", %"struct.std::_List_iterator.34"* %__position, i32 0, i32 0
  store %"struct.std::__detail::_List_node_base"* %__position.coerce, %"struct.std::__detail::_List_node_base"** %coerce.dive, align 8
  store %"class.std::__cxx11::list"* %this, %"class.std::__cxx11::list"** %this.addr, align 8
  call void @llvm.dbg.declare(metadata %"class.std::__cxx11::list"** %this.addr, metadata !4722, metadata !DIExpression()), !dbg !4723
  call void @llvm.dbg.declare(metadata %"struct.std::_List_iterator.34"* %__position, metadata !4724, metadata !DIExpression()), !dbg !4725
  store %"class.dealii::SmartPointer"* %__args, %"class.dealii::SmartPointer"** %__args.addr, align 8
  call void @llvm.dbg.declare(metadata %"class.dealii::SmartPointer"** %__args.addr, metadata !4726, metadata !DIExpression()), !dbg !4727
  %this1 = load %"class.std::__cxx11::list"*, %"class.std::__cxx11::list"** %this.addr, align 8
  call void @llvm.dbg.declare(metadata %"struct.std::_List_node.35"** %__tmp, metadata !4728, metadata !DIExpression()), !dbg !4729
  %0 = load %"class.dealii::SmartPointer"*, %"class.dealii::SmartPointer"** %__args.addr, align 8, !dbg !4730
  %call = call dereferenceable(16) %"class.dealii::SmartPointer"* @_ZSt7forwardIN6dealii12SmartPointerIN9libparest17PerStepStatisticsEEEEOT_RNSt16remove_referenceIS5_E4typeE(%"class.dealii::SmartPointer"* dereferenceable(16) %0) #4, !dbg !4731
  %call2 = call %"struct.std::_List_node.35"* @_ZNSt7__cxx114listIN6dealii12SmartPointerIN9libparest17PerStepStatisticsEEESaIS5_EE14_M_create_nodeIJS5_EEEPSt10_List_nodeIS5_EDpOT_(%"class.std::__cxx11::list"* %this1, %"class.dealii::SmartPointer"* dereferenceable(16) %call), !dbg !4732
  store %"struct.std::_List_node.35"* %call2, %"struct.std::_List_node.35"** %__tmp, align 8, !dbg !4729
  %1 = load %"struct.std::_List_node.35"*, %"struct.std::_List_node.35"** %__tmp, align 8, !dbg !4733
  %2 = bitcast %"struct.std::_List_node.35"* %1 to %"struct.std::__detail::_List_node_base"*, !dbg !4734
  %_M_node = getelementptr inbounds %"struct.std::_List_iterator.34", %"struct.std::_List_iterator.34"* %__position, i32 0, i32 0, !dbg !4735
  %3 = load %"struct.std::__detail::_List_node_base"*, %"struct.std::__detail::_List_node_base"** %_M_node, align 8, !dbg !4735
  call void @_ZNSt8__detail15_List_node_base7_M_hookEPS0_(%"struct.std::__detail::_List_node_base"* %2, %"struct.std::__detail::_List_node_base"* %3) #4, !dbg !4734
  %4 = bitcast %"class.std::__cxx11::list"* %this1 to %"class.std::__cxx11::_List_base"*, !dbg !4736
  call void @_ZNSt7__cxx1110_List_baseIN6dealii12SmartPointerIN9libparest17PerStepStatisticsEEESaIS5_EE11_M_inc_sizeEm(%"class.std::__cxx11::_List_base"* %4, i64 1), !dbg !4736
  ret void, !dbg !4737
}

; Function Attrs: noinline nounwind uwtable
define linkonce_odr dso_local dereferenceable(16) %"class.dealii::SmartPointer"* @_ZSt4moveIRN6dealii12SmartPointerIN9libparest17PerStepStatisticsEEEEONSt16remove_referenceIT_E4typeEOS7_(%"class.dealii::SmartPointer"* dereferenceable(16) %__t) #1 comdat !dbg !4738 {
entry:
  %__t.addr = alloca %"class.dealii::SmartPointer"*, align 8
  store %"class.dealii::SmartPointer"* %__t, %"class.dealii::SmartPointer"** %__t.addr, align 8
  call void @llvm.dbg.declare(metadata %"class.dealii::SmartPointer"** %__t.addr, metadata !4747, metadata !DIExpression()), !dbg !4748
  %0 = load %"class.dealii::SmartPointer"*, %"class.dealii::SmartPointer"** %__t.addr, align 8, !dbg !4749
  ret %"class.dealii::SmartPointer"* %0, !dbg !4750
}

; Function Attrs: noinline uwtable
define linkonce_odr dso_local %"struct.std::_List_node.35"* @_ZNSt7__cxx114listIN6dealii12SmartPointerIN9libparest17PerStepStatisticsEEESaIS5_EE14_M_create_nodeIJS5_EEEPSt10_List_nodeIS5_EDpOT_(%"class.std::__cxx11::list"* %this, %"class.dealii::SmartPointer"* dereferenceable(16) %__args) #0 comdat align 2 personality i8* bitcast (i32 (...)* @__gxx_personality_v0 to i8*) !dbg !4751 {
entry:
  %this.addr = alloca %"class.std::__cxx11::list"*, align 8
  %__args.addr = alloca %"class.dealii::SmartPointer"*, align 8
  %__p = alloca %"struct.std::_List_node.35"*, align 8
  %__alloc = alloca %"class.std::allocator.16"*, align 8
  %__guard = alloca %"struct.std::__allocated_ptr", align 8
  %exn.slot = alloca i8*
  %ehselector.slot = alloca i32
  store %"class.std::__cxx11::list"* %this, %"class.std::__cxx11::list"** %this.addr, align 8
  call void @llvm.dbg.declare(metadata %"class.std::__cxx11::list"** %this.addr, metadata !4755, metadata !DIExpression()), !dbg !4756
  store %"class.dealii::SmartPointer"* %__args, %"class.dealii::SmartPointer"** %__args.addr, align 8
  call void @llvm.dbg.declare(metadata %"class.dealii::SmartPointer"** %__args.addr, metadata !4757, metadata !DIExpression()), !dbg !4758
  %this1 = load %"class.std::__cxx11::list"*, %"class.std::__cxx11::list"** %this.addr, align 8
  call void @llvm.dbg.declare(metadata %"struct.std::_List_node.35"** %__p, metadata !4759, metadata !DIExpression()), !dbg !4760
  %0 = bitcast %"class.std::__cxx11::list"* %this1 to %"class.std::__cxx11::_List_base"*, !dbg !4761
  %call = call %"struct.std::_List_node.35"* @_ZNSt7__cxx1110_List_baseIN6dealii12SmartPointerIN9libparest17PerStepStatisticsEEESaIS5_EE11_M_get_nodeEv(%"class.std::__cxx11::_List_base"* %0), !dbg !4761
  store %"struct.std::_List_node.35"* %call, %"struct.std::_List_node.35"** %__p, align 8, !dbg !4760
  call void @llvm.dbg.declare(metadata %"class.std::allocator.16"** %__alloc, metadata !4762, metadata !DIExpression()), !dbg !4763
  %1 = bitcast %"class.std::__cxx11::list"* %this1 to %"class.std::__cxx11::_List_base"*, !dbg !4764
  %call2 = call dereferenceable(1) %"class.std::allocator.16"* @_ZNSt7__cxx1110_List_baseIN6dealii12SmartPointerIN9libparest17PerStepStatisticsEEESaIS5_EE21_M_get_Node_allocatorEv(%"class.std::__cxx11::_List_base"* %1) #4, !dbg !4764
  store %"class.std::allocator.16"* %call2, %"class.std::allocator.16"** %__alloc, align 8, !dbg !4763
  call void @llvm.dbg.declare(metadata %"struct.std::__allocated_ptr"* %__guard, metadata !4765, metadata !DIExpression()), !dbg !4793
  %2 = load %"class.std::allocator.16"*, %"class.std::allocator.16"** %__alloc, align 8, !dbg !4794
  %3 = load %"struct.std::_List_node.35"*, %"struct.std::_List_node.35"** %__p, align 8, !dbg !4795
  call void @_ZNSt15__allocated_ptrISaISt10_List_nodeIN6dealii12SmartPointerIN9libparest17PerStepStatisticsEEEEEEC2ERS7_PS6_(%"struct.std::__allocated_ptr"* %__guard, %"class.std::allocator.16"* dereferenceable(1) %2, %"struct.std::_List_node.35"* %3) #4, !dbg !4793
  %4 = load %"class.std::allocator.16"*, %"class.std::allocator.16"** %__alloc, align 8, !dbg !4796
  %5 = load %"struct.std::_List_node.35"*, %"struct.std::_List_node.35"** %__p, align 8, !dbg !4797
  %call3 = invoke %"class.dealii::SmartPointer"* @_ZNSt10_List_nodeIN6dealii12SmartPointerIN9libparest17PerStepStatisticsEEEE9_M_valptrEv(%"struct.std::_List_node.35"* %5)
          to label %invoke.cont unwind label %lpad, !dbg !4798

invoke.cont:                                      ; preds = %entry
  %6 = load %"class.dealii::SmartPointer"*, %"class.dealii::SmartPointer"** %__args.addr, align 8, !dbg !4799
  %call4 = call dereferenceable(16) %"class.dealii::SmartPointer"* @_ZSt7forwardIN6dealii12SmartPointerIN9libparest17PerStepStatisticsEEEEOT_RNSt16remove_referenceIS5_E4typeE(%"class.dealii::SmartPointer"* dereferenceable(16) %6) #4, !dbg !4800
  invoke void @_ZNSt16allocator_traitsISaISt10_List_nodeIN6dealii12SmartPointerIN9libparest17PerStepStatisticsEEEEEE9constructIS5_JS5_EEEvRS7_PT_DpOT0_(%"class.std::allocator.16"* dereferenceable(1) %4, %"class.dealii::SmartPointer"* %call3, %"class.dealii::SmartPointer"* dereferenceable(16) %call4)
          to label %invoke.cont5 unwind label %lpad, !dbg !4801

invoke.cont5:                                     ; preds = %invoke.cont
  %call6 = call dereferenceable(16) %"struct.std::__allocated_ptr"* @_ZNSt15__allocated_ptrISaISt10_List_nodeIN6dealii12SmartPointerIN9libparest17PerStepStatisticsEEEEEEaSEDn(%"struct.std::__allocated_ptr"* %__guard, i8* null) #4, !dbg !4802
  %7 = load %"struct.std::_List_node.35"*, %"struct.std::_List_node.35"** %__p, align 8, !dbg !4803
  call void @_ZNSt15__allocated_ptrISaISt10_List_nodeIN6dealii12SmartPointerIN9libparest17PerStepStatisticsEEEEEED2Ev(%"struct.std::__allocated_ptr"* %__guard) #4, !dbg !4804
  ret %"struct.std::_List_node.35"* %7, !dbg !4804

lpad:                                             ; preds = %invoke.cont, %entry
  %8 = landingpad { i8*, i32 }
          cleanup, !dbg !4804
  %9 = extractvalue { i8*, i32 } %8, 0, !dbg !4804
  store i8* %9, i8** %exn.slot, align 8, !dbg !4804
  %10 = extractvalue { i8*, i32 } %8, 1, !dbg !4804
  store i32 %10, i32* %ehselector.slot, align 4, !dbg !4804
  call void @_ZNSt15__allocated_ptrISaISt10_List_nodeIN6dealii12SmartPointerIN9libparest17PerStepStatisticsEEEEEED2Ev(%"struct.std::__allocated_ptr"* %__guard) #4, !dbg !4804
  br label %eh.resume, !dbg !4804

eh.resume:                                        ; preds = %lpad
  %exn = load i8*, i8** %exn.slot, align 8, !dbg !4804
  %sel = load i32, i32* %ehselector.slot, align 4, !dbg !4804
  %lpad.val = insertvalue { i8*, i32 } undef, i8* %exn, 0, !dbg !4804
  %lpad.val7 = insertvalue { i8*, i32 } %lpad.val, i32 %sel, 1, !dbg !4804
  resume { i8*, i32 } %lpad.val7, !dbg !4804
}

; Function Attrs: noinline nounwind uwtable
define linkonce_odr dso_local dereferenceable(16) %"class.dealii::SmartPointer"* @_ZSt7forwardIN6dealii12SmartPointerIN9libparest17PerStepStatisticsEEEEOT_RNSt16remove_referenceIS5_E4typeE(%"class.dealii::SmartPointer"* dereferenceable(16) %__t) #1 comdat !dbg !4805 {
entry:
  %__t.addr = alloca %"class.dealii::SmartPointer"*, align 8
  store %"class.dealii::SmartPointer"* %__t, %"class.dealii::SmartPointer"** %__t.addr, align 8
  call void @llvm.dbg.declare(metadata %"class.dealii::SmartPointer"** %__t.addr, metadata !4811, metadata !DIExpression()), !dbg !4812
  %0 = load %"class.dealii::SmartPointer"*, %"class.dealii::SmartPointer"** %__t.addr, align 8, !dbg !4813
  ret %"class.dealii::SmartPointer"* %0, !dbg !4814
}

; Function Attrs: nounwind
declare dso_local void @_ZNSt8__detail15_List_node_base7_M_hookEPS0_(%"struct.std::__detail::_List_node_base"*, %"struct.std::__detail::_List_node_base"*) #3

; Function Attrs: noinline nounwind uwtable
define linkonce_odr dso_local void @_ZNSt7__cxx1110_List_baseIN6dealii12SmartPointerIN9libparest17PerStepStatisticsEEESaIS5_EE11_M_inc_sizeEm(%"class.std::__cxx11::_List_base"* %this, i64 %__n) #1 comdat align 2 !dbg !4815 {
entry:
  %this.addr = alloca %"class.std::__cxx11::_List_base"*, align 8
  %__n.addr = alloca i64, align 8
  store %"class.std::__cxx11::_List_base"* %this, %"class.std::__cxx11::_List_base"** %this.addr, align 8
  call void @llvm.dbg.declare(metadata %"class.std::__cxx11::_List_base"** %this.addr, metadata !4816, metadata !DIExpression()), !dbg !4817
  store i64 %__n, i64* %__n.addr, align 8
  call void @llvm.dbg.declare(metadata i64* %__n.addr, metadata !4818, metadata !DIExpression()), !dbg !4819
  %this1 = load %"class.std::__cxx11::_List_base"*, %"class.std::__cxx11::_List_base"** %this.addr, align 8
  %0 = load i64, i64* %__n.addr, align 8, !dbg !4820
  %_M_impl = getelementptr inbounds %"class.std::__cxx11::_List_base", %"class.std::__cxx11::_List_base"* %this1, i32 0, i32 0, !dbg !4821
  %_M_node = getelementptr inbounds %"struct.std::__cxx11::_List_base<dealii::SmartPointer<libparest::PerStepStatistics>, std::allocator<dealii::SmartPointer<libparest::PerStepStatistics> > >::_List_impl", %"struct.std::__cxx11::_List_base<dealii::SmartPointer<libparest::PerStepStatistics>, std::allocator<dealii::SmartPointer<libparest::PerStepStatistics> > >::_List_impl"* %_M_impl, i32 0, i32 0, !dbg !4822
  %_M_size = getelementptr inbounds %"struct.std::__detail::_List_node_header", %"struct.std::__detail::_List_node_header"* %_M_node, i32 0, i32 1, !dbg !4823
  %1 = load i64, i64* %_M_size, align 8, !dbg !4824
  %add = add i64 %1, %0, !dbg !4824
  store i64 %add, i64* %_M_size, align 8, !dbg !4824
  ret void, !dbg !4825
}

; Function Attrs: noinline uwtable
define linkonce_odr dso_local %"struct.std::_List_node.35"* @_ZNSt7__cxx1110_List_baseIN6dealii12SmartPointerIN9libparest17PerStepStatisticsEEESaIS5_EE11_M_get_nodeEv(%"class.std::__cxx11::_List_base"* %this) #0 comdat align 2 !dbg !4826 {
entry:
  %this.addr = alloca %"class.std::__cxx11::_List_base"*, align 8
  store %"class.std::__cxx11::_List_base"* %this, %"class.std::__cxx11::_List_base"** %this.addr, align 8
  call void @llvm.dbg.declare(metadata %"class.std::__cxx11::_List_base"** %this.addr, metadata !4827, metadata !DIExpression()), !dbg !4828
  %this1 = load %"class.std::__cxx11::_List_base"*, %"class.std::__cxx11::_List_base"** %this.addr, align 8
  %_M_impl = getelementptr inbounds %"class.std::__cxx11::_List_base", %"class.std::__cxx11::_List_base"* %this1, i32 0, i32 0, !dbg !4829
  %0 = bitcast %"struct.std::__cxx11::_List_base<dealii::SmartPointer<libparest::PerStepStatistics>, std::allocator<dealii::SmartPointer<libparest::PerStepStatistics> > >::_List_impl"* %_M_impl to %"class.std::allocator.16"*, !dbg !4829
  %call = call %"struct.std::_List_node.35"* @_ZNSt16allocator_traitsISaISt10_List_nodeIN6dealii12SmartPointerIN9libparest17PerStepStatisticsEEEEEE8allocateERS7_m(%"class.std::allocator.16"* dereferenceable(1) %0, i64 1), !dbg !4830
  ret %"struct.std::_List_node.35"* %call, !dbg !4831
}

; Function Attrs: noinline nounwind uwtable
define linkonce_odr dso_local void @_ZNSt15__allocated_ptrISaISt10_List_nodeIN6dealii12SmartPointerIN9libparest17PerStepStatisticsEEEEEEC2ERS7_PS6_(%"struct.std::__allocated_ptr"* %this, %"class.std::allocator.16"* dereferenceable(1) %__a, %"struct.std::_List_node.35"* %__ptr) unnamed_addr #1 comdat align 2 !dbg !4832 {
entry:
  %this.addr = alloca %"struct.std::__allocated_ptr"*, align 8
  %__a.addr = alloca %"class.std::allocator.16"*, align 8
  %__ptr.addr = alloca %"struct.std::_List_node.35"*, align 8
  store %"struct.std::__allocated_ptr"* %this, %"struct.std::__allocated_ptr"** %this.addr, align 8
  call void @llvm.dbg.declare(metadata %"struct.std::__allocated_ptr"** %this.addr, metadata !4833, metadata !DIExpression()), !dbg !4835
  store %"class.std::allocator.16"* %__a, %"class.std::allocator.16"** %__a.addr, align 8
  call void @llvm.dbg.declare(metadata %"class.std::allocator.16"** %__a.addr, metadata !4836, metadata !DIExpression()), !dbg !4837
  store %"struct.std::_List_node.35"* %__ptr, %"struct.std::_List_node.35"** %__ptr.addr, align 8
  call void @llvm.dbg.declare(metadata %"struct.std::_List_node.35"** %__ptr.addr, metadata !4838, metadata !DIExpression()), !dbg !4839
  %this1 = load %"struct.std::__allocated_ptr"*, %"struct.std::__allocated_ptr"** %this.addr, align 8
  %_M_alloc = getelementptr inbounds %"struct.std::__allocated_ptr", %"struct.std::__allocated_ptr"* %this1, i32 0, i32 0, !dbg !4840
  %0 = load %"class.std::allocator.16"*, %"class.std::allocator.16"** %__a.addr, align 8, !dbg !4841
  %call = call %"class.std::allocator.16"* @_ZSt11__addressofISaISt10_List_nodeIN6dealii12SmartPointerIN9libparest17PerStepStatisticsEEEEEEPT_RS8_(%"class.std::allocator.16"* dereferenceable(1) %0) #4, !dbg !4842
  store %"class.std::allocator.16"* %call, %"class.std::allocator.16"** %_M_alloc, align 8, !dbg !4840
  %_M_ptr = getelementptr inbounds %"struct.std::__allocated_ptr", %"struct.std::__allocated_ptr"* %this1, i32 0, i32 1, !dbg !4843
  %1 = load %"struct.std::_List_node.35"*, %"struct.std::_List_node.35"** %__ptr.addr, align 8, !dbg !4844
  store %"struct.std::_List_node.35"* %1, %"struct.std::_List_node.35"** %_M_ptr, align 8, !dbg !4843
  ret void, !dbg !4845
}

; Function Attrs: noinline uwtable
define linkonce_odr dso_local void @_ZNSt16allocator_traitsISaISt10_List_nodeIN6dealii12SmartPointerIN9libparest17PerStepStatisticsEEEEEE9constructIS5_JS5_EEEvRS7_PT_DpOT0_(%"class.std::allocator.16"* dereferenceable(1) %__a, %"class.dealii::SmartPointer"* %__p, %"class.dealii::SmartPointer"* dereferenceable(16) %__args) #0 comdat align 2 !dbg !4846 {
entry:
  %__a.addr = alloca %"class.std::allocator.16"*, align 8
  %__p.addr = alloca %"class.dealii::SmartPointer"*, align 8
  %__args.addr = alloca %"class.dealii::SmartPointer"*, align 8
  store %"class.std::allocator.16"* %__a, %"class.std::allocator.16"** %__a.addr, align 8
  call void @llvm.dbg.declare(metadata %"class.std::allocator.16"** %__a.addr, metadata !4851, metadata !DIExpression()), !dbg !4852
  store %"class.dealii::SmartPointer"* %__p, %"class.dealii::SmartPointer"** %__p.addr, align 8
  call void @llvm.dbg.declare(metadata %"class.dealii::SmartPointer"** %__p.addr, metadata !4853, metadata !DIExpression()), !dbg !4854
  store %"class.dealii::SmartPointer"* %__args, %"class.dealii::SmartPointer"** %__args.addr, align 8
  call void @llvm.dbg.declare(metadata %"class.dealii::SmartPointer"** %__args.addr, metadata !4855, metadata !DIExpression()), !dbg !4856
  %0 = load %"class.std::allocator.16"*, %"class.std::allocator.16"** %__a.addr, align 8, !dbg !4857
  %1 = bitcast %"class.std::allocator.16"* %0 to %"class.__gnu_cxx::new_allocator.17"*, !dbg !4857
  %2 = load %"class.dealii::SmartPointer"*, %"class.dealii::SmartPointer"** %__p.addr, align 8, !dbg !4858
  %3 = load %"class.dealii::SmartPointer"*, %"class.dealii::SmartPointer"** %__args.addr, align 8, !dbg !4859
  %call = call dereferenceable(16) %"class.dealii::SmartPointer"* @_ZSt7forwardIN6dealii12SmartPointerIN9libparest17PerStepStatisticsEEEEOT_RNSt16remove_referenceIS5_E4typeE(%"class.dealii::SmartPointer"* dereferenceable(16) %3) #4, !dbg !4860
  call void @_ZN9__gnu_cxx13new_allocatorISt10_List_nodeIN6dealii12SmartPointerIN9libparest17PerStepStatisticsEEEEE9constructIS6_JS6_EEEvPT_DpOT0_(%"class.__gnu_cxx::new_allocator.17"* %1, %"class.dealii::SmartPointer"* %2, %"class.dealii::SmartPointer"* dereferenceable(16) %call), !dbg !4861
  ret void, !dbg !4862
}

; Function Attrs: noinline nounwind uwtable
define linkonce_odr dso_local dereferenceable(16) %"struct.std::__allocated_ptr"* @_ZNSt15__allocated_ptrISaISt10_List_nodeIN6dealii12SmartPointerIN9libparest17PerStepStatisticsEEEEEEaSEDn(%"struct.std::__allocated_ptr"* %this, i8* %0) #1 comdat align 2 !dbg !4863 {
entry:
  %this.addr = alloca %"struct.std::__allocated_ptr"*, align 8
  %.addr = alloca i8*, align 8
  store %"struct.std::__allocated_ptr"* %this, %"struct.std::__allocated_ptr"** %this.addr, align 8
  call void @llvm.dbg.declare(metadata %"struct.std::__allocated_ptr"** %this.addr, metadata !4864, metadata !DIExpression()), !dbg !4865
  store i8* %0, i8** %.addr, align 8
  call void @llvm.dbg.declare(metadata i8** %.addr, metadata !4866, metadata !DIExpression()), !dbg !4867
  %this1 = load %"struct.std::__allocated_ptr"*, %"struct.std::__allocated_ptr"** %this.addr, align 8
  %_M_ptr = getelementptr inbounds %"struct.std::__allocated_ptr", %"struct.std::__allocated_ptr"* %this1, i32 0, i32 1, !dbg !4868
  store %"struct.std::_List_node.35"* null, %"struct.std::_List_node.35"** %_M_ptr, align 8, !dbg !4869
  ret %"struct.std::__allocated_ptr"* %this1, !dbg !4870
}

; Function Attrs: noinline nounwind uwtable
define linkonce_odr dso_local void @_ZNSt15__allocated_ptrISaISt10_List_nodeIN6dealii12SmartPointerIN9libparest17PerStepStatisticsEEEEEED2Ev(%"struct.std::__allocated_ptr"* %this) unnamed_addr #1 comdat align 2 personality i8* bitcast (i32 (...)* @__gxx_personality_v0 to i8*) !dbg !4871 {
entry:
  %this.addr = alloca %"struct.std::__allocated_ptr"*, align 8
  store %"struct.std::__allocated_ptr"* %this, %"struct.std::__allocated_ptr"** %this.addr, align 8
  call void @llvm.dbg.declare(metadata %"struct.std::__allocated_ptr"** %this.addr, metadata !4872, metadata !DIExpression()), !dbg !4873
  %this1 = load %"struct.std::__allocated_ptr"*, %"struct.std::__allocated_ptr"** %this.addr, align 8
  %_M_ptr = getelementptr inbounds %"struct.std::__allocated_ptr", %"struct.std::__allocated_ptr"* %this1, i32 0, i32 1, !dbg !4874
  %0 = load %"struct.std::_List_node.35"*, %"struct.std::_List_node.35"** %_M_ptr, align 8, !dbg !4874
  %cmp = icmp ne %"struct.std::_List_node.35"* %0, null, !dbg !4877
  br i1 %cmp, label %if.then, label %if.end, !dbg !4878

if.then:                                          ; preds = %entry
  %_M_alloc = getelementptr inbounds %"struct.std::__allocated_ptr", %"struct.std::__allocated_ptr"* %this1, i32 0, i32 0, !dbg !4879
  %1 = load %"class.std::allocator.16"*, %"class.std::allocator.16"** %_M_alloc, align 8, !dbg !4879
  %_M_ptr2 = getelementptr inbounds %"struct.std::__allocated_ptr", %"struct.std::__allocated_ptr"* %this1, i32 0, i32 1, !dbg !4880
  %2 = load %"struct.std::_List_node.35"*, %"struct.std::_List_node.35"** %_M_ptr2, align 8, !dbg !4880
  invoke void @_ZNSt16allocator_traitsISaISt10_List_nodeIN6dealii12SmartPointerIN9libparest17PerStepStatisticsEEEEEE10deallocateERS7_PS6_m(%"class.std::allocator.16"* dereferenceable(1) %1, %"struct.std::_List_node.35"* %2, i64 1)
          to label %invoke.cont unwind label %terminate.lpad, !dbg !4881

invoke.cont:                                      ; preds = %if.then
  br label %if.end, !dbg !4881

if.end:                                           ; preds = %invoke.cont, %entry
  ret void, !dbg !4882

terminate.lpad:                                   ; preds = %if.then
  %3 = landingpad { i8*, i32 }
          catch i8* null, !dbg !4881
  %4 = extractvalue { i8*, i32 } %3, 0, !dbg !4881
  call void @__clang_call_terminate(i8* %4) #11, !dbg !4881
  unreachable, !dbg !4881
}

; Function Attrs: noinline uwtable
