; ModuleID = 'source/lac/lapack_full_matrix.cc'
source_filename = "source/lac/lapack_full_matrix.cc"
target datalayout = "e-m:e-p270:32:32-p271:32:32-p272:64:64-i64:64-f80:128-n8:16:32:64-S128"
target triple = "x86_64-unknown-linux-gnu"

%"struct.boost::arg" = type { i8 }
%"struct.boost::arg.0" = type { i8 }
%"struct.boost::arg.2" = type { i8 }
%"struct.boost::arg.4" = type { i8 }
%"struct.boost::arg.6" = type { i8 }
%"struct.boost::arg.8" = type { i8 }
%"struct.boost::arg.10" = type { i8 }
%"struct.boost::arg.12" = type { i8 }
%"struct.boost::arg.14" = type { i8 }
%"class.std::ios_base::Init" = type { i8 }
%"class.dealii::LAPACKFullMatrix" = type { %"class.dealii::TransposeTable.base", i32, i32, %"class.std::vector", %"class.std::vector.19", %"class.std::vector", %"class.std::vector", %"class.std::vector", %"class.std::vector", %"class.std::vector" }
%"class.dealii::TransposeTable.base" = type { %"class.dealii::TableBase.base" }
%"class.dealii::TableBase.base" = type <{ %"class.dealii::Subscriptor", double*, i32, %"class.dealii::TableIndices" }>
%"class.dealii::Subscriptor" = type { i32 (...)**, i32, %"class.std::map", %"class.std::type_info"* }
%"class.std::map" = type { %"class.std::_Rb_tree" }
%"class.std::_Rb_tree" = type { %"struct.std::_Rb_tree<const char *, std::pair<const char *const, unsigned int>, std::_Select1st<std::pair<const char *const, unsigned int> >, std::less<const char *>, std::allocator<std::pair<const char *const, unsigned int> > >::_Rb_tree_impl" }
%"struct.std::_Rb_tree<const char *, std::pair<const char *const, unsigned int>, std::_Select1st<std::pair<const char *const, unsigned int> >, std::less<const char *>, std::allocator<std::pair<const char *const, unsigned int> > >::_Rb_tree_impl" = type { %"struct.std::_Rb_tree_key_compare", %"struct.std::_Rb_tree_header" }
%"struct.std::_Rb_tree_key_compare" = type { %"struct.std::less" }
%"struct.std::less" = type { i8 }
%"struct.std::_Rb_tree_header" = type { %"struct.std::_Rb_tree_node_base", i64 }
%"struct.std::_Rb_tree_node_base" = type { i32, %"struct.std::_Rb_tree_node_base"*, %"struct.std::_Rb_tree_node_base"*, %"struct.std::_Rb_tree_node_base"* }
%"class.std::type_info" = type { i32 (...)**, i8* }
%"class.dealii::TableIndices" = type { %"class.dealii::TableIndicesBase" }
%"class.dealii::TableIndicesBase" = type { [2 x i32] }
%"class.std::vector.19" = type { %"struct.std::_Vector_base.20" }
%"struct.std::_Vector_base.20" = type { %"struct.std::_Vector_base<int, std::allocator<int> >::_Vector_impl" }
%"struct.std::_Vector_base<int, std::allocator<int> >::_Vector_impl" = type { %"struct.std::_Vector_base<int, std::allocator<int> >::_Vector_impl_data" }
%"struct.std::_Vector_base<int, std::allocator<int> >::_Vector_impl_data" = type { i32*, i32*, i32* }
%"class.std::vector" = type { %"struct.std::_Vector_base" }
%"struct.std::_Vector_base" = type { %"struct.std::_Vector_base<double, std::allocator<double> >::_Vector_impl" }
%"struct.std::_Vector_base<double, std::allocator<double> >::_Vector_impl" = type { %"struct.std::_Vector_base<double, std::allocator<double> >::_Vector_impl_data" }
%"struct.std::_Vector_base<double, std::allocator<double> >::_Vector_impl_data" = type { double*, double*, double* }
%"class.dealii::LAPACKFullMatrix.30" = type { %"class.dealii::TransposeTable.base.32", i32, i32, %"class.std::vector.33", %"class.std::vector.19", %"class.std::vector.33", %"class.std::vector.33", %"class.std::vector.33", %"class.std::vector.33", %"class.std::vector.33" }
%"class.dealii::TransposeTable.base.32" = type { %"class.dealii::TableBase.base.27" }
%"class.dealii::TableBase.base.27" = type <{ %"class.dealii::Subscriptor", float*, i32, %"class.dealii::TableIndices" }>
%"class.std::vector.33" = type { %"struct.std::_Vector_base.34" }
%"struct.std::_Vector_base.34" = type { %"struct.std::_Vector_base<float, std::allocator<float> >::_Vector_impl" }
%"struct.std::_Vector_base<float, std::allocator<float> >::_Vector_impl" = type { %"struct.std::_Vector_base<float, std::allocator<float> >::_Vector_impl_data" }
%"struct.std::_Vector_base<float, std::allocator<float> >::_Vector_impl_data" = type { float*, float*, float* }
%"class.dealii::TransposeTable" = type { %"class.dealii::TableBase.base", [4 x i8] }
%"class.dealii::TableBase" = type <{ %"class.dealii::Subscriptor", double*, i32, %"class.dealii::TableIndices", [4 x i8] }>
%"struct.std::random_access_iterator_tag" = type { i8 }
%"class.dealii::Vector" = type { %"class.dealii::Subscriptor", i32, i32, double* }
%"struct.std::complex" = type { { double, double } }
%"class.std::basic_ostream" = type { i32 (...)**, %"class.std::basic_ios" }
%"class.std::basic_ios" = type { %"class.std::ios_base", %"class.std::basic_ostream"*, i8, i8, %"class.std::basic_streambuf"*, %"class.std::ctype"*, %"class.std::num_put"*, %"class.std::num_get"* }
%"class.std::ios_base" = type { i32 (...)**, i64, i64, i32, i32, i32, %"struct.std::ios_base::_Callback_list"*, %"struct.std::ios_base::_Words", [8 x %"struct.std::ios_base::_Words"], i32, %"struct.std::ios_base::_Words"*, %"class.std::locale" }
%"struct.std::ios_base::_Callback_list" = type { %"struct.std::ios_base::_Callback_list"*, void (i32, %"class.std::ios_base"*, i32)*, i32, i32 }
%"struct.std::ios_base::_Words" = type { i8*, i64 }
%"class.std::locale" = type { %"class.std::locale::_Impl"* }
%"class.std::locale::_Impl" = type { i32, %"class.std::locale::facet"**, i64, %"class.std::locale::facet"**, i8** }
%"class.std::locale::facet" = type <{ i32 (...)**, i32, [4 x i8] }>
%"class.std::basic_streambuf" = type { i32 (...)**, i8*, i8*, i8*, i8*, i8*, i8*, %"class.std::locale" }
%"class.std::ctype" = type <{ %"class.std::locale::facet.base", [4 x i8], %struct.__locale_struct*, i8, [7 x i8], i32*, i32*, i16*, i8, [256 x i8], [256 x i8], i8, [6 x i8] }>
%"class.std::locale::facet.base" = type <{ i32 (...)**, i32 }>
%struct.__locale_struct = type { [13 x %struct.__locale_data*], i16*, i32*, i32*, [13 x i8*] }
%struct.__locale_data = type opaque
%"class.std::num_put" = type { %"class.std::locale::facet.base", [4 x i8] }
%"class.std::num_get" = type { %"class.std::locale::facet.base", [4 x i8] }
%"struct.std::_Setw" = type { i32 }
%"class.dealii::StandardExceptions::ExcIO" = type { %"class.dealii::ExceptionBase.base", [4 x i8] }
%"class.dealii::ExceptionBase.base" = type <{ %"class.std::exception", i8*, i32, [4 x i8], i8*, i8*, i8*, i8**, i32 }>
%"class.std::exception" = type { i32 (...)** }
%"class.dealii::ExceptionBase" = type <{ %"class.std::exception", i8*, i32, [4 x i8], i8*, i8*, i8*, i8**, i32, [4 x i8] }>
%"class.dealii::FullMatrix" = type { %"class.dealii::Table.base", [4 x i8] }
%"class.dealii::Table.base" = type { %"class.dealii::TableBase.base" }
%"class.dealii::Table" = type { %"class.dealii::TableBase.base", [4 x i8] }
%"class.dealii::FullMatrix.24" = type { %"class.dealii::Table.base.28", [4 x i8] }
%"class.dealii::Table.base.28" = type { %"class.dealii::TableBase.base.27" }
%"class.dealii::Table.25" = type { %"class.dealii::TableBase.base.27", [4 x i8] }
%"class.dealii::TableBase.26" = type <{ %"class.dealii::Subscriptor", float*, i32, %"class.dealii::TableIndices", [4 x i8] }>
%"class.dealii::TransposeTable.31" = type { %"class.dealii::TableBase.base.27", [4 x i8] }
%"class.dealii::Vector.38" = type { %"class.dealii::Subscriptor", i32, i32, float* }
%"struct.std::complex.39" = type { { float, float } }
%"class.dealii::PreconditionLU" = type { %"class.dealii::Subscriptor", %"class.dealii::SmartPointer", %"class.dealii::SmartPointer.40" }
%"class.dealii::SmartPointer" = type { %"class.dealii::LAPACKFullMatrix"*, i8* }
%"class.dealii::SmartPointer.40" = type { %"class.dealii::VectorMemory"*, i8* }
%"class.dealii::VectorMemory" = type { %"class.dealii::Subscriptor" }
%"class.dealii::BlockVector" = type { %"class.dealii::BlockVectorBase" }
%"class.dealii::BlockVectorBase" = type { %"class.dealii::Subscriptor", %"class.std::vector.41", %"class.dealii::BlockIndices" }
%"class.std::vector.41" = type { %"struct.std::_Vector_base.42" }
%"struct.std::_Vector_base.42" = type { %"struct.std::_Vector_base<dealii::Vector<double>, std::allocator<dealii::Vector<double> > >::_Vector_impl" }
%"struct.std::_Vector_base<dealii::Vector<double>, std::allocator<dealii::Vector<double> > >::_Vector_impl" = type { %"struct.std::_Vector_base<dealii::Vector<double>, std::allocator<dealii::Vector<double> > >::_Vector_impl_data" }
%"struct.std::_Vector_base<dealii::Vector<double>, std::allocator<dealii::Vector<double> > >::_Vector_impl_data" = type { %"class.dealii::Vector"*, %"class.dealii::Vector"*, %"class.dealii::Vector"* }
%"class.dealii::BlockIndices" = type { i32, %"class.std::vector.46" }
%"class.std::vector.46" = type { %"struct.std::_Vector_base.47" }
%"struct.std::_Vector_base.47" = type { %"struct.std::_Vector_base<unsigned int, std::allocator<unsigned int> >::_Vector_impl" }
%"struct.std::_Vector_base<unsigned int, std::allocator<unsigned int> >::_Vector_impl" = type { %"struct.std::_Vector_base<unsigned int, std::allocator<unsigned int> >::_Vector_impl_data" }
%"struct.std::_Vector_base<unsigned int, std::allocator<unsigned int> >::_Vector_impl_data" = type { i32*, i32*, i32* }
%"class.dealii::PreconditionLU.51" = type { %"class.dealii::Subscriptor", %"class.dealii::SmartPointer.52", %"class.dealii::SmartPointer.53" }
%"class.dealii::SmartPointer.52" = type { %"class.dealii::LAPACKFullMatrix.30"*, i8* }
%"class.dealii::SmartPointer.53" = type { %"class.dealii::VectorMemory.54"*, i8* }
%"class.dealii::VectorMemory.54" = type { %"class.dealii::Subscriptor" }
%"class.dealii::BlockVector.55" = type { %"class.dealii::BlockVectorBase.56" }
%"class.dealii::BlockVectorBase.56" = type { %"class.dealii::Subscriptor", %"class.std::vector.57", %"class.dealii::BlockIndices" }
%"class.std::vector.57" = type { %"struct.std::_Vector_base.58" }
%"struct.std::_Vector_base.58" = type { %"struct.std::_Vector_base<dealii::Vector<float>, std::allocator<dealii::Vector<float> > >::_Vector_impl" }
%"struct.std::_Vector_base<dealii::Vector<float>, std::allocator<dealii::Vector<float> > >::_Vector_impl" = type { %"struct.std::_Vector_base<dealii::Vector<float>, std::allocator<dealii::Vector<float> > >::_Vector_impl_data" }
%"struct.std::_Vector_base<dealii::Vector<float>, std::allocator<dealii::Vector<float> > >::_Vector_impl_data" = type { %"class.dealii::Vector.38"*, %"class.dealii::Vector.38"*, %"class.dealii::Vector.38"* }
%"class.std::allocator.16" = type { i8 }
%"class.__gnu_cxx::new_allocator.17" = type { i8 }
%"class.std::allocator.21" = type { i8 }
%"class.__gnu_cxx::new_allocator.22" = type { i8 }
%"class.std::allocator.35" = type { i8 }
%"class.__gnu_cxx::new_allocator.36" = type { i8 }

$_ZN5boost3argILi1EEC2Ev = comdat any

$_ZN5boost3argILi2EEC2Ev = comdat any

$_ZN5boost3argILi3EEC2Ev = comdat any

$_ZN5boost3argILi4EEC2Ev = comdat any

$_ZN5boost3argILi5EEC2Ev = comdat any

$_ZN5boost3argILi6EEC2Ev = comdat any

$_ZN5boost3argILi7EEC2Ev = comdat any

$_ZN5boost3argILi8EEC2Ev = comdat any

$_ZN5boost3argILi9EEC2Ev = comdat any

$_ZN6dealii16LAPACKFullMatrixIdEC5Ej = comdat any

$_ZN6dealii14TransposeTableIdEC2Ejj = comdat any

$_ZNSt6vectorIdSaIdEEC2Ev = comdat any

$_ZNSt6vectorIiSaIiEEC2Ev = comdat any

$_ZN6dealii16LAPACKFullMatrixIdEC5Ejj = comdat any

$_ZN6dealii16LAPACKFullMatrixIdEC5ERKS1_ = comdat any

$_ZN6dealii14TransposeTableIdEC2ERKS1_ = comdat any

$_ZN6dealii16LAPACKFullMatrixIdEaSERKS1_ = comdat any

$_ZN6dealii14TransposeTableIdEaSERKS1_ = comdat any

$_ZN6dealii16LAPACKFullMatrixIdEaSEd = comdat any

$_ZNK6dealii9TableBaseILi2EdE10n_elementsEv = comdat any

$_ZSt6fill_nIPdjdET_S1_T0_RKT1_ = comdat any

$_ZNK6dealii16LAPACKFullMatrixIdE5vmultERNS_6VectorIdEERKS3_b = comdat any

$_ZNK6dealii16LAPACKFullMatrixIdE9vmult_addERNS_6VectorIdEERKS3_ = comdat any

$_ZNK6dealii16LAPACKFullMatrixIdE6TvmultERNS_6VectorIdEERKS3_b = comdat any

$_ZNK6dealii16LAPACKFullMatrixIdE10Tvmult_addERNS_6VectorIdEERKS3_ = comdat any

$_ZN6dealii16LAPACKFullMatrixIdE24compute_lu_factorizationEv = comdat any

$_ZNK6dealii16LAPACKFullMatrixIdE22apply_lu_factorizationERNS_6VectorIdEEb = comdat any

$_ZN6dealii16LAPACKFullMatrixIdE19compute_eigenvaluesEbb = comdat any

$_ZNK6dealii16LAPACKFullMatrixIdE10eigenvalueEj = comdat any

$_ZNKSt6vectorIdSaIdEEixEm = comdat any

$_ZNSt7complexIdEC2Edd = comdat any

$_ZNK6dealii16LAPACKFullMatrixIdE15print_formattedERSojbjPKcdd = comdat any

$_ZNKSt8ios_base5flagsEv = comdat any

$_ZNSt8ios_base9precisionEl = comdat any

$_ZNSt8ios_base4setfESt13_Ios_FmtflagsS0_ = comdat any

$_ZNK6dealii14TransposeTableIdE6n_rowsEv = comdat any

$_ZNK6dealii14TransposeTableIdE6n_colsEv = comdat any

$_ZNK6dealii14TransposeTableIdE2elEjj = comdat any

$_ZSt4setwi = comdat any

$_ZN6dealii18deal_II_exceptions9internals17issue_error_throwINS_18StandardExceptions5ExcIOEEEvPKciS6_S6_S6_T_ = comdat any

$_ZN6dealii18StandardExceptions5ExcIOC2Ev = comdat any

$_ZN6dealii18StandardExceptions5ExcIOD2Ev = comdat any

$_ZNSt8ios_base5flagsESt13_Ios_Fmtflags = comdat any

$_ZN6dealii16LAPACKFullMatrixIdEaSIdEERS1_RKNS_10FullMatrixIT_EE = comdat any

$_ZNK6dealii5TableILi2EdEclEjj = comdat any

$_ZN6dealii14TransposeTableIdEclEjj = comdat any

$_ZN6dealii16LAPACKFullMatrixIdEaSIfEERS1_RKNS_10FullMatrixIT_EE = comdat any

$_ZNK6dealii5TableILi2EfEclEjj = comdat any

$_ZN6dealii16LAPACKFullMatrixIfEC5Ej = comdat any

$_ZN6dealii14TransposeTableIfEC2Ejj = comdat any

$_ZNSt6vectorIfSaIfEEC2Ev = comdat any

$_ZN6dealii16LAPACKFullMatrixIfEC5Ejj = comdat any

$_ZN6dealii16LAPACKFullMatrixIfEC5ERKS1_ = comdat any

$_ZN6dealii14TransposeTableIfEC2ERKS1_ = comdat any

$_ZN6dealii16LAPACKFullMatrixIfEaSERKS1_ = comdat any

$_ZN6dealii14TransposeTableIfEaSERKS1_ = comdat any

$_ZN6dealii16LAPACKFullMatrixIfEaSEd = comdat any

$_ZNK6dealii9TableBaseILi2EfE10n_elementsEv = comdat any

$_ZSt6fill_nIPfjfET_S1_T0_RKT1_ = comdat any

$_ZNK6dealii16LAPACKFullMatrixIfE5vmultERNS_6VectorIfEERKS3_b = comdat any

$_ZNK6dealii16LAPACKFullMatrixIfE9vmult_addERNS_6VectorIfEERKS3_ = comdat any

$_ZNK6dealii16LAPACKFullMatrixIfE6TvmultERNS_6VectorIfEERKS3_b = comdat any

$_ZNK6dealii16LAPACKFullMatrixIfE10Tvmult_addERNS_6VectorIfEERKS3_ = comdat any

$_ZN6dealii16LAPACKFullMatrixIfE24compute_lu_factorizationEv = comdat any

$_ZNK6dealii16LAPACKFullMatrixIfE22apply_lu_factorizationERNS_6VectorIfEEb = comdat any

$_ZN6dealii16LAPACKFullMatrixIfE19compute_eigenvaluesEbb = comdat any

$_ZNK6dealii16LAPACKFullMatrixIfE10eigenvalueEj = comdat any

$_ZNKSt6vectorIfSaIfEEixEm = comdat any

$_ZNSt7complexIfEC2Eff = comdat any

$_ZNK6dealii16LAPACKFullMatrixIfE15print_formattedERSojbjPKcdd = comdat any

$_ZNK6dealii14TransposeTableIfE6n_rowsEv = comdat any

$_ZNK6dealii14TransposeTableIfE6n_colsEv = comdat any

$_ZSt4fabsf = comdat any

$_ZNK6dealii14TransposeTableIfE2elEjj = comdat any

$_ZN6dealii16LAPACKFullMatrixIfEaSIdEERS1_RKNS_10FullMatrixIT_EE = comdat any

$_ZN6dealii14TransposeTableIfEclEjj = comdat any

$_ZN6dealii16LAPACKFullMatrixIfEaSIfEERS1_RKNS_10FullMatrixIT_EE = comdat any

$_ZN6dealii14PreconditionLUIdE10initializeERKNS_16LAPACKFullMatrixIdEE = comdat any

$_ZN6dealii12SmartPointerIKNS_16LAPACKFullMatrixIdEEEaSEPS3_ = comdat any

$_ZN6dealii12SmartPointerINS_12VectorMemoryINS_6VectorIdEEEEEaSEPS4_ = comdat any

$_ZN6dealii14PreconditionLUIdE10initializeERKNS_16LAPACKFullMatrixIdEERNS_12VectorMemoryINS_6VectorIdEEEE = comdat any

$_ZNK6dealii14PreconditionLUIdE5vmultERNS_6VectorIdEERKS3_ = comdat any

$_ZNK6dealii12SmartPointerIKNS_16LAPACKFullMatrixIdEEEptEv = comdat any

$_ZNK6dealii14PreconditionLUIdE6TvmultERNS_6VectorIdEERKS3_ = comdat any

$_ZNK6dealii14PreconditionLUIdE5vmultERNS_11BlockVectorIdEERKS3_ = comdat any

$_ZNK6dealii12SmartPointerINS_12VectorMemoryINS_6VectorIdEEEEEptEv = comdat any

$_ZN6dealii11BlockVectorIdEaSERKNS_6VectorIdEE = comdat any

$_ZNK6dealii14PreconditionLUIdE6TvmultERNS_11BlockVectorIdEERKS3_ = comdat any

$_ZN6dealii14PreconditionLUIfE10initializeERKNS_16LAPACKFullMatrixIfEE = comdat any

$_ZN6dealii12SmartPointerIKNS_16LAPACKFullMatrixIfEEEaSEPS3_ = comdat any

$_ZN6dealii12SmartPointerINS_12VectorMemoryINS_6VectorIfEEEEEaSEPS4_ = comdat any

$_ZN6dealii14PreconditionLUIfE10initializeERKNS_16LAPACKFullMatrixIfEERNS_12VectorMemoryINS_6VectorIfEEEE = comdat any

$_ZNK6dealii14PreconditionLUIfE5vmultERNS_6VectorIfEERKS3_ = comdat any

$_ZNK6dealii12SmartPointerIKNS_16LAPACKFullMatrixIfEEEptEv = comdat any

$_ZNK6dealii14PreconditionLUIfE6TvmultERNS_6VectorIfEERKS3_ = comdat any

$_ZNK6dealii14PreconditionLUIfE5vmultERNS_11BlockVectorIfEERKS3_ = comdat any

$_ZNK6dealii12SmartPointerINS_12VectorMemoryINS_6VectorIfEEEEEptEv = comdat any

$_ZN6dealii11BlockVectorIfEaSERKNS_6VectorIfEE = comdat any

$_ZNK6dealii14PreconditionLUIfE6TvmultERNS_11BlockVectorIfEERKS3_ = comdat any

$_ZN6dealii16LAPACKFullMatrixIdED2Ev = comdat any

$_ZN6dealii16LAPACKFullMatrixIdED0Ev = comdat any

$_ZN6dealii16LAPACKFullMatrixIfED2Ev = comdat any

$_ZN6dealii16LAPACKFullMatrixIfED0Ev = comdat any

$_ZN6dealii14PreconditionLUIdED2Ev = comdat any

$_ZN6dealii14PreconditionLUIdED0Ev = comdat any

$_ZN6dealii14PreconditionLUIfED2Ev = comdat any

$_ZN6dealii14PreconditionLUIfED0Ev = comdat any

$_ZNSt12_Vector_baseIdSaIdEEC2Ev = comdat any

$_ZNSt12_Vector_baseIdSaIdEE12_Vector_implC2Ev = comdat any

$_ZNSaIdEC2Ev = comdat any

$_ZNSt12_Vector_baseIdSaIdEE17_Vector_impl_dataC2Ev = comdat any

$_ZN9__gnu_cxx13new_allocatorIdEC2Ev = comdat any

$_ZNSt12_Vector_baseIiSaIiEEC2Ev = comdat any

$_ZNSt12_Vector_baseIiSaIiEE12_Vector_implC2Ev = comdat any

$_ZNSaIiEC2Ev = comdat any

$_ZNSt12_Vector_baseIiSaIiEE17_Vector_impl_dataC2Ev = comdat any

$_ZN9__gnu_cxx13new_allocatorIiEC2Ev = comdat any

$_ZN6dealii9TableBaseILi2EdEC2ERKS1_ = comdat any

$_ZN6dealii14TransposeTableIdED2Ev = comdat any

$_ZN6dealii14TransposeTableIdED0Ev = comdat any

$_ZN6dealii12TableIndicesILi2EEC2Ev = comdat any

$_ZN6dealii9TableBaseILi2EdE6reinitERKNS_12TableIndicesILi2EEE = comdat any

$_ZN6dealii9TableBaseILi2EdE4fillIdEEvPKT_ = comdat any

$_ZNK6dealii9TableBaseILi2EdE4dataEv = comdat any

$_ZN6dealii9TableBaseILi2EdED2Ev = comdat any

$_ZN6dealii9TableBaseILi2EdED0Ev = comdat any

$_ZN6dealii9TableBaseILi2EdE12reset_valuesEv = comdat any

$_ZSt4copyIPKdPdET0_T_S4_S3_ = comdat any

$_ZSt13__copy_move_aILb0EPKdPdET1_T0_S4_S3_ = comdat any

$_ZSt12__miter_baseIPKdET_S2_ = comdat any

$_ZSt12__niter_wrapIPdET_RKS1_S1_ = comdat any

$_ZSt14__copy_move_a1ILb0EPKdPdET1_T0_S4_S3_ = comdat any

$_ZSt12__niter_baseIPKdET_S2_ = comdat any

$_ZSt12__niter_baseIPdET_S1_ = comdat any

$_ZSt14__copy_move_a2ILb0EPKdPdET1_T0_S4_S3_ = comdat any

$_ZNSt11__copy_moveILb0ELb1ESt26random_access_iterator_tagE8__copy_mIdEEPT_PKS3_S6_S4_ = comdat any

$_ZN6dealii9TableBaseILi2EdEaSERKS1_ = comdat any

$_ZNK6dealii9TableBaseILi2EdE4sizeEv = comdat any

$_ZNK6dealii9TableBaseILi2EdE5emptyEv = comdat any

$_ZSt4copyIPdS0_ET0_T_S2_S1_ = comdat any

$_ZSt13__copy_move_aILb0EPdS0_ET1_T0_S2_S1_ = comdat any

$_ZSt12__miter_baseIPdET_S1_ = comdat any

$_ZSt14__copy_move_a1ILb0EPdS0_ET1_T0_S2_S1_ = comdat any

$_ZSt14__copy_move_a2ILb0EPdS0_ET1_T0_S2_S1_ = comdat any

$_ZStaNRSt13_Ios_FmtflagsS_ = comdat any

$_ZStcoSt13_Ios_Fmtflags = comdat any

$_ZStoRRSt13_Ios_FmtflagsS_ = comdat any

$_ZStanSt13_Ios_FmtflagsS_ = comdat any

$_ZStorSt13_Ios_FmtflagsS_ = comdat any

$_ZN6dealii18StandardExceptions5ExcIOD0Ev = comdat any

$_ZNSt12_Vector_baseIfSaIfEEC2Ev = comdat any

$_ZNSt12_Vector_baseIfSaIfEE12_Vector_implC2Ev = comdat any

$_ZNSaIfEC2Ev = comdat any

$_ZNSt12_Vector_baseIfSaIfEE17_Vector_impl_dataC2Ev = comdat any

$_ZN9__gnu_cxx13new_allocatorIfEC2Ev = comdat any

$_ZN6dealii9TableBaseILi2EfEC2ERKS1_ = comdat any

$_ZN6dealii14TransposeTableIfED2Ev = comdat any

$_ZN6dealii14TransposeTableIfED0Ev = comdat any

$_ZN6dealii9TableBaseILi2EfE6reinitERKNS_12TableIndicesILi2EEE = comdat any

$_ZN6dealii9TableBaseILi2EfE4fillIfEEvPKT_ = comdat any

$_ZNK6dealii9TableBaseILi2EfE4dataEv = comdat any

$_ZN6dealii9TableBaseILi2EfED2Ev = comdat any

$_ZN6dealii9TableBaseILi2EfED0Ev = comdat any

$_ZN6dealii9TableBaseILi2EfE12reset_valuesEv = comdat any

$_ZSt4copyIPKfPfET0_T_S4_S3_ = comdat any

$_ZSt13__copy_move_aILb0EPKfPfET1_T0_S4_S3_ = comdat any

$_ZSt12__miter_baseIPKfET_S2_ = comdat any

$_ZSt12__niter_wrapIPfET_RKS1_S1_ = comdat any

$_ZSt14__copy_move_a1ILb0EPKfPfET1_T0_S4_S3_ = comdat any

$_ZSt12__niter_baseIPKfET_S2_ = comdat any

$_ZSt12__niter_baseIPfET_S1_ = comdat any

$_ZSt14__copy_move_a2ILb0EPKfPfET1_T0_S4_S3_ = comdat any

$_ZNSt11__copy_moveILb0ELb1ESt26random_access_iterator_tagE8__copy_mIfEEPT_PKS3_S6_S4_ = comdat any

$_ZN6dealii9TableBaseILi2EfEaSERKS1_ = comdat any

$_ZNK6dealii9TableBaseILi2EfE4sizeEv = comdat any

$_ZNK6dealii9TableBaseILi2EfE5emptyEv = comdat any

$_ZSt4copyIPfS0_ET0_T_S2_S1_ = comdat any

$_ZSt13__copy_move_aILb0EPfS0_ET1_T0_S2_S1_ = comdat any

$_ZSt12__miter_baseIPfET_S1_ = comdat any

$_ZSt14__copy_move_a1ILb0EPfS0_ET1_T0_S2_S1_ = comdat any

$_ZSt14__copy_move_a2ILb0EPfS0_ET1_T0_S2_S1_ = comdat any

$_ZNSt6vectorIdSaIdEED2Ev = comdat any

$_ZNSt6vectorIiSaIiEED2Ev = comdat any

$_ZSt8_DestroyIPddEvT_S1_RSaIT0_E = comdat any

$_ZNSt12_Vector_baseIdSaIdEE19_M_get_Tp_allocatorEv = comdat any

$_ZNSt12_Vector_baseIdSaIdEED2Ev = comdat any

$__clang_call_terminate = comdat any

$_ZSt8_DestroyIPdEvT_S1_ = comdat any

$_ZNSt12_Destroy_auxILb1EE9__destroyIPdEEvT_S3_ = comdat any

$_ZNSt12_Vector_baseIdSaIdEE13_M_deallocateEPdm = comdat any

$_ZNSt12_Vector_baseIdSaIdEE12_Vector_implD2Ev = comdat any

$_ZNSt16allocator_traitsISaIdEE10deallocateERS0_Pdm = comdat any

$_ZN9__gnu_cxx13new_allocatorIdE10deallocateEPdm = comdat any

$_ZNSaIdED2Ev = comdat any

$_ZN9__gnu_cxx13new_allocatorIdED2Ev = comdat any

$_ZSt8_DestroyIPiiEvT_S1_RSaIT0_E = comdat any

$_ZNSt12_Vector_baseIiSaIiEE19_M_get_Tp_allocatorEv = comdat any

$_ZNSt12_Vector_baseIiSaIiEED2Ev = comdat any

$_ZSt8_DestroyIPiEvT_S1_ = comdat any

$_ZNSt12_Destroy_auxILb1EE9__destroyIPiEEvT_S3_ = comdat any

$_ZNSt12_Vector_baseIiSaIiEE13_M_deallocateEPim = comdat any

$_ZNSt12_Vector_baseIiSaIiEE12_Vector_implD2Ev = comdat any

$_ZNSt16allocator_traitsISaIiEE10deallocateERS0_Pim = comdat any

$_ZN9__gnu_cxx13new_allocatorIiE10deallocateEPim = comdat any

$_ZNSaIiED2Ev = comdat any

$_ZN9__gnu_cxx13new_allocatorIiED2Ev = comdat any

$_ZNSt6vectorIfSaIfEED2Ev = comdat any

$_ZSt8_DestroyIPffEvT_S1_RSaIT0_E = comdat any

$_ZNSt12_Vector_baseIfSaIfEE19_M_get_Tp_allocatorEv = comdat any

$_ZNSt12_Vector_baseIfSaIfEED2Ev = comdat any

$_ZSt8_DestroyIPfEvT_S1_ = comdat any

$_ZNSt12_Destroy_auxILb1EE9__destroyIPfEEvT_S3_ = comdat any

$_ZNSt12_Vector_baseIfSaIfEE13_M_deallocateEPfm = comdat any

$_ZNSt12_Vector_baseIfSaIfEE12_Vector_implD2Ev = comdat any

$_ZNSt16allocator_traitsISaIfEE10deallocateERS0_Pfm = comdat any

$_ZN9__gnu_cxx13new_allocatorIfE10deallocateEPfm = comdat any

$_ZNSaIfED2Ev = comdat any

$_ZN9__gnu_cxx13new_allocatorIfED2Ev = comdat any

$_ZN6dealii12SmartPointerINS_12VectorMemoryINS_6VectorIdEEEEED2Ev = comdat any

$_ZN6dealii12SmartPointerIKNS_16LAPACKFullMatrixIdEEED2Ev = comdat any

$_ZNK6dealii11Subscriptor11unsubscribeEPKc = comdat any

$_ZN6dealii12SmartPointerINS_12VectorMemoryINS_6VectorIfEEEEED2Ev = comdat any

$_ZN6dealii12SmartPointerIKNS_16LAPACKFullMatrixIfEEED2Ev = comdat any

$_ZN6dealii12TableIndicesILi2EEC2Ejj = comdat any

$_ZN6dealii9TableBaseILi2EdEC2ERKNS_12TableIndicesILi2EEE = comdat any

$_ZNK6dealii16TableIndicesBaseILi2EEixEj = comdat any

$_ZSt10__fill_n_aIPdjdET_S1_T0_RKT1_St26random_access_iterator_tag = comdat any

$_ZSt17__size_to_integerj = comdat any

$_ZSt19__iterator_categoryIPdENSt15iterator_traitsIT_E17iterator_categoryERKS2_ = comdat any

$_ZSt8__fill_aIPddEvT_S1_RKT0_ = comdat any

$_ZSt9__fill_a1IPddEN9__gnu_cxx11__enable_ifIXsr11__is_scalarIT0_EE7__valueEvE6__typeET_S6_RKS3_ = comdat any

$_ZN6dealii18StandardExceptions5ExcIOC2EOS1_ = comdat any

$_ZN6dealii9TableBaseILi2EfEC2ERKNS_12TableIndicesILi2EEE = comdat any

$_ZSt10__fill_n_aIPfjfET_S1_T0_RKT1_St26random_access_iterator_tag = comdat any

$_ZSt19__iterator_categoryIPfENSt15iterator_traitsIT_E17iterator_categoryERKS2_ = comdat any

$_ZSt8__fill_aIPffEvT_S1_RKT0_ = comdat any

$_ZSt9__fill_a1IPffEN9__gnu_cxx11__enable_ifIXsr11__is_scalarIT0_EE7__valueEvE6__typeET_S6_RKS3_ = comdat any

$_ZNK6dealii11Subscriptor9subscribeEPKc = comdat any

$_ZN6dealii15BlockVectorBaseINS_6VectorIdEEEaSERKS2_ = comdat any

$_ZNK6dealii15BlockVectorBaseINS_6VectorIdEEE8n_blocksEv = comdat any

$_ZN6dealii15BlockVectorBaseINS_6VectorIdEEE5blockEj = comdat any

$_ZNK6dealii6VectorIdE4sizeEv = comdat any

$_ZNK6dealii6VectorIdEclEj = comdat any

$_ZN6dealii6VectorIdEclEj = comdat any

$_ZNK6dealii12BlockIndices4sizeEv = comdat any

$_ZNSt6vectorIN6dealii6VectorIdEESaIS2_EEixEm = comdat any

$_ZN6dealii15BlockVectorBaseINS_6VectorIfEEEaSERKS2_ = comdat any

$_ZNK6dealii15BlockVectorBaseINS_6VectorIfEEE8n_blocksEv = comdat any

$_ZN6dealii15BlockVectorBaseINS_6VectorIfEEE5blockEj = comdat any

$_ZNK6dealii6VectorIfE4sizeEv = comdat any

$_ZNK6dealii6VectorIfEclEj = comdat any

$_ZN6dealii6VectorIfEclEj = comdat any

$_ZNSt6vectorIN6dealii6VectorIfEESaIS2_EEixEm = comdat any

$_ZTVN6dealii16LAPACKFullMatrixIdEE = comdat any

$_ZTVN6dealii16LAPACKFullMatrixIfEE = comdat any

$_ZTSN6dealii16LAPACKFullMatrixIdEE = comdat any

$_ZTSN6dealii14TransposeTableIdEE = comdat any

$_ZTSN6dealii9TableBaseILi2EdEE = comdat any

$_ZTIN6dealii9TableBaseILi2EdEE = comdat any

$_ZTIN6dealii14TransposeTableIdEE = comdat any

$_ZTIN6dealii16LAPACKFullMatrixIdEE = comdat any

$_ZTSN6dealii16LAPACKFullMatrixIfEE = comdat any

$_ZTSN6dealii14TransposeTableIfEE = comdat any

$_ZTSN6dealii9TableBaseILi2EfEE = comdat any

$_ZTIN6dealii9TableBaseILi2EfEE = comdat any

$_ZTIN6dealii14TransposeTableIfEE = comdat any

$_ZTIN6dealii16LAPACKFullMatrixIfEE = comdat any

$_ZTVN6dealii14PreconditionLUIdEE = comdat any

$_ZTSN6dealii14PreconditionLUIdEE = comdat any

$_ZTIN6dealii14PreconditionLUIdEE = comdat any

$_ZTVN6dealii14PreconditionLUIfEE = comdat any

$_ZTSN6dealii14PreconditionLUIfEE = comdat any

$_ZTIN6dealii14PreconditionLUIfEE = comdat any

$_ZTVN6dealii14TransposeTableIdEE = comdat any

$_ZTVN6dealii9TableBaseILi2EdEE = comdat any

$_ZTVN6dealii18StandardExceptions5ExcIOE = comdat any

$_ZTSN6dealii18StandardExceptions5ExcIOE = comdat any

$_ZTIN6dealii18StandardExceptions5ExcIOE = comdat any

$_ZTVN6dealii14TransposeTableIfEE = comdat any

$_ZTVN6dealii9TableBaseILi2EfEE = comdat any

@_ZN12_GLOBAL__N_12_1E = internal global %"struct.boost::arg" zeroinitializer, align 1, !dbg !0
@_ZN12_GLOBAL__N_12_2E = internal global %"struct.boost::arg.0" zeroinitializer, align 1, !dbg !15
@_ZN12_GLOBAL__N_12_3E = internal global %"struct.boost::arg.2" zeroinitializer, align 1, !dbg !25
@_ZN12_GLOBAL__N_12_4E = internal global %"struct.boost::arg.4" zeroinitializer, align 1, !dbg !35
@_ZN12_GLOBAL__N_12_5E = internal global %"struct.boost::arg.6" zeroinitializer, align 1, !dbg !45
@_ZN12_GLOBAL__N_12_6E = internal global %"struct.boost::arg.8" zeroinitializer, align 1, !dbg !55
@_ZN12_GLOBAL__N_12_7E = internal global %"struct.boost::arg.10" zeroinitializer, align 1, !dbg !65
@_ZN12_GLOBAL__N_12_8E = internal global %"struct.boost::arg.12" zeroinitializer, align 1, !dbg !75
@_ZN12_GLOBAL__N_12_9E = internal global %"struct.boost::arg.14" zeroinitializer, align 1, !dbg !85
@_ZStL8__ioinit = internal global %"class.std::ios_base::Init" zeroinitializer, align 1, !dbg !95
@__dso_handle = external hidden global i8
@_ZTVN6dealii16LAPACKFullMatrixIdEE = weak_odr dso_local unnamed_addr constant { [4 x i8*] } { [4 x i8*] [i8* null, i8* bitcast ({ i8*, i8*, i8* }* @_ZTIN6dealii16LAPACKFullMatrixIdEE to i8*), i8* bitcast (void (%"class.dealii::LAPACKFullMatrix"*)* @_ZN6dealii16LAPACKFullMatrixIdED2Ev to i8*), i8* bitcast (void (%"class.dealii::LAPACKFullMatrix"*)* @_ZN6dealii16LAPACKFullMatrixIdED0Ev to i8*)] }, comdat, align 8
@.str = private unnamed_addr constant [33 x i8] c"source/lac/lapack_full_matrix.cc\00", align 1
@.str.10 = private unnamed_addr constant [1 x i8] zeroinitializer, align 1
@.str.11 = private unnamed_addr constant [4 x i8] c"out\00", align 1
@.str.12 = private unnamed_addr constant [8 x i8] c"ExcIO()\00", align 1
@_ZTVN6dealii16LAPACKFullMatrixIfEE = weak_odr dso_local unnamed_addr constant { [4 x i8*] } { [4 x i8*] [i8* null, i8* bitcast ({ i8*, i8*, i8* }* @_ZTIN6dealii16LAPACKFullMatrixIfEE to i8*), i8* bitcast (void (%"class.dealii::LAPACKFullMatrix.30"*)* @_ZN6dealii16LAPACKFullMatrixIfED2Ev to i8*), i8* bitcast (void (%"class.dealii::LAPACKFullMatrix.30"*)* @_ZN6dealii16LAPACKFullMatrixIfED0Ev to i8*)] }, comdat, align 8
@_ZTVN10__cxxabiv120__si_class_type_infoE = external dso_local global i8*
@_ZTSN6dealii16LAPACKFullMatrixIdEE = weak_odr dso_local constant [31 x i8] c"N6dealii16LAPACKFullMatrixIdEE\00", comdat, align 1
@_ZTSN6dealii14TransposeTableIdEE = linkonce_odr dso_local constant [29 x i8] c"N6dealii14TransposeTableIdEE\00", comdat, align 1
@_ZTSN6dealii9TableBaseILi2EdEE = linkonce_odr dso_local constant [27 x i8] c"N6dealii9TableBaseILi2EdEE\00", comdat, align 1
@_ZTIN6dealii11SubscriptorE = external dso_local constant i8*
@_ZTIN6dealii9TableBaseILi2EdEE = linkonce_odr dso_local constant { i8*, i8*, i8* } { i8* bitcast (i8** getelementptr inbounds (i8*, i8** @_ZTVN10__cxxabiv120__si_class_type_infoE, i64 2) to i8*), i8* getelementptr inbounds ([27 x i8], [27 x i8]* @_ZTSN6dealii9TableBaseILi2EdEE, i32 0, i32 0), i8* bitcast (i8** @_ZTIN6dealii11SubscriptorE to i8*) }, comdat, align 8
@_ZTIN6dealii14TransposeTableIdEE = linkonce_odr dso_local constant { i8*, i8*, i8* } { i8* bitcast (i8** getelementptr inbounds (i8*, i8** @_ZTVN10__cxxabiv120__si_class_type_infoE, i64 2) to i8*), i8* getelementptr inbounds ([29 x i8], [29 x i8]* @_ZTSN6dealii14TransposeTableIdEE, i32 0, i32 0), i8* bitcast ({ i8*, i8*, i8* }* @_ZTIN6dealii9TableBaseILi2EdEE to i8*) }, comdat, align 8
@_ZTIN6dealii16LAPACKFullMatrixIdEE = weak_odr dso_local constant { i8*, i8*, i8* } { i8* bitcast (i8** getelementptr inbounds (i8*, i8** @_ZTVN10__cxxabiv120__si_class_type_infoE, i64 2) to i8*), i8* getelementptr inbounds ([31 x i8], [31 x i8]* @_ZTSN6dealii16LAPACKFullMatrixIdEE, i32 0, i32 0), i8* bitcast ({ i8*, i8*, i8* }* @_ZTIN6dealii14TransposeTableIdEE to i8*) }, comdat, align 8
@_ZTSN6dealii16LAPACKFullMatrixIfEE = weak_odr dso_local constant [31 x i8] c"N6dealii16LAPACKFullMatrixIfEE\00", comdat, align 1
@_ZTSN6dealii14TransposeTableIfEE = linkonce_odr dso_local constant [29 x i8] c"N6dealii14TransposeTableIfEE\00", comdat, align 1
@_ZTSN6dealii9TableBaseILi2EfEE = linkonce_odr dso_local constant [27 x i8] c"N6dealii9TableBaseILi2EfEE\00", comdat, align 1
@_ZTIN6dealii9TableBaseILi2EfEE = linkonce_odr dso_local constant { i8*, i8*, i8* } { i8* bitcast (i8** getelementptr inbounds (i8*, i8** @_ZTVN10__cxxabiv120__si_class_type_infoE, i64 2) to i8*), i8* getelementptr inbounds ([27 x i8], [27 x i8]* @_ZTSN6dealii9TableBaseILi2EfEE, i32 0, i32 0), i8* bitcast (i8** @_ZTIN6dealii11SubscriptorE to i8*) }, comdat, align 8
@_ZTIN6dealii14TransposeTableIfEE = linkonce_odr dso_local constant { i8*, i8*, i8* } { i8* bitcast (i8** getelementptr inbounds (i8*, i8** @_ZTVN10__cxxabiv120__si_class_type_infoE, i64 2) to i8*), i8* getelementptr inbounds ([29 x i8], [29 x i8]* @_ZTSN6dealii14TransposeTableIfEE, i32 0, i32 0), i8* bitcast ({ i8*, i8*, i8* }* @_ZTIN6dealii9TableBaseILi2EfEE to i8*) }, comdat, align 8
@_ZTIN6dealii16LAPACKFullMatrixIfEE = weak_odr dso_local constant { i8*, i8*, i8* } { i8* bitcast (i8** getelementptr inbounds (i8*, i8** @_ZTVN10__cxxabiv120__si_class_type_infoE, i64 2) to i8*), i8* getelementptr inbounds ([31 x i8], [31 x i8]* @_ZTSN6dealii16LAPACKFullMatrixIfEE, i32 0, i32 0), i8* bitcast ({ i8*, i8*, i8* }* @_ZTIN6dealii14TransposeTableIfEE to i8*) }, comdat, align 8
@_ZTVN6dealii14PreconditionLUIdEE = weak_odr dso_local unnamed_addr constant { [4 x i8*] } { [4 x i8*] [i8* null, i8* bitcast ({ i8*, i8*, i8* }* @_ZTIN6dealii14PreconditionLUIdEE to i8*), i8* bitcast (void (%"class.dealii::PreconditionLU"*)* @_ZN6dealii14PreconditionLUIdED2Ev to i8*), i8* bitcast (void (%"class.dealii::PreconditionLU"*)* @_ZN6dealii14PreconditionLUIdED0Ev to i8*)] }, comdat, align 8
@_ZTSN6dealii14PreconditionLUIdEE = weak_odr dso_local constant [29 x i8] c"N6dealii14PreconditionLUIdEE\00", comdat, align 1
@_ZTIN6dealii14PreconditionLUIdEE = weak_odr dso_local constant { i8*, i8*, i8* } { i8* bitcast (i8** getelementptr inbounds (i8*, i8** @_ZTVN10__cxxabiv120__si_class_type_infoE, i64 2) to i8*), i8* getelementptr inbounds ([29 x i8], [29 x i8]* @_ZTSN6dealii14PreconditionLUIdEE, i32 0, i32 0), i8* bitcast (i8** @_ZTIN6dealii11SubscriptorE to i8*) }, comdat, align 8
@_ZTVN6dealii14PreconditionLUIfEE = weak_odr dso_local unnamed_addr constant { [4 x i8*] } { [4 x i8*] [i8* null, i8* bitcast ({ i8*, i8*, i8* }* @_ZTIN6dealii14PreconditionLUIfEE to i8*), i8* bitcast (void (%"class.dealii::PreconditionLU.51"*)* @_ZN6dealii14PreconditionLUIfED2Ev to i8*), i8* bitcast (void (%"class.dealii::PreconditionLU.51"*)* @_ZN6dealii14PreconditionLUIfED0Ev to i8*)] }, comdat, align 8
@_ZTSN6dealii14PreconditionLUIfEE = weak_odr dso_local constant [29 x i8] c"N6dealii14PreconditionLUIfEE\00", comdat, align 1
@_ZTIN6dealii14PreconditionLUIfEE = weak_odr dso_local constant { i8*, i8*, i8* } { i8* bitcast (i8** getelementptr inbounds (i8*, i8** @_ZTVN10__cxxabiv120__si_class_type_infoE, i64 2) to i8*), i8* getelementptr inbounds ([29 x i8], [29 x i8]* @_ZTSN6dealii14PreconditionLUIfEE, i32 0, i32 0), i8* bitcast (i8** @_ZTIN6dealii11SubscriptorE to i8*) }, comdat, align 8
@_ZTVN6dealii14TransposeTableIdEE = linkonce_odr dso_local unnamed_addr constant { [4 x i8*] } { [4 x i8*] [i8* null, i8* bitcast ({ i8*, i8*, i8* }* @_ZTIN6dealii14TransposeTableIdEE to i8*), i8* bitcast (void (%"class.dealii::TransposeTable"*)* @_ZN6dealii14TransposeTableIdED2Ev to i8*), i8* bitcast (void (%"class.dealii::TransposeTable"*)* @_ZN6dealii14TransposeTableIdED0Ev to i8*)] }, comdat, align 8
@_ZTVN6dealii9TableBaseILi2EdEE = linkonce_odr dso_local unnamed_addr constant { [4 x i8*] } { [4 x i8*] [i8* null, i8* bitcast ({ i8*, i8*, i8* }* @_ZTIN6dealii9TableBaseILi2EdEE to i8*), i8* bitcast (void (%"class.dealii::TableBase"*)* @_ZN6dealii9TableBaseILi2EdED2Ev to i8*), i8* bitcast (void (%"class.dealii::TableBase"*)* @_ZN6dealii9TableBaseILi2EdED0Ev to i8*)] }, comdat, align 8
@_ZTVN6dealii18StandardExceptions5ExcIOE = linkonce_odr dso_local unnamed_addr constant { [6 x i8*] } { [6 x i8*] [i8* null, i8* bitcast ({ i8*, i8*, i8* }* @_ZTIN6dealii18StandardExceptions5ExcIOE to i8*), i8* bitcast (void (%"class.dealii::StandardExceptions::ExcIO"*)* @_ZN6dealii18StandardExceptions5ExcIOD2Ev to i8*), i8* bitcast (void (%"class.dealii::StandardExceptions::ExcIO"*)* @_ZN6dealii18StandardExceptions5ExcIOD0Ev to i8*), i8* bitcast (i8* (%"class.dealii::ExceptionBase"*)* @_ZNK6dealii13ExceptionBase4whatEv to i8*), i8* bitcast (void (%"class.dealii::ExceptionBase"*, %"class.std::basic_ostream"*)* @_ZNK6dealii13ExceptionBase10print_infoERSo to i8*)] }, comdat, align 8
@_ZTSN6dealii18StandardExceptions5ExcIOE = linkonce_odr dso_local constant [36 x i8] c"N6dealii18StandardExceptions5ExcIOE\00", comdat, align 1
@_ZTIN6dealii13ExceptionBaseE = external dso_local constant i8*
@_ZTIN6dealii18StandardExceptions5ExcIOE = linkonce_odr dso_local constant { i8*, i8*, i8* } { i8* bitcast (i8** getelementptr inbounds (i8*, i8** @_ZTVN10__cxxabiv120__si_class_type_infoE, i64 2) to i8*), i8* getelementptr inbounds ([36 x i8], [36 x i8]* @_ZTSN6dealii18StandardExceptions5ExcIOE, i32 0, i32 0), i8* bitcast (i8** @_ZTIN6dealii13ExceptionBaseE to i8*) }, comdat, align 8
@_ZTVN6dealii14TransposeTableIfEE = linkonce_odr dso_local unnamed_addr constant { [4 x i8*] } { [4 x i8*] [i8* null, i8* bitcast ({ i8*, i8*, i8* }* @_ZTIN6dealii14TransposeTableIfEE to i8*), i8* bitcast (void (%"class.dealii::TransposeTable.31"*)* @_ZN6dealii14TransposeTableIfED2Ev to i8*), i8* bitcast (void (%"class.dealii::TransposeTable.31"*)* @_ZN6dealii14TransposeTableIfED0Ev to i8*)] }, comdat, align 8
@_ZTVN6dealii9TableBaseILi2EfEE = linkonce_odr dso_local unnamed_addr constant { [4 x i8*] } { [4 x i8*] [i8* null, i8* bitcast ({ i8*, i8*, i8* }* @_ZTIN6dealii9TableBaseILi2EfEE to i8*), i8* bitcast (void (%"class.dealii::TableBase.26"*)* @_ZN6dealii9TableBaseILi2EfED2Ev to i8*), i8* bitcast (void (%"class.dealii::TableBase.26"*)* @_ZN6dealii9TableBaseILi2EfED0Ev to i8*)] }, comdat, align 8
@llvm.global_ctors = appending global [1 x { i32, void ()*, i8* }] [{ i32, void ()*, i8* } { i32 65535, void ()* @_GLOBAL__sub_I_lapack_full_matrix.cc, i8* null }]

@_ZN6dealii16LAPACKFullMatrixIdEC1Ej = weak_odr dso_local unnamed_addr alias void (%"class.dealii::LAPACKFullMatrix"*, i32), void (%"class.dealii::LAPACKFullMatrix"*, i32)* @_ZN6dealii16LAPACKFullMatrixIdEC2Ej
@_ZN6dealii16LAPACKFullMatrixIdEC1Ejj = weak_odr dso_local unnamed_addr alias void (%"class.dealii::LAPACKFullMatrix"*, i32, i32), void (%"class.dealii::LAPACKFullMatrix"*, i32, i32)* @_ZN6dealii16LAPACKFullMatrixIdEC2Ejj
@_ZN6dealii16LAPACKFullMatrixIdEC1ERKS1_ = weak_odr dso_local unnamed_addr alias void (%"class.dealii::LAPACKFullMatrix"*, %"class.dealii::LAPACKFullMatrix"*), void (%"class.dealii::LAPACKFullMatrix"*, %"class.dealii::LAPACKFullMatrix"*)* @_ZN6dealii16LAPACKFullMatrixIdEC2ERKS1_
@_ZN6dealii16LAPACKFullMatrixIfEC1Ej = weak_odr dso_local unnamed_addr alias void (%"class.dealii::LAPACKFullMatrix.30"*, i32), void (%"class.dealii::LAPACKFullMatrix.30"*, i32)* @_ZN6dealii16LAPACKFullMatrixIfEC2Ej
@_ZN6dealii16LAPACKFullMatrixIfEC1Ejj = weak_odr dso_local unnamed_addr alias void (%"class.dealii::LAPACKFullMatrix.30"*, i32, i32), void (%"class.dealii::LAPACKFullMatrix.30"*, i32, i32)* @_ZN6dealii16LAPACKFullMatrixIfEC2Ejj
@_ZN6dealii16LAPACKFullMatrixIfEC1ERKS1_ = weak_odr dso_local unnamed_addr alias void (%"class.dealii::LAPACKFullMatrix.30"*, %"class.dealii::LAPACKFullMatrix.30"*), void (%"class.dealii::LAPACKFullMatrix.30"*, %"class.dealii::LAPACKFullMatrix.30"*)* @_ZN6dealii16LAPACKFullMatrixIfEC2ERKS1_

; Function Attrs: noinline uwtable
define internal void @__cxx_global_var_init() #0 section ".text.startup" !dbg !3639 {
entry:
  call void @_ZN5boost3argILi1EEC2Ev(%"struct.boost::arg"* @_ZN12_GLOBAL__N_12_1E), !dbg !3640
  ret void, !dbg !3640
}

; Function Attrs: noinline nounwind uwtable
define linkonce_odr dso_local void @_ZN5boost3argILi1EEC2Ev(%"struct.boost::arg"* %this) unnamed_addr #1 comdat align 2 !dbg !3641 {
entry:
  %this.addr = alloca %"struct.boost::arg"*, align 8
  store %"struct.boost::arg"* %this, %"struct.boost::arg"** %this.addr, align 8
  call void @llvm.dbg.declare(metadata %"struct.boost::arg"** %this.addr, metadata !3642, metadata !DIExpression()), !dbg !3644
  %this1 = load %"struct.boost::arg"*, %"struct.boost::arg"** %this.addr, align 8
  ret void, !dbg !3645
}

; Function Attrs: noinline uwtable
define internal void @__cxx_global_var_init.1() #0 section ".text.startup" !dbg !3646 {
entry:
  call void @_ZN5boost3argILi2EEC2Ev(%"struct.boost::arg.0"* @_ZN12_GLOBAL__N_12_2E), !dbg !3647
  ret void, !dbg !3647
}

; Function Attrs: noinline nounwind uwtable
define linkonce_odr dso_local void @_ZN5boost3argILi2EEC2Ev(%"struct.boost::arg.0"* %this) unnamed_addr #1 comdat align 2 !dbg !3648 {
entry:
  %this.addr = alloca %"struct.boost::arg.0"*, align 8
  store %"struct.boost::arg.0"* %this, %"struct.boost::arg.0"** %this.addr, align 8
  call void @llvm.dbg.declare(metadata %"struct.boost::arg.0"** %this.addr, metadata !3649, metadata !DIExpression()), !dbg !3651
  %this1 = load %"struct.boost::arg.0"*, %"struct.boost::arg.0"** %this.addr, align 8
  ret void, !dbg !3652
}

; Function Attrs: noinline uwtable
define internal void @__cxx_global_var_init.2() #0 section ".text.startup" !dbg !3653 {
entry:
  call void @_ZN5boost3argILi3EEC2Ev(%"struct.boost::arg.2"* @_ZN12_GLOBAL__N_12_3E), !dbg !3654
  ret void, !dbg !3654
}

; Function Attrs: noinline nounwind uwtable
define linkonce_odr dso_local void @_ZN5boost3argILi3EEC2Ev(%"struct.boost::arg.2"* %this) unnamed_addr #1 comdat align 2 !dbg !3655 {
entry:
  %this.addr = alloca %"struct.boost::arg.2"*, align 8
  store %"struct.boost::arg.2"* %this, %"struct.boost::arg.2"** %this.addr, align 8
  call void @llvm.dbg.declare(metadata %"struct.boost::arg.2"** %this.addr, metadata !3656, metadata !DIExpression()), !dbg !3658
  %this1 = load %"struct.boost::arg.2"*, %"struct.boost::arg.2"** %this.addr, align 8
  ret void, !dbg !3659
}

; Function Attrs: noinline uwtable
define internal void @__cxx_global_var_init.3() #0 section ".text.startup" !dbg !3660 {
entry:
  call void @_ZN5boost3argILi4EEC2Ev(%"struct.boost::arg.4"* @_ZN12_GLOBAL__N_12_4E), !dbg !3661
  ret void, !dbg !3661
}

; Function Attrs: noinline nounwind uwtable
define linkonce_odr dso_local void @_ZN5boost3argILi4EEC2Ev(%"struct.boost::arg.4"* %this) unnamed_addr #1 comdat align 2 !dbg !3662 {
entry:
  %this.addr = alloca %"struct.boost::arg.4"*, align 8
  store %"struct.boost::arg.4"* %this, %"struct.boost::arg.4"** %this.addr, align 8
  call void @llvm.dbg.declare(metadata %"struct.boost::arg.4"** %this.addr, metadata !3663, metadata !DIExpression()), !dbg !3665
  %this1 = load %"struct.boost::arg.4"*, %"struct.boost::arg.4"** %this.addr, align 8
  ret void, !dbg !3666
}

; Function Attrs: noinline uwtable
define internal void @__cxx_global_var_init.4() #0 section ".text.startup" !dbg !3667 {
entry:
  call void @_ZN5boost3argILi5EEC2Ev(%"struct.boost::arg.6"* @_ZN12_GLOBAL__N_12_5E), !dbg !3668
  ret void, !dbg !3668
}

; Function Attrs: noinline nounwind uwtable
define linkonce_odr dso_local void @_ZN5boost3argILi5EEC2Ev(%"struct.boost::arg.6"* %this) unnamed_addr #1 comdat align 2 !dbg !3669 {
entry:
  %this.addr = alloca %"struct.boost::arg.6"*, align 8
  store %"struct.boost::arg.6"* %this, %"struct.boost::arg.6"** %this.addr, align 8
  call void @llvm.dbg.declare(metadata %"struct.boost::arg.6"** %this.addr, metadata !3670, metadata !DIExpression()), !dbg !3672
  %this1 = load %"struct.boost::arg.6"*, %"struct.boost::arg.6"** %this.addr, align 8
  ret void, !dbg !3673
}

; Function Attrs: noinline uwtable
define internal void @__cxx_global_var_init.5() #0 section ".text.startup" !dbg !3674 {
entry:
  call void @_ZN5boost3argILi6EEC2Ev(%"struct.boost::arg.8"* @_ZN12_GLOBAL__N_12_6E), !dbg !3675
  ret void, !dbg !3675
}

; Function Attrs: noinline nounwind uwtable
define linkonce_odr dso_local void @_ZN5boost3argILi6EEC2Ev(%"struct.boost::arg.8"* %this) unnamed_addr #1 comdat align 2 !dbg !3676 {
entry:
  %this.addr = alloca %"struct.boost::arg.8"*, align 8
  store %"struct.boost::arg.8"* %this, %"struct.boost::arg.8"** %this.addr, align 8
  call void @llvm.dbg.declare(metadata %"struct.boost::arg.8"** %this.addr, metadata !3677, metadata !DIExpression()), !dbg !3679
  %this1 = load %"struct.boost::arg.8"*, %"struct.boost::arg.8"** %this.addr, align 8
  ret void, !dbg !3680
}

; Function Attrs: noinline uwtable
define internal void @__cxx_global_var_init.6() #0 section ".text.startup" !dbg !3681 {
entry:
  call void @_ZN5boost3argILi7EEC2Ev(%"struct.boost::arg.10"* @_ZN12_GLOBAL__N_12_7E), !dbg !3682
  ret void, !dbg !3682
}

; Function Attrs: noinline nounwind uwtable
define linkonce_odr dso_local void @_ZN5boost3argILi7EEC2Ev(%"struct.boost::arg.10"* %this) unnamed_addr #1 comdat align 2 !dbg !3683 {
entry:
  %this.addr = alloca %"struct.boost::arg.10"*, align 8
  store %"struct.boost::arg.10"* %this, %"struct.boost::arg.10"** %this.addr, align 8
  call void @llvm.dbg.declare(metadata %"struct.boost::arg.10"** %this.addr, metadata !3684, metadata !DIExpression()), !dbg !3686
  %this1 = load %"struct.boost::arg.10"*, %"struct.boost::arg.10"** %this.addr, align 8
  ret void, !dbg !3687
}

; Function Attrs: noinline uwtable
define internal void @__cxx_global_var_init.7() #0 section ".text.startup" !dbg !3688 {
entry:
  call void @_ZN5boost3argILi8EEC2Ev(%"struct.boost::arg.12"* @_ZN12_GLOBAL__N_12_8E), !dbg !3689
  ret void, !dbg !3689
}

; Function Attrs: noinline nounwind uwtable
define linkonce_odr dso_local void @_ZN5boost3argILi8EEC2Ev(%"struct.boost::arg.12"* %this) unnamed_addr #1 comdat align 2 !dbg !3690 {
entry:
  %this.addr = alloca %"struct.boost::arg.12"*, align 8
  store %"struct.boost::arg.12"* %this, %"struct.boost::arg.12"** %this.addr, align 8
  call void @llvm.dbg.declare(metadata %"struct.boost::arg.12"** %this.addr, metadata !3691, metadata !DIExpression()), !dbg !3693
  %this1 = load %"struct.boost::arg.12"*, %"struct.boost::arg.12"** %this.addr, align 8
  ret void, !dbg !3694
}

; Function Attrs: noinline uwtable
define internal void @__cxx_global_var_init.8() #0 section ".text.startup" !dbg !3695 {
entry:
  call void @_ZN5boost3argILi9EEC2Ev(%"struct.boost::arg.14"* @_ZN12_GLOBAL__N_12_9E), !dbg !3696
  ret void, !dbg !3696
}

; Function Attrs: noinline nounwind uwtable
define linkonce_odr dso_local void @_ZN5boost3argILi9EEC2Ev(%"struct.boost::arg.14"* %this) unnamed_addr #1 comdat align 2 !dbg !3697 {
entry:
  %this.addr = alloca %"struct.boost::arg.14"*, align 8
  store %"struct.boost::arg.14"* %this, %"struct.boost::arg.14"** %this.addr, align 8
  call void @llvm.dbg.declare(metadata %"struct.boost::arg.14"** %this.addr, metadata !3698, metadata !DIExpression()), !dbg !3700
  %this1 = load %"struct.boost::arg.14"*, %"struct.boost::arg.14"** %this.addr, align 8
  ret void, !dbg !3701
}

; Function Attrs: noinline uwtable
define internal void @__cxx_global_var_init.9() #0 section ".text.startup" !dbg !3702 {
entry:
  call void @_ZNSt8ios_base4InitC1Ev(%"class.std::ios_base::Init"* @_ZStL8__ioinit), !dbg !3703
  %0 = call i32 @__cxa_atexit(void (i8*)* bitcast (void (%"class.std::ios_base::Init"*)* @_ZNSt8ios_base4InitD1Ev to void (i8*)*), i8* getelementptr inbounds (%"class.std::ios_base::Init", %"class.std::ios_base::Init"* @_ZStL8__ioinit, i32 0, i32 0), i8* @__dso_handle) #4, !dbg !3703
  ret void, !dbg !3703
}

declare dso_local void @_ZNSt8ios_base4InitC1Ev(%"class.std::ios_base::Init"*) unnamed_addr #2

; Function Attrs: nounwind
declare dso_local void @_ZNSt8ios_base4InitD1Ev(%"class.std::ios_base::Init"*) unnamed_addr #3

; Function Attrs: nounwind
declare dso_local i32 @__cxa_atexit(void (i8*)*, i8*, i8*) #4

; Function Attrs: noinline uwtable
define weak_odr dso_local void @_ZN6dealii16LAPACKFullMatrixIdEC2Ej(%"class.dealii::LAPACKFullMatrix"* %this, i32 %n) unnamed_addr #0 comdat($_ZN6dealii16LAPACKFullMatrixIdEC5Ej) align 2 !dbg !3704 {
entry:
  %this.addr = alloca %"class.dealii::LAPACKFullMatrix"*, align 8
  %n.addr = alloca i32, align 4
  store %"class.dealii::LAPACKFullMatrix"* %this, %"class.dealii::LAPACKFullMatrix"** %this.addr, align 8
  call void @llvm.dbg.declare(metadata %"class.dealii::LAPACKFullMatrix"** %this.addr, metadata !3705, metadata !DIExpression()), !dbg !3707
  store i32 %n, i32* %n.addr, align 4
  call void @llvm.dbg.declare(metadata i32* %n.addr, metadata !3708, metadata !DIExpression()), !dbg !3709
  %this1 = load %"class.dealii::LAPACKFullMatrix"*, %"class.dealii::LAPACKFullMatrix"** %this.addr, align 8
  %0 = bitcast %"class.dealii::LAPACKFullMatrix"* %this1 to %"class.dealii::TransposeTable"*, !dbg !3710
  %1 = load i32, i32* %n.addr, align 4, !dbg !3711
  %2 = load i32, i32* %n.addr, align 4, !dbg !3712
  call void @_ZN6dealii14TransposeTableIdEC2Ejj(%"class.dealii::TransposeTable"* %0, i32 %1, i32 %2), !dbg !3713
  %3 = bitcast %"class.dealii::LAPACKFullMatrix"* %this1 to i32 (...)***, !dbg !3710
  store i32 (...)** bitcast (i8** getelementptr inbounds ({ [4 x i8*] }, { [4 x i8*] }* @_ZTVN6dealii16LAPACKFullMatrixIdEE, i32 0, inrange i32 0, i32 2) to i32 (...)**), i32 (...)*** %3, align 8, !dbg !3710
  %state = getelementptr inbounds %"class.dealii::LAPACKFullMatrix", %"class.dealii::LAPACKFullMatrix"* %this1, i32 0, i32 1, !dbg !3714
  store i32 0, i32* %state, align 4, !dbg !3714
  %work = getelementptr inbounds %"class.dealii::LAPACKFullMatrix", %"class.dealii::LAPACKFullMatrix"* %this1, i32 0, i32 3, !dbg !3715
  call void @_ZNSt6vectorIdSaIdEEC2Ev(%"class.std::vector"* %work) #4, !dbg !3715
  %ipiv = getelementptr inbounds %"class.dealii::LAPACKFullMatrix", %"class.dealii::LAPACKFullMatrix"* %this1, i32 0, i32 4, !dbg !3715
  call void @_ZNSt6vectorIiSaIiEEC2Ev(%"class.std::vector.19"* %ipiv) #4, !dbg !3715
  %inv_work = getelementptr inbounds %"class.dealii::LAPACKFullMatrix", %"class.dealii::LAPACKFullMatrix"* %this1, i32 0, i32 5, !dbg !3715
  call void @_ZNSt6vectorIdSaIdEEC2Ev(%"class.std::vector"* %inv_work) #4, !dbg !3715
  %wr = getelementptr inbounds %"class.dealii::LAPACKFullMatrix", %"class.dealii::LAPACKFullMatrix"* %this1, i32 0, i32 6, !dbg !3715
  call void @_ZNSt6vectorIdSaIdEEC2Ev(%"class.std::vector"* %wr) #4, !dbg !3715
  %wi = getelementptr inbounds %"class.dealii::LAPACKFullMatrix", %"class.dealii::LAPACKFullMatrix"* %this1, i32 0, i32 7, !dbg !3715
  call void @_ZNSt6vectorIdSaIdEEC2Ev(%"class.std::vector"* %wi) #4, !dbg !3715
  %vl = getelementptr inbounds %"class.dealii::LAPACKFullMatrix", %"class.dealii::LAPACKFullMatrix"* %this1, i32 0, i32 8, !dbg !3715
  call void @_ZNSt6vectorIdSaIdEEC2Ev(%"class.std::vector"* %vl) #4, !dbg !3715
  %vr = getelementptr inbounds %"class.dealii::LAPACKFullMatrix", %"class.dealii::LAPACKFullMatrix"* %this1, i32 0, i32 9, !dbg !3715
  call void @_ZNSt6vectorIdSaIdEEC2Ev(%"class.std::vector"* %vr) #4, !dbg !3715
  ret void, !dbg !3717
}

; Function Attrs: nounwind readnone speculatable willreturn
declare void @llvm.dbg.declare(metadata, metadata, metadata) #5

; Function Attrs: noinline uwtable
define linkonce_odr dso_local void @_ZN6dealii14TransposeTableIdEC2Ejj(%"class.dealii::TransposeTable"* %this, i32 %size1, i32 %size2) unnamed_addr #0 comdat align 2 !dbg !3719 {
entry:
  %this.addr = alloca %"class.dealii::TransposeTable"*, align 8
  %size1.addr = alloca i32, align 4
  %size2.addr = alloca i32, align 4
  %ref.tmp = alloca %"class.dealii::TableIndices", align 4
  store %"class.dealii::TransposeTable"* %this, %"class.dealii::TransposeTable"** %this.addr, align 8
  call void @llvm.dbg.declare(metadata %"class.dealii::TransposeTable"** %this.addr, metadata !3720, metadata !DIExpression()), !dbg !3722
  store i32 %size1, i32* %size1.addr, align 4
  call void @llvm.dbg.declare(metadata i32* %size1.addr, metadata !3723, metadata !DIExpression()), !dbg !3724
  store i32 %size2, i32* %size2.addr, align 4
  call void @llvm.dbg.declare(metadata i32* %size2.addr, metadata !3725, metadata !DIExpression()), !dbg !3726
  %this1 = load %"class.dealii::TransposeTable"*, %"class.dealii::TransposeTable"** %this.addr, align 8
  %0 = bitcast %"class.dealii::TransposeTable"* %this1 to %"class.dealii::TableBase"*, !dbg !3727
  %1 = load i32, i32* %size2.addr, align 4, !dbg !3728
  %2 = load i32, i32* %size1.addr, align 4, !dbg !3729
  call void @_ZN6dealii12TableIndicesILi2EEC2Ejj(%"class.dealii::TableIndices"* %ref.tmp, i32 %1, i32 %2), !dbg !3730
  call void @_ZN6dealii9TableBaseILi2EdEC2ERKNS_12TableIndicesILi2EEE(%"class.dealii::TableBase"* %0, %"class.dealii::TableIndices"* dereferenceable(8) %ref.tmp), !dbg !3731
  %3 = bitcast %"class.dealii::TransposeTable"* %this1 to i32 (...)***, !dbg !3727
  store i32 (...)** bitcast (i8** getelementptr inbounds ({ [4 x i8*] }, { [4 x i8*] }* @_ZTVN6dealii14TransposeTableIdEE, i32 0, inrange i32 0, i32 2) to i32 (...)**), i32 (...)*** %3, align 8, !dbg !3727
  ret void, !dbg !3732
}

; Function Attrs: noinline nounwind uwtable
define linkonce_odr dso_local void @_ZNSt6vectorIdSaIdEEC2Ev(%"class.std::vector"* %this) unnamed_addr #1 comdat align 2 !dbg !3733 {
entry:
  %this.addr = alloca %"class.std::vector"*, align 8
  store %"class.std::vector"* %this, %"class.std::vector"** %this.addr, align 8
  call void @llvm.dbg.declare(metadata %"class.std::vector"** %this.addr, metadata !3734, metadata !DIExpression()), !dbg !3736
  %this1 = load %"class.std::vector"*, %"class.std::vector"** %this.addr, align 8
  %0 = bitcast %"class.std::vector"* %this1 to %"struct.std::_Vector_base"*, !dbg !3737
  call void @_ZNSt12_Vector_baseIdSaIdEEC2Ev(%"struct.std::_Vector_base"* %0) #4, !dbg !3738
  ret void, !dbg !3737
}

; Function Attrs: noinline nounwind uwtable
define linkonce_odr dso_local void @_ZNSt6vectorIiSaIiEEC2Ev(%"class.std::vector.19"* %this) unnamed_addr #1 comdat align 2 !dbg !3739 {
entry:
  %this.addr = alloca %"class.std::vector.19"*, align 8
  store %"class.std::vector.19"* %this, %"class.std::vector.19"** %this.addr, align 8
  call void @llvm.dbg.declare(metadata %"class.std::vector.19"** %this.addr, metadata !3740, metadata !DIExpression()), !dbg !3742
  %this1 = load %"class.std::vector.19"*, %"class.std::vector.19"** %this.addr, align 8
  %0 = bitcast %"class.std::vector.19"* %this1 to %"struct.std::_Vector_base.20"*, !dbg !3743
  call void @_ZNSt12_Vector_baseIiSaIiEEC2Ev(%"struct.std::_Vector_base.20"* %0) #4, !dbg !3744
  ret void, !dbg !3743
}

; Function Attrs: noinline uwtable
define weak_odr dso_local void @_ZN6dealii16LAPACKFullMatrixIdEC2Ejj(%"class.dealii::LAPACKFullMatrix"* %this, i32 %m, i32 %n) unnamed_addr #0 comdat($_ZN6dealii16LAPACKFullMatrixIdEC5Ejj) align 2 !dbg !3745 {
entry:
  %this.addr = alloca %"class.dealii::LAPACKFullMatrix"*, align 8
  %m.addr = alloca i32, align 4
  %n.addr = alloca i32, align 4
  store %"class.dealii::LAPACKFullMatrix"* %this, %"class.dealii::LAPACKFullMatrix"** %this.addr, align 8
  call void @llvm.dbg.declare(metadata %"class.dealii::LAPACKFullMatrix"** %this.addr, metadata !3746, metadata !DIExpression()), !dbg !3747
  store i32 %m, i32* %m.addr, align 4
  call void @llvm.dbg.declare(metadata i32* %m.addr, metadata !3748, metadata !DIExpression()), !dbg !3749
  store i32 %n, i32* %n.addr, align 4
  call void @llvm.dbg.declare(metadata i32* %n.addr, metadata !3750, metadata !DIExpression()), !dbg !3751
  %this1 = load %"class.dealii::LAPACKFullMatrix"*, %"class.dealii::LAPACKFullMatrix"** %this.addr, align 8
  %0 = bitcast %"class.dealii::LAPACKFullMatrix"* %this1 to %"class.dealii::TransposeTable"*, !dbg !3752
  %1 = load i32, i32* %m.addr, align 4, !dbg !3753
  %2 = load i32, i32* %n.addr, align 4, !dbg !3754
  call void @_ZN6dealii14TransposeTableIdEC2Ejj(%"class.dealii::TransposeTable"* %0, i32 %1, i32 %2), !dbg !3755
  %3 = bitcast %"class.dealii::LAPACKFullMatrix"* %this1 to i32 (...)***, !dbg !3752
  store i32 (...)** bitcast (i8** getelementptr inbounds ({ [4 x i8*] }, { [4 x i8*] }* @_ZTVN6dealii16LAPACKFullMatrixIdEE, i32 0, inrange i32 0, i32 2) to i32 (...)**), i32 (...)*** %3, align 8, !dbg !3752
  %state = getelementptr inbounds %"class.dealii::LAPACKFullMatrix", %"class.dealii::LAPACKFullMatrix"* %this1, i32 0, i32 1, !dbg !3756
  store i32 0, i32* %state, align 4, !dbg !3756
  %work = getelementptr inbounds %"class.dealii::LAPACKFullMatrix", %"class.dealii::LAPACKFullMatrix"* %this1, i32 0, i32 3, !dbg !3757
  call void @_ZNSt6vectorIdSaIdEEC2Ev(%"class.std::vector"* %work) #4, !dbg !3757
  %ipiv = getelementptr inbounds %"class.dealii::LAPACKFullMatrix", %"class.dealii::LAPACKFullMatrix"* %this1, i32 0, i32 4, !dbg !3757
  call void @_ZNSt6vectorIiSaIiEEC2Ev(%"class.std::vector.19"* %ipiv) #4, !dbg !3757
  %inv_work = getelementptr inbounds %"class.dealii::LAPACKFullMatrix", %"class.dealii::LAPACKFullMatrix"* %this1, i32 0, i32 5, !dbg !3757
  call void @_ZNSt6vectorIdSaIdEEC2Ev(%"class.std::vector"* %inv_work) #4, !dbg !3757
  %wr = getelementptr inbounds %"class.dealii::LAPACKFullMatrix", %"class.dealii::LAPACKFullMatrix"* %this1, i32 0, i32 6, !dbg !3757
  call void @_ZNSt6vectorIdSaIdEEC2Ev(%"class.std::vector"* %wr) #4, !dbg !3757
  %wi = getelementptr inbounds %"class.dealii::LAPACKFullMatrix", %"class.dealii::LAPACKFullMatrix"* %this1, i32 0, i32 7, !dbg !3757
  call void @_ZNSt6vectorIdSaIdEEC2Ev(%"class.std::vector"* %wi) #4, !dbg !3757
  %vl = getelementptr inbounds %"class.dealii::LAPACKFullMatrix", %"class.dealii::LAPACKFullMatrix"* %this1, i32 0, i32 8, !dbg !3757
  call void @_ZNSt6vectorIdSaIdEEC2Ev(%"class.std::vector"* %vl) #4, !dbg !3757
  %vr = getelementptr inbounds %"class.dealii::LAPACKFullMatrix", %"class.dealii::LAPACKFullMatrix"* %this1, i32 0, i32 9, !dbg !3757
  call void @_ZNSt6vectorIdSaIdEEC2Ev(%"class.std::vector"* %vr) #4, !dbg !3757
  ret void, !dbg !3759
}

; Function Attrs: noinline uwtable
define weak_odr dso_local void @_ZN6dealii16LAPACKFullMatrixIdEC2ERKS1_(%"class.dealii::LAPACKFullMatrix"* %this, %"class.dealii::LAPACKFullMatrix"* dereferenceable(272) %M) unnamed_addr #0 comdat($_ZN6dealii16LAPACKFullMatrixIdEC5ERKS1_) align 2 !dbg !3761 {
entry:
  %this.addr = alloca %"class.dealii::LAPACKFullMatrix"*, align 8
  %M.addr = alloca %"class.dealii::LAPACKFullMatrix"*, align 8
  store %"class.dealii::LAPACKFullMatrix"* %this, %"class.dealii::LAPACKFullMatrix"** %this.addr, align 8
  call void @llvm.dbg.declare(metadata %"class.dealii::LAPACKFullMatrix"** %this.addr, metadata !3762, metadata !DIExpression()), !dbg !3763
  store %"class.dealii::LAPACKFullMatrix"* %M, %"class.dealii::LAPACKFullMatrix"** %M.addr, align 8
  call void @llvm.dbg.declare(metadata %"class.dealii::LAPACKFullMatrix"** %M.addr, metadata !3764, metadata !DIExpression()), !dbg !3765
  %this1 = load %"class.dealii::LAPACKFullMatrix"*, %"class.dealii::LAPACKFullMatrix"** %this.addr, align 8
  %0 = bitcast %"class.dealii::LAPACKFullMatrix"* %this1 to %"class.dealii::TransposeTable"*, !dbg !3766
  %1 = load %"class.dealii::LAPACKFullMatrix"*, %"class.dealii::LAPACKFullMatrix"** %M.addr, align 8, !dbg !3767
  %2 = bitcast %"class.dealii::LAPACKFullMatrix"* %1 to %"class.dealii::TransposeTable"*, !dbg !3767
  call void @_ZN6dealii14TransposeTableIdEC2ERKS1_(%"class.dealii::TransposeTable"* %0, %"class.dealii::TransposeTable"* dereferenceable(96) %2), !dbg !3768
  %3 = bitcast %"class.dealii::LAPACKFullMatrix"* %this1 to i32 (...)***, !dbg !3766
  store i32 (...)** bitcast (i8** getelementptr inbounds ({ [4 x i8*] }, { [4 x i8*] }* @_ZTVN6dealii16LAPACKFullMatrixIdEE, i32 0, inrange i32 0, i32 2) to i32 (...)**), i32 (...)*** %3, align 8, !dbg !3766
  %state = getelementptr inbounds %"class.dealii::LAPACKFullMatrix", %"class.dealii::LAPACKFullMatrix"* %this1, i32 0, i32 1, !dbg !3769
  store i32 0, i32* %state, align 4, !dbg !3769
  %work = getelementptr inbounds %"class.dealii::LAPACKFullMatrix", %"class.dealii::LAPACKFullMatrix"* %this1, i32 0, i32 3, !dbg !3770
  call void @_ZNSt6vectorIdSaIdEEC2Ev(%"class.std::vector"* %work) #4, !dbg !3770
  %ipiv = getelementptr inbounds %"class.dealii::LAPACKFullMatrix", %"class.dealii::LAPACKFullMatrix"* %this1, i32 0, i32 4, !dbg !3770
  call void @_ZNSt6vectorIiSaIiEEC2Ev(%"class.std::vector.19"* %ipiv) #4, !dbg !3770
  %inv_work = getelementptr inbounds %"class.dealii::LAPACKFullMatrix", %"class.dealii::LAPACKFullMatrix"* %this1, i32 0, i32 5, !dbg !3770
  call void @_ZNSt6vectorIdSaIdEEC2Ev(%"class.std::vector"* %inv_work) #4, !dbg !3770
  %wr = getelementptr inbounds %"class.dealii::LAPACKFullMatrix", %"class.dealii::LAPACKFullMatrix"* %this1, i32 0, i32 6, !dbg !3770
  call void @_ZNSt6vectorIdSaIdEEC2Ev(%"class.std::vector"* %wr) #4, !dbg !3770
  %wi = getelementptr inbounds %"class.dealii::LAPACKFullMatrix", %"class.dealii::LAPACKFullMatrix"* %this1, i32 0, i32 7, !dbg !3770
  call void @_ZNSt6vectorIdSaIdEEC2Ev(%"class.std::vector"* %wi) #4, !dbg !3770
  %vl = getelementptr inbounds %"class.dealii::LAPACKFullMatrix", %"class.dealii::LAPACKFullMatrix"* %this1, i32 0, i32 8, !dbg !3770
  call void @_ZNSt6vectorIdSaIdEEC2Ev(%"class.std::vector"* %vl) #4, !dbg !3770
  %vr = getelementptr inbounds %"class.dealii::LAPACKFullMatrix", %"class.dealii::LAPACKFullMatrix"* %this1, i32 0, i32 9, !dbg !3770
  call void @_ZNSt6vectorIdSaIdEEC2Ev(%"class.std::vector"* %vr) #4, !dbg !3770
  ret void, !dbg !3772
}

; Function Attrs: noinline uwtable
define linkonce_odr dso_local void @_ZN6dealii14TransposeTableIdEC2ERKS1_(%"class.dealii::TransposeTable"* %this, %"class.dealii::TransposeTable"* dereferenceable(96) %0) unnamed_addr #0 comdat align 2 !dbg !3774 {
entry:
  %this.addr = alloca %"class.dealii::TransposeTable"*, align 8
  %.addr = alloca %"class.dealii::TransposeTable"*, align 8
  store %"class.dealii::TransposeTable"* %this, %"class.dealii::TransposeTable"** %this.addr, align 8
  call void @llvm.dbg.declare(metadata %"class.dealii::TransposeTable"** %this.addr, metadata !3779, metadata !DIExpression()), !dbg !3780
  store %"class.dealii::TransposeTable"* %0, %"class.dealii::TransposeTable"** %.addr, align 8
  call void @llvm.dbg.declare(metadata %"class.dealii::TransposeTable"** %.addr, metadata !3781, metadata !DIExpression()), !dbg !3780
  %this1 = load %"class.dealii::TransposeTable"*, %"class.dealii::TransposeTable"** %this.addr, align 8
  %1 = bitcast %"class.dealii::TransposeTable"* %this1 to %"class.dealii::TableBase"*, !dbg !3782
  %2 = load %"class.dealii::TransposeTable"*, %"class.dealii::TransposeTable"** %.addr, align 8, !dbg !3782
  %3 = bitcast %"class.dealii::TransposeTable"* %2 to %"class.dealii::TableBase"*, !dbg !3782
  call void @_ZN6dealii9TableBaseILi2EdEC2ERKS1_(%"class.dealii::TableBase"* %1, %"class.dealii::TableBase"* dereferenceable(96) %3), !dbg !3782
  %4 = bitcast %"class.dealii::TransposeTable"* %this1 to i32 (...)***, !dbg !3782
  store i32 (...)** bitcast (i8** getelementptr inbounds ({ [4 x i8*] }, { [4 x i8*] }* @_ZTVN6dealii14TransposeTableIdEE, i32 0, inrange i32 0, i32 2) to i32 (...)**), i32 (...)*** %4, align 8, !dbg !3782
  ret void, !dbg !3782
}

; Function Attrs: noinline uwtable
define weak_odr dso_local dereferenceable(272) %"class.dealii::LAPACKFullMatrix"* @_ZN6dealii16LAPACKFullMatrixIdEaSERKS1_(%"class.dealii::LAPACKFullMatrix"* %this, %"class.dealii::LAPACKFullMatrix"* dereferenceable(272) %M) #0 comdat align 2 !dbg !3783 {
entry:
  %this.addr = alloca %"class.dealii::LAPACKFullMatrix"*, align 8
  %M.addr = alloca %"class.dealii::LAPACKFullMatrix"*, align 8
  store %"class.dealii::LAPACKFullMatrix"* %this, %"class.dealii::LAPACKFullMatrix"** %this.addr, align 8
  call void @llvm.dbg.declare(metadata %"class.dealii::LAPACKFullMatrix"** %this.addr, metadata !3784, metadata !DIExpression()), !dbg !3785
  store %"class.dealii::LAPACKFullMatrix"* %M, %"class.dealii::LAPACKFullMatrix"** %M.addr, align 8
  call void @llvm.dbg.declare(metadata %"class.dealii::LAPACKFullMatrix"** %M.addr, metadata !3786, metadata !DIExpression()), !dbg !3787
  %this1 = load %"class.dealii::LAPACKFullMatrix"*, %"class.dealii::LAPACKFullMatrix"** %this.addr, align 8
  %0 = bitcast %"class.dealii::LAPACKFullMatrix"* %this1 to %"class.dealii::TransposeTable"*, !dbg !3788
  %1 = load %"class.dealii::LAPACKFullMatrix"*, %"class.dealii::LAPACKFullMatrix"** %M.addr, align 8, !dbg !3789
  %2 = bitcast %"class.dealii::LAPACKFullMatrix"* %1 to %"class.dealii::TransposeTable"*, !dbg !3789
  %call = call dereferenceable(96) %"class.dealii::TransposeTable"* @_ZN6dealii14TransposeTableIdEaSERKS1_(%"class.dealii::TransposeTable"* %0, %"class.dealii::TransposeTable"* dereferenceable(96) %2), !dbg !3788
  %state = getelementptr inbounds %"class.dealii::LAPACKFullMatrix", %"class.dealii::LAPACKFullMatrix"* %this1, i32 0, i32 1, !dbg !3790
  store i32 0, i32* %state, align 4, !dbg !3791
  ret %"class.dealii::LAPACKFullMatrix"* %this1, !dbg !3792
}

; Function Attrs: noinline uwtable
define linkonce_odr dso_local dereferenceable(96) %"class.dealii::TransposeTable"* @_ZN6dealii14TransposeTableIdEaSERKS1_(%"class.dealii::TransposeTable"* %this, %"class.dealii::TransposeTable"* dereferenceable(96) %0) #0 comdat align 2 !dbg !3793 {
entry:
  %this.addr = alloca %"class.dealii::TransposeTable"*, align 8
  %.addr = alloca %"class.dealii::TransposeTable"*, align 8
  store %"class.dealii::TransposeTable"* %this, %"class.dealii::TransposeTable"** %this.addr, align 8
  call void @llvm.dbg.declare(metadata %"class.dealii::TransposeTable"** %this.addr, metadata !3798, metadata !DIExpression()), !dbg !3799
  store %"class.dealii::TransposeTable"* %0, %"class.dealii::TransposeTable"** %.addr, align 8
  call void @llvm.dbg.declare(metadata %"class.dealii::TransposeTable"** %.addr, metadata !3800, metadata !DIExpression()), !dbg !3799
  %this1 = load %"class.dealii::TransposeTable"*, %"class.dealii::TransposeTable"** %this.addr, align 8
  %1 = bitcast %"class.dealii::TransposeTable"* %this1 to %"class.dealii::TableBase"*, !dbg !3801
  %2 = load %"class.dealii::TransposeTable"*, %"class.dealii::TransposeTable"** %.addr, align 8, !dbg !3801
  %3 = bitcast %"class.dealii::TransposeTable"* %2 to %"class.dealii::TableBase"*, !dbg !3801
  %call = call dereferenceable(96) %"class.dealii::TableBase"* @_ZN6dealii9TableBaseILi2EdEaSERKS1_(%"class.dealii::TableBase"* %1, %"class.dealii::TableBase"* dereferenceable(96) %3), !dbg !3801
  ret %"class.dealii::TransposeTable"* %this1, !dbg !3801
}

; Function Attrs: noinline uwtable
define weak_odr dso_local dereferenceable(272) %"class.dealii::LAPACKFullMatrix"* @_ZN6dealii16LAPACKFullMatrixIdEaSEd(%"class.dealii::LAPACKFullMatrix"* %this, double %d) #0 comdat align 2 !dbg !3803 {
entry:
  %this.addr = alloca %"class.dealii::LAPACKFullMatrix"*, align 8
  %d.addr = alloca double, align 8
  %ref.tmp = alloca double, align 8
  store %"class.dealii::LAPACKFullMatrix"* %this, %"class.dealii::LAPACKFullMatrix"** %this.addr, align 8
  call void @llvm.dbg.declare(metadata %"class.dealii::LAPACKFullMatrix"** %this.addr, metadata !3804, metadata !DIExpression()), !dbg !3805
  store double %d, double* %d.addr, align 8
  call void @llvm.dbg.declare(metadata double* %d.addr, metadata !3806, metadata !DIExpression()), !dbg !3807
  %this1 = load %"class.dealii::LAPACKFullMatrix"*, %"class.dealii::LAPACKFullMatrix"** %this.addr, align 8
  %0 = bitcast %"class.dealii::LAPACKFullMatrix"* %this1 to %"class.dealii::TableBase"*, !dbg !3808
  %call = call i32 @_ZNK6dealii9TableBaseILi2EdE10n_elementsEv(%"class.dealii::TableBase"* %0), !dbg !3808
  %cmp = icmp ne i32 %call, 0, !dbg !3810
  br i1 %cmp, label %if.then, label %if.end, !dbg !3811

if.then:                                          ; preds = %entry
  %1 = bitcast %"class.dealii::LAPACKFullMatrix"* %this1 to %"class.dealii::TableBase"*, !dbg !3812
  %val = getelementptr inbounds %"class.dealii::TableBase", %"class.dealii::TableBase"* %1, i32 0, i32 1, !dbg !3812
  %2 = load double*, double** %val, align 8, !dbg !3812
  %3 = bitcast %"class.dealii::LAPACKFullMatrix"* %this1 to %"class.dealii::TableBase"*, !dbg !3813
  %call2 = call i32 @_ZNK6dealii9TableBaseILi2EdE10n_elementsEv(%"class.dealii::TableBase"* %3), !dbg !3813
  store double 0.000000e+00, double* %ref.tmp, align 8, !dbg !3814
  %call3 = call double* @_ZSt6fill_nIPdjdET_S1_T0_RKT1_(double* %2, i32 %call2, double* dereferenceable(8) %ref.tmp), !dbg !3815
  br label %if.end, !dbg !3815

if.end:                                           ; preds = %if.then, %entry
  %state = getelementptr inbounds %"class.dealii::LAPACKFullMatrix", %"class.dealii::LAPACKFullMatrix"* %this1, i32 0, i32 1, !dbg !3816
  store i32 0, i32* %state, align 4, !dbg !3817
  ret %"class.dealii::LAPACKFullMatrix"* %this1, !dbg !3818
}

; Function Attrs: noinline uwtable
define linkonce_odr dso_local i32 @_ZNK6dealii9TableBaseILi2EdE10n_elementsEv(%"class.dealii::TableBase"* %this) #0 comdat align 2 !dbg !3819 {
entry:
  %this.addr = alloca %"class.dealii::TableBase"*, align 8
  %s = alloca i32, align 4
  %n = alloca i32, align 4
  store %"class.dealii::TableBase"* %this, %"class.dealii::TableBase"** %this.addr, align 8
  call void @llvm.dbg.declare(metadata %"class.dealii::TableBase"** %this.addr, metadata !3820, metadata !DIExpression()), !dbg !3822
  %this1 = load %"class.dealii::TableBase"*, %"class.dealii::TableBase"** %this.addr, align 8
  call void @llvm.dbg.declare(metadata i32* %s, metadata !3823, metadata !DIExpression()), !dbg !3824
  store i32 1, i32* %s, align 4, !dbg !3824
  call void @llvm.dbg.declare(metadata i32* %n, metadata !3825, metadata !DIExpression()), !dbg !3827
  store i32 0, i32* %n, align 4, !dbg !3827
  br label %for.cond, !dbg !3828

for.cond:                                         ; preds = %for.inc, %entry
  %0 = load i32, i32* %n, align 4, !dbg !3829
  %cmp = icmp ult i32 %0, 2, !dbg !3831
  br i1 %cmp, label %for.body, label %for.end, !dbg !3832

for.body:                                         ; preds = %for.cond
  %table_size = getelementptr inbounds %"class.dealii::TableBase", %"class.dealii::TableBase"* %this1, i32 0, i32 3, !dbg !3833
  %1 = bitcast %"class.dealii::TableIndices"* %table_size to %"class.dealii::TableIndicesBase"*, !dbg !3833
  %2 = load i32, i32* %n, align 4, !dbg !3834
  %call = call i32 @_ZNK6dealii16TableIndicesBaseILi2EEixEj(%"class.dealii::TableIndicesBase"* %1, i32 %2), !dbg !3833
  %3 = load i32, i32* %s, align 4, !dbg !3835
  %mul = mul i32 %3, %call, !dbg !3835
  store i32 %mul, i32* %s, align 4, !dbg !3835
  br label %for.inc, !dbg !3836

for.inc:                                          ; preds = %for.body
  %4 = load i32, i32* %n, align 4, !dbg !3837
  %inc = add i32 %4, 1, !dbg !3837
  store i32 %inc, i32* %n, align 4, !dbg !3837
  br label %for.cond, !dbg !3838, !llvm.loop !3839

for.end:                                          ; preds = %for.cond
  %5 = load i32, i32* %s, align 4, !dbg !3841
  ret i32 %5, !dbg !3842
}

; Function Attrs: noinline uwtable
define linkonce_odr dso_local double* @_ZSt6fill_nIPdjdET_S1_T0_RKT1_(double* %__first, i32 %__n, double* dereferenceable(8) %__value) #0 comdat !dbg !3843 {
entry:
  %__first.addr = alloca double*, align 8
  %__n.addr = alloca i32, align 4
  %__value.addr = alloca double*, align 8
  %agg.tmp = alloca %"struct.std::random_access_iterator_tag", align 1
  %undef.agg.tmp = alloca %"struct.std::random_access_iterator_tag", align 1
  store double* %__first, double** %__first.addr, align 8
  call void @llvm.dbg.declare(metadata double** %__first.addr, metadata !3850, metadata !DIExpression()), !dbg !3852
  store i32 %__n, i32* %__n.addr, align 4
  call void @llvm.dbg.declare(metadata i32* %__n.addr, metadata !3853, metadata !DIExpression()), !dbg !3854
  store double* %__value, double** %__value.addr, align 8
  call void @llvm.dbg.declare(metadata double** %__value.addr, metadata !3855, metadata !DIExpression()), !dbg !3856
  %0 = load double*, double** %__first.addr, align 8, !dbg !3857
  %1 = load i32, i32* %__n.addr, align 4, !dbg !3858
  %call = call i32 @_ZSt17__size_to_integerj(i32 %1), !dbg !3859
  %2 = load double*, double** %__value.addr, align 8, !dbg !3860
  call void @_ZSt19__iterator_categoryIPdENSt15iterator_traitsIT_E17iterator_categoryERKS2_(double** dereferenceable(8) %__first.addr), !dbg !3861
  %call1 = call double* @_ZSt10__fill_n_aIPdjdET_S1_T0_RKT1_St26random_access_iterator_tag(double* %0, i32 %call, double* dereferenceable(8) %2), !dbg !3862
  ret double* %call1, !dbg !3863
}

; Function Attrs: noinline nounwind uwtable
define weak_odr dso_local void @_ZNK6dealii16LAPACKFullMatrixIdE5vmultERNS_6VectorIdEERKS3_b(%"class.dealii::LAPACKFullMatrix"* %this, %"class.dealii::Vector"* nonnull %0, %"class.dealii::Vector"* nonnull %1, i1 zeroext %2) #1 comdat align 2 !dbg !3864 {
entry:
  %this.addr = alloca %"class.dealii::LAPACKFullMatrix"*, align 8
  %.addr = alloca %"class.dealii::Vector"*, align 8
  %.addr1 = alloca %"class.dealii::Vector"*, align 8
  %.addr2 = alloca i8, align 1
  store %"class.dealii::LAPACKFullMatrix"* %this, %"class.dealii::LAPACKFullMatrix"** %this.addr, align 8
  call void @llvm.dbg.declare(metadata %"class.dealii::LAPACKFullMatrix"** %this.addr, metadata !3865, metadata !DIExpression()), !dbg !3866
  store %"class.dealii::Vector"* %0, %"class.dealii::Vector"** %.addr, align 8
  call void @llvm.dbg.declare(metadata %"class.dealii::Vector"** %.addr, metadata !3867, metadata !DIExpression()), !dbg !3868
  store %"class.dealii::Vector"* %1, %"class.dealii::Vector"** %.addr1, align 8
  call void @llvm.dbg.declare(metadata %"class.dealii::Vector"** %.addr1, metadata !3869, metadata !DIExpression()), !dbg !3870
  %frombool = zext i1 %2 to i8
  store i8 %frombool, i8* %.addr2, align 1
  call void @llvm.dbg.declare(metadata i8* %.addr2, metadata !3871, metadata !DIExpression()), !dbg !3872
  %this3 = load %"class.dealii::LAPACKFullMatrix"*, %"class.dealii::LAPACKFullMatrix"** %this.addr, align 8
  ret void, !dbg !3873
}

; Function Attrs: noinline nounwind uwtable
define weak_odr dso_local void @_ZNK6dealii16LAPACKFullMatrixIdE9vmult_addERNS_6VectorIdEERKS3_(%"class.dealii::LAPACKFullMatrix"* %this, %"class.dealii::Vector"* nonnull %w, %"class.dealii::Vector"* nonnull %v) #1 comdat align 2 !dbg !3874 {
entry:
  %this.addr = alloca %"class.dealii::LAPACKFullMatrix"*, align 8
  %w.addr = alloca %"class.dealii::Vector"*, align 8
  %v.addr = alloca %"class.dealii::Vector"*, align 8
  store %"class.dealii::LAPACKFullMatrix"* %this, %"class.dealii::LAPACKFullMatrix"** %this.addr, align 8
  call void @llvm.dbg.declare(metadata %"class.dealii::LAPACKFullMatrix"** %this.addr, metadata !3875, metadata !DIExpression()), !dbg !3876
  store %"class.dealii::Vector"* %w, %"class.dealii::Vector"** %w.addr, align 8
  call void @llvm.dbg.declare(metadata %"class.dealii::Vector"** %w.addr, metadata !3877, metadata !DIExpression()), !dbg !3878
  store %"class.dealii::Vector"* %v, %"class.dealii::Vector"** %v.addr, align 8
  call void @llvm.dbg.declare(metadata %"class.dealii::Vector"** %v.addr, metadata !3879, metadata !DIExpression()), !dbg !3880
  %this1 = load %"class.dealii::LAPACKFullMatrix"*, %"class.dealii::LAPACKFullMatrix"** %this.addr, align 8
  %0 = load %"class.dealii::Vector"*, %"class.dealii::Vector"** %w.addr, align 8, !dbg !3881
  %1 = load %"class.dealii::Vector"*, %"class.dealii::Vector"** %v.addr, align 8, !dbg !3882
  call void @_ZNK6dealii16LAPACKFullMatrixIdE5vmultERNS_6VectorIdEERKS3_b(%"class.dealii::LAPACKFullMatrix"* %this1, %"class.dealii::Vector"* nonnull %0, %"class.dealii::Vector"* nonnull %1, i1 zeroext true), !dbg !3883
  ret void, !dbg !3884
}

; Function Attrs: noinline nounwind uwtable
define weak_odr dso_local void @_ZNK6dealii16LAPACKFullMatrixIdE6TvmultERNS_6VectorIdEERKS3_b(%"class.dealii::LAPACKFullMatrix"* %this, %"class.dealii::Vector"* nonnull %0, %"class.dealii::Vector"* nonnull %1, i1 zeroext %2) #1 comdat align 2 !dbg !3885 {
entry:
  %this.addr = alloca %"class.dealii::LAPACKFullMatrix"*, align 8
  %.addr = alloca %"class.dealii::Vector"*, align 8
  %.addr1 = alloca %"class.dealii::Vector"*, align 8
  %.addr2 = alloca i8, align 1
  store %"class.dealii::LAPACKFullMatrix"* %this, %"class.dealii::LAPACKFullMatrix"** %this.addr, align 8
  call void @llvm.dbg.declare(metadata %"class.dealii::LAPACKFullMatrix"** %this.addr, metadata !3886, metadata !DIExpression()), !dbg !3887
  store %"class.dealii::Vector"* %0, %"class.dealii::Vector"** %.addr, align 8
  call void @llvm.dbg.declare(metadata %"class.dealii::Vector"** %.addr, metadata !3888, metadata !DIExpression()), !dbg !3889
  store %"class.dealii::Vector"* %1, %"class.dealii::Vector"** %.addr1, align 8
  call void @llvm.dbg.declare(metadata %"class.dealii::Vector"** %.addr1, metadata !3890, metadata !DIExpression()), !dbg !3891
  %frombool = zext i1 %2 to i8
  store i8 %frombool, i8* %.addr2, align 1
  call void @llvm.dbg.declare(metadata i8* %.addr2, metadata !3892, metadata !DIExpression()), !dbg !3893
  %this3 = load %"class.dealii::LAPACKFullMatrix"*, %"class.dealii::LAPACKFullMatrix"** %this.addr, align 8
  ret void, !dbg !3894
}

; Function Attrs: noinline nounwind uwtable
define weak_odr dso_local void @_ZNK6dealii16LAPACKFullMatrixIdE10Tvmult_addERNS_6VectorIdEERKS3_(%"class.dealii::LAPACKFullMatrix"* %this, %"class.dealii::Vector"* nonnull %w, %"class.dealii::Vector"* nonnull %v) #1 comdat align 2 !dbg !3895 {
entry:
  %this.addr = alloca %"class.dealii::LAPACKFullMatrix"*, align 8
  %w.addr = alloca %"class.dealii::Vector"*, align 8
  %v.addr = alloca %"class.dealii::Vector"*, align 8
  store %"class.dealii::LAPACKFullMatrix"* %this, %"class.dealii::LAPACKFullMatrix"** %this.addr, align 8
  call void @llvm.dbg.declare(metadata %"class.dealii::LAPACKFullMatrix"** %this.addr, metadata !3896, metadata !DIExpression()), !dbg !3897
  store %"class.dealii::Vector"* %w, %"class.dealii::Vector"** %w.addr, align 8
  call void @llvm.dbg.declare(metadata %"class.dealii::Vector"** %w.addr, metadata !3898, metadata !DIExpression()), !dbg !3899
  store %"class.dealii::Vector"* %v, %"class.dealii::Vector"** %v.addr, align 8
  call void @llvm.dbg.declare(metadata %"class.dealii::Vector"** %v.addr, metadata !3900, metadata !DIExpression()), !dbg !3901
  %this1 = load %"class.dealii::LAPACKFullMatrix"*, %"class.dealii::LAPACKFullMatrix"** %this.addr, align 8
  %0 = load %"class.dealii::Vector"*, %"class.dealii::Vector"** %w.addr, align 8, !dbg !3902
  %1 = load %"class.dealii::Vector"*, %"class.dealii::Vector"** %v.addr, align 8, !dbg !3903
  call void @_ZNK6dealii16LAPACKFullMatrixIdE6TvmultERNS_6VectorIdEERKS3_b(%"class.dealii::LAPACKFullMatrix"* %this1, %"class.dealii::Vector"* nonnull %0, %"class.dealii::Vector"* nonnull %1, i1 zeroext true), !dbg !3904
  ret void, !dbg !3905
}

; Function Attrs: noinline nounwind uwtable
define weak_odr dso_local void @_ZN6dealii16LAPACKFullMatrixIdE24compute_lu_factorizationEv(%"class.dealii::LAPACKFullMatrix"* %this) #1 comdat align 2 !dbg !3906 {
entry:
  %this.addr = alloca %"class.dealii::LAPACKFullMatrix"*, align 8
  store %"class.dealii::LAPACKFullMatrix"* %this, %"class.dealii::LAPACKFullMatrix"** %this.addr, align 8
  call void @llvm.dbg.declare(metadata %"class.dealii::LAPACKFullMatrix"** %this.addr, metadata !3907, metadata !DIExpression()), !dbg !3908
  %this1 = load %"class.dealii::LAPACKFullMatrix"*, %"class.dealii::LAPACKFullMatrix"** %this.addr, align 8
  ret void, !dbg !3909
}

; Function Attrs: noinline nounwind uwtable
define weak_odr dso_local void @_ZNK6dealii16LAPACKFullMatrixIdE22apply_lu_factorizationERNS_6VectorIdEEb(%"class.dealii::LAPACKFullMatrix"* %this, %"class.dealii::Vector"* nonnull %0, i1 zeroext %1) #1 comdat align 2 !dbg !3910 {
entry:
  %this.addr = alloca %"class.dealii::LAPACKFullMatrix"*, align 8
  %.addr = alloca %"class.dealii::Vector"*, align 8
  %.addr1 = alloca i8, align 1
  store %"class.dealii::LAPACKFullMatrix"* %this, %"class.dealii::LAPACKFullMatrix"** %this.addr, align 8
  call void @llvm.dbg.declare(metadata %"class.dealii::LAPACKFullMatrix"** %this.addr, metadata !3911, metadata !DIExpression()), !dbg !3912
  store %"class.dealii::Vector"* %0, %"class.dealii::Vector"** %.addr, align 8
  call void @llvm.dbg.declare(metadata %"class.dealii::Vector"** %.addr, metadata !3913, metadata !DIExpression()), !dbg !3914
  %frombool = zext i1 %1 to i8
  store i8 %frombool, i8* %.addr1, align 1
  call void @llvm.dbg.declare(metadata i8* %.addr1, metadata !3915, metadata !DIExpression()), !dbg !3916
  %this2 = load %"class.dealii::LAPACKFullMatrix"*, %"class.dealii::LAPACKFullMatrix"** %this.addr, align 8
  ret void, !dbg !3917
}

; Function Attrs: noinline nounwind uwtable
define weak_odr dso_local void @_ZN6dealii16LAPACKFullMatrixIdE19compute_eigenvaluesEbb(%"class.dealii::LAPACKFullMatrix"* %this, i1 zeroext %0, i1 zeroext %1) #1 comdat align 2 !dbg !3918 {
entry:
  %this.addr = alloca %"class.dealii::LAPACKFullMatrix"*, align 8
  %.addr = alloca i8, align 1
  %.addr1 = alloca i8, align 1
  store %"class.dealii::LAPACKFullMatrix"* %this, %"class.dealii::LAPACKFullMatrix"** %this.addr, align 8
  call void @llvm.dbg.declare(metadata %"class.dealii::LAPACKFullMatrix"** %this.addr, metadata !3919, metadata !DIExpression()), !dbg !3920
  %frombool = zext i1 %0 to i8
  store i8 %frombool, i8* %.addr, align 1
  call void @llvm.dbg.declare(metadata i8* %.addr, metadata !3921, metadata !DIExpression()), !dbg !3922
  %frombool2 = zext i1 %1 to i8
  store i8 %frombool2, i8* %.addr1, align 1
  call void @llvm.dbg.declare(metadata i8* %.addr1, metadata !3923, metadata !DIExpression()), !dbg !3924
  %this3 = load %"class.dealii::LAPACKFullMatrix"*, %"class.dealii::LAPACKFullMatrix"** %this.addr, align 8
  ret void, !dbg !3925
}

; Function Attrs: noinline uwtable
define weak_odr dso_local { double, double } @_ZNK6dealii16LAPACKFullMatrixIdE10eigenvalueEj(%"class.dealii::LAPACKFullMatrix"* %this, i32 %i) #0 comdat align 2 !dbg !3926 {
entry:
  %retval = alloca %"struct.std::complex", align 8
  %this.addr = alloca %"class.dealii::LAPACKFullMatrix"*, align 8
  %i.addr = alloca i32, align 4
  store %"class.dealii::LAPACKFullMatrix"* %this, %"class.dealii::LAPACKFullMatrix"** %this.addr, align 8
  call void @llvm.dbg.declare(metadata %"class.dealii::LAPACKFullMatrix"** %this.addr, metadata !3927, metadata !DIExpression()), !dbg !3928
  store i32 %i, i32* %i.addr, align 4
  call void @llvm.dbg.declare(metadata i32* %i.addr, metadata !3929, metadata !DIExpression()), !dbg !3930
  %this1 = load %"class.dealii::LAPACKFullMatrix"*, %"class.dealii::LAPACKFullMatrix"** %this.addr, align 8
  %wr = getelementptr inbounds %"class.dealii::LAPACKFullMatrix", %"class.dealii::LAPACKFullMatrix"* %this1, i32 0, i32 6, !dbg !3931
  %0 = load i32, i32* %i.addr, align 4, !dbg !3932
  %conv = zext i32 %0 to i64, !dbg !3932
  %call = call dereferenceable(8) double* @_ZNKSt6vectorIdSaIdEEixEm(%"class.std::vector"* %wr, i64 %conv) #4, !dbg !3931
  %1 = load double, double* %call, align 8, !dbg !3931
  %wi = getelementptr inbounds %"class.dealii::LAPACKFullMatrix", %"class.dealii::LAPACKFullMatrix"* %this1, i32 0, i32 7, !dbg !3933
  %2 = load i32, i32* %i.addr, align 4, !dbg !3934
  %conv2 = zext i32 %2 to i64, !dbg !3934
  %call3 = call dereferenceable(8) double* @_ZNKSt6vectorIdSaIdEEixEm(%"class.std::vector"* %wi, i64 %conv2) #4, !dbg !3933
  %3 = load double, double* %call3, align 8, !dbg !3933
  call void @_ZNSt7complexIdEC2Edd(%"struct.std::complex"* %retval, double %1, double %3), !dbg !3935
  %coerce.dive = getelementptr inbounds %"struct.std::complex", %"struct.std::complex"* %retval, i32 0, i32 0, !dbg !3936
  %4 = load { double, double }, { double, double }* %coerce.dive, align 8, !dbg !3936
  ret { double, double } %4, !dbg !3936
}

; Function Attrs: noinline nounwind uwtable
define linkonce_odr dso_local dereferenceable(8) double* @_ZNKSt6vectorIdSaIdEEixEm(%"class.std::vector"* %this, i64 %__n) #1 comdat align 2 !dbg !3937 {
entry:
  %this.addr = alloca %"class.std::vector"*, align 8
  %__n.addr = alloca i64, align 8
  store %"class.std::vector"* %this, %"class.std::vector"** %this.addr, align 8
  call void @llvm.dbg.declare(metadata %"class.std::vector"** %this.addr, metadata !3938, metadata !DIExpression()), !dbg !3940
  store i64 %__n, i64* %__n.addr, align 8
  call void @llvm.dbg.declare(metadata i64* %__n.addr, metadata !3941, metadata !DIExpression()), !dbg !3942
  %this1 = load %"class.std::vector"*, %"class.std::vector"** %this.addr, align 8
  %0 = bitcast %"class.std::vector"* %this1 to %"struct.std::_Vector_base"*, !dbg !3943
  %_M_impl = getelementptr inbounds %"struct.std::_Vector_base", %"struct.std::_Vector_base"* %0, i32 0, i32 0, !dbg !3943
  %1 = bitcast %"struct.std::_Vector_base<double, std::allocator<double> >::_Vector_impl"* %_M_impl to %"struct.std::_Vector_base<double, std::allocator<double> >::_Vector_impl_data"*, !dbg !3944
  %_M_start = getelementptr inbounds %"struct.std::_Vector_base<double, std::allocator<double> >::_Vector_impl_data", %"struct.std::_Vector_base<double, std::allocator<double> >::_Vector_impl_data"* %1, i32 0, i32 0, !dbg !3945
  %2 = load double*, double** %_M_start, align 8, !dbg !3945
  %3 = load i64, i64* %__n.addr, align 8, !dbg !3946
  %add.ptr = getelementptr inbounds double, double* %2, i64 %3, !dbg !3947
  ret double* %add.ptr, !dbg !3948
}

; Function Attrs: noinline nounwind uwtable
define linkonce_odr dso_local void @_ZNSt7complexIdEC2Edd(%"struct.std::complex"* %this, double %__r, double %__i) unnamed_addr #1 comdat align 2 !dbg !3949 {
entry:
  %this.addr = alloca %"struct.std::complex"*, align 8
  %__r.addr = alloca double, align 8
  %__i.addr = alloca double, align 8
  store %"struct.std::complex"* %this, %"struct.std::complex"** %this.addr, align 8
  call void @llvm.dbg.declare(metadata %"struct.std::complex"** %this.addr, metadata !3950, metadata !DIExpression()), !dbg !3952
  store double %__r, double* %__r.addr, align 8
  call void @llvm.dbg.declare(metadata double* %__r.addr, metadata !3953, metadata !DIExpression()), !dbg !3954
  store double %__i, double* %__i.addr, align 8
  call void @llvm.dbg.declare(metadata double* %__i.addr, metadata !3955, metadata !DIExpression()), !dbg !3956
  %this1 = load %"struct.std::complex"*, %"struct.std::complex"** %this.addr, align 8
  %_M_value = getelementptr inbounds %"struct.std::complex", %"struct.std::complex"* %this1, i32 0, i32 0, !dbg !3957
  %0 = load double, double* %__r.addr, align 8, !dbg !3958
  %1 = load double, double* %__i.addr, align 8, !dbg !3959
  %_M_value.realp = getelementptr inbounds { double, double }, { double, double }* %_M_value, i32 0, i32 0, !dbg !3957
  %_M_value.imagp = getelementptr inbounds { double, double }, { double, double }* %_M_value, i32 0, i32 1, !dbg !3957
  store double %0, double* %_M_value.realp, align 8, !dbg !3957
  store double %1, double* %_M_value.imagp, align 8, !dbg !3957
  ret void, !dbg !3960
}

; Function Attrs: noinline uwtable
define weak_odr dso_local void @_ZNK6dealii16LAPACKFullMatrixIdE15print_formattedERSojbjPKcdd(%"class.dealii::LAPACKFullMatrix"* %this, %"class.std::basic_ostream"* dereferenceable(272) %out, i32 %precision, i1 zeroext %scientific, i32 %width_, i8* %zero_string, double %denominator, double %threshold) #0 comdat align 2 personality i8* bitcast (i32 (...)* @__gxx_personality_v0 to i8*) !dbg !3961 {
entry:
  %this.addr = alloca %"class.dealii::LAPACKFullMatrix"*, align 8
  %out.addr = alloca %"class.std::basic_ostream"*, align 8
  %precision.addr = alloca i32, align 4
  %scientific.addr = alloca i8, align 1
  %width_.addr = alloca i32, align 4
  %zero_string.addr = alloca i8*, align 8
  %denominator.addr = alloca double, align 8
  %threshold.addr = alloca double, align 8
  %width = alloca i32, align 4
  %old_flags = alloca i32, align 4
  %old_precision = alloca i32, align 4
  %i = alloca i32, align 4
  %j = alloca i32, align 4
  %agg.tmp = alloca %"struct.std::_Setw", align 4
  %agg.tmp40 = alloca %"struct.std::_Setw", align 4
  %agg.tmp58 = alloca %"class.dealii::StandardExceptions::ExcIO", align 8
  %exn.slot = alloca i8*
  %ehselector.slot = alloca i32
  store %"class.dealii::LAPACKFullMatrix"* %this, %"class.dealii::LAPACKFullMatrix"** %this.addr, align 8
  call void @llvm.dbg.declare(metadata %"class.dealii::LAPACKFullMatrix"** %this.addr, metadata !3962, metadata !DIExpression()), !dbg !3963
  store %"class.std::basic_ostream"* %out, %"class.std::basic_ostream"** %out.addr, align 8
  call void @llvm.dbg.declare(metadata %"class.std::basic_ostream"** %out.addr, metadata !3964, metadata !DIExpression()), !dbg !3965
  store i32 %precision, i32* %precision.addr, align 4
  call void @llvm.dbg.declare(metadata i32* %precision.addr, metadata !3966, metadata !DIExpression()), !dbg !3967
  %frombool = zext i1 %scientific to i8
  store i8 %frombool, i8* %scientific.addr, align 1
  call void @llvm.dbg.declare(metadata i8* %scientific.addr, metadata !3968, metadata !DIExpression()), !dbg !3969
  store i32 %width_, i32* %width_.addr, align 4
  call void @llvm.dbg.declare(metadata i32* %width_.addr, metadata !3970, metadata !DIExpression()), !dbg !3971
  store i8* %zero_string, i8** %zero_string.addr, align 8
  call void @llvm.dbg.declare(metadata i8** %zero_string.addr, metadata !3972, metadata !DIExpression()), !dbg !3973
  store double %denominator, double* %denominator.addr, align 8
  call void @llvm.dbg.declare(metadata double* %denominator.addr, metadata !3974, metadata !DIExpression()), !dbg !3975
  store double %threshold, double* %threshold.addr, align 8
  call void @llvm.dbg.declare(metadata double* %threshold.addr, metadata !3976, metadata !DIExpression()), !dbg !3977
  %this1 = load %"class.dealii::LAPACKFullMatrix"*, %"class.dealii::LAPACKFullMatrix"** %this.addr, align 8
  call void @llvm.dbg.declare(metadata i32* %width, metadata !3978, metadata !DIExpression()), !dbg !3979
  %0 = load i32, i32* %width_.addr, align 4, !dbg !3980
  store i32 %0, i32* %width, align 4, !dbg !3979
  call void @llvm.dbg.declare(metadata i32* %old_flags, metadata !3981, metadata !DIExpression()), !dbg !3983
  %1 = load %"class.std::basic_ostream"*, %"class.std::basic_ostream"** %out.addr, align 8, !dbg !3984
  %2 = bitcast %"class.std::basic_ostream"* %1 to i8**, !dbg !3984
  %vtable = load i8*, i8** %2, align 8, !dbg !3984
  %vbase.offset.ptr = getelementptr i8, i8* %vtable, i64 -24, !dbg !3984
  %3 = bitcast i8* %vbase.offset.ptr to i64*, !dbg !3984
  %vbase.offset = load i64, i64* %3, align 8, !dbg !3984
  %4 = bitcast %"class.std::basic_ostream"* %1 to i8*, !dbg !3984
  %add.ptr = getelementptr inbounds i8, i8* %4, i64 %vbase.offset, !dbg !3984
  %5 = bitcast i8* %add.ptr to %"class.std::ios_base"*, !dbg !3984
  %call = call i32 @_ZNKSt8ios_base5flagsEv(%"class.std::ios_base"* %5), !dbg !3985
  store i32 %call, i32* %old_flags, align 4, !dbg !3983
  call void @llvm.dbg.declare(metadata i32* %old_precision, metadata !3986, metadata !DIExpression()), !dbg !3987
  %6 = load %"class.std::basic_ostream"*, %"class.std::basic_ostream"** %out.addr, align 8, !dbg !3988
  %7 = bitcast %"class.std::basic_ostream"* %6 to i8**, !dbg !3988
  %vtable2 = load i8*, i8** %7, align 8, !dbg !3988
  %vbase.offset.ptr3 = getelementptr i8, i8* %vtable2, i64 -24, !dbg !3988
  %8 = bitcast i8* %vbase.offset.ptr3 to i64*, !dbg !3988
  %vbase.offset4 = load i64, i64* %8, align 8, !dbg !3988
  %9 = bitcast %"class.std::basic_ostream"* %6 to i8*, !dbg !3988
  %add.ptr5 = getelementptr inbounds i8, i8* %9, i64 %vbase.offset4, !dbg !3988
  %10 = bitcast i8* %add.ptr5 to %"class.std::ios_base"*, !dbg !3988
  %11 = load i32, i32* %precision.addr, align 4, !dbg !3989
  %conv = zext i32 %11 to i64, !dbg !3989
  %call6 = call i64 @_ZNSt8ios_base9precisionEl(%"class.std::ios_base"* %10, i64 %conv), !dbg !3990
  %conv7 = trunc i64 %call6 to i32, !dbg !3988
  store i32 %conv7, i32* %old_precision, align 4, !dbg !3987
  %12 = load i8, i8* %scientific.addr, align 1, !dbg !3991
  %tobool = trunc i8 %12 to i1, !dbg !3991
  br i1 %tobool, label %if.then, label %if.else, !dbg !3993

if.then:                                          ; preds = %entry
  %13 = load %"class.std::basic_ostream"*, %"class.std::basic_ostream"** %out.addr, align 8, !dbg !3994
  %14 = bitcast %"class.std::basic_ostream"* %13 to i8**, !dbg !3994
  %vtable8 = load i8*, i8** %14, align 8, !dbg !3994
  %vbase.offset.ptr9 = getelementptr i8, i8* %vtable8, i64 -24, !dbg !3994
  %15 = bitcast i8* %vbase.offset.ptr9 to i64*, !dbg !3994
  %vbase.offset10 = load i64, i64* %15, align 8, !dbg !3994
  %16 = bitcast %"class.std::basic_ostream"* %13 to i8*, !dbg !3994
  %add.ptr11 = getelementptr inbounds i8, i8* %16, i64 %vbase.offset10, !dbg !3994
  %17 = bitcast i8* %add.ptr11 to %"class.std::ios_base"*, !dbg !3994
  %call12 = call i32 @_ZNSt8ios_base4setfESt13_Ios_FmtflagsS0_(%"class.std::ios_base"* %17, i32 256, i32 260), !dbg !3996
  %18 = load i32, i32* %width, align 4, !dbg !3997
  %tobool13 = icmp ne i32 %18, 0, !dbg !3997
  br i1 %tobool13, label %if.end, label %if.then14, !dbg !3999

if.then14:                                        ; preds = %if.then
  %19 = load i32, i32* %precision.addr, align 4, !dbg !4000
  %add = add i32 %19, 7, !dbg !4001
  store i32 %add, i32* %width, align 4, !dbg !4002
  br label %if.end, !dbg !4003

if.end:                                           ; preds = %if.then14, %if.then
  br label %if.end24, !dbg !4004

if.else:                                          ; preds = %entry
  %20 = load %"class.std::basic_ostream"*, %"class.std::basic_ostream"** %out.addr, align 8, !dbg !4005
  %21 = bitcast %"class.std::basic_ostream"* %20 to i8**, !dbg !4005
  %vtable15 = load i8*, i8** %21, align 8, !dbg !4005
  %vbase.offset.ptr16 = getelementptr i8, i8* %vtable15, i64 -24, !dbg !4005
  %22 = bitcast i8* %vbase.offset.ptr16 to i64*, !dbg !4005
  %vbase.offset17 = load i64, i64* %22, align 8, !dbg !4005
  %23 = bitcast %"class.std::basic_ostream"* %20 to i8*, !dbg !4005
  %add.ptr18 = getelementptr inbounds i8, i8* %23, i64 %vbase.offset17, !dbg !4005
  %24 = bitcast i8* %add.ptr18 to %"class.std::ios_base"*, !dbg !4005
  %call19 = call i32 @_ZNSt8ios_base4setfESt13_Ios_FmtflagsS0_(%"class.std::ios_base"* %24, i32 4, i32 260), !dbg !4007
  %25 = load i32, i32* %width, align 4, !dbg !4008
  %tobool20 = icmp ne i32 %25, 0, !dbg !4008
  br i1 %tobool20, label %if.end23, label %if.then21, !dbg !4010

if.then21:                                        ; preds = %if.else
  %26 = load i32, i32* %precision.addr, align 4, !dbg !4011
  %add22 = add i32 %26, 2, !dbg !4012
  store i32 %add22, i32* %width, align 4, !dbg !4013
  br label %if.end23, !dbg !4014

if.end23:                                         ; preds = %if.then21, %if.else
  br label %if.end24

if.end24:                                         ; preds = %if.end23, %if.end
  call void @llvm.dbg.declare(metadata i32* %i, metadata !4015, metadata !DIExpression()), !dbg !4017
  store i32 0, i32* %i, align 4, !dbg !4017
  br label %for.cond, !dbg !4018

for.cond:                                         ; preds = %for.inc49, %if.end24
  %27 = load i32, i32* %i, align 4, !dbg !4019
  %28 = bitcast %"class.dealii::LAPACKFullMatrix"* %this1 to %"class.dealii::TransposeTable"*, !dbg !4021
  %call25 = call i32 @_ZNK6dealii14TransposeTableIdE6n_rowsEv(%"class.dealii::TransposeTable"* %28), !dbg !4021
  %cmp = icmp ult i32 %27, %call25, !dbg !4022
  br i1 %cmp, label %for.body, label %for.end51, !dbg !4023

for.body:                                         ; preds = %for.cond
  call void @llvm.dbg.declare(metadata i32* %j, metadata !4024, metadata !DIExpression()), !dbg !4027
  store i32 0, i32* %j, align 4, !dbg !4027
  br label %for.cond26, !dbg !4028

for.cond26:                                       ; preds = %for.inc, %for.body
  %29 = load i32, i32* %j, align 4, !dbg !4029
  %30 = bitcast %"class.dealii::LAPACKFullMatrix"* %this1 to %"class.dealii::TransposeTable"*, !dbg !4031
  %call27 = call i32 @_ZNK6dealii14TransposeTableIdE6n_colsEv(%"class.dealii::TransposeTable"* %30), !dbg !4031
  %cmp28 = icmp ult i32 %29, %call27, !dbg !4032
  br i1 %cmp28, label %for.body29, label %for.end, !dbg !4033

for.body29:                                       ; preds = %for.cond26
  %31 = bitcast %"class.dealii::LAPACKFullMatrix"* %this1 to %"class.dealii::TransposeTable"*, !dbg !4034
  %32 = load i32, i32* %i, align 4, !dbg !4036
  %33 = load i32, i32* %j, align 4, !dbg !4037
  %call30 = call dereferenceable(8) double* @_ZNK6dealii14TransposeTableIdE2elEjj(%"class.dealii::TransposeTable"* %31, i32 %32, i32 %33), !dbg !4034
  %34 = load double, double* %call30, align 8, !dbg !4034
  %35 = call double @llvm.fabs.f64(double %34), !dbg !4038
  %36 = load double, double* %threshold.addr, align 8, !dbg !4039
  %cmp31 = fcmp ogt double %35, %36, !dbg !4040
  br i1 %cmp31, label %if.then32, label %if.else39, !dbg !4041

if.then32:                                        ; preds = %for.body29
  %37 = load %"class.std::basic_ostream"*, %"class.std::basic_ostream"** %out.addr, align 8, !dbg !4042
  %38 = load i32, i32* %width, align 4, !dbg !4043
  %call33 = call i32 @_ZSt4setwi(i32 %38), !dbg !4044
  %coerce.dive = getelementptr inbounds %"struct.std::_Setw", %"struct.std::_Setw"* %agg.tmp, i32 0, i32 0, !dbg !4044
  store i32 %call33, i32* %coerce.dive, align 4, !dbg !4044
  %coerce.dive34 = getelementptr inbounds %"struct.std::_Setw", %"struct.std::_Setw"* %agg.tmp, i32 0, i32 0, !dbg !4045
  %39 = load i32, i32* %coerce.dive34, align 4, !dbg !4045
  %call35 = call dereferenceable(272) %"class.std::basic_ostream"* @_ZStlsIcSt11char_traitsIcEERSt13basic_ostreamIT_T0_ES6_St5_Setw(%"class.std::basic_ostream"* dereferenceable(272) %37, i32 %39), !dbg !4045
  %40 = bitcast %"class.dealii::LAPACKFullMatrix"* %this1 to %"class.dealii::TransposeTable"*, !dbg !4046
  %41 = load i32, i32* %i, align 4, !dbg !4047
  %42 = load i32, i32* %j, align 4, !dbg !4048
  %call36 = call dereferenceable(8) double* @_ZNK6dealii14TransposeTableIdE2elEjj(%"class.dealii::TransposeTable"* %40, i32 %41, i32 %42), !dbg !4046
  %43 = load double, double* %call36, align 8, !dbg !4046
  %44 = load double, double* %denominator.addr, align 8, !dbg !4049
  %mul = fmul double %43, %44, !dbg !4050
  %call37 = call dereferenceable(272) %"class.std::basic_ostream"* @_ZNSolsEd(%"class.std::basic_ostream"* %call35, double %mul), !dbg !4051
  %call38 = call dereferenceable(272) %"class.std::basic_ostream"* @_ZStlsISt11char_traitsIcEERSt13basic_ostreamIcT_ES5_c(%"class.std::basic_ostream"* dereferenceable(272) %call37, i8 signext 32), !dbg !4052
  br label %if.end47, !dbg !4042

if.else39:                                        ; preds = %for.body29
  %45 = load %"class.std::basic_ostream"*, %"class.std::basic_ostream"** %out.addr, align 8, !dbg !4053
  %46 = load i32, i32* %width, align 4, !dbg !4054
  %call41 = call i32 @_ZSt4setwi(i32 %46), !dbg !4055
  %coerce.dive42 = getelementptr inbounds %"struct.std::_Setw", %"struct.std::_Setw"* %agg.tmp40, i32 0, i32 0, !dbg !4055
  store i32 %call41, i32* %coerce.dive42, align 4, !dbg !4055
  %coerce.dive43 = getelementptr inbounds %"struct.std::_Setw", %"struct.std::_Setw"* %agg.tmp40, i32 0, i32 0, !dbg !4056
  %47 = load i32, i32* %coerce.dive43, align 4, !dbg !4056
  %call44 = call dereferenceable(272) %"class.std::basic_ostream"* @_ZStlsIcSt11char_traitsIcEERSt13basic_ostreamIT_T0_ES6_St5_Setw(%"class.std::basic_ostream"* dereferenceable(272) %45, i32 %47), !dbg !4056
  %48 = load i8*, i8** %zero_string.addr, align 8, !dbg !4057
  %call45 = call dereferenceable(272) %"class.std::basic_ostream"* @_ZStlsISt11char_traitsIcEERSt13basic_ostreamIcT_ES5_PKc(%"class.std::basic_ostream"* dereferenceable(272) %call44, i8* %48), !dbg !4058
  %call46 = call dereferenceable(272) %"class.std::basic_ostream"* @_ZStlsISt11char_traitsIcEERSt13basic_ostreamIcT_ES5_c(%"class.std::basic_ostream"* dereferenceable(272) %call45, i8 signext 32), !dbg !4059
  br label %if.end47

if.end47:                                         ; preds = %if.else39, %if.then32
  br label %for.inc, !dbg !4039

for.inc:                                          ; preds = %if.end47
  %49 = load i32, i32* %j, align 4, !dbg !4060
  %inc = add i32 %49, 1, !dbg !4060
  store i32 %inc, i32* %j, align 4, !dbg !4060
  br label %for.cond26, !dbg !4061, !llvm.loop !4062

for.end:                                          ; preds = %for.cond26
  %50 = load %"class.std::basic_ostream"*, %"class.std::basic_ostream"** %out.addr, align 8, !dbg !4064
  %call48 = call dereferenceable(272) %"class.std::basic_ostream"* @_ZNSolsEPFRSoS_E(%"class.std::basic_ostream"* %50, %"class.std::basic_ostream"* (%"class.std::basic_ostream"*)* @_ZSt4endlIcSt11char_traitsIcEERSt13basic_ostreamIT_T0_ES6_), !dbg !4065
  br label %for.inc49, !dbg !4066

for.inc49:                                        ; preds = %for.end
  %51 = load i32, i32* %i, align 4, !dbg !4067
  %inc50 = add i32 %51, 1, !dbg !4067
  store i32 %inc50, i32* %i, align 4, !dbg !4067
  br label %for.cond, !dbg !4068, !llvm.loop !4069

for.end51:                                        ; preds = %for.cond
  %52 = load %"class.std::basic_ostream"*, %"class.std::basic_ostream"** %out.addr, align 8, !dbg !4071
  %53 = bitcast %"class.std::basic_ostream"* %52 to i8**, !dbg !4071
  %vtable52 = load i8*, i8** %53, align 8, !dbg !4071
  %vbase.offset.ptr53 = getelementptr i8, i8* %vtable52, i64 -24, !dbg !4071
  %54 = bitcast i8* %vbase.offset.ptr53 to i64*, !dbg !4071
  %vbase.offset54 = load i64, i64* %54, align 8, !dbg !4071
  %55 = bitcast %"class.std::basic_ostream"* %52 to i8*, !dbg !4071
  %add.ptr55 = getelementptr inbounds i8, i8* %55, i64 %vbase.offset54, !dbg !4071
  %56 = bitcast i8* %add.ptr55 to %"class.std::basic_ios"*, !dbg !4071
  %call56 = call zeroext i1 @_ZNKSt9basic_iosIcSt11char_traitsIcEEntEv(%"class.std::basic_ios"* %56), !dbg !4071
  br i1 %call56, label %if.then57, label %if.end59, !dbg !4074

if.then57:                                        ; preds = %for.end51
  %57 = bitcast %"class.dealii::StandardExceptions::ExcIO"* %agg.tmp58 to i8*, !dbg !4071
  call void @llvm.memset.p0i8.i64(i8* align 8 %57, i8 0, i64 64, i1 false), !dbg !4071
  call void @_ZN6dealii18StandardExceptions5ExcIOC2Ev(%"class.dealii::StandardExceptions::ExcIO"* %agg.tmp58), !dbg !4071
  invoke void @_ZN6dealii18deal_II_exceptions9internals17issue_error_throwINS_18StandardExceptions5ExcIOEEEvPKciS6_S6_S6_T_(i8* getelementptr inbounds ([33 x i8], [33 x i8]* @.str, i64 0, i64 0), i32 413, i8* getelementptr inbounds ([1 x i8], [1 x i8]* @.str.10, i64 0, i64 0), i8* getelementptr inbounds ([4 x i8], [4 x i8]* @.str.11, i64 0, i64 0), i8* getelementptr inbounds ([8 x i8], [8 x i8]* @.str.12, i64 0, i64 0), %"class.dealii::StandardExceptions::ExcIO"* %agg.tmp58)
          to label %invoke.cont unwind label %lpad, !dbg !4071

invoke.cont:                                      ; preds = %if.then57
  call void @_ZN6dealii18StandardExceptions5ExcIOD2Ev(%"class.dealii::StandardExceptions::ExcIO"* %agg.tmp58) #4, !dbg !4071
  br label %if.end59, !dbg !4071

lpad:                                             ; preds = %if.then57
  %58 = landingpad { i8*, i32 }
          cleanup, !dbg !4075
  %59 = extractvalue { i8*, i32 } %58, 0, !dbg !4075
  store i8* %59, i8** %exn.slot, align 8, !dbg !4075
  %60 = extractvalue { i8*, i32 } %58, 1, !dbg !4075
  store i32 %60, i32* %ehselector.slot, align 4, !dbg !4075
  call void @_ZN6dealii18StandardExceptions5ExcIOD2Ev(%"class.dealii::StandardExceptions::ExcIO"* %agg.tmp58) #4, !dbg !4071
  br label %eh.resume, !dbg !4071

if.end59:                                         ; preds = %invoke.cont, %for.end51
  %61 = load %"class.std::basic_ostream"*, %"class.std::basic_ostream"** %out.addr, align 8, !dbg !4076
  %62 = bitcast %"class.std::basic_ostream"* %61 to i8**, !dbg !4076
  %vtable60 = load i8*, i8** %62, align 8, !dbg !4076
  %vbase.offset.ptr61 = getelementptr i8, i8* %vtable60, i64 -24, !dbg !4076
  %63 = bitcast i8* %vbase.offset.ptr61 to i64*, !dbg !4076
  %vbase.offset62 = load i64, i64* %63, align 8, !dbg !4076
  %64 = bitcast %"class.std::basic_ostream"* %61 to i8*, !dbg !4076
  %add.ptr63 = getelementptr inbounds i8, i8* %64, i64 %vbase.offset62, !dbg !4076
  %65 = bitcast i8* %add.ptr63 to %"class.std::ios_base"*, !dbg !4076
  %66 = load i32, i32* %old_flags, align 4, !dbg !4077
  %call64 = call i32 @_ZNSt8ios_base5flagsESt13_Ios_Fmtflags(%"class.std::ios_base"* %65, i32 %66), !dbg !4078
  %67 = load %"class.std::basic_ostream"*, %"class.std::basic_ostream"** %out.addr, align 8, !dbg !4079
  %68 = bitcast %"class.std::basic_ostream"* %67 to i8**, !dbg !4079
  %vtable65 = load i8*, i8** %68, align 8, !dbg !4079
  %vbase.offset.ptr66 = getelementptr i8, i8* %vtable65, i64 -24, !dbg !4079
  %69 = bitcast i8* %vbase.offset.ptr66 to i64*, !dbg !4079
  %vbase.offset67 = load i64, i64* %69, align 8, !dbg !4079
  %70 = bitcast %"class.std::basic_ostream"* %67 to i8*, !dbg !4079
  %add.ptr68 = getelementptr inbounds i8, i8* %70, i64 %vbase.offset67, !dbg !4079
  %71 = bitcast i8* %add.ptr68 to %"class.std::ios_base"*, !dbg !4079
  %72 = load i32, i32* %old_precision, align 4, !dbg !4080
  %conv69 = zext i32 %72 to i64, !dbg !4080
  %call70 = call i64 @_ZNSt8ios_base9precisionEl(%"class.std::ios_base"* %71, i64 %conv69), !dbg !4081
  ret void, !dbg !4082

eh.resume:                                        ; preds = %lpad
  %exn = load i8*, i8** %exn.slot, align 8, !dbg !4071
  %sel = load i32, i32* %ehselector.slot, align 4, !dbg !4071
  %lpad.val = insertvalue { i8*, i32 } undef, i8* %exn, 0, !dbg !4071
  %lpad.val71 = insertvalue { i8*, i32 } %lpad.val, i32 %sel, 1, !dbg !4071
  resume { i8*, i32 } %lpad.val71, !dbg !4071
}

; Function Attrs: noinline nounwind uwtable
define linkonce_odr dso_local i32 @_ZNKSt8ios_base5flagsEv(%"class.std::ios_base"* %this) #1 comdat align 2 !dbg !4083 {
entry:
  %this.addr = alloca %"class.std::ios_base"*, align 8
  store %"class.std::ios_base"* %this, %"class.std::ios_base"** %this.addr, align 8
  call void @llvm.dbg.declare(metadata %"class.std::ios_base"** %this.addr, metadata !4089, metadata !DIExpression()), !dbg !4091
  %this1 = load %"class.std::ios_base"*, %"class.std::ios_base"** %this.addr, align 8
  %_M_flags = getelementptr inbounds %"class.std::ios_base", %"class.std::ios_base"* %this1, i32 0, i32 3, !dbg !4092
  %0 = load i32, i32* %_M_flags, align 8, !dbg !4092
  ret i32 %0, !dbg !4093
}

; Function Attrs: noinline nounwind uwtable
define linkonce_odr dso_local i64 @_ZNSt8ios_base9precisionEl(%"class.std::ios_base"* %this, i64 %__prec) #1 comdat align 2 !dbg !4094 {
entry:
  %this.addr = alloca %"class.std::ios_base"*, align 8
  %__prec.addr = alloca i64, align 8
  %__old = alloca i64, align 8
  store %"class.std::ios_base"* %this, %"class.std::ios_base"** %this.addr, align 8
  call void @llvm.dbg.declare(metadata %"class.std::ios_base"** %this.addr, metadata !4102, metadata !DIExpression()), !dbg !4104
  store i64 %__prec, i64* %__prec.addr, align 8
  call void @llvm.dbg.declare(metadata i64* %__prec.addr, metadata !4105, metadata !DIExpression()), !dbg !4106
  %this1 = load %"class.std::ios_base"*, %"class.std::ios_base"** %this.addr, align 8
  call void @llvm.dbg.declare(metadata i64* %__old, metadata !4107, metadata !DIExpression()), !dbg !4108
  %_M_precision = getelementptr inbounds %"class.std::ios_base", %"class.std::ios_base"* %this1, i32 0, i32 1, !dbg !4109
  %0 = load i64, i64* %_M_precision, align 8, !dbg !4109
  store i64 %0, i64* %__old, align 8, !dbg !4108
  %1 = load i64, i64* %__prec.addr, align 8, !dbg !4110
  %_M_precision2 = getelementptr inbounds %"class.std::ios_base", %"class.std::ios_base"* %this1, i32 0, i32 1, !dbg !4111
  store i64 %1, i64* %_M_precision2, align 8, !dbg !4112
  %2 = load i64, i64* %__old, align 8, !dbg !4113
  ret i64 %2, !dbg !4114
}

; Function Attrs: noinline uwtable
define linkonce_odr dso_local i32 @_ZNSt8ios_base4setfESt13_Ios_FmtflagsS0_(%"class.std::ios_base"* %this, i32 %__fmtfl, i32 %__mask) #0 comdat align 2 !dbg !4115 {
entry:
  %this.addr = alloca %"class.std::ios_base"*, align 8
  %__fmtfl.addr = alloca i32, align 4
  %__mask.addr = alloca i32, align 4
  %__old = alloca i32, align 4
  store %"class.std::ios_base"* %this, %"class.std::ios_base"** %this.addr, align 8
  call void @llvm.dbg.declare(metadata %"class.std::ios_base"** %this.addr, metadata !4119, metadata !DIExpression()), !dbg !4120
  store i32 %__fmtfl, i32* %__fmtfl.addr, align 4
  call void @llvm.dbg.declare(metadata i32* %__fmtfl.addr, metadata !4121, metadata !DIExpression()), !dbg !4122
  store i32 %__mask, i32* %__mask.addr, align 4
  call void @llvm.dbg.declare(metadata i32* %__mask.addr, metadata !4123, metadata !DIExpression()), !dbg !4124
  %this1 = load %"class.std::ios_base"*, %"class.std::ios_base"** %this.addr, align 8
  call void @llvm.dbg.declare(metadata i32* %__old, metadata !4125, metadata !DIExpression()), !dbg !4126
  %_M_flags = getelementptr inbounds %"class.std::ios_base", %"class.std::ios_base"* %this1, i32 0, i32 3, !dbg !4127
  %0 = load i32, i32* %_M_flags, align 8, !dbg !4127
  store i32 %0, i32* %__old, align 4, !dbg !4126
  %1 = load i32, i32* %__mask.addr, align 4, !dbg !4128
  %call = call i32 @_ZStcoSt13_Ios_Fmtflags(i32 %1), !dbg !4129
  %_M_flags2 = getelementptr inbounds %"class.std::ios_base", %"class.std::ios_base"* %this1, i32 0, i32 3, !dbg !4130
  %call3 = call dereferenceable(4) i32* @_ZStaNRSt13_Ios_FmtflagsS_(i32* dereferenceable(4) %_M_flags2, i32 %call), !dbg !4131
  %2 = load i32, i32* %__fmtfl.addr, align 4, !dbg !4132
  %3 = load i32, i32* %__mask.addr, align 4, !dbg !4133
  %call4 = call i32 @_ZStanSt13_Ios_FmtflagsS_(i32 %2, i32 %3), !dbg !4134
  %_M_flags5 = getelementptr inbounds %"class.std::ios_base", %"class.std::ios_base"* %this1, i32 0, i32 3, !dbg !4135
  %call6 = call dereferenceable(4) i32* @_ZStoRRSt13_Ios_FmtflagsS_(i32* dereferenceable(4) %_M_flags5, i32 %call4), !dbg !4136
  %4 = load i32, i32* %__old, align 4, !dbg !4137
  ret i32 %4, !dbg !4138
}

; Function Attrs: noinline nounwind uwtable
define linkonce_odr dso_local i32 @_ZNK6dealii14TransposeTableIdE6n_rowsEv(%"class.dealii::TransposeTable"* %this) #1 comdat align 2 !dbg !4139 {
entry:
  %this.addr = alloca %"class.dealii::TransposeTable"*, align 8
  store %"class.dealii::TransposeTable"* %this, %"class.dealii::TransposeTable"** %this.addr, align 8
  call void @llvm.dbg.declare(metadata %"class.dealii::TransposeTable"** %this.addr, metadata !4140, metadata !DIExpression()), !dbg !4142
  %this1 = load %"class.dealii::TransposeTable"*, %"class.dealii::TransposeTable"** %this.addr, align 8
  %0 = bitcast %"class.dealii::TransposeTable"* %this1 to %"class.dealii::TableBase"*, !dbg !4143
  %table_size = getelementptr inbounds %"class.dealii::TableBase", %"class.dealii::TableBase"* %0, i32 0, i32 3, !dbg !4143
  %1 = bitcast %"class.dealii::TableIndices"* %table_size to %"class.dealii::TableIndicesBase"*, !dbg !4144
  %call = call i32 @_ZNK6dealii16TableIndicesBaseILi2EEixEj(%"class.dealii::TableIndicesBase"* %1, i32 1), !dbg !4144
  ret i32 %call, !dbg !4145
}

; Function Attrs: noinline nounwind uwtable
define linkonce_odr dso_local i32 @_ZNK6dealii14TransposeTableIdE6n_colsEv(%"class.dealii::TransposeTable"* %this) #1 comdat align 2 !dbg !4146 {
entry:
  %this.addr = alloca %"class.dealii::TransposeTable"*, align 8
  store %"class.dealii::TransposeTable"* %this, %"class.dealii::TransposeTable"** %this.addr, align 8
  call void @llvm.dbg.declare(metadata %"class.dealii::TransposeTable"** %this.addr, metadata !4147, metadata !DIExpression()), !dbg !4148
  %this1 = load %"class.dealii::TransposeTable"*, %"class.dealii::TransposeTable"** %this.addr, align 8
  %0 = bitcast %"class.dealii::TransposeTable"* %this1 to %"class.dealii::TableBase"*, !dbg !4149
  %table_size = getelementptr inbounds %"class.dealii::TableBase", %"class.dealii::TableBase"* %0, i32 0, i32 3, !dbg !4149
  %1 = bitcast %"class.dealii::TableIndices"* %table_size to %"class.dealii::TableIndicesBase"*, !dbg !4150
  %call = call i32 @_ZNK6dealii16TableIndicesBaseILi2EEixEj(%"class.dealii::TableIndicesBase"* %1, i32 0), !dbg !4150
  ret i32 %call, !dbg !4151
}

; Function Attrs: noinline nounwind uwtable
define linkonce_odr dso_local dereferenceable(8) double* @_ZNK6dealii14TransposeTableIdE2elEjj(%"class.dealii::TransposeTable"* %this, i32 %i, i32 %j) #1 comdat align 2 !dbg !4152 {
entry:
  %this.addr = alloca %"class.dealii::TransposeTable"*, align 8
  %i.addr = alloca i32, align 4
  %j.addr = alloca i32, align 4
  store %"class.dealii::TransposeTable"* %this, %"class.dealii::TransposeTable"** %this.addr, align 8
  call void @llvm.dbg.declare(metadata %"class.dealii::TransposeTable"** %this.addr, metadata !4153, metadata !DIExpression()), !dbg !4154
  store i32 %i, i32* %i.addr, align 4
  call void @llvm.dbg.declare(metadata i32* %i.addr, metadata !4155, metadata !DIExpression()), !dbg !4156
  store i32 %j, i32* %j.addr, align 4
  call void @llvm.dbg.declare(metadata i32* %j.addr, metadata !4157, metadata !DIExpression()), !dbg !4158
  %this1 = load %"class.dealii::TransposeTable"*, %"class.dealii::TransposeTable"** %this.addr, align 8
  %0 = bitcast %"class.dealii::TransposeTable"* %this1 to %"class.dealii::TableBase"*, !dbg !4159
  %val = getelementptr inbounds %"class.dealii::TableBase", %"class.dealii::TableBase"* %0, i32 0, i32 1, !dbg !4159
  %1 = load double*, double** %val, align 8, !dbg !4159
  %2 = load i32, i32* %j.addr, align 4, !dbg !4160
  %3 = bitcast %"class.dealii::TransposeTable"* %this1 to %"class.dealii::TableBase"*, !dbg !4161
  %table_size = getelementptr inbounds %"class.dealii::TableBase", %"class.dealii::TableBase"* %3, i32 0, i32 3, !dbg !4161
  %4 = bitcast %"class.dealii::TableIndices"* %table_size to %"class.dealii::TableIndicesBase"*, !dbg !4162
  %call = call i32 @_ZNK6dealii16TableIndicesBaseILi2EEixEj(%"class.dealii::TableIndicesBase"* %4, i32 1), !dbg !4162
  %mul = mul i32 %2, %call, !dbg !4163
  %5 = load i32, i32* %i.addr, align 4, !dbg !4164
  %add = add i32 %mul, %5, !dbg !4165
  %idxprom = zext i32 %add to i64, !dbg !4166
  %arrayidx = getelementptr inbounds double, double* %1, i64 %idxprom, !dbg !4166
  ret double* %arrayidx, !dbg !4167
}

; Function Attrs: nounwind readnone speculatable willreturn
declare double @llvm.fabs.f64(double) #5

declare dso_local dereferenceable(272) %"class.std::basic_ostream"* @_ZStlsISt11char_traitsIcEERSt13basic_ostreamIcT_ES5_c(%"class.std::basic_ostream"* dereferenceable(272), i8 signext) #2

declare dso_local dereferenceable(272) %"class.std::basic_ostream"* @_ZStlsIcSt11char_traitsIcEERSt13basic_ostreamIT_T0_ES6_St5_Setw(%"class.std::basic_ostream"* dereferenceable(272), i32) #2

; Function Attrs: noinline nounwind uwtable
define linkonce_odr dso_local i32 @_ZSt4setwi(i32 %__n) #1 comdat !dbg !4168 {
entry:
  %retval = alloca %"struct.std::_Setw", align 4
  %__n.addr = alloca i32, align 4
  store i32 %__n, i32* %__n.addr, align 4
  call void @llvm.dbg.declare(metadata i32* %__n.addr, metadata !4175, metadata !DIExpression()), !dbg !4176
  %_M_n = getelementptr inbounds %"struct.std::_Setw", %"struct.std::_Setw"* %retval, i32 0, i32 0, !dbg !4177
  %0 = load i32, i32* %__n.addr, align 4, !dbg !4178
  store i32 %0, i32* %_M_n, align 4, !dbg !4177
  %coerce.dive = getelementptr inbounds %"struct.std::_Setw", %"struct.std::_Setw"* %retval, i32 0, i32 0, !dbg !4179
  %1 = load i32, i32* %coerce.dive, align 4, !dbg !4179
  ret i32 %1, !dbg !4179
}

declare dso_local dereferenceable(272) %"class.std::basic_ostream"* @_ZNSolsEd(%"class.std::basic_ostream"*, double) #2

declare dso_local dereferenceable(272) %"class.std::basic_ostream"* @_ZStlsISt11char_traitsIcEERSt13basic_ostreamIcT_ES5_PKc(%"class.std::basic_ostream"* dereferenceable(272), i8*) #2

declare dso_local dereferenceable(272) %"class.std::basic_ostream"* @_ZNSolsEPFRSoS_E(%"class.std::basic_ostream"*, %"class.std::basic_ostream"* (%"class.std::basic_ostream"*)*) #2

declare dso_local dereferenceable(272) %"class.std::basic_ostream"* @_ZSt4endlIcSt11char_traitsIcEERSt13basic_ostreamIT_T0_ES6_(%"class.std::basic_ostream"* dereferenceable(272)) #2

declare dso_local zeroext i1 @_ZNKSt9basic_iosIcSt11char_traitsIcEEntEv(%"class.std::basic_ios"*) #2

; Function Attrs: noinline uwtable
define linkonce_odr dso_local void @_ZN6dealii18deal_II_exceptions9internals17issue_error_throwINS_18StandardExceptions5ExcIOEEEvPKciS6_S6_S6_T_(i8* %file, i32 %line, i8* %function, i8* %cond, i8* %exc_name, %"class.dealii::StandardExceptions::ExcIO"* %e) #0 comdat personality i8* bitcast (i32 (...)* @__gxx_personality_v0 to i8*) !dbg !4180 {
entry:
  %file.addr = alloca i8*, align 8
  %line.addr = alloca i32, align 4
  %function.addr = alloca i8*, align 8
  %cond.addr = alloca i8*, align 8
  %exc_name.addr = alloca i8*, align 8
  %exn.slot = alloca i8*
  %ehselector.slot = alloca i32
  store i8* %file, i8** %file.addr, align 8
  call void @llvm.dbg.declare(metadata i8** %file.addr, metadata !4193, metadata !DIExpression()), !dbg !4194
  store i32 %line, i32* %line.addr, align 4
  call void @llvm.dbg.declare(metadata i32* %line.addr, metadata !4195, metadata !DIExpression()), !dbg !4196
  store i8* %function, i8** %function.addr, align 8
  call void @llvm.dbg.declare(metadata i8** %function.addr, metadata !4197, metadata !DIExpression()), !dbg !4198
  store i8* %cond, i8** %cond.addr, align 8
  call void @llvm.dbg.declare(metadata i8** %cond.addr, metadata !4199, metadata !DIExpression()), !dbg !4200
  store i8* %exc_name, i8** %exc_name.addr, align 8
  call void @llvm.dbg.declare(metadata i8** %exc_name.addr, metadata !4201, metadata !DIExpression()), !dbg !4202
  call void @llvm.dbg.declare(metadata %"class.dealii::StandardExceptions::ExcIO"* %e, metadata !4203, metadata !DIExpression()), !dbg !4204
  %0 = bitcast %"class.dealii::StandardExceptions::ExcIO"* %e to %"class.dealii::ExceptionBase"*, !dbg !4205
  %1 = load i8*, i8** %file.addr, align 8, !dbg !4206
  %2 = load i32, i32* %line.addr, align 4, !dbg !4207
  %3 = load i8*, i8** %function.addr, align 8, !dbg !4208
  %4 = load i8*, i8** %cond.addr, align 8, !dbg !4209
  %5 = load i8*, i8** %exc_name.addr, align 8, !dbg !4210
  call void @_ZN6dealii13ExceptionBase10set_fieldsEPKciS2_S2_S2_(%"class.dealii::ExceptionBase"* %0, i8* %1, i32 %2, i8* %3, i8* %4, i8* %5), !dbg !4211
  %exception = call i8* @__cxa_allocate_exception(i64 64) #4, !dbg !4212
  %6 = bitcast i8* %exception to %"class.dealii::StandardExceptions::ExcIO"*, !dbg !4212
  invoke void @_ZN6dealii18StandardExceptions5ExcIOC2EOS1_(%"class.dealii::StandardExceptions::ExcIO"* %6, %"class.dealii::StandardExceptions::ExcIO"* dereferenceable(64) %e)
          to label %invoke.cont unwind label %lpad, !dbg !4213

invoke.cont:                                      ; preds = %entry
  call void @__cxa_throw(i8* %exception, i8* bitcast ({ i8*, i8*, i8* }* @_ZTIN6dealii18StandardExceptions5ExcIOE to i8*), i8* bitcast (void (%"class.dealii::StandardExceptions::ExcIO"*)* @_ZN6dealii18StandardExceptions5ExcIOD2Ev to i8*)) #11, !dbg !4212
  unreachable, !dbg !4212

lpad:                                             ; preds = %entry
  %7 = landingpad { i8*, i32 }
          cleanup, !dbg !4214
  %8 = extractvalue { i8*, i32 } %7, 0, !dbg !4214
  store i8* %8, i8** %exn.slot, align 8, !dbg !4214
  %9 = extractvalue { i8*, i32 } %7, 1, !dbg !4214
  store i32 %9, i32* %ehselector.slot, align 4, !dbg !4214
  call void @__cxa_free_exception(i8* %exception) #4, !dbg !4212
  br label %eh.resume, !dbg !4212

eh.resume:                                        ; preds = %lpad
  %exn = load i8*, i8** %exn.slot, align 8, !dbg !4212
  %sel = load i32, i32* %ehselector.slot, align 4, !dbg !4212
  %lpad.val = insertvalue { i8*, i32 } undef, i8* %exn, 0, !dbg !4212
  %lpad.val1 = insertvalue { i8*, i32 } %lpad.val, i32 %sel, 1, !dbg !4212
  resume { i8*, i32 } %lpad.val1, !dbg !4212
}

; Function Attrs: argmemonly nounwind willreturn
declare void @llvm.memset.p0i8.i64(i8* nocapture writeonly, i8, i64, i1 immarg) #6

; Function Attrs: noinline uwtable
define linkonce_odr dso_local void @_ZN6dealii18StandardExceptions5ExcIOC2Ev(%"class.dealii::StandardExceptions::ExcIO"* %this) unnamed_addr #0 comdat align 2 !dbg !4215 {
entry:
  %this.addr = alloca %"class.dealii::StandardExceptions::ExcIO"*, align 8
  store %"class.dealii::StandardExceptions::ExcIO"* %this, %"class.dealii::StandardExceptions::ExcIO"** %this.addr, align 8
  call void @llvm.dbg.declare(metadata %"class.dealii::StandardExceptions::ExcIO"** %this.addr, metadata !4220, metadata !DIExpression()), !dbg !4222
  %this1 = load %"class.dealii::StandardExceptions::ExcIO"*, %"class.dealii::StandardExceptions::ExcIO"** %this.addr, align 8
  %0 = bitcast %"class.dealii::StandardExceptions::ExcIO"* %this1 to %"class.dealii::ExceptionBase"*, !dbg !4223
  call void @_ZN6dealii13ExceptionBaseC2Ev(%"class.dealii::ExceptionBase"* %0), !dbg !4223
  %1 = bitcast %"class.dealii::StandardExceptions::ExcIO"* %this1 to i32 (...)***, !dbg !4223
  store i32 (...)** bitcast (i8** getelementptr inbounds ({ [6 x i8*] }, { [6 x i8*] }* @_ZTVN6dealii18StandardExceptions5ExcIOE, i32 0, inrange i32 0, i32 2) to i32 (...)**), i32 (...)*** %1, align 8, !dbg !4223
  ret void, !dbg !4223
}

declare dso_local i32 @__gxx_personality_v0(...)

; Function Attrs: noinline nounwind uwtable
define linkonce_odr dso_local void @_ZN6dealii18StandardExceptions5ExcIOD2Ev(%"class.dealii::StandardExceptions::ExcIO"* %this) unnamed_addr #1 comdat align 2 !dbg !4224 {
entry:
  %this.addr = alloca %"class.dealii::StandardExceptions::ExcIO"*, align 8
  store %"class.dealii::StandardExceptions::ExcIO"* %this, %"class.dealii::StandardExceptions::ExcIO"** %this.addr, align 8
  call void @llvm.dbg.declare(metadata %"class.dealii::StandardExceptions::ExcIO"** %this.addr, metadata !4226, metadata !DIExpression()), !dbg !4227
  %this1 = load %"class.dealii::StandardExceptions::ExcIO"*, %"class.dealii::StandardExceptions::ExcIO"** %this.addr, align 8
  %0 = bitcast %"class.dealii::StandardExceptions::ExcIO"* %this1 to %"class.dealii::ExceptionBase"*, !dbg !4228
  call void @_ZN6dealii13ExceptionBaseD2Ev(%"class.dealii::ExceptionBase"* %0) #4, !dbg !4228
  ret void, !dbg !4230
}

; Function Attrs: noinline nounwind uwtable
define linkonce_odr dso_local i32 @_ZNSt8ios_base5flagsESt13_Ios_Fmtflags(%"class.std::ios_base"* %this, i32 %__fmtfl) #1 comdat align 2 !dbg !4231 {
entry:
  %this.addr = alloca %"class.std::ios_base"*, align 8
  %__fmtfl.addr = alloca i32, align 4
  %__old = alloca i32, align 4
  store %"class.std::ios_base"* %this, %"class.std::ios_base"** %this.addr, align 8
  call void @llvm.dbg.declare(metadata %"class.std::ios_base"** %this.addr, metadata !4235, metadata !DIExpression()), !dbg !4236
  store i32 %__fmtfl, i32* %__fmtfl.addr, align 4
  call void @llvm.dbg.declare(metadata i32* %__fmtfl.addr, metadata !4237, metadata !DIExpression()), !dbg !4238
  %this1 = load %"class.std::ios_base"*, %"class.std::ios_base"** %this.addr, align 8
  call void @llvm.dbg.declare(metadata i32* %__old, metadata !4239, metadata !DIExpression()), !dbg !4240
  %_M_flags = getelementptr inbounds %"class.std::ios_base", %"class.std::ios_base"* %this1, i32 0, i32 3, !dbg !4241
  %0 = load i32, i32* %_M_flags, align 8, !dbg !4241
  store i32 %0, i32* %__old, align 4, !dbg !4240
  %1 = load i32, i32* %__fmtfl.addr, align 4, !dbg !4242
  %_M_flags2 = getelementptr inbounds %"class.std::ios_base", %"class.std::ios_base"* %this1, i32 0, i32 3, !dbg !4243
  store i32 %1, i32* %_M_flags2, align 8, !dbg !4244
  %2 = load i32, i32* %__old, align 4, !dbg !4245
  ret i32 %2, !dbg !4246
}

; Function Attrs: noinline uwtable
define weak_odr dso_local dereferenceable(272) %"class.dealii::LAPACKFullMatrix"* @_ZN6dealii16LAPACKFullMatrixIdEaSIdEERS1_RKNS_10FullMatrixIT_EE(%"class.dealii::LAPACKFullMatrix"* %this, %"class.dealii::FullMatrix"* dereferenceable(96) %M) #0 comdat align 2 !dbg !4247 {
entry:
  %this.addr = alloca %"class.dealii::LAPACKFullMatrix"*, align 8
  %M.addr = alloca %"class.dealii::FullMatrix"*, align 8
  %i = alloca i32, align 4
  %j = alloca i32, align 4
  store %"class.dealii::LAPACKFullMatrix"* %this, %"class.dealii::LAPACKFullMatrix"** %this.addr, align 8
  call void @llvm.dbg.declare(metadata %"class.dealii::LAPACKFullMatrix"** %this.addr, metadata !4257, metadata !DIExpression()), !dbg !4258
  store %"class.dealii::FullMatrix"* %M, %"class.dealii::FullMatrix"** %M.addr, align 8
  call void @llvm.dbg.declare(metadata %"class.dealii::FullMatrix"** %M.addr, metadata !4259, metadata !DIExpression()), !dbg !4260
  %this1 = load %"class.dealii::LAPACKFullMatrix"*, %"class.dealii::LAPACKFullMatrix"** %this.addr, align 8
  call void @llvm.dbg.declare(metadata i32* %i, metadata !4261, metadata !DIExpression()), !dbg !4263
  store i32 0, i32* %i, align 4, !dbg !4263
  br label %for.cond, !dbg !4264

for.cond:                                         ; preds = %for.inc8, %entry
  %0 = load i32, i32* %i, align 4, !dbg !4265
  %1 = bitcast %"class.dealii::LAPACKFullMatrix"* %this1 to %"class.dealii::TransposeTable"*, !dbg !4267
  %call = call i32 @_ZNK6dealii14TransposeTableIdE6n_rowsEv(%"class.dealii::TransposeTable"* %1), !dbg !4267
  %cmp = icmp ult i32 %0, %call, !dbg !4268
  br i1 %cmp, label %for.body, label %for.end10, !dbg !4269

for.body:                                         ; preds = %for.cond
  call void @llvm.dbg.declare(metadata i32* %j, metadata !4270, metadata !DIExpression()), !dbg !4272
  store i32 0, i32* %j, align 4, !dbg !4272
  br label %for.cond2, !dbg !4273

for.cond2:                                        ; preds = %for.inc, %for.body
  %2 = load i32, i32* %j, align 4, !dbg !4274
  %3 = bitcast %"class.dealii::LAPACKFullMatrix"* %this1 to %"class.dealii::TransposeTable"*, !dbg !4276
  %call3 = call i32 @_ZNK6dealii14TransposeTableIdE6n_colsEv(%"class.dealii::TransposeTable"* %3), !dbg !4276
  %cmp4 = icmp ult i32 %2, %call3, !dbg !4277
  br i1 %cmp4, label %for.body5, label %for.end, !dbg !4278

for.body5:                                        ; preds = %for.cond2
  %4 = load %"class.dealii::FullMatrix"*, %"class.dealii::FullMatrix"** %M.addr, align 8, !dbg !4279
  %5 = bitcast %"class.dealii::FullMatrix"* %4 to %"class.dealii::Table"*, !dbg !4279
  %6 = load i32, i32* %i, align 4, !dbg !4280
  %7 = load i32, i32* %j, align 4, !dbg !4281
  %call6 = call dereferenceable(8) double* @_ZNK6dealii5TableILi2EdEclEjj(%"class.dealii::Table"* %5, i32 %6, i32 %7), !dbg !4279
  %8 = load double, double* %call6, align 8, !dbg !4279
  %9 = bitcast %"class.dealii::LAPACKFullMatrix"* %this1 to %"class.dealii::TransposeTable"*, !dbg !4282
  %10 = load i32, i32* %i, align 4, !dbg !4283
  %11 = load i32, i32* %j, align 4, !dbg !4284
  %call7 = call dereferenceable(8) double* @_ZN6dealii14TransposeTableIdEclEjj(%"class.dealii::TransposeTable"* %9, i32 %10, i32 %11), !dbg !4282
  store double %8, double* %call7, align 8, !dbg !4285
  br label %for.inc, !dbg !4282

for.inc:                                          ; preds = %for.body5
  %12 = load i32, i32* %j, align 4, !dbg !4286
  %inc = add i32 %12, 1, !dbg !4286
  store i32 %inc, i32* %j, align 4, !dbg !4286
  br label %for.cond2, !dbg !4287, !llvm.loop !4288

for.end:                                          ; preds = %for.cond2
  br label %for.inc8, !dbg !4289

for.inc8:                                         ; preds = %for.end
  %13 = load i32, i32* %i, align 4, !dbg !4290
  %inc9 = add i32 %13, 1, !dbg !4290
  store i32 %inc9, i32* %i, align 4, !dbg !4290
  br label %for.cond, !dbg !4291, !llvm.loop !4292

for.end10:                                        ; preds = %for.cond
  %state = getelementptr inbounds %"class.dealii::LAPACKFullMatrix", %"class.dealii::LAPACKFullMatrix"* %this1, i32 0, i32 1, !dbg !4294
  store i32 0, i32* %state, align 4, !dbg !4295
  ret %"class.dealii::LAPACKFullMatrix"* %this1, !dbg !4296
}

; Function Attrs: noinline nounwind uwtable
define linkonce_odr dso_local dereferenceable(8) double* @_ZNK6dealii5TableILi2EdEclEjj(%"class.dealii::Table"* %this, i32 %i, i32 %j) #1 comdat align 2 !dbg !4297 {
entry:
  %this.addr = alloca %"class.dealii::Table"*, align 8
  %i.addr = alloca i32, align 4
  %j.addr = alloca i32, align 4
  store %"class.dealii::Table"* %this, %"class.dealii::Table"** %this.addr, align 8
  call void @llvm.dbg.declare(metadata %"class.dealii::Table"** %this.addr, metadata !4304, metadata !DIExpression()), !dbg !4306
  store i32 %i, i32* %i.addr, align 4
  call void @llvm.dbg.declare(metadata i32* %i.addr, metadata !4307, metadata !DIExpression()), !dbg !4308
  store i32 %j, i32* %j.addr, align 4
  call void @llvm.dbg.declare(metadata i32* %j.addr, metadata !4309, metadata !DIExpression()), !dbg !4310
  %this1 = load %"class.dealii::Table"*, %"class.dealii::Table"** %this.addr, align 8
  %0 = bitcast %"class.dealii::Table"* %this1 to %"class.dealii::TableBase"*, !dbg !4311
  %val = getelementptr inbounds %"class.dealii::TableBase", %"class.dealii::TableBase"* %0, i32 0, i32 1, !dbg !4311
  %1 = load double*, double** %val, align 8, !dbg !4311
  %2 = load i32, i32* %i.addr, align 4, !dbg !4312
  %3 = bitcast %"class.dealii::Table"* %this1 to %"class.dealii::TableBase"*, !dbg !4313
  %table_size = getelementptr inbounds %"class.dealii::TableBase", %"class.dealii::TableBase"* %3, i32 0, i32 3, !dbg !4313
  %4 = bitcast %"class.dealii::TableIndices"* %table_size to %"class.dealii::TableIndicesBase"*, !dbg !4314
  %call = call i32 @_ZNK6dealii16TableIndicesBaseILi2EEixEj(%"class.dealii::TableIndicesBase"* %4, i32 1), !dbg !4314
  %mul = mul i32 %2, %call, !dbg !4315
  %5 = load i32, i32* %j.addr, align 4, !dbg !4316
  %add = add i32 %mul, %5, !dbg !4317
  %idxprom = zext i32 %add to i64, !dbg !4318
  %arrayidx = getelementptr inbounds double, double* %1, i64 %idxprom, !dbg !4318
  ret double* %arrayidx, !dbg !4319
}

; Function Attrs: noinline nounwind uwtable
define linkonce_odr dso_local dereferenceable(8) double* @_ZN6dealii14TransposeTableIdEclEjj(%"class.dealii::TransposeTable"* %this, i32 %i, i32 %j) #1 comdat align 2 !dbg !4320 {
entry:
  %this.addr = alloca %"class.dealii::TransposeTable"*, align 8
  %i.addr = alloca i32, align 4
  %j.addr = alloca i32, align 4
  store %"class.dealii::TransposeTable"* %this, %"class.dealii::TransposeTable"** %this.addr, align 8
  call void @llvm.dbg.declare(metadata %"class.dealii::TransposeTable"** %this.addr, metadata !4321, metadata !DIExpression()), !dbg !4322
  store i32 %i, i32* %i.addr, align 4
  call void @llvm.dbg.declare(metadata i32* %i.addr, metadata !4323, metadata !DIExpression()), !dbg !4324
  store i32 %j, i32* %j.addr, align 4
  call void @llvm.dbg.declare(metadata i32* %j.addr, metadata !4325, metadata !DIExpression()), !dbg !4326
  %this1 = load %"class.dealii::TransposeTable"*, %"class.dealii::TransposeTable"** %this.addr, align 8
  %0 = bitcast %"class.dealii::TransposeTable"* %this1 to %"class.dealii::TableBase"*, !dbg !4327
  %val = getelementptr inbounds %"class.dealii::TableBase", %"class.dealii::TableBase"* %0, i32 0, i32 1, !dbg !4327
  %1 = load double*, double** %val, align 8, !dbg !4327
  %2 = load i32, i32* %j.addr, align 4, !dbg !4328
  %3 = bitcast %"class.dealii::TransposeTable"* %this1 to %"class.dealii::TableBase"*, !dbg !4329
  %table_size = getelementptr inbounds %"class.dealii::TableBase", %"class.dealii::TableBase"* %3, i32 0, i32 3, !dbg !4329
  %4 = bitcast %"class.dealii::TableIndices"* %table_size to %"class.dealii::TableIndicesBase"*, !dbg !4330
  %call = call i32 @_ZNK6dealii16TableIndicesBaseILi2EEixEj(%"class.dealii::TableIndicesBase"* %4, i32 1), !dbg !4330
  %mul = mul i32 %2, %call, !dbg !4331
  %5 = load i32, i32* %i.addr, align 4, !dbg !4332
  %add = add i32 %mul, %5, !dbg !4333
  %idxprom = zext i32 %add to i64, !dbg !4334
  %arrayidx = getelementptr inbounds double, double* %1, i64 %idxprom, !dbg !4334
  ret double* %arrayidx, !dbg !4335
}

; Function Attrs: noinline uwtable
define weak_odr dso_local dereferenceable(272) %"class.dealii::LAPACKFullMatrix"* @_ZN6dealii16LAPACKFullMatrixIdEaSIfEERS1_RKNS_10FullMatrixIT_EE(%"class.dealii::LAPACKFullMatrix"* %this, %"class.dealii::FullMatrix.24"* dereferenceable(96) %M) #0 comdat align 2 !dbg !4336 {
entry:
  %this.addr = alloca %"class.dealii::LAPACKFullMatrix"*, align 8
  %M.addr = alloca %"class.dealii::FullMatrix.24"*, align 8
  %i = alloca i32, align 4
  %j = alloca i32, align 4
  store %"class.dealii::LAPACKFullMatrix"* %this, %"class.dealii::LAPACKFullMatrix"** %this.addr, align 8
  call void @llvm.dbg.declare(metadata %"class.dealii::LAPACKFullMatrix"** %this.addr, metadata !4345, metadata !DIExpression()), !dbg !4346
  store %"class.dealii::FullMatrix.24"* %M, %"class.dealii::FullMatrix.24"** %M.addr, align 8
  call void @llvm.dbg.declare(metadata %"class.dealii::FullMatrix.24"** %M.addr, metadata !4347, metadata !DIExpression()), !dbg !4348
  %this1 = load %"class.dealii::LAPACKFullMatrix"*, %"class.dealii::LAPACKFullMatrix"** %this.addr, align 8
  call void @llvm.dbg.declare(metadata i32* %i, metadata !4349, metadata !DIExpression()), !dbg !4351
  store i32 0, i32* %i, align 4, !dbg !4351
  br label %for.cond, !dbg !4352

for.cond:                                         ; preds = %for.inc8, %entry
  %0 = load i32, i32* %i, align 4, !dbg !4353
  %1 = bitcast %"class.dealii::LAPACKFullMatrix"* %this1 to %"class.dealii::TransposeTable"*, !dbg !4355
  %call = call i32 @_ZNK6dealii14TransposeTableIdE6n_rowsEv(%"class.dealii::TransposeTable"* %1), !dbg !4355
  %cmp = icmp ult i32 %0, %call, !dbg !4356
  br i1 %cmp, label %for.body, label %for.end10, !dbg !4357

for.body:                                         ; preds = %for.cond
  call void @llvm.dbg.declare(metadata i32* %j, metadata !4358, metadata !DIExpression()), !dbg !4360
  store i32 0, i32* %j, align 4, !dbg !4360
  br label %for.cond2, !dbg !4361

for.cond2:                                        ; preds = %for.inc, %for.body
  %2 = load i32, i32* %j, align 4, !dbg !4362
  %3 = bitcast %"class.dealii::LAPACKFullMatrix"* %this1 to %"class.dealii::TransposeTable"*, !dbg !4364
  %call3 = call i32 @_ZNK6dealii14TransposeTableIdE6n_colsEv(%"class.dealii::TransposeTable"* %3), !dbg !4364
  %cmp4 = icmp ult i32 %2, %call3, !dbg !4365
  br i1 %cmp4, label %for.body5, label %for.end, !dbg !4366

for.body5:                                        ; preds = %for.cond2
  %4 = load %"class.dealii::FullMatrix.24"*, %"class.dealii::FullMatrix.24"** %M.addr, align 8, !dbg !4367
  %5 = bitcast %"class.dealii::FullMatrix.24"* %4 to %"class.dealii::Table.25"*, !dbg !4367
  %6 = load i32, i32* %i, align 4, !dbg !4368
  %7 = load i32, i32* %j, align 4, !dbg !4369
  %call6 = call dereferenceable(4) float* @_ZNK6dealii5TableILi2EfEclEjj(%"class.dealii::Table.25"* %5, i32 %6, i32 %7), !dbg !4367
  %8 = load float, float* %call6, align 4, !dbg !4367
  %conv = fpext float %8 to double, !dbg !4367
  %9 = bitcast %"class.dealii::LAPACKFullMatrix"* %this1 to %"class.dealii::TransposeTable"*, !dbg !4370
  %10 = load i32, i32* %i, align 4, !dbg !4371
  %11 = load i32, i32* %j, align 4, !dbg !4372
  %call7 = call dereferenceable(8) double* @_ZN6dealii14TransposeTableIdEclEjj(%"class.dealii::TransposeTable"* %9, i32 %10, i32 %11), !dbg !4370
  store double %conv, double* %call7, align 8, !dbg !4373
  br label %for.inc, !dbg !4370

for.inc:                                          ; preds = %for.body5
  %12 = load i32, i32* %j, align 4, !dbg !4374
  %inc = add i32 %12, 1, !dbg !4374
  store i32 %inc, i32* %j, align 4, !dbg !4374
  br label %for.cond2, !dbg !4375, !llvm.loop !4376

for.end:                                          ; preds = %for.cond2
  br label %for.inc8, !dbg !4377

for.inc8:                                         ; preds = %for.end
  %13 = load i32, i32* %i, align 4, !dbg !4378
  %inc9 = add i32 %13, 1, !dbg !4378
  store i32 %inc9, i32* %i, align 4, !dbg !4378
  br label %for.cond, !dbg !4379, !llvm.loop !4380

for.end10:                                        ; preds = %for.cond
  %state = getelementptr inbounds %"class.dealii::LAPACKFullMatrix", %"class.dealii::LAPACKFullMatrix"* %this1, i32 0, i32 1, !dbg !4382
  store i32 0, i32* %state, align 4, !dbg !4383
  ret %"class.dealii::LAPACKFullMatrix"* %this1, !dbg !4384
}

; Function Attrs: noinline nounwind uwtable
define linkonce_odr dso_local dereferenceable(4) float* @_ZNK6dealii5TableILi2EfEclEjj(%"class.dealii::Table.25"* %this, i32 %i, i32 %j) #1 comdat align 2 !dbg !4385 {
entry:
  %this.addr = alloca %"class.dealii::Table.25"*, align 8
  %i.addr = alloca i32, align 4
  %j.addr = alloca i32, align 4
  store %"class.dealii::Table.25"* %this, %"class.dealii::Table.25"** %this.addr, align 8
  call void @llvm.dbg.declare(metadata %"class.dealii::Table.25"** %this.addr, metadata !4392, metadata !DIExpression()), !dbg !4394
  store i32 %i, i32* %i.addr, align 4
  call void @llvm.dbg.declare(metadata i32* %i.addr, metadata !4395, metadata !DIExpression()), !dbg !4396
  store i32 %j, i32* %j.addr, align 4
  call void @llvm.dbg.declare(metadata i32* %j.addr, metadata !4397, metadata !DIExpression()), !dbg !4398
  %this1 = load %"class.dealii::Table.25"*, %"class.dealii::Table.25"** %this.addr, align 8
  %0 = bitcast %"class.dealii::Table.25"* %this1 to %"class.dealii::TableBase.26"*, !dbg !4399
  %val = getelementptr inbounds %"class.dealii::TableBase.26", %"class.dealii::TableBase.26"* %0, i32 0, i32 1, !dbg !4399
  %1 = load float*, float** %val, align 8, !dbg !4399
  %2 = load i32, i32* %i.addr, align 4, !dbg !4400
  %3 = bitcast %"class.dealii::Table.25"* %this1 to %"class.dealii::TableBase.26"*, !dbg !4401
  %table_size = getelementptr inbounds %"class.dealii::TableBase.26", %"class.dealii::TableBase.26"* %3, i32 0, i32 3, !dbg !4401
  %4 = bitcast %"class.dealii::TableIndices"* %table_size to %"class.dealii::TableIndicesBase"*, !dbg !4402
  %call = call i32 @_ZNK6dealii16TableIndicesBaseILi2EEixEj(%"class.dealii::TableIndicesBase"* %4, i32 1), !dbg !4402
  %mul = mul i32 %2, %call, !dbg !4403
  %5 = load i32, i32* %j.addr, align 4, !dbg !4404
  %add = add i32 %mul, %5, !dbg !4405
  %idxprom = zext i32 %add to i64, !dbg !4406
  %arrayidx = getelementptr inbounds float, float* %1, i64 %idxprom, !dbg !4406
  ret float* %arrayidx, !dbg !4407
}

; Function Attrs: noinline uwtable
define weak_odr dso_local void @_ZN6dealii16LAPACKFullMatrixIfEC2Ej(%"class.dealii::LAPACKFullMatrix.30"* %this, i32 %n) unnamed_addr #0 comdat($_ZN6dealii16LAPACKFullMatrixIfEC5Ej) align 2 !dbg !4408 {
entry:
  %this.addr = alloca %"class.dealii::LAPACKFullMatrix.30"*, align 8
  %n.addr = alloca i32, align 4
  store %"class.dealii::LAPACKFullMatrix.30"* %this, %"class.dealii::LAPACKFullMatrix.30"** %this.addr, align 8
  call void @llvm.dbg.declare(metadata %"class.dealii::LAPACKFullMatrix.30"** %this.addr, metadata !4409, metadata !DIExpression()), !dbg !4411
  store i32 %n, i32* %n.addr, align 4
  call void @llvm.dbg.declare(metadata i32* %n.addr, metadata !4412, metadata !DIExpression()), !dbg !4413
  %this1 = load %"class.dealii::LAPACKFullMatrix.30"*, %"class.dealii::LAPACKFullMatrix.30"** %this.addr, align 8
  %0 = bitcast %"class.dealii::LAPACKFullMatrix.30"* %this1 to %"class.dealii::TransposeTable.31"*, !dbg !4414
  %1 = load i32, i32* %n.addr, align 4, !dbg !4415
  %2 = load i32, i32* %n.addr, align 4, !dbg !4416
  call void @_ZN6dealii14TransposeTableIfEC2Ejj(%"class.dealii::TransposeTable.31"* %0, i32 %1, i32 %2), !dbg !4417
  %3 = bitcast %"class.dealii::LAPACKFullMatrix.30"* %this1 to i32 (...)***, !dbg !4414
  store i32 (...)** bitcast (i8** getelementptr inbounds ({ [4 x i8*] }, { [4 x i8*] }* @_ZTVN6dealii16LAPACKFullMatrixIfEE, i32 0, inrange i32 0, i32 2) to i32 (...)**), i32 (...)*** %3, align 8, !dbg !4414
  %state = getelementptr inbounds %"class.dealii::LAPACKFullMatrix.30", %"class.dealii::LAPACKFullMatrix.30"* %this1, i32 0, i32 1, !dbg !4418
  store i32 0, i32* %state, align 4, !dbg !4418
  %work = getelementptr inbounds %"class.dealii::LAPACKFullMatrix.30", %"class.dealii::LAPACKFullMatrix.30"* %this1, i32 0, i32 3, !dbg !4419
  call void @_ZNSt6vectorIfSaIfEEC2Ev(%"class.std::vector.33"* %work) #4, !dbg !4419
  %ipiv = getelementptr inbounds %"class.dealii::LAPACKFullMatrix.30", %"class.dealii::LAPACKFullMatrix.30"* %this1, i32 0, i32 4, !dbg !4419
  call void @_ZNSt6vectorIiSaIiEEC2Ev(%"class.std::vector.19"* %ipiv) #4, !dbg !4419
  %inv_work = getelementptr inbounds %"class.dealii::LAPACKFullMatrix.30", %"class.dealii::LAPACKFullMatrix.30"* %this1, i32 0, i32 5, !dbg !4419
  call void @_ZNSt6vectorIfSaIfEEC2Ev(%"class.std::vector.33"* %inv_work) #4, !dbg !4419
  %wr = getelementptr inbounds %"class.dealii::LAPACKFullMatrix.30", %"class.dealii::LAPACKFullMatrix.30"* %this1, i32 0, i32 6, !dbg !4419
  call void @_ZNSt6vectorIfSaIfEEC2Ev(%"class.std::vector.33"* %wr) #4, !dbg !4419
  %wi = getelementptr inbounds %"class.dealii::LAPACKFullMatrix.30", %"class.dealii::LAPACKFullMatrix.30"* %this1, i32 0, i32 7, !dbg !4419
  call void @_ZNSt6vectorIfSaIfEEC2Ev(%"class.std::vector.33"* %wi) #4, !dbg !4419
  %vl = getelementptr inbounds %"class.dealii::LAPACKFullMatrix.30", %"class.dealii::LAPACKFullMatrix.30"* %this1, i32 0, i32 8, !dbg !4419
  call void @_ZNSt6vectorIfSaIfEEC2Ev(%"class.std::vector.33"* %vl) #4, !dbg !4419
  %vr = getelementptr inbounds %"class.dealii::LAPACKFullMatrix.30", %"class.dealii::LAPACKFullMatrix.30"* %this1, i32 0, i32 9, !dbg !4419
  call void @_ZNSt6vectorIfSaIfEEC2Ev(%"class.std::vector.33"* %vr) #4, !dbg !4419
  ret void, !dbg !4421
}

; Function Attrs: noinline uwtable
define linkonce_odr dso_local void @_ZN6dealii14TransposeTableIfEC2Ejj(%"class.dealii::TransposeTable.31"* %this, i32 %size1, i32 %size2) unnamed_addr #0 comdat align 2 !dbg !4423 {
entry:
  %this.addr = alloca %"class.dealii::TransposeTable.31"*, align 8
  %size1.addr = alloca i32, align 4
  %size2.addr = alloca i32, align 4
  %ref.tmp = alloca %"class.dealii::TableIndices", align 4
  store %"class.dealii::TransposeTable.31"* %this, %"class.dealii::TransposeTable.31"** %this.addr, align 8
  call void @llvm.dbg.declare(metadata %"class.dealii::TransposeTable.31"** %this.addr, metadata !4424, metadata !DIExpression()), !dbg !4426
  store i32 %size1, i32* %size1.addr, align 4
  call void @llvm.dbg.declare(metadata i32* %size1.addr, metadata !4427, metadata !DIExpression()), !dbg !4428
  store i32 %size2, i32* %size2.addr, align 4
  call void @llvm.dbg.declare(metadata i32* %size2.addr, metadata !4429, metadata !DIExpression()), !dbg !4430
  %this1 = load %"class.dealii::TransposeTable.31"*, %"class.dealii::TransposeTable.31"** %this.addr, align 8
  %0 = bitcast %"class.dealii::TransposeTable.31"* %this1 to %"class.dealii::TableBase.26"*, !dbg !4431
  %1 = load i32, i32* %size2.addr, align 4, !dbg !4432
  %2 = load i32, i32* %size1.addr, align 4, !dbg !4433
  call void @_ZN6dealii12TableIndicesILi2EEC2Ejj(%"class.dealii::TableIndices"* %ref.tmp, i32 %1, i32 %2), !dbg !4434
  call void @_ZN6dealii9TableBaseILi2EfEC2ERKNS_12TableIndicesILi2EEE(%"class.dealii::TableBase.26"* %0, %"class.dealii::TableIndices"* dereferenceable(8) %ref.tmp), !dbg !4435
  %3 = bitcast %"class.dealii::TransposeTable.31"* %this1 to i32 (...)***, !dbg !4431
  store i32 (...)** bitcast (i8** getelementptr inbounds ({ [4 x i8*] }, { [4 x i8*] }* @_ZTVN6dealii14TransposeTableIfEE, i32 0, inrange i32 0, i32 2) to i32 (...)**), i32 (...)*** %3, align 8, !dbg !4431
  ret void, !dbg !4436
}

; Function Attrs: noinline nounwind uwtable
define linkonce_odr dso_local void @_ZNSt6vectorIfSaIfEEC2Ev(%"class.std::vector.33"* %this) unnamed_addr #1 comdat align 2 !dbg !4437 {
entry:
  %this.addr = alloca %"class.std::vector.33"*, align 8
  store %"class.std::vector.33"* %this, %"class.std::vector.33"** %this.addr, align 8
  call void @llvm.dbg.declare(metadata %"class.std::vector.33"** %this.addr, metadata !4438, metadata !DIExpression()), !dbg !4440
  %this1 = load %"class.std::vector.33"*, %"class.std::vector.33"** %this.addr, align 8
  %0 = bitcast %"class.std::vector.33"* %this1 to %"struct.std::_Vector_base.34"*, !dbg !4441
  call void @_ZNSt12_Vector_baseIfSaIfEEC2Ev(%"struct.std::_Vector_base.34"* %0) #4, !dbg !4442
  ret void, !dbg !4441
}

; Function Attrs: noinline uwtable
define weak_odr dso_local void @_ZN6dealii16LAPACKFullMatrixIfEC2Ejj(%"class.dealii::LAPACKFullMatrix.30"* %this, i32 %m, i32 %n) unnamed_addr #0 comdat($_ZN6dealii16LAPACKFullMatrixIfEC5Ejj) align 2 !dbg !4443 {
entry:
  %this.addr = alloca %"class.dealii::LAPACKFullMatrix.30"*, align 8
  %m.addr = alloca i32, align 4
  %n.addr = alloca i32, align 4
  store %"class.dealii::LAPACKFullMatrix.30"* %this, %"class.dealii::LAPACKFullMatrix.30"** %this.addr, align 8
  call void @llvm.dbg.declare(metadata %"class.dealii::LAPACKFullMatrix.30"** %this.addr, metadata !4444, metadata !DIExpression()), !dbg !4445
  store i32 %m, i32* %m.addr, align 4
  call void @llvm.dbg.declare(metadata i32* %m.addr, metadata !4446, metadata !DIExpression()), !dbg !4447
  store i32 %n, i32* %n.addr, align 4
  call void @llvm.dbg.declare(metadata i32* %n.addr, metadata !4448, metadata !DIExpression()), !dbg !4449
  %this1 = load %"class.dealii::LAPACKFullMatrix.30"*, %"class.dealii::LAPACKFullMatrix.30"** %this.addr, align 8
  %0 = bitcast %"class.dealii::LAPACKFullMatrix.30"* %this1 to %"class.dealii::TransposeTable.31"*, !dbg !4450
  %1 = load i32, i32* %m.addr, align 4, !dbg !4451
  %2 = load i32, i32* %n.addr, align 4, !dbg !4452
  call void @_ZN6dealii14TransposeTableIfEC2Ejj(%"class.dealii::TransposeTable.31"* %0, i32 %1, i32 %2), !dbg !4453
  %3 = bitcast %"class.dealii::LAPACKFullMatrix.30"* %this1 to i32 (...)***, !dbg !4450
  store i32 (...)** bitcast (i8** getelementptr inbounds ({ [4 x i8*] }, { [4 x i8*] }* @_ZTVN6dealii16LAPACKFullMatrixIfEE, i32 0, inrange i32 0, i32 2) to i32 (...)**), i32 (...)*** %3, align 8, !dbg !4450
  %state = getelementptr inbounds %"class.dealii::LAPACKFullMatrix.30", %"class.dealii::LAPACKFullMatrix.30"* %this1, i32 0, i32 1, !dbg !4454
  store i32 0, i32* %state, align 4, !dbg !4454
  %work = getelementptr inbounds %"class.dealii::LAPACKFullMatrix.30", %"class.dealii::LAPACKFullMatrix.30"* %this1, i32 0, i32 3, !dbg !4455
  call void @_ZNSt6vectorIfSaIfEEC2Ev(%"class.std::vector.33"* %work) #4, !dbg !4455
  %ipiv = getelementptr inbounds %"class.dealii::LAPACKFullMatrix.30", %"class.dealii::LAPACKFullMatrix.30"* %this1, i32 0, i32 4, !dbg !4455
  call void @_ZNSt6vectorIiSaIiEEC2Ev(%"class.std::vector.19"* %ipiv) #4, !dbg !4455
  %inv_work = getelementptr inbounds %"class.dealii::LAPACKFullMatrix.30", %"class.dealii::LAPACKFullMatrix.30"* %this1, i32 0, i32 5, !dbg !4455
  call void @_ZNSt6vectorIfSaIfEEC2Ev(%"class.std::vector.33"* %inv_work) #4, !dbg !4455
  %wr = getelementptr inbounds %"class.dealii::LAPACKFullMatrix.30", %"class.dealii::LAPACKFullMatrix.30"* %this1, i32 0, i32 6, !dbg !4455
  call void @_ZNSt6vectorIfSaIfEEC2Ev(%"class.std::vector.33"* %wr) #4, !dbg !4455
  %wi = getelementptr inbounds %"class.dealii::LAPACKFullMatrix.30", %"class.dealii::LAPACKFullMatrix.30"* %this1, i32 0, i32 7, !dbg !4455
  call void @_ZNSt6vectorIfSaIfEEC2Ev(%"class.std::vector.33"* %wi) #4, !dbg !4455
  %vl = getelementptr inbounds %"class.dealii::LAPACKFullMatrix.30", %"class.dealii::LAPACKFullMatrix.30"* %this1, i32 0, i32 8, !dbg !4455
  call void @_ZNSt6vectorIfSaIfEEC2Ev(%"class.std::vector.33"* %vl) #4, !dbg !4455
  %vr = getelementptr inbounds %"class.dealii::LAPACKFullMatrix.30", %"class.dealii::LAPACKFullMatrix.30"* %this1, i32 0, i32 9, !dbg !4455
  call void @_ZNSt6vectorIfSaIfEEC2Ev(%"class.std::vector.33"* %vr) #4, !dbg !4455
  ret void, !dbg !4457
}

; Function Attrs: noinline uwtable
define weak_odr dso_local void @_ZN6dealii16LAPACKFullMatrixIfEC2ERKS1_(%"class.dealii::LAPACKFullMatrix.30"* %this, %"class.dealii::LAPACKFullMatrix.30"* dereferenceable(272) %M) unnamed_addr #0 comdat($_ZN6dealii16LAPACKFullMatrixIfEC5ERKS1_) align 2 !dbg !4459 {
entry:
  %this.addr = alloca %"class.dealii::LAPACKFullMatrix.30"*, align 8
  %M.addr = alloca %"class.dealii::LAPACKFullMatrix.30"*, align 8
  store %"class.dealii::LAPACKFullMatrix.30"* %this, %"class.dealii::LAPACKFullMatrix.30"** %this.addr, align 8
  call void @llvm.dbg.declare(metadata %"class.dealii::LAPACKFullMatrix.30"** %this.addr, metadata !4460, metadata !DIExpression()), !dbg !4461
  store %"class.dealii::LAPACKFullMatrix.30"* %M, %"class.dealii::LAPACKFullMatrix.30"** %M.addr, align 8
  call void @llvm.dbg.declare(metadata %"class.dealii::LAPACKFullMatrix.30"** %M.addr, metadata !4462, metadata !DIExpression()), !dbg !4463
  %this1 = load %"class.dealii::LAPACKFullMatrix.30"*, %"class.dealii::LAPACKFullMatrix.30"** %this.addr, align 8
  %0 = bitcast %"class.dealii::LAPACKFullMatrix.30"* %this1 to %"class.dealii::TransposeTable.31"*, !dbg !4464
  %1 = load %"class.dealii::LAPACKFullMatrix.30"*, %"class.dealii::LAPACKFullMatrix.30"** %M.addr, align 8, !dbg !4465
  %2 = bitcast %"class.dealii::LAPACKFullMatrix.30"* %1 to %"class.dealii::TransposeTable.31"*, !dbg !4465
  call void @_ZN6dealii14TransposeTableIfEC2ERKS1_(%"class.dealii::TransposeTable.31"* %0, %"class.dealii::TransposeTable.31"* dereferenceable(96) %2), !dbg !4466
  %3 = bitcast %"class.dealii::LAPACKFullMatrix.30"* %this1 to i32 (...)***, !dbg !4464
  store i32 (...)** bitcast (i8** getelementptr inbounds ({ [4 x i8*] }, { [4 x i8*] }* @_ZTVN6dealii16LAPACKFullMatrixIfEE, i32 0, inrange i32 0, i32 2) to i32 (...)**), i32 (...)*** %3, align 8, !dbg !4464
  %state = getelementptr inbounds %"class.dealii::LAPACKFullMatrix.30", %"class.dealii::LAPACKFullMatrix.30"* %this1, i32 0, i32 1, !dbg !4467
  store i32 0, i32* %state, align 4, !dbg !4467
  %work = getelementptr inbounds %"class.dealii::LAPACKFullMatrix.30", %"class.dealii::LAPACKFullMatrix.30"* %this1, i32 0, i32 3, !dbg !4468
  call void @_ZNSt6vectorIfSaIfEEC2Ev(%"class.std::vector.33"* %work) #4, !dbg !4468
  %ipiv = getelementptr inbounds %"class.dealii::LAPACKFullMatrix.30", %"class.dealii::LAPACKFullMatrix.30"* %this1, i32 0, i32 4, !dbg !4468
  call void @_ZNSt6vectorIiSaIiEEC2Ev(%"class.std::vector.19"* %ipiv) #4, !dbg !4468
  %inv_work = getelementptr inbounds %"class.dealii::LAPACKFullMatrix.30", %"class.dealii::LAPACKFullMatrix.30"* %this1, i32 0, i32 5, !dbg !4468
  call void @_ZNSt6vectorIfSaIfEEC2Ev(%"class.std::vector.33"* %inv_work) #4, !dbg !4468
  %wr = getelementptr inbounds %"class.dealii::LAPACKFullMatrix.30", %"class.dealii::LAPACKFullMatrix.30"* %this1, i32 0, i32 6, !dbg !4468
  call void @_ZNSt6vectorIfSaIfEEC2Ev(%"class.std::vector.33"* %wr) #4, !dbg !4468
  %wi = getelementptr inbounds %"class.dealii::LAPACKFullMatrix.30", %"class.dealii::LAPACKFullMatrix.30"* %this1, i32 0, i32 7, !dbg !4468
  call void @_ZNSt6vectorIfSaIfEEC2Ev(%"class.std::vector.33"* %wi) #4, !dbg !4468
  %vl = getelementptr inbounds %"class.dealii::LAPACKFullMatrix.30", %"class.dealii::LAPACKFullMatrix.30"* %this1, i32 0, i32 8, !dbg !4468
  call void @_ZNSt6vectorIfSaIfEEC2Ev(%"class.std::vector.33"* %vl) #4, !dbg !4468
  %vr = getelementptr inbounds %"class.dealii::LAPACKFullMatrix.30", %"class.dealii::LAPACKFullMatrix.30"* %this1, i32 0, i32 9, !dbg !4468
  call void @_ZNSt6vectorIfSaIfEEC2Ev(%"class.std::vector.33"* %vr) #4, !dbg !4468
  ret void, !dbg !4470
}

; Function Attrs: noinline uwtable
define linkonce_odr dso_local void @_ZN6dealii14TransposeTableIfEC2ERKS1_(%"class.dealii::TransposeTable.31"* %this, %"class.dealii::TransposeTable.31"* dereferenceable(96) %0) unnamed_addr #0 comdat align 2 !dbg !4472 {
entry:
  %this.addr = alloca %"class.dealii::TransposeTable.31"*, align 8
  %.addr = alloca %"class.dealii::TransposeTable.31"*, align 8
  store %"class.dealii::TransposeTable.31"* %this, %"class.dealii::TransposeTable.31"** %this.addr, align 8
  call void @llvm.dbg.declare(metadata %"class.dealii::TransposeTable.31"** %this.addr, metadata !4477, metadata !DIExpression()), !dbg !4478
  store %"class.dealii::TransposeTable.31"* %0, %"class.dealii::TransposeTable.31"** %.addr, align 8
  call void @llvm.dbg.declare(metadata %"class.dealii::TransposeTable.31"** %.addr, metadata !4479, metadata !DIExpression()), !dbg !4478
  %this1 = load %"class.dealii::TransposeTable.31"*, %"class.dealii::TransposeTable.31"** %this.addr, align 8
  %1 = bitcast %"class.dealii::TransposeTable.31"* %this1 to %"class.dealii::TableBase.26"*, !dbg !4480
  %2 = load %"class.dealii::TransposeTable.31"*, %"class.dealii::TransposeTable.31"** %.addr, align 8, !dbg !4480
  %3 = bitcast %"class.dealii::TransposeTable.31"* %2 to %"class.dealii::TableBase.26"*, !dbg !4480
  call void @_ZN6dealii9TableBaseILi2EfEC2ERKS1_(%"class.dealii::TableBase.26"* %1, %"class.dealii::TableBase.26"* dereferenceable(96) %3), !dbg !4480
  %4 = bitcast %"class.dealii::TransposeTable.31"* %this1 to i32 (...)***, !dbg !4480
  store i32 (...)** bitcast (i8** getelementptr inbounds ({ [4 x i8*] }, { [4 x i8*] }* @_ZTVN6dealii14TransposeTableIfEE, i32 0, inrange i32 0, i32 2) to i32 (...)**), i32 (...)*** %4, align 8, !dbg !4480
  ret void, !dbg !4480
}

; Function Attrs: noinline uwtable
define weak_odr dso_local dereferenceable(272) %"class.dealii::LAPACKFullMatrix.30"* @_ZN6dealii16LAPACKFullMatrixIfEaSERKS1_(%"class.dealii::LAPACKFullMatrix.30"* %this, %"class.dealii::LAPACKFullMatrix.30"* dereferenceable(272) %M) #0 comdat align 2 !dbg !4481 {
entry:
  %this.addr = alloca %"class.dealii::LAPACKFullMatrix.30"*, align 8
  %M.addr = alloca %"class.dealii::LAPACKFullMatrix.30"*, align 8
  store %"class.dealii::LAPACKFullMatrix.30"* %this, %"class.dealii::LAPACKFullMatrix.30"** %this.addr, align 8
  call void @llvm.dbg.declare(metadata %"class.dealii::LAPACKFullMatrix.30"** %this.addr, metadata !4482, metadata !DIExpression()), !dbg !4483
  store %"class.dealii::LAPACKFullMatrix.30"* %M, %"class.dealii::LAPACKFullMatrix.30"** %M.addr, align 8
  call void @llvm.dbg.declare(metadata %"class.dealii::LAPACKFullMatrix.30"** %M.addr, metadata !4484, metadata !DIExpression()), !dbg !4485
  %this1 = load %"class.dealii::LAPACKFullMatrix.30"*, %"class.dealii::LAPACKFullMatrix.30"** %this.addr, align 8
  %0 = bitcast %"class.dealii::LAPACKFullMatrix.30"* %this1 to %"class.dealii::TransposeTable.31"*, !dbg !4486
  %1 = load %"class.dealii::LAPACKFullMatrix.30"*, %"class.dealii::LAPACKFullMatrix.30"** %M.addr, align 8, !dbg !4487
  %2 = bitcast %"class.dealii::LAPACKFullMatrix.30"* %1 to %"class.dealii::TransposeTable.31"*, !dbg !4487
  %call = call dereferenceable(96) %"class.dealii::TransposeTable.31"* @_ZN6dealii14TransposeTableIfEaSERKS1_(%"class.dealii::TransposeTable.31"* %0, %"class.dealii::TransposeTable.31"* dereferenceable(96) %2), !dbg !4486
  %state = getelementptr inbounds %"class.dealii::LAPACKFullMatrix.30", %"class.dealii::LAPACKFullMatrix.30"* %this1, i32 0, i32 1, !dbg !4488
  store i32 0, i32* %state, align 4, !dbg !4489
  ret %"class.dealii::LAPACKFullMatrix.30"* %this1, !dbg !4490
}

; Function Attrs: noinline uwtable
define linkonce_odr dso_local dereferenceable(96) %"class.dealii::TransposeTable.31"* @_ZN6dealii14TransposeTableIfEaSERKS1_(%"class.dealii::TransposeTable.31"* %this, %"class.dealii::TransposeTable.31"* dereferenceable(96) %0) #0 comdat align 2 !dbg !4491 {
entry:
  %this.addr = alloca %"class.dealii::TransposeTable.31"*, align 8
  %.addr = alloca %"class.dealii::TransposeTable.31"*, align 8
  store %"class.dealii::TransposeTable.31"* %this, %"class.dealii::TransposeTable.31"** %this.addr, align 8
  call void @llvm.dbg.declare(metadata %"class.dealii::TransposeTable.31"** %this.addr, metadata !4496, metadata !DIExpression()), !dbg !4497
  store %"class.dealii::TransposeTable.31"* %0, %"class.dealii::TransposeTable.31"** %.addr, align 8
  call void @llvm.dbg.declare(metadata %"class.dealii::TransposeTable.31"** %.addr, metadata !4498, metadata !DIExpression()), !dbg !4497
  %this1 = load %"class.dealii::TransposeTable.31"*, %"class.dealii::TransposeTable.31"** %this.addr, align 8
  %1 = bitcast %"class.dealii::TransposeTable.31"* %this1 to %"class.dealii::TableBase.26"*, !dbg !4499
  %2 = load %"class.dealii::TransposeTable.31"*, %"class.dealii::TransposeTable.31"** %.addr, align 8, !dbg !4499
  %3 = bitcast %"class.dealii::TransposeTable.31"* %2 to %"class.dealii::TableBase.26"*, !dbg !4499
  %call = call dereferenceable(96) %"class.dealii::TableBase.26"* @_ZN6dealii9TableBaseILi2EfEaSERKS1_(%"class.dealii::TableBase.26"* %1, %"class.dealii::TableBase.26"* dereferenceable(96) %3), !dbg !4499
  ret %"class.dealii::TransposeTable.31"* %this1, !dbg !4499
}

; Function Attrs: noinline uwtable
define weak_odr dso_local dereferenceable(272) %"class.dealii::LAPACKFullMatrix.30"* @_ZN6dealii16LAPACKFullMatrixIfEaSEd(%"class.dealii::LAPACKFullMatrix.30"* %this, double %d) #0 comdat align 2 !dbg !4501 {
entry:
  %this.addr = alloca %"class.dealii::LAPACKFullMatrix.30"*, align 8
  %d.addr = alloca double, align 8
  %ref.tmp = alloca float, align 4
  store %"class.dealii::LAPACKFullMatrix.30"* %this, %"class.dealii::LAPACKFullMatrix.30"** %this.addr, align 8
  call void @llvm.dbg.declare(metadata %"class.dealii::LAPACKFullMatrix.30"** %this.addr, metadata !4502, metadata !DIExpression()), !dbg !4503
  store double %d, double* %d.addr, align 8
  call void @llvm.dbg.declare(metadata double* %d.addr, metadata !4504, metadata !DIExpression()), !dbg !4505
  %this1 = load %"class.dealii::LAPACKFullMatrix.30"*, %"class.dealii::LAPACKFullMatrix.30"** %this.addr, align 8
  %0 = bitcast %"class.dealii::LAPACKFullMatrix.30"* %this1 to %"class.dealii::TableBase.26"*, !dbg !4506
  %call = call i32 @_ZNK6dealii9TableBaseILi2EfE10n_elementsEv(%"class.dealii::TableBase.26"* %0), !dbg !4506
  %cmp = icmp ne i32 %call, 0, !dbg !4508
  br i1 %cmp, label %if.then, label %if.end, !dbg !4509

if.then:                                          ; preds = %entry
  %1 = bitcast %"class.dealii::LAPACKFullMatrix.30"* %this1 to %"class.dealii::TableBase.26"*, !dbg !4510
  %val = getelementptr inbounds %"class.dealii::TableBase.26", %"class.dealii::TableBase.26"* %1, i32 0, i32 1, !dbg !4510
  %2 = load float*, float** %val, align 8, !dbg !4510
  %3 = bitcast %"class.dealii::LAPACKFullMatrix.30"* %this1 to %"class.dealii::TableBase.26"*, !dbg !4511
  %call2 = call i32 @_ZNK6dealii9TableBaseILi2EfE10n_elementsEv(%"class.dealii::TableBase.26"* %3), !dbg !4511
  store float 0.000000e+00, float* %ref.tmp, align 4, !dbg !4512
  %call3 = call float* @_ZSt6fill_nIPfjfET_S1_T0_RKT1_(float* %2, i32 %call2, float* dereferenceable(4) %ref.tmp), !dbg !4513
  br label %if.end, !dbg !4513

if.end:                                           ; preds = %if.then, %entry
  %state = getelementptr inbounds %"class.dealii::LAPACKFullMatrix.30", %"class.dealii::LAPACKFullMatrix.30"* %this1, i32 0, i32 1, !dbg !4514
  store i32 0, i32* %state, align 4, !dbg !4515
  ret %"class.dealii::LAPACKFullMatrix.30"* %this1, !dbg !4516
}

; Function Attrs: noinline nounwind uwtable
define linkonce_odr dso_local i32 @_ZNK6dealii9TableBaseILi2EfE10n_elementsEv(%"class.dealii::TableBase.26"* %this) #1 comdat align 2 !dbg !4517 {
entry:
  %this.addr = alloca %"class.dealii::TableBase.26"*, align 8
  %s = alloca i32, align 4
  %n = alloca i32, align 4
  store %"class.dealii::TableBase.26"* %this, %"class.dealii::TableBase.26"** %this.addr, align 8
  call void @llvm.dbg.declare(metadata %"class.dealii::TableBase.26"** %this.addr, metadata !4518, metadata !DIExpression()), !dbg !4520
  %this1 = load %"class.dealii::TableBase.26"*, %"class.dealii::TableBase.26"** %this.addr, align 8
  call void @llvm.dbg.declare(metadata i32* %s, metadata !4521, metadata !DIExpression()), !dbg !4522
  store i32 1, i32* %s, align 4, !dbg !4522
  call void @llvm.dbg.declare(metadata i32* %n, metadata !4523, metadata !DIExpression()), !dbg !4525
  store i32 0, i32* %n, align 4, !dbg !4525
  br label %for.cond, !dbg !4526

for.cond:                                         ; preds = %for.inc, %entry
  %0 = load i32, i32* %n, align 4, !dbg !4527
  %cmp = icmp ult i32 %0, 2, !dbg !4529
  br i1 %cmp, label %for.body, label %for.end, !dbg !4530

for.body:                                         ; preds = %for.cond
  %table_size = getelementptr inbounds %"class.dealii::TableBase.26", %"class.dealii::TableBase.26"* %this1, i32 0, i32 3, !dbg !4531
  %1 = bitcast %"class.dealii::TableIndices"* %table_size to %"class.dealii::TableIndicesBase"*, !dbg !4531
  %2 = load i32, i32* %n, align 4, !dbg !4532
  %call = call i32 @_ZNK6dealii16TableIndicesBaseILi2EEixEj(%"class.dealii::TableIndicesBase"* %1, i32 %2), !dbg !4531
  %3 = load i32, i32* %s, align 4, !dbg !4533
  %mul = mul i32 %3, %call, !dbg !4533
  store i32 %mul, i32* %s, align 4, !dbg !4533
  br label %for.inc, !dbg !4534

for.inc:                                          ; preds = %for.body
  %4 = load i32, i32* %n, align 4, !dbg !4535
  %inc = add i32 %4, 1, !dbg !4535
  store i32 %inc, i32* %n, align 4, !dbg !4535
  br label %for.cond, !dbg !4536, !llvm.loop !4537

for.end:                                          ; preds = %for.cond
  %5 = load i32, i32* %s, align 4, !dbg !4539
  ret i32 %5, !dbg !4540
}

; Function Attrs: noinline uwtable
define linkonce_odr dso_local float* @_ZSt6fill_nIPfjfET_S1_T0_RKT1_(float* %__first, i32 %__n, float* dereferenceable(4) %__value) #0 comdat !dbg !4541 {
entry:
  %__first.addr = alloca float*, align 8
  %__n.addr = alloca i32, align 4
  %__value.addr = alloca float*, align 8
  %agg.tmp = alloca %"struct.std::random_access_iterator_tag", align 1
  %undef.agg.tmp = alloca %"struct.std::random_access_iterator_tag", align 1
  store float* %__first, float** %__first.addr, align 8
  call void @llvm.dbg.declare(metadata float** %__first.addr, metadata !4546, metadata !DIExpression()), !dbg !4547
  store i32 %__n, i32* %__n.addr, align 4
  call void @llvm.dbg.declare(metadata i32* %__n.addr, metadata !4548, metadata !DIExpression()), !dbg !4549
  store float* %__value, float** %__value.addr, align 8
  call void @llvm.dbg.declare(metadata float** %__value.addr, metadata !4550, metadata !DIExpression()), !dbg !4551
  %0 = load float*, float** %__first.addr, align 8, !dbg !4552
  %1 = load i32, i32* %__n.addr, align 4, !dbg !4553
  %call = call i32 @_ZSt17__size_to_integerj(i32 %1), !dbg !4554
  %2 = load float*, float** %__value.addr, align 8, !dbg !4555
  call void @_ZSt19__iterator_categoryIPfENSt15iterator_traitsIT_E17iterator_categoryERKS2_(float** dereferenceable(8) %__first.addr), !dbg !4556
  %call1 = call float* @_ZSt10__fill_n_aIPfjfET_S1_T0_RKT1_St26random_access_iterator_tag(float* %0, i32 %call, float* dereferenceable(4) %2), !dbg !4557
  ret float* %call1, !dbg !4558
}

; Function Attrs: noinline nounwind uwtable
define weak_odr dso_local void @_ZNK6dealii16LAPACKFullMatrixIfE5vmultERNS_6VectorIfEERKS3_b(%"class.dealii::LAPACKFullMatrix.30"* %this, %"class.dealii::Vector.38"* nonnull %0, %"class.dealii::Vector.38"* nonnull %1, i1 zeroext %2) #1 comdat align 2 !dbg !4559 {
entry:
  %this.addr = alloca %"class.dealii::LAPACKFullMatrix.30"*, align 8
  %.addr = alloca %"class.dealii::Vector.38"*, align 8
  %.addr1 = alloca %"class.dealii::Vector.38"*, align 8
  %.addr2 = alloca i8, align 1
  store %"class.dealii::LAPACKFullMatrix.30"* %this, %"class.dealii::LAPACKFullMatrix.30"** %this.addr, align 8
  call void @llvm.dbg.declare(metadata %"class.dealii::LAPACKFullMatrix.30"** %this.addr, metadata !4560, metadata !DIExpression()), !dbg !4561
  store %"class.dealii::Vector.38"* %0, %"class.dealii::Vector.38"** %.addr, align 8
  call void @llvm.dbg.declare(metadata %"class.dealii::Vector.38"** %.addr, metadata !4562, metadata !DIExpression()), !dbg !4563
  store %"class.dealii::Vector.38"* %1, %"class.dealii::Vector.38"** %.addr1, align 8
  call void @llvm.dbg.declare(metadata %"class.dealii::Vector.38"** %.addr1, metadata !4564, metadata !DIExpression()), !dbg !4565
  %frombool = zext i1 %2 to i8
  store i8 %frombool, i8* %.addr2, align 1
  call void @llvm.dbg.declare(metadata i8* %.addr2, metadata !4566, metadata !DIExpression()), !dbg !4567
  %this3 = load %"class.dealii::LAPACKFullMatrix.30"*, %"class.dealii::LAPACKFullMatrix.30"** %this.addr, align 8
  ret void, !dbg !4568
}

; Function Attrs: noinline nounwind uwtable
define weak_odr dso_local void @_ZNK6dealii16LAPACKFullMatrixIfE9vmult_addERNS_6VectorIfEERKS3_(%"class.dealii::LAPACKFullMatrix.30"* %this, %"class.dealii::Vector.38"* nonnull %w, %"class.dealii::Vector.38"* nonnull %v) #1 comdat align 2 !dbg !4569 {
entry:
  %this.addr = alloca %"class.dealii::LAPACKFullMatrix.30"*, align 8
  %w.addr = alloca %"class.dealii::Vector.38"*, align 8
  %v.addr = alloca %"class.dealii::Vector.38"*, align 8
  store %"class.dealii::LAPACKFullMatrix.30"* %this, %"class.dealii::LAPACKFullMatrix.30"** %this.addr, align 8
  call void @llvm.dbg.declare(metadata %"class.dealii::LAPACKFullMatrix.30"** %this.addr, metadata !4570, metadata !DIExpression()), !dbg !4571
  store %"class.dealii::Vector.38"* %w, %"class.dealii::Vector.38"** %w.addr, align 8
  call void @llvm.dbg.declare(metadata %"class.dealii::Vector.38"** %w.addr, metadata !4572, metadata !DIExpression()), !dbg !4573
  store %"class.dealii::Vector.38"* %v, %"class.dealii::Vector.38"** %v.addr, align 8
  call void @llvm.dbg.declare(metadata %"class.dealii::Vector.38"** %v.addr, metadata !4574, metadata !DIExpression()), !dbg !4575
  %this1 = load %"class.dealii::LAPACKFullMatrix.30"*, %"class.dealii::LAPACKFullMatrix.30"** %this.addr, align 8
  %0 = load %"class.dealii::Vector.38"*, %"class.dealii::Vector.38"** %w.addr, align 8, !dbg !4576
  %1 = load %"class.dealii::Vector.38"*, %"class.dealii::Vector.38"** %v.addr, align 8, !dbg !4577
  call void @_ZNK6dealii16LAPACKFullMatrixIfE5vmultERNS_6VectorIfEERKS3_b(%"class.dealii::LAPACKFullMatrix.30"* %this1, %"class.dealii::Vector.38"* nonnull %0, %"class.dealii::Vector.38"* nonnull %1, i1 zeroext true), !dbg !4578
  ret void, !dbg !4579
}

; Function Attrs: noinline nounwind uwtable
define weak_odr dso_local void @_ZNK6dealii16LAPACKFullMatrixIfE6TvmultERNS_6VectorIfEERKS3_b(%"class.dealii::LAPACKFullMatrix.30"* %this, %"class.dealii::Vector.38"* nonnull %0, %"class.dealii::Vector.38"* nonnull %1, i1 zeroext %2) #1 comdat align 2 !dbg !4580 {
entry:
  %this.addr = alloca %"class.dealii::LAPACKFullMatrix.30"*, align 8
  %.addr = alloca %"class.dealii::Vector.38"*, align 8
  %.addr1 = alloca %"class.dealii::Vector.38"*, align 8
  %.addr2 = alloca i8, align 1
  store %"class.dealii::LAPACKFullMatrix.30"* %this, %"class.dealii::LAPACKFullMatrix.30"** %this.addr, align 8
  call void @llvm.dbg.declare(metadata %"class.dealii::LAPACKFullMatrix.30"** %this.addr, metadata !4581, metadata !DIExpression()), !dbg !4582
  store %"class.dealii::Vector.38"* %0, %"class.dealii::Vector.38"** %.addr, align 8
  call void @llvm.dbg.declare(metadata %"class.dealii::Vector.38"** %.addr, metadata !4583, metadata !DIExpression()), !dbg !4584
  store %"class.dealii::Vector.38"* %1, %"class.dealii::Vector.38"** %.addr1, align 8
  call void @llvm.dbg.declare(metadata %"class.dealii::Vector.38"** %.addr1, metadata !4585, metadata !DIExpression()), !dbg !4586
  %frombool = zext i1 %2 to i8
  store i8 %frombool, i8* %.addr2, align 1
  call void @llvm.dbg.declare(metadata i8* %.addr2, metadata !4587, metadata !DIExpression()), !dbg !4588
  %this3 = load %"class.dealii::LAPACKFullMatrix.30"*, %"class.dealii::LAPACKFullMatrix.30"** %this.addr, align 8
  ret void, !dbg !4589
}

; Function Attrs: noinline nounwind uwtable
define weak_odr dso_local void @_ZNK6dealii16LAPACKFullMatrixIfE10Tvmult_addERNS_6VectorIfEERKS3_(%"class.dealii::LAPACKFullMatrix.30"* %this, %"class.dealii::Vector.38"* nonnull %w, %"class.dealii::Vector.38"* nonnull %v) #1 comdat align 2 !dbg !4590 {
entry:
  %this.addr = alloca %"class.dealii::LAPACKFullMatrix.30"*, align 8
  %w.addr = alloca %"class.dealii::Vector.38"*, align 8
  %v.addr = alloca %"class.dealii::Vector.38"*, align 8
  store %"class.dealii::LAPACKFullMatrix.30"* %this, %"class.dealii::LAPACKFullMatrix.30"** %this.addr, align 8
  call void @llvm.dbg.declare(metadata %"class.dealii::LAPACKFullMatrix.30"** %this.addr, metadata !4591, metadata !DIExpression()), !dbg !4592
  store %"class.dealii::Vector.38"* %w, %"class.dealii::Vector.38"** %w.addr, align 8
  call void @llvm.dbg.declare(metadata %"class.dealii::Vector.38"** %w.addr, metadata !4593, metadata !DIExpression()), !dbg !4594
  store %"class.dealii::Vector.38"* %v, %"class.dealii::Vector.38"** %v.addr, align 8
  call void @llvm.dbg.declare(metadata %"class.dealii::Vector.38"** %v.addr, metadata !4595, metadata !DIExpression()), !dbg !4596
  %this1 = load %"class.dealii::LAPACKFullMatrix.30"*, %"class.dealii::LAPACKFullMatrix.30"** %this.addr, align 8
  %0 = load %"class.dealii::Vector.38"*, %"class.dealii::Vector.38"** %w.addr, align 8, !dbg !4597
  %1 = load %"class.dealii::Vector.38"*, %"class.dealii::Vector.38"** %v.addr, align 8, !dbg !4598
  call void @_ZNK6dealii16LAPACKFullMatrixIfE6TvmultERNS_6VectorIfEERKS3_b(%"class.dealii::LAPACKFullMatrix.30"* %this1, %"class.dealii::Vector.38"* nonnull %0, %"class.dealii::Vector.38"* nonnull %1, i1 zeroext true), !dbg !4599
  ret void, !dbg !4600
}

; Function Attrs: noinline nounwind uwtable
define weak_odr dso_local void @_ZN6dealii16LAPACKFullMatrixIfE24compute_lu_factorizationEv(%"class.dealii::LAPACKFullMatrix.30"* %this) #1 comdat align 2 !dbg !4601 {
entry:
  %this.addr = alloca %"class.dealii::LAPACKFullMatrix.30"*, align 8
  store %"class.dealii::LAPACKFullMatrix.30"* %this, %"class.dealii::LAPACKFullMatrix.30"** %this.addr, align 8
  call void @llvm.dbg.declare(metadata %"class.dealii::LAPACKFullMatrix.30"** %this.addr, metadata !4602, metadata !DIExpression()), !dbg !4603
  %this1 = load %"class.dealii::LAPACKFullMatrix.30"*, %"class.dealii::LAPACKFullMatrix.30"** %this.addr, align 8
  ret void, !dbg !4604
}

; Function Attrs: noinline nounwind uwtable
define weak_odr dso_local void @_ZNK6dealii16LAPACKFullMatrixIfE22apply_lu_factorizationERNS_6VectorIfEEb(%"class.dealii::LAPACKFullMatrix.30"* %this, %"class.dealii::Vector.38"* nonnull %0, i1 zeroext %1) #1 comdat align 2 !dbg !4605 {
entry:
  %this.addr = alloca %"class.dealii::LAPACKFullMatrix.30"*, align 8
  %.addr = alloca %"class.dealii::Vector.38"*, align 8
  %.addr1 = alloca i8, align 1
  store %"class.dealii::LAPACKFullMatrix.30"* %this, %"class.dealii::LAPACKFullMatrix.30"** %this.addr, align 8
  call void @llvm.dbg.declare(metadata %"class.dealii::LAPACKFullMatrix.30"** %this.addr, metadata !4606, metadata !DIExpression()), !dbg !4607
  store %"class.dealii::Vector.38"* %0, %"class.dealii::Vector.38"** %.addr, align 8
  call void @llvm.dbg.declare(metadata %"class.dealii::Vector.38"** %.addr, metadata !4608, metadata !DIExpression()), !dbg !4609
  %frombool = zext i1 %1 to i8
  store i8 %frombool, i8* %.addr1, align 1
  call void @llvm.dbg.declare(metadata i8* %.addr1, metadata !4610, metadata !DIExpression()), !dbg !4611
  %this2 = load %"class.dealii::LAPACKFullMatrix.30"*, %"class.dealii::LAPACKFullMatrix.30"** %this.addr, align 8
  ret void, !dbg !4612
}

; Function Attrs: noinline nounwind uwtable
define weak_odr dso_local void @_ZN6dealii16LAPACKFullMatrixIfE19compute_eigenvaluesEbb(%"class.dealii::LAPACKFullMatrix.30"* %this, i1 zeroext %0, i1 zeroext %1) #1 comdat align 2 !dbg !4613 {
entry:
  %this.addr = alloca %"class.dealii::LAPACKFullMatrix.30"*, align 8
  %.addr = alloca i8, align 1
  %.addr1 = alloca i8, align 1
  store %"class.dealii::LAPACKFullMatrix.30"* %this, %"class.dealii::LAPACKFullMatrix.30"** %this.addr, align 8
  call void @llvm.dbg.declare(metadata %"class.dealii::LAPACKFullMatrix.30"** %this.addr, metadata !4614, metadata !DIExpression()), !dbg !4615
  %frombool = zext i1 %0 to i8
  store i8 %frombool, i8* %.addr, align 1
  call void @llvm.dbg.declare(metadata i8* %.addr, metadata !4616, metadata !DIExpression()), !dbg !4617
  %frombool2 = zext i1 %1 to i8
  store i8 %frombool2, i8* %.addr1, align 1
  call void @llvm.dbg.declare(metadata i8* %.addr1, metadata !4618, metadata !DIExpression()), !dbg !4619
  %this3 = load %"class.dealii::LAPACKFullMatrix.30"*, %"class.dealii::LAPACKFullMatrix.30"** %this.addr, align 8
  ret void, !dbg !4620
}

; Function Attrs: noinline uwtable
define weak_odr dso_local <2 x float> @_ZNK6dealii16LAPACKFullMatrixIfE10eigenvalueEj(%"class.dealii::LAPACKFullMatrix.30"* %this, i32 %i) #7 comdat align 2 !dbg !4621 {
entry:
  %retval = alloca %"struct.std::complex.39", align 4
  %this.addr = alloca %"class.dealii::LAPACKFullMatrix.30"*, align 8
  %i.addr = alloca i32, align 4
  store %"class.dealii::LAPACKFullMatrix.30"* %this, %"class.dealii::LAPACKFullMatrix.30"** %this.addr, align 8
  call void @llvm.dbg.declare(metadata %"class.dealii::LAPACKFullMatrix.30"** %this.addr, metadata !4622, metadata !DIExpression()), !dbg !4623
  store i32 %i, i32* %i.addr, align 4
  call void @llvm.dbg.declare(metadata i32* %i.addr, metadata !4624, metadata !DIExpression()), !dbg !4625
  %this1 = load %"class.dealii::LAPACKFullMatrix.30"*, %"class.dealii::LAPACKFullMatrix.30"** %this.addr, align 8
  %wr = getelementptr inbounds %"class.dealii::LAPACKFullMatrix.30", %"class.dealii::LAPACKFullMatrix.30"* %this1, i32 0, i32 6, !dbg !4626
  %0 = load i32, i32* %i.addr, align 4, !dbg !4627
  %conv = zext i32 %0 to i64, !dbg !4627
  %call = call dereferenceable(4) float* @_ZNKSt6vectorIfSaIfEEixEm(%"class.std::vector.33"* %wr, i64 %conv) #4, !dbg !4626
  %1 = load float, float* %call, align 4, !dbg !4626
  %wi = getelementptr inbounds %"class.dealii::LAPACKFullMatrix.30", %"class.dealii::LAPACKFullMatrix.30"* %this1, i32 0, i32 7, !dbg !4628
  %2 = load i32, i32* %i.addr, align 4, !dbg !4629
  %conv2 = zext i32 %2 to i64, !dbg !4629
  %call3 = call dereferenceable(4) float* @_ZNKSt6vectorIfSaIfEEixEm(%"class.std::vector.33"* %wi, i64 %conv2) #4, !dbg !4628
  %3 = load float, float* %call3, align 4, !dbg !4628
  call void @_ZNSt7complexIfEC2Eff(%"struct.std::complex.39"* %retval, float %1, float %3), !dbg !4630
  %coerce.dive = getelementptr inbounds %"struct.std::complex.39", %"struct.std::complex.39"* %retval, i32 0, i32 0, !dbg !4631
  %4 = bitcast { float, float }* %coerce.dive to <2 x float>*, !dbg !4631
  %5 = load <2 x float>, <2 x float>* %4, align 4, !dbg !4631
  ret <2 x float> %5, !dbg !4631
}

; Function Attrs: noinline nounwind uwtable
define linkonce_odr dso_local dereferenceable(4) float* @_ZNKSt6vectorIfSaIfEEixEm(%"class.std::vector.33"* %this, i64 %__n) #1 comdat align 2 !dbg !4632 {
entry:
  %this.addr = alloca %"class.std::vector.33"*, align 8
  %__n.addr = alloca i64, align 8
  store %"class.std::vector.33"* %this, %"class.std::vector.33"** %this.addr, align 8
  call void @llvm.dbg.declare(metadata %"class.std::vector.33"** %this.addr, metadata !4633, metadata !DIExpression()), !dbg !4635
  store i64 %__n, i64* %__n.addr, align 8
  call void @llvm.dbg.declare(metadata i64* %__n.addr, metadata !4636, metadata !DIExpression()), !dbg !4637
  %this1 = load %"class.std::vector.33"*, %"class.std::vector.33"** %this.addr, align 8
  %0 = bitcast %"class.std::vector.33"* %this1 to %"struct.std::_Vector_base.34"*, !dbg !4638
  %_M_impl = getelementptr inbounds %"struct.std::_Vector_base.34", %"struct.std::_Vector_base.34"* %0, i32 0, i32 0, !dbg !4638
  %1 = bitcast %"struct.std::_Vector_base<float, std::allocator<float> >::_Vector_impl"* %_M_impl to %"struct.std::_Vector_base<float, std::allocator<float> >::_Vector_impl_data"*, !dbg !4639
  %_M_start = getelementptr inbounds %"struct.std::_Vector_base<float, std::allocator<float> >::_Vector_impl_data", %"struct.std::_Vector_base<float, std::allocator<float> >::_Vector_impl_data"* %1, i32 0, i32 0, !dbg !4640
  %2 = load float*, float** %_M_start, align 8, !dbg !4640
  %3 = load i64, i64* %__n.addr, align 8, !dbg !4641
  %add.ptr = getelementptr inbounds float, float* %2, i64 %3, !dbg !4642
  ret float* %add.ptr, !dbg !4643
}

; Function Attrs: noinline nounwind uwtable
define linkonce_odr dso_local void @_ZNSt7complexIfEC2Eff(%"struct.std::complex.39"* %this, float %__r, float %__i) unnamed_addr #1 comdat align 2 !dbg !4644 {
entry:
  %this.addr = alloca %"struct.std::complex.39"*, align 8
  %__r.addr = alloca float, align 4
  %__i.addr = alloca float, align 4
  store %"struct.std::complex.39"* %this, %"struct.std::complex.39"** %this.addr, align 8
  call void @llvm.dbg.declare(metadata %"struct.std::complex.39"** %this.addr, metadata !4645, metadata !DIExpression()), !dbg !4647
  store float %__r, float* %__r.addr, align 4
  call void @llvm.dbg.declare(metadata float* %__r.addr, metadata !4648, metadata !DIExpression()), !dbg !4649
  store float %__i, float* %__i.addr, align 4
  call void @llvm.dbg.declare(metadata float* %__i.addr, metadata !4650, metadata !DIExpression()), !dbg !4651
  %this1 = load %"struct.std::complex.39"*, %"struct.std::complex.39"** %this.addr, align 8
  %_M_value = getelementptr inbounds %"struct.std::complex.39", %"struct.std::complex.39"* %this1, i32 0, i32 0, !dbg !4652
  %0 = load float, float* %__r.addr, align 4, !dbg !4653
  %1 = load float, float* %__i.addr, align 4, !dbg !4654
  %_M_value.realp = getelementptr inbounds { float, float }, { float, float }* %_M_value, i32 0, i32 0, !dbg !4652
  %_M_value.imagp = getelementptr inbounds { float, float }, { float, float }* %_M_value, i32 0, i32 1, !dbg !4652
  store float %0, float* %_M_value.realp, align 4, !dbg !4652
  store float %1, float* %_M_value.imagp, align 4, !dbg !4652
  ret void, !dbg !4655
}

; Function Attrs: noinline uwtable
define weak_odr dso_local void @_ZNK6dealii16LAPACKFullMatrixIfE15print_formattedERSojbjPKcdd(%"class.dealii::LAPACKFullMatrix.30"* %this, %"class.std::basic_ostream"* dereferenceable(272) %out, i32 %precision, i1 zeroext %scientific, i32 %width_, i8* %zero_string, double %denominator, double %threshold) #0 comdat align 2 personality i8* bitcast (i32 (...)* @__gxx_personality_v0 to i8*) !dbg !4656 {
entry:
  %this.addr = alloca %"class.dealii::LAPACKFullMatrix.30"*, align 8
  %out.addr = alloca %"class.std::basic_ostream"*, align 8
  %precision.addr = alloca i32, align 4
  %scientific.addr = alloca i8, align 1
  %width_.addr = alloca i32, align 4
  %zero_string.addr = alloca i8*, align 8
  %denominator.addr = alloca double, align 8
  %threshold.addr = alloca double, align 8
  %width = alloca i32, align 4
  %old_flags = alloca i32, align 4
  %old_precision = alloca i32, align 4
  %i = alloca i32, align 4
  %j = alloca i32, align 4
  %agg.tmp = alloca %"struct.std::_Setw", align 4
  %agg.tmp43 = alloca %"struct.std::_Setw", align 4
  %agg.tmp61 = alloca %"class.dealii::StandardExceptions::ExcIO", align 8
  %exn.slot = alloca i8*
  %ehselector.slot = alloca i32
  store %"class.dealii::LAPACKFullMatrix.30"* %this, %"class.dealii::LAPACKFullMatrix.30"** %this.addr, align 8
  call void @llvm.dbg.declare(metadata %"class.dealii::LAPACKFullMatrix.30"** %this.addr, metadata !4657, metadata !DIExpression()), !dbg !4658
  store %"class.std::basic_ostream"* %out, %"class.std::basic_ostream"** %out.addr, align 8
  call void @llvm.dbg.declare(metadata %"class.std::basic_ostream"** %out.addr, metadata !4659, metadata !DIExpression()), !dbg !4660
  store i32 %precision, i32* %precision.addr, align 4
  call void @llvm.dbg.declare(metadata i32* %precision.addr, metadata !4661, metadata !DIExpression()), !dbg !4662
  %frombool = zext i1 %scientific to i8
  store i8 %frombool, i8* %scientific.addr, align 1
  call void @llvm.dbg.declare(metadata i8* %scientific.addr, metadata !4663, metadata !DIExpression()), !dbg !4664
  store i32 %width_, i32* %width_.addr, align 4
  call void @llvm.dbg.declare(metadata i32* %width_.addr, metadata !4665, metadata !DIExpression()), !dbg !4666
  store i8* %zero_string, i8** %zero_string.addr, align 8
  call void @llvm.dbg.declare(metadata i8** %zero_string.addr, metadata !4667, metadata !DIExpression()), !dbg !4668
  store double %denominator, double* %denominator.addr, align 8
  call void @llvm.dbg.declare(metadata double* %denominator.addr, metadata !4669, metadata !DIExpression()), !dbg !4670
  store double %threshold, double* %threshold.addr, align 8
  call void @llvm.dbg.declare(metadata double* %threshold.addr, metadata !4671, metadata !DIExpression()), !dbg !4672
  %this1 = load %"class.dealii::LAPACKFullMatrix.30"*, %"class.dealii::LAPACKFullMatrix.30"** %this.addr, align 8
  call void @llvm.dbg.declare(metadata i32* %width, metadata !4673, metadata !DIExpression()), !dbg !4674
  %0 = load i32, i32* %width_.addr, align 4, !dbg !4675
  store i32 %0, i32* %width, align 4, !dbg !4674
  call void @llvm.dbg.declare(metadata i32* %old_flags, metadata !4676, metadata !DIExpression()), !dbg !4677
  %1 = load %"class.std::basic_ostream"*, %"class.std::basic_ostream"** %out.addr, align 8, !dbg !4678
  %2 = bitcast %"class.std::basic_ostream"* %1 to i8**, !dbg !4678
  %vtable = load i8*, i8** %2, align 8, !dbg !4678
  %vbase.offset.ptr = getelementptr i8, i8* %vtable, i64 -24, !dbg !4678
  %3 = bitcast i8* %vbase.offset.ptr to i64*, !dbg !4678
  %vbase.offset = load i64, i64* %3, align 8, !dbg !4678
  %4 = bitcast %"class.std::basic_ostream"* %1 to i8*, !dbg !4678
  %add.ptr = getelementptr inbounds i8, i8* %4, i64 %vbase.offset, !dbg !4678
  %5 = bitcast i8* %add.ptr to %"class.std::ios_base"*, !dbg !4678
  %call = call i32 @_ZNKSt8ios_base5flagsEv(%"class.std::ios_base"* %5), !dbg !4679
  store i32 %call, i32* %old_flags, align 4, !dbg !4677
  call void @llvm.dbg.declare(metadata i32* %old_precision, metadata !4680, metadata !DIExpression()), !dbg !4681
  %6 = load %"class.std::basic_ostream"*, %"class.std::basic_ostream"** %out.addr, align 8, !dbg !4682
  %7 = bitcast %"class.std::basic_ostream"* %6 to i8**, !dbg !4682
  %vtable2 = load i8*, i8** %7, align 8, !dbg !4682
  %vbase.offset.ptr3 = getelementptr i8, i8* %vtable2, i64 -24, !dbg !4682
  %8 = bitcast i8* %vbase.offset.ptr3 to i64*, !dbg !4682
  %vbase.offset4 = load i64, i64* %8, align 8, !dbg !4682
  %9 = bitcast %"class.std::basic_ostream"* %6 to i8*, !dbg !4682
  %add.ptr5 = getelementptr inbounds i8, i8* %9, i64 %vbase.offset4, !dbg !4682
  %10 = bitcast i8* %add.ptr5 to %"class.std::ios_base"*, !dbg !4682
  %11 = load i32, i32* %precision.addr, align 4, !dbg !4683
  %conv = zext i32 %11 to i64, !dbg !4683
  %call6 = call i64 @_ZNSt8ios_base9precisionEl(%"class.std::ios_base"* %10, i64 %conv), !dbg !4684
  %conv7 = trunc i64 %call6 to i32, !dbg !4682
  store i32 %conv7, i32* %old_precision, align 4, !dbg !4681
  %12 = load i8, i8* %scientific.addr, align 1, !dbg !4685
  %tobool = trunc i8 %12 to i1, !dbg !4685
  br i1 %tobool, label %if.then, label %if.else, !dbg !4687

if.then:                                          ; preds = %entry
  %13 = load %"class.std::basic_ostream"*, %"class.std::basic_ostream"** %out.addr, align 8, !dbg !4688
  %14 = bitcast %"class.std::basic_ostream"* %13 to i8**, !dbg !4688
  %vtable8 = load i8*, i8** %14, align 8, !dbg !4688
  %vbase.offset.ptr9 = getelementptr i8, i8* %vtable8, i64 -24, !dbg !4688
  %15 = bitcast i8* %vbase.offset.ptr9 to i64*, !dbg !4688
  %vbase.offset10 = load i64, i64* %15, align 8, !dbg !4688
  %16 = bitcast %"class.std::basic_ostream"* %13 to i8*, !dbg !4688
  %add.ptr11 = getelementptr inbounds i8, i8* %16, i64 %vbase.offset10, !dbg !4688
  %17 = bitcast i8* %add.ptr11 to %"class.std::ios_base"*, !dbg !4688
  %call12 = call i32 @_ZNSt8ios_base4setfESt13_Ios_FmtflagsS0_(%"class.std::ios_base"* %17, i32 256, i32 260), !dbg !4690
  %18 = load i32, i32* %width, align 4, !dbg !4691
  %tobool13 = icmp ne i32 %18, 0, !dbg !4691
  br i1 %tobool13, label %if.end, label %if.then14, !dbg !4693

if.then14:                                        ; preds = %if.then
  %19 = load i32, i32* %precision.addr, align 4, !dbg !4694
  %add = add i32 %19, 7, !dbg !4695
  store i32 %add, i32* %width, align 4, !dbg !4696
  br label %if.end, !dbg !4697

if.end:                                           ; preds = %if.then14, %if.then
  br label %if.end24, !dbg !4698

if.else:                                          ; preds = %entry
  %20 = load %"class.std::basic_ostream"*, %"class.std::basic_ostream"** %out.addr, align 8, !dbg !4699
  %21 = bitcast %"class.std::basic_ostream"* %20 to i8**, !dbg !4699
  %vtable15 = load i8*, i8** %21, align 8, !dbg !4699
  %vbase.offset.ptr16 = getelementptr i8, i8* %vtable15, i64 -24, !dbg !4699
  %22 = bitcast i8* %vbase.offset.ptr16 to i64*, !dbg !4699
  %vbase.offset17 = load i64, i64* %22, align 8, !dbg !4699
  %23 = bitcast %"class.std::basic_ostream"* %20 to i8*, !dbg !4699
  %add.ptr18 = getelementptr inbounds i8, i8* %23, i64 %vbase.offset17, !dbg !4699
  %24 = bitcast i8* %add.ptr18 to %"class.std::ios_base"*, !dbg !4699
  %call19 = call i32 @_ZNSt8ios_base4setfESt13_Ios_FmtflagsS0_(%"class.std::ios_base"* %24, i32 4, i32 260), !dbg !4701
  %25 = load i32, i32* %width, align 4, !dbg !4702
  %tobool20 = icmp ne i32 %25, 0, !dbg !4702
  br i1 %tobool20, label %if.end23, label %if.then21, !dbg !4704

if.then21:                                        ; preds = %if.else
  %26 = load i32, i32* %precision.addr, align 4, !dbg !4705
  %add22 = add i32 %26, 2, !dbg !4706
  store i32 %add22, i32* %width, align 4, !dbg !4707
  br label %if.end23, !dbg !4708

if.end23:                                         ; preds = %if.then21, %if.else
  br label %if.end24

if.end24:                                         ; preds = %if.end23, %if.end
  call void @llvm.dbg.declare(metadata i32* %i, metadata !4709, metadata !DIExpression()), !dbg !4711
  store i32 0, i32* %i, align 4, !dbg !4711
  br label %for.cond, !dbg !4712

for.cond:                                         ; preds = %for.inc52, %if.end24
  %27 = load i32, i32* %i, align 4, !dbg !4713
  %28 = bitcast %"class.dealii::LAPACKFullMatrix.30"* %this1 to %"class.dealii::TransposeTable.31"*, !dbg !4715
  %call25 = call i32 @_ZNK6dealii14TransposeTableIfE6n_rowsEv(%"class.dealii::TransposeTable.31"* %28), !dbg !4715
  %cmp = icmp ult i32 %27, %call25, !dbg !4716
  br i1 %cmp, label %for.body, label %for.end54, !dbg !4717

for.body:                                         ; preds = %for.cond
  call void @llvm.dbg.declare(metadata i32* %j, metadata !4718, metadata !DIExpression()), !dbg !4721
  store i32 0, i32* %j, align 4, !dbg !4721
  br label %for.cond26, !dbg !4722

for.cond26:                                       ; preds = %for.inc, %for.body
  %29 = load i32, i32* %j, align 4, !dbg !4723
  %30 = bitcast %"class.dealii::LAPACKFullMatrix.30"* %this1 to %"class.dealii::TransposeTable.31"*, !dbg !4725
  %call27 = call i32 @_ZNK6dealii14TransposeTableIfE6n_colsEv(%"class.dealii::TransposeTable.31"* %30), !dbg !4725
  %cmp28 = icmp ult i32 %29, %call27, !dbg !4726
  br i1 %cmp28, label %for.body29, label %for.end, !dbg !4727

for.body29:                                       ; preds = %for.cond26
  %31 = bitcast %"class.dealii::LAPACKFullMatrix.30"* %this1 to %"class.dealii::TransposeTable.31"*, !dbg !4728
  %32 = load i32, i32* %i, align 4, !dbg !4730
  %33 = load i32, i32* %j, align 4, !dbg !4731
  %call30 = call dereferenceable(4) float* @_ZNK6dealii14TransposeTableIfE2elEjj(%"class.dealii::TransposeTable.31"* %31, i32 %32, i32 %33), !dbg !4728
  %34 = load float, float* %call30, align 4, !dbg !4728
  %call31 = call float @_ZSt4fabsf(float %34), !dbg !4732
  %conv32 = fpext float %call31 to double, !dbg !4732
  %35 = load double, double* %threshold.addr, align 8, !dbg !4733
  %cmp33 = fcmp ogt double %conv32, %35, !dbg !4734
  br i1 %cmp33, label %if.then34, label %if.else42, !dbg !4735

if.then34:                                        ; preds = %for.body29
  %36 = load %"class.std::basic_ostream"*, %"class.std::basic_ostream"** %out.addr, align 8, !dbg !4736
  %37 = load i32, i32* %width, align 4, !dbg !4737
  %call35 = call i32 @_ZSt4setwi(i32 %37), !dbg !4738
  %coerce.dive = getelementptr inbounds %"struct.std::_Setw", %"struct.std::_Setw"* %agg.tmp, i32 0, i32 0, !dbg !4738
  store i32 %call35, i32* %coerce.dive, align 4, !dbg !4738
  %coerce.dive36 = getelementptr inbounds %"struct.std::_Setw", %"struct.std::_Setw"* %agg.tmp, i32 0, i32 0, !dbg !4739
  %38 = load i32, i32* %coerce.dive36, align 4, !dbg !4739
  %call37 = call dereferenceable(272) %"class.std::basic_ostream"* @_ZStlsIcSt11char_traitsIcEERSt13basic_ostreamIT_T0_ES6_St5_Setw(%"class.std::basic_ostream"* dereferenceable(272) %36, i32 %38), !dbg !4739
  %39 = bitcast %"class.dealii::LAPACKFullMatrix.30"* %this1 to %"class.dealii::TransposeTable.31"*, !dbg !4740
  %40 = load i32, i32* %i, align 4, !dbg !4741
  %41 = load i32, i32* %j, align 4, !dbg !4742
  %call38 = call dereferenceable(4) float* @_ZNK6dealii14TransposeTableIfE2elEjj(%"class.dealii::TransposeTable.31"* %39, i32 %40, i32 %41), !dbg !4740
  %42 = load float, float* %call38, align 4, !dbg !4740
  %conv39 = fpext float %42 to double, !dbg !4743
  %43 = load double, double* %denominator.addr, align 8, !dbg !4744
  %mul = fmul double %conv39, %43, !dbg !4745
  %call40 = call dereferenceable(272) %"class.std::basic_ostream"* @_ZNSolsEd(%"class.std::basic_ostream"* %call37, double %mul), !dbg !4746
  %call41 = call dereferenceable(272) %"class.std::basic_ostream"* @_ZStlsISt11char_traitsIcEERSt13basic_ostreamIcT_ES5_c(%"class.std::basic_ostream"* dereferenceable(272) %call40, i8 signext 32), !dbg !4747
  br label %if.end50, !dbg !4736

if.else42:                                        ; preds = %for.body29
  %44 = load %"class.std::basic_ostream"*, %"class.std::basic_ostream"** %out.addr, align 8, !dbg !4748
  %45 = load i32, i32* %width, align 4, !dbg !4749
  %call44 = call i32 @_ZSt4setwi(i32 %45), !dbg !4750
  %coerce.dive45 = getelementptr inbounds %"struct.std::_Setw", %"struct.std::_Setw"* %agg.tmp43, i32 0, i32 0, !dbg !4750
  store i32 %call44, i32* %coerce.dive45, align 4, !dbg !4750
  %coerce.dive46 = getelementptr inbounds %"struct.std::_Setw", %"struct.std::_Setw"* %agg.tmp43, i32 0, i32 0, !dbg !4751
  %46 = load i32, i32* %coerce.dive46, align 4, !dbg !4751
  %call47 = call dereferenceable(272) %"class.std::basic_ostream"* @_ZStlsIcSt11char_traitsIcEERSt13basic_ostreamIT_T0_ES6_St5_Setw(%"class.std::basic_ostream"* dereferenceable(272) %44, i32 %46), !dbg !4751
  %47 = load i8*, i8** %zero_string.addr, align 8, !dbg !4752
  %call48 = call dereferenceable(272) %"class.std::basic_ostream"* @_ZStlsISt11char_traitsIcEERSt13basic_ostreamIcT_ES5_PKc(%"class.std::basic_ostream"* dereferenceable(272) %call47, i8* %47), !dbg !4753
  %call49 = call dereferenceable(272) %"class.std::basic_ostream"* @_ZStlsISt11char_traitsIcEERSt13basic_ostreamIcT_ES5_c(%"class.std::basic_ostream"* dereferenceable(272) %call48, i8 signext 32), !dbg !4754
  br label %if.end50

if.end50:                                         ; preds = %if.else42, %if.then34
  br label %for.inc, !dbg !4733

for.inc:                                          ; preds = %if.end50
  %48 = load i32, i32* %j, align 4, !dbg !4755
  %inc = add i32 %48, 1, !dbg !4755
  store i32 %inc, i32* %j, align 4, !dbg !4755
  br label %for.cond26, !dbg !4756, !llvm.loop !4757

for.end:                                          ; preds = %for.cond26
  %49 = load %"class.std::basic_ostream"*, %"class.std::basic_ostream"** %out.addr, align 8, !dbg !4759
  %call51 = call dereferenceable(272) %"class.std::basic_ostream"* @_ZNSolsEPFRSoS_E(%"class.std::basic_ostream"* %49, %"class.std::basic_ostream"* (%"class.std::basic_ostream"*)* @_ZSt4endlIcSt11char_traitsIcEERSt13basic_ostreamIT_T0_ES6_), !dbg !4760
  br label %for.inc52, !dbg !4761

for.inc52:                                        ; preds = %for.end
  %50 = load i32, i32* %i, align 4, !dbg !4762
  %inc53 = add i32 %50, 1, !dbg !4762
  store i32 %inc53, i32* %i, align 4, !dbg !4762
  br label %for.cond, !dbg !4763, !llvm.loop !4764

for.end54:                                        ; preds = %for.cond
  %51 = load %"class.std::basic_ostream"*, %"class.std::basic_ostream"** %out.addr, align 8, !dbg !4766
  %52 = bitcast %"class.std::basic_ostream"* %51 to i8**, !dbg !4766
  %vtable55 = load i8*, i8** %52, align 8, !dbg !4766
  %vbase.offset.ptr56 = getelementptr i8, i8* %vtable55, i64 -24, !dbg !4766
  %53 = bitcast i8* %vbase.offset.ptr56 to i64*, !dbg !4766
  %vbase.offset57 = load i64, i64* %53, align 8, !dbg !4766
  %54 = bitcast %"class.std::basic_ostream"* %51 to i8*, !dbg !4766
  %add.ptr58 = getelementptr inbounds i8, i8* %54, i64 %vbase.offset57, !dbg !4766
  %55 = bitcast i8* %add.ptr58 to %"class.std::basic_ios"*, !dbg !4766
  %call59 = call zeroext i1 @_ZNKSt9basic_iosIcSt11char_traitsIcEEntEv(%"class.std::basic_ios"* %55), !dbg !4766
  br i1 %call59, label %if.then60, label %if.end62, !dbg !4769

if.then60:                                        ; preds = %for.end54
  %56 = bitcast %"class.dealii::StandardExceptions::ExcIO"* %agg.tmp61 to i8*, !dbg !4766
  call void @llvm.memset.p0i8.i64(i8* align 8 %56, i8 0, i64 64, i1 false), !dbg !4766
  call void @_ZN6dealii18StandardExceptions5ExcIOC2Ev(%"class.dealii::StandardExceptions::ExcIO"* %agg.tmp61), !dbg !4766
  invoke void @_ZN6dealii18deal_II_exceptions9internals17issue_error_throwINS_18StandardExceptions5ExcIOEEEvPKciS6_S6_S6_T_(i8* getelementptr inbounds ([33 x i8], [33 x i8]* @.str, i64 0, i64 0), i32 413, i8* getelementptr inbounds ([1 x i8], [1 x i8]* @.str.10, i64 0, i64 0), i8* getelementptr inbounds ([4 x i8], [4 x i8]* @.str.11, i64 0, i64 0), i8* getelementptr inbounds ([8 x i8], [8 x i8]* @.str.12, i64 0, i64 0), %"class.dealii::StandardExceptions::ExcIO"* %agg.tmp61)
          to label %invoke.cont unwind label %lpad, !dbg !4766

invoke.cont:                                      ; preds = %if.then60
  call void @_ZN6dealii18StandardExceptions5ExcIOD2Ev(%"class.dealii::StandardExceptions::ExcIO"* %agg.tmp61) #4, !dbg !4766
  br label %if.end62, !dbg !4766

lpad:                                             ; preds = %if.then60
  %57 = landingpad { i8*, i32 }
          cleanup, !dbg !4770
  %58 = extractvalue { i8*, i32 } %57, 0, !dbg !4770
  store i8* %58, i8** %exn.slot, align 8, !dbg !4770
  %59 = extractvalue { i8*, i32 } %57, 1, !dbg !4770
  store i32 %59, i32* %ehselector.slot, align 4, !dbg !4770
  call void @_ZN6dealii18StandardExceptions5ExcIOD2Ev(%"class.dealii::StandardExceptions::ExcIO"* %agg.tmp61) #4, !dbg !4766
  br label %eh.resume, !dbg !4766

if.end62:                                         ; preds = %invoke.cont, %for.end54
  %60 = load %"class.std::basic_ostream"*, %"class.std::basic_ostream"** %out.addr, align 8, !dbg !4771
  %61 = bitcast %"class.std::basic_ostream"* %60 to i8**, !dbg !4771
  %vtable63 = load i8*, i8** %61, align 8, !dbg !4771
  %vbase.offset.ptr64 = getelementptr i8, i8* %vtable63, i64 -24, !dbg !4771
  %62 = bitcast i8* %vbase.offset.ptr64 to i64*, !dbg !4771
  %vbase.offset65 = load i64, i64* %62, align 8, !dbg !4771
  %63 = bitcast %"class.std::basic_ostream"* %60 to i8*, !dbg !4771
  %add.ptr66 = getelementptr inbounds i8, i8* %63, i64 %vbase.offset65, !dbg !4771
  %64 = bitcast i8* %add.ptr66 to %"class.std::ios_base"*, !dbg !4771
  %65 = load i32, i32* %old_flags, align 4, !dbg !4772
  %call67 = call i32 @_ZNSt8ios_base5flagsESt13_Ios_Fmtflags(%"class.std::ios_base"* %64, i32 %65), !dbg !4773
  %66 = load %"class.std::basic_ostream"*, %"class.std::basic_ostream"** %out.addr, align 8, !dbg !4774
  %67 = bitcast %"class.std::basic_ostream"* %66 to i8**, !dbg !4774
  %vtable68 = load i8*, i8** %67, align 8, !dbg !4774
  %vbase.offset.ptr69 = getelementptr i8, i8* %vtable68, i64 -24, !dbg !4774
  %68 = bitcast i8* %vbase.offset.ptr69 to i64*, !dbg !4774
  %vbase.offset70 = load i64, i64* %68, align 8, !dbg !4774
  %69 = bitcast %"class.std::basic_ostream"* %66 to i8*, !dbg !4774
  %add.ptr71 = getelementptr inbounds i8, i8* %69, i64 %vbase.offset70, !dbg !4774
  %70 = bitcast i8* %add.ptr71 to %"class.std::ios_base"*, !dbg !4774
  %71 = load i32, i32* %old_precision, align 4, !dbg !4775
  %conv72 = zext i32 %71 to i64, !dbg !4775
  %call73 = call i64 @_ZNSt8ios_base9precisionEl(%"class.std::ios_base"* %70, i64 %conv72), !dbg !4776
  ret void, !dbg !4777

eh.resume:                                        ; preds = %lpad
  %exn = load i8*, i8** %exn.slot, align 8, !dbg !4766
  %sel = load i32, i32* %ehselector.slot, align 4, !dbg !4766
  %lpad.val = insertvalue { i8*, i32 } undef, i8* %exn, 0, !dbg !4766
  %lpad.val74 = insertvalue { i8*, i32 } %lpad.val, i32 %sel, 1, !dbg !4766
  resume { i8*, i32 } %lpad.val74, !dbg !4766
}

; Function Attrs: noinline nounwind uwtable
define linkonce_odr dso_local i32 @_ZNK6dealii14TransposeTableIfE6n_rowsEv(%"class.dealii::TransposeTable.31"* %this) #1 comdat align 2 !dbg !4778 {
entry:
  %this.addr = alloca %"class.dealii::TransposeTable.31"*, align 8
  store %"class.dealii::TransposeTable.31"* %this, %"class.dealii::TransposeTable.31"** %this.addr, align 8
  call void @llvm.dbg.declare(metadata %"class.dealii::TransposeTable.31"** %this.addr, metadata !4779, metadata !DIExpression()), !dbg !4781
  %this1 = load %"class.dealii::TransposeTable.31"*, %"class.dealii::TransposeTable.31"** %this.addr, align 8
  %0 = bitcast %"class.dealii::TransposeTable.31"* %this1 to %"class.dealii::TableBase.26"*, !dbg !4782
  %table_size = getelementptr inbounds %"class.dealii::TableBase.26", %"class.dealii::TableBase.26"* %0, i32 0, i32 3, !dbg !4782
  %1 = bitcast %"class.dealii::TableIndices"* %table_size to %"class.dealii::TableIndicesBase"*, !dbg !4783
  %call = call i32 @_ZNK6dealii16TableIndicesBaseILi2EEixEj(%"class.dealii::TableIndicesBase"* %1, i32 1), !dbg !4783
  ret i32 %call, !dbg !4784
}

; Function Attrs: noinline nounwind uwtable
define linkonce_odr dso_local i32 @_ZNK6dealii14TransposeTableIfE6n_colsEv(%"class.dealii::TransposeTable.31"* %this) #1 comdat align 2 !dbg !4785 {
entry:
  %this.addr = alloca %"class.dealii::TransposeTable.31"*, align 8
  store %"class.dealii::TransposeTable.31"* %this, %"class.dealii::TransposeTable.31"** %this.addr, align 8
  call void @llvm.dbg.declare(metadata %"class.dealii::TransposeTable.31"** %this.addr, metadata !4786, metadata !DIExpression()), !dbg !4787
  %this1 = load %"class.dealii::TransposeTable.31"*, %"class.dealii::TransposeTable.31"** %this.addr, align 8
  %0 = bitcast %"class.dealii::TransposeTable.31"* %this1 to %"class.dealii::TableBase.26"*, !dbg !4788
  %table_size = getelementptr inbounds %"class.dealii::TableBase.26", %"class.dealii::TableBase.26"* %0, i32 0, i32 3, !dbg !4788
  %1 = bitcast %"class.dealii::TableIndices"* %table_size to %"class.dealii::TableIndicesBase"*, !dbg !4789
  %call = call i32 @_ZNK6dealii16TableIndicesBaseILi2EEixEj(%"class.dealii::TableIndicesBase"* %1, i32 0), !dbg !4789
  ret i32 %call, !dbg !4790
}

; Function Attrs: noinline nounwind uwtable
define linkonce_odr dso_local float @_ZSt4fabsf(float %__x) #1 comdat !dbg !4791 {
entry:
  %__x.addr = alloca float, align 4
  store float %__x, float* %__x.addr, align 4
  call void @llvm.dbg.declare(metadata float* %__x.addr, metadata !4792, metadata !DIExpression()), !dbg !4793
  %0 = load float, float* %__x.addr, align 4, !dbg !4794
  %1 = call float @llvm.fabs.f32(float %0), !dbg !4795
  ret float %1, !dbg !4796
}

; Function Attrs: noinline nounwind uwtable
define linkonce_odr dso_local dereferenceable(4) float* @_ZNK6dealii14TransposeTableIfE2elEjj(%"class.dealii::TransposeTable.31"* %this, i32 %i, i32 %j) #1 comdat align 2 !dbg !4797 {
entry:
  %this.addr = alloca %"class.dealii::TransposeTable.31"*, align 8
  %i.addr = alloca i32, align 4
  %j.addr = alloca i32, align 4
  store %"class.dealii::TransposeTable.31"* %this, %"class.dealii::TransposeTable.31"** %this.addr, align 8
  call void @llvm.dbg.declare(metadata %"class.dealii::TransposeTable.31"** %this.addr, metadata !4798, metadata !DIExpression()), !dbg !4799
  store i32 %i, i32* %i.addr, align 4
  call void @llvm.dbg.declare(metadata i32* %i.addr, metadata !4800, metadata !DIExpression()), !dbg !4801
  store i32 %j, i32* %j.addr, align 4
  call void @llvm.dbg.declare(metadata i32* %j.addr, metadata !4802, metadata !DIExpression()), !dbg !4803
  %this1 = load %"class.dealii::TransposeTable.31"*, %"class.dealii::TransposeTable.31"** %this.addr, align 8
  %0 = bitcast %"class.dealii::TransposeTable.31"* %this1 to %"class.dealii::TableBase.26"*, !dbg !4804
  %val = getelementptr inbounds %"class.dealii::TableBase.26", %"class.dealii::TableBase.26"* %0, i32 0, i32 1, !dbg !4804
  %1 = load float*, float** %val, align 8, !dbg !4804
  %2 = load i32, i32* %j.addr, align 4, !dbg !4805
  %3 = bitcast %"class.dealii::TransposeTable.31"* %this1 to %"class.dealii::TableBase.26"*, !dbg !4806
  %table_size = getelementptr inbounds %"class.dealii::TableBase.26", %"class.dealii::TableBase.26"* %3, i32 0, i32 3, !dbg !4806
  %4 = bitcast %"class.dealii::TableIndices"* %table_size to %"class.dealii::TableIndicesBase"*, !dbg !4807
  %call = call i32 @_ZNK6dealii16TableIndicesBaseILi2EEixEj(%"class.dealii::TableIndicesBase"* %4, i32 1), !dbg !4807
  %mul = mul i32 %2, %call, !dbg !4808
  %5 = load i32, i32* %i.addr, align 4, !dbg !4809
  %add = add i32 %mul, %5, !dbg !4810
  %idxprom = zext i32 %add to i64, !dbg !4811
  %arrayidx = getelementptr inbounds float, float* %1, i64 %idxprom, !dbg !4811
  ret float* %arrayidx, !dbg !4812
}

; Function Attrs: noinline uwtable
define weak_odr dso_local dereferenceable(272) %"class.dealii::LAPACKFullMatrix.30"* @_ZN6dealii16LAPACKFullMatrixIfEaSIdEERS1_RKNS_10FullMatrixIT_EE(%"class.dealii::LAPACKFullMatrix.30"* %this, %"class.dealii::FullMatrix"* dereferenceable(96) %M) #0 comdat align 2 !dbg !4813 {
entry:
  %this.addr = alloca %"class.dealii::LAPACKFullMatrix.30"*, align 8
  %M.addr = alloca %"class.dealii::FullMatrix"*, align 8
  %i = alloca i32, align 4
  %j = alloca i32, align 4
  store %"class.dealii::LAPACKFullMatrix.30"* %this, %"class.dealii::LAPACKFullMatrix.30"** %this.addr, align 8
  call void @llvm.dbg.declare(metadata %"class.dealii::LAPACKFullMatrix.30"** %this.addr, metadata !4817, metadata !DIExpression()), !dbg !4818
  store %"class.dealii::FullMatrix"* %M, %"class.dealii::FullMatrix"** %M.addr, align 8
  call void @llvm.dbg.declare(metadata %"class.dealii::FullMatrix"** %M.addr, metadata !4819, metadata !DIExpression()), !dbg !4820
  %this1 = load %"class.dealii::LAPACKFullMatrix.30"*, %"class.dealii::LAPACKFullMatrix.30"** %this.addr, align 8
  call void @llvm.dbg.declare(metadata i32* %i, metadata !4821, metadata !DIExpression()), !dbg !4823
  store i32 0, i32* %i, align 4, !dbg !4823
  br label %for.cond, !dbg !4824

for.cond:                                         ; preds = %for.inc8, %entry
  %0 = load i32, i32* %i, align 4, !dbg !4825
  %1 = bitcast %"class.dealii::LAPACKFullMatrix.30"* %this1 to %"class.dealii::TransposeTable.31"*, !dbg !4827
  %call = call i32 @_ZNK6dealii14TransposeTableIfE6n_rowsEv(%"class.dealii::TransposeTable.31"* %1), !dbg !4827
  %cmp = icmp ult i32 %0, %call, !dbg !4828
  br i1 %cmp, label %for.body, label %for.end10, !dbg !4829

for.body:                                         ; preds = %for.cond
  call void @llvm.dbg.declare(metadata i32* %j, metadata !4830, metadata !DIExpression()), !dbg !4832
  store i32 0, i32* %j, align 4, !dbg !4832
  br label %for.cond2, !dbg !4833

for.cond2:                                        ; preds = %for.inc, %for.body
  %2 = load i32, i32* %j, align 4, !dbg !4834
  %3 = bitcast %"class.dealii::LAPACKFullMatrix.30"* %this1 to %"class.dealii::TransposeTable.31"*, !dbg !4836
  %call3 = call i32 @_ZNK6dealii14TransposeTableIfE6n_colsEv(%"class.dealii::TransposeTable.31"* %3), !dbg !4836
  %cmp4 = icmp ult i32 %2, %call3, !dbg !4837
  br i1 %cmp4, label %for.body5, label %for.end, !dbg !4838

for.body5:                                        ; preds = %for.cond2
  %4 = load %"class.dealii::FullMatrix"*, %"class.dealii::FullMatrix"** %M.addr, align 8, !dbg !4839
  %5 = bitcast %"class.dealii::FullMatrix"* %4 to %"class.dealii::Table"*, !dbg !4839
  %6 = load i32, i32* %i, align 4, !dbg !4840
  %7 = load i32, i32* %j, align 4, !dbg !4841
  %call6 = call dereferenceable(8) double* @_ZNK6dealii5TableILi2EdEclEjj(%"class.dealii::Table"* %5, i32 %6, i32 %7), !dbg !4839
  %8 = load double, double* %call6, align 8, !dbg !4839
  %conv = fptrunc double %8 to float, !dbg !4839
  %9 = bitcast %"class.dealii::LAPACKFullMatrix.30"* %this1 to %"class.dealii::TransposeTable.31"*, !dbg !4842
  %10 = load i32, i32* %i, align 4, !dbg !4843
  %11 = load i32, i32* %j, align 4, !dbg !4844
  %call7 = call dereferenceable(4) float* @_ZN6dealii14TransposeTableIfEclEjj(%"class.dealii::TransposeTable.31"* %9, i32 %10, i32 %11), !dbg !4842
  store float %conv, float* %call7, align 4, !dbg !4845
  br label %for.inc, !dbg !4842

for.inc:                                          ; preds = %for.body5
  %12 = load i32, i32* %j, align 4, !dbg !4846
  %inc = add i32 %12, 1, !dbg !4846
  store i32 %inc, i32* %j, align 4, !dbg !4846
  br label %for.cond2, !dbg !4847, !llvm.loop !4848

for.end:                                          ; preds = %for.cond2
  br label %for.inc8, !dbg !4849

for.inc8:                                         ; preds = %for.end
  %13 = load i32, i32* %i, align 4, !dbg !4850
  %inc9 = add i32 %13, 1, !dbg !4850
  store i32 %inc9, i32* %i, align 4, !dbg !4850
  br label %for.cond, !dbg !4851, !llvm.loop !4852

for.end10:                                        ; preds = %for.cond
  %state = getelementptr inbounds %"class.dealii::LAPACKFullMatrix.30", %"class.dealii::LAPACKFullMatrix.30"* %this1, i32 0, i32 1, !dbg !4854
  store i32 0, i32* %state, align 4, !dbg !4855
  ret %"class.dealii::LAPACKFullMatrix.30"* %this1, !dbg !4856
}

; Function Attrs: noinline nounwind uwtable
define linkonce_odr dso_local dereferenceable(4) float* @_ZN6dealii14TransposeTableIfEclEjj(%"class.dealii::TransposeTable.31"* %this, i32 %i, i32 %j) #1 comdat align 2 !dbg !4857 {
entry:
  %this.addr = alloca %"class.dealii::TransposeTable.31"*, align 8
  %i.addr = alloca i32, align 4
  %j.addr = alloca i32, align 4
  store %"class.dealii::TransposeTable.31"* %this, %"class.dealii::TransposeTable.31"** %this.addr, align 8
  call void @llvm.dbg.declare(metadata %"class.dealii::TransposeTable.31"** %this.addr, metadata !4858, metadata !DIExpression()), !dbg !4859
  store i32 %i, i32* %i.addr, align 4
  call void @llvm.dbg.declare(metadata i32* %i.addr, metadata !4860, metadata !DIExpression()), !dbg !4861
  store i32 %j, i32* %j.addr, align 4
  call void @llvm.dbg.declare(metadata i32* %j.addr, metadata !4862, metadata !DIExpression()), !dbg !4863
  %this1 = load %"class.dealii::TransposeTable.31"*, %"class.dealii::TransposeTable.31"** %this.addr, align 8
  %0 = bitcast %"class.dealii::TransposeTable.31"* %this1 to %"class.dealii::TableBase.26"*, !dbg !4864
  %val = getelementptr inbounds %"class.dealii::TableBase.26", %"class.dealii::TableBase.26"* %0, i32 0, i32 1, !dbg !4864
  %1 = load float*, float** %val, align 8, !dbg !4864
  %2 = load i32, i32* %j.addr, align 4, !dbg !4865
  %3 = bitcast %"class.dealii::TransposeTable.31"* %this1 to %"class.dealii::TableBase.26"*, !dbg !4866
  %table_size = getelementptr inbounds %"class.dealii::TableBase.26", %"class.dealii::TableBase.26"* %3, i32 0, i32 3, !dbg !4866
  %4 = bitcast %"class.dealii::TableIndices"* %table_size to %"class.dealii::TableIndicesBase"*, !dbg !4867
  %call = call i32 @_ZNK6dealii16TableIndicesBaseILi2EEixEj(%"class.dealii::TableIndicesBase"* %4, i32 1), !dbg !4867
  %mul = mul i32 %2, %call, !dbg !4868
  %5 = load i32, i32* %i.addr, align 4, !dbg !4869
  %add = add i32 %mul, %5, !dbg !4870
  %idxprom = zext i32 %add to i64, !dbg !4871
  %arrayidx = getelementptr inbounds float, float* %1, i64 %idxprom, !dbg !4871
  ret float* %arrayidx, !dbg !4872
}

; Function Attrs: noinline uwtable
define weak_odr dso_local dereferenceable(272) %"class.dealii::LAPACKFullMatrix.30"* @_ZN6dealii16LAPACKFullMatrixIfEaSIfEERS1_RKNS_10FullMatrixIT_EE(%"class.dealii::LAPACKFullMatrix.30"* %this, %"class.dealii::FullMatrix.24"* dereferenceable(96) %M) #0 comdat align 2 !dbg !4873 {
entry:
  %this.addr = alloca %"class.dealii::LAPACKFullMatrix.30"*, align 8
  %M.addr = alloca %"class.dealii::FullMatrix.24"*, align 8
  %i = alloca i32, align 4
  %j = alloca i32, align 4
  store %"class.dealii::LAPACKFullMatrix.30"* %this, %"class.dealii::LAPACKFullMatrix.30"** %this.addr, align 8
  call void @llvm.dbg.declare(metadata %"class.dealii::LAPACKFullMatrix.30"** %this.addr, metadata !4877, metadata !DIExpression()), !dbg !4878
  store %"class.dealii::FullMatrix.24"* %M, %"class.dealii::FullMatrix.24"** %M.addr, align 8
  call void @llvm.dbg.declare(metadata %"class.dealii::FullMatrix.24"** %M.addr, metadata !4879, metadata !DIExpression()), !dbg !4880
  %this1 = load %"class.dealii::LAPACKFullMatrix.30"*, %"class.dealii::LAPACKFullMatrix.30"** %this.addr, align 8
  call void @llvm.dbg.declare(metadata i32* %i, metadata !4881, metadata !DIExpression()), !dbg !4883
  store i32 0, i32* %i, align 4, !dbg !4883
  br label %for.cond, !dbg !4884

for.cond:                                         ; preds = %for.inc8, %entry
  %0 = load i32, i32* %i, align 4, !dbg !4885
  %1 = bitcast %"class.dealii::LAPACKFullMatrix.30"* %this1 to %"class.dealii::TransposeTable.31"*, !dbg !4887
  %call = call i32 @_ZNK6dealii14TransposeTableIfE6n_rowsEv(%"class.dealii::TransposeTable.31"* %1), !dbg !4887
  %cmp = icmp ult i32 %0, %call, !dbg !4888
  br i1 %cmp, label %for.body, label %for.end10, !dbg !4889

for.body:                                         ; preds = %for.cond
  call void @llvm.dbg.declare(metadata i32* %j, metadata !4890, metadata !DIExpression()), !dbg !4892
  store i32 0, i32* %j, align 4, !dbg !4892
  br label %for.cond2, !dbg !4893

for.cond2:                                        ; preds = %for.inc, %for.body
  %2 = load i32, i32* %j, align 4, !dbg !4894
  %3 = bitcast %"class.dealii::LAPACKFullMatrix.30"* %this1 to %"class.dealii::TransposeTable.31"*, !dbg !4896
  %call3 = call i32 @_ZNK6dealii14TransposeTableIfE6n_colsEv(%"class.dealii::TransposeTable.31"* %3), !dbg !4896
  %cmp4 = icmp ult i32 %2, %call3, !dbg !4897
  br i1 %cmp4, label %for.body5, label %for.end, !dbg !4898

for.body5:                                        ; preds = %for.cond2
  %4 = load %"class.dealii::FullMatrix.24"*, %"class.dealii::FullMatrix.24"** %M.addr, align 8, !dbg !4899
  %5 = bitcast %"class.dealii::FullMatrix.24"* %4 to %"class.dealii::Table.25"*, !dbg !4899
  %6 = load i32, i32* %i, align 4, !dbg !4900
  %7 = load i32, i32* %j, align 4, !dbg !4901
  %call6 = call dereferenceable(4) float* @_ZNK6dealii5TableILi2EfEclEjj(%"class.dealii::Table.25"* %5, i32 %6, i32 %7), !dbg !4899
  %8 = load float, float* %call6, align 4, !dbg !4899
  %9 = bitcast %"class.dealii::LAPACKFullMatrix.30"* %this1 to %"class.dealii::TransposeTable.31"*, !dbg !4902
  %10 = load i32, i32* %i, align 4, !dbg !4903
  %11 = load i32, i32* %j, align 4, !dbg !4904
  %call7 = call dereferenceable(4) float* @_ZN6dealii14TransposeTableIfEclEjj(%"class.dealii::TransposeTable.31"* %9, i32 %10, i32 %11), !dbg !4902
  store float %8, float* %call7, align 4, !dbg !4905
  br label %for.inc, !dbg !4902

for.inc:                                          ; preds = %for.body5
  %12 = load i32, i32* %j, align 4, !dbg !4906
  %inc = add i32 %12, 1, !dbg !4906
  store i32 %inc, i32* %j, align 4, !dbg !4906
  br label %for.cond2, !dbg !4907, !llvm.loop !4908

for.end:                                          ; preds = %for.cond2
  br label %for.inc8, !dbg !4909

for.inc8:                                         ; preds = %for.end
  %13 = load i32, i32* %i, align 4, !dbg !4910
  %inc9 = add i32 %13, 1, !dbg !4910
  store i32 %inc9, i32* %i, align 4, !dbg !4910
  br label %for.cond, !dbg !4911, !llvm.loop !4912

for.end10:                                        ; preds = %for.cond
  %state = getelementptr inbounds %"class.dealii::LAPACKFullMatrix.30", %"class.dealii::LAPACKFullMatrix.30"* %this1, i32 0, i32 1, !dbg !4914
  store i32 0, i32* %state, align 4, !dbg !4915
  ret %"class.dealii::LAPACKFullMatrix.30"* %this1, !dbg !4916
}

; Function Attrs: noinline uwtable
define weak_odr dso_local void @_ZN6dealii14PreconditionLUIdE10initializeERKNS_16LAPACKFullMatrixIdEE(%"class.dealii::PreconditionLU"* %this, %"class.dealii::LAPACKFullMatrix"* dereferenceable(272) %M) #0 comdat align 2 !dbg !4917 {
entry:
  %this.addr = alloca %"class.dealii::PreconditionLU"*, align 8
  %M.addr = alloca %"class.dealii::LAPACKFullMatrix"*, align 8
  store %"class.dealii::PreconditionLU"* %this, %"class.dealii::PreconditionLU"** %this.addr, align 8
  call void @llvm.dbg.declare(metadata %"class.dealii::PreconditionLU"** %this.addr, metadata !4918, metadata !DIExpression()), !dbg !4920
  store %"class.dealii::LAPACKFullMatrix"* %M, %"class.dealii::LAPACKFullMatrix"** %M.addr, align 8
  call void @llvm.dbg.declare(metadata %"class.dealii::LAPACKFullMatrix"** %M.addr, metadata !4921, metadata !DIExpression()), !dbg !4922
  %this1 = load %"class.dealii::PreconditionLU"*, %"class.dealii::PreconditionLU"** %this.addr, align 8
  %0 = load %"class.dealii::LAPACKFullMatrix"*, %"class.dealii::LAPACKFullMatrix"** %M.addr, align 8, !dbg !4923
  %matrix = getelementptr inbounds %"class.dealii::PreconditionLU", %"class.dealii::PreconditionLU"* %this1, i32 0, i32 1, !dbg !4924
  %call = call dereferenceable(16) %"class.dealii::SmartPointer"* @_ZN6dealii12SmartPointerIKNS_16LAPACKFullMatrixIdEEEaSEPS3_(%"class.dealii::SmartPointer"* %matrix, %"class.dealii::LAPACKFullMatrix"* %0), !dbg !4925
  %mem = getelementptr inbounds %"class.dealii::PreconditionLU", %"class.dealii::PreconditionLU"* %this1, i32 0, i32 2, !dbg !4926
  %call2 = call dereferenceable(16) %"class.dealii::SmartPointer.40"* @_ZN6dealii12SmartPointerINS_12VectorMemoryINS_6VectorIdEEEEEaSEPS4_(%"class.dealii::SmartPointer.40"* %mem, %"class.dealii::VectorMemory"* null), !dbg !4927
  ret void, !dbg !4928
}

; Function Attrs: noinline uwtable
define linkonce_odr dso_local dereferenceable(16) %"class.dealii::SmartPointer"* @_ZN6dealii12SmartPointerIKNS_16LAPACKFullMatrixIdEEEaSEPS3_(%"class.dealii::SmartPointer"* %this, %"class.dealii::LAPACKFullMatrix"* %tt) #0 comdat align 2 !dbg !4929 {
entry:
  %retval = alloca %"class.dealii::SmartPointer"*, align 8
  %this.addr = alloca %"class.dealii::SmartPointer"*, align 8
  %tt.addr = alloca %"class.dealii::LAPACKFullMatrix"*, align 8
  store %"class.dealii::SmartPointer"* %this, %"class.dealii::SmartPointer"** %this.addr, align 8
  call void @llvm.dbg.declare(metadata %"class.dealii::SmartPointer"** %this.addr, metadata !4930, metadata !DIExpression()), !dbg !4932
  store %"class.dealii::LAPACKFullMatrix"* %tt, %"class.dealii::LAPACKFullMatrix"** %tt.addr, align 8
  call void @llvm.dbg.declare(metadata %"class.dealii::LAPACKFullMatrix"** %tt.addr, metadata !4933, metadata !DIExpression()), !dbg !4934
  %this1 = load %"class.dealii::SmartPointer"*, %"class.dealii::SmartPointer"** %this.addr, align 8
  %t = getelementptr inbounds %"class.dealii::SmartPointer", %"class.dealii::SmartPointer"* %this1, i32 0, i32 0, !dbg !4935
  %0 = load %"class.dealii::LAPACKFullMatrix"*, %"class.dealii::LAPACKFullMatrix"** %t, align 8, !dbg !4935
  %1 = load %"class.dealii::LAPACKFullMatrix"*, %"class.dealii::LAPACKFullMatrix"** %tt.addr, align 8, !dbg !4937
  %cmp = icmp eq %"class.dealii::LAPACKFullMatrix"* %0, %1, !dbg !4938
  br i1 %cmp, label %if.then, label %if.end, !dbg !4939

if.then:                                          ; preds = %entry
  store %"class.dealii::SmartPointer"* %this1, %"class.dealii::SmartPointer"** %retval, align 8, !dbg !4940
  br label %return, !dbg !4940

if.end:                                           ; preds = %entry
  %t2 = getelementptr inbounds %"class.dealii::SmartPointer", %"class.dealii::SmartPointer"* %this1, i32 0, i32 0, !dbg !4941
  %2 = load %"class.dealii::LAPACKFullMatrix"*, %"class.dealii::LAPACKFullMatrix"** %t2, align 8, !dbg !4941
  %cmp3 = icmp ne %"class.dealii::LAPACKFullMatrix"* %2, null, !dbg !4943
  br i1 %cmp3, label %if.then4, label %if.end6, !dbg !4944

if.then4:                                         ; preds = %if.end
  %t5 = getelementptr inbounds %"class.dealii::SmartPointer", %"class.dealii::SmartPointer"* %this1, i32 0, i32 0, !dbg !4945
  %3 = load %"class.dealii::LAPACKFullMatrix"*, %"class.dealii::LAPACKFullMatrix"** %t5, align 8, !dbg !4945
  %4 = bitcast %"class.dealii::LAPACKFullMatrix"* %3 to %"class.dealii::Subscriptor"*, !dbg !4946
  %id = getelementptr inbounds %"class.dealii::SmartPointer", %"class.dealii::SmartPointer"* %this1, i32 0, i32 1, !dbg !4947
  %5 = load i8*, i8** %id, align 8, !dbg !4947
  call void @_ZNK6dealii11Subscriptor11unsubscribeEPKc(%"class.dealii::Subscriptor"* %4, i8* %5), !dbg !4946
  br label %if.end6, !dbg !4945

if.end6:                                          ; preds = %if.then4, %if.end
  %6 = load %"class.dealii::LAPACKFullMatrix"*, %"class.dealii::LAPACKFullMatrix"** %tt.addr, align 8, !dbg !4948
  %t7 = getelementptr inbounds %"class.dealii::SmartPointer", %"class.dealii::SmartPointer"* %this1, i32 0, i32 0, !dbg !4949
  store %"class.dealii::LAPACKFullMatrix"* %6, %"class.dealii::LAPACKFullMatrix"** %t7, align 8, !dbg !4950
  %7 = load %"class.dealii::LAPACKFullMatrix"*, %"class.dealii::LAPACKFullMatrix"** %tt.addr, align 8, !dbg !4951
  %cmp8 = icmp ne %"class.dealii::LAPACKFullMatrix"* %7, null, !dbg !4953
  br i1 %cmp8, label %if.then9, label %if.end11, !dbg !4954

if.then9:                                         ; preds = %if.end6
  %8 = load %"class.dealii::LAPACKFullMatrix"*, %"class.dealii::LAPACKFullMatrix"** %tt.addr, align 8, !dbg !4955
  %9 = bitcast %"class.dealii::LAPACKFullMatrix"* %8 to %"class.dealii::Subscriptor"*, !dbg !4956
  %id10 = getelementptr inbounds %"class.dealii::SmartPointer", %"class.dealii::SmartPointer"* %this1, i32 0, i32 1, !dbg !4957
  %10 = load i8*, i8** %id10, align 8, !dbg !4957
  call void @_ZNK6dealii11Subscriptor9subscribeEPKc(%"class.dealii::Subscriptor"* %9, i8* %10), !dbg !4956
  br label %if.end11, !dbg !4955

if.end11:                                         ; preds = %if.then9, %if.end6
  store %"class.dealii::SmartPointer"* %this1, %"class.dealii::SmartPointer"** %retval, align 8, !dbg !4958
  br label %return, !dbg !4958

return:                                           ; preds = %if.end11, %if.then
  %11 = load %"class.dealii::SmartPointer"*, %"class.dealii::SmartPointer"** %retval, align 8, !dbg !4959
  ret %"class.dealii::SmartPointer"* %11, !dbg !4959
}

; Function Attrs: noinline nounwind uwtable
define linkonce_odr dso_local dereferenceable(16) %"class.dealii::SmartPointer.40"* @_ZN6dealii12SmartPointerINS_12VectorMemoryINS_6VectorIdEEEEEaSEPS4_(%"class.dealii::SmartPointer.40"* %this, %"class.dealii::VectorMemory"* %tt) #1 comdat align 2 !dbg !4960 {
entry:
  %retval = alloca %"class.dealii::SmartPointer.40"*, align 8
  %this.addr = alloca %"class.dealii::SmartPointer.40"*, align 8
  %tt.addr = alloca %"class.dealii::VectorMemory"*, align 8
  store %"class.dealii::SmartPointer.40"* %this, %"class.dealii::SmartPointer.40"** %this.addr, align 8
  call void @llvm.dbg.declare(metadata %"class.dealii::SmartPointer.40"** %this.addr, metadata !4961, metadata !DIExpression()), !dbg !4963
  store %"class.dealii::VectorMemory"* %tt, %"class.dealii::VectorMemory"** %tt.addr, align 8
  call void @llvm.dbg.declare(metadata %"class.dealii::VectorMemory"** %tt.addr, metadata !4964, metadata !DIExpression()), !dbg !4965
  %this1 = load %"class.dealii::SmartPointer.40"*, %"class.dealii::SmartPointer.40"** %this.addr, align 8
  %t = getelementptr inbounds %"class.dealii::SmartPointer.40", %"class.dealii::SmartPointer.40"* %this1, i32 0, i32 0, !dbg !4966
  %0 = load %"class.dealii::VectorMemory"*, %"class.dealii::VectorMemory"** %t, align 8, !dbg !4966
  %1 = load %"class.dealii::VectorMemory"*, %"class.dealii::VectorMemory"** %tt.addr, align 8, !dbg !4968
  %cmp = icmp eq %"class.dealii::VectorMemory"* %0, %1, !dbg !4969
  br i1 %cmp, label %if.then, label %if.end, !dbg !4970

if.then:                                          ; preds = %entry
  store %"class.dealii::SmartPointer.40"* %this1, %"class.dealii::SmartPointer.40"** %retval, align 8, !dbg !4971
  br label %return, !dbg !4971

if.end:                                           ; preds = %entry
  %t2 = getelementptr inbounds %"class.dealii::SmartPointer.40", %"class.dealii::SmartPointer.40"* %this1, i32 0, i32 0, !dbg !4972
  %2 = load %"class.dealii::VectorMemory"*, %"class.dealii::VectorMemory"** %t2, align 8, !dbg !4972
  %cmp3 = icmp ne %"class.dealii::VectorMemory"* %2, null, !dbg !4974
  br i1 %cmp3, label %if.then4, label %if.end6, !dbg !4975

if.then4:                                         ; preds = %if.end
  %t5 = getelementptr inbounds %"class.dealii::SmartPointer.40", %"class.dealii::SmartPointer.40"* %this1, i32 0, i32 0, !dbg !4976
  %3 = load %"class.dealii::VectorMemory"*, %"class.dealii::VectorMemory"** %t5, align 8, !dbg !4976
  %4 = bitcast %"class.dealii::VectorMemory"* %3 to %"class.dealii::Subscriptor"*, !dbg !4977
  %id = getelementptr inbounds %"class.dealii::SmartPointer.40", %"class.dealii::SmartPointer.40"* %this1, i32 0, i32 1, !dbg !4978
  %5 = load i8*, i8** %id, align 8, !dbg !4978
  call void @_ZNK6dealii11Subscriptor11unsubscribeEPKc(%"class.dealii::Subscriptor"* %4, i8* %5), !dbg !4977
  br label %if.end6, !dbg !4976

if.end6:                                          ; preds = %if.then4, %if.end
  %6 = load %"class.dealii::VectorMemory"*, %"class.dealii::VectorMemory"** %tt.addr, align 8, !dbg !4979
  %t7 = getelementptr inbounds %"class.dealii::SmartPointer.40", %"class.dealii::SmartPointer.40"* %this1, i32 0, i32 0, !dbg !4980
  store %"class.dealii::VectorMemory"* %6, %"class.dealii::VectorMemory"** %t7, align 8, !dbg !4981
  %7 = load %"class.dealii::VectorMemory"*, %"class.dealii::VectorMemory"** %tt.addr, align 8, !dbg !4982
  %cmp8 = icmp ne %"class.dealii::VectorMemory"* %7, null, !dbg !4984
  br i1 %cmp8, label %if.then9, label %if.end11, !dbg !4985

if.then9:                                         ; preds = %if.end6
  %8 = load %"class.dealii::VectorMemory"*, %"class.dealii::VectorMemory"** %tt.addr, align 8, !dbg !4986
  %9 = bitcast %"class.dealii::VectorMemory"* %8 to %"class.dealii::Subscriptor"*, !dbg !4987
  %id10 = getelementptr inbounds %"class.dealii::SmartPointer.40", %"class.dealii::SmartPointer.40"* %this1, i32 0, i32 1, !dbg !4988
  %10 = load i8*, i8** %id10, align 8, !dbg !4988
  call void @_ZNK6dealii11Subscriptor9subscribeEPKc(%"class.dealii::Subscriptor"* %9, i8* %10), !dbg !4987
  br label %if.end11, !dbg !4986

if.end11:                                         ; preds = %if.then9, %if.end6
  store %"class.dealii::SmartPointer.40"* %this1, %"class.dealii::SmartPointer.40"** %retval, align 8, !dbg !4989
  br label %return, !dbg !4989

return:                                           ; preds = %if.end11, %if.then
  %11 = load %"class.dealii::SmartPointer.40"*, %"class.dealii::SmartPointer.40"** %retval, align 8, !dbg !4990
  ret %"class.dealii::SmartPointer.40"* %11, !dbg !4990
}

; Function Attrs: noinline uwtable
define weak_odr dso_local void @_ZN6dealii14PreconditionLUIdE10initializeERKNS_16LAPACKFullMatrixIdEERNS_12VectorMemoryINS_6VectorIdEEEE(%"class.dealii::PreconditionLU"* %this, %"class.dealii::LAPACKFullMatrix"* dereferenceable(272) %M, %"class.dealii::VectorMemory"* dereferenceable(72) %V) #0 comdat align 2 !dbg !4991 {
entry:
  %this.addr = alloca %"class.dealii::PreconditionLU"*, align 8
  %M.addr = alloca %"class.dealii::LAPACKFullMatrix"*, align 8
  %V.addr = alloca %"class.dealii::VectorMemory"*, align 8
  store %"class.dealii::PreconditionLU"* %this, %"class.dealii::PreconditionLU"** %this.addr, align 8
  call void @llvm.dbg.declare(metadata %"class.dealii::PreconditionLU"** %this.addr, metadata !4992, metadata !DIExpression()), !dbg !4993
  store %"class.dealii::LAPACKFullMatrix"* %M, %"class.dealii::LAPACKFullMatrix"** %M.addr, align 8
  call void @llvm.dbg.declare(metadata %"class.dealii::LAPACKFullMatrix"** %M.addr, metadata !4994, metadata !DIExpression()), !dbg !4995
  store %"class.dealii::VectorMemory"* %V, %"class.dealii::VectorMemory"** %V.addr, align 8
  call void @llvm.dbg.declare(metadata %"class.dealii::VectorMemory"** %V.addr, metadata !4996, metadata !DIExpression()), !dbg !4997
  %this1 = load %"class.dealii::PreconditionLU"*, %"class.dealii::PreconditionLU"** %this.addr, align 8
  %0 = load %"class.dealii::LAPACKFullMatrix"*, %"class.dealii::LAPACKFullMatrix"** %M.addr, align 8, !dbg !4998
  %matrix = getelementptr inbounds %"class.dealii::PreconditionLU", %"class.dealii::PreconditionLU"* %this1, i32 0, i32 1, !dbg !4999
  %call = call dereferenceable(16) %"class.dealii::SmartPointer"* @_ZN6dealii12SmartPointerIKNS_16LAPACKFullMatrixIdEEEaSEPS3_(%"class.dealii::SmartPointer"* %matrix, %"class.dealii::LAPACKFullMatrix"* %0), !dbg !5000
  %1 = load %"class.dealii::VectorMemory"*, %"class.dealii::VectorMemory"** %V.addr, align 8, !dbg !5001
  %mem = getelementptr inbounds %"class.dealii::PreconditionLU", %"class.dealii::PreconditionLU"* %this1, i32 0, i32 2, !dbg !5002
  %call2 = call dereferenceable(16) %"class.dealii::SmartPointer.40"* @_ZN6dealii12SmartPointerINS_12VectorMemoryINS_6VectorIdEEEEEaSEPS4_(%"class.dealii::SmartPointer.40"* %mem, %"class.dealii::VectorMemory"* %1), !dbg !5003
  ret void, !dbg !5004
}

; Function Attrs: noinline uwtable
define weak_odr dso_local void @_ZNK6dealii14PreconditionLUIdE5vmultERNS_6VectorIdEERKS3_(%"class.dealii::PreconditionLU"* %this, %"class.dealii::Vector"* dereferenceable(88) %dst, %"class.dealii::Vector"* dereferenceable(88) %src) #0 comdat align 2 !dbg !5005 {
entry:
  %this.addr = alloca %"class.dealii::PreconditionLU"*, align 8
  %dst.addr = alloca %"class.dealii::Vector"*, align 8
  %src.addr = alloca %"class.dealii::Vector"*, align 8
  store %"class.dealii::PreconditionLU"* %this, %"class.dealii::PreconditionLU"** %this.addr, align 8
  call void @llvm.dbg.declare(metadata %"class.dealii::PreconditionLU"** %this.addr, metadata !5006, metadata !DIExpression()), !dbg !5008
  store %"class.dealii::Vector"* %dst, %"class.dealii::Vector"** %dst.addr, align 8
  call void @llvm.dbg.declare(metadata %"class.dealii::Vector"** %dst.addr, metadata !5009, metadata !DIExpression()), !dbg !5010
  store %"class.dealii::Vector"* %src, %"class.dealii::Vector"** %src.addr, align 8
  call void @llvm.dbg.declare(metadata %"class.dealii::Vector"** %src.addr, metadata !5011, metadata !DIExpression()), !dbg !5012
  %this1 = load %"class.dealii::PreconditionLU"*, %"class.dealii::PreconditionLU"** %this.addr, align 8
  %0 = load %"class.dealii::Vector"*, %"class.dealii::Vector"** %src.addr, align 8, !dbg !5013
  %1 = load %"class.dealii::Vector"*, %"class.dealii::Vector"** %dst.addr, align 8, !dbg !5014
  %call = call dereferenceable(88) %"class.dealii::Vector"* @_ZN6dealii6VectorIdEaSERKS1_(%"class.dealii::Vector"* %1, %"class.dealii::Vector"* dereferenceable(88) %0), !dbg !5015
  %matrix = getelementptr inbounds %"class.dealii::PreconditionLU", %"class.dealii::PreconditionLU"* %this1, i32 0, i32 1, !dbg !5016
  %call2 = call %"class.dealii::LAPACKFullMatrix"* @_ZNK6dealii12SmartPointerIKNS_16LAPACKFullMatrixIdEEEptEv(%"class.dealii::SmartPointer"* %matrix), !dbg !5016
  %2 = load %"class.dealii::Vector"*, %"class.dealii::Vector"** %dst.addr, align 8, !dbg !5017
  call void @_ZNK6dealii16LAPACKFullMatrixIdE22apply_lu_factorizationERNS_6VectorIdEEb(%"class.dealii::LAPACKFullMatrix"* %call2, %"class.dealii::Vector"* dereferenceable(88) %2, i1 zeroext false), !dbg !5018
  ret void, !dbg !5019
}

declare dso_local dereferenceable(88) %"class.dealii::Vector"* @_ZN6dealii6VectorIdEaSERKS1_(%"class.dealii::Vector"*, %"class.dealii::Vector"* dereferenceable(88)) #2

; Function Attrs: noinline nounwind uwtable
define linkonce_odr dso_local %"class.dealii::LAPACKFullMatrix"* @_ZNK6dealii12SmartPointerIKNS_16LAPACKFullMatrixIdEEEptEv(%"class.dealii::SmartPointer"* %this) #1 comdat align 2 !dbg !5020 {
entry:
  %this.addr = alloca %"class.dealii::SmartPointer"*, align 8
  store %"class.dealii::SmartPointer"* %this, %"class.dealii::SmartPointer"** %this.addr, align 8
  call void @llvm.dbg.declare(metadata %"class.dealii::SmartPointer"** %this.addr, metadata !5021, metadata !DIExpression()), !dbg !5023
  %this1 = load %"class.dealii::SmartPointer"*, %"class.dealii::SmartPointer"** %this.addr, align 8
  %t = getelementptr inbounds %"class.dealii::SmartPointer", %"class.dealii::SmartPointer"* %this1, i32 0, i32 0, !dbg !5024
  %0 = load %"class.dealii::LAPACKFullMatrix"*, %"class.dealii::LAPACKFullMatrix"** %t, align 8, !dbg !5024
  ret %"class.dealii::LAPACKFullMatrix"* %0, !dbg !5025
}

; Function Attrs: noinline uwtable
define weak_odr dso_local void @_ZNK6dealii14PreconditionLUIdE6TvmultERNS_6VectorIdEERKS3_(%"class.dealii::PreconditionLU"* %this, %"class.dealii::Vector"* dereferenceable(88) %dst, %"class.dealii::Vector"* dereferenceable(88) %src) #0 comdat align 2 !dbg !5026 {
entry:
  %this.addr = alloca %"class.dealii::PreconditionLU"*, align 8
  %dst.addr = alloca %"class.dealii::Vector"*, align 8
  %src.addr = alloca %"class.dealii::Vector"*, align 8
  store %"class.dealii::PreconditionLU"* %this, %"class.dealii::PreconditionLU"** %this.addr, align 8
  call void @llvm.dbg.declare(metadata %"class.dealii::PreconditionLU"** %this.addr, metadata !5027, metadata !DIExpression()), !dbg !5028
  store %"class.dealii::Vector"* %dst, %"class.dealii::Vector"** %dst.addr, align 8
  call void @llvm.dbg.declare(metadata %"class.dealii::Vector"** %dst.addr, metadata !5029, metadata !DIExpression()), !dbg !5030
  store %"class.dealii::Vector"* %src, %"class.dealii::Vector"** %src.addr, align 8
  call void @llvm.dbg.declare(metadata %"class.dealii::Vector"** %src.addr, metadata !5031, metadata !DIExpression()), !dbg !5032
  %this1 = load %"class.dealii::PreconditionLU"*, %"class.dealii::PreconditionLU"** %this.addr, align 8
  %0 = load %"class.dealii::Vector"*, %"class.dealii::Vector"** %src.addr, align 8, !dbg !5033
  %1 = load %"class.dealii::Vector"*, %"class.dealii::Vector"** %dst.addr, align 8, !dbg !5034
  %call = call dereferenceable(88) %"class.dealii::Vector"* @_ZN6dealii6VectorIdEaSERKS1_(%"class.dealii::Vector"* %1, %"class.dealii::Vector"* dereferenceable(88) %0), !dbg !5035
  %matrix = getelementptr inbounds %"class.dealii::PreconditionLU", %"class.dealii::PreconditionLU"* %this1, i32 0, i32 1, !dbg !5036
  %call2 = call %"class.dealii::LAPACKFullMatrix"* @_ZNK6dealii12SmartPointerIKNS_16LAPACKFullMatrixIdEEEptEv(%"class.dealii::SmartPointer"* %matrix), !dbg !5036
  %2 = load %"class.dealii::Vector"*, %"class.dealii::Vector"** %dst.addr, align 8, !dbg !5037
  call void @_ZNK6dealii16LAPACKFullMatrixIdE22apply_lu_factorizationERNS_6VectorIdEEb(%"class.dealii::LAPACKFullMatrix"* %call2, %"class.dealii::Vector"* dereferenceable(88) %2, i1 zeroext true), !dbg !5038
  ret void, !dbg !5039
}

; Function Attrs: noinline uwtable
define weak_odr dso_local void @_ZNK6dealii14PreconditionLUIdE5vmultERNS_11BlockVectorIdEERKS3_(%"class.dealii::PreconditionLU"* %this, %"class.dealii::BlockVector"* dereferenceable(128) %dst, %"class.dealii::BlockVector"* dereferenceable(128) %src) #0 comdat align 2 !dbg !5040 {
entry:
  %this.addr = alloca %"class.dealii::PreconditionLU"*, align 8
  %dst.addr = alloca %"class.dealii::BlockVector"*, align 8
  %src.addr = alloca %"class.dealii::BlockVector"*, align 8
  %aux = alloca %"class.dealii::Vector"*, align 8
  store %"class.dealii::PreconditionLU"* %this, %"class.dealii::PreconditionLU"** %this.addr, align 8
  call void @llvm.dbg.declare(metadata %"class.dealii::PreconditionLU"** %this.addr, metadata !5041, metadata !DIExpression()), !dbg !5042
  store %"class.dealii::BlockVector"* %dst, %"class.dealii::BlockVector"** %dst.addr, align 8
  call void @llvm.dbg.declare(metadata %"class.dealii::BlockVector"** %dst.addr, metadata !5043, metadata !DIExpression()), !dbg !5044
  store %"class.dealii::BlockVector"* %src, %"class.dealii::BlockVector"** %src.addr, align 8
  call void @llvm.dbg.declare(metadata %"class.dealii::BlockVector"** %src.addr, metadata !5045, metadata !DIExpression()), !dbg !5046
  %this1 = load %"class.dealii::PreconditionLU"*, %"class.dealii::PreconditionLU"** %this.addr, align 8
  call void @llvm.dbg.declare(metadata %"class.dealii::Vector"** %aux, metadata !5047, metadata !DIExpression()), !dbg !5049
  %mem = getelementptr inbounds %"class.dealii::PreconditionLU", %"class.dealii::PreconditionLU"* %this1, i32 0, i32 2, !dbg !5050
  %call = call %"class.dealii::VectorMemory"* @_ZNK6dealii12SmartPointerINS_12VectorMemoryINS_6VectorIdEEEEEptEv(%"class.dealii::SmartPointer.40"* %mem), !dbg !5050
  %0 = bitcast %"class.dealii::VectorMemory"* %call to %"class.dealii::Vector"* (%"class.dealii::VectorMemory"*)***, !dbg !5051
  %vtable = load %"class.dealii::Vector"* (%"class.dealii::VectorMemory"*)**, %"class.dealii::Vector"* (%"class.dealii::VectorMemory"*)*** %0, align 8, !dbg !5051
  %vfn = getelementptr inbounds %"class.dealii::Vector"* (%"class.dealii::VectorMemory"*)*, %"class.dealii::Vector"* (%"class.dealii::VectorMemory"*)** %vtable, i64 2, !dbg !5051
  %1 = load %"class.dealii::Vector"* (%"class.dealii::VectorMemory"*)*, %"class.dealii::Vector"* (%"class.dealii::VectorMemory"*)** %vfn, align 8, !dbg !5051
  %call2 = call %"class.dealii::Vector"* %1(%"class.dealii::VectorMemory"* %call), !dbg !5051
  store %"class.dealii::Vector"* %call2, %"class.dealii::Vector"** %aux, align 8, !dbg !5049
  %2 = load %"class.dealii::BlockVector"*, %"class.dealii::BlockVector"** %src.addr, align 8, !dbg !5052
  %3 = load %"class.dealii::Vector"*, %"class.dealii::Vector"** %aux, align 8, !dbg !5053
  %call3 = call dereferenceable(88) %"class.dealii::Vector"* @_ZN6dealii6VectorIdEaSERKNS_11BlockVectorIdEE(%"class.dealii::Vector"* %3, %"class.dealii::BlockVector"* dereferenceable(128) %2), !dbg !5054
  %matrix = getelementptr inbounds %"class.dealii::PreconditionLU", %"class.dealii::PreconditionLU"* %this1, i32 0, i32 1, !dbg !5055
  %call4 = call %"class.dealii::LAPACKFullMatrix"* @_ZNK6dealii12SmartPointerIKNS_16LAPACKFullMatrixIdEEEptEv(%"class.dealii::SmartPointer"* %matrix), !dbg !5055
  %4 = load %"class.dealii::Vector"*, %"class.dealii::Vector"** %aux, align 8, !dbg !5056
  call void @_ZNK6dealii16LAPACKFullMatrixIdE22apply_lu_factorizationERNS_6VectorIdEEb(%"class.dealii::LAPACKFullMatrix"* %call4, %"class.dealii::Vector"* dereferenceable(88) %4, i1 zeroext false), !dbg !5057
  %5 = load %"class.dealii::Vector"*, %"class.dealii::Vector"** %aux, align 8, !dbg !5058
  %6 = load %"class.dealii::BlockVector"*, %"class.dealii::BlockVector"** %dst.addr, align 8, !dbg !5059
  %call5 = call dereferenceable(128) %"class.dealii::BlockVector"* @_ZN6dealii11BlockVectorIdEaSERKNS_6VectorIdEE(%"class.dealii::BlockVector"* %6, %"class.dealii::Vector"* dereferenceable(88) %5), !dbg !5060
  ret void, !dbg !5061
}

; Function Attrs: noinline nounwind uwtable
define linkonce_odr dso_local %"class.dealii::VectorMemory"* @_ZNK6dealii12SmartPointerINS_12VectorMemoryINS_6VectorIdEEEEEptEv(%"class.dealii::SmartPointer.40"* %this) #1 comdat align 2 !dbg !5062 {
entry:
  %this.addr = alloca %"class.dealii::SmartPointer.40"*, align 8
  store %"class.dealii::SmartPointer.40"* %this, %"class.dealii::SmartPointer.40"** %this.addr, align 8
  call void @llvm.dbg.declare(metadata %"class.dealii::SmartPointer.40"** %this.addr, metadata !5063, metadata !DIExpression()), !dbg !5065
  %this1 = load %"class.dealii::SmartPointer.40"*, %"class.dealii::SmartPointer.40"** %this.addr, align 8
  %t = getelementptr inbounds %"class.dealii::SmartPointer.40", %"class.dealii::SmartPointer.40"* %this1, i32 0, i32 0, !dbg !5066
  %0 = load %"class.dealii::VectorMemory"*, %"class.dealii::VectorMemory"** %t, align 8, !dbg !5066
  ret %"class.dealii::VectorMemory"* %0, !dbg !5067
}

declare dso_local dereferenceable(88) %"class.dealii::Vector"* @_ZN6dealii6VectorIdEaSERKNS_11BlockVectorIdEE(%"class.dealii::Vector"*, %"class.dealii::BlockVector"* dereferenceable(128)) #2

; Function Attrs: noinline uwtable
define linkonce_odr dso_local dereferenceable(128) %"class.dealii::BlockVector"* @_ZN6dealii11BlockVectorIdEaSERKNS_6VectorIdEE(%"class.dealii::BlockVector"* %this, %"class.dealii::Vector"* dereferenceable(88) %v) #0 comdat align 2 !dbg !5068 {
entry:
  %this.addr = alloca %"class.dealii::BlockVector"*, align 8
  %v.addr = alloca %"class.dealii::Vector"*, align 8
  store %"class.dealii::BlockVector"* %this, %"class.dealii::BlockVector"** %this.addr, align 8
  call void @llvm.dbg.declare(metadata %"class.dealii::BlockVector"** %this.addr, metadata !5073, metadata !DIExpression()), !dbg !5075
  store %"class.dealii::Vector"* %v, %"class.dealii::Vector"** %v.addr, align 8
  call void @llvm.dbg.declare(metadata %"class.dealii::Vector"** %v.addr, metadata !5076, metadata !DIExpression()), !dbg !5077
  %this1 = load %"class.dealii::BlockVector"*, %"class.dealii::BlockVector"** %this.addr, align 8
  %0 = bitcast %"class.dealii::BlockVector"* %this1 to %"class.dealii::BlockVectorBase"*, !dbg !5078
  %1 = load %"class.dealii::Vector"*, %"class.dealii::Vector"** %v.addr, align 8, !dbg !5079
  %call = call dereferenceable(128) %"class.dealii::BlockVectorBase"* @_ZN6dealii15BlockVectorBaseINS_6VectorIdEEEaSERKS2_(%"class.dealii::BlockVectorBase"* %0, %"class.dealii::Vector"* dereferenceable(88) %1), !dbg !5078
  ret %"class.dealii::BlockVector"* %this1, !dbg !5080
}

; Function Attrs: noinline uwtable
define weak_odr dso_local void @_ZNK6dealii14PreconditionLUIdE6TvmultERNS_11BlockVectorIdEERKS3_(%"class.dealii::PreconditionLU"* %this, %"class.dealii::BlockVector"* dereferenceable(128) %dst, %"class.dealii::BlockVector"* dereferenceable(128) %src) #0 comdat align 2 !dbg !5081 {
entry:
  %this.addr = alloca %"class.dealii::PreconditionLU"*, align 8
  %dst.addr = alloca %"class.dealii::BlockVector"*, align 8
  %src.addr = alloca %"class.dealii::BlockVector"*, align 8
  %aux = alloca %"class.dealii::Vector"*, align 8
  store %"class.dealii::PreconditionLU"* %this, %"class.dealii::PreconditionLU"** %this.addr, align 8
  call void @llvm.dbg.declare(metadata %"class.dealii::PreconditionLU"** %this.addr, metadata !5082, metadata !DIExpression()), !dbg !5083
  store %"class.dealii::BlockVector"* %dst, %"class.dealii::BlockVector"** %dst.addr, align 8
  call void @llvm.dbg.declare(metadata %"class.dealii::BlockVector"** %dst.addr, metadata !5084, metadata !DIExpression()), !dbg !5085
  store %"class.dealii::BlockVector"* %src, %"class.dealii::BlockVector"** %src.addr, align 8
  call void @llvm.dbg.declare(metadata %"class.dealii::BlockVector"** %src.addr, metadata !5086, metadata !DIExpression()), !dbg !5087
  %this1 = load %"class.dealii::PreconditionLU"*, %"class.dealii::PreconditionLU"** %this.addr, align 8
  call void @llvm.dbg.declare(metadata %"class.dealii::Vector"** %aux, metadata !5088, metadata !DIExpression()), !dbg !5089
  %mem = getelementptr inbounds %"class.dealii::PreconditionLU", %"class.dealii::PreconditionLU"* %this1, i32 0, i32 2, !dbg !5090
  %call = call %"class.dealii::VectorMemory"* @_ZNK6dealii12SmartPointerINS_12VectorMemoryINS_6VectorIdEEEEEptEv(%"class.dealii::SmartPointer.40"* %mem), !dbg !5090
  %0 = bitcast %"class.dealii::VectorMemory"* %call to %"class.dealii::Vector"* (%"class.dealii::VectorMemory"*)***, !dbg !5091
  %vtable = load %"class.dealii::Vector"* (%"class.dealii::VectorMemory"*)**, %"class.dealii::Vector"* (%"class.dealii::VectorMemory"*)*** %0, align 8, !dbg !5091
  %vfn = getelementptr inbounds %"class.dealii::Vector"* (%"class.dealii::VectorMemory"*)*, %"class.dealii::Vector"* (%"class.dealii::VectorMemory"*)** %vtable, i64 2, !dbg !5091
  %1 = load %"class.dealii::Vector"* (%"class.dealii::VectorMemory"*)*, %"class.dealii::Vector"* (%"class.dealii::VectorMemory"*)** %vfn, align 8, !dbg !5091
  %call2 = call %"class.dealii::Vector"* %1(%"class.dealii::VectorMemory"* %call), !dbg !5091
  store %"class.dealii::Vector"* %call2, %"class.dealii::Vector"** %aux, align 8, !dbg !5089
  %2 = load %"class.dealii::BlockVector"*, %"class.dealii::BlockVector"** %src.addr, align 8, !dbg !5092
  %3 = load %"class.dealii::Vector"*, %"class.dealii::Vector"** %aux, align 8, !dbg !5093
  %call3 = call dereferenceable(88) %"class.dealii::Vector"* @_ZN6dealii6VectorIdEaSERKNS_11BlockVectorIdEE(%"class.dealii::Vector"* %3, %"class.dealii::BlockVector"* dereferenceable(128) %2), !dbg !5094
  %matrix = getelementptr inbounds %"class.dealii::PreconditionLU", %"class.dealii::PreconditionLU"* %this1, i32 0, i32 1, !dbg !5095
  %call4 = call %"class.dealii::LAPACKFullMatrix"* @_ZNK6dealii12SmartPointerIKNS_16LAPACKFullMatrixIdEEEptEv(%"class.dealii::SmartPointer"* %matrix), !dbg !5095
  %4 = load %"class.dealii::Vector"*, %"class.dealii::Vector"** %aux, align 8, !dbg !5096
  call void @_ZNK6dealii16LAPACKFullMatrixIdE22apply_lu_factorizationERNS_6VectorIdEEb(%"class.dealii::LAPACKFullMatrix"* %call4, %"class.dealii::Vector"* dereferenceable(88) %4, i1 zeroext true), !dbg !5097
  %5 = load %"class.dealii::Vector"*, %"class.dealii::Vector"** %aux, align 8, !dbg !5098
  %6 = load %"class.dealii::BlockVector"*, %"class.dealii::BlockVector"** %dst.addr, align 8, !dbg !5099
  %call5 = call dereferenceable(128) %"class.dealii::BlockVector"* @_ZN6dealii11BlockVectorIdEaSERKNS_6VectorIdEE(%"class.dealii::BlockVector"* %6, %"class.dealii::Vector"* dereferenceable(88) %5), !dbg !5100
  ret void, !dbg !5101
}

; Function Attrs: noinline uwtable
define weak_odr dso_local void @_ZN6dealii14PreconditionLUIfE10initializeERKNS_16LAPACKFullMatrixIfEE(%"class.dealii::PreconditionLU.51"* %this, %"class.dealii::LAPACKFullMatrix.30"* dereferenceable(272) %M) #0 comdat align 2 !dbg !5102 {
entry:
  %this.addr = alloca %"class.dealii::PreconditionLU.51"*, align 8
  %M.addr = alloca %"class.dealii::LAPACKFullMatrix.30"*, align 8
  store %"class.dealii::PreconditionLU.51"* %this, %"class.dealii::PreconditionLU.51"** %this.addr, align 8
  call void @llvm.dbg.declare(metadata %"class.dealii::PreconditionLU.51"** %this.addr, metadata !5103, metadata !DIExpression()), !dbg !5105
  store %"class.dealii::LAPACKFullMatrix.30"* %M, %"class.dealii::LAPACKFullMatrix.30"** %M.addr, align 8
  call void @llvm.dbg.declare(metadata %"class.dealii::LAPACKFullMatrix.30"** %M.addr, metadata !5106, metadata !DIExpression()), !dbg !5107
  %this1 = load %"class.dealii::PreconditionLU.51"*, %"class.dealii::PreconditionLU.51"** %this.addr, align 8
  %0 = load %"class.dealii::LAPACKFullMatrix.30"*, %"class.dealii::LAPACKFullMatrix.30"** %M.addr, align 8, !dbg !5108
  %matrix = getelementptr inbounds %"class.dealii::PreconditionLU.51", %"class.dealii::PreconditionLU.51"* %this1, i32 0, i32 1, !dbg !5109
  %call = call dereferenceable(16) %"class.dealii::SmartPointer.52"* @_ZN6dealii12SmartPointerIKNS_16LAPACKFullMatrixIfEEEaSEPS3_(%"class.dealii::SmartPointer.52"* %matrix, %"class.dealii::LAPACKFullMatrix.30"* %0), !dbg !5110
  %mem = getelementptr inbounds %"class.dealii::PreconditionLU.51", %"class.dealii::PreconditionLU.51"* %this1, i32 0, i32 2, !dbg !5111
  %call2 = call dereferenceable(16) %"class.dealii::SmartPointer.53"* @_ZN6dealii12SmartPointerINS_12VectorMemoryINS_6VectorIfEEEEEaSEPS4_(%"class.dealii::SmartPointer.53"* %mem, %"class.dealii::VectorMemory.54"* null), !dbg !5112
  ret void, !dbg !5113
}

; Function Attrs: noinline nounwind uwtable
define linkonce_odr dso_local dereferenceable(16) %"class.dealii::SmartPointer.52"* @_ZN6dealii12SmartPointerIKNS_16LAPACKFullMatrixIfEEEaSEPS3_(%"class.dealii::SmartPointer.52"* %this, %"class.dealii::LAPACKFullMatrix.30"* %tt) #1 comdat align 2 !dbg !5114 {
entry:
  %retval = alloca %"class.dealii::SmartPointer.52"*, align 8
  %this.addr = alloca %"class.dealii::SmartPointer.52"*, align 8
  %tt.addr = alloca %"class.dealii::LAPACKFullMatrix.30"*, align 8
  store %"class.dealii::SmartPointer.52"* %this, %"class.dealii::SmartPointer.52"** %this.addr, align 8
  call void @llvm.dbg.declare(metadata %"class.dealii::SmartPointer.52"** %this.addr, metadata !5115, metadata !DIExpression()), !dbg !5117
  store %"class.dealii::LAPACKFullMatrix.30"* %tt, %"class.dealii::LAPACKFullMatrix.30"** %tt.addr, align 8
  call void @llvm.dbg.declare(metadata %"class.dealii::LAPACKFullMatrix.30"** %tt.addr, metadata !5118, metadata !DIExpression()), !dbg !5119
  %this1 = load %"class.dealii::SmartPointer.52"*, %"class.dealii::SmartPointer.52"** %this.addr, align 8
  %t = getelementptr inbounds %"class.dealii::SmartPointer.52", %"class.dealii::SmartPointer.52"* %this1, i32 0, i32 0, !dbg !5120
  %0 = load %"class.dealii::LAPACKFullMatrix.30"*, %"class.dealii::LAPACKFullMatrix.30"** %t, align 8, !dbg !5120
  %1 = load %"class.dealii::LAPACKFullMatrix.30"*, %"class.dealii::LAPACKFullMatrix.30"** %tt.addr, align 8, !dbg !5122
  %cmp = icmp eq %"class.dealii::LAPACKFullMatrix.30"* %0, %1, !dbg !5123
  br i1 %cmp, label %if.then, label %if.end, !dbg !5124

if.then:                                          ; preds = %entry
  store %"class.dealii::SmartPointer.52"* %this1, %"class.dealii::SmartPointer.52"** %retval, align 8, !dbg !5125
  br label %return, !dbg !5125

if.end:                                           ; preds = %entry
  %t2 = getelementptr inbounds %"class.dealii::SmartPointer.52", %"class.dealii::SmartPointer.52"* %this1, i32 0, i32 0, !dbg !5126
  %2 = load %"class.dealii::LAPACKFullMatrix.30"*, %"class.dealii::LAPACKFullMatrix.30"** %t2, align 8, !dbg !5126
  %cmp3 = icmp ne %"class.dealii::LAPACKFullMatrix.30"* %2, null, !dbg !5128
  br i1 %cmp3, label %if.then4, label %if.end6, !dbg !5129

if.then4:                                         ; preds = %if.end
  %t5 = getelementptr inbounds %"class.dealii::SmartPointer.52", %"class.dealii::SmartPointer.52"* %this1, i32 0, i32 0, !dbg !5130
  %3 = load %"class.dealii::LAPACKFullMatrix.30"*, %"class.dealii::LAPACKFullMatrix.30"** %t5, align 8, !dbg !5130
  %4 = bitcast %"class.dealii::LAPACKFullMatrix.30"* %3 to %"class.dealii::Subscriptor"*, !dbg !5131
  %id = getelementptr inbounds %"class.dealii::SmartPointer.52", %"class.dealii::SmartPointer.52"* %this1, i32 0, i32 1, !dbg !5132
  %5 = load i8*, i8** %id, align 8, !dbg !5132
  call void @_ZNK6dealii11Subscriptor11unsubscribeEPKc(%"class.dealii::Subscriptor"* %4, i8* %5), !dbg !5131
  br label %if.end6, !dbg !5130

if.end6:                                          ; preds = %if.then4, %if.end
  %6 = load %"class.dealii::LAPACKFullMatrix.30"*, %"class.dealii::LAPACKFullMatrix.30"** %tt.addr, align 8, !dbg !5133
  %t7 = getelementptr inbounds %"class.dealii::SmartPointer.52", %"class.dealii::SmartPointer.52"* %this1, i32 0, i32 0, !dbg !5134
  store %"class.dealii::LAPACKFullMatrix.30"* %6, %"class.dealii::LAPACKFullMatrix.30"** %t7, align 8, !dbg !5135
  %7 = load %"class.dealii::LAPACKFullMatrix.30"*, %"class.dealii::LAPACKFullMatrix.30"** %tt.addr, align 8, !dbg !5136
  %cmp8 = icmp ne %"class.dealii::LAPACKFullMatrix.30"* %7, null, !dbg !5138
  br i1 %cmp8, label %if.then9, label %if.end11, !dbg !5139

if.then9:                                         ; preds = %if.end6
  %8 = load %"class.dealii::LAPACKFullMatrix.30"*, %"class.dealii::LAPACKFullMatrix.30"** %tt.addr, align 8, !dbg !5140
  %9 = bitcast %"class.dealii::LAPACKFullMatrix.30"* %8 to %"class.dealii::Subscriptor"*, !dbg !5141
  %id10 = getelementptr inbounds %"class.dealii::SmartPointer.52", %"class.dealii::SmartPointer.52"* %this1, i32 0, i32 1, !dbg !5142
  %10 = load i8*, i8** %id10, align 8, !dbg !5142
  call void @_ZNK6dealii11Subscriptor9subscribeEPKc(%"class.dealii::Subscriptor"* %9, i8* %10), !dbg !5141
  br label %if.end11, !dbg !5140

if.end11:                                         ; preds = %if.then9, %if.end6
  store %"class.dealii::SmartPointer.52"* %this1, %"class.dealii::SmartPointer.52"** %retval, align 8, !dbg !5143
  br label %return, !dbg !5143

return:                                           ; preds = %if.end11, %if.then
  %11 = load %"class.dealii::SmartPointer.52"*, %"class.dealii::SmartPointer.52"** %retval, align 8, !dbg !5144
  ret %"class.dealii::SmartPointer.52"* %11, !dbg !5144
}

; Function Attrs: noinline nounwind uwtable
define linkonce_odr dso_local dereferenceable(16) %"class.dealii::SmartPointer.53"* @_ZN6dealii12SmartPointerINS_12VectorMemoryINS_6VectorIfEEEEEaSEPS4_(%"class.dealii::SmartPointer.53"* %this, %"class.dealii::VectorMemory.54"* %tt) #1 comdat align 2 !dbg !5145 {
entry:
  %retval = alloca %"class.dealii::SmartPointer.53"*, align 8
  %this.addr = alloca %"class.dealii::SmartPointer.53"*, align 8
  %tt.addr = alloca %"class.dealii::VectorMemory.54"*, align 8
  store %"class.dealii::SmartPointer.53"* %this, %"class.dealii::SmartPointer.53"** %this.addr, align 8
  call void @llvm.dbg.declare(metadata %"class.dealii::SmartPointer.53"** %this.addr, metadata !5146, metadata !DIExpression()), !dbg !5148
  store %"class.dealii::VectorMemory.54"* %tt, %"class.dealii::VectorMemory.54"** %tt.addr, align 8
  call void @llvm.dbg.declare(metadata %"class.dealii::VectorMemory.54"** %tt.addr, metadata !5149, metadata !DIExpression()), !dbg !5150
  %this1 = load %"class.dealii::SmartPointer.53"*, %"class.dealii::SmartPointer.53"** %this.addr, align 8
  %t = getelementptr inbounds %"class.dealii::SmartPointer.53", %"class.dealii::SmartPointer.53"* %this1, i32 0, i32 0, !dbg !5151
  %0 = load %"class.dealii::VectorMemory.54"*, %"class.dealii::VectorMemory.54"** %t, align 8, !dbg !5151
  %1 = load %"class.dealii::VectorMemory.54"*, %"class.dealii::VectorMemory.54"** %tt.addr, align 8, !dbg !5153
  %cmp = icmp eq %"class.dealii::VectorMemory.54"* %0, %1, !dbg !5154
  br i1 %cmp, label %if.then, label %if.end, !dbg !5155

if.then:                                          ; preds = %entry
  store %"class.dealii::SmartPointer.53"* %this1, %"class.dealii::SmartPointer.53"** %retval, align 8, !dbg !5156
  br label %return, !dbg !5156

if.end:                                           ; preds = %entry
  %t2 = getelementptr inbounds %"class.dealii::SmartPointer.53", %"class.dealii::SmartPointer.53"* %this1, i32 0, i32 0, !dbg !5157
  %2 = load %"class.dealii::VectorMemory.54"*, %"class.dealii::VectorMemory.54"** %t2, align 8, !dbg !5157
  %cmp3 = icmp ne %"class.dealii::VectorMemory.54"* %2, null, !dbg !5159
