; ModuleID = 'source/multigrid/mg_dof_accessor.cc'
source_filename = "source/multigrid/mg_dof_accessor.cc"
target datalayout = "e-m:e-p270:32:32-p271:32:32-p272:64:64-i64:64-f80:128-n8:16:32:64-S128"
target triple = "x86_64-unknown-linux-gnu"

%"struct.boost::arg" = type { i8 }
%"struct.boost::arg.0" = type { i8 }
%"struct.boost::arg.2" = type { i8 }
%"struct.boost::arg.4" = type { i8 }
%"struct.boost::arg.6" = type { i8 }
%"struct.boost::arg.8" = type { i8 }
%"struct.boost::arg.10" = type { i8 }
%"struct.boost::arg.12" = type { i8 }
%"struct.boost::arg.14" = type { i8 }
%"class.std::ios_base::Init" = type { i8 }
%"class.dealii::MGDoFAccessor" = type { %"class.dealii::DoFAccessor", %"class.dealii::MGDoFHandler"* }
%"class.dealii::DoFAccessor" = type { %"class.dealii::TriaAccessor", %"class.dealii::DoFHandler"* }
%"class.dealii::TriaAccessor" = type { %"class.dealii::TriaAccessorBase" }
%"class.dealii::TriaAccessorBase" = type { i32, %"class.dealii::Triangulation"* }
%"class.dealii::Triangulation" = type { %"class.dealii::Subscriptor", %"class.std::vector.46", %"class.dealii::internal::Triangulation::TriaFaces"*, %"class.std::vector.121", %"class.std::vector.56", [255 x %"class.dealii::SmartPointer.126"], [255 x %"class.dealii::SmartPointer.126"], i8, i32, %"struct.dealii::internal::Triangulation::NumberCache", %"class.std::__cxx11::list" }
%"class.dealii::Subscriptor" = type { i32 (...)**, i32, %"class.std::map", %"class.std::type_info"* }
%"class.std::map" = type { %"class.std::_Rb_tree" }
%"class.std::_Rb_tree" = type { %"struct.std::_Rb_tree<const char *, std::pair<const char *const, unsigned int>, std::_Select1st<std::pair<const char *const, unsigned int> >, std::less<const char *>, std::allocator<std::pair<const char *const, unsigned int> > >::_Rb_tree_impl" }
%"struct.std::_Rb_tree<const char *, std::pair<const char *const, unsigned int>, std::_Select1st<std::pair<const char *const, unsigned int> >, std::less<const char *>, std::allocator<std::pair<const char *const, unsigned int> > >::_Rb_tree_impl" = type { %"struct.std::_Rb_tree_key_compare", %"struct.std::_Rb_tree_header" }
%"struct.std::_Rb_tree_key_compare" = type { %"struct.std::less" }
%"struct.std::less" = type { i8 }
%"struct.std::_Rb_tree_header" = type { %"struct.std::_Rb_tree_node_base", i64 }
%"struct.std::_Rb_tree_node_base" = type { i32, %"struct.std::_Rb_tree_node_base"*, %"struct.std::_Rb_tree_node_base"*, %"struct.std::_Rb_tree_node_base"* }
%"class.std::type_info" = type { i32 (...)**, i8* }
%"class.std::vector.46" = type { %"struct.std::_Vector_base.47" }
%"struct.std::_Vector_base.47" = type { %"struct.std::_Vector_base<dealii::internal::Triangulation::TriaLevel<3> *, std::allocator<dealii::internal::Triangulation::TriaLevel<3> *> >::_Vector_impl" }
%"struct.std::_Vector_base<dealii::internal::Triangulation::TriaLevel<3> *, std::allocator<dealii::internal::Triangulation::TriaLevel<3> *> >::_Vector_impl" = type { %"struct.std::_Vector_base<dealii::internal::Triangulation::TriaLevel<3> *, std::allocator<dealii::internal::Triangulation::TriaLevel<3> *> >::_Vector_impl_data" }
%"struct.std::_Vector_base<dealii::internal::Triangulation::TriaLevel<3> *, std::allocator<dealii::internal::Triangulation::TriaLevel<3> *> >::_Vector_impl_data" = type { %"class.dealii::internal::Triangulation::TriaLevel"**, %"class.dealii::internal::Triangulation::TriaLevel"**, %"class.dealii::internal::Triangulation::TriaLevel"** }
%"class.dealii::internal::Triangulation::TriaLevel" = type { %"class.std::vector.51", %"class.std::vector.56", %"class.std::vector.60", %"class.std::vector.21", %"class.dealii::internal::Triangulation::TriaObjectsHex" }
%"class.std::vector.51" = type { %"struct.std::_Vector_base.52" }
%"struct.std::_Vector_base.52" = type { %"struct.std::_Vector_base<unsigned char, std::allocator<unsigned char> >::_Vector_impl" }
%"struct.std::_Vector_base<unsigned char, std::allocator<unsigned char> >::_Vector_impl" = type { %"struct.std::_Vector_base<unsigned char, std::allocator<unsigned char> >::_Vector_impl_data" }
%"struct.std::_Vector_base<unsigned char, std::allocator<unsigned char> >::_Vector_impl_data" = type { i8*, i8*, i8* }
%"class.std::vector.60" = type { %"struct.std::_Vector_base.61" }
%"struct.std::_Vector_base.61" = type { %"struct.std::_Vector_base<std::pair<int, int>, std::allocator<std::pair<int, int> > >::_Vector_impl" }
%"struct.std::_Vector_base<std::pair<int, int>, std::allocator<std::pair<int, int> > >::_Vector_impl" = type { %"struct.std::_Vector_base<std::pair<int, int>, std::allocator<std::pair<int, int> > >::_Vector_impl_data" }
%"struct.std::_Vector_base<std::pair<int, int>, std::allocator<std::pair<int, int> > >::_Vector_impl_data" = type { %"struct.std::pair"*, %"struct.std::pair"*, %"struct.std::pair"* }
%"struct.std::pair" = type { i32, i32 }
%"class.std::vector.21" = type { %"struct.std::_Vector_base.22" }
%"struct.std::_Vector_base.22" = type { %"struct.std::_Vector_base<unsigned int, std::allocator<unsigned int> >::_Vector_impl" }
%"struct.std::_Vector_base<unsigned int, std::allocator<unsigned int> >::_Vector_impl" = type { %"struct.std::_Vector_base<unsigned int, std::allocator<unsigned int> >::_Vector_impl_data" }
%"struct.std::_Vector_base<unsigned int, std::allocator<unsigned int> >::_Vector_impl_data" = type { i32*, i32*, i32* }
%"class.dealii::internal::Triangulation::TriaObjectsHex" = type { %"class.dealii::internal::Triangulation::TriaObjects.base", %"class.std::vector.56", %"class.std::vector.56", %"class.std::vector.56" }
%"class.dealii::internal::Triangulation::TriaObjects.base" = type <{ %"class.std::vector.65", %"class.std::vector.70", %"class.std::vector.75", %"class.std::vector.56", %"class.std::vector.56", %"class.std::vector.51", i32, i32, i8, [7 x i8], %"class.std::vector.80", i32 }>
%"class.std::vector.65" = type { %"struct.std::_Vector_base.66" }
%"struct.std::_Vector_base.66" = type { %"struct.std::_Vector_base<dealii::internal::Triangulation::TriaObject<3>, std::allocator<dealii::internal::Triangulation::TriaObject<3> > >::_Vector_impl" }
%"struct.std::_Vector_base<dealii::internal::Triangulation::TriaObject<3>, std::allocator<dealii::internal::Triangulation::TriaObject<3> > >::_Vector_impl" = type { %"struct.std::_Vector_base<dealii::internal::Triangulation::TriaObject<3>, std::allocator<dealii::internal::Triangulation::TriaObject<3> > >::_Vector_impl_data" }
%"struct.std::_Vector_base<dealii::internal::Triangulation::TriaObject<3>, std::allocator<dealii::internal::Triangulation::TriaObject<3> > >::_Vector_impl_data" = type { %"class.dealii::internal::Triangulation::TriaObject"*, %"class.dealii::internal::Triangulation::TriaObject"*, %"class.dealii::internal::Triangulation::TriaObject"* }
%"class.dealii::internal::Triangulation::TriaObject" = type { [6 x i32] }
%"class.std::vector.70" = type { %"struct.std::_Vector_base.71" }
%"struct.std::_Vector_base.71" = type { %"struct.std::_Vector_base<int, std::allocator<int> >::_Vector_impl" }
%"struct.std::_Vector_base<int, std::allocator<int> >::_Vector_impl" = type { %"struct.std::_Vector_base<int, std::allocator<int> >::_Vector_impl_data" }
%"struct.std::_Vector_base<int, std::allocator<int> >::_Vector_impl_data" = type { i32*, i32*, i32* }
%"class.std::vector.75" = type { %"struct.std::_Vector_base.76" }
%"struct.std::_Vector_base.76" = type { %"struct.std::_Vector_base<dealii::RefinementCase<3>, std::allocator<dealii::RefinementCase<3> > >::_Vector_impl" }
%"struct.std::_Vector_base<dealii::RefinementCase<3>, std::allocator<dealii::RefinementCase<3> > >::_Vector_impl" = type { %"struct.std::_Vector_base<dealii::RefinementCase<3>, std::allocator<dealii::RefinementCase<3> > >::_Vector_impl_data" }
%"struct.std::_Vector_base<dealii::RefinementCase<3>, std::allocator<dealii::RefinementCase<3> > >::_Vector_impl_data" = type { %"class.dealii::RefinementCase.44"*, %"class.dealii::RefinementCase.44"*, %"class.dealii::RefinementCase.44"* }
%"class.dealii::RefinementCase.44" = type { i8 }
%"class.std::vector.80" = type { %"struct.std::_Vector_base.81" }
%"struct.std::_Vector_base.81" = type { %"struct.std::_Vector_base<dealii::internal::Triangulation::TriaObjects<dealii::internal::Triangulation::TriaObject<3> >::UserData, std::allocator<dealii::internal::Triangulation::TriaObjects<dealii::internal::Triangulation::TriaObject<3> >::UserData> >::_Vector_impl" }
%"struct.std::_Vector_base<dealii::internal::Triangulation::TriaObjects<dealii::internal::Triangulation::TriaObject<3> >::UserData, std::allocator<dealii::internal::Triangulation::TriaObjects<dealii::internal::Triangulation::TriaObject<3> >::UserData> >::_Vector_impl" = type { %"struct.std::_Vector_base<dealii::internal::Triangulation::TriaObjects<dealii::internal::Triangulation::TriaObject<3> >::UserData, std::allocator<dealii::internal::Triangulation::TriaObjects<dealii::internal::Triangulation::TriaObject<3> >::UserData> >::_Vector_impl_data" }
%"struct.std::_Vector_base<dealii::internal::Triangulation::TriaObjects<dealii::internal::Triangulation::TriaObject<3> >::UserData, std::allocator<dealii::internal::Triangulation::TriaObjects<dealii::internal::Triangulation::TriaObject<3> >::UserData> >::_Vector_impl_data" = type { %"union.dealii::internal::Triangulation::TriaObjects<dealii::internal::Triangulation::TriaObject<3> >::UserData"*, %"union.dealii::internal::Triangulation::TriaObjects<dealii::internal::Triangulation::TriaObject<3> >::UserData"*, %"union.dealii::internal::Triangulation::TriaObjects<dealii::internal::Triangulation::TriaObject<3> >::UserData"* }
%"union.dealii::internal::Triangulation::TriaObjects<dealii::internal::Triangulation::TriaObject<3> >::UserData" = type opaque
%"class.dealii::internal::Triangulation::TriaFaces" = type { %"class.dealii::internal::Triangulation::TriaObjectsQuad3D", %"class.dealii::internal::Triangulation::TriaObjects.103" }
%"class.dealii::internal::Triangulation::TriaObjectsQuad3D" = type { %"class.dealii::internal::Triangulation::TriaObjects.base.102", %"class.std::vector.56" }
%"class.dealii::internal::Triangulation::TriaObjects.base.102" = type <{ %"class.std::vector.86", %"class.std::vector.70", %"class.std::vector.92", %"class.std::vector.56", %"class.std::vector.56", %"class.std::vector.51", i32, i32, i8, [7 x i8], %"class.std::vector.97", i32 }>
%"class.std::vector.86" = type { %"struct.std::_Vector_base.87" }
%"struct.std::_Vector_base.87" = type { %"struct.std::_Vector_base<dealii::internal::Triangulation::TriaObject<2>, std::allocator<dealii::internal::Triangulation::TriaObject<2> > >::_Vector_impl" }
%"struct.std::_Vector_base<dealii::internal::Triangulation::TriaObject<2>, std::allocator<dealii::internal::Triangulation::TriaObject<2> > >::_Vector_impl" = type { %"struct.std::_Vector_base<dealii::internal::Triangulation::TriaObject<2>, std::allocator<dealii::internal::Triangulation::TriaObject<2> > >::_Vector_impl_data" }
%"struct.std::_Vector_base<dealii::internal::Triangulation::TriaObject<2>, std::allocator<dealii::internal::Triangulation::TriaObject<2> > >::_Vector_impl_data" = type { %"class.dealii::internal::Triangulation::TriaObject.91"*, %"class.dealii::internal::Triangulation::TriaObject.91"*, %"class.dealii::internal::Triangulation::TriaObject.91"* }
%"class.dealii::internal::Triangulation::TriaObject.91" = type { [4 x i32] }
%"class.std::vector.92" = type { %"struct.std::_Vector_base.93" }
%"struct.std::_Vector_base.93" = type { %"struct.std::_Vector_base<dealii::RefinementCase<2>, std::allocator<dealii::RefinementCase<2> > >::_Vector_impl" }
%"struct.std::_Vector_base<dealii::RefinementCase<2>, std::allocator<dealii::RefinementCase<2> > >::_Vector_impl" = type { %"struct.std::_Vector_base<dealii::RefinementCase<2>, std::allocator<dealii::RefinementCase<2> > >::_Vector_impl_data" }
%"struct.std::_Vector_base<dealii::RefinementCase<2>, std::allocator<dealii::RefinementCase<2> > >::_Vector_impl_data" = type { %"class.dealii::RefinementCase.33"*, %"class.dealii::RefinementCase.33"*, %"class.dealii::RefinementCase.33"* }
%"class.dealii::RefinementCase.33" = type { i8 }
%"class.std::vector.97" = type { %"struct.std::_Vector_base.98" }
%"struct.std::_Vector_base.98" = type { %"struct.std::_Vector_base<dealii::internal::Triangulation::TriaObjects<dealii::internal::Triangulation::TriaObject<2> >::UserData, std::allocator<dealii::internal::Triangulation::TriaObjects<dealii::internal::Triangulation::TriaObject<2> >::UserData> >::_Vector_impl" }
%"struct.std::_Vector_base<dealii::internal::Triangulation::TriaObjects<dealii::internal::Triangulation::TriaObject<2> >::UserData, std::allocator<dealii::internal::Triangulation::TriaObjects<dealii::internal::Triangulation::TriaObject<2> >::UserData> >::_Vector_impl" = type { %"struct.std::_Vector_base<dealii::internal::Triangulation::TriaObjects<dealii::internal::Triangulation::TriaObject<2> >::UserData, std::allocator<dealii::internal::Triangulation::TriaObjects<dealii::internal::Triangulation::TriaObject<2> >::UserData> >::_Vector_impl_data" }
%"struct.std::_Vector_base<dealii::internal::Triangulation::TriaObjects<dealii::internal::Triangulation::TriaObject<2> >::UserData, std::allocator<dealii::internal::Triangulation::TriaObjects<dealii::internal::Triangulation::TriaObject<2> >::UserData> >::_Vector_impl_data" = type { %"union.dealii::internal::Triangulation::TriaObjects<dealii::internal::Triangulation::TriaObject<2> >::UserData"*, %"union.dealii::internal::Triangulation::TriaObjects<dealii::internal::Triangulation::TriaObject<2> >::UserData"*, %"union.dealii::internal::Triangulation::TriaObjects<dealii::internal::Triangulation::TriaObject<2> >::UserData"* }
%"union.dealii::internal::Triangulation::TriaObjects<dealii::internal::Triangulation::TriaObject<2> >::UserData" = type opaque
%"class.dealii::internal::Triangulation::TriaObjects.103" = type <{ %"class.std::vector.104", %"class.std::vector.70", %"class.std::vector.110", %"class.std::vector.56", %"class.std::vector.56", %"class.std::vector.51", i32, i32, i8, [7 x i8], %"class.std::vector.115", i32, [4 x i8] }>
%"class.std::vector.104" = type { %"struct.std::_Vector_base.105" }
%"struct.std::_Vector_base.105" = type { %"struct.std::_Vector_base<dealii::internal::Triangulation::TriaObject<1>, std::allocator<dealii::internal::Triangulation::TriaObject<1> > >::_Vector_impl" }
%"struct.std::_Vector_base<dealii::internal::Triangulation::TriaObject<1>, std::allocator<dealii::internal::Triangulation::TriaObject<1> > >::_Vector_impl" = type { %"struct.std::_Vector_base<dealii::internal::Triangulation::TriaObject<1>, std::allocator<dealii::internal::Triangulation::TriaObject<1> > >::_Vector_impl_data" }
%"struct.std::_Vector_base<dealii::internal::Triangulation::TriaObject<1>, std::allocator<dealii::internal::Triangulation::TriaObject<1> > >::_Vector_impl_data" = type { %"class.dealii::internal::Triangulation::TriaObject.109"*, %"class.dealii::internal::Triangulation::TriaObject.109"*, %"class.dealii::internal::Triangulation::TriaObject.109"* }
%"class.dealii::internal::Triangulation::TriaObject.109" = type { [2 x i32] }
%"class.std::vector.110" = type { %"struct.std::_Vector_base.111" }
%"struct.std::_Vector_base.111" = type { %"struct.std::_Vector_base<dealii::RefinementCase<1>, std::allocator<dealii::RefinementCase<1> > >::_Vector_impl" }
%"struct.std::_Vector_base<dealii::RefinementCase<1>, std::allocator<dealii::RefinementCase<1> > >::_Vector_impl" = type { %"struct.std::_Vector_base<dealii::RefinementCase<1>, std::allocator<dealii::RefinementCase<1> > >::_Vector_impl_data" }
%"struct.std::_Vector_base<dealii::RefinementCase<1>, std::allocator<dealii::RefinementCase<1> > >::_Vector_impl_data" = type { %"class.dealii::RefinementCase"*, %"class.dealii::RefinementCase"*, %"class.dealii::RefinementCase"* }
%"class.dealii::RefinementCase" = type { i8 }
%"class.std::vector.115" = type { %"struct.std::_Vector_base.116" }
%"struct.std::_Vector_base.116" = type { %"struct.std::_Vector_base<dealii::internal::Triangulation::TriaObjects<dealii::internal::Triangulation::TriaObject<1> >::UserData, std::allocator<dealii::internal::Triangulation::TriaObjects<dealii::internal::Triangulation::TriaObject<1> >::UserData> >::_Vector_impl" }
%"struct.std::_Vector_base<dealii::internal::Triangulation::TriaObjects<dealii::internal::Triangulation::TriaObject<1> >::UserData, std::allocator<dealii::internal::Triangulation::TriaObjects<dealii::internal::Triangulation::TriaObject<1> >::UserData> >::_Vector_impl" = type { %"struct.std::_Vector_base<dealii::internal::Triangulation::TriaObjects<dealii::internal::Triangulation::TriaObject<1> >::UserData, std::allocator<dealii::internal::Triangulation::TriaObjects<dealii::internal::Triangulation::TriaObject<1> >::UserData> >::_Vector_impl_data" }
%"struct.std::_Vector_base<dealii::internal::Triangulation::TriaObjects<dealii::internal::Triangulation::TriaObject<1> >::UserData, std::allocator<dealii::internal::Triangulation::TriaObjects<dealii::internal::Triangulation::TriaObject<1> >::UserData> >::_Vector_impl_data" = type { %"union.dealii::internal::Triangulation::TriaObjects<dealii::internal::Triangulation::TriaObject<1> >::UserData"*, %"union.dealii::internal::Triangulation::TriaObjects<dealii::internal::Triangulation::TriaObject<1> >::UserData"*, %"union.dealii::internal::Triangulation::TriaObjects<dealii::internal::Triangulation::TriaObject<1> >::UserData"* }
%"union.dealii::internal::Triangulation::TriaObjects<dealii::internal::Triangulation::TriaObject<1> >::UserData" = type opaque
%"class.std::vector.121" = type { %"struct.std::_Vector_base.122" }
%"struct.std::_Vector_base.122" = type { %"struct.std::_Vector_base<dealii::Point<3>, std::allocator<dealii::Point<3> > >::_Vector_impl" }
%"struct.std::_Vector_base<dealii::Point<3>, std::allocator<dealii::Point<3> > >::_Vector_impl" = type { %"struct.std::_Vector_base<dealii::Point<3>, std::allocator<dealii::Point<3> > >::_Vector_impl_data" }
%"struct.std::_Vector_base<dealii::Point<3>, std::allocator<dealii::Point<3> > >::_Vector_impl_data" = type { %"class.dealii::Point"*, %"class.dealii::Point"*, %"class.dealii::Point"* }
%"class.dealii::Point" = type { %"class.dealii::Tensor" }
%"class.dealii::Tensor" = type { [3 x double] }
%"class.std::vector.56" = type { %"struct.std::_Bvector_base" }
%"struct.std::_Bvector_base" = type { %"struct.std::_Bvector_base<std::allocator<bool> >::_Bvector_impl" }
%"struct.std::_Bvector_base<std::allocator<bool> >::_Bvector_impl" = type { %"struct.std::_Bvector_base<std::allocator<bool> >::_Bvector_impl_data" }
%"struct.std::_Bvector_base<std::allocator<bool> >::_Bvector_impl_data" = type { %"struct.std::_Bit_iterator", %"struct.std::_Bit_iterator", i64* }
%"struct.std::_Bit_iterator" = type { %"struct.std::_Bit_iterator_base.base", [4 x i8] }
%"struct.std::_Bit_iterator_base.base" = type <{ i64*, i32 }>
%"class.dealii::SmartPointer.126" = type { %"class.dealii::Boundary"*, i8* }
%"class.dealii::Boundary" = type opaque
%"struct.dealii::internal::Triangulation::NumberCache" = type { %"struct.dealii::internal::Triangulation::NumberCache.127", i32, %"class.std::vector.21", i32, %"class.std::vector.21" }
%"struct.dealii::internal::Triangulation::NumberCache.127" = type { %"struct.dealii::internal::Triangulation::NumberCache.128", i32, %"class.std::vector.21", i32, %"class.std::vector.21" }
%"struct.dealii::internal::Triangulation::NumberCache.128" = type { i32, %"class.std::vector.21", i32, %"class.std::vector.21" }
%"class.std::__cxx11::list" = type { %"class.std::__cxx11::_List_base" }
%"class.std::__cxx11::_List_base" = type { %"struct.std::__cxx11::_List_base<dealii::Triangulation<3, 3>::RefinementListener *, std::allocator<dealii::Triangulation<3, 3>::RefinementListener *> >::_List_impl" }
%"struct.std::__cxx11::_List_base<dealii::Triangulation<3, 3>::RefinementListener *, std::allocator<dealii::Triangulation<3, 3>::RefinementListener *> >::_List_impl" = type { %"struct.std::__detail::_List_node_header" }
%"struct.std::__detail::_List_node_header" = type { %"struct.std::__detail::_List_node_base", i64 }
%"struct.std::__detail::_List_node_base" = type { %"struct.std::__detail::_List_node_base"*, %"struct.std::__detail::_List_node_base"* }
%"class.dealii::DoFHandler" = type { %"class.dealii::Subscriptor", %"class.dealii::SmartPointer", %"class.dealii::SmartPointer.16", %"class.std::vector", %"class.dealii::internal::DoFHandler::DoFFaces"*, i32, %"class.std::vector.21" }
%"class.dealii::SmartPointer" = type { %"class.dealii::Triangulation"*, i8* }
%"class.dealii::SmartPointer.16" = type { %"class.dealii::FiniteElement"*, i8* }
%"class.dealii::FiniteElement" = type { %"class.dealii::Subscriptor", %"class.dealii::FiniteElementData", i8, %"class.std::vector.132", %"class.std::vector.132", %"class.dealii::FullMatrix", %"class.std::vector.121", %"class.std::vector.138", %"class.std::vector.121", %"class.std::vector.138", %"class.dealii::Table.145", %"class.std::vector.70", %"class.std::vector.149", %"class.std::vector.149", %"class.std::vector.155", %"class.std::vector.155", %"class.std::vector.21", %"class.std::vector.155", %"class.std::vector.56", %"class.std::vector.163", %"class.std::vector.21" }
%"class.dealii::FiniteElementData" = type { i32, i32, i32, i32, i32, i32, i32, i32, i32, i32, i32, i32, i32, i32, i32 }
%"class.std::vector.132" = type { %"struct.std::_Vector_base.133" }
%"struct.std::_Vector_base.133" = type { %"struct.std::_Vector_base<std::vector<dealii::FullMatrix<double>, std::allocator<dealii::FullMatrix<double> > >, std::allocator<std::vector<dealii::FullMatrix<double>, std::allocator<dealii::FullMatrix<double> > > > >::_Vector_impl" }
%"struct.std::_Vector_base<std::vector<dealii::FullMatrix<double>, std::allocator<dealii::FullMatrix<double> > >, std::allocator<std::vector<dealii::FullMatrix<double>, std::allocator<dealii::FullMatrix<double> > > > >::_Vector_impl" = type { %"struct.std::_Vector_base<std::vector<dealii::FullMatrix<double>, std::allocator<dealii::FullMatrix<double> > >, std::allocator<std::vector<dealii::FullMatrix<double>, std::allocator<dealii::FullMatrix<double> > > > >::_Vector_impl_data" }
%"struct.std::_Vector_base<std::vector<dealii::FullMatrix<double>, std::allocator<dealii::FullMatrix<double> > >, std::allocator<std::vector<dealii::FullMatrix<double>, std::allocator<dealii::FullMatrix<double> > > > >::_Vector_impl_data" = type { %"class.std::vector.137"*, %"class.std::vector.137"*, %"class.std::vector.137"* }
%"class.std::vector.137" = type opaque
%"class.dealii::FullMatrix" = type { %"class.dealii::Table.base", [4 x i8] }
%"class.dealii::Table.base" = type { %"class.dealii::TableBase.base" }
%"class.dealii::TableBase.base" = type <{ %"class.dealii::Subscriptor", double*, i32, %"class.dealii::TableIndices" }>
%"class.dealii::TableIndices" = type { %"class.dealii::TableIndicesBase" }
%"class.dealii::TableIndicesBase" = type { [2 x i32] }
%"class.std::vector.138" = type { %"struct.std::_Vector_base.139" }
%"struct.std::_Vector_base.139" = type { %"struct.std::_Vector_base<dealii::Point<2>, std::allocator<dealii::Point<2> > >::_Vector_impl" }
%"struct.std::_Vector_base<dealii::Point<2>, std::allocator<dealii::Point<2> > >::_Vector_impl" = type { %"struct.std::_Vector_base<dealii::Point<2>, std::allocator<dealii::Point<2> > >::_Vector_impl_data" }
%"struct.std::_Vector_base<dealii::Point<2>, std::allocator<dealii::Point<2> > >::_Vector_impl_data" = type { %"class.dealii::Point.143"*, %"class.dealii::Point.143"*, %"class.dealii::Point.143"* }
%"class.dealii::Point.143" = type { %"class.dealii::Tensor.144" }
%"class.dealii::Tensor.144" = type { [2 x double] }
%"class.dealii::Table.145" = type { %"class.dealii::TableBase.base.147", [4 x i8] }
%"class.dealii::TableBase.base.147" = type <{ %"class.dealii::Subscriptor", i32*, i32, %"class.dealii::TableIndices" }>
%"class.std::vector.149" = type { %"struct.std::_Vector_base.150" }
%"struct.std::_Vector_base.150" = type { %"struct.std::_Vector_base<std::pair<unsigned int, unsigned int>, std::allocator<std::pair<unsigned int, unsigned int> > >::_Vector_impl" }
%"struct.std::_Vector_base<std::pair<unsigned int, unsigned int>, std::allocator<std::pair<unsigned int, unsigned int> > >::_Vector_impl" = type { %"struct.std::_Vector_base<std::pair<unsigned int, unsigned int>, std::allocator<std::pair<unsigned int, unsigned int> > >::_Vector_impl_data" }
%"struct.std::_Vector_base<std::pair<unsigned int, unsigned int>, std::allocator<std::pair<unsigned int, unsigned int> > >::_Vector_impl_data" = type { %"struct.std::pair.154"*, %"struct.std::pair.154"*, %"struct.std::pair.154"* }
%"struct.std::pair.154" = type { i32, i32 }
%"class.std::vector.155" = type { %"struct.std::_Vector_base.156" }
%"struct.std::_Vector_base.156" = type { %"struct.std::_Vector_base<std::pair<std::pair<unsigned int, unsigned int>, unsigned int>, std::allocator<std::pair<std::pair<unsigned int, unsigned int>, unsigned int> > >::_Vector_impl" }
%"struct.std::_Vector_base<std::pair<std::pair<unsigned int, unsigned int>, unsigned int>, std::allocator<std::pair<std::pair<unsigned int, unsigned int>, unsigned int> > >::_Vector_impl" = type { %"struct.std::_Vector_base<std::pair<std::pair<unsigned int, unsigned int>, unsigned int>, std::allocator<std::pair<std::pair<unsigned int, unsigned int>, unsigned int> > >::_Vector_impl_data" }
%"struct.std::_Vector_base<std::pair<std::pair<unsigned int, unsigned int>, unsigned int>, std::allocator<std::pair<std::pair<unsigned int, unsigned int>, unsigned int> > >::_Vector_impl_data" = type { %"struct.std::pair.160"*, %"struct.std::pair.160"*, %"struct.std::pair.160"* }
%"struct.std::pair.160" = type { %"struct.std::pair.154", i32 }
%"class.std::vector.163" = type { %"struct.std::_Vector_base.164" }
%"struct.std::_Vector_base.164" = type { %"struct.std::_Vector_base<std::vector<bool, std::allocator<bool> >, std::allocator<std::vector<bool, std::allocator<bool> > > >::_Vector_impl" }
%"struct.std::_Vector_base<std::vector<bool, std::allocator<bool> >, std::allocator<std::vector<bool, std::allocator<bool> > > >::_Vector_impl" = type { %"struct.std::_Vector_base<std::vector<bool, std::allocator<bool> >, std::allocator<std::vector<bool, std::allocator<bool> > > >::_Vector_impl_data" }
%"struct.std::_Vector_base<std::vector<bool, std::allocator<bool> >, std::allocator<std::vector<bool, std::allocator<bool> > > >::_Vector_impl_data" = type { %"class.std::vector.56"*, %"class.std::vector.56"*, %"class.std::vector.56"* }
%"class.std::vector" = type { %"struct.std::_Vector_base" }
%"struct.std::_Vector_base" = type { %"struct.std::_Vector_base<dealii::internal::DoFHandler::DoFLevel<3> *, std::allocator<dealii::internal::DoFHandler::DoFLevel<3> *> >::_Vector_impl" }
%"struct.std::_Vector_base<dealii::internal::DoFHandler::DoFLevel<3> *, std::allocator<dealii::internal::DoFHandler::DoFLevel<3> *> >::_Vector_impl" = type { %"struct.std::_Vector_base<dealii::internal::DoFHandler::DoFLevel<3> *, std::allocator<dealii::internal::DoFHandler::DoFLevel<3> *> >::_Vector_impl_data" }
%"struct.std::_Vector_base<dealii::internal::DoFHandler::DoFLevel<3> *, std::allocator<dealii::internal::DoFHandler::DoFLevel<3> *> >::_Vector_impl_data" = type { %"class.dealii::internal::DoFHandler::DoFLevel"**, %"class.dealii::internal::DoFHandler::DoFLevel"**, %"class.dealii::internal::DoFHandler::DoFLevel"** }
%"class.dealii::internal::DoFHandler::DoFLevel" = type { %"class.dealii::internal::DoFHandler::DoFLevel.20", %"class.dealii::internal::DoFHandler::DoFObjects" }
%"class.dealii::internal::DoFHandler::DoFLevel.20" = type { %"class.std::vector.21" }
%"class.dealii::internal::DoFHandler::DoFObjects" = type { %"class.std::vector.21" }
%"class.dealii::internal::DoFHandler::DoFFaces" = type { %"class.dealii::internal::DoFHandler::DoFObjects.26", %"class.dealii::internal::DoFHandler::DoFObjects.27" }
%"class.dealii::internal::DoFHandler::DoFObjects.26" = type { %"class.std::vector.21" }
%"class.dealii::internal::DoFHandler::DoFObjects.27" = type { %"class.std::vector.21" }
%"class.dealii::MGDoFHandler" = type { %"class.dealii::DoFHandler", %"class.std::vector", %"class.dealii::internal::DoFHandler::DoFFaces"*, %"class.std::vector.28", %"class.std::vector.21" }
%"class.std::vector.28" = type { %"struct.std::_Vector_base.29" }
%"struct.std::_Vector_base.29" = type { %"struct.std::_Vector_base<dealii::MGDoFHandler<3, 3>::MGVertexDoFs, std::allocator<dealii::MGDoFHandler<3, 3>::MGVertexDoFs> >::_Vector_impl" }
%"struct.std::_Vector_base<dealii::MGDoFHandler<3, 3>::MGVertexDoFs, std::allocator<dealii::MGDoFHandler<3, 3>::MGVertexDoFs> >::_Vector_impl" = type { %"struct.std::_Vector_base<dealii::MGDoFHandler<3, 3>::MGVertexDoFs, std::allocator<dealii::MGDoFHandler<3, 3>::MGVertexDoFs> >::_Vector_impl_data" }
%"struct.std::_Vector_base<dealii::MGDoFHandler<3, 3>::MGVertexDoFs, std::allocator<dealii::MGDoFHandler<3, 3>::MGVertexDoFs> >::_Vector_impl_data" = type { %"class.dealii::MGDoFHandler<3, 3>::MGVertexDoFs"*, %"class.dealii::MGDoFHandler<3, 3>::MGVertexDoFs"*, %"class.dealii::MGDoFHandler<3, 3>::MGVertexDoFs"* }
%"class.dealii::MGDoFHandler<3, 3>::MGVertexDoFs" = type { i32, i32, i32* }
%"class.dealii::MGDoFAccessor.36" = type { %"class.dealii::DoFAccessor.37", %"class.dealii::MGDoFHandler"* }
%"class.dealii::DoFAccessor.37" = type { %"class.dealii::TriaAccessor.38", %"class.dealii::DoFHandler"* }
%"class.dealii::TriaAccessor.38" = type { %"class.dealii::TriaAccessorBase.39" }
%"class.dealii::TriaAccessorBase.39" = type { i32, %"class.dealii::Triangulation"* }
%"class.dealii::MGDoFAccessor.40" = type { %"class.dealii::DoFCellAccessor", %"class.dealii::MGDoFHandler"* }
%"class.dealii::DoFCellAccessor" = type { %"class.dealii::DoFAccessor.41" }
%"class.dealii::DoFAccessor.41" = type { %"class.dealii::CellAccessor", %"class.dealii::DoFHandler"* }
%"class.dealii::CellAccessor" = type { %"class.dealii::TriaAccessor.42" }
%"class.dealii::TriaAccessor.42" = type { %"class.dealii::TriaAccessorBase.43" }
%"class.dealii::TriaAccessorBase.43" = type { i32, i32, %"class.dealii::Triangulation"* }
%"class.dealii::MGDoFCellAccessor" = type { %"class.dealii::MGDoFAccessor.40" }
%"class.dealii::TriaRawIterator" = type { %"class.dealii::MGDoFAccessor" }
%"class.dealii::TriaRawIterator<dealii::MGDoFAccessor<1, 3> >::ExcDereferenceInvalidCell" = type { %"class.dealii::ExceptionBase.base", %"class.dealii::MGDoFAccessor" }
%"class.dealii::ExceptionBase.base" = type <{ %"class.std::exception", i8*, i32, [4 x i8], i8*, i8*, i8*, i8**, i32 }>
%"class.std::exception" = type { i32 (...)** }
%"class.dealii::TriaRawIterator<dealii::MGDoFAccessor<1, 3> >::ExcDereferenceInvalidObject" = type { %"class.dealii::ExceptionBase.base", %"class.dealii::MGDoFAccessor" }
%"class.dealii::TriaIterator" = type { %"class.dealii::TriaRawIterator" }
%"class.dealii::TriaActiveIterator" = type { %"class.dealii::TriaIterator" }
%"class.dealii::TriaRawIterator.170" = type { %"class.dealii::MGDoFAccessor.36" }
%"class.dealii::TriaRawIterator<dealii::MGDoFAccessor<2, 3> >::ExcDereferenceInvalidCell" = type { %"class.dealii::ExceptionBase.base", %"class.dealii::MGDoFAccessor.36" }
%"class.dealii::TriaRawIterator<dealii::MGDoFAccessor<2, 3> >::ExcDereferenceInvalidObject" = type { %"class.dealii::ExceptionBase.base", %"class.dealii::MGDoFAccessor.36" }
%"class.dealii::TriaIterator.169" = type { %"class.dealii::TriaRawIterator.170" }
%"class.dealii::TriaActiveIterator.181" = type { %"class.dealii::TriaIterator.169" }
%"class.dealii::TriaRawIterator.176" = type { %"class.dealii::MGDoFCellAccessor" }
%"class.dealii::TriaRawIterator<dealii::MGDoFCellAccessor<3> >::ExcDereferenceInvalidCell" = type { %"class.dealii::ExceptionBase.base", %"class.dealii::MGDoFCellAccessor" }
%"class.dealii::TriaRawIterator<dealii::MGDoFCellAccessor<3> >::ExcDereferenceInvalidObject" = type { %"class.dealii::ExceptionBase.base", %"class.dealii::MGDoFCellAccessor" }
%"class.dealii::TriaIterator.175" = type { %"class.dealii::TriaRawIterator.176" }
%"class.dealii::TriaActiveIterator.182" = type { %"class.dealii::TriaIterator.175" }
%"class.dealii::Vector" = type { %"class.dealii::Subscriptor", i32, i32, double* }
%"class.dealii::Vector.35" = type { %"class.dealii::Subscriptor", i32, i32, float* }
%"class.__gnu_cxx::__normal_iterator" = type { i32* }
%"class.dealii::internal::Triangulation::TriaObjects.85" = type <{ %"class.std::vector.86", %"class.std::vector.70", %"class.std::vector.92", %"class.std::vector.56", %"class.std::vector.56", %"class.std::vector.51", i32, i32, i8, [7 x i8], %"class.std::vector.97", i32, [4 x i8] }>
%"class.dealii::TriaIterator.172" = type { %"class.dealii::TriaRawIterator.173" }
%"class.dealii::TriaRawIterator.173" = type { %"class.dealii::MGDoFAccessor.40" }
%"class.dealii::internal::Triangulation::TriaObjects" = type <{ %"class.std::vector.65", %"class.std::vector.70", %"class.std::vector.75", %"class.std::vector.56", %"class.std::vector.56", %"class.std::vector.51", i32, i32, i8, [7 x i8], %"class.std::vector.80", i32, [4 x i8] }>
%"class.dealii::TriaIterator.178" = type { %"class.dealii::TriaRawIterator.179" }
%"class.dealii::TriaRawIterator.179" = type { %"class.dealii::CellAccessor" }
%"struct.std::iterator.168" = type { i8 }
%"class.std::basic_ostream" = type { i32 (...)**, %"class.std::basic_ios" }
%"class.std::basic_ios" = type { %"class.std::ios_base", %"class.std::basic_ostream"*, i8, i8, %"class.std::basic_streambuf"*, %"class.std::ctype"*, %"class.std::num_put"*, %"class.std::num_get"* }
%"class.std::ios_base" = type { i32 (...)**, i64, i64, i32, i32, i32, %"struct.std::ios_base::_Callback_list"*, %"struct.std::ios_base::_Words", [8 x %"struct.std::ios_base::_Words"], i32, %"struct.std::ios_base::_Words"*, %"class.std::locale" }
%"struct.std::ios_base::_Callback_list" = type { %"struct.std::ios_base::_Callback_list"*, void (i32, %"class.std::ios_base"*, i32)*, i32, i32 }
%"struct.std::ios_base::_Words" = type { i8*, i64 }
%"class.std::locale" = type { %"class.std::locale::_Impl"* }
%"class.std::locale::_Impl" = type { i32, %"class.std::locale::facet"**, i64, %"class.std::locale::facet"**, i8** }
%"class.std::locale::facet" = type <{ i32 (...)**, i32, [4 x i8] }>
%"class.std::basic_streambuf" = type { i32 (...)**, i8*, i8*, i8*, i8*, i8*, i8*, %"class.std::locale" }
%"class.std::ctype" = type <{ %"class.std::locale::facet.base", [4 x i8], %struct.__locale_struct*, i8, [7 x i8], i32*, i32*, i16*, i8, [256 x i8], [256 x i8], i8, [6 x i8] }>
%"class.std::locale::facet.base" = type <{ i32 (...)**, i32 }>
%struct.__locale_struct = type { [13 x %struct.__locale_data*], i16*, i32*, i32*, [13 x i8*] }
%struct.__locale_data = type opaque
%"class.std::num_put" = type { %"class.std::locale::facet.base", [4 x i8] }
%"class.std::num_get" = type { %"class.std::locale::facet.base", [4 x i8] }
%"class.dealii::ExceptionBase" = type <{ %"class.std::exception", i8*, i32, [4 x i8], i8*, i8*, i8*, i8**, i32, [4 x i8] }>
%"struct.std::_Bit_reference" = type { i64*, i64 }
%"struct.std::iterator.171" = type { i8 }
%"struct.std::iterator.177" = type { i8 }
%"class.dealii::MGDoFAccessor<1, 3, 3>::ExcInvalidObject" = type { %"class.dealii::ExceptionBase.base", [4 x i8] }
%"class.dealii::MGDoFAccessor<2, 3, 3>::ExcInvalidObject" = type { %"class.dealii::ExceptionBase.base", [4 x i8] }
%"class.dealii::MGDoFAccessor<3, 3, 3>::ExcInvalidObject" = type { %"class.dealii::ExceptionBase.base", [4 x i8] }
%"class.dealii::TriaRawIterator<dealii::MGDoFAccessor<1, 3> >::ExcAdvanceInvalidObject" = type { %"class.dealii::ExceptionBase.base", [4 x i8] }
%"class.dealii::TriaRawIterator<dealii::MGDoFAccessor<1, 3> >::ExcInvalidComparison" = type { %"class.dealii::ExceptionBase.base", [4 x i8] }
%"class.dealii::TriaIterator<dealii::MGDoFAccessor<1, 3> >::ExcAssignmentOfUnusedObject" = type { %"class.dealii::ExceptionBase.base", [4 x i8] }
%"class.dealii::TriaActiveIterator<dealii::MGDoFAccessor<1, 3> >::ExcAssignmentOfInactiveObject" = type { %"class.dealii::ExceptionBase.base", [4 x i8] }
%"class.dealii::TriaRawIterator<dealii::MGDoFAccessor<2, 3> >::ExcAdvanceInvalidObject" = type { %"class.dealii::ExceptionBase.base", [4 x i8] }
%"class.dealii::TriaRawIterator<dealii::MGDoFAccessor<2, 3> >::ExcInvalidComparison" = type { %"class.dealii::ExceptionBase.base", [4 x i8] }
%"class.dealii::TriaIterator<dealii::MGDoFAccessor<2, 3> >::ExcAssignmentOfUnusedObject" = type { %"class.dealii::ExceptionBase.base", [4 x i8] }
%"class.dealii::TriaActiveIterator<dealii::MGDoFAccessor<2, 3> >::ExcAssignmentOfInactiveObject" = type { %"class.dealii::ExceptionBase.base", [4 x i8] }
%"class.dealii::TriaRawIterator<dealii::MGDoFCellAccessor<3> >::ExcAdvanceInvalidObject" = type { %"class.dealii::ExceptionBase.base", [4 x i8] }
%"class.dealii::TriaRawIterator<dealii::MGDoFCellAccessor<3> >::ExcInvalidComparison" = type { %"class.dealii::ExceptionBase.base", [4 x i8] }
%"class.dealii::TriaIterator<dealii::MGDoFCellAccessor<3> >::ExcAssignmentOfUnusedObject" = type { %"class.dealii::ExceptionBase.base", [4 x i8] }
%"class.dealii::TriaActiveIterator<dealii::MGDoFCellAccessor<3> >::ExcAssignmentOfInactiveObject" = type { %"class.dealii::ExceptionBase.base", [4 x i8] }
%"struct.dealii::internal::int2type" = type { i8 }
%"struct.dealii::internal::int2type.185" = type { i8 }
%"struct.dealii::internal::int2type.186" = type { i8 }
%"class.dealii::TriaIterator.187" = type { %"class.dealii::TriaRawIterator.188" }
%"class.dealii::TriaRawIterator.188" = type { %"class.dealii::TriaAccessor" }
%"struct.std::iterator.189" = type { i8 }
%"struct.std::_Bit_const_iterator" = type { %"struct.std::_Bit_iterator_base.base", [4 x i8] }
%"struct.std::_Bit_iterator_base" = type <{ i64*, i32, [4 x i8] }>
%"struct.std::iterator" = type { i8 }
%"class.dealii::TriaIterator.192" = type { %"class.dealii::TriaRawIterator.193" }
%"class.dealii::TriaRawIterator.193" = type { %"class.dealii::TriaAccessor.38" }
%"struct.std::iterator.194" = type { i8 }
%"struct.std::iterator.174" = type { i8 }

$_ZN5boost3argILi1EEC2Ev = comdat any

$_ZN5boost3argILi2EEC2Ev = comdat any

$_ZN5boost3argILi3EEC2Ev = comdat any

$_ZN5boost3argILi4EEC2Ev = comdat any

$_ZN5boost3argILi5EEC2Ev = comdat any

$_ZN5boost3argILi6EEC2Ev = comdat any

$_ZN5boost3argILi7EEC2Ev = comdat any

$_ZN5boost3argILi8EEC2Ev = comdat any

$_ZN5boost3argILi9EEC2Ev = comdat any

$_ZNK6dealii13MGDoFAccessorILi1ELi3ELi3EE17get_mg_dof_valuesIdEEviRKNS_6VectorIT_EERS5_ = comdat any

$_ZN6dealii8internal13MGDoFAccessor17get_mg_dof_valuesILi3ELi3EdEEvRKNS_13MGDoFAccessorILi1EXT_EXT0_EEEiRKNS_6VectorIT1_EERS9_ = comdat any

$_ZNK6dealii13MGDoFAccessorILi1ELi3ELi3EE17get_mg_dof_valuesIfEEviRKNS_6VectorIT_EERS5_ = comdat any

$_ZN6dealii8internal13MGDoFAccessor17get_mg_dof_valuesILi3ELi3EfEEvRKNS_13MGDoFAccessorILi1EXT_EXT0_EEEiRKNS_6VectorIT1_EERS9_ = comdat any

$_ZNK6dealii13MGDoFAccessorILi2ELi3ELi3EE17get_mg_dof_valuesIdEEviRKNS_6VectorIT_EERS5_ = comdat any

$_ZN6dealii8internal13MGDoFAccessor17get_mg_dof_valuesILi3ELi3EdEEvRKNS_13MGDoFAccessorILi2EXT_EXT0_EEEiRKNS_6VectorIT1_EERS9_ = comdat any

$_ZNK6dealii13MGDoFAccessorILi2ELi3ELi3EE17get_mg_dof_valuesIfEEviRKNS_6VectorIT_EERS5_ = comdat any

$_ZN6dealii8internal13MGDoFAccessor17get_mg_dof_valuesILi3ELi3EfEEvRKNS_13MGDoFAccessorILi2EXT_EXT0_EEEiRKNS_6VectorIT1_EERS9_ = comdat any

$_ZNK6dealii13MGDoFAccessorILi3ELi3ELi3EE17get_mg_dof_valuesIdEEviRKNS_6VectorIT_EERS5_ = comdat any

$_ZN6dealii8internal13MGDoFAccessor17get_mg_dof_valuesILi3ELi3EdEEvRKNS_13MGDoFAccessorILi3EXT_EXT0_EEEiRKNS_6VectorIT1_EERS9_ = comdat any

$_ZNK6dealii13MGDoFAccessorILi3ELi3ELi3EE17get_mg_dof_valuesIfEEviRKNS_6VectorIT_EERS5_ = comdat any

$_ZN6dealii8internal13MGDoFAccessor17get_mg_dof_valuesILi3ELi3EfEEvRKNS_13MGDoFAccessorILi3EXT_EXT0_EEEiRKNS_6VectorIT1_EERS9_ = comdat any

$_ZNK6dealii17MGDoFCellAccessorILi3ELi3EE17get_mg_dof_valuesIdEEvRKNS_6VectorIT_EERS5_ = comdat any

$_ZNK6dealii16TriaAccessorBaseILi3ELi3ELi3EE5levelEv = comdat any

$_ZNK6dealii17MGDoFCellAccessorILi3ELi3EE17get_mg_dof_valuesIfEEvRKNS_6VectorIT_EERS5_ = comdat any

$_ZN6dealii13MGDoFAccessorILi1ELi3ELi3EEC5Ev = comdat any

$_ZN6dealii11DoFAccessorILi1ENS_10DoFHandlerILi3ELi3EEEEC2EPKNS_13TriangulationILi3ELi3EEEiiPKS2_ = comdat any

$_ZN6dealii13MGDoFAccessorILi1ELi3ELi3EEC5EPKNS_13TriangulationILi3ELi3EEEiiPKNS_12MGDoFHandlerILi3ELi3EEE = comdat any

$_ZNK6dealii13MGDoFAccessorILi1ELi3ELi3EE18get_mg_dof_indicesEiRSt6vectorIjSaIjEE = comdat any

$_ZN6dealii8internal13MGDoFAccessor18get_mg_dof_indicesILi3ELi3EEEvRKNS_13MGDoFAccessorILi1EXT_EXT0_EEEiRSt6vectorIjSaIjEE = comdat any

$_ZNK6dealii13MGDoFAccessorILi1ELi3ELi3EE19mg_vertex_dof_indexEijj = comdat any

$_ZNSt6vectorIN6dealii12MGDoFHandlerILi3ELi3EE12MGVertexDoFsESaIS3_EEixEm = comdat any

$_ZNK6dealii12TriaAccessorILi1ELi3ELi3EE12vertex_indexEj = comdat any

$_ZNK6dealii12MGDoFHandlerILi3ELi3EE12MGVertexDoFs9get_indexEjjj = comdat any

$_ZNK6dealii10DoFHandlerILi3ELi3EE6get_feEv = comdat any

$_ZNK6dealii13MGDoFAccessorILi1ELi3ELi3EE12mg_dof_indexEij = comdat any

$_ZNK6dealii13MGDoFAccessorILi1ELi3ELi3EE5childEj = comdat any

$_ZNK6dealii12TriaAccessorILi1ELi3ELi3EE11child_indexEj = comdat any

$_ZNK6dealii13MGDoFAccessorILi1ELi3ELi3EE4lineEj = comdat any

$_ZNK6dealii12TriaAccessorILi1ELi3ELi3EE10line_indexEj = comdat any

$_ZNK6dealii13MGDoFAccessorILi1ELi3ELi3EE4quadEj = comdat any

$_ZNK6dealii12TriaAccessorILi1ELi3ELi3EE10quad_indexEj = comdat any

$_ZN6dealii13MGDoFAccessorILi1ELi3ELi3EE9copy_fromERKS1_ = comdat any

$_ZN6dealii11DoFAccessorILi1ENS_10DoFHandlerILi3ELi3EEEE9copy_fromERKS3_ = comdat any

$_ZN6dealii13MGDoFAccessorILi1ELi3ELi3EE18set_mg_dof_handlerEPNS_12MGDoFHandlerILi3ELi3EEE = comdat any

$_ZNK6dealii13MGDoFAccessorILi1ELi3ELi3EE23set_mg_vertex_dof_indexEijjj = comdat any

$_ZN6dealii12MGDoFHandlerILi3ELi3EE12MGVertexDoFs9set_indexEjjjj = comdat any

$_ZNK6dealii13MGDoFAccessorILi1ELi3ELi3EE16set_mg_dof_indexEijj = comdat any

$_ZN6dealii13MGDoFAccessorILi1ELi3ELi3EEaSERKS1_ = comdat any

$_ZN6dealii11DoFAccessorILi1ENS_10DoFHandlerILi3ELi3EEEEaSERKS3_ = comdat any

$_ZN6dealii11DoFAccessorILi1ENS_10DoFHandlerILi3ELi3EEEE15set_dof_handlerEPS2_ = comdat any

$_ZN6dealii13MGDoFAccessorILi2ELi3ELi3EEC5Ev = comdat any

$_ZN6dealii11DoFAccessorILi2ENS_10DoFHandlerILi3ELi3EEEEC2EPKNS_13TriangulationILi3ELi3EEEiiPKS2_ = comdat any

$_ZN6dealii13MGDoFAccessorILi2ELi3ELi3EEC5EPKNS_13TriangulationILi3ELi3EEEiiPKNS_12MGDoFHandlerILi3ELi3EEE = comdat any

$_ZNK6dealii13MGDoFAccessorILi2ELi3ELi3EE18get_mg_dof_indicesEiRSt6vectorIjSaIjEE = comdat any

$_ZN6dealii8internal13MGDoFAccessor18get_mg_dof_indicesILi3ELi3EEEvRKNS_13MGDoFAccessorILi2EXT_EXT0_EEEiRSt6vectorIjSaIjEE = comdat any

$_ZNK6dealii13MGDoFAccessorILi2ELi3ELi3EE19mg_vertex_dof_indexEijj = comdat any

$_ZNK6dealii12TriaAccessorILi2ELi3ELi3EE12vertex_indexEj = comdat any

$_ZNK6dealii13MGDoFAccessorILi2ELi3ELi3EE12mg_dof_indexEij = comdat any

$_ZNK6dealii13MGDoFAccessorILi2ELi3ELi3EE5childEj = comdat any

$_ZNK6dealii12TriaAccessorILi2ELi3ELi3EE11child_indexEj = comdat any

$_ZNK6dealii13MGDoFAccessorILi2ELi3ELi3EE4lineEj = comdat any

$_ZNK6dealii12TriaAccessorILi2ELi3ELi3EE10line_indexEj = comdat any

$_ZNK6dealii13MGDoFAccessorILi2ELi3ELi3EE4quadEj = comdat any

$_ZNK6dealii12TriaAccessorILi2ELi3ELi3EE10quad_indexEj = comdat any

$_ZN6dealii13MGDoFAccessorILi2ELi3ELi3EE9copy_fromERKS1_ = comdat any

$_ZN6dealii11DoFAccessorILi2ENS_10DoFHandlerILi3ELi3EEEE9copy_fromERKS3_ = comdat any

$_ZN6dealii13MGDoFAccessorILi2ELi3ELi3EE18set_mg_dof_handlerEPNS_12MGDoFHandlerILi3ELi3EEE = comdat any

$_ZNK6dealii13MGDoFAccessorILi2ELi3ELi3EE23set_mg_vertex_dof_indexEijjj = comdat any

$_ZNK6dealii13MGDoFAccessorILi2ELi3ELi3EE16set_mg_dof_indexEijj = comdat any

$_ZN6dealii13MGDoFAccessorILi2ELi3ELi3EEaSERKS1_ = comdat any

$_ZN6dealii11DoFAccessorILi2ENS_10DoFHandlerILi3ELi3EEEEaSERKS3_ = comdat any

$_ZN6dealii11DoFAccessorILi2ENS_10DoFHandlerILi3ELi3EEEE15set_dof_handlerEPS2_ = comdat any

$_ZN6dealii13MGDoFAccessorILi3ELi3ELi3EEC5Ev = comdat any

$_ZN6dealii15DoFCellAccessorINS_10DoFHandlerILi3ELi3EEEEC2EPKNS_13TriangulationILi3ELi3EEEiiPKS2_ = comdat any

$_ZN6dealii13MGDoFAccessorILi3ELi3ELi3EEC5EPKNS_13TriangulationILi3ELi3EEEiiPKNS_12MGDoFHandlerILi3ELi3EEE = comdat any

$_ZNK6dealii13MGDoFAccessorILi3ELi3ELi3EE18get_mg_dof_indicesEiRSt6vectorIjSaIjEE = comdat any

$_ZN6dealii8internal13MGDoFAccessor18get_mg_dof_indicesILi3ELi3EEEvRKNS_13MGDoFAccessorILi3EXT_EXT0_EEEiRSt6vectorIjSaIjEE = comdat any

$_ZNK6dealii13MGDoFAccessorILi3ELi3ELi3EE19mg_vertex_dof_indexEijj = comdat any

$_ZNK6dealii12TriaAccessorILi3ELi3ELi3EE12vertex_indexEj = comdat any

$_ZNK6dealii13MGDoFAccessorILi3ELi3ELi3EE12mg_dof_indexEij = comdat any

$_ZNK6dealii13MGDoFAccessorILi3ELi3ELi3EE5childEj = comdat any

$_ZNK6dealii12TriaAccessorILi3ELi3ELi3EE11child_indexEj = comdat any

$_ZN6dealii12TriaIteratorINS_13MGDoFAccessorILi3ELi3ELi3EEEEC2EPKNS_13TriangulationILi3ELi3EEEiiPKNS_12MGDoFHandlerILi3ELi3EEE = comdat any

$_ZNK6dealii13MGDoFAccessorILi3ELi3ELi3EE4lineEj = comdat any

$_ZNK6dealii12TriaAccessorILi3ELi3ELi3EE10line_indexEj = comdat any

$_ZNK6dealii13MGDoFAccessorILi3ELi3ELi3EE4quadEj = comdat any

$_ZNK6dealii12TriaAccessorILi3ELi3ELi3EE10quad_indexEj = comdat any

$_ZN6dealii13MGDoFAccessorILi3ELi3ELi3EE9copy_fromERKS1_ = comdat any

$_ZN6dealii11DoFAccessorILi3ENS_10DoFHandlerILi3ELi3EEEE9copy_fromERKS3_ = comdat any

$_ZN6dealii13MGDoFAccessorILi3ELi3ELi3EE18set_mg_dof_handlerEPNS_12MGDoFHandlerILi3ELi3EEE = comdat any

$_ZNK6dealii13MGDoFAccessorILi3ELi3ELi3EE23set_mg_vertex_dof_indexEijjj = comdat any

$_ZNK6dealii13MGDoFAccessorILi3ELi3ELi3EE16set_mg_dof_indexEijj = comdat any

$_ZN6dealii13MGDoFAccessorILi3ELi3ELi3EEaSERKS1_ = comdat any

$_ZN6dealii15DoFCellAccessorINS_10DoFHandlerILi3ELi3EEEEaSERKS3_ = comdat any

$_ZN6dealii11DoFAccessorILi3ENS_10DoFHandlerILi3ELi3EEEE15set_dof_handlerEPS2_ = comdat any

$_ZN6dealii17MGDoFCellAccessorILi3ELi3EEC5EPKNS_13TriangulationILi3ELi3EEEiiPKNS_12MGDoFHandlerILi3ELi3EEE = comdat any

$_ZNK6dealii17MGDoFCellAccessorILi3ELi3EE18get_mg_dof_indicesERSt6vectorIjSaIjEE = comdat any

$_ZNK6dealii17MGDoFCellAccessorILi3ELi3EE8neighborEj = comdat any

$_ZNK6dealii12CellAccessorILi3ELi3EE14neighbor_levelEj = comdat any

$_ZNK6dealii12CellAccessorILi3ELi3EE14neighbor_indexEj = comdat any

$_ZNK6dealii17MGDoFCellAccessorILi3ELi3EE5childEj = comdat any

$_ZNK6dealii17MGDoFCellAccessorILi3ELi3EE4faceEj = comdat any

$_ZNK6dealii17MGDoFCellAccessorILi3ELi3EE25neighbor_child_on_subfaceEjj = comdat any

$_ZNK6dealii15TriaRawIteratorINS_12CellAccessorILi3ELi3EEEEptEv = comdat any

$_ZNK6dealii16TriaAccessorBaseILi3ELi3ELi3EE5indexEv = comdat any

$_ZN6dealii15TriaRawIteratorINS_13MGDoFAccessorILi1ELi3ELi3EEEEC5Ev = comdat any

$_ZN6dealii15TriaRawIteratorINS_13MGDoFAccessorILi1ELi3ELi3EEEEC5ERKS3_ = comdat any

$_ZN6dealii15TriaRawIteratorINS_13MGDoFAccessorILi1ELi3ELi3EEEEC5ERKS2_ = comdat any

$_ZN6dealii15TriaRawIteratorINS_13MGDoFAccessorILi1ELi3ELi3EEEEC5EPKNS_13TriangulationILi3ELi3EEEiiPKNS_12MGDoFHandlerILi3ELi3EEE = comdat any

$_ZNK6dealii15TriaRawIteratorINS_13MGDoFAccessorILi1ELi3ELi3EEEEdeEv = comdat any

$_ZN6dealii15TriaRawIteratorINS_13MGDoFAccessorILi1ELi3ELi3EEEEdeEv = comdat any

$_ZNK6dealii15TriaRawIteratorINS_13MGDoFAccessorILi1ELi3ELi3EEEEptEv = comdat any

$_ZN6dealii15TriaRawIteratorINS_13MGDoFAccessorILi1ELi3ELi3EEEEptEv = comdat any

$_ZN6dealii15TriaRawIteratorINS_13MGDoFAccessorILi1ELi3ELi3EEEEaSERKS3_ = comdat any

$_ZNK6dealii15TriaRawIteratorINS_13MGDoFAccessorILi1ELi3ELi3EEEEeqERKS3_ = comdat any

$_ZNK6dealii11DoFAccessorILi1ENS_10DoFHandlerILi3ELi3EEEEeqERKS3_ = comdat any

$_ZNK6dealii15TriaRawIteratorINS_13MGDoFAccessorILi1ELi3ELi3EEEEneERKS3_ = comdat any

$_ZNK6dealii11DoFAccessorILi1ENS_10DoFHandlerILi3ELi3EEEEneERKS3_ = comdat any

$_ZNK6dealii15TriaRawIteratorINS_13MGDoFAccessorILi1ELi3ELi3EEEEltERKS3_ = comdat any

$_ZNK6dealii16TriaAccessorBaseILi1ELi3ELi3EE5indexEv = comdat any

$_ZNK6dealii15TriaRawIteratorINS_13MGDoFAccessorILi1ELi3ELi3EEEE5stateEv = comdat any

$_ZN6dealii15TriaRawIteratorINS_13MGDoFAccessorILi1ELi3ELi3EEEEppEv = comdat any

$_ZN6dealii16TriaAccessorBaseILi1ELi3ELi3EEppEv = comdat any

$_ZN6dealii15TriaRawIteratorINS_13MGDoFAccessorILi1ELi3ELi3EEEEppEi = comdat any

$_ZN6dealii15TriaRawIteratorINS_13MGDoFAccessorILi1ELi3ELi3EEEEmmEv = comdat any

$_ZN6dealii16TriaAccessorBaseILi1ELi3ELi3EEmmEv = comdat any

$_ZN6dealii15TriaRawIteratorINS_13MGDoFAccessorILi1ELi3ELi3EEEEmmEi = comdat any

$_ZNK6dealii16TriaAccessorBaseILi1ELi3ELi3EE5stateEv = comdat any

$_ZNK6dealii15TriaRawIteratorINS_13MGDoFAccessorILi1ELi3ELi3EEEE5printERSo = comdat any

$_ZNK6dealii15TriaRawIteratorINS_13MGDoFAccessorILi1ELi3ELi3EEEE18memory_consumptionEv = comdat any

$_ZN6dealii15TriaRawIteratorINS_13MGDoFAccessorILi1ELi3ELi3EEEE25ExcDereferenceInvalidCellC5ES2_ = comdat any

$_ZN6dealii15TriaRawIteratorINS_13MGDoFAccessorILi1ELi3ELi3EEEE25ExcDereferenceInvalidCellD5Ev = comdat any

$_ZNK6dealii15TriaRawIteratorINS_13MGDoFAccessorILi1ELi3ELi3EEEE25ExcDereferenceInvalidCell10print_infoERSo = comdat any

$_ZN6dealii16TriaAccessorBaseILi1ELi3ELi3EE5levelEv = comdat any

$_ZN6dealii15TriaRawIteratorINS_13MGDoFAccessorILi1ELi3ELi3EEEE27ExcDereferenceInvalidObjectC5ES2_ = comdat any

$_ZN6dealii15TriaRawIteratorINS_13MGDoFAccessorILi1ELi3ELi3EEEE27ExcDereferenceInvalidObjectD5Ev = comdat any

$_ZNK6dealii15TriaRawIteratorINS_13MGDoFAccessorILi1ELi3ELi3EEEE27ExcDereferenceInvalidObject10print_infoERSo = comdat any

$_ZN6dealii12TriaIteratorINS_13MGDoFAccessorILi1ELi3ELi3EEEEC5Ev = comdat any

$_ZN6dealii12TriaIteratorINS_13MGDoFAccessorILi1ELi3ELi3EEEEC5ERKS3_ = comdat any

$_ZN6dealii12TriaIteratorINS_13MGDoFAccessorILi1ELi3ELi3EEEEC5ERKNS_15TriaRawIteratorIS2_EE = comdat any

$_ZN6dealii12TriaIteratorINS_13MGDoFAccessorILi1ELi3ELi3EEEEC5EPKNS_13TriangulationILi3ELi3EEEiiPKNS_12MGDoFHandlerILi3ELi3EEE = comdat any

$_ZN6dealii12TriaIteratorINS_13MGDoFAccessorILi1ELi3ELi3EEEEaSERKS3_ = comdat any

$_ZN6dealii12TriaIteratorINS_13MGDoFAccessorILi1ELi3ELi3EEEEaSERKNS_15TriaRawIteratorIS2_EE = comdat any

$_ZN6dealii12TriaIteratorINS_13MGDoFAccessorILi1ELi3ELi3EEEEppEv = comdat any

$_ZNK6dealii12TriaAccessorILi1ELi3ELi3EE4usedEv = comdat any

$_ZN6dealii12TriaIteratorINS_13MGDoFAccessorILi1ELi3ELi3EEEEppEi = comdat any

$_ZN6dealii12TriaIteratorINS_13MGDoFAccessorILi1ELi3ELi3EEEEmmEv = comdat any

$_ZN6dealii12TriaIteratorINS_13MGDoFAccessorILi1ELi3ELi3EEEEmmEi = comdat any

$_ZN6dealii18TriaActiveIteratorINS_13MGDoFAccessorILi1ELi3ELi3EEEEC5Ev = comdat any

$_ZN6dealii18TriaActiveIteratorINS_13MGDoFAccessorILi1ELi3ELi3EEEEC5ERKS3_ = comdat any

$_ZN6dealii12TriaIteratorINS_13MGDoFAccessorILi1ELi3ELi3EEEEC2IS2_EERKNS_18TriaActiveIteratorIT_EE = comdat any

$_ZN6dealii18TriaActiveIteratorINS_13MGDoFAccessorILi1ELi3ELi3EEEEC5ERKNS_15TriaRawIteratorIS2_EE = comdat any

$_ZN6dealii18TriaActiveIteratorINS_13MGDoFAccessorILi1ELi3ELi3EEEEC5ERKNS_12TriaIteratorIS2_EE = comdat any

$_ZN6dealii18TriaActiveIteratorINS_13MGDoFAccessorILi1ELi3ELi3EEEEC5EPKNS_13TriangulationILi3ELi3EEEiiPKNS_12MGDoFHandlerILi3ELi3EEE = comdat any

$_ZN6dealii18TriaActiveIteratorINS_13MGDoFAccessorILi1ELi3ELi3EEEEaSERKS3_ = comdat any

$_ZN6dealii18TriaActiveIteratorINS_13MGDoFAccessorILi1ELi3ELi3EEEEaSERKNS_15TriaRawIteratorIS2_EE = comdat any

$_ZN6dealii18TriaActiveIteratorINS_13MGDoFAccessorILi1ELi3ELi3EEEEaSERKNS_12TriaIteratorIS2_EE = comdat any

$_ZN6dealii18TriaActiveIteratorINS_13MGDoFAccessorILi1ELi3ELi3EEEEppEv = comdat any

$_ZNK6dealii12TriaAccessorILi1ELi3ELi3EE12has_childrenEv = comdat any

$_ZN6dealii18TriaActiveIteratorINS_13MGDoFAccessorILi1ELi3ELi3EEEEppEi = comdat any

$_ZN6dealii18TriaActiveIteratorINS_13MGDoFAccessorILi1ELi3ELi3EEEEmmEv = comdat any

$_ZN6dealii18TriaActiveIteratorINS_13MGDoFAccessorILi1ELi3ELi3EEEEmmEi = comdat any

$_ZN6dealii15TriaRawIteratorINS_13MGDoFAccessorILi2ELi3ELi3EEEEC5Ev = comdat any

$_ZN6dealii15TriaRawIteratorINS_13MGDoFAccessorILi2ELi3ELi3EEEEC5ERKS3_ = comdat any

$_ZN6dealii15TriaRawIteratorINS_13MGDoFAccessorILi2ELi3ELi3EEEEC5ERKS2_ = comdat any

$_ZN6dealii15TriaRawIteratorINS_13MGDoFAccessorILi2ELi3ELi3EEEEC5EPKNS_13TriangulationILi3ELi3EEEiiPKNS_12MGDoFHandlerILi3ELi3EEE = comdat any

$_ZNK6dealii15TriaRawIteratorINS_13MGDoFAccessorILi2ELi3ELi3EEEEdeEv = comdat any

$_ZN6dealii15TriaRawIteratorINS_13MGDoFAccessorILi2ELi3ELi3EEEEdeEv = comdat any

$_ZNK6dealii15TriaRawIteratorINS_13MGDoFAccessorILi2ELi3ELi3EEEEptEv = comdat any

$_ZN6dealii15TriaRawIteratorINS_13MGDoFAccessorILi2ELi3ELi3EEEEptEv = comdat any

$_ZN6dealii15TriaRawIteratorINS_13MGDoFAccessorILi2ELi3ELi3EEEEaSERKS3_ = comdat any

$_ZNK6dealii15TriaRawIteratorINS_13MGDoFAccessorILi2ELi3ELi3EEEEeqERKS3_ = comdat any

$_ZNK6dealii11DoFAccessorILi2ENS_10DoFHandlerILi3ELi3EEEEeqERKS3_ = comdat any

$_ZNK6dealii15TriaRawIteratorINS_13MGDoFAccessorILi2ELi3ELi3EEEEneERKS3_ = comdat any

$_ZNK6dealii11DoFAccessorILi2ENS_10DoFHandlerILi3ELi3EEEEneERKS3_ = comdat any

$_ZNK6dealii15TriaRawIteratorINS_13MGDoFAccessorILi2ELi3ELi3EEEEltERKS3_ = comdat any

$_ZNK6dealii16TriaAccessorBaseILi2ELi3ELi3EE5indexEv = comdat any

$_ZNK6dealii15TriaRawIteratorINS_13MGDoFAccessorILi2ELi3ELi3EEEE5stateEv = comdat any

$_ZN6dealii15TriaRawIteratorINS_13MGDoFAccessorILi2ELi3ELi3EEEEppEv = comdat any

$_ZN6dealii16TriaAccessorBaseILi2ELi3ELi3EEppEv = comdat any

$_ZN6dealii15TriaRawIteratorINS_13MGDoFAccessorILi2ELi3ELi3EEEEppEi = comdat any

$_ZN6dealii15TriaRawIteratorINS_13MGDoFAccessorILi2ELi3ELi3EEEEmmEv = comdat any

$_ZN6dealii16TriaAccessorBaseILi2ELi3ELi3EEmmEv = comdat any

$_ZN6dealii15TriaRawIteratorINS_13MGDoFAccessorILi2ELi3ELi3EEEEmmEi = comdat any

$_ZNK6dealii16TriaAccessorBaseILi2ELi3ELi3EE5stateEv = comdat any

$_ZNK6dealii15TriaRawIteratorINS_13MGDoFAccessorILi2ELi3ELi3EEEE5printERSo = comdat any

$_ZNK6dealii15TriaRawIteratorINS_13MGDoFAccessorILi2ELi3ELi3EEEE18memory_consumptionEv = comdat any

$_ZN6dealii15TriaRawIteratorINS_13MGDoFAccessorILi2ELi3ELi3EEEE25ExcDereferenceInvalidCellC5ES2_ = comdat any

$_ZN6dealii15TriaRawIteratorINS_13MGDoFAccessorILi2ELi3ELi3EEEE25ExcDereferenceInvalidCellD5Ev = comdat any

$_ZNK6dealii15TriaRawIteratorINS_13MGDoFAccessorILi2ELi3ELi3EEEE25ExcDereferenceInvalidCell10print_infoERSo = comdat any

$_ZN6dealii16TriaAccessorBaseILi2ELi3ELi3EE5levelEv = comdat any

$_ZN6dealii15TriaRawIteratorINS_13MGDoFAccessorILi2ELi3ELi3EEEE27ExcDereferenceInvalidObjectC5ES2_ = comdat any

$_ZN6dealii15TriaRawIteratorINS_13MGDoFAccessorILi2ELi3ELi3EEEE27ExcDereferenceInvalidObjectD5Ev = comdat any

$_ZNK6dealii15TriaRawIteratorINS_13MGDoFAccessorILi2ELi3ELi3EEEE27ExcDereferenceInvalidObject10print_infoERSo = comdat any

$_ZN6dealii12TriaIteratorINS_13MGDoFAccessorILi2ELi3ELi3EEEEC5Ev = comdat any

$_ZN6dealii12TriaIteratorINS_13MGDoFAccessorILi2ELi3ELi3EEEEC5ERKS3_ = comdat any

$_ZN6dealii12TriaIteratorINS_13MGDoFAccessorILi2ELi3ELi3EEEEC5ERKNS_15TriaRawIteratorIS2_EE = comdat any

$_ZN6dealii12TriaIteratorINS_13MGDoFAccessorILi2ELi3ELi3EEEEC5EPKNS_13TriangulationILi3ELi3EEEiiPKNS_12MGDoFHandlerILi3ELi3EEE = comdat any

$_ZN6dealii12TriaIteratorINS_13MGDoFAccessorILi2ELi3ELi3EEEEaSERKS3_ = comdat any

$_ZN6dealii12TriaIteratorINS_13MGDoFAccessorILi2ELi3ELi3EEEEaSERKNS_15TriaRawIteratorIS2_EE = comdat any

$_ZN6dealii12TriaIteratorINS_13MGDoFAccessorILi2ELi3ELi3EEEEppEv = comdat any

$_ZNK6dealii12TriaAccessorILi2ELi3ELi3EE4usedEv = comdat any

$_ZN6dealii12TriaIteratorINS_13MGDoFAccessorILi2ELi3ELi3EEEEppEi = comdat any

$_ZN6dealii12TriaIteratorINS_13MGDoFAccessorILi2ELi3ELi3EEEEmmEv = comdat any

$_ZN6dealii12TriaIteratorINS_13MGDoFAccessorILi2ELi3ELi3EEEEmmEi = comdat any

$_ZN6dealii18TriaActiveIteratorINS_13MGDoFAccessorILi2ELi3ELi3EEEEC5Ev = comdat any

$_ZN6dealii18TriaActiveIteratorINS_13MGDoFAccessorILi2ELi3ELi3EEEEC5ERKS3_ = comdat any

$_ZN6dealii12TriaIteratorINS_13MGDoFAccessorILi2ELi3ELi3EEEEC2IS2_EERKNS_18TriaActiveIteratorIT_EE = comdat any

$_ZN6dealii18TriaActiveIteratorINS_13MGDoFAccessorILi2ELi3ELi3EEEEC5ERKNS_15TriaRawIteratorIS2_EE = comdat any

$_ZN6dealii18TriaActiveIteratorINS_13MGDoFAccessorILi2ELi3ELi3EEEEC5ERKNS_12TriaIteratorIS2_EE = comdat any

$_ZN6dealii18TriaActiveIteratorINS_13MGDoFAccessorILi2ELi3ELi3EEEEC5EPKNS_13TriangulationILi3ELi3EEEiiPKNS_12MGDoFHandlerILi3ELi3EEE = comdat any

$_ZN6dealii18TriaActiveIteratorINS_13MGDoFAccessorILi2ELi3ELi3EEEEaSERKS3_ = comdat any

$_ZN6dealii18TriaActiveIteratorINS_13MGDoFAccessorILi2ELi3ELi3EEEEaSERKNS_15TriaRawIteratorIS2_EE = comdat any

$_ZN6dealii18TriaActiveIteratorINS_13MGDoFAccessorILi2ELi3ELi3EEEEaSERKNS_12TriaIteratorIS2_EE = comdat any

$_ZN6dealii18TriaActiveIteratorINS_13MGDoFAccessorILi2ELi3ELi3EEEEppEv = comdat any

$_ZNK6dealii12TriaAccessorILi2ELi3ELi3EE12has_childrenEv = comdat any

$_ZN6dealii18TriaActiveIteratorINS_13MGDoFAccessorILi2ELi3ELi3EEEEppEi = comdat any

$_ZN6dealii18TriaActiveIteratorINS_13MGDoFAccessorILi2ELi3ELi3EEEEmmEv = comdat any

$_ZN6dealii18TriaActiveIteratorINS_13MGDoFAccessorILi2ELi3ELi3EEEEmmEi = comdat any

$_ZN6dealii15TriaRawIteratorINS_17MGDoFCellAccessorILi3ELi3EEEEC5Ev = comdat any

$_ZN6dealii15TriaRawIteratorINS_17MGDoFCellAccessorILi3ELi3EEEEC5ERKS3_ = comdat any

$_ZN6dealii17MGDoFCellAccessorILi3ELi3EEC2ERKS1_ = comdat any

$_ZN6dealii15TriaRawIteratorINS_17MGDoFCellAccessorILi3ELi3EEEEC5ERKS2_ = comdat any

$_ZN6dealii15TriaRawIteratorINS_17MGDoFCellAccessorILi3ELi3EEEEC5EPKNS_13TriangulationILi3ELi3EEEiiPKNS_12MGDoFHandlerILi3ELi3EEE = comdat any

$_ZNK6dealii15TriaRawIteratorINS_17MGDoFCellAccessorILi3ELi3EEEEdeEv = comdat any

$_ZN6dealii15TriaRawIteratorINS_17MGDoFCellAccessorILi3ELi3EEEEdeEv = comdat any

$_ZNK6dealii15TriaRawIteratorINS_17MGDoFCellAccessorILi3ELi3EEEEptEv = comdat any

$_ZN6dealii15TriaRawIteratorINS_17MGDoFCellAccessorILi3ELi3EEEEptEv = comdat any

$_ZN6dealii15TriaRawIteratorINS_17MGDoFCellAccessorILi3ELi3EEEEaSERKS3_ = comdat any

$_ZNK6dealii15TriaRawIteratorINS_17MGDoFCellAccessorILi3ELi3EEEEeqERKS3_ = comdat any

$_ZNK6dealii11DoFAccessorILi3ENS_10DoFHandlerILi3ELi3EEEEeqERKS3_ = comdat any

$_ZNK6dealii15TriaRawIteratorINS_17MGDoFCellAccessorILi3ELi3EEEEneERKS3_ = comdat any

$_ZNK6dealii11DoFAccessorILi3ENS_10DoFHandlerILi3ELi3EEEEneERKS3_ = comdat any

$_ZNK6dealii15TriaRawIteratorINS_17MGDoFCellAccessorILi3ELi3EEEEltERKS3_ = comdat any

$_ZNK6dealii15TriaRawIteratorINS_17MGDoFCellAccessorILi3ELi3EEEE5stateEv = comdat any

$_ZN6dealii15TriaRawIteratorINS_17MGDoFCellAccessorILi3ELi3EEEEppEv = comdat any

$_ZN6dealii16TriaAccessorBaseILi3ELi3ELi3EEppEv = comdat any

$_ZN6dealii15TriaRawIteratorINS_17MGDoFCellAccessorILi3ELi3EEEEppEi = comdat any

$_ZN6dealii15TriaRawIteratorINS_17MGDoFCellAccessorILi3ELi3EEEEmmEv = comdat any

$_ZN6dealii16TriaAccessorBaseILi3ELi3ELi3EEmmEv = comdat any

$_ZN6dealii15TriaRawIteratorINS_17MGDoFCellAccessorILi3ELi3EEEEmmEi = comdat any

$_ZNK6dealii16TriaAccessorBaseILi3ELi3ELi3EE5stateEv = comdat any

$_ZNK6dealii15TriaRawIteratorINS_17MGDoFCellAccessorILi3ELi3EEEE5printERSo = comdat any

$_ZNK6dealii15TriaRawIteratorINS_17MGDoFCellAccessorILi3ELi3EEEE18memory_consumptionEv = comdat any

$_ZN6dealii15TriaRawIteratorINS_17MGDoFCellAccessorILi3ELi3EEEE25ExcDereferenceInvalidCellC5ES2_ = comdat any

$_ZN6dealii15TriaRawIteratorINS_17MGDoFCellAccessorILi3ELi3EEEE25ExcDereferenceInvalidCellD5Ev = comdat any

$_ZNK6dealii15TriaRawIteratorINS_17MGDoFCellAccessorILi3ELi3EEEE25ExcDereferenceInvalidCell10print_infoERSo = comdat any

$_ZN6dealii15TriaRawIteratorINS_17MGDoFCellAccessorILi3ELi3EEEE27ExcDereferenceInvalidObjectC5ES2_ = comdat any

$_ZN6dealii15TriaRawIteratorINS_17MGDoFCellAccessorILi3ELi3EEEE27ExcDereferenceInvalidObjectD5Ev = comdat any

$_ZNK6dealii15TriaRawIteratorINS_17MGDoFCellAccessorILi3ELi3EEEE27ExcDereferenceInvalidObject10print_infoERSo = comdat any

$_ZN6dealii12TriaIteratorINS_17MGDoFCellAccessorILi3ELi3EEEEC5Ev = comdat any

$_ZN6dealii12TriaIteratorINS_17MGDoFCellAccessorILi3ELi3EEEEC5ERKS3_ = comdat any

$_ZN6dealii12TriaIteratorINS_17MGDoFCellAccessorILi3ELi3EEEEC5ERKNS_15TriaRawIteratorIS2_EE = comdat any

$_ZN6dealii12TriaIteratorINS_17MGDoFCellAccessorILi3ELi3EEEEC5EPKNS_13TriangulationILi3ELi3EEEiiPKNS_12MGDoFHandlerILi3ELi3EEE = comdat any

$_ZN6dealii12TriaIteratorINS_17MGDoFCellAccessorILi3ELi3EEEEaSERKS3_ = comdat any

$_ZN6dealii12TriaIteratorINS_17MGDoFCellAccessorILi3ELi3EEEEaSERKNS_15TriaRawIteratorIS2_EE = comdat any

$_ZN6dealii12TriaIteratorINS_17MGDoFCellAccessorILi3ELi3EEEEppEv = comdat any

$_ZNK6dealii12TriaAccessorILi3ELi3ELi3EE4usedEv = comdat any

$_ZN6dealii12TriaIteratorINS_17MGDoFCellAccessorILi3ELi3EEEEppEi = comdat any

$_ZN6dealii12TriaIteratorINS_17MGDoFCellAccessorILi3ELi3EEEEmmEv = comdat any

$_ZN6dealii12TriaIteratorINS_17MGDoFCellAccessorILi3ELi3EEEEmmEi = comdat any

$_ZN6dealii18TriaActiveIteratorINS_17MGDoFCellAccessorILi3ELi3EEEEC5Ev = comdat any

$_ZN6dealii18TriaActiveIteratorINS_17MGDoFCellAccessorILi3ELi3EEEEC5ERKS3_ = comdat any

$_ZN6dealii12TriaIteratorINS_17MGDoFCellAccessorILi3ELi3EEEEC2IS2_EERKNS_18TriaActiveIteratorIT_EE = comdat any

$_ZN6dealii18TriaActiveIteratorINS_17MGDoFCellAccessorILi3ELi3EEEEC5ERKNS_15TriaRawIteratorIS2_EE = comdat any

$_ZN6dealii18TriaActiveIteratorINS_17MGDoFCellAccessorILi3ELi3EEEEC5ERKNS_12TriaIteratorIS2_EE = comdat any

$_ZN6dealii18TriaActiveIteratorINS_17MGDoFCellAccessorILi3ELi3EEEEC5EPKNS_13TriangulationILi3ELi3EEEiiPKNS_12MGDoFHandlerILi3ELi3EEE = comdat any

$_ZN6dealii18TriaActiveIteratorINS_17MGDoFCellAccessorILi3ELi3EEEEaSERKS3_ = comdat any

$_ZN6dealii18TriaActiveIteratorINS_17MGDoFCellAccessorILi3ELi3EEEEaSERKNS_15TriaRawIteratorIS2_EE = comdat any

$_ZN6dealii18TriaActiveIteratorINS_17MGDoFCellAccessorILi3ELi3EEEEaSERKNS_12TriaIteratorIS2_EE = comdat any

$_ZN6dealii18TriaActiveIteratorINS_17MGDoFCellAccessorILi3ELi3EEEEppEv = comdat any

$_ZNK6dealii12TriaAccessorILi3ELi3ELi3EE12has_childrenEv = comdat any

$_ZN6dealii18TriaActiveIteratorINS_17MGDoFCellAccessorILi3ELi3EEEEppEi = comdat any

$_ZN6dealii18TriaActiveIteratorINS_17MGDoFCellAccessorILi3ELi3EEEEmmEv = comdat any

$_ZN6dealii18TriaActiveIteratorINS_17MGDoFCellAccessorILi3ELi3EEEEmmEi = comdat any

$_ZN6dealii13MGDoFAccessorILi1ELi3ELi3EE16ExcInvalidObjectD2Ev = comdat any

$_ZN6dealii13MGDoFAccessorILi1ELi3ELi3EE16ExcInvalidObjectD0Ev = comdat any

$_ZN6dealii13MGDoFAccessorILi2ELi3ELi3EE16ExcInvalidObjectD2Ev = comdat any

$_ZN6dealii13MGDoFAccessorILi2ELi3ELi3EE16ExcInvalidObjectD0Ev = comdat any

$_ZN6dealii13MGDoFAccessorILi3ELi3ELi3EE16ExcInvalidObjectD2Ev = comdat any

$_ZN6dealii13MGDoFAccessorILi3ELi3ELi3EE16ExcInvalidObjectD0Ev = comdat any

$_ZN6dealii15TriaRawIteratorINS_13MGDoFAccessorILi1ELi3ELi3EEEE23ExcAdvanceInvalidObjectD2Ev = comdat any

$_ZN6dealii15TriaRawIteratorINS_13MGDoFAccessorILi1ELi3ELi3EEEE23ExcAdvanceInvalidObjectD0Ev = comdat any

$_ZN6dealii15TriaRawIteratorINS_13MGDoFAccessorILi1ELi3ELi3EEEE20ExcInvalidComparisonD2Ev = comdat any

$_ZN6dealii15TriaRawIteratorINS_13MGDoFAccessorILi1ELi3ELi3EEEE20ExcInvalidComparisonD0Ev = comdat any

$_ZN6dealii12TriaIteratorINS_13MGDoFAccessorILi1ELi3ELi3EEEE27ExcAssignmentOfUnusedObjectD2Ev = comdat any

$_ZN6dealii12TriaIteratorINS_13MGDoFAccessorILi1ELi3ELi3EEEE27ExcAssignmentOfUnusedObjectD0Ev = comdat any

$_ZN6dealii18TriaActiveIteratorINS_13MGDoFAccessorILi1ELi3ELi3EEEE29ExcAssignmentOfInactiveObjectD2Ev = comdat any

$_ZN6dealii18TriaActiveIteratorINS_13MGDoFAccessorILi1ELi3ELi3EEEE29ExcAssignmentOfInactiveObjectD0Ev = comdat any

$_ZN6dealii15TriaRawIteratorINS_13MGDoFAccessorILi2ELi3ELi3EEEE23ExcAdvanceInvalidObjectD2Ev = comdat any

$_ZN6dealii15TriaRawIteratorINS_13MGDoFAccessorILi2ELi3ELi3EEEE23ExcAdvanceInvalidObjectD0Ev = comdat any

$_ZN6dealii15TriaRawIteratorINS_13MGDoFAccessorILi2ELi3ELi3EEEE20ExcInvalidComparisonD2Ev = comdat any

$_ZN6dealii15TriaRawIteratorINS_13MGDoFAccessorILi2ELi3ELi3EEEE20ExcInvalidComparisonD0Ev = comdat any

$_ZN6dealii12TriaIteratorINS_13MGDoFAccessorILi2ELi3ELi3EEEE27ExcAssignmentOfUnusedObjectD2Ev = comdat any

$_ZN6dealii12TriaIteratorINS_13MGDoFAccessorILi2ELi3ELi3EEEE27ExcAssignmentOfUnusedObjectD0Ev = comdat any

$_ZN6dealii18TriaActiveIteratorINS_13MGDoFAccessorILi2ELi3ELi3EEEE29ExcAssignmentOfInactiveObjectD2Ev = comdat any

$_ZN6dealii18TriaActiveIteratorINS_13MGDoFAccessorILi2ELi3ELi3EEEE29ExcAssignmentOfInactiveObjectD0Ev = comdat any

$_ZN6dealii15TriaRawIteratorINS_17MGDoFCellAccessorILi3ELi3EEEE23ExcAdvanceInvalidObjectD2Ev = comdat any

$_ZN6dealii15TriaRawIteratorINS_17MGDoFCellAccessorILi3ELi3EEEE23ExcAdvanceInvalidObjectD0Ev = comdat any

$_ZN6dealii15TriaRawIteratorINS_17MGDoFCellAccessorILi3ELi3EEEE20ExcInvalidComparisonD2Ev = comdat any

$_ZN6dealii15TriaRawIteratorINS_17MGDoFCellAccessorILi3ELi3EEEE20ExcInvalidComparisonD0Ev = comdat any

$_ZN6dealii12TriaIteratorINS_17MGDoFCellAccessorILi3ELi3EEEE27ExcAssignmentOfUnusedObjectD2Ev = comdat any

$_ZN6dealii12TriaIteratorINS_17MGDoFCellAccessorILi3ELi3EEEE27ExcAssignmentOfUnusedObjectD0Ev = comdat any

$_ZN6dealii18TriaActiveIteratorINS_17MGDoFCellAccessorILi3ELi3EEEE29ExcAssignmentOfInactiveObjectD2Ev = comdat any

$_ZN6dealii18TriaActiveIteratorINS_17MGDoFCellAccessorILi3ELi3EEEE29ExcAssignmentOfInactiveObjectD0Ev = comdat any

$_ZN6dealii11DoFAccessorILi3ENS_10DoFHandlerILi3ELi3EEEEaSERKS3_ = comdat any

$_ZN6dealii13MGDoFAccessorILi3ELi3ELi3EEC2ERKS1_ = comdat any

$_ZN6dealii15DoFCellAccessorINS_10DoFHandlerILi3ELi3EEEEC2ERKS3_ = comdat any

$_ZN6dealii11DoFAccessorILi3ENS_10DoFHandlerILi3ELi3EEEEC2ERKS3_ = comdat any

$_ZN6dealii12CellAccessorILi3ELi3EEC2ERKS1_ = comdat any

$_ZNK6dealii16TriaAccessorBaseILi2ELi3ELi3EE7objectsEv = comdat any

$_ZNSt6vectorIiSaIiEEixEm = comdat any

$_ZN6dealii8internal16TriaAccessorBase11get_objectsILi3EEERNS0_13Triangulation11TriaObjectsINS3_10TriaObjectILi2EEEEEPNS3_9TriaFacesIXT_EEENS0_8int2typeILi2EEE = comdat any

$_ZNK6dealii11DoFAccessorILi1ENS_10DoFHandlerILi3ELi3EEEE15get_dof_handlerEv = comdat any

$_ZN6dealii6VectorIdE5beginEv = comdat any

$_ZNK6dealii6VectorIdEclEj = comdat any

$_ZN6dealii6VectorIfE5beginEv = comdat any

$_ZNK6dealii6VectorIfEclEj = comdat any

$_ZNK6dealii11DoFAccessorILi2ENS_10DoFHandlerILi3ELi3EEEE15get_dof_handlerEv = comdat any

$_ZNK6dealii11DoFAccessorILi3ENS_10DoFHandlerILi3ELi3EEEE15get_dof_handlerEv = comdat any

$_ZNK6dealii11DoFAccessorILi3ENS_10DoFHandlerILi3ELi3EEEE9dof_indexEjj = comdat any

$_ZN6dealii8internal11DoFAccessor14Implementation13get_dof_indexILi3EEEjRKNS_10DoFHandlerILi3EXT_EEEjjjjNS0_8int2typeILi3EEE = comdat any

$_ZNKSt6vectorIPN6dealii8internal10DoFHandler8DoFLevelILi3EEESaIS5_EEixEm = comdat any

$_ZNK6dealii8internal10DoFHandler10DoFObjectsILi3EE13get_dof_indexILi3ELi3EEEjRKNS_10DoFHandlerIXT_EXT0_EEEjjj = comdat any

$_ZNKSt6vectorIjSaIjEEixEm = comdat any

$_ZNK6dealii17FiniteElementDataILi3EE17n_dofs_per_objectILi3EEEjv = comdat any

$_ZN6dealii16TriaAccessorBaseILi1ELi3ELi3EEC2EPKNS_13TriangulationILi3ELi3EEEiiPKv = comdat any

$_ZNSt6vectorIjSaIjEE5beginEv = comdat any

$_ZN9__gnu_cxx17__normal_iteratorIPjSt6vectorIjSaIjEEEppEi = comdat any

$_ZNK9__gnu_cxx17__normal_iteratorIPjSt6vectorIjSaIjEEEdeEv = comdat any

$_ZN9__gnu_cxx17__normal_iteratorIPjSt6vectorIjSaIjEEEC2ERKS1_ = comdat any

$_ZN6dealii8internal12TriaAccessor14Implementation12vertex_indexILi3ELi3EEEjRKNS_12TriaAccessorILi1EXT_EXT0_EEEj = comdat any

$_ZNK6dealii16TriaAccessorBaseILi1ELi3ELi3EE7objectsEv = comdat any

$_ZNSt6vectorIN6dealii8internal13Triangulation10TriaObjectILi1EEESaIS4_EEixEm = comdat any

$_ZNK6dealii8internal13Triangulation10TriaObjectILi1EE4faceEj = comdat any

$_ZN6dealii8internal16TriaAccessorBase11get_objectsILi3EEERNS0_13Triangulation11TriaObjectsINS3_10TriaObjectILi1EEEEEPNS3_9TriaFacesIXT_EEENS0_8int2typeILi1EEE = comdat any

$_ZNK6dealii12SmartPointerIKNS_13FiniteElementILi3ELi3EEEEdeEv = comdat any

$_ZN6dealii8internal12TriaAccessor14Implementation10line_indexILi3ELi3EEEjRKNS_12TriaAccessorILi1EXT_EXT0_EEEj = comdat any

$_ZN6dealii8internal12TriaAccessor14Implementation10quad_indexILi1ELi3ELi3EEEjRKNS_12TriaAccessorIXT_EXT0_EXT1_EEEj = comdat any

$_ZN6dealii16TriaAccessorBaseILi1ELi3ELi3EE9copy_fromERKS1_ = comdat any

$_ZN6dealii16TriaAccessorBaseILi2ELi3ELi3EEC2EPKNS_13TriangulationILi3ELi3EEEiiPKv = comdat any

$_ZN6dealii8internal12TriaAccessor14Implementation12vertex_indexILi3ELi3EEEjRKNS_12TriaAccessorILi2EXT_EXT0_EEEj = comdat any

$_ZNK6dealii12TriaAccessorILi2ELi3ELi3EE4lineEj = comdat any

$_ZN6dealii15TriaRawIteratorINS_12TriaAccessorILi1ELi3ELi3EEEEptEv = comdat any

$_ZNK6dealii12TriaAccessorILi2ELi3ELi3EE16line_orientationEj = comdat any

$_ZN6dealii12TriaIteratorINS_12TriaAccessorILi1ELi3ELi3EEEEC2EPKNS_13TriangulationILi3ELi3EEEiiPKv = comdat any

$_ZN6dealii15TriaRawIteratorINS_12TriaAccessorILi1ELi3ELi3EEEEC2EPKNS_13TriangulationILi3ELi3EEEiiPKv = comdat any

$_ZN6dealii12TriaAccessorILi1ELi3ELi3EEC2EPKNS_13TriangulationILi3ELi3EEEiiPKv = comdat any

$_ZN6dealii15TriaRawIteratorINS_12TriaAccessorILi1ELi3ELi3EEEEdeEv = comdat any

$_ZN6dealii8internal12TriaAccessor14Implementation16line_orientationILi3EEEbRKNS_12TriaAccessorILi2ELi3EXT_EEEj = comdat any

$_ZNK6dealii8internal13Triangulation17TriaObjectsQuad3D16face_orientationEjj = comdat any

$_ZNKSt6vectorIbSaIbEEixEm = comdat any

$_ZNSt19_Bit_const_iteratorC2EPmj = comdat any

$_ZNKSt19_Bit_const_iteratordeEv = comdat any

$_ZNSt18_Bit_iterator_baseC2EPmj = comdat any

$_ZNSt14_Bit_referenceC2EPmm = comdat any

$_ZNKSt14_Bit_referencecvbEv = comdat any

$_ZN6dealii8internal12TriaAccessor14Implementation10line_indexILi3ELi3EEEjRKNS_12TriaAccessorILi2EXT_EXT0_EEEj = comdat any

$_ZNSt6vectorIN6dealii8internal13Triangulation10TriaObjectILi2EEESaIS4_EEixEm = comdat any

$_ZNK6dealii8internal13Triangulation10TriaObjectILi2EE4faceEj = comdat any

$_ZN6dealii8internal12TriaAccessor14Implementation10quad_indexILi2ELi3ELi3EEEjRKNS_12TriaAccessorIXT_EXT0_EXT1_EEEj = comdat any

$_ZN6dealii16TriaAccessorBaseILi2ELi3ELi3EE9copy_fromERKS1_ = comdat any

$_ZN6dealii11DoFAccessorILi3ENS_10DoFHandlerILi3ELi3EEEEC2EPKNS_13TriangulationILi3ELi3EEEiiPKS2_ = comdat any

$_ZN6dealii12CellAccessorILi3ELi3EEC2EPKNS_13TriangulationILi3ELi3EEEiiPKv = comdat any

$_ZN6dealii12TriaAccessorILi3ELi3ELi3EEC2EPKNS_13TriangulationILi3ELi3EEEiiPKv = comdat any

$_ZN6dealii16TriaAccessorBaseILi3ELi3ELi3EEC2EPKNS_13TriangulationILi3ELi3EEEiiPKv = comdat any

$_ZN6dealii8internal12TriaAccessor14Implementation12vertex_indexILi3ELi3EEEjRKNS_12TriaAccessorILi3EXT_EXT0_EEEj = comdat any

$_ZNK6dealii12TriaAccessorILi3ELi3ELi3EE4quadEj = comdat any

$_ZN6dealii15TriaRawIteratorINS_12TriaAccessorILi2ELi3ELi3EEEEptEv = comdat any

$_ZNK6dealii12TriaAccessorILi3ELi3ELi3EE16face_orientationEj = comdat any

$_ZNK6dealii12TriaAccessorILi3ELi3ELi3EE9face_flipEj = comdat any

$_ZNK6dealii12TriaAccessorILi3ELi3ELi3EE13face_rotationEj = comdat any

$_ZN6dealii12TriaIteratorINS_12TriaAccessorILi2ELi3ELi3EEEEC2EPKNS_13TriangulationILi3ELi3EEEiiPKv = comdat any

$_ZN6dealii15TriaRawIteratorINS_12TriaAccessorILi2ELi3ELi3EEEEC2EPKNS_13TriangulationILi3ELi3EEEiiPKv = comdat any

$_ZN6dealii12TriaAccessorILi2ELi3ELi3EEC2EPKNS_13TriangulationILi3ELi3EEEiiPKv = comdat any

$_ZN6dealii15TriaRawIteratorINS_12TriaAccessorILi2ELi3ELi3EEEEdeEv = comdat any

$_ZN6dealii8internal12TriaAccessor14Implementation16face_orientationILi3ELi3EEEbRKNS_12TriaAccessorILi3EXT_EXT0_EEEj = comdat any

$_ZNKSt6vectorIPN6dealii8internal13Triangulation9TriaLevelILi3EEESaIS5_EEixEm = comdat any

$_ZNK6dealii8internal13Triangulation14TriaObjectsHex16face_orientationEjj = comdat any

$_ZN6dealii8internal12TriaAccessor14Implementation9face_flipILi3ELi3EEEbRKNS_12TriaAccessorILi3EXT_EXT0_EEEj = comdat any

$_ZNSt6vectorIbSaIbEEixEm = comdat any

$_ZNSt13_Bit_iteratorC2EPmj = comdat any

$_ZNKSt13_Bit_iteratordeEv = comdat any

$_ZN6dealii8internal12TriaAccessor14Implementation13face_rotationILi3ELi3EEEbRKNS_12TriaAccessorILi3EXT_EXT0_EEEj = comdat any

$_ZNK6dealii16TriaAccessorBaseILi3ELi3ELi3EE7objectsEv = comdat any

$_ZN6dealii15TriaRawIteratorINS_13MGDoFAccessorILi3ELi3ELi3EEEEC2EPKNS_13TriangulationILi3ELi3EEEiiPKNS_12MGDoFHandlerILi3ELi3EEE = comdat any

$_ZN6dealii8internal12TriaAccessor14Implementation10line_indexILi3ELi3EEEjRKNS_12TriaAccessorILi3EXT_EXT0_EEEj = comdat any

$_ZN6dealii8internal12TriaAccessor14Implementation10quad_indexILi3ELi3EEEjRKNS_12TriaAccessorILi3EXT_EXT0_EEEj = comdat any

$_ZNSt6vectorIN6dealii8internal13Triangulation10TriaObjectILi3EEESaIS4_EEixEm = comdat any

$_ZNK6dealii8internal13Triangulation10TriaObjectILi3EE4faceEj = comdat any

$_ZN6dealii16TriaAccessorBaseILi3ELi3ELi3EE9copy_fromERKS1_ = comdat any

$_ZNSt6vectorISt4pairIiiESaIS1_EEixEm = comdat any

$_ZNK6dealii15TriaRawIteratorINS_12CellAccessorILi3ELi3EEEEdeEv = comdat any

$_ZNK6dealii16TriaAccessorBaseILi1ELi3ELi3EEeqERKS1_ = comdat any

$_ZNK6dealii16TriaAccessorBaseILi1ELi3ELi3EEneERKS1_ = comdat any

$_ZNKSt6vectorIN6dealii8internal13Triangulation10TriaObjectILi1EEESaIS4_EE4sizeEv = comdat any

$_ZNK6dealii16TriaAccessorBaseILi2ELi3ELi3EEeqERKS1_ = comdat any

$_ZNK6dealii16TriaAccessorBaseILi2ELi3ELi3EEneERKS1_ = comdat any

$_ZNKSt6vectorIN6dealii8internal13Triangulation10TriaObjectILi2EEESaIS4_EE4sizeEv = comdat any

$_ZNK6dealii16TriaAccessorBaseILi3ELi3ELi3EEeqERKS1_ = comdat any

$_ZNK6dealii16TriaAccessorBaseILi3ELi3ELi3EEneERKS1_ = comdat any

$_ZNKSt6vectorIN6dealii8internal13Triangulation10TriaObjectILi3EEESaIS4_EE4sizeEv = comdat any

$_ZNKSt6vectorIPN6dealii8internal13Triangulation9TriaLevelILi3EEESaIS5_EE4sizeEv = comdat any

$_ZTVN6dealii15TriaRawIteratorINS_13MGDoFAccessorILi1ELi3ELi3EEEE25ExcDereferenceInvalidCellE = comdat any

$_ZTVN6dealii15TriaRawIteratorINS_13MGDoFAccessorILi1ELi3ELi3EEEE27ExcDereferenceInvalidObjectE = comdat any

$_ZTVN6dealii15TriaRawIteratorINS_13MGDoFAccessorILi2ELi3ELi3EEEE25ExcDereferenceInvalidCellE = comdat any

$_ZTVN6dealii15TriaRawIteratorINS_13MGDoFAccessorILi2ELi3ELi3EEEE27ExcDereferenceInvalidObjectE = comdat any

$_ZTVN6dealii15TriaRawIteratorINS_17MGDoFCellAccessorILi3ELi3EEEE25ExcDereferenceInvalidCellE = comdat any

$_ZTVN6dealii15TriaRawIteratorINS_17MGDoFCellAccessorILi3ELi3EEEE27ExcDereferenceInvalidObjectE = comdat any

$_ZTVN6dealii13MGDoFAccessorILi1ELi3ELi3EE16ExcInvalidObjectE = comdat any

$_ZTSN6dealii13MGDoFAccessorILi1ELi3ELi3EE16ExcInvalidObjectE = comdat any

$_ZTIN6dealii13MGDoFAccessorILi1ELi3ELi3EE16ExcInvalidObjectE = comdat any

$_ZTVN6dealii13MGDoFAccessorILi2ELi3ELi3EE16ExcInvalidObjectE = comdat any

$_ZTSN6dealii13MGDoFAccessorILi2ELi3ELi3EE16ExcInvalidObjectE = comdat any

$_ZTIN6dealii13MGDoFAccessorILi2ELi3ELi3EE16ExcInvalidObjectE = comdat any

$_ZTVN6dealii13MGDoFAccessorILi3ELi3ELi3EE16ExcInvalidObjectE = comdat any

$_ZTSN6dealii13MGDoFAccessorILi3ELi3ELi3EE16ExcInvalidObjectE = comdat any

$_ZTIN6dealii13MGDoFAccessorILi3ELi3ELi3EE16ExcInvalidObjectE = comdat any

$_ZTSN6dealii15TriaRawIteratorINS_13MGDoFAccessorILi1ELi3ELi3EEEE25ExcDereferenceInvalidCellE = comdat any

$_ZTIN6dealii15TriaRawIteratorINS_13MGDoFAccessorILi1ELi3ELi3EEEE25ExcDereferenceInvalidCellE = comdat any

$_ZTSN6dealii15TriaRawIteratorINS_13MGDoFAccessorILi1ELi3ELi3EEEE27ExcDereferenceInvalidObjectE = comdat any

$_ZTIN6dealii15TriaRawIteratorINS_13MGDoFAccessorILi1ELi3ELi3EEEE27ExcDereferenceInvalidObjectE = comdat any

$_ZTVN6dealii15TriaRawIteratorINS_13MGDoFAccessorILi1ELi3ELi3EEEE23ExcAdvanceInvalidObjectE = comdat any

$_ZTSN6dealii15TriaRawIteratorINS_13MGDoFAccessorILi1ELi3ELi3EEEE23ExcAdvanceInvalidObjectE = comdat any

$_ZTIN6dealii15TriaRawIteratorINS_13MGDoFAccessorILi1ELi3ELi3EEEE23ExcAdvanceInvalidObjectE = comdat any

$_ZTVN6dealii15TriaRawIteratorINS_13MGDoFAccessorILi1ELi3ELi3EEEE20ExcInvalidComparisonE = comdat any

$_ZTSN6dealii15TriaRawIteratorINS_13MGDoFAccessorILi1ELi3ELi3EEEE20ExcInvalidComparisonE = comdat any

$_ZTIN6dealii15TriaRawIteratorINS_13MGDoFAccessorILi1ELi3ELi3EEEE20ExcInvalidComparisonE = comdat any

$_ZTVN6dealii12TriaIteratorINS_13MGDoFAccessorILi1ELi3ELi3EEEE27ExcAssignmentOfUnusedObjectE = comdat any

$_ZTSN6dealii12TriaIteratorINS_13MGDoFAccessorILi1ELi3ELi3EEEE27ExcAssignmentOfUnusedObjectE = comdat any

$_ZTIN6dealii12TriaIteratorINS_13MGDoFAccessorILi1ELi3ELi3EEEE27ExcAssignmentOfUnusedObjectE = comdat any

$_ZTVN6dealii18TriaActiveIteratorINS_13MGDoFAccessorILi1ELi3ELi3EEEE29ExcAssignmentOfInactiveObjectE = comdat any

$_ZTSN6dealii18TriaActiveIteratorINS_13MGDoFAccessorILi1ELi3ELi3EEEE29ExcAssignmentOfInactiveObjectE = comdat any

$_ZTIN6dealii18TriaActiveIteratorINS_13MGDoFAccessorILi1ELi3ELi3EEEE29ExcAssignmentOfInactiveObjectE = comdat any

$_ZTSN6dealii15TriaRawIteratorINS_13MGDoFAccessorILi2ELi3ELi3EEEE25ExcDereferenceInvalidCellE = comdat any

$_ZTIN6dealii15TriaRawIteratorINS_13MGDoFAccessorILi2ELi3ELi3EEEE25ExcDereferenceInvalidCellE = comdat any

$_ZTSN6dealii15TriaRawIteratorINS_13MGDoFAccessorILi2ELi3ELi3EEEE27ExcDereferenceInvalidObjectE = comdat any

$_ZTIN6dealii15TriaRawIteratorINS_13MGDoFAccessorILi2ELi3ELi3EEEE27ExcDereferenceInvalidObjectE = comdat any

$_ZTVN6dealii15TriaRawIteratorINS_13MGDoFAccessorILi2ELi3ELi3EEEE23ExcAdvanceInvalidObjectE = comdat any

$_ZTSN6dealii15TriaRawIteratorINS_13MGDoFAccessorILi2ELi3ELi3EEEE23ExcAdvanceInvalidObjectE = comdat any

$_ZTIN6dealii15TriaRawIteratorINS_13MGDoFAccessorILi2ELi3ELi3EEEE23ExcAdvanceInvalidObjectE = comdat any

$_ZTVN6dealii15TriaRawIteratorINS_13MGDoFAccessorILi2ELi3ELi3EEEE20ExcInvalidComparisonE = comdat any

$_ZTSN6dealii15TriaRawIteratorINS_13MGDoFAccessorILi2ELi3ELi3EEEE20ExcInvalidComparisonE = comdat any

$_ZTIN6dealii15TriaRawIteratorINS_13MGDoFAccessorILi2ELi3ELi3EEEE20ExcInvalidComparisonE = comdat any

$_ZTVN6dealii12TriaIteratorINS_13MGDoFAccessorILi2ELi3ELi3EEEE27ExcAssignmentOfUnusedObjectE = comdat any

$_ZTSN6dealii12TriaIteratorINS_13MGDoFAccessorILi2ELi3ELi3EEEE27ExcAssignmentOfUnusedObjectE = comdat any

$_ZTIN6dealii12TriaIteratorINS_13MGDoFAccessorILi2ELi3ELi3EEEE27ExcAssignmentOfUnusedObjectE = comdat any

$_ZTVN6dealii18TriaActiveIteratorINS_13MGDoFAccessorILi2ELi3ELi3EEEE29ExcAssignmentOfInactiveObjectE = comdat any

$_ZTSN6dealii18TriaActiveIteratorINS_13MGDoFAccessorILi2ELi3ELi3EEEE29ExcAssignmentOfInactiveObjectE = comdat any

$_ZTIN6dealii18TriaActiveIteratorINS_13MGDoFAccessorILi2ELi3ELi3EEEE29ExcAssignmentOfInactiveObjectE = comdat any

$_ZTSN6dealii15TriaRawIteratorINS_17MGDoFCellAccessorILi3ELi3EEEE25ExcDereferenceInvalidCellE = comdat any

$_ZTIN6dealii15TriaRawIteratorINS_17MGDoFCellAccessorILi3ELi3EEEE25ExcDereferenceInvalidCellE = comdat any

$_ZTSN6dealii15TriaRawIteratorINS_17MGDoFCellAccessorILi3ELi3EEEE27ExcDereferenceInvalidObjectE = comdat any

$_ZTIN6dealii15TriaRawIteratorINS_17MGDoFCellAccessorILi3ELi3EEEE27ExcDereferenceInvalidObjectE = comdat any

$_ZTVN6dealii15TriaRawIteratorINS_17MGDoFCellAccessorILi3ELi3EEEE23ExcAdvanceInvalidObjectE = comdat any

$_ZTSN6dealii15TriaRawIteratorINS_17MGDoFCellAccessorILi3ELi3EEEE23ExcAdvanceInvalidObjectE = comdat any

$_ZTIN6dealii15TriaRawIteratorINS_17MGDoFCellAccessorILi3ELi3EEEE23ExcAdvanceInvalidObjectE = comdat any

$_ZTVN6dealii15TriaRawIteratorINS_17MGDoFCellAccessorILi3ELi3EEEE20ExcInvalidComparisonE = comdat any

$_ZTSN6dealii15TriaRawIteratorINS_17MGDoFCellAccessorILi3ELi3EEEE20ExcInvalidComparisonE = comdat any

$_ZTIN6dealii15TriaRawIteratorINS_17MGDoFCellAccessorILi3ELi3EEEE20ExcInvalidComparisonE = comdat any

$_ZTVN6dealii12TriaIteratorINS_17MGDoFCellAccessorILi3ELi3EEEE27ExcAssignmentOfUnusedObjectE = comdat any

$_ZTSN6dealii12TriaIteratorINS_17MGDoFCellAccessorILi3ELi3EEEE27ExcAssignmentOfUnusedObjectE = comdat any

$_ZTIN6dealii12TriaIteratorINS_17MGDoFCellAccessorILi3ELi3EEEE27ExcAssignmentOfUnusedObjectE = comdat any

$_ZTVN6dealii18TriaActiveIteratorINS_17MGDoFCellAccessorILi3ELi3EEEE29ExcAssignmentOfInactiveObjectE = comdat any

$_ZTSN6dealii18TriaActiveIteratorINS_17MGDoFCellAccessorILi3ELi3EEEE29ExcAssignmentOfInactiveObjectE = comdat any

$_ZTIN6dealii18TriaActiveIteratorINS_17MGDoFCellAccessorILi3ELi3EEEE29ExcAssignmentOfInactiveObjectE = comdat any

$_ZZN6dealii8internal12TriaAccessor14Implementation12vertex_indexILi3ELi3EEEjRKNS_12TriaAccessorILi2EXT_EXT0_EEEjE12switch_table = comdat any

$_ZZN6dealii8internal12TriaAccessor14Implementation10line_indexILi3ELi3EEEjRKNS_12TriaAccessorILi3EXT_EXT0_EEEjE12lookup_table = comdat any

@_ZN12_GLOBAL__N_12_1E = internal global %"struct.boost::arg" zeroinitializer, align 1, !dbg !0
@_ZN12_GLOBAL__N_12_2E = internal global %"struct.boost::arg.0" zeroinitializer, align 1, !dbg !15
@_ZN12_GLOBAL__N_12_3E = internal global %"struct.boost::arg.2" zeroinitializer, align 1, !dbg !25
@_ZN12_GLOBAL__N_12_4E = internal global %"struct.boost::arg.4" zeroinitializer, align 1, !dbg !35
@_ZN12_GLOBAL__N_12_5E = internal global %"struct.boost::arg.6" zeroinitializer, align 1, !dbg !45
@_ZN12_GLOBAL__N_12_6E = internal global %"struct.boost::arg.8" zeroinitializer, align 1, !dbg !55
@_ZN12_GLOBAL__N_12_7E = internal global %"struct.boost::arg.10" zeroinitializer, align 1, !dbg !65
@_ZN12_GLOBAL__N_12_8E = internal global %"struct.boost::arg.12" zeroinitializer, align 1, !dbg !75
@_ZN12_GLOBAL__N_12_9E = internal global %"struct.boost::arg.14" zeroinitializer, align 1, !dbg !85
@_ZStL8__ioinit = internal global %"class.std::ios_base::Init" zeroinitializer, align 1, !dbg !95
@__dso_handle = external hidden global i8
@_ZTVN6dealii15TriaRawIteratorINS_13MGDoFAccessorILi1ELi3ELi3EEEE25ExcDereferenceInvalidCellE = weak_odr dso_local unnamed_addr constant { [6 x i8*] } { [6 x i8*] [i8* null, i8* bitcast ({ i8*, i8*, i8* }* @_ZTIN6dealii15TriaRawIteratorINS_13MGDoFAccessorILi1ELi3ELi3EEEE25ExcDereferenceInvalidCellE to i8*), i8* bitcast (void (%"class.dealii::TriaRawIterator<dealii::MGDoFAccessor<1, 3> >::ExcDereferenceInvalidCell"*)* @_ZN6dealii15TriaRawIteratorINS_13MGDoFAccessorILi1ELi3ELi3EEEE25ExcDereferenceInvalidCellD1Ev to i8*), i8* bitcast (void (%"class.dealii::TriaRawIterator<dealii::MGDoFAccessor<1, 3> >::ExcDereferenceInvalidCell"*)* @_ZN6dealii15TriaRawIteratorINS_13MGDoFAccessorILi1ELi3ELi3EEEE25ExcDereferenceInvalidCellD0Ev to i8*), i8* bitcast (i8* (%"class.dealii::ExceptionBase"*)* @_ZNK6dealii13ExceptionBase4whatEv to i8*), i8* bitcast (void (%"class.dealii::TriaRawIterator<dealii::MGDoFAccessor<1, 3> >::ExcDereferenceInvalidCell"*, %"class.std::basic_ostream"*)* @_ZNK6dealii15TriaRawIteratorINS_13MGDoFAccessorILi1ELi3ELi3EEEE25ExcDereferenceInvalidCell10print_infoERSo to i8*)] }, comdat, align 8
@.str = private unnamed_addr constant [57 x i8] c"You tried to dereference a cell iterator for which this \00", align 1
@.str.10 = private unnamed_addr constant [53 x i8] c"is not possible. More information on this iterator: \00", align 1
@.str.11 = private unnamed_addr constant [7 x i8] c"level=\00", align 1
@.str.12 = private unnamed_addr constant [9 x i8] c", index=\00", align 1
@.str.13 = private unnamed_addr constant [9 x i8] c", state=\00", align 1
@.str.14 = private unnamed_addr constant [6 x i8] c"valid\00", align 1
@.str.15 = private unnamed_addr constant [13 x i8] c"past_the_end\00", align 1
@.str.16 = private unnamed_addr constant [8 x i8] c"invalid\00", align 1
@_ZTVN6dealii15TriaRawIteratorINS_13MGDoFAccessorILi1ELi3ELi3EEEE27ExcDereferenceInvalidObjectE = weak_odr dso_local unnamed_addr constant { [6 x i8*] } { [6 x i8*] [i8* null, i8* bitcast ({ i8*, i8*, i8* }* @_ZTIN6dealii15TriaRawIteratorINS_13MGDoFAccessorILi1ELi3ELi3EEEE27ExcDereferenceInvalidObjectE to i8*), i8* bitcast (void (%"class.dealii::TriaRawIterator<dealii::MGDoFAccessor<1, 3> >::ExcDereferenceInvalidObject"*)* @_ZN6dealii15TriaRawIteratorINS_13MGDoFAccessorILi1ELi3ELi3EEEE27ExcDereferenceInvalidObjectD1Ev to i8*), i8* bitcast (void (%"class.dealii::TriaRawIterator<dealii::MGDoFAccessor<1, 3> >::ExcDereferenceInvalidObject"*)* @_ZN6dealii15TriaRawIteratorINS_13MGDoFAccessorILi1ELi3ELi3EEEE27ExcDereferenceInvalidObjectD0Ev to i8*), i8* bitcast (i8* (%"class.dealii::ExceptionBase"*)* @_ZNK6dealii13ExceptionBase4whatEv to i8*), i8* bitcast (void (%"class.dealii::TriaRawIterator<dealii::MGDoFAccessor<1, 3> >::ExcDereferenceInvalidObject"*, %"class.std::basic_ostream"*)* @_ZNK6dealii15TriaRawIteratorINS_13MGDoFAccessorILi1ELi3ELi3EEEE27ExcDereferenceInvalidObject10print_infoERSo to i8*)] }, comdat, align 8
@.str.17 = private unnamed_addr constant [53 x i8] c"You tried to dereference an iterator for which this \00", align 1
@.str.18 = private unnamed_addr constant [7 x i8] c"index=\00", align 1
@_ZTVN6dealii15TriaRawIteratorINS_13MGDoFAccessorILi2ELi3ELi3EEEE25ExcDereferenceInvalidCellE = weak_odr dso_local unnamed_addr constant { [6 x i8*] } { [6 x i8*] [i8* null, i8* bitcast ({ i8*, i8*, i8* }* @_ZTIN6dealii15TriaRawIteratorINS_13MGDoFAccessorILi2ELi3ELi3EEEE25ExcDereferenceInvalidCellE to i8*), i8* bitcast (void (%"class.dealii::TriaRawIterator<dealii::MGDoFAccessor<2, 3> >::ExcDereferenceInvalidCell"*)* @_ZN6dealii15TriaRawIteratorINS_13MGDoFAccessorILi2ELi3ELi3EEEE25ExcDereferenceInvalidCellD1Ev to i8*), i8* bitcast (void (%"class.dealii::TriaRawIterator<dealii::MGDoFAccessor<2, 3> >::ExcDereferenceInvalidCell"*)* @_ZN6dealii15TriaRawIteratorINS_13MGDoFAccessorILi2ELi3ELi3EEEE25ExcDereferenceInvalidCellD0Ev to i8*), i8* bitcast (i8* (%"class.dealii::ExceptionBase"*)* @_ZNK6dealii13ExceptionBase4whatEv to i8*), i8* bitcast (void (%"class.dealii::TriaRawIterator<dealii::MGDoFAccessor<2, 3> >::ExcDereferenceInvalidCell"*, %"class.std::basic_ostream"*)* @_ZNK6dealii15TriaRawIteratorINS_13MGDoFAccessorILi2ELi3ELi3EEEE25ExcDereferenceInvalidCell10print_infoERSo to i8*)] }, comdat, align 8
@_ZTVN6dealii15TriaRawIteratorINS_13MGDoFAccessorILi2ELi3ELi3EEEE27ExcDereferenceInvalidObjectE = weak_odr dso_local unnamed_addr constant { [6 x i8*] } { [6 x i8*] [i8* null, i8* bitcast ({ i8*, i8*, i8* }* @_ZTIN6dealii15TriaRawIteratorINS_13MGDoFAccessorILi2ELi3ELi3EEEE27ExcDereferenceInvalidObjectE to i8*), i8* bitcast (void (%"class.dealii::TriaRawIterator<dealii::MGDoFAccessor<2, 3> >::ExcDereferenceInvalidObject"*)* @_ZN6dealii15TriaRawIteratorINS_13MGDoFAccessorILi2ELi3ELi3EEEE27ExcDereferenceInvalidObjectD1Ev to i8*), i8* bitcast (void (%"class.dealii::TriaRawIterator<dealii::MGDoFAccessor<2, 3> >::ExcDereferenceInvalidObject"*)* @_ZN6dealii15TriaRawIteratorINS_13MGDoFAccessorILi2ELi3ELi3EEEE27ExcDereferenceInvalidObjectD0Ev to i8*), i8* bitcast (i8* (%"class.dealii::ExceptionBase"*)* @_ZNK6dealii13ExceptionBase4whatEv to i8*), i8* bitcast (void (%"class.dealii::TriaRawIterator<dealii::MGDoFAccessor<2, 3> >::ExcDereferenceInvalidObject"*, %"class.std::basic_ostream"*)* @_ZNK6dealii15TriaRawIteratorINS_13MGDoFAccessorILi2ELi3ELi3EEEE27ExcDereferenceInvalidObject10print_infoERSo to i8*)] }, comdat, align 8
@.str.19 = private unnamed_addr constant [2 x i8] c".\00", align 1
@_ZTVN6dealii15TriaRawIteratorINS_17MGDoFCellAccessorILi3ELi3EEEE25ExcDereferenceInvalidCellE = weak_odr dso_local unnamed_addr constant { [6 x i8*] } { [6 x i8*] [i8* null, i8* bitcast ({ i8*, i8*, i8* }* @_ZTIN6dealii15TriaRawIteratorINS_17MGDoFCellAccessorILi3ELi3EEEE25ExcDereferenceInvalidCellE to i8*), i8* bitcast (void (%"class.dealii::TriaRawIterator<dealii::MGDoFCellAccessor<3> >::ExcDereferenceInvalidCell"*)* @_ZN6dealii15TriaRawIteratorINS_17MGDoFCellAccessorILi3ELi3EEEE25ExcDereferenceInvalidCellD1Ev to i8*), i8* bitcast (void (%"class.dealii::TriaRawIterator<dealii::MGDoFCellAccessor<3> >::ExcDereferenceInvalidCell"*)* @_ZN6dealii15TriaRawIteratorINS_17MGDoFCellAccessorILi3ELi3EEEE25ExcDereferenceInvalidCellD0Ev to i8*), i8* bitcast (i8* (%"class.dealii::ExceptionBase"*)* @_ZNK6dealii13ExceptionBase4whatEv to i8*), i8* bitcast (void (%"class.dealii::TriaRawIterator<dealii::MGDoFCellAccessor<3> >::ExcDereferenceInvalidCell"*, %"class.std::basic_ostream"*)* @_ZNK6dealii15TriaRawIteratorINS_17MGDoFCellAccessorILi3ELi3EEEE25ExcDereferenceInvalidCell10print_infoERSo to i8*)] }, comdat, align 8
@_ZTVN6dealii15TriaRawIteratorINS_17MGDoFCellAccessorILi3ELi3EEEE27ExcDereferenceInvalidObjectE = weak_odr dso_local unnamed_addr constant { [6 x i8*] } { [6 x i8*] [i8* null, i8* bitcast ({ i8*, i8*, i8* }* @_ZTIN6dealii15TriaRawIteratorINS_17MGDoFCellAccessorILi3ELi3EEEE27ExcDereferenceInvalidObjectE to i8*), i8* bitcast (void (%"class.dealii::TriaRawIterator<dealii::MGDoFCellAccessor<3> >::ExcDereferenceInvalidObject"*)* @_ZN6dealii15TriaRawIteratorINS_17MGDoFCellAccessorILi3ELi3EEEE27ExcDereferenceInvalidObjectD1Ev to i8*), i8* bitcast (void (%"class.dealii::TriaRawIterator<dealii::MGDoFCellAccessor<3> >::ExcDereferenceInvalidObject"*)* @_ZN6dealii15TriaRawIteratorINS_17MGDoFCellAccessorILi3ELi3EEEE27ExcDereferenceInvalidObjectD0Ev to i8*), i8* bitcast (i8* (%"class.dealii::ExceptionBase"*)* @_ZNK6dealii13ExceptionBase4whatEv to i8*), i8* bitcast (void (%"class.dealii::TriaRawIterator<dealii::MGDoFCellAccessor<3> >::ExcDereferenceInvalidObject"*, %"class.std::basic_ostream"*)* @_ZNK6dealii15TriaRawIteratorINS_17MGDoFCellAccessorILi3ELi3EEEE27ExcDereferenceInvalidObject10print_infoERSo to i8*)] }, comdat, align 8
@_ZTVN6dealii13MGDoFAccessorILi1ELi3ELi3EE16ExcInvalidObjectE = weak_odr dso_local unnamed_addr constant { [6 x i8*] } { [6 x i8*] [i8* null, i8* bitcast ({ i8*, i8*, i8* }* @_ZTIN6dealii13MGDoFAccessorILi1ELi3ELi3EE16ExcInvalidObjectE to i8*), i8* bitcast (void (%"class.dealii::MGDoFAccessor<1, 3, 3>::ExcInvalidObject"*)* @_ZN6dealii13MGDoFAccessorILi1ELi3ELi3EE16ExcInvalidObjectD2Ev to i8*), i8* bitcast (void (%"class.dealii::MGDoFAccessor<1, 3, 3>::ExcInvalidObject"*)* @_ZN6dealii13MGDoFAccessorILi1ELi3ELi3EE16ExcInvalidObjectD0Ev to i8*), i8* bitcast (i8* (%"class.dealii::ExceptionBase"*)* @_ZNK6dealii13ExceptionBase4whatEv to i8*), i8* bitcast (void (%"class.dealii::ExceptionBase"*, %"class.std::basic_ostream"*)* @_ZNK6dealii13ExceptionBase10print_infoERSo to i8*)] }, comdat, align 8
@_ZTVN10__cxxabiv120__si_class_type_infoE = external dso_local global i8*
@_ZTSN6dealii13MGDoFAccessorILi1ELi3ELi3EE16ExcInvalidObjectE = weak_odr dso_local constant [57 x i8] c"N6dealii13MGDoFAccessorILi1ELi3ELi3EE16ExcInvalidObjectE\00", comdat, align 1
@_ZTIN6dealii13ExceptionBaseE = external dso_local constant i8*
@_ZTIN6dealii13MGDoFAccessorILi1ELi3ELi3EE16ExcInvalidObjectE = weak_odr dso_local constant { i8*, i8*, i8* } { i8* bitcast (i8** getelementptr inbounds (i8*, i8** @_ZTVN10__cxxabiv120__si_class_type_infoE, i64 2) to i8*), i8* getelementptr inbounds ([57 x i8], [57 x i8]* @_ZTSN6dealii13MGDoFAccessorILi1ELi3ELi3EE16ExcInvalidObjectE, i32 0, i32 0), i8* bitcast (i8** @_ZTIN6dealii13ExceptionBaseE to i8*) }, comdat, align 8
@_ZTVN6dealii13MGDoFAccessorILi2ELi3ELi3EE16ExcInvalidObjectE = weak_odr dso_local unnamed_addr constant { [6 x i8*] } { [6 x i8*] [i8* null, i8* bitcast ({ i8*, i8*, i8* }* @_ZTIN6dealii13MGDoFAccessorILi2ELi3ELi3EE16ExcInvalidObjectE to i8*), i8* bitcast (void (%"class.dealii::MGDoFAccessor<2, 3, 3>::ExcInvalidObject"*)* @_ZN6dealii13MGDoFAccessorILi2ELi3ELi3EE16ExcInvalidObjectD2Ev to i8*), i8* bitcast (void (%"class.dealii::MGDoFAccessor<2, 3, 3>::ExcInvalidObject"*)* @_ZN6dealii13MGDoFAccessorILi2ELi3ELi3EE16ExcInvalidObjectD0Ev to i8*), i8* bitcast (i8* (%"class.dealii::ExceptionBase"*)* @_ZNK6dealii13ExceptionBase4whatEv to i8*), i8* bitcast (void (%"class.dealii::ExceptionBase"*, %"class.std::basic_ostream"*)* @_ZNK6dealii13ExceptionBase10print_infoERSo to i8*)] }, comdat, align 8
@_ZTSN6dealii13MGDoFAccessorILi2ELi3ELi3EE16ExcInvalidObjectE = weak_odr dso_local constant [57 x i8] c"N6dealii13MGDoFAccessorILi2ELi3ELi3EE16ExcInvalidObjectE\00", comdat, align 1
@_ZTIN6dealii13MGDoFAccessorILi2ELi3ELi3EE16ExcInvalidObjectE = weak_odr dso_local constant { i8*, i8*, i8* } { i8* bitcast (i8** getelementptr inbounds (i8*, i8** @_ZTVN10__cxxabiv120__si_class_type_infoE, i64 2) to i8*), i8* getelementptr inbounds ([57 x i8], [57 x i8]* @_ZTSN6dealii13MGDoFAccessorILi2ELi3ELi3EE16ExcInvalidObjectE, i32 0, i32 0), i8* bitcast (i8** @_ZTIN6dealii13ExceptionBaseE to i8*) }, comdat, align 8
@_ZTVN6dealii13MGDoFAccessorILi3ELi3ELi3EE16ExcInvalidObjectE = weak_odr dso_local unnamed_addr constant { [6 x i8*] } { [6 x i8*] [i8* null, i8* bitcast ({ i8*, i8*, i8* }* @_ZTIN6dealii13MGDoFAccessorILi3ELi3ELi3EE16ExcInvalidObjectE to i8*), i8* bitcast (void (%"class.dealii::MGDoFAccessor<3, 3, 3>::ExcInvalidObject"*)* @_ZN6dealii13MGDoFAccessorILi3ELi3ELi3EE16ExcInvalidObjectD2Ev to i8*), i8* bitcast (void (%"class.dealii::MGDoFAccessor<3, 3, 3>::ExcInvalidObject"*)* @_ZN6dealii13MGDoFAccessorILi3ELi3ELi3EE16ExcInvalidObjectD0Ev to i8*), i8* bitcast (i8* (%"class.dealii::ExceptionBase"*)* @_ZNK6dealii13ExceptionBase4whatEv to i8*), i8* bitcast (void (%"class.dealii::ExceptionBase"*, %"class.std::basic_ostream"*)* @_ZNK6dealii13ExceptionBase10print_infoERSo to i8*)] }, comdat, align 8
@_ZTSN6dealii13MGDoFAccessorILi3ELi3ELi3EE16ExcInvalidObjectE = weak_odr dso_local constant [57 x i8] c"N6dealii13MGDoFAccessorILi3ELi3ELi3EE16ExcInvalidObjectE\00", comdat, align 1
@_ZTIN6dealii13MGDoFAccessorILi3ELi3ELi3EE16ExcInvalidObjectE = weak_odr dso_local constant { i8*, i8*, i8* } { i8* bitcast (i8** getelementptr inbounds (i8*, i8** @_ZTVN10__cxxabiv120__si_class_type_infoE, i64 2) to i8*), i8* getelementptr inbounds ([57 x i8], [57 x i8]* @_ZTSN6dealii13MGDoFAccessorILi3ELi3ELi3EE16ExcInvalidObjectE, i32 0, i32 0), i8* bitcast (i8** @_ZTIN6dealii13ExceptionBaseE to i8*) }, comdat, align 8
@_ZTSN6dealii15TriaRawIteratorINS_13MGDoFAccessorILi1ELi3ELi3EEEE25ExcDereferenceInvalidCellE = weak_odr dso_local constant [89 x i8] c"N6dealii15TriaRawIteratorINS_13MGDoFAccessorILi1ELi3ELi3EEEE25ExcDereferenceInvalidCellE\00", comdat, align 1
@_ZTIN6dealii15TriaRawIteratorINS_13MGDoFAccessorILi1ELi3ELi3EEEE25ExcDereferenceInvalidCellE = weak_odr dso_local constant { i8*, i8*, i8* } { i8* bitcast (i8** getelementptr inbounds (i8*, i8** @_ZTVN10__cxxabiv120__si_class_type_infoE, i64 2) to i8*), i8* getelementptr inbounds ([89 x i8], [89 x i8]* @_ZTSN6dealii15TriaRawIteratorINS_13MGDoFAccessorILi1ELi3ELi3EEEE25ExcDereferenceInvalidCellE, i32 0, i32 0), i8* bitcast (i8** @_ZTIN6dealii13ExceptionBaseE to i8*) }, comdat, align 8
@_ZTSN6dealii15TriaRawIteratorINS_13MGDoFAccessorILi1ELi3ELi3EEEE27ExcDereferenceInvalidObjectE = weak_odr dso_local constant [91 x i8] c"N6dealii15TriaRawIteratorINS_13MGDoFAccessorILi1ELi3ELi3EEEE27ExcDereferenceInvalidObjectE\00", comdat, align 1
@_ZTIN6dealii15TriaRawIteratorINS_13MGDoFAccessorILi1ELi3ELi3EEEE27ExcDereferenceInvalidObjectE = weak_odr dso_local constant { i8*, i8*, i8* } { i8* bitcast (i8** getelementptr inbounds (i8*, i8** @_ZTVN10__cxxabiv120__si_class_type_infoE, i64 2) to i8*), i8* getelementptr inbounds ([91 x i8], [91 x i8]* @_ZTSN6dealii15TriaRawIteratorINS_13MGDoFAccessorILi1ELi3ELi3EEEE27ExcDereferenceInvalidObjectE, i32 0, i32 0), i8* bitcast (i8** @_ZTIN6dealii13ExceptionBaseE to i8*) }, comdat, align 8
@_ZTVN6dealii15TriaRawIteratorINS_13MGDoFAccessorILi1ELi3ELi3EEEE23ExcAdvanceInvalidObjectE = weak_odr dso_local unnamed_addr constant { [6 x i8*] } { [6 x i8*] [i8* null, i8* bitcast ({ i8*, i8*, i8* }* @_ZTIN6dealii15TriaRawIteratorINS_13MGDoFAccessorILi1ELi3ELi3EEEE23ExcAdvanceInvalidObjectE to i8*), i8* bitcast (void (%"class.dealii::TriaRawIterator<dealii::MGDoFAccessor<1, 3> >::ExcAdvanceInvalidObject"*)* @_ZN6dealii15TriaRawIteratorINS_13MGDoFAccessorILi1ELi3ELi3EEEE23ExcAdvanceInvalidObjectD2Ev to i8*), i8* bitcast (void (%"class.dealii::TriaRawIterator<dealii::MGDoFAccessor<1, 3> >::ExcAdvanceInvalidObject"*)* @_ZN6dealii15TriaRawIteratorINS_13MGDoFAccessorILi1ELi3ELi3EEEE23ExcAdvanceInvalidObjectD0Ev to i8*), i8* bitcast (i8* (%"class.dealii::ExceptionBase"*)* @_ZNK6dealii13ExceptionBase4whatEv to i8*), i8* bitcast (void (%"class.dealii::ExceptionBase"*, %"class.std::basic_ostream"*)* @_ZNK6dealii13ExceptionBase10print_infoERSo to i8*)] }, comdat, align 8
@_ZTSN6dealii15TriaRawIteratorINS_13MGDoFAccessorILi1ELi3ELi3EEEE23ExcAdvanceInvalidObjectE = weak_odr dso_local constant [87 x i8] c"N6dealii15TriaRawIteratorINS_13MGDoFAccessorILi1ELi3ELi3EEEE23ExcAdvanceInvalidObjectE\00", comdat, align 1
@_ZTIN6dealii15TriaRawIteratorINS_13MGDoFAccessorILi1ELi3ELi3EEEE23ExcAdvanceInvalidObjectE = weak_odr dso_local constant { i8*, i8*, i8* } { i8* bitcast (i8** getelementptr inbounds (i8*, i8** @_ZTVN10__cxxabiv120__si_class_type_infoE, i64 2) to i8*), i8* getelementptr inbounds ([87 x i8], [87 x i8]* @_ZTSN6dealii15TriaRawIteratorINS_13MGDoFAccessorILi1ELi3ELi3EEEE23ExcAdvanceInvalidObjectE, i32 0, i32 0), i8* bitcast (i8** @_ZTIN6dealii13ExceptionBaseE to i8*) }, comdat, align 8
@_ZTVN6dealii15TriaRawIteratorINS_13MGDoFAccessorILi1ELi3ELi3EEEE20ExcInvalidComparisonE = weak_odr dso_local unnamed_addr constant { [6 x i8*] } { [6 x i8*] [i8* null, i8* bitcast ({ i8*, i8*, i8* }* @_ZTIN6dealii15TriaRawIteratorINS_13MGDoFAccessorILi1ELi3ELi3EEEE20ExcInvalidComparisonE to i8*), i8* bitcast (void (%"class.dealii::TriaRawIterator<dealii::MGDoFAccessor<1, 3> >::ExcInvalidComparison"*)* @_ZN6dealii15TriaRawIteratorINS_13MGDoFAccessorILi1ELi3ELi3EEEE20ExcInvalidComparisonD2Ev to i8*), i8* bitcast (void (%"class.dealii::TriaRawIterator<dealii::MGDoFAccessor<1, 3> >::ExcInvalidComparison"*)* @_ZN6dealii15TriaRawIteratorINS_13MGDoFAccessorILi1ELi3ELi3EEEE20ExcInvalidComparisonD0Ev to i8*), i8* bitcast (i8* (%"class.dealii::ExceptionBase"*)* @_ZNK6dealii13ExceptionBase4whatEv to i8*), i8* bitcast (void (%"class.dealii::ExceptionBase"*, %"class.std::basic_ostream"*)* @_ZNK6dealii13ExceptionBase10print_infoERSo to i8*)] }, comdat, align 8
@_ZTSN6dealii15TriaRawIteratorINS_13MGDoFAccessorILi1ELi3ELi3EEEE20ExcInvalidComparisonE = weak_odr dso_local constant [84 x i8] c"N6dealii15TriaRawIteratorINS_13MGDoFAccessorILi1ELi3ELi3EEEE20ExcInvalidComparisonE\00", comdat, align 1
@_ZTIN6dealii15TriaRawIteratorINS_13MGDoFAccessorILi1ELi3ELi3EEEE20ExcInvalidComparisonE = weak_odr dso_local constant { i8*, i8*, i8* } { i8* bitcast (i8** getelementptr inbounds (i8*, i8** @_ZTVN10__cxxabiv120__si_class_type_infoE, i64 2) to i8*), i8* getelementptr inbounds ([84 x i8], [84 x i8]* @_ZTSN6dealii15TriaRawIteratorINS_13MGDoFAccessorILi1ELi3ELi3EEEE20ExcInvalidComparisonE, i32 0, i32 0), i8* bitcast (i8** @_ZTIN6dealii13ExceptionBaseE to i8*) }, comdat, align 8
@_ZTVN6dealii12TriaIteratorINS_13MGDoFAccessorILi1ELi3ELi3EEEE27ExcAssignmentOfUnusedObjectE = weak_odr dso_local unnamed_addr constant { [6 x i8*] } { [6 x i8*] [i8* null, i8* bitcast ({ i8*, i8*, i8* }* @_ZTIN6dealii12TriaIteratorINS_13MGDoFAccessorILi1ELi3ELi3EEEE27ExcAssignmentOfUnusedObjectE to i8*), i8* bitcast (void (%"class.dealii::TriaIterator<dealii::MGDoFAccessor<1, 3> >::ExcAssignmentOfUnusedObject"*)* @_ZN6dealii12TriaIteratorINS_13MGDoFAccessorILi1ELi3ELi3EEEE27ExcAssignmentOfUnusedObjectD2Ev to i8*), i8* bitcast (void (%"class.dealii::TriaIterator<dealii::MGDoFAccessor<1, 3> >::ExcAssignmentOfUnusedObject"*)* @_ZN6dealii12TriaIteratorINS_13MGDoFAccessorILi1ELi3ELi3EEEE27ExcAssignmentOfUnusedObjectD0Ev to i8*), i8* bitcast (i8* (%"class.dealii::ExceptionBase"*)* @_ZNK6dealii13ExceptionBase4whatEv to i8*), i8* bitcast (void (%"class.dealii::ExceptionBase"*, %"class.std::basic_ostream"*)* @_ZNK6dealii13ExceptionBase10print_infoERSo to i8*)] }, comdat, align 8
@_ZTSN6dealii12TriaIteratorINS_13MGDoFAccessorILi1ELi3ELi3EEEE27ExcAssignmentOfUnusedObjectE = weak_odr dso_local constant [88 x i8] c"N6dealii12TriaIteratorINS_13MGDoFAccessorILi1ELi3ELi3EEEE27ExcAssignmentOfUnusedObjectE\00", comdat, align 1
@_ZTIN6dealii12TriaIteratorINS_13MGDoFAccessorILi1ELi3ELi3EEEE27ExcAssignmentOfUnusedObjectE = weak_odr dso_local constant { i8*, i8*, i8* } { i8* bitcast (i8** getelementptr inbounds (i8*, i8** @_ZTVN10__cxxabiv120__si_class_type_infoE, i64 2) to i8*), i8* getelementptr inbounds ([88 x i8], [88 x i8]* @_ZTSN6dealii12TriaIteratorINS_13MGDoFAccessorILi1ELi3ELi3EEEE27ExcAssignmentOfUnusedObjectE, i32 0, i32 0), i8* bitcast (i8** @_ZTIN6dealii13ExceptionBaseE to i8*) }, comdat, align 8
@_ZTVN6dealii18TriaActiveIteratorINS_13MGDoFAccessorILi1ELi3ELi3EEEE29ExcAssignmentOfInactiveObjectE = weak_odr dso_local unnamed_addr constant { [6 x i8*] } { [6 x i8*] [i8* null, i8* bitcast ({ i8*, i8*, i8* }* @_ZTIN6dealii18TriaActiveIteratorINS_13MGDoFAccessorILi1ELi3ELi3EEEE29ExcAssignmentOfInactiveObjectE to i8*), i8* bitcast (void (%"class.dealii::TriaActiveIterator<dealii::MGDoFAccessor<1, 3> >::ExcAssignmentOfInactiveObject"*)* @_ZN6dealii18TriaActiveIteratorINS_13MGDoFAccessorILi1ELi3ELi3EEEE29ExcAssignmentOfInactiveObjectD2Ev to i8*), i8* bitcast (void (%"class.dealii::TriaActiveIterator<dealii::MGDoFAccessor<1, 3> >::ExcAssignmentOfInactiveObject"*)* @_ZN6dealii18TriaActiveIteratorINS_13MGDoFAccessorILi1ELi3ELi3EEEE29ExcAssignmentOfInactiveObjectD0Ev to i8*), i8* bitcast (i8* (%"class.dealii::ExceptionBase"*)* @_ZNK6dealii13ExceptionBase4whatEv to i8*), i8* bitcast (void (%"class.dealii::ExceptionBase"*, %"class.std::basic_ostream"*)* @_ZNK6dealii13ExceptionBase10print_infoERSo to i8*)] }, comdat, align 8
@_ZTSN6dealii18TriaActiveIteratorINS_13MGDoFAccessorILi1ELi3ELi3EEEE29ExcAssignmentOfInactiveObjectE = weak_odr dso_local constant [96 x i8] c"N6dealii18TriaActiveIteratorINS_13MGDoFAccessorILi1ELi3ELi3EEEE29ExcAssignmentOfInactiveObjectE\00", comdat, align 1
@_ZTIN6dealii18TriaActiveIteratorINS_13MGDoFAccessorILi1ELi3ELi3EEEE29ExcAssignmentOfInactiveObjectE = weak_odr dso_local constant { i8*, i8*, i8* } { i8* bitcast (i8** getelementptr inbounds (i8*, i8** @_ZTVN10__cxxabiv120__si_class_type_infoE, i64 2) to i8*), i8* getelementptr inbounds ([96 x i8], [96 x i8]* @_ZTSN6dealii18TriaActiveIteratorINS_13MGDoFAccessorILi1ELi3ELi3EEEE29ExcAssignmentOfInactiveObjectE, i32 0, i32 0), i8* bitcast (i8** @_ZTIN6dealii13ExceptionBaseE to i8*) }, comdat, align 8
@_ZTSN6dealii15TriaRawIteratorINS_13MGDoFAccessorILi2ELi3ELi3EEEE25ExcDereferenceInvalidCellE = weak_odr dso_local constant [89 x i8] c"N6dealii15TriaRawIteratorINS_13MGDoFAccessorILi2ELi3ELi3EEEE25ExcDereferenceInvalidCellE\00", comdat, align 1
@_ZTIN6dealii15TriaRawIteratorINS_13MGDoFAccessorILi2ELi3ELi3EEEE25ExcDereferenceInvalidCellE = weak_odr dso_local constant { i8*, i8*, i8* } { i8* bitcast (i8** getelementptr inbounds (i8*, i8** @_ZTVN10__cxxabiv120__si_class_type_infoE, i64 2) to i8*), i8* getelementptr inbounds ([89 x i8], [89 x i8]* @_ZTSN6dealii15TriaRawIteratorINS_13MGDoFAccessorILi2ELi3ELi3EEEE25ExcDereferenceInvalidCellE, i32 0, i32 0), i8* bitcast (i8** @_ZTIN6dealii13ExceptionBaseE to i8*) }, comdat, align 8
@_ZTSN6dealii15TriaRawIteratorINS_13MGDoFAccessorILi2ELi3ELi3EEEE27ExcDereferenceInvalidObjectE = weak_odr dso_local constant [91 x i8] c"N6dealii15TriaRawIteratorINS_13MGDoFAccessorILi2ELi3ELi3EEEE27ExcDereferenceInvalidObjectE\00", comdat, align 1
@_ZTIN6dealii15TriaRawIteratorINS_13MGDoFAccessorILi2ELi3ELi3EEEE27ExcDereferenceInvalidObjectE = weak_odr dso_local constant { i8*, i8*, i8* } { i8* bitcast (i8** getelementptr inbounds (i8*, i8** @_ZTVN10__cxxabiv120__si_class_type_infoE, i64 2) to i8*), i8* getelementptr inbounds ([91 x i8], [91 x i8]* @_ZTSN6dealii15TriaRawIteratorINS_13MGDoFAccessorILi2ELi3ELi3EEEE27ExcDereferenceInvalidObjectE, i32 0, i32 0), i8* bitcast (i8** @_ZTIN6dealii13ExceptionBaseE to i8*) }, comdat, align 8
@_ZTVN6dealii15TriaRawIteratorINS_13MGDoFAccessorILi2ELi3ELi3EEEE23ExcAdvanceInvalidObjectE = weak_odr dso_local unnamed_addr constant { [6 x i8*] } { [6 x i8*] [i8* null, i8* bitcast ({ i8*, i8*, i8* }* @_ZTIN6dealii15TriaRawIteratorINS_13MGDoFAccessorILi2ELi3ELi3EEEE23ExcAdvanceInvalidObjectE to i8*), i8* bitcast (void (%"class.dealii::TriaRawIterator<dealii::MGDoFAccessor<2, 3> >::ExcAdvanceInvalidObject"*)* @_ZN6dealii15TriaRawIteratorINS_13MGDoFAccessorILi2ELi3ELi3EEEE23ExcAdvanceInvalidObjectD2Ev to i8*), i8* bitcast (void (%"class.dealii::TriaRawIterator<dealii::MGDoFAccessor<2, 3> >::ExcAdvanceInvalidObject"*)* @_ZN6dealii15TriaRawIteratorINS_13MGDoFAccessorILi2ELi3ELi3EEEE23ExcAdvanceInvalidObjectD0Ev to i8*), i8* bitcast (i8* (%"class.dealii::ExceptionBase"*)* @_ZNK6dealii13ExceptionBase4whatEv to i8*), i8* bitcast (void (%"class.dealii::ExceptionBase"*, %"class.std::basic_ostream"*)* @_ZNK6dealii13ExceptionBase10print_infoERSo to i8*)] }, comdat, align 8
@_ZTSN6dealii15TriaRawIteratorINS_13MGDoFAccessorILi2ELi3ELi3EEEE23ExcAdvanceInvalidObjectE = weak_odr dso_local constant [87 x i8] c"N6dealii15TriaRawIteratorINS_13MGDoFAccessorILi2ELi3ELi3EEEE23ExcAdvanceInvalidObjectE\00", comdat, align 1
@_ZTIN6dealii15TriaRawIteratorINS_13MGDoFAccessorILi2ELi3ELi3EEEE23ExcAdvanceInvalidObjectE = weak_odr dso_local constant { i8*, i8*, i8* } { i8* bitcast (i8** getelementptr inbounds (i8*, i8** @_ZTVN10__cxxabiv120__si_class_type_infoE, i64 2) to i8*), i8* getelementptr inbounds ([87 x i8], [87 x i8]* @_ZTSN6dealii15TriaRawIteratorINS_13MGDoFAccessorILi2ELi3ELi3EEEE23ExcAdvanceInvalidObjectE, i32 0, i32 0), i8* bitcast (i8** @_ZTIN6dealii13ExceptionBaseE to i8*) }, comdat, align 8
@_ZTVN6dealii15TriaRawIteratorINS_13MGDoFAccessorILi2ELi3ELi3EEEE20ExcInvalidComparisonE = weak_odr dso_local unnamed_addr constant { [6 x i8*] } { [6 x i8*] [i8* null, i8* bitcast ({ i8*, i8*, i8* }* @_ZTIN6dealii15TriaRawIteratorINS_13MGDoFAccessorILi2ELi3ELi3EEEE20ExcInvalidComparisonE to i8*), i8* bitcast (void (%"class.dealii::TriaRawIterator<dealii::MGDoFAccessor<2, 3> >::ExcInvalidComparison"*)* @_ZN6dealii15TriaRawIteratorINS_13MGDoFAccessorILi2ELi3ELi3EEEE20ExcInvalidComparisonD2Ev to i8*), i8* bitcast (void (%"class.dealii::TriaRawIterator<dealii::MGDoFAccessor<2, 3> >::ExcInvalidComparison"*)* @_ZN6dealii15TriaRawIteratorINS_13MGDoFAccessorILi2ELi3ELi3EEEE20ExcInvalidComparisonD0Ev to i8*), i8* bitcast (i8* (%"class.dealii::ExceptionBase"*)* @_ZNK6dealii13ExceptionBase4whatEv to i8*), i8* bitcast (void (%"class.dealii::ExceptionBase"*, %"class.std::basic_ostream"*)* @_ZNK6dealii13ExceptionBase10print_infoERSo to i8*)] }, comdat, align 8
@_ZTSN6dealii15TriaRawIteratorINS_13MGDoFAccessorILi2ELi3ELi3EEEE20ExcInvalidComparisonE = weak_odr dso_local constant [84 x i8] c"N6dealii15TriaRawIteratorINS_13MGDoFAccessorILi2ELi3ELi3EEEE20ExcInvalidComparisonE\00", comdat, align 1
@_ZTIN6dealii15TriaRawIteratorINS_13MGDoFAccessorILi2ELi3ELi3EEEE20ExcInvalidComparisonE = weak_odr dso_local constant { i8*, i8*, i8* } { i8* bitcast (i8** getelementptr inbounds (i8*, i8** @_ZTVN10__cxxabiv120__si_class_type_infoE, i64 2) to i8*), i8* getelementptr inbounds ([84 x i8], [84 x i8]* @_ZTSN6dealii15TriaRawIteratorINS_13MGDoFAccessorILi2ELi3ELi3EEEE20ExcInvalidComparisonE, i32 0, i32 0), i8* bitcast (i8** @_ZTIN6dealii13ExceptionBaseE to i8*) }, comdat, align 8
@_ZTVN6dealii12TriaIteratorINS_13MGDoFAccessorILi2ELi3ELi3EEEE27ExcAssignmentOfUnusedObjectE = weak_odr dso_local unnamed_addr constant { [6 x i8*] } { [6 x i8*] [i8* null, i8* bitcast ({ i8*, i8*, i8* }* @_ZTIN6dealii12TriaIteratorINS_13MGDoFAccessorILi2ELi3ELi3EEEE27ExcAssignmentOfUnusedObjectE to i8*), i8* bitcast (void (%"class.dealii::TriaIterator<dealii::MGDoFAccessor<2, 3> >::ExcAssignmentOfUnusedObject"*)* @_ZN6dealii12TriaIteratorINS_13MGDoFAccessorILi2ELi3ELi3EEEE27ExcAssignmentOfUnusedObjectD2Ev to i8*), i8* bitcast (void (%"class.dealii::TriaIterator<dealii::MGDoFAccessor<2, 3> >::ExcAssignmentOfUnusedObject"*)* @_ZN6dealii12TriaIteratorINS_13MGDoFAccessorILi2ELi3ELi3EEEE27ExcAssignmentOfUnusedObjectD0Ev to i8*), i8* bitcast (i8* (%"class.dealii::ExceptionBase"*)* @_ZNK6dealii13ExceptionBase4whatEv to i8*), i8* bitcast (void (%"class.dealii::ExceptionBase"*, %"class.std::basic_ostream"*)* @_ZNK6dealii13ExceptionBase10print_infoERSo to i8*)] }, comdat, align 8
@_ZTSN6dealii12TriaIteratorINS_13MGDoFAccessorILi2ELi3ELi3EEEE27ExcAssignmentOfUnusedObjectE = weak_odr dso_local constant [88 x i8] c"N6dealii12TriaIteratorINS_13MGDoFAccessorILi2ELi3ELi3EEEE27ExcAssignmentOfUnusedObjectE\00", comdat, align 1
@_ZTIN6dealii12TriaIteratorINS_13MGDoFAccessorILi2ELi3ELi3EEEE27ExcAssignmentOfUnusedObjectE = weak_odr dso_local constant { i8*, i8*, i8* } { i8* bitcast (i8** getelementptr inbounds (i8*, i8** @_ZTVN10__cxxabiv120__si_class_type_infoE, i64 2) to i8*), i8* getelementptr inbounds ([88 x i8], [88 x i8]* @_ZTSN6dealii12TriaIteratorINS_13MGDoFAccessorILi2ELi3ELi3EEEE27ExcAssignmentOfUnusedObjectE, i32 0, i32 0), i8* bitcast (i8** @_ZTIN6dealii13ExceptionBaseE to i8*) }, comdat, align 8
@_ZTVN6dealii18TriaActiveIteratorINS_13MGDoFAccessorILi2ELi3ELi3EEEE29ExcAssignmentOfInactiveObjectE = weak_odr dso_local unnamed_addr constant { [6 x i8*] } { [6 x i8*] [i8* null, i8* bitcast ({ i8*, i8*, i8* }* @_ZTIN6dealii18TriaActiveIteratorINS_13MGDoFAccessorILi2ELi3ELi3EEEE29ExcAssignmentOfInactiveObjectE to i8*), i8* bitcast (void (%"class.dealii::TriaActiveIterator<dealii::MGDoFAccessor<2, 3> >::ExcAssignmentOfInactiveObject"*)* @_ZN6dealii18TriaActiveIteratorINS_13MGDoFAccessorILi2ELi3ELi3EEEE29ExcAssignmentOfInactiveObjectD2Ev to i8*), i8* bitcast (void (%"class.dealii::TriaActiveIterator<dealii::MGDoFAccessor<2, 3> >::ExcAssignmentOfInactiveObject"*)* @_ZN6dealii18TriaActiveIteratorINS_13MGDoFAccessorILi2ELi3ELi3EEEE29ExcAssignmentOfInactiveObjectD0Ev to i8*), i8* bitcast (i8* (%"class.dealii::ExceptionBase"*)* @_ZNK6dealii13ExceptionBase4whatEv to i8*), i8* bitcast (void (%"class.dealii::ExceptionBase"*, %"class.std::basic_ostream"*)* @_ZNK6dealii13ExceptionBase10print_infoERSo to i8*)] }, comdat, align 8
@_ZTSN6dealii18TriaActiveIteratorINS_13MGDoFAccessorILi2ELi3ELi3EEEE29ExcAssignmentOfInactiveObjectE = weak_odr dso_local constant [96 x i8] c"N6dealii18TriaActiveIteratorINS_13MGDoFAccessorILi2ELi3ELi3EEEE29ExcAssignmentOfInactiveObjectE\00", comdat, align 1
@_ZTIN6dealii18TriaActiveIteratorINS_13MGDoFAccessorILi2ELi3ELi3EEEE29ExcAssignmentOfInactiveObjectE = weak_odr dso_local constant { i8*, i8*, i8* } { i8* bitcast (i8** getelementptr inbounds (i8*, i8** @_ZTVN10__cxxabiv120__si_class_type_infoE, i64 2) to i8*), i8* getelementptr inbounds ([96 x i8], [96 x i8]* @_ZTSN6dealii18TriaActiveIteratorINS_13MGDoFAccessorILi2ELi3ELi3EEEE29ExcAssignmentOfInactiveObjectE, i32 0, i32 0), i8* bitcast (i8** @_ZTIN6dealii13ExceptionBaseE to i8*) }, comdat, align 8
@_ZTSN6dealii15TriaRawIteratorINS_17MGDoFCellAccessorILi3ELi3EEEE25ExcDereferenceInvalidCellE = weak_odr dso_local constant [89 x i8] c"N6dealii15TriaRawIteratorINS_17MGDoFCellAccessorILi3ELi3EEEE25ExcDereferenceInvalidCellE\00", comdat, align 1
@_ZTIN6dealii15TriaRawIteratorINS_17MGDoFCellAccessorILi3ELi3EEEE25ExcDereferenceInvalidCellE = weak_odr dso_local constant { i8*, i8*, i8* } { i8* bitcast (i8** getelementptr inbounds (i8*, i8** @_ZTVN10__cxxabiv120__si_class_type_infoE, i64 2) to i8*), i8* getelementptr inbounds ([89 x i8], [89 x i8]* @_ZTSN6dealii15TriaRawIteratorINS_17MGDoFCellAccessorILi3ELi3EEEE25ExcDereferenceInvalidCellE, i32 0, i32 0), i8* bitcast (i8** @_ZTIN6dealii13ExceptionBaseE to i8*) }, comdat, align 8
@_ZTSN6dealii15TriaRawIteratorINS_17MGDoFCellAccessorILi3ELi3EEEE27ExcDereferenceInvalidObjectE = weak_odr dso_local constant [91 x i8] c"N6dealii15TriaRawIteratorINS_17MGDoFCellAccessorILi3ELi3EEEE27ExcDereferenceInvalidObjectE\00", comdat, align 1
@_ZTIN6dealii15TriaRawIteratorINS_17MGDoFCellAccessorILi3ELi3EEEE27ExcDereferenceInvalidObjectE = weak_odr dso_local constant { i8*, i8*, i8* } { i8* bitcast (i8** getelementptr inbounds (i8*, i8** @_ZTVN10__cxxabiv120__si_class_type_infoE, i64 2) to i8*), i8* getelementptr inbounds ([91 x i8], [91 x i8]* @_ZTSN6dealii15TriaRawIteratorINS_17MGDoFCellAccessorILi3ELi3EEEE27ExcDereferenceInvalidObjectE, i32 0, i32 0), i8* bitcast (i8** @_ZTIN6dealii13ExceptionBaseE to i8*) }, comdat, align 8
@_ZTVN6dealii15TriaRawIteratorINS_17MGDoFCellAccessorILi3ELi3EEEE23ExcAdvanceInvalidObjectE = weak_odr dso_local unnamed_addr constant { [6 x i8*] } { [6 x i8*] [i8* null, i8* bitcast ({ i8*, i8*, i8* }* @_ZTIN6dealii15TriaRawIteratorINS_17MGDoFCellAccessorILi3ELi3EEEE23ExcAdvanceInvalidObjectE to i8*), i8* bitcast (void (%"class.dealii::TriaRawIterator<dealii::MGDoFCellAccessor<3> >::ExcAdvanceInvalidObject"*)* @_ZN6dealii15TriaRawIteratorINS_17MGDoFCellAccessorILi3ELi3EEEE23ExcAdvanceInvalidObjectD2Ev to i8*), i8* bitcast (void (%"class.dealii::TriaRawIterator<dealii::MGDoFCellAccessor<3> >::ExcAdvanceInvalidObject"*)* @_ZN6dealii15TriaRawIteratorINS_17MGDoFCellAccessorILi3ELi3EEEE23ExcAdvanceInvalidObjectD0Ev to i8*), i8* bitcast (i8* (%"class.dealii::ExceptionBase"*)* @_ZNK6dealii13ExceptionBase4whatEv to i8*), i8* bitcast (void (%"class.dealii::ExceptionBase"*, %"class.std::basic_ostream"*)* @_ZNK6dealii13ExceptionBase10print_infoERSo to i8*)] }, comdat, align 8
@_ZTSN6dealii15TriaRawIteratorINS_17MGDoFCellAccessorILi3ELi3EEEE23ExcAdvanceInvalidObjectE = weak_odr dso_local constant [87 x i8] c"N6dealii15TriaRawIteratorINS_17MGDoFCellAccessorILi3ELi3EEEE23ExcAdvanceInvalidObjectE\00", comdat, align 1
@_ZTIN6dealii15TriaRawIteratorINS_17MGDoFCellAccessorILi3ELi3EEEE23ExcAdvanceInvalidObjectE = weak_odr dso_local constant { i8*, i8*, i8* } { i8* bitcast (i8** getelementptr inbounds (i8*, i8** @_ZTVN10__cxxabiv120__si_class_type_infoE, i64 2) to i8*), i8* getelementptr inbounds ([87 x i8], [87 x i8]* @_ZTSN6dealii15TriaRawIteratorINS_17MGDoFCellAccessorILi3ELi3EEEE23ExcAdvanceInvalidObjectE, i32 0, i32 0), i8* bitcast (i8** @_ZTIN6dealii13ExceptionBaseE to i8*) }, comdat, align 8
@_ZTVN6dealii15TriaRawIteratorINS_17MGDoFCellAccessorILi3ELi3EEEE20ExcInvalidComparisonE = weak_odr dso_local unnamed_addr constant { [6 x i8*] } { [6 x i8*] [i8* null, i8* bitcast ({ i8*, i8*, i8* }* @_ZTIN6dealii15TriaRawIteratorINS_17MGDoFCellAccessorILi3ELi3EEEE20ExcInvalidComparisonE to i8*), i8* bitcast (void (%"class.dealii::TriaRawIterator<dealii::MGDoFCellAccessor<3> >::ExcInvalidComparison"*)* @_ZN6dealii15TriaRawIteratorINS_17MGDoFCellAccessorILi3ELi3EEEE20ExcInvalidComparisonD2Ev to i8*), i8* bitcast (void (%"class.dealii::TriaRawIterator<dealii::MGDoFCellAccessor<3> >::ExcInvalidComparison"*)* @_ZN6dealii15TriaRawIteratorINS_17MGDoFCellAccessorILi3ELi3EEEE20ExcInvalidComparisonD0Ev to i8*), i8* bitcast (i8* (%"class.dealii::ExceptionBase"*)* @_ZNK6dealii13ExceptionBase4whatEv to i8*), i8* bitcast (void (%"class.dealii::ExceptionBase"*, %"class.std::basic_ostream"*)* @_ZNK6dealii13ExceptionBase10print_infoERSo to i8*)] }, comdat, align 8
@_ZTSN6dealii15TriaRawIteratorINS_17MGDoFCellAccessorILi3ELi3EEEE20ExcInvalidComparisonE = weak_odr dso_local constant [84 x i8] c"N6dealii15TriaRawIteratorINS_17MGDoFCellAccessorILi3ELi3EEEE20ExcInvalidComparisonE\00", comdat, align 1
@_ZTIN6dealii15TriaRawIteratorINS_17MGDoFCellAccessorILi3ELi3EEEE20ExcInvalidComparisonE = weak_odr dso_local constant { i8*, i8*, i8* } { i8* bitcast (i8** getelementptr inbounds (i8*, i8** @_ZTVN10__cxxabiv120__si_class_type_infoE, i64 2) to i8*), i8* getelementptr inbounds ([84 x i8], [84 x i8]* @_ZTSN6dealii15TriaRawIteratorINS_17MGDoFCellAccessorILi3ELi3EEEE20ExcInvalidComparisonE, i32 0, i32 0), i8* bitcast (i8** @_ZTIN6dealii13ExceptionBaseE to i8*) }, comdat, align 8
@_ZTVN6dealii12TriaIteratorINS_17MGDoFCellAccessorILi3ELi3EEEE27ExcAssignmentOfUnusedObjectE = weak_odr dso_local unnamed_addr constant { [6 x i8*] } { [6 x i8*] [i8* null, i8* bitcast ({ i8*, i8*, i8* }* @_ZTIN6dealii12TriaIteratorINS_17MGDoFCellAccessorILi3ELi3EEEE27ExcAssignmentOfUnusedObjectE to i8*), i8* bitcast (void (%"class.dealii::TriaIterator<dealii::MGDoFCellAccessor<3> >::ExcAssignmentOfUnusedObject"*)* @_ZN6dealii12TriaIteratorINS_17MGDoFCellAccessorILi3ELi3EEEE27ExcAssignmentOfUnusedObjectD2Ev to i8*), i8* bitcast (void (%"class.dealii::TriaIterator<dealii::MGDoFCellAccessor<3> >::ExcAssignmentOfUnusedObject"*)* @_ZN6dealii12TriaIteratorINS_17MGDoFCellAccessorILi3ELi3EEEE27ExcAssignmentOfUnusedObjectD0Ev to i8*), i8* bitcast (i8* (%"class.dealii::ExceptionBase"*)* @_ZNK6dealii13ExceptionBase4whatEv to i8*), i8* bitcast (void (%"class.dealii::ExceptionBase"*, %"class.std::basic_ostream"*)* @_ZNK6dealii13ExceptionBase10print_infoERSo to i8*)] }, comdat, align 8
@_ZTSN6dealii12TriaIteratorINS_17MGDoFCellAccessorILi3ELi3EEEE27ExcAssignmentOfUnusedObjectE = weak_odr dso_local constant [88 x i8] c"N6dealii12TriaIteratorINS_17MGDoFCellAccessorILi3ELi3EEEE27ExcAssignmentOfUnusedObjectE\00", comdat, align 1
@_ZTIN6dealii12TriaIteratorINS_17MGDoFCellAccessorILi3ELi3EEEE27ExcAssignmentOfUnusedObjectE = weak_odr dso_local constant { i8*, i8*, i8* } { i8* bitcast (i8** getelementptr inbounds (i8*, i8** @_ZTVN10__cxxabiv120__si_class_type_infoE, i64 2) to i8*), i8* getelementptr inbounds ([88 x i8], [88 x i8]* @_ZTSN6dealii12TriaIteratorINS_17MGDoFCellAccessorILi3ELi3EEEE27ExcAssignmentOfUnusedObjectE, i32 0, i32 0), i8* bitcast (i8** @_ZTIN6dealii13ExceptionBaseE to i8*) }, comdat, align 8
@_ZTVN6dealii18TriaActiveIteratorINS_17MGDoFCellAccessorILi3ELi3EEEE29ExcAssignmentOfInactiveObjectE = weak_odr dso_local unnamed_addr constant { [6 x i8*] } { [6 x i8*] [i8* null, i8* bitcast ({ i8*, i8*, i8* }* @_ZTIN6dealii18TriaActiveIteratorINS_17MGDoFCellAccessorILi3ELi3EEEE29ExcAssignmentOfInactiveObjectE to i8*), i8* bitcast (void (%"class.dealii::TriaActiveIterator<dealii::MGDoFCellAccessor<3> >::ExcAssignmentOfInactiveObject"*)* @_ZN6dealii18TriaActiveIteratorINS_17MGDoFCellAccessorILi3ELi3EEEE29ExcAssignmentOfInactiveObjectD2Ev to i8*), i8* bitcast (void (%"class.dealii::TriaActiveIterator<dealii::MGDoFCellAccessor<3> >::ExcAssignmentOfInactiveObject"*)* @_ZN6dealii18TriaActiveIteratorINS_17MGDoFCellAccessorILi3ELi3EEEE29ExcAssignmentOfInactiveObjectD0Ev to i8*), i8* bitcast (i8* (%"class.dealii::ExceptionBase"*)* @_ZNK6dealii13ExceptionBase4whatEv to i8*), i8* bitcast (void (%"class.dealii::ExceptionBase"*, %"class.std::basic_ostream"*)* @_ZNK6dealii13ExceptionBase10print_infoERSo to i8*)] }, comdat, align 8
@_ZTSN6dealii18TriaActiveIteratorINS_17MGDoFCellAccessorILi3ELi3EEEE29ExcAssignmentOfInactiveObjectE = weak_odr dso_local constant [96 x i8] c"N6dealii18TriaActiveIteratorINS_17MGDoFCellAccessorILi3ELi3EEEE29ExcAssignmentOfInactiveObjectE\00", comdat, align 1
@_ZTIN6dealii18TriaActiveIteratorINS_17MGDoFCellAccessorILi3ELi3EEEE29ExcAssignmentOfInactiveObjectE = weak_odr dso_local constant { i8*, i8*, i8* } { i8* bitcast (i8** getelementptr inbounds (i8*, i8** @_ZTVN10__cxxabiv120__si_class_type_infoE, i64 2) to i8*), i8* getelementptr inbounds ([96 x i8], [96 x i8]* @_ZTSN6dealii18TriaActiveIteratorINS_17MGDoFCellAccessorILi3ELi3EEEE29ExcAssignmentOfInactiveObjectE, i32 0, i32 0), i8* bitcast (i8** @_ZTIN6dealii13ExceptionBaseE to i8*) }, comdat, align 8
@_ZZN6dealii8internal12TriaAccessor14Implementation12vertex_indexILi3ELi3EEEjRKNS_12TriaAccessorILi2EXT_EXT0_EEEjE12switch_table = linkonce_odr dso_local constant [2 x [2 x i32]] [[2 x i32] [i32 1, i32 0], [2 x i32] [i32 0, i32 1]], comdat, align 16, !dbg !122
@_ZZN6dealii8internal12TriaAccessor14Implementation10line_indexILi3ELi3EEEjRKNS_12TriaAccessorILi3EXT_EXT0_EEEjE12lookup_table = linkonce_odr dso_local constant [12 x [2 x i32]] [[2 x i32] [i32 4, i32 0], [2 x i32] [i32 4, i32 1], [2 x i32] [i32 4, i32 2], [2 x i32] [i32 4, i32 3], [2 x i32] [i32 5, i32 0], [2 x i32] [i32 5, i32 1], [2 x i32] [i32 5, i32 2], [2 x i32] [i32 5, i32 3], [2 x i32] zeroinitializer, [2 x i32] [i32 1, i32 0], [2 x i32] [i32 0, i32 1], [2 x i32] [i32 1, i32 1]], comdat, align 16, !dbg !9042
@llvm.global_ctors = appending global [1 x { i32, void ()*, i8* }] [{ i32, void ()*, i8* } { i32 65535, void ()* @_GLOBAL__sub_I_mg_dof_accessor.cc, i8* null }]

@_ZN6dealii13MGDoFAccessorILi1ELi3ELi3EEC1Ev = weak_odr dso_local unnamed_addr alias void (%"class.dealii::MGDoFAccessor"*), void (%"class.dealii::MGDoFAccessor"*)* @_ZN6dealii13MGDoFAccessorILi1ELi3ELi3EEC2Ev
@_ZN6dealii13MGDoFAccessorILi1ELi3ELi3EEC1EPKNS_13TriangulationILi3ELi3EEEiiPKNS_12MGDoFHandlerILi3ELi3EEE = weak_odr dso_local unnamed_addr alias void (%"class.dealii::MGDoFAccessor"*, %"class.dealii::Triangulation"*, i32, i32, %"class.dealii::MGDoFHandler"*), void (%"class.dealii::MGDoFAccessor"*, %"class.dealii::Triangulation"*, i32, i32, %"class.dealii::MGDoFHandler"*)* @_ZN6dealii13MGDoFAccessorILi1ELi3ELi3EEC2EPKNS_13TriangulationILi3ELi3EEEiiPKNS_12MGDoFHandlerILi3ELi3EEE
@_ZN6dealii13MGDoFAccessorILi2ELi3ELi3EEC1Ev = weak_odr dso_local unnamed_addr alias void (%"class.dealii::MGDoFAccessor.36"*), void (%"class.dealii::MGDoFAccessor.36"*)* @_ZN6dealii13MGDoFAccessorILi2ELi3ELi3EEC2Ev
@_ZN6dealii13MGDoFAccessorILi2ELi3ELi3EEC1EPKNS_13TriangulationILi3ELi3EEEiiPKNS_12MGDoFHandlerILi3ELi3EEE = weak_odr dso_local unnamed_addr alias void (%"class.dealii::MGDoFAccessor.36"*, %"class.dealii::Triangulation"*, i32, i32, %"class.dealii::MGDoFHandler"*), void (%"class.dealii::MGDoFAccessor.36"*, %"class.dealii::Triangulation"*, i32, i32, %"class.dealii::MGDoFHandler"*)* @_ZN6dealii13MGDoFAccessorILi2ELi3ELi3EEC2EPKNS_13TriangulationILi3ELi3EEEiiPKNS_12MGDoFHandlerILi3ELi3EEE
@_ZN6dealii13MGDoFAccessorILi3ELi3ELi3EEC1Ev = weak_odr dso_local unnamed_addr alias void (%"class.dealii::MGDoFAccessor.40"*), void (%"class.dealii::MGDoFAccessor.40"*)* @_ZN6dealii13MGDoFAccessorILi3ELi3ELi3EEC2Ev
@_ZN6dealii13MGDoFAccessorILi3ELi3ELi3EEC1EPKNS_13TriangulationILi3ELi3EEEiiPKNS_12MGDoFHandlerILi3ELi3EEE = weak_odr dso_local unnamed_addr alias void (%"class.dealii::MGDoFAccessor.40"*, %"class.dealii::Triangulation"*, i32, i32, %"class.dealii::MGDoFHandler"*), void (%"class.dealii::MGDoFAccessor.40"*, %"class.dealii::Triangulation"*, i32, i32, %"class.dealii::MGDoFHandler"*)* @_ZN6dealii13MGDoFAccessorILi3ELi3ELi3EEC2EPKNS_13TriangulationILi3ELi3EEEiiPKNS_12MGDoFHandlerILi3ELi3EEE
@_ZN6dealii17MGDoFCellAccessorILi3ELi3EEC1EPKNS_13TriangulationILi3ELi3EEEiiPKNS_12MGDoFHandlerILi3ELi3EEE = weak_odr dso_local unnamed_addr alias void (%"class.dealii::MGDoFCellAccessor"*, %"class.dealii::Triangulation"*, i32, i32, %"class.dealii::MGDoFHandler"*), void (%"class.dealii::MGDoFCellAccessor"*, %"class.dealii::Triangulation"*, i32, i32, %"class.dealii::MGDoFHandler"*)* @_ZN6dealii17MGDoFCellAccessorILi3ELi3EEC2EPKNS_13TriangulationILi3ELi3EEEiiPKNS_12MGDoFHandlerILi3ELi3EEE
@_ZN6dealii15TriaRawIteratorINS_13MGDoFAccessorILi1ELi3ELi3EEEEC1Ev = weak_odr dso_local unnamed_addr alias void (%"class.dealii::TriaRawIterator"*), void (%"class.dealii::TriaRawIterator"*)* @_ZN6dealii15TriaRawIteratorINS_13MGDoFAccessorILi1ELi3ELi3EEEEC2Ev
@_ZN6dealii15TriaRawIteratorINS_13MGDoFAccessorILi1ELi3ELi3EEEEC1ERKS3_ = weak_odr dso_local unnamed_addr alias void (%"class.dealii::TriaRawIterator"*, %"class.dealii::TriaRawIterator"*), void (%"class.dealii::TriaRawIterator"*, %"class.dealii::TriaRawIterator"*)* @_ZN6dealii15TriaRawIteratorINS_13MGDoFAccessorILi1ELi3ELi3EEEEC2ERKS3_
@_ZN6dealii15TriaRawIteratorINS_13MGDoFAccessorILi1ELi3ELi3EEEEC1ERKS2_ = weak_odr dso_local unnamed_addr alias void (%"class.dealii::TriaRawIterator"*, %"class.dealii::MGDoFAccessor"*), void (%"class.dealii::TriaRawIterator"*, %"class.dealii::MGDoFAccessor"*)* @_ZN6dealii15TriaRawIteratorINS_13MGDoFAccessorILi1ELi3ELi3EEEEC2ERKS2_
@_ZN6dealii15TriaRawIteratorINS_13MGDoFAccessorILi1ELi3ELi3EEEEC1EPKNS_13TriangulationILi3ELi3EEEiiPKNS_12MGDoFHandlerILi3ELi3EEE = weak_odr dso_local unnamed_addr alias void (%"class.dealii::TriaRawIterator"*, %"class.dealii::Triangulation"*, i32, i32, %"class.dealii::MGDoFHandler"*), void (%"class.dealii::TriaRawIterator"*, %"class.dealii::Triangulation"*, i32, i32, %"class.dealii::MGDoFHandler"*)* @_ZN6dealii15TriaRawIteratorINS_13MGDoFAccessorILi1ELi3ELi3EEEEC2EPKNS_13TriangulationILi3ELi3EEEiiPKNS_12MGDoFHandlerILi3ELi3EEE
@_ZN6dealii15TriaRawIteratorINS_13MGDoFAccessorILi1ELi3ELi3EEEE25ExcDereferenceInvalidCellC1ES2_ = weak_odr dso_local unnamed_addr alias void (%"class.dealii::TriaRawIterator<dealii::MGDoFAccessor<1, 3> >::ExcDereferenceInvalidCell"*, %"class.dealii::MGDoFAccessor"*), void (%"class.dealii::TriaRawIterator<dealii::MGDoFAccessor<1, 3> >::ExcDereferenceInvalidCell"*, %"class.dealii::MGDoFAccessor"*)* @_ZN6dealii15TriaRawIteratorINS_13MGDoFAccessorILi1ELi3ELi3EEEE25ExcDereferenceInvalidCellC2ES2_
@_ZN6dealii15TriaRawIteratorINS_13MGDoFAccessorILi1ELi3ELi3EEEE25ExcDereferenceInvalidCellD1Ev = weak_odr dso_local unnamed_addr alias void (%"class.dealii::TriaRawIterator<dealii::MGDoFAccessor<1, 3> >::ExcDereferenceInvalidCell"*), void (%"class.dealii::TriaRawIterator<dealii::MGDoFAccessor<1, 3> >::ExcDereferenceInvalidCell"*)* @_ZN6dealii15TriaRawIteratorINS_13MGDoFAccessorILi1ELi3ELi3EEEE25ExcDereferenceInvalidCellD2Ev
@_ZN6dealii15TriaRawIteratorINS_13MGDoFAccessorILi1ELi3ELi3EEEE27ExcDereferenceInvalidObjectC1ES2_ = weak_odr dso_local unnamed_addr alias void (%"class.dealii::TriaRawIterator<dealii::MGDoFAccessor<1, 3> >::ExcDereferenceInvalidObject"*, %"class.dealii::MGDoFAccessor"*), void (%"class.dealii::TriaRawIterator<dealii::MGDoFAccessor<1, 3> >::ExcDereferenceInvalidObject"*, %"class.dealii::MGDoFAccessor"*)* @_ZN6dealii15TriaRawIteratorINS_13MGDoFAccessorILi1ELi3ELi3EEEE27ExcDereferenceInvalidObjectC2ES2_
@_ZN6dealii15TriaRawIteratorINS_13MGDoFAccessorILi1ELi3ELi3EEEE27ExcDereferenceInvalidObjectD1Ev = weak_odr dso_local unnamed_addr alias void (%"class.dealii::TriaRawIterator<dealii::MGDoFAccessor<1, 3> >::ExcDereferenceInvalidObject"*), void (%"class.dealii::TriaRawIterator<dealii::MGDoFAccessor<1, 3> >::ExcDereferenceInvalidObject"*)* @_ZN6dealii15TriaRawIteratorINS_13MGDoFAccessorILi1ELi3ELi3EEEE27ExcDereferenceInvalidObjectD2Ev
@_ZN6dealii12TriaIteratorINS_13MGDoFAccessorILi1ELi3ELi3EEEEC1Ev = weak_odr dso_local unnamed_addr alias void (%"class.dealii::TriaIterator"*), void (%"class.dealii::TriaIterator"*)* @_ZN6dealii12TriaIteratorINS_13MGDoFAccessorILi1ELi3ELi3EEEEC2Ev
@_ZN6dealii12TriaIteratorINS_13MGDoFAccessorILi1ELi3ELi3EEEEC1ERKS3_ = weak_odr dso_local unnamed_addr alias void (%"class.dealii::TriaIterator"*, %"class.dealii::TriaIterator"*), void (%"class.dealii::TriaIterator"*, %"class.dealii::TriaIterator"*)* @_ZN6dealii12TriaIteratorINS_13MGDoFAccessorILi1ELi3ELi3EEEEC2ERKS3_
@_ZN6dealii12TriaIteratorINS_13MGDoFAccessorILi1ELi3ELi3EEEEC1ERKNS_15TriaRawIteratorIS2_EE = weak_odr dso_local unnamed_addr alias void (%"class.dealii::TriaIterator"*, %"class.dealii::TriaRawIterator"*), void (%"class.dealii::TriaIterator"*, %"class.dealii::TriaRawIterator"*)* @_ZN6dealii12TriaIteratorINS_13MGDoFAccessorILi1ELi3ELi3EEEEC2ERKNS_15TriaRawIteratorIS2_EE
@_ZN6dealii12TriaIteratorINS_13MGDoFAccessorILi1ELi3ELi3EEEEC1EPKNS_13TriangulationILi3ELi3EEEiiPKNS_12MGDoFHandlerILi3ELi3EEE = weak_odr dso_local unnamed_addr alias void (%"class.dealii::TriaIterator"*, %"class.dealii::Triangulation"*, i32, i32, %"class.dealii::MGDoFHandler"*), void (%"class.dealii::TriaIterator"*, %"class.dealii::Triangulation"*, i32, i32, %"class.dealii::MGDoFHandler"*)* @_ZN6dealii12TriaIteratorINS_13MGDoFAccessorILi1ELi3ELi3EEEEC2EPKNS_13TriangulationILi3ELi3EEEiiPKNS_12MGDoFHandlerILi3ELi3EEE
@_ZN6dealii18TriaActiveIteratorINS_13MGDoFAccessorILi1ELi3ELi3EEEEC1Ev = weak_odr dso_local unnamed_addr alias void (%"class.dealii::TriaActiveIterator"*), void (%"class.dealii::TriaActiveIterator"*)* @_ZN6dealii18TriaActiveIteratorINS_13MGDoFAccessorILi1ELi3ELi3EEEEC2Ev
@_ZN6dealii18TriaActiveIteratorINS_13MGDoFAccessorILi1ELi3ELi3EEEEC1ERKS3_ = weak_odr dso_local unnamed_addr alias void (%"class.dealii::TriaActiveIterator"*, %"class.dealii::TriaActiveIterator"*), void (%"class.dealii::TriaActiveIterator"*, %"class.dealii::TriaActiveIterator"*)* @_ZN6dealii18TriaActiveIteratorINS_13MGDoFAccessorILi1ELi3ELi3EEEEC2ERKS3_
@_ZN6dealii18TriaActiveIteratorINS_13MGDoFAccessorILi1ELi3ELi3EEEEC1ERKNS_15TriaRawIteratorIS2_EE = weak_odr dso_local unnamed_addr alias void (%"class.dealii::TriaActiveIterator"*, %"class.dealii::TriaRawIterator"*), void (%"class.dealii::TriaActiveIterator"*, %"class.dealii::TriaRawIterator"*)* @_ZN6dealii18TriaActiveIteratorINS_13MGDoFAccessorILi1ELi3ELi3EEEEC2ERKNS_15TriaRawIteratorIS2_EE
@_ZN6dealii18TriaActiveIteratorINS_13MGDoFAccessorILi1ELi3ELi3EEEEC1ERKNS_12TriaIteratorIS2_EE = weak_odr dso_local unnamed_addr alias void (%"class.dealii::TriaActiveIterator"*, %"class.dealii::TriaIterator"*), void (%"class.dealii::TriaActiveIterator"*, %"class.dealii::TriaIterator"*)* @_ZN6dealii18TriaActiveIteratorINS_13MGDoFAccessorILi1ELi3ELi3EEEEC2ERKNS_12TriaIteratorIS2_EE
@_ZN6dealii18TriaActiveIteratorINS_13MGDoFAccessorILi1ELi3ELi3EEEEC1EPKNS_13TriangulationILi3ELi3EEEiiPKNS_12MGDoFHandlerILi3ELi3EEE = weak_odr dso_local unnamed_addr alias void (%"class.dealii::TriaActiveIterator"*, %"class.dealii::Triangulation"*, i32, i32, %"class.dealii::MGDoFHandler"*), void (%"class.dealii::TriaActiveIterator"*, %"class.dealii::Triangulation"*, i32, i32, %"class.dealii::MGDoFHandler"*)* @_ZN6dealii18TriaActiveIteratorINS_13MGDoFAccessorILi1ELi3ELi3EEEEC2EPKNS_13TriangulationILi3ELi3EEEiiPKNS_12MGDoFHandlerILi3ELi3EEE
@_ZN6dealii15TriaRawIteratorINS_13MGDoFAccessorILi2ELi3ELi3EEEEC1Ev = weak_odr dso_local unnamed_addr alias void (%"class.dealii::TriaRawIterator.170"*), void (%"class.dealii::TriaRawIterator.170"*)* @_ZN6dealii15TriaRawIteratorINS_13MGDoFAccessorILi2ELi3ELi3EEEEC2Ev
@_ZN6dealii15TriaRawIteratorINS_13MGDoFAccessorILi2ELi3ELi3EEEEC1ERKS3_ = weak_odr dso_local unnamed_addr alias void (%"class.dealii::TriaRawIterator.170"*, %"class.dealii::TriaRawIterator.170"*), void (%"class.dealii::TriaRawIterator.170"*, %"class.dealii::TriaRawIterator.170"*)* @_ZN6dealii15TriaRawIteratorINS_13MGDoFAccessorILi2ELi3ELi3EEEEC2ERKS3_
@_ZN6dealii15TriaRawIteratorINS_13MGDoFAccessorILi2ELi3ELi3EEEEC1ERKS2_ = weak_odr dso_local unnamed_addr alias void (%"class.dealii::TriaRawIterator.170"*, %"class.dealii::MGDoFAccessor.36"*), void (%"class.dealii::TriaRawIterator.170"*, %"class.dealii::MGDoFAccessor.36"*)* @_ZN6dealii15TriaRawIteratorINS_13MGDoFAccessorILi2ELi3ELi3EEEEC2ERKS2_
@_ZN6dealii15TriaRawIteratorINS_13MGDoFAccessorILi2ELi3ELi3EEEEC1EPKNS_13TriangulationILi3ELi3EEEiiPKNS_12MGDoFHandlerILi3ELi3EEE = weak_odr dso_local unnamed_addr alias void (%"class.dealii::TriaRawIterator.170"*, %"class.dealii::Triangulation"*, i32, i32, %"class.dealii::MGDoFHandler"*), void (%"class.dealii::TriaRawIterator.170"*, %"class.dealii::Triangulation"*, i32, i32, %"class.dealii::MGDoFHandler"*)* @_ZN6dealii15TriaRawIteratorINS_13MGDoFAccessorILi2ELi3ELi3EEEEC2EPKNS_13TriangulationILi3ELi3EEEiiPKNS_12MGDoFHandlerILi3ELi3EEE
@_ZN6dealii15TriaRawIteratorINS_13MGDoFAccessorILi2ELi3ELi3EEEE25ExcDereferenceInvalidCellC1ES2_ = weak_odr dso_local unnamed_addr alias void (%"class.dealii::TriaRawIterator<dealii::MGDoFAccessor<2, 3> >::ExcDereferenceInvalidCell"*, %"class.dealii::MGDoFAccessor.36"*), void (%"class.dealii::TriaRawIterator<dealii::MGDoFAccessor<2, 3> >::ExcDereferenceInvalidCell"*, %"class.dealii::MGDoFAccessor.36"*)* @_ZN6dealii15TriaRawIteratorINS_13MGDoFAccessorILi2ELi3ELi3EEEE25ExcDereferenceInvalidCellC2ES2_
@_ZN6dealii15TriaRawIteratorINS_13MGDoFAccessorILi2ELi3ELi3EEEE25ExcDereferenceInvalidCellD1Ev = weak_odr dso_local unnamed_addr alias void (%"class.dealii::TriaRawIterator<dealii::MGDoFAccessor<2, 3> >::ExcDereferenceInvalidCell"*), void (%"class.dealii::TriaRawIterator<dealii::MGDoFAccessor<2, 3> >::ExcDereferenceInvalidCell"*)* @_ZN6dealii15TriaRawIteratorINS_13MGDoFAccessorILi2ELi3ELi3EEEE25ExcDereferenceInvalidCellD2Ev
@_ZN6dealii15TriaRawIteratorINS_13MGDoFAccessorILi2ELi3ELi3EEEE27ExcDereferenceInvalidObjectC1ES2_ = weak_odr dso_local unnamed_addr alias void (%"class.dealii::TriaRawIterator<dealii::MGDoFAccessor<2, 3> >::ExcDereferenceInvalidObject"*, %"class.dealii::MGDoFAccessor.36"*), void (%"class.dealii::TriaRawIterator<dealii::MGDoFAccessor<2, 3> >::ExcDereferenceInvalidObject"*, %"class.dealii::MGDoFAccessor.36"*)* @_ZN6dealii15TriaRawIteratorINS_13MGDoFAccessorILi2ELi3ELi3EEEE27ExcDereferenceInvalidObjectC2ES2_
@_ZN6dealii15TriaRawIteratorINS_13MGDoFAccessorILi2ELi3ELi3EEEE27ExcDereferenceInvalidObjectD1Ev = weak_odr dso_local unnamed_addr alias void (%"class.dealii::TriaRawIterator<dealii::MGDoFAccessor<2, 3> >::ExcDereferenceInvalidObject"*), void (%"class.dealii::TriaRawIterator<dealii::MGDoFAccessor<2, 3> >::ExcDereferenceInvalidObject"*)* @_ZN6dealii15TriaRawIteratorINS_13MGDoFAccessorILi2ELi3ELi3EEEE27ExcDereferenceInvalidObjectD2Ev
@_ZN6dealii12TriaIteratorINS_13MGDoFAccessorILi2ELi3ELi3EEEEC1Ev = weak_odr dso_local unnamed_addr alias void (%"class.dealii::TriaIterator.169"*), void (%"class.dealii::TriaIterator.169"*)* @_ZN6dealii12TriaIteratorINS_13MGDoFAccessorILi2ELi3ELi3EEEEC2Ev
@_ZN6dealii12TriaIteratorINS_13MGDoFAccessorILi2ELi3ELi3EEEEC1ERKS3_ = weak_odr dso_local unnamed_addr alias void (%"class.dealii::TriaIterator.169"*, %"class.dealii::TriaIterator.169"*), void (%"class.dealii::TriaIterator.169"*, %"class.dealii::TriaIterator.169"*)* @_ZN6dealii12TriaIteratorINS_13MGDoFAccessorILi2ELi3ELi3EEEEC2ERKS3_
@_ZN6dealii12TriaIteratorINS_13MGDoFAccessorILi2ELi3ELi3EEEEC1ERKNS_15TriaRawIteratorIS2_EE = weak_odr dso_local unnamed_addr alias void (%"class.dealii::TriaIterator.169"*, %"class.dealii::TriaRawIterator.170"*), void (%"class.dealii::TriaIterator.169"*, %"class.dealii::TriaRawIterator.170"*)* @_ZN6dealii12TriaIteratorINS_13MGDoFAccessorILi2ELi3ELi3EEEEC2ERKNS_15TriaRawIteratorIS2_EE
@_ZN6dealii12TriaIteratorINS_13MGDoFAccessorILi2ELi3ELi3EEEEC1EPKNS_13TriangulationILi3ELi3EEEiiPKNS_12MGDoFHandlerILi3ELi3EEE = weak_odr dso_local unnamed_addr alias void (%"class.dealii::TriaIterator.169"*, %"class.dealii::Triangulation"*, i32, i32, %"class.dealii::MGDoFHandler"*), void (%"class.dealii::TriaIterator.169"*, %"class.dealii::Triangulation"*, i32, i32, %"class.dealii::MGDoFHandler"*)* @_ZN6dealii12TriaIteratorINS_13MGDoFAccessorILi2ELi3ELi3EEEEC2EPKNS_13TriangulationILi3ELi3EEEiiPKNS_12MGDoFHandlerILi3ELi3EEE
@_ZN6dealii18TriaActiveIteratorINS_13MGDoFAccessorILi2ELi3ELi3EEEEC1Ev = weak_odr dso_local unnamed_addr alias void (%"class.dealii::TriaActiveIterator.181"*), void (%"class.dealii::TriaActiveIterator.181"*)* @_ZN6dealii18TriaActiveIteratorINS_13MGDoFAccessorILi2ELi3ELi3EEEEC2Ev
@_ZN6dealii18TriaActiveIteratorINS_13MGDoFAccessorILi2ELi3ELi3EEEEC1ERKS3_ = weak_odr dso_local unnamed_addr alias void (%"class.dealii::TriaActiveIterator.181"*, %"class.dealii::TriaActiveIterator.181"*), void (%"class.dealii::TriaActiveIterator.181"*, %"class.dealii::TriaActiveIterator.181"*)* @_ZN6dealii18TriaActiveIteratorINS_13MGDoFAccessorILi2ELi3ELi3EEEEC2ERKS3_
@_ZN6dealii18TriaActiveIteratorINS_13MGDoFAccessorILi2ELi3ELi3EEEEC1ERKNS_15TriaRawIteratorIS2_EE = weak_odr dso_local unnamed_addr alias void (%"class.dealii::TriaActiveIterator.181"*, %"class.dealii::TriaRawIterator.170"*), void (%"class.dealii::TriaActiveIterator.181"*, %"class.dealii::TriaRawIterator.170"*)* @_ZN6dealii18TriaActiveIteratorINS_13MGDoFAccessorILi2ELi3ELi3EEEEC2ERKNS_15TriaRawIteratorIS2_EE
@_ZN6dealii18TriaActiveIteratorINS_13MGDoFAccessorILi2ELi3ELi3EEEEC1ERKNS_12TriaIteratorIS2_EE = weak_odr dso_local unnamed_addr alias void (%"class.dealii::TriaActiveIterator.181"*, %"class.dealii::TriaIterator.169"*), void (%"class.dealii::TriaActiveIterator.181"*, %"class.dealii::TriaIterator.169"*)* @_ZN6dealii18TriaActiveIteratorINS_13MGDoFAccessorILi2ELi3ELi3EEEEC2ERKNS_12TriaIteratorIS2_EE
@_ZN6dealii18TriaActiveIteratorINS_13MGDoFAccessorILi2ELi3ELi3EEEEC1EPKNS_13TriangulationILi3ELi3EEEiiPKNS_12MGDoFHandlerILi3ELi3EEE = weak_odr dso_local unnamed_addr alias void (%"class.dealii::TriaActiveIterator.181"*, %"class.dealii::Triangulation"*, i32, i32, %"class.dealii::MGDoFHandler"*), void (%"class.dealii::TriaActiveIterator.181"*, %"class.dealii::Triangulation"*, i32, i32, %"class.dealii::MGDoFHandler"*)* @_ZN6dealii18TriaActiveIteratorINS_13MGDoFAccessorILi2ELi3ELi3EEEEC2EPKNS_13TriangulationILi3ELi3EEEiiPKNS_12MGDoFHandlerILi3ELi3EEE
@_ZN6dealii15TriaRawIteratorINS_17MGDoFCellAccessorILi3ELi3EEEEC1Ev = weak_odr dso_local unnamed_addr alias void (%"class.dealii::TriaRawIterator.176"*), void (%"class.dealii::TriaRawIterator.176"*)* @_ZN6dealii15TriaRawIteratorINS_17MGDoFCellAccessorILi3ELi3EEEEC2Ev
@_ZN6dealii15TriaRawIteratorINS_17MGDoFCellAccessorILi3ELi3EEEEC1ERKS3_ = weak_odr dso_local unnamed_addr alias void (%"class.dealii::TriaRawIterator.176"*, %"class.dealii::TriaRawIterator.176"*), void (%"class.dealii::TriaRawIterator.176"*, %"class.dealii::TriaRawIterator.176"*)* @_ZN6dealii15TriaRawIteratorINS_17MGDoFCellAccessorILi3ELi3EEEEC2ERKS3_
@_ZN6dealii15TriaRawIteratorINS_17MGDoFCellAccessorILi3ELi3EEEEC1ERKS2_ = weak_odr dso_local unnamed_addr alias void (%"class.dealii::TriaRawIterator.176"*, %"class.dealii::MGDoFCellAccessor"*), void (%"class.dealii::TriaRawIterator.176"*, %"class.dealii::MGDoFCellAccessor"*)* @_ZN6dealii15TriaRawIteratorINS_17MGDoFCellAccessorILi3ELi3EEEEC2ERKS2_
@_ZN6dealii15TriaRawIteratorINS_17MGDoFCellAccessorILi3ELi3EEEEC1EPKNS_13TriangulationILi3ELi3EEEiiPKNS_12MGDoFHandlerILi3ELi3EEE = weak_odr dso_local unnamed_addr alias void (%"class.dealii::TriaRawIterator.176"*, %"class.dealii::Triangulation"*, i32, i32, %"class.dealii::MGDoFHandler"*), void (%"class.dealii::TriaRawIterator.176"*, %"class.dealii::Triangulation"*, i32, i32, %"class.dealii::MGDoFHandler"*)* @_ZN6dealii15TriaRawIteratorINS_17MGDoFCellAccessorILi3ELi3EEEEC2EPKNS_13TriangulationILi3ELi3EEEiiPKNS_12MGDoFHandlerILi3ELi3EEE
@_ZN6dealii15TriaRawIteratorINS_17MGDoFCellAccessorILi3ELi3EEEE25ExcDereferenceInvalidCellC1ES2_ = weak_odr dso_local unnamed_addr alias void (%"class.dealii::TriaRawIterator<dealii::MGDoFCellAccessor<3> >::ExcDereferenceInvalidCell"*, %"class.dealii::MGDoFCellAccessor"*), void (%"class.dealii::TriaRawIterator<dealii::MGDoFCellAccessor<3> >::ExcDereferenceInvalidCell"*, %"class.dealii::MGDoFCellAccessor"*)* @_ZN6dealii15TriaRawIteratorINS_17MGDoFCellAccessorILi3ELi3EEEE25ExcDereferenceInvalidCellC2ES2_
@_ZN6dealii15TriaRawIteratorINS_17MGDoFCellAccessorILi3ELi3EEEE25ExcDereferenceInvalidCellD1Ev = weak_odr dso_local unnamed_addr alias void (%"class.dealii::TriaRawIterator<dealii::MGDoFCellAccessor<3> >::ExcDereferenceInvalidCell"*), void (%"class.dealii::TriaRawIterator<dealii::MGDoFCellAccessor<3> >::ExcDereferenceInvalidCell"*)* @_ZN6dealii15TriaRawIteratorINS_17MGDoFCellAccessorILi3ELi3EEEE25ExcDereferenceInvalidCellD2Ev
@_ZN6dealii15TriaRawIteratorINS_17MGDoFCellAccessorILi3ELi3EEEE27ExcDereferenceInvalidObjectC1ES2_ = weak_odr dso_local unnamed_addr alias void (%"class.dealii::TriaRawIterator<dealii::MGDoFCellAccessor<3> >::ExcDereferenceInvalidObject"*, %"class.dealii::MGDoFCellAccessor"*), void (%"class.dealii::TriaRawIterator<dealii::MGDoFCellAccessor<3> >::ExcDereferenceInvalidObject"*, %"class.dealii::MGDoFCellAccessor"*)* @_ZN6dealii15TriaRawIteratorINS_17MGDoFCellAccessorILi3ELi3EEEE27ExcDereferenceInvalidObjectC2ES2_
@_ZN6dealii15TriaRawIteratorINS_17MGDoFCellAccessorILi3ELi3EEEE27ExcDereferenceInvalidObjectD1Ev = weak_odr dso_local unnamed_addr alias void (%"class.dealii::TriaRawIterator<dealii::MGDoFCellAccessor<3> >::ExcDereferenceInvalidObject"*), void (%"class.dealii::TriaRawIterator<dealii::MGDoFCellAccessor<3> >::ExcDereferenceInvalidObject"*)* @_ZN6dealii15TriaRawIteratorINS_17MGDoFCellAccessorILi3ELi3EEEE27ExcDereferenceInvalidObjectD2Ev
@_ZN6dealii12TriaIteratorINS_17MGDoFCellAccessorILi3ELi3EEEEC1Ev = weak_odr dso_local unnamed_addr alias void (%"class.dealii::TriaIterator.175"*), void (%"class.dealii::TriaIterator.175"*)* @_ZN6dealii12TriaIteratorINS_17MGDoFCellAccessorILi3ELi3EEEEC2Ev
@_ZN6dealii12TriaIteratorINS_17MGDoFCellAccessorILi3ELi3EEEEC1ERKS3_ = weak_odr dso_local unnamed_addr alias void (%"class.dealii::TriaIterator.175"*, %"class.dealii::TriaIterator.175"*), void (%"class.dealii::TriaIterator.175"*, %"class.dealii::TriaIterator.175"*)* @_ZN6dealii12TriaIteratorINS_17MGDoFCellAccessorILi3ELi3EEEEC2ERKS3_
@_ZN6dealii12TriaIteratorINS_17MGDoFCellAccessorILi3ELi3EEEEC1ERKNS_15TriaRawIteratorIS2_EE = weak_odr dso_local unnamed_addr alias void (%"class.dealii::TriaIterator.175"*, %"class.dealii::TriaRawIterator.176"*), void (%"class.dealii::TriaIterator.175"*, %"class.dealii::TriaRawIterator.176"*)* @_ZN6dealii12TriaIteratorINS_17MGDoFCellAccessorILi3ELi3EEEEC2ERKNS_15TriaRawIteratorIS2_EE
@_ZN6dealii12TriaIteratorINS_17MGDoFCellAccessorILi3ELi3EEEEC1EPKNS_13TriangulationILi3ELi3EEEiiPKNS_12MGDoFHandlerILi3ELi3EEE = weak_odr dso_local unnamed_addr alias void (%"class.dealii::TriaIterator.175"*, %"class.dealii::Triangulation"*, i32, i32, %"class.dealii::MGDoFHandler"*), void (%"class.dealii::TriaIterator.175"*, %"class.dealii::Triangulation"*, i32, i32, %"class.dealii::MGDoFHandler"*)* @_ZN6dealii12TriaIteratorINS_17MGDoFCellAccessorILi3ELi3EEEEC2EPKNS_13TriangulationILi3ELi3EEEiiPKNS_12MGDoFHandlerILi3ELi3EEE
@_ZN6dealii18TriaActiveIteratorINS_17MGDoFCellAccessorILi3ELi3EEEEC1Ev = weak_odr dso_local unnamed_addr alias void (%"class.dealii::TriaActiveIterator.182"*), void (%"class.dealii::TriaActiveIterator.182"*)* @_ZN6dealii18TriaActiveIteratorINS_17MGDoFCellAccessorILi3ELi3EEEEC2Ev
@_ZN6dealii18TriaActiveIteratorINS_17MGDoFCellAccessorILi3ELi3EEEEC1ERKS3_ = weak_odr dso_local unnamed_addr alias void (%"class.dealii::TriaActiveIterator.182"*, %"class.dealii::TriaActiveIterator.182"*), void (%"class.dealii::TriaActiveIterator.182"*, %"class.dealii::TriaActiveIterator.182"*)* @_ZN6dealii18TriaActiveIteratorINS_17MGDoFCellAccessorILi3ELi3EEEEC2ERKS3_
@_ZN6dealii18TriaActiveIteratorINS_17MGDoFCellAccessorILi3ELi3EEEEC1ERKNS_15TriaRawIteratorIS2_EE = weak_odr dso_local unnamed_addr alias void (%"class.dealii::TriaActiveIterator.182"*, %"class.dealii::TriaRawIterator.176"*), void (%"class.dealii::TriaActiveIterator.182"*, %"class.dealii::TriaRawIterator.176"*)* @_ZN6dealii18TriaActiveIteratorINS_17MGDoFCellAccessorILi3ELi3EEEEC2ERKNS_15TriaRawIteratorIS2_EE
@_ZN6dealii18TriaActiveIteratorINS_17MGDoFCellAccessorILi3ELi3EEEEC1ERKNS_12TriaIteratorIS2_EE = weak_odr dso_local unnamed_addr alias void (%"class.dealii::TriaActiveIterator.182"*, %"class.dealii::TriaIterator.175"*), void (%"class.dealii::TriaActiveIterator.182"*, %"class.dealii::TriaIterator.175"*)* @_ZN6dealii18TriaActiveIteratorINS_17MGDoFCellAccessorILi3ELi3EEEEC2ERKNS_12TriaIteratorIS2_EE
@_ZN6dealii18TriaActiveIteratorINS_17MGDoFCellAccessorILi3ELi3EEEEC1EPKNS_13TriangulationILi3ELi3EEEiiPKNS_12MGDoFHandlerILi3ELi3EEE = weak_odr dso_local unnamed_addr alias void (%"class.dealii::TriaActiveIterator.182"*, %"class.dealii::Triangulation"*, i32, i32, %"class.dealii::MGDoFHandler"*), void (%"class.dealii::TriaActiveIterator.182"*, %"class.dealii::Triangulation"*, i32, i32, %"class.dealii::MGDoFHandler"*)* @_ZN6dealii18TriaActiveIteratorINS_17MGDoFCellAccessorILi3ELi3EEEEC2EPKNS_13TriangulationILi3ELi3EEEiiPKNS_12MGDoFHandlerILi3ELi3EEE

; Function Attrs: noinline uwtable
define internal void @__cxx_global_var_init() #0 section ".text.startup" !dbg !10452 {
entry:
  call void @_ZN5boost3argILi1EEC2Ev(%"struct.boost::arg"* @_ZN12_GLOBAL__N_12_1E), !dbg !10453
  ret void, !dbg !10453
}

; Function Attrs: noinline nounwind uwtable
define linkonce_odr dso_local void @_ZN5boost3argILi1EEC2Ev(%"struct.boost::arg"* %this) unnamed_addr #1 comdat align 2 !dbg !10454 {
entry:
  %this.addr = alloca %"struct.boost::arg"*, align 8
  store %"struct.boost::arg"* %this, %"struct.boost::arg"** %this.addr, align 8
  call void @llvm.dbg.declare(metadata %"struct.boost::arg"** %this.addr, metadata !10455, metadata !DIExpression()), !dbg !10457
  %this1 = load %"struct.boost::arg"*, %"struct.boost::arg"** %this.addr, align 8
  ret void, !dbg !10458
}

; Function Attrs: noinline uwtable
define internal void @__cxx_global_var_init.1() #0 section ".text.startup" !dbg !10459 {
entry:
  call void @_ZN5boost3argILi2EEC2Ev(%"struct.boost::arg.0"* @_ZN12_GLOBAL__N_12_2E), !dbg !10460
  ret void, !dbg !10460
}

; Function Attrs: noinline nounwind uwtable
define linkonce_odr dso_local void @_ZN5boost3argILi2EEC2Ev(%"struct.boost::arg.0"* %this) unnamed_addr #1 comdat align 2 !dbg !10461 {
entry:
  %this.addr = alloca %"struct.boost::arg.0"*, align 8
  store %"struct.boost::arg.0"* %this, %"struct.boost::arg.0"** %this.addr, align 8
  call void @llvm.dbg.declare(metadata %"struct.boost::arg.0"** %this.addr, metadata !10462, metadata !DIExpression()), !dbg !10464
  %this1 = load %"struct.boost::arg.0"*, %"struct.boost::arg.0"** %this.addr, align 8
  ret void, !dbg !10465
}

; Function Attrs: noinline uwtable
define internal void @__cxx_global_var_init.2() #0 section ".text.startup" !dbg !10466 {
entry:
  call void @_ZN5boost3argILi3EEC2Ev(%"struct.boost::arg.2"* @_ZN12_GLOBAL__N_12_3E), !dbg !10467
  ret void, !dbg !10467
}

; Function Attrs: noinline nounwind uwtable
define linkonce_odr dso_local void @_ZN5boost3argILi3EEC2Ev(%"struct.boost::arg.2"* %this) unnamed_addr #1 comdat align 2 !dbg !10468 {
entry:
  %this.addr = alloca %"struct.boost::arg.2"*, align 8
  store %"struct.boost::arg.2"* %this, %"struct.boost::arg.2"** %this.addr, align 8
  call void @llvm.dbg.declare(metadata %"struct.boost::arg.2"** %this.addr, metadata !10469, metadata !DIExpression()), !dbg !10471
  %this1 = load %"struct.boost::arg.2"*, %"struct.boost::arg.2"** %this.addr, align 8
  ret void, !dbg !10472
}

; Function Attrs: noinline uwtable
define internal void @__cxx_global_var_init.3() #0 section ".text.startup" !dbg !10473 {
entry:
  call void @_ZN5boost3argILi4EEC2Ev(%"struct.boost::arg.4"* @_ZN12_GLOBAL__N_12_4E), !dbg !10474
  ret void, !dbg !10474
}

; Function Attrs: noinline nounwind uwtable
define linkonce_odr dso_local void @_ZN5boost3argILi4EEC2Ev(%"struct.boost::arg.4"* %this) unnamed_addr #1 comdat align 2 !dbg !10475 {
entry:
  %this.addr = alloca %"struct.boost::arg.4"*, align 8
  store %"struct.boost::arg.4"* %this, %"struct.boost::arg.4"** %this.addr, align 8
  call void @llvm.dbg.declare(metadata %"struct.boost::arg.4"** %this.addr, metadata !10476, metadata !DIExpression()), !dbg !10478
  %this1 = load %"struct.boost::arg.4"*, %"struct.boost::arg.4"** %this.addr, align 8
  ret void, !dbg !10479
}

; Function Attrs: noinline uwtable
define internal void @__cxx_global_var_init.4() #0 section ".text.startup" !dbg !10480 {
entry:
  call void @_ZN5boost3argILi5EEC2Ev(%"struct.boost::arg.6"* @_ZN12_GLOBAL__N_12_5E), !dbg !10481
  ret void, !dbg !10481
}

; Function Attrs: noinline nounwind uwtable
define linkonce_odr dso_local void @_ZN5boost3argILi5EEC2Ev(%"struct.boost::arg.6"* %this) unnamed_addr #1 comdat align 2 !dbg !10482 {
entry:
  %this.addr = alloca %"struct.boost::arg.6"*, align 8
  store %"struct.boost::arg.6"* %this, %"struct.boost::arg.6"** %this.addr, align 8
  call void @llvm.dbg.declare(metadata %"struct.boost::arg.6"** %this.addr, metadata !10483, metadata !DIExpression()), !dbg !10485
  %this1 = load %"struct.boost::arg.6"*, %"struct.boost::arg.6"** %this.addr, align 8
  ret void, !dbg !10486
}

; Function Attrs: noinline uwtable
define internal void @__cxx_global_var_init.5() #0 section ".text.startup" !dbg !10487 {
entry:
  call void @_ZN5boost3argILi6EEC2Ev(%"struct.boost::arg.8"* @_ZN12_GLOBAL__N_12_6E), !dbg !10488
  ret void, !dbg !10488
}

; Function Attrs: noinline nounwind uwtable
define linkonce_odr dso_local void @_ZN5boost3argILi6EEC2Ev(%"struct.boost::arg.8"* %this) unnamed_addr #1 comdat align 2 !dbg !10489 {
entry:
  %this.addr = alloca %"struct.boost::arg.8"*, align 8
  store %"struct.boost::arg.8"* %this, %"struct.boost::arg.8"** %this.addr, align 8
  call void @llvm.dbg.declare(metadata %"struct.boost::arg.8"** %this.addr, metadata !10490, metadata !DIExpression()), !dbg !10492
  %this1 = load %"struct.boost::arg.8"*, %"struct.boost::arg.8"** %this.addr, align 8
  ret void, !dbg !10493
}

; Function Attrs: noinline uwtable
define internal void @__cxx_global_var_init.6() #0 section ".text.startup" !dbg !10494 {
entry:
  call void @_ZN5boost3argILi7EEC2Ev(%"struct.boost::arg.10"* @_ZN12_GLOBAL__N_12_7E), !dbg !10495
  ret void, !dbg !10495
}

; Function Attrs: noinline nounwind uwtable
define linkonce_odr dso_local void @_ZN5boost3argILi7EEC2Ev(%"struct.boost::arg.10"* %this) unnamed_addr #1 comdat align 2 !dbg !10496 {
entry:
  %this.addr = alloca %"struct.boost::arg.10"*, align 8
  store %"struct.boost::arg.10"* %this, %"struct.boost::arg.10"** %this.addr, align 8
  call void @llvm.dbg.declare(metadata %"struct.boost::arg.10"** %this.addr, metadata !10497, metadata !DIExpression()), !dbg !10499
  %this1 = load %"struct.boost::arg.10"*, %"struct.boost::arg.10"** %this.addr, align 8
  ret void, !dbg !10500
}

; Function Attrs: noinline uwtable
define internal void @__cxx_global_var_init.7() #0 section ".text.startup" !dbg !10501 {
entry:
  call void @_ZN5boost3argILi8EEC2Ev(%"struct.boost::arg.12"* @_ZN12_GLOBAL__N_12_8E), !dbg !10502
  ret void, !dbg !10502
}

; Function Attrs: noinline nounwind uwtable
define linkonce_odr dso_local void @_ZN5boost3argILi8EEC2Ev(%"struct.boost::arg.12"* %this) unnamed_addr #1 comdat align 2 !dbg !10503 {
entry:
  %this.addr = alloca %"struct.boost::arg.12"*, align 8
  store %"struct.boost::arg.12"* %this, %"struct.boost::arg.12"** %this.addr, align 8
  call void @llvm.dbg.declare(metadata %"struct.boost::arg.12"** %this.addr, metadata !10504, metadata !DIExpression()), !dbg !10506
  %this1 = load %"struct.boost::arg.12"*, %"struct.boost::arg.12"** %this.addr, align 8
  ret void, !dbg !10507
}

; Function Attrs: noinline uwtable
define internal void @__cxx_global_var_init.8() #0 section ".text.startup" !dbg !10508 {
entry:
  call void @_ZN5boost3argILi9EEC2Ev(%"struct.boost::arg.14"* @_ZN12_GLOBAL__N_12_9E), !dbg !10509
  ret void, !dbg !10509
}

; Function Attrs: noinline nounwind uwtable
define linkonce_odr dso_local void @_ZN5boost3argILi9EEC2Ev(%"struct.boost::arg.14"* %this) unnamed_addr #1 comdat align 2 !dbg !10510 {
entry:
  %this.addr = alloca %"struct.boost::arg.14"*, align 8
  store %"struct.boost::arg.14"* %this, %"struct.boost::arg.14"** %this.addr, align 8
  call void @llvm.dbg.declare(metadata %"struct.boost::arg.14"** %this.addr, metadata !10511, metadata !DIExpression()), !dbg !10513
  %this1 = load %"struct.boost::arg.14"*, %"struct.boost::arg.14"** %this.addr, align 8
  ret void, !dbg !10514
}

; Function Attrs: noinline uwtable
define internal void @__cxx_global_var_init.9() #0 section ".text.startup" !dbg !10515 {
entry:
  call void @_ZNSt8ios_base4InitC1Ev(%"class.std::ios_base::Init"* @_ZStL8__ioinit), !dbg !10516
  %0 = call i32 @__cxa_atexit(void (i8*)* bitcast (void (%"class.std::ios_base::Init"*)* @_ZNSt8ios_base4InitD1Ev to void (i8*)*), i8* getelementptr inbounds (%"class.std::ios_base::Init", %"class.std::ios_base::Init"* @_ZStL8__ioinit, i32 0, i32 0), i8* @__dso_handle) #4, !dbg !10516
  ret void, !dbg !10516
}

declare dso_local void @_ZNSt8ios_base4InitC1Ev(%"class.std::ios_base::Init"*) unnamed_addr #2

; Function Attrs: nounwind
declare dso_local void @_ZNSt8ios_base4InitD1Ev(%"class.std::ios_base::Init"*) unnamed_addr #3

; Function Attrs: nounwind
declare dso_local i32 @__cxa_atexit(void (i8*)*, i8*, i8*) #4

; Function Attrs: noinline uwtable
define weak_odr dso_local void @_ZNK6dealii13MGDoFAccessorILi1ELi3ELi3EE17get_mg_dof_valuesIdEEviRKNS_6VectorIT_EERS5_(%"class.dealii::MGDoFAccessor"* %this, i32 %level, %"class.dealii::Vector"* nonnull %values, %"class.dealii::Vector"* nonnull %dof_values) #0 comdat align 2 !dbg !10517 {
entry:
  %this.addr = alloca %"class.dealii::MGDoFAccessor"*, align 8
  %level.addr = alloca i32, align 4
  %values.addr = alloca %"class.dealii::Vector"*, align 8
  %dof_values.addr = alloca %"class.dealii::Vector"*, align 8
  store %"class.dealii::MGDoFAccessor"* %this, %"class.dealii::MGDoFAccessor"** %this.addr, align 8
  call void @llvm.dbg.declare(metadata %"class.dealii::MGDoFAccessor"** %this.addr, metadata !10525, metadata !DIExpression()), !dbg !10526
  store i32 %level, i32* %level.addr, align 4
  call void @llvm.dbg.declare(metadata i32* %level.addr, metadata !10527, metadata !DIExpression()), !dbg !10528
  store %"class.dealii::Vector"* %values, %"class.dealii::Vector"** %values.addr, align 8
  call void @llvm.dbg.declare(metadata %"class.dealii::Vector"** %values.addr, metadata !10529, metadata !DIExpression()), !dbg !10530
  store %"class.dealii::Vector"* %dof_values, %"class.dealii::Vector"** %dof_values.addr, align 8
  call void @llvm.dbg.declare(metadata %"class.dealii::Vector"** %dof_values.addr, metadata !10531, metadata !DIExpression()), !dbg !10532
  %this1 = load %"class.dealii::MGDoFAccessor"*, %"class.dealii::MGDoFAccessor"** %this.addr, align 8
  %0 = load i32, i32* %level.addr, align 4, !dbg !10533
  %1 = load %"class.dealii::Vector"*, %"class.dealii::Vector"** %values.addr, align 8, !dbg !10534
  %2 = load %"class.dealii::Vector"*, %"class.dealii::Vector"** %dof_values.addr, align 8, !dbg !10535
  call void @_ZN6dealii8internal13MGDoFAccessor17get_mg_dof_valuesILi3ELi3EdEEvRKNS_13MGDoFAccessorILi1EXT_EXT0_EEEiRKNS_6VectorIT1_EERS9_(%"class.dealii::MGDoFAccessor"* dereferenceable(32) %this1, i32 %0, %"class.dealii::Vector"* nonnull %1, %"class.dealii::Vector"* nonnull %2), !dbg !10536
  ret void, !dbg !10537
}

; Function Attrs: nounwind readnone speculatable willreturn
declare void @llvm.dbg.declare(metadata, metadata, metadata) #5

; Function Attrs: noinline uwtable
define linkonce_odr dso_local void @_ZN6dealii8internal13MGDoFAccessor17get_mg_dof_valuesILi3ELi3EdEEvRKNS_13MGDoFAccessorILi1EXT_EXT0_EEEiRKNS_6VectorIT1_EERS9_(%"class.dealii::MGDoFAccessor"* dereferenceable(32) %accessor, i32 %level, %"class.dealii::Vector"* nonnull %values, %"class.dealii::Vector"* nonnull %dof_values) #0 comdat !dbg !10538 {
entry:
  %accessor.addr = alloca %"class.dealii::MGDoFAccessor"*, align 8
  %level.addr = alloca i32, align 4
  %values.addr = alloca %"class.dealii::Vector"*, align 8
  %dof_values.addr = alloca %"class.dealii::Vector"*, align 8
  %dofs_per_vertex = alloca i32, align 4
  %dofs_per_line = alloca i32, align 4
  %next_dof_value = alloca double*, align 8
  %vertex = alloca i32, align 4
  %d = alloca i32, align 4
  %d16 = alloca i32, align 4
  store %"class.dealii::MGDoFAccessor"* %accessor, %"class.dealii::MGDoFAccessor"** %accessor.addr, align 8
  call void @llvm.dbg.declare(metadata %"class.dealii::MGDoFAccessor"** %accessor.addr, metadata !10542, metadata !DIExpression()), !dbg !10543
  store i32 %level, i32* %level.addr, align 4
  call void @llvm.dbg.declare(metadata i32* %level.addr, metadata !10544, metadata !DIExpression()), !dbg !10545
  store %"class.dealii::Vector"* %values, %"class.dealii::Vector"** %values.addr, align 8
  call void @llvm.dbg.declare(metadata %"class.dealii::Vector"** %values.addr, metadata !10546, metadata !DIExpression()), !dbg !10547
  store %"class.dealii::Vector"* %dof_values, %"class.dealii::Vector"** %dof_values.addr, align 8
  call void @llvm.dbg.declare(metadata %"class.dealii::Vector"** %dof_values.addr, metadata !10548, metadata !DIExpression()), !dbg !10549
  call void @llvm.dbg.declare(metadata i32* %dofs_per_vertex, metadata !10550, metadata !DIExpression()), !dbg !10551
  %0 = load %"class.dealii::MGDoFAccessor"*, %"class.dealii::MGDoFAccessor"** %accessor.addr, align 8, !dbg !10552
  %1 = bitcast %"class.dealii::MGDoFAccessor"* %0 to %"class.dealii::DoFAccessor"*, !dbg !10552
  %call = call dereferenceable(168) %"class.dealii::DoFHandler"* @_ZNK6dealii11DoFAccessorILi1ENS_10DoFHandlerILi3ELi3EEEE15get_dof_handlerEv(%"class.dealii::DoFAccessor"* %1), !dbg !10553
  %call1 = call dereferenceable(728) %"class.dealii::FiniteElement"* @_ZNK6dealii10DoFHandlerILi3ELi3EE6get_feEv(%"class.dealii::DoFHandler"* %call), !dbg !10554
  %2 = bitcast %"class.dealii::FiniteElement"* %call1 to i8*, !dbg !10552
  %add.ptr = getelementptr inbounds i8, i8* %2, i64 72, !dbg !10552
  %3 = bitcast i8* %add.ptr to %"class.dealii::FiniteElementData"*, !dbg !10552
  %dofs_per_vertex2 = getelementptr inbounds %"class.dealii::FiniteElementData", %"class.dealii::FiniteElementData"* %3, i32 0, i32 0, !dbg !10555
  %4 = load i32, i32* %dofs_per_vertex2, align 8, !dbg !10555
  store i32 %4, i32* %dofs_per_vertex, align 4, !dbg !10551
  call void @llvm.dbg.declare(metadata i32* %dofs_per_line, metadata !10556, metadata !DIExpression()), !dbg !10557
  %5 = load %"class.dealii::MGDoFAccessor"*, %"class.dealii::MGDoFAccessor"** %accessor.addr, align 8, !dbg !10558
  %6 = bitcast %"class.dealii::MGDoFAccessor"* %5 to %"class.dealii::DoFAccessor"*, !dbg !10558
  %call3 = call dereferenceable(168) %"class.dealii::DoFHandler"* @_ZNK6dealii11DoFAccessorILi1ENS_10DoFHandlerILi3ELi3EEEE15get_dof_handlerEv(%"class.dealii::DoFAccessor"* %6), !dbg !10559
  %call4 = call dereferenceable(728) %"class.dealii::FiniteElement"* @_ZNK6dealii10DoFHandlerILi3ELi3EE6get_feEv(%"class.dealii::DoFHandler"* %call3), !dbg !10560
  %7 = bitcast %"class.dealii::FiniteElement"* %call4 to i8*, !dbg !10558
  %add.ptr5 = getelementptr inbounds i8, i8* %7, i64 72, !dbg !10558
  %8 = bitcast i8* %add.ptr5 to %"class.dealii::FiniteElementData"*, !dbg !10558
  %dofs_per_line6 = getelementptr inbounds %"class.dealii::FiniteElementData", %"class.dealii::FiniteElementData"* %8, i32 0, i32 1, !dbg !10561
  %9 = load i32, i32* %dofs_per_line6, align 4, !dbg !10561
  store i32 %9, i32* %dofs_per_line, align 4, !dbg !10557
  call void @llvm.dbg.declare(metadata double** %next_dof_value, metadata !10562, metadata !DIExpression()), !dbg !10567
  %10 = load %"class.dealii::Vector"*, %"class.dealii::Vector"** %dof_values.addr, align 8, !dbg !10568
  %call7 = call double* @_ZN6dealii6VectorIdE5beginEv(%"class.dealii::Vector"* %10), !dbg !10569
  store double* %call7, double** %next_dof_value, align 8, !dbg !10567
  call void @llvm.dbg.declare(metadata i32* %vertex, metadata !10570, metadata !DIExpression()), !dbg !10572
  store i32 0, i32* %vertex, align 4, !dbg !10572
  br label %for.cond, !dbg !10573

for.cond:                                         ; preds = %for.inc13, %entry
  %11 = load i32, i32* %vertex, align 4, !dbg !10574
  %cmp = icmp ult i32 %11, 2, !dbg !10576
  br i1 %cmp, label %for.body, label %for.end15, !dbg !10577

for.body:                                         ; preds = %for.cond
  call void @llvm.dbg.declare(metadata i32* %d, metadata !10578, metadata !DIExpression()), !dbg !10580
  store i32 0, i32* %d, align 4, !dbg !10580
  br label %for.cond8, !dbg !10581

for.cond8:                                        ; preds = %for.inc, %for.body
  %12 = load i32, i32* %d, align 4, !dbg !10582
  %13 = load i32, i32* %dofs_per_vertex, align 4, !dbg !10584
  %cmp9 = icmp ult i32 %12, %13, !dbg !10585
  br i1 %cmp9, label %for.body10, label %for.end, !dbg !10586

for.body10:                                       ; preds = %for.cond8
  %14 = load %"class.dealii::Vector"*, %"class.dealii::Vector"** %values.addr, align 8, !dbg !10587
  %15 = load %"class.dealii::MGDoFAccessor"*, %"class.dealii::MGDoFAccessor"** %accessor.addr, align 8, !dbg !10588
  %16 = load i32, i32* %level.addr, align 4, !dbg !10589
  %17 = load i32, i32* %vertex, align 4, !dbg !10590
  %18 = load i32, i32* %d, align 4, !dbg !10591
  %call11 = call i32 @_ZNK6dealii13MGDoFAccessorILi1ELi3ELi3EE19mg_vertex_dof_indexEijj(%"class.dealii::MGDoFAccessor"* %15, i32 %16, i32 %17, i32 %18), !dbg !10592
  %call12 = call double @_ZNK6dealii6VectorIdEclEj(%"class.dealii::Vector"* %14, i32 %call11), !dbg !10587
  %19 = load double*, double** %next_dof_value, align 8, !dbg !10593
  %incdec.ptr = getelementptr inbounds double, double* %19, i32 1, !dbg !10593
  store double* %incdec.ptr, double** %next_dof_value, align 8, !dbg !10593
  store double %call12, double* %19, align 8, !dbg !10594
  br label %for.inc, !dbg !10595

for.inc:                                          ; preds = %for.body10
  %20 = load i32, i32* %d, align 4, !dbg !10596
  %inc = add i32 %20, 1, !dbg !10596
  store i32 %inc, i32* %d, align 4, !dbg !10596
  br label %for.cond8, !dbg !10597, !llvm.loop !10598

for.end:                                          ; preds = %for.cond8
  br label %for.inc13, !dbg !10599

for.inc13:                                        ; preds = %for.end
  %21 = load i32, i32* %vertex, align 4, !dbg !10600
  %inc14 = add i32 %21, 1, !dbg !10600
  store i32 %inc14, i32* %vertex, align 4, !dbg !10600
  br label %for.cond, !dbg !10601, !llvm.loop !10602

for.end15:                                        ; preds = %for.cond
  call void @llvm.dbg.declare(metadata i32* %d16, metadata !10604, metadata !DIExpression()), !dbg !10606
  store i32 0, i32* %d16, align 4, !dbg !10606
  br label %for.cond17, !dbg !10607

for.cond17:                                       ; preds = %for.inc23, %for.end15
  %22 = load i32, i32* %d16, align 4, !dbg !10608
  %23 = load i32, i32* %dofs_per_line, align 4, !dbg !10610
  %cmp18 = icmp ult i32 %22, %23, !dbg !10611
  br i1 %cmp18, label %for.body19, label %for.end25, !dbg !10612

for.body19:                                       ; preds = %for.cond17
  %24 = load %"class.dealii::Vector"*, %"class.dealii::Vector"** %values.addr, align 8, !dbg !10613
  %25 = load %"class.dealii::MGDoFAccessor"*, %"class.dealii::MGDoFAccessor"** %accessor.addr, align 8, !dbg !10614
  %26 = load i32, i32* %level.addr, align 4, !dbg !10615
  %27 = load i32, i32* %d16, align 4, !dbg !10616
  %call20 = call i32 @_ZNK6dealii13MGDoFAccessorILi1ELi3ELi3EE12mg_dof_indexEij(%"class.dealii::MGDoFAccessor"* %25, i32 %26, i32 %27), !dbg !10617
  %call21 = call double @_ZNK6dealii6VectorIdEclEj(%"class.dealii::Vector"* %24, i32 %call20), !dbg !10613
  %28 = load double*, double** %next_dof_value, align 8, !dbg !10618
  %incdec.ptr22 = getelementptr inbounds double, double* %28, i32 1, !dbg !10618
  store double* %incdec.ptr22, double** %next_dof_value, align 8, !dbg !10618
  store double %call21, double* %28, align 8, !dbg !10619
  br label %for.inc23, !dbg !10620

for.inc23:                                        ; preds = %for.body19
  %29 = load i32, i32* %d16, align 4, !dbg !10621
  %inc24 = add i32 %29, 1, !dbg !10621
  store i32 %inc24, i32* %d16, align 4, !dbg !10621
  br label %for.cond17, !dbg !10622, !llvm.loop !10623

for.end25:                                        ; preds = %for.cond17
  ret void, !dbg !10625
}

; Function Attrs: noinline uwtable
define weak_odr dso_local void @_ZNK6dealii13MGDoFAccessorILi1ELi3ELi3EE17get_mg_dof_valuesIfEEviRKNS_6VectorIT_EERS5_(%"class.dealii::MGDoFAccessor"* %this, i32 %level, %"class.dealii::Vector.35"* nonnull %values, %"class.dealii::Vector.35"* nonnull %dof_values) #0 comdat align 2 !dbg !10626 {
entry:
  %this.addr = alloca %"class.dealii::MGDoFAccessor"*, align 8
  %level.addr = alloca i32, align 4
  %values.addr = alloca %"class.dealii::Vector.35"*, align 8
  %dof_values.addr = alloca %"class.dealii::Vector.35"*, align 8
  store %"class.dealii::MGDoFAccessor"* %this, %"class.dealii::MGDoFAccessor"** %this.addr, align 8
  call void @llvm.dbg.declare(metadata %"class.dealii::MGDoFAccessor"** %this.addr, metadata !10637, metadata !DIExpression()), !dbg !10638
  store i32 %level, i32* %level.addr, align 4
  call void @llvm.dbg.declare(metadata i32* %level.addr, metadata !10639, metadata !DIExpression()), !dbg !10640
  store %"class.dealii::Vector.35"* %values, %"class.dealii::Vector.35"** %values.addr, align 8
  call void @llvm.dbg.declare(metadata %"class.dealii::Vector.35"** %values.addr, metadata !10641, metadata !DIExpression()), !dbg !10642
  store %"class.dealii::Vector.35"* %dof_values, %"class.dealii::Vector.35"** %dof_values.addr, align 8
  call void @llvm.dbg.declare(metadata %"class.dealii::Vector.35"** %dof_values.addr, metadata !10643, metadata !DIExpression()), !dbg !10644
  %this1 = load %"class.dealii::MGDoFAccessor"*, %"class.dealii::MGDoFAccessor"** %this.addr, align 8
  %0 = load i32, i32* %level.addr, align 4, !dbg !10645
  %1 = load %"class.dealii::Vector.35"*, %"class.dealii::Vector.35"** %values.addr, align 8, !dbg !10646
  %2 = load %"class.dealii::Vector.35"*, %"class.dealii::Vector.35"** %dof_values.addr, align 8, !dbg !10647
  call void @_ZN6dealii8internal13MGDoFAccessor17get_mg_dof_valuesILi3ELi3EfEEvRKNS_13MGDoFAccessorILi1EXT_EXT0_EEEiRKNS_6VectorIT1_EERS9_(%"class.dealii::MGDoFAccessor"* dereferenceable(32) %this1, i32 %0, %"class.dealii::Vector.35"* nonnull %1, %"class.dealii::Vector.35"* nonnull %2), !dbg !10648
  ret void, !dbg !10649
}

; Function Attrs: noinline uwtable
define linkonce_odr dso_local void @_ZN6dealii8internal13MGDoFAccessor17get_mg_dof_valuesILi3ELi3EfEEvRKNS_13MGDoFAccessorILi1EXT_EXT0_EEEiRKNS_6VectorIT1_EERS9_(%"class.dealii::MGDoFAccessor"* dereferenceable(32) %accessor, i32 %level, %"class.dealii::Vector.35"* nonnull %values, %"class.dealii::Vector.35"* nonnull %dof_values) #0 comdat !dbg !10650 {
entry:
  %accessor.addr = alloca %"class.dealii::MGDoFAccessor"*, align 8
  %level.addr = alloca i32, align 4
  %values.addr = alloca %"class.dealii::Vector.35"*, align 8
  %dof_values.addr = alloca %"class.dealii::Vector.35"*, align 8
  %dofs_per_vertex = alloca i32, align 4
  %dofs_per_line = alloca i32, align 4
  %next_dof_value = alloca float*, align 8
  %vertex = alloca i32, align 4
  %d = alloca i32, align 4
  %d16 = alloca i32, align 4
  store %"class.dealii::MGDoFAccessor"* %accessor, %"class.dealii::MGDoFAccessor"** %accessor.addr, align 8
  call void @llvm.dbg.declare(metadata %"class.dealii::MGDoFAccessor"** %accessor.addr, metadata !10654, metadata !DIExpression()), !dbg !10655
  store i32 %level, i32* %level.addr, align 4
  call void @llvm.dbg.declare(metadata i32* %level.addr, metadata !10656, metadata !DIExpression()), !dbg !10657
  store %"class.dealii::Vector.35"* %values, %"class.dealii::Vector.35"** %values.addr, align 8
  call void @llvm.dbg.declare(metadata %"class.dealii::Vector.35"** %values.addr, metadata !10658, metadata !DIExpression()), !dbg !10659
  store %"class.dealii::Vector.35"* %dof_values, %"class.dealii::Vector.35"** %dof_values.addr, align 8
  call void @llvm.dbg.declare(metadata %"class.dealii::Vector.35"** %dof_values.addr, metadata !10660, metadata !DIExpression()), !dbg !10661
  call void @llvm.dbg.declare(metadata i32* %dofs_per_vertex, metadata !10662, metadata !DIExpression()), !dbg !10663
  %0 = load %"class.dealii::MGDoFAccessor"*, %"class.dealii::MGDoFAccessor"** %accessor.addr, align 8, !dbg !10664
  %1 = bitcast %"class.dealii::MGDoFAccessor"* %0 to %"class.dealii::DoFAccessor"*, !dbg !10664
  %call = call dereferenceable(168) %"class.dealii::DoFHandler"* @_ZNK6dealii11DoFAccessorILi1ENS_10DoFHandlerILi3ELi3EEEE15get_dof_handlerEv(%"class.dealii::DoFAccessor"* %1), !dbg !10665
  %call1 = call dereferenceable(728) %"class.dealii::FiniteElement"* @_ZNK6dealii10DoFHandlerILi3ELi3EE6get_feEv(%"class.dealii::DoFHandler"* %call), !dbg !10666
  %2 = bitcast %"class.dealii::FiniteElement"* %call1 to i8*, !dbg !10664
  %add.ptr = getelementptr inbounds i8, i8* %2, i64 72, !dbg !10664
  %3 = bitcast i8* %add.ptr to %"class.dealii::FiniteElementData"*, !dbg !10664
  %dofs_per_vertex2 = getelementptr inbounds %"class.dealii::FiniteElementData", %"class.dealii::FiniteElementData"* %3, i32 0, i32 0, !dbg !10667
  %4 = load i32, i32* %dofs_per_vertex2, align 8, !dbg !10667
  store i32 %4, i32* %dofs_per_vertex, align 4, !dbg !10663
  call void @llvm.dbg.declare(metadata i32* %dofs_per_line, metadata !10668, metadata !DIExpression()), !dbg !10669
  %5 = load %"class.dealii::MGDoFAccessor"*, %"class.dealii::MGDoFAccessor"** %accessor.addr, align 8, !dbg !10670
  %6 = bitcast %"class.dealii::MGDoFAccessor"* %5 to %"class.dealii::DoFAccessor"*, !dbg !10670
  %call3 = call dereferenceable(168) %"class.dealii::DoFHandler"* @_ZNK6dealii11DoFAccessorILi1ENS_10DoFHandlerILi3ELi3EEEE15get_dof_handlerEv(%"class.dealii::DoFAccessor"* %6), !dbg !10671
  %call4 = call dereferenceable(728) %"class.dealii::FiniteElement"* @_ZNK6dealii10DoFHandlerILi3ELi3EE6get_feEv(%"class.dealii::DoFHandler"* %call3), !dbg !10672
  %7 = bitcast %"class.dealii::FiniteElement"* %call4 to i8*, !dbg !10670
  %add.ptr5 = getelementptr inbounds i8, i8* %7, i64 72, !dbg !10670
  %8 = bitcast i8* %add.ptr5 to %"class.dealii::FiniteElementData"*, !dbg !10670
  %dofs_per_line6 = getelementptr inbounds %"class.dealii::FiniteElementData", %"class.dealii::FiniteElementData"* %8, i32 0, i32 1, !dbg !10673
  %9 = load i32, i32* %dofs_per_line6, align 4, !dbg !10673
  store i32 %9, i32* %dofs_per_line, align 4, !dbg !10669
  call void @llvm.dbg.declare(metadata float** %next_dof_value, metadata !10674, metadata !DIExpression()), !dbg !10678
  %10 = load %"class.dealii::Vector.35"*, %"class.dealii::Vector.35"** %dof_values.addr, align 8, !dbg !10679
  %call7 = call float* @_ZN6dealii6VectorIfE5beginEv(%"class.dealii::Vector.35"* %10), !dbg !10680
  store float* %call7, float** %next_dof_value, align 8, !dbg !10678
  call void @llvm.dbg.declare(metadata i32* %vertex, metadata !10681, metadata !DIExpression()), !dbg !10683
  store i32 0, i32* %vertex, align 4, !dbg !10683
  br label %for.cond, !dbg !10684

for.cond:                                         ; preds = %for.inc13, %entry
  %11 = load i32, i32* %vertex, align 4, !dbg !10685
  %cmp = icmp ult i32 %11, 2, !dbg !10687
  br i1 %cmp, label %for.body, label %for.end15, !dbg !10688

for.body:                                         ; preds = %for.cond
  call void @llvm.dbg.declare(metadata i32* %d, metadata !10689, metadata !DIExpression()), !dbg !10691
  store i32 0, i32* %d, align 4, !dbg !10691
  br label %for.cond8, !dbg !10692

for.cond8:                                        ; preds = %for.inc, %for.body
  %12 = load i32, i32* %d, align 4, !dbg !10693
  %13 = load i32, i32* %dofs_per_vertex, align 4, !dbg !10695
  %cmp9 = icmp ult i32 %12, %13, !dbg !10696
  br i1 %cmp9, label %for.body10, label %for.end, !dbg !10697

for.body10:                                       ; preds = %for.cond8
  %14 = load %"class.dealii::Vector.35"*, %"class.dealii::Vector.35"** %values.addr, align 8, !dbg !10698
  %15 = load %"class.dealii::MGDoFAccessor"*, %"class.dealii::MGDoFAccessor"** %accessor.addr, align 8, !dbg !10699
  %16 = load i32, i32* %level.addr, align 4, !dbg !10700
  %17 = load i32, i32* %vertex, align 4, !dbg !10701
  %18 = load i32, i32* %d, align 4, !dbg !10702
  %call11 = call i32 @_ZNK6dealii13MGDoFAccessorILi1ELi3ELi3EE19mg_vertex_dof_indexEijj(%"class.dealii::MGDoFAccessor"* %15, i32 %16, i32 %17, i32 %18), !dbg !10703
  %call12 = call float @_ZNK6dealii6VectorIfEclEj(%"class.dealii::Vector.35"* %14, i32 %call11), !dbg !10698
  %19 = load float*, float** %next_dof_value, align 8, !dbg !10704
  %incdec.ptr = getelementptr inbounds float, float* %19, i32 1, !dbg !10704
  store float* %incdec.ptr, float** %next_dof_value, align 8, !dbg !10704
  store float %call12, float* %19, align 4, !dbg !10705
  br label %for.inc, !dbg !10706

for.inc:                                          ; preds = %for.body10
  %20 = load i32, i32* %d, align 4, !dbg !10707
  %inc = add i32 %20, 1, !dbg !10707
  store i32 %inc, i32* %d, align 4, !dbg !10707
  br label %for.cond8, !dbg !10708, !llvm.loop !10709

for.end:                                          ; preds = %for.cond8
  br label %for.inc13, !dbg !10710

for.inc13:                                        ; preds = %for.end
  %21 = load i32, i32* %vertex, align 4, !dbg !10711
  %inc14 = add i32 %21, 1, !dbg !10711
  store i32 %inc14, i32* %vertex, align 4, !dbg !10711
  br label %for.cond, !dbg !10712, !llvm.loop !10713

for.end15:                                        ; preds = %for.cond
  call void @llvm.dbg.declare(metadata i32* %d16, metadata !10715, metadata !DIExpression()), !dbg !10717
  store i32 0, i32* %d16, align 4, !dbg !10717
  br label %for.cond17, !dbg !10718

for.cond17:                                       ; preds = %for.inc23, %for.end15
  %22 = load i32, i32* %d16, align 4, !dbg !10719
  %23 = load i32, i32* %dofs_per_line, align 4, !dbg !10721
  %cmp18 = icmp ult i32 %22, %23, !dbg !10722
  br i1 %cmp18, label %for.body19, label %for.end25, !dbg !10723

for.body19:                                       ; preds = %for.cond17
  %24 = load %"class.dealii::Vector.35"*, %"class.dealii::Vector.35"** %values.addr, align 8, !dbg !10724
  %25 = load %"class.dealii::MGDoFAccessor"*, %"class.dealii::MGDoFAccessor"** %accessor.addr, align 8, !dbg !10725
  %26 = load i32, i32* %level.addr, align 4, !dbg !10726
  %27 = load i32, i32* %d16, align 4, !dbg !10727
  %call20 = call i32 @_ZNK6dealii13MGDoFAccessorILi1ELi3ELi3EE12mg_dof_indexEij(%"class.dealii::MGDoFAccessor"* %25, i32 %26, i32 %27), !dbg !10728
  %call21 = call float @_ZNK6dealii6VectorIfEclEj(%"class.dealii::Vector.35"* %24, i32 %call20), !dbg !10724
  %28 = load float*, float** %next_dof_value, align 8, !dbg !10729
  %incdec.ptr22 = getelementptr inbounds float, float* %28, i32 1, !dbg !10729
  store float* %incdec.ptr22, float** %next_dof_value, align 8, !dbg !10729
  store float %call21, float* %28, align 4, !dbg !10730
  br label %for.inc23, !dbg !10731

for.inc23:                                        ; preds = %for.body19
  %29 = load i32, i32* %d16, align 4, !dbg !10732
  %inc24 = add i32 %29, 1, !dbg !10732
  store i32 %inc24, i32* %d16, align 4, !dbg !10732
  br label %for.cond17, !dbg !10733, !llvm.loop !10734

for.end25:                                        ; preds = %for.cond17
  ret void, !dbg !10736
}

; Function Attrs: noinline uwtable
define weak_odr dso_local void @_ZNK6dealii13MGDoFAccessorILi2ELi3ELi3EE17get_mg_dof_valuesIdEEviRKNS_6VectorIT_EERS5_(%"class.dealii::MGDoFAccessor.36"* %this, i32 %level, %"class.dealii::Vector"* nonnull %values, %"class.dealii::Vector"* nonnull %dof_values) #0 comdat align 2 !dbg !10737 {
entry:
  %this.addr = alloca %"class.dealii::MGDoFAccessor.36"*, align 8
  %level.addr = alloca i32, align 4
  %values.addr = alloca %"class.dealii::Vector"*, align 8
  %dof_values.addr = alloca %"class.dealii::Vector"*, align 8
  store %"class.dealii::MGDoFAccessor.36"* %this, %"class.dealii::MGDoFAccessor.36"** %this.addr, align 8
  call void @llvm.dbg.declare(metadata %"class.dealii::MGDoFAccessor.36"** %this.addr, metadata !10741, metadata !DIExpression()), !dbg !10742
  store i32 %level, i32* %level.addr, align 4
  call void @llvm.dbg.declare(metadata i32* %level.addr, metadata !10743, metadata !DIExpression()), !dbg !10744
  store %"class.dealii::Vector"* %values, %"class.dealii::Vector"** %values.addr, align 8
  call void @llvm.dbg.declare(metadata %"class.dealii::Vector"** %values.addr, metadata !10745, metadata !DIExpression()), !dbg !10746
  store %"class.dealii::Vector"* %dof_values, %"class.dealii::Vector"** %dof_values.addr, align 8
  call void @llvm.dbg.declare(metadata %"class.dealii::Vector"** %dof_values.addr, metadata !10747, metadata !DIExpression()), !dbg !10748
  %this1 = load %"class.dealii::MGDoFAccessor.36"*, %"class.dealii::MGDoFAccessor.36"** %this.addr, align 8
  %0 = load i32, i32* %level.addr, align 4, !dbg !10749
  %1 = load %"class.dealii::Vector"*, %"class.dealii::Vector"** %values.addr, align 8, !dbg !10750
  %2 = load %"class.dealii::Vector"*, %"class.dealii::Vector"** %dof_values.addr, align 8, !dbg !10751
  call void @_ZN6dealii8internal13MGDoFAccessor17get_mg_dof_valuesILi3ELi3EdEEvRKNS_13MGDoFAccessorILi2EXT_EXT0_EEEiRKNS_6VectorIT1_EERS9_(%"class.dealii::MGDoFAccessor.36"* dereferenceable(32) %this1, i32 %0, %"class.dealii::Vector"* nonnull %1, %"class.dealii::Vector"* nonnull %2), !dbg !10752
  ret void, !dbg !10753
}

; Function Attrs: noinline uwtable
define linkonce_odr dso_local void @_ZN6dealii8internal13MGDoFAccessor17get_mg_dof_valuesILi3ELi3EdEEvRKNS_13MGDoFAccessorILi2EXT_EXT0_EEEiRKNS_6VectorIT1_EERS9_(%"class.dealii::MGDoFAccessor.36"* dereferenceable(32) %accessor, i32 %level, %"class.dealii::Vector"* nonnull %values, %"class.dealii::Vector"* nonnull %dof_values) #0 comdat !dbg !10754 {
entry:
  %accessor.addr = alloca %"class.dealii::MGDoFAccessor.36"*, align 8
  %level.addr = alloca i32, align 4
  %values.addr = alloca %"class.dealii::Vector"*, align 8
  %dof_values.addr = alloca %"class.dealii::Vector"*, align 8
  %dofs_per_vertex = alloca i32, align 4
  %dofs_per_line = alloca i32, align 4
  %dofs_per_quad = alloca i32, align 4
  %next_dof_value = alloca double*, align 8
  %vertex = alloca i32, align 4
  %d = alloca i32, align 4
  %line = alloca i32, align 4
  %d23 = alloca i32, align 4
  %ref.tmp = alloca %"class.dealii::TriaIterator", align 8
  %d37 = alloca i32, align 4
  store %"class.dealii::MGDoFAccessor.36"* %accessor, %"class.dealii::MGDoFAccessor.36"** %accessor.addr, align 8
  call void @llvm.dbg.declare(metadata %"class.dealii::MGDoFAccessor.36"** %accessor.addr, metadata !10757, metadata !DIExpression()), !dbg !10758
  store i32 %level, i32* %level.addr, align 4
  call void @llvm.dbg.declare(metadata i32* %level.addr, metadata !10759, metadata !DIExpression()), !dbg !10760
  store %"class.dealii::Vector"* %values, %"class.dealii::Vector"** %values.addr, align 8
  call void @llvm.dbg.declare(metadata %"class.dealii::Vector"** %values.addr, metadata !10761, metadata !DIExpression()), !dbg !10762
  store %"class.dealii::Vector"* %dof_values, %"class.dealii::Vector"** %dof_values.addr, align 8
  call void @llvm.dbg.declare(metadata %"class.dealii::Vector"** %dof_values.addr, metadata !10763, metadata !DIExpression()), !dbg !10764
  call void @llvm.dbg.declare(metadata i32* %dofs_per_vertex, metadata !10765, metadata !DIExpression()), !dbg !10766
  %0 = load %"class.dealii::MGDoFAccessor.36"*, %"class.dealii::MGDoFAccessor.36"** %accessor.addr, align 8, !dbg !10767
  %1 = bitcast %"class.dealii::MGDoFAccessor.36"* %0 to %"class.dealii::DoFAccessor.37"*, !dbg !10767
  %call = call dereferenceable(168) %"class.dealii::DoFHandler"* @_ZNK6dealii11DoFAccessorILi2ENS_10DoFHandlerILi3ELi3EEEE15get_dof_handlerEv(%"class.dealii::DoFAccessor.37"* %1), !dbg !10768
  %call1 = call dereferenceable(728) %"class.dealii::FiniteElement"* @_ZNK6dealii10DoFHandlerILi3ELi3EE6get_feEv(%"class.dealii::DoFHandler"* %call), !dbg !10769
  %2 = bitcast %"class.dealii::FiniteElement"* %call1 to i8*, !dbg !10767
  %add.ptr = getelementptr inbounds i8, i8* %2, i64 72, !dbg !10767
  %3 = bitcast i8* %add.ptr to %"class.dealii::FiniteElementData"*, !dbg !10767
  %dofs_per_vertex2 = getelementptr inbounds %"class.dealii::FiniteElementData", %"class.dealii::FiniteElementData"* %3, i32 0, i32 0, !dbg !10770
  %4 = load i32, i32* %dofs_per_vertex2, align 8, !dbg !10770
  store i32 %4, i32* %dofs_per_vertex, align 4, !dbg !10766
  call void @llvm.dbg.declare(metadata i32* %dofs_per_line, metadata !10771, metadata !DIExpression()), !dbg !10772
  %5 = load %"class.dealii::MGDoFAccessor.36"*, %"class.dealii::MGDoFAccessor.36"** %accessor.addr, align 8, !dbg !10773
  %6 = bitcast %"class.dealii::MGDoFAccessor.36"* %5 to %"class.dealii::DoFAccessor.37"*, !dbg !10773
  %call3 = call dereferenceable(168) %"class.dealii::DoFHandler"* @_ZNK6dealii11DoFAccessorILi2ENS_10DoFHandlerILi3ELi3EEEE15get_dof_handlerEv(%"class.dealii::DoFAccessor.37"* %6), !dbg !10774
  %call4 = call dereferenceable(728) %"class.dealii::FiniteElement"* @_ZNK6dealii10DoFHandlerILi3ELi3EE6get_feEv(%"class.dealii::DoFHandler"* %call3), !dbg !10775
  %7 = bitcast %"class.dealii::FiniteElement"* %call4 to i8*, !dbg !10773
  %add.ptr5 = getelementptr inbounds i8, i8* %7, i64 72, !dbg !10773
  %8 = bitcast i8* %add.ptr5 to %"class.dealii::FiniteElementData"*, !dbg !10773
  %dofs_per_line6 = getelementptr inbounds %"class.dealii::FiniteElementData", %"class.dealii::FiniteElementData"* %8, i32 0, i32 1, !dbg !10776
  %9 = load i32, i32* %dofs_per_line6, align 4, !dbg !10776
  store i32 %9, i32* %dofs_per_line, align 4, !dbg !10772
  call void @llvm.dbg.declare(metadata i32* %dofs_per_quad, metadata !10777, metadata !DIExpression()), !dbg !10778
  %10 = load %"class.dealii::MGDoFAccessor.36"*, %"class.dealii::MGDoFAccessor.36"** %accessor.addr, align 8, !dbg !10779
  %11 = bitcast %"class.dealii::MGDoFAccessor.36"* %10 to %"class.dealii::DoFAccessor.37"*, !dbg !10779
  %call7 = call dereferenceable(168) %"class.dealii::DoFHandler"* @_ZNK6dealii11DoFAccessorILi2ENS_10DoFHandlerILi3ELi3EEEE15get_dof_handlerEv(%"class.dealii::DoFAccessor.37"* %11), !dbg !10780
  %call8 = call dereferenceable(728) %"class.dealii::FiniteElement"* @_ZNK6dealii10DoFHandlerILi3ELi3EE6get_feEv(%"class.dealii::DoFHandler"* %call7), !dbg !10781
  %12 = bitcast %"class.dealii::FiniteElement"* %call8 to i8*, !dbg !10779
  %add.ptr9 = getelementptr inbounds i8, i8* %12, i64 72, !dbg !10779
  %13 = bitcast i8* %add.ptr9 to %"class.dealii::FiniteElementData"*, !dbg !10779
  %dofs_per_quad10 = getelementptr inbounds %"class.dealii::FiniteElementData", %"class.dealii::FiniteElementData"* %13, i32 0, i32 2, !dbg !10782
  %14 = load i32, i32* %dofs_per_quad10, align 8, !dbg !10782
  store i32 %14, i32* %dofs_per_quad, align 4, !dbg !10778
  call void @llvm.dbg.declare(metadata double** %next_dof_value, metadata !10783, metadata !DIExpression()), !dbg !10784
  %15 = load %"class.dealii::Vector"*, %"class.dealii::Vector"** %dof_values.addr, align 8, !dbg !10785
  %call11 = call double* @_ZN6dealii6VectorIdE5beginEv(%"class.dealii::Vector"* %15), !dbg !10786
  store double* %call11, double** %next_dof_value, align 8, !dbg !10784
  call void @llvm.dbg.declare(metadata i32* %vertex, metadata !10787, metadata !DIExpression()), !dbg !10789
  store i32 0, i32* %vertex, align 4, !dbg !10789
  br label %for.cond, !dbg !10790

for.cond:                                         ; preds = %for.inc17, %entry
  %16 = load i32, i32* %vertex, align 4, !dbg !10791
  %cmp = icmp ult i32 %16, 4, !dbg !10793
  br i1 %cmp, label %for.body, label %for.end19, !dbg !10794

for.body:                                         ; preds = %for.cond
  call void @llvm.dbg.declare(metadata i32* %d, metadata !10795, metadata !DIExpression()), !dbg !10797
  store i32 0, i32* %d, align 4, !dbg !10797
  br label %for.cond12, !dbg !10798

for.cond12:                                       ; preds = %for.inc, %for.body
  %17 = load i32, i32* %d, align 4, !dbg !10799
  %18 = load i32, i32* %dofs_per_vertex, align 4, !dbg !10801
  %cmp13 = icmp ult i32 %17, %18, !dbg !10802
  br i1 %cmp13, label %for.body14, label %for.end, !dbg !10803

for.body14:                                       ; preds = %for.cond12
  %19 = load %"class.dealii::Vector"*, %"class.dealii::Vector"** %values.addr, align 8, !dbg !10804
  %20 = load %"class.dealii::MGDoFAccessor.36"*, %"class.dealii::MGDoFAccessor.36"** %accessor.addr, align 8, !dbg !10805
  %21 = load i32, i32* %level.addr, align 4, !dbg !10806
  %22 = load i32, i32* %vertex, align 4, !dbg !10807
  %23 = load i32, i32* %d, align 4, !dbg !10808
  %call15 = call i32 @_ZNK6dealii13MGDoFAccessorILi2ELi3ELi3EE19mg_vertex_dof_indexEijj(%"class.dealii::MGDoFAccessor.36"* %20, i32 %21, i32 %22, i32 %23), !dbg !10809
  %call16 = call double @_ZNK6dealii6VectorIdEclEj(%"class.dealii::Vector"* %19, i32 %call15), !dbg !10804
  %24 = load double*, double** %next_dof_value, align 8, !dbg !10810
  %incdec.ptr = getelementptr inbounds double, double* %24, i32 1, !dbg !10810
  store double* %incdec.ptr, double** %next_dof_value, align 8, !dbg !10810
  store double %call16, double* %24, align 8, !dbg !10811
  br label %for.inc, !dbg !10812

for.inc:                                          ; preds = %for.body14
  %25 = load i32, i32* %d, align 4, !dbg !10813
  %inc = add i32 %25, 1, !dbg !10813
  store i32 %inc, i32* %d, align 4, !dbg !10813
  br label %for.cond12, !dbg !10814, !llvm.loop !10815

for.end:                                          ; preds = %for.cond12
  br label %for.inc17, !dbg !10816

for.inc17:                                        ; preds = %for.end
  %26 = load i32, i32* %vertex, align 4, !dbg !10817
  %inc18 = add i32 %26, 1, !dbg !10817
  store i32 %inc18, i32* %vertex, align 4, !dbg !10817
  br label %for.cond, !dbg !10818, !llvm.loop !10819

for.end19:                                        ; preds = %for.cond
  call void @llvm.dbg.declare(metadata i32* %line, metadata !10821, metadata !DIExpression()), !dbg !10823
  store i32 0, i32* %line, align 4, !dbg !10823
  br label %for.cond20, !dbg !10824

for.cond20:                                       ; preds = %for.inc34, %for.end19
  %27 = load i32, i32* %line, align 4, !dbg !10825
  %cmp21 = icmp ult i32 %27, 4, !dbg !10827
  br i1 %cmp21, label %for.body22, label %for.end36, !dbg !10828

for.body22:                                       ; preds = %for.cond20
  call void @llvm.dbg.declare(metadata i32* %d23, metadata !10829, metadata !DIExpression()), !dbg !10831
  store i32 0, i32* %d23, align 4, !dbg !10831
  br label %for.cond24, !dbg !10832

for.cond24:                                       ; preds = %for.inc31, %for.body22
  %28 = load i32, i32* %d23, align 4, !dbg !10833
  %29 = load i32, i32* %dofs_per_line, align 4, !dbg !10835
  %cmp25 = icmp ult i32 %28, %29, !dbg !10836
  br i1 %cmp25, label %for.body26, label %for.end33, !dbg !10837

for.body26:                                       ; preds = %for.cond24
  %30 = load %"class.dealii::Vector"*, %"class.dealii::Vector"** %values.addr, align 8, !dbg !10838
  %31 = load %"class.dealii::MGDoFAccessor.36"*, %"class.dealii::MGDoFAccessor.36"** %accessor.addr, align 8, !dbg !10839
  %32 = load i32, i32* %line, align 4, !dbg !10840
  call void @_ZNK6dealii13MGDoFAccessorILi2ELi3ELi3EE4lineEj(%"class.dealii::TriaIterator"* sret %ref.tmp, %"class.dealii::MGDoFAccessor.36"* %31, i32 %32), !dbg !10841
  %33 = bitcast %"class.dealii::TriaIterator"* %ref.tmp to %"class.dealii::TriaRawIterator"*, !dbg !10839
  %call27 = call %"class.dealii::MGDoFAccessor"* @_ZN6dealii15TriaRawIteratorINS_13MGDoFAccessorILi1ELi3ELi3EEEEptEv(%"class.dealii::TriaRawIterator"* %33), !dbg !10839
  %34 = load i32, i32* %level.addr, align 4, !dbg !10842
  %35 = load i32, i32* %d23, align 4, !dbg !10843
  %call28 = call i32 @_ZNK6dealii13MGDoFAccessorILi1ELi3ELi3EE12mg_dof_indexEij(%"class.dealii::MGDoFAccessor"* %call27, i32 %34, i32 %35), !dbg !10844
  %call29 = call double @_ZNK6dealii6VectorIdEclEj(%"class.dealii::Vector"* %30, i32 %call28), !dbg !10838
  %36 = load double*, double** %next_dof_value, align 8, !dbg !10845
  %incdec.ptr30 = getelementptr inbounds double, double* %36, i32 1, !dbg !10845
  store double* %incdec.ptr30, double** %next_dof_value, align 8, !dbg !10845
  store double %call29, double* %36, align 8, !dbg !10846
  br label %for.inc31, !dbg !10847

for.inc31:                                        ; preds = %for.body26
  %37 = load i32, i32* %d23, align 4, !dbg !10848
  %inc32 = add i32 %37, 1, !dbg !10848
  store i32 %inc32, i32* %d23, align 4, !dbg !10848
  br label %for.cond24, !dbg !10849, !llvm.loop !10850

for.end33:                                        ; preds = %for.cond24
  br label %for.inc34, !dbg !10851

for.inc34:                                        ; preds = %for.end33
  %38 = load i32, i32* %line, align 4, !dbg !10852
  %inc35 = add i32 %38, 1, !dbg !10852
  store i32 %inc35, i32* %line, align 4, !dbg !10852
  br label %for.cond20, !dbg !10853, !llvm.loop !10854

for.end36:                                        ; preds = %for.cond20
  call void @llvm.dbg.declare(metadata i32* %d37, metadata !10856, metadata !DIExpression()), !dbg !10858
  store i32 0, i32* %d37, align 4, !dbg !10858
  br label %for.cond38, !dbg !10859

for.cond38:                                       ; preds = %for.inc44, %for.end36
  %39 = load i32, i32* %d37, align 4, !dbg !10860
  %40 = load i32, i32* %dofs_per_quad, align 4, !dbg !10862
  %cmp39 = icmp ult i32 %39, %40, !dbg !10863
  br i1 %cmp39, label %for.body40, label %for.end46, !dbg !10864

for.body40:                                       ; preds = %for.cond38
  %41 = load %"class.dealii::Vector"*, %"class.dealii::Vector"** %values.addr, align 8, !dbg !10865
  %42 = load %"class.dealii::MGDoFAccessor.36"*, %"class.dealii::MGDoFAccessor.36"** %accessor.addr, align 8, !dbg !10866
  %43 = load i32, i32* %level.addr, align 4, !dbg !10867
  %44 = load i32, i32* %d37, align 4, !dbg !10868
  %call41 = call i32 @_ZNK6dealii13MGDoFAccessorILi2ELi3ELi3EE12mg_dof_indexEij(%"class.dealii::MGDoFAccessor.36"* %42, i32 %43, i32 %44), !dbg !10869
  %call42 = call double @_ZNK6dealii6VectorIdEclEj(%"class.dealii::Vector"* %41, i32 %call41), !dbg !10865
  %45 = load double*, double** %next_dof_value, align 8, !dbg !10870
  %incdec.ptr43 = getelementptr inbounds double, double* %45, i32 1, !dbg !10870
  store double* %incdec.ptr43, double** %next_dof_value, align 8, !dbg !10870
  store double %call42, double* %45, align 8, !dbg !10871
  br label %for.inc44, !dbg !10872

for.inc44:                                        ; preds = %for.body40
  %46 = load i32, i32* %d37, align 4, !dbg !10873
  %inc45 = add i32 %46, 1, !dbg !10873
  store i32 %inc45, i32* %d37, align 4, !dbg !10873
  br label %for.cond38, !dbg !10874, !llvm.loop !10875

for.end46:                                        ; preds = %for.cond38
  ret void, !dbg !10877
}

; Function Attrs: noinline uwtable
define weak_odr dso_local void @_ZNK6dealii13MGDoFAccessorILi2ELi3ELi3EE17get_mg_dof_valuesIfEEviRKNS_6VectorIT_EERS5_(%"class.dealii::MGDoFAccessor.36"* %this, i32 %level, %"class.dealii::Vector.35"* nonnull %values, %"class.dealii::Vector.35"* nonnull %dof_values) #0 comdat align 2 !dbg !10878 {
entry:
  %this.addr = alloca %"class.dealii::MGDoFAccessor.36"*, align 8
  %level.addr = alloca i32, align 4
  %values.addr = alloca %"class.dealii::Vector.35"*, align 8
  %dof_values.addr = alloca %"class.dealii::Vector.35"*, align 8
  store %"class.dealii::MGDoFAccessor.36"* %this, %"class.dealii::MGDoFAccessor.36"** %this.addr, align 8
  call void @llvm.dbg.declare(metadata %"class.dealii::MGDoFAccessor.36"** %this.addr, metadata !10882, metadata !DIExpression()), !dbg !10883
  store i32 %level, i32* %level.addr, align 4
  call void @llvm.dbg.declare(metadata i32* %level.addr, metadata !10884, metadata !DIExpression()), !dbg !10885
  store %"class.dealii::Vector.35"* %values, %"class.dealii::Vector.35"** %values.addr, align 8
  call void @llvm.dbg.declare(metadata %"class.dealii::Vector.35"** %values.addr, metadata !10886, metadata !DIExpression()), !dbg !10887
  store %"class.dealii::Vector.35"* %dof_values, %"class.dealii::Vector.35"** %dof_values.addr, align 8
  call void @llvm.dbg.declare(metadata %"class.dealii::Vector.35"** %dof_values.addr, metadata !10888, metadata !DIExpression()), !dbg !10889
  %this1 = load %"class.dealii::MGDoFAccessor.36"*, %"class.dealii::MGDoFAccessor.36"** %this.addr, align 8
  %0 = load i32, i32* %level.addr, align 4, !dbg !10890
  %1 = load %"class.dealii::Vector.35"*, %"class.dealii::Vector.35"** %values.addr, align 8, !dbg !10891
  %2 = load %"class.dealii::Vector.35"*, %"class.dealii::Vector.35"** %dof_values.addr, align 8, !dbg !10892
  call void @_ZN6dealii8internal13MGDoFAccessor17get_mg_dof_valuesILi3ELi3EfEEvRKNS_13MGDoFAccessorILi2EXT_EXT0_EEEiRKNS_6VectorIT1_EERS9_(%"class.dealii::MGDoFAccessor.36"* dereferenceable(32) %this1, i32 %0, %"class.dealii::Vector.35"* nonnull %1, %"class.dealii::Vector.35"* nonnull %2), !dbg !10893
  ret void, !dbg !10894
}

; Function Attrs: noinline uwtable
define linkonce_odr dso_local void @_ZN6dealii8internal13MGDoFAccessor17get_mg_dof_valuesILi3ELi3EfEEvRKNS_13MGDoFAccessorILi2EXT_EXT0_EEEiRKNS_6VectorIT1_EERS9_(%"class.dealii::MGDoFAccessor.36"* dereferenceable(32) %accessor, i32 %level, %"class.dealii::Vector.35"* nonnull %values, %"class.dealii::Vector.35"* nonnull %dof_values) #0 comdat !dbg !10895 {
entry:
  %accessor.addr = alloca %"class.dealii::MGDoFAccessor.36"*, align 8
  %level.addr = alloca i32, align 4
  %values.addr = alloca %"class.dealii::Vector.35"*, align 8
  %dof_values.addr = alloca %"class.dealii::Vector.35"*, align 8
  %dofs_per_vertex = alloca i32, align 4
  %dofs_per_line = alloca i32, align 4
  %dofs_per_quad = alloca i32, align 4
  %next_dof_value = alloca float*, align 8
  %vertex = alloca i32, align 4
  %d = alloca i32, align 4
  %line = alloca i32, align 4
  %d23 = alloca i32, align 4
  %ref.tmp = alloca %"class.dealii::TriaIterator", align 8
  %d37 = alloca i32, align 4
  store %"class.dealii::MGDoFAccessor.36"* %accessor, %"class.dealii::MGDoFAccessor.36"** %accessor.addr, align 8
  call void @llvm.dbg.declare(metadata %"class.dealii::MGDoFAccessor.36"** %accessor.addr, metadata !10898, metadata !DIExpression()), !dbg !10899
  store i32 %level, i32* %level.addr, align 4
  call void @llvm.dbg.declare(metadata i32* %level.addr, metadata !10900, metadata !DIExpression()), !dbg !10901
  store %"class.dealii::Vector.35"* %values, %"class.dealii::Vector.35"** %values.addr, align 8
  call void @llvm.dbg.declare(metadata %"class.dealii::Vector.35"** %values.addr, metadata !10902, metadata !DIExpression()), !dbg !10903
  store %"class.dealii::Vector.35"* %dof_values, %"class.dealii::Vector.35"** %dof_values.addr, align 8
  call void @llvm.dbg.declare(metadata %"class.dealii::Vector.35"** %dof_values.addr, metadata !10904, metadata !DIExpression()), !dbg !10905
  call void @llvm.dbg.declare(metadata i32* %dofs_per_vertex, metadata !10906, metadata !DIExpression()), !dbg !10907
  %0 = load %"class.dealii::MGDoFAccessor.36"*, %"class.dealii::MGDoFAccessor.36"** %accessor.addr, align 8, !dbg !10908
  %1 = bitcast %"class.dealii::MGDoFAccessor.36"* %0 to %"class.dealii::DoFAccessor.37"*, !dbg !10908
  %call = call dereferenceable(168) %"class.dealii::DoFHandler"* @_ZNK6dealii11DoFAccessorILi2ENS_10DoFHandlerILi3ELi3EEEE15get_dof_handlerEv(%"class.dealii::DoFAccessor.37"* %1), !dbg !10909
  %call1 = call dereferenceable(728) %"class.dealii::FiniteElement"* @_ZNK6dealii10DoFHandlerILi3ELi3EE6get_feEv(%"class.dealii::DoFHandler"* %call), !dbg !10910
  %2 = bitcast %"class.dealii::FiniteElement"* %call1 to i8*, !dbg !10908
  %add.ptr = getelementptr inbounds i8, i8* %2, i64 72, !dbg !10908
  %3 = bitcast i8* %add.ptr to %"class.dealii::FiniteElementData"*, !dbg !10908
  %dofs_per_vertex2 = getelementptr inbounds %"class.dealii::FiniteElementData", %"class.dealii::FiniteElementData"* %3, i32 0, i32 0, !dbg !10911
  %4 = load i32, i32* %dofs_per_vertex2, align 8, !dbg !10911
  store i32 %4, i32* %dofs_per_vertex, align 4, !dbg !10907
  call void @llvm.dbg.declare(metadata i32* %dofs_per_line, metadata !10912, metadata !DIExpression()), !dbg !10913
  %5 = load %"class.dealii::MGDoFAccessor.36"*, %"class.dealii::MGDoFAccessor.36"** %accessor.addr, align 8, !dbg !10914
  %6 = bitcast %"class.dealii::MGDoFAccessor.36"* %5 to %"class.dealii::DoFAccessor.37"*, !dbg !10914
  %call3 = call dereferenceable(168) %"class.dealii::DoFHandler"* @_ZNK6dealii11DoFAccessorILi2ENS_10DoFHandlerILi3ELi3EEEE15get_dof_handlerEv(%"class.dealii::DoFAccessor.37"* %6), !dbg !10915
  %call4 = call dereferenceable(728) %"class.dealii::FiniteElement"* @_ZNK6dealii10DoFHandlerILi3ELi3EE6get_feEv(%"class.dealii::DoFHandler"* %call3), !dbg !10916
  %7 = bitcast %"class.dealii::FiniteElement"* %call4 to i8*, !dbg !10914
  %add.ptr5 = getelementptr inbounds i8, i8* %7, i64 72, !dbg !10914
  %8 = bitcast i8* %add.ptr5 to %"class.dealii::FiniteElementData"*, !dbg !10914
  %dofs_per_line6 = getelementptr inbounds %"class.dealii::FiniteElementData", %"class.dealii::FiniteElementData"* %8, i32 0, i32 1, !dbg !10917
  %9 = load i32, i32* %dofs_per_line6, align 4, !dbg !10917
  store i32 %9, i32* %dofs_per_line, align 4, !dbg !10913
  call void @llvm.dbg.declare(metadata i32* %dofs_per_quad, metadata !10918, metadata !DIExpression()), !dbg !10919
  %10 = load %"class.dealii::MGDoFAccessor.36"*, %"class.dealii::MGDoFAccessor.36"** %accessor.addr, align 8, !dbg !10920
  %11 = bitcast %"class.dealii::MGDoFAccessor.36"* %10 to %"class.dealii::DoFAccessor.37"*, !dbg !10920
  %call7 = call dereferenceable(168) %"class.dealii::DoFHandler"* @_ZNK6dealii11DoFAccessorILi2ENS_10DoFHandlerILi3ELi3EEEE15get_dof_handlerEv(%"class.dealii::DoFAccessor.37"* %11), !dbg !10921
  %call8 = call dereferenceable(728) %"class.dealii::FiniteElement"* @_ZNK6dealii10DoFHandlerILi3ELi3EE6get_feEv(%"class.dealii::DoFHandler"* %call7), !dbg !10922
  %12 = bitcast %"class.dealii::FiniteElement"* %call8 to i8*, !dbg !10920
  %add.ptr9 = getelementptr inbounds i8, i8* %12, i64 72, !dbg !10920
  %13 = bitcast i8* %add.ptr9 to %"class.dealii::FiniteElementData"*, !dbg !10920
  %dofs_per_quad10 = getelementptr inbounds %"class.dealii::FiniteElementData", %"class.dealii::FiniteElementData"* %13, i32 0, i32 2, !dbg !10923
  %14 = load i32, i32* %dofs_per_quad10, align 8, !dbg !10923
  store i32 %14, i32* %dofs_per_quad, align 4, !dbg !10919
  call void @llvm.dbg.declare(metadata float** %next_dof_value, metadata !10924, metadata !DIExpression()), !dbg !10925
  %15 = load %"class.dealii::Vector.35"*, %"class.dealii::Vector.35"** %dof_values.addr, align 8, !dbg !10926
  %call11 = call float* @_ZN6dealii6VectorIfE5beginEv(%"class.dealii::Vector.35"* %15), !dbg !10927
  store float* %call11, float** %next_dof_value, align 8, !dbg !10925
  call void @llvm.dbg.declare(metadata i32* %vertex, metadata !10928, metadata !DIExpression()), !dbg !10930
  store i32 0, i32* %vertex, align 4, !dbg !10930
  br label %for.cond, !dbg !10931

for.cond:                                         ; preds = %for.inc17, %entry
  %16 = load i32, i32* %vertex, align 4, !dbg !10932
  %cmp = icmp ult i32 %16, 4, !dbg !10934
  br i1 %cmp, label %for.body, label %for.end19, !dbg !10935

for.body:                                         ; preds = %for.cond
  call void @llvm.dbg.declare(metadata i32* %d, metadata !10936, metadata !DIExpression()), !dbg !10938
  store i32 0, i32* %d, align 4, !dbg !10938
  br label %for.cond12, !dbg !10939

for.cond12:                                       ; preds = %for.inc, %for.body
  %17 = load i32, i32* %d, align 4, !dbg !10940
  %18 = load i32, i32* %dofs_per_vertex, align 4, !dbg !10942
  %cmp13 = icmp ult i32 %17, %18, !dbg !10943
  br i1 %cmp13, label %for.body14, label %for.end, !dbg !10944

for.body14:                                       ; preds = %for.cond12
  %19 = load %"class.dealii::Vector.35"*, %"class.dealii::Vector.35"** %values.addr, align 8, !dbg !10945
  %20 = load %"class.dealii::MGDoFAccessor.36"*, %"class.dealii::MGDoFAccessor.36"** %accessor.addr, align 8, !dbg !10946
  %21 = load i32, i32* %level.addr, align 4, !dbg !10947
  %22 = load i32, i32* %vertex, align 4, !dbg !10948
  %23 = load i32, i32* %d, align 4, !dbg !10949
  %call15 = call i32 @_ZNK6dealii13MGDoFAccessorILi2ELi3ELi3EE19mg_vertex_dof_indexEijj(%"class.dealii::MGDoFAccessor.36"* %20, i32 %21, i32 %22, i32 %23), !dbg !10950
  %call16 = call float @_ZNK6dealii6VectorIfEclEj(%"class.dealii::Vector.35"* %19, i32 %call15), !dbg !10945
  %24 = load float*, float** %next_dof_value, align 8, !dbg !10951
  %incdec.ptr = getelementptr inbounds float, float* %24, i32 1, !dbg !10951
  store float* %incdec.ptr, float** %next_dof_value, align 8, !dbg !10951
  store float %call16, float* %24, align 4, !dbg !10952
  br label %for.inc, !dbg !10953

for.inc:                                          ; preds = %for.body14
  %25 = load i32, i32* %d, align 4, !dbg !10954
  %inc = add i32 %25, 1, !dbg !10954
  store i32 %inc, i32* %d, align 4, !dbg !10954
  br label %for.cond12, !dbg !10955, !llvm.loop !10956

for.end:                                          ; preds = %for.cond12
  br label %for.inc17, !dbg !10957

for.inc17:                                        ; preds = %for.end
  %26 = load i32, i32* %vertex, align 4, !dbg !10958
  %inc18 = add i32 %26, 1, !dbg !10958
  store i32 %inc18, i32* %vertex, align 4, !dbg !10958
  br label %for.cond, !dbg !10959, !llvm.loop !10960

for.end19:                                        ; preds = %for.cond
  call void @llvm.dbg.declare(metadata i32* %line, metadata !10962, metadata !DIExpression()), !dbg !10964
  store i32 0, i32* %line, align 4, !dbg !10964
  br label %for.cond20, !dbg !10965

for.cond20:                                       ; preds = %for.inc34, %for.end19
  %27 = load i32, i32* %line, align 4, !dbg !10966
  %cmp21 = icmp ult i32 %27, 4, !dbg !10968
  br i1 %cmp21, label %for.body22, label %for.end36, !dbg !10969

for.body22:                                       ; preds = %for.cond20
  call void @llvm.dbg.declare(metadata i32* %d23, metadata !10970, metadata !DIExpression()), !dbg !10972
  store i32 0, i32* %d23, align 4, !dbg !10972
  br label %for.cond24, !dbg !10973

for.cond24:                                       ; preds = %for.inc31, %for.body22
  %28 = load i32, i32* %d23, align 4, !dbg !10974
  %29 = load i32, i32* %dofs_per_line, align 4, !dbg !10976
  %cmp25 = icmp ult i32 %28, %29, !dbg !10977
  br i1 %cmp25, label %for.body26, label %for.end33, !dbg !10978

for.body26:                                       ; preds = %for.cond24
  %30 = load %"class.dealii::Vector.35"*, %"class.dealii::Vector.35"** %values.addr, align 8, !dbg !10979
  %31 = load %"class.dealii::MGDoFAccessor.36"*, %"class.dealii::MGDoFAccessor.36"** %accessor.addr, align 8, !dbg !10980
  %32 = load i32, i32* %line, align 4, !dbg !10981
  call void @_ZNK6dealii13MGDoFAccessorILi2ELi3ELi3EE4lineEj(%"class.dealii::TriaIterator"* sret %ref.tmp, %"class.dealii::MGDoFAccessor.36"* %31, i32 %32), !dbg !10982
  %33 = bitcast %"class.dealii::TriaIterator"* %ref.tmp to %"class.dealii::TriaRawIterator"*, !dbg !10980
  %call27 = call %"class.dealii::MGDoFAccessor"* @_ZN6dealii15TriaRawIteratorINS_13MGDoFAccessorILi1ELi3ELi3EEEEptEv(%"class.dealii::TriaRawIterator"* %33), !dbg !10980
  %34 = load i32, i32* %level.addr, align 4, !dbg !10983
  %35 = load i32, i32* %d23, align 4, !dbg !10984
  %call28 = call i32 @_ZNK6dealii13MGDoFAccessorILi1ELi3ELi3EE12mg_dof_indexEij(%"class.dealii::MGDoFAccessor"* %call27, i32 %34, i32 %35), !dbg !10985
  %call29 = call float @_ZNK6dealii6VectorIfEclEj(%"class.dealii::Vector.35"* %30, i32 %call28), !dbg !10979
  %36 = load float*, float** %next_dof_value, align 8, !dbg !10986
  %incdec.ptr30 = getelementptr inbounds float, float* %36, i32 1, !dbg !10986
  store float* %incdec.ptr30, float** %next_dof_value, align 8, !dbg !10986
  store float %call29, float* %36, align 4, !dbg !10987
  br label %for.inc31, !dbg !10988

for.inc31:                                        ; preds = %for.body26
  %37 = load i32, i32* %d23, align 4, !dbg !10989
  %inc32 = add i32 %37, 1, !dbg !10989
  store i32 %inc32, i32* %d23, align 4, !dbg !10989
  br label %for.cond24, !dbg !10990, !llvm.loop !10991

for.end33:                                        ; preds = %for.cond24
  br label %for.inc34, !dbg !10992

for.inc34:                                        ; preds = %for.end33
  %38 = load i32, i32* %line, align 4, !dbg !10993
  %inc35 = add i32 %38, 1, !dbg !10993
  store i32 %inc35, i32* %line, align 4, !dbg !10993
  br label %for.cond20, !dbg !10994, !llvm.loop !10995

for.end36:                                        ; preds = %for.cond20
  call void @llvm.dbg.declare(metadata i32* %d37, metadata !10997, metadata !DIExpression()), !dbg !10999
  store i32 0, i32* %d37, align 4, !dbg !10999
  br label %for.cond38, !dbg !11000

for.cond38:                                       ; preds = %for.inc44, %for.end36
  %39 = load i32, i32* %d37, align 4, !dbg !11001
  %40 = load i32, i32* %dofs_per_quad, align 4, !dbg !11003
  %cmp39 = icmp ult i32 %39, %40, !dbg !11004
  br i1 %cmp39, label %for.body40, label %for.end46, !dbg !11005

for.body40:                                       ; preds = %for.cond38
  %41 = load %"class.dealii::Vector.35"*, %"class.dealii::Vector.35"** %values.addr, align 8, !dbg !11006
  %42 = load %"class.dealii::MGDoFAccessor.36"*, %"class.dealii::MGDoFAccessor.36"** %accessor.addr, align 8, !dbg !11007
  %43 = load i32, i32* %level.addr, align 4, !dbg !11008
  %44 = load i32, i32* %d37, align 4, !dbg !11009
  %call41 = call i32 @_ZNK6dealii13MGDoFAccessorILi2ELi3ELi3EE12mg_dof_indexEij(%"class.dealii::MGDoFAccessor.36"* %42, i32 %43, i32 %44), !dbg !11010
  %call42 = call float @_ZNK6dealii6VectorIfEclEj(%"class.dealii::Vector.35"* %41, i32 %call41), !dbg !11006
  %45 = load float*, float** %next_dof_value, align 8, !dbg !11011
  %incdec.ptr43 = getelementptr inbounds float, float* %45, i32 1, !dbg !11011
  store float* %incdec.ptr43, float** %next_dof_value, align 8, !dbg !11011
  store float %call42, float* %45, align 4, !dbg !11012
  br label %for.inc44, !dbg !11013

for.inc44:                                        ; preds = %for.body40
  %46 = load i32, i32* %d37, align 4, !dbg !11014
  %inc45 = add i32 %46, 1, !dbg !11014
  store i32 %inc45, i32* %d37, align 4, !dbg !11014
  br label %for.cond38, !dbg !11015, !llvm.loop !11016

for.end46:                                        ; preds = %for.cond38
  ret void, !dbg !11018
}

; Function Attrs: noinline uwtable
define weak_odr dso_local void @_ZNK6dealii13MGDoFAccessorILi3ELi3ELi3EE17get_mg_dof_valuesIdEEviRKNS_6VectorIT_EERS5_(%"class.dealii::MGDoFAccessor.40"* %this, i32 %level, %"class.dealii::Vector"* nonnull %values, %"class.dealii::Vector"* nonnull %dof_values) #0 comdat align 2 !dbg !11019 {
entry:
  %this.addr = alloca %"class.dealii::MGDoFAccessor.40"*, align 8
  %level.addr = alloca i32, align 4
  %values.addr = alloca %"class.dealii::Vector"*, align 8
  %dof_values.addr = alloca %"class.dealii::Vector"*, align 8
  store %"class.dealii::MGDoFAccessor.40"* %this, %"class.dealii::MGDoFAccessor.40"** %this.addr, align 8
  call void @llvm.dbg.declare(metadata %"class.dealii::MGDoFAccessor.40"** %this.addr, metadata !11023, metadata !DIExpression()), !dbg !11024
  store i32 %level, i32* %level.addr, align 4
  call void @llvm.dbg.declare(metadata i32* %level.addr, metadata !11025, metadata !DIExpression()), !dbg !11026
  store %"class.dealii::Vector"* %values, %"class.dealii::Vector"** %values.addr, align 8
  call void @llvm.dbg.declare(metadata %"class.dealii::Vector"** %values.addr, metadata !11027, metadata !DIExpression()), !dbg !11028
  store %"class.dealii::Vector"* %dof_values, %"class.dealii::Vector"** %dof_values.addr, align 8
  call void @llvm.dbg.declare(metadata %"class.dealii::Vector"** %dof_values.addr, metadata !11029, metadata !DIExpression()), !dbg !11030
  %this1 = load %"class.dealii::MGDoFAccessor.40"*, %"class.dealii::MGDoFAccessor.40"** %this.addr, align 8
  %0 = load i32, i32* %level.addr, align 4, !dbg !11031
  %1 = load %"class.dealii::Vector"*, %"class.dealii::Vector"** %values.addr, align 8, !dbg !11032
  %2 = load %"class.dealii::Vector"*, %"class.dealii::Vector"** %dof_values.addr, align 8, !dbg !11033
  call void @_ZN6dealii8internal13MGDoFAccessor17get_mg_dof_valuesILi3ELi3EdEEvRKNS_13MGDoFAccessorILi3EXT_EXT0_EEEiRKNS_6VectorIT1_EERS9_(%"class.dealii::MGDoFAccessor.40"* dereferenceable(32) %this1, i32 %0, %"class.dealii::Vector"* nonnull %1, %"class.dealii::Vector"* nonnull %2), !dbg !11034
  ret void, !dbg !11035
}

; Function Attrs: noinline uwtable
define linkonce_odr dso_local void @_ZN6dealii8internal13MGDoFAccessor17get_mg_dof_valuesILi3ELi3EdEEvRKNS_13MGDoFAccessorILi3EXT_EXT0_EEEiRKNS_6VectorIT1_EERS9_(%"class.dealii::MGDoFAccessor.40"* dereferenceable(32) %accessor, i32 %level, %"class.dealii::Vector"* nonnull %values, %"class.dealii::Vector"* nonnull %dof_values) #0 comdat !dbg !11036 {
entry:
  %accessor.addr = alloca %"class.dealii::MGDoFAccessor.40"*, align 8
  %level.addr = alloca i32, align 4
  %values.addr = alloca %"class.dealii::Vector"*, align 8
  %dof_values.addr = alloca %"class.dealii::Vector"*, align 8
  %dofs_per_vertex = alloca i32, align 4
  %dofs_per_line = alloca i32, align 4
  %dofs_per_quad = alloca i32, align 4
  %dofs_per_hex = alloca i32, align 4
  %next_dof_value = alloca double*, align 8
  %vertex = alloca i32, align 4
  %d = alloca i32, align 4
  %line = alloca i32, align 4
  %d27 = alloca i32, align 4
  %ref.tmp = alloca %"class.dealii::TriaIterator", align 8
  %quad = alloca i32, align 4
  %d44 = alloca i32, align 4
  %ref.tmp48 = alloca %"class.dealii::TriaIterator.169", align 8
  %d59 = alloca i32, align 4
  store %"class.dealii::MGDoFAccessor.40"* %accessor, %"class.dealii::MGDoFAccessor.40"** %accessor.addr, align 8
  call void @llvm.dbg.declare(metadata %"class.dealii::MGDoFAccessor.40"** %accessor.addr, metadata !11039, metadata !DIExpression()), !dbg !11040
  store i32 %level, i32* %level.addr, align 4
  call void @llvm.dbg.declare(metadata i32* %level.addr, metadata !11041, metadata !DIExpression()), !dbg !11042
  store %"class.dealii::Vector"* %values, %"class.dealii::Vector"** %values.addr, align 8
  call void @llvm.dbg.declare(metadata %"class.dealii::Vector"** %values.addr, metadata !11043, metadata !DIExpression()), !dbg !11044
  store %"class.dealii::Vector"* %dof_values, %"class.dealii::Vector"** %dof_values.addr, align 8
  call void @llvm.dbg.declare(metadata %"class.dealii::Vector"** %dof_values.addr, metadata !11045, metadata !DIExpression()), !dbg !11046
  call void @llvm.dbg.declare(metadata i32* %dofs_per_vertex, metadata !11047, metadata !DIExpression()), !dbg !11048
  %0 = load %"class.dealii::MGDoFAccessor.40"*, %"class.dealii::MGDoFAccessor.40"** %accessor.addr, align 8, !dbg !11049
  %1 = bitcast %"class.dealii::MGDoFAccessor.40"* %0 to %"class.dealii::DoFAccessor.41"*, !dbg !11049
  %call = call dereferenceable(168) %"class.dealii::DoFHandler"* @_ZNK6dealii11DoFAccessorILi3ENS_10DoFHandlerILi3ELi3EEEE15get_dof_handlerEv(%"class.dealii::DoFAccessor.41"* %1), !dbg !11050
  %call1 = call dereferenceable(728) %"class.dealii::FiniteElement"* @_ZNK6dealii10DoFHandlerILi3ELi3EE6get_feEv(%"class.dealii::DoFHandler"* %call), !dbg !11051
  %2 = bitcast %"class.dealii::FiniteElement"* %call1 to i8*, !dbg !11049
  %add.ptr = getelementptr inbounds i8, i8* %2, i64 72, !dbg !11049
  %3 = bitcast i8* %add.ptr to %"class.dealii::FiniteElementData"*, !dbg !11049
  %dofs_per_vertex2 = getelementptr inbounds %"class.dealii::FiniteElementData", %"class.dealii::FiniteElementData"* %3, i32 0, i32 0, !dbg !11052
  %4 = load i32, i32* %dofs_per_vertex2, align 8, !dbg !11052
  store i32 %4, i32* %dofs_per_vertex, align 4, !dbg !11048
  call void @llvm.dbg.declare(metadata i32* %dofs_per_line, metadata !11053, metadata !DIExpression()), !dbg !11054
  %5 = load %"class.dealii::MGDoFAccessor.40"*, %"class.dealii::MGDoFAccessor.40"** %accessor.addr, align 8, !dbg !11055
  %6 = bitcast %"class.dealii::MGDoFAccessor.40"* %5 to %"class.dealii::DoFAccessor.41"*, !dbg !11055
  %call3 = call dereferenceable(168) %"class.dealii::DoFHandler"* @_ZNK6dealii11DoFAccessorILi3ENS_10DoFHandlerILi3ELi3EEEE15get_dof_handlerEv(%"class.dealii::DoFAccessor.41"* %6), !dbg !11056
  %call4 = call dereferenceable(728) %"class.dealii::FiniteElement"* @_ZNK6dealii10DoFHandlerILi3ELi3EE6get_feEv(%"class.dealii::DoFHandler"* %call3), !dbg !11057
  %7 = bitcast %"class.dealii::FiniteElement"* %call4 to i8*, !dbg !11055
  %add.ptr5 = getelementptr inbounds i8, i8* %7, i64 72, !dbg !11055
  %8 = bitcast i8* %add.ptr5 to %"class.dealii::FiniteElementData"*, !dbg !11055
  %dofs_per_line6 = getelementptr inbounds %"class.dealii::FiniteElementData", %"class.dealii::FiniteElementData"* %8, i32 0, i32 1, !dbg !11058
  %9 = load i32, i32* %dofs_per_line6, align 4, !dbg !11058
  store i32 %9, i32* %dofs_per_line, align 4, !dbg !11054
  call void @llvm.dbg.declare(metadata i32* %dofs_per_quad, metadata !11059, metadata !DIExpression()), !dbg !11060
  %10 = load %"class.dealii::MGDoFAccessor.40"*, %"class.dealii::MGDoFAccessor.40"** %accessor.addr, align 8, !dbg !11061
  %11 = bitcast %"class.dealii::MGDoFAccessor.40"* %10 to %"class.dealii::DoFAccessor.41"*, !dbg !11061
  %call7 = call dereferenceable(168) %"class.dealii::DoFHandler"* @_ZNK6dealii11DoFAccessorILi3ENS_10DoFHandlerILi3ELi3EEEE15get_dof_handlerEv(%"class.dealii::DoFAccessor.41"* %11), !dbg !11062
  %call8 = call dereferenceable(728) %"class.dealii::FiniteElement"* @_ZNK6dealii10DoFHandlerILi3ELi3EE6get_feEv(%"class.dealii::DoFHandler"* %call7), !dbg !11063
  %12 = bitcast %"class.dealii::FiniteElement"* %call8 to i8*, !dbg !11061
  %add.ptr9 = getelementptr inbounds i8, i8* %12, i64 72, !dbg !11061
  %13 = bitcast i8* %add.ptr9 to %"class.dealii::FiniteElementData"*, !dbg !11061
  %dofs_per_quad10 = getelementptr inbounds %"class.dealii::FiniteElementData", %"class.dealii::FiniteElementData"* %13, i32 0, i32 2, !dbg !11064
  %14 = load i32, i32* %dofs_per_quad10, align 8, !dbg !11064
  store i32 %14, i32* %dofs_per_quad, align 4, !dbg !11060
  call void @llvm.dbg.declare(metadata i32* %dofs_per_hex, metadata !11065, metadata !DIExpression()), !dbg !11066
  %15 = load %"class.dealii::MGDoFAccessor.40"*, %"class.dealii::MGDoFAccessor.40"** %accessor.addr, align 8, !dbg !11067
  %16 = bitcast %"class.dealii::MGDoFAccessor.40"* %15 to %"class.dealii::DoFAccessor.41"*, !dbg !11067
  %call11 = call dereferenceable(168) %"class.dealii::DoFHandler"* @_ZNK6dealii11DoFAccessorILi3ENS_10DoFHandlerILi3ELi3EEEE15get_dof_handlerEv(%"class.dealii::DoFAccessor.41"* %16), !dbg !11068
  %call12 = call dereferenceable(728) %"class.dealii::FiniteElement"* @_ZNK6dealii10DoFHandlerILi3ELi3EE6get_feEv(%"class.dealii::DoFHandler"* %call11), !dbg !11069
  %17 = bitcast %"class.dealii::FiniteElement"* %call12 to i8*, !dbg !11067
  %add.ptr13 = getelementptr inbounds i8, i8* %17, i64 72, !dbg !11067
  %18 = bitcast i8* %add.ptr13 to %"class.dealii::FiniteElementData"*, !dbg !11067
  %dofs_per_hex14 = getelementptr inbounds %"class.dealii::FiniteElementData", %"class.dealii::FiniteElementData"* %18, i32 0, i32 3, !dbg !11070
  %19 = load i32, i32* %dofs_per_hex14, align 4, !dbg !11070
  store i32 %19, i32* %dofs_per_hex, align 4, !dbg !11066
  call void @llvm.dbg.declare(metadata double** %next_dof_value, metadata !11071, metadata !DIExpression()), !dbg !11072
  %20 = load %"class.dealii::Vector"*, %"class.dealii::Vector"** %dof_values.addr, align 8, !dbg !11073
  %call15 = call double* @_ZN6dealii6VectorIdE5beginEv(%"class.dealii::Vector"* %20), !dbg !11074
  store double* %call15, double** %next_dof_value, align 8, !dbg !11072
  call void @llvm.dbg.declare(metadata i32* %vertex, metadata !11075, metadata !DIExpression()), !dbg !11077
  store i32 0, i32* %vertex, align 4, !dbg !11077
  br label %for.cond, !dbg !11078

for.cond:                                         ; preds = %for.inc21, %entry
  %21 = load i32, i32* %vertex, align 4, !dbg !11079
  %cmp = icmp ult i32 %21, 8, !dbg !11081
  br i1 %cmp, label %for.body, label %for.end23, !dbg !11082

for.body:                                         ; preds = %for.cond
  call void @llvm.dbg.declare(metadata i32* %d, metadata !11083, metadata !DIExpression()), !dbg !11085
  store i32 0, i32* %d, align 4, !dbg !11085
  br label %for.cond16, !dbg !11086

for.cond16:                                       ; preds = %for.inc, %for.body
  %22 = load i32, i32* %d, align 4, !dbg !11087
  %23 = load i32, i32* %dofs_per_vertex, align 4, !dbg !11089
  %cmp17 = icmp ult i32 %22, %23, !dbg !11090
  br i1 %cmp17, label %for.body18, label %for.end, !dbg !11091

for.body18:                                       ; preds = %for.cond16
  %24 = load %"class.dealii::Vector"*, %"class.dealii::Vector"** %values.addr, align 8, !dbg !11092
  %25 = load %"class.dealii::MGDoFAccessor.40"*, %"class.dealii::MGDoFAccessor.40"** %accessor.addr, align 8, !dbg !11093
  %26 = load i32, i32* %level.addr, align 4, !dbg !11094
  %27 = load i32, i32* %vertex, align 4, !dbg !11095
  %28 = load i32, i32* %d, align 4, !dbg !11096
  %call19 = call i32 @_ZNK6dealii13MGDoFAccessorILi3ELi3ELi3EE19mg_vertex_dof_indexEijj(%"class.dealii::MGDoFAccessor.40"* %25, i32 %26, i32 %27, i32 %28), !dbg !11097
  %call20 = call double @_ZNK6dealii6VectorIdEclEj(%"class.dealii::Vector"* %24, i32 %call19), !dbg !11092
  %29 = load double*, double** %next_dof_value, align 8, !dbg !11098
  %incdec.ptr = getelementptr inbounds double, double* %29, i32 1, !dbg !11098
  store double* %incdec.ptr, double** %next_dof_value, align 8, !dbg !11098
  store double %call20, double* %29, align 8, !dbg !11099
  br label %for.inc, !dbg !11100

for.inc:                                          ; preds = %for.body18
  %30 = load i32, i32* %d, align 4, !dbg !11101
  %inc = add i32 %30, 1, !dbg !11101
  store i32 %inc, i32* %d, align 4, !dbg !11101
  br label %for.cond16, !dbg !11102, !llvm.loop !11103

for.end:                                          ; preds = %for.cond16
  br label %for.inc21, !dbg !11104

for.inc21:                                        ; preds = %for.end
  %31 = load i32, i32* %vertex, align 4, !dbg !11105
  %inc22 = add i32 %31, 1, !dbg !11105
  store i32 %inc22, i32* %vertex, align 4, !dbg !11105
  br label %for.cond, !dbg !11106, !llvm.loop !11107

for.end23:                                        ; preds = %for.cond
  call void @llvm.dbg.declare(metadata i32* %line, metadata !11109, metadata !DIExpression()), !dbg !11111
  store i32 0, i32* %line, align 4, !dbg !11111
  br label %for.cond24, !dbg !11112

for.cond24:                                       ; preds = %for.inc38, %for.end23
  %32 = load i32, i32* %line, align 4, !dbg !11113
  %cmp25 = icmp ult i32 %32, 12, !dbg !11115
  br i1 %cmp25, label %for.body26, label %for.end40, !dbg !11116

for.body26:                                       ; preds = %for.cond24
  call void @llvm.dbg.declare(metadata i32* %d27, metadata !11117, metadata !DIExpression()), !dbg !11119
  store i32 0, i32* %d27, align 4, !dbg !11119
  br label %for.cond28, !dbg !11120

for.cond28:                                       ; preds = %for.inc35, %for.body26
  %33 = load i32, i32* %d27, align 4, !dbg !11121
  %34 = load i32, i32* %dofs_per_line, align 4, !dbg !11123
  %cmp29 = icmp ult i32 %33, %34, !dbg !11124
  br i1 %cmp29, label %for.body30, label %for.end37, !dbg !11125

for.body30:                                       ; preds = %for.cond28
  %35 = load %"class.dealii::Vector"*, %"class.dealii::Vector"** %values.addr, align 8, !dbg !11126
  %36 = load %"class.dealii::MGDoFAccessor.40"*, %"class.dealii::MGDoFAccessor.40"** %accessor.addr, align 8, !dbg !11127
  %37 = load i32, i32* %line, align 4, !dbg !11128
  call void @_ZNK6dealii13MGDoFAccessorILi3ELi3ELi3EE4lineEj(%"class.dealii::TriaIterator"* sret %ref.tmp, %"class.dealii::MGDoFAccessor.40"* %36, i32 %37), !dbg !11129
  %38 = bitcast %"class.dealii::TriaIterator"* %ref.tmp to %"class.dealii::TriaRawIterator"*, !dbg !11127
  %call31 = call %"class.dealii::MGDoFAccessor"* @_ZN6dealii15TriaRawIteratorINS_13MGDoFAccessorILi1ELi3ELi3EEEEptEv(%"class.dealii::TriaRawIterator"* %38), !dbg !11127
  %39 = load i32, i32* %level.addr, align 4, !dbg !11130
  %40 = load i32, i32* %d27, align 4, !dbg !11131
  %call32 = call i32 @_ZNK6dealii13MGDoFAccessorILi1ELi3ELi3EE12mg_dof_indexEij(%"class.dealii::MGDoFAccessor"* %call31, i32 %39, i32 %40), !dbg !11132
  %call33 = call double @_ZNK6dealii6VectorIdEclEj(%"class.dealii::Vector"* %35, i32 %call32), !dbg !11126
  %41 = load double*, double** %next_dof_value, align 8, !dbg !11133
  %incdec.ptr34 = getelementptr inbounds double, double* %41, i32 1, !dbg !11133
  store double* %incdec.ptr34, double** %next_dof_value, align 8, !dbg !11133
  store double %call33, double* %41, align 8, !dbg !11134
  br label %for.inc35, !dbg !11135

for.inc35:                                        ; preds = %for.body30
  %42 = load i32, i32* %d27, align 4, !dbg !11136
  %inc36 = add i32 %42, 1, !dbg !11136
  store i32 %inc36, i32* %d27, align 4, !dbg !11136
  br label %for.cond28, !dbg !11137, !llvm.loop !11138

for.end37:                                        ; preds = %for.cond28
  br label %for.inc38, !dbg !11139

for.inc38:                                        ; preds = %for.end37
  %43 = load i32, i32* %line, align 4, !dbg !11140
  %inc39 = add i32 %43, 1, !dbg !11140
  store i32 %inc39, i32* %line, align 4, !dbg !11140
  br label %for.cond24, !dbg !11141, !llvm.loop !11142

for.end40:                                        ; preds = %for.cond24
  call void @llvm.dbg.declare(metadata i32* %quad, metadata !11144, metadata !DIExpression()), !dbg !11146
  store i32 0, i32* %quad, align 4, !dbg !11146
  br label %for.cond41, !dbg !11147

for.cond41:                                       ; preds = %for.inc56, %for.end40
  %44 = load i32, i32* %quad, align 4, !dbg !11148
  %cmp42 = icmp ult i32 %44, 6, !dbg !11150
  br i1 %cmp42, label %for.body43, label %for.end58, !dbg !11151

for.body43:                                       ; preds = %for.cond41
  call void @llvm.dbg.declare(metadata i32* %d44, metadata !11152, metadata !DIExpression()), !dbg !11154
  store i32 0, i32* %d44, align 4, !dbg !11154
  br label %for.cond45, !dbg !11155

for.cond45:                                       ; preds = %for.inc53, %for.body43
  %45 = load i32, i32* %d44, align 4, !dbg !11156
  %46 = load i32, i32* %dofs_per_quad, align 4, !dbg !11158
  %cmp46 = icmp ult i32 %45, %46, !dbg !11159
  br i1 %cmp46, label %for.body47, label %for.end55, !dbg !11160

for.body47:                                       ; preds = %for.cond45
  %47 = load %"class.dealii::Vector"*, %"class.dealii::Vector"** %values.addr, align 8, !dbg !11161
  %48 = load %"class.dealii::MGDoFAccessor.40"*, %"class.dealii::MGDoFAccessor.40"** %accessor.addr, align 8, !dbg !11162
  %49 = load i32, i32* %quad, align 4, !dbg !11163
  call void @_ZNK6dealii13MGDoFAccessorILi3ELi3ELi3EE4quadEj(%"class.dealii::TriaIterator.169"* sret %ref.tmp48, %"class.dealii::MGDoFAccessor.40"* %48, i32 %49), !dbg !11164
  %50 = bitcast %"class.dealii::TriaIterator.169"* %ref.tmp48 to %"class.dealii::TriaRawIterator.170"*, !dbg !11162
  %call49 = call %"class.dealii::MGDoFAccessor.36"* @_ZN6dealii15TriaRawIteratorINS_13MGDoFAccessorILi2ELi3ELi3EEEEptEv(%"class.dealii::TriaRawIterator.170"* %50), !dbg !11162
  %51 = load i32, i32* %level.addr, align 4, !dbg !11165
  %52 = load i32, i32* %d44, align 4, !dbg !11166
  %call50 = call i32 @_ZNK6dealii13MGDoFAccessorILi2ELi3ELi3EE12mg_dof_indexEij(%"class.dealii::MGDoFAccessor.36"* %call49, i32 %51, i32 %52), !dbg !11167
  %call51 = call double @_ZNK6dealii6VectorIdEclEj(%"class.dealii::Vector"* %47, i32 %call50), !dbg !11161
  %53 = load double*, double** %next_dof_value, align 8, !dbg !11168
  %incdec.ptr52 = getelementptr inbounds double, double* %53, i32 1, !dbg !11168
  store double* %incdec.ptr52, double** %next_dof_value, align 8, !dbg !11168
  store double %call51, double* %53, align 8, !dbg !11169
  br label %for.inc53, !dbg !11170

for.inc53:                                        ; preds = %for.body47
  %54 = load i32, i32* %d44, align 4, !dbg !11171
  %inc54 = add i32 %54, 1, !dbg !11171
  store i32 %inc54, i32* %d44, align 4, !dbg !11171
  br label %for.cond45, !dbg !11172, !llvm.loop !11173

for.end55:                                        ; preds = %for.cond45
  br label %for.inc56, !dbg !11174

for.inc56:                                        ; preds = %for.end55
  %55 = load i32, i32* %quad, align 4, !dbg !11175
  %inc57 = add i32 %55, 1, !dbg !11175
  store i32 %inc57, i32* %quad, align 4, !dbg !11175
  br label %for.cond41, !dbg !11176, !llvm.loop !11177

for.end58:                                        ; preds = %for.cond41
  call void @llvm.dbg.declare(metadata i32* %d59, metadata !11179, metadata !DIExpression()), !dbg !11181
  store i32 0, i32* %d59, align 4, !dbg !11181
  br label %for.cond60, !dbg !11182

for.cond60:                                       ; preds = %for.inc66, %for.end58
  %56 = load i32, i32* %d59, align 4, !dbg !11183
  %57 = load i32, i32* %dofs_per_hex, align 4, !dbg !11185
  %cmp61 = icmp ult i32 %56, %57, !dbg !11186
  br i1 %cmp61, label %for.body62, label %for.end68, !dbg !11187

for.body62:                                       ; preds = %for.cond60
  %58 = load %"class.dealii::Vector"*, %"class.dealii::Vector"** %values.addr, align 8, !dbg !11188
  %59 = load %"class.dealii::MGDoFAccessor.40"*, %"class.dealii::MGDoFAccessor.40"** %accessor.addr, align 8, !dbg !11189
  %60 = bitcast %"class.dealii::MGDoFAccessor.40"* %59 to %"class.dealii::DoFAccessor.41"*, !dbg !11189
  %61 = load i32, i32* %d59, align 4, !dbg !11190
  %call63 = call i32 @_ZNK6dealii11DoFAccessorILi3ENS_10DoFHandlerILi3ELi3EEEE9dof_indexEjj(%"class.dealii::DoFAccessor.41"* %60, i32 %61, i32 0), !dbg !11191
  %call64 = call double @_ZNK6dealii6VectorIdEclEj(%"class.dealii::Vector"* %58, i32 %call63), !dbg !11188
  %62 = load double*, double** %next_dof_value, align 8, !dbg !11192
  %incdec.ptr65 = getelementptr inbounds double, double* %62, i32 1, !dbg !11192
  store double* %incdec.ptr65, double** %next_dof_value, align 8, !dbg !11192
  store double %call64, double* %62, align 8, !dbg !11193
  br label %for.inc66, !dbg !11194

for.inc66:                                        ; preds = %for.body62
  %63 = load i32, i32* %d59, align 4, !dbg !11195
  %inc67 = add i32 %63, 1, !dbg !11195
  store i32 %inc67, i32* %d59, align 4, !dbg !11195
  br label %for.cond60, !dbg !11196, !llvm.loop !11197

for.end68:                                        ; preds = %for.cond60
  ret void, !dbg !11199
}

; Function Attrs: noinline uwtable
define weak_odr dso_local void @_ZNK6dealii13MGDoFAccessorILi3ELi3ELi3EE17get_mg_dof_valuesIfEEviRKNS_6VectorIT_EERS5_(%"class.dealii::MGDoFAccessor.40"* %this, i32 %level, %"class.dealii::Vector.35"* nonnull %values, %"class.dealii::Vector.35"* nonnull %dof_values) #0 comdat align 2 !dbg !11200 {
entry:
  %this.addr = alloca %"class.dealii::MGDoFAccessor.40"*, align 8
  %level.addr = alloca i32, align 4
  %values.addr = alloca %"class.dealii::Vector.35"*, align 8
  %dof_values.addr = alloca %"class.dealii::Vector.35"*, align 8
  store %"class.dealii::MGDoFAccessor.40"* %this, %"class.dealii::MGDoFAccessor.40"** %this.addr, align 8
  call void @llvm.dbg.declare(metadata %"class.dealii::MGDoFAccessor.40"** %this.addr, metadata !11204, metadata !DIExpression()), !dbg !11205
  store i32 %level, i32* %level.addr, align 4
  call void @llvm.dbg.declare(metadata i32* %level.addr, metadata !11206, metadata !DIExpression()), !dbg !11207
  store %"class.dealii::Vector.35"* %values, %"class.dealii::Vector.35"** %values.addr, align 8
  call void @llvm.dbg.declare(metadata %"class.dealii::Vector.35"** %values.addr, metadata !11208, metadata !DIExpression()), !dbg !11209
  store %"class.dealii::Vector.35"* %dof_values, %"class.dealii::Vector.35"** %dof_values.addr, align 8
  call void @llvm.dbg.declare(metadata %"class.dealii::Vector.35"** %dof_values.addr, metadata !11210, metadata !DIExpression()), !dbg !11211
  %this1 = load %"class.dealii::MGDoFAccessor.40"*, %"class.dealii::MGDoFAccessor.40"** %this.addr, align 8
  %0 = load i32, i32* %level.addr, align 4, !dbg !11212
  %1 = load %"class.dealii::Vector.35"*, %"class.dealii::Vector.35"** %values.addr, align 8, !dbg !11213
  %2 = load %"class.dealii::Vector.35"*, %"class.dealii::Vector.35"** %dof_values.addr, align 8, !dbg !11214
  call void @_ZN6dealii8internal13MGDoFAccessor17get_mg_dof_valuesILi3ELi3EfEEvRKNS_13MGDoFAccessorILi3EXT_EXT0_EEEiRKNS_6VectorIT1_EERS9_(%"class.dealii::MGDoFAccessor.40"* dereferenceable(32) %this1, i32 %0, %"class.dealii::Vector.35"* nonnull %1, %"class.dealii::Vector.35"* nonnull %2), !dbg !11215
  ret void, !dbg !11216
}

; Function Attrs: noinline uwtable
define linkonce_odr dso_local void @_ZN6dealii8internal13MGDoFAccessor17get_mg_dof_valuesILi3ELi3EfEEvRKNS_13MGDoFAccessorILi3EXT_EXT0_EEEiRKNS_6VectorIT1_EERS9_(%"class.dealii::MGDoFAccessor.40"* dereferenceable(32) %accessor, i32 %level, %"class.dealii::Vector.35"* nonnull %values, %"class.dealii::Vector.35"* nonnull %dof_values) #0 comdat !dbg !11217 {
entry:
  %accessor.addr = alloca %"class.dealii::MGDoFAccessor.40"*, align 8
  %level.addr = alloca i32, align 4
  %values.addr = alloca %"class.dealii::Vector.35"*, align 8
  %dof_values.addr = alloca %"class.dealii::Vector.35"*, align 8
  %dofs_per_vertex = alloca i32, align 4
  %dofs_per_line = alloca i32, align 4
  %dofs_per_quad = alloca i32, align 4
  %dofs_per_hex = alloca i32, align 4
  %next_dof_value = alloca float*, align 8
  %vertex = alloca i32, align 4
  %d = alloca i32, align 4
  %line = alloca i32, align 4
  %d27 = alloca i32, align 4
  %ref.tmp = alloca %"class.dealii::TriaIterator", align 8
  %quad = alloca i32, align 4
  %d44 = alloca i32, align 4
  %ref.tmp48 = alloca %"class.dealii::TriaIterator.169", align 8
  %d59 = alloca i32, align 4
  store %"class.dealii::MGDoFAccessor.40"* %accessor, %"class.dealii::MGDoFAccessor.40"** %accessor.addr, align 8
  call void @llvm.dbg.declare(metadata %"class.dealii::MGDoFAccessor.40"** %accessor.addr, metadata !11220, metadata !DIExpression()), !dbg !11221
  store i32 %level, i32* %level.addr, align 4
  call void @llvm.dbg.declare(metadata i32* %level.addr, metadata !11222, metadata !DIExpression()), !dbg !11223
  store %"class.dealii::Vector.35"* %values, %"class.dealii::Vector.35"** %values.addr, align 8
  call void @llvm.dbg.declare(metadata %"class.dealii::Vector.35"** %values.addr, metadata !11224, metadata !DIExpression()), !dbg !11225
  store %"class.dealii::Vector.35"* %dof_values, %"class.dealii::Vector.35"** %dof_values.addr, align 8
  call void @llvm.dbg.declare(metadata %"class.dealii::Vector.35"** %dof_values.addr, metadata !11226, metadata !DIExpression()), !dbg !11227
  call void @llvm.dbg.declare(metadata i32* %dofs_per_vertex, metadata !11228, metadata !DIExpression()), !dbg !11229
  %0 = load %"class.dealii::MGDoFAccessor.40"*, %"class.dealii::MGDoFAccessor.40"** %accessor.addr, align 8, !dbg !11230
  %1 = bitcast %"class.dealii::MGDoFAccessor.40"* %0 to %"class.dealii::DoFAccessor.41"*, !dbg !11230
  %call = call dereferenceable(168) %"class.dealii::DoFHandler"* @_ZNK6dealii11DoFAccessorILi3ENS_10DoFHandlerILi3ELi3EEEE15get_dof_handlerEv(%"class.dealii::DoFAccessor.41"* %1), !dbg !11231
  %call1 = call dereferenceable(728) %"class.dealii::FiniteElement"* @_ZNK6dealii10DoFHandlerILi3ELi3EE6get_feEv(%"class.dealii::DoFHandler"* %call), !dbg !11232
  %2 = bitcast %"class.dealii::FiniteElement"* %call1 to i8*, !dbg !11230
  %add.ptr = getelementptr inbounds i8, i8* %2, i64 72, !dbg !11230
  %3 = bitcast i8* %add.ptr to %"class.dealii::FiniteElementData"*, !dbg !11230
  %dofs_per_vertex2 = getelementptr inbounds %"class.dealii::FiniteElementData", %"class.dealii::FiniteElementData"* %3, i32 0, i32 0, !dbg !11233
  %4 = load i32, i32* %dofs_per_vertex2, align 8, !dbg !11233
  store i32 %4, i32* %dofs_per_vertex, align 4, !dbg !11229
  call void @llvm.dbg.declare(metadata i32* %dofs_per_line, metadata !11234, metadata !DIExpression()), !dbg !11235
  %5 = load %"class.dealii::MGDoFAccessor.40"*, %"class.dealii::MGDoFAccessor.40"** %accessor.addr, align 8, !dbg !11236
  %6 = bitcast %"class.dealii::MGDoFAccessor.40"* %5 to %"class.dealii::DoFAccessor.41"*, !dbg !11236
  %call3 = call dereferenceable(168) %"class.dealii::DoFHandler"* @_ZNK6dealii11DoFAccessorILi3ENS_10DoFHandlerILi3ELi3EEEE15get_dof_handlerEv(%"class.dealii::DoFAccessor.41"* %6), !dbg !11237
  %call4 = call dereferenceable(728) %"class.dealii::FiniteElement"* @_ZNK6dealii10DoFHandlerILi3ELi3EE6get_feEv(%"class.dealii::DoFHandler"* %call3), !dbg !11238
  %7 = bitcast %"class.dealii::FiniteElement"* %call4 to i8*, !dbg !11236
  %add.ptr5 = getelementptr inbounds i8, i8* %7, i64 72, !dbg !11236
  %8 = bitcast i8* %add.ptr5 to %"class.dealii::FiniteElementData"*, !dbg !11236
  %dofs_per_line6 = getelementptr inbounds %"class.dealii::FiniteElementData", %"class.dealii::FiniteElementData"* %8, i32 0, i32 1, !dbg !11239
  %9 = load i32, i32* %dofs_per_line6, align 4, !dbg !11239
  store i32 %9, i32* %dofs_per_line, align 4, !dbg !11235
  call void @llvm.dbg.declare(metadata i32* %dofs_per_quad, metadata !11240, metadata !DIExpression()), !dbg !11241
  %10 = load %"class.dealii::MGDoFAccessor.40"*, %"class.dealii::MGDoFAccessor.40"** %accessor.addr, align 8, !dbg !11242
  %11 = bitcast %"class.dealii::MGDoFAccessor.40"* %10 to %"class.dealii::DoFAccessor.41"*, !dbg !11242
  %call7 = call dereferenceable(168) %"class.dealii::DoFHandler"* @_ZNK6dealii11DoFAccessorILi3ENS_10DoFHandlerILi3ELi3EEEE15get_dof_handlerEv(%"class.dealii::DoFAccessor.41"* %11), !dbg !11243
  %call8 = call dereferenceable(728) %"class.dealii::FiniteElement"* @_ZNK6dealii10DoFHandlerILi3ELi3EE6get_feEv(%"class.dealii::DoFHandler"* %call7), !dbg !11244
  %12 = bitcast %"class.dealii::FiniteElement"* %call8 to i8*, !dbg !11242
  %add.ptr9 = getelementptr inbounds i8, i8* %12, i64 72, !dbg !11242
  %13 = bitcast i8* %add.ptr9 to %"class.dealii::FiniteElementData"*, !dbg !11242
  %dofs_per_quad10 = getelementptr inbounds %"class.dealii::FiniteElementData", %"class.dealii::FiniteElementData"* %13, i32 0, i32 2, !dbg !11245
  %14 = load i32, i32* %dofs_per_quad10, align 8, !dbg !11245
  store i32 %14, i32* %dofs_per_quad, align 4, !dbg !11241
  call void @llvm.dbg.declare(metadata i32* %dofs_per_hex, metadata !11246, metadata !DIExpression()), !dbg !11247
  %15 = load %"class.dealii::MGDoFAccessor.40"*, %"class.dealii::MGDoFAccessor.40"** %accessor.addr, align 8, !dbg !11248
  %16 = bitcast %"class.dealii::MGDoFAccessor.40"* %15 to %"class.dealii::DoFAccessor.41"*, !dbg !11248
  %call11 = call dereferenceable(168) %"class.dealii::DoFHandler"* @_ZNK6dealii11DoFAccessorILi3ENS_10DoFHandlerILi3ELi3EEEE15get_dof_handlerEv(%"class.dealii::DoFAccessor.41"* %16), !dbg !11249
  %call12 = call dereferenceable(728) %"class.dealii::FiniteElement"* @_ZNK6dealii10DoFHandlerILi3ELi3EE6get_feEv(%"class.dealii::DoFHandler"* %call11), !dbg !11250
  %17 = bitcast %"class.dealii::FiniteElement"* %call12 to i8*, !dbg !11248
  %add.ptr13 = getelementptr inbounds i8, i8* %17, i64 72, !dbg !11248
  %18 = bitcast i8* %add.ptr13 to %"class.dealii::FiniteElementData"*, !dbg !11248
  %dofs_per_hex14 = getelementptr inbounds %"class.dealii::FiniteElementData", %"class.dealii::FiniteElementData"* %18, i32 0, i32 3, !dbg !11251
  %19 = load i32, i32* %dofs_per_hex14, align 4, !dbg !11251
  store i32 %19, i32* %dofs_per_hex, align 4, !dbg !11247
  call void @llvm.dbg.declare(metadata float** %next_dof_value, metadata !11252, metadata !DIExpression()), !dbg !11253
  %20 = load %"class.dealii::Vector.35"*, %"class.dealii::Vector.35"** %dof_values.addr, align 8, !dbg !11254
  %call15 = call float* @_ZN6dealii6VectorIfE5beginEv(%"class.dealii::Vector.35"* %20), !dbg !11255
  store float* %call15, float** %next_dof_value, align 8, !dbg !11253
  call void @llvm.dbg.declare(metadata i32* %vertex, metadata !11256, metadata !DIExpression()), !dbg !11258
  store i32 0, i32* %vertex, align 4, !dbg !11258
  br label %for.cond, !dbg !11259

for.cond:                                         ; preds = %for.inc21, %entry
  %21 = load i32, i32* %vertex, align 4, !dbg !11260
  %cmp = icmp ult i32 %21, 8, !dbg !11262
  br i1 %cmp, label %for.body, label %for.end23, !dbg !11263

for.body:                                         ; preds = %for.cond
  call void @llvm.dbg.declare(metadata i32* %d, metadata !11264, metadata !DIExpression()), !dbg !11266
  store i32 0, i32* %d, align 4, !dbg !11266
  br label %for.cond16, !dbg !11267

for.cond16:                                       ; preds = %for.inc, %for.body
  %22 = load i32, i32* %d, align 4, !dbg !11268
  %23 = load i32, i32* %dofs_per_vertex, align 4, !dbg !11270
  %cmp17 = icmp ult i32 %22, %23, !dbg !11271
  br i1 %cmp17, label %for.body18, label %for.end, !dbg !11272

for.body18:                                       ; preds = %for.cond16
  %24 = load %"class.dealii::Vector.35"*, %"class.dealii::Vector.35"** %values.addr, align 8, !dbg !11273
  %25 = load %"class.dealii::MGDoFAccessor.40"*, %"class.dealii::MGDoFAccessor.40"** %accessor.addr, align 8, !dbg !11274
  %26 = load i32, i32* %level.addr, align 4, !dbg !11275
  %27 = load i32, i32* %vertex, align 4, !dbg !11276
  %28 = load i32, i32* %d, align 4, !dbg !11277
  %call19 = call i32 @_ZNK6dealii13MGDoFAccessorILi3ELi3ELi3EE19mg_vertex_dof_indexEijj(%"class.dealii::MGDoFAccessor.40"* %25, i32 %26, i32 %27, i32 %28), !dbg !11278
  %call20 = call float @_ZNK6dealii6VectorIfEclEj(%"class.dealii::Vector.35"* %24, i32 %call19), !dbg !11273
  %29 = load float*, float** %next_dof_value, align 8, !dbg !11279
  %incdec.ptr = getelementptr inbounds float, float* %29, i32 1, !dbg !11279
  store float* %incdec.ptr, float** %next_dof_value, align 8, !dbg !11279
  store float %call20, float* %29, align 4, !dbg !11280
  br label %for.inc, !dbg !11281

for.inc:                                          ; preds = %for.body18
  %30 = load i32, i32* %d, align 4, !dbg !11282
  %inc = add i32 %30, 1, !dbg !11282
  store i32 %inc, i32* %d, align 4, !dbg !11282
  br label %for.cond16, !dbg !11283, !llvm.loop !11284

for.end:                                          ; preds = %for.cond16
  br label %for.inc21, !dbg !11285

for.inc21:                                        ; preds = %for.end
  %31 = load i32, i32* %vertex, align 4, !dbg !11286
  %inc22 = add i32 %31, 1, !dbg !11286
  store i32 %inc22, i32* %vertex, align 4, !dbg !11286
  br label %for.cond, !dbg !11287, !llvm.loop !11288

for.end23:                                        ; preds = %for.cond
  call void @llvm.dbg.declare(metadata i32* %line, metadata !11290, metadata !DIExpression()), !dbg !11292
  store i32 0, i32* %line, align 4, !dbg !11292
  br label %for.cond24, !dbg !11293

for.cond24:                                       ; preds = %for.inc38, %for.end23
  %32 = load i32, i32* %line, align 4, !dbg !11294
  %cmp25 = icmp ult i32 %32, 12, !dbg !11296
  br i1 %cmp25, label %for.body26, label %for.end40, !dbg !11297

for.body26:                                       ; preds = %for.cond24
  call void @llvm.dbg.declare(metadata i32* %d27, metadata !11298, metadata !DIExpression()), !dbg !11300
  store i32 0, i32* %d27, align 4, !dbg !11300
  br label %for.cond28, !dbg !11301

for.cond28:                                       ; preds = %for.inc35, %for.body26
  %33 = load i32, i32* %d27, align 4, !dbg !11302
  %34 = load i32, i32* %dofs_per_line, align 4, !dbg !11304
  %cmp29 = icmp ult i32 %33, %34, !dbg !11305
  br i1 %cmp29, label %for.body30, label %for.end37, !dbg !11306

for.body30:                                       ; preds = %for.cond28
  %35 = load %"class.dealii::Vector.35"*, %"class.dealii::Vector.35"** %values.addr, align 8, !dbg !11307
  %36 = load %"class.dealii::MGDoFAccessor.40"*, %"class.dealii::MGDoFAccessor.40"** %accessor.addr, align 8, !dbg !11308
  %37 = load i32, i32* %line, align 4, !dbg !11309
  call void @_ZNK6dealii13MGDoFAccessorILi3ELi3ELi3EE4lineEj(%"class.dealii::TriaIterator"* sret %ref.tmp, %"class.dealii::MGDoFAccessor.40"* %36, i32 %37), !dbg !11310
  %38 = bitcast %"class.dealii::TriaIterator"* %ref.tmp to %"class.dealii::TriaRawIterator"*, !dbg !11308
  %call31 = call %"class.dealii::MGDoFAccessor"* @_ZN6dealii15TriaRawIteratorINS_13MGDoFAccessorILi1ELi3ELi3EEEEptEv(%"class.dealii::TriaRawIterator"* %38), !dbg !11308
  %39 = load i32, i32* %level.addr, align 4, !dbg !11311
  %40 = load i32, i32* %d27, align 4, !dbg !11312
  %call32 = call i32 @_ZNK6dealii13MGDoFAccessorILi1ELi3ELi3EE12mg_dof_indexEij(%"class.dealii::MGDoFAccessor"* %call31, i32 %39, i32 %40), !dbg !11313
  %call33 = call float @_ZNK6dealii6VectorIfEclEj(%"class.dealii::Vector.35"* %35, i32 %call32), !dbg !11307
  %41 = load float*, float** %next_dof_value, align 8, !dbg !11314
  %incdec.ptr34 = getelementptr inbounds float, float* %41, i32 1, !dbg !11314
  store float* %incdec.ptr34, float** %next_dof_value, align 8, !dbg !11314
  store float %call33, float* %41, align 4, !dbg !11315
  br label %for.inc35, !dbg !11316

for.inc35:                                        ; preds = %for.body30
  %42 = load i32, i32* %d27, align 4, !dbg !11317
  %inc36 = add i32 %42, 1, !dbg !11317
  store i32 %inc36, i32* %d27, align 4, !dbg !11317
  br label %for.cond28, !dbg !11318, !llvm.loop !11319

for.end37:                                        ; preds = %for.cond28
  br label %for.inc38, !dbg !11320

for.inc38:                                        ; preds = %for.end37
  %43 = load i32, i32* %line, align 4, !dbg !11321
  %inc39 = add i32 %43, 1, !dbg !11321
  store i32 %inc39, i32* %line, align 4, !dbg !11321
  br label %for.cond24, !dbg !11322, !llvm.loop !11323

for.end40:                                        ; preds = %for.cond24
  call void @llvm.dbg.declare(metadata i32* %quad, metadata !11325, metadata !DIExpression()), !dbg !11327
  store i32 0, i32* %quad, align 4, !dbg !11327
  br label %for.cond41, !dbg !11328

for.cond41:                                       ; preds = %for.inc56, %for.end40
  %44 = load i32, i32* %quad, align 4, !dbg !11329
  %cmp42 = icmp ult i32 %44, 6, !dbg !11331
  br i1 %cmp42, label %for.body43, label %for.end58, !dbg !11332

for.body43:                                       ; preds = %for.cond41
  call void @llvm.dbg.declare(metadata i32* %d44, metadata !11333, metadata !DIExpression()), !dbg !11335
  store i32 0, i32* %d44, align 4, !dbg !11335
  br label %for.cond45, !dbg !11336

for.cond45:                                       ; preds = %for.inc53, %for.body43
  %45 = load i32, i32* %d44, align 4, !dbg !11337
  %46 = load i32, i32* %dofs_per_quad, align 4, !dbg !11339
  %cmp46 = icmp ult i32 %45, %46, !dbg !11340
  br i1 %cmp46, label %for.body47, label %for.end55, !dbg !11341

for.body47:                                       ; preds = %for.cond45
  %47 = load %"class.dealii::Vector.35"*, %"class.dealii::Vector.35"** %values.addr, align 8, !dbg !11342
  %48 = load %"class.dealii::MGDoFAccessor.40"*, %"class.dealii::MGDoFAccessor.40"** %accessor.addr, align 8, !dbg !11343
  %49 = load i32, i32* %quad, align 4, !dbg !11344
  call void @_ZNK6dealii13MGDoFAccessorILi3ELi3ELi3EE4quadEj(%"class.dealii::TriaIterator.169"* sret %ref.tmp48, %"class.dealii::MGDoFAccessor.40"* %48, i32 %49), !dbg !11345
  %50 = bitcast %"class.dealii::TriaIterator.169"* %ref.tmp48 to %"class.dealii::TriaRawIterator.170"*, !dbg !11343
  %call49 = call %"class.dealii::MGDoFAccessor.36"* @_ZN6dealii15TriaRawIteratorINS_13MGDoFAccessorILi2ELi3ELi3EEEEptEv(%"class.dealii::TriaRawIterator.170"* %50), !dbg !11343
  %51 = load i32, i32* %level.addr, align 4, !dbg !11346
  %52 = load i32, i32* %d44, align 4, !dbg !11347
  %call50 = call i32 @_ZNK6dealii13MGDoFAccessorILi2ELi3ELi3EE12mg_dof_indexEij(%"class.dealii::MGDoFAccessor.36"* %call49, i32 %51, i32 %52), !dbg !11348
  %call51 = call float @_ZNK6dealii6VectorIfEclEj(%"class.dealii::Vector.35"* %47, i32 %call50), !dbg !11342
  %53 = load float*, float** %next_dof_value, align 8, !dbg !11349
  %incdec.ptr52 = getelementptr inbounds float, float* %53, i32 1, !dbg !11349
  store float* %incdec.ptr52, float** %next_dof_value, align 8, !dbg !11349
  store float %call51, float* %53, align 4, !dbg !11350
  br label %for.inc53, !dbg !11351

for.inc53:                                        ; preds = %for.body47
  %54 = load i32, i32* %d44, align 4, !dbg !11352
  %inc54 = add i32 %54, 1, !dbg !11352
  store i32 %inc54, i32* %d44, align 4, !dbg !11352
  br label %for.cond45, !dbg !11353, !llvm.loop !11354

for.end55:                                        ; preds = %for.cond45
  br label %for.inc56, !dbg !11355

for.inc56:                                        ; preds = %for.end55
  %55 = load i32, i32* %quad, align 4, !dbg !11356
  %inc57 = add i32 %55, 1, !dbg !11356
  store i32 %inc57, i32* %quad, align 4, !dbg !11356
  br label %for.cond41, !dbg !11357, !llvm.loop !11358

for.end58:                                        ; preds = %for.cond41
  call void @llvm.dbg.declare(metadata i32* %d59, metadata !11360, metadata !DIExpression()), !dbg !11362
  store i32 0, i32* %d59, align 4, !dbg !11362
  br label %for.cond60, !dbg !11363

for.cond60:                                       ; preds = %for.inc66, %for.end58
  %56 = load i32, i32* %d59, align 4, !dbg !11364
  %57 = load i32, i32* %dofs_per_hex, align 4, !dbg !11366
  %cmp61 = icmp ult i32 %56, %57, !dbg !11367
  br i1 %cmp61, label %for.body62, label %for.end68, !dbg !11368

for.body62:                                       ; preds = %for.cond60
  %58 = load %"class.dealii::Vector.35"*, %"class.dealii::Vector.35"** %values.addr, align 8, !dbg !11369
  %59 = load %"class.dealii::MGDoFAccessor.40"*, %"class.dealii::MGDoFAccessor.40"** %accessor.addr, align 8, !dbg !11370
  %60 = bitcast %"class.dealii::MGDoFAccessor.40"* %59 to %"class.dealii::DoFAccessor.41"*, !dbg !11370
  %61 = load i32, i32* %d59, align 4, !dbg !11371
  %call63 = call i32 @_ZNK6dealii11DoFAccessorILi3ENS_10DoFHandlerILi3ELi3EEEE9dof_indexEjj(%"class.dealii::DoFAccessor.41"* %60, i32 %61, i32 0), !dbg !11372
  %call64 = call float @_ZNK6dealii6VectorIfEclEj(%"class.dealii::Vector.35"* %58, i32 %call63), !dbg !11369
  %62 = load float*, float** %next_dof_value, align 8, !dbg !11373
  %incdec.ptr65 = getelementptr inbounds float, float* %62, i32 1, !dbg !11373
  store float* %incdec.ptr65, float** %next_dof_value, align 8, !dbg !11373
  store float %call64, float* %62, align 4, !dbg !11374
  br label %for.inc66, !dbg !11375

for.inc66:                                        ; preds = %for.body62
  %63 = load i32, i32* %d59, align 4, !dbg !11376
  %inc67 = add i32 %63, 1, !dbg !11376
  store i32 %inc67, i32* %d59, align 4, !dbg !11376
  br label %for.cond60, !dbg !11377, !llvm.loop !11378

for.end68:                                        ; preds = %for.cond60
  ret void, !dbg !11380
}

; Function Attrs: noinline uwtable
define weak_odr dso_local void @_ZNK6dealii17MGDoFCellAccessorILi3ELi3EE17get_mg_dof_valuesIdEEvRKNS_6VectorIT_EERS5_(%"class.dealii::MGDoFCellAccessor"* %this, %"class.dealii::Vector"* nonnull %values, %"class.dealii::Vector"* nonnull %dof_values) #0 comdat align 2 !dbg !11381 {
entry:
  %this.addr = alloca %"class.dealii::MGDoFCellAccessor"*, align 8
  %values.addr = alloca %"class.dealii::Vector"*, align 8
  %dof_values.addr = alloca %"class.dealii::Vector"*, align 8
  store %"class.dealii::MGDoFCellAccessor"* %this, %"class.dealii::MGDoFCellAccessor"** %this.addr, align 8
  call void @llvm.dbg.declare(metadata %"class.dealii::MGDoFCellAccessor"** %this.addr, metadata !11385, metadata !DIExpression()), !dbg !11386
  store %"class.dealii::Vector"* %values, %"class.dealii::Vector"** %values.addr, align 8
  call void @llvm.dbg.declare(metadata %"class.dealii::Vector"** %values.addr, metadata !11387, metadata !DIExpression()), !dbg !11388
  store %"class.dealii::Vector"* %dof_values, %"class.dealii::Vector"** %dof_values.addr, align 8
  call void @llvm.dbg.declare(metadata %"class.dealii::Vector"** %dof_values.addr, metadata !11389, metadata !DIExpression()), !dbg !11390
  %this1 = load %"class.dealii::MGDoFCellAccessor"*, %"class.dealii::MGDoFCellAccessor"** %this.addr, align 8
  %0 = bitcast %"class.dealii::MGDoFCellAccessor"* %this1 to %"class.dealii::MGDoFAccessor.40"*, !dbg !11391
  %1 = bitcast %"class.dealii::MGDoFCellAccessor"* %this1 to %"class.dealii::TriaAccessorBase.43"*, !dbg !11392
  %call = call i32 @_ZNK6dealii16TriaAccessorBaseILi3ELi3ELi3EE5levelEv(%"class.dealii::TriaAccessorBase.43"* %1), !dbg !11392
  %2 = load %"class.dealii::Vector"*, %"class.dealii::Vector"** %values.addr, align 8, !dbg !11393
  %3 = load %"class.dealii::Vector"*, %"class.dealii::Vector"** %dof_values.addr, align 8, !dbg !11394
  call void @_ZNK6dealii13MGDoFAccessorILi3ELi3ELi3EE17get_mg_dof_valuesIdEEviRKNS_6VectorIT_EERS5_(%"class.dealii::MGDoFAccessor.40"* %0, i32 %call, %"class.dealii::Vector"* nonnull %2, %"class.dealii::Vector"* nonnull %3), !dbg !11391
  ret void, !dbg !11395
}

; Function Attrs: noinline nounwind uwtable
define linkonce_odr dso_local i32 @_ZNK6dealii16TriaAccessorBaseILi3ELi3ELi3EE5levelEv(%"class.dealii::TriaAccessorBase.43"* %this) #1 comdat align 2 !dbg !11396 {
entry:
  %this.addr = alloca %"class.dealii::TriaAccessorBase.43"*, align 8
  store %"class.dealii::TriaAccessorBase.43"* %this, %"class.dealii::TriaAccessorBase.43"** %this.addr, align 8
  call void @llvm.dbg.declare(metadata %"class.dealii::TriaAccessorBase.43"** %this.addr, metadata !11397, metadata !DIExpression()), !dbg !11398
  %this1 = load %"class.dealii::TriaAccessorBase.43"*, %"class.dealii::TriaAccessorBase.43"** %this.addr, align 8
  %present_level = getelementptr inbounds %"class.dealii::TriaAccessorBase.43", %"class.dealii::TriaAccessorBase.43"* %this1, i32 0, i32 0, !dbg !11399
  %0 = load i32, i32* %present_level, align 8, !dbg !11399
  ret i32 %0, !dbg !11400
}

; Function Attrs: noinline uwtable
define weak_odr dso_local void @_ZNK6dealii17MGDoFCellAccessorILi3ELi3EE17get_mg_dof_valuesIfEEvRKNS_6VectorIT_EERS5_(%"class.dealii::MGDoFCellAccessor"* %this, %"class.dealii::Vector.35"* nonnull %values, %"class.dealii::Vector.35"* nonnull %dof_values) #0 comdat align 2 !dbg !11401 {
entry:
  %this.addr = alloca %"class.dealii::MGDoFCellAccessor"*, align 8
  %values.addr = alloca %"class.dealii::Vector.35"*, align 8
  %dof_values.addr = alloca %"class.dealii::Vector.35"*, align 8
  store %"class.dealii::MGDoFCellAccessor"* %this, %"class.dealii::MGDoFCellAccessor"** %this.addr, align 8
  call void @llvm.dbg.declare(metadata %"class.dealii::MGDoFCellAccessor"** %this.addr, metadata !11405, metadata !DIExpression()), !dbg !11406
  store %"class.dealii::Vector.35"* %values, %"class.dealii::Vector.35"** %values.addr, align 8
  call void @llvm.dbg.declare(metadata %"class.dealii::Vector.35"** %values.addr, metadata !11407, metadata !DIExpression()), !dbg !11408
  store %"class.dealii::Vector.35"* %dof_values, %"class.dealii::Vector.35"** %dof_values.addr, align 8
  call void @llvm.dbg.declare(metadata %"class.dealii::Vector.35"** %dof_values.addr, metadata !11409, metadata !DIExpression()), !dbg !11410
  %this1 = load %"class.dealii::MGDoFCellAccessor"*, %"class.dealii::MGDoFCellAccessor"** %this.addr, align 8
  %0 = bitcast %"class.dealii::MGDoFCellAccessor"* %this1 to %"class.dealii::MGDoFAccessor.40"*, !dbg !11411
  %1 = bitcast %"class.dealii::MGDoFCellAccessor"* %this1 to %"class.dealii::TriaAccessorBase.43"*, !dbg !11412
  %call = call i32 @_ZNK6dealii16TriaAccessorBaseILi3ELi3ELi3EE5levelEv(%"class.dealii::TriaAccessorBase.43"* %1), !dbg !11412
  %2 = load %"class.dealii::Vector.35"*, %"class.dealii::Vector.35"** %values.addr, align 8, !dbg !11413
  %3 = load %"class.dealii::Vector.35"*, %"class.dealii::Vector.35"** %dof_values.addr, align 8, !dbg !11414
  call void @_ZNK6dealii13MGDoFAccessorILi3ELi3ELi3EE17get_mg_dof_valuesIfEEviRKNS_6VectorIT_EERS5_(%"class.dealii::MGDoFAccessor.40"* %0, i32 %call, %"class.dealii::Vector.35"* nonnull %2, %"class.dealii::Vector.35"* nonnull %3), !dbg !11411
  ret void, !dbg !11415
}

; Function Attrs: noinline uwtable
define weak_odr dso_local void @_ZN6dealii13MGDoFAccessorILi1ELi3ELi3EEC2Ev(%"class.dealii::MGDoFAccessor"* %this) unnamed_addr #0 comdat($_ZN6dealii13MGDoFAccessorILi1ELi3ELi3EEC5Ev) align 2 !dbg !11416 {
entry:
  %this.addr = alloca %"class.dealii::MGDoFAccessor"*, align 8
  store %"class.dealii::MGDoFAccessor"* %this, %"class.dealii::MGDoFAccessor"** %this.addr, align 8
  call void @llvm.dbg.declare(metadata %"class.dealii::MGDoFAccessor"** %this.addr, metadata !11417, metadata !DIExpression()), !dbg !11418
  %this1 = load %"class.dealii::MGDoFAccessor"*, %"class.dealii::MGDoFAccessor"** %this.addr, align 8
  %0 = bitcast %"class.dealii::MGDoFAccessor"* %this1 to %"class.dealii::DoFAccessor"*, !dbg !11419
  call void @_ZN6dealii11DoFAccessorILi1ENS_10DoFHandlerILi3ELi3EEEEC2EPKNS_13TriangulationILi3ELi3EEEiiPKS2_(%"class.dealii::DoFAccessor"* %0, %"class.dealii::Triangulation"* null, i32 -1, i32 -1, %"class.dealii::DoFHandler"* null), !dbg !11420
  ret void, !dbg !11421
}

; Function Attrs: noinline uwtable
define linkonce_odr dso_local void @_ZN6dealii11DoFAccessorILi1ENS_10DoFHandlerILi3ELi3EEEEC2EPKNS_13TriangulationILi3ELi3EEEiiPKS2_(%"class.dealii::DoFAccessor"* %this, %"class.dealii::Triangulation"* %tria, i32 %level, i32 %index, %"class.dealii::DoFHandler"* %dof_handler) unnamed_addr #0 comdat align 2 !dbg !11422 {
entry:
  %this.addr = alloca %"class.dealii::DoFAccessor"*, align 8
  %tria.addr = alloca %"class.dealii::Triangulation"*, align 8
  %level.addr = alloca i32, align 4
  %index.addr = alloca i32, align 4
  %dof_handler.addr = alloca %"class.dealii::DoFHandler"*, align 8
  store %"class.dealii::DoFAccessor"* %this, %"class.dealii::DoFAccessor"** %this.addr, align 8
  call void @llvm.dbg.declare(metadata %"class.dealii::DoFAccessor"** %this.addr, metadata !11424, metadata !DIExpression()), !dbg !11426
  store %"class.dealii::Triangulation"* %tria, %"class.dealii::Triangulation"** %tria.addr, align 8
  call void @llvm.dbg.declare(metadata %"class.dealii::Triangulation"** %tria.addr, metadata !11427, metadata !DIExpression()), !dbg !11428
  store i32 %level, i32* %level.addr, align 4
  call void @llvm.dbg.declare(metadata i32* %level.addr, metadata !11429, metadata !DIExpression()), !dbg !11430
  store i32 %index, i32* %index.addr, align 4
  call void @llvm.dbg.declare(metadata i32* %index.addr, metadata !11431, metadata !DIExpression()), !dbg !11432
  store %"class.dealii::DoFHandler"* %dof_handler, %"class.dealii::DoFHandler"** %dof_handler.addr, align 8
  call void @llvm.dbg.declare(metadata %"class.dealii::DoFHandler"** %dof_handler.addr, metadata !11433, metadata !DIExpression()), !dbg !11434
  %this1 = load %"class.dealii::DoFAccessor"*, %"class.dealii::DoFAccessor"** %this.addr, align 8
  %0 = bitcast %"class.dealii::DoFAccessor"* %this1 to %"class.dealii::TriaAccessor"*, !dbg !11435
  %1 = load %"class.dealii::Triangulation"*, %"class.dealii::Triangulation"** %tria.addr, align 8, !dbg !11436
  %2 = load i32, i32* %level.addr, align 4, !dbg !11437
  %3 = load i32, i32* %index.addr, align 4, !dbg !11438
  call void @_ZN6dealii12TriaAccessorILi1ELi3ELi3EEC2EPKNS_13TriangulationILi3ELi3EEEiiPKv(%"class.dealii::TriaAccessor"* %0, %"class.dealii::Triangulation"* %1, i32 %2, i32 %3, i8* null), !dbg !11439
  %dof_handler2 = getelementptr inbounds %"class.dealii::DoFAccessor", %"class.dealii::DoFAccessor"* %this1, i32 0, i32 1, !dbg !11440
  %4 = load %"class.dealii::DoFHandler"*, %"class.dealii::DoFHandler"** %dof_handler.addr, align 8, !dbg !11441
  store %"class.dealii::DoFHandler"* %4, %"class.dealii::DoFHandler"** %dof_handler2, align 8, !dbg !11440
  ret void, !dbg !11442
}

; Function Attrs: noinline uwtable
define weak_odr dso_local void @_ZN6dealii13MGDoFAccessorILi1ELi3ELi3EEC2EPKNS_13TriangulationILi3ELi3EEEiiPKNS_12MGDoFHandlerILi3ELi3EEE(%"class.dealii::MGDoFAccessor"* %this, %"class.dealii::Triangulation"* %tria, i32 %level, i32 %index, %"class.dealii::MGDoFHandler"* %local_data) unnamed_addr #0 comdat($_ZN6dealii13MGDoFAccessorILi1ELi3ELi3EEC5EPKNS_13TriangulationILi3ELi3EEEiiPKNS_12MGDoFHandlerILi3ELi3EEE) align 2 !dbg !11443 {
entry:
  %this.addr = alloca %"class.dealii::MGDoFAccessor"*, align 8
  %tria.addr = alloca %"class.dealii::Triangulation"*, align 8
  %level.addr = alloca i32, align 4
  %index.addr = alloca i32, align 4
  %local_data.addr = alloca %"class.dealii::MGDoFHandler"*, align 8
  store %"class.dealii::MGDoFAccessor"* %this, %"class.dealii::MGDoFAccessor"** %this.addr, align 8
  call void @llvm.dbg.declare(metadata %"class.dealii::MGDoFAccessor"** %this.addr, metadata !11444, metadata !DIExpression()), !dbg !11445
  store %"class.dealii::Triangulation"* %tria, %"class.dealii::Triangulation"** %tria.addr, align 8
  call void @llvm.dbg.declare(metadata %"class.dealii::Triangulation"** %tria.addr, metadata !11446, metadata !DIExpression()), !dbg !11447
  store i32 %level, i32* %level.addr, align 4
  call void @llvm.dbg.declare(metadata i32* %level.addr, metadata !11448, metadata !DIExpression()), !dbg !11449
  store i32 %index, i32* %index.addr, align 4
  call void @llvm.dbg.declare(metadata i32* %index.addr, metadata !11450, metadata !DIExpression()), !dbg !11451
  store %"class.dealii::MGDoFHandler"* %local_data, %"class.dealii::MGDoFHandler"** %local_data.addr, align 8
  call void @llvm.dbg.declare(metadata %"class.dealii::MGDoFHandler"** %local_data.addr, metadata !11452, metadata !DIExpression()), !dbg !11453
  %this1 = load %"class.dealii::MGDoFAccessor"*, %"class.dealii::MGDoFAccessor"** %this.addr, align 8
  %0 = bitcast %"class.dealii::MGDoFAccessor"* %this1 to %"class.dealii::DoFAccessor"*, !dbg !11454
  %1 = load %"class.dealii::Triangulation"*, %"class.dealii::Triangulation"** %tria.addr, align 8, !dbg !11455
  %2 = load i32, i32* %level.addr, align 4, !dbg !11456
  %3 = load i32, i32* %index.addr, align 4, !dbg !11457
  %4 = load %"class.dealii::MGDoFHandler"*, %"class.dealii::MGDoFHandler"** %local_data.addr, align 8, !dbg !11458
  %5 = bitcast %"class.dealii::MGDoFHandler"* %4 to %"class.dealii::DoFHandler"*, !dbg !11458
  call void @_ZN6dealii11DoFAccessorILi1ENS_10DoFHandlerILi3ELi3EEEEC2EPKNS_13TriangulationILi3ELi3EEEiiPKS2_(%"class.dealii::DoFAccessor"* %0, %"class.dealii::Triangulation"* %1, i32 %2, i32 %3, %"class.dealii::DoFHandler"* %5), !dbg !11459
  %mg_dof_handler = getelementptr inbounds %"class.dealii::MGDoFAccessor", %"class.dealii::MGDoFAccessor"* %this1, i32 0, i32 1, !dbg !11460
  %6 = load %"class.dealii::MGDoFHandler"*, %"class.dealii::MGDoFHandler"** %local_data.addr, align 8, !dbg !11461
  store %"class.dealii::MGDoFHandler"* %6, %"class.dealii::MGDoFHandler"** %mg_dof_handler, align 8, !dbg !11460
  ret void, !dbg !11462
}

; Function Attrs: noinline uwtable
define weak_odr dso_local void @_ZNK6dealii13MGDoFAccessorILi1ELi3ELi3EE18get_mg_dof_indicesEiRSt6vectorIjSaIjEE(%"class.dealii::MGDoFAccessor"* %this, i32 %level, %"class.std::vector.21"* dereferenceable(24) %dof_indices) #0 comdat align 2 !dbg !11463 {
entry:
  %this.addr = alloca %"class.dealii::MGDoFAccessor"*, align 8
  %level.addr = alloca i32, align 4
  %dof_indices.addr = alloca %"class.std::vector.21"*, align 8
  store %"class.dealii::MGDoFAccessor"* %this, %"class.dealii::MGDoFAccessor"** %this.addr, align 8
  call void @llvm.dbg.declare(metadata %"class.dealii::MGDoFAccessor"** %this.addr, metadata !11464, metadata !DIExpression()), !dbg !11465
  store i32 %level, i32* %level.addr, align 4
  call void @llvm.dbg.declare(metadata i32* %level.addr, metadata !11466, metadata !DIExpression()), !dbg !11467
  store %"class.std::vector.21"* %dof_indices, %"class.std::vector.21"** %dof_indices.addr, align 8
  call void @llvm.dbg.declare(metadata %"class.std::vector.21"** %dof_indices.addr, metadata !11468, metadata !DIExpression()), !dbg !11469
  %this1 = load %"class.dealii::MGDoFAccessor"*, %"class.dealii::MGDoFAccessor"** %this.addr, align 8
  %0 = load i32, i32* %level.addr, align 4, !dbg !11470
  %1 = load %"class.std::vector.21"*, %"class.std::vector.21"** %dof_indices.addr, align 8, !dbg !11471
  call void @_ZN6dealii8internal13MGDoFAccessor18get_mg_dof_indicesILi3ELi3EEEvRKNS_13MGDoFAccessorILi1EXT_EXT0_EEEiRSt6vectorIjSaIjEE(%"class.dealii::MGDoFAccessor"* dereferenceable(32) %this1, i32 %0, %"class.std::vector.21"* dereferenceable(24) %1), !dbg !11472
  ret void, !dbg !11473
}

; Function Attrs: noinline uwtable
define linkonce_odr dso_local void @_ZN6dealii8internal13MGDoFAccessor18get_mg_dof_indicesILi3ELi3EEEvRKNS_13MGDoFAccessorILi1EXT_EXT0_EEEiRSt6vectorIjSaIjEE(%"class.dealii::MGDoFAccessor"* dereferenceable(32) %accessor, i32 %level, %"class.std::vector.21"* dereferenceable(24) %dof_indices) #0 comdat !dbg !11474 {
entry:
  %accessor.addr = alloca %"class.dealii::MGDoFAccessor"*, align 8
  %level.addr = alloca i32, align 4
  %dof_indices.addr = alloca %"class.std::vector.21"*, align 8
  %dofs_per_vertex = alloca i32, align 4
  %dofs_per_line = alloca i32, align 4
  %next = alloca %"class.__gnu_cxx::__normal_iterator", align 8
  %vertex = alloca i32, align 4
  %d = alloca i32, align 4
  %ref.tmp = alloca %"class.__gnu_cxx::__normal_iterator", align 8
  %d18 = alloca i32, align 4
  %ref.tmp23 = alloca %"class.__gnu_cxx::__normal_iterator", align 8
  store %"class.dealii::MGDoFAccessor"* %accessor, %"class.dealii::MGDoFAccessor"** %accessor.addr, align 8
  call void @llvm.dbg.declare(metadata %"class.dealii::MGDoFAccessor"** %accessor.addr, metadata !11477, metadata !DIExpression()), !dbg !11478
  store i32 %level, i32* %level.addr, align 4
  call void @llvm.dbg.declare(metadata i32* %level.addr, metadata !11479, metadata !DIExpression()), !dbg !11480
  store %"class.std::vector.21"* %dof_indices, %"class.std::vector.21"** %dof_indices.addr, align 8
  call void @llvm.dbg.declare(metadata %"class.std::vector.21"** %dof_indices.addr, metadata !11481, metadata !DIExpression()), !dbg !11482
  call void @llvm.dbg.declare(metadata i32* %dofs_per_vertex, metadata !11483, metadata !DIExpression()), !dbg !11484
  %0 = load %"class.dealii::MGDoFAccessor"*, %"class.dealii::MGDoFAccessor"** %accessor.addr, align 8, !dbg !11485
  %1 = bitcast %"class.dealii::MGDoFAccessor"* %0 to %"class.dealii::DoFAccessor"*, !dbg !11485
  %call = call dereferenceable(168) %"class.dealii::DoFHandler"* @_ZNK6dealii11DoFAccessorILi1ENS_10DoFHandlerILi3ELi3EEEE15get_dof_handlerEv(%"class.dealii::DoFAccessor"* %1), !dbg !11486
  %call1 = call dereferenceable(728) %"class.dealii::FiniteElement"* @_ZNK6dealii10DoFHandlerILi3ELi3EE6get_feEv(%"class.dealii::DoFHandler"* %call), !dbg !11487
  %2 = bitcast %"class.dealii::FiniteElement"* %call1 to i8*, !dbg !11485
  %add.ptr = getelementptr inbounds i8, i8* %2, i64 72, !dbg !11485
  %3 = bitcast i8* %add.ptr to %"class.dealii::FiniteElementData"*, !dbg !11485
  %dofs_per_vertex2 = getelementptr inbounds %"class.dealii::FiniteElementData", %"class.dealii::FiniteElementData"* %3, i32 0, i32 0, !dbg !11488
  %4 = load i32, i32* %dofs_per_vertex2, align 8, !dbg !11488
  store i32 %4, i32* %dofs_per_vertex, align 4, !dbg !11484
  call void @llvm.dbg.declare(metadata i32* %dofs_per_line, metadata !11489, metadata !DIExpression()), !dbg !11490
  %5 = load %"class.dealii::MGDoFAccessor"*, %"class.dealii::MGDoFAccessor"** %accessor.addr, align 8, !dbg !11491
  %6 = bitcast %"class.dealii::MGDoFAccessor"* %5 to %"class.dealii::DoFAccessor"*, !dbg !11491
  %call3 = call dereferenceable(168) %"class.dealii::DoFHandler"* @_ZNK6dealii11DoFAccessorILi1ENS_10DoFHandlerILi3ELi3EEEE15get_dof_handlerEv(%"class.dealii::DoFAccessor"* %6), !dbg !11492
  %call4 = call dereferenceable(728) %"class.dealii::FiniteElement"* @_ZNK6dealii10DoFHandlerILi3ELi3EE6get_feEv(%"class.dealii::DoFHandler"* %call3), !dbg !11493
  %7 = bitcast %"class.dealii::FiniteElement"* %call4 to i8*, !dbg !11491
  %add.ptr5 = getelementptr inbounds i8, i8* %7, i64 72, !dbg !11491
  %8 = bitcast i8* %add.ptr5 to %"class.dealii::FiniteElementData"*, !dbg !11491
  %dofs_per_line6 = getelementptr inbounds %"class.dealii::FiniteElementData", %"class.dealii::FiniteElementData"* %8, i32 0, i32 1, !dbg !11494
  %9 = load i32, i32* %dofs_per_line6, align 4, !dbg !11494
  store i32 %9, i32* %dofs_per_line, align 4, !dbg !11490
  call void @llvm.dbg.declare(metadata %"class.__gnu_cxx::__normal_iterator"* %next, metadata !11495, metadata !DIExpression()), !dbg !11496
  %10 = load %"class.std::vector.21"*, %"class.std::vector.21"** %dof_indices.addr, align 8, !dbg !11497
  %call7 = call i32* @_ZNSt6vectorIjSaIjEE5beginEv(%"class.std::vector.21"* %10) #4, !dbg !11498
  %coerce.dive = getelementptr inbounds %"class.__gnu_cxx::__normal_iterator", %"class.__gnu_cxx::__normal_iterator"* %next, i32 0, i32 0, !dbg !11498
  store i32* %call7, i32** %coerce.dive, align 8, !dbg !11498
  call void @llvm.dbg.declare(metadata i32* %vertex, metadata !11499, metadata !DIExpression()), !dbg !11501
  store i32 0, i32* %vertex, align 4, !dbg !11501
  br label %for.cond, !dbg !11502

for.cond:                                         ; preds = %for.inc15, %entry
  %11 = load i32, i32* %vertex, align 4, !dbg !11503
  %cmp = icmp ult i32 %11, 2, !dbg !11505
  br i1 %cmp, label %for.body, label %for.end17, !dbg !11506

for.body:                                         ; preds = %for.cond
  call void @llvm.dbg.declare(metadata i32* %d, metadata !11507, metadata !DIExpression()), !dbg !11509
  store i32 0, i32* %d, align 4, !dbg !11509
  br label %for.cond8, !dbg !11510

for.cond8:                                        ; preds = %for.inc, %for.body
  %12 = load i32, i32* %d, align 4, !dbg !11511
  %13 = load i32, i32* %dofs_per_vertex, align 4, !dbg !11513
  %cmp9 = icmp ult i32 %12, %13, !dbg !11514
  br i1 %cmp9, label %for.body10, label %for.end, !dbg !11515

for.body10:                                       ; preds = %for.cond8
  %14 = load %"class.dealii::MGDoFAccessor"*, %"class.dealii::MGDoFAccessor"** %accessor.addr, align 8, !dbg !11516
  %15 = load i32, i32* %level.addr, align 4, !dbg !11517
  %16 = load i32, i32* %vertex, align 4, !dbg !11518
  %17 = load i32, i32* %d, align 4, !dbg !11519
  %call11 = call i32 @_ZNK6dealii13MGDoFAccessorILi1ELi3ELi3EE19mg_vertex_dof_indexEijj(%"class.dealii::MGDoFAccessor"* %14, i32 %15, i32 %16, i32 %17), !dbg !11520
  %call12 = call i32* @_ZN9__gnu_cxx17__normal_iteratorIPjSt6vectorIjSaIjEEEppEi(%"class.__gnu_cxx::__normal_iterator"* %next, i32 0) #4, !dbg !11521
  %coerce.dive13 = getelementptr inbounds %"class.__gnu_cxx::__normal_iterator", %"class.__gnu_cxx::__normal_iterator"* %ref.tmp, i32 0, i32 0, !dbg !11521
  store i32* %call12, i32** %coerce.dive13, align 8, !dbg !11521
  %call14 = call dereferenceable(4) i32* @_ZNK9__gnu_cxx17__normal_iteratorIPjSt6vectorIjSaIjEEEdeEv(%"class.__gnu_cxx::__normal_iterator"* %ref.tmp) #4, !dbg !11522
  store i32 %call11, i32* %call14, align 4, !dbg !11523
  br label %for.inc, !dbg !11522

for.inc:                                          ; preds = %for.body10
  %18 = load i32, i32* %d, align 4, !dbg !11524
  %inc = add i32 %18, 1, !dbg !11524
  store i32 %inc, i32* %d, align 4, !dbg !11524
  br label %for.cond8, !dbg !11525, !llvm.loop !11526

for.end:                                          ; preds = %for.cond8
  br label %for.inc15, !dbg !11527

for.inc15:                                        ; preds = %for.end
  %19 = load i32, i32* %vertex, align 4, !dbg !11528
  %inc16 = add i32 %19, 1, !dbg !11528
  store i32 %inc16, i32* %vertex, align 4, !dbg !11528
  br label %for.cond, !dbg !11529, !llvm.loop !11530

for.end17:                                        ; preds = %for.cond
  call void @llvm.dbg.declare(metadata i32* %d18, metadata !11532, metadata !DIExpression()), !dbg !11534
  store i32 0, i32* %d18, align 4, !dbg !11534
  br label %for.cond19, !dbg !11535

for.cond19:                                       ; preds = %for.inc27, %for.end17
  %20 = load i32, i32* %d18, align 4, !dbg !11536
  %21 = load i32, i32* %dofs_per_line, align 4, !dbg !11538
  %cmp20 = icmp ult i32 %20, %21, !dbg !11539
  br i1 %cmp20, label %for.body21, label %for.end29, !dbg !11540

for.body21:                                       ; preds = %for.cond19
  %22 = load %"class.dealii::MGDoFAccessor"*, %"class.dealii::MGDoFAccessor"** %accessor.addr, align 8, !dbg !11541
  %23 = load i32, i32* %level.addr, align 4, !dbg !11542
  %24 = load i32, i32* %d18, align 4, !dbg !11543
  %call22 = call i32 @_ZNK6dealii13MGDoFAccessorILi1ELi3ELi3EE12mg_dof_indexEij(%"class.dealii::MGDoFAccessor"* %22, i32 %23, i32 %24), !dbg !11544
  %call24 = call i32* @_ZN9__gnu_cxx17__normal_iteratorIPjSt6vectorIjSaIjEEEppEi(%"class.__gnu_cxx::__normal_iterator"* %next, i32 0) #4, !dbg !11545
  %coerce.dive25 = getelementptr inbounds %"class.__gnu_cxx::__normal_iterator", %"class.__gnu_cxx::__normal_iterator"* %ref.tmp23, i32 0, i32 0, !dbg !11545
  store i32* %call24, i32** %coerce.dive25, align 8, !dbg !11545
  %call26 = call dereferenceable(4) i32* @_ZNK9__gnu_cxx17__normal_iteratorIPjSt6vectorIjSaIjEEEdeEv(%"class.__gnu_cxx::__normal_iterator"* %ref.tmp23) #4, !dbg !11546
  store i32 %call22, i32* %call26, align 4, !dbg !11547
  br label %for.inc27, !dbg !11546

for.inc27:                                        ; preds = %for.body21
  %25 = load i32, i32* %d18, align 4, !dbg !11548
  %inc28 = add i32 %25, 1, !dbg !11548
  store i32 %inc28, i32* %d18, align 4, !dbg !11548
  br label %for.cond19, !dbg !11549, !llvm.loop !11550

for.end29:                                        ; preds = %for.cond19
  ret void, !dbg !11552
}

; Function Attrs: noinline uwtable
define weak_odr dso_local i32 @_ZNK6dealii13MGDoFAccessorILi1ELi3ELi3EE19mg_vertex_dof_indexEijj(%"class.dealii::MGDoFAccessor"* %this, i32 %level, i32 %vertex, i32 %i) #0 comdat align 2 !dbg !11553 {
entry:
  %this.addr = alloca %"class.dealii::MGDoFAccessor"*, align 8
  %level.addr = alloca i32, align 4
  %vertex.addr = alloca i32, align 4
  %i.addr = alloca i32, align 4
  store %"class.dealii::MGDoFAccessor"* %this, %"class.dealii::MGDoFAccessor"** %this.addr, align 8
  call void @llvm.dbg.declare(metadata %"class.dealii::MGDoFAccessor"** %this.addr, metadata !11554, metadata !DIExpression()), !dbg !11555
  store i32 %level, i32* %level.addr, align 4
  call void @llvm.dbg.declare(metadata i32* %level.addr, metadata !11556, metadata !DIExpression()), !dbg !11557
  store i32 %vertex, i32* %vertex.addr, align 4
  call void @llvm.dbg.declare(metadata i32* %vertex.addr, metadata !11558, metadata !DIExpression()), !dbg !11559
  store i32 %i, i32* %i.addr, align 4
  call void @llvm.dbg.declare(metadata i32* %i.addr, metadata !11560, metadata !DIExpression()), !dbg !11561
  %this1 = load %"class.dealii::MGDoFAccessor"*, %"class.dealii::MGDoFAccessor"** %this.addr, align 8
  %mg_dof_handler = getelementptr inbounds %"class.dealii::MGDoFAccessor", %"class.dealii::MGDoFAccessor"* %this1, i32 0, i32 1, !dbg !11562
  %0 = load %"class.dealii::MGDoFHandler"*, %"class.dealii::MGDoFHandler"** %mg_dof_handler, align 8, !dbg !11562
  %mg_vertex_dofs = getelementptr inbounds %"class.dealii::MGDoFHandler", %"class.dealii::MGDoFHandler"* %0, i32 0, i32 3, !dbg !11563
  %1 = bitcast %"class.dealii::MGDoFAccessor"* %this1 to %"class.dealii::TriaAccessor"*, !dbg !11564
  %2 = load i32, i32* %vertex.addr, align 4, !dbg !11565
  %call = call i32 @_ZNK6dealii12TriaAccessorILi1ELi3ELi3EE12vertex_indexEj(%"class.dealii::TriaAccessor"* %1, i32 %2), !dbg !11564
  %conv = zext i32 %call to i64, !dbg !11566
  %call2 = call dereferenceable(16) %"class.dealii::MGDoFHandler<3, 3>::MGVertexDoFs"* @_ZNSt6vectorIN6dealii12MGDoFHandlerILi3ELi3EE12MGVertexDoFsESaIS3_EEixEm(%"class.std::vector.28"* %mg_vertex_dofs, i64 %conv) #4, !dbg !11567
  %3 = load i32, i32* %level.addr, align 4, !dbg !11568
  %4 = load i32, i32* %i.addr, align 4, !dbg !11569
  %5 = bitcast %"class.dealii::MGDoFAccessor"* %this1 to %"class.dealii::DoFAccessor"*, !dbg !11570
  %dof_handler = getelementptr inbounds %"class.dealii::DoFAccessor", %"class.dealii::DoFAccessor"* %5, i32 0, i32 1, !dbg !11570
  %6 = load %"class.dealii::DoFHandler"*, %"class.dealii::DoFHandler"** %dof_handler, align 8, !dbg !11570
  %call3 = call dereferenceable(728) %"class.dealii::FiniteElement"* @_ZNK6dealii10DoFHandlerILi3ELi3EE6get_feEv(%"class.dealii::DoFHandler"* %6), !dbg !11571
  %7 = bitcast %"class.dealii::FiniteElement"* %call3 to i8*, !dbg !11572
  %add.ptr = getelementptr inbounds i8, i8* %7, i64 72, !dbg !11572
  %8 = bitcast i8* %add.ptr to %"class.dealii::FiniteElementData"*, !dbg !11572
  %dofs_per_vertex = getelementptr inbounds %"class.dealii::FiniteElementData", %"class.dealii::FiniteElementData"* %8, i32 0, i32 0, !dbg !11573
  %9 = load i32, i32* %dofs_per_vertex, align 8, !dbg !11573
  %call4 = call i32 @_ZNK6dealii12MGDoFHandlerILi3ELi3EE12MGVertexDoFs9get_indexEjjj(%"class.dealii::MGDoFHandler<3, 3>::MGVertexDoFs"* %call2, i32 %3, i32 %4, i32 %9), !dbg !11574
  ret i32 %call4, !dbg !11575
}

; Function Attrs: noinline nounwind uwtable
define linkonce_odr dso_local dereferenceable(16) %"class.dealii::MGDoFHandler<3, 3>::MGVertexDoFs"* @_ZNSt6vectorIN6dealii12MGDoFHandlerILi3ELi3EE12MGVertexDoFsESaIS3_EEixEm(%"class.std::vector.28"* %this, i64 %__n) #1 comdat align 2 !dbg !11576 {
entry:
  %this.addr = alloca %"class.std::vector.28"*, align 8
  %__n.addr = alloca i64, align 8
  store %"class.std::vector.28"* %this, %"class.std::vector.28"** %this.addr, align 8
  call void @llvm.dbg.declare(metadata %"class.std::vector.28"** %this.addr, metadata !12033, metadata !DIExpression()), !dbg !12035
  store i64 %__n, i64* %__n.addr, align 8
  call void @llvm.dbg.declare(metadata i64* %__n.addr, metadata !12036, metadata !DIExpression()), !dbg !12037
  %this1 = load %"class.std::vector.28"*, %"class.std::vector.28"** %this.addr, align 8
  %0 = bitcast %"class.std::vector.28"* %this1 to %"struct.std::_Vector_base.29"*, !dbg !12038
  %_M_impl = getelementptr inbounds %"struct.std::_Vector_base.29", %"struct.std::_Vector_base.29"* %0, i32 0, i32 0, !dbg !12038
  %1 = bitcast %"struct.std::_Vector_base<dealii::MGDoFHandler<3, 3>::MGVertexDoFs, std::allocator<dealii::MGDoFHandler<3, 3>::MGVertexDoFs> >::_Vector_impl"* %_M_impl to %"struct.std::_Vector_base<dealii::MGDoFHandler<3, 3>::MGVertexDoFs, std::allocator<dealii::MGDoFHandler<3, 3>::MGVertexDoFs> >::_Vector_impl_data"*, !dbg !12039
  %_M_start = getelementptr inbounds %"struct.std::_Vector_base<dealii::MGDoFHandler<3, 3>::MGVertexDoFs, std::allocator<dealii::MGDoFHandler<3, 3>::MGVertexDoFs> >::_Vector_impl_data", %"struct.std::_Vector_base<dealii::MGDoFHandler<3, 3>::MGVertexDoFs, std::allocator<dealii::MGDoFHandler<3, 3>::MGVertexDoFs> >::_Vector_impl_data"* %1, i32 0, i32 0, !dbg !12040
  %2 = load %"class.dealii::MGDoFHandler<3, 3>::MGVertexDoFs"*, %"class.dealii::MGDoFHandler<3, 3>::MGVertexDoFs"** %_M_start, align 8, !dbg !12040
  %3 = load i64, i64* %__n.addr, align 8, !dbg !12041
  %add.ptr = getelementptr inbounds %"class.dealii::MGDoFHandler<3, 3>::MGVertexDoFs", %"class.dealii::MGDoFHandler<3, 3>::MGVertexDoFs"* %2, i64 %3, !dbg !12042
  ret %"class.dealii::MGDoFHandler<3, 3>::MGVertexDoFs"* %add.ptr, !dbg !12043
}

; Function Attrs: noinline uwtable
define linkonce_odr dso_local i32 @_ZNK6dealii12TriaAccessorILi1ELi3ELi3EE12vertex_indexEj(%"class.dealii::TriaAccessor"* %this, i32 %corner) #0 comdat align 2 !dbg !12044 {
entry:
  %this.addr = alloca %"class.dealii::TriaAccessor"*, align 8
  %corner.addr = alloca i32, align 4
  store %"class.dealii::TriaAccessor"* %this, %"class.dealii::TriaAccessor"** %this.addr, align 8
  call void @llvm.dbg.declare(metadata %"class.dealii::TriaAccessor"** %this.addr, metadata !12045, metadata !DIExpression()), !dbg !12046
  store i32 %corner, i32* %corner.addr, align 4
  call void @llvm.dbg.declare(metadata i32* %corner.addr, metadata !12047, metadata !DIExpression()), !dbg !12048
  %this1 = load %"class.dealii::TriaAccessor"*, %"class.dealii::TriaAccessor"** %this.addr, align 8
  %0 = load i32, i32* %corner.addr, align 4, !dbg !12049
  %call = call i32 @_ZN6dealii8internal12TriaAccessor14Implementation12vertex_indexILi3ELi3EEEjRKNS_12TriaAccessorILi1EXT_EXT0_EEEj(%"class.dealii::TriaAccessor"* dereferenceable(16) %this1, i32 %0), !dbg !12050
  ret i32 %call, !dbg !12051
}

; Function Attrs: noinline nounwind uwtable
define linkonce_odr dso_local i32 @_ZNK6dealii12MGDoFHandlerILi3ELi3EE12MGVertexDoFs9get_indexEjjj(%"class.dealii::MGDoFHandler<3, 3>::MGVertexDoFs"* %this, i32 %level, i32 %dof_number, i32 %dofs_per_vertex) #1 comdat align 2 !dbg !12052 {
entry:
  %this.addr = alloca %"class.dealii::MGDoFHandler<3, 3>::MGVertexDoFs"*, align 8
  %level.addr = alloca i32, align 4
  %dof_number.addr = alloca i32, align 4
  %dofs_per_vertex.addr = alloca i32, align 4
  store %"class.dealii::MGDoFHandler<3, 3>::MGVertexDoFs"* %this, %"class.dealii::MGDoFHandler<3, 3>::MGVertexDoFs"** %this.addr, align 8
  call void @llvm.dbg.declare(metadata %"class.dealii::MGDoFHandler<3, 3>::MGVertexDoFs"** %this.addr, metadata !12053, metadata !DIExpression()), !dbg !12054
  store i32 %level, i32* %level.addr, align 4
  call void @llvm.dbg.declare(metadata i32* %level.addr, metadata !12055, metadata !DIExpression()), !dbg !12056
  store i32 %dof_number, i32* %dof_number.addr, align 4
  call void @llvm.dbg.declare(metadata i32* %dof_number.addr, metadata !12057, metadata !DIExpression()), !dbg !12058
  store i32 %dofs_per_vertex, i32* %dofs_per_vertex.addr, align 4
  call void @llvm.dbg.declare(metadata i32* %dofs_per_vertex.addr, metadata !12059, metadata !DIExpression()), !dbg !12060
  %this1 = load %"class.dealii::MGDoFHandler<3, 3>::MGVertexDoFs"*, %"class.dealii::MGDoFHandler<3, 3>::MGVertexDoFs"** %this.addr, align 8
  %indices = getelementptr inbounds %"class.dealii::MGDoFHandler<3, 3>::MGVertexDoFs", %"class.dealii::MGDoFHandler<3, 3>::MGVertexDoFs"* %this1, i32 0, i32 2, !dbg !12061
  %0 = load i32*, i32** %indices, align 8, !dbg !12061
  %1 = load i32, i32* %level.addr, align 4, !dbg !12062
  %coarsest_level = getelementptr inbounds %"class.dealii::MGDoFHandler<3, 3>::MGVertexDoFs", %"class.dealii::MGDoFHandler<3, 3>::MGVertexDoFs"* %this1, i32 0, i32 0, !dbg !12063
  %2 = load i32, i32* %coarsest_level, align 8, !dbg !12063
  %sub = sub i32 %1, %2, !dbg !12064
  %3 = load i32, i32* %dofs_per_vertex.addr, align 4, !dbg !12065
  %mul = mul i32 %sub, %3, !dbg !12066
  %4 = load i32, i32* %dof_number.addr, align 4, !dbg !12067
  %add = add i32 %mul, %4, !dbg !12068
  %idxprom = zext i32 %add to i64, !dbg !12061
  %arrayidx = getelementptr inbounds i32, i32* %0, i64 %idxprom, !dbg !12061
  %5 = load i32, i32* %arrayidx, align 4, !dbg !12061
  ret i32 %5, !dbg !12069
}

; Function Attrs: noinline uwtable
define linkonce_odr dso_local dereferenceable(728) %"class.dealii::FiniteElement"* @_ZNK6dealii10DoFHandlerILi3ELi3EE6get_feEv(%"class.dealii::DoFHandler"* %this) #0 comdat align 2 !dbg !12070 {
entry:
  %this.addr = alloca %"class.dealii::DoFHandler"*, align 8
  store %"class.dealii::DoFHandler"* %this, %"class.dealii::DoFHandler"** %this.addr, align 8
  call void @llvm.dbg.declare(metadata %"class.dealii::DoFHandler"** %this.addr, metadata !12075, metadata !DIExpression()), !dbg !12076
  %this1 = load %"class.dealii::DoFHandler"*, %"class.dealii::DoFHandler"** %this.addr, align 8
  %selected_fe = getelementptr inbounds %"class.dealii::DoFHandler", %"class.dealii::DoFHandler"* %this1, i32 0, i32 2, !dbg !12077
  %call = call dereferenceable(728) %"class.dealii::FiniteElement"* @_ZNK6dealii12SmartPointerIKNS_13FiniteElementILi3ELi3EEEEdeEv(%"class.dealii::SmartPointer.16"* %selected_fe), !dbg !12078
  ret %"class.dealii::FiniteElement"* %call, !dbg !12079
}

; Function Attrs: noinline uwtable
define weak_odr dso_local i32 @_ZNK6dealii13MGDoFAccessorILi1ELi3ELi3EE12mg_dof_indexEij(%"class.dealii::MGDoFAccessor"* %this, i32 %level, i32 %i) #0 comdat align 2 !dbg !12080 {
entry:
  %this.addr = alloca %"class.dealii::MGDoFAccessor"*, align 8
  %level.addr = alloca i32, align 4
  %i.addr = alloca i32, align 4
  store %"class.dealii::MGDoFAccessor"* %this, %"class.dealii::MGDoFAccessor"** %this.addr, align 8
  call void @llvm.dbg.declare(metadata %"class.dealii::MGDoFAccessor"** %this.addr, metadata !12081, metadata !DIExpression()), !dbg !12082
  store i32 %level, i32* %level.addr, align 4
  call void @llvm.dbg.declare(metadata i32* %level.addr, metadata !12083, metadata !DIExpression()), !dbg !12084
  store i32 %i, i32* %i.addr, align 4
  call void @llvm.dbg.declare(metadata i32* %i.addr, metadata !12085, metadata !DIExpression()), !dbg !12086
  %this1 = load %"class.dealii::MGDoFAccessor"*, %"class.dealii::MGDoFAccessor"** %this.addr, align 8
  %mg_dof_handler = getelementptr inbounds %"class.dealii::MGDoFAccessor", %"class.dealii::MGDoFAccessor"* %this1, i32 0, i32 1, !dbg !12087
  %0 = load %"class.dealii::MGDoFHandler"*, %"class.dealii::MGDoFHandler"** %mg_dof_handler, align 8, !dbg !12087
  %1 = load i32, i32* %level.addr, align 4, !dbg !12088
  %2 = bitcast %"class.dealii::MGDoFAccessor"* %this1 to %"class.dealii::TriaAccessorBase"*, !dbg !12089
  %present_index = getelementptr inbounds %"class.dealii::TriaAccessorBase", %"class.dealii::TriaAccessorBase"* %2, i32 0, i32 0, !dbg !12089
  %3 = load i32, i32* %present_index, align 8, !dbg !12089
  %4 = load i32, i32* %i.addr, align 4, !dbg !12090
  %call = call i32 @_ZNK6dealii12MGDoFHandlerILi3ELi3EE13get_dof_indexILi1EEEjjjjj(%"class.dealii::MGDoFHandler"* %0, i32 %1, i32 %3, i32 0, i32 %4), !dbg !12091
  ret i32 %call, !dbg !12092
}

declare dso_local i32 @_ZNK6dealii12MGDoFHandlerILi3ELi3EE13get_dof_indexILi1EEEjjjjj(%"class.dealii::MGDoFHandler"*, i32, i32, i32, i32) #2

; Function Attrs: noinline uwtable
define weak_odr dso_local void @_ZNK6dealii13MGDoFAccessorILi1ELi3ELi3EE5childEj(%"class.dealii::TriaIterator"* noalias sret %agg.result, %"class.dealii::MGDoFAccessor"* %this, i32 %i) #0 comdat align 2 !dbg !12093 {
entry:
  %result.ptr = alloca i8*, align 8
  %this.addr = alloca %"class.dealii::MGDoFAccessor"*, align 8
  %i.addr = alloca i32, align 4
  %0 = bitcast %"class.dealii::TriaIterator"* %agg.result to i8*
  store i8* %0, i8** %result.ptr, align 8
  store %"class.dealii::MGDoFAccessor"* %this, %"class.dealii::MGDoFAccessor"** %this.addr, align 8
  call void @llvm.dbg.declare(metadata %"class.dealii::MGDoFAccessor"** %this.addr, metadata !12094, metadata !DIExpression()), !dbg !12095
  store i32 %i, i32* %i.addr, align 4
  call void @llvm.dbg.declare(metadata i32* %i.addr, metadata !12096, metadata !DIExpression()), !dbg !12097
  %this1 = load %"class.dealii::MGDoFAccessor"*, %"class.dealii::MGDoFAccessor"** %this.addr, align 8
  call void @llvm.dbg.declare(metadata i8** %result.ptr, metadata !12098, metadata !DIExpression(DW_OP_deref)), !dbg !12099
  %1 = bitcast %"class.dealii::MGDoFAccessor"* %this1 to %"class.dealii::TriaAccessorBase"*, !dbg !12100
  %tria = getelementptr inbounds %"class.dealii::TriaAccessorBase", %"class.dealii::TriaAccessorBase"* %1, i32 0, i32 1, !dbg !12100
  %2 = load %"class.dealii::Triangulation"*, %"class.dealii::Triangulation"** %tria, align 8, !dbg !12100
  %3 = bitcast %"class.dealii::MGDoFAccessor"* %this1 to %"class.dealii::TriaAccessor"*, !dbg !12101
  %4 = load i32, i32* %i.addr, align 4, !dbg !12102
  %call = call i32 @_ZNK6dealii12TriaAccessorILi1ELi3ELi3EE11child_indexEj(%"class.dealii::TriaAccessor"* %3, i32 %4), !dbg !12101
  %mg_dof_handler = getelementptr inbounds %"class.dealii::MGDoFAccessor", %"class.dealii::MGDoFAccessor"* %this1, i32 0, i32 1, !dbg !12103
  %5 = load %"class.dealii::MGDoFHandler"*, %"class.dealii::MGDoFHandler"** %mg_dof_handler, align 8, !dbg !12103
  call void @_ZN6dealii12TriaIteratorINS_13MGDoFAccessorILi1ELi3ELi3EEEEC1EPKNS_13TriangulationILi3ELi3EEEiiPKNS_12MGDoFHandlerILi3ELi3EEE(%"class.dealii::TriaIterator"* %agg.result, %"class.dealii::Triangulation"* %2, i32 0, i32 %call, %"class.dealii::MGDoFHandler"* %5), !dbg !12099
  ret void, !dbg !12104
}

; Function Attrs: noinline uwtable
define linkonce_odr dso_local i32 @_ZNK6dealii12TriaAccessorILi1ELi3ELi3EE11child_indexEj(%"class.dealii::TriaAccessor"* %this, i32 %i) #0 comdat align 2 !dbg !12105 {
entry:
  %this.addr = alloca %"class.dealii::TriaAccessor"*, align 8
  %i.addr = alloca i32, align 4
  %n_sets_of_two = alloca i32, align 4
  store %"class.dealii::TriaAccessor"* %this, %"class.dealii::TriaAccessor"** %this.addr, align 8
  call void @llvm.dbg.declare(metadata %"class.dealii::TriaAccessor"** %this.addr, metadata !12106, metadata !DIExpression()), !dbg !12107
  store i32 %i, i32* %i.addr, align 4
  call void @llvm.dbg.declare(metadata i32* %i.addr, metadata !12108, metadata !DIExpression()), !dbg !12109
  %this1 = load %"class.dealii::TriaAccessor"*, %"class.dealii::TriaAccessor"** %this.addr, align 8
  call void @llvm.dbg.declare(metadata i32* %n_sets_of_two, metadata !12110, metadata !DIExpression()), !dbg !12111
  store i32 1, i32* %n_sets_of_two, align 4, !dbg !12111
  %0 = bitcast %"class.dealii::TriaAccessor"* %this1 to %"class.dealii::TriaAccessorBase"*, !dbg !12112
  %call = call dereferenceable(224) %"class.dealii::internal::Triangulation::TriaObjects.103"* @_ZNK6dealii16TriaAccessorBaseILi1ELi3ELi3EE7objectsEv(%"class.dealii::TriaAccessorBase"* %0), !dbg !12112
  %children = getelementptr inbounds %"class.dealii::internal::Triangulation::TriaObjects.103", %"class.dealii::internal::Triangulation::TriaObjects.103"* %call, i32 0, i32 1, !dbg !12113
  %1 = bitcast %"class.dealii::TriaAccessor"* %this1 to %"class.dealii::TriaAccessorBase"*, !dbg !12114
  %present_index = getelementptr inbounds %"class.dealii::TriaAccessorBase", %"class.dealii::TriaAccessorBase"* %1, i32 0, i32 0, !dbg !12114
  %2 = load i32, i32* %present_index, align 8, !dbg !12114
  %mul = mul i32 1, %2, !dbg !12115
  %3 = load i32, i32* %i.addr, align 4, !dbg !12116
  %div = udiv i32 %3, 2, !dbg !12117
  %add = add i32 %mul, %div, !dbg !12118
  %conv = zext i32 %add to i64, !dbg !12119
  %call2 = call dereferenceable(4) i32* @_ZNSt6vectorIiSaIiEEixEm(%"class.std::vector.70"* %children, i64 %conv) #4, !dbg !12120
  %4 = load i32, i32* %call2, align 4, !dbg !12120
  %5 = load i32, i32* %i.addr, align 4, !dbg !12121
  %rem = urem i32 %5, 2, !dbg !12122
  %add3 = add i32 %4, %rem, !dbg !12123
  ret i32 %add3, !dbg !12124
}

; Function Attrs: noinline uwtable
define weak_odr dso_local void @_ZNK6dealii13MGDoFAccessorILi1ELi3ELi3EE4lineEj(%"class.dealii::TriaIterator"* noalias sret %agg.result, %"class.dealii::MGDoFAccessor"* %this, i32 %i) #0 comdat align 2 !dbg !12125 {
entry:
  %result.ptr = alloca i8*, align 8
  %this.addr = alloca %"class.dealii::MGDoFAccessor"*, align 8
  %i.addr = alloca i32, align 4
  %0 = bitcast %"class.dealii::TriaIterator"* %agg.result to i8*
  store i8* %0, i8** %result.ptr, align 8
  store %"class.dealii::MGDoFAccessor"* %this, %"class.dealii::MGDoFAccessor"** %this.addr, align 8
  call void @llvm.dbg.declare(metadata %"class.dealii::MGDoFAccessor"** %this.addr, metadata !12126, metadata !DIExpression()), !dbg !12127
  store i32 %i, i32* %i.addr, align 4
  call void @llvm.dbg.declare(metadata i32* %i.addr, metadata !12128, metadata !DIExpression()), !dbg !12129
  %this1 = load %"class.dealii::MGDoFAccessor"*, %"class.dealii::MGDoFAccessor"** %this.addr, align 8
  %1 = bitcast %"class.dealii::MGDoFAccessor"* %this1 to %"class.dealii::TriaAccessorBase"*, !dbg !12130
  %tria = getelementptr inbounds %"class.dealii::TriaAccessorBase", %"class.dealii::TriaAccessorBase"* %1, i32 0, i32 1, !dbg !12130
  %2 = load %"class.dealii::Triangulation"*, %"class.dealii::Triangulation"** %tria, align 8, !dbg !12130
  %3 = bitcast %"class.dealii::MGDoFAccessor"* %this1 to %"class.dealii::TriaAccessor"*, !dbg !12131
  %4 = load i32, i32* %i.addr, align 4, !dbg !12132
  %call = call i32 @_ZNK6dealii12TriaAccessorILi1ELi3ELi3EE10line_indexEj(%"class.dealii::TriaAccessor"* %3, i32 %4), !dbg !12131
  %mg_dof_handler = getelementptr inbounds %"class.dealii::MGDoFAccessor", %"class.dealii::MGDoFAccessor"* %this1, i32 0, i32 1, !dbg !12133
  %5 = load %"class.dealii::MGDoFHandler"*, %"class.dealii::MGDoFHandler"** %mg_dof_handler, align 8, !dbg !12133
  call void @_ZN6dealii12TriaIteratorINS_13MGDoFAccessorILi1ELi3ELi3EEEEC1EPKNS_13TriangulationILi3ELi3EEEiiPKNS_12MGDoFHandlerILi3ELi3EEE(%"class.dealii::TriaIterator"* %agg.result, %"class.dealii::Triangulation"* %2, i32 0, i32 %call, %"class.dealii::MGDoFHandler"* %5), !dbg !12134
  ret void, !dbg !12135
}

; Function Attrs: noinline uwtable
define linkonce_odr dso_local i32 @_ZNK6dealii12TriaAccessorILi1ELi3ELi3EE10line_indexEj(%"class.dealii::TriaAccessor"* %this, i32 %i) #0 comdat align 2 !dbg !12136 {
entry:
  %this.addr = alloca %"class.dealii::TriaAccessor"*, align 8
  %i.addr = alloca i32, align 4
  store %"class.dealii::TriaAccessor"* %this, %"class.dealii::TriaAccessor"** %this.addr, align 8
  call void @llvm.dbg.declare(metadata %"class.dealii::TriaAccessor"** %this.addr, metadata !12137, metadata !DIExpression()), !dbg !12138
  store i32 %i, i32* %i.addr, align 4
  call void @llvm.dbg.declare(metadata i32* %i.addr, metadata !12139, metadata !DIExpression()), !dbg !12140
  %this1 = load %"class.dealii::TriaAccessor"*, %"class.dealii::TriaAccessor"** %this.addr, align 8
  %0 = load i32, i32* %i.addr, align 4, !dbg !12141
  %call = call i32 @_ZN6dealii8internal12TriaAccessor14Implementation10line_indexILi3ELi3EEEjRKNS_12TriaAccessorILi1EXT_EXT0_EEEj(%"class.dealii::TriaAccessor"* dereferenceable(16) %this1, i32 %0), !dbg !12142
  ret i32 %call, !dbg !12143
}

; Function Attrs: noinline uwtable
define weak_odr dso_local void @_ZNK6dealii13MGDoFAccessorILi1ELi3ELi3EE4quadEj(%"class.dealii::TriaIterator.169"* noalias sret %agg.result, %"class.dealii::MGDoFAccessor"* %this, i32 %i) #0 comdat align 2 !dbg !12144 {
entry:
  %result.ptr = alloca i8*, align 8
  %this.addr = alloca %"class.dealii::MGDoFAccessor"*, align 8
  %i.addr = alloca i32, align 4
  %0 = bitcast %"class.dealii::TriaIterator.169"* %agg.result to i8*
  store i8* %0, i8** %result.ptr, align 8
  store %"class.dealii::MGDoFAccessor"* %this, %"class.dealii::MGDoFAccessor"** %this.addr, align 8
  call void @llvm.dbg.declare(metadata %"class.dealii::MGDoFAccessor"** %this.addr, metadata !12145, metadata !DIExpression()), !dbg !12146
  store i32 %i, i32* %i.addr, align 4
  call void @llvm.dbg.declare(metadata i32* %i.addr, metadata !12147, metadata !DIExpression()), !dbg !12148
  %this1 = load %"class.dealii::MGDoFAccessor"*, %"class.dealii::MGDoFAccessor"** %this.addr, align 8
  %1 = bitcast %"class.dealii::MGDoFAccessor"* %this1 to %"class.dealii::TriaAccessorBase"*, !dbg !12149
  %tria = getelementptr inbounds %"class.dealii::TriaAccessorBase", %"class.dealii::TriaAccessorBase"* %1, i32 0, i32 1, !dbg !12149
  %2 = load %"class.dealii::Triangulation"*, %"class.dealii::Triangulation"** %tria, align 8, !dbg !12149
  %3 = bitcast %"class.dealii::MGDoFAccessor"* %this1 to %"class.dealii::TriaAccessor"*, !dbg !12150
  %4 = load i32, i32* %i.addr, align 4, !dbg !12151
  %call = call i32 @_ZNK6dealii12TriaAccessorILi1ELi3ELi3EE10quad_indexEj(%"class.dealii::TriaAccessor"* %3, i32 %4), !dbg !12150
  %mg_dof_handler = getelementptr inbounds %"class.dealii::MGDoFAccessor", %"class.dealii::MGDoFAccessor"* %this1, i32 0, i32 1, !dbg !12152
  %5 = load %"class.dealii::MGDoFHandler"*, %"class.dealii::MGDoFHandler"** %mg_dof_handler, align 8, !dbg !12152
  call void @_ZN6dealii12TriaIteratorINS_13MGDoFAccessorILi2ELi3ELi3EEEEC1EPKNS_13TriangulationILi3ELi3EEEiiPKNS_12MGDoFHandlerILi3ELi3EEE(%"class.dealii::TriaIterator.169"* %agg.result, %"class.dealii::Triangulation"* %2, i32 0, i32 %call, %"class.dealii::MGDoFHandler"* %5), !dbg !12153
  ret void, !dbg !12154
}

; Function Attrs: noinline uwtable
define linkonce_odr dso_local i32 @_ZNK6dealii12TriaAccessorILi1ELi3ELi3EE10quad_indexEj(%"class.dealii::TriaAccessor"* %this, i32 %i) #0 comdat align 2 !dbg !12155 {
entry:
  %this.addr = alloca %"class.dealii::TriaAccessor"*, align 8
  %i.addr = alloca i32, align 4
  store %"class.dealii::TriaAccessor"* %this, %"class.dealii::TriaAccessor"** %this.addr, align 8
  call void @llvm.dbg.declare(metadata %"class.dealii::TriaAccessor"** %this.addr, metadata !12156, metadata !DIExpression()), !dbg !12157
  store i32 %i, i32* %i.addr, align 4
  call void @llvm.dbg.declare(metadata i32* %i.addr, metadata !12158, metadata !DIExpression()), !dbg !12159
  %this1 = load %"class.dealii::TriaAccessor"*, %"class.dealii::TriaAccessor"** %this.addr, align 8
  %0 = load i32, i32* %i.addr, align 4, !dbg !12160
  %call = call i32 @_ZN6dealii8internal12TriaAccessor14Implementation10quad_indexILi1ELi3ELi3EEEjRKNS_12TriaAccessorIXT_EXT0_EXT1_EEEj(%"class.dealii::TriaAccessor"* dereferenceable(16) %this1, i32 %0), !dbg !12161
  ret i32 %call, !dbg !12162
}

; Function Attrs: noinline uwtable
define weak_odr dso_local void @_ZN6dealii13MGDoFAccessorILi1ELi3ELi3EE9copy_fromERKS1_(%"class.dealii::MGDoFAccessor"* %this, %"class.dealii::MGDoFAccessor"* dereferenceable(32) %a) #0 comdat align 2 !dbg !12163 {
entry:
  %this.addr = alloca %"class.dealii::MGDoFAccessor"*, align 8
  %a.addr = alloca %"class.dealii::MGDoFAccessor"*, align 8
  store %"class.dealii::MGDoFAccessor"* %this, %"class.dealii::MGDoFAccessor"** %this.addr, align 8
  call void @llvm.dbg.declare(metadata %"class.dealii::MGDoFAccessor"** %this.addr, metadata !12164, metadata !DIExpression()), !dbg !12165
  store %"class.dealii::MGDoFAccessor"* %a, %"class.dealii::MGDoFAccessor"** %a.addr, align 8
  call void @llvm.dbg.declare(metadata %"class.dealii::MGDoFAccessor"** %a.addr, metadata !12166, metadata !DIExpression()), !dbg !12167
  %this1 = load %"class.dealii::MGDoFAccessor"*, %"class.dealii::MGDoFAccessor"** %this.addr, align 8
  %0 = bitcast %"class.dealii::MGDoFAccessor"* %this1 to %"class.dealii::DoFAccessor"*, !dbg !12168
  %1 = load %"class.dealii::MGDoFAccessor"*, %"class.dealii::MGDoFAccessor"** %a.addr, align 8, !dbg !12169
  %2 = bitcast %"class.dealii::MGDoFAccessor"* %1 to %"class.dealii::DoFAccessor"*, !dbg !12169
  call void @_ZN6dealii11DoFAccessorILi1ENS_10DoFHandlerILi3ELi3EEEE9copy_fromERKS3_(%"class.dealii::DoFAccessor"* %0, %"class.dealii::DoFAccessor"* dereferenceable(24) %2), !dbg !12168
  %3 = load %"class.dealii::MGDoFAccessor"*, %"class.dealii::MGDoFAccessor"** %a.addr, align 8, !dbg !12170
  %mg_dof_handler = getelementptr inbounds %"class.dealii::MGDoFAccessor", %"class.dealii::MGDoFAccessor"* %3, i32 0, i32 1, !dbg !12171
  %4 = load %"class.dealii::MGDoFHandler"*, %"class.dealii::MGDoFHandler"** %mg_dof_handler, align 8, !dbg !12171
  call void @_ZN6dealii13MGDoFAccessorILi1ELi3ELi3EE18set_mg_dof_handlerEPNS_12MGDoFHandlerILi3ELi3EEE(%"class.dealii::MGDoFAccessor"* %this1, %"class.dealii::MGDoFHandler"* %4), !dbg !12172
  ret void, !dbg !12173
}

; Function Attrs: noinline uwtable
define linkonce_odr dso_local void @_ZN6dealii11DoFAccessorILi1ENS_10DoFHandlerILi3ELi3EEEE9copy_fromERKS3_(%"class.dealii::DoFAccessor"* %this, %"class.dealii::DoFAccessor"* dereferenceable(24) %a) #0 comdat align 2 !dbg !12174 {
entry:
  %this.addr = alloca %"class.dealii::DoFAccessor"*, align 8
  %a.addr = alloca %"class.dealii::DoFAccessor"*, align 8
  store %"class.dealii::DoFAccessor"* %this, %"class.dealii::DoFAccessor"** %this.addr, align 8
  call void @llvm.dbg.declare(metadata %"class.dealii::DoFAccessor"** %this.addr, metadata !12175, metadata !DIExpression()), !dbg !12176
  store %"class.dealii::DoFAccessor"* %a, %"class.dealii::DoFAccessor"** %a.addr, align 8
  call void @llvm.dbg.declare(metadata %"class.dealii::DoFAccessor"** %a.addr, metadata !12177, metadata !DIExpression()), !dbg !12178
  %this1 = load %"class.dealii::DoFAccessor"*, %"class.dealii::DoFAccessor"** %this.addr, align 8
  %0 = bitcast %"class.dealii::DoFAccessor"* %this1 to %"class.dealii::TriaAccessor"*, !dbg !12179
  %1 = bitcast %"class.dealii::TriaAccessor"* %0 to %"class.dealii::TriaAccessorBase"*, !dbg !12179
  %2 = load %"class.dealii::DoFAccessor"*, %"class.dealii::DoFAccessor"** %a.addr, align 8, !dbg !12180
  %3 = bitcast %"class.dealii::DoFAccessor"* %2 to %"class.dealii::TriaAccessorBase"*, !dbg !12180
  call void @_ZN6dealii16TriaAccessorBaseILi1ELi3ELi3EE9copy_fromERKS1_(%"class.dealii::TriaAccessorBase"* %1, %"class.dealii::TriaAccessorBase"* dereferenceable(16) %3), !dbg !12179
  %4 = load %"class.dealii::DoFAccessor"*, %"class.dealii::DoFAccessor"** %a.addr, align 8, !dbg !12181
  %dof_handler = getelementptr inbounds %"class.dealii::DoFAccessor", %"class.dealii::DoFAccessor"* %4, i32 0, i32 1, !dbg !12182
  %5 = load %"class.dealii::DoFHandler"*, %"class.dealii::DoFHandler"** %dof_handler, align 8, !dbg !12182
  call void @_ZN6dealii11DoFAccessorILi1ENS_10DoFHandlerILi3ELi3EEEE15set_dof_handlerEPS2_(%"class.dealii::DoFAccessor"* %this1, %"class.dealii::DoFHandler"* %5), !dbg !12183
  ret void, !dbg !12184
}

; Function Attrs: noinline nounwind uwtable
define weak_odr dso_local void @_ZN6dealii13MGDoFAccessorILi1ELi3ELi3EE18set_mg_dof_handlerEPNS_12MGDoFHandlerILi3ELi3EEE(%"class.dealii::MGDoFAccessor"* %this, %"class.dealii::MGDoFHandler"* %dh) #1 comdat align 2 !dbg !12185 {
entry:
  %this.addr = alloca %"class.dealii::MGDoFAccessor"*, align 8
  %dh.addr = alloca %"class.dealii::MGDoFHandler"*, align 8
  store %"class.dealii::MGDoFAccessor"* %this, %"class.dealii::MGDoFAccessor"** %this.addr, align 8
  call void @llvm.dbg.declare(metadata %"class.dealii::MGDoFAccessor"** %this.addr, metadata !12186, metadata !DIExpression()), !dbg !12187
  store %"class.dealii::MGDoFHandler"* %dh, %"class.dealii::MGDoFHandler"** %dh.addr, align 8
  call void @llvm.dbg.declare(metadata %"class.dealii::MGDoFHandler"** %dh.addr, metadata !12188, metadata !DIExpression()), !dbg !12189
  %this1 = load %"class.dealii::MGDoFAccessor"*, %"class.dealii::MGDoFAccessor"** %this.addr, align 8
  %0 = load %"class.dealii::MGDoFHandler"*, %"class.dealii::MGDoFHandler"** %dh.addr, align 8, !dbg !12190
  %mg_dof_handler = getelementptr inbounds %"class.dealii::MGDoFAccessor", %"class.dealii::MGDoFAccessor"* %this1, i32 0, i32 1, !dbg !12191
  store %"class.dealii::MGDoFHandler"* %0, %"class.dealii::MGDoFHandler"** %mg_dof_handler, align 8, !dbg !12192
  ret void, !dbg !12193
}

; Function Attrs: noinline uwtable
define weak_odr dso_local void @_ZNK6dealii13MGDoFAccessorILi1ELi3ELi3EE23set_mg_vertex_dof_indexEijjj(%"class.dealii::MGDoFAccessor"* %this, i32 %level, i32 %vertex, i32 %i, i32 %index) #0 comdat align 2 !dbg !12194 {
entry:
  %this.addr = alloca %"class.dealii::MGDoFAccessor"*, align 8
  %level.addr = alloca i32, align 4
  %vertex.addr = alloca i32, align 4
  %i.addr = alloca i32, align 4
  %index.addr = alloca i32, align 4
  store %"class.dealii::MGDoFAccessor"* %this, %"class.dealii::MGDoFAccessor"** %this.addr, align 8
  call void @llvm.dbg.declare(metadata %"class.dealii::MGDoFAccessor"** %this.addr, metadata !12195, metadata !DIExpression()), !dbg !12196
  store i32 %level, i32* %level.addr, align 4
  call void @llvm.dbg.declare(metadata i32* %level.addr, metadata !12197, metadata !DIExpression()), !dbg !12198
  store i32 %vertex, i32* %vertex.addr, align 4
  call void @llvm.dbg.declare(metadata i32* %vertex.addr, metadata !12199, metadata !DIExpression()), !dbg !12200
  store i32 %i, i32* %i.addr, align 4
  call void @llvm.dbg.declare(metadata i32* %i.addr, metadata !12201, metadata !DIExpression()), !dbg !12202
  store i32 %index, i32* %index.addr, align 4
  call void @llvm.dbg.declare(metadata i32* %index.addr, metadata !12203, metadata !DIExpression()), !dbg !12204
  %this1 = load %"class.dealii::MGDoFAccessor"*, %"class.dealii::MGDoFAccessor"** %this.addr, align 8
  %mg_dof_handler = getelementptr inbounds %"class.dealii::MGDoFAccessor", %"class.dealii::MGDoFAccessor"* %this1, i32 0, i32 1, !dbg !12205
  %0 = load %"class.dealii::MGDoFHandler"*, %"class.dealii::MGDoFHandler"** %mg_dof_handler, align 8, !dbg !12205
  %mg_vertex_dofs = getelementptr inbounds %"class.dealii::MGDoFHandler", %"class.dealii::MGDoFHandler"* %0, i32 0, i32 3, !dbg !12206
  %1 = bitcast %"class.dealii::MGDoFAccessor"* %this1 to %"class.dealii::TriaAccessor"*, !dbg !12207
  %2 = load i32, i32* %vertex.addr, align 4, !dbg !12208
  %call = call i32 @_ZNK6dealii12TriaAccessorILi1ELi3ELi3EE12vertex_indexEj(%"class.dealii::TriaAccessor"* %1, i32 %2), !dbg !12207
  %conv = zext i32 %call to i64, !dbg !12209
  %call2 = call dereferenceable(16) %"class.dealii::MGDoFHandler<3, 3>::MGVertexDoFs"* @_ZNSt6vectorIN6dealii12MGDoFHandlerILi3ELi3EE12MGVertexDoFsESaIS3_EEixEm(%"class.std::vector.28"* %mg_vertex_dofs, i64 %conv) #4, !dbg !12210
  %3 = load i32, i32* %level.addr, align 4, !dbg !12211
  %4 = load i32, i32* %i.addr, align 4, !dbg !12212
  %5 = bitcast %"class.dealii::MGDoFAccessor"* %this1 to %"class.dealii::DoFAccessor"*, !dbg !12213
  %dof_handler = getelementptr inbounds %"class.dealii::DoFAccessor", %"class.dealii::DoFAccessor"* %5, i32 0, i32 1, !dbg !12213
  %6 = load %"class.dealii::DoFHandler"*, %"class.dealii::DoFHandler"** %dof_handler, align 8, !dbg !12213
  %call3 = call dereferenceable(728) %"class.dealii::FiniteElement"* @_ZNK6dealii10DoFHandlerILi3ELi3EE6get_feEv(%"class.dealii::DoFHandler"* %6), !dbg !12214
  %7 = bitcast %"class.dealii::FiniteElement"* %call3 to i8*, !dbg !12215
  %add.ptr = getelementptr inbounds i8, i8* %7, i64 72, !dbg !12215
  %8 = bitcast i8* %add.ptr to %"class.dealii::FiniteElementData"*, !dbg !12215
  %dofs_per_vertex = getelementptr inbounds %"class.dealii::FiniteElementData", %"class.dealii::FiniteElementData"* %8, i32 0, i32 0, !dbg !12216
  %9 = load i32, i32* %dofs_per_vertex, align 8, !dbg !12216
  %10 = load i32, i32* %index.addr, align 4, !dbg !12217
  call void @_ZN6dealii12MGDoFHandlerILi3ELi3EE12MGVertexDoFs9set_indexEjjjj(%"class.dealii::MGDoFHandler<3, 3>::MGVertexDoFs"* %call2, i32 %3, i32 %4, i32 %9, i32 %10), !dbg !12218
  ret void, !dbg !12219
}

; Function Attrs: noinline nounwind uwtable
define linkonce_odr dso_local void @_ZN6dealii12MGDoFHandlerILi3ELi3EE12MGVertexDoFs9set_indexEjjjj(%"class.dealii::MGDoFHandler<3, 3>::MGVertexDoFs"* %this, i32 %level, i32 %dof_number, i32 %dofs_per_vertex, i32 %index) #1 comdat align 2 !dbg !12220 {
entry:
  %this.addr = alloca %"class.dealii::MGDoFHandler<3, 3>::MGVertexDoFs"*, align 8
  %level.addr = alloca i32, align 4
  %dof_number.addr = alloca i32, align 4
  %dofs_per_vertex.addr = alloca i32, align 4
  %index.addr = alloca i32, align 4
  store %"class.dealii::MGDoFHandler<3, 3>::MGVertexDoFs"* %this, %"class.dealii::MGDoFHandler<3, 3>::MGVertexDoFs"** %this.addr, align 8
  call void @llvm.dbg.declare(metadata %"class.dealii::MGDoFHandler<3, 3>::MGVertexDoFs"** %this.addr, metadata !12221, metadata !DIExpression()), !dbg !12222
  store i32 %level, i32* %level.addr, align 4
  call void @llvm.dbg.declare(metadata i32* %level.addr, metadata !12223, metadata !DIExpression()), !dbg !12224
  store i32 %dof_number, i32* %dof_number.addr, align 4
  call void @llvm.dbg.declare(metadata i32* %dof_number.addr, metadata !12225, metadata !DIExpression()), !dbg !12226
  store i32 %dofs_per_vertex, i32* %dofs_per_vertex.addr, align 4
  call void @llvm.dbg.declare(metadata i32* %dofs_per_vertex.addr, metadata !12227, metadata !DIExpression()), !dbg !12228
  store i32 %index, i32* %index.addr, align 4
  call void @llvm.dbg.declare(metadata i32* %index.addr, metadata !12229, metadata !DIExpression()), !dbg !12230
  %this1 = load %"class.dealii::MGDoFHandler<3, 3>::MGVertexDoFs"*, %"class.dealii::MGDoFHandler<3, 3>::MGVertexDoFs"** %this.addr, align 8
  %0 = load i32, i32* %index.addr, align 4, !dbg !12231
  %indices = getelementptr inbounds %"class.dealii::MGDoFHandler<3, 3>::MGVertexDoFs", %"class.dealii::MGDoFHandler<3, 3>::MGVertexDoFs"* %this1, i32 0, i32 2, !dbg !12232
  %1 = load i32*, i32** %indices, align 8, !dbg !12232
  %2 = load i32, i32* %level.addr, align 4, !dbg !12233
  %coarsest_level = getelementptr inbounds %"class.dealii::MGDoFHandler<3, 3>::MGVertexDoFs", %"class.dealii::MGDoFHandler<3, 3>::MGVertexDoFs"* %this1, i32 0, i32 0, !dbg !12234
  %3 = load i32, i32* %coarsest_level, align 8, !dbg !12234
  %sub = sub i32 %2, %3, !dbg !12235
  %4 = load i32, i32* %dofs_per_vertex.addr, align 4, !dbg !12236
  %mul = mul i32 %sub, %4, !dbg !12237
  %5 = load i32, i32* %dof_number.addr, align 4, !dbg !12238
  %add = add i32 %mul, %5, !dbg !12239
  %idxprom = zext i32 %add to i64, !dbg !12232
  %arrayidx = getelementptr inbounds i32, i32* %1, i64 %idxprom, !dbg !12232
  store i32 %0, i32* %arrayidx, align 4, !dbg !12240
  ret void, !dbg !12241
}

; Function Attrs: noinline uwtable
define weak_odr dso_local void @_ZNK6dealii13MGDoFAccessorILi1ELi3ELi3EE16set_mg_dof_indexEijj(%"class.dealii::MGDoFAccessor"* %this, i32 %level, i32 %i, i32 %index) #0 comdat align 2 !dbg !12242 {
entry:
  %this.addr = alloca %"class.dealii::MGDoFAccessor"*, align 8
  %level.addr = alloca i32, align 4
  %i.addr = alloca i32, align 4
  %index.addr = alloca i32, align 4
  store %"class.dealii::MGDoFAccessor"* %this, %"class.dealii::MGDoFAccessor"** %this.addr, align 8
  call void @llvm.dbg.declare(metadata %"class.dealii::MGDoFAccessor"** %this.addr, metadata !12243, metadata !DIExpression()), !dbg !12244
  store i32 %level, i32* %level.addr, align 4
  call void @llvm.dbg.declare(metadata i32* %level.addr, metadata !12245, metadata !DIExpression()), !dbg !12246
  store i32 %i, i32* %i.addr, align 4
  call void @llvm.dbg.declare(metadata i32* %i.addr, metadata !12247, metadata !DIExpression()), !dbg !12248
  store i32 %index, i32* %index.addr, align 4
  call void @llvm.dbg.declare(metadata i32* %index.addr, metadata !12249, metadata !DIExpression()), !dbg !12250
  %this1 = load %"class.dealii::MGDoFAccessor"*, %"class.dealii::MGDoFAccessor"** %this.addr, align 8
  %mg_dof_handler = getelementptr inbounds %"class.dealii::MGDoFAccessor", %"class.dealii::MGDoFAccessor"* %this1, i32 0, i32 1, !dbg !12251
  %0 = load %"class.dealii::MGDoFHandler"*, %"class.dealii::MGDoFHandler"** %mg_dof_handler, align 8, !dbg !12251
  %1 = load i32, i32* %level.addr, align 4, !dbg !12252
  %2 = bitcast %"class.dealii::MGDoFAccessor"* %this1 to %"class.dealii::TriaAccessorBase"*, !dbg !12253
  %present_index = getelementptr inbounds %"class.dealii::TriaAccessorBase", %"class.dealii::TriaAccessorBase"* %2, i32 0, i32 0, !dbg !12253
  %3 = load i32, i32* %present_index, align 8, !dbg !12253
  %4 = load i32, i32* %i.addr, align 4, !dbg !12254
  %5 = load i32, i32* %index.addr, align 4, !dbg !12255
  call void @_ZNK6dealii12MGDoFHandlerILi3ELi3EE13set_dof_indexILi1EEEvjjjjj(%"class.dealii::MGDoFHandler"* %0, i32 %1, i32 %3, i32 0, i32 %4, i32 %5), !dbg !12256
  ret void, !dbg !12257
}

declare dso_local void @_ZNK6dealii12MGDoFHandlerILi3ELi3EE13set_dof_indexILi1EEEvjjjjj(%"class.dealii::MGDoFHandler"*, i32, i32, i32, i32, i32) #2

; Function Attrs: noinline uwtable
define weak_odr dso_local dereferenceable(32) %"class.dealii::MGDoFAccessor"* @_ZN6dealii13MGDoFAccessorILi1ELi3ELi3EEaSERKS1_(%"class.dealii::MGDoFAccessor"* %this, %"class.dealii::MGDoFAccessor"* dereferenceable(32) %da) #0 comdat align 2 !dbg !12258 {
entry:
  %this.addr = alloca %"class.dealii::MGDoFAccessor"*, align 8
  %da.addr = alloca %"class.dealii::MGDoFAccessor"*, align 8
  store %"class.dealii::MGDoFAccessor"* %this, %"class.dealii::MGDoFAccessor"** %this.addr, align 8
  call void @llvm.dbg.declare(metadata %"class.dealii::MGDoFAccessor"** %this.addr, metadata !12259, metadata !DIExpression()), !dbg !12260
  store %"class.dealii::MGDoFAccessor"* %da, %"class.dealii::MGDoFAccessor"** %da.addr, align 8
  call void @llvm.dbg.declare(metadata %"class.dealii::MGDoFAccessor"** %da.addr, metadata !12261, metadata !DIExpression()), !dbg !12262
  %this1 = load %"class.dealii::MGDoFAccessor"*, %"class.dealii::MGDoFAccessor"** %this.addr, align 8
  %0 = bitcast %"class.dealii::MGDoFAccessor"* %this1 to %"class.dealii::DoFAccessor"*, !dbg !12263
  %1 = bitcast %"class.dealii::MGDoFAccessor"* %this1 to %"class.dealii::DoFAccessor"*, !dbg !12264
  %call = call dereferenceable(24) %"class.dealii::DoFAccessor"* @_ZN6dealii11DoFAccessorILi1ENS_10DoFHandlerILi3ELi3EEEEaSERKS3_(%"class.dealii::DoFAccessor"* %0, %"class.dealii::DoFAccessor"* dereferenceable(24) %1), !dbg !12263
  %2 = bitcast %"class.dealii::MGDoFAccessor"* %this1 to %"class.dealii::DoFAccessor"*, !dbg !12265
  %3 = load %"class.dealii::MGDoFAccessor"*, %"class.dealii::MGDoFAccessor"** %da.addr, align 8, !dbg !12266
  %mg_dof_handler = getelementptr inbounds %"class.dealii::MGDoFAccessor", %"class.dealii::MGDoFAccessor"* %3, i32 0, i32 1, !dbg !12267
  %4 = load %"class.dealii::MGDoFHandler"*, %"class.dealii::MGDoFHandler"** %mg_dof_handler, align 8, !dbg !12267
  %5 = bitcast %"class.dealii::MGDoFHandler"* %4 to %"class.dealii::DoFHandler"*, !dbg !12266
  call void @_ZN6dealii11DoFAccessorILi1ENS_10DoFHandlerILi3ELi3EEEE15set_dof_handlerEPS2_(%"class.dealii::DoFAccessor"* %2, %"class.dealii::DoFHandler"* %5), !dbg !12265
  ret %"class.dealii::MGDoFAccessor"* %this1, !dbg !12268
}

; Function Attrs: noinline uwtable
define linkonce_odr dso_local dereferenceable(24) %"class.dealii::DoFAccessor"* @_ZN6dealii11DoFAccessorILi1ENS_10DoFHandlerILi3ELi3EEEEaSERKS3_(%"class.dealii::DoFAccessor"* %this, %"class.dealii::DoFAccessor"* dereferenceable(24) %da) #0 comdat align 2 !dbg !12269 {
entry:
  %this.addr = alloca %"class.dealii::DoFAccessor"*, align 8
  %da.addr = alloca %"class.dealii::DoFAccessor"*, align 8
  store %"class.dealii::DoFAccessor"* %this, %"class.dealii::DoFAccessor"** %this.addr, align 8
  call void @llvm.dbg.declare(metadata %"class.dealii::DoFAccessor"** %this.addr, metadata !12270, metadata !DIExpression()), !dbg !12271
  store %"class.dealii::DoFAccessor"* %da, %"class.dealii::DoFAccessor"** %da.addr, align 8
  call void @llvm.dbg.declare(metadata %"class.dealii::DoFAccessor"** %da.addr, metadata !12272, metadata !DIExpression()), !dbg !12273
  %this1 = load %"class.dealii::DoFAccessor"*, %"class.dealii::DoFAccessor"** %this.addr, align 8
  %0 = load %"class.dealii::DoFAccessor"*, %"class.dealii::DoFAccessor"** %da.addr, align 8, !dbg !12274
  %dof_handler = getelementptr inbounds %"class.dealii::DoFAccessor", %"class.dealii::DoFAccessor"* %0, i32 0, i32 1, !dbg !12275
  %1 = load %"class.dealii::DoFHandler"*, %"class.dealii::DoFHandler"** %dof_handler, align 8, !dbg !12275
  call void @_ZN6dealii11DoFAccessorILi1ENS_10DoFHandlerILi3ELi3EEEE15set_dof_handlerEPS2_(%"class.dealii::DoFAccessor"* %this1, %"class.dealii::DoFHandler"* %1), !dbg !12276
  ret %"class.dealii::DoFAccessor"* %this1, !dbg !12277
}

; Function Attrs: noinline nounwind uwtable
define linkonce_odr dso_local void @_ZN6dealii11DoFAccessorILi1ENS_10DoFHandlerILi3ELi3EEEE15set_dof_handlerEPS2_(%"class.dealii::DoFAccessor"* %this, %"class.dealii::DoFHandler"* %dh) #1 comdat align 2 !dbg !12278 {
entry:
  %this.addr = alloca %"class.dealii::DoFAccessor"*, align 8
  %dh.addr = alloca %"class.dealii::DoFHandler"*, align 8
  store %"class.dealii::DoFAccessor"* %this, %"class.dealii::DoFAccessor"** %this.addr, align 8
  call void @llvm.dbg.declare(metadata %"class.dealii::DoFAccessor"** %this.addr, metadata !12279, metadata !DIExpression()), !dbg !12280
  store %"class.dealii::DoFHandler"* %dh, %"class.dealii::DoFHandler"** %dh.addr, align 8
  call void @llvm.dbg.declare(metadata %"class.dealii::DoFHandler"** %dh.addr, metadata !12281, metadata !DIExpression()), !dbg !12282
  %this1 = load %"class.dealii::DoFAccessor"*, %"class.dealii::DoFAccessor"** %this.addr, align 8
  %0 = load %"class.dealii::DoFHandler"*, %"class.dealii::DoFHandler"** %dh.addr, align 8, !dbg !12283
  %dof_handler = getelementptr inbounds %"class.dealii::DoFAccessor", %"class.dealii::DoFAccessor"* %this1, i32 0, i32 1, !dbg !12284
  store %"class.dealii::DoFHandler"* %0, %"class.dealii::DoFHandler"** %dof_handler, align 8, !dbg !12285
  ret void, !dbg !12286
}

; Function Attrs: noinline uwtable
define weak_odr dso_local void @_ZN6dealii13MGDoFAccessorILi2ELi3ELi3EEC2Ev(%"class.dealii::MGDoFAccessor.36"* %this) unnamed_addr #0 comdat($_ZN6dealii13MGDoFAccessorILi2ELi3ELi3EEC5Ev) align 2 !dbg !12287 {
entry:
  %this.addr = alloca %"class.dealii::MGDoFAccessor.36"*, align 8
  store %"class.dealii::MGDoFAccessor.36"* %this, %"class.dealii::MGDoFAccessor.36"** %this.addr, align 8
  call void @llvm.dbg.declare(metadata %"class.dealii::MGDoFAccessor.36"** %this.addr, metadata !12288, metadata !DIExpression()), !dbg !12289
  %this1 = load %"class.dealii::MGDoFAccessor.36"*, %"class.dealii::MGDoFAccessor.36"** %this.addr, align 8
  %0 = bitcast %"class.dealii::MGDoFAccessor.36"* %this1 to %"class.dealii::DoFAccessor.37"*, !dbg !12290
  call void @_ZN6dealii11DoFAccessorILi2ENS_10DoFHandlerILi3ELi3EEEEC2EPKNS_13TriangulationILi3ELi3EEEiiPKS2_(%"class.dealii::DoFAccessor.37"* %0, %"class.dealii::Triangulation"* null, i32 -1, i32 -1, %"class.dealii::DoFHandler"* null), !dbg !12291
  ret void, !dbg !12292
}

; Function Attrs: noinline uwtable
define linkonce_odr dso_local void @_ZN6dealii11DoFAccessorILi2ENS_10DoFHandlerILi3ELi3EEEEC2EPKNS_13TriangulationILi3ELi3EEEiiPKS2_(%"class.dealii::DoFAccessor.37"* %this, %"class.dealii::Triangulation"* %tria, i32 %level, i32 %index, %"class.dealii::DoFHandler"* %dof_handler) unnamed_addr #0 comdat align 2 !dbg !12293 {
entry:
  %this.addr = alloca %"class.dealii::DoFAccessor.37"*, align 8
  %tria.addr = alloca %"class.dealii::Triangulation"*, align 8
  %level.addr = alloca i32, align 4
  %index.addr = alloca i32, align 4
  %dof_handler.addr = alloca %"class.dealii::DoFHandler"*, align 8
  store %"class.dealii::DoFAccessor.37"* %this, %"class.dealii::DoFAccessor.37"** %this.addr, align 8
  call void @llvm.dbg.declare(metadata %"class.dealii::DoFAccessor.37"** %this.addr, metadata !12294, metadata !DIExpression()), !dbg !12296
  store %"class.dealii::Triangulation"* %tria, %"class.dealii::Triangulation"** %tria.addr, align 8
  call void @llvm.dbg.declare(metadata %"class.dealii::Triangulation"** %tria.addr, metadata !12297, metadata !DIExpression()), !dbg !12298
  store i32 %level, i32* %level.addr, align 4
  call void @llvm.dbg.declare(metadata i32* %level.addr, metadata !12299, metadata !DIExpression()), !dbg !12300
  store i32 %index, i32* %index.addr, align 4
  call void @llvm.dbg.declare(metadata i32* %index.addr, metadata !12301, metadata !DIExpression()), !dbg !12302
  store %"class.dealii::DoFHandler"* %dof_handler, %"class.dealii::DoFHandler"** %dof_handler.addr, align 8
  call void @llvm.dbg.declare(metadata %"class.dealii::DoFHandler"** %dof_handler.addr, metadata !12303, metadata !DIExpression()), !dbg !12304
  %this1 = load %"class.dealii::DoFAccessor.37"*, %"class.dealii::DoFAccessor.37"** %this.addr, align 8
  %0 = bitcast %"class.dealii::DoFAccessor.37"* %this1 to %"class.dealii::TriaAccessor.38"*, !dbg !12305
  %1 = load %"class.dealii::Triangulation"*, %"class.dealii::Triangulation"** %tria.addr, align 8, !dbg !12306
  %2 = load i32, i32* %level.addr, align 4, !dbg !12307
  %3 = load i32, i32* %index.addr, align 4, !dbg !12308
  call void @_ZN6dealii12TriaAccessorILi2ELi3ELi3EEC2EPKNS_13TriangulationILi3ELi3EEEiiPKv(%"class.dealii::TriaAccessor.38"* %0, %"class.dealii::Triangulation"* %1, i32 %2, i32 %3, i8* null), !dbg !12309
  %dof_handler2 = getelementptr inbounds %"class.dealii::DoFAccessor.37", %"class.dealii::DoFAccessor.37"* %this1, i32 0, i32 1, !dbg !12310
  %4 = load %"class.dealii::DoFHandler"*, %"class.dealii::DoFHandler"** %dof_handler.addr, align 8, !dbg !12311
  store %"class.dealii::DoFHandler"* %4, %"class.dealii::DoFHandler"** %dof_handler2, align 8, !dbg !12310
  ret void, !dbg !12312
}

; Function Attrs: noinline uwtable
define weak_odr dso_local void @_ZN6dealii13MGDoFAccessorILi2ELi3ELi3EEC2EPKNS_13TriangulationILi3ELi3EEEiiPKNS_12MGDoFHandlerILi3ELi3EEE(%"class.dealii::MGDoFAccessor.36"* %this, %"class.dealii::Triangulation"* %tria, i32 %level, i32 %index, %"class.dealii::MGDoFHandler"* %local_data) unnamed_addr #0 comdat($_ZN6dealii13MGDoFAccessorILi2ELi3ELi3EEC5EPKNS_13TriangulationILi3ELi3EEEiiPKNS_12MGDoFHandlerILi3ELi3EEE) align 2 !dbg !12313 {
entry:
  %this.addr = alloca %"class.dealii::MGDoFAccessor.36"*, align 8
  %tria.addr = alloca %"class.dealii::Triangulation"*, align 8
  %level.addr = alloca i32, align 4
  %index.addr = alloca i32, align 4
  %local_data.addr = alloca %"class.dealii::MGDoFHandler"*, align 8
  store %"class.dealii::MGDoFAccessor.36"* %this, %"class.dealii::MGDoFAccessor.36"** %this.addr, align 8
  call void @llvm.dbg.declare(metadata %"class.dealii::MGDoFAccessor.36"** %this.addr, metadata !12314, metadata !DIExpression()), !dbg !12315
  store %"class.dealii::Triangulation"* %tria, %"class.dealii::Triangulation"** %tria.addr, align 8
  call void @llvm.dbg.declare(metadata %"class.dealii::Triangulation"** %tria.addr, metadata !12316, metadata !DIExpression()), !dbg !12317
  store i32 %level, i32* %level.addr, align 4
  call void @llvm.dbg.declare(metadata i32* %level.addr, metadata !12318, metadata !DIExpression()), !dbg !12319
  store i32 %index, i32* %index.addr, align 4
  call void @llvm.dbg.declare(metadata i32* %index.addr, metadata !12320, metadata !DIExpression()), !dbg !12321
  store %"class.dealii::MGDoFHandler"* %local_data, %"class.dealii::MGDoFHandler"** %local_data.addr, align 8
  call void @llvm.dbg.declare(metadata %"class.dealii::MGDoFHandler"** %local_data.addr, metadata !12322, metadata !DIExpression()), !dbg !12323
  %this1 = load %"class.dealii::MGDoFAccessor.36"*, %"class.dealii::MGDoFAccessor.36"** %this.addr, align 8
  %0 = bitcast %"class.dealii::MGDoFAccessor.36"* %this1 to %"class.dealii::DoFAccessor.37"*, !dbg !12324
  %1 = load %"class.dealii::Triangulation"*, %"class.dealii::Triangulation"** %tria.addr, align 8, !dbg !12325
  %2 = load i32, i32* %level.addr, align 4, !dbg !12326
  %3 = load i32, i32* %index.addr, align 4, !dbg !12327
  %4 = load %"class.dealii::MGDoFHandler"*, %"class.dealii::MGDoFHandler"** %local_data.addr, align 8, !dbg !12328
  %5 = bitcast %"class.dealii::MGDoFHandler"* %4 to %"class.dealii::DoFHandler"*, !dbg !12328
  call void @_ZN6dealii11DoFAccessorILi2ENS_10DoFHandlerILi3ELi3EEEEC2EPKNS_13TriangulationILi3ELi3EEEiiPKS2_(%"class.dealii::DoFAccessor.37"* %0, %"class.dealii::Triangulation"* %1, i32 %2, i32 %3, %"class.dealii::DoFHandler"* %5), !dbg !12329
  %mg_dof_handler = getelementptr inbounds %"class.dealii::MGDoFAccessor.36", %"class.dealii::MGDoFAccessor.36"* %this1, i32 0, i32 1, !dbg !12330
  %6 = load %"class.dealii::MGDoFHandler"*, %"class.dealii::MGDoFHandler"** %local_data.addr, align 8, !dbg !12331
  store %"class.dealii::MGDoFHandler"* %6, %"class.dealii::MGDoFHandler"** %mg_dof_handler, align 8, !dbg !12330
  ret void, !dbg !12332
}

; Function Attrs: noinline uwtable
define weak_odr dso_local void @_ZNK6dealii13MGDoFAccessorILi2ELi3ELi3EE18get_mg_dof_indicesEiRSt6vectorIjSaIjEE(%"class.dealii::MGDoFAccessor.36"* %this, i32 %level, %"class.std::vector.21"* dereferenceable(24) %dof_indices) #0 comdat align 2 !dbg !12333 {
entry:
  %this.addr = alloca %"class.dealii::MGDoFAccessor.36"*, align 8
  %level.addr = alloca i32, align 4
  %dof_indices.addr = alloca %"class.std::vector.21"*, align 8
  store %"class.dealii::MGDoFAccessor.36"* %this, %"class.dealii::MGDoFAccessor.36"** %this.addr, align 8
  call void @llvm.dbg.declare(metadata %"class.dealii::MGDoFAccessor.36"** %this.addr, metadata !12334, metadata !DIExpression()), !dbg !12335
  store i32 %level, i32* %level.addr, align 4
  call void @llvm.dbg.declare(metadata i32* %level.addr, metadata !12336, metadata !DIExpression()), !dbg !12337
  store %"class.std::vector.21"* %dof_indices, %"class.std::vector.21"** %dof_indices.addr, align 8
  call void @llvm.dbg.declare(metadata %"class.std::vector.21"** %dof_indices.addr, metadata !12338, metadata !DIExpression()), !dbg !12339
  %this1 = load %"class.dealii::MGDoFAccessor.36"*, %"class.dealii::MGDoFAccessor.36"** %this.addr, align 8
  %0 = load i32, i32* %level.addr, align 4, !dbg !12340
  %1 = load %"class.std::vector.21"*, %"class.std::vector.21"** %dof_indices.addr, align 8, !dbg !12341
  call void @_ZN6dealii8internal13MGDoFAccessor18get_mg_dof_indicesILi3ELi3EEEvRKNS_13MGDoFAccessorILi2EXT_EXT0_EEEiRSt6vectorIjSaIjEE(%"class.dealii::MGDoFAccessor.36"* dereferenceable(32) %this1, i32 %0, %"class.std::vector.21"* dereferenceable(24) %1), !dbg !12342
  ret void, !dbg !12343
}

; Function Attrs: noinline uwtable
define linkonce_odr dso_local void @_ZN6dealii8internal13MGDoFAccessor18get_mg_dof_indicesILi3ELi3EEEvRKNS_13MGDoFAccessorILi2EXT_EXT0_EEEiRSt6vectorIjSaIjEE(%"class.dealii::MGDoFAccessor.36"* dereferenceable(32) %accessor, i32 %level, %"class.std::vector.21"* dereferenceable(24) %dof_indices) #0 comdat !dbg !12344 {
entry:
  %accessor.addr = alloca %"class.dealii::MGDoFAccessor.36"*, align 8
  %level.addr = alloca i32, align 4
  %dof_indices.addr = alloca %"class.std::vector.21"*, align 8
  %dofs_per_vertex = alloca i32, align 4
  %dofs_per_line = alloca i32, align 4
  %dofs_per_quad = alloca i32, align 4
  %next = alloca %"class.__gnu_cxx::__normal_iterator", align 8
  %vertex = alloca i32, align 4
  %d = alloca i32, align 4
  %ref.tmp = alloca %"class.__gnu_cxx::__normal_iterator", align 8
  %line = alloca i32, align 4
  %d25 = alloca i32, align 4
  %ref.tmp29 = alloca %"class.dealii::TriaIterator", align 8
  %ref.tmp32 = alloca %"class.__gnu_cxx::__normal_iterator", align 8
  %d42 = alloca i32, align 4
  %ref.tmp47 = alloca %"class.__gnu_cxx::__normal_iterator", align 8
  store %"class.dealii::MGDoFAccessor.36"* %accessor, %"class.dealii::MGDoFAccessor.36"** %accessor.addr, align 8
  call void @llvm.dbg.declare(metadata %"class.dealii::MGDoFAccessor.36"** %accessor.addr, metadata !12347, metadata !DIExpression()), !dbg !12348
  store i32 %level, i32* %level.addr, align 4
  call void @llvm.dbg.declare(metadata i32* %level.addr, metadata !12349, metadata !DIExpression()), !dbg !12350
  store %"class.std::vector.21"* %dof_indices, %"class.std::vector.21"** %dof_indices.addr, align 8
  call void @llvm.dbg.declare(metadata %"class.std::vector.21"** %dof_indices.addr, metadata !12351, metadata !DIExpression()), !dbg !12352
  call void @llvm.dbg.declare(metadata i32* %dofs_per_vertex, metadata !12353, metadata !DIExpression()), !dbg !12354
  %0 = load %"class.dealii::MGDoFAccessor.36"*, %"class.dealii::MGDoFAccessor.36"** %accessor.addr, align 8, !dbg !12355
  %1 = bitcast %"class.dealii::MGDoFAccessor.36"* %0 to %"class.dealii::DoFAccessor.37"*, !dbg !12355
  %call = call dereferenceable(168) %"class.dealii::DoFHandler"* @_ZNK6dealii11DoFAccessorILi2ENS_10DoFHandlerILi3ELi3EEEE15get_dof_handlerEv(%"class.dealii::DoFAccessor.37"* %1), !dbg !12356
  %call1 = call dereferenceable(728) %"class.dealii::FiniteElement"* @_ZNK6dealii10DoFHandlerILi3ELi3EE6get_feEv(%"class.dealii::DoFHandler"* %call), !dbg !12357
  %2 = bitcast %"class.dealii::FiniteElement"* %call1 to i8*, !dbg !12355
  %add.ptr = getelementptr inbounds i8, i8* %2, i64 72, !dbg !12355
  %3 = bitcast i8* %add.ptr to %"class.dealii::FiniteElementData"*, !dbg !12355
  %dofs_per_vertex2 = getelementptr inbounds %"class.dealii::FiniteElementData", %"class.dealii::FiniteElementData"* %3, i32 0, i32 0, !dbg !12358
  %4 = load i32, i32* %dofs_per_vertex2, align 8, !dbg !12358
  store i32 %4, i32* %dofs_per_vertex, align 4, !dbg !12354
  call void @llvm.dbg.declare(metadata i32* %dofs_per_line, metadata !12359, metadata !DIExpression()), !dbg !12360
  %5 = load %"class.dealii::MGDoFAccessor.36"*, %"class.dealii::MGDoFAccessor.36"** %accessor.addr, align 8, !dbg !12361
  %6 = bitcast %"class.dealii::MGDoFAccessor.36"* %5 to %"class.dealii::DoFAccessor.37"*, !dbg !12361
  %call3 = call dereferenceable(168) %"class.dealii::DoFHandler"* @_ZNK6dealii11DoFAccessorILi2ENS_10DoFHandlerILi3ELi3EEEE15get_dof_handlerEv(%"class.dealii::DoFAccessor.37"* %6), !dbg !12362
  %call4 = call dereferenceable(728) %"class.dealii::FiniteElement"* @_ZNK6dealii10DoFHandlerILi3ELi3EE6get_feEv(%"class.dealii::DoFHandler"* %call3), !dbg !12363
  %7 = bitcast %"class.dealii::FiniteElement"* %call4 to i8*, !dbg !12361
  %add.ptr5 = getelementptr inbounds i8, i8* %7, i64 72, !dbg !12361
  %8 = bitcast i8* %add.ptr5 to %"class.dealii::FiniteElementData"*, !dbg !12361
  %dofs_per_line6 = getelementptr inbounds %"class.dealii::FiniteElementData", %"class.dealii::FiniteElementData"* %8, i32 0, i32 1, !dbg !12364
  %9 = load i32, i32* %dofs_per_line6, align 4, !dbg !12364
  store i32 %9, i32* %dofs_per_line, align 4, !dbg !12360
  call void @llvm.dbg.declare(metadata i32* %dofs_per_quad, metadata !12365, metadata !DIExpression()), !dbg !12366
  %10 = load %"class.dealii::MGDoFAccessor.36"*, %"class.dealii::MGDoFAccessor.36"** %accessor.addr, align 8, !dbg !12367
  %11 = bitcast %"class.dealii::MGDoFAccessor.36"* %10 to %"class.dealii::DoFAccessor.37"*, !dbg !12367
  %call7 = call dereferenceable(168) %"class.dealii::DoFHandler"* @_ZNK6dealii11DoFAccessorILi2ENS_10DoFHandlerILi3ELi3EEEE15get_dof_handlerEv(%"class.dealii::DoFAccessor.37"* %11), !dbg !12368
  %call8 = call dereferenceable(728) %"class.dealii::FiniteElement"* @_ZNK6dealii10DoFHandlerILi3ELi3EE6get_feEv(%"class.dealii::DoFHandler"* %call7), !dbg !12369
  %12 = bitcast %"class.dealii::FiniteElement"* %call8 to i8*, !dbg !12367
  %add.ptr9 = getelementptr inbounds i8, i8* %12, i64 72, !dbg !12367
  %13 = bitcast i8* %add.ptr9 to %"class.dealii::FiniteElementData"*, !dbg !12367
  %dofs_per_quad10 = getelementptr inbounds %"class.dealii::FiniteElementData", %"class.dealii::FiniteElementData"* %13, i32 0, i32 2, !dbg !12370
  %14 = load i32, i32* %dofs_per_quad10, align 8, !dbg !12370
  store i32 %14, i32* %dofs_per_quad, align 4, !dbg !12366
  call void @llvm.dbg.declare(metadata %"class.__gnu_cxx::__normal_iterator"* %next, metadata !12371, metadata !DIExpression()), !dbg !12372
  %15 = load %"class.std::vector.21"*, %"class.std::vector.21"** %dof_indices.addr, align 8, !dbg !12373
  %call11 = call i32* @_ZNSt6vectorIjSaIjEE5beginEv(%"class.std::vector.21"* %15) #4, !dbg !12374
  %coerce.dive = getelementptr inbounds %"class.__gnu_cxx::__normal_iterator", %"class.__gnu_cxx::__normal_iterator"* %next, i32 0, i32 0, !dbg !12374
  store i32* %call11, i32** %coerce.dive, align 8, !dbg !12374
  call void @llvm.dbg.declare(metadata i32* %vertex, metadata !12375, metadata !DIExpression()), !dbg !12377
  store i32 0, i32* %vertex, align 4, !dbg !12377
  br label %for.cond, !dbg !12378

for.cond:                                         ; preds = %for.inc19, %entry
  %16 = load i32, i32* %vertex, align 4, !dbg !12379
  %cmp = icmp ult i32 %16, 4, !dbg !12381
  br i1 %cmp, label %for.body, label %for.end21, !dbg !12382

for.body:                                         ; preds = %for.cond
  call void @llvm.dbg.declare(metadata i32* %d, metadata !12383, metadata !DIExpression()), !dbg !12385
  store i32 0, i32* %d, align 4, !dbg !12385
  br label %for.cond12, !dbg !12386

for.cond12:                                       ; preds = %for.inc, %for.body
  %17 = load i32, i32* %d, align 4, !dbg !12387
  %18 = load i32, i32* %dofs_per_vertex, align 4, !dbg !12389
  %cmp13 = icmp ult i32 %17, %18, !dbg !12390
  br i1 %cmp13, label %for.body14, label %for.end, !dbg !12391

for.body14:                                       ; preds = %for.cond12
  %19 = load %"class.dealii::MGDoFAccessor.36"*, %"class.dealii::MGDoFAccessor.36"** %accessor.addr, align 8, !dbg !12392
  %20 = load i32, i32* %level.addr, align 4, !dbg !12393
  %21 = load i32, i32* %vertex, align 4, !dbg !12394
  %22 = load i32, i32* %d, align 4, !dbg !12395
  %call15 = call i32 @_ZNK6dealii13MGDoFAccessorILi2ELi3ELi3EE19mg_vertex_dof_indexEijj(%"class.dealii::MGDoFAccessor.36"* %19, i32 %20, i32 %21, i32 %22), !dbg !12396
  %call16 = call i32* @_ZN9__gnu_cxx17__normal_iteratorIPjSt6vectorIjSaIjEEEppEi(%"class.__gnu_cxx::__normal_iterator"* %next, i32 0) #4, !dbg !12397
  %coerce.dive17 = getelementptr inbounds %"class.__gnu_cxx::__normal_iterator", %"class.__gnu_cxx::__normal_iterator"* %ref.tmp, i32 0, i32 0, !dbg !12397
  store i32* %call16, i32** %coerce.dive17, align 8, !dbg !12397
  %call18 = call dereferenceable(4) i32* @_ZNK9__gnu_cxx17__normal_iteratorIPjSt6vectorIjSaIjEEEdeEv(%"class.__gnu_cxx::__normal_iterator"* %ref.tmp) #4, !dbg !12398
  store i32 %call15, i32* %call18, align 4, !dbg !12399
  br label %for.inc, !dbg !12398

for.inc:                                          ; preds = %for.body14
  %23 = load i32, i32* %d, align 4, !dbg !12400
  %inc = add i32 %23, 1, !dbg !12400
  store i32 %inc, i32* %d, align 4, !dbg !12400
  br label %for.cond12, !dbg !12401, !llvm.loop !12402

for.end:                                          ; preds = %for.cond12
  br label %for.inc19, !dbg !12403

for.inc19:                                        ; preds = %for.end
  %24 = load i32, i32* %vertex, align 4, !dbg !12404
  %inc20 = add i32 %24, 1, !dbg !12404
  store i32 %inc20, i32* %vertex, align 4, !dbg !12404
  br label %for.cond, !dbg !12405, !llvm.loop !12406

for.end21:                                        ; preds = %for.cond
  call void @llvm.dbg.declare(metadata i32* %line, metadata !12408, metadata !DIExpression()), !dbg !12410
  store i32 0, i32* %line, align 4, !dbg !12410
  br label %for.cond22, !dbg !12411

for.cond22:                                       ; preds = %for.inc39, %for.end21
  %25 = load i32, i32* %line, align 4, !dbg !12412
  %cmp23 = icmp ult i32 %25, 4, !dbg !12414
  br i1 %cmp23, label %for.body24, label %for.end41, !dbg !12415

for.body24:                                       ; preds = %for.cond22
  call void @llvm.dbg.declare(metadata i32* %d25, metadata !12416, metadata !DIExpression()), !dbg !12418
  store i32 0, i32* %d25, align 4, !dbg !12418
  br label %for.cond26, !dbg !12419

for.cond26:                                       ; preds = %for.inc36, %for.body24
  %26 = load i32, i32* %d25, align 4, !dbg !12420
  %27 = load i32, i32* %dofs_per_line, align 4, !dbg !12422
  %cmp27 = icmp ult i32 %26, %27, !dbg !12423
  br i1 %cmp27, label %for.body28, label %for.end38, !dbg !12424

for.body28:                                       ; preds = %for.cond26
  %28 = load %"class.dealii::MGDoFAccessor.36"*, %"class.dealii::MGDoFAccessor.36"** %accessor.addr, align 8, !dbg !12425
  %29 = load i32, i32* %line, align 4, !dbg !12426
  call void @_ZNK6dealii13MGDoFAccessorILi2ELi3ELi3EE4lineEj(%"class.dealii::TriaIterator"* sret %ref.tmp29, %"class.dealii::MGDoFAccessor.36"* %28, i32 %29), !dbg !12427
  %30 = bitcast %"class.dealii::TriaIterator"* %ref.tmp29 to %"class.dealii::TriaRawIterator"*, !dbg !12425
  %call30 = call %"class.dealii::MGDoFAccessor"* @_ZN6dealii15TriaRawIteratorINS_13MGDoFAccessorILi1ELi3ELi3EEEEptEv(%"class.dealii::TriaRawIterator"* %30), !dbg !12425
  %31 = load i32, i32* %level.addr, align 4, !dbg !12428
  %32 = load i32, i32* %d25, align 4, !dbg !12429
  %call31 = call i32 @_ZNK6dealii13MGDoFAccessorILi1ELi3ELi3EE12mg_dof_indexEij(%"class.dealii::MGDoFAccessor"* %call30, i32 %31, i32 %32), !dbg !12430
  %call33 = call i32* @_ZN9__gnu_cxx17__normal_iteratorIPjSt6vectorIjSaIjEEEppEi(%"class.__gnu_cxx::__normal_iterator"* %next, i32 0) #4, !dbg !12431
  %coerce.dive34 = getelementptr inbounds %"class.__gnu_cxx::__normal_iterator", %"class.__gnu_cxx::__normal_iterator"* %ref.tmp32, i32 0, i32 0, !dbg !12431
  store i32* %call33, i32** %coerce.dive34, align 8, !dbg !12431
  %call35 = call dereferenceable(4) i32* @_ZNK9__gnu_cxx17__normal_iteratorIPjSt6vectorIjSaIjEEEdeEv(%"class.__gnu_cxx::__normal_iterator"* %ref.tmp32) #4, !dbg !12432
  store i32 %call31, i32* %call35, align 4, !dbg !12433
  br label %for.inc36, !dbg !12432

for.inc36:                                        ; preds = %for.body28
  %33 = load i32, i32* %d25, align 4, !dbg !12434
  %inc37 = add i32 %33, 1, !dbg !12434
  store i32 %inc37, i32* %d25, align 4, !dbg !12434
  br label %for.cond26, !dbg !12435, !llvm.loop !12436

for.end38:                                        ; preds = %for.cond26
  br label %for.inc39, !dbg !12437

for.inc39:                                        ; preds = %for.end38
  %34 = load i32, i32* %line, align 4, !dbg !12438
  %inc40 = add i32 %34, 1, !dbg !12438
  store i32 %inc40, i32* %line, align 4, !dbg !12438
  br label %for.cond22, !dbg !12439, !llvm.loop !12440

for.end41:                                        ; preds = %for.cond22
  call void @llvm.dbg.declare(metadata i32* %d42, metadata !12442, metadata !DIExpression()), !dbg !12444
  store i32 0, i32* %d42, align 4, !dbg !12444
  br label %for.cond43, !dbg !12445

for.cond43:                                       ; preds = %for.inc51, %for.end41
  %35 = load i32, i32* %d42, align 4, !dbg !12446
  %36 = load i32, i32* %dofs_per_quad, align 4, !dbg !12448
  %cmp44 = icmp ult i32 %35, %36, !dbg !12449
  br i1 %cmp44, label %for.body45, label %for.end53, !dbg !12450

for.body45:                                       ; preds = %for.cond43
  %37 = load %"class.dealii::MGDoFAccessor.36"*, %"class.dealii::MGDoFAccessor.36"** %accessor.addr, align 8, !dbg !12451
  %38 = load i32, i32* %level.addr, align 4, !dbg !12452
  %39 = load i32, i32* %d42, align 4, !dbg !12453
  %call46 = call i32 @_ZNK6dealii13MGDoFAccessorILi2ELi3ELi3EE12mg_dof_indexEij(%"class.dealii::MGDoFAccessor.36"* %37, i32 %38, i32 %39), !dbg !12454
  %call48 = call i32* @_ZN9__gnu_cxx17__normal_iteratorIPjSt6vectorIjSaIjEEEppEi(%"class.__gnu_cxx::__normal_iterator"* %next, i32 0) #4, !dbg !12455
  %coerce.dive49 = getelementptr inbounds %"class.__gnu_cxx::__normal_iterator", %"class.__gnu_cxx::__normal_iterator"* %ref.tmp47, i32 0, i32 0, !dbg !12455
  store i32* %call48, i32** %coerce.dive49, align 8, !dbg !12455
  %call50 = call dereferenceable(4) i32* @_ZNK9__gnu_cxx17__normal_iteratorIPjSt6vectorIjSaIjEEEdeEv(%"class.__gnu_cxx::__normal_iterator"* %ref.tmp47) #4, !dbg !12456
  store i32 %call46, i32* %call50, align 4, !dbg !12457
  br label %for.inc51, !dbg !12456

for.inc51:                                        ; preds = %for.body45
  %40 = load i32, i32* %d42, align 4, !dbg !12458
  %inc52 = add i32 %40, 1, !dbg !12458
  store i32 %inc52, i32* %d42, align 4, !dbg !12458
  br label %for.cond43, !dbg !12459, !llvm.loop !12460

for.end53:                                        ; preds = %for.cond43
  ret void, !dbg !12462
}

; Function Attrs: noinline uwtable
define weak_odr dso_local i32 @_ZNK6dealii13MGDoFAccessorILi2ELi3ELi3EE19mg_vertex_dof_indexEijj(%"class.dealii::MGDoFAccessor.36"* %this, i32 %level, i32 %vertex, i32 %i) #0 comdat align 2 !dbg !12463 {
entry:
  %this.addr = alloca %"class.dealii::MGDoFAccessor.36"*, align 8
  %level.addr = alloca i32, align 4
  %vertex.addr = alloca i32, align 4
  %i.addr = alloca i32, align 4
  store %"class.dealii::MGDoFAccessor.36"* %this, %"class.dealii::MGDoFAccessor.36"** %this.addr, align 8
  call void @llvm.dbg.declare(metadata %"class.dealii::MGDoFAccessor.36"** %this.addr, metadata !12464, metadata !DIExpression()), !dbg !12465
  store i32 %level, i32* %level.addr, align 4
  call void @llvm.dbg.declare(metadata i32* %level.addr, metadata !12466, metadata !DIExpression()), !dbg !12467
  store i32 %vertex, i32* %vertex.addr, align 4
  call void @llvm.dbg.declare(metadata i32* %vertex.addr, metadata !12468, metadata !DIExpression()), !dbg !12469
  store i32 %i, i32* %i.addr, align 4
  call void @llvm.dbg.declare(metadata i32* %i.addr, metadata !12470, metadata !DIExpression()), !dbg !12471
  %this1 = load %"class.dealii::MGDoFAccessor.36"*, %"class.dealii::MGDoFAccessor.36"** %this.addr, align 8
  %mg_dof_handler = getelementptr inbounds %"class.dealii::MGDoFAccessor.36", %"class.dealii::MGDoFAccessor.36"* %this1, i32 0, i32 1, !dbg !12472
  %0 = load %"class.dealii::MGDoFHandler"*, %"class.dealii::MGDoFHandler"** %mg_dof_handler, align 8, !dbg !12472
  %mg_vertex_dofs = getelementptr inbounds %"class.dealii::MGDoFHandler", %"class.dealii::MGDoFHandler"* %0, i32 0, i32 3, !dbg !12473
  %1 = bitcast %"class.dealii::MGDoFAccessor.36"* %this1 to %"class.dealii::TriaAccessor.38"*, !dbg !12474
  %2 = load i32, i32* %vertex.addr, align 4, !dbg !12475
  %call = call i32 @_ZNK6dealii12TriaAccessorILi2ELi3ELi3EE12vertex_indexEj(%"class.dealii::TriaAccessor.38"* %1, i32 %2), !dbg !12474
  %conv = zext i32 %call to i64, !dbg !12476
  %call2 = call dereferenceable(16) %"class.dealii::MGDoFHandler<3, 3>::MGVertexDoFs"* @_ZNSt6vectorIN6dealii12MGDoFHandlerILi3ELi3EE12MGVertexDoFsESaIS3_EEixEm(%"class.std::vector.28"* %mg_vertex_dofs, i64 %conv) #4, !dbg !12477
  %3 = load i32, i32* %level.addr, align 4, !dbg !12478
  %4 = load i32, i32* %i.addr, align 4, !dbg !12479
  %5 = bitcast %"class.dealii::MGDoFAccessor.36"* %this1 to %"class.dealii::DoFAccessor.37"*, !dbg !12480
  %dof_handler = getelementptr inbounds %"class.dealii::DoFAccessor.37", %"class.dealii::DoFAccessor.37"* %5, i32 0, i32 1, !dbg !12480
  %6 = load %"class.dealii::DoFHandler"*, %"class.dealii::DoFHandler"** %dof_handler, align 8, !dbg !12480
  %call3 = call dereferenceable(728) %"class.dealii::FiniteElement"* @_ZNK6dealii10DoFHandlerILi3ELi3EE6get_feEv(%"class.dealii::DoFHandler"* %6), !dbg !12481
  %7 = bitcast %"class.dealii::FiniteElement"* %call3 to i8*, !dbg !12482
  %add.ptr = getelementptr inbounds i8, i8* %7, i64 72, !dbg !12482
  %8 = bitcast i8* %add.ptr to %"class.dealii::FiniteElementData"*, !dbg !12482
  %dofs_per_vertex = getelementptr inbounds %"class.dealii::FiniteElementData", %"class.dealii::FiniteElementData"* %8, i32 0, i32 0, !dbg !12483
  %9 = load i32, i32* %dofs_per_vertex, align 8, !dbg !12483
  %call4 = call i32 @_ZNK6dealii12MGDoFHandlerILi3ELi3EE12MGVertexDoFs9get_indexEjjj(%"class.dealii::MGDoFHandler<3, 3>::MGVertexDoFs"* %call2, i32 %3, i32 %4, i32 %9), !dbg !12484
  ret i32 %call4, !dbg !12485
}

; Function Attrs: noinline uwtable
define linkonce_odr dso_local i32 @_ZNK6dealii12TriaAccessorILi2ELi3ELi3EE12vertex_indexEj(%"class.dealii::TriaAccessor.38"* %this, i32 %corner) #0 comdat align 2 !dbg !12486 {
entry:
  %this.addr = alloca %"class.dealii::TriaAccessor.38"*, align 8
  %corner.addr = alloca i32, align 4
  store %"class.dealii::TriaAccessor.38"* %this, %"class.dealii::TriaAccessor.38"** %this.addr, align 8
  call void @llvm.dbg.declare(metadata %"class.dealii::TriaAccessor.38"** %this.addr, metadata !12487, metadata !DIExpression()), !dbg !12488
  store i32 %corner, i32* %corner.addr, align 4
  call void @llvm.dbg.declare(metadata i32* %corner.addr, metadata !12489, metadata !DIExpression()), !dbg !12490
  %this1 = load %"class.dealii::TriaAccessor.38"*, %"class.dealii::TriaAccessor.38"** %this.addr, align 8
  %0 = load i32, i32* %corner.addr, align 4, !dbg !12491
  %call = call i32 @_ZN6dealii8internal12TriaAccessor14Implementation12vertex_indexILi3ELi3EEEjRKNS_12TriaAccessorILi2EXT_EXT0_EEEj(%"class.dealii::TriaAccessor.38"* dereferenceable(16) %this1, i32 %0), !dbg !12492
  ret i32 %call, !dbg !12493
}

; Function Attrs: noinline uwtable
define weak_odr dso_local i32 @_ZNK6dealii13MGDoFAccessorILi2ELi3ELi3EE12mg_dof_indexEij(%"class.dealii::MGDoFAccessor.36"* %this, i32 %level, i32 %i) #0 comdat align 2 !dbg !12494 {
entry:
  %this.addr = alloca %"class.dealii::MGDoFAccessor.36"*, align 8
  %level.addr = alloca i32, align 4
  %i.addr = alloca i32, align 4
  store %"class.dealii::MGDoFAccessor.36"* %this, %"class.dealii::MGDoFAccessor.36"** %this.addr, align 8
  call void @llvm.dbg.declare(metadata %"class.dealii::MGDoFAccessor.36"** %this.addr, metadata !12495, metadata !DIExpression()), !dbg !12496
  store i32 %level, i32* %level.addr, align 4
  call void @llvm.dbg.declare(metadata i32* %level.addr, metadata !12497, metadata !DIExpression()), !dbg !12498
  store i32 %i, i32* %i.addr, align 4
  call void @llvm.dbg.declare(metadata i32* %i.addr, metadata !12499, metadata !DIExpression()), !dbg !12500
  %this1 = load %"class.dealii::MGDoFAccessor.36"*, %"class.dealii::MGDoFAccessor.36"** %this.addr, align 8
  %mg_dof_handler = getelementptr inbounds %"class.dealii::MGDoFAccessor.36", %"class.dealii::MGDoFAccessor.36"* %this1, i32 0, i32 1, !dbg !12501
  %0 = load %"class.dealii::MGDoFHandler"*, %"class.dealii::MGDoFHandler"** %mg_dof_handler, align 8, !dbg !12501
  %1 = load i32, i32* %level.addr, align 4, !dbg !12502
  %2 = bitcast %"class.dealii::MGDoFAccessor.36"* %this1 to %"class.dealii::TriaAccessorBase.39"*, !dbg !12503
  %present_index = getelementptr inbounds %"class.dealii::TriaAccessorBase.39", %"class.dealii::TriaAccessorBase.39"* %2, i32 0, i32 0, !dbg !12503
  %3 = load i32, i32* %present_index, align 8, !dbg !12503
  %4 = load i32, i32* %i.addr, align 4, !dbg !12504
  %call = call i32 @_ZNK6dealii12MGDoFHandlerILi3ELi3EE13get_dof_indexILi2EEEjjjjj(%"class.dealii::MGDoFHandler"* %0, i32 %1, i32 %3, i32 0, i32 %4), !dbg !12505
  ret i32 %call, !dbg !12506
}

declare dso_local i32 @_ZNK6dealii12MGDoFHandlerILi3ELi3EE13get_dof_indexILi2EEEjjjjj(%"class.dealii::MGDoFHandler"*, i32, i32, i32, i32) #2

; Function Attrs: noinline uwtable
define weak_odr dso_local void @_ZNK6dealii13MGDoFAccessorILi2ELi3ELi3EE5childEj(%"class.dealii::TriaIterator.169"* noalias sret %agg.result, %"class.dealii::MGDoFAccessor.36"* %this, i32 %i) #0 comdat align 2 !dbg !12507 {
entry:
  %result.ptr = alloca i8*, align 8
  %this.addr = alloca %"class.dealii::MGDoFAccessor.36"*, align 8
  %i.addr = alloca i32, align 4
  %0 = bitcast %"class.dealii::TriaIterator.169"* %agg.result to i8*
  store i8* %0, i8** %result.ptr, align 8
  store %"class.dealii::MGDoFAccessor.36"* %this, %"class.dealii::MGDoFAccessor.36"** %this.addr, align 8
  call void @llvm.dbg.declare(metadata %"class.dealii::MGDoFAccessor.36"** %this.addr, metadata !12508, metadata !DIExpression()), !dbg !12509
  store i32 %i, i32* %i.addr, align 4
  call void @llvm.dbg.declare(metadata i32* %i.addr, metadata !12510, metadata !DIExpression()), !dbg !12511
  %this1 = load %"class.dealii::MGDoFAccessor.36"*, %"class.dealii::MGDoFAccessor.36"** %this.addr, align 8
  call void @llvm.dbg.declare(metadata i8** %result.ptr, metadata !12512, metadata !DIExpression(DW_OP_deref)), !dbg !12513
  %1 = bitcast %"class.dealii::MGDoFAccessor.36"* %this1 to %"class.dealii::TriaAccessorBase.39"*, !dbg !12514
  %tria = getelementptr inbounds %"class.dealii::TriaAccessorBase.39", %"class.dealii::TriaAccessorBase.39"* %1, i32 0, i32 1, !dbg !12514
  %2 = load %"class.dealii::Triangulation"*, %"class.dealii::Triangulation"** %tria, align 8, !dbg !12514
  %3 = bitcast %"class.dealii::MGDoFAccessor.36"* %this1 to %"class.dealii::TriaAccessor.38"*, !dbg !12515
  %4 = load i32, i32* %i.addr, align 4, !dbg !12516
  %call = call i32 @_ZNK6dealii12TriaAccessorILi2ELi3ELi3EE11child_indexEj(%"class.dealii::TriaAccessor.38"* %3, i32 %4), !dbg !12515
  %mg_dof_handler = getelementptr inbounds %"class.dealii::MGDoFAccessor.36", %"class.dealii::MGDoFAccessor.36"* %this1, i32 0, i32 1, !dbg !12517
  %5 = load %"class.dealii::MGDoFHandler"*, %"class.dealii::MGDoFHandler"** %mg_dof_handler, align 8, !dbg !12517
  call void @_ZN6dealii12TriaIteratorINS_13MGDoFAccessorILi2ELi3ELi3EEEEC1EPKNS_13TriangulationILi3ELi3EEEiiPKNS_12MGDoFHandlerILi3ELi3EEE(%"class.dealii::TriaIterator.169"* %agg.result, %"class.dealii::Triangulation"* %2, i32 0, i32 %call, %"class.dealii::MGDoFHandler"* %5), !dbg !12513
  ret void, !dbg !12518
}

; Function Attrs: noinline uwtable
define linkonce_odr dso_local i32 @_ZNK6dealii12TriaAccessorILi2ELi3ELi3EE11child_indexEj(%"class.dealii::TriaAccessor.38"* %this, i32 %i) #0 comdat align 2 !dbg !12519 {
entry:
  %this.addr = alloca %"class.dealii::TriaAccessor.38"*, align 8
  %i.addr = alloca i32, align 4
  %n_sets_of_two = alloca i32, align 4
  store %"class.dealii::TriaAccessor.38"* %this, %"class.dealii::TriaAccessor.38"** %this.addr, align 8
  call void @llvm.dbg.declare(metadata %"class.dealii::TriaAccessor.38"** %this.addr, metadata !12520, metadata !DIExpression()), !dbg !12521
  store i32 %i, i32* %i.addr, align 4
  call void @llvm.dbg.declare(metadata i32* %i.addr, metadata !12522, metadata !DIExpression()), !dbg !12523
  %this1 = load %"class.dealii::TriaAccessor.38"*, %"class.dealii::TriaAccessor.38"** %this.addr, align 8
  call void @llvm.dbg.declare(metadata i32* %n_sets_of_two, metadata !12524, metadata !DIExpression()), !dbg !12525
  store i32 2, i32* %n_sets_of_two, align 4, !dbg !12525
  %0 = bitcast %"class.dealii::TriaAccessor.38"* %this1 to %"class.dealii::TriaAccessorBase.39"*, !dbg !12526
  %call = call dereferenceable(224) %"class.dealii::internal::Triangulation::TriaObjects.85"* @_ZNK6dealii16TriaAccessorBaseILi2ELi3ELi3EE7objectsEv(%"class.dealii::TriaAccessorBase.39"* %0), !dbg !12526
  %children = getelementptr inbounds %"class.dealii::internal::Triangulation::TriaObjects.85", %"class.dealii::internal::Triangulation::TriaObjects.85"* %call, i32 0, i32 1, !dbg !12527
  %1 = bitcast %"class.dealii::TriaAccessor.38"* %this1 to %"class.dealii::TriaAccessorBase.39"*, !dbg !12528
  %present_index = getelementptr inbounds %"class.dealii::TriaAccessorBase.39", %"class.dealii::TriaAccessorBase.39"* %1, i32 0, i32 0, !dbg !12528
  %2 = load i32, i32* %present_index, align 8, !dbg !12528
  %mul = mul i32 2, %2, !dbg !12529
  %3 = load i32, i32* %i.addr, align 4, !dbg !12530
  %div = udiv i32 %3, 2, !dbg !12531
  %add = add i32 %mul, %div, !dbg !12532
  %conv = zext i32 %add to i64, !dbg !12533
  %call2 = call dereferenceable(4) i32* @_ZNSt6vectorIiSaIiEEixEm(%"class.std::vector.70"* %children, i64 %conv) #4, !dbg !12534
  %4 = load i32, i32* %call2, align 4, !dbg !12534
  %5 = load i32, i32* %i.addr, align 4, !dbg !12535
  %rem = urem i32 %5, 2, !dbg !12536
  %add3 = add i32 %4, %rem, !dbg !12537
  ret i32 %add3, !dbg !12538
}

; Function Attrs: noinline uwtable
define weak_odr dso_local void @_ZNK6dealii13MGDoFAccessorILi2ELi3ELi3EE4lineEj(%"class.dealii::TriaIterator"* noalias sret %agg.result, %"class.dealii::MGDoFAccessor.36"* %this, i32 %i) #0 comdat align 2 !dbg !12539 {
entry:
  %result.ptr = alloca i8*, align 8
  %this.addr = alloca %"class.dealii::MGDoFAccessor.36"*, align 8
  %i.addr = alloca i32, align 4
  %0 = bitcast %"class.dealii::TriaIterator"* %agg.result to i8*
  store i8* %0, i8** %result.ptr, align 8
  store %"class.dealii::MGDoFAccessor.36"* %this, %"class.dealii::MGDoFAccessor.36"** %this.addr, align 8
  call void @llvm.dbg.declare(metadata %"class.dealii::MGDoFAccessor.36"** %this.addr, metadata !12540, metadata !DIExpression()), !dbg !12541
  store i32 %i, i32* %i.addr, align 4
  call void @llvm.dbg.declare(metadata i32* %i.addr, metadata !12542, metadata !DIExpression()), !dbg !12543
  %this1 = load %"class.dealii::MGDoFAccessor.36"*, %"class.dealii::MGDoFAccessor.36"** %this.addr, align 8
  %1 = bitcast %"class.dealii::MGDoFAccessor.36"* %this1 to %"class.dealii::TriaAccessorBase.39"*, !dbg !12544
  %tria = getelementptr inbounds %"class.dealii::TriaAccessorBase.39", %"class.dealii::TriaAccessorBase.39"* %1, i32 0, i32 1, !dbg !12544
  %2 = load %"class.dealii::Triangulation"*, %"class.dealii::Triangulation"** %tria, align 8, !dbg !12544
  %3 = bitcast %"class.dealii::MGDoFAccessor.36"* %this1 to %"class.dealii::TriaAccessor.38"*, !dbg !12545
  %4 = load i32, i32* %i.addr, align 4, !dbg !12546
  %call = call i32 @_ZNK6dealii12TriaAccessorILi2ELi3ELi3EE10line_indexEj(%"class.dealii::TriaAccessor.38"* %3, i32 %4), !dbg !12545
  %mg_dof_handler = getelementptr inbounds %"class.dealii::MGDoFAccessor.36", %"class.dealii::MGDoFAccessor.36"* %this1, i32 0, i32 1, !dbg !12547
  %5 = load %"class.dealii::MGDoFHandler"*, %"class.dealii::MGDoFHandler"** %mg_dof_handler, align 8, !dbg !12547
  call void @_ZN6dealii12TriaIteratorINS_13MGDoFAccessorILi1ELi3ELi3EEEEC1EPKNS_13TriangulationILi3ELi3EEEiiPKNS_12MGDoFHandlerILi3ELi3EEE(%"class.dealii::TriaIterator"* %agg.result, %"class.dealii::Triangulation"* %2, i32 0, i32 %call, %"class.dealii::MGDoFHandler"* %5), !dbg !12548
  ret void, !dbg !12549
}

; Function Attrs: noinline uwtable
define linkonce_odr dso_local i32 @_ZNK6dealii12TriaAccessorILi2ELi3ELi3EE10line_indexEj(%"class.dealii::TriaAccessor.38"* %this, i32 %i) #0 comdat align 2 !dbg !12550 {
entry:
  %this.addr = alloca %"class.dealii::TriaAccessor.38"*, align 8
  %i.addr = alloca i32, align 4
  store %"class.dealii::TriaAccessor.38"* %this, %"class.dealii::TriaAccessor.38"** %this.addr, align 8
  call void @llvm.dbg.declare(metadata %"class.dealii::TriaAccessor.38"** %this.addr, metadata !12551, metadata !DIExpression()), !dbg !12552
  store i32 %i, i32* %i.addr, align 4
  call void @llvm.dbg.declare(metadata i32* %i.addr, metadata !12553, metadata !DIExpression()), !dbg !12554
  %this1 = load %"class.dealii::TriaAccessor.38"*, %"class.dealii::TriaAccessor.38"** %this.addr, align 8
  %0 = load i32, i32* %i.addr, align 4, !dbg !12555
  %call = call i32 @_ZN6dealii8internal12TriaAccessor14Implementation10line_indexILi3ELi3EEEjRKNS_12TriaAccessorILi2EXT_EXT0_EEEj(%"class.dealii::TriaAccessor.38"* dereferenceable(16) %this1, i32 %0), !dbg !12556
  ret i32 %call, !dbg !12557
}

; Function Attrs: noinline uwtable
define weak_odr dso_local void @_ZNK6dealii13MGDoFAccessorILi2ELi3ELi3EE4quadEj(%"class.dealii::TriaIterator.169"* noalias sret %agg.result, %"class.dealii::MGDoFAccessor.36"* %this, i32 %i) #0 comdat align 2 !dbg !12558 {
entry:
  %result.ptr = alloca i8*, align 8
  %this.addr = alloca %"class.dealii::MGDoFAccessor.36"*, align 8
  %i.addr = alloca i32, align 4
  %0 = bitcast %"class.dealii::TriaIterator.169"* %agg.result to i8*
  store i8* %0, i8** %result.ptr, align 8
  store %"class.dealii::MGDoFAccessor.36"* %this, %"class.dealii::MGDoFAccessor.36"** %this.addr, align 8
  call void @llvm.dbg.declare(metadata %"class.dealii::MGDoFAccessor.36"** %this.addr, metadata !12559, metadata !DIExpression()), !dbg !12560
  store i32 %i, i32* %i.addr, align 4
  call void @llvm.dbg.declare(metadata i32* %i.addr, metadata !12561, metadata !DIExpression()), !dbg !12562
  %this1 = load %"class.dealii::MGDoFAccessor.36"*, %"class.dealii::MGDoFAccessor.36"** %this.addr, align 8
  %1 = bitcast %"class.dealii::MGDoFAccessor.36"* %this1 to %"class.dealii::TriaAccessorBase.39"*, !dbg !12563
  %tria = getelementptr inbounds %"class.dealii::TriaAccessorBase.39", %"class.dealii::TriaAccessorBase.39"* %1, i32 0, i32 1, !dbg !12563
  %2 = load %"class.dealii::Triangulation"*, %"class.dealii::Triangulation"** %tria, align 8, !dbg !12563
  %3 = bitcast %"class.dealii::MGDoFAccessor.36"* %this1 to %"class.dealii::TriaAccessor.38"*, !dbg !12564
  %4 = load i32, i32* %i.addr, align 4, !dbg !12565
  %call = call i32 @_ZNK6dealii12TriaAccessorILi2ELi3ELi3EE10quad_indexEj(%"class.dealii::TriaAccessor.38"* %3, i32 %4), !dbg !12564
  %mg_dof_handler = getelementptr inbounds %"class.dealii::MGDoFAccessor.36", %"class.dealii::MGDoFAccessor.36"* %this1, i32 0, i32 1, !dbg !12566
  %5 = load %"class.dealii::MGDoFHandler"*, %"class.dealii::MGDoFHandler"** %mg_dof_handler, align 8, !dbg !12566
  call void @_ZN6dealii12TriaIteratorINS_13MGDoFAccessorILi2ELi3ELi3EEEEC1EPKNS_13TriangulationILi3ELi3EEEiiPKNS_12MGDoFHandlerILi3ELi3EEE(%"class.dealii::TriaIterator.169"* %agg.result, %"class.dealii::Triangulation"* %2, i32 0, i32 %call, %"class.dealii::MGDoFHandler"* %5), !dbg !12567
  ret void, !dbg !12568
}

; Function Attrs: noinline uwtable
define linkonce_odr dso_local i32 @_ZNK6dealii12TriaAccessorILi2ELi3ELi3EE10quad_indexEj(%"class.dealii::TriaAccessor.38"* %this, i32 %i) #0 comdat align 2 !dbg !12569 {
entry:
  %this.addr = alloca %"class.dealii::TriaAccessor.38"*, align 8
  %i.addr = alloca i32, align 4
  store %"class.dealii::TriaAccessor.38"* %this, %"class.dealii::TriaAccessor.38"** %this.addr, align 8
  call void @llvm.dbg.declare(metadata %"class.dealii::TriaAccessor.38"** %this.addr, metadata !12570, metadata !DIExpression()), !dbg !12571
  store i32 %i, i32* %i.addr, align 4
  call void @llvm.dbg.declare(metadata i32* %i.addr, metadata !12572, metadata !DIExpression()), !dbg !12573
  %this1 = load %"class.dealii::TriaAccessor.38"*, %"class.dealii::TriaAccessor.38"** %this.addr, align 8
  %0 = load i32, i32* %i.addr, align 4, !dbg !12574
  %call = call i32 @_ZN6dealii8internal12TriaAccessor14Implementation10quad_indexILi2ELi3ELi3EEEjRKNS_12TriaAccessorIXT_EXT0_EXT1_EEEj(%"class.dealii::TriaAccessor.38"* dereferenceable(16) %this1, i32 %0), !dbg !12575
  ret i32 %call, !dbg !12576
}

; Function Attrs: noinline uwtable
define weak_odr dso_local void @_ZN6dealii13MGDoFAccessorILi2ELi3ELi3EE9copy_fromERKS1_(%"class.dealii::MGDoFAccessor.36"* %this, %"class.dealii::MGDoFAccessor.36"* dereferenceable(32) %a) #0 comdat align 2 !dbg !12577 {
entry:
  %this.addr = alloca %"class.dealii::MGDoFAccessor.36"*, align 8
  %a.addr = alloca %"class.dealii::MGDoFAccessor.36"*, align 8
  store %"class.dealii::MGDoFAccessor.36"* %this, %"class.dealii::MGDoFAccessor.36"** %this.addr, align 8
  call void @llvm.dbg.declare(metadata %"class.dealii::MGDoFAccessor.36"** %this.addr, metadata !12578, metadata !DIExpression()), !dbg !12579
  store %"class.dealii::MGDoFAccessor.36"* %a, %"class.dealii::MGDoFAccessor.36"** %a.addr, align 8
  call void @llvm.dbg.declare(metadata %"class.dealii::MGDoFAccessor.36"** %a.addr, metadata !12580, metadata !DIExpression()), !dbg !12581
  %this1 = load %"class.dealii::MGDoFAccessor.36"*, %"class.dealii::MGDoFAccessor.36"** %this.addr, align 8
  %0 = bitcast %"class.dealii::MGDoFAccessor.36"* %this1 to %"class.dealii::DoFAccessor.37"*, !dbg !12582
  %1 = load %"class.dealii::MGDoFAccessor.36"*, %"class.dealii::MGDoFAccessor.36"** %a.addr, align 8, !dbg !12583
  %2 = bitcast %"class.dealii::MGDoFAccessor.36"* %1 to %"class.dealii::DoFAccessor.37"*, !dbg !12583
  call void @_ZN6dealii11DoFAccessorILi2ENS_10DoFHandlerILi3ELi3EEEE9copy_fromERKS3_(%"class.dealii::DoFAccessor.37"* %0, %"class.dealii::DoFAccessor.37"* dereferenceable(24) %2), !dbg !12582
  %3 = load %"class.dealii::MGDoFAccessor.36"*, %"class.dealii::MGDoFAccessor.36"** %a.addr, align 8, !dbg !12584
  %mg_dof_handler = getelementptr inbounds %"class.dealii::MGDoFAccessor.36", %"class.dealii::MGDoFAccessor.36"* %3, i32 0, i32 1, !dbg !12585
  %4 = load %"class.dealii::MGDoFHandler"*, %"class.dealii::MGDoFHandler"** %mg_dof_handler, align 8, !dbg !12585
  call void @_ZN6dealii13MGDoFAccessorILi2ELi3ELi3EE18set_mg_dof_handlerEPNS_12MGDoFHandlerILi3ELi3EEE(%"class.dealii::MGDoFAccessor.36"* %this1, %"class.dealii::MGDoFHandler"* %4), !dbg !12586
  ret void, !dbg !12587
}

; Function Attrs: noinline uwtable
define linkonce_odr dso_local void @_ZN6dealii11DoFAccessorILi2ENS_10DoFHandlerILi3ELi3EEEE9copy_fromERKS3_(%"class.dealii::DoFAccessor.37"* %this, %"class.dealii::DoFAccessor.37"* dereferenceable(24) %a) #0 comdat align 2 !dbg !12588 {
entry:
  %this.addr = alloca %"class.dealii::DoFAccessor.37"*, align 8
  %a.addr = alloca %"class.dealii::DoFAccessor.37"*, align 8
  store %"class.dealii::DoFAccessor.37"* %this, %"class.dealii::DoFAccessor.37"** %this.addr, align 8
  call void @llvm.dbg.declare(metadata %"class.dealii::DoFAccessor.37"** %this.addr, metadata !12589, metadata !DIExpression()), !dbg !12590
  store %"class.dealii::DoFAccessor.37"* %a, %"class.dealii::DoFAccessor.37"** %a.addr, align 8
  call void @llvm.dbg.declare(metadata %"class.dealii::DoFAccessor.37"** %a.addr, metadata !12591, metadata !DIExpression()), !dbg !12592
  %this1 = load %"class.dealii::DoFAccessor.37"*, %"class.dealii::DoFAccessor.37"** %this.addr, align 8
  %0 = bitcast %"class.dealii::DoFAccessor.37"* %this1 to %"class.dealii::TriaAccessor.38"*, !dbg !12593
  %1 = bitcast %"class.dealii::TriaAccessor.38"* %0 to %"class.dealii::TriaAccessorBase.39"*, !dbg !12593
  %2 = load %"class.dealii::DoFAccessor.37"*, %"class.dealii::DoFAccessor.37"** %a.addr, align 8, !dbg !12594
  %3 = bitcast %"class.dealii::DoFAccessor.37"* %2 to %"class.dealii::TriaAccessorBase.39"*, !dbg !12594
  call void @_ZN6dealii16TriaAccessorBaseILi2ELi3ELi3EE9copy_fromERKS1_(%"class.dealii::TriaAccessorBase.39"* %1, %"class.dealii::TriaAccessorBase.39"* dereferenceable(16) %3), !dbg !12593
  %4 = load %"class.dealii::DoFAccessor.37"*, %"class.dealii::DoFAccessor.37"** %a.addr, align 8, !dbg !12595
  %dof_handler = getelementptr inbounds %"class.dealii::DoFAccessor.37", %"class.dealii::DoFAccessor.37"* %4, i32 0, i32 1, !dbg !12596
  %5 = load %"class.dealii::DoFHandler"*, %"class.dealii::DoFHandler"** %dof_handler, align 8, !dbg !12596
  call void @_ZN6dealii11DoFAccessorILi2ENS_10DoFHandlerILi3ELi3EEEE15set_dof_handlerEPS2_(%"class.dealii::DoFAccessor.37"* %this1, %"class.dealii::DoFHandler"* %5), !dbg !12597
  ret void, !dbg !12598
}

; Function Attrs: noinline nounwind uwtable
define weak_odr dso_local void @_ZN6dealii13MGDoFAccessorILi2ELi3ELi3EE18set_mg_dof_handlerEPNS_12MGDoFHandlerILi3ELi3EEE(%"class.dealii::MGDoFAccessor.36"* %this, %"class.dealii::MGDoFHandler"* %dh) #1 comdat align 2 !dbg !12599 {
entry:
  %this.addr = alloca %"class.dealii::MGDoFAccessor.36"*, align 8
  %dh.addr = alloca %"class.dealii::MGDoFHandler"*, align 8
  store %"class.dealii::MGDoFAccessor.36"* %this, %"class.dealii::MGDoFAccessor.36"** %this.addr, align 8
  call void @llvm.dbg.declare(metadata %"class.dealii::MGDoFAccessor.36"** %this.addr, metadata !12600, metadata !DIExpression()), !dbg !12601
  store %"class.dealii::MGDoFHandler"* %dh, %"class.dealii::MGDoFHandler"** %dh.addr, align 8
  call void @llvm.dbg.declare(metadata %"class.dealii::MGDoFHandler"** %dh.addr, metadata !12602, metadata !DIExpression()), !dbg !12603
  %this1 = load %"class.dealii::MGDoFAccessor.36"*, %"class.dealii::MGDoFAccessor.36"** %this.addr, align 8
  %0 = load %"class.dealii::MGDoFHandler"*, %"class.dealii::MGDoFHandler"** %dh.addr, align 8, !dbg !12604
  %mg_dof_handler = getelementptr inbounds %"class.dealii::MGDoFAccessor.36", %"class.dealii::MGDoFAccessor.36"* %this1, i32 0, i32 1, !dbg !12605
  store %"class.dealii::MGDoFHandler"* %0, %"class.dealii::MGDoFHandler"** %mg_dof_handler, align 8, !dbg !12606
  ret void, !dbg !12607
}

; Function Attrs: noinline uwtable
define weak_odr dso_local void @_ZNK6dealii13MGDoFAccessorILi2ELi3ELi3EE23set_mg_vertex_dof_indexEijjj(%"class.dealii::MGDoFAccessor.36"* %this, i32 %level, i32 %vertex, i32 %i, i32 %index) #0 comdat align 2 !dbg !12608 {
entry:
  %this.addr = alloca %"class.dealii::MGDoFAccessor.36"*, align 8
  %level.addr = alloca i32, align 4
  %vertex.addr = alloca i32, align 4
  %i.addr = alloca i32, align 4
  %index.addr = alloca i32, align 4
  store %"class.dealii::MGDoFAccessor.36"* %this, %"class.dealii::MGDoFAccessor.36"** %this.addr, align 8
  call void @llvm.dbg.declare(metadata %"class.dealii::MGDoFAccessor.36"** %this.addr, metadata !12609, metadata !DIExpression()), !dbg !12610
  store i32 %level, i32* %level.addr, align 4
  call void @llvm.dbg.declare(metadata i32* %level.addr, metadata !12611, metadata !DIExpression()), !dbg !12612
  store i32 %vertex, i32* %vertex.addr, align 4
  call void @llvm.dbg.declare(metadata i32* %vertex.addr, metadata !12613, metadata !DIExpression()), !dbg !12614
  store i32 %i, i32* %i.addr, align 4
  call void @llvm.dbg.declare(metadata i32* %i.addr, metadata !12615, metadata !DIExpression()), !dbg !12616
  store i32 %index, i32* %index.addr, align 4
  call void @llvm.dbg.declare(metadata i32* %index.addr, metadata !12617, metadata !DIExpression()), !dbg !12618
  %this1 = load %"class.dealii::MGDoFAccessor.36"*, %"class.dealii::MGDoFAccessor.36"** %this.addr, align 8
  %mg_dof_handler = getelementptr inbounds %"class.dealii::MGDoFAccessor.36", %"class.dealii::MGDoFAccessor.36"* %this1, i32 0, i32 1, !dbg !12619
  %0 = load %"class.dealii::MGDoFHandler"*, %"class.dealii::MGDoFHandler"** %mg_dof_handler, align 8, !dbg !12619
  %mg_vertex_dofs = getelementptr inbounds %"class.dealii::MGDoFHandler", %"class.dealii::MGDoFHandler"* %0, i32 0, i32 3, !dbg !12620
  %1 = bitcast %"class.dealii::MGDoFAccessor.36"* %this1 to %"class.dealii::TriaAccessor.38"*, !dbg !12621
  %2 = load i32, i32* %vertex.addr, align 4, !dbg !12622
  %call = call i32 @_ZNK6dealii12TriaAccessorILi2ELi3ELi3EE12vertex_indexEj(%"class.dealii::TriaAccessor.38"* %1, i32 %2), !dbg !12621
  %conv = zext i32 %call to i64, !dbg !12623
  %call2 = call dereferenceable(16) %"class.dealii::MGDoFHandler<3, 3>::MGVertexDoFs"* @_ZNSt6vectorIN6dealii12MGDoFHandlerILi3ELi3EE12MGVertexDoFsESaIS3_EEixEm(%"class.std::vector.28"* %mg_vertex_dofs, i64 %conv) #4, !dbg !12624
  %3 = load i32, i32* %level.addr, align 4, !dbg !12625
  %4 = load i32, i32* %i.addr, align 4, !dbg !12626
  %5 = bitcast %"class.dealii::MGDoFAccessor.36"* %this1 to %"class.dealii::DoFAccessor.37"*, !dbg !12627
  %dof_handler = getelementptr inbounds %"class.dealii::DoFAccessor.37", %"class.dealii::DoFAccessor.37"* %5, i32 0, i32 1, !dbg !12627
  %6 = load %"class.dealii::DoFHandler"*, %"class.dealii::DoFHandler"** %dof_handler, align 8, !dbg !12627
  %call3 = call dereferenceable(728) %"class.dealii::FiniteElement"* @_ZNK6dealii10DoFHandlerILi3ELi3EE6get_feEv(%"class.dealii::DoFHandler"* %6), !dbg !12628
  %7 = bitcast %"class.dealii::FiniteElement"* %call3 to i8*, !dbg !12629
  %add.ptr = getelementptr inbounds i8, i8* %7, i64 72, !dbg !12629
  %8 = bitcast i8* %add.ptr to %"class.dealii::FiniteElementData"*, !dbg !12629
  %dofs_per_vertex = getelementptr inbounds %"class.dealii::FiniteElementData", %"class.dealii::FiniteElementData"* %8, i32 0, i32 0, !dbg !12630
  %9 = load i32, i32* %dofs_per_vertex, align 8, !dbg !12630
  %10 = load i32, i32* %index.addr, align 4, !dbg !12631
  call void @_ZN6dealii12MGDoFHandlerILi3ELi3EE12MGVertexDoFs9set_indexEjjjj(%"class.dealii::MGDoFHandler<3, 3>::MGVertexDoFs"* %call2, i32 %3, i32 %4, i32 %9, i32 %10), !dbg !12632
  ret void, !dbg !12633
}

; Function Attrs: noinline uwtable
define weak_odr dso_local void @_ZNK6dealii13MGDoFAccessorILi2ELi3ELi3EE16set_mg_dof_indexEijj(%"class.dealii::MGDoFAccessor.36"* %this, i32 %level, i32 %i, i32 %index) #0 comdat align 2 !dbg !12634 {
entry:
  %this.addr = alloca %"class.dealii::MGDoFAccessor.36"*, align 8
  %level.addr = alloca i32, align 4
  %i.addr = alloca i32, align 4
  %index.addr = alloca i32, align 4
  store %"class.dealii::MGDoFAccessor.36"* %this, %"class.dealii::MGDoFAccessor.36"** %this.addr, align 8
  call void @llvm.dbg.declare(metadata %"class.dealii::MGDoFAccessor.36"** %this.addr, metadata !12635, metadata !DIExpression()), !dbg !12636
  store i32 %level, i32* %level.addr, align 4
  call void @llvm.dbg.declare(metadata i32* %level.addr, metadata !12637, metadata !DIExpression()), !dbg !12638
  store i32 %i, i32* %i.addr, align 4
  call void @llvm.dbg.declare(metadata i32* %i.addr, metadata !12639, metadata !DIExpression()), !dbg !12640
  store i32 %index, i32* %index.addr, align 4
  call void @llvm.dbg.declare(metadata i32* %index.addr, metadata !12641, metadata !DIExpression()), !dbg !12642
  %this1 = load %"class.dealii::MGDoFAccessor.36"*, %"class.dealii::MGDoFAccessor.36"** %this.addr, align 8
  %mg_dof_handler = getelementptr inbounds %"class.dealii::MGDoFAccessor.36", %"class.dealii::MGDoFAccessor.36"* %this1, i32 0, i32 1, !dbg !12643
  %0 = load %"class.dealii::MGDoFHandler"*, %"class.dealii::MGDoFHandler"** %mg_dof_handler, align 8, !dbg !12643
  %1 = load i32, i32* %level.addr, align 4, !dbg !12644
  %2 = bitcast %"class.dealii::MGDoFAccessor.36"* %this1 to %"class.dealii::TriaAccessorBase.39"*, !dbg !12645
  %present_index = getelementptr inbounds %"class.dealii::TriaAccessorBase.39", %"class.dealii::TriaAccessorBase.39"* %2, i32 0, i32 0, !dbg !12645
  %3 = load i32, i32* %present_index, align 8, !dbg !12645
  %4 = load i32, i32* %i.addr, align 4, !dbg !12646
  %5 = load i32, i32* %index.addr, align 4, !dbg !12647
  call void @_ZNK6dealii12MGDoFHandlerILi3ELi3EE13set_dof_indexILi2EEEvjjjjj(%"class.dealii::MGDoFHandler"* %0, i32 %1, i32 %3, i32 0, i32 %4, i32 %5), !dbg !12648
  ret void, !dbg !12649
}

declare dso_local void @_ZNK6dealii12MGDoFHandlerILi3ELi3EE13set_dof_indexILi2EEEvjjjjj(%"class.dealii::MGDoFHandler"*, i32, i32, i32, i32, i32) #2

; Function Attrs: noinline uwtable
define weak_odr dso_local dereferenceable(32) %"class.dealii::MGDoFAccessor.36"* @_ZN6dealii13MGDoFAccessorILi2ELi3ELi3EEaSERKS1_(%"class.dealii::MGDoFAccessor.36"* %this, %"class.dealii::MGDoFAccessor.36"* dereferenceable(32) %da) #0 comdat align 2 !dbg !12650 {
entry:
  %this.addr = alloca %"class.dealii::MGDoFAccessor.36"*, align 8
  %da.addr = alloca %"class.dealii::MGDoFAccessor.36"*, align 8
  store %"class.dealii::MGDoFAccessor.36"* %this, %"class.dealii::MGDoFAccessor.36"** %this.addr, align 8
  call void @llvm.dbg.declare(metadata %"class.dealii::MGDoFAccessor.36"** %this.addr, metadata !12651, metadata !DIExpression()), !dbg !12652
  store %"class.dealii::MGDoFAccessor.36"* %da, %"class.dealii::MGDoFAccessor.36"** %da.addr, align 8
  call void @llvm.dbg.declare(metadata %"class.dealii::MGDoFAccessor.36"** %da.addr, metadata !12653, metadata !DIExpression()), !dbg !12654
  %this1 = load %"class.dealii::MGDoFAccessor.36"*, %"class.dealii::MGDoFAccessor.36"** %this.addr, align 8
  %0 = bitcast %"class.dealii::MGDoFAccessor.36"* %this1 to %"class.dealii::DoFAccessor.37"*, !dbg !12655
  %1 = bitcast %"class.dealii::MGDoFAccessor.36"* %this1 to %"class.dealii::DoFAccessor.37"*, !dbg !12656
  %call = call dereferenceable(24) %"class.dealii::DoFAccessor.37"* @_ZN6dealii11DoFAccessorILi2ENS_10DoFHandlerILi3ELi3EEEEaSERKS3_(%"class.dealii::DoFAccessor.37"* %0, %"class.dealii::DoFAccessor.37"* dereferenceable(24) %1), !dbg !12655
  %2 = bitcast %"class.dealii::MGDoFAccessor.36"* %this1 to %"class.dealii::DoFAccessor.37"*, !dbg !12657
  %3 = load %"class.dealii::MGDoFAccessor.36"*, %"class.dealii::MGDoFAccessor.36"** %da.addr, align 8, !dbg !12658
  %mg_dof_handler = getelementptr inbounds %"class.dealii::MGDoFAccessor.36", %"class.dealii::MGDoFAccessor.36"* %3, i32 0, i32 1, !dbg !12659
  %4 = load %"class.dealii::MGDoFHandler"*, %"class.dealii::MGDoFHandler"** %mg_dof_handler, align 8, !dbg !12659
  %5 = bitcast %"class.dealii::MGDoFHandler"* %4 to %"class.dealii::DoFHandler"*, !dbg !12658
  call void @_ZN6dealii11DoFAccessorILi2ENS_10DoFHandlerILi3ELi3EEEE15set_dof_handlerEPS2_(%"class.dealii::DoFAccessor.37"* %2, %"class.dealii::DoFHandler"* %5), !dbg !12657
  ret %"class.dealii::MGDoFAccessor.36"* %this1, !dbg !12660
}

; Function Attrs: noinline uwtable
define linkonce_odr dso_local dereferenceable(24) %"class.dealii::DoFAccessor.37"* @_ZN6dealii11DoFAccessorILi2ENS_10DoFHandlerILi3ELi3EEEEaSERKS3_(%"class.dealii::DoFAccessor.37"* %this, %"class.dealii::DoFAccessor.37"* dereferenceable(24) %da) #0 comdat align 2 !dbg !12661 {
entry:
  %this.addr = alloca %"class.dealii::DoFAccessor.37"*, align 8
  %da.addr = alloca %"class.dealii::DoFAccessor.37"*, align 8
  store %"class.dealii::DoFAccessor.37"* %this, %"class.dealii::DoFAccessor.37"** %this.addr, align 8
  call void @llvm.dbg.declare(metadata %"class.dealii::DoFAccessor.37"** %this.addr, metadata !12662, metadata !DIExpression()), !dbg !12663
  store %"class.dealii::DoFAccessor.37"* %da, %"class.dealii::DoFAccessor.37"** %da.addr, align 8
  call void @llvm.dbg.declare(metadata %"class.dealii::DoFAccessor.37"** %da.addr, metadata !12664, metadata !DIExpression()), !dbg !12665
  %this1 = load %"class.dealii::DoFAccessor.37"*, %"class.dealii::DoFAccessor.37"** %this.addr, align 8
  %0 = load %"class.dealii::DoFAccessor.37"*, %"class.dealii::DoFAccessor.37"** %da.addr, align 8, !dbg !12666
  %dof_handler = getelementptr inbounds %"class.dealii::DoFAccessor.37", %"class.dealii::DoFAccessor.37"* %0, i32 0, i32 1, !dbg !12667
  %1 = load %"class.dealii::DoFHandler"*, %"class.dealii::DoFHandler"** %dof_handler, align 8, !dbg !12667
  call void @_ZN6dealii11DoFAccessorILi2ENS_10DoFHandlerILi3ELi3EEEE15set_dof_handlerEPS2_(%"class.dealii::DoFAccessor.37"* %this1, %"class.dealii::DoFHandler"* %1), !dbg !12668
  ret %"class.dealii::DoFAccessor.37"* %this1, !dbg !12669
}

; Function Attrs: noinline nounwind uwtable
define linkonce_odr dso_local void @_ZN6dealii11DoFAccessorILi2ENS_10DoFHandlerILi3ELi3EEEE15set_dof_handlerEPS2_(%"class.dealii::DoFAccessor.37"* %this, %"class.dealii::DoFHandler"* %dh) #1 comdat align 2 !dbg !12670 {
entry:
  %this.addr = alloca %"class.dealii::DoFAccessor.37"*, align 8
  %dh.addr = alloca %"class.dealii::DoFHandler"*, align 8
  store %"class.dealii::DoFAccessor.37"* %this, %"class.dealii::DoFAccessor.37"** %this.addr, align 8
  call void @llvm.dbg.declare(metadata %"class.dealii::DoFAccessor.37"** %this.addr, metadata !12671, metadata !DIExpression()), !dbg !12672
  store %"class.dealii::DoFHandler"* %dh, %"class.dealii::DoFHandler"** %dh.addr, align 8
  call void @llvm.dbg.declare(metadata %"class.dealii::DoFHandler"** %dh.addr, metadata !12673, metadata !DIExpression()), !dbg !12674
  %this1 = load %"class.dealii::DoFAccessor.37"*, %"class.dealii::DoFAccessor.37"** %this.addr, align 8
  %0 = load %"class.dealii::DoFHandler"*, %"class.dealii::DoFHandler"** %dh.addr, align 8, !dbg !12675
  %dof_handler = getelementptr inbounds %"class.dealii::DoFAccessor.37", %"class.dealii::DoFAccessor.37"* %this1, i32 0, i32 1, !dbg !12676
  store %"class.dealii::DoFHandler"* %0, %"class.dealii::DoFHandler"** %dof_handler, align 8, !dbg !12677
  ret void, !dbg !12678
}

; Function Attrs: noinline uwtable
define weak_odr dso_local void @_ZN6dealii13MGDoFAccessorILi3ELi3ELi3EEC2Ev(%"class.dealii::MGDoFAccessor.40"* %this) unnamed_addr #0 comdat($_ZN6dealii13MGDoFAccessorILi3ELi3ELi3EEC5Ev) align 2 !dbg !12679 {
entry:
  %this.addr = alloca %"class.dealii::MGDoFAccessor.40"*, align 8
  store %"class.dealii::MGDoFAccessor.40"* %this, %"class.dealii::MGDoFAccessor.40"** %this.addr, align 8
  call void @llvm.dbg.declare(metadata %"class.dealii::MGDoFAccessor.40"** %this.addr, metadata !12680, metadata !DIExpression()), !dbg !12681
  %this1 = load %"class.dealii::MGDoFAccessor.40"*, %"class.dealii::MGDoFAccessor.40"** %this.addr, align 8
  %0 = bitcast %"class.dealii::MGDoFAccessor.40"* %this1 to %"class.dealii::DoFCellAccessor"*, !dbg !12682
  call void @_ZN6dealii15DoFCellAccessorINS_10DoFHandlerILi3ELi3EEEEC2EPKNS_13TriangulationILi3ELi3EEEiiPKS2_(%"class.dealii::DoFCellAccessor"* %0, %"class.dealii::Triangulation"* null, i32 -1, i32 -1, %"class.dealii::DoFHandler"* null), !dbg !12683
  ret void, !dbg !12684
}

; Function Attrs: noinline uwtable
define linkonce_odr dso_local void @_ZN6dealii15DoFCellAccessorINS_10DoFHandlerILi3ELi3EEEEC2EPKNS_13TriangulationILi3ELi3EEEiiPKS2_(%"class.dealii::DoFCellAccessor"* %this, %"class.dealii::Triangulation"* %tria, i32 %level, i32 %index, %"class.dealii::DoFHandler"* %local_data) unnamed_addr #0 comdat align 2 !dbg !12685 {
entry:
  %this.addr = alloca %"class.dealii::DoFCellAccessor"*, align 8
  %tria.addr = alloca %"class.dealii::Triangulation"*, align 8
  %level.addr = alloca i32, align 4
  %index.addr = alloca i32, align 4
  %local_data.addr = alloca %"class.dealii::DoFHandler"*, align 8
  store %"class.dealii::DoFCellAccessor"* %this, %"class.dealii::DoFCellAccessor"** %this.addr, align 8
  call void @llvm.dbg.declare(metadata %"class.dealii::DoFCellAccessor"** %this.addr, metadata !12686, metadata !DIExpression()), !dbg !12688
  store %"class.dealii::Triangulation"* %tria, %"class.dealii::Triangulation"** %tria.addr, align 8
  call void @llvm.dbg.declare(metadata %"class.dealii::Triangulation"** %tria.addr, metadata !12689, metadata !DIExpression()), !dbg !12690
  store i32 %level, i32* %level.addr, align 4
  call void @llvm.dbg.declare(metadata i32* %level.addr, metadata !12691, metadata !DIExpression()), !dbg !12692
  store i32 %index, i32* %index.addr, align 4
  call void @llvm.dbg.declare(metadata i32* %index.addr, metadata !12693, metadata !DIExpression()), !dbg !12694
  store %"class.dealii::DoFHandler"* %local_data, %"class.dealii::DoFHandler"** %local_data.addr, align 8
  call void @llvm.dbg.declare(metadata %"class.dealii::DoFHandler"** %local_data.addr, metadata !12695, metadata !DIExpression()), !dbg !12696
  %this1 = load %"class.dealii::DoFCellAccessor"*, %"class.dealii::DoFCellAccessor"** %this.addr, align 8
  %0 = bitcast %"class.dealii::DoFCellAccessor"* %this1 to %"class.dealii::DoFAccessor.41"*, !dbg !12697
  %1 = load %"class.dealii::Triangulation"*, %"class.dealii::Triangulation"** %tria.addr, align 8, !dbg !12698
  %2 = load i32, i32* %level.addr, align 4, !dbg !12699
  %3 = load i32, i32* %index.addr, align 4, !dbg !12700
  %4 = load %"class.dealii::DoFHandler"*, %"class.dealii::DoFHandler"** %local_data.addr, align 8, !dbg !12701
  call void @_ZN6dealii11DoFAccessorILi3ENS_10DoFHandlerILi3ELi3EEEEC2EPKNS_13TriangulationILi3ELi3EEEiiPKS2_(%"class.dealii::DoFAccessor.41"* %0, %"class.dealii::Triangulation"* %1, i32 %2, i32 %3, %"class.dealii::DoFHandler"* %4), !dbg !12702
  ret void, !dbg !12703
}

; Function Attrs: noinline uwtable
define weak_odr dso_local void @_ZN6dealii13MGDoFAccessorILi3ELi3ELi3EEC2EPKNS_13TriangulationILi3ELi3EEEiiPKNS_12MGDoFHandlerILi3ELi3EEE(%"class.dealii::MGDoFAccessor.40"* %this, %"class.dealii::Triangulation"* %tria, i32 %level, i32 %index, %"class.dealii::MGDoFHandler"* %local_data) unnamed_addr #0 comdat($_ZN6dealii13MGDoFAccessorILi3ELi3ELi3EEC5EPKNS_13TriangulationILi3ELi3EEEiiPKNS_12MGDoFHandlerILi3ELi3EEE) align 2 !dbg !12704 {
entry:
  %this.addr = alloca %"class.dealii::MGDoFAccessor.40"*, align 8
  %tria.addr = alloca %"class.dealii::Triangulation"*, align 8
  %level.addr = alloca i32, align 4
  %index.addr = alloca i32, align 4
  %local_data.addr = alloca %"class.dealii::MGDoFHandler"*, align 8
  store %"class.dealii::MGDoFAccessor.40"* %this, %"class.dealii::MGDoFAccessor.40"** %this.addr, align 8
  call void @llvm.dbg.declare(metadata %"class.dealii::MGDoFAccessor.40"** %this.addr, metadata !12705, metadata !DIExpression()), !dbg !12706
  store %"class.dealii::Triangulation"* %tria, %"class.dealii::Triangulation"** %tria.addr, align 8
  call void @llvm.dbg.declare(metadata %"class.dealii::Triangulation"** %tria.addr, metadata !12707, metadata !DIExpression()), !dbg !12708
  store i32 %level, i32* %level.addr, align 4
  call void @llvm.dbg.declare(metadata i32* %level.addr, metadata !12709, metadata !DIExpression()), !dbg !12710
  store i32 %index, i32* %index.addr, align 4
  call void @llvm.dbg.declare(metadata i32* %index.addr, metadata !12711, metadata !DIExpression()), !dbg !12712
  store %"class.dealii::MGDoFHandler"* %local_data, %"class.dealii::MGDoFHandler"** %local_data.addr, align 8
  call void @llvm.dbg.declare(metadata %"class.dealii::MGDoFHandler"** %local_data.addr, metadata !12713, metadata !DIExpression()), !dbg !12714
  %this1 = load %"class.dealii::MGDoFAccessor.40"*, %"class.dealii::MGDoFAccessor.40"** %this.addr, align 8
  %0 = bitcast %"class.dealii::MGDoFAccessor.40"* %this1 to %"class.dealii::DoFCellAccessor"*, !dbg !12715
  %1 = load %"class.dealii::Triangulation"*, %"class.dealii::Triangulation"** %tria.addr, align 8, !dbg !12716
  %2 = load i32, i32* %level.addr, align 4, !dbg !12717
  %3 = load i32, i32* %index.addr, align 4, !dbg !12718
  %4 = load %"class.dealii::MGDoFHandler"*, %"class.dealii::MGDoFHandler"** %local_data.addr, align 8, !dbg !12719
  %5 = bitcast %"class.dealii::MGDoFHandler"* %4 to %"class.dealii::DoFHandler"*, !dbg !12719
  call void @_ZN6dealii15DoFCellAccessorINS_10DoFHandlerILi3ELi3EEEEC2EPKNS_13TriangulationILi3ELi3EEEiiPKS2_(%"class.dealii::DoFCellAccessor"* %0, %"class.dealii::Triangulation"* %1, i32 %2, i32 %3, %"class.dealii::DoFHandler"* %5), !dbg !12720
  %mg_dof_handler = getelementptr inbounds %"class.dealii::MGDoFAccessor.40", %"class.dealii::MGDoFAccessor.40"* %this1, i32 0, i32 1, !dbg !12721
  %6 = load %"class.dealii::MGDoFHandler"*, %"class.dealii::MGDoFHandler"** %local_data.addr, align 8, !dbg !12722
  store %"class.dealii::MGDoFHandler"* %6, %"class.dealii::MGDoFHandler"** %mg_dof_handler, align 8, !dbg !12721
  ret void, !dbg !12723
}

; Function Attrs: noinline uwtable
define weak_odr dso_local void @_ZNK6dealii13MGDoFAccessorILi3ELi3ELi3EE18get_mg_dof_indicesEiRSt6vectorIjSaIjEE(%"class.dealii::MGDoFAccessor.40"* %this, i32 %level, %"class.std::vector.21"* dereferenceable(24) %dof_indices) #0 comdat align 2 !dbg !12724 {
entry:
  %this.addr = alloca %"class.dealii::MGDoFAccessor.40"*, align 8
  %level.addr = alloca i32, align 4
  %dof_indices.addr = alloca %"class.std::vector.21"*, align 8
  store %"class.dealii::MGDoFAccessor.40"* %this, %"class.dealii::MGDoFAccessor.40"** %this.addr, align 8
  call void @llvm.dbg.declare(metadata %"class.dealii::MGDoFAccessor.40"** %this.addr, metadata !12725, metadata !DIExpression()), !dbg !12726
  store i32 %level, i32* %level.addr, align 4
  call void @llvm.dbg.declare(metadata i32* %level.addr, metadata !12727, metadata !DIExpression()), !dbg !12728
  store %"class.std::vector.21"* %dof_indices, %"class.std::vector.21"** %dof_indices.addr, align 8
  call void @llvm.dbg.declare(metadata %"class.std::vector.21"** %dof_indices.addr, metadata !12729, metadata !DIExpression()), !dbg !12730
  %this1 = load %"class.dealii::MGDoFAccessor.40"*, %"class.dealii::MGDoFAccessor.40"** %this.addr, align 8
  %0 = load i32, i32* %level.addr, align 4, !dbg !12731
  %1 = load %"class.std::vector.21"*, %"class.std::vector.21"** %dof_indices.addr, align 8, !dbg !12732
  call void @_ZN6dealii8internal13MGDoFAccessor18get_mg_dof_indicesILi3ELi3EEEvRKNS_13MGDoFAccessorILi3EXT_EXT0_EEEiRSt6vectorIjSaIjEE(%"class.dealii::MGDoFAccessor.40"* dereferenceable(32) %this1, i32 %0, %"class.std::vector.21"* dereferenceable(24) %1), !dbg !12733
  ret void, !dbg !12734
}

; Function Attrs: noinline uwtable
define linkonce_odr dso_local void @_ZN6dealii8internal13MGDoFAccessor18get_mg_dof_indicesILi3ELi3EEEvRKNS_13MGDoFAccessorILi3EXT_EXT0_EEEiRSt6vectorIjSaIjEE(%"class.dealii::MGDoFAccessor.40"* dereferenceable(32) %accessor, i32 %level, %"class.std::vector.21"* dereferenceable(24) %dof_indices) #0 comdat !dbg !12735 {
entry:
  %accessor.addr = alloca %"class.dealii::MGDoFAccessor.40"*, align 8
  %level.addr = alloca i32, align 4
  %dof_indices.addr = alloca %"class.std::vector.21"*, align 8
  %dofs_per_vertex = alloca i32, align 4
  %dofs_per_line = alloca i32, align 4
  %dofs_per_quad = alloca i32, align 4
  %dofs_per_hex = alloca i32, align 4
  %next = alloca %"class.__gnu_cxx::__normal_iterator", align 8
  %vertex = alloca i32, align 4
  %d = alloca i32, align 4
  %ref.tmp = alloca %"class.__gnu_cxx::__normal_iterator", align 8
  %line = alloca i32, align 4
  %d29 = alloca i32, align 4
  %ref.tmp33 = alloca %"class.dealii::TriaIterator", align 8
  %ref.tmp36 = alloca %"class.__gnu_cxx::__normal_iterator", align 8
  %quad = alloca i32, align 4
  %d49 = alloca i32, align 4
  %ref.tmp53 = alloca %"class.dealii::TriaIterator.169", align 8
  %ref.tmp56 = alloca %"class.__gnu_cxx::__normal_iterator", align 8
  %d66 = alloca i32, align 4
  %ref.tmp71 = alloca %"class.__gnu_cxx::__normal_iterator", align 8
  store %"class.dealii::MGDoFAccessor.40"* %accessor, %"class.dealii::MGDoFAccessor.40"** %accessor.addr, align 8
  call void @llvm.dbg.declare(metadata %"class.dealii::MGDoFAccessor.40"** %accessor.addr, metadata !12738, metadata !DIExpression()), !dbg !12739
  store i32 %level, i32* %level.addr, align 4
  call void @llvm.dbg.declare(metadata i32* %level.addr, metadata !12740, metadata !DIExpression()), !dbg !12741
  store %"class.std::vector.21"* %dof_indices, %"class.std::vector.21"** %dof_indices.addr, align 8
  call void @llvm.dbg.declare(metadata %"class.std::vector.21"** %dof_indices.addr, metadata !12742, metadata !DIExpression()), !dbg !12743
  call void @llvm.dbg.declare(metadata i32* %dofs_per_vertex, metadata !12744, metadata !DIExpression()), !dbg !12745
  %0 = load %"class.dealii::MGDoFAccessor.40"*, %"class.dealii::MGDoFAccessor.40"** %accessor.addr, align 8, !dbg !12746
  %1 = bitcast %"class.dealii::MGDoFAccessor.40"* %0 to %"class.dealii::DoFAccessor.41"*, !dbg !12746
  %call = call dereferenceable(168) %"class.dealii::DoFHandler"* @_ZNK6dealii11DoFAccessorILi3ENS_10DoFHandlerILi3ELi3EEEE15get_dof_handlerEv(%"class.dealii::DoFAccessor.41"* %1), !dbg !12747
  %call1 = call dereferenceable(728) %"class.dealii::FiniteElement"* @_ZNK6dealii10DoFHandlerILi3ELi3EE6get_feEv(%"class.dealii::DoFHandler"* %call), !dbg !12748
  %2 = bitcast %"class.dealii::FiniteElement"* %call1 to i8*, !dbg !12746
  %add.ptr = getelementptr inbounds i8, i8* %2, i64 72, !dbg !12746
  %3 = bitcast i8* %add.ptr to %"class.dealii::FiniteElementData"*, !dbg !12746
  %dofs_per_vertex2 = getelementptr inbounds %"class.dealii::FiniteElementData", %"class.dealii::FiniteElementData"* %3, i32 0, i32 0, !dbg !12749
  %4 = load i32, i32* %dofs_per_vertex2, align 8, !dbg !12749
  store i32 %4, i32* %dofs_per_vertex, align 4, !dbg !12745
  call void @llvm.dbg.declare(metadata i32* %dofs_per_line, metadata !12750, metadata !DIExpression()), !dbg !12751
  %5 = load %"class.dealii::MGDoFAccessor.40"*, %"class.dealii::MGDoFAccessor.40"** %accessor.addr, align 8, !dbg !12752
  %6 = bitcast %"class.dealii::MGDoFAccessor.40"* %5 to %"class.dealii::DoFAccessor.41"*, !dbg !12752
  %call3 = call dereferenceable(168) %"class.dealii::DoFHandler"* @_ZNK6dealii11DoFAccessorILi3ENS_10DoFHandlerILi3ELi3EEEE15get_dof_handlerEv(%"class.dealii::DoFAccessor.41"* %6), !dbg !12753
  %call4 = call dereferenceable(728) %"class.dealii::FiniteElement"* @_ZNK6dealii10DoFHandlerILi3ELi3EE6get_feEv(%"class.dealii::DoFHandler"* %call3), !dbg !12754
  %7 = bitcast %"class.dealii::FiniteElement"* %call4 to i8*, !dbg !12752
  %add.ptr5 = getelementptr inbounds i8, i8* %7, i64 72, !dbg !12752
  %8 = bitcast i8* %add.ptr5 to %"class.dealii::FiniteElementData"*, !dbg !12752
  %dofs_per_line6 = getelementptr inbounds %"class.dealii::FiniteElementData", %"class.dealii::FiniteElementData"* %8, i32 0, i32 1, !dbg !12755
  %9 = load i32, i32* %dofs_per_line6, align 4, !dbg !12755
  store i32 %9, i32* %dofs_per_line, align 4, !dbg !12751
  call void @llvm.dbg.declare(metadata i32* %dofs_per_quad, metadata !12756, metadata !DIExpression()), !dbg !12757
  %10 = load %"class.dealii::MGDoFAccessor.40"*, %"class.dealii::MGDoFAccessor.40"** %accessor.addr, align 8, !dbg !12758
  %11 = bitcast %"class.dealii::MGDoFAccessor.40"* %10 to %"class.dealii::DoFAccessor.41"*, !dbg !12758
  %call7 = call dereferenceable(168) %"class.dealii::DoFHandler"* @_ZNK6dealii11DoFAccessorILi3ENS_10DoFHandlerILi3ELi3EEEE15get_dof_handlerEv(%"class.dealii::DoFAccessor.41"* %11), !dbg !12759
  %call8 = call dereferenceable(728) %"class.dealii::FiniteElement"* @_ZNK6dealii10DoFHandlerILi3ELi3EE6get_feEv(%"class.dealii::DoFHandler"* %call7), !dbg !12760
  %12 = bitcast %"class.dealii::FiniteElement"* %call8 to i8*, !dbg !12758
  %add.ptr9 = getelementptr inbounds i8, i8* %12, i64 72, !dbg !12758
  %13 = bitcast i8* %add.ptr9 to %"class.dealii::FiniteElementData"*, !dbg !12758
  %dofs_per_quad10 = getelementptr inbounds %"class.dealii::FiniteElementData", %"class.dealii::FiniteElementData"* %13, i32 0, i32 2, !dbg !12761
  %14 = load i32, i32* %dofs_per_quad10, align 8, !dbg !12761
  store i32 %14, i32* %dofs_per_quad, align 4, !dbg !12757
  call void @llvm.dbg.declare(metadata i32* %dofs_per_hex, metadata !12762, metadata !DIExpression()), !dbg !12763
  %15 = load %"class.dealii::MGDoFAccessor.40"*, %"class.dealii::MGDoFAccessor.40"** %accessor.addr, align 8, !dbg !12764
  %16 = bitcast %"class.dealii::MGDoFAccessor.40"* %15 to %"class.dealii::DoFAccessor.41"*, !dbg !12764
  %call11 = call dereferenceable(168) %"class.dealii::DoFHandler"* @_ZNK6dealii11DoFAccessorILi3ENS_10DoFHandlerILi3ELi3EEEE15get_dof_handlerEv(%"class.dealii::DoFAccessor.41"* %16), !dbg !12765
  %call12 = call dereferenceable(728) %"class.dealii::FiniteElement"* @_ZNK6dealii10DoFHandlerILi3ELi3EE6get_feEv(%"class.dealii::DoFHandler"* %call11), !dbg !12766
  %17 = bitcast %"class.dealii::FiniteElement"* %call12 to i8*, !dbg !12764
  %add.ptr13 = getelementptr inbounds i8, i8* %17, i64 72, !dbg !12764
  %18 = bitcast i8* %add.ptr13 to %"class.dealii::FiniteElementData"*, !dbg !12764
  %dofs_per_hex14 = getelementptr inbounds %"class.dealii::FiniteElementData", %"class.dealii::FiniteElementData"* %18, i32 0, i32 3, !dbg !12767
  %19 = load i32, i32* %dofs_per_hex14, align 4, !dbg !12767
  store i32 %19, i32* %dofs_per_hex, align 4, !dbg !12763
  call void @llvm.dbg.declare(metadata %"class.__gnu_cxx::__normal_iterator"* %next, metadata !12768, metadata !DIExpression()), !dbg !12769
  %20 = load %"class.std::vector.21"*, %"class.std::vector.21"** %dof_indices.addr, align 8, !dbg !12770
  %call15 = call i32* @_ZNSt6vectorIjSaIjEE5beginEv(%"class.std::vector.21"* %20) #4, !dbg !12771
  %coerce.dive = getelementptr inbounds %"class.__gnu_cxx::__normal_iterator", %"class.__gnu_cxx::__normal_iterator"* %next, i32 0, i32 0, !dbg !12771
  store i32* %call15, i32** %coerce.dive, align 8, !dbg !12771
  call void @llvm.dbg.declare(metadata i32* %vertex, metadata !12772, metadata !DIExpression()), !dbg !12774
  store i32 0, i32* %vertex, align 4, !dbg !12774
  br label %for.cond, !dbg !12775

for.cond:                                         ; preds = %for.inc23, %entry
  %21 = load i32, i32* %vertex, align 4, !dbg !12776
  %cmp = icmp ult i32 %21, 8, !dbg !12778
  br i1 %cmp, label %for.body, label %for.end25, !dbg !12779

for.body:                                         ; preds = %for.cond
  call void @llvm.dbg.declare(metadata i32* %d, metadata !12780, metadata !DIExpression()), !dbg !12782
  store i32 0, i32* %d, align 4, !dbg !12782
  br label %for.cond16, !dbg !12783

for.cond16:                                       ; preds = %for.inc, %for.body
  %22 = load i32, i32* %d, align 4, !dbg !12784
  %23 = load i32, i32* %dofs_per_vertex, align 4, !dbg !12786
  %cmp17 = icmp ult i32 %22, %23, !dbg !12787
  br i1 %cmp17, label %for.body18, label %for.end, !dbg !12788

for.body18:                                       ; preds = %for.cond16
  %24 = load %"class.dealii::MGDoFAccessor.40"*, %"class.dealii::MGDoFAccessor.40"** %accessor.addr, align 8, !dbg !12789
  %25 = load i32, i32* %level.addr, align 4, !dbg !12790
  %26 = load i32, i32* %vertex, align 4, !dbg !12791
  %27 = load i32, i32* %d, align 4, !dbg !12792
  %call19 = call i32 @_ZNK6dealii13MGDoFAccessorILi3ELi3ELi3EE19mg_vertex_dof_indexEijj(%"class.dealii::MGDoFAccessor.40"* %24, i32 %25, i32 %26, i32 %27), !dbg !12793
  %call20 = call i32* @_ZN9__gnu_cxx17__normal_iteratorIPjSt6vectorIjSaIjEEEppEi(%"class.__gnu_cxx::__normal_iterator"* %next, i32 0) #4, !dbg !12794
  %coerce.dive21 = getelementptr inbounds %"class.__gnu_cxx::__normal_iterator", %"class.__gnu_cxx::__normal_iterator"* %ref.tmp, i32 0, i32 0, !dbg !12794
  store i32* %call20, i32** %coerce.dive21, align 8, !dbg !12794
  %call22 = call dereferenceable(4) i32* @_ZNK9__gnu_cxx17__normal_iteratorIPjSt6vectorIjSaIjEEEdeEv(%"class.__gnu_cxx::__normal_iterator"* %ref.tmp) #4, !dbg !12795
  store i32 %call19, i32* %call22, align 4, !dbg !12796
  br label %for.inc, !dbg !12795

for.inc:                                          ; preds = %for.body18
  %28 = load i32, i32* %d, align 4, !dbg !12797
  %inc = add i32 %28, 1, !dbg !12797
  store i32 %inc, i32* %d, align 4, !dbg !12797
  br label %for.cond16, !dbg !12798, !llvm.loop !12799

for.end:                                          ; preds = %for.cond16
  br label %for.inc23, !dbg !12800

for.inc23:                                        ; preds = %for.end
  %29 = load i32, i32* %vertex, align 4, !dbg !12801
  %inc24 = add i32 %29, 1, !dbg !12801
  store i32 %inc24, i32* %vertex, align 4, !dbg !12801
  br label %for.cond, !dbg !12802, !llvm.loop !12803

for.end25:                                        ; preds = %for.cond
  call void @llvm.dbg.declare(metadata i32* %line, metadata !12805, metadata !DIExpression()), !dbg !12807
  store i32 0, i32* %line, align 4, !dbg !12807
  br label %for.cond26, !dbg !12808

for.cond26:                                       ; preds = %for.inc43, %for.end25
  %30 = load i32, i32* %line, align 4, !dbg !12809
  %cmp27 = icmp ult i32 %30, 12, !dbg !12811
  br i1 %cmp27, label %for.body28, label %for.end45, !dbg !12812

for.body28:                                       ; preds = %for.cond26
  call void @llvm.dbg.declare(metadata i32* %d29, metadata !12813, metadata !DIExpression()), !dbg !12815
  store i32 0, i32* %d29, align 4, !dbg !12815
  br label %for.cond30, !dbg !12816

for.cond30:                                       ; preds = %for.inc40, %for.body28
  %31 = load i32, i32* %d29, align 4, !dbg !12817
  %32 = load i32, i32* %dofs_per_line, align 4, !dbg !12819
  %cmp31 = icmp ult i32 %31, %32, !dbg !12820
  br i1 %cmp31, label %for.body32, label %for.end42, !dbg !12821

for.body32:                                       ; preds = %for.cond30
  %33 = load %"class.dealii::MGDoFAccessor.40"*, %"class.dealii::MGDoFAccessor.40"** %accessor.addr, align 8, !dbg !12822
  %34 = load i32, i32* %line, align 4, !dbg !12823
  call void @_ZNK6dealii13MGDoFAccessorILi3ELi3ELi3EE4lineEj(%"class.dealii::TriaIterator"* sret %ref.tmp33, %"class.dealii::MGDoFAccessor.40"* %33, i32 %34), !dbg !12824
  %35 = bitcast %"class.dealii::TriaIterator"* %ref.tmp33 to %"class.dealii::TriaRawIterator"*, !dbg !12822
  %call34 = call %"class.dealii::MGDoFAccessor"* @_ZN6dealii15TriaRawIteratorINS_13MGDoFAccessorILi1ELi3ELi3EEEEptEv(%"class.dealii::TriaRawIterator"* %35), !dbg !12822
  %36 = load i32, i32* %level.addr, align 4, !dbg !12825
  %37 = load i32, i32* %d29, align 4, !dbg !12826
  %call35 = call i32 @_ZNK6dealii13MGDoFAccessorILi1ELi3ELi3EE12mg_dof_indexEij(%"class.dealii::MGDoFAccessor"* %call34, i32 %36, i32 %37), !dbg !12827
  %call37 = call i32* @_ZN9__gnu_cxx17__normal_iteratorIPjSt6vectorIjSaIjEEEppEi(%"class.__gnu_cxx::__normal_iterator"* %next, i32 0) #4, !dbg !12828
  %coerce.dive38 = getelementptr inbounds %"class.__gnu_cxx::__normal_iterator", %"class.__gnu_cxx::__normal_iterator"* %ref.tmp36, i32 0, i32 0, !dbg !12828
  store i32* %call37, i32** %coerce.dive38, align 8, !dbg !12828
  %call39 = call dereferenceable(4) i32* @_ZNK9__gnu_cxx17__normal_iteratorIPjSt6vectorIjSaIjEEEdeEv(%"class.__gnu_cxx::__normal_iterator"* %ref.tmp36) #4, !dbg !12829
  store i32 %call35, i32* %call39, align 4, !dbg !12830
  br label %for.inc40, !dbg !12829

for.inc40:                                        ; preds = %for.body32
  %38 = load i32, i32* %d29, align 4, !dbg !12831
  %inc41 = add i32 %38, 1, !dbg !12831
  store i32 %inc41, i32* %d29, align 4, !dbg !12831
  br label %for.cond30, !dbg !12832, !llvm.loop !12833

for.end42:                                        ; preds = %for.cond30
  br label %for.inc43, !dbg !12834

for.inc43:                                        ; preds = %for.end42
  %39 = load i32, i32* %line, align 4, !dbg !12835
  %inc44 = add i32 %39, 1, !dbg !12835
  store i32 %inc44, i32* %line, align 4, !dbg !12835
  br label %for.cond26, !dbg !12836, !llvm.loop !12837

for.end45:                                        ; preds = %for.cond26
  call void @llvm.dbg.declare(metadata i32* %quad, metadata !12839, metadata !DIExpression()), !dbg !12841
  store i32 0, i32* %quad, align 4, !dbg !12841
  br label %for.cond46, !dbg !12842

for.cond46:                                       ; preds = %for.inc63, %for.end45
  %40 = load i32, i32* %quad, align 4, !dbg !12843
  %cmp47 = icmp ult i32 %40, 6, !dbg !12845
  br i1 %cmp47, label %for.body48, label %for.end65, !dbg !12846

for.body48:                                       ; preds = %for.cond46
  call void @llvm.dbg.declare(metadata i32* %d49, metadata !12847, metadata !DIExpression()), !dbg !12849
  store i32 0, i32* %d49, align 4, !dbg !12849
  br label %for.cond50, !dbg !12850

for.cond50:                                       ; preds = %for.inc60, %for.body48
  %41 = load i32, i32* %d49, align 4, !dbg !12851
  %42 = load i32, i32* %dofs_per_quad, align 4, !dbg !12853
  %cmp51 = icmp ult i32 %41, %42, !dbg !12854
  br i1 %cmp51, label %for.body52, label %for.end62, !dbg !12855

for.body52:                                       ; preds = %for.cond50
  %43 = load %"class.dealii::MGDoFAccessor.40"*, %"class.dealii::MGDoFAccessor.40"** %accessor.addr, align 8, !dbg !12856
  %44 = load i32, i32* %quad, align 4, !dbg !12857
  call void @_ZNK6dealii13MGDoFAccessorILi3ELi3ELi3EE4quadEj(%"class.dealii::TriaIterator.169"* sret %ref.tmp53, %"class.dealii::MGDoFAccessor.40"* %43, i32 %44), !dbg !12858
  %45 = bitcast %"class.dealii::TriaIterator.169"* %ref.tmp53 to %"class.dealii::TriaRawIterator.170"*, !dbg !12856
  %call54 = call %"class.dealii::MGDoFAccessor.36"* @_ZN6dealii15TriaRawIteratorINS_13MGDoFAccessorILi2ELi3ELi3EEEEptEv(%"class.dealii::TriaRawIterator.170"* %45), !dbg !12856
  %46 = load i32, i32* %level.addr, align 4, !dbg !12859
  %47 = load i32, i32* %d49, align 4, !dbg !12860
  %call55 = call i32 @_ZNK6dealii13MGDoFAccessorILi2ELi3ELi3EE12mg_dof_indexEij(%"class.dealii::MGDoFAccessor.36"* %call54, i32 %46, i32 %47), !dbg !12861
  %call57 = call i32* @_ZN9__gnu_cxx17__normal_iteratorIPjSt6vectorIjSaIjEEEppEi(%"class.__gnu_cxx::__normal_iterator"* %next, i32 0) #4, !dbg !12862
  %coerce.dive58 = getelementptr inbounds %"class.__gnu_cxx::__normal_iterator", %"class.__gnu_cxx::__normal_iterator"* %ref.tmp56, i32 0, i32 0, !dbg !12862
  store i32* %call57, i32** %coerce.dive58, align 8, !dbg !12862
  %call59 = call dereferenceable(4) i32* @_ZNK9__gnu_cxx17__normal_iteratorIPjSt6vectorIjSaIjEEEdeEv(%"class.__gnu_cxx::__normal_iterator"* %ref.tmp56) #4, !dbg !12863
  store i32 %call55, i32* %call59, align 4, !dbg !12864
  br label %for.inc60, !dbg !12863

for.inc60:                                        ; preds = %for.body52
  %48 = load i32, i32* %d49, align 4, !dbg !12865
  %inc61 = add i32 %48, 1, !dbg !12865
  store i32 %inc61, i32* %d49, align 4, !dbg !12865
  br label %for.cond50, !dbg !12866, !llvm.loop !12867

for.end62:                                        ; preds = %for.cond50
  br label %for.inc63, !dbg !12868

for.inc63:                                        ; preds = %for.end62
  %49 = load i32, i32* %quad, align 4, !dbg !12869
  %inc64 = add i32 %49, 1, !dbg !12869
  store i32 %inc64, i32* %quad, align 4, !dbg !12869
  br label %for.cond46, !dbg !12870, !llvm.loop !12871

for.end65:                                        ; preds = %for.cond46
  call void @llvm.dbg.declare(metadata i32* %d66, metadata !12873, metadata !DIExpression()), !dbg !12875
  store i32 0, i32* %d66, align 4, !dbg !12875
  br label %for.cond67, !dbg !12876

for.cond67:                                       ; preds = %for.inc75, %for.end65
  %50 = load i32, i32* %d66, align 4, !dbg !12877
  %51 = load i32, i32* %dofs_per_hex, align 4, !dbg !12879
  %cmp68 = icmp ult i32 %50, %51, !dbg !12880
  br i1 %cmp68, label %for.body69, label %for.end77, !dbg !12881

for.body69:                                       ; preds = %for.cond67
  %52 = load %"class.dealii::MGDoFAccessor.40"*, %"class.dealii::MGDoFAccessor.40"** %accessor.addr, align 8, !dbg !12882
  %53 = load i32, i32* %level.addr, align 4, !dbg !12883
  %54 = load i32, i32* %d66, align 4, !dbg !12884
  %call70 = call i32 @_ZNK6dealii13MGDoFAccessorILi3ELi3ELi3EE12mg_dof_indexEij(%"class.dealii::MGDoFAccessor.40"* %52, i32 %53, i32 %54), !dbg !12885
  %call72 = call i32* @_ZN9__gnu_cxx17__normal_iteratorIPjSt6vectorIjSaIjEEEppEi(%"class.__gnu_cxx::__normal_iterator"* %next, i32 0) #4, !dbg !12886
  %coerce.dive73 = getelementptr inbounds %"class.__gnu_cxx::__normal_iterator", %"class.__gnu_cxx::__normal_iterator"* %ref.tmp71, i32 0, i32 0, !dbg !12886
  store i32* %call72, i32** %coerce.dive73, align 8, !dbg !12886
  %call74 = call dereferenceable(4) i32* @_ZNK9__gnu_cxx17__normal_iteratorIPjSt6vectorIjSaIjEEEdeEv(%"class.__gnu_cxx::__normal_iterator"* %ref.tmp71) #4, !dbg !12887
  store i32 %call70, i32* %call74, align 4, !dbg !12888
  br label %for.inc75, !dbg !12887

for.inc75:                                        ; preds = %for.body69
  %55 = load i32, i32* %d66, align 4, !dbg !12889
  %inc76 = add i32 %55, 1, !dbg !12889
  store i32 %inc76, i32* %d66, align 4, !dbg !12889
  br label %for.cond67, !dbg !12890, !llvm.loop !12891

for.end77:                                        ; preds = %for.cond67
  ret void, !dbg !12893
}

; Function Attrs: noinline uwtable
define weak_odr dso_local i32 @_ZNK6dealii13MGDoFAccessorILi3ELi3ELi3EE19mg_vertex_dof_indexEijj(%"class.dealii::MGDoFAccessor.40"* %this, i32 %level, i32 %vertex, i32 %i) #0 comdat align 2 !dbg !12894 {
entry:
  %this.addr = alloca %"class.dealii::MGDoFAccessor.40"*, align 8
  %level.addr = alloca i32, align 4
  %vertex.addr = alloca i32, align 4
  %i.addr = alloca i32, align 4
  store %"class.dealii::MGDoFAccessor.40"* %this, %"class.dealii::MGDoFAccessor.40"** %this.addr, align 8
  call void @llvm.dbg.declare(metadata %"class.dealii::MGDoFAccessor.40"** %this.addr, metadata !12895, metadata !DIExpression()), !dbg !12896
  store i32 %level, i32* %level.addr, align 4
  call void @llvm.dbg.declare(metadata i32* %level.addr, metadata !12897, metadata !DIExpression()), !dbg !12898
  store i32 %vertex, i32* %vertex.addr, align 4
  call void @llvm.dbg.declare(metadata i32* %vertex.addr, metadata !12899, metadata !DIExpression()), !dbg !12900
  store i32 %i, i32* %i.addr, align 4
  call void @llvm.dbg.declare(metadata i32* %i.addr, metadata !12901, metadata !DIExpression()), !dbg !12902
  %this1 = load %"class.dealii::MGDoFAccessor.40"*, %"class.dealii::MGDoFAccessor.40"** %this.addr, align 8
  %mg_dof_handler = getelementptr inbounds %"class.dealii::MGDoFAccessor.40", %"class.dealii::MGDoFAccessor.40"* %this1, i32 0, i32 1, !dbg !12903
  %0 = load %"class.dealii::MGDoFHandler"*, %"class.dealii::MGDoFHandler"** %mg_dof_handler, align 8, !dbg !12903
  %mg_vertex_dofs = getelementptr inbounds %"class.dealii::MGDoFHandler", %"class.dealii::MGDoFHandler"* %0, i32 0, i32 3, !dbg !12904
  %1 = bitcast %"class.dealii::MGDoFAccessor.40"* %this1 to %"class.dealii::TriaAccessor.42"*, !dbg !12905
  %2 = load i32, i32* %vertex.addr, align 4, !dbg !12906
  %call = call i32 @_ZNK6dealii12TriaAccessorILi3ELi3ELi3EE12vertex_indexEj(%"class.dealii::TriaAccessor.42"* %1, i32 %2), !dbg !12905
  %conv = zext i32 %call to i64, !dbg !12907
  %call2 = call dereferenceable(16) %"class.dealii::MGDoFHandler<3, 3>::MGVertexDoFs"* @_ZNSt6vectorIN6dealii12MGDoFHandlerILi3ELi3EE12MGVertexDoFsESaIS3_EEixEm(%"class.std::vector.28"* %mg_vertex_dofs, i64 %conv) #4, !dbg !12908
  %3 = load i32, i32* %level.addr, align 4, !dbg !12909
  %4 = load i32, i32* %i.addr, align 4, !dbg !12910
  %5 = bitcast %"class.dealii::MGDoFAccessor.40"* %this1 to %"class.dealii::DoFAccessor.41"*, !dbg !12911
  %dof_handler = getelementptr inbounds %"class.dealii::DoFAccessor.41", %"class.dealii::DoFAccessor.41"* %5, i32 0, i32 1, !dbg !12911
  %6 = load %"class.dealii::DoFHandler"*, %"class.dealii::DoFHandler"** %dof_handler, align 8, !dbg !12911
  %call3 = call dereferenceable(728) %"class.dealii::FiniteElement"* @_ZNK6dealii10DoFHandlerILi3ELi3EE6get_feEv(%"class.dealii::DoFHandler"* %6), !dbg !12912
  %7 = bitcast %"class.dealii::FiniteElement"* %call3 to i8*, !dbg !12913
  %add.ptr = getelementptr inbounds i8, i8* %7, i64 72, !dbg !12913
  %8 = bitcast i8* %add.ptr to %"class.dealii::FiniteElementData"*, !dbg !12913
  %dofs_per_vertex = getelementptr inbounds %"class.dealii::FiniteElementData", %"class.dealii::FiniteElementData"* %8, i32 0, i32 0, !dbg !12914
  %9 = load i32, i32* %dofs_per_vertex, align 8, !dbg !12914
  %call4 = call i32 @_ZNK6dealii12MGDoFHandlerILi3ELi3EE12MGVertexDoFs9get_indexEjjj(%"class.dealii::MGDoFHandler<3, 3>::MGVertexDoFs"* %call2, i32 %3, i32 %4, i32 %9), !dbg !12915
  ret i32 %call4, !dbg !12916
}

; Function Attrs: noinline uwtable
define linkonce_odr dso_local i32 @_ZNK6dealii12TriaAccessorILi3ELi3ELi3EE12vertex_indexEj(%"class.dealii::TriaAccessor.42"* %this, i32 %corner) #0 comdat align 2 !dbg !12917 {
entry:
  %this.addr = alloca %"class.dealii::TriaAccessor.42"*, align 8
  %corner.addr = alloca i32, align 4
  store %"class.dealii::TriaAccessor.42"* %this, %"class.dealii::TriaAccessor.42"** %this.addr, align 8
  call void @llvm.dbg.declare(metadata %"class.dealii::TriaAccessor.42"** %this.addr, metadata !12918, metadata !DIExpression()), !dbg !12920
  store i32 %corner, i32* %corner.addr, align 4
  call void @llvm.dbg.declare(metadata i32* %corner.addr, metadata !12921, metadata !DIExpression()), !dbg !12922
  %this1 = load %"class.dealii::TriaAccessor.42"*, %"class.dealii::TriaAccessor.42"** %this.addr, align 8
  %0 = load i32, i32* %corner.addr, align 4, !dbg !12923
  %call = call i32 @_ZN6dealii8internal12TriaAccessor14Implementation12vertex_indexILi3ELi3EEEjRKNS_12TriaAccessorILi3EXT_EXT0_EEEj(%"class.dealii::TriaAccessor.42"* dereferenceable(16) %this1, i32 %0), !dbg !12924
  ret i32 %call, !dbg !12925
}

; Function Attrs: noinline uwtable
define weak_odr dso_local i32 @_ZNK6dealii13MGDoFAccessorILi3ELi3ELi3EE12mg_dof_indexEij(%"class.dealii::MGDoFAccessor.40"* %this, i32 %level, i32 %i) #0 comdat align 2 !dbg !12926 {
entry:
  %this.addr = alloca %"class.dealii::MGDoFAccessor.40"*, align 8
  %level.addr = alloca i32, align 4
  %i.addr = alloca i32, align 4
  store %"class.dealii::MGDoFAccessor.40"* %this, %"class.dealii::MGDoFAccessor.40"** %this.addr, align 8
  call void @llvm.dbg.declare(metadata %"class.dealii::MGDoFAccessor.40"** %this.addr, metadata !12927, metadata !DIExpression()), !dbg !12928
  store i32 %level, i32* %level.addr, align 4
  call void @llvm.dbg.declare(metadata i32* %level.addr, metadata !12929, metadata !DIExpression()), !dbg !12930
  store i32 %i, i32* %i.addr, align 4
  call void @llvm.dbg.declare(metadata i32* %i.addr, metadata !12931, metadata !DIExpression()), !dbg !12932
  %this1 = load %"class.dealii::MGDoFAccessor.40"*, %"class.dealii::MGDoFAccessor.40"** %this.addr, align 8
  %mg_dof_handler = getelementptr inbounds %"class.dealii::MGDoFAccessor.40", %"class.dealii::MGDoFAccessor.40"* %this1, i32 0, i32 1, !dbg !12933
  %0 = load %"class.dealii::MGDoFHandler"*, %"class.dealii::MGDoFHandler"** %mg_dof_handler, align 8, !dbg !12933
  %1 = load i32, i32* %level.addr, align 4, !dbg !12934
  %2 = bitcast %"class.dealii::MGDoFAccessor.40"* %this1 to %"class.dealii::TriaAccessorBase.43"*, !dbg !12935
  %present_index = getelementptr inbounds %"class.dealii::TriaAccessorBase.43", %"class.dealii::TriaAccessorBase.43"* %2, i32 0, i32 1, !dbg !12935
  %3 = load i32, i32* %present_index, align 4, !dbg !12935
  %4 = load i32, i32* %i.addr, align 4, !dbg !12936
  %call = call i32 @_ZNK6dealii12MGDoFHandlerILi3ELi3EE13get_dof_indexILi3EEEjjjjj(%"class.dealii::MGDoFHandler"* %0, i32 %1, i32 %3, i32 0, i32 %4), !dbg !12937
  ret i32 %call, !dbg !12938
}

declare dso_local i32 @_ZNK6dealii12MGDoFHandlerILi3ELi3EE13get_dof_indexILi3EEEjjjjj(%"class.dealii::MGDoFHandler"*, i32, i32, i32, i32) #2

; Function Attrs: noinline uwtable
define weak_odr dso_local void @_ZNK6dealii13MGDoFAccessorILi3ELi3ELi3EE5childEj(%"class.dealii::TriaIterator.172"* noalias sret %agg.result, %"class.dealii::MGDoFAccessor.40"* %this, i32 %i) #0 comdat align 2 !dbg !12939 {
entry:
  %result.ptr = alloca i8*, align 8
  %this.addr = alloca %"class.dealii::MGDoFAccessor.40"*, align 8
  %i.addr = alloca i32, align 4
  %0 = bitcast %"class.dealii::TriaIterator.172"* %agg.result to i8*
  store i8* %0, i8** %result.ptr, align 8
  store %"class.dealii::MGDoFAccessor.40"* %this, %"class.dealii::MGDoFAccessor.40"** %this.addr, align 8
  call void @llvm.dbg.declare(metadata %"class.dealii::MGDoFAccessor.40"** %this.addr, metadata !12940, metadata !DIExpression()), !dbg !12941
  store i32 %i, i32* %i.addr, align 4
  call void @llvm.dbg.declare(metadata i32* %i.addr, metadata !12942, metadata !DIExpression()), !dbg !12943
  %this1 = load %"class.dealii::MGDoFAccessor.40"*, %"class.dealii::MGDoFAccessor.40"** %this.addr, align 8
  call void @llvm.dbg.declare(metadata i8** %result.ptr, metadata !12944, metadata !DIExpression(DW_OP_deref)), !dbg !12945
  %1 = bitcast %"class.dealii::MGDoFAccessor.40"* %this1 to %"class.dealii::TriaAccessorBase.43"*, !dbg !12946
  %tria = getelementptr inbounds %"class.dealii::TriaAccessorBase.43", %"class.dealii::TriaAccessorBase.43"* %1, i32 0, i32 2, !dbg !12946
  %2 = load %"class.dealii::Triangulation"*, %"class.dealii::Triangulation"** %tria, align 8, !dbg !12946
  %3 = bitcast %"class.dealii::MGDoFAccessor.40"* %this1 to %"class.dealii::TriaAccessorBase.43"*, !dbg !12947
  %call = call i32 @_ZNK6dealii16TriaAccessorBaseILi3ELi3ELi3EE5levelEv(%"class.dealii::TriaAccessorBase.43"* %3), !dbg !12947
  %add = add nsw i32 %call, 1, !dbg !12948
  %4 = bitcast %"class.dealii::MGDoFAccessor.40"* %this1 to %"class.dealii::TriaAccessor.42"*, !dbg !12949
  %5 = load i32, i32* %i.addr, align 4, !dbg !12950
  %call2 = call i32 @_ZNK6dealii12TriaAccessorILi3ELi3ELi3EE11child_indexEj(%"class.dealii::TriaAccessor.42"* %4, i32 %5), !dbg !12949
  %mg_dof_handler = getelementptr inbounds %"class.dealii::MGDoFAccessor.40", %"class.dealii::MGDoFAccessor.40"* %this1, i32 0, i32 1, !dbg !12951
  %6 = load %"class.dealii::MGDoFHandler"*, %"class.dealii::MGDoFHandler"** %mg_dof_handler, align 8, !dbg !12951
  call void @_ZN6dealii12TriaIteratorINS_13MGDoFAccessorILi3ELi3ELi3EEEEC2EPKNS_13TriangulationILi3ELi3EEEiiPKNS_12MGDoFHandlerILi3ELi3EEE(%"class.dealii::TriaIterator.172"* %agg.result, %"class.dealii::Triangulation"* %2, i32 %add, i32 %call2, %"class.dealii::MGDoFHandler"* %6), !dbg !12945
  ret void, !dbg !12952
}

; Function Attrs: noinline uwtable
define linkonce_odr dso_local i32 @_ZNK6dealii12TriaAccessorILi3ELi3ELi3EE11child_indexEj(%"class.dealii::TriaAccessor.42"* %this, i32 %i) #0 comdat align 2 !dbg !12953 {
entry:
  %this.addr = alloca %"class.dealii::TriaAccessor.42"*, align 8
  %i.addr = alloca i32, align 4
  %n_sets_of_two = alloca i32, align 4
  store %"class.dealii::TriaAccessor.42"* %this, %"class.dealii::TriaAccessor.42"** %this.addr, align 8
  call void @llvm.dbg.declare(metadata %"class.dealii::TriaAccessor.42"** %this.addr, metadata !12954, metadata !DIExpression()), !dbg !12955
  store i32 %i, i32* %i.addr, align 4
  call void @llvm.dbg.declare(metadata i32* %i.addr, metadata !12956, metadata !DIExpression()), !dbg !12957
  %this1 = load %"class.dealii::TriaAccessor.42"*, %"class.dealii::TriaAccessor.42"** %this.addr, align 8
  call void @llvm.dbg.declare(metadata i32* %n_sets_of_two, metadata !12958, metadata !DIExpression()), !dbg !12959
  store i32 4, i32* %n_sets_of_two, align 4, !dbg !12959
  %0 = bitcast %"class.dealii::TriaAccessor.42"* %this1 to %"class.dealii::TriaAccessorBase.43"*, !dbg !12960
  %call = call dereferenceable(224) %"class.dealii::internal::Triangulation::TriaObjects"* @_ZNK6dealii16TriaAccessorBaseILi3ELi3ELi3EE7objectsEv(%"class.dealii::TriaAccessorBase.43"* %0), !dbg !12960
  %children = getelementptr inbounds %"class.dealii::internal::Triangulation::TriaObjects", %"class.dealii::internal::Triangulation::TriaObjects"* %call, i32 0, i32 1, !dbg !12961
  %1 = bitcast %"class.dealii::TriaAccessor.42"* %this1 to %"class.dealii::TriaAccessorBase.43"*, !dbg !12962
  %present_index = getelementptr inbounds %"class.dealii::TriaAccessorBase.43", %"class.dealii::TriaAccessorBase.43"* %1, i32 0, i32 1, !dbg !12962
  %2 = load i32, i32* %present_index, align 4, !dbg !12962
  %mul = mul i32 4, %2, !dbg !12963
  %3 = load i32, i32* %i.addr, align 4, !dbg !12964
  %div = udiv i32 %3, 2, !dbg !12965
  %add = add i32 %mul, %div, !dbg !12966
  %conv = zext i32 %add to i64, !dbg !12967
  %call2 = call dereferenceable(4) i32* @_ZNSt6vectorIiSaIiEEixEm(%"class.std::vector.70"* %children, i64 %conv) #4, !dbg !12968
  %4 = load i32, i32* %call2, align 4, !dbg !12968
  %5 = load i32, i32* %i.addr, align 4, !dbg !12969
  %rem = urem i32 %5, 2, !dbg !12970
  %add3 = add i32 %4, %rem, !dbg !12971
  ret i32 %add3, !dbg !12972
}

; Function Attrs: noinline uwtable
define linkonce_odr dso_local void @_ZN6dealii12TriaIteratorINS_13MGDoFAccessorILi3ELi3ELi3EEEEC2EPKNS_13TriangulationILi3ELi3EEEiiPKNS_12MGDoFHandlerILi3ELi3EEE(%"class.dealii::TriaIterator.172"* %this, %"class.dealii::Triangulation"* %parent, i32 %level, i32 %index, %"class.dealii::MGDoFHandler"* %local_data) unnamed_addr #0 comdat align 2 !dbg !12973 {
entry:
  %this.addr = alloca %"class.dealii::TriaIterator.172"*, align 8
  %parent.addr = alloca %"class.dealii::Triangulation"*, align 8
  %level.addr = alloca i32, align 4
  %index.addr = alloca i32, align 4
  %local_data.addr = alloca %"class.dealii::MGDoFHandler"*, align 8
  store %"class.dealii::TriaIterator.172"* %this, %"class.dealii::TriaIterator.172"** %this.addr, align 8
  call void @llvm.dbg.declare(metadata %"class.dealii::TriaIterator.172"** %this.addr, metadata !12975, metadata !DIExpression()), !dbg !12977
  store %"class.dealii::Triangulation"* %parent, %"class.dealii::Triangulation"** %parent.addr, align 8
  call void @llvm.dbg.declare(metadata %"class.dealii::Triangulation"** %parent.addr, metadata !12978, metadata !DIExpression()), !dbg !12979
  store i32 %level, i32* %level.addr, align 4
  call void @llvm.dbg.declare(metadata i32* %level.addr, metadata !12980, metadata !DIExpression()), !dbg !12981
  store i32 %index, i32* %index.addr, align 4
  call void @llvm.dbg.declare(metadata i32* %index.addr, metadata !12982, metadata !DIExpression()), !dbg !12983
  store %"class.dealii::MGDoFHandler"* %local_data, %"class.dealii::MGDoFHandler"** %local_data.addr, align 8
  call void @llvm.dbg.declare(metadata %"class.dealii::MGDoFHandler"** %local_data.addr, metadata !12984, metadata !DIExpression()), !dbg !12985
  %this1 = load %"class.dealii::TriaIterator.172"*, %"class.dealii::TriaIterator.172"** %this.addr, align 8
  %0 = bitcast %"class.dealii::TriaIterator.172"* %this1 to %"class.dealii::TriaRawIterator.173"*, !dbg !12986
  %1 = load %"class.dealii::Triangulation"*, %"class.dealii::Triangulation"** %parent.addr, align 8, !dbg !12987
  %2 = load i32, i32* %level.addr, align 4, !dbg !12988
  %3 = load i32, i32* %index.addr, align 4, !dbg !12989
  %4 = load %"class.dealii::MGDoFHandler"*, %"class.dealii::MGDoFHandler"** %local_data.addr, align 8, !dbg !12990
  call void @_ZN6dealii15TriaRawIteratorINS_13MGDoFAccessorILi3ELi3ELi3EEEEC2EPKNS_13TriangulationILi3ELi3EEEiiPKNS_12MGDoFHandlerILi3ELi3EEE(%"class.dealii::TriaRawIterator.173"* %0, %"class.dealii::Triangulation"* %1, i32 %2, i32 %3, %"class.dealii::MGDoFHandler"* %4), !dbg !12991
  ret void, !dbg !12992
}

; Function Attrs: noinline uwtable
define weak_odr dso_local void @_ZNK6dealii13MGDoFAccessorILi3ELi3ELi3EE4lineEj(%"class.dealii::TriaIterator"* noalias sret %agg.result, %"class.dealii::MGDoFAccessor.40"* %this, i32 %i) #0 comdat align 2 !dbg !12993 {
entry:
  %result.ptr = alloca i8*, align 8
  %this.addr = alloca %"class.dealii::MGDoFAccessor.40"*, align 8
  %i.addr = alloca i32, align 4
  %0 = bitcast %"class.dealii::TriaIterator"* %agg.result to i8*
  store i8* %0, i8** %result.ptr, align 8
  store %"class.dealii::MGDoFAccessor.40"* %this, %"class.dealii::MGDoFAccessor.40"** %this.addr, align 8
  call void @llvm.dbg.declare(metadata %"class.dealii::MGDoFAccessor.40"** %this.addr, metadata !12994, metadata !DIExpression()), !dbg !12995
  store i32 %i, i32* %i.addr, align 4
  call void @llvm.dbg.declare(metadata i32* %i.addr, metadata !12996, metadata !DIExpression()), !dbg !12997
  %this1 = load %"class.dealii::MGDoFAccessor.40"*, %"class.dealii::MGDoFAccessor.40"** %this.addr, align 8
  %1 = bitcast %"class.dealii::MGDoFAccessor.40"* %this1 to %"class.dealii::TriaAccessorBase.43"*, !dbg !12998
  %tria = getelementptr inbounds %"class.dealii::TriaAccessorBase.43", %"class.dealii::TriaAccessorBase.43"* %1, i32 0, i32 2, !dbg !12998
  %2 = load %"class.dealii::Triangulation"*, %"class.dealii::Triangulation"** %tria, align 8, !dbg !12998
  %3 = bitcast %"class.dealii::MGDoFAccessor.40"* %this1 to %"class.dealii::TriaAccessor.42"*, !dbg !12999
  %4 = load i32, i32* %i.addr, align 4, !dbg !13000
  %call = call i32 @_ZNK6dealii12TriaAccessorILi3ELi3ELi3EE10line_indexEj(%"class.dealii::TriaAccessor.42"* %3, i32 %4), !dbg !12999
  %mg_dof_handler = getelementptr inbounds %"class.dealii::MGDoFAccessor.40", %"class.dealii::MGDoFAccessor.40"* %this1, i32 0, i32 1, !dbg !13001
  %5 = load %"class.dealii::MGDoFHandler"*, %"class.dealii::MGDoFHandler"** %mg_dof_handler, align 8, !dbg !13001
  call void @_ZN6dealii12TriaIteratorINS_13MGDoFAccessorILi1ELi3ELi3EEEEC1EPKNS_13TriangulationILi3ELi3EEEiiPKNS_12MGDoFHandlerILi3ELi3EEE(%"class.dealii::TriaIterator"* %agg.result, %"class.dealii::Triangulation"* %2, i32 0, i32 %call, %"class.dealii::MGDoFHandler"* %5), !dbg !13002
  ret void, !dbg !13003
}

; Function Attrs: noinline uwtable
define linkonce_odr dso_local i32 @_ZNK6dealii12TriaAccessorILi3ELi3ELi3EE10line_indexEj(%"class.dealii::TriaAccessor.42"* %this, i32 %i) #0 comdat align 2 !dbg !13004 {
entry:
  %this.addr = alloca %"class.dealii::TriaAccessor.42"*, align 8
  %i.addr = alloca i32, align 4
  store %"class.dealii::TriaAccessor.42"* %this, %"class.dealii::TriaAccessor.42"** %this.addr, align 8
  call void @llvm.dbg.declare(metadata %"class.dealii::TriaAccessor.42"** %this.addr, metadata !13005, metadata !DIExpression()), !dbg !13006
  store i32 %i, i32* %i.addr, align 4
  call void @llvm.dbg.declare(metadata i32* %i.addr, metadata !13007, metadata !DIExpression()), !dbg !13008
  %this1 = load %"class.dealii::TriaAccessor.42"*, %"class.dealii::TriaAccessor.42"** %this.addr, align 8
  %0 = load i32, i32* %i.addr, align 4, !dbg !13009
  %call = call i32 @_ZN6dealii8internal12TriaAccessor14Implementation10line_indexILi3ELi3EEEjRKNS_12TriaAccessorILi3EXT_EXT0_EEEj(%"class.dealii::TriaAccessor.42"* dereferenceable(16) %this1, i32 %0), !dbg !13010
  ret i32 %call, !dbg !13011
}

; Function Attrs: noinline uwtable
define weak_odr dso_local void @_ZNK6dealii13MGDoFAccessorILi3ELi3ELi3EE4quadEj(%"class.dealii::TriaIterator.169"* noalias sret %agg.result, %"class.dealii::MGDoFAccessor.40"* %this, i32 %i) #0 comdat align 2 !dbg !13012 {
entry:
  %result.ptr = alloca i8*, align 8
  %this.addr = alloca %"class.dealii::MGDoFAccessor.40"*, align 8
  %i.addr = alloca i32, align 4
  %0 = bitcast %"class.dealii::TriaIterator.169"* %agg.result to i8*
  store i8* %0, i8** %result.ptr, align 8
  store %"class.dealii::MGDoFAccessor.40"* %this, %"class.dealii::MGDoFAccessor.40"** %this.addr, align 8
  call void @llvm.dbg.declare(metadata %"class.dealii::MGDoFAccessor.40"** %this.addr, metadata !13013, metadata !DIExpression()), !dbg !13014
  store i32 %i, i32* %i.addr, align 4
  call void @llvm.dbg.declare(metadata i32* %i.addr, metadata !13015, metadata !DIExpression()), !dbg !13016
  %this1 = load %"class.dealii::MGDoFAccessor.40"*, %"class.dealii::MGDoFAccessor.40"** %this.addr, align 8
  %1 = bitcast %"class.dealii::MGDoFAccessor.40"* %this1 to %"class.dealii::TriaAccessorBase.43"*, !dbg !13017
  %tria = getelementptr inbounds %"class.dealii::TriaAccessorBase.43", %"class.dealii::TriaAccessorBase.43"* %1, i32 0, i32 2, !dbg !13017
  %2 = load %"class.dealii::Triangulation"*, %"class.dealii::Triangulation"** %tria, align 8, !dbg !13017
  %3 = bitcast %"class.dealii::MGDoFAccessor.40"* %this1 to %"class.dealii::TriaAccessor.42"*, !dbg !13018
  %4 = load i32, i32* %i.addr, align 4, !dbg !13019
  %call = call i32 @_ZNK6dealii12TriaAccessorILi3ELi3ELi3EE10quad_indexEj(%"class.dealii::TriaAccessor.42"* %3, i32 %4), !dbg !13018
  %mg_dof_handler = getelementptr inbounds %"class.dealii::MGDoFAccessor.40", %"class.dealii::MGDoFAccessor.40"* %this1, i32 0, i32 1, !dbg !13020
  %5 = load %"class.dealii::MGDoFHandler"*, %"class.dealii::MGDoFHandler"** %mg_dof_handler, align 8, !dbg !13020
  call void @_ZN6dealii12TriaIteratorINS_13MGDoFAccessorILi2ELi3ELi3EEEEC1EPKNS_13TriangulationILi3ELi3EEEiiPKNS_12MGDoFHandlerILi3ELi3EEE(%"class.dealii::TriaIterator.169"* %agg.result, %"class.dealii::Triangulation"* %2, i32 0, i32 %call, %"class.dealii::MGDoFHandler"* %5), !dbg !13021
  ret void, !dbg !13022
}

; Function Attrs: noinline uwtable
define linkonce_odr dso_local i32 @_ZNK6dealii12TriaAccessorILi3ELi3ELi3EE10quad_indexEj(%"class.dealii::TriaAccessor.42"* %this, i32 %i) #0 comdat align 2 !dbg !13023 {
entry:
  %this.addr = alloca %"class.dealii::TriaAccessor.42"*, align 8
  %i.addr = alloca i32, align 4
  store %"class.dealii::TriaAccessor.42"* %this, %"class.dealii::TriaAccessor.42"** %this.addr, align 8
  call void @llvm.dbg.declare(metadata %"class.dealii::TriaAccessor.42"** %this.addr, metadata !13024, metadata !DIExpression()), !dbg !13025
  store i32 %i, i32* %i.addr, align 4
  call void @llvm.dbg.declare(metadata i32* %i.addr, metadata !13026, metadata !DIExpression()), !dbg !13027
  %this1 = load %"class.dealii::TriaAccessor.42"*, %"class.dealii::TriaAccessor.42"** %this.addr, align 8
  %0 = load i32, i32* %i.addr, align 4, !dbg !13028
  %call = call i32 @_ZN6dealii8internal12TriaAccessor14Implementation10quad_indexILi3ELi3EEEjRKNS_12TriaAccessorILi3EXT_EXT0_EEEj(%"class.dealii::TriaAccessor.42"* dereferenceable(16) %this1, i32 %0), !dbg !13029
  ret i32 %call, !dbg !13030
}

; Function Attrs: noinline uwtable
define weak_odr dso_local void @_ZN6dealii13MGDoFAccessorILi3ELi3ELi3EE9copy_fromERKS1_(%"class.dealii::MGDoFAccessor.40"* %this, %"class.dealii::MGDoFAccessor.40"* dereferenceable(32) %a) #0 comdat align 2 !dbg !13031 {
entry:
  %this.addr = alloca %"class.dealii::MGDoFAccessor.40"*, align 8
  %a.addr = alloca %"class.dealii::MGDoFAccessor.40"*, align 8
  store %"class.dealii::MGDoFAccessor.40"* %this, %"class.dealii::MGDoFAccessor.40"** %this.addr, align 8
  call void @llvm.dbg.declare(metadata %"class.dealii::MGDoFAccessor.40"** %this.addr, metadata !13032, metadata !DIExpression()), !dbg !13033
  store %"class.dealii::MGDoFAccessor.40"* %a, %"class.dealii::MGDoFAccessor.40"** %a.addr, align 8
  call void @llvm.dbg.declare(metadata %"class.dealii::MGDoFAccessor.40"** %a.addr, metadata !13034, metadata !DIExpression()), !dbg !13035
  %this1 = load %"class.dealii::MGDoFAccessor.40"*, %"class.dealii::MGDoFAccessor.40"** %this.addr, align 8
  %0 = bitcast %"class.dealii::MGDoFAccessor.40"* %this1 to %"class.dealii::DoFAccessor.41"*, !dbg !13036
  %1 = load %"class.dealii::MGDoFAccessor.40"*, %"class.dealii::MGDoFAccessor.40"** %a.addr, align 8, !dbg !13037
  %2 = bitcast %"class.dealii::MGDoFAccessor.40"* %1 to %"class.dealii::DoFAccessor.41"*, !dbg !13037
  call void @_ZN6dealii11DoFAccessorILi3ENS_10DoFHandlerILi3ELi3EEEE9copy_fromERKS3_(%"class.dealii::DoFAccessor.41"* %0, %"class.dealii::DoFAccessor.41"* dereferenceable(24) %2), !dbg !13036
  %3 = load %"class.dealii::MGDoFAccessor.40"*, %"class.dealii::MGDoFAccessor.40"** %a.addr, align 8, !dbg !13038
  %mg_dof_handler = getelementptr inbounds %"class.dealii::MGDoFAccessor.40", %"class.dealii::MGDoFAccessor.40"* %3, i32 0, i32 1, !dbg !13039
  %4 = load %"class.dealii::MGDoFHandler"*, %"class.dealii::MGDoFHandler"** %mg_dof_handler, align 8, !dbg !13039
  call void @_ZN6dealii13MGDoFAccessorILi3ELi3ELi3EE18set_mg_dof_handlerEPNS_12MGDoFHandlerILi3ELi3EEE(%"class.dealii::MGDoFAccessor.40"* %this1, %"class.dealii::MGDoFHandler"* %4), !dbg !13040
  ret void, !dbg !13041
}

; Function Attrs: noinline uwtable
define linkonce_odr dso_local void @_ZN6dealii11DoFAccessorILi3ENS_10DoFHandlerILi3ELi3EEEE9copy_fromERKS3_(%"class.dealii::DoFAccessor.41"* %this, %"class.dealii::DoFAccessor.41"* dereferenceable(24) %a) #0 comdat align 2 !dbg !13042 {
entry:
  %this.addr = alloca %"class.dealii::DoFAccessor.41"*, align 8
  %a.addr = alloca %"class.dealii::DoFAccessor.41"*, align 8
  store %"class.dealii::DoFAccessor.41"* %this, %"class.dealii::DoFAccessor.41"** %this.addr, align 8
  call void @llvm.dbg.declare(metadata %"class.dealii::DoFAccessor.41"** %this.addr, metadata !13043, metadata !DIExpression()), !dbg !13045
  store %"class.dealii::DoFAccessor.41"* %a, %"class.dealii::DoFAccessor.41"** %a.addr, align 8
  call void @llvm.dbg.declare(metadata %"class.dealii::DoFAccessor.41"** %a.addr, metadata !13046, metadata !DIExpression()), !dbg !13047
  %this1 = load %"class.dealii::DoFAccessor.41"*, %"class.dealii::DoFAccessor.41"** %this.addr, align 8
  %0 = bitcast %"class.dealii::DoFAccessor.41"* %this1 to %"class.dealii::CellAccessor"*, !dbg !13048
  %1 = bitcast %"class.dealii::CellAccessor"* %0 to %"class.dealii::TriaAccessorBase.43"*, !dbg !13048
  %2 = load %"class.dealii::DoFAccessor.41"*, %"class.dealii::DoFAccessor.41"** %a.addr, align 8, !dbg !13049
  %3 = bitcast %"class.dealii::DoFAccessor.41"* %2 to %"class.dealii::TriaAccessorBase.43"*, !dbg !13049
  call void @_ZN6dealii16TriaAccessorBaseILi3ELi3ELi3EE9copy_fromERKS1_(%"class.dealii::TriaAccessorBase.43"* %1, %"class.dealii::TriaAccessorBase.43"* dereferenceable(16) %3), !dbg !13048
  %4 = load %"class.dealii::DoFAccessor.41"*, %"class.dealii::DoFAccessor.41"** %a.addr, align 8, !dbg !13050
  %dof_handler = getelementptr inbounds %"class.dealii::DoFAccessor.41", %"class.dealii::DoFAccessor.41"* %4, i32 0, i32 1, !dbg !13051
  %5 = load %"class.dealii::DoFHandler"*, %"class.dealii::DoFHandler"** %dof_handler, align 8, !dbg !13051
  call void @_ZN6dealii11DoFAccessorILi3ENS_10DoFHandlerILi3ELi3EEEE15set_dof_handlerEPS2_(%"class.dealii::DoFAccessor.41"* %this1, %"class.dealii::DoFHandler"* %5), !dbg !13052
  ret void, !dbg !13053
}

; Function Attrs: noinline nounwind uwtable
define weak_odr dso_local void @_ZN6dealii13MGDoFAccessorILi3ELi3ELi3EE18set_mg_dof_handlerEPNS_12MGDoFHandlerILi3ELi3EEE(%"class.dealii::MGDoFAccessor.40"* %this, %"class.dealii::MGDoFHandler"* %dh) #1 comdat align 2 !dbg !13054 {
entry:
  %this.addr = alloca %"class.dealii::MGDoFAccessor.40"*, align 8
  %dh.addr = alloca %"class.dealii::MGDoFHandler"*, align 8
  store %"class.dealii::MGDoFAccessor.40"* %this, %"class.dealii::MGDoFAccessor.40"** %this.addr, align 8
  call void @llvm.dbg.declare(metadata %"class.dealii::MGDoFAccessor.40"** %this.addr, metadata !13055, metadata !DIExpression()), !dbg !13056
  store %"class.dealii::MGDoFHandler"* %dh, %"class.dealii::MGDoFHandler"** %dh.addr, align 8
  call void @llvm.dbg.declare(metadata %"class.dealii::MGDoFHandler"** %dh.addr, metadata !13057, metadata !DIExpression()), !dbg !13058
  %this1 = load %"class.dealii::MGDoFAccessor.40"*, %"class.dealii::MGDoFAccessor.40"** %this.addr, align 8
  %0 = load %"class.dealii::MGDoFHandler"*, %"class.dealii::MGDoFHandler"** %dh.addr, align 8, !dbg !13059
  %mg_dof_handler = getelementptr inbounds %"class.dealii::MGDoFAccessor.40", %"class.dealii::MGDoFAccessor.40"* %this1, i32 0, i32 1, !dbg !13060
  store %"class.dealii::MGDoFHandler"* %0, %"class.dealii::MGDoFHandler"** %mg_dof_handler, align 8, !dbg !13061
  ret void, !dbg !13062
}

; Function Attrs: noinline uwtable
define weak_odr dso_local void @_ZNK6dealii13MGDoFAccessorILi3ELi3ELi3EE23set_mg_vertex_dof_indexEijjj(%"class.dealii::MGDoFAccessor.40"* %this, i32 %level, i32 %vertex, i32 %i, i32 %index) #0 comdat align 2 !dbg !13063 {
entry:
  %this.addr = alloca %"class.dealii::MGDoFAccessor.40"*, align 8
  %level.addr = alloca i32, align 4
  %vertex.addr = alloca i32, align 4
  %i.addr = alloca i32, align 4
  %index.addr = alloca i32, align 4
  store %"class.dealii::MGDoFAccessor.40"* %this, %"class.dealii::MGDoFAccessor.40"** %this.addr, align 8
  call void @llvm.dbg.declare(metadata %"class.dealii::MGDoFAccessor.40"** %this.addr, metadata !13064, metadata !DIExpression()), !dbg !13065
  store i32 %level, i32* %level.addr, align 4
  call void @llvm.dbg.declare(metadata i32* %level.addr, metadata !13066, metadata !DIExpression()), !dbg !13067
  store i32 %vertex, i32* %vertex.addr, align 4
  call void @llvm.dbg.declare(metadata i32* %vertex.addr, metadata !13068, metadata !DIExpression()), !dbg !13069
  store i32 %i, i32* %i.addr, align 4
  call void @llvm.dbg.declare(metadata i32* %i.addr, metadata !13070, metadata !DIExpression()), !dbg !13071
  store i32 %index, i32* %index.addr, align 4
  call void @llvm.dbg.declare(metadata i32* %index.addr, metadata !13072, metadata !DIExpression()), !dbg !13073
  %this1 = load %"class.dealii::MGDoFAccessor.40"*, %"class.dealii::MGDoFAccessor.40"** %this.addr, align 8
  %mg_dof_handler = getelementptr inbounds %"class.dealii::MGDoFAccessor.40", %"class.dealii::MGDoFAccessor.40"* %this1, i32 0, i32 1, !dbg !13074
  %0 = load %"class.dealii::MGDoFHandler"*, %"class.dealii::MGDoFHandler"** %mg_dof_handler, align 8, !dbg !13074
  %mg_vertex_dofs = getelementptr inbounds %"class.dealii::MGDoFHandler", %"class.dealii::MGDoFHandler"* %0, i32 0, i32 3, !dbg !13075
  %1 = bitcast %"class.dealii::MGDoFAccessor.40"* %this1 to %"class.dealii::TriaAccessor.42"*, !dbg !13076
  %2 = load i32, i32* %vertex.addr, align 4, !dbg !13077
  %call = call i32 @_ZNK6dealii12TriaAccessorILi3ELi3ELi3EE12vertex_indexEj(%"class.dealii::TriaAccessor.42"* %1, i32 %2), !dbg !13076
  %conv = zext i32 %call to i64, !dbg !13078
  %call2 = call dereferenceable(16) %"class.dealii::MGDoFHandler<3, 3>::MGVertexDoFs"* @_ZNSt6vectorIN6dealii12MGDoFHandlerILi3ELi3EE12MGVertexDoFsESaIS3_EEixEm(%"class.std::vector.28"* %mg_vertex_dofs, i64 %conv) #4, !dbg !13079
  %3 = load i32, i32* %level.addr, align 4, !dbg !13080
  %4 = load i32, i32* %i.addr, align 4, !dbg !13081
  %5 = bitcast %"class.dealii::MGDoFAccessor.40"* %this1 to %"class.dealii::DoFAccessor.41"*, !dbg !13082
  %dof_handler = getelementptr inbounds %"class.dealii::DoFAccessor.41", %"class.dealii::DoFAccessor.41"* %5, i32 0, i32 1, !dbg !13082
  %6 = load %"class.dealii::DoFHandler"*, %"class.dealii::DoFHandler"** %dof_handler, align 8, !dbg !13082
  %call3 = call dereferenceable(728) %"class.dealii::FiniteElement"* @_ZNK6dealii10DoFHandlerILi3ELi3EE6get_feEv(%"class.dealii::DoFHandler"* %6), !dbg !13083
  %7 = bitcast %"class.dealii::FiniteElement"* %call3 to i8*, !dbg !13084
  %add.ptr = getelementptr inbounds i8, i8* %7, i64 72, !dbg !13084
  %8 = bitcast i8* %add.ptr to %"class.dealii::FiniteElementData"*, !dbg !13084
  %dofs_per_vertex = getelementptr inbounds %"class.dealii::FiniteElementData", %"class.dealii::FiniteElementData"* %8, i32 0, i32 0, !dbg !13085
  %9 = load i32, i32* %dofs_per_vertex, align 8, !dbg !13085
  %10 = load i32, i32* %index.addr, align 4, !dbg !13086
  call void @_ZN6dealii12MGDoFHandlerILi3ELi3EE12MGVertexDoFs9set_indexEjjjj(%"class.dealii::MGDoFHandler<3, 3>::MGVertexDoFs"* %call2, i32 %3, i32 %4, i32 %9, i32 %10), !dbg !13087
  ret void, !dbg !13088
}

; Function Attrs: noinline uwtable
define weak_odr dso_local void @_ZNK6dealii13MGDoFAccessorILi3ELi3ELi3EE16set_mg_dof_indexEijj(%"class.dealii::MGDoFAccessor.40"* %this, i32 %level, i32 %i, i32 %index) #0 comdat align 2 !dbg !13089 {
entry:
  %this.addr = alloca %"class.dealii::MGDoFAccessor.40"*, align 8
  %level.addr = alloca i32, align 4
  %i.addr = alloca i32, align 4
  %index.addr = alloca i32, align 4
  store %"class.dealii::MGDoFAccessor.40"* %this, %"class.dealii::MGDoFAccessor.40"** %this.addr, align 8
  call void @llvm.dbg.declare(metadata %"class.dealii::MGDoFAccessor.40"** %this.addr, metadata !13090, metadata !DIExpression()), !dbg !13091
  store i32 %level, i32* %level.addr, align 4
  call void @llvm.dbg.declare(metadata i32* %level.addr, metadata !13092, metadata !DIExpression()), !dbg !13093
  store i32 %i, i32* %i.addr, align 4
  call void @llvm.dbg.declare(metadata i32* %i.addr, metadata !13094, metadata !DIExpression()), !dbg !13095
  store i32 %index, i32* %index.addr, align 4
  call void @llvm.dbg.declare(metadata i32* %index.addr, metadata !13096, metadata !DIExpression()), !dbg !13097
  %this1 = load %"class.dealii::MGDoFAccessor.40"*, %"class.dealii::MGDoFAccessor.40"** %this.addr, align 8
  %mg_dof_handler = getelementptr inbounds %"class.dealii::MGDoFAccessor.40", %"class.dealii::MGDoFAccessor.40"* %this1, i32 0, i32 1, !dbg !13098
  %0 = load %"class.dealii::MGDoFHandler"*, %"class.dealii::MGDoFHandler"** %mg_dof_handler, align 8, !dbg !13098
  %1 = load i32, i32* %level.addr, align 4, !dbg !13099
  %2 = bitcast %"class.dealii::MGDoFAccessor.40"* %this1 to %"class.dealii::TriaAccessorBase.43"*, !dbg !13100
  %present_index = getelementptr inbounds %"class.dealii::TriaAccessorBase.43", %"class.dealii::TriaAccessorBase.43"* %2, i32 0, i32 1, !dbg !13100
  %3 = load i32, i32* %present_index, align 4, !dbg !13100
  %4 = load i32, i32* %i.addr, align 4, !dbg !13101
  %5 = load i32, i32* %index.addr, align 4, !dbg !13102
  call void @_ZNK6dealii12MGDoFHandlerILi3ELi3EE13set_dof_indexILi3EEEvjjjjj(%"class.dealii::MGDoFHandler"* %0, i32 %1, i32 %3, i32 0, i32 %4, i32 %5), !dbg !13103
  ret void, !dbg !13104
}

declare dso_local void @_ZNK6dealii12MGDoFHandlerILi3ELi3EE13set_dof_indexILi3EEEvjjjjj(%"class.dealii::MGDoFHandler"*, i32, i32, i32, i32, i32) #2

; Function Attrs: noinline uwtable
define weak_odr dso_local dereferenceable(32) %"class.dealii::MGDoFAccessor.40"* @_ZN6dealii13MGDoFAccessorILi3ELi3ELi3EEaSERKS1_(%"class.dealii::MGDoFAccessor.40"* %this, %"class.dealii::MGDoFAccessor.40"* dereferenceable(32) %da) #0 comdat align 2 !dbg !13105 {
entry:
  %this.addr = alloca %"class.dealii::MGDoFAccessor.40"*, align 8
  %da.addr = alloca %"class.dealii::MGDoFAccessor.40"*, align 8
  store %"class.dealii::MGDoFAccessor.40"* %this, %"class.dealii::MGDoFAccessor.40"** %this.addr, align 8
  call void @llvm.dbg.declare(metadata %"class.dealii::MGDoFAccessor.40"** %this.addr, metadata !13106, metadata !DIExpression()), !dbg !13107
  store %"class.dealii::MGDoFAccessor.40"* %da, %"class.dealii::MGDoFAccessor.40"** %da.addr, align 8
  call void @llvm.dbg.declare(metadata %"class.dealii::MGDoFAccessor.40"** %da.addr, metadata !13108, metadata !DIExpression()), !dbg !13109
  %this1 = load %"class.dealii::MGDoFAccessor.40"*, %"class.dealii::MGDoFAccessor.40"** %this.addr, align 8
  %0 = bitcast %"class.dealii::MGDoFAccessor.40"* %this1 to %"class.dealii::DoFCellAccessor"*, !dbg !13110
  %1 = bitcast %"class.dealii::MGDoFAccessor.40"* %this1 to %"class.dealii::DoFCellAccessor"*, !dbg !13111
  %call = call dereferenceable(24) %"class.dealii::DoFCellAccessor"* @_ZN6dealii15DoFCellAccessorINS_10DoFHandlerILi3ELi3EEEEaSERKS3_(%"class.dealii::DoFCellAccessor"* %0, %"class.dealii::DoFCellAccessor"* dereferenceable(24) %1), !dbg !13110
  %2 = bitcast %"class.dealii::MGDoFAccessor.40"* %this1 to %"class.dealii::DoFAccessor.41"*, !dbg !13112
  %3 = load %"class.dealii::MGDoFAccessor.40"*, %"class.dealii::MGDoFAccessor.40"** %da.addr, align 8, !dbg !13113
  %mg_dof_handler = getelementptr inbounds %"class.dealii::MGDoFAccessor.40", %"class.dealii::MGDoFAccessor.40"* %3, i32 0, i32 1, !dbg !13114
  %4 = load %"class.dealii::MGDoFHandler"*, %"class.dealii::MGDoFHandler"** %mg_dof_handler, align 8, !dbg !13114
  %5 = bitcast %"class.dealii::MGDoFHandler"* %4 to %"class.dealii::DoFHandler"*, !dbg !13113
  call void @_ZN6dealii11DoFAccessorILi3ENS_10DoFHandlerILi3ELi3EEEE15set_dof_handlerEPS2_(%"class.dealii::DoFAccessor.41"* %2, %"class.dealii::DoFHandler"* %5), !dbg !13112
  ret %"class.dealii::MGDoFAccessor.40"* %this1, !dbg !13115
}

; Function Attrs: noinline uwtable
define linkonce_odr dso_local dereferenceable(24) %"class.dealii::DoFCellAccessor"* @_ZN6dealii15DoFCellAccessorINS_10DoFHandlerILi3ELi3EEEEaSERKS3_(%"class.dealii::DoFCellAccessor"* %this, %"class.dealii::DoFCellAccessor"* dereferenceable(24) %0) #0 comdat align 2 !dbg !13116 {
entry:
  %this.addr = alloca %"class.dealii::DoFCellAccessor"*, align 8
  %.addr = alloca %"class.dealii::DoFCellAccessor"*, align 8
  store %"class.dealii::DoFCellAccessor"* %this, %"class.dealii::DoFCellAccessor"** %this.addr, align 8
  call void @llvm.dbg.declare(metadata %"class.dealii::DoFCellAccessor"** %this.addr, metadata !13122, metadata !DIExpression()), !dbg !13123
  store %"class.dealii::DoFCellAccessor"* %0, %"class.dealii::DoFCellAccessor"** %.addr, align 8
  call void @llvm.dbg.declare(metadata %"class.dealii::DoFCellAccessor"** %.addr, metadata !13124, metadata !DIExpression()), !dbg !13123
  %this1 = load %"class.dealii::DoFCellAccessor"*, %"class.dealii::DoFCellAccessor"** %this.addr, align 8
  %1 = bitcast %"class.dealii::DoFCellAccessor"* %this1 to %"class.dealii::DoFAccessor.41"*, !dbg !13125
  %2 = load %"class.dealii::DoFCellAccessor"*, %"class.dealii::DoFCellAccessor"** %.addr, align 8, !dbg !13125
  %3 = bitcast %"class.dealii::DoFCellAccessor"* %2 to %"class.dealii::DoFAccessor.41"*, !dbg !13125
  %call = call dereferenceable(24) %"class.dealii::DoFAccessor.41"* @_ZN6dealii11DoFAccessorILi3ENS_10DoFHandlerILi3ELi3EEEEaSERKS3_(%"class.dealii::DoFAccessor.41"* %1, %"class.dealii::DoFAccessor.41"* dereferenceable(24) %3), !dbg !13125
  ret %"class.dealii::DoFCellAccessor"* %this1, !dbg !13125
}

; Function Attrs: noinline nounwind uwtable
define linkonce_odr dso_local void @_ZN6dealii11DoFAccessorILi3ENS_10DoFHandlerILi3ELi3EEEE15set_dof_handlerEPS2_(%"class.dealii::DoFAccessor.41"* %this, %"class.dealii::DoFHandler"* %dh) #1 comdat align 2 !dbg !13127 {
entry:
  %this.addr = alloca %"class.dealii::DoFAccessor.41"*, align 8
  %dh.addr = alloca %"class.dealii::DoFHandler"*, align 8
  store %"class.dealii::DoFAccessor.41"* %this, %"class.dealii::DoFAccessor.41"** %this.addr, align 8
  call void @llvm.dbg.declare(metadata %"class.dealii::DoFAccessor.41"** %this.addr, metadata !13128, metadata !DIExpression()), !dbg !13129
  store %"class.dealii::DoFHandler"* %dh, %"class.dealii::DoFHandler"** %dh.addr, align 8
  call void @llvm.dbg.declare(metadata %"class.dealii::DoFHandler"** %dh.addr, metadata !13130, metadata !DIExpression()), !dbg !13131
  %this1 = load %"class.dealii::DoFAccessor.41"*, %"class.dealii::DoFAccessor.41"** %this.addr, align 8
  %0 = load %"class.dealii::DoFHandler"*, %"class.dealii::DoFHandler"** %dh.addr, align 8, !dbg !13132
  %dof_handler = getelementptr inbounds %"class.dealii::DoFAccessor.41", %"class.dealii::DoFAccessor.41"* %this1, i32 0, i32 1, !dbg !13133
  store %"class.dealii::DoFHandler"* %0, %"class.dealii::DoFHandler"** %dof_handler, align 8, !dbg !13134
  ret void, !dbg !13135
}

; Function Attrs: noinline uwtable
define weak_odr dso_local void @_ZN6dealii17MGDoFCellAccessorILi3ELi3EEC2EPKNS_13TriangulationILi3ELi3EEEiiPKNS_12MGDoFHandlerILi3ELi3EEE(%"class.dealii::MGDoFCellAccessor"* %this, %"class.dealii::Triangulation"* %tria, i32 %level, i32 %index, %"class.dealii::MGDoFHandler"* %local_data) unnamed_addr #0 comdat($_ZN6dealii17MGDoFCellAccessorILi3ELi3EEC5EPKNS_13TriangulationILi3ELi3EEEiiPKNS_12MGDoFHandlerILi3ELi3EEE) align 2 !dbg !13136 {
entry:
  %this.addr = alloca %"class.dealii::MGDoFCellAccessor"*, align 8
  %tria.addr = alloca %"class.dealii::Triangulation"*, align 8
  %level.addr = alloca i32, align 4
  %index.addr = alloca i32, align 4
  %local_data.addr = alloca %"class.dealii::MGDoFHandler"*, align 8
  store %"class.dealii::MGDoFCellAccessor"* %this, %"class.dealii::MGDoFCellAccessor"** %this.addr, align 8
  call void @llvm.dbg.declare(metadata %"class.dealii::MGDoFCellAccessor"** %this.addr, metadata !13137, metadata !DIExpression()), !dbg !13138
  store %"class.dealii::Triangulation"* %tria, %"class.dealii::Triangulation"** %tria.addr, align 8
  call void @llvm.dbg.declare(metadata %"class.dealii::Triangulation"** %tria.addr, metadata !13139, metadata !DIExpression()), !dbg !13140
  store i32 %level, i32* %level.addr, align 4
  call void @llvm.dbg.declare(metadata i32* %level.addr, metadata !13141, metadata !DIExpression()), !dbg !13142
  store i32 %index, i32* %index.addr, align 4
  call void @llvm.dbg.declare(metadata i32* %index.addr, metadata !13143, metadata !DIExpression()), !dbg !13144
  store %"class.dealii::MGDoFHandler"* %local_data, %"class.dealii::MGDoFHandler"** %local_data.addr, align 8
  call void @llvm.dbg.declare(metadata %"class.dealii::MGDoFHandler"** %local_data.addr, metadata !13145, metadata !DIExpression()), !dbg !13146
  %this1 = load %"class.dealii::MGDoFCellAccessor"*, %"class.dealii::MGDoFCellAccessor"** %this.addr, align 8
  %0 = bitcast %"class.dealii::MGDoFCellAccessor"* %this1 to %"class.dealii::MGDoFAccessor.40"*, !dbg !13147
  %1 = load %"class.dealii::Triangulation"*, %"class.dealii::Triangulation"** %tria.addr, align 8, !dbg !13148
  %2 = load i32, i32* %level.addr, align 4, !dbg !13149
  %3 = load i32, i32* %index.addr, align 4, !dbg !13150
  %4 = load %"class.dealii::MGDoFHandler"*, %"class.dealii::MGDoFHandler"** %local_data.addr, align 8, !dbg !13151
  call void @_ZN6dealii13MGDoFAccessorILi3ELi3ELi3EEC2EPKNS_13TriangulationILi3ELi3EEEiiPKNS_12MGDoFHandlerILi3ELi3EEE(%"class.dealii::MGDoFAccessor.40"* %0, %"class.dealii::Triangulation"* %1, i32 %2, i32 %3, %"class.dealii::MGDoFHandler"* %4), !dbg !13152
  ret void, !dbg !13153
}

; Function Attrs: noinline uwtable
define weak_odr dso_local void @_ZNK6dealii17MGDoFCellAccessorILi3ELi3EE18get_mg_dof_indicesERSt6vectorIjSaIjEE(%"class.dealii::MGDoFCellAccessor"* %this, %"class.std::vector.21"* dereferenceable(24) %dof_indices) #0 comdat align 2 !dbg !13154 {
entry:
  %this.addr = alloca %"class.dealii::MGDoFCellAccessor"*, align 8
  %dof_indices.addr = alloca %"class.std::vector.21"*, align 8
  store %"class.dealii::MGDoFCellAccessor"* %this, %"class.dealii::MGDoFCellAccessor"** %this.addr, align 8
  call void @llvm.dbg.declare(metadata %"class.dealii::MGDoFCellAccessor"** %this.addr, metadata !13155, metadata !DIExpression()), !dbg !13156
  store %"class.std::vector.21"* %dof_indices, %"class.std::vector.21"** %dof_indices.addr, align 8
  call void @llvm.dbg.declare(metadata %"class.std::vector.21"** %dof_indices.addr, metadata !13157, metadata !DIExpression()), !dbg !13158
  %this1 = load %"class.dealii::MGDoFCellAccessor"*, %"class.dealii::MGDoFCellAccessor"** %this.addr, align 8
  %0 = bitcast %"class.dealii::MGDoFCellAccessor"* %this1 to %"class.dealii::MGDoFAccessor.40"*, !dbg !13159
  %1 = bitcast %"class.dealii::MGDoFCellAccessor"* %this1 to %"class.dealii::TriaAccessorBase.43"*, !dbg !13160
  %call = call i32 @_ZNK6dealii16TriaAccessorBaseILi3ELi3ELi3EE5levelEv(%"class.dealii::TriaAccessorBase.43"* %1), !dbg !13160
  %2 = load %"class.std::vector.21"*, %"class.std::vector.21"** %dof_indices.addr, align 8, !dbg !13161
  call void @_ZNK6dealii13MGDoFAccessorILi3ELi3ELi3EE18get_mg_dof_indicesEiRSt6vectorIjSaIjEE(%"class.dealii::MGDoFAccessor.40"* %0, i32 %call, %"class.std::vector.21"* dereferenceable(24) %2), !dbg !13159
  ret void, !dbg !13162
}

; Function Attrs: noinline uwtable
define weak_odr dso_local void @_ZNK6dealii17MGDoFCellAccessorILi3ELi3EE8neighborEj(%"class.dealii::TriaIterator.175"* noalias sret %agg.result, %"class.dealii::MGDoFCellAccessor"* %this, i32 %i) #0 comdat align 2 !dbg !13163 {
entry:
  %result.ptr = alloca i8*, align 8
  %this.addr = alloca %"class.dealii::MGDoFCellAccessor"*, align 8
  %i.addr = alloca i32, align 4
  %0 = bitcast %"class.dealii::TriaIterator.175"* %agg.result to i8*
  store i8* %0, i8** %result.ptr, align 8
  store %"class.dealii::MGDoFCellAccessor"* %this, %"class.dealii::MGDoFCellAccessor"** %this.addr, align 8
  call void @llvm.dbg.declare(metadata %"class.dealii::MGDoFCellAccessor"** %this.addr, metadata !13164, metadata !DIExpression()), !dbg !13165
  store i32 %i, i32* %i.addr, align 4
  call void @llvm.dbg.declare(metadata i32* %i.addr, metadata !13166, metadata !DIExpression()), !dbg !13167
  %this1 = load %"class.dealii::MGDoFCellAccessor"*, %"class.dealii::MGDoFCellAccessor"** %this.addr, align 8
  call void @llvm.dbg.declare(metadata i8** %result.ptr, metadata !13168, metadata !DIExpression(DW_OP_deref)), !dbg !13169
  %1 = bitcast %"class.dealii::MGDoFCellAccessor"* %this1 to %"class.dealii::TriaAccessorBase.43"*, !dbg !13170
  %tria = getelementptr inbounds %"class.dealii::TriaAccessorBase.43", %"class.dealii::TriaAccessorBase.43"* %1, i32 0, i32 2, !dbg !13170
  %2 = load %"class.dealii::Triangulation"*, %"class.dealii::Triangulation"** %tria, align 8, !dbg !13170
  %3 = bitcast %"class.dealii::MGDoFCellAccessor"* %this1 to %"class.dealii::CellAccessor"*, !dbg !13171
  %4 = load i32, i32* %i.addr, align 4, !dbg !13172
  %call = call i32 @_ZNK6dealii12CellAccessorILi3ELi3EE14neighbor_levelEj(%"class.dealii::CellAccessor"* %3, i32 %4), !dbg !13171
  %5 = bitcast %"class.dealii::MGDoFCellAccessor"* %this1 to %"class.dealii::CellAccessor"*, !dbg !13173
  %6 = load i32, i32* %i.addr, align 4, !dbg !13174
  %call2 = call i32 @_ZNK6dealii12CellAccessorILi3ELi3EE14neighbor_indexEj(%"class.dealii::CellAccessor"* %5, i32 %6), !dbg !13173
  %7 = bitcast %"class.dealii::MGDoFCellAccessor"* %this1 to %"class.dealii::MGDoFAccessor.40"*, !dbg !13175
  %mg_dof_handler = getelementptr inbounds %"class.dealii::MGDoFAccessor.40", %"class.dealii::MGDoFAccessor.40"* %7, i32 0, i32 1, !dbg !13175
  %8 = load %"class.dealii::MGDoFHandler"*, %"class.dealii::MGDoFHandler"** %mg_dof_handler, align 8, !dbg !13175
  call void @_ZN6dealii12TriaIteratorINS_17MGDoFCellAccessorILi3ELi3EEEEC1EPKNS_13TriangulationILi3ELi3EEEiiPKNS_12MGDoFHandlerILi3ELi3EEE(%"class.dealii::TriaIterator.175"* %agg.result, %"class.dealii::Triangulation"* %2, i32 %call, i32 %call2, %"class.dealii::MGDoFHandler"* %8), !dbg !13169
  ret void, !dbg !13176
}

; Function Attrs: noinline nounwind uwtable
define linkonce_odr dso_local i32 @_ZNK6dealii12CellAccessorILi3ELi3EE14neighbor_levelEj(%"class.dealii::CellAccessor"* %this, i32 %i) #1 comdat align 2 !dbg !13177 {
entry:
  %this.addr = alloca %"class.dealii::CellAccessor"*, align 8
  %i.addr = alloca i32, align 4
  store %"class.dealii::CellAccessor"* %this, %"class.dealii::CellAccessor"** %this.addr, align 8
  call void @llvm.dbg.declare(metadata %"class.dealii::CellAccessor"** %this.addr, metadata !13178, metadata !DIExpression()), !dbg !13179
  store i32 %i, i32* %i.addr, align 4
  call void @llvm.dbg.declare(metadata i32* %i.addr, metadata !13180, metadata !DIExpression()), !dbg !13181
  %this1 = load %"class.dealii::CellAccessor"*, %"class.dealii::CellAccessor"** %this.addr, align 8
  %0 = bitcast %"class.dealii::CellAccessor"* %this1 to %"class.dealii::TriaAccessorBase.43"*, !dbg !13182
  %tria = getelementptr inbounds %"class.dealii::TriaAccessorBase.43", %"class.dealii::TriaAccessorBase.43"* %0, i32 0, i32 2, !dbg !13182
  %1 = load %"class.dealii::Triangulation"*, %"class.dealii::Triangulation"** %tria, align 8, !dbg !13182
  %levels = getelementptr inbounds %"class.dealii::Triangulation", %"class.dealii::Triangulation"* %1, i32 0, i32 1, !dbg !13183
  %2 = bitcast %"class.dealii::CellAccessor"* %this1 to %"class.dealii::TriaAccessorBase.43"*, !dbg !13184
  %present_level = getelementptr inbounds %"class.dealii::TriaAccessorBase.43", %"class.dealii::TriaAccessorBase.43"* %2, i32 0, i32 0, !dbg !13184
  %3 = load i32, i32* %present_level, align 8, !dbg !13184
  %conv = sext i32 %3 to i64, !dbg !13185
  %call = call dereferenceable(8) %"class.dealii::internal::Triangulation::TriaLevel"** @_ZNKSt6vectorIPN6dealii8internal13Triangulation9TriaLevelILi3EEESaIS5_EEixEm(%"class.std::vector.46"* %levels, i64 %conv) #4, !dbg !13186
  %4 = load %"class.dealii::internal::Triangulation::TriaLevel"*, %"class.dealii::internal::Triangulation::TriaLevel"** %call, align 8, !dbg !13186
  %neighbors = getelementptr inbounds %"class.dealii::internal::Triangulation::TriaLevel", %"class.dealii::internal::Triangulation::TriaLevel"* %4, i32 0, i32 2, !dbg !13187
  %5 = bitcast %"class.dealii::CellAccessor"* %this1 to %"class.dealii::TriaAccessorBase.43"*, !dbg !13188
  %present_index = getelementptr inbounds %"class.dealii::TriaAccessorBase.43", %"class.dealii::TriaAccessorBase.43"* %5, i32 0, i32 1, !dbg !13188
  %6 = load i32, i32* %present_index, align 4, !dbg !13188
  %mul = mul i32 %6, 6, !dbg !13189
  %7 = load i32, i32* %i.addr, align 4, !dbg !13190
  %add = add i32 %mul, %7, !dbg !13191
  %conv2 = zext i32 %add to i64, !dbg !13192
  %call3 = call dereferenceable(8) %"struct.std::pair"* @_ZNSt6vectorISt4pairIiiESaIS1_EEixEm(%"class.std::vector.60"* %neighbors, i64 %conv2) #4, !dbg !13186
  %first = getelementptr inbounds %"struct.std::pair", %"struct.std::pair"* %call3, i32 0, i32 0, !dbg !13193
  %8 = load i32, i32* %first, align 4, !dbg !13193
  ret i32 %8, !dbg !13194
}

; Function Attrs: noinline nounwind uwtable
define linkonce_odr dso_local i32 @_ZNK6dealii12CellAccessorILi3ELi3EE14neighbor_indexEj(%"class.dealii::CellAccessor"* %this, i32 %i) #1 comdat align 2 !dbg !13195 {
entry:
  %this.addr = alloca %"class.dealii::CellAccessor"*, align 8
  %i.addr = alloca i32, align 4
  store %"class.dealii::CellAccessor"* %this, %"class.dealii::CellAccessor"** %this.addr, align 8
  call void @llvm.dbg.declare(metadata %"class.dealii::CellAccessor"** %this.addr, metadata !13196, metadata !DIExpression()), !dbg !13197
  store i32 %i, i32* %i.addr, align 4
  call void @llvm.dbg.declare(metadata i32* %i.addr, metadata !13198, metadata !DIExpression()), !dbg !13199
  %this1 = load %"class.dealii::CellAccessor"*, %"class.dealii::CellAccessor"** %this.addr, align 8
  %0 = bitcast %"class.dealii::CellAccessor"* %this1 to %"class.dealii::TriaAccessorBase.43"*, !dbg !13200
  %tria = getelementptr inbounds %"class.dealii::TriaAccessorBase.43", %"class.dealii::TriaAccessorBase.43"* %0, i32 0, i32 2, !dbg !13200
  %1 = load %"class.dealii::Triangulation"*, %"class.dealii::Triangulation"** %tria, align 8, !dbg !13200
  %levels = getelementptr inbounds %"class.dealii::Triangulation", %"class.dealii::Triangulation"* %1, i32 0, i32 1, !dbg !13201
  %2 = bitcast %"class.dealii::CellAccessor"* %this1 to %"class.dealii::TriaAccessorBase.43"*, !dbg !13202
  %present_level = getelementptr inbounds %"class.dealii::TriaAccessorBase.43", %"class.dealii::TriaAccessorBase.43"* %2, i32 0, i32 0, !dbg !13202
  %3 = load i32, i32* %present_level, align 8, !dbg !13202
  %conv = sext i32 %3 to i64, !dbg !13203
  %call = call dereferenceable(8) %"class.dealii::internal::Triangulation::TriaLevel"** @_ZNKSt6vectorIPN6dealii8internal13Triangulation9TriaLevelILi3EEESaIS5_EEixEm(%"class.std::vector.46"* %levels, i64 %conv) #4, !dbg !13204
  %4 = load %"class.dealii::internal::Triangulation::TriaLevel"*, %"class.dealii::internal::Triangulation::TriaLevel"** %call, align 8, !dbg !13204
  %neighbors = getelementptr inbounds %"class.dealii::internal::Triangulation::TriaLevel", %"class.dealii::internal::Triangulation::TriaLevel"* %4, i32 0, i32 2, !dbg !13205
  %5 = bitcast %"class.dealii::CellAccessor"* %this1 to %"class.dealii::TriaAccessorBase.43"*, !dbg !13206
  %present_index = getelementptr inbounds %"class.dealii::TriaAccessorBase.43", %"class.dealii::TriaAccessorBase.43"* %5, i32 0, i32 1, !dbg !13206
  %6 = load i32, i32* %present_index, align 4, !dbg !13206
  %mul = mul i32 %6, 6, !dbg !13207
  %7 = load i32, i32* %i.addr, align 4, !dbg !13208
  %add = add i32 %mul, %7, !dbg !13209
  %conv2 = zext i32 %add to i64, !dbg !13210
  %call3 = call dereferenceable(8) %"struct.std::pair"* @_ZNSt6vectorISt4pairIiiESaIS1_EEixEm(%"class.std::vector.60"* %neighbors, i64 %conv2) #4, !dbg !13204
  %second = getelementptr inbounds %"struct.std::pair", %"struct.std::pair"* %call3, i32 0, i32 1, !dbg !13211
  %8 = load i32, i32* %second, align 4, !dbg !13211
  ret i32 %8, !dbg !13212
}

; Function Attrs: noinline uwtable
define weak_odr dso_local void @_ZNK6dealii17MGDoFCellAccessorILi3ELi3EE5childEj(%"class.dealii::TriaIterator.175"* noalias sret %agg.result, %"class.dealii::MGDoFCellAccessor"* %this, i32 %i) #0 comdat align 2 !dbg !13213 {
entry:
  %result.ptr = alloca i8*, align 8
  %this.addr = alloca %"class.dealii::MGDoFCellAccessor"*, align 8
  %i.addr = alloca i32, align 4
  %0 = bitcast %"class.dealii::TriaIterator.175"* %agg.result to i8*
  store i8* %0, i8** %result.ptr, align 8
  store %"class.dealii::MGDoFCellAccessor"* %this, %"class.dealii::MGDoFCellAccessor"** %this.addr, align 8
  call void @llvm.dbg.declare(metadata %"class.dealii::MGDoFCellAccessor"** %this.addr, metadata !13214, metadata !DIExpression()), !dbg !13215
  store i32 %i, i32* %i.addr, align 4
  call void @llvm.dbg.declare(metadata i32* %i.addr, metadata !13216, metadata !DIExpression()), !dbg !13217
  %this1 = load %"class.dealii::MGDoFCellAccessor"*, %"class.dealii::MGDoFCellAccessor"** %this.addr, align 8
  call void @llvm.dbg.declare(metadata i8** %result.ptr, metadata !13218, metadata !DIExpression(DW_OP_deref)), !dbg !13219
  %1 = bitcast %"class.dealii::MGDoFCellAccessor"* %this1 to %"class.dealii::TriaAccessorBase.43"*, !dbg !13220
  %tria = getelementptr inbounds %"class.dealii::TriaAccessorBase.43", %"class.dealii::TriaAccessorBase.43"* %1, i32 0, i32 2, !dbg !13220
  %2 = load %"class.dealii::Triangulation"*, %"class.dealii::Triangulation"** %tria, align 8, !dbg !13220
  %3 = bitcast %"class.dealii::MGDoFCellAccessor"* %this1 to %"class.dealii::TriaAccessorBase.43"*, !dbg !13221
  %present_level = getelementptr inbounds %"class.dealii::TriaAccessorBase.43", %"class.dealii::TriaAccessorBase.43"* %3, i32 0, i32 0, !dbg !13221
  %4 = load i32, i32* %present_level, align 8, !dbg !13221
  %add = add nsw i32 %4, 1, !dbg !13222
  %5 = bitcast %"class.dealii::MGDoFCellAccessor"* %this1 to %"class.dealii::TriaAccessor.42"*, !dbg !13223
  %6 = load i32, i32* %i.addr, align 4, !dbg !13224
  %call = call i32 @_ZNK6dealii12TriaAccessorILi3ELi3ELi3EE11child_indexEj(%"class.dealii::TriaAccessor.42"* %5, i32 %6), !dbg !13223
  %7 = bitcast %"class.dealii::MGDoFCellAccessor"* %this1 to %"class.dealii::MGDoFAccessor.40"*, !dbg !13225
  %mg_dof_handler = getelementptr inbounds %"class.dealii::MGDoFAccessor.40", %"class.dealii::MGDoFAccessor.40"* %7, i32 0, i32 1, !dbg !13225
  %8 = load %"class.dealii::MGDoFHandler"*, %"class.dealii::MGDoFHandler"** %mg_dof_handler, align 8, !dbg !13225
  call void @_ZN6dealii12TriaIteratorINS_17MGDoFCellAccessorILi3ELi3EEEEC1EPKNS_13TriangulationILi3ELi3EEEiiPKNS_12MGDoFHandlerILi3ELi3EEE(%"class.dealii::TriaIterator.175"* %agg.result, %"class.dealii::Triangulation"* %2, i32 %add, i32 %call, %"class.dealii::MGDoFHandler"* %8), !dbg !13219
  ret void, !dbg !13226
}

; Function Attrs: noinline uwtable
define weak_odr dso_local void @_ZNK6dealii17MGDoFCellAccessorILi3ELi3EE4faceEj(%"class.dealii::TriaIterator.169"* noalias sret %agg.result, %"class.dealii::MGDoFCellAccessor"* %this, i32 %i) #0 comdat align 2 !dbg !13227 {
entry:
  %result.ptr = alloca i8*, align 8
  %this.addr = alloca %"class.dealii::MGDoFCellAccessor"*, align 8
  %i.addr = alloca i32, align 4
  %0 = bitcast %"class.dealii::TriaIterator.169"* %agg.result to i8*
  store i8* %0, i8** %result.ptr, align 8
  store %"class.dealii::MGDoFCellAccessor"* %this, %"class.dealii::MGDoFCellAccessor"** %this.addr, align 8
  call void @llvm.dbg.declare(metadata %"class.dealii::MGDoFCellAccessor"** %this.addr, metadata !13228, metadata !DIExpression()), !dbg !13229
  store i32 %i, i32* %i.addr, align 4
  call void @llvm.dbg.declare(metadata i32* %i.addr, metadata !13230, metadata !DIExpression()), !dbg !13231
  %this1 = load %"class.dealii::MGDoFCellAccessor"*, %"class.dealii::MGDoFCellAccessor"** %this.addr, align 8
  %1 = bitcast %"class.dealii::MGDoFCellAccessor"* %this1 to %"class.dealii::MGDoFAccessor.40"*, !dbg !13232
  %2 = load i32, i32* %i.addr, align 4, !dbg !13233
  call void @_ZNK6dealii13MGDoFAccessorILi3ELi3ELi3EE4quadEj(%"class.dealii::TriaIterator.169"* sret %agg.result, %"class.dealii::MGDoFAccessor.40"* %1, i32 %2), !dbg !13232
  ret void, !dbg !13234
}

; Function Attrs: noinline uwtable
define weak_odr dso_local void @_ZNK6dealii17MGDoFCellAccessorILi3ELi3EE25neighbor_child_on_subfaceEjj(%"class.dealii::TriaIterator.175"* noalias sret %agg.result, %"class.dealii::MGDoFCellAccessor"* %this, i32 %face, i32 %subface) #0 comdat align 2 !dbg !13235 {
entry:
  %result.ptr = alloca i8*, align 8
  %this.addr = alloca %"class.dealii::MGDoFCellAccessor"*, align 8
  %face.addr = alloca i32, align 4
  %subface.addr = alloca i32, align 4
  %q = alloca %"class.dealii::TriaIterator.178", align 8
  %0 = bitcast %"class.dealii::TriaIterator.175"* %agg.result to i8*
  store i8* %0, i8** %result.ptr, align 8
  store %"class.dealii::MGDoFCellAccessor"* %this, %"class.dealii::MGDoFCellAccessor"** %this.addr, align 8
  call void @llvm.dbg.declare(metadata %"class.dealii::MGDoFCellAccessor"** %this.addr, metadata !13236, metadata !DIExpression()), !dbg !13237
  store i32 %face, i32* %face.addr, align 4
  call void @llvm.dbg.declare(metadata i32* %face.addr, metadata !13238, metadata !DIExpression()), !dbg !13239
  store i32 %subface, i32* %subface.addr, align 4
  call void @llvm.dbg.declare(metadata i32* %subface.addr, metadata !13240, metadata !DIExpression()), !dbg !13241
  %this1 = load %"class.dealii::MGDoFCellAccessor"*, %"class.dealii::MGDoFCellAccessor"** %this.addr, align 8
  call void @llvm.dbg.declare(metadata %"class.dealii::TriaIterator.178"* %q, metadata !13242, metadata !DIExpression()), !dbg !13243
  %1 = bitcast %"class.dealii::MGDoFCellAccessor"* %this1 to %"class.dealii::CellAccessor"*, !dbg !13244
  %2 = load i32, i32* %face.addr, align 4, !dbg !13245
  %3 = load i32, i32* %subface.addr, align 4, !dbg !13246
  call void @_ZNK6dealii12CellAccessorILi3ELi3EE25neighbor_child_on_subfaceEjj(%"class.dealii::TriaIterator.178"* sret %q, %"class.dealii::CellAccessor"* %1, i32 %2, i32 %3), !dbg !13244
  %4 = bitcast %"class.dealii::MGDoFCellAccessor"* %this1 to %"class.dealii::TriaAccessorBase.43"*, !dbg !13247
  %tria = getelementptr inbounds %"class.dealii::TriaAccessorBase.43", %"class.dealii::TriaAccessorBase.43"* %4, i32 0, i32 2, !dbg !13247
  %5 = load %"class.dealii::Triangulation"*, %"class.dealii::Triangulation"** %tria, align 8, !dbg !13247
  %6 = bitcast %"class.dealii::TriaIterator.178"* %q to %"class.dealii::TriaRawIterator.179"*, !dbg !13248
  %call = call %"class.dealii::CellAccessor"* @_ZNK6dealii15TriaRawIteratorINS_12CellAccessorILi3ELi3EEEEptEv(%"class.dealii::TriaRawIterator.179"* %6), !dbg !13248
  %7 = bitcast %"class.dealii::CellAccessor"* %call to %"class.dealii::TriaAccessorBase.43"*, !dbg !13249
  %call2 = call i32 @_ZNK6dealii16TriaAccessorBaseILi3ELi3ELi3EE5levelEv(%"class.dealii::TriaAccessorBase.43"* %7), !dbg !13249
  %8 = bitcast %"class.dealii::TriaIterator.178"* %q to %"class.dealii::TriaRawIterator.179"*, !dbg !13250
  %call3 = call %"class.dealii::CellAccessor"* @_ZNK6dealii15TriaRawIteratorINS_12CellAccessorILi3ELi3EEEEptEv(%"class.dealii::TriaRawIterator.179"* %8), !dbg !13250
  %9 = bitcast %"class.dealii::CellAccessor"* %call3 to %"class.dealii::TriaAccessorBase.43"*, !dbg !13251
  %call4 = call i32 @_ZNK6dealii16TriaAccessorBaseILi3ELi3ELi3EE5indexEv(%"class.dealii::TriaAccessorBase.43"* %9), !dbg !13251
  %10 = bitcast %"class.dealii::MGDoFCellAccessor"* %this1 to %"class.dealii::MGDoFAccessor.40"*, !dbg !13252
  %mg_dof_handler = getelementptr inbounds %"class.dealii::MGDoFAccessor.40", %"class.dealii::MGDoFAccessor.40"* %10, i32 0, i32 1, !dbg !13252
  %11 = load %"class.dealii::MGDoFHandler"*, %"class.dealii::MGDoFHandler"** %mg_dof_handler, align 8, !dbg !13252
  call void @_ZN6dealii12TriaIteratorINS_17MGDoFCellAccessorILi3ELi3EEEEC1EPKNS_13TriangulationILi3ELi3EEEiiPKNS_12MGDoFHandlerILi3ELi3EEE(%"class.dealii::TriaIterator.175"* %agg.result, %"class.dealii::Triangulation"* %5, i32 %call2, i32 %call4, %"class.dealii::MGDoFHandler"* %11), !dbg !13253
  ret void, !dbg !13254
}

declare dso_local void @_ZNK6dealii12CellAccessorILi3ELi3EE25neighbor_child_on_subfaceEjj(%"class.dealii::TriaIterator.178"* sret, %"class.dealii::CellAccessor"*, i32, i32) #2

; Function Attrs: noinline uwtable
define linkonce_odr dso_local %"class.dealii::CellAccessor"* @_ZNK6dealii15TriaRawIteratorINS_12CellAccessorILi3ELi3EEEEptEv(%"class.dealii::TriaRawIterator.179"* %this) #0 comdat align 2 !dbg !13255 {
entry:
  %this.addr = alloca %"class.dealii::TriaRawIterator.179"*, align 8
  store %"class.dealii::TriaRawIterator.179"* %this, %"class.dealii::TriaRawIterator.179"** %this.addr, align 8
  call void @llvm.dbg.declare(metadata %"class.dealii::TriaRawIterator.179"** %this.addr, metadata !13256, metadata !DIExpression()), !dbg !13258
  %this1 = load %"class.dealii::TriaRawIterator.179"*, %"class.dealii::TriaRawIterator.179"** %this.addr, align 8
  %call = call dereferenceable(16) %"class.dealii::CellAccessor"* @_ZNK6dealii15TriaRawIteratorINS_12CellAccessorILi3ELi3EEEEdeEv(%"class.dealii::TriaRawIterator.179"* %this1), !dbg !13259
  ret %"class.dealii::CellAccessor"* %call, !dbg !13260
}

; Function Attrs: noinline nounwind uwtable
define linkonce_odr dso_local i32 @_ZNK6dealii16TriaAccessorBaseILi3ELi3ELi3EE5indexEv(%"class.dealii::TriaAccessorBase.43"* %this) #1 comdat align 2 !dbg !13261 {
entry:
  %this.addr = alloca %"class.dealii::TriaAccessorBase.43"*, align 8
  store %"class.dealii::TriaAccessorBase.43"* %this, %"class.dealii::TriaAccessorBase.43"** %this.addr, align 8
  call void @llvm.dbg.declare(metadata %"class.dealii::TriaAccessorBase.43"** %this.addr, metadata !13262, metadata !DIExpression()), !dbg !13263
  %this1 = load %"class.dealii::TriaAccessorBase.43"*, %"class.dealii::TriaAccessorBase.43"** %this.addr, align 8
  %present_index = getelementptr inbounds %"class.dealii::TriaAccessorBase.43", %"class.dealii::TriaAccessorBase.43"* %this1, i32 0, i32 1, !dbg !13264
  %0 = load i32, i32* %present_index, align 4, !dbg !13264
  ret i32 %0, !dbg !13265
}

; Function Attrs: noinline uwtable
define weak_odr dso_local void @_ZN6dealii15TriaRawIteratorINS_13MGDoFAccessorILi1ELi3ELi3EEEEC2Ev(%"class.dealii::TriaRawIterator"* %this) unnamed_addr #0 comdat($_ZN6dealii15TriaRawIteratorINS_13MGDoFAccessorILi1ELi3ELi3EEEEC5Ev) align 2 !dbg !13266 {
entry:
  %this.addr = alloca %"class.dealii::TriaRawIterator"*, align 8
  store %"class.dealii::TriaRawIterator"* %this, %"class.dealii::TriaRawIterator"** %this.addr, align 8
  call void @llvm.dbg.declare(metadata %"class.dealii::TriaRawIterator"** %this.addr, metadata !13267, metadata !DIExpression()), !dbg !13269
  %this1 = load %"class.dealii::TriaRawIterator"*, %"class.dealii::TriaRawIterator"** %this.addr, align 8
  %0 = bitcast %"class.dealii::TriaRawIterator"* %this1 to %"struct.std::iterator.168"*, !dbg !13270
  %accessor = getelementptr inbounds %"class.dealii::TriaRawIterator", %"class.dealii::TriaRawIterator"* %this1, i32 0, i32 0, !dbg !13271
  call void @_ZN6dealii13MGDoFAccessorILi1ELi3ELi3EEC1EPKNS_13TriangulationILi3ELi3EEEiiPKNS_12MGDoFHandlerILi3ELi3EEE(%"class.dealii::MGDoFAccessor"* %accessor, %"class.dealii::Triangulation"* null, i32 -2, i32 -2, %"class.dealii::MGDoFHandler"* null), !dbg !13271
  ret void, !dbg !13273
}

; Function Attrs: noinline nounwind uwtable
define weak_odr dso_local void @_ZN6dealii15TriaRawIteratorINS_13MGDoFAccessorILi1ELi3ELi3EEEEC2ERKS3_(%"class.dealii::TriaRawIterator"* %this, %"class.dealii::TriaRawIterator"* dereferenceable(32) %i) unnamed_addr #1 comdat($_ZN6dealii15TriaRawIteratorINS_13MGDoFAccessorILi1ELi3ELi3EEEEC5ERKS3_) align 2 !dbg !13274 {
entry:
  %this.addr = alloca %"class.dealii::TriaRawIterator"*, align 8
  %i.addr = alloca %"class.dealii::TriaRawIterator"*, align 8
  store %"class.dealii::TriaRawIterator"* %this, %"class.dealii::TriaRawIterator"** %this.addr, align 8
  call void @llvm.dbg.declare(metadata %"class.dealii::TriaRawIterator"** %this.addr, metadata !13275, metadata !DIExpression()), !dbg !13276
  store %"class.dealii::TriaRawIterator"* %i, %"class.dealii::TriaRawIterator"** %i.addr, align 8
  call void @llvm.dbg.declare(metadata %"class.dealii::TriaRawIterator"** %i.addr, metadata !13277, metadata !DIExpression()), !dbg !13278
  %this1 = load %"class.dealii::TriaRawIterator"*, %"class.dealii::TriaRawIterator"** %this.addr, align 8
  %0 = bitcast %"class.dealii::TriaRawIterator"* %this1 to %"struct.std::iterator.168"*, !dbg !13279
  %accessor = getelementptr inbounds %"class.dealii::TriaRawIterator", %"class.dealii::TriaRawIterator"* %this1, i32 0, i32 0, !dbg !13280
  %1 = load %"class.dealii::TriaRawIterator"*, %"class.dealii::TriaRawIterator"** %i.addr, align 8, !dbg !13282
  %accessor2 = getelementptr inbounds %"class.dealii::TriaRawIterator", %"class.dealii::TriaRawIterator"* %1, i32 0, i32 0, !dbg !13283
  %2 = bitcast %"class.dealii::MGDoFAccessor"* %accessor to i8*, !dbg !13280
  %3 = bitcast %"class.dealii::MGDoFAccessor"* %accessor2 to i8*, !dbg !13280
  call void @llvm.memcpy.p0i8.p0i8.i64(i8* align 8 %2, i8* align 8 %3, i64 32, i1 false), !dbg !13280
  ret void, !dbg !13284
}

; Function Attrs: argmemonly nounwind willreturn
declare void @llvm.memcpy.p0i8.p0i8.i64(i8* noalias nocapture writeonly, i8* noalias nocapture readonly, i64, i1 immarg) #6

; Function Attrs: noinline nounwind uwtable
define weak_odr dso_local void @_ZN6dealii15TriaRawIteratorINS_13MGDoFAccessorILi1ELi3ELi3EEEEC2ERKS2_(%"class.dealii::TriaRawIterator"* %this, %"class.dealii::MGDoFAccessor"* dereferenceable(32) %a) unnamed_addr #1 comdat($_ZN6dealii15TriaRawIteratorINS_13MGDoFAccessorILi1ELi3ELi3EEEEC5ERKS2_) align 2 !dbg !13285 {
entry:
  %this.addr = alloca %"class.dealii::TriaRawIterator"*, align 8
  %a.addr = alloca %"class.dealii::MGDoFAccessor"*, align 8
  store %"class.dealii::TriaRawIterator"* %this, %"class.dealii::TriaRawIterator"** %this.addr, align 8
  call void @llvm.dbg.declare(metadata %"class.dealii::TriaRawIterator"** %this.addr, metadata !13286, metadata !DIExpression()), !dbg !13287
  store %"class.dealii::MGDoFAccessor"* %a, %"class.dealii::MGDoFAccessor"** %a.addr, align 8
  call void @llvm.dbg.declare(metadata %"class.dealii::MGDoFAccessor"** %a.addr, metadata !13288, metadata !DIExpression()), !dbg !13289
  %this1 = load %"class.dealii::TriaRawIterator"*, %"class.dealii::TriaRawIterator"** %this.addr, align 8
  %0 = bitcast %"class.dealii::TriaRawIterator"* %this1 to %"struct.std::iterator.168"*, !dbg !13290
  %accessor = getelementptr inbounds %"class.dealii::TriaRawIterator", %"class.dealii::TriaRawIterator"* %this1, i32 0, i32 0, !dbg !13291
  %1 = load %"class.dealii::MGDoFAccessor"*, %"class.dealii::MGDoFAccessor"** %a.addr, align 8, !dbg !13292
  %2 = bitcast %"class.dealii::MGDoFAccessor"* %accessor to i8*, !dbg !13291
  %3 = bitcast %"class.dealii::MGDoFAccessor"* %1 to i8*, !dbg !13291
  call void @llvm.memcpy.p0i8.p0i8.i64(i8* align 8 %2, i8* align 8 %3, i64 32, i1 false), !dbg !13291
  ret void, !dbg !13293
}

; Function Attrs: noinline uwtable
define weak_odr dso_local void @_ZN6dealii15TriaRawIteratorINS_13MGDoFAccessorILi1ELi3ELi3EEEEC2EPKNS_13TriangulationILi3ELi3EEEiiPKNS_12MGDoFHandlerILi3ELi3EEE(%"class.dealii::TriaRawIterator"* %this, %"class.dealii::Triangulation"* %parent, i32 %level, i32 %index, %"class.dealii::MGDoFHandler"* %local_data) unnamed_addr #0 comdat($_ZN6dealii15TriaRawIteratorINS_13MGDoFAccessorILi1ELi3ELi3EEEEC5EPKNS_13TriangulationILi3ELi3EEEiiPKNS_12MGDoFHandlerILi3ELi3EEE) align 2 !dbg !13294 {
entry:
  %this.addr = alloca %"class.dealii::TriaRawIterator"*, align 8
  %parent.addr = alloca %"class.dealii::Triangulation"*, align 8
  %level.addr = alloca i32, align 4
  %index.addr = alloca i32, align 4
  %local_data.addr = alloca %"class.dealii::MGDoFHandler"*, align 8
  store %"class.dealii::TriaRawIterator"* %this, %"class.dealii::TriaRawIterator"** %this.addr, align 8
  call void @llvm.dbg.declare(metadata %"class.dealii::TriaRawIterator"** %this.addr, metadata !13295, metadata !DIExpression()), !dbg !13296
  store %"class.dealii::Triangulation"* %parent, %"class.dealii::Triangulation"** %parent.addr, align 8
  call void @llvm.dbg.declare(metadata %"class.dealii::Triangulation"** %parent.addr, metadata !13297, metadata !DIExpression()), !dbg !13298
  store i32 %level, i32* %level.addr, align 4
  call void @llvm.dbg.declare(metadata i32* %level.addr, metadata !13299, metadata !DIExpression()), !dbg !13300
  store i32 %index, i32* %index.addr, align 4
  call void @llvm.dbg.declare(metadata i32* %index.addr, metadata !13301, metadata !DIExpression()), !dbg !13302
  store %"class.dealii::MGDoFHandler"* %local_data, %"class.dealii::MGDoFHandler"** %local_data.addr, align 8
  call void @llvm.dbg.declare(metadata %"class.dealii::MGDoFHandler"** %local_data.addr, metadata !13303, metadata !DIExpression()), !dbg !13304
  %this1 = load %"class.dealii::TriaRawIterator"*, %"class.dealii::TriaRawIterator"** %this.addr, align 8
  %0 = bitcast %"class.dealii::TriaRawIterator"* %this1 to %"struct.std::iterator.168"*, !dbg !13305
  %accessor = getelementptr inbounds %"class.dealii::TriaRawIterator", %"class.dealii::TriaRawIterator"* %this1, i32 0, i32 0, !dbg !13306
  %1 = load %"class.dealii::Triangulation"*, %"class.dealii::Triangulation"** %parent.addr, align 8, !dbg !13308
  %2 = load i32, i32* %level.addr, align 4, !dbg !13309
  %3 = load i32, i32* %index.addr, align 4, !dbg !13310
  %4 = load %"class.dealii::MGDoFHandler"*, %"class.dealii::MGDoFHandler"** %local_data.addr, align 8, !dbg !13311
  call void @_ZN6dealii13MGDoFAccessorILi1ELi3ELi3EEC1EPKNS_13TriangulationILi3ELi3EEEiiPKNS_12MGDoFHandlerILi3ELi3EEE(%"class.dealii::MGDoFAccessor"* %accessor, %"class.dealii::Triangulation"* %1, i32 %2, i32 %3, %"class.dealii::MGDoFHandler"* %4), !dbg !13306
  ret void, !dbg !13312
}

; Function Attrs: noinline nounwind uwtable
define weak_odr dso_local dereferenceable(32) %"class.dealii::MGDoFAccessor"* @_ZNK6dealii15TriaRawIteratorINS_13MGDoFAccessorILi1ELi3ELi3EEEEdeEv(%"class.dealii::TriaRawIterator"* %this) #1 comdat align 2 !dbg !13313 {
entry:
  %this.addr = alloca %"class.dealii::TriaRawIterator"*, align 8
  store %"class.dealii::TriaRawIterator"* %this, %"class.dealii::TriaRawIterator"** %this.addr, align 8
  call void @llvm.dbg.declare(metadata %"class.dealii::TriaRawIterator"** %this.addr, metadata !13314, metadata !DIExpression()), !dbg !13316
  %this1 = load %"class.dealii::TriaRawIterator"*, %"class.dealii::TriaRawIterator"** %this.addr, align 8
  %accessor = getelementptr inbounds %"class.dealii::TriaRawIterator", %"class.dealii::TriaRawIterator"* %this1, i32 0, i32 0, !dbg !13317
  ret %"class.dealii::MGDoFAccessor"* %accessor, !dbg !13318
}

; Function Attrs: noinline nounwind uwtable
define weak_odr dso_local dereferenceable(32) %"class.dealii::MGDoFAccessor"* @_ZN6dealii15TriaRawIteratorINS_13MGDoFAccessorILi1ELi3ELi3EEEEdeEv(%"class.dealii::TriaRawIterator"* %this) #1 comdat align 2 !dbg !13319 {
entry:
  %this.addr = alloca %"class.dealii::TriaRawIterator"*, align 8
  store %"class.dealii::TriaRawIterator"* %this, %"class.dealii::TriaRawIterator"** %this.addr, align 8
  call void @llvm.dbg.declare(metadata %"class.dealii::TriaRawIterator"** %this.addr, metadata !13320, metadata !DIExpression()), !dbg !13321
  %this1 = load %"class.dealii::TriaRawIterator"*, %"class.dealii::TriaRawIterator"** %this.addr, align 8
  %accessor = getelementptr inbounds %"class.dealii::TriaRawIterator", %"class.dealii::TriaRawIterator"* %this1, i32 0, i32 0, !dbg !13322
  ret %"class.dealii::MGDoFAccessor"* %accessor, !dbg !13323
}

; Function Attrs: noinline nounwind uwtable
define weak_odr dso_local %"class.dealii::MGDoFAccessor"* @_ZNK6dealii15TriaRawIteratorINS_13MGDoFAccessorILi1ELi3ELi3EEEEptEv(%"class.dealii::TriaRawIterator"* %this) #1 comdat align 2 !dbg !13324 {
entry:
  %this.addr = alloca %"class.dealii::TriaRawIterator"*, align 8
  store %"class.dealii::TriaRawIterator"* %this, %"class.dealii::TriaRawIterator"** %this.addr, align 8
  call void @llvm.dbg.declare(metadata %"class.dealii::TriaRawIterator"** %this.addr, metadata !13325, metadata !DIExpression()), !dbg !13326
  %this1 = load %"class.dealii::TriaRawIterator"*, %"class.dealii::TriaRawIterator"** %this.addr, align 8
  %call = call dereferenceable(32) %"class.dealii::MGDoFAccessor"* @_ZNK6dealii15TriaRawIteratorINS_13MGDoFAccessorILi1ELi3ELi3EEEEdeEv(%"class.dealii::TriaRawIterator"* %this1), !dbg !13327
  ret %"class.dealii::MGDoFAccessor"* %call, !dbg !13328
}

; Function Attrs: noinline nounwind uwtable
define weak_odr dso_local %"class.dealii::MGDoFAccessor"* @_ZN6dealii15TriaRawIteratorINS_13MGDoFAccessorILi1ELi3ELi3EEEEptEv(%"class.dealii::TriaRawIterator"* %this) #1 comdat align 2 !dbg !13329 {
entry:
  %this.addr = alloca %"class.dealii::TriaRawIterator"*, align 8
  store %"class.dealii::TriaRawIterator"* %this, %"class.dealii::TriaRawIterator"** %this.addr, align 8
  call void @llvm.dbg.declare(metadata %"class.dealii::TriaRawIterator"** %this.addr, metadata !13330, metadata !DIExpression()), !dbg !13331
  %this1 = load %"class.dealii::TriaRawIterator"*, %"class.dealii::TriaRawIterator"** %this.addr, align 8
  %call = call dereferenceable(32) %"class.dealii::MGDoFAccessor"* @_ZN6dealii15TriaRawIteratorINS_13MGDoFAccessorILi1ELi3ELi3EEEEdeEv(%"class.dealii::TriaRawIterator"* %this1), !dbg !13332
  ret %"class.dealii::MGDoFAccessor"* %call, !dbg !13333
}

; Function Attrs: noinline uwtable
define weak_odr dso_local dereferenceable(32) %"class.dealii::TriaRawIterator"* @_ZN6dealii15TriaRawIteratorINS_13MGDoFAccessorILi1ELi3ELi3EEEEaSERKS3_(%"class.dealii::TriaRawIterator"* %this, %"class.dealii::TriaRawIterator"* dereferenceable(32) %i) #0 comdat align 2 !dbg !13334 {
entry:
  %this.addr = alloca %"class.dealii::TriaRawIterator"*, align 8
  %i.addr = alloca %"class.dealii::TriaRawIterator"*, align 8
  store %"class.dealii::TriaRawIterator"* %this, %"class.dealii::TriaRawIterator"** %this.addr, align 8
  call void @llvm.dbg.declare(metadata %"class.dealii::TriaRawIterator"** %this.addr, metadata !13335, metadata !DIExpression()), !dbg !13336
  store %"class.dealii::TriaRawIterator"* %i, %"class.dealii::TriaRawIterator"** %i.addr, align 8
  call void @llvm.dbg.declare(metadata %"class.dealii::TriaRawIterator"** %i.addr, metadata !13337, metadata !DIExpression()), !dbg !13338
  %this1 = load %"class.dealii::TriaRawIterator"*, %"class.dealii::TriaRawIterator"** %this.addr, align 8
  %accessor = getelementptr inbounds %"class.dealii::TriaRawIterator", %"class.dealii::TriaRawIterator"* %this1, i32 0, i32 0, !dbg !13339
  %0 = load %"class.dealii::TriaRawIterator"*, %"class.dealii::TriaRawIterator"** %i.addr, align 8, !dbg !13340
  %accessor2 = getelementptr inbounds %"class.dealii::TriaRawIterator", %"class.dealii::TriaRawIterator"* %0, i32 0, i32 0, !dbg !13341
  call void @_ZN6dealii13MGDoFAccessorILi1ELi3ELi3EE9copy_fromERKS1_(%"class.dealii::MGDoFAccessor"* %accessor, %"class.dealii::MGDoFAccessor"* dereferenceable(32) %accessor2), !dbg !13342
  ret %"class.dealii::TriaRawIterator"* %this1, !dbg !13343
}

; Function Attrs: noinline uwtable
define weak_odr dso_local zeroext i1 @_ZNK6dealii15TriaRawIteratorINS_13MGDoFAccessorILi1ELi3ELi3EEEEeqERKS3_(%"class.dealii::TriaRawIterator"* %this, %"class.dealii::TriaRawIterator"* dereferenceable(32) %i) #0 comdat align 2 !dbg !13344 {
entry:
  %this.addr = alloca %"class.dealii::TriaRawIterator"*, align 8
  %i.addr = alloca %"class.dealii::TriaRawIterator"*, align 8
  store %"class.dealii::TriaRawIterator"* %this, %"class.dealii::TriaRawIterator"** %this.addr, align 8
  call void @llvm.dbg.declare(metadata %"class.dealii::TriaRawIterator"** %this.addr, metadata !13345, metadata !DIExpression()), !dbg !13346
  store %"class.dealii::TriaRawIterator"* %i, %"class.dealii::TriaRawIterator"** %i.addr, align 8
  call void @llvm.dbg.declare(metadata %"class.dealii::TriaRawIterator"** %i.addr, metadata !13347, metadata !DIExpression()), !dbg !13348
  %this1 = load %"class.dealii::TriaRawIterator"*, %"class.dealii::TriaRawIterator"** %this.addr, align 8
  %accessor = getelementptr inbounds %"class.dealii::TriaRawIterator", %"class.dealii::TriaRawIterator"* %this1, i32 0, i32 0, !dbg !13349
  %0 = bitcast %"class.dealii::MGDoFAccessor"* %accessor to %"class.dealii::DoFAccessor"*, !dbg !13349
  %1 = load %"class.dealii::TriaRawIterator"*, %"class.dealii::TriaRawIterator"** %i.addr, align 8, !dbg !13350
  %accessor2 = getelementptr inbounds %"class.dealii::TriaRawIterator", %"class.dealii::TriaRawIterator"* %1, i32 0, i32 0, !dbg !13351
  %2 = bitcast %"class.dealii::MGDoFAccessor"* %accessor2 to %"class.dealii::DoFAccessor"*, !dbg !13350
  %call = call zeroext i1 @_ZNK6dealii11DoFAccessorILi1ENS_10DoFHandlerILi3ELi3EEEEeqERKS3_(%"class.dealii::DoFAccessor"* %0, %"class.dealii::DoFAccessor"* dereferenceable(24) %2), !dbg !13352
  ret i1 %call, !dbg !13353
}

; Function Attrs: noinline uwtable
define linkonce_odr dso_local zeroext i1 @_ZNK6dealii11DoFAccessorILi1ENS_10DoFHandlerILi3ELi3EEEEeqERKS3_(%"class.dealii::DoFAccessor"* %this, %"class.dealii::DoFAccessor"* dereferenceable(24) %a) #0 comdat align 2 !dbg !13354 {
entry:
  %this.addr = alloca %"class.dealii::DoFAccessor"*, align 8
  %a.addr = alloca %"class.dealii::DoFAccessor"*, align 8
  store %"class.dealii::DoFAccessor"* %this, %"class.dealii::DoFAccessor"** %this.addr, align 8
  call void @llvm.dbg.declare(metadata %"class.dealii::DoFAccessor"** %this.addr, metadata !13355, metadata !DIExpression()), !dbg !13357
  store %"class.dealii::DoFAccessor"* %a, %"class.dealii::DoFAccessor"** %a.addr, align 8
  call void @llvm.dbg.declare(metadata %"class.dealii::DoFAccessor"** %a.addr, metadata !13358, metadata !DIExpression()), !dbg !13359
  %this1 = load %"class.dealii::DoFAccessor"*, %"class.dealii::DoFAccessor"** %this.addr, align 8
  %0 = bitcast %"class.dealii::DoFAccessor"* %this1 to %"class.dealii::TriaAccessor"*, !dbg !13360
  %1 = bitcast %"class.dealii::TriaAccessor"* %0 to %"class.dealii::TriaAccessorBase"*, !dbg !13360
  %2 = load %"class.dealii::DoFAccessor"*, %"class.dealii::DoFAccessor"** %a.addr, align 8, !dbg !13361
  %3 = bitcast %"class.dealii::DoFAccessor"* %2 to %"class.dealii::TriaAccessorBase"*, !dbg !13361
  %call = call zeroext i1 @_ZNK6dealii16TriaAccessorBaseILi1ELi3ELi3EEeqERKS1_(%"class.dealii::TriaAccessorBase"* %1, %"class.dealii::TriaAccessorBase"* dereferenceable(16) %3), !dbg !13360
  ret i1 %call, !dbg !13362
}

; Function Attrs: noinline uwtable
define weak_odr dso_local zeroext i1 @_ZNK6dealii15TriaRawIteratorINS_13MGDoFAccessorILi1ELi3ELi3EEEEneERKS3_(%"class.dealii::TriaRawIterator"* %this, %"class.dealii::TriaRawIterator"* dereferenceable(32) %i) #0 comdat align 2 !dbg !13363 {
entry:
  %this.addr = alloca %"class.dealii::TriaRawIterator"*, align 8
  %i.addr = alloca %"class.dealii::TriaRawIterator"*, align 8
  store %"class.dealii::TriaRawIterator"* %this, %"class.dealii::TriaRawIterator"** %this.addr, align 8
  call void @llvm.dbg.declare(metadata %"class.dealii::TriaRawIterator"** %this.addr, metadata !13364, metadata !DIExpression()), !dbg !13365
  store %"class.dealii::TriaRawIterator"* %i, %"class.dealii::TriaRawIterator"** %i.addr, align 8
  call void @llvm.dbg.declare(metadata %"class.dealii::TriaRawIterator"** %i.addr, metadata !13366, metadata !DIExpression()), !dbg !13367
  %this1 = load %"class.dealii::TriaRawIterator"*, %"class.dealii::TriaRawIterator"** %this.addr, align 8
  %accessor = getelementptr inbounds %"class.dealii::TriaRawIterator", %"class.dealii::TriaRawIterator"* %this1, i32 0, i32 0, !dbg !13368
  %0 = bitcast %"class.dealii::MGDoFAccessor"* %accessor to %"class.dealii::DoFAccessor"*, !dbg !13368
  %1 = load %"class.dealii::TriaRawIterator"*, %"class.dealii::TriaRawIterator"** %i.addr, align 8, !dbg !13369
  %accessor2 = getelementptr inbounds %"class.dealii::TriaRawIterator", %"class.dealii::TriaRawIterator"* %1, i32 0, i32 0, !dbg !13370
  %2 = bitcast %"class.dealii::MGDoFAccessor"* %accessor2 to %"class.dealii::DoFAccessor"*, !dbg !13369
  %call = call zeroext i1 @_ZNK6dealii11DoFAccessorILi1ENS_10DoFHandlerILi3ELi3EEEEneERKS3_(%"class.dealii::DoFAccessor"* %0, %"class.dealii::DoFAccessor"* dereferenceable(24) %2), !dbg !13371
  ret i1 %call, !dbg !13372
}

; Function Attrs: noinline uwtable
define linkonce_odr dso_local zeroext i1 @_ZNK6dealii11DoFAccessorILi1ENS_10DoFHandlerILi3ELi3EEEEneERKS3_(%"class.dealii::DoFAccessor"* %this, %"class.dealii::DoFAccessor"* dereferenceable(24) %a) #0 comdat align 2 !dbg !13373 {
entry:
  %this.addr = alloca %"class.dealii::DoFAccessor"*, align 8
  %a.addr = alloca %"class.dealii::DoFAccessor"*, align 8
  store %"class.dealii::DoFAccessor"* %this, %"class.dealii::DoFAccessor"** %this.addr, align 8
  call void @llvm.dbg.declare(metadata %"class.dealii::DoFAccessor"** %this.addr, metadata !13374, metadata !DIExpression()), !dbg !13375
  store %"class.dealii::DoFAccessor"* %a, %"class.dealii::DoFAccessor"** %a.addr, align 8
  call void @llvm.dbg.declare(metadata %"class.dealii::DoFAccessor"** %a.addr, metadata !13376, metadata !DIExpression()), !dbg !13377
  %this1 = load %"class.dealii::DoFAccessor"*, %"class.dealii::DoFAccessor"** %this.addr, align 8
  %0 = bitcast %"class.dealii::DoFAccessor"* %this1 to %"class.dealii::TriaAccessor"*, !dbg !13378
  %1 = bitcast %"class.dealii::TriaAccessor"* %0 to %"class.dealii::TriaAccessorBase"*, !dbg !13378
  %2 = load %"class.dealii::DoFAccessor"*, %"class.dealii::DoFAccessor"** %a.addr, align 8, !dbg !13379
  %3 = bitcast %"class.dealii::DoFAccessor"* %2 to %"class.dealii::TriaAccessorBase"*, !dbg !13379
  %call = call zeroext i1 @_ZNK6dealii16TriaAccessorBaseILi1ELi3ELi3EEneERKS1_(%"class.dealii::TriaAccessorBase"* %1, %"class.dealii::TriaAccessorBase"* dereferenceable(16) %3), !dbg !13378
  ret i1 %call, !dbg !13380
}

; Function Attrs: noinline uwtable
define weak_odr dso_local zeroext i1 @_ZNK6dealii15TriaRawIteratorINS_13MGDoFAccessorILi1ELi3ELi3EEEEltERKS3_(%"class.dealii::TriaRawIterator"* %this, %"class.dealii::TriaRawIterator"* dereferenceable(32) %i) #0 comdat align 2 !dbg !13381 {
entry:
  %this.addr = alloca %"class.dealii::TriaRawIterator"*, align 8
  %i.addr = alloca %"class.dealii::TriaRawIterator"*, align 8
  store %"class.dealii::TriaRawIterator"* %this, %"class.dealii::TriaRawIterator"** %this.addr, align 8
  call void @llvm.dbg.declare(metadata %"class.dealii::TriaRawIterator"** %this.addr, metadata !13382, metadata !DIExpression()), !dbg !13383
  store %"class.dealii::TriaRawIterator"* %i, %"class.dealii::TriaRawIterator"** %i.addr, align 8
  call void @llvm.dbg.declare(metadata %"class.dealii::TriaRawIterator"** %i.addr, metadata !13384, metadata !DIExpression()), !dbg !13385
  %this1 = load %"class.dealii::TriaRawIterator"*, %"class.dealii::TriaRawIterator"** %this.addr, align 8
  %accessor = getelementptr inbounds %"class.dealii::TriaRawIterator", %"class.dealii::TriaRawIterator"* %this1, i32 0, i32 0, !dbg !13386
  %0 = bitcast %"class.dealii::MGDoFAccessor"* %accessor to %"class.dealii::TriaAccessorBase"*, !dbg !13386
  %call = call i32 @_ZNK6dealii16TriaAccessorBaseILi1ELi3ELi3EE5indexEv(%"class.dealii::TriaAccessorBase"* %0), !dbg !13388
  %1 = load %"class.dealii::TriaRawIterator"*, %"class.dealii::TriaRawIterator"** %i.addr, align 8, !dbg !13389
  %accessor2 = getelementptr inbounds %"class.dealii::TriaRawIterator", %"class.dealii::TriaRawIterator"* %1, i32 0, i32 0, !dbg !13390
  %2 = bitcast %"class.dealii::MGDoFAccessor"* %accessor2 to %"class.dealii::TriaAccessorBase"*, !dbg !13389
  %call3 = call i32 @_ZNK6dealii16TriaAccessorBaseILi1ELi3ELi3EE5indexEv(%"class.dealii::TriaAccessorBase"* %2), !dbg !13391
  %cmp = icmp slt i32 %call, %call3, !dbg !13392
  br i1 %cmp, label %land.lhs.true, label %lor.rhs, !dbg !13393

land.lhs.true:                                    ; preds = %entry
  %call4 = call i32 @_ZNK6dealii15TriaRawIteratorINS_13MGDoFAccessorILi1ELi3ELi3EEEE5stateEv(%"class.dealii::TriaRawIterator"* %this1), !dbg !13394
  %cmp5 = icmp eq i32 %call4, 0, !dbg !13395
  br i1 %cmp5, label %land.lhs.true6, label %lor.rhs, !dbg !13396

land.lhs.true6:                                   ; preds = %land.lhs.true
  %3 = load %"class.dealii::TriaRawIterator"*, %"class.dealii::TriaRawIterator"** %i.addr, align 8, !dbg !13397
  %call7 = call i32 @_ZNK6dealii15TriaRawIteratorINS_13MGDoFAccessorILi1ELi3ELi3EEEE5stateEv(%"class.dealii::TriaRawIterator"* %3), !dbg !13398
  %cmp8 = icmp eq i32 %call7, 0, !dbg !13399
  br i1 %cmp8, label %lor.end, label %lor.rhs, !dbg !13400

lor.rhs:                                          ; preds = %land.lhs.true6, %land.lhs.true, %entry
  %call9 = call i32 @_ZNK6dealii15TriaRawIteratorINS_13MGDoFAccessorILi1ELi3ELi3EEEE5stateEv(%"class.dealii::TriaRawIterator"* %this1), !dbg !13401
  %cmp10 = icmp eq i32 %call9, 0, !dbg !13402
  br i1 %cmp10, label %land.rhs, label %land.end, !dbg !13403

land.rhs:                                         ; preds = %lor.rhs
  %4 = load %"class.dealii::TriaRawIterator"*, %"class.dealii::TriaRawIterator"** %i.addr, align 8, !dbg !13404
  %call11 = call i32 @_ZNK6dealii15TriaRawIteratorINS_13MGDoFAccessorILi1ELi3ELi3EEEE5stateEv(%"class.dealii::TriaRawIterator"* %4), !dbg !13405
  %cmp12 = icmp eq i32 %call11, 1, !dbg !13406
  br label %land.end

land.end:                                         ; preds = %land.rhs, %lor.rhs
  %5 = phi i1 [ false, %lor.rhs ], [ %cmp12, %land.rhs ], !dbg !13407
  br label %lor.end, !dbg !13400

lor.end:                                          ; preds = %land.end, %land.lhs.true6
  %6 = phi i1 [ true, %land.lhs.true6 ], [ %5, %land.end ]
  ret i1 %6, !dbg !13408
}

; Function Attrs: noinline nounwind uwtable
define linkonce_odr dso_local i32 @_ZNK6dealii16TriaAccessorBaseILi1ELi3ELi3EE5indexEv(%"class.dealii::TriaAccessorBase"* %this) #1 comdat align 2 !dbg !13409 {
entry:
  %this.addr = alloca %"class.dealii::TriaAccessorBase"*, align 8
  store %"class.dealii::TriaAccessorBase"* %this, %"class.dealii::TriaAccessorBase"** %this.addr, align 8
  call void @llvm.dbg.declare(metadata %"class.dealii::TriaAccessorBase"** %this.addr, metadata !13410, metadata !DIExpression()), !dbg !13411
  %this1 = load %"class.dealii::TriaAccessorBase"*, %"class.dealii::TriaAccessorBase"** %this.addr, align 8
  %present_index = getelementptr inbounds %"class.dealii::TriaAccessorBase", %"class.dealii::TriaAccessorBase"* %this1, i32 0, i32 0, !dbg !13412
  %0 = load i32, i32* %present_index, align 8, !dbg !13412
  ret i32 %0, !dbg !13413
}

; Function Attrs: noinline uwtable
define weak_odr dso_local i32 @_ZNK6dealii15TriaRawIteratorINS_13MGDoFAccessorILi1ELi3ELi3EEEE5stateEv(%"class.dealii::TriaRawIterator"* %this) #0 comdat align 2 !dbg !13414 {
entry:
  %this.addr = alloca %"class.dealii::TriaRawIterator"*, align 8
  store %"class.dealii::TriaRawIterator"* %this, %"class.dealii::TriaRawIterator"** %this.addr, align 8
  call void @llvm.dbg.declare(metadata %"class.dealii::TriaRawIterator"** %this.addr, metadata !13415, metadata !DIExpression()), !dbg !13416
  %this1 = load %"class.dealii::TriaRawIterator"*, %"class.dealii::TriaRawIterator"** %this.addr, align 8
  %accessor = getelementptr inbounds %"class.dealii::TriaRawIterator", %"class.dealii::TriaRawIterator"* %this1, i32 0, i32 0, !dbg !13417
  %0 = bitcast %"class.dealii::MGDoFAccessor"* %accessor to %"class.dealii::TriaAccessorBase"*, !dbg !13417
  %call = call i32 @_ZNK6dealii16TriaAccessorBaseILi1ELi3ELi3EE5stateEv(%"class.dealii::TriaAccessorBase"* %0), !dbg !13418
  ret i32 %call, !dbg !13419
}

; Function Attrs: noinline uwtable
define weak_odr dso_local dereferenceable(32) %"class.dealii::TriaRawIterator"* @_ZN6dealii15TriaRawIteratorINS_13MGDoFAccessorILi1ELi3ELi3EEEEppEv(%"class.dealii::TriaRawIterator"* %this) #0 comdat align 2 !dbg !13420 {
entry:
  %this.addr = alloca %"class.dealii::TriaRawIterator"*, align 8
  store %"class.dealii::TriaRawIterator"* %this, %"class.dealii::TriaRawIterator"** %this.addr, align 8
  call void @llvm.dbg.declare(metadata %"class.dealii::TriaRawIterator"** %this.addr, metadata !13421, metadata !DIExpression()), !dbg !13422
  %this1 = load %"class.dealii::TriaRawIterator"*, %"class.dealii::TriaRawIterator"** %this.addr, align 8
  %accessor = getelementptr inbounds %"class.dealii::TriaRawIterator", %"class.dealii::TriaRawIterator"* %this1, i32 0, i32 0, !dbg !13423
  %0 = bitcast %"class.dealii::MGDoFAccessor"* %accessor to %"class.dealii::TriaAccessorBase"*, !dbg !13423
  call void @_ZN6dealii16TriaAccessorBaseILi1ELi3ELi3EEppEv(%"class.dealii::TriaAccessorBase"* %0), !dbg !13424
  ret %"class.dealii::TriaRawIterator"* %this1, !dbg !13425
}

; Function Attrs: noinline uwtable
define linkonce_odr dso_local void @_ZN6dealii16TriaAccessorBaseILi1ELi3ELi3EEppEv(%"class.dealii::TriaAccessorBase"* %this) #0 comdat align 2 !dbg !13426 {
entry:
  %this.addr = alloca %"class.dealii::TriaAccessorBase"*, align 8
  store %"class.dealii::TriaAccessorBase"* %this, %"class.dealii::TriaAccessorBase"** %this.addr, align 8
  call void @llvm.dbg.declare(metadata %"class.dealii::TriaAccessorBase"** %this.addr, metadata !13427, metadata !DIExpression()), !dbg !13429
  %this1 = load %"class.dealii::TriaAccessorBase"*, %"class.dealii::TriaAccessorBase"** %this.addr, align 8
  %present_index = getelementptr inbounds %"class.dealii::TriaAccessorBase", %"class.dealii::TriaAccessorBase"* %this1, i32 0, i32 0, !dbg !13430
  %0 = load i32, i32* %present_index, align 8, !dbg !13431
  %inc = add nsw i32 %0, 1, !dbg !13431
  store i32 %inc, i32* %present_index, align 8, !dbg !13431
  %present_index2 = getelementptr inbounds %"class.dealii::TriaAccessorBase", %"class.dealii::TriaAccessorBase"* %this1, i32 0, i32 0, !dbg !13432
  %1 = load i32, i32* %present_index2, align 8, !dbg !13432
  %call = call dereferenceable(224) %"class.dealii::internal::Triangulation::TriaObjects.103"* @_ZNK6dealii16TriaAccessorBaseILi1ELi3ELi3EE7objectsEv(%"class.dealii::TriaAccessorBase"* %this1), !dbg !13434
  %cells = getelementptr inbounds %"class.dealii::internal::Triangulation::TriaObjects.103", %"class.dealii::internal::Triangulation::TriaObjects.103"* %call, i32 0, i32 0, !dbg !13435
  %call3 = call i64 @_ZNKSt6vectorIN6dealii8internal13Triangulation10TriaObjectILi1EEESaIS4_EE4sizeEv(%"class.std::vector.104"* %cells) #4, !dbg !13436
  %conv = trunc i64 %call3 to i32, !dbg !13434
  %cmp = icmp sge i32 %1, %conv, !dbg !13437
  br i1 %cmp, label %if.then, label %if.end, !dbg !13438

if.then:                                          ; preds = %entry
  %present_index4 = getelementptr inbounds %"class.dealii::TriaAccessorBase", %"class.dealii::TriaAccessorBase"* %this1, i32 0, i32 0, !dbg !13439
  store i32 -1, i32* %present_index4, align 8, !dbg !13440
  br label %if.end, !dbg !13441

if.end:                                           ; preds = %if.then, %entry
  ret void, !dbg !13442
}

; Function Attrs: noinline uwtable
define weak_odr dso_local void @_ZN6dealii15TriaRawIteratorINS_13MGDoFAccessorILi1ELi3ELi3EEEEppEi(%"class.dealii::TriaRawIterator"* noalias sret %agg.result, %"class.dealii::TriaRawIterator"* %this, i32 %0) #0 comdat align 2 !dbg !13443 {
entry:
  %result.ptr = alloca i8*, align 8
  %this.addr = alloca %"class.dealii::TriaRawIterator"*, align 8
  %.addr = alloca i32, align 4
  %1 = bitcast %"class.dealii::TriaRawIterator"* %agg.result to i8*
  store i8* %1, i8** %result.ptr, align 8
  store %"class.dealii::TriaRawIterator"* %this, %"class.dealii::TriaRawIterator"** %this.addr, align 8
  call void @llvm.dbg.declare(metadata %"class.dealii::TriaRawIterator"** %this.addr, metadata !13444, metadata !DIExpression()), !dbg !13445
  store i32 %0, i32* %.addr, align 4
  call void @llvm.dbg.declare(metadata i32* %.addr, metadata !13446, metadata !DIExpression()), !dbg !13447
  %this1 = load %"class.dealii::TriaRawIterator"*, %"class.dealii::TriaRawIterator"** %this.addr, align 8
  call void @llvm.dbg.declare(metadata i8** %result.ptr, metadata !13448, metadata !DIExpression(DW_OP_deref)), !dbg !13449
  call void @_ZN6dealii15TriaRawIteratorINS_13MGDoFAccessorILi1ELi3ELi3EEEEC1ERKS3_(%"class.dealii::TriaRawIterator"* %agg.result, %"class.dealii::TriaRawIterator"* dereferenceable(32) %this1), !dbg !13449
  %call = call dereferenceable(32) %"class.dealii::TriaRawIterator"* @_ZN6dealii15TriaRawIteratorINS_13MGDoFAccessorILi1ELi3ELi3EEEEppEv(%"class.dealii::TriaRawIterator"* %this1), !dbg !13450
  ret void, !dbg !13451
}

; Function Attrs: noinline uwtable
define weak_odr dso_local dereferenceable(32) %"class.dealii::TriaRawIterator"* @_ZN6dealii15TriaRawIteratorINS_13MGDoFAccessorILi1ELi3ELi3EEEEmmEv(%"class.dealii::TriaRawIterator"* %this) #0 comdat align 2 !dbg !13452 {
entry:
  %this.addr = alloca %"class.dealii::TriaRawIterator"*, align 8
  store %"class.dealii::TriaRawIterator"* %this, %"class.dealii::TriaRawIterator"** %this.addr, align 8
  call void @llvm.dbg.declare(metadata %"class.dealii::TriaRawIterator"** %this.addr, metadata !13453, metadata !DIExpression()), !dbg !13454
  %this1 = load %"class.dealii::TriaRawIterator"*, %"class.dealii::TriaRawIterator"** %this.addr, align 8
  %accessor = getelementptr inbounds %"class.dealii::TriaRawIterator", %"class.dealii::TriaRawIterator"* %this1, i32 0, i32 0, !dbg !13455
  %0 = bitcast %"class.dealii::MGDoFAccessor"* %accessor to %"class.dealii::TriaAccessorBase"*, !dbg !13455
  call void @_ZN6dealii16TriaAccessorBaseILi1ELi3ELi3EEmmEv(%"class.dealii::TriaAccessorBase"* %0), !dbg !13456
  ret %"class.dealii::TriaRawIterator"* %this1, !dbg !13457
}

; Function Attrs: noinline nounwind uwtable
define linkonce_odr dso_local void @_ZN6dealii16TriaAccessorBaseILi1ELi3ELi3EEmmEv(%"class.dealii::TriaAccessorBase"* %this) #1 comdat align 2 !dbg !13458 {
entry:
  %this.addr = alloca %"class.dealii::TriaAccessorBase"*, align 8
  store %"class.dealii::TriaAccessorBase"* %this, %"class.dealii::TriaAccessorBase"** %this.addr, align 8
  call void @llvm.dbg.declare(metadata %"class.dealii::TriaAccessorBase"** %this.addr, metadata !13459, metadata !DIExpression()), !dbg !13460
  %this1 = load %"class.dealii::TriaAccessorBase"*, %"class.dealii::TriaAccessorBase"** %this.addr, align 8
  %present_index = getelementptr inbounds %"class.dealii::TriaAccessorBase", %"class.dealii::TriaAccessorBase"* %this1, i32 0, i32 0, !dbg !13461
  %0 = load i32, i32* %present_index, align 8, !dbg !13462
  %dec = add nsw i32 %0, -1, !dbg !13462
  store i32 %dec, i32* %present_index, align 8, !dbg !13462
  %present_index2 = getelementptr inbounds %"class.dealii::TriaAccessorBase", %"class.dealii::TriaAccessorBase"* %this1, i32 0, i32 0, !dbg !13463
  %1 = load i32, i32* %present_index2, align 8, !dbg !13463
  %cmp = icmp slt i32 %1, 0, !dbg !13465
  br i1 %cmp, label %if.then, label %if.end, !dbg !13466

if.then:                                          ; preds = %entry
  %present_index3 = getelementptr inbounds %"class.dealii::TriaAccessorBase", %"class.dealii::TriaAccessorBase"* %this1, i32 0, i32 0, !dbg !13467
  store i32 -1, i32* %present_index3, align 8, !dbg !13468
  br label %if.end, !dbg !13469

if.end:                                           ; preds = %if.then, %entry
  ret void, !dbg !13470
}

; Function Attrs: noinline uwtable
define weak_odr dso_local void @_ZN6dealii15TriaRawIteratorINS_13MGDoFAccessorILi1ELi3ELi3EEEEmmEi(%"class.dealii::TriaRawIterator"* noalias sret %agg.result, %"class.dealii::TriaRawIterator"* %this, i32 %0) #0 comdat align 2 !dbg !13471 {
entry:
  %result.ptr = alloca i8*, align 8
  %this.addr = alloca %"class.dealii::TriaRawIterator"*, align 8
  %.addr = alloca i32, align 4
  %1 = bitcast %"class.dealii::TriaRawIterator"* %agg.result to i8*
  store i8* %1, i8** %result.ptr, align 8
  store %"class.dealii::TriaRawIterator"* %this, %"class.dealii::TriaRawIterator"** %this.addr, align 8
  call void @llvm.dbg.declare(metadata %"class.dealii::TriaRawIterator"** %this.addr, metadata !13472, metadata !DIExpression()), !dbg !13473
  store i32 %0, i32* %.addr, align 4
  call void @llvm.dbg.declare(metadata i32* %.addr, metadata !13474, metadata !DIExpression()), !dbg !13475
  %this1 = load %"class.dealii::TriaRawIterator"*, %"class.dealii::TriaRawIterator"** %this.addr, align 8
  call void @llvm.dbg.declare(metadata i8** %result.ptr, metadata !13476, metadata !DIExpression(DW_OP_deref)), !dbg !13477
  call void @_ZN6dealii15TriaRawIteratorINS_13MGDoFAccessorILi1ELi3ELi3EEEEC1ERKS3_(%"class.dealii::TriaRawIterator"* %agg.result, %"class.dealii::TriaRawIterator"* dereferenceable(32) %this1), !dbg !13477
  %call = call dereferenceable(32) %"class.dealii::TriaRawIterator"* @_ZN6dealii15TriaRawIteratorINS_13MGDoFAccessorILi1ELi3ELi3EEEEmmEv(%"class.dealii::TriaRawIterator"* %this1), !dbg !13478
  ret void, !dbg !13479
}

; Function Attrs: noinline nounwind uwtable
define linkonce_odr dso_local i32 @_ZNK6dealii16TriaAccessorBaseILi1ELi3ELi3EE5stateEv(%"class.dealii::TriaAccessorBase"* %this) #1 comdat align 2 !dbg !13480 {
entry:
  %retval = alloca i32, align 4
  %this.addr = alloca %"class.dealii::TriaAccessorBase"*, align 8
  store %"class.dealii::TriaAccessorBase"* %this, %"class.dealii::TriaAccessorBase"** %this.addr, align 8
  call void @llvm.dbg.declare(metadata %"class.dealii::TriaAccessorBase"** %this.addr, metadata !13481, metadata !DIExpression()), !dbg !13482
  %this1 = load %"class.dealii::TriaAccessorBase"*, %"class.dealii::TriaAccessorBase"** %this.addr, align 8
  %present_index = getelementptr inbounds %"class.dealii::TriaAccessorBase", %"class.dealii::TriaAccessorBase"* %this1, i32 0, i32 0, !dbg !13483
  %0 = load i32, i32* %present_index, align 8, !dbg !13483
  %cmp = icmp sge i32 %0, 0, !dbg !13485
  br i1 %cmp, label %if.then, label %if.else, !dbg !13486

if.then:                                          ; preds = %entry
  store i32 0, i32* %retval, align 4, !dbg !13487
  br label %return, !dbg !13487

if.else:                                          ; preds = %entry
  %present_index2 = getelementptr inbounds %"class.dealii::TriaAccessorBase", %"class.dealii::TriaAccessorBase"* %this1, i32 0, i32 0, !dbg !13488
  %1 = load i32, i32* %present_index2, align 8, !dbg !13488
  %cmp3 = icmp eq i32 %1, -1, !dbg !13490
  br i1 %cmp3, label %if.then4, label %if.else5, !dbg !13491

if.then4:                                         ; preds = %if.else
  store i32 1, i32* %retval, align 4, !dbg !13492
  br label %return, !dbg !13492

if.else5:                                         ; preds = %if.else
  store i32 2, i32* %retval, align 4, !dbg !13493
  br label %return, !dbg !13493

return:                                           ; preds = %if.else5, %if.then4, %if.then
  %2 = load i32, i32* %retval, align 4, !dbg !13494
  ret i32 %2, !dbg !13494
}

; Function Attrs: noinline uwtable
define weak_odr dso_local void @_ZNK6dealii15TriaRawIteratorINS_13MGDoFAccessorILi1ELi3ELi3EEEE5printERSo(%"class.dealii::TriaRawIterator"* %this, %"class.std::basic_ostream"* dereferenceable(272) %out) #0 comdat align 2 !dbg !13495 {
entry:
  %this.addr = alloca %"class.dealii::TriaRawIterator"*, align 8
  %out.addr = alloca %"class.std::basic_ostream"*, align 8
  store %"class.dealii::TriaRawIterator"* %this, %"class.dealii::TriaRawIterator"** %this.addr, align 8
  call void @llvm.dbg.declare(metadata %"class.dealii::TriaRawIterator"** %this.addr, metadata !13496, metadata !DIExpression()), !dbg !13497
  store %"class.std::basic_ostream"* %out, %"class.std::basic_ostream"** %out.addr, align 8
  call void @llvm.dbg.declare(metadata %"class.std::basic_ostream"** %out.addr, metadata !13498, metadata !DIExpression()), !dbg !13499
  %this1 = load %"class.dealii::TriaRawIterator"*, %"class.dealii::TriaRawIterator"** %this.addr, align 8
  %0 = load %"class.std::basic_ostream"*, %"class.std::basic_ostream"** %out.addr, align 8, !dbg !13500
  %accessor = getelementptr inbounds %"class.dealii::TriaRawIterator", %"class.dealii::TriaRawIterator"* %this1, i32 0, i32 0, !dbg !13502
  %1 = bitcast %"class.dealii::MGDoFAccessor"* %accessor to %"class.dealii::TriaAccessorBase"*, !dbg !13502
  %call = call i32 @_ZNK6dealii16TriaAccessorBaseILi1ELi3ELi3EE5indexEv(%"class.dealii::TriaAccessorBase"* %1), !dbg !13503
  %call2 = call dereferenceable(272) %"class.std::basic_ostream"* @_ZNSolsEi(%"class.std::basic_ostream"* %0, i32 %call), !dbg !13504
  ret void, !dbg !13505
}

declare dso_local dereferenceable(272) %"class.std::basic_ostream"* @_ZNSolsEi(%"class.std::basic_ostream"*, i32) #2

; Function Attrs: noinline nounwind uwtable
define weak_odr dso_local i32 @_ZNK6dealii15TriaRawIteratorINS_13MGDoFAccessorILi1ELi3ELi3EEEE18memory_consumptionEv(%"class.dealii::TriaRawIterator"* %this) #1 comdat align 2 !dbg !13506 {
entry:
  %this.addr = alloca %"class.dealii::TriaRawIterator"*, align 8
  store %"class.dealii::TriaRawIterator"* %this, %"class.dealii::TriaRawIterator"** %this.addr, align 8
  call void @llvm.dbg.declare(metadata %"class.dealii::TriaRawIterator"** %this.addr, metadata !13507, metadata !DIExpression()), !dbg !13508
  %this1 = load %"class.dealii::TriaRawIterator"*, %"class.dealii::TriaRawIterator"** %this.addr, align 8
  ret i32 32, !dbg !13509
}

; Function Attrs: noinline uwtable
define weak_odr dso_local void @_ZN6dealii15TriaRawIteratorINS_13MGDoFAccessorILi1ELi3ELi3EEEE25ExcDereferenceInvalidCellC2ES2_(%"class.dealii::TriaRawIterator<dealii::MGDoFAccessor<1, 3> >::ExcDereferenceInvalidCell"* %this, %"class.dealii::MGDoFAccessor"* byval(%"class.dealii::MGDoFAccessor") align 8 %a1) unnamed_addr #0 comdat($_ZN6dealii15TriaRawIteratorINS_13MGDoFAccessorILi1ELi3ELi3EEEE25ExcDereferenceInvalidCellC5ES2_) align 2 !dbg !13510 {
entry:
  %this.addr = alloca %"class.dealii::TriaRawIterator<dealii::MGDoFAccessor<1, 3> >::ExcDereferenceInvalidCell"*, align 8
  store %"class.dealii::TriaRawIterator<dealii::MGDoFAccessor<1, 3> >::ExcDereferenceInvalidCell"* %this, %"class.dealii::TriaRawIterator<dealii::MGDoFAccessor<1, 3> >::ExcDereferenceInvalidCell"** %this.addr, align 8
  call void @llvm.dbg.declare(metadata %"class.dealii::TriaRawIterator<dealii::MGDoFAccessor<1, 3> >::ExcDereferenceInvalidCell"** %this.addr, metadata !13530, metadata !DIExpression()), !dbg !13532
  call void @llvm.dbg.declare(metadata %"class.dealii::MGDoFAccessor"* %a1, metadata !13533, metadata !DIExpression()), !dbg !13534
  %this1 = load %"class.dealii::TriaRawIterator<dealii::MGDoFAccessor<1, 3> >::ExcDereferenceInvalidCell"*, %"class.dealii::TriaRawIterator<dealii::MGDoFAccessor<1, 3> >::ExcDereferenceInvalidCell"** %this.addr, align 8
  %0 = bitcast %"class.dealii::TriaRawIterator<dealii::MGDoFAccessor<1, 3> >::ExcDereferenceInvalidCell"* %this1 to %"class.dealii::ExceptionBase"*, !dbg !13534
  call void @_ZN6dealii13ExceptionBaseC2Ev(%"class.dealii::ExceptionBase"* %0), !dbg !13534
  %1 = bitcast %"class.dealii::TriaRawIterator<dealii::MGDoFAccessor<1, 3> >::ExcDereferenceInvalidCell"* %this1 to i32 (...)***, !dbg !13534
  store i32 (...)** bitcast (i8** getelementptr inbounds ({ [6 x i8*] }, { [6 x i8*] }* @_ZTVN6dealii15TriaRawIteratorINS_13MGDoFAccessorILi1ELi3ELi3EEEE25ExcDereferenceInvalidCellE, i32 0, inrange i32 0, i32 2) to i32 (...)**), i32 (...)*** %1, align 8, !dbg !13534
  %arg1 = getelementptr inbounds %"class.dealii::TriaRawIterator<dealii::MGDoFAccessor<1, 3> >::ExcDereferenceInvalidCell", %"class.dealii::TriaRawIterator<dealii::MGDoFAccessor<1, 3> >::ExcDereferenceInvalidCell"* %this1, i32 0, i32 1, !dbg !13534
  %2 = bitcast %"class.dealii::MGDoFAccessor"* %arg1 to i8*, !dbg !13534
  %3 = bitcast %"class.dealii::MGDoFAccessor"* %a1 to i8*, !dbg !13534
  call void @llvm.memcpy.p0i8.p0i8.i64(i8* align 8 %2, i8* align 8 %3, i64 32, i1 false), !dbg !13534
  ret void, !dbg !13534
}

declare dso_local void @_ZN6dealii13ExceptionBaseC2Ev(%"class.dealii::ExceptionBase"*) unnamed_addr #2

; Function Attrs: noinline nounwind uwtable
define weak_odr dso_local void @_ZN6dealii15TriaRawIteratorINS_13MGDoFAccessorILi1ELi3ELi3EEEE25ExcDereferenceInvalidCellD2Ev(%"class.dealii::TriaRawIterator<dealii::MGDoFAccessor<1, 3> >::ExcDereferenceInvalidCell"* %this) unnamed_addr #1 comdat($_ZN6dealii15TriaRawIteratorINS_13MGDoFAccessorILi1ELi3ELi3EEEE25ExcDereferenceInvalidCellD5Ev) align 2 !dbg !13535 {
entry:
  %this.addr = alloca %"class.dealii::TriaRawIterator<dealii::MGDoFAccessor<1, 3> >::ExcDereferenceInvalidCell"*, align 8
