; ModuleID = 'source/fe/fe_q_hierarchical.cc'
source_filename = "source/fe/fe_q_hierarchical.cc"
target datalayout = "e-m:e-p270:32:32-p271:32:32-p272:64:64-i64:64-f80:128-n8:16:32:64-S128"
target triple = "x86_64-unknown-linux-gnu"

%"struct.boost::arg" = type { i8 }
%"struct.boost::arg.0" = type { i8 }
%"struct.boost::arg.2" = type { i8 }
%"struct.boost::arg.4" = type { i8 }
%"struct.boost::arg.6" = type { i8 }
%"struct.boost::arg.8" = type { i8 }
%"struct.boost::arg.10" = type { i8 }
%"struct.boost::arg.12" = type { i8 }
%"struct.boost::arg.14" = type { i8 }
%"class.std::ios_base::Init" = type { i8 }
%"class.dealii::FE_Q_Hierarchical" = type { %"class.dealii::FE_Poly", %"class.std::vector.58" }
%"class.dealii::FE_Poly" = type { %"class.dealii::FiniteElement", %"class.dealii::TensorProductPolynomials" }
%"class.dealii::FiniteElement" = type { %"class.dealii::Subscriptor", %"class.dealii::FiniteElementData", i8, %"class.std::vector", %"class.std::vector", %"class.dealii::FullMatrix", %"class.std::vector.24", %"class.std::vector.29", %"class.std::vector.24", %"class.std::vector.29", %"class.dealii::Table.36", %"class.std::vector.40", %"class.std::vector.45", %"class.std::vector.45", %"class.std::vector.50", %"class.std::vector.50", %"class.std::vector.58", %"class.std::vector.50", %"class.std::vector.63", %"class.std::vector.67", %"class.std::vector.58" }
%"class.dealii::Subscriptor" = type { i32 (...)**, i32, %"class.std::map", %"class.std::type_info"* }
%"class.std::map" = type { %"class.std::_Rb_tree" }
%"class.std::_Rb_tree" = type { %"struct.std::_Rb_tree<const char *, std::pair<const char *const, unsigned int>, std::_Select1st<std::pair<const char *const, unsigned int> >, std::less<const char *>, std::allocator<std::pair<const char *const, unsigned int> > >::_Rb_tree_impl" }
%"struct.std::_Rb_tree<const char *, std::pair<const char *const, unsigned int>, std::_Select1st<std::pair<const char *const, unsigned int> >, std::less<const char *>, std::allocator<std::pair<const char *const, unsigned int> > >::_Rb_tree_impl" = type { %"struct.std::_Rb_tree_key_compare", %"struct.std::_Rb_tree_header" }
%"struct.std::_Rb_tree_key_compare" = type { %"struct.std::less" }
%"struct.std::less" = type { i8 }
%"struct.std::_Rb_tree_header" = type { %"struct.std::_Rb_tree_node_base", i64 }
%"struct.std::_Rb_tree_node_base" = type { i32, %"struct.std::_Rb_tree_node_base"*, %"struct.std::_Rb_tree_node_base"*, %"struct.std::_Rb_tree_node_base"* }
%"class.std::type_info" = type { i32 (...)**, i8* }
%"class.dealii::FiniteElementData" = type { i32, i32, i32, i32, i32, i32, i32, i32, i32, i32, i32, i32, i32, i32, i32 }
%"class.std::vector" = type { %"struct.std::_Vector_base" }
%"struct.std::_Vector_base" = type { %"struct.std::_Vector_base<std::vector<dealii::FullMatrix<double>, std::allocator<dealii::FullMatrix<double> > >, std::allocator<std::vector<dealii::FullMatrix<double>, std::allocator<dealii::FullMatrix<double> > > > >::_Vector_impl" }
%"struct.std::_Vector_base<std::vector<dealii::FullMatrix<double>, std::allocator<dealii::FullMatrix<double> > >, std::allocator<std::vector<dealii::FullMatrix<double>, std::allocator<dealii::FullMatrix<double> > > > >::_Vector_impl" = type { %"struct.std::_Vector_base<std::vector<dealii::FullMatrix<double>, std::allocator<dealii::FullMatrix<double> > >, std::allocator<std::vector<dealii::FullMatrix<double>, std::allocator<dealii::FullMatrix<double> > > > >::_Vector_impl_data" }
%"struct.std::_Vector_base<std::vector<dealii::FullMatrix<double>, std::allocator<dealii::FullMatrix<double> > >, std::allocator<std::vector<dealii::FullMatrix<double>, std::allocator<dealii::FullMatrix<double> > > > >::_Vector_impl_data" = type { %"class.std::vector.19"*, %"class.std::vector.19"*, %"class.std::vector.19"* }
%"class.std::vector.19" = type { %"struct.std::_Vector_base.20" }
%"struct.std::_Vector_base.20" = type { %"struct.std::_Vector_base<dealii::FullMatrix<double>, std::allocator<dealii::FullMatrix<double> > >::_Vector_impl" }
%"struct.std::_Vector_base<dealii::FullMatrix<double>, std::allocator<dealii::FullMatrix<double> > >::_Vector_impl" = type { %"struct.std::_Vector_base<dealii::FullMatrix<double>, std::allocator<dealii::FullMatrix<double> > >::_Vector_impl_data" }
%"struct.std::_Vector_base<dealii::FullMatrix<double>, std::allocator<dealii::FullMatrix<double> > >::_Vector_impl_data" = type { %"class.dealii::FullMatrix"*, %"class.dealii::FullMatrix"*, %"class.dealii::FullMatrix"* }
%"class.dealii::FullMatrix" = type { %"class.dealii::Table.base", [4 x i8] }
%"class.dealii::Table.base" = type { %"class.dealii::TableBase.base" }
%"class.dealii::TableBase.base" = type <{ %"class.dealii::Subscriptor", double*, i32, %"class.dealii::TableIndices" }>
%"class.dealii::TableIndices" = type { %"class.dealii::TableIndicesBase" }
%"class.dealii::TableIndicesBase" = type { [2 x i32] }
%"class.std::vector.24" = type { %"struct.std::_Vector_base.25" }
%"struct.std::_Vector_base.25" = type { %"struct.std::_Vector_base<dealii::Point<3>, std::allocator<dealii::Point<3> > >::_Vector_impl" }
%"struct.std::_Vector_base<dealii::Point<3>, std::allocator<dealii::Point<3> > >::_Vector_impl" = type { %"struct.std::_Vector_base<dealii::Point<3>, std::allocator<dealii::Point<3> > >::_Vector_impl_data" }
%"struct.std::_Vector_base<dealii::Point<3>, std::allocator<dealii::Point<3> > >::_Vector_impl_data" = type { %"class.dealii::Point"*, %"class.dealii::Point"*, %"class.dealii::Point"* }
%"class.dealii::Point" = type { %"class.dealii::Tensor" }
%"class.dealii::Tensor" = type { [3 x double] }
%"class.std::vector.29" = type { %"struct.std::_Vector_base.30" }
%"struct.std::_Vector_base.30" = type { %"struct.std::_Vector_base<dealii::Point<2>, std::allocator<dealii::Point<2> > >::_Vector_impl" }
%"struct.std::_Vector_base<dealii::Point<2>, std::allocator<dealii::Point<2> > >::_Vector_impl" = type { %"struct.std::_Vector_base<dealii::Point<2>, std::allocator<dealii::Point<2> > >::_Vector_impl_data" }
%"struct.std::_Vector_base<dealii::Point<2>, std::allocator<dealii::Point<2> > >::_Vector_impl_data" = type { %"class.dealii::Point.34"*, %"class.dealii::Point.34"*, %"class.dealii::Point.34"* }
%"class.dealii::Point.34" = type { %"class.dealii::Tensor.35" }
%"class.dealii::Tensor.35" = type { [2 x double] }
%"class.dealii::Table.36" = type { %"class.dealii::TableBase.base.38", [4 x i8] }
%"class.dealii::TableBase.base.38" = type <{ %"class.dealii::Subscriptor", i32*, i32, %"class.dealii::TableIndices" }>
%"class.std::vector.40" = type { %"struct.std::_Vector_base.41" }
%"struct.std::_Vector_base.41" = type { %"struct.std::_Vector_base<int, std::allocator<int> >::_Vector_impl" }
%"struct.std::_Vector_base<int, std::allocator<int> >::_Vector_impl" = type { %"struct.std::_Vector_base<int, std::allocator<int> >::_Vector_impl_data" }
%"struct.std::_Vector_base<int, std::allocator<int> >::_Vector_impl_data" = type { i32*, i32*, i32* }
%"class.std::vector.45" = type { %"struct.std::_Vector_base.46" }
%"struct.std::_Vector_base.46" = type { %"struct.std::_Vector_base<std::pair<unsigned int, unsigned int>, std::allocator<std::pair<unsigned int, unsigned int> > >::_Vector_impl" }
%"struct.std::_Vector_base<std::pair<unsigned int, unsigned int>, std::allocator<std::pair<unsigned int, unsigned int> > >::_Vector_impl" = type { %"struct.std::_Vector_base<std::pair<unsigned int, unsigned int>, std::allocator<std::pair<unsigned int, unsigned int> > >::_Vector_impl_data" }
%"struct.std::_Vector_base<std::pair<unsigned int, unsigned int>, std::allocator<std::pair<unsigned int, unsigned int> > >::_Vector_impl_data" = type { %"struct.std::pair"*, %"struct.std::pair"*, %"struct.std::pair"* }
%"struct.std::pair" = type { i32, i32 }
%"class.std::vector.50" = type { %"struct.std::_Vector_base.51" }
%"struct.std::_Vector_base.51" = type { %"struct.std::_Vector_base<std::pair<std::pair<unsigned int, unsigned int>, unsigned int>, std::allocator<std::pair<std::pair<unsigned int, unsigned int>, unsigned int> > >::_Vector_impl" }
%"struct.std::_Vector_base<std::pair<std::pair<unsigned int, unsigned int>, unsigned int>, std::allocator<std::pair<std::pair<unsigned int, unsigned int>, unsigned int> > >::_Vector_impl" = type { %"struct.std::_Vector_base<std::pair<std::pair<unsigned int, unsigned int>, unsigned int>, std::allocator<std::pair<std::pair<unsigned int, unsigned int>, unsigned int> > >::_Vector_impl_data" }
%"struct.std::_Vector_base<std::pair<std::pair<unsigned int, unsigned int>, unsigned int>, std::allocator<std::pair<std::pair<unsigned int, unsigned int>, unsigned int> > >::_Vector_impl_data" = type { %"struct.std::pair.55"*, %"struct.std::pair.55"*, %"struct.std::pair.55"* }
%"struct.std::pair.55" = type { %"struct.std::pair", i32 }
%"class.std::vector.63" = type { %"struct.std::_Bvector_base" }
%"struct.std::_Bvector_base" = type { %"struct.std::_Bvector_base<std::allocator<bool> >::_Bvector_impl" }
%"struct.std::_Bvector_base<std::allocator<bool> >::_Bvector_impl" = type { %"struct.std::_Bvector_base<std::allocator<bool> >::_Bvector_impl_data" }
%"struct.std::_Bvector_base<std::allocator<bool> >::_Bvector_impl_data" = type { %"struct.std::_Bit_iterator", %"struct.std::_Bit_iterator", i64* }
%"struct.std::_Bit_iterator" = type { %"struct.std::_Bit_iterator_base.base", [4 x i8] }
%"struct.std::_Bit_iterator_base.base" = type <{ i64*, i32 }>
%"class.std::vector.67" = type { %"struct.std::_Vector_base.68" }
%"struct.std::_Vector_base.68" = type { %"struct.std::_Vector_base<std::vector<bool, std::allocator<bool> >, std::allocator<std::vector<bool, std::allocator<bool> > > >::_Vector_impl" }
%"struct.std::_Vector_base<std::vector<bool, std::allocator<bool> >, std::allocator<std::vector<bool, std::allocator<bool> > > >::_Vector_impl" = type { %"struct.std::_Vector_base<std::vector<bool, std::allocator<bool> >, std::allocator<std::vector<bool, std::allocator<bool> > > >::_Vector_impl_data" }
%"struct.std::_Vector_base<std::vector<bool, std::allocator<bool> >, std::allocator<std::vector<bool, std::allocator<bool> > > >::_Vector_impl_data" = type { %"class.std::vector.63"*, %"class.std::vector.63"*, %"class.std::vector.63"* }
%"class.dealii::TensorProductPolynomials" = type { %"class.std::vector.72", i32, %"class.std::vector.58", %"class.std::vector.58" }
%"class.std::vector.72" = type { %"struct.std::_Vector_base.73" }
%"struct.std::_Vector_base.73" = type { %"struct.std::_Vector_base<dealii::Polynomials::Polynomial<double>, std::allocator<dealii::Polynomials::Polynomial<double> > >::_Vector_impl" }
%"struct.std::_Vector_base<dealii::Polynomials::Polynomial<double>, std::allocator<dealii::Polynomials::Polynomial<double> > >::_Vector_impl" = type { %"struct.std::_Vector_base<dealii::Polynomials::Polynomial<double>, std::allocator<dealii::Polynomials::Polynomial<double> > >::_Vector_impl_data" }
%"struct.std::_Vector_base<dealii::Polynomials::Polynomial<double>, std::allocator<dealii::Polynomials::Polynomial<double> > >::_Vector_impl_data" = type { %"class.dealii::Polynomials::Polynomial"*, %"class.dealii::Polynomials::Polynomial"*, %"class.dealii::Polynomials::Polynomial"* }
%"class.dealii::Polynomials::Polynomial" = type { %"class.dealii::Subscriptor", %"class.std::vector.77" }
%"class.std::vector.77" = type { %"struct.std::_Vector_base.78" }
%"struct.std::_Vector_base.78" = type { %"struct.std::_Vector_base<double, std::allocator<double> >::_Vector_impl" }
%"struct.std::_Vector_base<double, std::allocator<double> >::_Vector_impl" = type { %"struct.std::_Vector_base<double, std::allocator<double> >::_Vector_impl_data" }
%"struct.std::_Vector_base<double, std::allocator<double> >::_Vector_impl_data" = type { double*, double*, double* }
%"class.std::vector.58" = type { %"struct.std::_Vector_base.59" }
%"struct.std::_Vector_base.59" = type { %"struct.std::_Vector_base<unsigned int, std::allocator<unsigned int> >::_Vector_impl" }
%"struct.std::_Vector_base<unsigned int, std::allocator<unsigned int> >::_Vector_impl" = type { %"struct.std::_Vector_base<unsigned int, std::allocator<unsigned int> >::_Vector_impl_data" }
%"struct.std::_Vector_base<unsigned int, std::allocator<unsigned int> >::_Vector_impl_data" = type { i32*, i32*, i32* }
%"class.std::allocator.82" = type { i8 }
%"class.std::allocator.69" = type { i8 }
%"class.std::allocator.21" = type { i8 }
%"class.__gnu_cxx::__normal_iterator.103" = type { %"class.dealii::Polynomials::Polynomial"* }
%"class.std::allocator.74" = type { i8 }
%"class.std::allocator.60" = type { i8 }
%"class.__gnu_cxx::new_allocator.83" = type { i8 }
%"class.__gnu_cxx::new_allocator.70" = type { i8 }
%"class.dealii::FiniteElementData.92" = type { i32, i32, i32, i32, i32, i32, i32, i32, i32, i32, i32, i32, i32, i32, i32 }
%"class.__gnu_cxx::new_allocator.22" = type { i8 }
%"class.dealii::Table" = type { %"class.dealii::TableBase.base", [4 x i8] }
%"class.dealii::TableBase" = type <{ %"class.dealii::Subscriptor", double*, i32, %"class.dealii::TableIndices", [4 x i8] }>
%"class.std::__cxx11::basic_string" = type { %"struct.std::__cxx11::basic_string<char, std::char_traits<char>, std::allocator<char> >::_Alloc_hider", i64, %union.anon }
%"struct.std::__cxx11::basic_string<char, std::char_traits<char>, std::allocator<char> >::_Alloc_hider" = type { i8* }
%union.anon = type { i64, [8 x i8] }
%"class.std::__cxx11::basic_ostringstream" = type { %"class.std::basic_ostream.base", %"class.std::__cxx11::basic_stringbuf", %"class.std::basic_ios" }
%"class.std::basic_ostream.base" = type { i32 (...)** }
%"class.std::__cxx11::basic_stringbuf" = type { %"class.std::basic_streambuf", i32, %"class.std::__cxx11::basic_string" }
%"class.std::basic_streambuf" = type { i32 (...)**, i8*, i8*, i8*, i8*, i8*, i8*, %"class.std::locale" }
%"class.std::locale" = type { %"class.std::locale::_Impl"* }
%"class.std::locale::_Impl" = type { i32, %"class.std::locale::facet"**, i64, %"class.std::locale::facet"**, i8** }
%"class.std::locale::facet" = type <{ i32 (...)**, i32, [4 x i8] }>
%"class.std::basic_ios" = type { %"class.std::ios_base", %"class.std::basic_ostream"*, i8, i8, %"class.std::basic_streambuf"*, %"class.std::ctype"*, %"class.std::num_put"*, %"class.std::num_get"* }
%"class.std::ios_base" = type { i32 (...)**, i64, i64, i32, i32, i32, %"struct.std::ios_base::_Callback_list"*, %"struct.std::ios_base::_Words", [8 x %"struct.std::ios_base::_Words"], i32, %"struct.std::ios_base::_Words"*, %"class.std::locale" }
%"struct.std::ios_base::_Callback_list" = type { %"struct.std::ios_base::_Callback_list"*, void (i32, %"class.std::ios_base"*, i32)*, i32, i32 }
%"struct.std::ios_base::_Words" = type { i8*, i64 }
%"class.std::basic_ostream" = type { i32 (...)**, %"class.std::basic_ios" }
%"class.std::ctype" = type <{ %"class.std::locale::facet.base", [4 x i8], %struct.__locale_struct*, i8, [7 x i8], i32*, i32*, i16*, i8, [256 x i8], [256 x i8], i8, [6 x i8] }>
%"class.std::locale::facet.base" = type <{ i32 (...)**, i32 }>
%struct.__locale_struct = type { [13 x %struct.__locale_data*], i16*, i32*, i32*, [13 x i8*] }
%struct.__locale_data = type opaque
%"class.std::num_put" = type { %"class.std::locale::facet.base", [4 x i8] }
%"class.std::num_get" = type { %"class.std::locale::facet.base", [4 x i8] }
%"class.__gnu_cxx::new_allocator.61" = type { i8 }
%"class.dealii::Tensor.93" = type { [3 x %"class.dealii::Tensor"] }
%"class.std::vector.94" = type opaque
%"class.dealii::VectorSlice" = type opaque
%"class.dealii::Mapping<3, 3>::InternalDataBase" = type opaque
%"class.dealii::Mapping" = type { %"class.dealii::Subscriptor" }
%"class.dealii::Quadrature" = type opaque
%"class.dealii::Quadrature.95" = type opaque
%"class.dealii::TriaIterator" = type opaque
%"class.dealii::FEValuesData" = type opaque
%"class.__gnu_cxx::__normal_iterator.105" = type { i32* }
%"class.std::allocator.16" = type { i8 }
%"class.__gnu_cxx::__normal_iterator" = type { %"class.std::vector.19"* }
%"class.std::allocator.26" = type { i8 }
%"class.__gnu_cxx::__normal_iterator.97" = type { %"class.dealii::Point"* }
%"class.std::allocator.31" = type { i8 }
%"class.__gnu_cxx::__normal_iterator.98" = type { %"class.dealii::Point.34"* }
%"class.dealii::TableBase.37" = type <{ %"class.dealii::Subscriptor", i32*, i32, %"class.dealii::TableIndices", [4 x i8] }>
%"class.std::allocator.42" = type { i8 }
%"class.__gnu_cxx::__normal_iterator.99" = type { i32* }
%"class.std::allocator.47" = type { i8 }
%"class.__gnu_cxx::__normal_iterator.100" = type { %"struct.std::pair"* }
%"class.std::allocator.52" = type { i8 }
%"class.__gnu_cxx::__normal_iterator.101" = type { %"struct.std::pair.55"* }
%"class.std::allocator.64" = type { i8 }
%"struct.std::_Bit_const_iterator" = type { %"struct.std::_Bit_iterator_base.base", [4 x i8] }
%"class.__gnu_cxx::__normal_iterator.102" = type { %"class.std::vector.63"* }
%"class.__gnu_cxx::new_allocator.17" = type { i8 }
%"class.__gnu_cxx::__normal_iterator.96" = type { %"class.dealii::FullMatrix"* }
%"class.__gnu_cxx::new_allocator.27" = type { i8 }
%"class.__gnu_cxx::new_allocator.32" = type { i8 }
%"struct.std::random_access_iterator_tag" = type { i8 }
%"class.__gnu_cxx::new_allocator.43" = type { i8 }
%"class.__gnu_cxx::new_allocator.48" = type { i8 }
%"class.__gnu_cxx::new_allocator.53" = type { i8 }
%"class.__gnu_cxx::new_allocator.65" = type { i8 }
%"struct.std::_Bit_iterator_base" = type <{ i64*, i32, [4 x i8] }>
%"struct.std::iterator" = type { i8 }
%"struct.std::_Bit_reference" = type { i64*, i64 }
%"class.__gnu_cxx::new_allocator.75" = type { i8 }
%"class.std::allocator.79" = type { i8 }
%"class.__gnu_cxx::__normal_iterator.104" = type { double* }
%"class.__gnu_cxx::new_allocator.80" = type { i8 }
%"struct.std::forward_iterator_tag" = type { i8 }

$_ZN5boost3argILi1EEC2Ev = comdat any

$_ZN5boost3argILi2EEC2Ev = comdat any

$_ZN5boost3argILi3EEC2Ev = comdat any

$_ZN5boost3argILi4EEC2Ev = comdat any

$_ZN5boost3argILi5EEC2Ev = comdat any

$_ZN5boost3argILi6EEC2Ev = comdat any

$_ZN5boost3argILi7EEC2Ev = comdat any

$_ZN5boost3argILi8EEC2Ev = comdat any

$_ZN5boost3argILi9EEC2Ev = comdat any

$_ZN6dealii17FE_Q_HierarchicalILi3EEC5Ej = comdat any

$_ZN6dealii24TensorProductPolynomialsILi3EEC2INS_11Polynomials10PolynomialIdEEEERKSt6vectorIT_SaIS7_EE = comdat any

$_ZN6dealii17FE_Q_HierarchicalILi3EE14get_dpo_vectorEj = comdat any

$_ZNSaIbEC2Ev = comdat any

$_ZNSt6vectorIbSaIbEEC2EmRKbRKS0_ = comdat any

$_ZNSaISt6vectorIbSaIbEEEC2Ev = comdat any

$_ZNSt6vectorIS_IbSaIbEESaIS1_EEC2EmRKS1_RKS2_ = comdat any

$_ZNSt6vectorIS_IbSaIbEESaIS1_EED2Ev = comdat any

$_ZNSaISt6vectorIbSaIbEEED2Ev = comdat any

$_ZNSt6vectorIbSaIbEED2Ev = comdat any

$_ZNSaIbED2Ev = comdat any

$_ZNSt6vectorIjSaIjEED2Ev = comdat any

$_ZN6dealii24TensorProductPolynomialsILi3EED2Ev = comdat any

$_ZNSt6vectorIN6dealii11Polynomials10PolynomialIdEESaIS3_EED2Ev = comdat any

$_ZN6dealii17FE_Q_HierarchicalILi3EE46face_fe_q_hierarchical_to_hierarchic_numberingEj = comdat any

$_ZN6dealii17FE_Q_HierarchicalILi3EE41hierarchic_to_fe_q_hierarchical_numberingERKNS_17FiniteElementDataILi3EEE = comdat any

$_ZNSaIN6dealii10FullMatrixIdEEEC2Ev = comdat any

$_ZNSt6vectorIN6dealii10FullMatrixIdEESaIS2_EEC2EmRKS2_RKS3_ = comdat any

$_ZNSaIN6dealii10FullMatrixIdEEED2Ev = comdat any

$_ZN6dealii10FullMatrixIdED2Ev = comdat any

$_ZNK6dealii17FE_Q_HierarchicalILi3EE15build_dofs_cellERSt6vectorINS_10FullMatrixIdEESaIS4_EES7_ = comdat any

$_ZN6dealii17FE_Q_HierarchicalILi3EE22initialize_constraintsERKSt6vectorINS_10FullMatrixIdEESaIS4_EE = comdat any

$_ZN6dealii17FE_Q_HierarchicalILi3EE36initialize_embedding_and_restrictionERKSt6vectorINS_10FullMatrixIdEESaIS4_EES8_ = comdat any

$_ZN6dealii17FE_Q_HierarchicalILi3EE30initialize_unit_support_pointsEv = comdat any

$_ZN6dealii17FE_Q_HierarchicalILi3EE35initialize_unit_face_support_pointsEv = comdat any

$_ZNSt6vectorIN6dealii10FullMatrixIdEESaIS2_EED2Ev = comdat any

$_ZNK6dealii17FE_Q_HierarchicalILi3EE8get_nameB5cxx11Ev = comdat any

$_ZNK6dealii17FE_Q_HierarchicalILi3EE19has_support_on_faceEjj = comdat any

$_ZNK6dealii17FE_Q_HierarchicalILi3EE18memory_consumptionEv = comdat any

$_ZNK6dealii17FE_Q_HierarchicalILi3EE18get_embedding_dofsEj = comdat any

$_ZNSaIjEC2Ev = comdat any

$_ZNSt6vectorIjSaIjEEC2EmRKS0_ = comdat any

$_ZNSaIjED2Ev = comdat any

$_ZNSt6vectorIjSaIjEEixEm = comdat any

$_ZNK6dealii17FE_Q_HierarchicalILi3EE5cloneEv = comdat any

$_ZN6dealii17FE_Q_HierarchicalILi3EEC2ERKS1_ = comdat any

$_ZNSt6vectorIjSaIjEEC2EmRKjRKS0_ = comdat any

$_ZNKSt6vectorIjSaIjEE4sizeEv = comdat any

$_ZN6dealii17FE_Q_HierarchicalILi2EE14get_dpo_vectorEj = comdat any

$_ZN6dealii17FE_Q_HierarchicalILi2EE41hierarchic_to_fe_q_hierarchical_numberingERKNS_17FiniteElementDataILi2EEE = comdat any

$_ZNSt6vectorIN6dealii10FullMatrixIdEESaIS2_EEixEm = comdat any

$_ZN6dealii5TableILi2EdEclEjj = comdat any

$_ZN6dealii9TableBaseILi2EdE6reinitERKNS_12TableIndicesILi2EEE = comdat any

$_ZNKSt6vectorIN6dealii10FullMatrixIdEESaIS2_EEixEm = comdat any

$_ZNK6dealii5TableILi2EdEclEjj = comdat any

$_ZNKSt6vectorIjSaIjEEixEm = comdat any

$_ZNK6dealii24TensorProductPolynomialsILi3EE13get_numberingEv = comdat any

$_ZNSt6vectorIS_IN6dealii10FullMatrixIdEESaIS2_EESaIS4_EEixEm = comdat any

$_ZN6dealii5TableILi2EdE6reinitEjj = comdat any

$_ZNSt6vectorIN6dealii5PointILi3EEESaIS2_EE6resizeEm = comdat any

$_ZNK6dealii24TensorProductPolynomialsILi3EE21get_numbering_inverseEv = comdat any

$_ZN6dealii5PointILi3EEC2Ev = comdat any

$_ZN6dealii5PointILi3EEclEj = comdat any

$_ZNSt6vectorIN6dealii5PointILi3EEESaIS2_EEixEm = comdat any

$_ZN6dealii5PointILi3EEaSERKS1_ = comdat any

$_ZNSt6vectorIN6dealii5PointILi2EEESaIS2_EE6resizeEm = comdat any

$_ZN6dealii5PointILi2EEC2Ev = comdat any

$_ZN6dealii5PointILi2EEclEj = comdat any

$_ZNSt6vectorIN6dealii5PointILi2EEESaIS2_EEixEm = comdat any

$_ZN6dealii5PointILi2EEaSERKS1_ = comdat any

$_ZN6dealii17FE_Q_HierarchicalILi3EED2Ev = comdat any

$_ZN6dealii17FE_Q_HierarchicalILi3EED0Ev = comdat any

$_ZN6dealii5TableILi2EdED2Ev = comdat any

$_ZN6dealii9TableBaseILi2EdED2Ev = comdat any

$_ZN6dealii9TableBaseILi2EdED0Ev = comdat any

$_ZN6dealii7FE_PolyINS_24TensorProductPolynomialsILi3EEELi3ELi3EED2Ev = comdat any

$_ZN6dealii7FE_PolyINS_24TensorProductPolynomialsILi3EEELi3ELi3EED0Ev = comdat any

$_ZN6dealii7FE_PolyINS_24TensorProductPolynomialsILi3EEELi3ELi3EEC2ERKS3_ = comdat any

$_ZNSt6vectorIjSaIjEEC2ERKS1_ = comdat any

$_ZN6dealii13FiniteElementILi3ELi3EEC2ERKS1_ = comdat any

$_ZN6dealii24TensorProductPolynomialsILi3EEC2ERKS1_ = comdat any

$_ZNSt6vectorIS_IN6dealii10FullMatrixIdEESaIS2_EESaIS4_EEC2ERKS6_ = comdat any

$_ZNSt6vectorIN6dealii5PointILi3EEESaIS2_EEC2ERKS4_ = comdat any

$_ZNSt6vectorIN6dealii5PointILi2EEESaIS2_EEC2ERKS4_ = comdat any

$_ZN6dealii5TableILi2EiEC2ERKS1_ = comdat any

$_ZNSt6vectorIiSaIiEEC2ERKS1_ = comdat any

$_ZNSt6vectorISt4pairIjjESaIS1_EEC2ERKS3_ = comdat any

$_ZNSt6vectorISt4pairIS0_IjjEjESaIS2_EEC2ERKS4_ = comdat any

$_ZNSt6vectorIbSaIbEEC2ERKS1_ = comdat any

$_ZNSt6vectorIS_IbSaIbEESaIS1_EEC2ERKS3_ = comdat any

$_ZNSt6vectorISt4pairIS0_IjjEjESaIS2_EED2Ev = comdat any

$_ZNSt6vectorISt4pairIjjESaIS1_EED2Ev = comdat any

$_ZNSt6vectorIiSaIiEED2Ev = comdat any

$_ZN6dealii5TableILi2EiED2Ev = comdat any

$_ZNSt6vectorIN6dealii5PointILi2EEESaIS2_EED2Ev = comdat any

$_ZNSt6vectorIN6dealii5PointILi3EEESaIS2_EED2Ev = comdat any

$_ZNSt6vectorIS_IN6dealii10FullMatrixIdEESaIS2_EESaIS4_EED2Ev = comdat any

$_ZNKSt6vectorIS_IN6dealii10FullMatrixIdEESaIS2_EESaIS4_EE4sizeEv = comdat any

$_ZN9__gnu_cxx14__alloc_traitsISaISt6vectorIN6dealii10FullMatrixIdEESaIS4_EEES6_E17_S_select_on_copyERKS7_ = comdat any

$_ZNKSt12_Vector_baseISt6vectorIN6dealii10FullMatrixIdEESaIS3_EESaIS5_EE19_M_get_Tp_allocatorEv = comdat any

$_ZNSt12_Vector_baseISt6vectorIN6dealii10FullMatrixIdEESaIS3_EESaIS5_EEC2EmRKS6_ = comdat any

$_ZNSaISt6vectorIN6dealii10FullMatrixIdEESaIS2_EEED2Ev = comdat any

$_ZSt22__uninitialized_copy_aIN9__gnu_cxx17__normal_iteratorIPKSt6vectorIN6dealii10FullMatrixIdEESaIS5_EES2_IS7_SaIS7_EEEEPS7_S7_ET0_T_SF_SE_RSaIT1_E = comdat any

$_ZNKSt6vectorIS_IN6dealii10FullMatrixIdEESaIS2_EESaIS4_EE5beginEv = comdat any

$_ZNKSt6vectorIS_IN6dealii10FullMatrixIdEESaIS2_EESaIS4_EE3endEv = comdat any

$_ZNSt12_Vector_baseISt6vectorIN6dealii10FullMatrixIdEESaIS3_EESaIS5_EE19_M_get_Tp_allocatorEv = comdat any

$_ZNSt12_Vector_baseISt6vectorIN6dealii10FullMatrixIdEESaIS3_EESaIS5_EED2Ev = comdat any

$_ZNSt16allocator_traitsISaISt6vectorIN6dealii10FullMatrixIdEESaIS3_EEEE37select_on_container_copy_constructionERKS6_ = comdat any

$_ZNSaISt6vectorIN6dealii10FullMatrixIdEESaIS2_EEEC2ERKS5_ = comdat any

$_ZN9__gnu_cxx13new_allocatorISt6vectorIN6dealii10FullMatrixIdEESaIS4_EEEC2ERKS7_ = comdat any

$_ZNSt12_Vector_baseISt6vectorIN6dealii10FullMatrixIdEESaIS3_EESaIS5_EE12_Vector_implC2ERKS6_ = comdat any

$_ZNSt12_Vector_baseISt6vectorIN6dealii10FullMatrixIdEESaIS3_EESaIS5_EE17_M_create_storageEm = comdat any

$_ZNSt12_Vector_baseISt6vectorIN6dealii10FullMatrixIdEESaIS3_EESaIS5_EE12_Vector_implD2Ev = comdat any

$_ZNSt12_Vector_baseISt6vectorIN6dealii10FullMatrixIdEESaIS3_EESaIS5_EE17_Vector_impl_dataC2Ev = comdat any

$_ZNSt12_Vector_baseISt6vectorIN6dealii10FullMatrixIdEESaIS3_EESaIS5_EE11_M_allocateEm = comdat any

$_ZNSt16allocator_traitsISaISt6vectorIN6dealii10FullMatrixIdEESaIS3_EEEE8allocateERS6_m = comdat any

$_ZN9__gnu_cxx13new_allocatorISt6vectorIN6dealii10FullMatrixIdEESaIS4_EEE8allocateEmPKv = comdat any

$_ZNK9__gnu_cxx13new_allocatorISt6vectorIN6dealii10FullMatrixIdEESaIS4_EEE11_M_max_sizeEv = comdat any

$_ZN9__gnu_cxx13new_allocatorISt6vectorIN6dealii10FullMatrixIdEESaIS4_EEED2Ev = comdat any

$_ZSt18uninitialized_copyIN9__gnu_cxx17__normal_iteratorIPKSt6vectorIN6dealii10FullMatrixIdEESaIS5_EES2_IS7_SaIS7_EEEEPS7_ET0_T_SF_SE_ = comdat any

$_ZNSt20__uninitialized_copyILb0EE13__uninit_copyIN9__gnu_cxx17__normal_iteratorIPKSt6vectorIN6dealii10FullMatrixIdEESaIS7_EES4_IS9_SaIS9_EEEEPS9_EET0_T_SH_SG_ = comdat any

$_ZN9__gnu_cxxneIPKSt6vectorIN6dealii10FullMatrixIdEESaIS4_EES1_IS6_SaIS6_EEEEbRKNS_17__normal_iteratorIT_T0_EESG_ = comdat any

$_ZSt10_ConstructISt6vectorIN6dealii10FullMatrixIdEESaIS3_EEJRKS5_EEvPT_DpOT0_ = comdat any

$_ZSt11__addressofISt6vectorIN6dealii10FullMatrixIdEESaIS3_EEEPT_RS6_ = comdat any

$_ZNK9__gnu_cxx17__normal_iteratorIPKSt6vectorIN6dealii10FullMatrixIdEESaIS4_EES1_IS6_SaIS6_EEEdeEv = comdat any

$_ZN9__gnu_cxx17__normal_iteratorIPKSt6vectorIN6dealii10FullMatrixIdEESaIS4_EES1_IS6_SaIS6_EEEppEv = comdat any

$_ZSt8_DestroyIPSt6vectorIN6dealii10FullMatrixIdEESaIS3_EEEvT_S7_ = comdat any

$__clang_call_terminate = comdat any

$_ZNK9__gnu_cxx17__normal_iteratorIPKSt6vectorIN6dealii10FullMatrixIdEESaIS4_EES1_IS6_SaIS6_EEE4baseEv = comdat any

$_ZSt7forwardIRKSt6vectorIN6dealii10FullMatrixIdEESaIS3_EEEOT_RNSt16remove_referenceIS8_E4typeE = comdat any

$_ZNSt6vectorIN6dealii10FullMatrixIdEESaIS2_EEC2ERKS4_ = comdat any

$_ZNKSt6vectorIN6dealii10FullMatrixIdEESaIS2_EE4sizeEv = comdat any

$_ZN9__gnu_cxx14__alloc_traitsISaIN6dealii10FullMatrixIdEEES3_E17_S_select_on_copyERKS4_ = comdat any

$_ZNKSt12_Vector_baseIN6dealii10FullMatrixIdEESaIS2_EE19_M_get_Tp_allocatorEv = comdat any

$_ZNSt12_Vector_baseIN6dealii10FullMatrixIdEESaIS2_EEC2EmRKS3_ = comdat any

$_ZSt22__uninitialized_copy_aIN9__gnu_cxx17__normal_iteratorIPKN6dealii10FullMatrixIdEESt6vectorIS4_SaIS4_EEEEPS4_S4_ET0_T_SD_SC_RSaIT1_E = comdat any

$_ZNKSt6vectorIN6dealii10FullMatrixIdEESaIS2_EE5beginEv = comdat any

$_ZNKSt6vectorIN6dealii10FullMatrixIdEESaIS2_EE3endEv = comdat any

$_ZNSt12_Vector_baseIN6dealii10FullMatrixIdEESaIS2_EE19_M_get_Tp_allocatorEv = comdat any

$_ZNSt12_Vector_baseIN6dealii10FullMatrixIdEESaIS2_EED2Ev = comdat any

$_ZNSt16allocator_traitsISaIN6dealii10FullMatrixIdEEEE37select_on_container_copy_constructionERKS3_ = comdat any

$_ZNSaIN6dealii10FullMatrixIdEEEC2ERKS2_ = comdat any

$_ZN9__gnu_cxx13new_allocatorIN6dealii10FullMatrixIdEEEC2ERKS4_ = comdat any

$_ZNSt12_Vector_baseIN6dealii10FullMatrixIdEESaIS2_EE12_Vector_implC2ERKS3_ = comdat any

$_ZNSt12_Vector_baseIN6dealii10FullMatrixIdEESaIS2_EE17_M_create_storageEm = comdat any

$_ZNSt12_Vector_baseIN6dealii10FullMatrixIdEESaIS2_EE12_Vector_implD2Ev = comdat any

$_ZNSt12_Vector_baseIN6dealii10FullMatrixIdEESaIS2_EE17_Vector_impl_dataC2Ev = comdat any

$_ZNSt12_Vector_baseIN6dealii10FullMatrixIdEESaIS2_EE11_M_allocateEm = comdat any

$_ZNSt16allocator_traitsISaIN6dealii10FullMatrixIdEEEE8allocateERS3_m = comdat any

$_ZN9__gnu_cxx13new_allocatorIN6dealii10FullMatrixIdEEE8allocateEmPKv = comdat any

$_ZNK9__gnu_cxx13new_allocatorIN6dealii10FullMatrixIdEEE11_M_max_sizeEv = comdat any

$_ZN9__gnu_cxx13new_allocatorIN6dealii10FullMatrixIdEEED2Ev = comdat any

$_ZSt18uninitialized_copyIN9__gnu_cxx17__normal_iteratorIPKN6dealii10FullMatrixIdEESt6vectorIS4_SaIS4_EEEEPS4_ET0_T_SD_SC_ = comdat any

$_ZNSt20__uninitialized_copyILb0EE13__uninit_copyIN9__gnu_cxx17__normal_iteratorIPKN6dealii10FullMatrixIdEESt6vectorIS6_SaIS6_EEEEPS6_EET0_T_SF_SE_ = comdat any

$_ZN9__gnu_cxxneIPKN6dealii10FullMatrixIdEESt6vectorIS3_SaIS3_EEEEbRKNS_17__normal_iteratorIT_T0_EESE_ = comdat any

$_ZSt10_ConstructIN6dealii10FullMatrixIdEEJRKS2_EEvPT_DpOT0_ = comdat any

$_ZSt11__addressofIN6dealii10FullMatrixIdEEEPT_RS3_ = comdat any

$_ZNK9__gnu_cxx17__normal_iteratorIPKN6dealii10FullMatrixIdEESt6vectorIS3_SaIS3_EEEdeEv = comdat any

$_ZN9__gnu_cxx17__normal_iteratorIPKN6dealii10FullMatrixIdEESt6vectorIS3_SaIS3_EEEppEv = comdat any

$_ZSt8_DestroyIPN6dealii10FullMatrixIdEEEvT_S4_ = comdat any

$_ZNK9__gnu_cxx17__normal_iteratorIPKN6dealii10FullMatrixIdEESt6vectorIS3_SaIS3_EEE4baseEv = comdat any

$_ZSt7forwardIRKN6dealii10FullMatrixIdEEEOT_RNSt16remove_referenceIS5_E4typeE = comdat any

$_ZNSt12_Destroy_auxILb0EE9__destroyIPN6dealii10FullMatrixIdEEEEvT_S6_ = comdat any

$_ZSt8_DestroyIN6dealii10FullMatrixIdEEEvPT_ = comdat any

$_ZN9__gnu_cxx17__normal_iteratorIPKN6dealii10FullMatrixIdEESt6vectorIS3_SaIS3_EEEC2ERKS5_ = comdat any

$_ZNSt12_Vector_baseIN6dealii10FullMatrixIdEESaIS2_EE13_M_deallocateEPS2_m = comdat any

$_ZNSt16allocator_traitsISaIN6dealii10FullMatrixIdEEEE10deallocateERS3_PS2_m = comdat any

$_ZN9__gnu_cxx13new_allocatorIN6dealii10FullMatrixIdEEE10deallocateEPS3_m = comdat any

$_ZNSt12_Destroy_auxILb0EE9__destroyIPSt6vectorIN6dealii10FullMatrixIdEESaIS5_EEEEvT_S9_ = comdat any

$_ZSt8_DestroyISt6vectorIN6dealii10FullMatrixIdEESaIS3_EEEvPT_ = comdat any

$_ZN9__gnu_cxx17__normal_iteratorIPKSt6vectorIN6dealii10FullMatrixIdEESaIS4_EES1_IS6_SaIS6_EEEC2ERKS8_ = comdat any

$_ZNSt12_Vector_baseISt6vectorIN6dealii10FullMatrixIdEESaIS3_EESaIS5_EE13_M_deallocateEPS5_m = comdat any

$_ZNSt16allocator_traitsISaISt6vectorIN6dealii10FullMatrixIdEESaIS3_EEEE10deallocateERS6_PS5_m = comdat any

$_ZN9__gnu_cxx13new_allocatorISt6vectorIN6dealii10FullMatrixIdEESaIS4_EEE10deallocateEPS6_m = comdat any

$_ZNKSt6vectorIN6dealii5PointILi3EEESaIS2_EE4sizeEv = comdat any

$_ZN9__gnu_cxx14__alloc_traitsISaIN6dealii5PointILi3EEEES3_E17_S_select_on_copyERKS4_ = comdat any

$_ZNKSt12_Vector_baseIN6dealii5PointILi3EEESaIS2_EE19_M_get_Tp_allocatorEv = comdat any

$_ZNSt12_Vector_baseIN6dealii5PointILi3EEESaIS2_EEC2EmRKS3_ = comdat any

$_ZNSaIN6dealii5PointILi3EEEED2Ev = comdat any

$_ZSt22__uninitialized_copy_aIN9__gnu_cxx17__normal_iteratorIPKN6dealii5PointILi3EEESt6vectorIS4_SaIS4_EEEEPS4_S4_ET0_T_SD_SC_RSaIT1_E = comdat any

$_ZNKSt6vectorIN6dealii5PointILi3EEESaIS2_EE5beginEv = comdat any

$_ZNKSt6vectorIN6dealii5PointILi3EEESaIS2_EE3endEv = comdat any

$_ZNSt12_Vector_baseIN6dealii5PointILi3EEESaIS2_EE19_M_get_Tp_allocatorEv = comdat any

$_ZNSt12_Vector_baseIN6dealii5PointILi3EEESaIS2_EED2Ev = comdat any

$_ZNSt16allocator_traitsISaIN6dealii5PointILi3EEEEE37select_on_container_copy_constructionERKS3_ = comdat any

$_ZNSaIN6dealii5PointILi3EEEEC2ERKS2_ = comdat any

$_ZN9__gnu_cxx13new_allocatorIN6dealii5PointILi3EEEEC2ERKS4_ = comdat any

$_ZNSt12_Vector_baseIN6dealii5PointILi3EEESaIS2_EE12_Vector_implC2ERKS3_ = comdat any

$_ZNSt12_Vector_baseIN6dealii5PointILi3EEESaIS2_EE17_M_create_storageEm = comdat any

$_ZNSt12_Vector_baseIN6dealii5PointILi3EEESaIS2_EE12_Vector_implD2Ev = comdat any

$_ZNSt12_Vector_baseIN6dealii5PointILi3EEESaIS2_EE17_Vector_impl_dataC2Ev = comdat any

$_ZNSt12_Vector_baseIN6dealii5PointILi3EEESaIS2_EE11_M_allocateEm = comdat any

$_ZNSt16allocator_traitsISaIN6dealii5PointILi3EEEEE8allocateERS3_m = comdat any

$_ZN9__gnu_cxx13new_allocatorIN6dealii5PointILi3EEEE8allocateEmPKv = comdat any

$_ZNK9__gnu_cxx13new_allocatorIN6dealii5PointILi3EEEE11_M_max_sizeEv = comdat any

$_ZN9__gnu_cxx13new_allocatorIN6dealii5PointILi3EEEED2Ev = comdat any

$_ZSt18uninitialized_copyIN9__gnu_cxx17__normal_iteratorIPKN6dealii5PointILi3EEESt6vectorIS4_SaIS4_EEEEPS4_ET0_T_SD_SC_ = comdat any

$_ZNSt20__uninitialized_copyILb0EE13__uninit_copyIN9__gnu_cxx17__normal_iteratorIPKN6dealii5PointILi3EEESt6vectorIS6_SaIS6_EEEEPS6_EET0_T_SF_SE_ = comdat any

$_ZN9__gnu_cxxneIPKN6dealii5PointILi3EEESt6vectorIS3_SaIS3_EEEEbRKNS_17__normal_iteratorIT_T0_EESE_ = comdat any

$_ZSt10_ConstructIN6dealii5PointILi3EEEJRKS2_EEvPT_DpOT0_ = comdat any

$_ZSt11__addressofIN6dealii5PointILi3EEEEPT_RS3_ = comdat any

$_ZNK9__gnu_cxx17__normal_iteratorIPKN6dealii5PointILi3EEESt6vectorIS3_SaIS3_EEEdeEv = comdat any

$_ZN9__gnu_cxx17__normal_iteratorIPKN6dealii5PointILi3EEESt6vectorIS3_SaIS3_EEEppEv = comdat any

$_ZSt8_DestroyIPN6dealii5PointILi3EEEEvT_S4_ = comdat any

$_ZNK9__gnu_cxx17__normal_iteratorIPKN6dealii5PointILi3EEESt6vectorIS3_SaIS3_EEE4baseEv = comdat any

$_ZSt7forwardIRKN6dealii5PointILi3EEEEOT_RNSt16remove_referenceIS5_E4typeE = comdat any

$_ZN6dealii5PointILi3EEC2ERKS1_ = comdat any

$_ZN6dealii6TensorILi1ELi3EEC2ERKS1_ = comdat any

$_ZNSt12_Destroy_auxILb1EE9__destroyIPN6dealii5PointILi3EEEEEvT_S6_ = comdat any

$_ZN9__gnu_cxx17__normal_iteratorIPKN6dealii5PointILi3EEESt6vectorIS3_SaIS3_EEEC2ERKS5_ = comdat any

$_ZNSt12_Vector_baseIN6dealii5PointILi3EEESaIS2_EE13_M_deallocateEPS2_m = comdat any

$_ZNSt16allocator_traitsISaIN6dealii5PointILi3EEEEE10deallocateERS3_PS2_m = comdat any

$_ZN9__gnu_cxx13new_allocatorIN6dealii5PointILi3EEEE10deallocateEPS3_m = comdat any

$_ZNKSt6vectorIN6dealii5PointILi2EEESaIS2_EE4sizeEv = comdat any

$_ZN9__gnu_cxx14__alloc_traitsISaIN6dealii5PointILi2EEEES3_E17_S_select_on_copyERKS4_ = comdat any

$_ZNKSt12_Vector_baseIN6dealii5PointILi2EEESaIS2_EE19_M_get_Tp_allocatorEv = comdat any

$_ZNSt12_Vector_baseIN6dealii5PointILi2EEESaIS2_EEC2EmRKS3_ = comdat any

$_ZNSaIN6dealii5PointILi2EEEED2Ev = comdat any

$_ZSt22__uninitialized_copy_aIN9__gnu_cxx17__normal_iteratorIPKN6dealii5PointILi2EEESt6vectorIS4_SaIS4_EEEEPS4_S4_ET0_T_SD_SC_RSaIT1_E = comdat any

$_ZNKSt6vectorIN6dealii5PointILi2EEESaIS2_EE5beginEv = comdat any

$_ZNKSt6vectorIN6dealii5PointILi2EEESaIS2_EE3endEv = comdat any

$_ZNSt12_Vector_baseIN6dealii5PointILi2EEESaIS2_EE19_M_get_Tp_allocatorEv = comdat any

$_ZNSt12_Vector_baseIN6dealii5PointILi2EEESaIS2_EED2Ev = comdat any

$_ZNSt16allocator_traitsISaIN6dealii5PointILi2EEEEE37select_on_container_copy_constructionERKS3_ = comdat any

$_ZNSaIN6dealii5PointILi2EEEEC2ERKS2_ = comdat any

$_ZN9__gnu_cxx13new_allocatorIN6dealii5PointILi2EEEEC2ERKS4_ = comdat any

$_ZNSt12_Vector_baseIN6dealii5PointILi2EEESaIS2_EE12_Vector_implC2ERKS3_ = comdat any

$_ZNSt12_Vector_baseIN6dealii5PointILi2EEESaIS2_EE17_M_create_storageEm = comdat any

$_ZNSt12_Vector_baseIN6dealii5PointILi2EEESaIS2_EE12_Vector_implD2Ev = comdat any

$_ZNSt12_Vector_baseIN6dealii5PointILi2EEESaIS2_EE17_Vector_impl_dataC2Ev = comdat any

$_ZNSt12_Vector_baseIN6dealii5PointILi2EEESaIS2_EE11_M_allocateEm = comdat any

$_ZNSt16allocator_traitsISaIN6dealii5PointILi2EEEEE8allocateERS3_m = comdat any

$_ZN9__gnu_cxx13new_allocatorIN6dealii5PointILi2EEEE8allocateEmPKv = comdat any

$_ZNK9__gnu_cxx13new_allocatorIN6dealii5PointILi2EEEE11_M_max_sizeEv = comdat any

$_ZN9__gnu_cxx13new_allocatorIN6dealii5PointILi2EEEED2Ev = comdat any

$_ZSt18uninitialized_copyIN9__gnu_cxx17__normal_iteratorIPKN6dealii5PointILi2EEESt6vectorIS4_SaIS4_EEEEPS4_ET0_T_SD_SC_ = comdat any

$_ZNSt20__uninitialized_copyILb0EE13__uninit_copyIN9__gnu_cxx17__normal_iteratorIPKN6dealii5PointILi2EEESt6vectorIS6_SaIS6_EEEEPS6_EET0_T_SF_SE_ = comdat any

$_ZN9__gnu_cxxneIPKN6dealii5PointILi2EEESt6vectorIS3_SaIS3_EEEEbRKNS_17__normal_iteratorIT_T0_EESE_ = comdat any

$_ZSt10_ConstructIN6dealii5PointILi2EEEJRKS2_EEvPT_DpOT0_ = comdat any

$_ZSt11__addressofIN6dealii5PointILi2EEEEPT_RS3_ = comdat any

$_ZNK9__gnu_cxx17__normal_iteratorIPKN6dealii5PointILi2EEESt6vectorIS3_SaIS3_EEEdeEv = comdat any

$_ZN9__gnu_cxx17__normal_iteratorIPKN6dealii5PointILi2EEESt6vectorIS3_SaIS3_EEEppEv = comdat any

$_ZSt8_DestroyIPN6dealii5PointILi2EEEEvT_S4_ = comdat any

$_ZNK9__gnu_cxx17__normal_iteratorIPKN6dealii5PointILi2EEESt6vectorIS3_SaIS3_EEE4baseEv = comdat any

$_ZSt7forwardIRKN6dealii5PointILi2EEEEOT_RNSt16remove_referenceIS5_E4typeE = comdat any

$_ZN6dealii5PointILi2EEC2ERKS1_ = comdat any

$_ZN6dealii6TensorILi1ELi2EEC2ERKS1_ = comdat any

$_ZNSt12_Destroy_auxILb1EE9__destroyIPN6dealii5PointILi2EEEEEvT_S6_ = comdat any

$_ZN9__gnu_cxx17__normal_iteratorIPKN6dealii5PointILi2EEESt6vectorIS3_SaIS3_EEEC2ERKS5_ = comdat any

$_ZNSt12_Vector_baseIN6dealii5PointILi2EEESaIS2_EE13_M_deallocateEPS2_m = comdat any

$_ZNSt16allocator_traitsISaIN6dealii5PointILi2EEEEE10deallocateERS3_PS2_m = comdat any

$_ZN9__gnu_cxx13new_allocatorIN6dealii5PointILi2EEEE10deallocateEPS3_m = comdat any

$_ZN6dealii9TableBaseILi2EiEC2ERKS1_ = comdat any

$_ZN6dealii5TableILi2EiED0Ev = comdat any

$_ZN6dealii12TableIndicesILi2EEC2Ev = comdat any

$_ZN6dealii9TableBaseILi2EiE6reinitERKNS_12TableIndicesILi2EEE = comdat any

$_ZNK6dealii9TableBaseILi2EiE10n_elementsEv = comdat any

$_ZN6dealii9TableBaseILi2EiE4fillIiEEvPKT_ = comdat any

$_ZNK6dealii9TableBaseILi2EiE4dataEv = comdat any

$_ZN6dealii9TableBaseILi2EiED2Ev = comdat any

$_ZN6dealii9TableBaseILi2EiED0Ev = comdat any

$_ZN6dealii9TableBaseILi2EiE12reset_valuesEv = comdat any

$_ZSt6fill_nIPijiET_S1_T0_RKT1_ = comdat any

$_ZSt10__fill_n_aIPijiET_S1_T0_RKT1_St26random_access_iterator_tag = comdat any

$_ZSt17__size_to_integerj = comdat any

$_ZSt19__iterator_categoryIPiENSt15iterator_traitsIT_E17iterator_categoryERKS2_ = comdat any

$_ZSt8__fill_aIPiiEvT_S1_RKT0_ = comdat any

$_ZSt9__fill_a1IPiiEN9__gnu_cxx11__enable_ifIXsr11__is_scalarIT0_EE7__valueEvE6__typeET_S6_RKS3_ = comdat any

$_ZNK6dealii16TableIndicesBaseILi2EEixEj = comdat any

$_ZSt4copyIPKiPiET0_T_S4_S3_ = comdat any

$_ZSt13__copy_move_aILb0EPKiPiET1_T0_S4_S3_ = comdat any

$_ZSt12__miter_baseIPKiET_S2_ = comdat any

$_ZSt12__niter_wrapIPiET_RKS1_S1_ = comdat any

$_ZSt14__copy_move_a1ILb0EPKiPiET1_T0_S4_S3_ = comdat any

$_ZSt12__niter_baseIPKiET_S2_ = comdat any

$_ZSt12__niter_baseIPiET_S1_ = comdat any

$_ZSt14__copy_move_a2ILb0EPKiPiET1_T0_S4_S3_ = comdat any

$_ZNSt11__copy_moveILb0ELb1ESt26random_access_iterator_tagE8__copy_mIiEEPT_PKS3_S6_S4_ = comdat any

$_ZNKSt6vectorIiSaIiEE4sizeEv = comdat any

$_ZN9__gnu_cxx14__alloc_traitsISaIiEiE17_S_select_on_copyERKS1_ = comdat any

$_ZNKSt12_Vector_baseIiSaIiEE19_M_get_Tp_allocatorEv = comdat any

$_ZNSt12_Vector_baseIiSaIiEEC2EmRKS0_ = comdat any

$_ZNSaIiED2Ev = comdat any

$_ZSt22__uninitialized_copy_aIN9__gnu_cxx17__normal_iteratorIPKiSt6vectorIiSaIiEEEEPiiET0_T_SA_S9_RSaIT1_E = comdat any

$_ZNKSt6vectorIiSaIiEE5beginEv = comdat any

$_ZNKSt6vectorIiSaIiEE3endEv = comdat any

$_ZNSt12_Vector_baseIiSaIiEE19_M_get_Tp_allocatorEv = comdat any

$_ZNSt12_Vector_baseIiSaIiEED2Ev = comdat any

$_ZNSt16allocator_traitsISaIiEE37select_on_container_copy_constructionERKS0_ = comdat any

$_ZNSaIiEC2ERKS_ = comdat any

$_ZN9__gnu_cxx13new_allocatorIiEC2ERKS1_ = comdat any

$_ZNSt12_Vector_baseIiSaIiEE12_Vector_implC2ERKS0_ = comdat any

$_ZNSt12_Vector_baseIiSaIiEE17_M_create_storageEm = comdat any

$_ZNSt12_Vector_baseIiSaIiEE12_Vector_implD2Ev = comdat any

$_ZNSt12_Vector_baseIiSaIiEE17_Vector_impl_dataC2Ev = comdat any

$_ZNSt12_Vector_baseIiSaIiEE11_M_allocateEm = comdat any

$_ZNSt16allocator_traitsISaIiEE8allocateERS0_m = comdat any

$_ZN9__gnu_cxx13new_allocatorIiE8allocateEmPKv = comdat any

$_ZNK9__gnu_cxx13new_allocatorIiE11_M_max_sizeEv = comdat any

$_ZN9__gnu_cxx13new_allocatorIiED2Ev = comdat any

$_ZSt18uninitialized_copyIN9__gnu_cxx17__normal_iteratorIPKiSt6vectorIiSaIiEEEEPiET0_T_SA_S9_ = comdat any

$_ZNSt20__uninitialized_copyILb1EE13__uninit_copyIN9__gnu_cxx17__normal_iteratorIPKiSt6vectorIiSaIiEEEEPiEET0_T_SC_SB_ = comdat any

$_ZSt4copyIN9__gnu_cxx17__normal_iteratorIPKiSt6vectorIiSaIiEEEEPiET0_T_SA_S9_ = comdat any

$_ZSt13__copy_move_aILb0EN9__gnu_cxx17__normal_iteratorIPKiSt6vectorIiSaIiEEEEPiET1_T0_SA_S9_ = comdat any

$_ZSt12__miter_baseIN9__gnu_cxx17__normal_iteratorIPKiSt6vectorIiSaIiEEEEET_S8_ = comdat any

$_ZSt12__niter_baseIPKiSt6vectorIiSaIiEEET_N9__gnu_cxx17__normal_iteratorIS5_T0_EE = comdat any

$_ZNK9__gnu_cxx17__normal_iteratorIPKiSt6vectorIiSaIiEEE4baseEv = comdat any

$_ZN9__gnu_cxx17__normal_iteratorIPKiSt6vectorIiSaIiEEEC2ERKS2_ = comdat any

$_ZNSt12_Vector_baseIiSaIiEE13_M_deallocateEPim = comdat any

$_ZNSt16allocator_traitsISaIiEE10deallocateERS0_Pim = comdat any

$_ZN9__gnu_cxx13new_allocatorIiE10deallocateEPim = comdat any

$_ZNKSt6vectorISt4pairIjjESaIS1_EE4sizeEv = comdat any

$_ZN9__gnu_cxx14__alloc_traitsISaISt4pairIjjEES2_E17_S_select_on_copyERKS3_ = comdat any

$_ZNKSt12_Vector_baseISt4pairIjjESaIS1_EE19_M_get_Tp_allocatorEv = comdat any

$_ZNSt12_Vector_baseISt4pairIjjESaIS1_EEC2EmRKS2_ = comdat any

$_ZNSaISt4pairIjjEED2Ev = comdat any

$_ZSt22__uninitialized_copy_aIN9__gnu_cxx17__normal_iteratorIPKSt4pairIjjESt6vectorIS3_SaIS3_EEEEPS3_S3_ET0_T_SC_SB_RSaIT1_E = comdat any

$_ZNKSt6vectorISt4pairIjjESaIS1_EE5beginEv = comdat any

$_ZNKSt6vectorISt4pairIjjESaIS1_EE3endEv = comdat any

$_ZNSt12_Vector_baseISt4pairIjjESaIS1_EE19_M_get_Tp_allocatorEv = comdat any

$_ZNSt12_Vector_baseISt4pairIjjESaIS1_EED2Ev = comdat any

$_ZNSt16allocator_traitsISaISt4pairIjjEEE37select_on_container_copy_constructionERKS2_ = comdat any

$_ZNSaISt4pairIjjEEC2ERKS1_ = comdat any

$_ZN9__gnu_cxx13new_allocatorISt4pairIjjEEC2ERKS3_ = comdat any

$_ZNSt12_Vector_baseISt4pairIjjESaIS1_EE12_Vector_implC2ERKS2_ = comdat any

$_ZNSt12_Vector_baseISt4pairIjjESaIS1_EE17_M_create_storageEm = comdat any

$_ZNSt12_Vector_baseISt4pairIjjESaIS1_EE12_Vector_implD2Ev = comdat any

$_ZNSt12_Vector_baseISt4pairIjjESaIS1_EE17_Vector_impl_dataC2Ev = comdat any

$_ZNSt12_Vector_baseISt4pairIjjESaIS1_EE11_M_allocateEm = comdat any

$_ZNSt16allocator_traitsISaISt4pairIjjEEE8allocateERS2_m = comdat any

$_ZN9__gnu_cxx13new_allocatorISt4pairIjjEE8allocateEmPKv = comdat any

$_ZNK9__gnu_cxx13new_allocatorISt4pairIjjEE11_M_max_sizeEv = comdat any

$_ZN9__gnu_cxx13new_allocatorISt4pairIjjEED2Ev = comdat any

$_ZSt18uninitialized_copyIN9__gnu_cxx17__normal_iteratorIPKSt4pairIjjESt6vectorIS3_SaIS3_EEEEPS3_ET0_T_SC_SB_ = comdat any

$_ZNSt20__uninitialized_copyILb0EE13__uninit_copyIN9__gnu_cxx17__normal_iteratorIPKSt4pairIjjESt6vectorIS5_SaIS5_EEEEPS5_EET0_T_SE_SD_ = comdat any

$_ZN9__gnu_cxxneIPKSt4pairIjjESt6vectorIS2_SaIS2_EEEEbRKNS_17__normal_iteratorIT_T0_EESD_ = comdat any

$_ZSt10_ConstructISt4pairIjjEJRKS1_EEvPT_DpOT0_ = comdat any

$_ZSt11__addressofISt4pairIjjEEPT_RS2_ = comdat any

$_ZNK9__gnu_cxx17__normal_iteratorIPKSt4pairIjjESt6vectorIS2_SaIS2_EEEdeEv = comdat any

$_ZN9__gnu_cxx17__normal_iteratorIPKSt4pairIjjESt6vectorIS2_SaIS2_EEEppEv = comdat any

$_ZSt8_DestroyIPSt4pairIjjEEvT_S3_ = comdat any

$_ZNK9__gnu_cxx17__normal_iteratorIPKSt4pairIjjESt6vectorIS2_SaIS2_EEE4baseEv = comdat any

$_ZSt7forwardIRKSt4pairIjjEEOT_RNSt16remove_referenceIS4_E4typeE = comdat any

$_ZNSt12_Destroy_auxILb1EE9__destroyIPSt4pairIjjEEEvT_S5_ = comdat any

$_ZN9__gnu_cxx17__normal_iteratorIPKSt4pairIjjESt6vectorIS2_SaIS2_EEEC2ERKS4_ = comdat any

$_ZNSt12_Vector_baseISt4pairIjjESaIS1_EE13_M_deallocateEPS1_m = comdat any

$_ZNSt16allocator_traitsISaISt4pairIjjEEE10deallocateERS2_PS1_m = comdat any

$_ZN9__gnu_cxx13new_allocatorISt4pairIjjEE10deallocateEPS2_m = comdat any

$_ZNKSt6vectorISt4pairIS0_IjjEjESaIS2_EE4sizeEv = comdat any

$_ZN9__gnu_cxx14__alloc_traitsISaISt4pairIS1_IjjEjEES3_E17_S_select_on_copyERKS4_ = comdat any

$_ZNKSt12_Vector_baseISt4pairIS0_IjjEjESaIS2_EE19_M_get_Tp_allocatorEv = comdat any

$_ZNSt12_Vector_baseISt4pairIS0_IjjEjESaIS2_EEC2EmRKS3_ = comdat any

$_ZNSaISt4pairIS_IjjEjEED2Ev = comdat any

$_ZSt22__uninitialized_copy_aIN9__gnu_cxx17__normal_iteratorIPKSt4pairIS2_IjjEjESt6vectorIS4_SaIS4_EEEEPS4_S4_ET0_T_SD_SC_RSaIT1_E = comdat any

$_ZNKSt6vectorISt4pairIS0_IjjEjESaIS2_EE5beginEv = comdat any

$_ZNKSt6vectorISt4pairIS0_IjjEjESaIS2_EE3endEv = comdat any

$_ZNSt12_Vector_baseISt4pairIS0_IjjEjESaIS2_EE19_M_get_Tp_allocatorEv = comdat any

$_ZNSt12_Vector_baseISt4pairIS0_IjjEjESaIS2_EED2Ev = comdat any

$_ZNSt16allocator_traitsISaISt4pairIS0_IjjEjEEE37select_on_container_copy_constructionERKS3_ = comdat any

$_ZNSaISt4pairIS_IjjEjEEC2ERKS2_ = comdat any

$_ZN9__gnu_cxx13new_allocatorISt4pairIS1_IjjEjEEC2ERKS4_ = comdat any

$_ZNSt12_Vector_baseISt4pairIS0_IjjEjESaIS2_EE12_Vector_implC2ERKS3_ = comdat any

$_ZNSt12_Vector_baseISt4pairIS0_IjjEjESaIS2_EE17_M_create_storageEm = comdat any

$_ZNSt12_Vector_baseISt4pairIS0_IjjEjESaIS2_EE12_Vector_implD2Ev = comdat any

$_ZNSt12_Vector_baseISt4pairIS0_IjjEjESaIS2_EE17_Vector_impl_dataC2Ev = comdat any

$_ZNSt12_Vector_baseISt4pairIS0_IjjEjESaIS2_EE11_M_allocateEm = comdat any

$_ZNSt16allocator_traitsISaISt4pairIS0_IjjEjEEE8allocateERS3_m = comdat any

$_ZN9__gnu_cxx13new_allocatorISt4pairIS1_IjjEjEE8allocateEmPKv = comdat any

$_ZNK9__gnu_cxx13new_allocatorISt4pairIS1_IjjEjEE11_M_max_sizeEv = comdat any

$_ZN9__gnu_cxx13new_allocatorISt4pairIS1_IjjEjEED2Ev = comdat any

$_ZSt18uninitialized_copyIN9__gnu_cxx17__normal_iteratorIPKSt4pairIS2_IjjEjESt6vectorIS4_SaIS4_EEEEPS4_ET0_T_SD_SC_ = comdat any

$_ZNSt20__uninitialized_copyILb0EE13__uninit_copyIN9__gnu_cxx17__normal_iteratorIPKSt4pairIS4_IjjEjESt6vectorIS6_SaIS6_EEEEPS6_EET0_T_SF_SE_ = comdat any

$_ZN9__gnu_cxxneIPKSt4pairIS1_IjjEjESt6vectorIS3_SaIS3_EEEEbRKNS_17__normal_iteratorIT_T0_EESE_ = comdat any

$_ZSt10_ConstructISt4pairIS0_IjjEjEJRKS2_EEvPT_DpOT0_ = comdat any

$_ZSt11__addressofISt4pairIS0_IjjEjEEPT_RS3_ = comdat any

$_ZNK9__gnu_cxx17__normal_iteratorIPKSt4pairIS1_IjjEjESt6vectorIS3_SaIS3_EEEdeEv = comdat any

$_ZN9__gnu_cxx17__normal_iteratorIPKSt4pairIS1_IjjEjESt6vectorIS3_SaIS3_EEEppEv = comdat any

$_ZSt8_DestroyIPSt4pairIS0_IjjEjEEvT_S4_ = comdat any

$_ZNK9__gnu_cxx17__normal_iteratorIPKSt4pairIS1_IjjEjESt6vectorIS3_SaIS3_EEE4baseEv = comdat any

$_ZSt7forwardIRKSt4pairIS0_IjjEjEEOT_RNSt16remove_referenceIS5_E4typeE = comdat any

$_ZNSt12_Destroy_auxILb1EE9__destroyIPSt4pairIS2_IjjEjEEEvT_S6_ = comdat any

$_ZN9__gnu_cxx17__normal_iteratorIPKSt4pairIS1_IjjEjESt6vectorIS3_SaIS3_EEEC2ERKS5_ = comdat any

$_ZNSt12_Vector_baseISt4pairIS0_IjjEjESaIS2_EE13_M_deallocateEPS2_m = comdat any

$_ZNSt16allocator_traitsISaISt4pairIS0_IjjEjEEE10deallocateERS3_PS2_m = comdat any

$_ZN9__gnu_cxx13new_allocatorISt4pairIS1_IjjEjEE10deallocateEPS3_m = comdat any

$_ZN9__gnu_cxx14__alloc_traitsISaImEmE17_S_select_on_copyERKS1_ = comdat any

$_ZNKSt13_Bvector_baseISaIbEE20_M_get_Bit_allocatorEv = comdat any

$_ZNSaIbEC2ImEERKSaIT_E = comdat any

$_ZNSt13_Bvector_baseISaIbEEC2ERKS0_ = comdat any

$_ZNSaImED2Ev = comdat any

$_ZNSt6vectorIbSaIbEE13_M_initializeEm = comdat any

$_ZNKSt6vectorIbSaIbEE4sizeEv = comdat any

$_ZNSt6vectorIbSaIbEE15_M_copy_alignedESt19_Bit_const_iteratorS2_St13_Bit_iterator = comdat any

$_ZNKSt6vectorIbSaIbEE5beginEv = comdat any

$_ZNKSt6vectorIbSaIbEE3endEv = comdat any

$_ZNSt13_Bvector_baseISaIbEED2Ev = comdat any

$_ZNSt16allocator_traitsISaImEE37select_on_container_copy_constructionERKS0_ = comdat any

$_ZNSaImEC2ERKS_ = comdat any

$_ZN9__gnu_cxx13new_allocatorImEC2ERKS1_ = comdat any

$_ZN9__gnu_cxx13new_allocatorIbEC2Ev = comdat any

$_ZNSaImEC2IbEERKSaIT_E = comdat any

$_ZNSt13_Bvector_baseISaIbEE13_Bvector_implC2ERKSaImE = comdat any

$_ZN9__gnu_cxx13new_allocatorImEC2Ev = comdat any

$_ZNSt13_Bvector_baseISaIbEE18_Bvector_impl_dataC2Ev = comdat any

$_ZNSt13_Bit_iteratorC2Ev = comdat any

$_ZNSt18_Bit_iterator_baseC2EPmj = comdat any

$_ZN9__gnu_cxx13new_allocatorImED2Ev = comdat any

$_ZNSt13_Bvector_baseISaIbEE11_M_allocateEm = comdat any

$_ZNSt13_Bvector_baseISaIbEE8_S_nwordEm = comdat any

$_ZSt11__addressofImEPT_RS0_ = comdat any

$_ZNSt13_Bit_iteratorC2EPmj = comdat any

$_ZStplRKSt13_Bit_iteratorl = comdat any

$_ZNSt16allocator_traitsISaImEE8allocateERS0_m = comdat any

$_ZN9__gnu_cxx13new_allocatorImE8allocateEmPKv = comdat any

$_ZNK9__gnu_cxx13new_allocatorImE11_M_max_sizeEv = comdat any

$_ZNSt13_Bit_iteratorpLEl = comdat any

$_ZNSt18_Bit_iterator_base7_M_incrEl = comdat any

$_ZStmiRKSt18_Bit_iterator_baseS1_ = comdat any

$_ZSt4copyIPmS0_ET0_T_S2_S1_ = comdat any

$_ZSt4copyISt19_Bit_const_iteratorSt13_Bit_iteratorET0_T_S3_S2_ = comdat any

$_ZNSt19_Bit_const_iteratorC2EPmj = comdat any

$_ZSt13__copy_move_aILb0EPmS0_ET1_T0_S2_S1_ = comdat any

$_ZSt12__miter_baseIPmET_S1_ = comdat any

$_ZSt12__niter_wrapIPmET_RKS1_S1_ = comdat any

$_ZSt14__copy_move_a1ILb0EPmS0_ET1_T0_S2_S1_ = comdat any

$_ZSt12__niter_baseIPmET_S1_ = comdat any

$_ZSt14__copy_move_a2ILb0EPmS0_ET1_T0_S2_S1_ = comdat any

$_ZNSt11__copy_moveILb0ELb1ESt26random_access_iterator_tagE8__copy_mImEEPT_PKS3_S6_S4_ = comdat any

$_ZSt13__copy_move_aILb0ESt19_Bit_const_iteratorSt13_Bit_iteratorET1_T0_S3_S2_ = comdat any

$_ZSt12__miter_baseISt19_Bit_const_iteratorET_S1_ = comdat any

$_ZSt12__niter_wrapISt13_Bit_iteratorET_RKS1_S1_ = comdat any

$_ZSt14__copy_move_a1ILb0ESt19_Bit_const_iteratorSt13_Bit_iteratorET1_T0_S3_S2_ = comdat any

$_ZSt12__niter_baseISt19_Bit_const_iteratorET_S1_ = comdat any

$_ZSt12__niter_baseISt13_Bit_iteratorET_S1_ = comdat any

$_ZSt14__copy_move_a2ILb0ESt19_Bit_const_iteratorSt13_Bit_iteratorET1_T0_S3_S2_ = comdat any

$_ZNSt11__copy_moveILb0ELb0ESt26random_access_iterator_tagE8__copy_mISt19_Bit_const_iteratorSt13_Bit_iteratorEET0_T_S6_S5_ = comdat any

$_ZNKSt19_Bit_const_iteratordeEv = comdat any

$_ZNKSt13_Bit_iteratordeEv = comdat any

$_ZNSt14_Bit_referenceaSEb = comdat any

$_ZNSt19_Bit_const_iteratorppEv = comdat any

$_ZNSt13_Bit_iteratorppEv = comdat any

$_ZNSt14_Bit_referenceC2EPmm = comdat any

$_ZNKSt14_Bit_referencecvbEv = comdat any

$_ZNSt18_Bit_iterator_base10_M_bump_upEv = comdat any

$_ZNSt19_Bit_const_iteratorC2ERKSt13_Bit_iterator = comdat any

$_ZNSt13_Bvector_baseISaIbEE13_M_deallocateEv = comdat any

$_ZNSt13_Bvector_baseISaIbEE13_Bvector_implD2Ev = comdat any

$_ZNKSt13_Bvector_baseISaIbEE13_Bvector_impl11_M_end_addrEv = comdat any

$_ZNSt16allocator_traitsISaImEE10deallocateERS0_Pmm = comdat any

$_ZNSt13_Bvector_baseISaIbEE18_Bvector_impl_data8_M_resetEv = comdat any

$_ZN9__gnu_cxx13new_allocatorImE10deallocateEPmm = comdat any

$_ZNKSt6vectorIS_IbSaIbEESaIS1_EE4sizeEv = comdat any

$_ZN9__gnu_cxx14__alloc_traitsISaISt6vectorIbSaIbEEES3_E17_S_select_on_copyERKS4_ = comdat any

$_ZNKSt12_Vector_baseISt6vectorIbSaIbEESaIS2_EE19_M_get_Tp_allocatorEv = comdat any

$_ZNSt12_Vector_baseISt6vectorIbSaIbEESaIS2_EEC2EmRKS3_ = comdat any

$_ZSt22__uninitialized_copy_aIN9__gnu_cxx17__normal_iteratorIPKSt6vectorIbSaIbEES2_IS4_SaIS4_EEEEPS4_S4_ET0_T_SC_SB_RSaIT1_E = comdat any

$_ZNKSt6vectorIS_IbSaIbEESaIS1_EE5beginEv = comdat any

$_ZNKSt6vectorIS_IbSaIbEESaIS1_EE3endEv = comdat any

$_ZNSt12_Vector_baseISt6vectorIbSaIbEESaIS2_EE19_M_get_Tp_allocatorEv = comdat any

$_ZNSt12_Vector_baseISt6vectorIbSaIbEESaIS2_EED2Ev = comdat any

$_ZNSt16allocator_traitsISaISt6vectorIbSaIbEEEE37select_on_container_copy_constructionERKS3_ = comdat any

$_ZNSaISt6vectorIbSaIbEEEC2ERKS2_ = comdat any

$_ZN9__gnu_cxx13new_allocatorISt6vectorIbSaIbEEEC2ERKS4_ = comdat any

$_ZNSt12_Vector_baseISt6vectorIbSaIbEESaIS2_EE12_Vector_implC2ERKS3_ = comdat any

$_ZNSt12_Vector_baseISt6vectorIbSaIbEESaIS2_EE17_M_create_storageEm = comdat any

$_ZNSt12_Vector_baseISt6vectorIbSaIbEESaIS2_EE12_Vector_implD2Ev = comdat any

$_ZNSt12_Vector_baseISt6vectorIbSaIbEESaIS2_EE17_Vector_impl_dataC2Ev = comdat any

$_ZNSt12_Vector_baseISt6vectorIbSaIbEESaIS2_EE11_M_allocateEm = comdat any

$_ZNSt16allocator_traitsISaISt6vectorIbSaIbEEEE8allocateERS3_m = comdat any

$_ZN9__gnu_cxx13new_allocatorISt6vectorIbSaIbEEE8allocateEmPKv = comdat any

$_ZNK9__gnu_cxx13new_allocatorISt6vectorIbSaIbEEE11_M_max_sizeEv = comdat any

$_ZN9__gnu_cxx13new_allocatorISt6vectorIbSaIbEEED2Ev = comdat any

$_ZSt18uninitialized_copyIN9__gnu_cxx17__normal_iteratorIPKSt6vectorIbSaIbEES2_IS4_SaIS4_EEEEPS4_ET0_T_SC_SB_ = comdat any

$_ZNSt20__uninitialized_copyILb0EE13__uninit_copyIN9__gnu_cxx17__normal_iteratorIPKSt6vectorIbSaIbEES4_IS6_SaIS6_EEEEPS6_EET0_T_SE_SD_ = comdat any

$_ZN9__gnu_cxxneIPKSt6vectorIbSaIbEES1_IS3_SaIS3_EEEEbRKNS_17__normal_iteratorIT_T0_EESD_ = comdat any

$_ZSt10_ConstructISt6vectorIbSaIbEEJRKS2_EEvPT_DpOT0_ = comdat any

$_ZSt11__addressofISt6vectorIbSaIbEEEPT_RS3_ = comdat any

$_ZNK9__gnu_cxx17__normal_iteratorIPKSt6vectorIbSaIbEES1_IS3_SaIS3_EEEdeEv = comdat any

$_ZN9__gnu_cxx17__normal_iteratorIPKSt6vectorIbSaIbEES1_IS3_SaIS3_EEEppEv = comdat any

$_ZSt8_DestroyIPSt6vectorIbSaIbEEEvT_S4_ = comdat any

$_ZNK9__gnu_cxx17__normal_iteratorIPKSt6vectorIbSaIbEES1_IS3_SaIS3_EEE4baseEv = comdat any

$_ZSt7forwardIRKSt6vectorIbSaIbEEEOT_RNSt16remove_referenceIS5_E4typeE = comdat any

$_ZNSt12_Destroy_auxILb0EE9__destroyIPSt6vectorIbSaIbEEEEvT_S6_ = comdat any

$_ZSt8_DestroyISt6vectorIbSaIbEEEvPT_ = comdat any

$_ZN9__gnu_cxx17__normal_iteratorIPKSt6vectorIbSaIbEES1_IS3_SaIS3_EEEC2ERKS5_ = comdat any

$_ZNSt12_Vector_baseISt6vectorIbSaIbEESaIS2_EE13_M_deallocateEPS2_m = comdat any

$_ZNSt16allocator_traitsISaISt6vectorIbSaIbEEEE10deallocateERS3_PS2_m = comdat any

$_ZN9__gnu_cxx13new_allocatorISt6vectorIbSaIbEEE10deallocateEPS3_m = comdat any

$_ZSt8_DestroyIPSt4pairIS0_IjjEjES2_EvT_S4_RSaIT0_E = comdat any

$_ZSt8_DestroyIPSt4pairIjjES1_EvT_S3_RSaIT0_E = comdat any

$_ZSt8_DestroyIPiiEvT_S1_RSaIT0_E = comdat any

$_ZSt8_DestroyIPiEvT_S1_ = comdat any

$_ZNSt12_Destroy_auxILb1EE9__destroyIPiEEvT_S3_ = comdat any

$_ZSt8_DestroyIPN6dealii5PointILi2EEES2_EvT_S4_RSaIT0_E = comdat any

$_ZSt8_DestroyIPN6dealii5PointILi3EEES2_EvT_S4_RSaIT0_E = comdat any

$_ZSt8_DestroyIPSt6vectorIN6dealii10FullMatrixIdEESaIS3_EES5_EvT_S7_RSaIT0_E = comdat any

$_ZNSt6vectorIN6dealii11Polynomials10PolynomialIdEESaIS3_EEC2ERKS5_ = comdat any

$_ZNKSt6vectorIN6dealii11Polynomials10PolynomialIdEESaIS3_EE4sizeEv = comdat any

$_ZN9__gnu_cxx14__alloc_traitsISaIN6dealii11Polynomials10PolynomialIdEEES4_E17_S_select_on_copyERKS5_ = comdat any

$_ZNKSt12_Vector_baseIN6dealii11Polynomials10PolynomialIdEESaIS3_EE19_M_get_Tp_allocatorEv = comdat any

$_ZNSt12_Vector_baseIN6dealii11Polynomials10PolynomialIdEESaIS3_EEC2EmRKS4_ = comdat any

$_ZNSaIN6dealii11Polynomials10PolynomialIdEEED2Ev = comdat any

$_ZSt22__uninitialized_copy_aIN9__gnu_cxx17__normal_iteratorIPKN6dealii11Polynomials10PolynomialIdEESt6vectorIS5_SaIS5_EEEEPS5_S5_ET0_T_SE_SD_RSaIT1_E = comdat any

$_ZNKSt6vectorIN6dealii11Polynomials10PolynomialIdEESaIS3_EE5beginEv = comdat any

$_ZNKSt6vectorIN6dealii11Polynomials10PolynomialIdEESaIS3_EE3endEv = comdat any

$_ZNSt12_Vector_baseIN6dealii11Polynomials10PolynomialIdEESaIS3_EE19_M_get_Tp_allocatorEv = comdat any

$_ZNSt12_Vector_baseIN6dealii11Polynomials10PolynomialIdEESaIS3_EED2Ev = comdat any

$_ZNSt16allocator_traitsISaIN6dealii11Polynomials10PolynomialIdEEEE37select_on_container_copy_constructionERKS4_ = comdat any

$_ZNSaIN6dealii11Polynomials10PolynomialIdEEEC2ERKS3_ = comdat any

$_ZN9__gnu_cxx13new_allocatorIN6dealii11Polynomials10PolynomialIdEEEC2ERKS5_ = comdat any

$_ZNSt12_Vector_baseIN6dealii11Polynomials10PolynomialIdEESaIS3_EE12_Vector_implC2ERKS4_ = comdat any

$_ZNSt12_Vector_baseIN6dealii11Polynomials10PolynomialIdEESaIS3_EE17_M_create_storageEm = comdat any

$_ZNSt12_Vector_baseIN6dealii11Polynomials10PolynomialIdEESaIS3_EE12_Vector_implD2Ev = comdat any

$_ZNSt12_Vector_baseIN6dealii11Polynomials10PolynomialIdEESaIS3_EE17_Vector_impl_dataC2Ev = comdat any

$_ZNSt12_Vector_baseIN6dealii11Polynomials10PolynomialIdEESaIS3_EE11_M_allocateEm = comdat any

$_ZNSt16allocator_traitsISaIN6dealii11Polynomials10PolynomialIdEEEE8allocateERS4_m = comdat any

$_ZN9__gnu_cxx13new_allocatorIN6dealii11Polynomials10PolynomialIdEEE8allocateEmPKv = comdat any

$_ZNK9__gnu_cxx13new_allocatorIN6dealii11Polynomials10PolynomialIdEEE11_M_max_sizeEv = comdat any

$_ZN9__gnu_cxx13new_allocatorIN6dealii11Polynomials10PolynomialIdEEED2Ev = comdat any

$_ZSt18uninitialized_copyIN9__gnu_cxx17__normal_iteratorIPKN6dealii11Polynomials10PolynomialIdEESt6vectorIS5_SaIS5_EEEEPS5_ET0_T_SE_SD_ = comdat any

$_ZNSt20__uninitialized_copyILb0EE13__uninit_copyIN9__gnu_cxx17__normal_iteratorIPKN6dealii11Polynomials10PolynomialIdEESt6vectorIS7_SaIS7_EEEEPS7_EET0_T_SG_SF_ = comdat any

$_ZN9__gnu_cxxneIPKN6dealii11Polynomials10PolynomialIdEESt6vectorIS4_SaIS4_EEEEbRKNS_17__normal_iteratorIT_T0_EESF_ = comdat any

$_ZSt10_ConstructIN6dealii11Polynomials10PolynomialIdEEJRKS3_EEvPT_DpOT0_ = comdat any

$_ZSt11__addressofIN6dealii11Polynomials10PolynomialIdEEEPT_RS4_ = comdat any

$_ZNK9__gnu_cxx17__normal_iteratorIPKN6dealii11Polynomials10PolynomialIdEESt6vectorIS4_SaIS4_EEEdeEv = comdat any

$_ZN9__gnu_cxx17__normal_iteratorIPKN6dealii11Polynomials10PolynomialIdEESt6vectorIS4_SaIS4_EEEppEv = comdat any

$_ZSt8_DestroyIPN6dealii11Polynomials10PolynomialIdEEEvT_S5_ = comdat any

$_ZNK9__gnu_cxx17__normal_iteratorIPKN6dealii11Polynomials10PolynomialIdEESt6vectorIS4_SaIS4_EEE4baseEv = comdat any

$_ZSt7forwardIRKN6dealii11Polynomials10PolynomialIdEEEOT_RNSt16remove_referenceIS6_E4typeE = comdat any

$_ZN6dealii11Polynomials10PolynomialIdEC2ERKS2_ = comdat any

$_ZNSt6vectorIdSaIdEEC2ERKS1_ = comdat any

$_ZN6dealii11Polynomials10PolynomialIdED2Ev = comdat any

$_ZN6dealii11Polynomials10PolynomialIdED0Ev = comdat any

$_ZNKSt6vectorIdSaIdEE4sizeEv = comdat any

$_ZN9__gnu_cxx14__alloc_traitsISaIdEdE17_S_select_on_copyERKS1_ = comdat any

$_ZNKSt12_Vector_baseIdSaIdEE19_M_get_Tp_allocatorEv = comdat any

$_ZNSt12_Vector_baseIdSaIdEEC2EmRKS0_ = comdat any

$_ZNSaIdED2Ev = comdat any

$_ZSt22__uninitialized_copy_aIN9__gnu_cxx17__normal_iteratorIPKdSt6vectorIdSaIdEEEEPddET0_T_SA_S9_RSaIT1_E = comdat any

$_ZNKSt6vectorIdSaIdEE5beginEv = comdat any

$_ZNKSt6vectorIdSaIdEE3endEv = comdat any

$_ZNSt12_Vector_baseIdSaIdEE19_M_get_Tp_allocatorEv = comdat any

$_ZNSt12_Vector_baseIdSaIdEED2Ev = comdat any

$_ZNSt16allocator_traitsISaIdEE37select_on_container_copy_constructionERKS0_ = comdat any

$_ZNSaIdEC2ERKS_ = comdat any

$_ZN9__gnu_cxx13new_allocatorIdEC2ERKS1_ = comdat any

$_ZNSt12_Vector_baseIdSaIdEE12_Vector_implC2ERKS0_ = comdat any

$_ZNSt12_Vector_baseIdSaIdEE17_M_create_storageEm = comdat any

$_ZNSt12_Vector_baseIdSaIdEE12_Vector_implD2Ev = comdat any

$_ZNSt12_Vector_baseIdSaIdEE17_Vector_impl_dataC2Ev = comdat any

$_ZNSt12_Vector_baseIdSaIdEE11_M_allocateEm = comdat any

$_ZNSt16allocator_traitsISaIdEE8allocateERS0_m = comdat any

$_ZN9__gnu_cxx13new_allocatorIdE8allocateEmPKv = comdat any

$_ZNK9__gnu_cxx13new_allocatorIdE11_M_max_sizeEv = comdat any

$_ZN9__gnu_cxx13new_allocatorIdED2Ev = comdat any

$_ZSt18uninitialized_copyIN9__gnu_cxx17__normal_iteratorIPKdSt6vectorIdSaIdEEEEPdET0_T_SA_S9_ = comdat any

$_ZNSt20__uninitialized_copyILb1EE13__uninit_copyIN9__gnu_cxx17__normal_iteratorIPKdSt6vectorIdSaIdEEEEPdEET0_T_SC_SB_ = comdat any

$_ZSt4copyIN9__gnu_cxx17__normal_iteratorIPKdSt6vectorIdSaIdEEEEPdET0_T_SA_S9_ = comdat any

$_ZSt13__copy_move_aILb0EN9__gnu_cxx17__normal_iteratorIPKdSt6vectorIdSaIdEEEEPdET1_T0_SA_S9_ = comdat any

$_ZSt12__miter_baseIN9__gnu_cxx17__normal_iteratorIPKdSt6vectorIdSaIdEEEEET_S8_ = comdat any

$_ZSt12__niter_wrapIPdET_RKS1_S1_ = comdat any

$_ZSt14__copy_move_a1ILb0EPKdPdET1_T0_S4_S3_ = comdat any

$_ZSt12__niter_baseIPKdSt6vectorIdSaIdEEET_N9__gnu_cxx17__normal_iteratorIS5_T0_EE = comdat any

$_ZSt12__niter_baseIPdET_S1_ = comdat any

$_ZSt14__copy_move_a2ILb0EPKdPdET1_T0_S4_S3_ = comdat any

$_ZNSt11__copy_moveILb0ELb1ESt26random_access_iterator_tagE8__copy_mIdEEPT_PKS3_S6_S4_ = comdat any

$_ZNK9__gnu_cxx17__normal_iteratorIPKdSt6vectorIdSaIdEEE4baseEv = comdat any

$_ZN9__gnu_cxx17__normal_iteratorIPKdSt6vectorIdSaIdEEEC2ERKS2_ = comdat any

$_ZNSt12_Vector_baseIdSaIdEE13_M_deallocateEPdm = comdat any

$_ZNSt16allocator_traitsISaIdEE10deallocateERS0_Pdm = comdat any

$_ZN9__gnu_cxx13new_allocatorIdE10deallocateEPdm = comdat any

$_ZNSt6vectorIdSaIdEED2Ev = comdat any

$_ZSt8_DestroyIPddEvT_S1_RSaIT0_E = comdat any

$_ZSt8_DestroyIPdEvT_S1_ = comdat any

$_ZNSt12_Destroy_auxILb1EE9__destroyIPdEEvT_S3_ = comdat any

$_ZNSt12_Destroy_auxILb0EE9__destroyIPN6dealii11Polynomials10PolynomialIdEEEEvT_S7_ = comdat any

$_ZSt8_DestroyIN6dealii11Polynomials10PolynomialIdEEEvPT_ = comdat any

$_ZN9__gnu_cxx17__normal_iteratorIPKN6dealii11Polynomials10PolynomialIdEESt6vectorIS4_SaIS4_EEEC2ERKS6_ = comdat any

$_ZNSt12_Vector_baseIN6dealii11Polynomials10PolynomialIdEESaIS3_EE13_M_deallocateEPS3_m = comdat any

$_ZNSt16allocator_traitsISaIN6dealii11Polynomials10PolynomialIdEEEE10deallocateERS4_PS3_m = comdat any

$_ZN9__gnu_cxx13new_allocatorIN6dealii11Polynomials10PolynomialIdEEE10deallocateEPS4_m = comdat any

$_ZN9__gnu_cxx14__alloc_traitsISaIjEjE17_S_select_on_copyERKS1_ = comdat any

$_ZNKSt12_Vector_baseIjSaIjEE19_M_get_Tp_allocatorEv = comdat any

$_ZNSt12_Vector_baseIjSaIjEEC2EmRKS0_ = comdat any

$_ZSt22__uninitialized_copy_aIN9__gnu_cxx17__normal_iteratorIPKjSt6vectorIjSaIjEEEEPjjET0_T_SA_S9_RSaIT1_E = comdat any

$_ZNKSt6vectorIjSaIjEE5beginEv = comdat any

$_ZNKSt6vectorIjSaIjEE3endEv = comdat any

$_ZNSt12_Vector_baseIjSaIjEE19_M_get_Tp_allocatorEv = comdat any

$_ZNSt12_Vector_baseIjSaIjEED2Ev = comdat any

$_ZNSt16allocator_traitsISaIjEE37select_on_container_copy_constructionERKS0_ = comdat any

$_ZNSaIjEC2ERKS_ = comdat any

$_ZN9__gnu_cxx13new_allocatorIjEC2ERKS1_ = comdat any

$_ZNSt12_Vector_baseIjSaIjEE12_Vector_implC2ERKS0_ = comdat any

$_ZNSt12_Vector_baseIjSaIjEE17_M_create_storageEm = comdat any

$_ZNSt12_Vector_baseIjSaIjEE12_Vector_implD2Ev = comdat any

$_ZNSt12_Vector_baseIjSaIjEE17_Vector_impl_dataC2Ev = comdat any

$_ZNSt12_Vector_baseIjSaIjEE11_M_allocateEm = comdat any

$_ZNSt16allocator_traitsISaIjEE8allocateERS0_m = comdat any

$_ZN9__gnu_cxx13new_allocatorIjE8allocateEmPKv = comdat any

$_ZNK9__gnu_cxx13new_allocatorIjE11_M_max_sizeEv = comdat any

$_ZN9__gnu_cxx13new_allocatorIjED2Ev = comdat any

$_ZSt18uninitialized_copyIN9__gnu_cxx17__normal_iteratorIPKjSt6vectorIjSaIjEEEEPjET0_T_SA_S9_ = comdat any

$_ZNSt20__uninitialized_copyILb1EE13__uninit_copyIN9__gnu_cxx17__normal_iteratorIPKjSt6vectorIjSaIjEEEEPjEET0_T_SC_SB_ = comdat any

$_ZSt4copyIN9__gnu_cxx17__normal_iteratorIPKjSt6vectorIjSaIjEEEEPjET0_T_SA_S9_ = comdat any

$_ZSt13__copy_move_aILb0EN9__gnu_cxx17__normal_iteratorIPKjSt6vectorIjSaIjEEEEPjET1_T0_SA_S9_ = comdat any

$_ZSt12__miter_baseIN9__gnu_cxx17__normal_iteratorIPKjSt6vectorIjSaIjEEEEET_S8_ = comdat any

$_ZSt12__niter_wrapIPjET_RKS1_S1_ = comdat any

$_ZSt14__copy_move_a1ILb0EPKjPjET1_T0_S4_S3_ = comdat any

$_ZSt12__niter_baseIPKjSt6vectorIjSaIjEEET_N9__gnu_cxx17__normal_iteratorIS5_T0_EE = comdat any

$_ZSt12__niter_baseIPjET_S1_ = comdat any

$_ZSt14__copy_move_a2ILb0EPKjPjET1_T0_S4_S3_ = comdat any

$_ZNSt11__copy_moveILb0ELb1ESt26random_access_iterator_tagE8__copy_mIjEEPT_PKS3_S6_S4_ = comdat any

$_ZNK9__gnu_cxx17__normal_iteratorIPKjSt6vectorIjSaIjEEE4baseEv = comdat any

$_ZN9__gnu_cxx17__normal_iteratorIPKjSt6vectorIjSaIjEEEC2ERKS2_ = comdat any

$_ZNSt12_Vector_baseIjSaIjEE13_M_deallocateEPjm = comdat any

$_ZNSt16allocator_traitsISaIjEE10deallocateERS0_Pjm = comdat any

$_ZN9__gnu_cxx13new_allocatorIjE10deallocateEPjm = comdat any

$_ZN6dealii6TensorILi1ELi3EEaSERKS1_ = comdat any

$_ZN6dealii6TensorILi1ELi2EEaSERKS1_ = comdat any

$_ZN9__gnu_cxx13new_allocatorIjEC2Ev = comdat any

$_ZNSt6vectorIjSaIjEE17_S_check_init_lenEmRKS0_ = comdat any

$_ZNSt6vectorIjSaIjEE21_M_default_initializeEm = comdat any

$_ZNSt6vectorIjSaIjEE11_S_max_sizeERKS0_ = comdat any

$_ZNSt16allocator_traitsISaIjEE8max_sizeERKS0_ = comdat any

$_ZSt3minImERKT_S2_S2_ = comdat any

$_ZNK9__gnu_cxx13new_allocatorIjE8max_sizeEv = comdat any

$_ZSt27__uninitialized_default_n_aIPjmjET_S1_T0_RSaIT1_E = comdat any

$_ZSt25__uninitialized_default_nIPjmET_S1_T0_ = comdat any

$_ZNSt27__uninitialized_default_n_1ILb1EE18__uninit_default_nIPjmEET_S3_T0_ = comdat any

$_ZSt6fill_nIPjmjET_S1_T0_RKT1_ = comdat any

$_ZSt10__fill_n_aIPjmjET_S1_T0_RKT1_St26random_access_iterator_tag = comdat any

$_ZSt17__size_to_integerm = comdat any

$_ZSt19__iterator_categoryIPjENSt15iterator_traitsIT_E17iterator_categoryERKS2_ = comdat any

$_ZSt8__fill_aIPjjEvT_S1_RKT0_ = comdat any

$_ZSt9__fill_a1IPjjEN9__gnu_cxx11__enable_ifIXsr11__is_scalarIT0_EE7__valueEvE6__typeET_S6_RKS3_ = comdat any

$_ZSt8_DestroyIPjjEvT_S1_RSaIT0_E = comdat any

$_ZSt8_DestroyIPjEvT_S1_ = comdat any

$_ZNSt12_Destroy_auxILb1EE9__destroyIPjEEvT_S3_ = comdat any

$_ZN9__gnu_cxx13new_allocatorIbED2Ev = comdat any

$_ZN9__gnu_cxx13new_allocatorIN6dealii10FullMatrixIdEEEC2Ev = comdat any

$_ZSt8_DestroyIPN6dealii11Polynomials10PolynomialIdEES3_EvT_S5_RSaIT0_E = comdat any

$_ZNSt6vectorIbSaIbEE19_M_initialize_valueEb = comdat any

$_ZN9__gnu_cxx13new_allocatorISt6vectorIbSaIbEEEC2Ev = comdat any

$_ZNSt6vectorIS_IbSaIbEESaIS1_EE17_S_check_init_lenEmRKS2_ = comdat any

$_ZNSt6vectorIS_IbSaIbEESaIS1_EE18_M_fill_initializeEmRKS1_ = comdat any

$_ZNSt6vectorIS_IbSaIbEESaIS1_EE11_S_max_sizeERKS2_ = comdat any

$_ZNSt16allocator_traitsISaISt6vectorIbSaIbEEEE8max_sizeERKS3_ = comdat any

$_ZNK9__gnu_cxx13new_allocatorISt6vectorIbSaIbEEE8max_sizeEv = comdat any

$_ZSt24__uninitialized_fill_n_aIPSt6vectorIbSaIbEEmS2_S2_ET_S4_T0_RKT1_RSaIT2_E = comdat any

$_ZSt20uninitialized_fill_nIPSt6vectorIbSaIbEEmS2_ET_S4_T0_RKT1_ = comdat any

$_ZNSt22__uninitialized_fill_nILb0EE15__uninit_fill_nIPSt6vectorIbSaIbEEmS4_EET_S6_T0_RKT1_ = comdat any

$_ZSt8_DestroyIPSt6vectorIbSaIbEES2_EvT_S4_RSaIT0_E = comdat any

$_ZNSaIN6dealii11Polynomials10PolynomialIdEEEC2Ev = comdat any

$_ZNSt6vectorIN6dealii11Polynomials10PolynomialIdEESaIS3_EEC2IN9__gnu_cxx17__normal_iteratorIPKS3_S5_EEvEET_SC_RKS4_ = comdat any

$_ZN6dealii24TensorProductPolynomialsILi3EE12x_to_the_dimEj = comdat any

$_ZN9__gnu_cxx13new_allocatorIN6dealii11Polynomials10PolynomialIdEEEC2Ev = comdat any

$_ZNSt12_Vector_baseIN6dealii11Polynomials10PolynomialIdEESaIS3_EEC2ERKS4_ = comdat any

$_ZNSt6vectorIN6dealii11Polynomials10PolynomialIdEESaIS3_EE19_M_range_initializeIN9__gnu_cxx17__normal_iteratorIPKS3_S5_EEEEvT_SC_St20forward_iterator_tag = comdat any

$_ZSt19__iterator_categoryIN9__gnu_cxx17__normal_iteratorIPKN6dealii11Polynomials10PolynomialIdEESt6vectorIS5_SaIS5_EEEEENSt15iterator_traitsIT_E17iterator_categoryERKSD_ = comdat any

$_ZSt8distanceIN9__gnu_cxx17__normal_iteratorIPKN6dealii11Polynomials10PolynomialIdEESt6vectorIS5_SaIS5_EEEEENSt15iterator_traitsIT_E15difference_typeESD_SD_ = comdat any

$_ZNSt6vectorIN6dealii11Polynomials10PolynomialIdEESaIS3_EE17_S_check_init_lenEmRKS4_ = comdat any

$_ZSt10__distanceIN9__gnu_cxx17__normal_iteratorIPKN6dealii11Polynomials10PolynomialIdEESt6vectorIS5_SaIS5_EEEEENSt15iterator_traitsIT_E15difference_typeESD_SD_St26random_access_iterator_tag = comdat any

$_ZN9__gnu_cxxmiIPKN6dealii11Polynomials10PolynomialIdEESt6vectorIS4_SaIS4_EEEENS_17__normal_iteratorIT_T0_E15difference_typeERKSD_SG_ = comdat any

$_ZNSt6vectorIN6dealii11Polynomials10PolynomialIdEESaIS3_EE11_S_max_sizeERKS4_ = comdat any

$_ZNSt16allocator_traitsISaIN6dealii11Polynomials10PolynomialIdEEEE8max_sizeERKS4_ = comdat any

$_ZNK9__gnu_cxx13new_allocatorIN6dealii11Polynomials10PolynomialIdEEE8max_sizeEv = comdat any

$_ZNSt6vectorIN6dealii10FullMatrixIdEESaIS2_EE17_S_check_init_lenEmRKS3_ = comdat any

$_ZNSt6vectorIN6dealii10FullMatrixIdEESaIS2_EE18_M_fill_initializeEmRKS2_ = comdat any

$_ZNSt6vectorIN6dealii10FullMatrixIdEESaIS2_EE11_S_max_sizeERKS3_ = comdat any

$_ZNSt16allocator_traitsISaIN6dealii10FullMatrixIdEEEE8max_sizeERKS3_ = comdat any

$_ZNK9__gnu_cxx13new_allocatorIN6dealii10FullMatrixIdEEE8max_sizeEv = comdat any

$_ZSt24__uninitialized_fill_n_aIPN6dealii10FullMatrixIdEEmS2_S2_ET_S4_T0_RKT1_RSaIT2_E = comdat any

$_ZSt20uninitialized_fill_nIPN6dealii10FullMatrixIdEEmS2_ET_S4_T0_RKT1_ = comdat any

$_ZNSt22__uninitialized_fill_nILb0EE15__uninit_fill_nIPN6dealii10FullMatrixIdEEmS4_EET_S6_T0_RKT1_ = comdat any

$_ZSt8_DestroyIPN6dealii10FullMatrixIdEES2_EvT_S4_RSaIT0_E = comdat any

$_ZNSt6vectorIjSaIjEE18_M_fill_initializeEmRKj = comdat any

$_ZSt24__uninitialized_fill_n_aIPjmjjET_S1_T0_RKT1_RSaIT2_E = comdat any

$_ZSt20uninitialized_fill_nIPjmjET_S1_T0_RKT1_ = comdat any

$_ZNSt22__uninitialized_fill_nILb1EE15__uninit_fill_nIPjmjEET_S3_T0_RKT1_ = comdat any

$_ZNK6dealii9TableBaseILi2EdE10n_elementsEv = comdat any

$_ZN6dealii9TableBaseILi2EdE12reset_valuesEv = comdat any

$_ZSt6fill_nIPdjdET_S1_T0_RKT1_ = comdat any

$_ZSt10__fill_n_aIPdjdET_S1_T0_RKT1_St26random_access_iterator_tag = comdat any

$_ZSt19__iterator_categoryIPdENSt15iterator_traitsIT_E17iterator_categoryERKS2_ = comdat any

$_ZSt8__fill_aIPddEvT_S1_RKT0_ = comdat any

$_ZSt9__fill_a1IPddEN9__gnu_cxx11__enable_ifIXsr11__is_scalarIT0_EE7__valueEvE6__typeET_S6_RKS3_ = comdat any

$_ZN6dealii12TableIndicesILi2EEC2Ejj = comdat any

$_ZNSt6vectorIN6dealii5PointILi3EEESaIS2_EE17_M_default_appendEm = comdat any

$_ZNSt6vectorIN6dealii5PointILi3EEESaIS2_EE15_M_erase_at_endEPS2_ = comdat any

$_ZNKSt6vectorIN6dealii5PointILi3EEESaIS2_EE8max_sizeEv = comdat any

$_ZSt27__uninitialized_default_n_aIPN6dealii5PointILi3EEEmS2_ET_S4_T0_RSaIT1_E = comdat any

$_ZNKSt6vectorIN6dealii5PointILi3EEESaIS2_EE12_M_check_lenEmPKc = comdat any

$_ZSt34__uninitialized_move_if_noexcept_aIPN6dealii5PointILi3EEES3_SaIS2_EET0_T_S6_S5_RT1_ = comdat any

$_ZNSt6vectorIN6dealii5PointILi3EEESaIS2_EE11_S_max_sizeERKS3_ = comdat any

$_ZNSt16allocator_traitsISaIN6dealii5PointILi3EEEEE8max_sizeERKS3_ = comdat any

$_ZNK9__gnu_cxx13new_allocatorIN6dealii5PointILi3EEEE8max_sizeEv = comdat any

$_ZSt25__uninitialized_default_nIPN6dealii5PointILi3EEEmET_S4_T0_ = comdat any

$_ZNSt27__uninitialized_default_n_1ILb0EE18__uninit_default_nIPN6dealii5PointILi3EEEmEET_S6_T0_ = comdat any

$_ZSt10_ConstructIN6dealii5PointILi3EEEJEEvPT_DpOT0_ = comdat any

$_ZSt3maxImERKT_S2_S2_ = comdat any

$_ZSt22__uninitialized_copy_aIPKN6dealii5PointILi3EEEPS2_S2_ET0_T_S7_S6_RSaIT1_E = comdat any

$_ZSt32__make_move_if_noexcept_iteratorIN6dealii5PointILi3EEEPKS2_ET0_PT_ = comdat any

$_ZSt18uninitialized_copyIPKN6dealii5PointILi3EEEPS2_ET0_T_S7_S6_ = comdat any

$_ZNSt20__uninitialized_copyILb0EE13__uninit_copyIPKN6dealii5PointILi3EEEPS4_EET0_T_S9_S8_ = comdat any

$_ZN6dealii6TensorILi1ELi3EEC2Eb = comdat any

$_ZNSt6vectorIN6dealii5PointILi2EEESaIS2_EE17_M_default_appendEm = comdat any

$_ZNSt6vectorIN6dealii5PointILi2EEESaIS2_EE15_M_erase_at_endEPS2_ = comdat any

$_ZNKSt6vectorIN6dealii5PointILi2EEESaIS2_EE8max_sizeEv = comdat any

$_ZSt27__uninitialized_default_n_aIPN6dealii5PointILi2EEEmS2_ET_S4_T0_RSaIT1_E = comdat any

$_ZNKSt6vectorIN6dealii5PointILi2EEESaIS2_EE12_M_check_lenEmPKc = comdat any

$_ZSt34__uninitialized_move_if_noexcept_aIPN6dealii5PointILi2EEES3_SaIS2_EET0_T_S6_S5_RT1_ = comdat any

$_ZNSt6vectorIN6dealii5PointILi2EEESaIS2_EE11_S_max_sizeERKS3_ = comdat any

$_ZNSt16allocator_traitsISaIN6dealii5PointILi2EEEEE8max_sizeERKS3_ = comdat any

$_ZNK9__gnu_cxx13new_allocatorIN6dealii5PointILi2EEEE8max_sizeEv = comdat any

$_ZSt25__uninitialized_default_nIPN6dealii5PointILi2EEEmET_S4_T0_ = comdat any

$_ZNSt27__uninitialized_default_n_1ILb0EE18__uninit_default_nIPN6dealii5PointILi2EEEmEET_S6_T0_ = comdat any

$_ZSt10_ConstructIN6dealii5PointILi2EEEJEEvPT_DpOT0_ = comdat any

$_ZSt22__uninitialized_copy_aIPKN6dealii5PointILi2EEEPS2_S2_ET0_T_S7_S6_RSaIT1_E = comdat any

$_ZSt32__make_move_if_noexcept_iteratorIN6dealii5PointILi2EEEPKS2_ET0_PT_ = comdat any

$_ZSt18uninitialized_copyIPKN6dealii5PointILi2EEEPS2_ET0_T_S7_S6_ = comdat any

$_ZNSt20__uninitialized_copyILb0EE13__uninit_copyIPKN6dealii5PointILi2EEEPS4_EET0_T_S9_S8_ = comdat any

$_ZN6dealii6TensorILi1ELi2EEC2Eb = comdat any

$_ZTVN6dealii17FE_Q_HierarchicalILi3EEE = comdat any

$_ZTSN6dealii17FE_Q_HierarchicalILi3EEE = comdat any

$_ZTSN6dealii7FE_PolyINS_24TensorProductPolynomialsILi3EEELi3ELi3EEE = comdat any

$_ZTSN6dealii13FiniteElementILi3ELi3EEE = comdat any

$_ZTSN6dealii17FiniteElementDataILi3EEE = comdat any

$_ZTIN6dealii17FiniteElementDataILi3EEE = comdat any

$_ZTIN6dealii13FiniteElementILi3ELi3EEE = comdat any

$_ZTIN6dealii7FE_PolyINS_24TensorProductPolynomialsILi3EEELi3ELi3EEE = comdat any

$_ZTIN6dealii17FE_Q_HierarchicalILi3EEE = comdat any

$_ZTVN6dealii9TableBaseILi2EdEE = comdat any

$_ZTSN6dealii9TableBaseILi2EdEE = comdat any

$_ZTIN6dealii9TableBaseILi2EdEE = comdat any

$_ZTVN6dealii7FE_PolyINS_24TensorProductPolynomialsILi3EEELi3ELi3EEE = comdat any

$_ZTVN6dealii13FiniteElementILi3ELi3EEE = comdat any

$_ZTVN6dealii5TableILi2EiEE = comdat any

$_ZTSN6dealii5TableILi2EiEE = comdat any

$_ZTSN6dealii9TableBaseILi2EiEE = comdat any

$_ZTIN6dealii9TableBaseILi2EiEE = comdat any

$_ZTIN6dealii5TableILi2EiEE = comdat any

$_ZTVN6dealii9TableBaseILi2EiEE = comdat any

$_ZTVN6dealii11Polynomials10PolynomialIdEE = comdat any

$_ZTSN6dealii11Polynomials10PolynomialIdEE = comdat any

$_ZTIN6dealii11Polynomials10PolynomialIdEE = comdat any

@_ZN12_GLOBAL__N_12_1E = internal global %"struct.boost::arg" zeroinitializer, align 1, !dbg !0
@_ZN12_GLOBAL__N_12_2E = internal global %"struct.boost::arg.0" zeroinitializer, align 1, !dbg !15
@_ZN12_GLOBAL__N_12_3E = internal global %"struct.boost::arg.2" zeroinitializer, align 1, !dbg !25
@_ZN12_GLOBAL__N_12_4E = internal global %"struct.boost::arg.4" zeroinitializer, align 1, !dbg !35
@_ZN12_GLOBAL__N_12_5E = internal global %"struct.boost::arg.6" zeroinitializer, align 1, !dbg !45
@_ZN12_GLOBAL__N_12_6E = internal global %"struct.boost::arg.8" zeroinitializer, align 1, !dbg !55
@_ZN12_GLOBAL__N_12_7E = internal global %"struct.boost::arg.10" zeroinitializer, align 1, !dbg !65
@_ZN12_GLOBAL__N_12_8E = internal global %"struct.boost::arg.12" zeroinitializer, align 1, !dbg !75
@_ZN12_GLOBAL__N_12_9E = internal global %"struct.boost::arg.14" zeroinitializer, align 1, !dbg !85
@_ZStL8__ioinit = internal global %"class.std::ios_base::Init" zeroinitializer, align 1, !dbg !95
@__dso_handle = external hidden global i8
@_ZTVN6dealii17FE_Q_HierarchicalILi3EEE = weak_odr dso_local unnamed_addr constant { [38 x i8*] } { [38 x i8*] [i8* null, i8* bitcast ({ i8*, i8*, i8* }* @_ZTIN6dealii17FE_Q_HierarchicalILi3EEE to i8*), i8* bitcast (void (%"class.dealii::FE_Q_Hierarchical"*)* @_ZN6dealii17FE_Q_HierarchicalILi3EED2Ev to i8*), i8* bitcast (void (%"class.dealii::FE_Q_Hierarchical"*)* @_ZN6dealii17FE_Q_HierarchicalILi3EED0Ev to i8*), i8* bitcast (void (%"class.std::__cxx11::basic_string"*, %"class.dealii::FE_Q_Hierarchical"*)* @_ZNK6dealii17FE_Q_HierarchicalILi3EE8get_nameB5cxx11Ev to i8*), i8* bitcast (double (%"class.dealii::FE_Poly"*, i32, %"class.dealii::Point"*)* @_ZNK6dealii7FE_PolyINS_24TensorProductPolynomialsILi3EEELi3ELi3EE11shape_valueEjRKNS_5PointILi3EEE to i8*), i8* bitcast (double (%"class.dealii::FE_Poly"*, i32, %"class.dealii::Point"*, i32)* @_ZNK6dealii7FE_PolyINS_24TensorProductPolynomialsILi3EEELi3ELi3EE21shape_value_componentEjRKNS_5PointILi3EEEj to i8*), i8* bitcast (void (%"class.dealii::Tensor"*, %"class.dealii::FE_Poly"*, i32, %"class.dealii::Point"*)* @_ZNK6dealii7FE_PolyINS_24TensorProductPolynomialsILi3EEELi3ELi3EE10shape_gradEjRKNS_5PointILi3EEE to i8*), i8* bitcast (void (%"class.dealii::Tensor"*, %"class.dealii::FE_Poly"*, i32, %"class.dealii::Point"*, i32)* @_ZNK6dealii7FE_PolyINS_24TensorProductPolynomialsILi3EEELi3ELi3EE20shape_grad_componentEjRKNS_5PointILi3EEEj to i8*), i8* bitcast (void (%"class.dealii::Tensor.93"*, %"class.dealii::FE_Poly"*, i32, %"class.dealii::Point"*)* @_ZNK6dealii7FE_PolyINS_24TensorProductPolynomialsILi3EEELi3ELi3EE15shape_grad_gradEjRKNS_5PointILi3EEE to i8*), i8* bitcast (void (%"class.dealii::Tensor.93"*, %"class.dealii::FE_Poly"*, i32, %"class.dealii::Point"*, i32)* @_ZNK6dealii7FE_PolyINS_24TensorProductPolynomialsILi3EEELi3ELi3EE25shape_grad_grad_componentEjRKNS_5PointILi3EEEj to i8*), i8* bitcast (i1 (%"class.dealii::FE_Q_Hierarchical"*, i32, i32)* @_ZNK6dealii17FE_Q_HierarchicalILi3EE19has_support_on_faceEjj to i8*), i8* bitcast (i1 (%"class.dealii::FiniteElement"*)* @_ZNK6dealii13FiniteElementILi3ELi3EE30hp_constraints_are_implementedEv to i8*), i8* bitcast (void (%"class.dealii::FiniteElement"*, %"class.dealii::FiniteElement"*, %"class.dealii::FullMatrix"*)* @_ZNK6dealii13FiniteElementILi3ELi3EE24get_interpolation_matrixERKS1_RNS_10FullMatrixIdEE to i8*), i8* bitcast (void (%"class.dealii::FiniteElement"*, %"class.dealii::FiniteElement"*, %"class.dealii::FullMatrix"*)* @_ZNK6dealii13FiniteElementILi3ELi3EE29get_face_interpolation_matrixERKS1_RNS_10FullMatrixIdEE to i8*), i8* bitcast (void (%"class.dealii::FiniteElement"*, %"class.dealii::FiniteElement"*, i32, %"class.dealii::FullMatrix"*)* @_ZNK6dealii13FiniteElementILi3ELi3EE32get_subface_interpolation_matrixERKS1_jRNS_10FullMatrixIdEE to i8*), i8* bitcast (void (%"class.std::vector.45"*, %"class.dealii::FiniteElement"*, %"class.dealii::FiniteElement"*)* @_ZNK6dealii13FiniteElementILi3ELi3EE24hp_vertex_dof_identitiesERKS1_ to i8*), i8* bitcast (void (%"class.std::vector.45"*, %"class.dealii::FiniteElement"*, %"class.dealii::FiniteElement"*)* @_ZNK6dealii13FiniteElementILi3ELi3EE22hp_line_dof_identitiesERKS1_ to i8*), i8* bitcast (void (%"class.std::vector.45"*, %"class.dealii::FiniteElement"*, %"class.dealii::FiniteElement"*)* @_ZNK6dealii13FiniteElementILi3ELi3EE22hp_quad_dof_identitiesERKS1_ to i8*), i8* bitcast (i32 (%"class.dealii::FiniteElement"*, %"class.dealii::FiniteElement"*)* @_ZNK6dealii13FiniteElementILi3ELi3EE27compare_for_face_dominationERKS1_ to i8*), i8* bitcast (i32 (%"class.dealii::FE_Poly"*)* @_ZNK6dealii7FE_PolyINS_24TensorProductPolynomialsILi3EEELi3ELi3EE15n_base_elementsEv to i8*), i8* bitcast (%"class.dealii::FiniteElement"* (%"class.dealii::FE_Poly"*, i32)* @_ZNK6dealii7FE_PolyINS_24TensorProductPolynomialsILi3EEELi3ELi3EE12base_elementEj to i8*), i8* bitcast (i32 (%"class.dealii::FE_Poly"*, i32)* @_ZNK6dealii7FE_PolyINS_24TensorProductPolynomialsILi3EEELi3ELi3EE20element_multiplicityEj to i8*), i8* bitcast (void (%"class.dealii::Point"*, %"class.dealii::FiniteElement"*, i32)* @_ZNK6dealii13FiniteElementILi3ELi3EE18unit_support_pointEj to i8*), i8* bitcast (void (%"class.dealii::Point.34"*, %"class.dealii::FiniteElement"*, i32)* @_ZNK6dealii13FiniteElementILi3ELi3EE23unit_face_support_pointEj to i8*), i8* bitcast (void (%"class.dealii::FiniteElement"*, %"class.std::vector.77"*, %"class.std::vector.77"*)* @_ZNK6dealii13FiniteElementILi3ELi3EE11interpolateERSt6vectorIdSaIdEERKS4_ to i8*), i8* bitcast (void (%"class.dealii::FiniteElement"*, %"class.std::vector.77"*, %"class.std::vector.94"*, i32)* @_ZNK6dealii13FiniteElementILi3ELi3EE11interpolateERSt6vectorIdSaIdEERKS2_INS_6VectorIdEESaIS7_EEj to i8*), i8* bitcast (void (%"class.dealii::FiniteElement"*, %"class.std::vector.77"*, %"class.dealii::VectorSlice"*)* @_ZNK6dealii13FiniteElementILi3ELi3EE11interpolateERSt6vectorIdSaIdEERKNS_11VectorSliceIKS2_IS4_SaIS4_EEEE to i8*), i8* bitcast (i32 (%"class.dealii::FE_Q_Hierarchical"*)* @_ZNK6dealii17FE_Q_HierarchicalILi3EE18memory_consumptionEv to i8*), i8* bitcast (i32 (%"class.dealii::FE_Poly"*, i32)* @_ZNK6dealii7FE_PolyINS_24TensorProductPolynomialsILi3EEELi3ELi3EE11update_onceENS_11UpdateFlagsE to i8*), i8* bitcast (i32 (%"class.dealii::FE_Poly"*, i32)* @_ZNK6dealii7FE_PolyINS_24TensorProductPolynomialsILi3EEELi3ELi3EE11update_eachENS_11UpdateFlagsE to i8*), i8* bitcast (%"class.dealii::FiniteElement"* (%"class.dealii::FE_Q_Hierarchical"*)* @_ZNK6dealii17FE_Q_HierarchicalILi3EE5cloneEv to i8*), i8* bitcast (%"class.dealii::Mapping<3, 3>::InternalDataBase"* (%"class.dealii::FE_Poly"*, i32, %"class.dealii::Mapping"*, %"class.dealii::Quadrature"*)* @_ZNK6dealii7FE_PolyINS_24TensorProductPolynomialsILi3EEELi3ELi3EE8get_dataENS_11UpdateFlagsERKNS_7MappingILi3ELi3EEERKNS_10QuadratureILi3EEE to i8*), i8* bitcast (%"class.dealii::Mapping<3, 3>::InternalDataBase"* (%"class.dealii::FiniteElement"*, i32, %"class.dealii::Mapping"*, %"class.dealii::Quadrature.95"*)* @_ZNK6dealii13FiniteElementILi3ELi3EE13get_face_dataENS_11UpdateFlagsERKNS_7MappingILi3ELi3EEERKNS_10QuadratureILi2EEE to i8*), i8* bitcast (%"class.dealii::Mapping<3, 3>::InternalDataBase"* (%"class.dealii::FiniteElement"*, i32, %"class.dealii::Mapping"*, %"class.dealii::Quadrature.95"*)* @_ZNK6dealii13FiniteElementILi3ELi3EE16get_subface_dataENS_11UpdateFlagsERKNS_7MappingILi3ELi3EEERKNS_10QuadratureILi2EEE to i8*), i8* bitcast (void (%"class.dealii::FE_Poly"*, %"class.dealii::Mapping"*, %"class.dealii::TriaIterator"*, %"class.dealii::Quadrature"*, %"class.dealii::Mapping<3, 3>::InternalDataBase"*, %"class.dealii::Mapping<3, 3>::InternalDataBase"*, %"class.dealii::FEValuesData"*, i32*)* @_ZNK6dealii7FE_PolyINS_24TensorProductPolynomialsILi3EEELi3ELi3EE14fill_fe_valuesERKNS_7MappingILi3ELi3EEERKNS_12TriaIteratorINS_12CellAccessorILi3ELi3EEEEERKNS_10QuadratureILi3EEERNS5_16InternalDataBaseESJ_RNS_12FEValuesDataILi3ELi3EEERNS_14CellSimilarity10SimilarityE to i8*), i8* bitcast (void (%"class.dealii::FE_Poly"*, %"class.dealii::Mapping"*, %"class.dealii::TriaIterator"*, i32, %"class.dealii::Quadrature.95"*, %"class.dealii::Mapping<3, 3>::InternalDataBase"*, %"class.dealii::Mapping<3, 3>::InternalDataBase"*, %"class.dealii::FEValuesData"*)* @_ZNK6dealii7FE_PolyINS_24TensorProductPolynomialsILi3EEELi3ELi3EE19fill_fe_face_valuesERKNS_7MappingILi3ELi3EEERKNS_12TriaIteratorINS_12CellAccessorILi3ELi3EEEEEjRKNS_10QuadratureILi2EEERNS5_16InternalDataBaseESJ_RNS_12FEValuesDataILi3ELi3EEE to i8*), i8* bitcast (void (%"class.dealii::FE_Poly"*, %"class.dealii::Mapping"*, %"class.dealii::TriaIterator"*, i32, i32, %"class.dealii::Quadrature.95"*, %"class.dealii::Mapping<3, 3>::InternalDataBase"*, %"class.dealii::Mapping<3, 3>::InternalDataBase"*, %"class.dealii::FEValuesData"*)* @_ZNK6dealii7FE_PolyINS_24TensorProductPolynomialsILi3EEELi3ELi3EE22fill_fe_subface_valuesERKNS_7MappingILi3ELi3EEERKNS_12TriaIteratorINS_12CellAccessorILi3ELi3EEEEEjjRKNS_10QuadratureILi2EEERNS5_16InternalDataBaseESJ_RNS_12FEValuesDataILi3ELi3EEE to i8*)] }, comdat, align 8
@.str = private unnamed_addr constant [19 x i8] c"FE_Q_Hierarchical<\00", align 1
@.str.10 = private unnamed_addr constant [3 x i8] c">(\00", align 1
@.str.11 = private unnamed_addr constant [2 x i8] c")\00", align 1
@_ZTVN10__cxxabiv120__si_class_type_infoE = external dso_local global i8*
@_ZTSN6dealii17FE_Q_HierarchicalILi3EEE = weak_odr dso_local constant [35 x i8] c"N6dealii17FE_Q_HierarchicalILi3EEE\00", comdat, align 1
@_ZTSN6dealii7FE_PolyINS_24TensorProductPolynomialsILi3EEELi3ELi3EEE = linkonce_odr dso_local constant [64 x i8] c"N6dealii7FE_PolyINS_24TensorProductPolynomialsILi3EEELi3ELi3EEE\00", comdat, align 1
@_ZTVN10__cxxabiv121__vmi_class_type_infoE = external dso_local global i8*
@_ZTSN6dealii13FiniteElementILi3ELi3EEE = linkonce_odr dso_local constant [35 x i8] c"N6dealii13FiniteElementILi3ELi3EEE\00", comdat, align 1
@_ZTIN6dealii11SubscriptorE = external dso_local constant i8*
@_ZTVN10__cxxabiv117__class_type_infoE = external dso_local global i8*
@_ZTSN6dealii17FiniteElementDataILi3EEE = linkonce_odr dso_local constant [35 x i8] c"N6dealii17FiniteElementDataILi3EEE\00", comdat, align 1
@_ZTIN6dealii17FiniteElementDataILi3EEE = linkonce_odr dso_local constant { i8*, i8* } { i8* bitcast (i8** getelementptr inbounds (i8*, i8** @_ZTVN10__cxxabiv117__class_type_infoE, i64 2) to i8*), i8* getelementptr inbounds ([35 x i8], [35 x i8]* @_ZTSN6dealii17FiniteElementDataILi3EEE, i32 0, i32 0) }, comdat, align 8
@_ZTIN6dealii13FiniteElementILi3ELi3EEE = linkonce_odr dso_local constant { i8*, i8*, i32, i32, i8*, i64, i8*, i64 } { i8* bitcast (i8** getelementptr inbounds (i8*, i8** @_ZTVN10__cxxabiv121__vmi_class_type_infoE, i64 2) to i8*), i8* getelementptr inbounds ([35 x i8], [35 x i8]* @_ZTSN6dealii13FiniteElementILi3ELi3EEE, i32 0, i32 0), i32 0, i32 2, i8* bitcast (i8** @_ZTIN6dealii11SubscriptorE to i8*), i64 2, i8* bitcast ({ i8*, i8* }* @_ZTIN6dealii17FiniteElementDataILi3EEE to i8*), i64 18434 }, comdat, align 8
@_ZTIN6dealii7FE_PolyINS_24TensorProductPolynomialsILi3EEELi3ELi3EEE = linkonce_odr dso_local constant { i8*, i8*, i8* } { i8* bitcast (i8** getelementptr inbounds (i8*, i8** @_ZTVN10__cxxabiv120__si_class_type_infoE, i64 2) to i8*), i8* getelementptr inbounds ([64 x i8], [64 x i8]* @_ZTSN6dealii7FE_PolyINS_24TensorProductPolynomialsILi3EEELi3ELi3EEE, i32 0, i32 0), i8* bitcast ({ i8*, i8*, i32, i32, i8*, i64, i8*, i64 }* @_ZTIN6dealii13FiniteElementILi3ELi3EEE to i8*) }, comdat, align 8
@_ZTIN6dealii17FE_Q_HierarchicalILi3EEE = weak_odr dso_local constant { i8*, i8*, i8* } { i8* bitcast (i8** getelementptr inbounds (i8*, i8** @_ZTVN10__cxxabiv120__si_class_type_infoE, i64 2) to i8*), i8* getelementptr inbounds ([35 x i8], [35 x i8]* @_ZTSN6dealii17FE_Q_HierarchicalILi3EEE, i32 0, i32 0), i8* bitcast ({ i8*, i8*, i8* }* @_ZTIN6dealii7FE_PolyINS_24TensorProductPolynomialsILi3EEELi3ELi3EEE to i8*) }, comdat, align 8
@_ZTVN6dealii9TableBaseILi2EdEE = linkonce_odr dso_local unnamed_addr constant { [4 x i8*] } { [4 x i8*] [i8* null, i8* bitcast ({ i8*, i8*, i8* }* @_ZTIN6dealii9TableBaseILi2EdEE to i8*), i8* bitcast (void (%"class.dealii::TableBase"*)* @_ZN6dealii9TableBaseILi2EdED2Ev to i8*), i8* bitcast (void (%"class.dealii::TableBase"*)* @_ZN6dealii9TableBaseILi2EdED0Ev to i8*)] }, comdat, align 8
@_ZTSN6dealii9TableBaseILi2EdEE = linkonce_odr dso_local constant [27 x i8] c"N6dealii9TableBaseILi2EdEE\00", comdat, align 1
@_ZTIN6dealii9TableBaseILi2EdEE = linkonce_odr dso_local constant { i8*, i8*, i8* } { i8* bitcast (i8** getelementptr inbounds (i8*, i8** @_ZTVN10__cxxabiv120__si_class_type_infoE, i64 2) to i8*), i8* getelementptr inbounds ([27 x i8], [27 x i8]* @_ZTSN6dealii9TableBaseILi2EdEE, i32 0, i32 0), i8* bitcast (i8** @_ZTIN6dealii11SubscriptorE to i8*) }, comdat, align 8
@_ZTVN6dealii7FE_PolyINS_24TensorProductPolynomialsILi3EEELi3ELi3EEE = linkonce_odr dso_local unnamed_addr constant { [38 x i8*] } { [38 x i8*] [i8* null, i8* bitcast ({ i8*, i8*, i8* }* @_ZTIN6dealii7FE_PolyINS_24TensorProductPolynomialsILi3EEELi3ELi3EEE to i8*), i8* bitcast (void (%"class.dealii::FE_Poly"*)* @_ZN6dealii7FE_PolyINS_24TensorProductPolynomialsILi3EEELi3ELi3EED2Ev to i8*), i8* bitcast (void (%"class.dealii::FE_Poly"*)* @_ZN6dealii7FE_PolyINS_24TensorProductPolynomialsILi3EEELi3ELi3EED0Ev to i8*), i8* bitcast (void ()* @__cxa_pure_virtual to i8*), i8* bitcast (double (%"class.dealii::FE_Poly"*, i32, %"class.dealii::Point"*)* @_ZNK6dealii7FE_PolyINS_24TensorProductPolynomialsILi3EEELi3ELi3EE11shape_valueEjRKNS_5PointILi3EEE to i8*), i8* bitcast (double (%"class.dealii::FE_Poly"*, i32, %"class.dealii::Point"*, i32)* @_ZNK6dealii7FE_PolyINS_24TensorProductPolynomialsILi3EEELi3ELi3EE21shape_value_componentEjRKNS_5PointILi3EEEj to i8*), i8* bitcast (void (%"class.dealii::Tensor"*, %"class.dealii::FE_Poly"*, i32, %"class.dealii::Point"*)* @_ZNK6dealii7FE_PolyINS_24TensorProductPolynomialsILi3EEELi3ELi3EE10shape_gradEjRKNS_5PointILi3EEE to i8*), i8* bitcast (void (%"class.dealii::Tensor"*, %"class.dealii::FE_Poly"*, i32, %"class.dealii::Point"*, i32)* @_ZNK6dealii7FE_PolyINS_24TensorProductPolynomialsILi3EEELi3ELi3EE20shape_grad_componentEjRKNS_5PointILi3EEEj to i8*), i8* bitcast (void (%"class.dealii::Tensor.93"*, %"class.dealii::FE_Poly"*, i32, %"class.dealii::Point"*)* @_ZNK6dealii7FE_PolyINS_24TensorProductPolynomialsILi3EEELi3ELi3EE15shape_grad_gradEjRKNS_5PointILi3EEE to i8*), i8* bitcast (void (%"class.dealii::Tensor.93"*, %"class.dealii::FE_Poly"*, i32, %"class.dealii::Point"*, i32)* @_ZNK6dealii7FE_PolyINS_24TensorProductPolynomialsILi3EEELi3ELi3EE25shape_grad_grad_componentEjRKNS_5PointILi3EEEj to i8*), i8* bitcast (i1 (%"class.dealii::FiniteElement"*, i32, i32)* @_ZNK6dealii13FiniteElementILi3ELi3EE19has_support_on_faceEjj to i8*), i8* bitcast (i1 (%"class.dealii::FiniteElement"*)* @_ZNK6dealii13FiniteElementILi3ELi3EE30hp_constraints_are_implementedEv to i8*), i8* bitcast (void (%"class.dealii::FiniteElement"*, %"class.dealii::FiniteElement"*, %"class.dealii::FullMatrix"*)* @_ZNK6dealii13FiniteElementILi3ELi3EE24get_interpolation_matrixERKS1_RNS_10FullMatrixIdEE to i8*), i8* bitcast (void (%"class.dealii::FiniteElement"*, %"class.dealii::FiniteElement"*, %"class.dealii::FullMatrix"*)* @_ZNK6dealii13FiniteElementILi3ELi3EE29get_face_interpolation_matrixERKS1_RNS_10FullMatrixIdEE to i8*), i8* bitcast (void (%"class.dealii::FiniteElement"*, %"class.dealii::FiniteElement"*, i32, %"class.dealii::FullMatrix"*)* @_ZNK6dealii13FiniteElementILi3ELi3EE32get_subface_interpolation_matrixERKS1_jRNS_10FullMatrixIdEE to i8*), i8* bitcast (void (%"class.std::vector.45"*, %"class.dealii::FiniteElement"*, %"class.dealii::FiniteElement"*)* @_ZNK6dealii13FiniteElementILi3ELi3EE24hp_vertex_dof_identitiesERKS1_ to i8*), i8* bitcast (void (%"class.std::vector.45"*, %"class.dealii::FiniteElement"*, %"class.dealii::FiniteElement"*)* @_ZNK6dealii13FiniteElementILi3ELi3EE22hp_line_dof_identitiesERKS1_ to i8*), i8* bitcast (void (%"class.std::vector.45"*, %"class.dealii::FiniteElement"*, %"class.dealii::FiniteElement"*)* @_ZNK6dealii13FiniteElementILi3ELi3EE22hp_quad_dof_identitiesERKS1_ to i8*), i8* bitcast (i32 (%"class.dealii::FiniteElement"*, %"class.dealii::FiniteElement"*)* @_ZNK6dealii13FiniteElementILi3ELi3EE27compare_for_face_dominationERKS1_ to i8*), i8* bitcast (i32 (%"class.dealii::FE_Poly"*)* @_ZNK6dealii7FE_PolyINS_24TensorProductPolynomialsILi3EEELi3ELi3EE15n_base_elementsEv to i8*), i8* bitcast (%"class.dealii::FiniteElement"* (%"class.dealii::FE_Poly"*, i32)* @_ZNK6dealii7FE_PolyINS_24TensorProductPolynomialsILi3EEELi3ELi3EE12base_elementEj to i8*), i8* bitcast (i32 (%"class.dealii::FE_Poly"*, i32)* @_ZNK6dealii7FE_PolyINS_24TensorProductPolynomialsILi3EEELi3ELi3EE20element_multiplicityEj to i8*), i8* bitcast (void (%"class.dealii::Point"*, %"class.dealii::FiniteElement"*, i32)* @_ZNK6dealii13FiniteElementILi3ELi3EE18unit_support_pointEj to i8*), i8* bitcast (void (%"class.dealii::Point.34"*, %"class.dealii::FiniteElement"*, i32)* @_ZNK6dealii13FiniteElementILi3ELi3EE23unit_face_support_pointEj to i8*), i8* bitcast (void (%"class.dealii::FiniteElement"*, %"class.std::vector.77"*, %"class.std::vector.77"*)* @_ZNK6dealii13FiniteElementILi3ELi3EE11interpolateERSt6vectorIdSaIdEERKS4_ to i8*), i8* bitcast (void (%"class.dealii::FiniteElement"*, %"class.std::vector.77"*, %"class.std::vector.94"*, i32)* @_ZNK6dealii13FiniteElementILi3ELi3EE11interpolateERSt6vectorIdSaIdEERKS2_INS_6VectorIdEESaIS7_EEj to i8*), i8* bitcast (void (%"class.dealii::FiniteElement"*, %"class.std::vector.77"*, %"class.dealii::VectorSlice"*)* @_ZNK6dealii13FiniteElementILi3ELi3EE11interpolateERSt6vectorIdSaIdEERKNS_11VectorSliceIKS2_IS4_SaIS4_EEEE to i8*), i8* bitcast (i32 (%"class.dealii::FiniteElement"*)* @_ZNK6dealii13FiniteElementILi3ELi3EE18memory_consumptionEv to i8*), i8* bitcast (i32 (%"class.dealii::FE_Poly"*, i32)* @_ZNK6dealii7FE_PolyINS_24TensorProductPolynomialsILi3EEELi3ELi3EE11update_onceENS_11UpdateFlagsE to i8*), i8* bitcast (i32 (%"class.dealii::FE_Poly"*, i32)* @_ZNK6dealii7FE_PolyINS_24TensorProductPolynomialsILi3EEELi3ELi3EE11update_eachENS_11UpdateFlagsE to i8*), i8* bitcast (void ()* @__cxa_pure_virtual to i8*), i8* bitcast (%"class.dealii::Mapping<3, 3>::InternalDataBase"* (%"class.dealii::FE_Poly"*, i32, %"class.dealii::Mapping"*, %"class.dealii::Quadrature"*)* @_ZNK6dealii7FE_PolyINS_24TensorProductPolynomialsILi3EEELi3ELi3EE8get_dataENS_11UpdateFlagsERKNS_7MappingILi3ELi3EEERKNS_10QuadratureILi3EEE to i8*), i8* bitcast (%"class.dealii::Mapping<3, 3>::InternalDataBase"* (%"class.dealii::FiniteElement"*, i32, %"class.dealii::Mapping"*, %"class.dealii::Quadrature.95"*)* @_ZNK6dealii13FiniteElementILi3ELi3EE13get_face_dataENS_11UpdateFlagsERKNS_7MappingILi3ELi3EEERKNS_10QuadratureILi2EEE to i8*), i8* bitcast (%"class.dealii::Mapping<3, 3>::InternalDataBase"* (%"class.dealii::FiniteElement"*, i32, %"class.dealii::Mapping"*, %"class.dealii::Quadrature.95"*)* @_ZNK6dealii13FiniteElementILi3ELi3EE16get_subface_dataENS_11UpdateFlagsERKNS_7MappingILi3ELi3EEERKNS_10QuadratureILi2EEE to i8*), i8* bitcast (void (%"class.dealii::FE_Poly"*, %"class.dealii::Mapping"*, %"class.dealii::TriaIterator"*, %"class.dealii::Quadrature"*, %"class.dealii::Mapping<3, 3>::InternalDataBase"*, %"class.dealii::Mapping<3, 3>::InternalDataBase"*, %"class.dealii::FEValuesData"*, i32*)* @_ZNK6dealii7FE_PolyINS_24TensorProductPolynomialsILi3EEELi3ELi3EE14fill_fe_valuesERKNS_7MappingILi3ELi3EEERKNS_12TriaIteratorINS_12CellAccessorILi3ELi3EEEEERKNS_10QuadratureILi3EEERNS5_16InternalDataBaseESJ_RNS_12FEValuesDataILi3ELi3EEERNS_14CellSimilarity10SimilarityE to i8*), i8* bitcast (void (%"class.dealii::FE_Poly"*, %"class.dealii::Mapping"*, %"class.dealii::TriaIterator"*, i32, %"class.dealii::Quadrature.95"*, %"class.dealii::Mapping<3, 3>::InternalDataBase"*, %"class.dealii::Mapping<3, 3>::InternalDataBase"*, %"class.dealii::FEValuesData"*)* @_ZNK6dealii7FE_PolyINS_24TensorProductPolynomialsILi3EEELi3ELi3EE19fill_fe_face_valuesERKNS_7MappingILi3ELi3EEERKNS_12TriaIteratorINS_12CellAccessorILi3ELi3EEEEEjRKNS_10QuadratureILi2EEERNS5_16InternalDataBaseESJ_RNS_12FEValuesDataILi3ELi3EEE to i8*), i8* bitcast (void (%"class.dealii::FE_Poly"*, %"class.dealii::Mapping"*, %"class.dealii::TriaIterator"*, i32, i32, %"class.dealii::Quadrature.95"*, %"class.dealii::Mapping<3, 3>::InternalDataBase"*, %"class.dealii::Mapping<3, 3>::InternalDataBase"*, %"class.dealii::FEValuesData"*)* @_ZNK6dealii7FE_PolyINS_24TensorProductPolynomialsILi3EEELi3ELi3EE22fill_fe_subface_valuesERKNS_7MappingILi3ELi3EEERKNS_12TriaIteratorINS_12CellAccessorILi3ELi3EEEEEjjRKNS_10QuadratureILi2EEERNS5_16InternalDataBaseESJ_RNS_12FEValuesDataILi3ELi3EEE to i8*)] }, comdat, align 8
@_ZTVN6dealii13FiniteElementILi3ELi3EEE = linkonce_odr dso_local unnamed_addr constant { [38 x i8*] } { [38 x i8*] [i8* null, i8* bitcast ({ i8*, i8*, i32, i32, i8*, i64, i8*, i64 }* @_ZTIN6dealii13FiniteElementILi3ELi3EEE to i8*), i8* bitcast (void (%"class.dealii::FiniteElement"*)* @_ZN6dealii13FiniteElementILi3ELi3EED1Ev to i8*), i8* bitcast (void (%"class.dealii::FiniteElement"*)* @_ZN6dealii13FiniteElementILi3ELi3EED0Ev to i8*), i8* bitcast (void ()* @__cxa_pure_virtual to i8*), i8* bitcast (double (%"class.dealii::FiniteElement"*, i32, %"class.dealii::Point"*)* @_ZNK6dealii13FiniteElementILi3ELi3EE11shape_valueEjRKNS_5PointILi3EEE to i8*), i8* bitcast (double (%"class.dealii::FiniteElement"*, i32, %"class.dealii::Point"*, i32)* @_ZNK6dealii13FiniteElementILi3ELi3EE21shape_value_componentEjRKNS_5PointILi3EEEj to i8*), i8* bitcast (void (%"class.dealii::Tensor"*, %"class.dealii::FiniteElement"*, i32, %"class.dealii::Point"*)* @_ZNK6dealii13FiniteElementILi3ELi3EE10shape_gradEjRKNS_5PointILi3EEE to i8*), i8* bitcast (void (%"class.dealii::Tensor"*, %"class.dealii::FiniteElement"*, i32, %"class.dealii::Point"*, i32)* @_ZNK6dealii13FiniteElementILi3ELi3EE20shape_grad_componentEjRKNS_5PointILi3EEEj to i8*), i8* bitcast (void (%"class.dealii::Tensor.93"*, %"class.dealii::FiniteElement"*, i32, %"class.dealii::Point"*)* @_ZNK6dealii13FiniteElementILi3ELi3EE15shape_grad_gradEjRKNS_5PointILi3EEE to i8*), i8* bitcast (void (%"class.dealii::Tensor.93"*, %"class.dealii::FiniteElement"*, i32, %"class.dealii::Point"*, i32)* @_ZNK6dealii13FiniteElementILi3ELi3EE25shape_grad_grad_componentEjRKNS_5PointILi3EEEj to i8*), i8* bitcast (i1 (%"class.dealii::FiniteElement"*, i32, i32)* @_ZNK6dealii13FiniteElementILi3ELi3EE19has_support_on_faceEjj to i8*), i8* bitcast (i1 (%"class.dealii::FiniteElement"*)* @_ZNK6dealii13FiniteElementILi3ELi3EE30hp_constraints_are_implementedEv to i8*), i8* bitcast (void (%"class.dealii::FiniteElement"*, %"class.dealii::FiniteElement"*, %"class.dealii::FullMatrix"*)* @_ZNK6dealii13FiniteElementILi3ELi3EE24get_interpolation_matrixERKS1_RNS_10FullMatrixIdEE to i8*), i8* bitcast (void (%"class.dealii::FiniteElement"*, %"class.dealii::FiniteElement"*, %"class.dealii::FullMatrix"*)* @_ZNK6dealii13FiniteElementILi3ELi3EE29get_face_interpolation_matrixERKS1_RNS_10FullMatrixIdEE to i8*), i8* bitcast (void (%"class.dealii::FiniteElement"*, %"class.dealii::FiniteElement"*, i32, %"class.dealii::FullMatrix"*)* @_ZNK6dealii13FiniteElementILi3ELi3EE32get_subface_interpolation_matrixERKS1_jRNS_10FullMatrixIdEE to i8*), i8* bitcast (void (%"class.std::vector.45"*, %"class.dealii::FiniteElement"*, %"class.dealii::FiniteElement"*)* @_ZNK6dealii13FiniteElementILi3ELi3EE24hp_vertex_dof_identitiesERKS1_ to i8*), i8* bitcast (void (%"class.std::vector.45"*, %"class.dealii::FiniteElement"*, %"class.dealii::FiniteElement"*)* @_ZNK6dealii13FiniteElementILi3ELi3EE22hp_line_dof_identitiesERKS1_ to i8*), i8* bitcast (void (%"class.std::vector.45"*, %"class.dealii::FiniteElement"*, %"class.dealii::FiniteElement"*)* @_ZNK6dealii13FiniteElementILi3ELi3EE22hp_quad_dof_identitiesERKS1_ to i8*), i8* bitcast (i32 (%"class.dealii::FiniteElement"*, %"class.dealii::FiniteElement"*)* @_ZNK6dealii13FiniteElementILi3ELi3EE27compare_for_face_dominationERKS1_ to i8*), i8* bitcast (void ()* @__cxa_pure_virtual to i8*), i8* bitcast (void ()* @__cxa_pure_virtual to i8*), i8* bitcast (void ()* @__cxa_pure_virtual to i8*), i8* bitcast (void (%"class.dealii::Point"*, %"class.dealii::FiniteElement"*, i32)* @_ZNK6dealii13FiniteElementILi3ELi3EE18unit_support_pointEj to i8*), i8* bitcast (void (%"class.dealii::Point.34"*, %"class.dealii::FiniteElement"*, i32)* @_ZNK6dealii13FiniteElementILi3ELi3EE23unit_face_support_pointEj to i8*), i8* bitcast (void (%"class.dealii::FiniteElement"*, %"class.std::vector.77"*, %"class.std::vector.77"*)* @_ZNK6dealii13FiniteElementILi3ELi3EE11interpolateERSt6vectorIdSaIdEERKS4_ to i8*), i8* bitcast (void (%"class.dealii::FiniteElement"*, %"class.std::vector.77"*, %"class.std::vector.94"*, i32)* @_ZNK6dealii13FiniteElementILi3ELi3EE11interpolateERSt6vectorIdSaIdEERKS2_INS_6VectorIdEESaIS7_EEj to i8*), i8* bitcast (void (%"class.dealii::FiniteElement"*, %"class.std::vector.77"*, %"class.dealii::VectorSlice"*)* @_ZNK6dealii13FiniteElementILi3ELi3EE11interpolateERSt6vectorIdSaIdEERKNS_11VectorSliceIKS2_IS4_SaIS4_EEEE to i8*), i8* bitcast (i32 (%"class.dealii::FiniteElement"*)* @_ZNK6dealii13FiniteElementILi3ELi3EE18memory_consumptionEv to i8*), i8* bitcast (void ()* @__cxa_pure_virtual to i8*), i8* bitcast (void ()* @__cxa_pure_virtual to i8*), i8* bitcast (void ()* @__cxa_pure_virtual to i8*), i8* bitcast (void ()* @__cxa_pure_virtual to i8*), i8* bitcast (%"class.dealii::Mapping<3, 3>::InternalDataBase"* (%"class.dealii::FiniteElement"*, i32, %"class.dealii::Mapping"*, %"class.dealii::Quadrature.95"*)* @_ZNK6dealii13FiniteElementILi3ELi3EE13get_face_dataENS_11UpdateFlagsERKNS_7MappingILi3ELi3EEERKNS_10QuadratureILi2EEE to i8*), i8* bitcast (%"class.dealii::Mapping<3, 3>::InternalDataBase"* (%"class.dealii::FiniteElement"*, i32, %"class.dealii::Mapping"*, %"class.dealii::Quadrature.95"*)* @_ZNK6dealii13FiniteElementILi3ELi3EE16get_subface_dataENS_11UpdateFlagsERKNS_7MappingILi3ELi3EEERKNS_10QuadratureILi2EEE to i8*), i8* bitcast (void ()* @__cxa_pure_virtual to i8*), i8* bitcast (void ()* @__cxa_pure_virtual to i8*), i8* bitcast (void ()* @__cxa_pure_virtual to i8*)] }, comdat, align 8
@_ZTVN6dealii5TableILi2EiEE = linkonce_odr dso_local unnamed_addr constant { [4 x i8*] } { [4 x i8*] [i8* null, i8* bitcast ({ i8*, i8*, i8* }* @_ZTIN6dealii5TableILi2EiEE to i8*), i8* bitcast (void (%"class.dealii::Table.36"*)* @_ZN6dealii5TableILi2EiED2Ev to i8*), i8* bitcast (void (%"class.dealii::Table.36"*)* @_ZN6dealii5TableILi2EiED0Ev to i8*)] }, comdat, align 8
@_ZTSN6dealii5TableILi2EiEE = linkonce_odr dso_local constant [23 x i8] c"N6dealii5TableILi2EiEE\00", comdat, align 1
@_ZTSN6dealii9TableBaseILi2EiEE = linkonce_odr dso_local constant [27 x i8] c"N6dealii9TableBaseILi2EiEE\00", comdat, align 1
@_ZTIN6dealii9TableBaseILi2EiEE = linkonce_odr dso_local constant { i8*, i8*, i8* } { i8* bitcast (i8** getelementptr inbounds (i8*, i8** @_ZTVN10__cxxabiv120__si_class_type_infoE, i64 2) to i8*), i8* getelementptr inbounds ([27 x i8], [27 x i8]* @_ZTSN6dealii9TableBaseILi2EiEE, i32 0, i32 0), i8* bitcast (i8** @_ZTIN6dealii11SubscriptorE to i8*) }, comdat, align 8
@_ZTIN6dealii5TableILi2EiEE = linkonce_odr dso_local constant { i8*, i8*, i8* } { i8* bitcast (i8** getelementptr inbounds (i8*, i8** @_ZTVN10__cxxabiv120__si_class_type_infoE, i64 2) to i8*), i8* getelementptr inbounds ([23 x i8], [23 x i8]* @_ZTSN6dealii5TableILi2EiEE, i32 0, i32 0), i8* bitcast ({ i8*, i8*, i8* }* @_ZTIN6dealii9TableBaseILi2EiEE to i8*) }, comdat, align 8
@_ZTVN6dealii9TableBaseILi2EiEE = linkonce_odr dso_local unnamed_addr constant { [4 x i8*] } { [4 x i8*] [i8* null, i8* bitcast ({ i8*, i8*, i8* }* @_ZTIN6dealii9TableBaseILi2EiEE to i8*), i8* bitcast (void (%"class.dealii::TableBase.37"*)* @_ZN6dealii9TableBaseILi2EiED2Ev to i8*), i8* bitcast (void (%"class.dealii::TableBase.37"*)* @_ZN6dealii9TableBaseILi2EiED0Ev to i8*)] }, comdat, align 8
@_ZTVN6dealii11Polynomials10PolynomialIdEE = linkonce_odr dso_local unnamed_addr constant { [4 x i8*] } { [4 x i8*] [i8* null, i8* bitcast ({ i8*, i8*, i8* }* @_ZTIN6dealii11Polynomials10PolynomialIdEE to i8*), i8* bitcast (void (%"class.dealii::Polynomials::Polynomial"*)* @_ZN6dealii11Polynomials10PolynomialIdED2Ev to i8*), i8* bitcast (void (%"class.dealii::Polynomials::Polynomial"*)* @_ZN6dealii11Polynomials10PolynomialIdED0Ev to i8*)] }, comdat, align 8
@_ZTSN6dealii11Polynomials10PolynomialIdEE = linkonce_odr dso_local constant [38 x i8] c"N6dealii11Polynomials10PolynomialIdEE\00", comdat, align 1
@_ZTIN6dealii11Polynomials10PolynomialIdEE = linkonce_odr dso_local constant { i8*, i8*, i8* } { i8* bitcast (i8** getelementptr inbounds (i8*, i8** @_ZTVN10__cxxabiv120__si_class_type_infoE, i64 2) to i8*), i8* getelementptr inbounds ([38 x i8], [38 x i8]* @_ZTSN6dealii11Polynomials10PolynomialIdEE, i32 0, i32 0), i8* bitcast (i8** @_ZTIN6dealii11SubscriptorE to i8*) }, comdat, align 8
@.str.12 = private unnamed_addr constant [49 x i8] c"cannot create std::vector larger than max_size()\00", align 1
@.str.13 = private unnamed_addr constant [26 x i8] c"vector::_M_default_append\00", align 1
@llvm.global_ctors = appending global [1 x { i32, void ()*, i8* }] [{ i32, void ()*, i8* } { i32 65535, void ()* @_GLOBAL__sub_I_fe_q_hierarchical.cc, i8* null }]

@_ZN6dealii17FE_Q_HierarchicalILi3EEC1Ej = weak_odr dso_local unnamed_addr alias void (%"class.dealii::FE_Q_Hierarchical"*, i32), void (%"class.dealii::FE_Q_Hierarchical"*, i32)* @_ZN6dealii17FE_Q_HierarchicalILi3EEC2Ej

; Function Attrs: noinline uwtable
define internal void @__cxx_global_var_init() #0 section ".text.startup" !dbg !9219 {
entry:
  call void @_ZN5boost3argILi1EEC2Ev(%"struct.boost::arg"* @_ZN12_GLOBAL__N_12_1E), !dbg !9220
  ret void, !dbg !9220
}

; Function Attrs: noinline nounwind uwtable
define linkonce_odr dso_local void @_ZN5boost3argILi1EEC2Ev(%"struct.boost::arg"* %this) unnamed_addr #1 comdat align 2 !dbg !9221 {
entry:
  %this.addr = alloca %"struct.boost::arg"*, align 8
  store %"struct.boost::arg"* %this, %"struct.boost::arg"** %this.addr, align 8
  call void @llvm.dbg.declare(metadata %"struct.boost::arg"** %this.addr, metadata !9222, metadata !DIExpression()), !dbg !9224
  %this1 = load %"struct.boost::arg"*, %"struct.boost::arg"** %this.addr, align 8
  ret void, !dbg !9225
}

; Function Attrs: noinline uwtable
define internal void @__cxx_global_var_init.1() #0 section ".text.startup" !dbg !9226 {
entry:
  call void @_ZN5boost3argILi2EEC2Ev(%"struct.boost::arg.0"* @_ZN12_GLOBAL__N_12_2E), !dbg !9227
  ret void, !dbg !9227
}

; Function Attrs: noinline nounwind uwtable
define linkonce_odr dso_local void @_ZN5boost3argILi2EEC2Ev(%"struct.boost::arg.0"* %this) unnamed_addr #1 comdat align 2 !dbg !9228 {
entry:
  %this.addr = alloca %"struct.boost::arg.0"*, align 8
  store %"struct.boost::arg.0"* %this, %"struct.boost::arg.0"** %this.addr, align 8
  call void @llvm.dbg.declare(metadata %"struct.boost::arg.0"** %this.addr, metadata !9229, metadata !DIExpression()), !dbg !9231
  %this1 = load %"struct.boost::arg.0"*, %"struct.boost::arg.0"** %this.addr, align 8
  ret void, !dbg !9232
}

; Function Attrs: noinline uwtable
define internal void @__cxx_global_var_init.2() #0 section ".text.startup" !dbg !9233 {
entry:
  call void @_ZN5boost3argILi3EEC2Ev(%"struct.boost::arg.2"* @_ZN12_GLOBAL__N_12_3E), !dbg !9234
  ret void, !dbg !9234
}

; Function Attrs: noinline nounwind uwtable
define linkonce_odr dso_local void @_ZN5boost3argILi3EEC2Ev(%"struct.boost::arg.2"* %this) unnamed_addr #1 comdat align 2 !dbg !9235 {
entry:
  %this.addr = alloca %"struct.boost::arg.2"*, align 8
  store %"struct.boost::arg.2"* %this, %"struct.boost::arg.2"** %this.addr, align 8
  call void @llvm.dbg.declare(metadata %"struct.boost::arg.2"** %this.addr, metadata !9236, metadata !DIExpression()), !dbg !9238
  %this1 = load %"struct.boost::arg.2"*, %"struct.boost::arg.2"** %this.addr, align 8
  ret void, !dbg !9239
}

; Function Attrs: noinline uwtable
define internal void @__cxx_global_var_init.3() #0 section ".text.startup" !dbg !9240 {
entry:
  call void @_ZN5boost3argILi4EEC2Ev(%"struct.boost::arg.4"* @_ZN12_GLOBAL__N_12_4E), !dbg !9241
  ret void, !dbg !9241
}

; Function Attrs: noinline nounwind uwtable
define linkonce_odr dso_local void @_ZN5boost3argILi4EEC2Ev(%"struct.boost::arg.4"* %this) unnamed_addr #1 comdat align 2 !dbg !9242 {
entry:
  %this.addr = alloca %"struct.boost::arg.4"*, align 8
  store %"struct.boost::arg.4"* %this, %"struct.boost::arg.4"** %this.addr, align 8
  call void @llvm.dbg.declare(metadata %"struct.boost::arg.4"** %this.addr, metadata !9243, metadata !DIExpression()), !dbg !9245
  %this1 = load %"struct.boost::arg.4"*, %"struct.boost::arg.4"** %this.addr, align 8
  ret void, !dbg !9246
}

; Function Attrs: noinline uwtable
define internal void @__cxx_global_var_init.4() #0 section ".text.startup" !dbg !9247 {
entry:
  call void @_ZN5boost3argILi5EEC2Ev(%"struct.boost::arg.6"* @_ZN12_GLOBAL__N_12_5E), !dbg !9248
  ret void, !dbg !9248
}

; Function Attrs: noinline nounwind uwtable
define linkonce_odr dso_local void @_ZN5boost3argILi5EEC2Ev(%"struct.boost::arg.6"* %this) unnamed_addr #1 comdat align 2 !dbg !9249 {
entry:
  %this.addr = alloca %"struct.boost::arg.6"*, align 8
  store %"struct.boost::arg.6"* %this, %"struct.boost::arg.6"** %this.addr, align 8
  call void @llvm.dbg.declare(metadata %"struct.boost::arg.6"** %this.addr, metadata !9250, metadata !DIExpression()), !dbg !9252
  %this1 = load %"struct.boost::arg.6"*, %"struct.boost::arg.6"** %this.addr, align 8
  ret void, !dbg !9253
}

; Function Attrs: noinline uwtable
define internal void @__cxx_global_var_init.5() #0 section ".text.startup" !dbg !9254 {
entry:
  call void @_ZN5boost3argILi6EEC2Ev(%"struct.boost::arg.8"* @_ZN12_GLOBAL__N_12_6E), !dbg !9255
  ret void, !dbg !9255
}

; Function Attrs: noinline nounwind uwtable
define linkonce_odr dso_local void @_ZN5boost3argILi6EEC2Ev(%"struct.boost::arg.8"* %this) unnamed_addr #1 comdat align 2 !dbg !9256 {
entry:
  %this.addr = alloca %"struct.boost::arg.8"*, align 8
  store %"struct.boost::arg.8"* %this, %"struct.boost::arg.8"** %this.addr, align 8
  call void @llvm.dbg.declare(metadata %"struct.boost::arg.8"** %this.addr, metadata !9257, metadata !DIExpression()), !dbg !9259
  %this1 = load %"struct.boost::arg.8"*, %"struct.boost::arg.8"** %this.addr, align 8
  ret void, !dbg !9260
}

; Function Attrs: noinline uwtable
define internal void @__cxx_global_var_init.6() #0 section ".text.startup" !dbg !9261 {
entry:
  call void @_ZN5boost3argILi7EEC2Ev(%"struct.boost::arg.10"* @_ZN12_GLOBAL__N_12_7E), !dbg !9262
  ret void, !dbg !9262
}

; Function Attrs: noinline nounwind uwtable
define linkonce_odr dso_local void @_ZN5boost3argILi7EEC2Ev(%"struct.boost::arg.10"* %this) unnamed_addr #1 comdat align 2 !dbg !9263 {
entry:
  %this.addr = alloca %"struct.boost::arg.10"*, align 8
  store %"struct.boost::arg.10"* %this, %"struct.boost::arg.10"** %this.addr, align 8
  call void @llvm.dbg.declare(metadata %"struct.boost::arg.10"** %this.addr, metadata !9264, metadata !DIExpression()), !dbg !9266
  %this1 = load %"struct.boost::arg.10"*, %"struct.boost::arg.10"** %this.addr, align 8
  ret void, !dbg !9267
}

; Function Attrs: noinline uwtable
define internal void @__cxx_global_var_init.7() #0 section ".text.startup" !dbg !9268 {
entry:
  call void @_ZN5boost3argILi8EEC2Ev(%"struct.boost::arg.12"* @_ZN12_GLOBAL__N_12_8E), !dbg !9269
  ret void, !dbg !9269
}

; Function Attrs: noinline nounwind uwtable
define linkonce_odr dso_local void @_ZN5boost3argILi8EEC2Ev(%"struct.boost::arg.12"* %this) unnamed_addr #1 comdat align 2 !dbg !9270 {
entry:
  %this.addr = alloca %"struct.boost::arg.12"*, align 8
  store %"struct.boost::arg.12"* %this, %"struct.boost::arg.12"** %this.addr, align 8
  call void @llvm.dbg.declare(metadata %"struct.boost::arg.12"** %this.addr, metadata !9271, metadata !DIExpression()), !dbg !9273
  %this1 = load %"struct.boost::arg.12"*, %"struct.boost::arg.12"** %this.addr, align 8
  ret void, !dbg !9274
}

; Function Attrs: noinline uwtable
define internal void @__cxx_global_var_init.8() #0 section ".text.startup" !dbg !9275 {
entry:
  call void @_ZN5boost3argILi9EEC2Ev(%"struct.boost::arg.14"* @_ZN12_GLOBAL__N_12_9E), !dbg !9276
  ret void, !dbg !9276
}

; Function Attrs: noinline nounwind uwtable
define linkonce_odr dso_local void @_ZN5boost3argILi9EEC2Ev(%"struct.boost::arg.14"* %this) unnamed_addr #1 comdat align 2 !dbg !9277 {
entry:
  %this.addr = alloca %"struct.boost::arg.14"*, align 8
  store %"struct.boost::arg.14"* %this, %"struct.boost::arg.14"** %this.addr, align 8
  call void @llvm.dbg.declare(metadata %"struct.boost::arg.14"** %this.addr, metadata !9278, metadata !DIExpression()), !dbg !9280
  %this1 = load %"struct.boost::arg.14"*, %"struct.boost::arg.14"** %this.addr, align 8
  ret void, !dbg !9281
}

; Function Attrs: noinline uwtable
define internal void @__cxx_global_var_init.9() #0 section ".text.startup" !dbg !9282 {
entry:
  call void @_ZNSt8ios_base4InitC1Ev(%"class.std::ios_base::Init"* @_ZStL8__ioinit), !dbg !9283
  %0 = call i32 @__cxa_atexit(void (i8*)* bitcast (void (%"class.std::ios_base::Init"*)* @_ZNSt8ios_base4InitD1Ev to void (i8*)*), i8* getelementptr inbounds (%"class.std::ios_base::Init", %"class.std::ios_base::Init"* @_ZStL8__ioinit, i32 0, i32 0), i8* @__dso_handle) #4, !dbg !9283
  ret void, !dbg !9283
}

declare dso_local void @_ZNSt8ios_base4InitC1Ev(%"class.std::ios_base::Init"*) unnamed_addr #2

; Function Attrs: nounwind
declare dso_local void @_ZNSt8ios_base4InitD1Ev(%"class.std::ios_base::Init"*) unnamed_addr #3

; Function Attrs: nounwind
declare dso_local i32 @__cxa_atexit(void (i8*)*, i8*, i8*) #4

; Function Attrs: noinline uwtable
define weak_odr dso_local void @_ZN6dealii17FE_Q_HierarchicalILi3EEC2Ej(%"class.dealii::FE_Q_Hierarchical"* %this, i32 %degree) unnamed_addr #0 comdat($_ZN6dealii17FE_Q_HierarchicalILi3EEC5Ej) align 2 personality i8* bitcast (i32 (...)* @__gxx_personality_v0 to i8*) !dbg !9284 {
entry:
  %this.addr = alloca %"class.dealii::FE_Q_Hierarchical"*, align 8
  %degree.addr = alloca i32, align 4
  %ref.tmp = alloca %"class.dealii::TensorProductPolynomials", align 8
  %ref.tmp2 = alloca %"class.std::vector.72", align 8
  %exn.slot = alloca i8*
  %ehselector.slot = alloca i32
  %ref.tmp3 = alloca %"class.dealii::FiniteElementData", align 4
  %ref.tmp4 = alloca %"class.std::vector.58", align 8
  %ref.tmp9 = alloca %"class.std::vector.63", align 8
  %ref.tmp10 = alloca %"class.dealii::FiniteElementData", align 4
  %ref.tmp11 = alloca %"class.std::vector.58", align 8
  %ref.tmp15 = alloca i8, align 1
  %ref.tmp16 = alloca %"class.std::allocator.82", align 1
  %ref.tmp19 = alloca %"class.std::vector.67", align 8
  %ref.tmp20 = alloca %"class.dealii::FiniteElementData", align 4
  %ref.tmp21 = alloca %"class.std::vector.58", align 8
  %ref.tmp28 = alloca %"class.std::vector.63", align 8
  %ref.tmp29 = alloca i8, align 1
  %ref.tmp30 = alloca %"class.std::allocator.82", align 1
  %ref.tmp33 = alloca %"class.std::allocator.69", align 1
  %ref.tmp49 = alloca %"class.std::vector.58", align 8
  %dofs_cell = alloca %"class.std::vector.19", align 8
  %ref.tmp55 = alloca %"class.dealii::FullMatrix", align 8
  %ref.tmp65 = alloca %"class.std::allocator.21", align 1
  %dofs_subcell = alloca %"class.std::vector.19", align 8
  %ref.tmp70 = alloca %"class.dealii::FullMatrix", align 8
  %ref.tmp85 = alloca %"class.std::allocator.21", align 1
  store %"class.dealii::FE_Q_Hierarchical"* %this, %"class.dealii::FE_Q_Hierarchical"** %this.addr, align 8
  call void @llvm.dbg.declare(metadata %"class.dealii::FE_Q_Hierarchical"** %this.addr, metadata !9285, metadata !DIExpression()), !dbg !9287
  store i32 %degree, i32* %degree.addr, align 4
  call void @llvm.dbg.declare(metadata i32* %degree.addr, metadata !9288, metadata !DIExpression()), !dbg !9289
  %this1 = load %"class.dealii::FE_Q_Hierarchical"*, %"class.dealii::FE_Q_Hierarchical"** %this.addr, align 8
  %0 = bitcast %"class.dealii::FE_Q_Hierarchical"* %this1 to %"class.dealii::FE_Poly"*, !dbg !9290
  %1 = load i32, i32* %degree.addr, align 4, !dbg !9291
  call void @_ZN6dealii11Polynomials12Hierarchical23generate_complete_basisEj(%"class.std::vector.72"* sret %ref.tmp2, i32 %1), !dbg !9292
  invoke void @_ZN6dealii24TensorProductPolynomialsILi3EEC2INS_11Polynomials10PolynomialIdEEEERKSt6vectorIT_SaIS7_EE(%"class.dealii::TensorProductPolynomials"* %ref.tmp, %"class.std::vector.72"* dereferenceable(24) %ref.tmp2)
          to label %invoke.cont unwind label %lpad, !dbg !9292

invoke.cont:                                      ; preds = %entry
  %2 = load i32, i32* %degree.addr, align 4, !dbg !9293
  invoke void @_ZN6dealii17FE_Q_HierarchicalILi3EE14get_dpo_vectorEj(%"class.std::vector.58"* sret %ref.tmp4, i32 %2)
          to label %invoke.cont6 unwind label %lpad5, !dbg !9294

invoke.cont6:                                     ; preds = %invoke.cont
  %3 = load i32, i32* %degree.addr, align 4, !dbg !9295
  invoke void @_ZN6dealii17FiniteElementDataILi3EEC1ERKSt6vectorIjSaIjEEjjNS1_10ConformityEj(%"class.dealii::FiniteElementData"* %ref.tmp3, %"class.std::vector.58"* dereferenceable(24) %ref.tmp4, i32 1, i32 %3, i32 6, i32 -1)
          to label %invoke.cont8 unwind label %lpad7, !dbg !9296

invoke.cont8:                                     ; preds = %invoke.cont6
  %4 = load i32, i32* %degree.addr, align 4, !dbg !9297
  invoke void @_ZN6dealii17FE_Q_HierarchicalILi3EE14get_dpo_vectorEj(%"class.std::vector.58"* sret %ref.tmp11, i32 %4)
          to label %invoke.cont12 unwind label %lpad7, !dbg !9298

invoke.cont12:                                    ; preds = %invoke.cont8
  %5 = load i32, i32* %degree.addr, align 4, !dbg !9299
  invoke void @_ZN6dealii17FiniteElementDataILi3EEC1ERKSt6vectorIjSaIjEEjjNS1_10ConformityEj(%"class.dealii::FiniteElementData"* %ref.tmp10, %"class.std::vector.58"* dereferenceable(24) %ref.tmp11, i32 1, i32 %5, i32 0, i32 -1)
          to label %invoke.cont14 unwind label %lpad13, !dbg !9300

invoke.cont14:                                    ; preds = %invoke.cont12
  %dofs_per_cell = getelementptr inbounds %"class.dealii::FiniteElementData", %"class.dealii::FiniteElementData"* %ref.tmp10, i32 0, i32 10, !dbg !9301
  %6 = load i32, i32* %dofs_per_cell, align 4, !dbg !9301
  %conv = zext i32 %6 to i64, !dbg !9300
  store i8 0, i8* %ref.tmp15, align 1, !dbg !9302
  call void @_ZNSaIbEC2Ev(%"class.std::allocator.82"* %ref.tmp16) #4, !dbg !9303
  invoke void @_ZNSt6vectorIbSaIbEEC2EmRKbRKS0_(%"class.std::vector.63"* %ref.tmp9, i64 %conv, i8* dereferenceable(1) %ref.tmp15, %"class.std::allocator.82"* dereferenceable(1) %ref.tmp16)
          to label %invoke.cont18 unwind label %lpad17, !dbg !9303

invoke.cont18:                                    ; preds = %invoke.cont14
  %7 = load i32, i32* %degree.addr, align 4, !dbg !9304
  invoke void @_ZN6dealii17FE_Q_HierarchicalILi3EE14get_dpo_vectorEj(%"class.std::vector.58"* sret %ref.tmp21, i32 %7)
          to label %invoke.cont23 unwind label %lpad22, !dbg !9305

invoke.cont23:                                    ; preds = %invoke.cont18
  %8 = load i32, i32* %degree.addr, align 4, !dbg !9306
  invoke void @_ZN6dealii17FiniteElementDataILi3EEC1ERKSt6vectorIjSaIjEEjjNS1_10ConformityEj(%"class.dealii::FiniteElementData"* %ref.tmp20, %"class.std::vector.58"* dereferenceable(24) %ref.tmp21, i32 1, i32 %8, i32 0, i32 -1)
          to label %invoke.cont25 unwind label %lpad24, !dbg !9307

invoke.cont25:                                    ; preds = %invoke.cont23
  %dofs_per_cell26 = getelementptr inbounds %"class.dealii::FiniteElementData", %"class.dealii::FiniteElementData"* %ref.tmp20, i32 0, i32 10, !dbg !9308
  %9 = load i32, i32* %dofs_per_cell26, align 4, !dbg !9308
  %conv27 = zext i32 %9 to i64, !dbg !9307
  store i8 1, i8* %ref.tmp29, align 1, !dbg !9309
  call void @_ZNSaIbEC2Ev(%"class.std::allocator.82"* %ref.tmp30) #4, !dbg !9310
  invoke void @_ZNSt6vectorIbSaIbEEC2EmRKbRKS0_(%"class.std::vector.63"* %ref.tmp28, i64 1, i8* dereferenceable(1) %ref.tmp29, %"class.std::allocator.82"* dereferenceable(1) %ref.tmp30)
          to label %invoke.cont32 unwind label %lpad31, !dbg !9310

invoke.cont32:                                    ; preds = %invoke.cont25
  call void @_ZNSaISt6vectorIbSaIbEEEC2Ev(%"class.std::allocator.69"* %ref.tmp33) #4, !dbg !9311
  invoke void @_ZNSt6vectorIS_IbSaIbEESaIS1_EEC2EmRKS1_RKS2_(%"class.std::vector.67"* %ref.tmp19, i64 %conv27, %"class.std::vector.63"* dereferenceable(40) %ref.tmp28, %"class.std::allocator.69"* dereferenceable(1) %ref.tmp33)
          to label %invoke.cont35 unwind label %lpad34, !dbg !9311

invoke.cont35:                                    ; preds = %invoke.cont32
  invoke void @_ZN6dealii7FE_PolyINS_24TensorProductPolynomialsILi3EEELi3ELi3EEC2ERKS2_RKNS_17FiniteElementDataILi3EEERKSt6vectorIbSaIbEERKSA_ISC_SaISC_EE(%"class.dealii::FE_Poly"* %0, %"class.dealii::TensorProductPolynomials"* dereferenceable(80) %ref.tmp, %"class.dealii::FiniteElementData"* dereferenceable(60) %ref.tmp3, %"class.std::vector.63"* dereferenceable(40) %ref.tmp9, %"class.std::vector.67"* dereferenceable(24) %ref.tmp19)
          to label %invoke.cont37 unwind label %lpad36, !dbg !9312

invoke.cont37:                                    ; preds = %invoke.cont35
  call void @_ZNSt6vectorIS_IbSaIbEESaIS1_EED2Ev(%"class.std::vector.67"* %ref.tmp19) #4, !dbg !9312
  call void @_ZNSaISt6vectorIbSaIbEEED2Ev(%"class.std::allocator.69"* %ref.tmp33) #4, !dbg !9312
  call void @_ZNSt6vectorIbSaIbEED2Ev(%"class.std::vector.63"* %ref.tmp28) #4, !dbg !9312
  call void @_ZNSaIbED2Ev(%"class.std::allocator.82"* %ref.tmp30) #4, !dbg !9312
  call void @_ZNSt6vectorIjSaIjEED2Ev(%"class.std::vector.58"* %ref.tmp21) #4, !dbg !9312
  call void @_ZNSt6vectorIbSaIbEED2Ev(%"class.std::vector.63"* %ref.tmp9) #4, !dbg !9312
  call void @_ZNSaIbED2Ev(%"class.std::allocator.82"* %ref.tmp16) #4, !dbg !9312
  call void @_ZNSt6vectorIjSaIjEED2Ev(%"class.std::vector.58"* %ref.tmp11) #4, !dbg !9312
  call void @_ZNSt6vectorIjSaIjEED2Ev(%"class.std::vector.58"* %ref.tmp4) #4, !dbg !9312
  call void @_ZN6dealii24TensorProductPolynomialsILi3EED2Ev(%"class.dealii::TensorProductPolynomials"* %ref.tmp) #4, !dbg !9312
  call void @_ZNSt6vectorIN6dealii11Polynomials10PolynomialIdEESaIS3_EED2Ev(%"class.std::vector.72"* %ref.tmp2) #4, !dbg !9312
  %10 = bitcast %"class.dealii::FE_Q_Hierarchical"* %this1 to i32 (...)***, !dbg !9290
  store i32 (...)** bitcast (i8** getelementptr inbounds ({ [38 x i8*] }, { [38 x i8*] }* @_ZTVN6dealii17FE_Q_HierarchicalILi3EEE, i32 0, inrange i32 0, i32 2) to i32 (...)**), i32 (...)*** %10, align 8, !dbg !9290
  %face_renumber = getelementptr inbounds %"class.dealii::FE_Q_Hierarchical", %"class.dealii::FE_Q_Hierarchical"* %this1, i32 0, i32 1, !dbg !9313
  %11 = load i32, i32* %degree.addr, align 4, !dbg !9314
  invoke void @_ZN6dealii17FE_Q_HierarchicalILi3EE46face_fe_q_hierarchical_to_hierarchic_numberingEj(%"class.std::vector.58"* sret %face_renumber, i32 %11)
          to label %invoke.cont48 unwind label %lpad47, !dbg !9315

invoke.cont48:                                    ; preds = %invoke.cont37
  %12 = bitcast %"class.dealii::FE_Q_Hierarchical"* %this1 to %"class.dealii::FE_Poly"*, !dbg !9316
  %poly_space = getelementptr inbounds %"class.dealii::FE_Poly", %"class.dealii::FE_Poly"* %12, i32 0, i32 1, !dbg !9316
  %13 = bitcast %"class.dealii::FE_Q_Hierarchical"* %this1 to i8*, !dbg !9318
  %add.ptr = getelementptr inbounds i8, i8* %13, i64 72, !dbg !9318
  %14 = bitcast i8* %add.ptr to %"class.dealii::FiniteElementData"*, !dbg !9318
  invoke void @_ZN6dealii17FE_Q_HierarchicalILi3EE41hierarchic_to_fe_q_hierarchical_numberingERKNS_17FiniteElementDataILi3EEE(%"class.std::vector.58"* sret %ref.tmp49, %"class.dealii::FiniteElementData"* dereferenceable(60) %14)
          to label %invoke.cont51 unwind label %lpad50, !dbg !9319

invoke.cont51:                                    ; preds = %invoke.cont48
  invoke void @_ZN6dealii24TensorProductPolynomialsILi3EE13set_numberingERKSt6vectorIjSaIjEE(%"class.dealii::TensorProductPolynomials"* %poly_space, %"class.std::vector.58"* dereferenceable(24) %ref.tmp49)
          to label %invoke.cont53 unwind label %lpad52, !dbg !9320

invoke.cont53:                                    ; preds = %invoke.cont51
  call void @_ZNSt6vectorIjSaIjEED2Ev(%"class.std::vector.58"* %ref.tmp49) #4, !dbg !9321
  call void @llvm.dbg.declare(metadata %"class.std::vector.19"* %dofs_cell, metadata !9322, metadata !DIExpression()), !dbg !9323
  %15 = bitcast %"class.dealii::FE_Q_Hierarchical"* %this1 to i8*, !dbg !9324
  %add.ptr56 = getelementptr inbounds i8, i8* %15, i64 72, !dbg !9324
  %16 = bitcast i8* %add.ptr56 to %"class.dealii::FiniteElementData"*, !dbg !9324
  %dofs_per_vertex = getelementptr inbounds %"class.dealii::FiniteElementData", %"class.dealii::FiniteElementData"* %16, i32 0, i32 0, !dbg !9324
  %17 = load i32, i32* %dofs_per_vertex, align 8, !dbg !9324
  %mul = mul i32 2, %17, !dbg !9325
  %18 = bitcast %"class.dealii::FE_Q_Hierarchical"* %this1 to i8*, !dbg !9326
  %add.ptr57 = getelementptr inbounds i8, i8* %18, i64 72, !dbg !9326
  %19 = bitcast i8* %add.ptr57 to %"class.dealii::FiniteElementData"*, !dbg !9326
  %dofs_per_line = getelementptr inbounds %"class.dealii::FiniteElementData", %"class.dealii::FiniteElementData"* %19, i32 0, i32 1, !dbg !9326
  %20 = load i32, i32* %dofs_per_line, align 4, !dbg !9326
  %add = add i32 %mul, %20, !dbg !9327
  %21 = bitcast %"class.dealii::FE_Q_Hierarchical"* %this1 to i8*, !dbg !9328
  %add.ptr58 = getelementptr inbounds i8, i8* %21, i64 72, !dbg !9328
  %22 = bitcast i8* %add.ptr58 to %"class.dealii::FiniteElementData"*, !dbg !9328
  %dofs_per_vertex59 = getelementptr inbounds %"class.dealii::FiniteElementData", %"class.dealii::FiniteElementData"* %22, i32 0, i32 0, !dbg !9328
  %23 = load i32, i32* %dofs_per_vertex59, align 8, !dbg !9328
  %mul60 = mul i32 2, %23, !dbg !9329
  %24 = bitcast %"class.dealii::FE_Q_Hierarchical"* %this1 to i8*, !dbg !9330
  %add.ptr61 = getelementptr inbounds i8, i8* %24, i64 72, !dbg !9330
  %25 = bitcast i8* %add.ptr61 to %"class.dealii::FiniteElementData"*, !dbg !9330
  %dofs_per_line62 = getelementptr inbounds %"class.dealii::FiniteElementData", %"class.dealii::FiniteElementData"* %25, i32 0, i32 1, !dbg !9330
  %26 = load i32, i32* %dofs_per_line62, align 4, !dbg !9330
  %add63 = add i32 %mul60, %26, !dbg !9331
  invoke void @_ZN6dealii10FullMatrixIdEC1Ejj(%"class.dealii::FullMatrix"* %ref.tmp55, i32 %add, i32 %add63)
          to label %invoke.cont64 unwind label %lpad50, !dbg !9332

invoke.cont64:                                    ; preds = %invoke.cont53
  call void @_ZNSaIN6dealii10FullMatrixIdEEEC2Ev(%"class.std::allocator.21"* %ref.tmp65) #4, !dbg !9323
  invoke void @_ZNSt6vectorIN6dealii10FullMatrixIdEESaIS2_EEC2EmRKS2_RKS3_(%"class.std::vector.19"* %dofs_cell, i64 2, %"class.dealii::FullMatrix"* dereferenceable(96) %ref.tmp55, %"class.std::allocator.21"* dereferenceable(1) %ref.tmp65)
          to label %invoke.cont67 unwind label %lpad66, !dbg !9323

invoke.cont67:                                    ; preds = %invoke.cont64
  call void @_ZNSaIN6dealii10FullMatrixIdEEED2Ev(%"class.std::allocator.21"* %ref.tmp65) #4, !dbg !9323
  call void @_ZN6dealii10FullMatrixIdED2Ev(%"class.dealii::FullMatrix"* %ref.tmp55) #4, !dbg !9323
  call void @llvm.dbg.declare(metadata %"class.std::vector.19"* %dofs_subcell, metadata !9333, metadata !DIExpression()), !dbg !9334
  %27 = bitcast %"class.dealii::FE_Q_Hierarchical"* %this1 to i8*, !dbg !9335
  %add.ptr71 = getelementptr inbounds i8, i8* %27, i64 72, !dbg !9335
  %28 = bitcast i8* %add.ptr71 to %"class.dealii::FiniteElementData"*, !dbg !9335
  %dofs_per_vertex72 = getelementptr inbounds %"class.dealii::FiniteElementData", %"class.dealii::FiniteElementData"* %28, i32 0, i32 0, !dbg !9335
  %29 = load i32, i32* %dofs_per_vertex72, align 8, !dbg !9335
  %mul73 = mul i32 2, %29, !dbg !9336
  %30 = bitcast %"class.dealii::FE_Q_Hierarchical"* %this1 to i8*, !dbg !9337
  %add.ptr74 = getelementptr inbounds i8, i8* %30, i64 72, !dbg !9337
  %31 = bitcast i8* %add.ptr74 to %"class.dealii::FiniteElementData"*, !dbg !9337
  %dofs_per_line75 = getelementptr inbounds %"class.dealii::FiniteElementData", %"class.dealii::FiniteElementData"* %31, i32 0, i32 1, !dbg !9337
  %32 = load i32, i32* %dofs_per_line75, align 4, !dbg !9337
  %add76 = add i32 %mul73, %32, !dbg !9338
  %33 = bitcast %"class.dealii::FE_Q_Hierarchical"* %this1 to i8*, !dbg !9339
  %add.ptr77 = getelementptr inbounds i8, i8* %33, i64 72, !dbg !9339
  %34 = bitcast i8* %add.ptr77 to %"class.dealii::FiniteElementData"*, !dbg !9339
  %dofs_per_vertex78 = getelementptr inbounds %"class.dealii::FiniteElementData", %"class.dealii::FiniteElementData"* %34, i32 0, i32 0, !dbg !9339
  %35 = load i32, i32* %dofs_per_vertex78, align 8, !dbg !9339
  %mul79 = mul i32 2, %35, !dbg !9340
  %36 = bitcast %"class.dealii::FE_Q_Hierarchical"* %this1 to i8*, !dbg !9341
  %add.ptr80 = getelementptr inbounds i8, i8* %36, i64 72, !dbg !9341
  %37 = bitcast i8* %add.ptr80 to %"class.dealii::FiniteElementData"*, !dbg !9341
  %dofs_per_line81 = getelementptr inbounds %"class.dealii::FiniteElementData", %"class.dealii::FiniteElementData"* %37, i32 0, i32 1, !dbg !9341
  %38 = load i32, i32* %dofs_per_line81, align 4, !dbg !9341
  %add82 = add i32 %mul79, %38, !dbg !9342
  invoke void @_ZN6dealii10FullMatrixIdEC1Ejj(%"class.dealii::FullMatrix"* %ref.tmp70, i32 %add76, i32 %add82)
          to label %invoke.cont84 unwind label %lpad83, !dbg !9343

invoke.cont84:                                    ; preds = %invoke.cont67
  call void @_ZNSaIN6dealii10FullMatrixIdEEEC2Ev(%"class.std::allocator.21"* %ref.tmp85) #4, !dbg !9334
  invoke void @_ZNSt6vectorIN6dealii10FullMatrixIdEESaIS2_EEC2EmRKS2_RKS3_(%"class.std::vector.19"* %dofs_subcell, i64 2, %"class.dealii::FullMatrix"* dereferenceable(96) %ref.tmp70, %"class.std::allocator.21"* dereferenceable(1) %ref.tmp85)
          to label %invoke.cont87 unwind label %lpad86, !dbg !9334

invoke.cont87:                                    ; preds = %invoke.cont84
  call void @_ZNSaIN6dealii10FullMatrixIdEEED2Ev(%"class.std::allocator.21"* %ref.tmp85) #4, !dbg !9334
  call void @_ZN6dealii10FullMatrixIdED2Ev(%"class.dealii::FullMatrix"* %ref.tmp70) #4, !dbg !9334
  invoke void @_ZNK6dealii17FE_Q_HierarchicalILi3EE15build_dofs_cellERSt6vectorINS_10FullMatrixIdEESaIS4_EES7_(%"class.dealii::FE_Q_Hierarchical"* %this1, %"class.std::vector.19"* dereferenceable(24) %dofs_cell, %"class.std::vector.19"* dereferenceable(24) %dofs_subcell)
          to label %invoke.cont91 unwind label %lpad90, !dbg !9344

invoke.cont91:                                    ; preds = %invoke.cont87
  invoke void @_ZN6dealii17FE_Q_HierarchicalILi3EE22initialize_constraintsERKSt6vectorINS_10FullMatrixIdEESaIS4_EE(%"class.dealii::FE_Q_Hierarchical"* %this1, %"class.std::vector.19"* dereferenceable(24) %dofs_subcell)
          to label %invoke.cont92 unwind label %lpad90, !dbg !9345

invoke.cont92:                                    ; preds = %invoke.cont91
  invoke void @_ZN6dealii17FE_Q_HierarchicalILi3EE36initialize_embedding_and_restrictionERKSt6vectorINS_10FullMatrixIdEESaIS4_EES8_(%"class.dealii::FE_Q_Hierarchical"* %this1, %"class.std::vector.19"* dereferenceable(24) %dofs_cell, %"class.std::vector.19"* dereferenceable(24) %dofs_subcell)
          to label %invoke.cont93 unwind label %lpad90, !dbg !9346

invoke.cont93:                                    ; preds = %invoke.cont92
  invoke void @_ZN6dealii17FE_Q_HierarchicalILi3EE30initialize_unit_support_pointsEv(%"class.dealii::FE_Q_Hierarchical"* %this1)
          to label %invoke.cont94 unwind label %lpad90, !dbg !9347

invoke.cont94:                                    ; preds = %invoke.cont93
  invoke void @_ZN6dealii17FE_Q_HierarchicalILi3EE35initialize_unit_face_support_pointsEv(%"class.dealii::FE_Q_Hierarchical"* %this1)
          to label %invoke.cont95 unwind label %lpad90, !dbg !9348

invoke.cont95:                                    ; preds = %invoke.cont94
  call void @_ZNSt6vectorIN6dealii10FullMatrixIdEESaIS2_EED2Ev(%"class.std::vector.19"* %dofs_subcell) #4, !dbg !9349
  call void @_ZNSt6vectorIN6dealii10FullMatrixIdEESaIS2_EED2Ev(%"class.std::vector.19"* %dofs_cell) #4, !dbg !9349
  ret void, !dbg !9349

lpad:                                             ; preds = %entry
  %39 = landingpad { i8*, i32 }
          cleanup, !dbg !9349
  %40 = extractvalue { i8*, i32 } %39, 0, !dbg !9349
  store i8* %40, i8** %exn.slot, align 8, !dbg !9349
  %41 = extractvalue { i8*, i32 } %39, 1, !dbg !9349
  store i32 %41, i32* %ehselector.slot, align 4, !dbg !9349
  br label %ehcleanup46, !dbg !9349

lpad5:                                            ; preds = %invoke.cont
  %42 = landingpad { i8*, i32 }
          cleanup, !dbg !9349
  %43 = extractvalue { i8*, i32 } %42, 0, !dbg !9349
  store i8* %43, i8** %exn.slot, align 8, !dbg !9349
  %44 = extractvalue { i8*, i32 } %42, 1, !dbg !9349
  store i32 %44, i32* %ehselector.slot, align 4, !dbg !9349
  br label %ehcleanup45, !dbg !9349

lpad7:                                            ; preds = %invoke.cont8, %invoke.cont6
  %45 = landingpad { i8*, i32 }
          cleanup, !dbg !9349
  %46 = extractvalue { i8*, i32 } %45, 0, !dbg !9349
  store i8* %46, i8** %exn.slot, align 8, !dbg !9349
  %47 = extractvalue { i8*, i32 } %45, 1, !dbg !9349
  store i32 %47, i32* %ehselector.slot, align 4, !dbg !9349
  br label %ehcleanup44, !dbg !9349

lpad13:                                           ; preds = %invoke.cont12
  %48 = landingpad { i8*, i32 }
          cleanup, !dbg !9349
  %49 = extractvalue { i8*, i32 } %48, 0, !dbg !9349
  store i8* %49, i8** %exn.slot, align 8, !dbg !9349
  %50 = extractvalue { i8*, i32 } %48, 1, !dbg !9349
  store i32 %50, i32* %ehselector.slot, align 4, !dbg !9349
  br label %ehcleanup43, !dbg !9349

lpad17:                                           ; preds = %invoke.cont14
  %51 = landingpad { i8*, i32 }
          cleanup, !dbg !9349
  %52 = extractvalue { i8*, i32 } %51, 0, !dbg !9349
  store i8* %52, i8** %exn.slot, align 8, !dbg !9349
  %53 = extractvalue { i8*, i32 } %51, 1, !dbg !9349
  store i32 %53, i32* %ehselector.slot, align 4, !dbg !9349
  br label %ehcleanup42, !dbg !9349

lpad22:                                           ; preds = %invoke.cont18
  %54 = landingpad { i8*, i32 }
          cleanup, !dbg !9349
  %55 = extractvalue { i8*, i32 } %54, 0, !dbg !9349
  store i8* %55, i8** %exn.slot, align 8, !dbg !9349
  %56 = extractvalue { i8*, i32 } %54, 1, !dbg !9349
  store i32 %56, i32* %ehselector.slot, align 4, !dbg !9349
  br label %ehcleanup41, !dbg !9349

lpad24:                                           ; preds = %invoke.cont23
  %57 = landingpad { i8*, i32 }
          cleanup, !dbg !9349
  %58 = extractvalue { i8*, i32 } %57, 0, !dbg !9349
  store i8* %58, i8** %exn.slot, align 8, !dbg !9349
  %59 = extractvalue { i8*, i32 } %57, 1, !dbg !9349
  store i32 %59, i32* %ehselector.slot, align 4, !dbg !9349
  br label %ehcleanup40, !dbg !9349

lpad31:                                           ; preds = %invoke.cont25
  %60 = landingpad { i8*, i32 }
          cleanup, !dbg !9349
  %61 = extractvalue { i8*, i32 } %60, 0, !dbg !9349
  store i8* %61, i8** %exn.slot, align 8, !dbg !9349
  %62 = extractvalue { i8*, i32 } %60, 1, !dbg !9349
  store i32 %62, i32* %ehselector.slot, align 4, !dbg !9349
  br label %ehcleanup39, !dbg !9349

lpad34:                                           ; preds = %invoke.cont32
  %63 = landingpad { i8*, i32 }
          cleanup, !dbg !9349
  %64 = extractvalue { i8*, i32 } %63, 0, !dbg !9349
  store i8* %64, i8** %exn.slot, align 8, !dbg !9349
  %65 = extractvalue { i8*, i32 } %63, 1, !dbg !9349
  store i32 %65, i32* %ehselector.slot, align 4, !dbg !9349
  br label %ehcleanup, !dbg !9349

lpad36:                                           ; preds = %invoke.cont35
  %66 = landingpad { i8*, i32 }
          cleanup, !dbg !9349
  %67 = extractvalue { i8*, i32 } %66, 0, !dbg !9349
  store i8* %67, i8** %exn.slot, align 8, !dbg !9349
  %68 = extractvalue { i8*, i32 } %66, 1, !dbg !9349
  store i32 %68, i32* %ehselector.slot, align 4, !dbg !9349
  call void @_ZNSt6vectorIS_IbSaIbEESaIS1_EED2Ev(%"class.std::vector.67"* %ref.tmp19) #4, !dbg !9312
  br label %ehcleanup, !dbg !9312

ehcleanup:                                        ; preds = %lpad36, %lpad34
  call void @_ZNSaISt6vectorIbSaIbEEED2Ev(%"class.std::allocator.69"* %ref.tmp33) #4, !dbg !9312
  call void @_ZNSt6vectorIbSaIbEED2Ev(%"class.std::vector.63"* %ref.tmp28) #4, !dbg !9312
  br label %ehcleanup39, !dbg !9312

ehcleanup39:                                      ; preds = %ehcleanup, %lpad31
  call void @_ZNSaIbED2Ev(%"class.std::allocator.82"* %ref.tmp30) #4, !dbg !9312
  br label %ehcleanup40, !dbg !9312

ehcleanup40:                                      ; preds = %ehcleanup39, %lpad24
  call void @_ZNSt6vectorIjSaIjEED2Ev(%"class.std::vector.58"* %ref.tmp21) #4, !dbg !9312
  br label %ehcleanup41, !dbg !9312

ehcleanup41:                                      ; preds = %ehcleanup40, %lpad22
  call void @_ZNSt6vectorIbSaIbEED2Ev(%"class.std::vector.63"* %ref.tmp9) #4, !dbg !9312
  br label %ehcleanup42, !dbg !9312

ehcleanup42:                                      ; preds = %ehcleanup41, %lpad17
  call void @_ZNSaIbED2Ev(%"class.std::allocator.82"* %ref.tmp16) #4, !dbg !9312
  br label %ehcleanup43, !dbg !9312

ehcleanup43:                                      ; preds = %ehcleanup42, %lpad13
  call void @_ZNSt6vectorIjSaIjEED2Ev(%"class.std::vector.58"* %ref.tmp11) #4, !dbg !9312
  br label %ehcleanup44, !dbg !9312

ehcleanup44:                                      ; preds = %ehcleanup43, %lpad7
  call void @_ZNSt6vectorIjSaIjEED2Ev(%"class.std::vector.58"* %ref.tmp4) #4, !dbg !9312
  br label %ehcleanup45, !dbg !9312

ehcleanup45:                                      ; preds = %ehcleanup44, %lpad5
  call void @_ZN6dealii24TensorProductPolynomialsILi3EED2Ev(%"class.dealii::TensorProductPolynomials"* %ref.tmp) #4, !dbg !9312
  br label %ehcleanup46, !dbg !9312

ehcleanup46:                                      ; preds = %ehcleanup45, %lpad
  call void @_ZNSt6vectorIN6dealii11Polynomials10PolynomialIdEESaIS3_EED2Ev(%"class.std::vector.72"* %ref.tmp2) #4, !dbg !9312
  br label %eh.resume, !dbg !9312

lpad47:                                           ; preds = %invoke.cont37
  %69 = landingpad { i8*, i32 }
          cleanup, !dbg !9349
  %70 = extractvalue { i8*, i32 } %69, 0, !dbg !9349
  store i8* %70, i8** %exn.slot, align 8, !dbg !9349
  %71 = extractvalue { i8*, i32 } %69, 1, !dbg !9349
  store i32 %71, i32* %ehselector.slot, align 4, !dbg !9349
  br label %ehcleanup99, !dbg !9349

lpad50:                                           ; preds = %invoke.cont53, %invoke.cont48
  %72 = landingpad { i8*, i32 }
          cleanup, !dbg !9350
  %73 = extractvalue { i8*, i32 } %72, 0, !dbg !9350
  store i8* %73, i8** %exn.slot, align 8, !dbg !9350
  %74 = extractvalue { i8*, i32 } %72, 1, !dbg !9350
  store i32 %74, i32* %ehselector.slot, align 4, !dbg !9350
  br label %ehcleanup98, !dbg !9350

lpad52:                                           ; preds = %invoke.cont51
  %75 = landingpad { i8*, i32 }
          cleanup, !dbg !9350
  %76 = extractvalue { i8*, i32 } %75, 0, !dbg !9350
  store i8* %76, i8** %exn.slot, align 8, !dbg !9350
  %77 = extractvalue { i8*, i32 } %75, 1, !dbg !9350
  store i32 %77, i32* %ehselector.slot, align 4, !dbg !9350
  call void @_ZNSt6vectorIjSaIjEED2Ev(%"class.std::vector.58"* %ref.tmp49) #4, !dbg !9321
  br label %ehcleanup98, !dbg !9321

lpad66:                                           ; preds = %invoke.cont64
  %78 = landingpad { i8*, i32 }
          cleanup, !dbg !9350
  %79 = extractvalue { i8*, i32 } %78, 0, !dbg !9350
  store i8* %79, i8** %exn.slot, align 8, !dbg !9350
  %80 = extractvalue { i8*, i32 } %78, 1, !dbg !9350
  store i32 %80, i32* %ehselector.slot, align 4, !dbg !9350
  call void @_ZNSaIN6dealii10FullMatrixIdEEED2Ev(%"class.std::allocator.21"* %ref.tmp65) #4, !dbg !9323
  call void @_ZN6dealii10FullMatrixIdED2Ev(%"class.dealii::FullMatrix"* %ref.tmp55) #4, !dbg !9323
  br label %ehcleanup98, !dbg !9323

lpad83:                                           ; preds = %invoke.cont67
  %81 = landingpad { i8*, i32 }
          cleanup, !dbg !9350
  %82 = extractvalue { i8*, i32 } %81, 0, !dbg !9350
  store i8* %82, i8** %exn.slot, align 8, !dbg !9350
  %83 = extractvalue { i8*, i32 } %81, 1, !dbg !9350
  store i32 %83, i32* %ehselector.slot, align 4, !dbg !9350
  br label %ehcleanup97, !dbg !9350

lpad86:                                           ; preds = %invoke.cont84
  %84 = landingpad { i8*, i32 }
          cleanup, !dbg !9350
  %85 = extractvalue { i8*, i32 } %84, 0, !dbg !9350
  store i8* %85, i8** %exn.slot, align 8, !dbg !9350
  %86 = extractvalue { i8*, i32 } %84, 1, !dbg !9350
  store i32 %86, i32* %ehselector.slot, align 4, !dbg !9350
  call void @_ZNSaIN6dealii10FullMatrixIdEEED2Ev(%"class.std::allocator.21"* %ref.tmp85) #4, !dbg !9334
  call void @_ZN6dealii10FullMatrixIdED2Ev(%"class.dealii::FullMatrix"* %ref.tmp70) #4, !dbg !9334
  br label %ehcleanup97, !dbg !9334

lpad90:                                           ; preds = %invoke.cont94, %invoke.cont93, %invoke.cont92, %invoke.cont91, %invoke.cont87
  %87 = landingpad { i8*, i32 }
          cleanup, !dbg !9350
  %88 = extractvalue { i8*, i32 } %87, 0, !dbg !9350
  store i8* %88, i8** %exn.slot, align 8, !dbg !9350
  %89 = extractvalue { i8*, i32 } %87, 1, !dbg !9350
  store i32 %89, i32* %ehselector.slot, align 4, !dbg !9350
  call void @_ZNSt6vectorIN6dealii10FullMatrixIdEESaIS2_EED2Ev(%"class.std::vector.19"* %dofs_subcell) #4, !dbg !9349
  br label %ehcleanup97, !dbg !9349

ehcleanup97:                                      ; preds = %lpad90, %lpad86, %lpad83
  call void @_ZNSt6vectorIN6dealii10FullMatrixIdEESaIS2_EED2Ev(%"class.std::vector.19"* %dofs_cell) #4, !dbg !9349
  br label %ehcleanup98, !dbg !9349

ehcleanup98:                                      ; preds = %ehcleanup97, %lpad66, %lpad52, %lpad50
  call void @_ZNSt6vectorIjSaIjEED2Ev(%"class.std::vector.58"* %face_renumber) #4, !dbg !9350
  br label %ehcleanup99, !dbg !9350

ehcleanup99:                                      ; preds = %ehcleanup98, %lpad47
  %90 = bitcast %"class.dealii::FE_Q_Hierarchical"* %this1 to %"class.dealii::FE_Poly"*, !dbg !9350
  call void @_ZN6dealii7FE_PolyINS_24TensorProductPolynomialsILi3EEELi3ELi3EED2Ev(%"class.dealii::FE_Poly"* %90) #4, !dbg !9350
  br label %eh.resume, !dbg !9350

eh.resume:                                        ; preds = %ehcleanup99, %ehcleanup46
  %exn = load i8*, i8** %exn.slot, align 8, !dbg !9312
  %sel = load i32, i32* %ehselector.slot, align 4, !dbg !9312
  %lpad.val = insertvalue { i8*, i32 } undef, i8* %exn, 0, !dbg !9312
  %lpad.val100 = insertvalue { i8*, i32 } %lpad.val, i32 %sel, 1, !dbg !9312
  resume { i8*, i32 } %lpad.val100, !dbg !9312
}

; Function Attrs: nounwind readnone speculatable willreturn
declare void @llvm.dbg.declare(metadata, metadata, metadata) #5

declare dso_local void @_ZN6dealii11Polynomials12Hierarchical23generate_complete_basisEj(%"class.std::vector.72"* sret, i32) #2

; Function Attrs: noinline uwtable
define linkonce_odr dso_local void @_ZN6dealii24TensorProductPolynomialsILi3EEC2INS_11Polynomials10PolynomialIdEEEERKSt6vectorIT_SaIS7_EE(%"class.dealii::TensorProductPolynomials"* %this, %"class.std::vector.72"* dereferenceable(24) %pols) unnamed_addr #0 comdat align 2 personality i8* bitcast (i32 (...)* @__gxx_personality_v0 to i8*) !dbg !9351 {
entry:
  %this.addr = alloca %"class.dealii::TensorProductPolynomials"*, align 8
  %pols.addr = alloca %"class.std::vector.72"*, align 8
  %agg.tmp = alloca %"class.__gnu_cxx::__normal_iterator.103", align 8
  %agg.tmp2 = alloca %"class.__gnu_cxx::__normal_iterator.103", align 8
  %ref.tmp = alloca %"class.std::allocator.74", align 1
  %exn.slot = alloca i8*
  %ehselector.slot = alloca i32
  %ref.tmp13 = alloca %"class.std::allocator.60", align 1
  %ref.tmp18 = alloca %"class.std::allocator.60", align 1
  %i = alloca i32, align 4
  store %"class.dealii::TensorProductPolynomials"* %this, %"class.dealii::TensorProductPolynomials"** %this.addr, align 8
  call void @llvm.dbg.declare(metadata %"class.dealii::TensorProductPolynomials"** %this.addr, metadata !9357, metadata !DIExpression()), !dbg !9359
  store %"class.std::vector.72"* %pols, %"class.std::vector.72"** %pols.addr, align 8
  call void @llvm.dbg.declare(metadata %"class.std::vector.72"** %pols.addr, metadata !9360, metadata !DIExpression()), !dbg !9361
  %this1 = load %"class.dealii::TensorProductPolynomials"*, %"class.dealii::TensorProductPolynomials"** %this.addr, align 8
  %polynomials = getelementptr inbounds %"class.dealii::TensorProductPolynomials", %"class.dealii::TensorProductPolynomials"* %this1, i32 0, i32 0, !dbg !9362
  %0 = load %"class.std::vector.72"*, %"class.std::vector.72"** %pols.addr, align 8, !dbg !9363
  %call = call %"class.dealii::Polynomials::Polynomial"* @_ZNKSt6vectorIN6dealii11Polynomials10PolynomialIdEESaIS3_EE5beginEv(%"class.std::vector.72"* %0) #4, !dbg !9364
  %coerce.dive = getelementptr inbounds %"class.__gnu_cxx::__normal_iterator.103", %"class.__gnu_cxx::__normal_iterator.103"* %agg.tmp, i32 0, i32 0, !dbg !9364
  store %"class.dealii::Polynomials::Polynomial"* %call, %"class.dealii::Polynomials::Polynomial"** %coerce.dive, align 8, !dbg !9364
  %1 = load %"class.std::vector.72"*, %"class.std::vector.72"** %pols.addr, align 8, !dbg !9365
  %call3 = call %"class.dealii::Polynomials::Polynomial"* @_ZNKSt6vectorIN6dealii11Polynomials10PolynomialIdEESaIS3_EE3endEv(%"class.std::vector.72"* %1) #4, !dbg !9366
  %coerce.dive4 = getelementptr inbounds %"class.__gnu_cxx::__normal_iterator.103", %"class.__gnu_cxx::__normal_iterator.103"* %agg.tmp2, i32 0, i32 0, !dbg !9366
  store %"class.dealii::Polynomials::Polynomial"* %call3, %"class.dealii::Polynomials::Polynomial"** %coerce.dive4, align 8, !dbg !9366
  call void @_ZNSaIN6dealii11Polynomials10PolynomialIdEEEC2Ev(%"class.std::allocator.74"* %ref.tmp) #4, !dbg !9362
  %coerce.dive5 = getelementptr inbounds %"class.__gnu_cxx::__normal_iterator.103", %"class.__gnu_cxx::__normal_iterator.103"* %agg.tmp, i32 0, i32 0, !dbg !9362
  %2 = load %"class.dealii::Polynomials::Polynomial"*, %"class.dealii::Polynomials::Polynomial"** %coerce.dive5, align 8, !dbg !9362
  %coerce.dive6 = getelementptr inbounds %"class.__gnu_cxx::__normal_iterator.103", %"class.__gnu_cxx::__normal_iterator.103"* %agg.tmp2, i32 0, i32 0, !dbg !9362
  %3 = load %"class.dealii::Polynomials::Polynomial"*, %"class.dealii::Polynomials::Polynomial"** %coerce.dive6, align 8, !dbg !9362
  invoke void @_ZNSt6vectorIN6dealii11Polynomials10PolynomialIdEESaIS3_EEC2IN9__gnu_cxx17__normal_iteratorIPKS3_S5_EEvEET_SC_RKS4_(%"class.std::vector.72"* %polynomials, %"class.dealii::Polynomials::Polynomial"* %2, %"class.dealii::Polynomials::Polynomial"* %3, %"class.std::allocator.74"* dereferenceable(1) %ref.tmp)
          to label %invoke.cont unwind label %lpad, !dbg !9362

invoke.cont:                                      ; preds = %entry
  call void @_ZNSaIN6dealii11Polynomials10PolynomialIdEEED2Ev(%"class.std::allocator.74"* %ref.tmp) #4, !dbg !9362
  %n_tensor_pols = getelementptr inbounds %"class.dealii::TensorProductPolynomials", %"class.dealii::TensorProductPolynomials"* %this1, i32 0, i32 1, !dbg !9367
  %4 = load %"class.std::vector.72"*, %"class.std::vector.72"** %pols.addr, align 8, !dbg !9368
  %call7 = call i64 @_ZNKSt6vectorIN6dealii11Polynomials10PolynomialIdEESaIS3_EE4sizeEv(%"class.std::vector.72"* %4) #4, !dbg !9369
  %conv = trunc i64 %call7 to i32, !dbg !9368
  %call10 = invoke i32 @_ZN6dealii24TensorProductPolynomialsILi3EE12x_to_the_dimEj(i32 %conv)
          to label %invoke.cont9 unwind label %lpad8, !dbg !9370

invoke.cont9:                                     ; preds = %invoke.cont
  store i32 %call10, i32* %n_tensor_pols, align 8, !dbg !9367
  %index_map = getelementptr inbounds %"class.dealii::TensorProductPolynomials", %"class.dealii::TensorProductPolynomials"* %this1, i32 0, i32 2, !dbg !9371
  %n_tensor_pols11 = getelementptr inbounds %"class.dealii::TensorProductPolynomials", %"class.dealii::TensorProductPolynomials"* %this1, i32 0, i32 1, !dbg !9372
  %5 = load i32, i32* %n_tensor_pols11, align 8, !dbg !9372
  %conv12 = zext i32 %5 to i64, !dbg !9372
  call void @_ZNSaIjEC2Ev(%"class.std::allocator.60"* %ref.tmp13) #4, !dbg !9371
  invoke void @_ZNSt6vectorIjSaIjEEC2EmRKS0_(%"class.std::vector.58"* %index_map, i64 %conv12, %"class.std::allocator.60"* dereferenceable(1) %ref.tmp13)
          to label %invoke.cont15 unwind label %lpad14, !dbg !9371

invoke.cont15:                                    ; preds = %invoke.cont9
  call void @_ZNSaIjED2Ev(%"class.std::allocator.60"* %ref.tmp13) #4, !dbg !9371
  %index_map_inverse = getelementptr inbounds %"class.dealii::TensorProductPolynomials", %"class.dealii::TensorProductPolynomials"* %this1, i32 0, i32 3, !dbg !9373
  %n_tensor_pols16 = getelementptr inbounds %"class.dealii::TensorProductPolynomials", %"class.dealii::TensorProductPolynomials"* %this1, i32 0, i32 1, !dbg !9374
  %6 = load i32, i32* %n_tensor_pols16, align 8, !dbg !9374
  %conv17 = zext i32 %6 to i64, !dbg !9374
  call void @_ZNSaIjEC2Ev(%"class.std::allocator.60"* %ref.tmp18) #4, !dbg !9373
  invoke void @_ZNSt6vectorIjSaIjEEC2EmRKS0_(%"class.std::vector.58"* %index_map_inverse, i64 %conv17, %"class.std::allocator.60"* dereferenceable(1) %ref.tmp18)
          to label %invoke.cont20 unwind label %lpad19, !dbg !9373

invoke.cont20:                                    ; preds = %invoke.cont15
  call void @_ZNSaIjED2Ev(%"class.std::allocator.60"* %ref.tmp18) #4, !dbg !9373
  call void @llvm.dbg.declare(metadata i32* %i, metadata !9375, metadata !DIExpression()), !dbg !9378
  store i32 0, i32* %i, align 4, !dbg !9378
  br label %for.cond, !dbg !9379

for.cond:                                         ; preds = %for.inc, %invoke.cont20
  %7 = load i32, i32* %i, align 4, !dbg !9380
  %n_tensor_pols21 = getelementptr inbounds %"class.dealii::TensorProductPolynomials", %"class.dealii::TensorProductPolynomials"* %this1, i32 0, i32 1, !dbg !9382
  %8 = load i32, i32* %n_tensor_pols21, align 8, !dbg !9382
  %cmp = icmp ult i32 %7, %8, !dbg !9383
  br i1 %cmp, label %for.body, label %for.end, !dbg !9384

for.body:                                         ; preds = %for.cond
  %9 = load i32, i32* %i, align 4, !dbg !9385
  %index_map22 = getelementptr inbounds %"class.dealii::TensorProductPolynomials", %"class.dealii::TensorProductPolynomials"* %this1, i32 0, i32 2, !dbg !9387
  %10 = load i32, i32* %i, align 4, !dbg !9388
  %conv23 = zext i32 %10 to i64, !dbg !9388
  %call24 = call dereferenceable(4) i32* @_ZNSt6vectorIjSaIjEEixEm(%"class.std::vector.58"* %index_map22, i64 %conv23) #4, !dbg !9387
  store i32 %9, i32* %call24, align 4, !dbg !9389
  %11 = load i32, i32* %i, align 4, !dbg !9390
  %index_map_inverse25 = getelementptr inbounds %"class.dealii::TensorProductPolynomials", %"class.dealii::TensorProductPolynomials"* %this1, i32 0, i32 3, !dbg !9391
  %12 = load i32, i32* %i, align 4, !dbg !9392
  %conv26 = zext i32 %12 to i64, !dbg !9392
  %call27 = call dereferenceable(4) i32* @_ZNSt6vectorIjSaIjEEixEm(%"class.std::vector.58"* %index_map_inverse25, i64 %conv26) #4, !dbg !9391
  store i32 %11, i32* %call27, align 4, !dbg !9393
  br label %for.inc, !dbg !9394

for.inc:                                          ; preds = %for.body
  %13 = load i32, i32* %i, align 4, !dbg !9395
  %inc = add i32 %13, 1, !dbg !9395
  store i32 %inc, i32* %i, align 4, !dbg !9395
  br label %for.cond, !dbg !9396, !llvm.loop !9397

lpad:                                             ; preds = %entry
  %14 = landingpad { i8*, i32 }
          cleanup, !dbg !9399
  %15 = extractvalue { i8*, i32 } %14, 0, !dbg !9399
  store i8* %15, i8** %exn.slot, align 8, !dbg !9399
  %16 = extractvalue { i8*, i32 } %14, 1, !dbg !9399
  store i32 %16, i32* %ehselector.slot, align 4, !dbg !9399
  call void @_ZNSaIN6dealii11Polynomials10PolynomialIdEEED2Ev(%"class.std::allocator.74"* %ref.tmp) #4, !dbg !9362
  br label %eh.resume, !dbg !9362

lpad8:                                            ; preds = %invoke.cont
  %17 = landingpad { i8*, i32 }
          cleanup, !dbg !9399
  %18 = extractvalue { i8*, i32 } %17, 0, !dbg !9399
  store i8* %18, i8** %exn.slot, align 8, !dbg !9399
  %19 = extractvalue { i8*, i32 } %17, 1, !dbg !9399
  store i32 %19, i32* %ehselector.slot, align 4, !dbg !9399
  br label %ehcleanup, !dbg !9399

lpad14:                                           ; preds = %invoke.cont9
  %20 = landingpad { i8*, i32 }
          cleanup, !dbg !9399
  %21 = extractvalue { i8*, i32 } %20, 0, !dbg !9399
  store i8* %21, i8** %exn.slot, align 8, !dbg !9399
  %22 = extractvalue { i8*, i32 } %20, 1, !dbg !9399
  store i32 %22, i32* %ehselector.slot, align 4, !dbg !9399
  call void @_ZNSaIjED2Ev(%"class.std::allocator.60"* %ref.tmp13) #4, !dbg !9371
  br label %ehcleanup, !dbg !9371

lpad19:                                           ; preds = %invoke.cont15
  %23 = landingpad { i8*, i32 }
          cleanup, !dbg !9399
  %24 = extractvalue { i8*, i32 } %23, 0, !dbg !9399
  store i8* %24, i8** %exn.slot, align 8, !dbg !9399
  %25 = extractvalue { i8*, i32 } %23, 1, !dbg !9399
  store i32 %25, i32* %ehselector.slot, align 4, !dbg !9399
  call void @_ZNSaIjED2Ev(%"class.std::allocator.60"* %ref.tmp18) #4, !dbg !9373
  call void @_ZNSt6vectorIjSaIjEED2Ev(%"class.std::vector.58"* %index_map) #4, !dbg !9400
  br label %ehcleanup, !dbg !9400

for.end:                                          ; preds = %for.cond
  ret void, !dbg !9399

ehcleanup:                                        ; preds = %lpad19, %lpad14, %lpad8
  call void @_ZNSt6vectorIN6dealii11Polynomials10PolynomialIdEESaIS3_EED2Ev(%"class.std::vector.72"* %polynomials) #4, !dbg !9400
  br label %eh.resume, !dbg !9400

eh.resume:                                        ; preds = %ehcleanup, %lpad
  %exn = load i8*, i8** %exn.slot, align 8, !dbg !9362
  %sel = load i32, i32* %ehselector.slot, align 4, !dbg !9362
  %lpad.val = insertvalue { i8*, i32 } undef, i8* %exn, 0, !dbg !9362
  %lpad.val28 = insertvalue { i8*, i32 } %lpad.val, i32 %sel, 1, !dbg !9362
  resume { i8*, i32 } %lpad.val28, !dbg !9362
}

declare dso_local i32 @__gxx_personality_v0(...)

; Function Attrs: noinline uwtable
define weak_odr dso_local void @_ZN6dealii17FE_Q_HierarchicalILi3EE14get_dpo_vectorEj(%"class.std::vector.58"* noalias sret %agg.result, i32 %deg) #0 comdat align 2 personality i8* bitcast (i32 (...)* @__gxx_personality_v0 to i8*) !dbg !9401 {
entry:
  %result.ptr = alloca i8*, align 8
  %deg.addr = alloca i32, align 4
  %nrvo = alloca i1, align 1
  %ref.tmp = alloca i32, align 4
  %ref.tmp1 = alloca %"class.std::allocator.60", align 1
  %exn.slot = alloca i8*
  %ehselector.slot = alloca i32
  %i = alloca i32, align 4
  %0 = bitcast %"class.std::vector.58"* %agg.result to i8*
  store i8* %0, i8** %result.ptr, align 8
  store i32 %deg, i32* %deg.addr, align 4
  call void @llvm.dbg.declare(metadata i32* %deg.addr, metadata !9402, metadata !DIExpression()), !dbg !9403
  store i1 false, i1* %nrvo, align 1, !dbg !9404
  call void @llvm.dbg.declare(metadata i8** %result.ptr, metadata !9405, metadata !DIExpression(DW_OP_deref)), !dbg !9406
  store i32 1, i32* %ref.tmp, align 4, !dbg !9407
  call void @_ZNSaIjEC2Ev(%"class.std::allocator.60"* %ref.tmp1) #4, !dbg !9406
  invoke void @_ZNSt6vectorIjSaIjEEC2EmRKjRKS0_(%"class.std::vector.58"* %agg.result, i64 4, i32* dereferenceable(4) %ref.tmp, %"class.std::allocator.60"* dereferenceable(1) %ref.tmp1)
          to label %invoke.cont unwind label %lpad, !dbg !9406

invoke.cont:                                      ; preds = %entry
  call void @_ZNSaIjED2Ev(%"class.std::allocator.60"* %ref.tmp1) #4, !dbg !9406
  call void @llvm.dbg.declare(metadata i32* %i, metadata !9408, metadata !DIExpression()), !dbg !9410
  store i32 1, i32* %i, align 4, !dbg !9410
  br label %for.cond, !dbg !9411

for.cond:                                         ; preds = %for.inc, %invoke.cont
  %1 = load i32, i32* %i, align 4, !dbg !9412
  %conv = zext i32 %1 to i64, !dbg !9412
  %call = call i64 @_ZNKSt6vectorIjSaIjEE4sizeEv(%"class.std::vector.58"* %agg.result) #4, !dbg !9414
  %cmp = icmp ult i64 %conv, %call, !dbg !9415
  br i1 %cmp, label %for.body, label %for.end, !dbg !9416

for.body:                                         ; preds = %for.cond
  %2 = load i32, i32* %i, align 4, !dbg !9417
  %sub = sub i32 %2, 1, !dbg !9418
  %conv2 = zext i32 %sub to i64, !dbg !9417
  %call3 = call dereferenceable(4) i32* @_ZNSt6vectorIjSaIjEEixEm(%"class.std::vector.58"* %agg.result, i64 %conv2) #4, !dbg !9419
  %3 = load i32, i32* %call3, align 4, !dbg !9419
  %4 = load i32, i32* %deg.addr, align 4, !dbg !9420
  %sub4 = sub i32 %4, 1, !dbg !9421
  %mul = mul i32 %3, %sub4, !dbg !9422
  %5 = load i32, i32* %i, align 4, !dbg !9423
  %conv5 = zext i32 %5 to i64, !dbg !9423
  %call6 = call dereferenceable(4) i32* @_ZNSt6vectorIjSaIjEEixEm(%"class.std::vector.58"* %agg.result, i64 %conv5) #4, !dbg !9424
  store i32 %mul, i32* %call6, align 4, !dbg !9425
  br label %for.inc, !dbg !9424

for.inc:                                          ; preds = %for.body
  %6 = load i32, i32* %i, align 4, !dbg !9426
  %inc = add i32 %6, 1, !dbg !9426
  store i32 %inc, i32* %i, align 4, !dbg !9426
  br label %for.cond, !dbg !9427, !llvm.loop !9428

lpad:                                             ; preds = %entry
  %7 = landingpad { i8*, i32 }
          cleanup, !dbg !9430
  %8 = extractvalue { i8*, i32 } %7, 0, !dbg !9430
  store i8* %8, i8** %exn.slot, align 8, !dbg !9430
  %9 = extractvalue { i8*, i32 } %7, 1, !dbg !9430
  store i32 %9, i32* %ehselector.slot, align 4, !dbg !9430
  call void @_ZNSaIjED2Ev(%"class.std::allocator.60"* %ref.tmp1) #4, !dbg !9406
  br label %eh.resume, !dbg !9406

for.end:                                          ; preds = %for.cond
  store i1 true, i1* %nrvo, align 1, !dbg !9431
  %nrvo.val = load i1, i1* %nrvo, align 1, !dbg !9430
  br i1 %nrvo.val, label %nrvo.skipdtor, label %nrvo.unused, !dbg !9430

nrvo.unused:                                      ; preds = %for.end
  call void @_ZNSt6vectorIjSaIjEED2Ev(%"class.std::vector.58"* %agg.result) #4, !dbg !9430
  br label %nrvo.skipdtor, !dbg !9430

nrvo.skipdtor:                                    ; preds = %nrvo.unused, %for.end
  ret void, !dbg !9430

eh.resume:                                        ; preds = %lpad
  %exn = load i8*, i8** %exn.slot, align 8, !dbg !9406
  %sel = load i32, i32* %ehselector.slot, align 4, !dbg !9406
  %lpad.val = insertvalue { i8*, i32 } undef, i8* %exn, 0, !dbg !9406
  %lpad.val7 = insertvalue { i8*, i32 } %lpad.val, i32 %sel, 1, !dbg !9406
  resume { i8*, i32 } %lpad.val7, !dbg !9406
}

declare dso_local void @_ZN6dealii17FiniteElementDataILi3EEC1ERKSt6vectorIjSaIjEEjjNS1_10ConformityEj(%"class.dealii::FiniteElementData"*, %"class.std::vector.58"* dereferenceable(24), i32, i32, i32, i32) unnamed_addr #2

; Function Attrs: noinline nounwind uwtable
define linkonce_odr dso_local void @_ZNSaIbEC2Ev(%"class.std::allocator.82"* %this) unnamed_addr #1 comdat align 2 !dbg !9432 {
entry:
  %this.addr = alloca %"class.std::allocator.82"*, align 8
  store %"class.std::allocator.82"* %this, %"class.std::allocator.82"** %this.addr, align 8
  call void @llvm.dbg.declare(metadata %"class.std::allocator.82"** %this.addr, metadata !9433, metadata !DIExpression()), !dbg !9435
  %this1 = load %"class.std::allocator.82"*, %"class.std::allocator.82"** %this.addr, align 8
  %0 = bitcast %"class.std::allocator.82"* %this1 to %"class.__gnu_cxx::new_allocator.83"*, !dbg !9436
  call void @_ZN9__gnu_cxx13new_allocatorIbEC2Ev(%"class.__gnu_cxx::new_allocator.83"* %0) #4, !dbg !9437
  ret void, !dbg !9438
}

; Function Attrs: noinline uwtable
define linkonce_odr dso_local void @_ZNSt6vectorIbSaIbEEC2EmRKbRKS0_(%"class.std::vector.63"* %this, i64 %__n, i8* dereferenceable(1) %__value, %"class.std::allocator.82"* dereferenceable(1) %__a) unnamed_addr #0 comdat align 2 personality i8* bitcast (i32 (...)* @__gxx_personality_v0 to i8*) !dbg !9439 {
entry:
  %this.addr = alloca %"class.std::vector.63"*, align 8
  %__n.addr = alloca i64, align 8
  %__value.addr = alloca i8*, align 8
  %__a.addr = alloca %"class.std::allocator.82"*, align 8
  %exn.slot = alloca i8*
  %ehselector.slot = alloca i32
  store %"class.std::vector.63"* %this, %"class.std::vector.63"** %this.addr, align 8
  call void @llvm.dbg.declare(metadata %"class.std::vector.63"** %this.addr, metadata !9440, metadata !DIExpression()), !dbg !9441
  store i64 %__n, i64* %__n.addr, align 8
  call void @llvm.dbg.declare(metadata i64* %__n.addr, metadata !9442, metadata !DIExpression()), !dbg !9443
  store i8* %__value, i8** %__value.addr, align 8
  call void @llvm.dbg.declare(metadata i8** %__value.addr, metadata !9444, metadata !DIExpression()), !dbg !9445
  store %"class.std::allocator.82"* %__a, %"class.std::allocator.82"** %__a.addr, align 8
  call void @llvm.dbg.declare(metadata %"class.std::allocator.82"** %__a.addr, metadata !9446, metadata !DIExpression()), !dbg !9447
  %this1 = load %"class.std::vector.63"*, %"class.std::vector.63"** %this.addr, align 8
  %0 = bitcast %"class.std::vector.63"* %this1 to %"struct.std::_Bvector_base"*, !dbg !9448
  %1 = load %"class.std::allocator.82"*, %"class.std::allocator.82"** %__a.addr, align 8, !dbg !9449
  call void @_ZNSt13_Bvector_baseISaIbEEC2ERKS0_(%"struct.std::_Bvector_base"* %0, %"class.std::allocator.82"* dereferenceable(1) %1), !dbg !9450
  %2 = load i64, i64* %__n.addr, align 8, !dbg !9451
  invoke void @_ZNSt6vectorIbSaIbEE13_M_initializeEm(%"class.std::vector.63"* %this1, i64 %2)
          to label %invoke.cont unwind label %lpad, !dbg !9453

invoke.cont:                                      ; preds = %entry
  %3 = load i8*, i8** %__value.addr, align 8, !dbg !9454
  %4 = load i8, i8* %3, align 1, !dbg !9454
  %tobool = trunc i8 %4 to i1, !dbg !9454
  invoke void @_ZNSt6vectorIbSaIbEE19_M_initialize_valueEb(%"class.std::vector.63"* %this1, i1 zeroext %tobool)
          to label %invoke.cont2 unwind label %lpad, !dbg !9455

invoke.cont2:                                     ; preds = %invoke.cont
  ret void, !dbg !9456

lpad:                                             ; preds = %invoke.cont, %entry
  %5 = landingpad { i8*, i32 }
          cleanup, !dbg !9457
  %6 = extractvalue { i8*, i32 } %5, 0, !dbg !9457
  store i8* %6, i8** %exn.slot, align 8, !dbg !9457
  %7 = extractvalue { i8*, i32 } %5, 1, !dbg !9457
  store i32 %7, i32* %ehselector.slot, align 4, !dbg !9457
  %8 = bitcast %"class.std::vector.63"* %this1 to %"struct.std::_Bvector_base"*, !dbg !9457
  call void @_ZNSt13_Bvector_baseISaIbEED2Ev(%"struct.std::_Bvector_base"* %8) #4, !dbg !9457
  br label %eh.resume, !dbg !9457

eh.resume:                                        ; preds = %lpad
  %exn = load i8*, i8** %exn.slot, align 8, !dbg !9457
  %sel = load i32, i32* %ehselector.slot, align 4, !dbg !9457
  %lpad.val = insertvalue { i8*, i32 } undef, i8* %exn, 0, !dbg !9457
  %lpad.val3 = insertvalue { i8*, i32 } %lpad.val, i32 %sel, 1, !dbg !9457
  resume { i8*, i32 } %lpad.val3, !dbg !9457
}

; Function Attrs: noinline nounwind uwtable
define linkonce_odr dso_local void @_ZNSaISt6vectorIbSaIbEEEC2Ev(%"class.std::allocator.69"* %this) unnamed_addr #1 comdat align 2 !dbg !9458 {
entry:
  %this.addr = alloca %"class.std::allocator.69"*, align 8
  store %"class.std::allocator.69"* %this, %"class.std::allocator.69"** %this.addr, align 8
  call void @llvm.dbg.declare(metadata %"class.std::allocator.69"** %this.addr, metadata !9459, metadata !DIExpression()), !dbg !9461
  %this1 = load %"class.std::allocator.69"*, %"class.std::allocator.69"** %this.addr, align 8
  %0 = bitcast %"class.std::allocator.69"* %this1 to %"class.__gnu_cxx::new_allocator.70"*, !dbg !9462
  call void @_ZN9__gnu_cxx13new_allocatorISt6vectorIbSaIbEEEC2Ev(%"class.__gnu_cxx::new_allocator.70"* %0) #4, !dbg !9463
  ret void, !dbg !9464
}

; Function Attrs: noinline uwtable
define linkonce_odr dso_local void @_ZNSt6vectorIS_IbSaIbEESaIS1_EEC2EmRKS1_RKS2_(%"class.std::vector.67"* %this, i64 %__n, %"class.std::vector.63"* dereferenceable(40) %__value, %"class.std::allocator.69"* dereferenceable(1) %__a) unnamed_addr #0 comdat align 2 personality i8* bitcast (i32 (...)* @__gxx_personality_v0 to i8*) !dbg !9465 {
entry:
  %this.addr = alloca %"class.std::vector.67"*, align 8
  %__n.addr = alloca i64, align 8
  %__value.addr = alloca %"class.std::vector.63"*, align 8
  %__a.addr = alloca %"class.std::allocator.69"*, align 8
  %exn.slot = alloca i8*
  %ehselector.slot = alloca i32
  store %"class.std::vector.67"* %this, %"class.std::vector.67"** %this.addr, align 8
  call void @llvm.dbg.declare(metadata %"class.std::vector.67"** %this.addr, metadata !9466, metadata !DIExpression()), !dbg !9468
  store i64 %__n, i64* %__n.addr, align 8
  call void @llvm.dbg.declare(metadata i64* %__n.addr, metadata !9469, metadata !DIExpression()), !dbg !9470
  store %"class.std::vector.63"* %__value, %"class.std::vector.63"** %__value.addr, align 8
  call void @llvm.dbg.declare(metadata %"class.std::vector.63"** %__value.addr, metadata !9471, metadata !DIExpression()), !dbg !9472
  store %"class.std::allocator.69"* %__a, %"class.std::allocator.69"** %__a.addr, align 8
  call void @llvm.dbg.declare(metadata %"class.std::allocator.69"** %__a.addr, metadata !9473, metadata !DIExpression()), !dbg !9474
  %this1 = load %"class.std::vector.67"*, %"class.std::vector.67"** %this.addr, align 8
  %0 = bitcast %"class.std::vector.67"* %this1 to %"struct.std::_Vector_base.68"*, !dbg !9475
  %1 = load i64, i64* %__n.addr, align 8, !dbg !9476
  %2 = load %"class.std::allocator.69"*, %"class.std::allocator.69"** %__a.addr, align 8, !dbg !9477
  %call = call i64 @_ZNSt6vectorIS_IbSaIbEESaIS1_EE17_S_check_init_lenEmRKS2_(i64 %1, %"class.std::allocator.69"* dereferenceable(1) %2), !dbg !9478
  %3 = load %"class.std::allocator.69"*, %"class.std::allocator.69"** %__a.addr, align 8, !dbg !9479
  call void @_ZNSt12_Vector_baseISt6vectorIbSaIbEESaIS2_EEC2EmRKS3_(%"struct.std::_Vector_base.68"* %0, i64 %call, %"class.std::allocator.69"* dereferenceable(1) %3), !dbg !9480
  %4 = load i64, i64* %__n.addr, align 8, !dbg !9481
  %5 = load %"class.std::vector.63"*, %"class.std::vector.63"** %__value.addr, align 8, !dbg !9483
  invoke void @_ZNSt6vectorIS_IbSaIbEESaIS1_EE18_M_fill_initializeEmRKS1_(%"class.std::vector.67"* %this1, i64 %4, %"class.std::vector.63"* dereferenceable(40) %5)
          to label %invoke.cont unwind label %lpad, !dbg !9484

invoke.cont:                                      ; preds = %entry
  ret void, !dbg !9485

lpad:                                             ; preds = %entry
  %6 = landingpad { i8*, i32 }
          cleanup, !dbg !9486
  %7 = extractvalue { i8*, i32 } %6, 0, !dbg !9486
  store i8* %7, i8** %exn.slot, align 8, !dbg !9486
  %8 = extractvalue { i8*, i32 } %6, 1, !dbg !9486
  store i32 %8, i32* %ehselector.slot, align 4, !dbg !9486
  %9 = bitcast %"class.std::vector.67"* %this1 to %"struct.std::_Vector_base.68"*, !dbg !9486
  call void @_ZNSt12_Vector_baseISt6vectorIbSaIbEESaIS2_EED2Ev(%"struct.std::_Vector_base.68"* %9) #4, !dbg !9486
  br label %eh.resume, !dbg !9486

eh.resume:                                        ; preds = %lpad
  %exn = load i8*, i8** %exn.slot, align 8, !dbg !9486
  %sel = load i32, i32* %ehselector.slot, align 4, !dbg !9486
  %lpad.val = insertvalue { i8*, i32 } undef, i8* %exn, 0, !dbg !9486
  %lpad.val2 = insertvalue { i8*, i32 } %lpad.val, i32 %sel, 1, !dbg !9486
  resume { i8*, i32 } %lpad.val2, !dbg !9486
}

declare dso_local void @_ZN6dealii7FE_PolyINS_24TensorProductPolynomialsILi3EEELi3ELi3EEC2ERKS2_RKNS_17FiniteElementDataILi3EEERKSt6vectorIbSaIbEERKSA_ISC_SaISC_EE(%"class.dealii::FE_Poly"*, %"class.dealii::TensorProductPolynomials"* dereferenceable(80), %"class.dealii::FiniteElementData"* dereferenceable(60), %"class.std::vector.63"* dereferenceable(40), %"class.std::vector.67"* dereferenceable(24)) unnamed_addr #2

; Function Attrs: noinline nounwind uwtable
define linkonce_odr dso_local void @_ZNSt6vectorIS_IbSaIbEESaIS1_EED2Ev(%"class.std::vector.67"* %this) unnamed_addr #1 comdat align 2 personality i8* bitcast (i32 (...)* @__gxx_personality_v0 to i8*) !dbg !9487 {
entry:
  %this.addr = alloca %"class.std::vector.67"*, align 8
  %exn.slot = alloca i8*
  %ehselector.slot = alloca i32
  store %"class.std::vector.67"* %this, %"class.std::vector.67"** %this.addr, align 8
  call void @llvm.dbg.declare(metadata %"class.std::vector.67"** %this.addr, metadata !9488, metadata !DIExpression()), !dbg !9489
  %this1 = load %"class.std::vector.67"*, %"class.std::vector.67"** %this.addr, align 8
  %0 = bitcast %"class.std::vector.67"* %this1 to %"struct.std::_Vector_base.68"*, !dbg !9490
  %_M_impl = getelementptr inbounds %"struct.std::_Vector_base.68", %"struct.std::_Vector_base.68"* %0, i32 0, i32 0, !dbg !9490
  %1 = bitcast %"struct.std::_Vector_base<std::vector<bool, std::allocator<bool> >, std::allocator<std::vector<bool, std::allocator<bool> > > >::_Vector_impl"* %_M_impl to %"struct.std::_Vector_base<std::vector<bool, std::allocator<bool> >, std::allocator<std::vector<bool, std::allocator<bool> > > >::_Vector_impl_data"*, !dbg !9492
  %_M_start = getelementptr inbounds %"struct.std::_Vector_base<std::vector<bool, std::allocator<bool> >, std::allocator<std::vector<bool, std::allocator<bool> > > >::_Vector_impl_data", %"struct.std::_Vector_base<std::vector<bool, std::allocator<bool> >, std::allocator<std::vector<bool, std::allocator<bool> > > >::_Vector_impl_data"* %1, i32 0, i32 0, !dbg !9493
  %2 = load %"class.std::vector.63"*, %"class.std::vector.63"** %_M_start, align 8, !dbg !9493
  %3 = bitcast %"class.std::vector.67"* %this1 to %"struct.std::_Vector_base.68"*, !dbg !9494
  %_M_impl2 = getelementptr inbounds %"struct.std::_Vector_base.68", %"struct.std::_Vector_base.68"* %3, i32 0, i32 0, !dbg !9494
  %4 = bitcast %"struct.std::_Vector_base<std::vector<bool, std::allocator<bool> >, std::allocator<std::vector<bool, std::allocator<bool> > > >::_Vector_impl"* %_M_impl2 to %"struct.std::_Vector_base<std::vector<bool, std::allocator<bool> >, std::allocator<std::vector<bool, std::allocator<bool> > > >::_Vector_impl_data"*, !dbg !9495
  %_M_finish = getelementptr inbounds %"struct.std::_Vector_base<std::vector<bool, std::allocator<bool> >, std::allocator<std::vector<bool, std::allocator<bool> > > >::_Vector_impl_data", %"struct.std::_Vector_base<std::vector<bool, std::allocator<bool> >, std::allocator<std::vector<bool, std::allocator<bool> > > >::_Vector_impl_data"* %4, i32 0, i32 1, !dbg !9496
  %5 = load %"class.std::vector.63"*, %"class.std::vector.63"** %_M_finish, align 8, !dbg !9496
  %6 = bitcast %"class.std::vector.67"* %this1 to %"struct.std::_Vector_base.68"*, !dbg !9497
  %call = call dereferenceable(1) %"class.std::allocator.69"* @_ZNSt12_Vector_baseISt6vectorIbSaIbEESaIS2_EE19_M_get_Tp_allocatorEv(%"struct.std::_Vector_base.68"* %6) #4, !dbg !9497
  invoke void @_ZSt8_DestroyIPSt6vectorIbSaIbEES2_EvT_S4_RSaIT0_E(%"class.std::vector.63"* %2, %"class.std::vector.63"* %5, %"class.std::allocator.69"* dereferenceable(1) %call)
          to label %invoke.cont unwind label %lpad, !dbg !9498

invoke.cont:                                      ; preds = %entry
  %7 = bitcast %"class.std::vector.67"* %this1 to %"struct.std::_Vector_base.68"*, !dbg !9499
  call void @_ZNSt12_Vector_baseISt6vectorIbSaIbEESaIS2_EED2Ev(%"struct.std::_Vector_base.68"* %7) #4, !dbg !9499
  ret void, !dbg !9500

lpad:                                             ; preds = %entry
  %8 = landingpad { i8*, i32 }
          catch i8* null, !dbg !9499
  %9 = extractvalue { i8*, i32 } %8, 0, !dbg !9499
  store i8* %9, i8** %exn.slot, align 8, !dbg !9499
  %10 = extractvalue { i8*, i32 } %8, 1, !dbg !9499
  store i32 %10, i32* %ehselector.slot, align 4, !dbg !9499
  %11 = bitcast %"class.std::vector.67"* %this1 to %"struct.std::_Vector_base.68"*, !dbg !9499
  call void @_ZNSt12_Vector_baseISt6vectorIbSaIbEESaIS2_EED2Ev(%"struct.std::_Vector_base.68"* %11) #4, !dbg !9499
  br label %terminate.handler, !dbg !9499

terminate.handler:                                ; preds = %lpad
  %exn = load i8*, i8** %exn.slot, align 8, !dbg !9499
  call void @__clang_call_terminate(i8* %exn) #12, !dbg !9499
  unreachable, !dbg !9499
}

; Function Attrs: noinline nounwind uwtable
define linkonce_odr dso_local void @_ZNSaISt6vectorIbSaIbEEED2Ev(%"class.std::allocator.69"* %this) unnamed_addr #1 comdat align 2 !dbg !9501 {
entry:
  %this.addr = alloca %"class.std::allocator.69"*, align 8
  store %"class.std::allocator.69"* %this, %"class.std::allocator.69"** %this.addr, align 8
  call void @llvm.dbg.declare(metadata %"class.std::allocator.69"** %this.addr, metadata !9502, metadata !DIExpression()), !dbg !9503
  %this1 = load %"class.std::allocator.69"*, %"class.std::allocator.69"** %this.addr, align 8
  %0 = bitcast %"class.std::allocator.69"* %this1 to %"class.__gnu_cxx::new_allocator.70"*, !dbg !9504
  call void @_ZN9__gnu_cxx13new_allocatorISt6vectorIbSaIbEEED2Ev(%"class.__gnu_cxx::new_allocator.70"* %0) #4, !dbg !9504
  ret void, !dbg !9506
}

; Function Attrs: noinline nounwind uwtable
define linkonce_odr dso_local void @_ZNSt6vectorIbSaIbEED2Ev(%"class.std::vector.63"* %this) unnamed_addr #1 comdat align 2 !dbg !9507 {
entry:
  %this.addr = alloca %"class.std::vector.63"*, align 8
  store %"class.std::vector.63"* %this, %"class.std::vector.63"** %this.addr, align 8
  call void @llvm.dbg.declare(metadata %"class.std::vector.63"** %this.addr, metadata !9508, metadata !DIExpression()), !dbg !9509
  %this1 = load %"class.std::vector.63"*, %"class.std::vector.63"** %this.addr, align 8
  %0 = bitcast %"class.std::vector.63"* %this1 to %"struct.std::_Bvector_base"*, !dbg !9510
  call void @_ZNSt13_Bvector_baseISaIbEED2Ev(%"struct.std::_Bvector_base"* %0) #4, !dbg !9510
  ret void, !dbg !9512
}

; Function Attrs: noinline nounwind uwtable
define linkonce_odr dso_local void @_ZNSaIbED2Ev(%"class.std::allocator.82"* %this) unnamed_addr #1 comdat align 2 !dbg !9513 {
entry:
  %this.addr = alloca %"class.std::allocator.82"*, align 8
  store %"class.std::allocator.82"* %this, %"class.std::allocator.82"** %this.addr, align 8
  call void @llvm.dbg.declare(metadata %"class.std::allocator.82"** %this.addr, metadata !9514, metadata !DIExpression()), !dbg !9515
  %this1 = load %"class.std::allocator.82"*, %"class.std::allocator.82"** %this.addr, align 8
  %0 = bitcast %"class.std::allocator.82"* %this1 to %"class.__gnu_cxx::new_allocator.83"*, !dbg !9516
  call void @_ZN9__gnu_cxx13new_allocatorIbED2Ev(%"class.__gnu_cxx::new_allocator.83"* %0) #4, !dbg !9516
  ret void, !dbg !9518
}

; Function Attrs: noinline nounwind uwtable
define linkonce_odr dso_local void @_ZNSt6vectorIjSaIjEED2Ev(%"class.std::vector.58"* %this) unnamed_addr #1 comdat align 2 personality i8* bitcast (i32 (...)* @__gxx_personality_v0 to i8*) !dbg !9519 {
entry:
  %this.addr = alloca %"class.std::vector.58"*, align 8
  %exn.slot = alloca i8*
  %ehselector.slot = alloca i32
  store %"class.std::vector.58"* %this, %"class.std::vector.58"** %this.addr, align 8
  call void @llvm.dbg.declare(metadata %"class.std::vector.58"** %this.addr, metadata !9520, metadata !DIExpression()), !dbg !9522
  %this1 = load %"class.std::vector.58"*, %"class.std::vector.58"** %this.addr, align 8
  %0 = bitcast %"class.std::vector.58"* %this1 to %"struct.std::_Vector_base.59"*, !dbg !9523
  %_M_impl = getelementptr inbounds %"struct.std::_Vector_base.59", %"struct.std::_Vector_base.59"* %0, i32 0, i32 0, !dbg !9523
  %1 = bitcast %"struct.std::_Vector_base<unsigned int, std::allocator<unsigned int> >::_Vector_impl"* %_M_impl to %"struct.std::_Vector_base<unsigned int, std::allocator<unsigned int> >::_Vector_impl_data"*, !dbg !9525
  %_M_start = getelementptr inbounds %"struct.std::_Vector_base<unsigned int, std::allocator<unsigned int> >::_Vector_impl_data", %"struct.std::_Vector_base<unsigned int, std::allocator<unsigned int> >::_Vector_impl_data"* %1, i32 0, i32 0, !dbg !9526
  %2 = load i32*, i32** %_M_start, align 8, !dbg !9526
  %3 = bitcast %"class.std::vector.58"* %this1 to %"struct.std::_Vector_base.59"*, !dbg !9527
  %_M_impl2 = getelementptr inbounds %"struct.std::_Vector_base.59", %"struct.std::_Vector_base.59"* %3, i32 0, i32 0, !dbg !9527
  %4 = bitcast %"struct.std::_Vector_base<unsigned int, std::allocator<unsigned int> >::_Vector_impl"* %_M_impl2 to %"struct.std::_Vector_base<unsigned int, std::allocator<unsigned int> >::_Vector_impl_data"*, !dbg !9528
  %_M_finish = getelementptr inbounds %"struct.std::_Vector_base<unsigned int, std::allocator<unsigned int> >::_Vector_impl_data", %"struct.std::_Vector_base<unsigned int, std::allocator<unsigned int> >::_Vector_impl_data"* %4, i32 0, i32 1, !dbg !9529
  %5 = load i32*, i32** %_M_finish, align 8, !dbg !9529
  %6 = bitcast %"class.std::vector.58"* %this1 to %"struct.std::_Vector_base.59"*, !dbg !9530
  %call = call dereferenceable(1) %"class.std::allocator.60"* @_ZNSt12_Vector_baseIjSaIjEE19_M_get_Tp_allocatorEv(%"struct.std::_Vector_base.59"* %6) #4, !dbg !9530
  invoke void @_ZSt8_DestroyIPjjEvT_S1_RSaIT0_E(i32* %2, i32* %5, %"class.std::allocator.60"* dereferenceable(1) %call)
          to label %invoke.cont unwind label %lpad, !dbg !9531

invoke.cont:                                      ; preds = %entry
  %7 = bitcast %"class.std::vector.58"* %this1 to %"struct.std::_Vector_base.59"*, !dbg !9532
  call void @_ZNSt12_Vector_baseIjSaIjEED2Ev(%"struct.std::_Vector_base.59"* %7) #4, !dbg !9532
  ret void, !dbg !9533

lpad:                                             ; preds = %entry
  %8 = landingpad { i8*, i32 }
          catch i8* null, !dbg !9532
  %9 = extractvalue { i8*, i32 } %8, 0, !dbg !9532
  store i8* %9, i8** %exn.slot, align 8, !dbg !9532
  %10 = extractvalue { i8*, i32 } %8, 1, !dbg !9532
  store i32 %10, i32* %ehselector.slot, align 4, !dbg !9532
  %11 = bitcast %"class.std::vector.58"* %this1 to %"struct.std::_Vector_base.59"*, !dbg !9532
  call void @_ZNSt12_Vector_baseIjSaIjEED2Ev(%"struct.std::_Vector_base.59"* %11) #4, !dbg !9532
  br label %terminate.handler, !dbg !9532

terminate.handler:                                ; preds = %lpad
  %exn = load i8*, i8** %exn.slot, align 8, !dbg !9532
  call void @__clang_call_terminate(i8* %exn) #12, !dbg !9532
  unreachable, !dbg !9532
}

; Function Attrs: noinline nounwind uwtable
define linkonce_odr dso_local void @_ZN6dealii24TensorProductPolynomialsILi3EED2Ev(%"class.dealii::TensorProductPolynomials"* %this) unnamed_addr #1 comdat align 2 !dbg !9534 {
entry:
  %this.addr = alloca %"class.dealii::TensorProductPolynomials"*, align 8
  store %"class.dealii::TensorProductPolynomials"* %this, %"class.dealii::TensorProductPolynomials"** %this.addr, align 8
  call void @llvm.dbg.declare(metadata %"class.dealii::TensorProductPolynomials"** %this.addr, metadata !9538, metadata !DIExpression()), !dbg !9539
  %this1 = load %"class.dealii::TensorProductPolynomials"*, %"class.dealii::TensorProductPolynomials"** %this.addr, align 8
  %index_map_inverse = getelementptr inbounds %"class.dealii::TensorProductPolynomials", %"class.dealii::TensorProductPolynomials"* %this1, i32 0, i32 3, !dbg !9540
  call void @_ZNSt6vectorIjSaIjEED2Ev(%"class.std::vector.58"* %index_map_inverse) #4, !dbg !9540
  %index_map = getelementptr inbounds %"class.dealii::TensorProductPolynomials", %"class.dealii::TensorProductPolynomials"* %this1, i32 0, i32 2, !dbg !9540
  call void @_ZNSt6vectorIjSaIjEED2Ev(%"class.std::vector.58"* %index_map) #4, !dbg !9540
  %polynomials = getelementptr inbounds %"class.dealii::TensorProductPolynomials", %"class.dealii::TensorProductPolynomials"* %this1, i32 0, i32 0, !dbg !9540
  call void @_ZNSt6vectorIN6dealii11Polynomials10PolynomialIdEESaIS3_EED2Ev(%"class.std::vector.72"* %polynomials) #4, !dbg !9540
  ret void, !dbg !9542
}

; Function Attrs: noinline nounwind uwtable
define linkonce_odr dso_local void @_ZNSt6vectorIN6dealii11Polynomials10PolynomialIdEESaIS3_EED2Ev(%"class.std::vector.72"* %this) unnamed_addr #1 comdat align 2 personality i8* bitcast (i32 (...)* @__gxx_personality_v0 to i8*) !dbg !9543 {
entry:
  %this.addr = alloca %"class.std::vector.72"*, align 8
  %exn.slot = alloca i8*
  %ehselector.slot = alloca i32
  store %"class.std::vector.72"* %this, %"class.std::vector.72"** %this.addr, align 8
  call void @llvm.dbg.declare(metadata %"class.std::vector.72"** %this.addr, metadata !9544, metadata !DIExpression()), !dbg !9546
  %this1 = load %"class.std::vector.72"*, %"class.std::vector.72"** %this.addr, align 8
  %0 = bitcast %"class.std::vector.72"* %this1 to %"struct.std::_Vector_base.73"*, !dbg !9547
  %_M_impl = getelementptr inbounds %"struct.std::_Vector_base.73", %"struct.std::_Vector_base.73"* %0, i32 0, i32 0, !dbg !9547
  %1 = bitcast %"struct.std::_Vector_base<dealii::Polynomials::Polynomial<double>, std::allocator<dealii::Polynomials::Polynomial<double> > >::_Vector_impl"* %_M_impl to %"struct.std::_Vector_base<dealii::Polynomials::Polynomial<double>, std::allocator<dealii::Polynomials::Polynomial<double> > >::_Vector_impl_data"*, !dbg !9549
  %_M_start = getelementptr inbounds %"struct.std::_Vector_base<dealii::Polynomials::Polynomial<double>, std::allocator<dealii::Polynomials::Polynomial<double> > >::_Vector_impl_data", %"struct.std::_Vector_base<dealii::Polynomials::Polynomial<double>, std::allocator<dealii::Polynomials::Polynomial<double> > >::_Vector_impl_data"* %1, i32 0, i32 0, !dbg !9550
  %2 = load %"class.dealii::Polynomials::Polynomial"*, %"class.dealii::Polynomials::Polynomial"** %_M_start, align 8, !dbg !9550
  %3 = bitcast %"class.std::vector.72"* %this1 to %"struct.std::_Vector_base.73"*, !dbg !9551
  %_M_impl2 = getelementptr inbounds %"struct.std::_Vector_base.73", %"struct.std::_Vector_base.73"* %3, i32 0, i32 0, !dbg !9551
  %4 = bitcast %"struct.std::_Vector_base<dealii::Polynomials::Polynomial<double>, std::allocator<dealii::Polynomials::Polynomial<double> > >::_Vector_impl"* %_M_impl2 to %"struct.std::_Vector_base<dealii::Polynomials::Polynomial<double>, std::allocator<dealii::Polynomials::Polynomial<double> > >::_Vector_impl_data"*, !dbg !9552
  %_M_finish = getelementptr inbounds %"struct.std::_Vector_base<dealii::Polynomials::Polynomial<double>, std::allocator<dealii::Polynomials::Polynomial<double> > >::_Vector_impl_data", %"struct.std::_Vector_base<dealii::Polynomials::Polynomial<double>, std::allocator<dealii::Polynomials::Polynomial<double> > >::_Vector_impl_data"* %4, i32 0, i32 1, !dbg !9553
  %5 = load %"class.dealii::Polynomials::Polynomial"*, %"class.dealii::Polynomials::Polynomial"** %_M_finish, align 8, !dbg !9553
  %6 = bitcast %"class.std::vector.72"* %this1 to %"struct.std::_Vector_base.73"*, !dbg !9554
  %call = call dereferenceable(1) %"class.std::allocator.74"* @_ZNSt12_Vector_baseIN6dealii11Polynomials10PolynomialIdEESaIS3_EE19_M_get_Tp_allocatorEv(%"struct.std::_Vector_base.73"* %6) #4, !dbg !9554
  invoke void @_ZSt8_DestroyIPN6dealii11Polynomials10PolynomialIdEES3_EvT_S5_RSaIT0_E(%"class.dealii::Polynomials::Polynomial"* %2, %"class.dealii::Polynomials::Polynomial"* %5, %"class.std::allocator.74"* dereferenceable(1) %call)
          to label %invoke.cont unwind label %lpad, !dbg !9555

invoke.cont:                                      ; preds = %entry
  %7 = bitcast %"class.std::vector.72"* %this1 to %"struct.std::_Vector_base.73"*, !dbg !9556
  call void @_ZNSt12_Vector_baseIN6dealii11Polynomials10PolynomialIdEESaIS3_EED2Ev(%"struct.std::_Vector_base.73"* %7) #4, !dbg !9556
  ret void, !dbg !9557

lpad:                                             ; preds = %entry
  %8 = landingpad { i8*, i32 }
          catch i8* null, !dbg !9556
  %9 = extractvalue { i8*, i32 } %8, 0, !dbg !9556
  store i8* %9, i8** %exn.slot, align 8, !dbg !9556
  %10 = extractvalue { i8*, i32 } %8, 1, !dbg !9556
  store i32 %10, i32* %ehselector.slot, align 4, !dbg !9556
  %11 = bitcast %"class.std::vector.72"* %this1 to %"struct.std::_Vector_base.73"*, !dbg !9556
  call void @_ZNSt12_Vector_baseIN6dealii11Polynomials10PolynomialIdEESaIS3_EED2Ev(%"struct.std::_Vector_base.73"* %11) #4, !dbg !9556
  br label %terminate.handler, !dbg !9556

terminate.handler:                                ; preds = %lpad
  %exn = load i8*, i8** %exn.slot, align 8, !dbg !9556
  call void @__clang_call_terminate(i8* %exn) #12, !dbg !9556
  unreachable, !dbg !9556
}

; Function Attrs: noinline uwtable
define weak_odr dso_local void @_ZN6dealii17FE_Q_HierarchicalILi3EE46face_fe_q_hierarchical_to_hierarchic_numberingEj(%"class.std::vector.58"* noalias sret %agg.result, i32 %degree) #0 comdat align 2 personality i8* bitcast (i32 (...)* @__gxx_personality_v0 to i8*) !dbg !9558 {
entry:
  %result.ptr = alloca i8*, align 8
  %degree.addr = alloca i32, align 4
  %fe_data = alloca %"class.dealii::FiniteElementData.92", align 4
  %ref.tmp = alloca %"class.std::vector.58", align 8
  %exn.slot = alloca i8*
  %ehselector.slot = alloca i32
  %ref.tmp1 = alloca %"class.std::vector.58", align 8
  %0 = bitcast %"class.std::vector.58"* %agg.result to i8*
  store i8* %0, i8** %result.ptr, align 8
  store i32 %degree, i32* %degree.addr, align 4
  call void @llvm.dbg.declare(metadata i32* %degree.addr, metadata !9559, metadata !DIExpression()), !dbg !9560
  call void @llvm.dbg.declare(metadata %"class.dealii::FiniteElementData.92"* %fe_data, metadata !9561, metadata !DIExpression()), !dbg !9562
  %1 = load i32, i32* %degree.addr, align 4, !dbg !9563
  call void @_ZN6dealii17FE_Q_HierarchicalILi2EE14get_dpo_vectorEj(%"class.std::vector.58"* sret %ref.tmp, i32 %1), !dbg !9564
  %2 = load i32, i32* %degree.addr, align 4, !dbg !9565
  invoke void @_ZN6dealii17FiniteElementDataILi2EEC1ERKSt6vectorIjSaIjEEjjNS1_10ConformityEj(%"class.dealii::FiniteElementData.92"* %fe_data, %"class.std::vector.58"* dereferenceable(24) %ref.tmp, i32 1, i32 %2, i32 0, i32 -1)
          to label %invoke.cont unwind label %lpad, !dbg !9562

invoke.cont:                                      ; preds = %entry
  call void @_ZNSt6vectorIjSaIjEED2Ev(%"class.std::vector.58"* %ref.tmp) #4, !dbg !9562
  call void @_ZN6dealii17FE_Q_HierarchicalILi2EE41hierarchic_to_fe_q_hierarchical_numberingERKNS_17FiniteElementDataILi2EEE(%"class.std::vector.58"* sret %ref.tmp1, %"class.dealii::FiniteElementData.92"* dereferenceable(60) %fe_data), !dbg !9566
  invoke void @_ZN6dealii12_GLOBAL__N_116invert_numberingERKSt6vectorIjSaIjEE(%"class.std::vector.58"* sret %agg.result, %"class.std::vector.58"* dereferenceable(24) %ref.tmp1)
          to label %invoke.cont3 unwind label %lpad2, !dbg !9567

invoke.cont3:                                     ; preds = %invoke.cont
  call void @_ZNSt6vectorIjSaIjEED2Ev(%"class.std::vector.58"* %ref.tmp1) #4, !dbg !9568
  ret void, !dbg !9568

lpad:                                             ; preds = %entry
  %3 = landingpad { i8*, i32 }
          cleanup, !dbg !9569
  %4 = extractvalue { i8*, i32 } %3, 0, !dbg !9569
  store i8* %4, i8** %exn.slot, align 8, !dbg !9569
  %5 = extractvalue { i8*, i32 } %3, 1, !dbg !9569
  store i32 %5, i32* %ehselector.slot, align 4, !dbg !9569
  call void @_ZNSt6vectorIjSaIjEED2Ev(%"class.std::vector.58"* %ref.tmp) #4, !dbg !9562
  br label %eh.resume, !dbg !9562

lpad2:                                            ; preds = %invoke.cont
  %6 = landingpad { i8*, i32 }
          cleanup, !dbg !9569
  %7 = extractvalue { i8*, i32 } %6, 0, !dbg !9569
  store i8* %7, i8** %exn.slot, align 8, !dbg !9569
  %8 = extractvalue { i8*, i32 } %6, 1, !dbg !9569
  store i32 %8, i32* %ehselector.slot, align 4, !dbg !9569
  call void @_ZNSt6vectorIjSaIjEED2Ev(%"class.std::vector.58"* %ref.tmp1) #4, !dbg !9568
  br label %eh.resume, !dbg !9568

eh.resume:                                        ; preds = %lpad2, %lpad
  %exn = load i8*, i8** %exn.slot, align 8, !dbg !9562
  %sel = load i32, i32* %ehselector.slot, align 4, !dbg !9562
  %lpad.val = insertvalue { i8*, i32 } undef, i8* %exn, 0, !dbg !9562
  %lpad.val4 = insertvalue { i8*, i32 } %lpad.val, i32 %sel, 1, !dbg !9562
  resume { i8*, i32 } %lpad.val4, !dbg !9562
}

declare dso_local void @_ZN6dealii24TensorProductPolynomialsILi3EE13set_numberingERKSt6vectorIjSaIjEE(%"class.dealii::TensorProductPolynomials"*, %"class.std::vector.58"* dereferenceable(24)) #2

; Function Attrs: noinline uwtable
define weak_odr dso_local void @_ZN6dealii17FE_Q_HierarchicalILi3EE41hierarchic_to_fe_q_hierarchical_numberingERKNS_17FiniteElementDataILi3EEE(%"class.std::vector.58"* noalias sret %agg.result, %"class.dealii::FiniteElementData"* dereferenceable(60) %fe) #0 comdat align 2 personality i8* bitcast (i32 (...)* @__gxx_personality_v0 to i8*) !dbg !9570 {
entry:
  %result.ptr = alloca i8*, align 8
  %fe.addr = alloca %"class.dealii::FiniteElementData"*, align 8
  %nrvo = alloca i1, align 1
  %ref.tmp = alloca %"class.std::allocator.60", align 1
  %exn.slot = alloca i8*
  %ehselector.slot = alloca i32
  %degree = alloca i32, align 4
  %n = alloca i32, align 4
  %next_index = alloca i32, align 4
  %n2 = alloca i32, align 4
  %i = alloca i32, align 4
  %i36 = alloca i32, align 4
  %i50 = alloca i32, align 4
  %i62 = alloca i32, align 4
  %i75 = alloca i32, align 4
  %i89 = alloca i32, align 4
  %i104 = alloca i32, align 4
  %i117 = alloca i32, align 4
  %i131 = alloca i32, align 4
  %i144 = alloca i32, align 4
  %i158 = alloca i32, align 4
  %i172 = alloca i32, align 4
  %i187 = alloca i32, align 4
  %j = alloca i32, align 4
  %i210 = alloca i32, align 4
  %j215 = alloca i32, align 4
  %i235 = alloca i32, align 4
  %j240 = alloca i32, align 4
  %i258 = alloca i32, align 4
  %j263 = alloca i32, align 4
  %i282 = alloca i32, align 4
  %j287 = alloca i32, align 4
  %i305 = alloca i32, align 4
  %j310 = alloca i32, align 4
  %i329 = alloca i32, align 4
  %j334 = alloca i32, align 4
  %k = alloca i32, align 4
  %0 = bitcast %"class.std::vector.58"* %agg.result to i8*
  store i8* %0, i8** %result.ptr, align 8
  store %"class.dealii::FiniteElementData"* %fe, %"class.dealii::FiniteElementData"** %fe.addr, align 8
  call void @llvm.dbg.declare(metadata %"class.dealii::FiniteElementData"** %fe.addr, metadata !9571, metadata !DIExpression()), !dbg !9572
  store i1 false, i1* %nrvo, align 1, !dbg !9573
  call void @llvm.dbg.declare(metadata i8** %result.ptr, metadata !9574, metadata !DIExpression(DW_OP_deref)), !dbg !9575
  %1 = load %"class.dealii::FiniteElementData"*, %"class.dealii::FiniteElementData"** %fe.addr, align 8, !dbg !9576
  %dofs_per_cell = getelementptr inbounds %"class.dealii::FiniteElementData", %"class.dealii::FiniteElementData"* %1, i32 0, i32 10, !dbg !9577
  %2 = load i32, i32* %dofs_per_cell, align 4, !dbg !9577
  %conv = zext i32 %2 to i64, !dbg !9576
  call void @_ZNSaIjEC2Ev(%"class.std::allocator.60"* %ref.tmp) #4, !dbg !9575
  invoke void @_ZNSt6vectorIjSaIjEEC2EmRKS0_(%"class.std::vector.58"* %agg.result, i64 %conv, %"class.std::allocator.60"* dereferenceable(1) %ref.tmp)
          to label %invoke.cont unwind label %lpad, !dbg !9575

invoke.cont:                                      ; preds = %entry
  call void @_ZNSaIjED2Ev(%"class.std::allocator.60"* %ref.tmp) #4, !dbg !9575
  call void @llvm.dbg.declare(metadata i32* %degree, metadata !9578, metadata !DIExpression()), !dbg !9579
  %3 = load %"class.dealii::FiniteElementData"*, %"class.dealii::FiniteElementData"** %fe.addr, align 8, !dbg !9580
  %dofs_per_line = getelementptr inbounds %"class.dealii::FiniteElementData", %"class.dealii::FiniteElementData"* %3, i32 0, i32 1, !dbg !9581
  %4 = load i32, i32* %dofs_per_line, align 4, !dbg !9581
  %add = add i32 %4, 1, !dbg !9582
  store i32 %add, i32* %degree, align 4, !dbg !9579
  call void @llvm.dbg.declare(metadata i32* %n, metadata !9583, metadata !DIExpression()), !dbg !9584
  %5 = load i32, i32* %degree, align 4, !dbg !9585
  %add1 = add i32 %5, 1, !dbg !9586
  store i32 %add1, i32* %n, align 4, !dbg !9584
  call void @llvm.dbg.declare(metadata i32* %next_index, metadata !9587, metadata !DIExpression()), !dbg !9588
  store i32 0, i32* %next_index, align 4, !dbg !9588
  call void @llvm.dbg.declare(metadata i32* %n2, metadata !9589, metadata !DIExpression()), !dbg !9590
  %6 = load i32, i32* %n, align 4, !dbg !9591
  %7 = load i32, i32* %n, align 4, !dbg !9592
  %mul = mul i32 %6, %7, !dbg !9593
  store i32 %mul, i32* %n2, align 4, !dbg !9590
  %8 = load i32, i32* %next_index, align 4, !dbg !9594
  %inc = add i32 %8, 1, !dbg !9594
  store i32 %inc, i32* %next_index, align 4, !dbg !9594
  %conv2 = zext i32 %8 to i64, !dbg !9595
  %call = call dereferenceable(4) i32* @_ZNSt6vectorIjSaIjEEixEm(%"class.std::vector.58"* %agg.result, i64 %conv2) #4, !dbg !9596
  store i32 0, i32* %call, align 4, !dbg !9597
  %9 = load i32, i32* %next_index, align 4, !dbg !9598
  %inc3 = add i32 %9, 1, !dbg !9598
  store i32 %inc3, i32* %next_index, align 4, !dbg !9598
  %conv4 = zext i32 %9 to i64, !dbg !9599
  %call5 = call dereferenceable(4) i32* @_ZNSt6vectorIjSaIjEEixEm(%"class.std::vector.58"* %agg.result, i64 %conv4) #4, !dbg !9600
  store i32 1, i32* %call5, align 4, !dbg !9601
  %10 = load i32, i32* %n, align 4, !dbg !9602
  %11 = load i32, i32* %next_index, align 4, !dbg !9603
  %inc6 = add i32 %11, 1, !dbg !9603
  store i32 %inc6, i32* %next_index, align 4, !dbg !9603
  %conv7 = zext i32 %11 to i64, !dbg !9604
  %call8 = call dereferenceable(4) i32* @_ZNSt6vectorIjSaIjEEixEm(%"class.std::vector.58"* %agg.result, i64 %conv7) #4, !dbg !9605
  store i32 %10, i32* %call8, align 4, !dbg !9606
  %12 = load i32, i32* %n, align 4, !dbg !9607
  %add9 = add i32 %12, 1, !dbg !9608
  %13 = load i32, i32* %next_index, align 4, !dbg !9609
  %inc10 = add i32 %13, 1, !dbg !9609
  store i32 %inc10, i32* %next_index, align 4, !dbg !9609
  %conv11 = zext i32 %13 to i64, !dbg !9610
  %call12 = call dereferenceable(4) i32* @_ZNSt6vectorIjSaIjEEixEm(%"class.std::vector.58"* %agg.result, i64 %conv11) #4, !dbg !9611
  store i32 %add9, i32* %call12, align 4, !dbg !9612
  %14 = load i32, i32* %n2, align 4, !dbg !9613
  %15 = load i32, i32* %next_index, align 4, !dbg !9614
  %inc13 = add i32 %15, 1, !dbg !9614
  store i32 %inc13, i32* %next_index, align 4, !dbg !9614
  %conv14 = zext i32 %15 to i64, !dbg !9615
  %call15 = call dereferenceable(4) i32* @_ZNSt6vectorIjSaIjEEixEm(%"class.std::vector.58"* %agg.result, i64 %conv14) #4, !dbg !9616
  store i32 %14, i32* %call15, align 4, !dbg !9617
  %16 = load i32, i32* %n2, align 4, !dbg !9618
  %add16 = add i32 %16, 1, !dbg !9619
  %17 = load i32, i32* %next_index, align 4, !dbg !9620
  %inc17 = add i32 %17, 1, !dbg !9620
  store i32 %inc17, i32* %next_index, align 4, !dbg !9620
  %conv18 = zext i32 %17 to i64, !dbg !9621
  %call19 = call dereferenceable(4) i32* @_ZNSt6vectorIjSaIjEEixEm(%"class.std::vector.58"* %agg.result, i64 %conv18) #4, !dbg !9622
  store i32 %add16, i32* %call19, align 4, !dbg !9623
  %18 = load i32, i32* %n2, align 4, !dbg !9624
  %19 = load i32, i32* %n, align 4, !dbg !9625
  %add20 = add i32 %18, %19, !dbg !9626
  %20 = load i32, i32* %next_index, align 4, !dbg !9627
  %inc21 = add i32 %20, 1, !dbg !9627
  store i32 %inc21, i32* %next_index, align 4, !dbg !9627
  %conv22 = zext i32 %20 to i64, !dbg !9628
  %call23 = call dereferenceable(4) i32* @_ZNSt6vectorIjSaIjEEixEm(%"class.std::vector.58"* %agg.result, i64 %conv22) #4, !dbg !9629
  store i32 %add20, i32* %call23, align 4, !dbg !9630
  %21 = load i32, i32* %n2, align 4, !dbg !9631
  %22 = load i32, i32* %n, align 4, !dbg !9632
  %add24 = add i32 %21, %22, !dbg !9633
  %add25 = add i32 %add24, 1, !dbg !9634
  %23 = load i32, i32* %next_index, align 4, !dbg !9635
  %inc26 = add i32 %23, 1, !dbg !9635
  store i32 %inc26, i32* %next_index, align 4, !dbg !9635
  %conv27 = zext i32 %23 to i64, !dbg !9636
  %call28 = call dereferenceable(4) i32* @_ZNSt6vectorIjSaIjEEixEm(%"class.std::vector.58"* %agg.result, i64 %conv27) #4, !dbg !9637
  store i32 %add25, i32* %call28, align 4, !dbg !9638
  call void @llvm.dbg.declare(metadata i32* %i, metadata !9639, metadata !DIExpression()), !dbg !9641
  store i32 0, i32* %i, align 4, !dbg !9641
  br label %for.cond, !dbg !9642

for.cond:                                         ; preds = %for.inc, %invoke.cont
  %24 = load i32, i32* %i, align 4, !dbg !9643
  %25 = load %"class.dealii::FiniteElementData"*, %"class.dealii::FiniteElementData"** %fe.addr, align 8, !dbg !9645
  %dofs_per_line29 = getelementptr inbounds %"class.dealii::FiniteElementData", %"class.dealii::FiniteElementData"* %25, i32 0, i32 1, !dbg !9646
  %26 = load i32, i32* %dofs_per_line29, align 4, !dbg !9646
  %cmp = icmp ult i32 %24, %26, !dbg !9647
  br i1 %cmp, label %for.body, label %for.end, !dbg !9648

for.body:                                         ; preds = %for.cond
  %27 = load i32, i32* %i, align 4, !dbg !9649
  %add30 = add i32 2, %27, !dbg !9650
  %28 = load i32, i32* %n, align 4, !dbg !9651
  %mul31 = mul i32 %add30, %28, !dbg !9652
  %29 = load i32, i32* %next_index, align 4, !dbg !9653
  %inc32 = add i32 %29, 1, !dbg !9653
  store i32 %inc32, i32* %next_index, align 4, !dbg !9653
  %conv33 = zext i32 %29 to i64, !dbg !9654
  %call34 = call dereferenceable(4) i32* @_ZNSt6vectorIjSaIjEEixEm(%"class.std::vector.58"* %agg.result, i64 %conv33) #4, !dbg !9655
  store i32 %mul31, i32* %call34, align 4, !dbg !9656
  br label %for.inc, !dbg !9655

for.inc:                                          ; preds = %for.body
  %30 = load i32, i32* %i, align 4, !dbg !9657
  %inc35 = add i32 %30, 1, !dbg !9657
  store i32 %inc35, i32* %i, align 4, !dbg !9657
  br label %for.cond, !dbg !9658, !llvm.loop !9659

lpad:                                             ; preds = %entry
  %31 = landingpad { i8*, i32 }
          cleanup, !dbg !9661
  %32 = extractvalue { i8*, i32 } %31, 0, !dbg !9661
  store i8* %32, i8** %exn.slot, align 8, !dbg !9661
  %33 = extractvalue { i8*, i32 } %31, 1, !dbg !9661
  store i32 %33, i32* %ehselector.slot, align 4, !dbg !9661
  call void @_ZNSaIjED2Ev(%"class.std::allocator.60"* %ref.tmp) #4, !dbg !9575
  br label %eh.resume, !dbg !9575

for.end:                                          ; preds = %for.cond
  call void @llvm.dbg.declare(metadata i32* %i36, metadata !9662, metadata !DIExpression()), !dbg !9664
  store i32 0, i32* %i36, align 4, !dbg !9664
  br label %for.cond37, !dbg !9665

for.cond37:                                       ; preds = %for.inc47, %for.end
  %34 = load i32, i32* %i36, align 4, !dbg !9666
  %35 = load %"class.dealii::FiniteElementData"*, %"class.dealii::FiniteElementData"** %fe.addr, align 8, !dbg !9668
  %dofs_per_line38 = getelementptr inbounds %"class.dealii::FiniteElementData", %"class.dealii::FiniteElementData"* %35, i32 0, i32 1, !dbg !9669
  %36 = load i32, i32* %dofs_per_line38, align 4, !dbg !9669
  %cmp39 = icmp ult i32 %34, %36, !dbg !9670
  br i1 %cmp39, label %for.body40, label %for.end49, !dbg !9671

for.body40:                                       ; preds = %for.cond37
  %37 = load i32, i32* %i36, align 4, !dbg !9672
  %add41 = add i32 2, %37, !dbg !9673
  %38 = load i32, i32* %n, align 4, !dbg !9674
  %mul42 = mul i32 %add41, %38, !dbg !9675
  %add43 = add i32 %mul42, 1, !dbg !9676
  %39 = load i32, i32* %next_index, align 4, !dbg !9677
  %inc44 = add i32 %39, 1, !dbg !9677
  store i32 %inc44, i32* %next_index, align 4, !dbg !9677
  %conv45 = zext i32 %39 to i64, !dbg !9678
  %call46 = call dereferenceable(4) i32* @_ZNSt6vectorIjSaIjEEixEm(%"class.std::vector.58"* %agg.result, i64 %conv45) #4, !dbg !9679
  store i32 %add43, i32* %call46, align 4, !dbg !9680
  br label %for.inc47, !dbg !9679

for.inc47:                                        ; preds = %for.body40
  %40 = load i32, i32* %i36, align 4, !dbg !9681
  %inc48 = add i32 %40, 1, !dbg !9681
  store i32 %inc48, i32* %i36, align 4, !dbg !9681
  br label %for.cond37, !dbg !9682, !llvm.loop !9683

for.end49:                                        ; preds = %for.cond37
  call void @llvm.dbg.declare(metadata i32* %i50, metadata !9685, metadata !DIExpression()), !dbg !9687
  store i32 0, i32* %i50, align 4, !dbg !9687
  br label %for.cond51, !dbg !9688

for.cond51:                                       ; preds = %for.inc59, %for.end49
  %41 = load i32, i32* %i50, align 4, !dbg !9689
  %42 = load %"class.dealii::FiniteElementData"*, %"class.dealii::FiniteElementData"** %fe.addr, align 8, !dbg !9691
  %dofs_per_line52 = getelementptr inbounds %"class.dealii::FiniteElementData", %"class.dealii::FiniteElementData"* %42, i32 0, i32 1, !dbg !9692
  %43 = load i32, i32* %dofs_per_line52, align 4, !dbg !9692
  %cmp53 = icmp ult i32 %41, %43, !dbg !9693
  br i1 %cmp53, label %for.body54, label %for.end61, !dbg !9694

for.body54:                                       ; preds = %for.cond51
  %44 = load i32, i32* %i50, align 4, !dbg !9695
  %add55 = add i32 2, %44, !dbg !9696
  %45 = load i32, i32* %next_index, align 4, !dbg !9697
  %inc56 = add i32 %45, 1, !dbg !9697
  store i32 %inc56, i32* %next_index, align 4, !dbg !9697
  %conv57 = zext i32 %45 to i64, !dbg !9698
  %call58 = call dereferenceable(4) i32* @_ZNSt6vectorIjSaIjEEixEm(%"class.std::vector.58"* %agg.result, i64 %conv57) #4, !dbg !9699
  store i32 %add55, i32* %call58, align 4, !dbg !9700
  br label %for.inc59, !dbg !9699

for.inc59:                                        ; preds = %for.body54
  %46 = load i32, i32* %i50, align 4, !dbg !9701
  %inc60 = add i32 %46, 1, !dbg !9701
  store i32 %inc60, i32* %i50, align 4, !dbg !9701
  br label %for.cond51, !dbg !9702, !llvm.loop !9703

for.end61:                                        ; preds = %for.cond51
  call void @llvm.dbg.declare(metadata i32* %i62, metadata !9705, metadata !DIExpression()), !dbg !9707
  store i32 0, i32* %i62, align 4, !dbg !9707
  br label %for.cond63, !dbg !9708

for.cond63:                                       ; preds = %for.inc72, %for.end61
  %47 = load i32, i32* %i62, align 4, !dbg !9709
  %48 = load %"class.dealii::FiniteElementData"*, %"class.dealii::FiniteElementData"** %fe.addr, align 8, !dbg !9711
  %dofs_per_line64 = getelementptr inbounds %"class.dealii::FiniteElementData", %"class.dealii::FiniteElementData"* %48, i32 0, i32 1, !dbg !9712
  %49 = load i32, i32* %dofs_per_line64, align 4, !dbg !9712
  %cmp65 = icmp ult i32 %47, %49, !dbg !9713
  br i1 %cmp65, label %for.body66, label %for.end74, !dbg !9714

for.body66:                                       ; preds = %for.cond63
  %50 = load i32, i32* %n, align 4, !dbg !9715
  %add67 = add i32 %50, 2, !dbg !9716
  %51 = load i32, i32* %i62, align 4, !dbg !9717
  %add68 = add i32 %add67, %51, !dbg !9718
  %52 = load i32, i32* %next_index, align 4, !dbg !9719
  %inc69 = add i32 %52, 1, !dbg !9719
  store i32 %inc69, i32* %next_index, align 4, !dbg !9719
  %conv70 = zext i32 %52 to i64, !dbg !9720
  %call71 = call dereferenceable(4) i32* @_ZNSt6vectorIjSaIjEEixEm(%"class.std::vector.58"* %agg.result, i64 %conv70) #4, !dbg !9721
  store i32 %add68, i32* %call71, align 4, !dbg !9722
  br label %for.inc72, !dbg !9721

for.inc72:                                        ; preds = %for.body66
  %53 = load i32, i32* %i62, align 4, !dbg !9723
  %inc73 = add i32 %53, 1, !dbg !9723
  store i32 %inc73, i32* %i62, align 4, !dbg !9723
  br label %for.cond63, !dbg !9724, !llvm.loop !9725

for.end74:                                        ; preds = %for.cond63
  call void @llvm.dbg.declare(metadata i32* %i75, metadata !9727, metadata !DIExpression()), !dbg !9729
  store i32 0, i32* %i75, align 4, !dbg !9729
  br label %for.cond76, !dbg !9730

for.cond76:                                       ; preds = %for.inc86, %for.end74
  %54 = load i32, i32* %i75, align 4, !dbg !9731
  %55 = load %"class.dealii::FiniteElementData"*, %"class.dealii::FiniteElementData"** %fe.addr, align 8, !dbg !9733
  %dofs_per_line77 = getelementptr inbounds %"class.dealii::FiniteElementData", %"class.dealii::FiniteElementData"* %55, i32 0, i32 1, !dbg !9734
  %56 = load i32, i32* %dofs_per_line77, align 4, !dbg !9734
  %cmp78 = icmp ult i32 %54, %56, !dbg !9735
  br i1 %cmp78, label %for.body79, label %for.end88, !dbg !9736

for.body79:                                       ; preds = %for.cond76
  %57 = load i32, i32* %n2, align 4, !dbg !9737
  %58 = load i32, i32* %i75, align 4, !dbg !9738
  %add80 = add i32 2, %58, !dbg !9739
  %59 = load i32, i32* %n, align 4, !dbg !9740
  %mul81 = mul i32 %add80, %59, !dbg !9741
  %add82 = add i32 %57, %mul81, !dbg !9742
  %60 = load i32, i32* %next_index, align 4, !dbg !9743
  %inc83 = add i32 %60, 1, !dbg !9743
  store i32 %inc83, i32* %next_index, align 4, !dbg !9743
  %conv84 = zext i32 %60 to i64, !dbg !9744
  %call85 = call dereferenceable(4) i32* @_ZNSt6vectorIjSaIjEEixEm(%"class.std::vector.58"* %agg.result, i64 %conv84) #4, !dbg !9745
  store i32 %add82, i32* %call85, align 4, !dbg !9746
  br label %for.inc86, !dbg !9745

for.inc86:                                        ; preds = %for.body79
  %61 = load i32, i32* %i75, align 4, !dbg !9747
  %inc87 = add i32 %61, 1, !dbg !9747
  store i32 %inc87, i32* %i75, align 4, !dbg !9747
  br label %for.cond76, !dbg !9748, !llvm.loop !9749

for.end88:                                        ; preds = %for.cond76
  call void @llvm.dbg.declare(metadata i32* %i89, metadata !9751, metadata !DIExpression()), !dbg !9753
  store i32 0, i32* %i89, align 4, !dbg !9753
  br label %for.cond90, !dbg !9754

for.cond90:                                       ; preds = %for.inc101, %for.end88
  %62 = load i32, i32* %i89, align 4, !dbg !9755
  %63 = load %"class.dealii::FiniteElementData"*, %"class.dealii::FiniteElementData"** %fe.addr, align 8, !dbg !9757
  %dofs_per_line91 = getelementptr inbounds %"class.dealii::FiniteElementData", %"class.dealii::FiniteElementData"* %63, i32 0, i32 1, !dbg !9758
  %64 = load i32, i32* %dofs_per_line91, align 4, !dbg !9758
  %cmp92 = icmp ult i32 %62, %64, !dbg !9759
  br i1 %cmp92, label %for.body93, label %for.end103, !dbg !9760

for.body93:                                       ; preds = %for.cond90
  %65 = load i32, i32* %n2, align 4, !dbg !9761
  %66 = load i32, i32* %i89, align 4, !dbg !9762
  %add94 = add i32 2, %66, !dbg !9763
  %67 = load i32, i32* %n, align 4, !dbg !9764
  %mul95 = mul i32 %add94, %67, !dbg !9765
  %add96 = add i32 %65, %mul95, !dbg !9766
  %add97 = add i32 %add96, 1, !dbg !9767
  %68 = load i32, i32* %next_index, align 4, !dbg !9768
  %inc98 = add i32 %68, 1, !dbg !9768
  store i32 %inc98, i32* %next_index, align 4, !dbg !9768
  %conv99 = zext i32 %68 to i64, !dbg !9769
  %call100 = call dereferenceable(4) i32* @_ZNSt6vectorIjSaIjEEixEm(%"class.std::vector.58"* %agg.result, i64 %conv99) #4, !dbg !9770
  store i32 %add97, i32* %call100, align 4, !dbg !9771
  br label %for.inc101, !dbg !9770

for.inc101:                                       ; preds = %for.body93
  %69 = load i32, i32* %i89, align 4, !dbg !9772
  %inc102 = add i32 %69, 1, !dbg !9772
  store i32 %inc102, i32* %i89, align 4, !dbg !9772
  br label %for.cond90, !dbg !9773, !llvm.loop !9774

for.end103:                                       ; preds = %for.cond90
  call void @llvm.dbg.declare(metadata i32* %i104, metadata !9776, metadata !DIExpression()), !dbg !9778
  store i32 0, i32* %i104, align 4, !dbg !9778
  br label %for.cond105, !dbg !9779

for.cond105:                                      ; preds = %for.inc114, %for.end103
  %70 = load i32, i32* %i104, align 4, !dbg !9780
  %71 = load %"class.dealii::FiniteElementData"*, %"class.dealii::FiniteElementData"** %fe.addr, align 8, !dbg !9782
  %dofs_per_line106 = getelementptr inbounds %"class.dealii::FiniteElementData", %"class.dealii::FiniteElementData"* %71, i32 0, i32 1, !dbg !9783
  %72 = load i32, i32* %dofs_per_line106, align 4, !dbg !9783
  %cmp107 = icmp ult i32 %70, %72, !dbg !9784
  br i1 %cmp107, label %for.body108, label %for.end116, !dbg !9785

for.body108:                                      ; preds = %for.cond105
  %73 = load i32, i32* %n2, align 4, !dbg !9786
  %add109 = add i32 %73, 2, !dbg !9787
  %74 = load i32, i32* %i104, align 4, !dbg !9788
  %add110 = add i32 %add109, %74, !dbg !9789
  %75 = load i32, i32* %next_index, align 4, !dbg !9790
  %inc111 = add i32 %75, 1, !dbg !9790
  store i32 %inc111, i32* %next_index, align 4, !dbg !9790
  %conv112 = zext i32 %75 to i64, !dbg !9791
  %call113 = call dereferenceable(4) i32* @_ZNSt6vectorIjSaIjEEixEm(%"class.std::vector.58"* %agg.result, i64 %conv112) #4, !dbg !9792
  store i32 %add110, i32* %call113, align 4, !dbg !9793
  br label %for.inc114, !dbg !9792

for.inc114:                                       ; preds = %for.body108
  %76 = load i32, i32* %i104, align 4, !dbg !9794
  %inc115 = add i32 %76, 1, !dbg !9794
  store i32 %inc115, i32* %i104, align 4, !dbg !9794
  br label %for.cond105, !dbg !9795, !llvm.loop !9796

for.end116:                                       ; preds = %for.cond105
  call void @llvm.dbg.declare(metadata i32* %i117, metadata !9798, metadata !DIExpression()), !dbg !9800
  store i32 0, i32* %i117, align 4, !dbg !9800
  br label %for.cond118, !dbg !9801

for.cond118:                                      ; preds = %for.inc128, %for.end116
  %77 = load i32, i32* %i117, align 4, !dbg !9802
  %78 = load %"class.dealii::FiniteElementData"*, %"class.dealii::FiniteElementData"** %fe.addr, align 8, !dbg !9804
  %dofs_per_line119 = getelementptr inbounds %"class.dealii::FiniteElementData", %"class.dealii::FiniteElementData"* %78, i32 0, i32 1, !dbg !9805
  %79 = load i32, i32* %dofs_per_line119, align 4, !dbg !9805
  %cmp120 = icmp ult i32 %77, %79, !dbg !9806
  br i1 %cmp120, label %for.body121, label %for.end130, !dbg !9807

for.body121:                                      ; preds = %for.cond118
  %80 = load i32, i32* %n2, align 4, !dbg !9808
  %81 = load i32, i32* %n, align 4, !dbg !9809
  %add122 = add i32 %80, %81, !dbg !9810
  %add123 = add i32 %add122, 2, !dbg !9811
  %82 = load i32, i32* %i117, align 4, !dbg !9812
  %add124 = add i32 %add123, %82, !dbg !9813
  %83 = load i32, i32* %next_index, align 4, !dbg !9814
  %inc125 = add i32 %83, 1, !dbg !9814
  store i32 %inc125, i32* %next_index, align 4, !dbg !9814
  %conv126 = zext i32 %83 to i64, !dbg !9815
  %call127 = call dereferenceable(4) i32* @_ZNSt6vectorIjSaIjEEixEm(%"class.std::vector.58"* %agg.result, i64 %conv126) #4, !dbg !9816
  store i32 %add124, i32* %call127, align 4, !dbg !9817
  br label %for.inc128, !dbg !9816

for.inc128:                                       ; preds = %for.body121
  %84 = load i32, i32* %i117, align 4, !dbg !9818
  %inc129 = add i32 %84, 1, !dbg !9818
  store i32 %inc129, i32* %i117, align 4, !dbg !9818
  br label %for.cond118, !dbg !9819, !llvm.loop !9820

for.end130:                                       ; preds = %for.cond118
  call void @llvm.dbg.declare(metadata i32* %i131, metadata !9822, metadata !DIExpression()), !dbg !9824
  store i32 0, i32* %i131, align 4, !dbg !9824
  br label %for.cond132, !dbg !9825

for.cond132:                                      ; preds = %for.inc141, %for.end130
  %85 = load i32, i32* %i131, align 4, !dbg !9826
  %86 = load %"class.dealii::FiniteElementData"*, %"class.dealii::FiniteElementData"** %fe.addr, align 8, !dbg !9828
  %dofs_per_line133 = getelementptr inbounds %"class.dealii::FiniteElementData", %"class.dealii::FiniteElementData"* %86, i32 0, i32 1, !dbg !9829
  %87 = load i32, i32* %dofs_per_line133, align 4, !dbg !9829
  %cmp134 = icmp ult i32 %85, %87, !dbg !9830
  br i1 %cmp134, label %for.body135, label %for.end143, !dbg !9831

for.body135:                                      ; preds = %for.cond132
  %88 = load i32, i32* %i131, align 4, !dbg !9832
  %add136 = add i32 2, %88, !dbg !9833
  %89 = load i32, i32* %n2, align 4, !dbg !9834
  %mul137 = mul i32 %add136, %89, !dbg !9835
  %90 = load i32, i32* %next_index, align 4, !dbg !9836
  %inc138 = add i32 %90, 1, !dbg !9836
  store i32 %inc138, i32* %next_index, align 4, !dbg !9836
  %conv139 = zext i32 %90 to i64, !dbg !9837
  %call140 = call dereferenceable(4) i32* @_ZNSt6vectorIjSaIjEEixEm(%"class.std::vector.58"* %agg.result, i64 %conv139) #4, !dbg !9838
  store i32 %mul137, i32* %call140, align 4, !dbg !9839
  br label %for.inc141, !dbg !9838

for.inc141:                                       ; preds = %for.body135
  %91 = load i32, i32* %i131, align 4, !dbg !9840
  %inc142 = add i32 %91, 1, !dbg !9840
  store i32 %inc142, i32* %i131, align 4, !dbg !9840
  br label %for.cond132, !dbg !9841, !llvm.loop !9842

for.end143:                                       ; preds = %for.cond132
  call void @llvm.dbg.declare(metadata i32* %i144, metadata !9844, metadata !DIExpression()), !dbg !9846
  store i32 0, i32* %i144, align 4, !dbg !9846
  br label %for.cond145, !dbg !9847

for.cond145:                                      ; preds = %for.inc155, %for.end143
  %92 = load i32, i32* %i144, align 4, !dbg !9848
  %93 = load %"class.dealii::FiniteElementData"*, %"class.dealii::FiniteElementData"** %fe.addr, align 8, !dbg !9850
  %dofs_per_line146 = getelementptr inbounds %"class.dealii::FiniteElementData", %"class.dealii::FiniteElementData"* %93, i32 0, i32 1, !dbg !9851
  %94 = load i32, i32* %dofs_per_line146, align 4, !dbg !9851
  %cmp147 = icmp ult i32 %92, %94, !dbg !9852
  br i1 %cmp147, label %for.body148, label %for.end157, !dbg !9853

for.body148:                                      ; preds = %for.cond145
  %95 = load i32, i32* %i144, align 4, !dbg !9854
  %add149 = add i32 2, %95, !dbg !9855
  %96 = load i32, i32* %n2, align 4, !dbg !9856
  %mul150 = mul i32 %add149, %96, !dbg !9857
  %add151 = add i32 %mul150, 1, !dbg !9858
  %97 = load i32, i32* %next_index, align 4, !dbg !9859
  %inc152 = add i32 %97, 1, !dbg !9859
  store i32 %inc152, i32* %next_index, align 4, !dbg !9859
  %conv153 = zext i32 %97 to i64, !dbg !9860
  %call154 = call dereferenceable(4) i32* @_ZNSt6vectorIjSaIjEEixEm(%"class.std::vector.58"* %agg.result, i64 %conv153) #4, !dbg !9861
  store i32 %add151, i32* %call154, align 4, !dbg !9862
  br label %for.inc155, !dbg !9861

for.inc155:                                       ; preds = %for.body148
  %98 = load i32, i32* %i144, align 4, !dbg !9863
  %inc156 = add i32 %98, 1, !dbg !9863
  store i32 %inc156, i32* %i144, align 4, !dbg !9863
  br label %for.cond145, !dbg !9864, !llvm.loop !9865

for.end157:                                       ; preds = %for.cond145
  call void @llvm.dbg.declare(metadata i32* %i158, metadata !9867, metadata !DIExpression()), !dbg !9869
  store i32 0, i32* %i158, align 4, !dbg !9869
  br label %for.cond159, !dbg !9870

for.cond159:                                      ; preds = %for.inc169, %for.end157
  %99 = load i32, i32* %i158, align 4, !dbg !9871
  %100 = load %"class.dealii::FiniteElementData"*, %"class.dealii::FiniteElementData"** %fe.addr, align 8, !dbg !9873
  %dofs_per_line160 = getelementptr inbounds %"class.dealii::FiniteElementData", %"class.dealii::FiniteElementData"* %100, i32 0, i32 1, !dbg !9874
  %101 = load i32, i32* %dofs_per_line160, align 4, !dbg !9874
  %cmp161 = icmp ult i32 %99, %101, !dbg !9875
  br i1 %cmp161, label %for.body162, label %for.end171, !dbg !9876

for.body162:                                      ; preds = %for.cond159
  %102 = load i32, i32* %i158, align 4, !dbg !9877
  %add163 = add i32 2, %102, !dbg !9878
  %103 = load i32, i32* %n2, align 4, !dbg !9879
  %mul164 = mul i32 %add163, %103, !dbg !9880
  %104 = load i32, i32* %n, align 4, !dbg !9881
  %add165 = add i32 %mul164, %104, !dbg !9882
  %105 = load i32, i32* %next_index, align 4, !dbg !9883
  %inc166 = add i32 %105, 1, !dbg !9883
  store i32 %inc166, i32* %next_index, align 4, !dbg !9883
  %conv167 = zext i32 %105 to i64, !dbg !9884
  %call168 = call dereferenceable(4) i32* @_ZNSt6vectorIjSaIjEEixEm(%"class.std::vector.58"* %agg.result, i64 %conv167) #4, !dbg !9885
  store i32 %add165, i32* %call168, align 4, !dbg !9886
  br label %for.inc169, !dbg !9885

for.inc169:                                       ; preds = %for.body162
  %106 = load i32, i32* %i158, align 4, !dbg !9887
  %inc170 = add i32 %106, 1, !dbg !9887
  store i32 %inc170, i32* %i158, align 4, !dbg !9887
  br label %for.cond159, !dbg !9888, !llvm.loop !9889

for.end171:                                       ; preds = %for.cond159
  call void @llvm.dbg.declare(metadata i32* %i172, metadata !9891, metadata !DIExpression()), !dbg !9893
  store i32 0, i32* %i172, align 4, !dbg !9893
  br label %for.cond173, !dbg !9894

for.cond173:                                      ; preds = %for.inc184, %for.end171
  %107 = load i32, i32* %i172, align 4, !dbg !9895
  %108 = load %"class.dealii::FiniteElementData"*, %"class.dealii::FiniteElementData"** %fe.addr, align 8, !dbg !9897
  %dofs_per_line174 = getelementptr inbounds %"class.dealii::FiniteElementData", %"class.dealii::FiniteElementData"* %108, i32 0, i32 1, !dbg !9898
  %109 = load i32, i32* %dofs_per_line174, align 4, !dbg !9898
  %cmp175 = icmp ult i32 %107, %109, !dbg !9899
  br i1 %cmp175, label %for.body176, label %for.end186, !dbg !9900

for.body176:                                      ; preds = %for.cond173
  %110 = load i32, i32* %i172, align 4, !dbg !9901
  %add177 = add i32 2, %110, !dbg !9902
  %111 = load i32, i32* %n2, align 4, !dbg !9903
  %mul178 = mul i32 %add177, %111, !dbg !9904
  %112 = load i32, i32* %n, align 4, !dbg !9905
  %add179 = add i32 %mul178, %112, !dbg !9906
  %add180 = add i32 %add179, 1, !dbg !9907
  %113 = load i32, i32* %next_index, align 4, !dbg !9908
  %inc181 = add i32 %113, 1, !dbg !9908
  store i32 %inc181, i32* %next_index, align 4, !dbg !9908
  %conv182 = zext i32 %113 to i64, !dbg !9909
  %call183 = call dereferenceable(4) i32* @_ZNSt6vectorIjSaIjEEixEm(%"class.std::vector.58"* %agg.result, i64 %conv182) #4, !dbg !9910
  store i32 %add180, i32* %call183, align 4, !dbg !9911
  br label %for.inc184, !dbg !9910

for.inc184:                                       ; preds = %for.body176
  %114 = load i32, i32* %i172, align 4, !dbg !9912
  %inc185 = add i32 %114, 1, !dbg !9912
  store i32 %inc185, i32* %i172, align 4, !dbg !9912
  br label %for.cond173, !dbg !9913, !llvm.loop !9914

for.end186:                                       ; preds = %for.cond173
  call void @llvm.dbg.declare(metadata i32* %i187, metadata !9916, metadata !DIExpression()), !dbg !9918
  store i32 0, i32* %i187, align 4, !dbg !9918
  br label %for.cond188, !dbg !9919

for.cond188:                                      ; preds = %for.inc207, %for.end186
  %115 = load i32, i32* %i187, align 4, !dbg !9920
  %116 = load %"class.dealii::FiniteElementData"*, %"class.dealii::FiniteElementData"** %fe.addr, align 8, !dbg !9922
  %dofs_per_line189 = getelementptr inbounds %"class.dealii::FiniteElementData", %"class.dealii::FiniteElementData"* %116, i32 0, i32 1, !dbg !9923
  %117 = load i32, i32* %dofs_per_line189, align 4, !dbg !9923
  %cmp190 = icmp ult i32 %115, %117, !dbg !9924
  br i1 %cmp190, label %for.body191, label %for.end209, !dbg !9925

for.body191:                                      ; preds = %for.cond188
  call void @llvm.dbg.declare(metadata i32* %j, metadata !9926, metadata !DIExpression()), !dbg !9928
  store i32 0, i32* %j, align 4, !dbg !9928
  br label %for.cond192, !dbg !9929

for.cond192:                                      ; preds = %for.inc204, %for.body191
  %118 = load i32, i32* %j, align 4, !dbg !9930
  %119 = load %"class.dealii::FiniteElementData"*, %"class.dealii::FiniteElementData"** %fe.addr, align 8, !dbg !9932
  %dofs_per_line193 = getelementptr inbounds %"class.dealii::FiniteElementData", %"class.dealii::FiniteElementData"* %119, i32 0, i32 1, !dbg !9933
  %120 = load i32, i32* %dofs_per_line193, align 4, !dbg !9933
  %cmp194 = icmp ult i32 %118, %120, !dbg !9934
  br i1 %cmp194, label %for.body195, label %for.end206, !dbg !9935

for.body195:                                      ; preds = %for.cond192
  %121 = load i32, i32* %i187, align 4, !dbg !9936
  %add196 = add i32 2, %121, !dbg !9937
  %122 = load i32, i32* %n2, align 4, !dbg !9938
  %mul197 = mul i32 %add196, %122, !dbg !9939
  %123 = load i32, i32* %j, align 4, !dbg !9940
  %add198 = add i32 2, %123, !dbg !9941
  %124 = load i32, i32* %n, align 4, !dbg !9942
  %mul199 = mul i32 %add198, %124, !dbg !9943
  %add200 = add i32 %mul197, %mul199, !dbg !9944
  %125 = load i32, i32* %next_index, align 4, !dbg !9945
  %inc201 = add i32 %125, 1, !dbg !9945
  store i32 %inc201, i32* %next_index, align 4, !dbg !9945
  %conv202 = zext i32 %125 to i64, !dbg !9946
  %call203 = call dereferenceable(4) i32* @_ZNSt6vectorIjSaIjEEixEm(%"class.std::vector.58"* %agg.result, i64 %conv202) #4, !dbg !9947
  store i32 %add200, i32* %call203, align 4, !dbg !9948
  br label %for.inc204, !dbg !9947

for.inc204:                                       ; preds = %for.body195
  %126 = load i32, i32* %j, align 4, !dbg !9949
  %inc205 = add i32 %126, 1, !dbg !9949
  store i32 %inc205, i32* %j, align 4, !dbg !9949
  br label %for.cond192, !dbg !9950, !llvm.loop !9951

for.end206:                                       ; preds = %for.cond192
  br label %for.inc207, !dbg !9952

for.inc207:                                       ; preds = %for.end206
  %127 = load i32, i32* %i187, align 4, !dbg !9953
  %inc208 = add i32 %127, 1, !dbg !9953
  store i32 %inc208, i32* %i187, align 4, !dbg !9953
  br label %for.cond188, !dbg !9954, !llvm.loop !9955

for.end209:                                       ; preds = %for.cond188
  call void @llvm.dbg.declare(metadata i32* %i210, metadata !9957, metadata !DIExpression()), !dbg !9959
  store i32 0, i32* %i210, align 4, !dbg !9959
  br label %for.cond211, !dbg !9960

for.cond211:                                      ; preds = %for.inc232, %for.end209
  %128 = load i32, i32* %i210, align 4, !dbg !9961
  %129 = load %"class.dealii::FiniteElementData"*, %"class.dealii::FiniteElementData"** %fe.addr, align 8, !dbg !9963
  %dofs_per_line212 = getelementptr inbounds %"class.dealii::FiniteElementData", %"class.dealii::FiniteElementData"* %129, i32 0, i32 1, !dbg !9964
  %130 = load i32, i32* %dofs_per_line212, align 4, !dbg !9964
  %cmp213 = icmp ult i32 %128, %130, !dbg !9965
  br i1 %cmp213, label %for.body214, label %for.end234, !dbg !9966

for.body214:                                      ; preds = %for.cond211
  call void @llvm.dbg.declare(metadata i32* %j215, metadata !9967, metadata !DIExpression()), !dbg !9969
  store i32 0, i32* %j215, align 4, !dbg !9969
  br label %for.cond216, !dbg !9970

for.cond216:                                      ; preds = %for.inc229, %for.body214
  %131 = load i32, i32* %j215, align 4, !dbg !9971
  %132 = load %"class.dealii::FiniteElementData"*, %"class.dealii::FiniteElementData"** %fe.addr, align 8, !dbg !9973
  %dofs_per_line217 = getelementptr inbounds %"class.dealii::FiniteElementData", %"class.dealii::FiniteElementData"* %132, i32 0, i32 1, !dbg !9974
  %133 = load i32, i32* %dofs_per_line217, align 4, !dbg !9974
  %cmp218 = icmp ult i32 %131, %133, !dbg !9975
  br i1 %cmp218, label %for.body219, label %for.end231, !dbg !9976

for.body219:                                      ; preds = %for.cond216
  %134 = load i32, i32* %i210, align 4, !dbg !9977
  %add220 = add i32 2, %134, !dbg !9978
  %135 = load i32, i32* %n2, align 4, !dbg !9979
  %mul221 = mul i32 %add220, %135, !dbg !9980
  %136 = load i32, i32* %j215, align 4, !dbg !9981
  %add222 = add i32 2, %136, !dbg !9982
  %137 = load i32, i32* %n, align 4, !dbg !9983
  %mul223 = mul i32 %add222, %137, !dbg !9984
  %add224 = add i32 %mul221, %mul223, !dbg !9985
  %add225 = add i32 %add224, 1, !dbg !9986
  %138 = load i32, i32* %next_index, align 4, !dbg !9987
  %inc226 = add i32 %138, 1, !dbg !9987
  store i32 %inc226, i32* %next_index, align 4, !dbg !9987
  %conv227 = zext i32 %138 to i64, !dbg !9988
  %call228 = call dereferenceable(4) i32* @_ZNSt6vectorIjSaIjEEixEm(%"class.std::vector.58"* %agg.result, i64 %conv227) #4, !dbg !9989
  store i32 %add225, i32* %call228, align 4, !dbg !9990
  br label %for.inc229, !dbg !9989

for.inc229:                                       ; preds = %for.body219
  %139 = load i32, i32* %j215, align 4, !dbg !9991
  %inc230 = add i32 %139, 1, !dbg !9991
  store i32 %inc230, i32* %j215, align 4, !dbg !9991
  br label %for.cond216, !dbg !9992, !llvm.loop !9993

for.end231:                                       ; preds = %for.cond216
  br label %for.inc232, !dbg !9994

for.inc232:                                       ; preds = %for.end231
  %140 = load i32, i32* %i210, align 4, !dbg !9995
  %inc233 = add i32 %140, 1, !dbg !9995
  store i32 %inc233, i32* %i210, align 4, !dbg !9995
  br label %for.cond211, !dbg !9996, !llvm.loop !9997

for.end234:                                       ; preds = %for.cond211
  call void @llvm.dbg.declare(metadata i32* %i235, metadata !9999, metadata !DIExpression()), !dbg !10001
  store i32 0, i32* %i235, align 4, !dbg !10001
  br label %for.cond236, !dbg !10002

for.cond236:                                      ; preds = %for.inc255, %for.end234
  %141 = load i32, i32* %i235, align 4, !dbg !10003
  %142 = load %"class.dealii::FiniteElementData"*, %"class.dealii::FiniteElementData"** %fe.addr, align 8, !dbg !10005
  %dofs_per_line237 = getelementptr inbounds %"class.dealii::FiniteElementData", %"class.dealii::FiniteElementData"* %142, i32 0, i32 1, !dbg !10006
  %143 = load i32, i32* %dofs_per_line237, align 4, !dbg !10006
  %cmp238 = icmp ult i32 %141, %143, !dbg !10007
  br i1 %cmp238, label %for.body239, label %for.end257, !dbg !10008

for.body239:                                      ; preds = %for.cond236
  call void @llvm.dbg.declare(metadata i32* %j240, metadata !10009, metadata !DIExpression()), !dbg !10011
  store i32 0, i32* %j240, align 4, !dbg !10011
  br label %for.cond241, !dbg !10012

for.cond241:                                      ; preds = %for.inc252, %for.body239
  %144 = load i32, i32* %j240, align 4, !dbg !10013
  %145 = load %"class.dealii::FiniteElementData"*, %"class.dealii::FiniteElementData"** %fe.addr, align 8, !dbg !10015
  %dofs_per_line242 = getelementptr inbounds %"class.dealii::FiniteElementData", %"class.dealii::FiniteElementData"* %145, i32 0, i32 1, !dbg !10016
  %146 = load i32, i32* %dofs_per_line242, align 4, !dbg !10016
  %cmp243 = icmp ult i32 %144, %146, !dbg !10017
  br i1 %cmp243, label %for.body244, label %for.end254, !dbg !10018

for.body244:                                      ; preds = %for.cond241
  %147 = load i32, i32* %i235, align 4, !dbg !10019
  %add245 = add i32 2, %147, !dbg !10020
  %148 = load i32, i32* %n2, align 4, !dbg !10021
  %mul246 = mul i32 %add245, %148, !dbg !10022
  %add247 = add i32 %mul246, 2, !dbg !10023
  %149 = load i32, i32* %j240, align 4, !dbg !10024
  %add248 = add i32 %add247, %149, !dbg !10025
  %150 = load i32, i32* %next_index, align 4, !dbg !10026
  %inc249 = add i32 %150, 1, !dbg !10026
  store i32 %inc249, i32* %next_index, align 4, !dbg !10026
  %conv250 = zext i32 %150 to i64, !dbg !10027
  %call251 = call dereferenceable(4) i32* @_ZNSt6vectorIjSaIjEEixEm(%"class.std::vector.58"* %agg.result, i64 %conv250) #4, !dbg !10028
  store i32 %add248, i32* %call251, align 4, !dbg !10029
  br label %for.inc252, !dbg !10028

for.inc252:                                       ; preds = %for.body244
  %151 = load i32, i32* %j240, align 4, !dbg !10030
  %inc253 = add i32 %151, 1, !dbg !10030
  store i32 %inc253, i32* %j240, align 4, !dbg !10030
  br label %for.cond241, !dbg !10031, !llvm.loop !10032

for.end254:                                       ; preds = %for.cond241
  br label %for.inc255, !dbg !10033

for.inc255:                                       ; preds = %for.end254
  %152 = load i32, i32* %i235, align 4, !dbg !10034
  %inc256 = add i32 %152, 1, !dbg !10034
  store i32 %inc256, i32* %i235, align 4, !dbg !10034
  br label %for.cond236, !dbg !10035, !llvm.loop !10036

for.end257:                                       ; preds = %for.cond236
  call void @llvm.dbg.declare(metadata i32* %i258, metadata !10038, metadata !DIExpression()), !dbg !10040
  store i32 0, i32* %i258, align 4, !dbg !10040
  br label %for.cond259, !dbg !10041

for.cond259:                                      ; preds = %for.inc279, %for.end257
  %153 = load i32, i32* %i258, align 4, !dbg !10042
  %154 = load %"class.dealii::FiniteElementData"*, %"class.dealii::FiniteElementData"** %fe.addr, align 8, !dbg !10044
  %dofs_per_line260 = getelementptr inbounds %"class.dealii::FiniteElementData", %"class.dealii::FiniteElementData"* %154, i32 0, i32 1, !dbg !10045
  %155 = load i32, i32* %dofs_per_line260, align 4, !dbg !10045
  %cmp261 = icmp ult i32 %153, %155, !dbg !10046
  br i1 %cmp261, label %for.body262, label %for.end281, !dbg !10047

for.body262:                                      ; preds = %for.cond259
  call void @llvm.dbg.declare(metadata i32* %j263, metadata !10048, metadata !DIExpression()), !dbg !10050
  store i32 0, i32* %j263, align 4, !dbg !10050
  br label %for.cond264, !dbg !10051

for.cond264:                                      ; preds = %for.inc276, %for.body262
  %156 = load i32, i32* %j263, align 4, !dbg !10052
  %157 = load %"class.dealii::FiniteElementData"*, %"class.dealii::FiniteElementData"** %fe.addr, align 8, !dbg !10054
  %dofs_per_line265 = getelementptr inbounds %"class.dealii::FiniteElementData", %"class.dealii::FiniteElementData"* %157, i32 0, i32 1, !dbg !10055
  %158 = load i32, i32* %dofs_per_line265, align 4, !dbg !10055
  %cmp266 = icmp ult i32 %156, %158, !dbg !10056
  br i1 %cmp266, label %for.body267, label %for.end278, !dbg !10057

for.body267:                                      ; preds = %for.cond264
  %159 = load i32, i32* %i258, align 4, !dbg !10058
  %add268 = add i32 2, %159, !dbg !10059
  %160 = load i32, i32* %n2, align 4, !dbg !10060
  %mul269 = mul i32 %add268, %160, !dbg !10061
  %161 = load i32, i32* %n, align 4, !dbg !10062
  %add270 = add i32 %mul269, %161, !dbg !10063
  %add271 = add i32 %add270, 2, !dbg !10064
  %162 = load i32, i32* %j263, align 4, !dbg !10065
  %add272 = add i32 %add271, %162, !dbg !10066
  %163 = load i32, i32* %next_index, align 4, !dbg !10067
  %inc273 = add i32 %163, 1, !dbg !10067
  store i32 %inc273, i32* %next_index, align 4, !dbg !10067
  %conv274 = zext i32 %163 to i64, !dbg !10068
  %call275 = call dereferenceable(4) i32* @_ZNSt6vectorIjSaIjEEixEm(%"class.std::vector.58"* %agg.result, i64 %conv274) #4, !dbg !10069
  store i32 %add272, i32* %call275, align 4, !dbg !10070
  br label %for.inc276, !dbg !10069

for.inc276:                                       ; preds = %for.body267
  %164 = load i32, i32* %j263, align 4, !dbg !10071
  %inc277 = add i32 %164, 1, !dbg !10071
  store i32 %inc277, i32* %j263, align 4, !dbg !10071
  br label %for.cond264, !dbg !10072, !llvm.loop !10073

for.end278:                                       ; preds = %for.cond264
  br label %for.inc279, !dbg !10074

for.inc279:                                       ; preds = %for.end278
  %165 = load i32, i32* %i258, align 4, !dbg !10075
  %inc280 = add i32 %165, 1, !dbg !10075
  store i32 %inc280, i32* %i258, align 4, !dbg !10075
  br label %for.cond259, !dbg !10076, !llvm.loop !10077

for.end281:                                       ; preds = %for.cond259
  call void @llvm.dbg.declare(metadata i32* %i282, metadata !10079, metadata !DIExpression()), !dbg !10081
  store i32 0, i32* %i282, align 4, !dbg !10081
  br label %for.cond283, !dbg !10082

for.cond283:                                      ; preds = %for.inc302, %for.end281
  %166 = load i32, i32* %i282, align 4, !dbg !10083
  %167 = load %"class.dealii::FiniteElementData"*, %"class.dealii::FiniteElementData"** %fe.addr, align 8, !dbg !10085
  %dofs_per_line284 = getelementptr inbounds %"class.dealii::FiniteElementData", %"class.dealii::FiniteElementData"* %167, i32 0, i32 1, !dbg !10086
  %168 = load i32, i32* %dofs_per_line284, align 4, !dbg !10086
  %cmp285 = icmp ult i32 %166, %168, !dbg !10087
  br i1 %cmp285, label %for.body286, label %for.end304, !dbg !10088

for.body286:                                      ; preds = %for.cond283
  call void @llvm.dbg.declare(metadata i32* %j287, metadata !10089, metadata !DIExpression()), !dbg !10091
  store i32 0, i32* %j287, align 4, !dbg !10091
  br label %for.cond288, !dbg !10092

for.cond288:                                      ; preds = %for.inc299, %for.body286
  %169 = load i32, i32* %j287, align 4, !dbg !10093
  %170 = load %"class.dealii::FiniteElementData"*, %"class.dealii::FiniteElementData"** %fe.addr, align 8, !dbg !10095
  %dofs_per_line289 = getelementptr inbounds %"class.dealii::FiniteElementData", %"class.dealii::FiniteElementData"* %170, i32 0, i32 1, !dbg !10096
  %171 = load i32, i32* %dofs_per_line289, align 4, !dbg !10096
  %cmp290 = icmp ult i32 %169, %171, !dbg !10097
  br i1 %cmp290, label %for.body291, label %for.end301, !dbg !10098

for.body291:                                      ; preds = %for.cond288
  %172 = load i32, i32* %i282, align 4, !dbg !10099
  %add292 = add i32 2, %172, !dbg !10100
  %173 = load i32, i32* %n, align 4, !dbg !10101
  %mul293 = mul i32 %add292, %173, !dbg !10102
  %add294 = add i32 %mul293, 2, !dbg !10103
  %174 = load i32, i32* %j287, align 4, !dbg !10104
  %add295 = add i32 %add294, %174, !dbg !10105
  %175 = load i32, i32* %next_index, align 4, !dbg !10106
  %inc296 = add i32 %175, 1, !dbg !10106
  store i32 %inc296, i32* %next_index, align 4, !dbg !10106
  %conv297 = zext i32 %175 to i64, !dbg !10107
  %call298 = call dereferenceable(4) i32* @_ZNSt6vectorIjSaIjEEixEm(%"class.std::vector.58"* %agg.result, i64 %conv297) #4, !dbg !10108
  store i32 %add295, i32* %call298, align 4, !dbg !10109
  br label %for.inc299, !dbg !10108

for.inc299:                                       ; preds = %for.body291
  %176 = load i32, i32* %j287, align 4, !dbg !10110
  %inc300 = add i32 %176, 1, !dbg !10110
  store i32 %inc300, i32* %j287, align 4, !dbg !10110
  br label %for.cond288, !dbg !10111, !llvm.loop !10112

for.end301:                                       ; preds = %for.cond288
  br label %for.inc302, !dbg !10113

for.inc302:                                       ; preds = %for.end301
  %177 = load i32, i32* %i282, align 4, !dbg !10114
  %inc303 = add i32 %177, 1, !dbg !10114
  store i32 %inc303, i32* %i282, align 4, !dbg !10114
  br label %for.cond283, !dbg !10115, !llvm.loop !10116

for.end304:                                       ; preds = %for.cond283
  call void @llvm.dbg.declare(metadata i32* %i305, metadata !10118, metadata !DIExpression()), !dbg !10120
  store i32 0, i32* %i305, align 4, !dbg !10120
  br label %for.cond306, !dbg !10121

for.cond306:                                      ; preds = %for.inc326, %for.end304
  %178 = load i32, i32* %i305, align 4, !dbg !10122
  %179 = load %"class.dealii::FiniteElementData"*, %"class.dealii::FiniteElementData"** %fe.addr, align 8, !dbg !10124
  %dofs_per_line307 = getelementptr inbounds %"class.dealii::FiniteElementData", %"class.dealii::FiniteElementData"* %179, i32 0, i32 1, !dbg !10125
  %180 = load i32, i32* %dofs_per_line307, align 4, !dbg !10125
  %cmp308 = icmp ult i32 %178, %180, !dbg !10126
  br i1 %cmp308, label %for.body309, label %for.end328, !dbg !10127

for.body309:                                      ; preds = %for.cond306
  call void @llvm.dbg.declare(metadata i32* %j310, metadata !10128, metadata !DIExpression()), !dbg !10130
  store i32 0, i32* %j310, align 4, !dbg !10130
  br label %for.cond311, !dbg !10131

for.cond311:                                      ; preds = %for.inc323, %for.body309
  %181 = load i32, i32* %j310, align 4, !dbg !10132
  %182 = load %"class.dealii::FiniteElementData"*, %"class.dealii::FiniteElementData"** %fe.addr, align 8, !dbg !10134
  %dofs_per_line312 = getelementptr inbounds %"class.dealii::FiniteElementData", %"class.dealii::FiniteElementData"* %182, i32 0, i32 1, !dbg !10135
  %183 = load i32, i32* %dofs_per_line312, align 4, !dbg !10135
  %cmp313 = icmp ult i32 %181, %183, !dbg !10136
  br i1 %cmp313, label %for.body314, label %for.end325, !dbg !10137

for.body314:                                      ; preds = %for.cond311
  %184 = load i32, i32* %n2, align 4, !dbg !10138
  %185 = load i32, i32* %i305, align 4, !dbg !10139
  %add315 = add i32 2, %185, !dbg !10140
  %186 = load i32, i32* %n, align 4, !dbg !10141
  %mul316 = mul i32 %add315, %186, !dbg !10142
  %add317 = add i32 %184, %mul316, !dbg !10143
  %add318 = add i32 %add317, 2, !dbg !10144
  %187 = load i32, i32* %j310, align 4, !dbg !10145
  %add319 = add i32 %add318, %187, !dbg !10146
  %188 = load i32, i32* %next_index, align 4, !dbg !10147
  %inc320 = add i32 %188, 1, !dbg !10147
  store i32 %inc320, i32* %next_index, align 4, !dbg !10147
  %conv321 = zext i32 %188 to i64, !dbg !10148
  %call322 = call dereferenceable(4) i32* @_ZNSt6vectorIjSaIjEEixEm(%"class.std::vector.58"* %agg.result, i64 %conv321) #4, !dbg !10149
  store i32 %add319, i32* %call322, align 4, !dbg !10150
  br label %for.inc323, !dbg !10149

for.inc323:                                       ; preds = %for.body314
  %189 = load i32, i32* %j310, align 4, !dbg !10151
  %inc324 = add i32 %189, 1, !dbg !10151
  store i32 %inc324, i32* %j310, align 4, !dbg !10151
  br label %for.cond311, !dbg !10152, !llvm.loop !10153

for.end325:                                       ; preds = %for.cond311
  br label %for.inc326, !dbg !10154

for.inc326:                                       ; preds = %for.end325
  %190 = load i32, i32* %i305, align 4, !dbg !10155
  %inc327 = add i32 %190, 1, !dbg !10155
  store i32 %inc327, i32* %i305, align 4, !dbg !10155
  br label %for.cond306, !dbg !10156, !llvm.loop !10157

for.end328:                                       ; preds = %for.cond306
  call void @llvm.dbg.declare(metadata i32* %i329, metadata !10159, metadata !DIExpression()), !dbg !10161
  store i32 0, i32* %i329, align 4, !dbg !10161
  br label %for.cond330, !dbg !10162

for.cond330:                                      ; preds = %for.inc359, %for.end328
  %191 = load i32, i32* %i329, align 4, !dbg !10163
  %192 = load %"class.dealii::FiniteElementData"*, %"class.dealii::FiniteElementData"** %fe.addr, align 8, !dbg !10165
  %dofs_per_line331 = getelementptr inbounds %"class.dealii::FiniteElementData", %"class.dealii::FiniteElementData"* %192, i32 0, i32 1, !dbg !10166
  %193 = load i32, i32* %dofs_per_line331, align 4, !dbg !10166
  %cmp332 = icmp ult i32 %191, %193, !dbg !10167
  br i1 %cmp332, label %for.body333, label %for.end361, !dbg !10168

for.body333:                                      ; preds = %for.cond330
  call void @llvm.dbg.declare(metadata i32* %j334, metadata !10169, metadata !DIExpression()), !dbg !10171
  store i32 0, i32* %j334, align 4, !dbg !10171
  br label %for.cond335, !dbg !10172

for.cond335:                                      ; preds = %for.inc356, %for.body333
  %194 = load i32, i32* %j334, align 4, !dbg !10173
  %195 = load %"class.dealii::FiniteElementData"*, %"class.dealii::FiniteElementData"** %fe.addr, align 8, !dbg !10175
  %dofs_per_line336 = getelementptr inbounds %"class.dealii::FiniteElementData", %"class.dealii::FiniteElementData"* %195, i32 0, i32 1, !dbg !10176
  %196 = load i32, i32* %dofs_per_line336, align 4, !dbg !10176
  %cmp337 = icmp ult i32 %194, %196, !dbg !10177
  br i1 %cmp337, label %for.body338, label %for.end358, !dbg !10178

for.body338:                                      ; preds = %for.cond335
  call void @llvm.dbg.declare(metadata i32* %k, metadata !10179, metadata !DIExpression()), !dbg !10181
  store i32 0, i32* %k, align 4, !dbg !10181
  br label %for.cond339, !dbg !10182

for.cond339:                                      ; preds = %for.inc353, %for.body338
  %197 = load i32, i32* %k, align 4, !dbg !10183
  %198 = load %"class.dealii::FiniteElementData"*, %"class.dealii::FiniteElementData"** %fe.addr, align 8, !dbg !10185
  %dofs_per_line340 = getelementptr inbounds %"class.dealii::FiniteElementData", %"class.dealii::FiniteElementData"* %198, i32 0, i32 1, !dbg !10186
  %199 = load i32, i32* %dofs_per_line340, align 4, !dbg !10186
  %cmp341 = icmp ult i32 %197, %199, !dbg !10187
  br i1 %cmp341, label %for.body342, label %for.end355, !dbg !10188

for.body342:                                      ; preds = %for.cond339
  %200 = load i32, i32* %i329, align 4, !dbg !10189
  %add343 = add i32 2, %200, !dbg !10190
  %201 = load i32, i32* %n2, align 4, !dbg !10191
  %mul344 = mul i32 %add343, %201, !dbg !10192
  %202 = load i32, i32* %j334, align 4, !dbg !10193
  %add345 = add i32 2, %202, !dbg !10194
  %203 = load i32, i32* %n, align 4, !dbg !10195
  %mul346 = mul i32 %add345, %203, !dbg !10196
  %add347 = add i32 %mul344, %mul346, !dbg !10197
  %add348 = add i32 %add347, 2, !dbg !10198
  %204 = load i32, i32* %k, align 4, !dbg !10199
  %add349 = add i32 %add348, %204, !dbg !10200
  %205 = load i32, i32* %next_index, align 4, !dbg !10201
  %inc350 = add i32 %205, 1, !dbg !10201
  store i32 %inc350, i32* %next_index, align 4, !dbg !10201
  %conv351 = zext i32 %205 to i64, !dbg !10202
  %call352 = call dereferenceable(4) i32* @_ZNSt6vectorIjSaIjEEixEm(%"class.std::vector.58"* %agg.result, i64 %conv351) #4, !dbg !10203
  store i32 %add349, i32* %call352, align 4, !dbg !10204
  br label %for.inc353, !dbg !10203

for.inc353:                                       ; preds = %for.body342
  %206 = load i32, i32* %k, align 4, !dbg !10205
  %inc354 = add i32 %206, 1, !dbg !10205
  store i32 %inc354, i32* %k, align 4, !dbg !10205
  br label %for.cond339, !dbg !10206, !llvm.loop !10207

for.end355:                                       ; preds = %for.cond339
  br label %for.inc356, !dbg !10208

for.inc356:                                       ; preds = %for.end355
  %207 = load i32, i32* %j334, align 4, !dbg !10209
  %inc357 = add i32 %207, 1, !dbg !10209
  store i32 %inc357, i32* %j334, align 4, !dbg !10209
  br label %for.cond335, !dbg !10210, !llvm.loop !10211

for.end358:                                       ; preds = %for.cond335
  br label %for.inc359, !dbg !10212

for.inc359:                                       ; preds = %for.end358
  %208 = load i32, i32* %i329, align 4, !dbg !10213
  %inc360 = add i32 %208, 1, !dbg !10213
  store i32 %inc360, i32* %i329, align 4, !dbg !10213
  br label %for.cond330, !dbg !10214, !llvm.loop !10215

for.end361:                                       ; preds = %for.cond330
  store i1 true, i1* %nrvo, align 1, !dbg !10217
  %nrvo.val = load i1, i1* %nrvo, align 1, !dbg !9661
  br i1 %nrvo.val, label %nrvo.skipdtor, label %nrvo.unused, !dbg !9661

nrvo.unused:                                      ; preds = %for.end361
  call void @_ZNSt6vectorIjSaIjEED2Ev(%"class.std::vector.58"* %agg.result) #4, !dbg !9661
  br label %nrvo.skipdtor, !dbg !9661

nrvo.skipdtor:                                    ; preds = %nrvo.unused, %for.end361
  ret void, !dbg !9661

eh.resume:                                        ; preds = %lpad
  %exn = load i8*, i8** %exn.slot, align 8, !dbg !9575
  %sel = load i32, i32* %ehselector.slot, align 4, !dbg !9575
  %lpad.val = insertvalue { i8*, i32 } undef, i8* %exn, 0, !dbg !9575
  %lpad.val362 = insertvalue { i8*, i32 } %lpad.val, i32 %sel, 1, !dbg !9575
  resume { i8*, i32 } %lpad.val362, !dbg !9575
}

declare dso_local void @_ZN6dealii10FullMatrixIdEC1Ejj(%"class.dealii::FullMatrix"*, i32, i32) unnamed_addr #2

; Function Attrs: noinline nounwind uwtable
define linkonce_odr dso_local void @_ZNSaIN6dealii10FullMatrixIdEEEC2Ev(%"class.std::allocator.21"* %this) unnamed_addr #1 comdat align 2 !dbg !10218 {
entry:
  %this.addr = alloca %"class.std::allocator.21"*, align 8
  store %"class.std::allocator.21"* %this, %"class.std::allocator.21"** %this.addr, align 8
  call void @llvm.dbg.declare(metadata %"class.std::allocator.21"** %this.addr, metadata !10219, metadata !DIExpression()), !dbg !10221
  %this1 = load %"class.std::allocator.21"*, %"class.std::allocator.21"** %this.addr, align 8
  %0 = bitcast %"class.std::allocator.21"* %this1 to %"class.__gnu_cxx::new_allocator.22"*, !dbg !10222
  call void @_ZN9__gnu_cxx13new_allocatorIN6dealii10FullMatrixIdEEEC2Ev(%"class.__gnu_cxx::new_allocator.22"* %0) #4, !dbg !10223
  ret void, !dbg !10224
}

; Function Attrs: noinline uwtable
define linkonce_odr dso_local void @_ZNSt6vectorIN6dealii10FullMatrixIdEESaIS2_EEC2EmRKS2_RKS3_(%"class.std::vector.19"* %this, i64 %__n, %"class.dealii::FullMatrix"* dereferenceable(96) %__value, %"class.std::allocator.21"* dereferenceable(1) %__a) unnamed_addr #0 comdat align 2 personality i8* bitcast (i32 (...)* @__gxx_personality_v0 to i8*) !dbg !10225 {
entry:
  %this.addr = alloca %"class.std::vector.19"*, align 8
  %__n.addr = alloca i64, align 8
  %__value.addr = alloca %"class.dealii::FullMatrix"*, align 8
  %__a.addr = alloca %"class.std::allocator.21"*, align 8
  %exn.slot = alloca i8*
  %ehselector.slot = alloca i32
  store %"class.std::vector.19"* %this, %"class.std::vector.19"** %this.addr, align 8
  call void @llvm.dbg.declare(metadata %"class.std::vector.19"** %this.addr, metadata !10226, metadata !DIExpression()), !dbg !10227
  store i64 %__n, i64* %__n.addr, align 8
  call void @llvm.dbg.declare(metadata i64* %__n.addr, metadata !10228, metadata !DIExpression()), !dbg !10229
  store %"class.dealii::FullMatrix"* %__value, %"class.dealii::FullMatrix"** %__value.addr, align 8
  call void @llvm.dbg.declare(metadata %"class.dealii::FullMatrix"** %__value.addr, metadata !10230, metadata !DIExpression()), !dbg !10231
  store %"class.std::allocator.21"* %__a, %"class.std::allocator.21"** %__a.addr, align 8
  call void @llvm.dbg.declare(metadata %"class.std::allocator.21"** %__a.addr, metadata !10232, metadata !DIExpression()), !dbg !10233
  %this1 = load %"class.std::vector.19"*, %"class.std::vector.19"** %this.addr, align 8
  %0 = bitcast %"class.std::vector.19"* %this1 to %"struct.std::_Vector_base.20"*, !dbg !10234
  %1 = load i64, i64* %__n.addr, align 8, !dbg !10235
  %2 = load %"class.std::allocator.21"*, %"class.std::allocator.21"** %__a.addr, align 8, !dbg !10236
  %call = call i64 @_ZNSt6vectorIN6dealii10FullMatrixIdEESaIS2_EE17_S_check_init_lenEmRKS3_(i64 %1, %"class.std::allocator.21"* dereferenceable(1) %2), !dbg !10237
  %3 = load %"class.std::allocator.21"*, %"class.std::allocator.21"** %__a.addr, align 8, !dbg !10238
  call void @_ZNSt12_Vector_baseIN6dealii10FullMatrixIdEESaIS2_EEC2EmRKS3_(%"struct.std::_Vector_base.20"* %0, i64 %call, %"class.std::allocator.21"* dereferenceable(1) %3), !dbg !10239
  %4 = load i64, i64* %__n.addr, align 8, !dbg !10240
  %5 = load %"class.dealii::FullMatrix"*, %"class.dealii::FullMatrix"** %__value.addr, align 8, !dbg !10242
  invoke void @_ZNSt6vectorIN6dealii10FullMatrixIdEESaIS2_EE18_M_fill_initializeEmRKS2_(%"class.std::vector.19"* %this1, i64 %4, %"class.dealii::FullMatrix"* dereferenceable(96) %5)
          to label %invoke.cont unwind label %lpad, !dbg !10243

invoke.cont:                                      ; preds = %entry
  ret void, !dbg !10244

lpad:                                             ; preds = %entry
  %6 = landingpad { i8*, i32 }
          cleanup, !dbg !10245
  %7 = extractvalue { i8*, i32 } %6, 0, !dbg !10245
  store i8* %7, i8** %exn.slot, align 8, !dbg !10245
  %8 = extractvalue { i8*, i32 } %6, 1, !dbg !10245
  store i32 %8, i32* %ehselector.slot, align 4, !dbg !10245
  %9 = bitcast %"class.std::vector.19"* %this1 to %"struct.std::_Vector_base.20"*, !dbg !10245
  call void @_ZNSt12_Vector_baseIN6dealii10FullMatrixIdEESaIS2_EED2Ev(%"struct.std::_Vector_base.20"* %9) #4, !dbg !10245
  br label %eh.resume, !dbg !10245

eh.resume:                                        ; preds = %lpad
  %exn = load i8*, i8** %exn.slot, align 8, !dbg !10245
  %sel = load i32, i32* %ehselector.slot, align 4, !dbg !10245
  %lpad.val = insertvalue { i8*, i32 } undef, i8* %exn, 0, !dbg !10245
  %lpad.val2 = insertvalue { i8*, i32 } %lpad.val, i32 %sel, 1, !dbg !10245
  resume { i8*, i32 } %lpad.val2, !dbg !10245
}

; Function Attrs: noinline nounwind uwtable
define linkonce_odr dso_local void @_ZNSaIN6dealii10FullMatrixIdEEED2Ev(%"class.std::allocator.21"* %this) unnamed_addr #1 comdat align 2 !dbg !10246 {
entry:
  %this.addr = alloca %"class.std::allocator.21"*, align 8
  store %"class.std::allocator.21"* %this, %"class.std::allocator.21"** %this.addr, align 8
  call void @llvm.dbg.declare(metadata %"class.std::allocator.21"** %this.addr, metadata !10247, metadata !DIExpression()), !dbg !10248
  %this1 = load %"class.std::allocator.21"*, %"class.std::allocator.21"** %this.addr, align 8
  %0 = bitcast %"class.std::allocator.21"* %this1 to %"class.__gnu_cxx::new_allocator.22"*, !dbg !10249
  call void @_ZN9__gnu_cxx13new_allocatorIN6dealii10FullMatrixIdEEED2Ev(%"class.__gnu_cxx::new_allocator.22"* %0) #4, !dbg !10249
  ret void, !dbg !10251
}

; Function Attrs: noinline nounwind uwtable
define linkonce_odr dso_local void @_ZN6dealii10FullMatrixIdED2Ev(%"class.dealii::FullMatrix"* %this) unnamed_addr #1 comdat align 2 !dbg !10252 {
entry:
  %this.addr = alloca %"class.dealii::FullMatrix"*, align 8
  store %"class.dealii::FullMatrix"* %this, %"class.dealii::FullMatrix"** %this.addr, align 8
  call void @llvm.dbg.declare(metadata %"class.dealii::FullMatrix"** %this.addr, metadata !10257, metadata !DIExpression()), !dbg !10258
  %this1 = load %"class.dealii::FullMatrix"*, %"class.dealii::FullMatrix"** %this.addr, align 8
  %0 = bitcast %"class.dealii::FullMatrix"* %this1 to %"class.dealii::Table"*, !dbg !10259
  call void @_ZN6dealii5TableILi2EdED2Ev(%"class.dealii::Table"* %0) #4, !dbg !10259
  ret void, !dbg !10261
}

; Function Attrs: noinline uwtable
define weak_odr dso_local void @_ZNK6dealii17FE_Q_HierarchicalILi3EE15build_dofs_cellERSt6vectorINS_10FullMatrixIdEESaIS4_EES7_(%"class.dealii::FE_Q_Hierarchical"* %this, %"class.std::vector.19"* dereferenceable(24) %dofs_cell, %"class.std::vector.19"* dereferenceable(24) %dofs_subcell) #0 comdat align 2 !dbg !10262 {
entry:
  %this.addr = alloca %"class.dealii::FE_Q_Hierarchical"*, align 8
  %dofs_cell.addr = alloca %"class.std::vector.19"*, align 8
  %dofs_subcell.addr = alloca %"class.std::vector.19"*, align 8
  %dofs_1d = alloca i32, align 4
  %c = alloca i32, align 4
  %j = alloca i32, align 4
  %k = alloca i32, align 4
  %factor = alloca double, align 8
  %i = alloca i32, align 4
  store %"class.dealii::FE_Q_Hierarchical"* %this, %"class.dealii::FE_Q_Hierarchical"** %this.addr, align 8
  call void @llvm.dbg.declare(metadata %"class.dealii::FE_Q_Hierarchical"** %this.addr, metadata !10263, metadata !DIExpression()), !dbg !10265
  store %"class.std::vector.19"* %dofs_cell, %"class.std::vector.19"** %dofs_cell.addr, align 8
  call void @llvm.dbg.declare(metadata %"class.std::vector.19"** %dofs_cell.addr, metadata !10266, metadata !DIExpression()), !dbg !10267
  store %"class.std::vector.19"* %dofs_subcell, %"class.std::vector.19"** %dofs_subcell.addr, align 8
  call void @llvm.dbg.declare(metadata %"class.std::vector.19"** %dofs_subcell.addr, metadata !10268, metadata !DIExpression()), !dbg !10269
  %this1 = load %"class.dealii::FE_Q_Hierarchical"*, %"class.dealii::FE_Q_Hierarchical"** %this.addr, align 8
  call void @llvm.dbg.declare(metadata i32* %dofs_1d, metadata !10270, metadata !DIExpression()), !dbg !10271
  %0 = bitcast %"class.dealii::FE_Q_Hierarchical"* %this1 to i8*, !dbg !10272
  %add.ptr = getelementptr inbounds i8, i8* %0, i64 72, !dbg !10272
  %1 = bitcast i8* %add.ptr to %"class.dealii::FiniteElementData"*, !dbg !10272
  %dofs_per_vertex = getelementptr inbounds %"class.dealii::FiniteElementData", %"class.dealii::FiniteElementData"* %1, i32 0, i32 0, !dbg !10272
  %2 = load i32, i32* %dofs_per_vertex, align 8, !dbg !10272
  %mul = mul i32 2, %2, !dbg !10273
  %3 = bitcast %"class.dealii::FE_Q_Hierarchical"* %this1 to i8*, !dbg !10274
  %add.ptr2 = getelementptr inbounds i8, i8* %3, i64 72, !dbg !10274
  %4 = bitcast i8* %add.ptr2 to %"class.dealii::FiniteElementData"*, !dbg !10274
  %dofs_per_line = getelementptr inbounds %"class.dealii::FiniteElementData", %"class.dealii::FiniteElementData"* %4, i32 0, i32 1, !dbg !10274
  %5 = load i32, i32* %dofs_per_line, align 4, !dbg !10274
  %add = add i32 %mul, %5, !dbg !10275
  store i32 %add, i32* %dofs_1d, align 4, !dbg !10271
  call void @llvm.dbg.declare(metadata i32* %c, metadata !10276, metadata !DIExpression()), !dbg !10278
  store i32 0, i32* %c, align 4, !dbg !10278
  br label %for.cond, !dbg !10279

for.cond:                                         ; preds = %for.inc145, %entry
  %6 = load i32, i32* %c, align 4, !dbg !10280
  %cmp = icmp ult i32 %6, 2, !dbg !10282
  br i1 %cmp, label %for.body, label %for.end147, !dbg !10283

for.body:                                         ; preds = %for.cond
  call void @llvm.dbg.declare(metadata i32* %j, metadata !10284, metadata !DIExpression()), !dbg !10286
  store i32 0, i32* %j, align 4, !dbg !10286
  br label %for.cond3, !dbg !10287

for.cond3:                                        ; preds = %for.inc142, %for.body
  %7 = load i32, i32* %j, align 4, !dbg !10288
  %8 = load i32, i32* %dofs_1d, align 4, !dbg !10290
  %cmp4 = icmp ult i32 %7, %8, !dbg !10291
  br i1 %cmp4, label %for.body5, label %for.end144, !dbg !10292

for.body5:                                        ; preds = %for.cond3
  call void @llvm.dbg.declare(metadata i32* %k, metadata !10293, metadata !DIExpression()), !dbg !10295
  store i32 0, i32* %k, align 4, !dbg !10295
  br label %for.cond6, !dbg !10296

for.cond6:                                        ; preds = %for.inc139, %for.body5
  %9 = load i32, i32* %k, align 4, !dbg !10297
  %10 = load i32, i32* %dofs_1d, align 4, !dbg !10299
  %cmp7 = icmp ult i32 %9, %10, !dbg !10300
  br i1 %cmp7, label %for.body8, label %for.end141, !dbg !10301

for.body8:                                        ; preds = %for.cond6
  %11 = load i32, i32* %j, align 4, !dbg !10302
  %cmp9 = icmp ule i32 %11, 1, !dbg !10305
  br i1 %cmp9, label %land.lhs.true, label %if.else55, !dbg !10306

land.lhs.true:                                    ; preds = %for.body8
  %12 = load i32, i32* %k, align 4, !dbg !10307
  %cmp10 = icmp ule i32 %12, 1, !dbg !10308
  br i1 %cmp10, label %if.then, label %if.else55, !dbg !10309

if.then:                                          ; preds = %land.lhs.true
  %13 = load i32, i32* %c, align 4, !dbg !10310
  %cmp11 = icmp eq i32 %13, 0, !dbg !10313
  br i1 %cmp11, label %land.lhs.true12, label %lor.lhs.false, !dbg !10314

land.lhs.true12:                                  ; preds = %if.then
  %14 = load i32, i32* %j, align 4, !dbg !10315
  %cmp13 = icmp eq i32 %14, 0, !dbg !10316
  br i1 %cmp13, label %land.lhs.true14, label %lor.lhs.false, !dbg !10317

land.lhs.true14:                                  ; preds = %land.lhs.true12
  %15 = load i32, i32* %k, align 4, !dbg !10318
  %cmp15 = icmp eq i32 %15, 0, !dbg !10319
  br i1 %cmp15, label %if.then21, label %lor.lhs.false, !dbg !10320

lor.lhs.false:                                    ; preds = %land.lhs.true14, %land.lhs.true12, %if.then
  %16 = load i32, i32* %c, align 4, !dbg !10321
  %cmp16 = icmp eq i32 %16, 1, !dbg !10322
  br i1 %cmp16, label %land.lhs.true17, label %if.else, !dbg !10323

land.lhs.true17:                                  ; preds = %lor.lhs.false
  %17 = load i32, i32* %j, align 4, !dbg !10324
  %cmp18 = icmp eq i32 %17, 1, !dbg !10325
  br i1 %cmp18, label %land.lhs.true19, label %if.else, !dbg !10326

land.lhs.true19:                                  ; preds = %land.lhs.true17
  %18 = load i32, i32* %k, align 4, !dbg !10327
  %cmp20 = icmp eq i32 %18, 1, !dbg !10328
  br i1 %cmp20, label %if.then21, label %if.else, !dbg !10329

if.then21:                                        ; preds = %land.lhs.true19, %land.lhs.true14
  %19 = load %"class.std::vector.19"*, %"class.std::vector.19"** %dofs_cell.addr, align 8, !dbg !10330
  %20 = load i32, i32* %c, align 4, !dbg !10331
  %conv = zext i32 %20 to i64, !dbg !10331
  %call = call dereferenceable(96) %"class.dealii::FullMatrix"* @_ZNSt6vectorIN6dealii10FullMatrixIdEESaIS2_EEixEm(%"class.std::vector.19"* %19, i64 %conv) #4, !dbg !10330
  %21 = bitcast %"class.dealii::FullMatrix"* %call to %"class.dealii::Table"*, !dbg !10330
  %22 = load i32, i32* %j, align 4, !dbg !10332
  %23 = load i32, i32* %k, align 4, !dbg !10333
  %call22 = call dereferenceable(8) double* @_ZN6dealii5TableILi2EdEclEjj(%"class.dealii::Table"* %21, i32 %22, i32 %23), !dbg !10330
  store double 1.000000e+00, double* %call22, align 8, !dbg !10334
  br label %if.end, !dbg !10330

if.else:                                          ; preds = %land.lhs.true19, %land.lhs.true17, %lor.lhs.false
  %24 = load %"class.std::vector.19"*, %"class.std::vector.19"** %dofs_cell.addr, align 8, !dbg !10335
  %25 = load i32, i32* %c, align 4, !dbg !10336
  %conv23 = zext i32 %25 to i64, !dbg !10336
  %call24 = call dereferenceable(96) %"class.dealii::FullMatrix"* @_ZNSt6vectorIN6dealii10FullMatrixIdEESaIS2_EEixEm(%"class.std::vector.19"* %24, i64 %conv23) #4, !dbg !10335
  %26 = bitcast %"class.dealii::FullMatrix"* %call24 to %"class.dealii::Table"*, !dbg !10335
  %27 = load i32, i32* %j, align 4, !dbg !10337
  %28 = load i32, i32* %k, align 4, !dbg !10338
  %call25 = call dereferenceable(8) double* @_ZN6dealii5TableILi2EdEclEjj(%"class.dealii::Table"* %26, i32 %27, i32 %28), !dbg !10335
  store double 0.000000e+00, double* %call25, align 8, !dbg !10339
  br label %if.end

if.end:                                           ; preds = %if.else, %if.then21
  %29 = load i32, i32* %c, align 4, !dbg !10340
  %cmp26 = icmp eq i32 %29, 0, !dbg !10342
  br i1 %cmp26, label %land.lhs.true27, label %lor.lhs.false29, !dbg !10343

land.lhs.true27:                                  ; preds = %if.end
  %30 = load i32, i32* %j, align 4, !dbg !10344
  %cmp28 = icmp eq i32 %30, 1, !dbg !10345
  br i1 %cmp28, label %if.then33, label %lor.lhs.false29, !dbg !10346

lor.lhs.false29:                                  ; preds = %land.lhs.true27, %if.end
  %31 = load i32, i32* %c, align 4, !dbg !10347
  %cmp30 = icmp eq i32 %31, 1, !dbg !10348
  br i1 %cmp30, label %land.lhs.true31, label %if.else37, !dbg !10349

land.lhs.true31:                                  ; preds = %lor.lhs.false29
  %32 = load i32, i32* %j, align 4, !dbg !10350
  %cmp32 = icmp eq i32 %32, 0, !dbg !10351
  br i1 %cmp32, label %if.then33, label %if.else37, !dbg !10352

if.then33:                                        ; preds = %land.lhs.true31, %land.lhs.true27
  %33 = load %"class.std::vector.19"*, %"class.std::vector.19"** %dofs_subcell.addr, align 8, !dbg !10353
  %34 = load i32, i32* %c, align 4, !dbg !10354
  %conv34 = zext i32 %34 to i64, !dbg !10354
  %call35 = call dereferenceable(96) %"class.dealii::FullMatrix"* @_ZNSt6vectorIN6dealii10FullMatrixIdEESaIS2_EEixEm(%"class.std::vector.19"* %33, i64 %conv34) #4, !dbg !10353
  %35 = bitcast %"class.dealii::FullMatrix"* %call35 to %"class.dealii::Table"*, !dbg !10353
  %36 = load i32, i32* %j, align 4, !dbg !10355
  %37 = load i32, i32* %k, align 4, !dbg !10356
  %call36 = call dereferenceable(8) double* @_ZN6dealii5TableILi2EdEclEjj(%"class.dealii::Table"* %35, i32 %36, i32 %37), !dbg !10353
  store double 5.000000e-01, double* %call36, align 8, !dbg !10357
  br label %if.end54, !dbg !10353

if.else37:                                        ; preds = %land.lhs.true31, %lor.lhs.false29
  %38 = load i32, i32* %c, align 4, !dbg !10358
  %cmp38 = icmp eq i32 %38, 0, !dbg !10360
  br i1 %cmp38, label %land.lhs.true39, label %lor.lhs.false41, !dbg !10361

land.lhs.true39:                                  ; preds = %if.else37
  %39 = load i32, i32* %k, align 4, !dbg !10362
  %cmp40 = icmp eq i32 %39, 0, !dbg !10363
  br i1 %cmp40, label %if.then45, label %lor.lhs.false41, !dbg !10364

lor.lhs.false41:                                  ; preds = %land.lhs.true39, %if.else37
  %40 = load i32, i32* %c, align 4, !dbg !10365
  %cmp42 = icmp eq i32 %40, 1, !dbg !10366
  br i1 %cmp42, label %land.lhs.true43, label %if.else49, !dbg !10367

land.lhs.true43:                                  ; preds = %lor.lhs.false41
  %41 = load i32, i32* %k, align 4, !dbg !10368
  %cmp44 = icmp eq i32 %41, 1, !dbg !10369
  br i1 %cmp44, label %if.then45, label %if.else49, !dbg !10370

if.then45:                                        ; preds = %land.lhs.true43, %land.lhs.true39
  %42 = load %"class.std::vector.19"*, %"class.std::vector.19"** %dofs_subcell.addr, align 8, !dbg !10371
  %43 = load i32, i32* %c, align 4, !dbg !10372
  %conv46 = zext i32 %43 to i64, !dbg !10372
  %call47 = call dereferenceable(96) %"class.dealii::FullMatrix"* @_ZNSt6vectorIN6dealii10FullMatrixIdEESaIS2_EEixEm(%"class.std::vector.19"* %42, i64 %conv46) #4, !dbg !10371
  %44 = bitcast %"class.dealii::FullMatrix"* %call47 to %"class.dealii::Table"*, !dbg !10371
  %45 = load i32, i32* %j, align 4, !dbg !10373
  %46 = load i32, i32* %k, align 4, !dbg !10374
  %call48 = call dereferenceable(8) double* @_ZN6dealii5TableILi2EdEclEjj(%"class.dealii::Table"* %44, i32 %45, i32 %46), !dbg !10371
  store double 1.000000e+00, double* %call48, align 8, !dbg !10375
  br label %if.end53, !dbg !10371

if.else49:                                        ; preds = %land.lhs.true43, %lor.lhs.false41
  %47 = load %"class.std::vector.19"*, %"class.std::vector.19"** %dofs_subcell.addr, align 8, !dbg !10376
  %48 = load i32, i32* %c, align 4, !dbg !10377
  %conv50 = zext i32 %48 to i64, !dbg !10377
  %call51 = call dereferenceable(96) %"class.dealii::FullMatrix"* @_ZNSt6vectorIN6dealii10FullMatrixIdEESaIS2_EEixEm(%"class.std::vector.19"* %47, i64 %conv50) #4, !dbg !10376
  %49 = bitcast %"class.dealii::FullMatrix"* %call51 to %"class.dealii::Table"*, !dbg !10376
  %50 = load i32, i32* %j, align 4, !dbg !10378
  %51 = load i32, i32* %k, align 4, !dbg !10379
  %call52 = call dereferenceable(8) double* @_ZN6dealii5TableILi2EdEclEjj(%"class.dealii::Table"* %49, i32 %50, i32 %51), !dbg !10376
  store double 0.000000e+00, double* %call52, align 8, !dbg !10380
  br label %if.end53

if.end53:                                         ; preds = %if.else49, %if.then45
  br label %if.end54

if.end54:                                         ; preds = %if.end53, %if.then33
  br label %if.end138, !dbg !10381

if.else55:                                        ; preds = %land.lhs.true, %for.body8
  %52 = load i32, i32* %j, align 4, !dbg !10382
  %cmp56 = icmp ule i32 %52, 1, !dbg !10384
  br i1 %cmp56, label %land.lhs.true57, label %if.else77, !dbg !10385

land.lhs.true57:                                  ; preds = %if.else55
  %53 = load i32, i32* %k, align 4, !dbg !10386
  %cmp58 = icmp uge i32 %53, 2, !dbg !10387
  br i1 %cmp58, label %if.then59, label %if.else77, !dbg !10388

if.then59:                                        ; preds = %land.lhs.true57
  %54 = load i32, i32* %c, align 4, !dbg !10389
  %cmp60 = icmp eq i32 %54, 0, !dbg !10392
  br i1 %cmp60, label %land.lhs.true61, label %lor.lhs.false65, !dbg !10393

land.lhs.true61:                                  ; preds = %if.then59
  %55 = load i32, i32* %j, align 4, !dbg !10394
  %cmp62 = icmp eq i32 %55, 1, !dbg !10395
  br i1 %cmp62, label %land.lhs.true63, label %lor.lhs.false65, !dbg !10396

land.lhs.true63:                                  ; preds = %land.lhs.true61
  %56 = load i32, i32* %k, align 4, !dbg !10397
  %rem = urem i32 %56, 2, !dbg !10398
  %cmp64 = icmp eq i32 %rem, 0, !dbg !10399
  br i1 %cmp64, label %if.then72, label %lor.lhs.false65, !dbg !10400

lor.lhs.false65:                                  ; preds = %land.lhs.true63, %land.lhs.true61, %if.then59
  %57 = load i32, i32* %c, align 4, !dbg !10401
  %cmp66 = icmp eq i32 %57, 1, !dbg !10402
  br i1 %cmp66, label %land.lhs.true67, label %if.end76, !dbg !10403

land.lhs.true67:                                  ; preds = %lor.lhs.false65
  %58 = load i32, i32* %j, align 4, !dbg !10404
  %cmp68 = icmp eq i32 %58, 0, !dbg !10405
  br i1 %cmp68, label %land.lhs.true69, label %if.end76, !dbg !10406

land.lhs.true69:                                  ; preds = %land.lhs.true67
  %59 = load i32, i32* %k, align 4, !dbg !10407
  %rem70 = urem i32 %59, 2, !dbg !10408
  %cmp71 = icmp eq i32 %rem70, 0, !dbg !10409
  br i1 %cmp71, label %if.then72, label %if.end76, !dbg !10410

if.then72:                                        ; preds = %land.lhs.true69, %land.lhs.true63
  %60 = load %"class.std::vector.19"*, %"class.std::vector.19"** %dofs_subcell.addr, align 8, !dbg !10411
  %61 = load i32, i32* %c, align 4, !dbg !10412
  %conv73 = zext i32 %61 to i64, !dbg !10412
  %call74 = call dereferenceable(96) %"class.dealii::FullMatrix"* @_ZNSt6vectorIN6dealii10FullMatrixIdEESaIS2_EEixEm(%"class.std::vector.19"* %60, i64 %conv73) #4, !dbg !10411
  %62 = bitcast %"class.dealii::FullMatrix"* %call74 to %"class.dealii::Table"*, !dbg !10411
  %63 = load i32, i32* %j, align 4, !dbg !10413
  %64 = load i32, i32* %k, align 4, !dbg !10414
  %call75 = call dereferenceable(8) double* @_ZN6dealii5TableILi2EdEclEjj(%"class.dealii::Table"* %62, i32 %63, i32 %64), !dbg !10411
  store double -1.000000e+00, double* %call75, align 8, !dbg !10415
  br label %if.end76, !dbg !10411

if.end76:                                         ; preds = %if.then72, %land.lhs.true69, %land.lhs.true67, %lor.lhs.false65
  br label %if.end137, !dbg !10416

if.else77:                                        ; preds = %land.lhs.true57, %if.else55
  %65 = load i32, i32* %j, align 4, !dbg !10417
  %cmp78 = icmp uge i32 %65, 2, !dbg !10419
  br i1 %cmp78, label %land.lhs.true79, label %if.end136, !dbg !10420

land.lhs.true79:                                  ; preds = %if.else77
  %66 = load i32, i32* %k, align 4, !dbg !10421
  %cmp80 = icmp uge i32 %66, 2, !dbg !10422
  br i1 %cmp80, label %land.lhs.true81, label %if.end136, !dbg !10423

land.lhs.true81:                                  ; preds = %land.lhs.true79
  %67 = load i32, i32* %j, align 4, !dbg !10424
  %68 = load i32, i32* %k, align 4, !dbg !10425
  %cmp82 = icmp ule i32 %67, %68, !dbg !10426
  br i1 %cmp82, label %if.then83, label %if.end136, !dbg !10427

if.then83:                                        ; preds = %land.lhs.true81
  call void @llvm.dbg.declare(metadata double* %factor, metadata !10428, metadata !DIExpression()), !dbg !10430
  store double 1.000000e+00, double* %factor, align 8, !dbg !10430
  call void @llvm.dbg.declare(metadata i32* %i, metadata !10431, metadata !DIExpression()), !dbg !10433
  store i32 1, i32* %i, align 4, !dbg !10433
  br label %for.cond84, !dbg !10434

for.cond84:                                       ; preds = %for.inc, %if.then83
  %69 = load i32, i32* %i, align 4, !dbg !10435
  %70 = load i32, i32* %j, align 4, !dbg !10437
  %cmp85 = icmp ule i32 %69, %70, !dbg !10438
  br i1 %cmp85, label %for.body86, label %for.end, !dbg !10439

for.body86:                                       ; preds = %for.cond84
  %71 = load i32, i32* %k, align 4, !dbg !10440
  %72 = load i32, i32* %i, align 4, !dbg !10441
  %sub = sub i32 %71, %72, !dbg !10442
  %add87 = add i32 %sub, 1, !dbg !10443
  %conv88 = uitofp i32 %add87 to double, !dbg !10444
  %73 = load i32, i32* %i, align 4, !dbg !10445
  %conv89 = uitofp i32 %73 to double, !dbg !10445
  %div = fdiv double %conv88, %conv89, !dbg !10446
  %74 = load double, double* %factor, align 8, !dbg !10447
  %mul90 = fmul double %74, %div, !dbg !10447
  store double %mul90, double* %factor, align 8, !dbg !10447
  br label %for.inc, !dbg !10448

for.inc:                                          ; preds = %for.body86
  %75 = load i32, i32* %i, align 4, !dbg !10449
  %inc = add i32 %75, 1, !dbg !10449
  store i32 %inc, i32* %i, align 4, !dbg !10449
  br label %for.cond84, !dbg !10450, !llvm.loop !10451

for.end:                                          ; preds = %for.cond84
  %76 = load i32, i32* %c, align 4, !dbg !10453
  %cmp91 = icmp eq i32 %76, 0, !dbg !10455
  br i1 %cmp91, label %if.then92, label %if.else111, !dbg !10456

if.then92:                                        ; preds = %for.end
  %77 = load i32, i32* %k, align 4, !dbg !10457
  %78 = load i32, i32* %j, align 4, !dbg !10459
  %add93 = add i32 %77, %78, !dbg !10460
  %rem94 = urem i32 %add93, 2, !dbg !10461
  %cmp95 = icmp eq i32 %rem94, 0, !dbg !10462
  br i1 %cmp95, label %cond.true, label %cond.false, !dbg !10463

cond.true:                                        ; preds = %if.then92
  %79 = load i32, i32* %k, align 4, !dbg !10464
  %conv96 = uitofp i32 %79 to double, !dbg !10464
  %call97 = call double @pow(double 5.000000e-01, double %conv96) #4, !dbg !10465
  %80 = load double, double* %factor, align 8, !dbg !10466
  %mul98 = fmul double %call97, %80, !dbg !10467
  br label %cond.end, !dbg !10463

cond.false:                                       ; preds = %if.then92
  %81 = load i32, i32* %k, align 4, !dbg !10468
  %conv99 = uitofp i32 %81 to double, !dbg !10468
  %call100 = call double @pow(double 5.000000e-01, double %conv99) #4, !dbg !10469
  %fneg = fneg double %call100, !dbg !10470
  %82 = load double, double* %factor, align 8, !dbg !10471
  %mul101 = fmul double %fneg, %82, !dbg !10472
  br label %cond.end, !dbg !10463

cond.end:                                         ; preds = %cond.false, %cond.true
  %cond = phi double [ %mul98, %cond.true ], [ %mul101, %cond.false ], !dbg !10463
  %83 = load %"class.std::vector.19"*, %"class.std::vector.19"** %dofs_subcell.addr, align 8, !dbg !10473
  %84 = load i32, i32* %c, align 4, !dbg !10474
  %conv102 = zext i32 %84 to i64, !dbg !10474
  %call103 = call dereferenceable(96) %"class.dealii::FullMatrix"* @_ZNSt6vectorIN6dealii10FullMatrixIdEESaIS2_EEixEm(%"class.std::vector.19"* %83, i64 %conv102) #4, !dbg !10473
  %85 = bitcast %"class.dealii::FullMatrix"* %call103 to %"class.dealii::Table"*, !dbg !10473
  %86 = load i32, i32* %j, align 4, !dbg !10475
  %87 = load i32, i32* %k, align 4, !dbg !10476
  %call104 = call dereferenceable(8) double* @_ZN6dealii5TableILi2EdEclEjj(%"class.dealii::Table"* %85, i32 %86, i32 %87), !dbg !10473
  store double %cond, double* %call104, align 8, !dbg !10477
  %88 = load i32, i32* %j, align 4, !dbg !10478
  %conv105 = uitofp i32 %88 to double, !dbg !10478
  %call106 = call double @pow(double 2.000000e+00, double %conv105) #4, !dbg !10479
  %89 = load double, double* %factor, align 8, !dbg !10480
  %mul107 = fmul double %call106, %89, !dbg !10481
  %90 = load %"class.std::vector.19"*, %"class.std::vector.19"** %dofs_cell.addr, align 8, !dbg !10482
  %91 = load i32, i32* %c, align 4, !dbg !10483
  %conv108 = zext i32 %91 to i64, !dbg !10483
  %call109 = call dereferenceable(96) %"class.dealii::FullMatrix"* @_ZNSt6vectorIN6dealii10FullMatrixIdEESaIS2_EEixEm(%"class.std::vector.19"* %90, i64 %conv108) #4, !dbg !10482
  %92 = bitcast %"class.dealii::FullMatrix"* %call109 to %"class.dealii::Table"*, !dbg !10482
  %93 = load i32, i32* %j, align 4, !dbg !10484
  %94 = load i32, i32* %k, align 4, !dbg !10485
  %call110 = call dereferenceable(8) double* @_ZN6dealii5TableILi2EdEclEjj(%"class.dealii::Table"* %92, i32 %93, i32 %94), !dbg !10482
  store double %mul107, double* %call110, align 8, !dbg !10486
  br label %if.end135, !dbg !10487

if.else111:                                       ; preds = %for.end
  %95 = load i32, i32* %k, align 4, !dbg !10488
  %conv112 = uitofp i32 %95 to double, !dbg !10488
  %call113 = call double @pow(double 5.000000e-01, double %conv112) #4, !dbg !10490
  %96 = load double, double* %factor, align 8, !dbg !10491
  %mul114 = fmul double %call113, %96, !dbg !10492
  %97 = load %"class.std::vector.19"*, %"class.std::vector.19"** %dofs_subcell.addr, align 8, !dbg !10493
  %98 = load i32, i32* %c, align 4, !dbg !10494
  %conv115 = zext i32 %98 to i64, !dbg !10494
  %call116 = call dereferenceable(96) %"class.dealii::FullMatrix"* @_ZNSt6vectorIN6dealii10FullMatrixIdEESaIS2_EEixEm(%"class.std::vector.19"* %97, i64 %conv115) #4, !dbg !10493
  %99 = bitcast %"class.dealii::FullMatrix"* %call116 to %"class.dealii::Table"*, !dbg !10493
  %100 = load i32, i32* %j, align 4, !dbg !10495
  %101 = load i32, i32* %k, align 4, !dbg !10496
  %call117 = call dereferenceable(8) double* @_ZN6dealii5TableILi2EdEclEjj(%"class.dealii::Table"* %99, i32 %100, i32 %101), !dbg !10493
  store double %mul114, double* %call117, align 8, !dbg !10497
  %102 = load i32, i32* %k, align 4, !dbg !10498
  %103 = load i32, i32* %j, align 4, !dbg !10499
  %add118 = add i32 %102, %103, !dbg !10500
  %rem119 = urem i32 %add118, 2, !dbg !10501
  %cmp120 = icmp eq i32 %rem119, 0, !dbg !10502
  br i1 %cmp120, label %cond.true121, label %cond.false125, !dbg !10503

cond.true121:                                     ; preds = %if.else111
  %104 = load i32, i32* %j, align 4, !dbg !10504
  %conv122 = uitofp i32 %104 to double, !dbg !10504
  %call123 = call double @pow(double 2.000000e+00, double %conv122) #4, !dbg !10505
  %105 = load double, double* %factor, align 8, !dbg !10506
  %mul124 = fmul double %call123, %105, !dbg !10507
  br label %cond.end130, !dbg !10503

cond.false125:                                    ; preds = %if.else111
  %106 = load i32, i32* %j, align 4, !dbg !10508
  %conv126 = uitofp i32 %106 to double, !dbg !10508
  %call127 = call double @pow(double 2.000000e+00, double %conv126) #4, !dbg !10509
  %fneg128 = fneg double %call127, !dbg !10510
  %107 = load double, double* %factor, align 8, !dbg !10511
  %mul129 = fmul double %fneg128, %107, !dbg !10512
  br label %cond.end130, !dbg !10503

cond.end130:                                      ; preds = %cond.false125, %cond.true121
  %cond131 = phi double [ %mul124, %cond.true121 ], [ %mul129, %cond.false125 ], !dbg !10503
  %108 = load %"class.std::vector.19"*, %"class.std::vector.19"** %dofs_cell.addr, align 8, !dbg !10513
  %109 = load i32, i32* %c, align 4, !dbg !10514
  %conv132 = zext i32 %109 to i64, !dbg !10514
  %call133 = call dereferenceable(96) %"class.dealii::FullMatrix"* @_ZNSt6vectorIN6dealii10FullMatrixIdEESaIS2_EEixEm(%"class.std::vector.19"* %108, i64 %conv132) #4, !dbg !10513
  %110 = bitcast %"class.dealii::FullMatrix"* %call133 to %"class.dealii::Table"*, !dbg !10513
  %111 = load i32, i32* %j, align 4, !dbg !10515
  %112 = load i32, i32* %k, align 4, !dbg !10516
  %call134 = call dereferenceable(8) double* @_ZN6dealii5TableILi2EdEclEjj(%"class.dealii::Table"* %110, i32 %111, i32 %112), !dbg !10513
  store double %cond131, double* %call134, align 8, !dbg !10517
  br label %if.end135

if.end135:                                        ; preds = %cond.end130, %cond.end
  br label %if.end136, !dbg !10518

if.end136:                                        ; preds = %if.end135, %land.lhs.true81, %land.lhs.true79, %if.else77
  br label %if.end137

if.end137:                                        ; preds = %if.end136, %if.end76
  br label %if.end138

if.end138:                                        ; preds = %if.end137, %if.end54
  br label %for.inc139, !dbg !10519

for.inc139:                                       ; preds = %if.end138
  %113 = load i32, i32* %k, align 4, !dbg !10520
  %inc140 = add i32 %113, 1, !dbg !10520
  store i32 %inc140, i32* %k, align 4, !dbg !10520
  br label %for.cond6, !dbg !10521, !llvm.loop !10522

for.end141:                                       ; preds = %for.cond6
  br label %for.inc142, !dbg !10523

for.inc142:                                       ; preds = %for.end141
  %114 = load i32, i32* %j, align 4, !dbg !10524
  %inc143 = add i32 %114, 1, !dbg !10524
  store i32 %inc143, i32* %j, align 4, !dbg !10524
  br label %for.cond3, !dbg !10525, !llvm.loop !10526

for.end144:                                       ; preds = %for.cond3
  br label %for.inc145, !dbg !10527

for.inc145:                                       ; preds = %for.end144
  %115 = load i32, i32* %c, align 4, !dbg !10528
  %inc146 = add i32 %115, 1, !dbg !10528
  store i32 %inc146, i32* %c, align 4, !dbg !10528
  br label %for.cond, !dbg !10529, !llvm.loop !10530

for.end147:                                       ; preds = %for.cond
  ret void, !dbg !10532
}

; Function Attrs: noinline uwtable
define weak_odr dso_local void @_ZN6dealii17FE_Q_HierarchicalILi3EE22initialize_constraintsERKSt6vectorINS_10FullMatrixIdEESaIS4_EE(%"class.dealii::FE_Q_Hierarchical"* %this, %"class.std::vector.19"* dereferenceable(24) %dofs_subcell) #0 comdat align 2 !dbg !10533 {
entry:
  %this.addr = alloca %"class.dealii::FE_Q_Hierarchical"*, align 8
  %dofs_subcell.addr = alloca %"class.std::vector.19"*, align 8
  %dofs_1d = alloca i32, align 4
  %degree = alloca i32, align 4
  %ref.tmp = alloca %"class.dealii::TableIndices", align 4
  %i = alloca i32, align 4
  %j = alloca i32, align 4
  %j148 = alloca i32, align 4
  %j328 = alloca i32, align 4
  %k = alloca i32, align 4
  store %"class.dealii::FE_Q_Hierarchical"* %this, %"class.dealii::FE_Q_Hierarchical"** %this.addr, align 8
  call void @llvm.dbg.declare(metadata %"class.dealii::FE_Q_Hierarchical"** %this.addr, metadata !10534, metadata !DIExpression()), !dbg !10535
  store %"class.std::vector.19"* %dofs_subcell, %"class.std::vector.19"** %dofs_subcell.addr, align 8
  call void @llvm.dbg.declare(metadata %"class.std::vector.19"** %dofs_subcell.addr, metadata !10536, metadata !DIExpression()), !dbg !10537
  %this1 = load %"class.dealii::FE_Q_Hierarchical"*, %"class.dealii::FE_Q_Hierarchical"** %this.addr, align 8
  call void @llvm.dbg.declare(metadata i32* %dofs_1d, metadata !10538, metadata !DIExpression()), !dbg !10539
  %0 = bitcast %"class.dealii::FE_Q_Hierarchical"* %this1 to i8*, !dbg !10540
  %add.ptr = getelementptr inbounds i8, i8* %0, i64 72, !dbg !10540
  %1 = bitcast i8* %add.ptr to %"class.dealii::FiniteElementData"*, !dbg !10540
  %dofs_per_vertex = getelementptr inbounds %"class.dealii::FiniteElementData", %"class.dealii::FiniteElementData"* %1, i32 0, i32 0, !dbg !10540
  %2 = load i32, i32* %dofs_per_vertex, align 8, !dbg !10540
  %mul = mul i32 2, %2, !dbg !10541
  %3 = bitcast %"class.dealii::FE_Q_Hierarchical"* %this1 to i8*, !dbg !10542
  %add.ptr2 = getelementptr inbounds i8, i8* %3, i64 72, !dbg !10542
  %4 = bitcast i8* %add.ptr2 to %"class.dealii::FiniteElementData"*, !dbg !10542
  %dofs_per_line = getelementptr inbounds %"class.dealii::FiniteElementData", %"class.dealii::FiniteElementData"* %4, i32 0, i32 1, !dbg !10542
  %5 = load i32, i32* %dofs_per_line, align 4, !dbg !10542
  %add = add i32 %mul, %5, !dbg !10543
  store i32 %add, i32* %dofs_1d, align 4, !dbg !10539
  call void @llvm.dbg.declare(metadata i32* %degree, metadata !10544, metadata !DIExpression()), !dbg !10545
  %6 = bitcast %"class.dealii::FE_Q_Hierarchical"* %this1 to i8*, !dbg !10546
  %add.ptr3 = getelementptr inbounds i8, i8* %6, i64 72, !dbg !10546
  %7 = bitcast i8* %add.ptr3 to %"class.dealii::FiniteElementData"*, !dbg !10546
  %degree4 = getelementptr inbounds %"class.dealii::FiniteElementData", %"class.dealii::FiniteElementData"* %7, i32 0, i32 13, !dbg !10546
  %8 = load i32, i32* %degree4, align 4, !dbg !10546
  store i32 %8, i32* %degree, align 4, !dbg !10545
  %9 = bitcast %"class.dealii::FE_Q_Hierarchical"* %this1 to %"class.dealii::FiniteElement"*, !dbg !10547
  %interface_constraints = getelementptr inbounds %"class.dealii::FiniteElement", %"class.dealii::FiniteElement"* %9, i32 0, i32 5, !dbg !10547
  %10 = bitcast %"class.dealii::FullMatrix"* %interface_constraints to %"class.dealii::TableBase"*, !dbg !10548
  %11 = bitcast %"class.dealii::FE_Q_Hierarchical"* %this1 to %"class.dealii::FiniteElement"*, !dbg !10549
  %call = call i64 @_ZNK6dealii13FiniteElementILi3ELi3EE26interface_constraints_sizeEv(%"class.dealii::FiniteElement"* %11), !dbg !10549
  %coerce.dive = getelementptr inbounds %"class.dealii::TableIndices", %"class.dealii::TableIndices"* %ref.tmp, i32 0, i32 0, !dbg !10549
  %coerce.dive5 = getelementptr inbounds %"class.dealii::TableIndicesBase", %"class.dealii::TableIndicesBase"* %coerce.dive, i32 0, i32 0, !dbg !10549
  %12 = bitcast [2 x i32]* %coerce.dive5 to i64*, !dbg !10549
  store i64 %call, i64* %12, align 4, !dbg !10549
  call void @_ZN6dealii9TableBaseILi2EdE6reinitERKNS_12TableIndicesILi2EEE(%"class.dealii::TableBase"* %10, %"class.dealii::TableIndices"* dereferenceable(8) %ref.tmp), !dbg !10550
  call void @llvm.dbg.declare(metadata i32* %i, metadata !10551, metadata !DIExpression()), !dbg !10553
  store i32 0, i32* %i, align 4, !dbg !10553
  br label %for.cond, !dbg !10554

for.cond:                                         ; preds = %for.inc449, %entry
  %13 = load i32, i32* %i, align 4, !dbg !10555
  %14 = load i32, i32* %dofs_1d, align 4, !dbg !10557
  %15 = load i32, i32* %dofs_1d, align 4, !dbg !10558
  %mul6 = mul i32 %14, %15, !dbg !10559
  %cmp = icmp ult i32 %13, %mul6, !dbg !10560
  br i1 %cmp, label %for.body, label %for.end451, !dbg !10561

for.body:                                         ; preds = %for.cond
  %16 = load %"class.std::vector.19"*, %"class.std::vector.19"** %dofs_subcell.addr, align 8, !dbg !10562
  %call7 = call dereferenceable(96) %"class.dealii::FullMatrix"* @_ZNKSt6vectorIN6dealii10FullMatrixIdEESaIS2_EEixEm(%"class.std::vector.19"* %16, i64 0) #4, !dbg !10562
  %17 = bitcast %"class.dealii::FullMatrix"* %call7 to %"class.dealii::Table"*, !dbg !10562
  %18 = load i32, i32* %i, align 4, !dbg !10564
  %19 = load i32, i32* %dofs_1d, align 4, !dbg !10565
  %rem = urem i32 %18, %19, !dbg !10566
  %call8 = call dereferenceable(8) double* @_ZNK6dealii5TableILi2EdEclEjj(%"class.dealii::Table"* %17, i32 1, i32 %rem), !dbg !10562
  %20 = load double, double* %call8, align 8, !dbg !10562
  %21 = load %"class.std::vector.19"*, %"class.std::vector.19"** %dofs_subcell.addr, align 8, !dbg !10567
  %call9 = call dereferenceable(96) %"class.dealii::FullMatrix"* @_ZNKSt6vectorIN6dealii10FullMatrixIdEESaIS2_EEixEm(%"class.std::vector.19"* %21, i64 0) #4, !dbg !10567
  %22 = bitcast %"class.dealii::FullMatrix"* %call9 to %"class.dealii::Table"*, !dbg !10567
  %23 = load i32, i32* %i, align 4, !dbg !10568
  %24 = load i32, i32* %i, align 4, !dbg !10569
  %25 = load i32, i32* %dofs_1d, align 4, !dbg !10570
  %rem10 = urem i32 %24, %25, !dbg !10571
  %sub = sub i32 %23, %rem10, !dbg !10572
  %26 = load i32, i32* %dofs_1d, align 4, !dbg !10573
  %div = udiv i32 %sub, %26, !dbg !10574
  %call11 = call dereferenceable(8) double* @_ZNK6dealii5TableILi2EdEclEjj(%"class.dealii::Table"* %22, i32 1, i32 %div), !dbg !10567
  %27 = load double, double* %call11, align 8, !dbg !10567
  %mul12 = fmul double %20, %27, !dbg !10575
  %28 = bitcast %"class.dealii::FE_Q_Hierarchical"* %this1 to %"class.dealii::FiniteElement"*, !dbg !10576
  %interface_constraints13 = getelementptr inbounds %"class.dealii::FiniteElement", %"class.dealii::FiniteElement"* %28, i32 0, i32 5, !dbg !10576
  %29 = bitcast %"class.dealii::FullMatrix"* %interface_constraints13 to %"class.dealii::Table"*, !dbg !10577
  %face_renumber = getelementptr inbounds %"class.dealii::FE_Q_Hierarchical", %"class.dealii::FE_Q_Hierarchical"* %this1, i32 0, i32 1, !dbg !10578
  %30 = load i32, i32* %i, align 4, !dbg !10579
  %conv = zext i32 %30 to i64, !dbg !10579
  %call14 = call dereferenceable(4) i32* @_ZNKSt6vectorIjSaIjEEixEm(%"class.std::vector.58"* %face_renumber, i64 %conv) #4, !dbg !10578
  %31 = load i32, i32* %call14, align 4, !dbg !10578
  %call15 = call dereferenceable(8) double* @_ZN6dealii5TableILi2EdEclEjj(%"class.dealii::Table"* %29, i32 0, i32 %31), !dbg !10577
  store double %mul12, double* %call15, align 8, !dbg !10580
  %32 = load %"class.std::vector.19"*, %"class.std::vector.19"** %dofs_subcell.addr, align 8, !dbg !10581
  %call16 = call dereferenceable(96) %"class.dealii::FullMatrix"* @_ZNKSt6vectorIN6dealii10FullMatrixIdEESaIS2_EEixEm(%"class.std::vector.19"* %32, i64 0) #4, !dbg !10581
  %33 = bitcast %"class.dealii::FullMatrix"* %call16 to %"class.dealii::Table"*, !dbg !10581
  %34 = load i32, i32* %i, align 4, !dbg !10582
  %35 = load i32, i32* %dofs_1d, align 4, !dbg !10583
  %rem17 = urem i32 %34, %35, !dbg !10584
  %call18 = call dereferenceable(8) double* @_ZNK6dealii5TableILi2EdEclEjj(%"class.dealii::Table"* %33, i32 0, i32 %rem17), !dbg !10581
  %36 = load double, double* %call18, align 8, !dbg !10581
  %37 = load %"class.std::vector.19"*, %"class.std::vector.19"** %dofs_subcell.addr, align 8, !dbg !10585
  %call19 = call dereferenceable(96) %"class.dealii::FullMatrix"* @_ZNKSt6vectorIN6dealii10FullMatrixIdEESaIS2_EEixEm(%"class.std::vector.19"* %37, i64 0) #4, !dbg !10585
  %38 = bitcast %"class.dealii::FullMatrix"* %call19 to %"class.dealii::Table"*, !dbg !10585
  %39 = load i32, i32* %i, align 4, !dbg !10586
  %40 = load i32, i32* %i, align 4, !dbg !10587
  %41 = load i32, i32* %dofs_1d, align 4, !dbg !10588
  %rem20 = urem i32 %40, %41, !dbg !10589
  %sub21 = sub i32 %39, %rem20, !dbg !10590
  %42 = load i32, i32* %dofs_1d, align 4, !dbg !10591
  %div22 = udiv i32 %sub21, %42, !dbg !10592
  %call23 = call dereferenceable(8) double* @_ZNK6dealii5TableILi2EdEclEjj(%"class.dealii::Table"* %38, i32 1, i32 %div22), !dbg !10585
  %43 = load double, double* %call23, align 8, !dbg !10585
  %mul24 = fmul double %36, %43, !dbg !10593
  %44 = bitcast %"class.dealii::FE_Q_Hierarchical"* %this1 to %"class.dealii::FiniteElement"*, !dbg !10594
  %interface_constraints25 = getelementptr inbounds %"class.dealii::FiniteElement", %"class.dealii::FiniteElement"* %44, i32 0, i32 5, !dbg !10594
  %45 = bitcast %"class.dealii::FullMatrix"* %interface_constraints25 to %"class.dealii::Table"*, !dbg !10595
  %face_renumber26 = getelementptr inbounds %"class.dealii::FE_Q_Hierarchical", %"class.dealii::FE_Q_Hierarchical"* %this1, i32 0, i32 1, !dbg !10596
  %46 = load i32, i32* %i, align 4, !dbg !10597
  %conv27 = zext i32 %46 to i64, !dbg !10597
  %call28 = call dereferenceable(4) i32* @_ZNKSt6vectorIjSaIjEEixEm(%"class.std::vector.58"* %face_renumber26, i64 %conv27) #4, !dbg !10596
  %47 = load i32, i32* %call28, align 4, !dbg !10596
  %call29 = call dereferenceable(8) double* @_ZN6dealii5TableILi2EdEclEjj(%"class.dealii::Table"* %45, i32 1, i32 %47), !dbg !10595
  store double %mul24, double* %call29, align 8, !dbg !10598
  %48 = load %"class.std::vector.19"*, %"class.std::vector.19"** %dofs_subcell.addr, align 8, !dbg !10599
  %call30 = call dereferenceable(96) %"class.dealii::FullMatrix"* @_ZNKSt6vectorIN6dealii10FullMatrixIdEESaIS2_EEixEm(%"class.std::vector.19"* %48, i64 1) #4, !dbg !10599
  %49 = bitcast %"class.dealii::FullMatrix"* %call30 to %"class.dealii::Table"*, !dbg !10599
  %50 = load i32, i32* %i, align 4, !dbg !10600
  %51 = load i32, i32* %dofs_1d, align 4, !dbg !10601
  %rem31 = urem i32 %50, %51, !dbg !10602
  %call32 = call dereferenceable(8) double* @_ZNK6dealii5TableILi2EdEclEjj(%"class.dealii::Table"* %49, i32 1, i32 %rem31), !dbg !10599
  %52 = load double, double* %call32, align 8, !dbg !10599
  %53 = load %"class.std::vector.19"*, %"class.std::vector.19"** %dofs_subcell.addr, align 8, !dbg !10603
  %call33 = call dereferenceable(96) %"class.dealii::FullMatrix"* @_ZNKSt6vectorIN6dealii10FullMatrixIdEESaIS2_EEixEm(%"class.std::vector.19"* %53, i64 0) #4, !dbg !10603
  %54 = bitcast %"class.dealii::FullMatrix"* %call33 to %"class.dealii::Table"*, !dbg !10603
  %55 = load i32, i32* %i, align 4, !dbg !10604
  %56 = load i32, i32* %i, align 4, !dbg !10605
  %57 = load i32, i32* %dofs_1d, align 4, !dbg !10606
  %rem34 = urem i32 %56, %57, !dbg !10607
  %sub35 = sub i32 %55, %rem34, !dbg !10608
  %58 = load i32, i32* %dofs_1d, align 4, !dbg !10609
  %div36 = udiv i32 %sub35, %58, !dbg !10610
  %call37 = call dereferenceable(8) double* @_ZNK6dealii5TableILi2EdEclEjj(%"class.dealii::Table"* %54, i32 1, i32 %div36), !dbg !10603
  %59 = load double, double* %call37, align 8, !dbg !10603
  %mul38 = fmul double %52, %59, !dbg !10611
  %60 = bitcast %"class.dealii::FE_Q_Hierarchical"* %this1 to %"class.dealii::FiniteElement"*, !dbg !10612
  %interface_constraints39 = getelementptr inbounds %"class.dealii::FiniteElement", %"class.dealii::FiniteElement"* %60, i32 0, i32 5, !dbg !10612
  %61 = bitcast %"class.dealii::FullMatrix"* %interface_constraints39 to %"class.dealii::Table"*, !dbg !10613
  %face_renumber40 = getelementptr inbounds %"class.dealii::FE_Q_Hierarchical", %"class.dealii::FE_Q_Hierarchical"* %this1, i32 0, i32 1, !dbg !10614
  %62 = load i32, i32* %i, align 4, !dbg !10615
  %conv41 = zext i32 %62 to i64, !dbg !10615
  %call42 = call dereferenceable(4) i32* @_ZNKSt6vectorIjSaIjEEixEm(%"class.std::vector.58"* %face_renumber40, i64 %conv41) #4, !dbg !10614
  %63 = load i32, i32* %call42, align 4, !dbg !10614
  %call43 = call dereferenceable(8) double* @_ZN6dealii5TableILi2EdEclEjj(%"class.dealii::Table"* %61, i32 2, i32 %63), !dbg !10613
  store double %mul38, double* %call43, align 8, !dbg !10616
  %64 = load %"class.std::vector.19"*, %"class.std::vector.19"** %dofs_subcell.addr, align 8, !dbg !10617
  %call44 = call dereferenceable(96) %"class.dealii::FullMatrix"* @_ZNKSt6vectorIN6dealii10FullMatrixIdEESaIS2_EEixEm(%"class.std::vector.19"* %64, i64 0) #4, !dbg !10617
  %65 = bitcast %"class.dealii::FullMatrix"* %call44 to %"class.dealii::Table"*, !dbg !10617
  %66 = load i32, i32* %i, align 4, !dbg !10618
  %67 = load i32, i32* %dofs_1d, align 4, !dbg !10619
  %rem45 = urem i32 %66, %67, !dbg !10620
  %call46 = call dereferenceable(8) double* @_ZNK6dealii5TableILi2EdEclEjj(%"class.dealii::Table"* %65, i32 1, i32 %rem45), !dbg !10617
  %68 = load double, double* %call46, align 8, !dbg !10617
  %69 = load %"class.std::vector.19"*, %"class.std::vector.19"** %dofs_subcell.addr, align 8, !dbg !10621
  %call47 = call dereferenceable(96) %"class.dealii::FullMatrix"* @_ZNKSt6vectorIN6dealii10FullMatrixIdEESaIS2_EEixEm(%"class.std::vector.19"* %69, i64 0) #4, !dbg !10621
  %70 = bitcast %"class.dealii::FullMatrix"* %call47 to %"class.dealii::Table"*, !dbg !10621
  %71 = load i32, i32* %i, align 4, !dbg !10622
  %72 = load i32, i32* %i, align 4, !dbg !10623
  %73 = load i32, i32* %dofs_1d, align 4, !dbg !10624
  %rem48 = urem i32 %72, %73, !dbg !10625
  %sub49 = sub i32 %71, %rem48, !dbg !10626
  %74 = load i32, i32* %dofs_1d, align 4, !dbg !10627
  %div50 = udiv i32 %sub49, %74, !dbg !10628
  %call51 = call dereferenceable(8) double* @_ZNK6dealii5TableILi2EdEclEjj(%"class.dealii::Table"* %70, i32 0, i32 %div50), !dbg !10621
  %75 = load double, double* %call51, align 8, !dbg !10621
  %mul52 = fmul double %68, %75, !dbg !10629
  %76 = bitcast %"class.dealii::FE_Q_Hierarchical"* %this1 to %"class.dealii::FiniteElement"*, !dbg !10630
  %interface_constraints53 = getelementptr inbounds %"class.dealii::FiniteElement", %"class.dealii::FiniteElement"* %76, i32 0, i32 5, !dbg !10630
  %77 = bitcast %"class.dealii::FullMatrix"* %interface_constraints53 to %"class.dealii::Table"*, !dbg !10631
  %face_renumber54 = getelementptr inbounds %"class.dealii::FE_Q_Hierarchical", %"class.dealii::FE_Q_Hierarchical"* %this1, i32 0, i32 1, !dbg !10632
  %78 = load i32, i32* %i, align 4, !dbg !10633
  %conv55 = zext i32 %78 to i64, !dbg !10633
  %call56 = call dereferenceable(4) i32* @_ZNKSt6vectorIjSaIjEEixEm(%"class.std::vector.58"* %face_renumber54, i64 %conv55) #4, !dbg !10632
  %79 = load i32, i32* %call56, align 4, !dbg !10632
  %call57 = call dereferenceable(8) double* @_ZN6dealii5TableILi2EdEclEjj(%"class.dealii::Table"* %77, i32 3, i32 %79), !dbg !10631
  store double %mul52, double* %call57, align 8, !dbg !10634
  %80 = load %"class.std::vector.19"*, %"class.std::vector.19"** %dofs_subcell.addr, align 8, !dbg !10635
  %call58 = call dereferenceable(96) %"class.dealii::FullMatrix"* @_ZNKSt6vectorIN6dealii10FullMatrixIdEESaIS2_EEixEm(%"class.std::vector.19"* %80, i64 1) #4, !dbg !10635
  %81 = bitcast %"class.dealii::FullMatrix"* %call58 to %"class.dealii::Table"*, !dbg !10635
  %82 = load i32, i32* %i, align 4, !dbg !10636
  %83 = load i32, i32* %dofs_1d, align 4, !dbg !10637
  %rem59 = urem i32 %82, %83, !dbg !10638
  %call60 = call dereferenceable(8) double* @_ZNK6dealii5TableILi2EdEclEjj(%"class.dealii::Table"* %81, i32 0, i32 %rem59), !dbg !10635
  %84 = load double, double* %call60, align 8, !dbg !10635
  %85 = load %"class.std::vector.19"*, %"class.std::vector.19"** %dofs_subcell.addr, align 8, !dbg !10639
  %call61 = call dereferenceable(96) %"class.dealii::FullMatrix"* @_ZNKSt6vectorIN6dealii10FullMatrixIdEESaIS2_EEixEm(%"class.std::vector.19"* %85, i64 1) #4, !dbg !10639
  %86 = bitcast %"class.dealii::FullMatrix"* %call61 to %"class.dealii::Table"*, !dbg !10639
  %87 = load i32, i32* %i, align 4, !dbg !10640
  %88 = load i32, i32* %i, align 4, !dbg !10641
  %89 = load i32, i32* %dofs_1d, align 4, !dbg !10642
  %rem62 = urem i32 %88, %89, !dbg !10643
  %sub63 = sub i32 %87, %rem62, !dbg !10644
  %90 = load i32, i32* %dofs_1d, align 4, !dbg !10645
  %div64 = udiv i32 %sub63, %90, !dbg !10646
  %call65 = call dereferenceable(8) double* @_ZNK6dealii5TableILi2EdEclEjj(%"class.dealii::Table"* %86, i32 1, i32 %div64), !dbg !10639
  %91 = load double, double* %call65, align 8, !dbg !10639
  %mul66 = fmul double %84, %91, !dbg !10647
  %92 = bitcast %"class.dealii::FE_Q_Hierarchical"* %this1 to %"class.dealii::FiniteElement"*, !dbg !10648
  %interface_constraints67 = getelementptr inbounds %"class.dealii::FiniteElement", %"class.dealii::FiniteElement"* %92, i32 0, i32 5, !dbg !10648
  %93 = bitcast %"class.dealii::FullMatrix"* %interface_constraints67 to %"class.dealii::Table"*, !dbg !10649
  %face_renumber68 = getelementptr inbounds %"class.dealii::FE_Q_Hierarchical", %"class.dealii::FE_Q_Hierarchical"* %this1, i32 0, i32 1, !dbg !10650
  %94 = load i32, i32* %i, align 4, !dbg !10651
  %conv69 = zext i32 %94 to i64, !dbg !10651
  %call70 = call dereferenceable(4) i32* @_ZNKSt6vectorIjSaIjEEixEm(%"class.std::vector.58"* %face_renumber68, i64 %conv69) #4, !dbg !10650
  %95 = load i32, i32* %call70, align 4, !dbg !10650
  %call71 = call dereferenceable(8) double* @_ZN6dealii5TableILi2EdEclEjj(%"class.dealii::Table"* %93, i32 4, i32 %95), !dbg !10649
  store double %mul66, double* %call71, align 8, !dbg !10652
  call void @llvm.dbg.declare(metadata i32* %j, metadata !10653, metadata !DIExpression()), !dbg !10655
  store i32 0, i32* %j, align 4, !dbg !10655
  br label %for.cond72, !dbg !10656

for.cond72:                                       ; preds = %for.inc, %for.body
  %96 = load i32, i32* %j, align 4, !dbg !10657
  %97 = load i32, i32* %degree, align 4, !dbg !10659
  %sub73 = sub i32 %97, 1, !dbg !10660
  %cmp74 = icmp ult i32 %96, %sub73, !dbg !10661
  br i1 %cmp74, label %for.body75, label %for.end, !dbg !10662

for.body75:                                       ; preds = %for.cond72
  %98 = load %"class.std::vector.19"*, %"class.std::vector.19"** %dofs_subcell.addr, align 8, !dbg !10663
  %call76 = call dereferenceable(96) %"class.dealii::FullMatrix"* @_ZNKSt6vectorIN6dealii10FullMatrixIdEESaIS2_EEixEm(%"class.std::vector.19"* %98, i64 0) #4, !dbg !10663
  %99 = bitcast %"class.dealii::FullMatrix"* %call76 to %"class.dealii::Table"*, !dbg !10663
  %100 = load i32, i32* %i, align 4, !dbg !10665
  %101 = load i32, i32* %dofs_1d, align 4, !dbg !10666
  %rem77 = urem i32 %100, %101, !dbg !10667
  %call78 = call dereferenceable(8) double* @_ZNK6dealii5TableILi2EdEclEjj(%"class.dealii::Table"* %99, i32 1, i32 %rem77), !dbg !10663
  %102 = load double, double* %call78, align 8, !dbg !10663
  %103 = load %"class.std::vector.19"*, %"class.std::vector.19"** %dofs_subcell.addr, align 8, !dbg !10668
  %call79 = call dereferenceable(96) %"class.dealii::FullMatrix"* @_ZNKSt6vectorIN6dealii10FullMatrixIdEESaIS2_EEixEm(%"class.std::vector.19"* %103, i64 0) #4, !dbg !10668
  %104 = bitcast %"class.dealii::FullMatrix"* %call79 to %"class.dealii::Table"*, !dbg !10668
  %105 = load i32, i32* %j, align 4, !dbg !10669
  %add80 = add i32 2, %105, !dbg !10670
  %106 = load i32, i32* %i, align 4, !dbg !10671
  %107 = load i32, i32* %i, align 4, !dbg !10672
  %108 = load i32, i32* %dofs_1d, align 4, !dbg !10673
  %rem81 = urem i32 %107, %108, !dbg !10674
  %sub82 = sub i32 %106, %rem81, !dbg !10675
  %109 = load i32, i32* %dofs_1d, align 4, !dbg !10676
  %div83 = udiv i32 %sub82, %109, !dbg !10677
  %call84 = call dereferenceable(8) double* @_ZNK6dealii5TableILi2EdEclEjj(%"class.dealii::Table"* %104, i32 %add80, i32 %div83), !dbg !10668
  %110 = load double, double* %call84, align 8, !dbg !10668
  %mul85 = fmul double %102, %110, !dbg !10678
  %111 = bitcast %"class.dealii::FE_Q_Hierarchical"* %this1 to %"class.dealii::FiniteElement"*, !dbg !10679
  %interface_constraints86 = getelementptr inbounds %"class.dealii::FiniteElement", %"class.dealii::FiniteElement"* %111, i32 0, i32 5, !dbg !10679
  %112 = bitcast %"class.dealii::FullMatrix"* %interface_constraints86 to %"class.dealii::Table"*, !dbg !10680
  %113 = load i32, i32* %j, align 4, !dbg !10681
  %add87 = add i32 5, %113, !dbg !10682
  %face_renumber88 = getelementptr inbounds %"class.dealii::FE_Q_Hierarchical", %"class.dealii::FE_Q_Hierarchical"* %this1, i32 0, i32 1, !dbg !10683
  %114 = load i32, i32* %i, align 4, !dbg !10684
  %conv89 = zext i32 %114 to i64, !dbg !10684
  %call90 = call dereferenceable(4) i32* @_ZNKSt6vectorIjSaIjEEixEm(%"class.std::vector.58"* %face_renumber88, i64 %conv89) #4, !dbg !10683
  %115 = load i32, i32* %call90, align 4, !dbg !10683
  %call91 = call dereferenceable(8) double* @_ZN6dealii5TableILi2EdEclEjj(%"class.dealii::Table"* %112, i32 %add87, i32 %115), !dbg !10680
  store double %mul85, double* %call91, align 8, !dbg !10685
  %116 = load %"class.std::vector.19"*, %"class.std::vector.19"** %dofs_subcell.addr, align 8, !dbg !10686
  %call92 = call dereferenceable(96) %"class.dealii::FullMatrix"* @_ZNKSt6vectorIN6dealii10FullMatrixIdEESaIS2_EEixEm(%"class.std::vector.19"* %116, i64 0) #4, !dbg !10686
  %117 = bitcast %"class.dealii::FullMatrix"* %call92 to %"class.dealii::Table"*, !dbg !10686
  %118 = load i32, i32* %i, align 4, !dbg !10687
  %119 = load i32, i32* %dofs_1d, align 4, !dbg !10688
  %rem93 = urem i32 %118, %119, !dbg !10689
  %call94 = call dereferenceable(8) double* @_ZNK6dealii5TableILi2EdEclEjj(%"class.dealii::Table"* %117, i32 1, i32 %rem93), !dbg !10686
  %120 = load double, double* %call94, align 8, !dbg !10686
  %121 = load %"class.std::vector.19"*, %"class.std::vector.19"** %dofs_subcell.addr, align 8, !dbg !10690
  %call95 = call dereferenceable(96) %"class.dealii::FullMatrix"* @_ZNKSt6vectorIN6dealii10FullMatrixIdEESaIS2_EEixEm(%"class.std::vector.19"* %121, i64 1) #4, !dbg !10690
  %122 = bitcast %"class.dealii::FullMatrix"* %call95 to %"class.dealii::Table"*, !dbg !10690
  %123 = load i32, i32* %j, align 4, !dbg !10691
  %add96 = add i32 2, %123, !dbg !10692
  %124 = load i32, i32* %i, align 4, !dbg !10693
  %125 = load i32, i32* %i, align 4, !dbg !10694
  %126 = load i32, i32* %dofs_1d, align 4, !dbg !10695
  %rem97 = urem i32 %125, %126, !dbg !10696
  %sub98 = sub i32 %124, %rem97, !dbg !10697
  %127 = load i32, i32* %dofs_1d, align 4, !dbg !10698
  %div99 = udiv i32 %sub98, %127, !dbg !10699
  %call100 = call dereferenceable(8) double* @_ZNK6dealii5TableILi2EdEclEjj(%"class.dealii::Table"* %122, i32 %add96, i32 %div99), !dbg !10690
  %128 = load double, double* %call100, align 8, !dbg !10690
  %mul101 = fmul double %120, %128, !dbg !10700
  %129 = bitcast %"class.dealii::FE_Q_Hierarchical"* %this1 to %"class.dealii::FiniteElement"*, !dbg !10701
  %interface_constraints102 = getelementptr inbounds %"class.dealii::FiniteElement", %"class.dealii::FiniteElement"* %129, i32 0, i32 5, !dbg !10701
  %130 = bitcast %"class.dealii::FullMatrix"* %interface_constraints102 to %"class.dealii::Table"*, !dbg !10702
  %131 = load i32, i32* %degree, align 4, !dbg !10703
  %sub103 = sub i32 %131, 1, !dbg !10704
  %add104 = add i32 5, %sub103, !dbg !10705
  %132 = load i32, i32* %j, align 4, !dbg !10706
  %add105 = add i32 %add104, %132, !dbg !10707
  %face_renumber106 = getelementptr inbounds %"class.dealii::FE_Q_Hierarchical", %"class.dealii::FE_Q_Hierarchical"* %this1, i32 0, i32 1, !dbg !10708
  %133 = load i32, i32* %i, align 4, !dbg !10709
  %conv107 = zext i32 %133 to i64, !dbg !10709
  %call108 = call dereferenceable(4) i32* @_ZNKSt6vectorIjSaIjEEixEm(%"class.std::vector.58"* %face_renumber106, i64 %conv107) #4, !dbg !10708
  %134 = load i32, i32* %call108, align 4, !dbg !10708
  %call109 = call dereferenceable(8) double* @_ZN6dealii5TableILi2EdEclEjj(%"class.dealii::Table"* %130, i32 %add105, i32 %134), !dbg !10702
  store double %mul101, double* %call109, align 8, !dbg !10710
  %135 = load %"class.std::vector.19"*, %"class.std::vector.19"** %dofs_subcell.addr, align 8, !dbg !10711
  %call110 = call dereferenceable(96) %"class.dealii::FullMatrix"* @_ZNKSt6vectorIN6dealii10FullMatrixIdEESaIS2_EEixEm(%"class.std::vector.19"* %135, i64 0) #4, !dbg !10711
  %136 = bitcast %"class.dealii::FullMatrix"* %call110 to %"class.dealii::Table"*, !dbg !10711
  %137 = load i32, i32* %j, align 4, !dbg !10712
  %add111 = add i32 2, %137, !dbg !10713
  %138 = load i32, i32* %i, align 4, !dbg !10714
  %139 = load i32, i32* %dofs_1d, align 4, !dbg !10715
  %rem112 = urem i32 %138, %139, !dbg !10716
  %call113 = call dereferenceable(8) double* @_ZNK6dealii5TableILi2EdEclEjj(%"class.dealii::Table"* %136, i32 %add111, i32 %rem112), !dbg !10711
  %140 = load double, double* %call113, align 8, !dbg !10711
  %141 = load %"class.std::vector.19"*, %"class.std::vector.19"** %dofs_subcell.addr, align 8, !dbg !10717
  %call114 = call dereferenceable(96) %"class.dealii::FullMatrix"* @_ZNKSt6vectorIN6dealii10FullMatrixIdEESaIS2_EEixEm(%"class.std::vector.19"* %141, i64 1) #4, !dbg !10717
  %142 = bitcast %"class.dealii::FullMatrix"* %call114 to %"class.dealii::Table"*, !dbg !10717
  %143 = load i32, i32* %i, align 4, !dbg !10718
  %144 = load i32, i32* %i, align 4, !dbg !10719
  %145 = load i32, i32* %dofs_1d, align 4, !dbg !10720
  %rem115 = urem i32 %144, %145, !dbg !10721
  %sub116 = sub i32 %143, %rem115, !dbg !10722
  %146 = load i32, i32* %dofs_1d, align 4, !dbg !10723
  %div117 = udiv i32 %sub116, %146, !dbg !10724
  %call118 = call dereferenceable(8) double* @_ZNK6dealii5TableILi2EdEclEjj(%"class.dealii::Table"* %142, i32 0, i32 %div117), !dbg !10717
  %147 = load double, double* %call118, align 8, !dbg !10717
  %mul119 = fmul double %140, %147, !dbg !10725
  %148 = bitcast %"class.dealii::FE_Q_Hierarchical"* %this1 to %"class.dealii::FiniteElement"*, !dbg !10726
  %interface_constraints120 = getelementptr inbounds %"class.dealii::FiniteElement", %"class.dealii::FiniteElement"* %148, i32 0, i32 5, !dbg !10726
  %149 = bitcast %"class.dealii::FullMatrix"* %interface_constraints120 to %"class.dealii::Table"*, !dbg !10727
  %150 = load i32, i32* %degree, align 4, !dbg !10728
  %sub121 = sub i32 %150, 1, !dbg !10729
  %mul122 = mul i32 2, %sub121, !dbg !10730
  %add123 = add i32 5, %mul122, !dbg !10731
  %151 = load i32, i32* %j, align 4, !dbg !10732
  %add124 = add i32 %add123, %151, !dbg !10733
  %face_renumber125 = getelementptr inbounds %"class.dealii::FE_Q_Hierarchical", %"class.dealii::FE_Q_Hierarchical"* %this1, i32 0, i32 1, !dbg !10734
  %152 = load i32, i32* %i, align 4, !dbg !10735
  %conv126 = zext i32 %152 to i64, !dbg !10735
  %call127 = call dereferenceable(4) i32* @_ZNKSt6vectorIjSaIjEEixEm(%"class.std::vector.58"* %face_renumber125, i64 %conv126) #4, !dbg !10734
  %153 = load i32, i32* %call127, align 4, !dbg !10734
  %call128 = call dereferenceable(8) double* @_ZN6dealii5TableILi2EdEclEjj(%"class.dealii::Table"* %149, i32 %add124, i32 %153), !dbg !10727
  store double %mul119, double* %call128, align 8, !dbg !10736
  %154 = load %"class.std::vector.19"*, %"class.std::vector.19"** %dofs_subcell.addr, align 8, !dbg !10737
  %call129 = call dereferenceable(96) %"class.dealii::FullMatrix"* @_ZNKSt6vectorIN6dealii10FullMatrixIdEESaIS2_EEixEm(%"class.std::vector.19"* %154, i64 1) #4, !dbg !10737
  %155 = bitcast %"class.dealii::FullMatrix"* %call129 to %"class.dealii::Table"*, !dbg !10737
  %156 = load i32, i32* %j, align 4, !dbg !10738
  %add130 = add i32 2, %156, !dbg !10739
  %157 = load i32, i32* %i, align 4, !dbg !10740
  %158 = load i32, i32* %dofs_1d, align 4, !dbg !10741
  %rem131 = urem i32 %157, %158, !dbg !10742
  %call132 = call dereferenceable(8) double* @_ZNK6dealii5TableILi2EdEclEjj(%"class.dealii::Table"* %155, i32 %add130, i32 %rem131), !dbg !10737
  %159 = load double, double* %call132, align 8, !dbg !10737
  %160 = load %"class.std::vector.19"*, %"class.std::vector.19"** %dofs_subcell.addr, align 8, !dbg !10743
  %call133 = call dereferenceable(96) %"class.dealii::FullMatrix"* @_ZNKSt6vectorIN6dealii10FullMatrixIdEESaIS2_EEixEm(%"class.std::vector.19"* %160, i64 0) #4, !dbg !10743
  %161 = bitcast %"class.dealii::FullMatrix"* %call133 to %"class.dealii::Table"*, !dbg !10743
  %162 = load i32, i32* %i, align 4, !dbg !10744
  %163 = load i32, i32* %i, align 4, !dbg !10745
  %164 = load i32, i32* %dofs_1d, align 4, !dbg !10746
  %rem134 = urem i32 %163, %164, !dbg !10747
  %sub135 = sub i32 %162, %rem134, !dbg !10748
  %165 = load i32, i32* %dofs_1d, align 4, !dbg !10749
  %div136 = udiv i32 %sub135, %165, !dbg !10750
  %call137 = call dereferenceable(8) double* @_ZNK6dealii5TableILi2EdEclEjj(%"class.dealii::Table"* %161, i32 1, i32 %div136), !dbg !10743
  %166 = load double, double* %call137, align 8, !dbg !10743
  %mul138 = fmul double %159, %166, !dbg !10751
  %167 = bitcast %"class.dealii::FE_Q_Hierarchical"* %this1 to %"class.dealii::FiniteElement"*, !dbg !10752
  %interface_constraints139 = getelementptr inbounds %"class.dealii::FiniteElement", %"class.dealii::FiniteElement"* %167, i32 0, i32 5, !dbg !10752
  %168 = bitcast %"class.dealii::FullMatrix"* %interface_constraints139 to %"class.dealii::Table"*, !dbg !10753
  %169 = load i32, i32* %degree, align 4, !dbg !10754
  %sub140 = sub i32 %169, 1, !dbg !10755
  %mul141 = mul i32 3, %sub140, !dbg !10756
  %add142 = add i32 5, %mul141, !dbg !10757
  %170 = load i32, i32* %j, align 4, !dbg !10758
  %add143 = add i32 %add142, %170, !dbg !10759
  %face_renumber144 = getelementptr inbounds %"class.dealii::FE_Q_Hierarchical", %"class.dealii::FE_Q_Hierarchical"* %this1, i32 0, i32 1, !dbg !10760
  %171 = load i32, i32* %i, align 4, !dbg !10761
  %conv145 = zext i32 %171 to i64, !dbg !10761
  %call146 = call dereferenceable(4) i32* @_ZNKSt6vectorIjSaIjEEixEm(%"class.std::vector.58"* %face_renumber144, i64 %conv145) #4, !dbg !10760
  %172 = load i32, i32* %call146, align 4, !dbg !10760
  %call147 = call dereferenceable(8) double* @_ZN6dealii5TableILi2EdEclEjj(%"class.dealii::Table"* %168, i32 %add143, i32 %172), !dbg !10753
  store double %mul138, double* %call147, align 8, !dbg !10762
  br label %for.inc, !dbg !10763

for.inc:                                          ; preds = %for.body75
  %173 = load i32, i32* %j, align 4, !dbg !10764
  %inc = add i32 %173, 1, !dbg !10764
  store i32 %inc, i32* %j, align 4, !dbg !10764
  br label %for.cond72, !dbg !10765, !llvm.loop !10766

for.end:                                          ; preds = %for.cond72
  call void @llvm.dbg.declare(metadata i32* %j148, metadata !10768, metadata !DIExpression()), !dbg !10770
  store i32 0, i32* %j148, align 4, !dbg !10770
  br label %for.cond149, !dbg !10771

for.cond149:                                      ; preds = %for.inc325, %for.end
  %174 = load i32, i32* %j148, align 4, !dbg !10772
  %175 = load i32, i32* %degree, align 4, !dbg !10774
  %sub150 = sub i32 %175, 1, !dbg !10775
  %cmp151 = icmp ult i32 %174, %sub150, !dbg !10776
  br i1 %cmp151, label %for.body152, label %for.end327, !dbg !10777

for.body152:                                      ; preds = %for.cond149
  %176 = load %"class.std::vector.19"*, %"class.std::vector.19"** %dofs_subcell.addr, align 8, !dbg !10778
  %call153 = call dereferenceable(96) %"class.dealii::FullMatrix"* @_ZNKSt6vectorIN6dealii10FullMatrixIdEESaIS2_EEixEm(%"class.std::vector.19"* %176, i64 0) #4, !dbg !10778
  %177 = bitcast %"class.dealii::FullMatrix"* %call153 to %"class.dealii::Table"*, !dbg !10778
  %178 = load i32, i32* %i, align 4, !dbg !10780
  %179 = load i32, i32* %dofs_1d, align 4, !dbg !10781
  %rem154 = urem i32 %178, %179, !dbg !10782
  %call155 = call dereferenceable(8) double* @_ZNK6dealii5TableILi2EdEclEjj(%"class.dealii::Table"* %177, i32 0, i32 %rem154), !dbg !10778
  %180 = load double, double* %call155, align 8, !dbg !10778
  %181 = load %"class.std::vector.19"*, %"class.std::vector.19"** %dofs_subcell.addr, align 8, !dbg !10783
  %call156 = call dereferenceable(96) %"class.dealii::FullMatrix"* @_ZNKSt6vectorIN6dealii10FullMatrixIdEESaIS2_EEixEm(%"class.std::vector.19"* %181, i64 0) #4, !dbg !10783
  %182 = bitcast %"class.dealii::FullMatrix"* %call156 to %"class.dealii::Table"*, !dbg !10783
  %183 = load i32, i32* %j148, align 4, !dbg !10784
  %add157 = add i32 2, %183, !dbg !10785
  %184 = load i32, i32* %i, align 4, !dbg !10786
  %185 = load i32, i32* %i, align 4, !dbg !10787
  %186 = load i32, i32* %dofs_1d, align 4, !dbg !10788
  %rem158 = urem i32 %185, %186, !dbg !10789
  %sub159 = sub i32 %184, %rem158, !dbg !10790
  %187 = load i32, i32* %dofs_1d, align 4, !dbg !10791
  %div160 = udiv i32 %sub159, %187, !dbg !10792
  %call161 = call dereferenceable(8) double* @_ZNK6dealii5TableILi2EdEclEjj(%"class.dealii::Table"* %182, i32 %add157, i32 %div160), !dbg !10783
  %188 = load double, double* %call161, align 8, !dbg !10783
  %mul162 = fmul double %180, %188, !dbg !10793
  %189 = bitcast %"class.dealii::FE_Q_Hierarchical"* %this1 to %"class.dealii::FiniteElement"*, !dbg !10794
  %interface_constraints163 = getelementptr inbounds %"class.dealii::FiniteElement", %"class.dealii::FiniteElement"* %189, i32 0, i32 5, !dbg !10794
  %190 = bitcast %"class.dealii::FullMatrix"* %interface_constraints163 to %"class.dealii::Table"*, !dbg !10795
  %191 = load i32, i32* %degree, align 4, !dbg !10796
  %sub164 = sub i32 %191, 1, !dbg !10797
  %mul165 = mul i32 4, %sub164, !dbg !10798
  %add166 = add i32 5, %mul165, !dbg !10799
  %192 = load i32, i32* %j148, align 4, !dbg !10800
  %add167 = add i32 %add166, %192, !dbg !10801
  %face_renumber168 = getelementptr inbounds %"class.dealii::FE_Q_Hierarchical", %"class.dealii::FE_Q_Hierarchical"* %this1, i32 0, i32 1, !dbg !10802
  %193 = load i32, i32* %i, align 4, !dbg !10803
  %conv169 = zext i32 %193 to i64, !dbg !10803
  %call170 = call dereferenceable(4) i32* @_ZNKSt6vectorIjSaIjEEixEm(%"class.std::vector.58"* %face_renumber168, i64 %conv169) #4, !dbg !10802
  %194 = load i32, i32* %call170, align 4, !dbg !10802
  %call171 = call dereferenceable(8) double* @_ZN6dealii5TableILi2EdEclEjj(%"class.dealii::Table"* %190, i32 %add167, i32 %194), !dbg !10795
  store double %mul162, double* %call171, align 8, !dbg !10804
  %195 = load %"class.std::vector.19"*, %"class.std::vector.19"** %dofs_subcell.addr, align 8, !dbg !10805
  %call172 = call dereferenceable(96) %"class.dealii::FullMatrix"* @_ZNKSt6vectorIN6dealii10FullMatrixIdEESaIS2_EEixEm(%"class.std::vector.19"* %195, i64 0) #4, !dbg !10805
  %196 = bitcast %"class.dealii::FullMatrix"* %call172 to %"class.dealii::Table"*, !dbg !10805
  %197 = load i32, i32* %i, align 4, !dbg !10806
  %198 = load i32, i32* %dofs_1d, align 4, !dbg !10807
  %rem173 = urem i32 %197, %198, !dbg !10808
  %call174 = call dereferenceable(8) double* @_ZNK6dealii5TableILi2EdEclEjj(%"class.dealii::Table"* %196, i32 0, i32 %rem173), !dbg !10805
  %199 = load double, double* %call174, align 8, !dbg !10805
  %200 = load %"class.std::vector.19"*, %"class.std::vector.19"** %dofs_subcell.addr, align 8, !dbg !10809
  %call175 = call dereferenceable(96) %"class.dealii::FullMatrix"* @_ZNKSt6vectorIN6dealii10FullMatrixIdEESaIS2_EEixEm(%"class.std::vector.19"* %200, i64 1) #4, !dbg !10809
  %201 = bitcast %"class.dealii::FullMatrix"* %call175 to %"class.dealii::Table"*, !dbg !10809
  %202 = load i32, i32* %j148, align 4, !dbg !10810
  %add176 = add i32 2, %202, !dbg !10811
  %203 = load i32, i32* %i, align 4, !dbg !10812
  %204 = load i32, i32* %i, align 4, !dbg !10813
  %205 = load i32, i32* %dofs_1d, align 4, !dbg !10814
  %rem177 = urem i32 %204, %205, !dbg !10815
  %sub178 = sub i32 %203, %rem177, !dbg !10816
  %206 = load i32, i32* %dofs_1d, align 4, !dbg !10817
  %div179 = udiv i32 %sub178, %206, !dbg !10818
  %call180 = call dereferenceable(8) double* @_ZNK6dealii5TableILi2EdEclEjj(%"class.dealii::Table"* %201, i32 %add176, i32 %div179), !dbg !10809
  %207 = load double, double* %call180, align 8, !dbg !10809
  %mul181 = fmul double %199, %207, !dbg !10819
  %208 = bitcast %"class.dealii::FE_Q_Hierarchical"* %this1 to %"class.dealii::FiniteElement"*, !dbg !10820
  %interface_constraints182 = getelementptr inbounds %"class.dealii::FiniteElement", %"class.dealii::FiniteElement"* %208, i32 0, i32 5, !dbg !10820
  %209 = bitcast %"class.dealii::FullMatrix"* %interface_constraints182 to %"class.dealii::Table"*, !dbg !10821
  %210 = load i32, i32* %degree, align 4, !dbg !10822
  %sub183 = sub i32 %210, 1, !dbg !10823
  %mul184 = mul i32 4, %sub183, !dbg !10824
  %add185 = add i32 5, %mul184, !dbg !10825
  %211 = load i32, i32* %degree, align 4, !dbg !10826
  %sub186 = sub i32 %211, 1, !dbg !10827
  %add187 = add i32 %add185, %sub186, !dbg !10828
  %212 = load i32, i32* %j148, align 4, !dbg !10829
  %add188 = add i32 %add187, %212, !dbg !10830
  %face_renumber189 = getelementptr inbounds %"class.dealii::FE_Q_Hierarchical", %"class.dealii::FE_Q_Hierarchical"* %this1, i32 0, i32 1, !dbg !10831
  %213 = load i32, i32* %i, align 4, !dbg !10832
  %conv190 = zext i32 %213 to i64, !dbg !10832
  %call191 = call dereferenceable(4) i32* @_ZNKSt6vectorIjSaIjEEixEm(%"class.std::vector.58"* %face_renumber189, i64 %conv190) #4, !dbg !10831
  %214 = load i32, i32* %call191, align 4, !dbg !10831
  %call192 = call dereferenceable(8) double* @_ZN6dealii5TableILi2EdEclEjj(%"class.dealii::Table"* %209, i32 %add188, i32 %214), !dbg !10821
  store double %mul181, double* %call192, align 8, !dbg !10833
  %215 = load %"class.std::vector.19"*, %"class.std::vector.19"** %dofs_subcell.addr, align 8, !dbg !10834
  %call193 = call dereferenceable(96) %"class.dealii::FullMatrix"* @_ZNKSt6vectorIN6dealii10FullMatrixIdEESaIS2_EEixEm(%"class.std::vector.19"* %215, i64 1) #4, !dbg !10834
  %216 = bitcast %"class.dealii::FullMatrix"* %call193 to %"class.dealii::Table"*, !dbg !10834
  %217 = load i32, i32* %i, align 4, !dbg !10835
  %218 = load i32, i32* %dofs_1d, align 4, !dbg !10836
  %rem194 = urem i32 %217, %218, !dbg !10837
  %call195 = call dereferenceable(8) double* @_ZNK6dealii5TableILi2EdEclEjj(%"class.dealii::Table"* %216, i32 1, i32 %rem194), !dbg !10834
  %219 = load double, double* %call195, align 8, !dbg !10834
  %220 = load %"class.std::vector.19"*, %"class.std::vector.19"** %dofs_subcell.addr, align 8, !dbg !10838
  %call196 = call dereferenceable(96) %"class.dealii::FullMatrix"* @_ZNKSt6vectorIN6dealii10FullMatrixIdEESaIS2_EEixEm(%"class.std::vector.19"* %220, i64 0) #4, !dbg !10838
  %221 = bitcast %"class.dealii::FullMatrix"* %call196 to %"class.dealii::Table"*, !dbg !10838
  %222 = load i32, i32* %j148, align 4, !dbg !10839
  %add197 = add i32 2, %222, !dbg !10840
  %223 = load i32, i32* %i, align 4, !dbg !10841
  %224 = load i32, i32* %i, align 4, !dbg !10842
  %225 = load i32, i32* %dofs_1d, align 4, !dbg !10843
  %rem198 = urem i32 %224, %225, !dbg !10844
  %sub199 = sub i32 %223, %rem198, !dbg !10845
  %226 = load i32, i32* %dofs_1d, align 4, !dbg !10846
  %div200 = udiv i32 %sub199, %226, !dbg !10847
  %call201 = call dereferenceable(8) double* @_ZNK6dealii5TableILi2EdEclEjj(%"class.dealii::Table"* %221, i32 %add197, i32 %div200), !dbg !10838
  %227 = load double, double* %call201, align 8, !dbg !10838
  %mul202 = fmul double %219, %227, !dbg !10848
  %228 = bitcast %"class.dealii::FE_Q_Hierarchical"* %this1 to %"class.dealii::FiniteElement"*, !dbg !10849
  %interface_constraints203 = getelementptr inbounds %"class.dealii::FiniteElement", %"class.dealii::FiniteElement"* %228, i32 0, i32 5, !dbg !10849
  %229 = bitcast %"class.dealii::FullMatrix"* %interface_constraints203 to %"class.dealii::Table"*, !dbg !10850
  %230 = load i32, i32* %degree, align 4, !dbg !10851
  %sub204 = sub i32 %230, 1, !dbg !10852
  %mul205 = mul i32 4, %sub204, !dbg !10853
  %add206 = add i32 5, %mul205, !dbg !10854
  %231 = load i32, i32* %degree, align 4, !dbg !10855
  %sub207 = sub i32 %231, 1, !dbg !10856
  %mul208 = mul i32 2, %sub207, !dbg !10857
  %add209 = add i32 %add206, %mul208, !dbg !10858
  %232 = load i32, i32* %j148, align 4, !dbg !10859
  %add210 = add i32 %add209, %232, !dbg !10860
  %face_renumber211 = getelementptr inbounds %"class.dealii::FE_Q_Hierarchical", %"class.dealii::FE_Q_Hierarchical"* %this1, i32 0, i32 1, !dbg !10861
  %233 = load i32, i32* %i, align 4, !dbg !10862
  %conv212 = zext i32 %233 to i64, !dbg !10862
  %call213 = call dereferenceable(4) i32* @_ZNKSt6vectorIjSaIjEEixEm(%"class.std::vector.58"* %face_renumber211, i64 %conv212) #4, !dbg !10861
  %234 = load i32, i32* %call213, align 4, !dbg !10861
  %call214 = call dereferenceable(8) double* @_ZN6dealii5TableILi2EdEclEjj(%"class.dealii::Table"* %229, i32 %add210, i32 %234), !dbg !10850
  store double %mul202, double* %call214, align 8, !dbg !10863
  %235 = load %"class.std::vector.19"*, %"class.std::vector.19"** %dofs_subcell.addr, align 8, !dbg !10864
  %call215 = call dereferenceable(96) %"class.dealii::FullMatrix"* @_ZNKSt6vectorIN6dealii10FullMatrixIdEESaIS2_EEixEm(%"class.std::vector.19"* %235, i64 1) #4, !dbg !10864
  %236 = bitcast %"class.dealii::FullMatrix"* %call215 to %"class.dealii::Table"*, !dbg !10864
  %237 = load i32, i32* %i, align 4, !dbg !10865
  %238 = load i32, i32* %dofs_1d, align 4, !dbg !10866
  %rem216 = urem i32 %237, %238, !dbg !10867
  %call217 = call dereferenceable(8) double* @_ZNK6dealii5TableILi2EdEclEjj(%"class.dealii::Table"* %236, i32 1, i32 %rem216), !dbg !10864
  %239 = load double, double* %call217, align 8, !dbg !10864
  %240 = load %"class.std::vector.19"*, %"class.std::vector.19"** %dofs_subcell.addr, align 8, !dbg !10868
  %call218 = call dereferenceable(96) %"class.dealii::FullMatrix"* @_ZNKSt6vectorIN6dealii10FullMatrixIdEESaIS2_EEixEm(%"class.std::vector.19"* %240, i64 1) #4, !dbg !10868
  %241 = bitcast %"class.dealii::FullMatrix"* %call218 to %"class.dealii::Table"*, !dbg !10868
  %242 = load i32, i32* %j148, align 4, !dbg !10869
  %add219 = add i32 2, %242, !dbg !10870
  %243 = load i32, i32* %i, align 4, !dbg !10871
  %244 = load i32, i32* %i, align 4, !dbg !10872
  %245 = load i32, i32* %dofs_1d, align 4, !dbg !10873
  %rem220 = urem i32 %244, %245, !dbg !10874
  %sub221 = sub i32 %243, %rem220, !dbg !10875
  %246 = load i32, i32* %dofs_1d, align 4, !dbg !10876
  %div222 = udiv i32 %sub221, %246, !dbg !10877
  %call223 = call dereferenceable(8) double* @_ZNK6dealii5TableILi2EdEclEjj(%"class.dealii::Table"* %241, i32 %add219, i32 %div222), !dbg !10868
  %247 = load double, double* %call223, align 8, !dbg !10868
  %mul224 = fmul double %239, %247, !dbg !10878
  %248 = bitcast %"class.dealii::FE_Q_Hierarchical"* %this1 to %"class.dealii::FiniteElement"*, !dbg !10879
  %interface_constraints225 = getelementptr inbounds %"class.dealii::FiniteElement", %"class.dealii::FiniteElement"* %248, i32 0, i32 5, !dbg !10879
  %249 = bitcast %"class.dealii::FullMatrix"* %interface_constraints225 to %"class.dealii::Table"*, !dbg !10880
  %250 = load i32, i32* %degree, align 4, !dbg !10881
  %sub226 = sub i32 %250, 1, !dbg !10882
  %mul227 = mul i32 4, %sub226, !dbg !10883
  %add228 = add i32 5, %mul227, !dbg !10884
  %251 = load i32, i32* %degree, align 4, !dbg !10885
  %sub229 = sub i32 %251, 1, !dbg !10886
  %mul230 = mul i32 3, %sub229, !dbg !10887
  %add231 = add i32 %add228, %mul230, !dbg !10888
  %252 = load i32, i32* %j148, align 4, !dbg !10889
  %add232 = add i32 %add231, %252, !dbg !10890
  %face_renumber233 = getelementptr inbounds %"class.dealii::FE_Q_Hierarchical", %"class.dealii::FE_Q_Hierarchical"* %this1, i32 0, i32 1, !dbg !10891
  %253 = load i32, i32* %i, align 4, !dbg !10892
  %conv234 = zext i32 %253 to i64, !dbg !10892
  %call235 = call dereferenceable(4) i32* @_ZNKSt6vectorIjSaIjEEixEm(%"class.std::vector.58"* %face_renumber233, i64 %conv234) #4, !dbg !10891
  %254 = load i32, i32* %call235, align 4, !dbg !10891
  %call236 = call dereferenceable(8) double* @_ZN6dealii5TableILi2EdEclEjj(%"class.dealii::Table"* %249, i32 %add232, i32 %254), !dbg !10880
  store double %mul224, double* %call236, align 8, !dbg !10893
  %255 = load %"class.std::vector.19"*, %"class.std::vector.19"** %dofs_subcell.addr, align 8, !dbg !10894
  %call237 = call dereferenceable(96) %"class.dealii::FullMatrix"* @_ZNKSt6vectorIN6dealii10FullMatrixIdEESaIS2_EEixEm(%"class.std::vector.19"* %255, i64 0) #4, !dbg !10894
  %256 = bitcast %"class.dealii::FullMatrix"* %call237 to %"class.dealii::Table"*, !dbg !10894
  %257 = load i32, i32* %j148, align 4, !dbg !10895
  %add238 = add i32 2, %257, !dbg !10896
  %258 = load i32, i32* %i, align 4, !dbg !10897
  %259 = load i32, i32* %dofs_1d, align 4, !dbg !10898
  %rem239 = urem i32 %258, %259, !dbg !10899
  %call240 = call dereferenceable(8) double* @_ZNK6dealii5TableILi2EdEclEjj(%"class.dealii::Table"* %256, i32 %add238, i32 %rem239), !dbg !10894
  %260 = load double, double* %call240, align 8, !dbg !10894
  %261 = load %"class.std::vector.19"*, %"class.std::vector.19"** %dofs_subcell.addr, align 8, !dbg !10900
  %call241 = call dereferenceable(96) %"class.dealii::FullMatrix"* @_ZNKSt6vectorIN6dealii10FullMatrixIdEESaIS2_EEixEm(%"class.std::vector.19"* %261, i64 0) #4, !dbg !10900
  %262 = bitcast %"class.dealii::FullMatrix"* %call241 to %"class.dealii::Table"*, !dbg !10900
  %263 = load i32, i32* %i, align 4, !dbg !10901
  %264 = load i32, i32* %i, align 4, !dbg !10902
  %265 = load i32, i32* %dofs_1d, align 4, !dbg !10903
  %rem242 = urem i32 %264, %265, !dbg !10904
  %sub243 = sub i32 %263, %rem242, !dbg !10905
  %266 = load i32, i32* %dofs_1d, align 4, !dbg !10906
  %div244 = udiv i32 %sub243, %266, !dbg !10907
  %call245 = call dereferenceable(8) double* @_ZNK6dealii5TableILi2EdEclEjj(%"class.dealii::Table"* %262, i32 0, i32 %div244), !dbg !10900
  %267 = load double, double* %call245, align 8, !dbg !10900
  %mul246 = fmul double %260, %267, !dbg !10908
  %268 = bitcast %"class.dealii::FE_Q_Hierarchical"* %this1 to %"class.dealii::FiniteElement"*, !dbg !10909
  %interface_constraints247 = getelementptr inbounds %"class.dealii::FiniteElement", %"class.dealii::FiniteElement"* %268, i32 0, i32 5, !dbg !10909
  %269 = bitcast %"class.dealii::FullMatrix"* %interface_constraints247 to %"class.dealii::Table"*, !dbg !10910
  %270 = load i32, i32* %degree, align 4, !dbg !10911
  %sub248 = sub i32 %270, 1, !dbg !10912
  %mul249 = mul i32 4, %sub248, !dbg !10913
  %add250 = add i32 5, %mul249, !dbg !10914
  %271 = load i32, i32* %degree, align 4, !dbg !10915
  %sub251 = sub i32 %271, 1, !dbg !10916
  %mul252 = mul i32 4, %sub251, !dbg !10917
  %add253 = add i32 %add250, %mul252, !dbg !10918
  %272 = load i32, i32* %j148, align 4, !dbg !10919
  %add254 = add i32 %add253, %272, !dbg !10920
  %face_renumber255 = getelementptr inbounds %"class.dealii::FE_Q_Hierarchical", %"class.dealii::FE_Q_Hierarchical"* %this1, i32 0, i32 1, !dbg !10921
  %273 = load i32, i32* %i, align 4, !dbg !10922
  %conv256 = zext i32 %273 to i64, !dbg !10922
  %call257 = call dereferenceable(4) i32* @_ZNKSt6vectorIjSaIjEEixEm(%"class.std::vector.58"* %face_renumber255, i64 %conv256) #4, !dbg !10921
  %274 = load i32, i32* %call257, align 4, !dbg !10921
  %call258 = call dereferenceable(8) double* @_ZN6dealii5TableILi2EdEclEjj(%"class.dealii::Table"* %269, i32 %add254, i32 %274), !dbg !10910
  store double %mul246, double* %call258, align 8, !dbg !10923
  %275 = load %"class.std::vector.19"*, %"class.std::vector.19"** %dofs_subcell.addr, align 8, !dbg !10924
  %call259 = call dereferenceable(96) %"class.dealii::FullMatrix"* @_ZNKSt6vectorIN6dealii10FullMatrixIdEESaIS2_EEixEm(%"class.std::vector.19"* %275, i64 1) #4, !dbg !10924
  %276 = bitcast %"class.dealii::FullMatrix"* %call259 to %"class.dealii::Table"*, !dbg !10924
  %277 = load i32, i32* %j148, align 4, !dbg !10925
  %add260 = add i32 2, %277, !dbg !10926
  %278 = load i32, i32* %i, align 4, !dbg !10927
  %279 = load i32, i32* %dofs_1d, align 4, !dbg !10928
  %rem261 = urem i32 %278, %279, !dbg !10929
  %call262 = call dereferenceable(8) double* @_ZNK6dealii5TableILi2EdEclEjj(%"class.dealii::Table"* %276, i32 %add260, i32 %rem261), !dbg !10924
  %280 = load double, double* %call262, align 8, !dbg !10924
  %281 = load %"class.std::vector.19"*, %"class.std::vector.19"** %dofs_subcell.addr, align 8, !dbg !10930
  %call263 = call dereferenceable(96) %"class.dealii::FullMatrix"* @_ZNKSt6vectorIN6dealii10FullMatrixIdEESaIS2_EEixEm(%"class.std::vector.19"* %281, i64 0) #4, !dbg !10930
  %282 = bitcast %"class.dealii::FullMatrix"* %call263 to %"class.dealii::Table"*, !dbg !10930
  %283 = load i32, i32* %i, align 4, !dbg !10931
  %284 = load i32, i32* %i, align 4, !dbg !10932
  %285 = load i32, i32* %dofs_1d, align 4, !dbg !10933
  %rem264 = urem i32 %284, %285, !dbg !10934
  %sub265 = sub i32 %283, %rem264, !dbg !10935
  %286 = load i32, i32* %dofs_1d, align 4, !dbg !10936
  %div266 = udiv i32 %sub265, %286, !dbg !10937
  %call267 = call dereferenceable(8) double* @_ZNK6dealii5TableILi2EdEclEjj(%"class.dealii::Table"* %282, i32 0, i32 %div266), !dbg !10930
  %287 = load double, double* %call267, align 8, !dbg !10930
  %mul268 = fmul double %280, %287, !dbg !10938
  %288 = bitcast %"class.dealii::FE_Q_Hierarchical"* %this1 to %"class.dealii::FiniteElement"*, !dbg !10939
  %interface_constraints269 = getelementptr inbounds %"class.dealii::FiniteElement", %"class.dealii::FiniteElement"* %288, i32 0, i32 5, !dbg !10939
  %289 = bitcast %"class.dealii::FullMatrix"* %interface_constraints269 to %"class.dealii::Table"*, !dbg !10940
  %290 = load i32, i32* %degree, align 4, !dbg !10941
  %sub270 = sub i32 %290, 1, !dbg !10942
  %mul271 = mul i32 4, %sub270, !dbg !10943
  %add272 = add i32 5, %mul271, !dbg !10944
  %291 = load i32, i32* %degree, align 4, !dbg !10945
  %sub273 = sub i32 %291, 1, !dbg !10946
  %mul274 = mul i32 5, %sub273, !dbg !10947
  %add275 = add i32 %add272, %mul274, !dbg !10948
  %292 = load i32, i32* %j148, align 4, !dbg !10949
  %add276 = add i32 %add275, %292, !dbg !10950
  %face_renumber277 = getelementptr inbounds %"class.dealii::FE_Q_Hierarchical", %"class.dealii::FE_Q_Hierarchical"* %this1, i32 0, i32 1, !dbg !10951
  %293 = load i32, i32* %i, align 4, !dbg !10952
  %conv278 = zext i32 %293 to i64, !dbg !10952
  %call279 = call dereferenceable(4) i32* @_ZNKSt6vectorIjSaIjEEixEm(%"class.std::vector.58"* %face_renumber277, i64 %conv278) #4, !dbg !10951
  %294 = load i32, i32* %call279, align 4, !dbg !10951
  %call280 = call dereferenceable(8) double* @_ZN6dealii5TableILi2EdEclEjj(%"class.dealii::Table"* %289, i32 %add276, i32 %294), !dbg !10940
  store double %mul268, double* %call280, align 8, !dbg !10953
  %295 = load %"class.std::vector.19"*, %"class.std::vector.19"** %dofs_subcell.addr, align 8, !dbg !10954
  %call281 = call dereferenceable(96) %"class.dealii::FullMatrix"* @_ZNKSt6vectorIN6dealii10FullMatrixIdEESaIS2_EEixEm(%"class.std::vector.19"* %295, i64 0) #4, !dbg !10954
  %296 = bitcast %"class.dealii::FullMatrix"* %call281 to %"class.dealii::Table"*, !dbg !10954
  %297 = load i32, i32* %j148, align 4, !dbg !10955
  %add282 = add i32 2, %297, !dbg !10956
  %298 = load i32, i32* %i, align 4, !dbg !10957
  %299 = load i32, i32* %dofs_1d, align 4, !dbg !10958
  %rem283 = urem i32 %298, %299, !dbg !10959
  %call284 = call dereferenceable(8) double* @_ZNK6dealii5TableILi2EdEclEjj(%"class.dealii::Table"* %296, i32 %add282, i32 %rem283), !dbg !10954
  %300 = load double, double* %call284, align 8, !dbg !10954
  %301 = load %"class.std::vector.19"*, %"class.std::vector.19"** %dofs_subcell.addr, align 8, !dbg !10960
  %call285 = call dereferenceable(96) %"class.dealii::FullMatrix"* @_ZNKSt6vectorIN6dealii10FullMatrixIdEESaIS2_EEixEm(%"class.std::vector.19"* %301, i64 1) #4, !dbg !10960
  %302 = bitcast %"class.dealii::FullMatrix"* %call285 to %"class.dealii::Table"*, !dbg !10960
  %303 = load i32, i32* %i, align 4, !dbg !10961
  %304 = load i32, i32* %i, align 4, !dbg !10962
  %305 = load i32, i32* %dofs_1d, align 4, !dbg !10963
  %rem286 = urem i32 %304, %305, !dbg !10964
  %sub287 = sub i32 %303, %rem286, !dbg !10965
  %306 = load i32, i32* %dofs_1d, align 4, !dbg !10966
  %div288 = udiv i32 %sub287, %306, !dbg !10967
  %call289 = call dereferenceable(8) double* @_ZNK6dealii5TableILi2EdEclEjj(%"class.dealii::Table"* %302, i32 1, i32 %div288), !dbg !10960
  %307 = load double, double* %call289, align 8, !dbg !10960
  %mul290 = fmul double %300, %307, !dbg !10968
  %308 = bitcast %"class.dealii::FE_Q_Hierarchical"* %this1 to %"class.dealii::FiniteElement"*, !dbg !10969
  %interface_constraints291 = getelementptr inbounds %"class.dealii::FiniteElement", %"class.dealii::FiniteElement"* %308, i32 0, i32 5, !dbg !10969
  %309 = bitcast %"class.dealii::FullMatrix"* %interface_constraints291 to %"class.dealii::Table"*, !dbg !10970
  %310 = load i32, i32* %degree, align 4, !dbg !10971
  %sub292 = sub i32 %310, 1, !dbg !10972
  %mul293 = mul i32 4, %sub292, !dbg !10973
  %add294 = add i32 5, %mul293, !dbg !10974
  %311 = load i32, i32* %degree, align 4, !dbg !10975
  %sub295 = sub i32 %311, 1, !dbg !10976
  %mul296 = mul i32 6, %sub295, !dbg !10977
  %add297 = add i32 %add294, %mul296, !dbg !10978
  %312 = load i32, i32* %j148, align 4, !dbg !10979
  %add298 = add i32 %add297, %312, !dbg !10980
  %face_renumber299 = getelementptr inbounds %"class.dealii::FE_Q_Hierarchical", %"class.dealii::FE_Q_Hierarchical"* %this1, i32 0, i32 1, !dbg !10981
  %313 = load i32, i32* %i, align 4, !dbg !10982
  %conv300 = zext i32 %313 to i64, !dbg !10982
  %call301 = call dereferenceable(4) i32* @_ZNKSt6vectorIjSaIjEEixEm(%"class.std::vector.58"* %face_renumber299, i64 %conv300) #4, !dbg !10981
  %314 = load i32, i32* %call301, align 4, !dbg !10981
  %call302 = call dereferenceable(8) double* @_ZN6dealii5TableILi2EdEclEjj(%"class.dealii::Table"* %309, i32 %add298, i32 %314), !dbg !10970
  store double %mul290, double* %call302, align 8, !dbg !10983
  %315 = load %"class.std::vector.19"*, %"class.std::vector.19"** %dofs_subcell.addr, align 8, !dbg !10984
  %call303 = call dereferenceable(96) %"class.dealii::FullMatrix"* @_ZNKSt6vectorIN6dealii10FullMatrixIdEESaIS2_EEixEm(%"class.std::vector.19"* %315, i64 1) #4, !dbg !10984
  %316 = bitcast %"class.dealii::FullMatrix"* %call303 to %"class.dealii::Table"*, !dbg !10984
  %317 = load i32, i32* %j148, align 4, !dbg !10985
  %add304 = add i32 2, %317, !dbg !10986
  %318 = load i32, i32* %i, align 4, !dbg !10987
  %319 = load i32, i32* %dofs_1d, align 4, !dbg !10988
  %rem305 = urem i32 %318, %319, !dbg !10989
  %call306 = call dereferenceable(8) double* @_ZNK6dealii5TableILi2EdEclEjj(%"class.dealii::Table"* %316, i32 %add304, i32 %rem305), !dbg !10984
  %320 = load double, double* %call306, align 8, !dbg !10984
  %321 = load %"class.std::vector.19"*, %"class.std::vector.19"** %dofs_subcell.addr, align 8, !dbg !10990
  %call307 = call dereferenceable(96) %"class.dealii::FullMatrix"* @_ZNKSt6vectorIN6dealii10FullMatrixIdEESaIS2_EEixEm(%"class.std::vector.19"* %321, i64 1) #4, !dbg !10990
  %322 = bitcast %"class.dealii::FullMatrix"* %call307 to %"class.dealii::Table"*, !dbg !10990
  %323 = load i32, i32* %i, align 4, !dbg !10991
  %324 = load i32, i32* %i, align 4, !dbg !10992
  %325 = load i32, i32* %dofs_1d, align 4, !dbg !10993
  %rem308 = urem i32 %324, %325, !dbg !10994
  %sub309 = sub i32 %323, %rem308, !dbg !10995
  %326 = load i32, i32* %dofs_1d, align 4, !dbg !10996
  %div310 = udiv i32 %sub309, %326, !dbg !10997
  %call311 = call dereferenceable(8) double* @_ZNK6dealii5TableILi2EdEclEjj(%"class.dealii::Table"* %322, i32 1, i32 %div310), !dbg !10990
  %327 = load double, double* %call311, align 8, !dbg !10990
  %mul312 = fmul double %320, %327, !dbg !10998
  %328 = bitcast %"class.dealii::FE_Q_Hierarchical"* %this1 to %"class.dealii::FiniteElement"*, !dbg !10999
  %interface_constraints313 = getelementptr inbounds %"class.dealii::FiniteElement", %"class.dealii::FiniteElement"* %328, i32 0, i32 5, !dbg !10999
  %329 = bitcast %"class.dealii::FullMatrix"* %interface_constraints313 to %"class.dealii::Table"*, !dbg !11000
  %330 = load i32, i32* %degree, align 4, !dbg !11001
  %sub314 = sub i32 %330, 1, !dbg !11002
  %mul315 = mul i32 4, %sub314, !dbg !11003
  %add316 = add i32 5, %mul315, !dbg !11004
  %331 = load i32, i32* %degree, align 4, !dbg !11005
  %sub317 = sub i32 %331, 1, !dbg !11006
  %mul318 = mul i32 7, %sub317, !dbg !11007
  %add319 = add i32 %add316, %mul318, !dbg !11008
  %332 = load i32, i32* %j148, align 4, !dbg !11009
  %add320 = add i32 %add319, %332, !dbg !11010
  %face_renumber321 = getelementptr inbounds %"class.dealii::FE_Q_Hierarchical", %"class.dealii::FE_Q_Hierarchical"* %this1, i32 0, i32 1, !dbg !11011
  %333 = load i32, i32* %i, align 4, !dbg !11012
  %conv322 = zext i32 %333 to i64, !dbg !11012
  %call323 = call dereferenceable(4) i32* @_ZNKSt6vectorIjSaIjEEixEm(%"class.std::vector.58"* %face_renumber321, i64 %conv322) #4, !dbg !11011
  %334 = load i32, i32* %call323, align 4, !dbg !11011
  %call324 = call dereferenceable(8) double* @_ZN6dealii5TableILi2EdEclEjj(%"class.dealii::Table"* %329, i32 %add320, i32 %334), !dbg !11000
  store double %mul312, double* %call324, align 8, !dbg !11013
  br label %for.inc325, !dbg !11014

for.inc325:                                       ; preds = %for.body152
  %335 = load i32, i32* %j148, align 4, !dbg !11015
  %inc326 = add i32 %335, 1, !dbg !11015
  store i32 %inc326, i32* %j148, align 4, !dbg !11015
  br label %for.cond149, !dbg !11016, !llvm.loop !11017

for.end327:                                       ; preds = %for.cond149
  call void @llvm.dbg.declare(metadata i32* %j328, metadata !11019, metadata !DIExpression()), !dbg !11021
  store i32 0, i32* %j328, align 4, !dbg !11021
  br label %for.cond329, !dbg !11022

for.cond329:                                      ; preds = %for.inc446, %for.end327
  %336 = load i32, i32* %j328, align 4, !dbg !11023
  %337 = load i32, i32* %degree, align 4, !dbg !11025
  %sub330 = sub i32 %337, 1, !dbg !11026
  %cmp331 = icmp ult i32 %336, %sub330, !dbg !11027
  br i1 %cmp331, label %for.body332, label %for.end448, !dbg !11028

for.body332:                                      ; preds = %for.cond329
  call void @llvm.dbg.declare(metadata i32* %k, metadata !11029, metadata !DIExpression()), !dbg !11031
  store i32 0, i32* %k, align 4, !dbg !11031
  br label %for.cond333, !dbg !11032

for.cond333:                                      ; preds = %for.inc443, %for.body332
  %338 = load i32, i32* %k, align 4, !dbg !11033
  %339 = load i32, i32* %degree, align 4, !dbg !11035
  %sub334 = sub i32 %339, 1, !dbg !11036
  %cmp335 = icmp ult i32 %338, %sub334, !dbg !11037
  br i1 %cmp335, label %for.body336, label %for.end445, !dbg !11038

for.body336:                                      ; preds = %for.cond333
  %340 = load %"class.std::vector.19"*, %"class.std::vector.19"** %dofs_subcell.addr, align 8, !dbg !11039
  %call337 = call dereferenceable(96) %"class.dealii::FullMatrix"* @_ZNKSt6vectorIN6dealii10FullMatrixIdEESaIS2_EEixEm(%"class.std::vector.19"* %340, i64 0) #4, !dbg !11039
  %341 = bitcast %"class.dealii::FullMatrix"* %call337 to %"class.dealii::Table"*, !dbg !11039
  %342 = load i32, i32* %j328, align 4, !dbg !11041
  %add338 = add i32 2, %342, !dbg !11042
  %343 = load i32, i32* %i, align 4, !dbg !11043
  %344 = load i32, i32* %dofs_1d, align 4, !dbg !11044
  %rem339 = urem i32 %343, %344, !dbg !11045
  %call340 = call dereferenceable(8) double* @_ZNK6dealii5TableILi2EdEclEjj(%"class.dealii::Table"* %341, i32 %add338, i32 %rem339), !dbg !11039
  %345 = load double, double* %call340, align 8, !dbg !11039
  %346 = load %"class.std::vector.19"*, %"class.std::vector.19"** %dofs_subcell.addr, align 8, !dbg !11046
  %call341 = call dereferenceable(96) %"class.dealii::FullMatrix"* @_ZNKSt6vectorIN6dealii10FullMatrixIdEESaIS2_EEixEm(%"class.std::vector.19"* %346, i64 0) #4, !dbg !11046
  %347 = bitcast %"class.dealii::FullMatrix"* %call341 to %"class.dealii::Table"*, !dbg !11046
  %348 = load i32, i32* %k, align 4, !dbg !11047
  %add342 = add i32 2, %348, !dbg !11048
  %349 = load i32, i32* %i, align 4, !dbg !11049
  %350 = load i32, i32* %i, align 4, !dbg !11050
  %351 = load i32, i32* %dofs_1d, align 4, !dbg !11051
  %rem343 = urem i32 %350, %351, !dbg !11052
  %sub344 = sub i32 %349, %rem343, !dbg !11053
  %352 = load i32, i32* %dofs_1d, align 4, !dbg !11054
  %div345 = udiv i32 %sub344, %352, !dbg !11055
  %call346 = call dereferenceable(8) double* @_ZNK6dealii5TableILi2EdEclEjj(%"class.dealii::Table"* %347, i32 %add342, i32 %div345), !dbg !11046
  %353 = load double, double* %call346, align 8, !dbg !11046
  %mul347 = fmul double %345, %353, !dbg !11056
  %354 = bitcast %"class.dealii::FE_Q_Hierarchical"* %this1 to %"class.dealii::FiniteElement"*, !dbg !11057
  %interface_constraints348 = getelementptr inbounds %"class.dealii::FiniteElement", %"class.dealii::FiniteElement"* %354, i32 0, i32 5, !dbg !11057
  %355 = bitcast %"class.dealii::FullMatrix"* %interface_constraints348 to %"class.dealii::Table"*, !dbg !11058
  %356 = load i32, i32* %degree, align 4, !dbg !11059
  %sub349 = sub i32 %356, 1, !dbg !11060
  %mul350 = mul i32 12, %sub349, !dbg !11061
  %add351 = add i32 5, %mul350, !dbg !11062
  %357 = load i32, i32* %j328, align 4, !dbg !11063
  %add352 = add i32 %add351, %357, !dbg !11064
  %358 = load i32, i32* %k, align 4, !dbg !11065
  %359 = load i32, i32* %degree, align 4, !dbg !11066
  %sub353 = sub i32 %359, 1, !dbg !11067
  %mul354 = mul i32 %358, %sub353, !dbg !11068
  %add355 = add i32 %add352, %mul354, !dbg !11069
  %face_renumber356 = getelementptr inbounds %"class.dealii::FE_Q_Hierarchical", %"class.dealii::FE_Q_Hierarchical"* %this1, i32 0, i32 1, !dbg !11070
  %360 = load i32, i32* %i, align 4, !dbg !11071
  %conv357 = zext i32 %360 to i64, !dbg !11071
  %call358 = call dereferenceable(4) i32* @_ZNKSt6vectorIjSaIjEEixEm(%"class.std::vector.58"* %face_renumber356, i64 %conv357) #4, !dbg !11070
  %361 = load i32, i32* %call358, align 4, !dbg !11070
  %call359 = call dereferenceable(8) double* @_ZN6dealii5TableILi2EdEclEjj(%"class.dealii::Table"* %355, i32 %add355, i32 %361), !dbg !11058
  store double %mul347, double* %call359, align 8, !dbg !11072
  %362 = load %"class.std::vector.19"*, %"class.std::vector.19"** %dofs_subcell.addr, align 8, !dbg !11073
  %call360 = call dereferenceable(96) %"class.dealii::FullMatrix"* @_ZNKSt6vectorIN6dealii10FullMatrixIdEESaIS2_EEixEm(%"class.std::vector.19"* %362, i64 1) #4, !dbg !11073
  %363 = bitcast %"class.dealii::FullMatrix"* %call360 to %"class.dealii::Table"*, !dbg !11073
  %364 = load i32, i32* %j328, align 4, !dbg !11074
  %add361 = add i32 2, %364, !dbg !11075
  %365 = load i32, i32* %i, align 4, !dbg !11076
  %366 = load i32, i32* %dofs_1d, align 4, !dbg !11077
  %rem362 = urem i32 %365, %366, !dbg !11078
  %call363 = call dereferenceable(8) double* @_ZNK6dealii5TableILi2EdEclEjj(%"class.dealii::Table"* %363, i32 %add361, i32 %rem362), !dbg !11073
  %367 = load double, double* %call363, align 8, !dbg !11073
  %368 = load %"class.std::vector.19"*, %"class.std::vector.19"** %dofs_subcell.addr, align 8, !dbg !11079
  %call364 = call dereferenceable(96) %"class.dealii::FullMatrix"* @_ZNKSt6vectorIN6dealii10FullMatrixIdEESaIS2_EEixEm(%"class.std::vector.19"* %368, i64 0) #4, !dbg !11079
  %369 = bitcast %"class.dealii::FullMatrix"* %call364 to %"class.dealii::Table"*, !dbg !11079
  %370 = load i32, i32* %k, align 4, !dbg !11080
  %add365 = add i32 2, %370, !dbg !11081
  %371 = load i32, i32* %i, align 4, !dbg !11082
  %372 = load i32, i32* %i, align 4, !dbg !11083
  %373 = load i32, i32* %dofs_1d, align 4, !dbg !11084
  %rem366 = urem i32 %372, %373, !dbg !11085
  %sub367 = sub i32 %371, %rem366, !dbg !11086
  %374 = load i32, i32* %dofs_1d, align 4, !dbg !11087
  %div368 = udiv i32 %sub367, %374, !dbg !11088
  %call369 = call dereferenceable(8) double* @_ZNK6dealii5TableILi2EdEclEjj(%"class.dealii::Table"* %369, i32 %add365, i32 %div368), !dbg !11079
  %375 = load double, double* %call369, align 8, !dbg !11079
  %mul370 = fmul double %367, %375, !dbg !11089
  %376 = bitcast %"class.dealii::FE_Q_Hierarchical"* %this1 to %"class.dealii::FiniteElement"*, !dbg !11090
  %interface_constraints371 = getelementptr inbounds %"class.dealii::FiniteElement", %"class.dealii::FiniteElement"* %376, i32 0, i32 5, !dbg !11090
  %377 = bitcast %"class.dealii::FullMatrix"* %interface_constraints371 to %"class.dealii::Table"*, !dbg !11091
  %378 = load i32, i32* %degree, align 4, !dbg !11092
  %sub372 = sub i32 %378, 1, !dbg !11093
  %mul373 = mul i32 12, %sub372, !dbg !11094
  %add374 = add i32 5, %mul373, !dbg !11095
  %379 = load i32, i32* %j328, align 4, !dbg !11096
  %add375 = add i32 %add374, %379, !dbg !11097
  %380 = load i32, i32* %k, align 4, !dbg !11098
  %381 = load i32, i32* %degree, align 4, !dbg !11099
  %sub376 = sub i32 %381, 1, !dbg !11100
  %mul377 = mul i32 %380, %sub376, !dbg !11101
  %add378 = add i32 %add375, %mul377, !dbg !11102
  %382 = load i32, i32* %degree, align 4, !dbg !11103
  %sub379 = sub i32 %382, 1, !dbg !11104
  %383 = load i32, i32* %degree, align 4, !dbg !11105
  %sub380 = sub i32 %383, 1, !dbg !11106
  %mul381 = mul i32 %sub379, %sub380, !dbg !11107
  %add382 = add i32 %add378, %mul381, !dbg !11108
  %face_renumber383 = getelementptr inbounds %"class.dealii::FE_Q_Hierarchical", %"class.dealii::FE_Q_Hierarchical"* %this1, i32 0, i32 1, !dbg !11109
  %384 = load i32, i32* %i, align 4, !dbg !11110
  %conv384 = zext i32 %384 to i64, !dbg !11110
  %call385 = call dereferenceable(4) i32* @_ZNKSt6vectorIjSaIjEEixEm(%"class.std::vector.58"* %face_renumber383, i64 %conv384) #4, !dbg !11109
  %385 = load i32, i32* %call385, align 4, !dbg !11109
  %call386 = call dereferenceable(8) double* @_ZN6dealii5TableILi2EdEclEjj(%"class.dealii::Table"* %377, i32 %add382, i32 %385), !dbg !11091
  store double %mul370, double* %call386, align 8, !dbg !11111
  %386 = load %"class.std::vector.19"*, %"class.std::vector.19"** %dofs_subcell.addr, align 8, !dbg !11112
  %call387 = call dereferenceable(96) %"class.dealii::FullMatrix"* @_ZNKSt6vectorIN6dealii10FullMatrixIdEESaIS2_EEixEm(%"class.std::vector.19"* %386, i64 0) #4, !dbg !11112
  %387 = bitcast %"class.dealii::FullMatrix"* %call387 to %"class.dealii::Table"*, !dbg !11112
  %388 = load i32, i32* %j328, align 4, !dbg !11113
  %add388 = add i32 2, %388, !dbg !11114
  %389 = load i32, i32* %i, align 4, !dbg !11115
  %390 = load i32, i32* %dofs_1d, align 4, !dbg !11116
  %rem389 = urem i32 %389, %390, !dbg !11117
  %call390 = call dereferenceable(8) double* @_ZNK6dealii5TableILi2EdEclEjj(%"class.dealii::Table"* %387, i32 %add388, i32 %rem389), !dbg !11112
  %391 = load double, double* %call390, align 8, !dbg !11112
  %392 = load %"class.std::vector.19"*, %"class.std::vector.19"** %dofs_subcell.addr, align 8, !dbg !11118
  %call391 = call dereferenceable(96) %"class.dealii::FullMatrix"* @_ZNKSt6vectorIN6dealii10FullMatrixIdEESaIS2_EEixEm(%"class.std::vector.19"* %392, i64 1) #4, !dbg !11118
  %393 = bitcast %"class.dealii::FullMatrix"* %call391 to %"class.dealii::Table"*, !dbg !11118
  %394 = load i32, i32* %k, align 4, !dbg !11119
  %add392 = add i32 2, %394, !dbg !11120
  %395 = load i32, i32* %i, align 4, !dbg !11121
  %396 = load i32, i32* %i, align 4, !dbg !11122
  %397 = load i32, i32* %dofs_1d, align 4, !dbg !11123
  %rem393 = urem i32 %396, %397, !dbg !11124
  %sub394 = sub i32 %395, %rem393, !dbg !11125
  %398 = load i32, i32* %dofs_1d, align 4, !dbg !11126
  %div395 = udiv i32 %sub394, %398, !dbg !11127
  %call396 = call dereferenceable(8) double* @_ZNK6dealii5TableILi2EdEclEjj(%"class.dealii::Table"* %393, i32 %add392, i32 %div395), !dbg !11118
  %399 = load double, double* %call396, align 8, !dbg !11118
  %mul397 = fmul double %391, %399, !dbg !11128
  %400 = bitcast %"class.dealii::FE_Q_Hierarchical"* %this1 to %"class.dealii::FiniteElement"*, !dbg !11129
  %interface_constraints398 = getelementptr inbounds %"class.dealii::FiniteElement", %"class.dealii::FiniteElement"* %400, i32 0, i32 5, !dbg !11129
  %401 = bitcast %"class.dealii::FullMatrix"* %interface_constraints398 to %"class.dealii::Table"*, !dbg !11130
  %402 = load i32, i32* %degree, align 4, !dbg !11131
  %sub399 = sub i32 %402, 1, !dbg !11132
  %mul400 = mul i32 12, %sub399, !dbg !11133
  %add401 = add i32 5, %mul400, !dbg !11134
  %403 = load i32, i32* %j328, align 4, !dbg !11135
  %add402 = add i32 %add401, %403, !dbg !11136
  %404 = load i32, i32* %k, align 4, !dbg !11137
  %405 = load i32, i32* %degree, align 4, !dbg !11138
  %sub403 = sub i32 %405, 1, !dbg !11139
  %mul404 = mul i32 %404, %sub403, !dbg !11140
  %add405 = add i32 %add402, %mul404, !dbg !11141
  %406 = load i32, i32* %degree, align 4, !dbg !11142
  %sub406 = sub i32 %406, 1, !dbg !11143
  %mul407 = mul i32 2, %sub406, !dbg !11144
  %407 = load i32, i32* %degree, align 4, !dbg !11145
  %sub408 = sub i32 %407, 1, !dbg !11146
  %mul409 = mul i32 %mul407, %sub408, !dbg !11147
  %add410 = add i32 %add405, %mul409, !dbg !11148
  %face_renumber411 = getelementptr inbounds %"class.dealii::FE_Q_Hierarchical", %"class.dealii::FE_Q_Hierarchical"* %this1, i32 0, i32 1, !dbg !11149
  %408 = load i32, i32* %i, align 4, !dbg !11150
  %conv412 = zext i32 %408 to i64, !dbg !11150
  %call413 = call dereferenceable(4) i32* @_ZNKSt6vectorIjSaIjEEixEm(%"class.std::vector.58"* %face_renumber411, i64 %conv412) #4, !dbg !11149
  %409 = load i32, i32* %call413, align 4, !dbg !11149
  %call414 = call dereferenceable(8) double* @_ZN6dealii5TableILi2EdEclEjj(%"class.dealii::Table"* %401, i32 %add410, i32 %409), !dbg !11130
  store double %mul397, double* %call414, align 8, !dbg !11151
  %410 = load %"class.std::vector.19"*, %"class.std::vector.19"** %dofs_subcell.addr, align 8, !dbg !11152
  %call415 = call dereferenceable(96) %"class.dealii::FullMatrix"* @_ZNKSt6vectorIN6dealii10FullMatrixIdEESaIS2_EEixEm(%"class.std::vector.19"* %410, i64 1) #4, !dbg !11152
  %411 = bitcast %"class.dealii::FullMatrix"* %call415 to %"class.dealii::Table"*, !dbg !11152
  %412 = load i32, i32* %j328, align 4, !dbg !11153
  %add416 = add i32 2, %412, !dbg !11154
  %413 = load i32, i32* %i, align 4, !dbg !11155
  %414 = load i32, i32* %dofs_1d, align 4, !dbg !11156
  %rem417 = urem i32 %413, %414, !dbg !11157
  %call418 = call dereferenceable(8) double* @_ZNK6dealii5TableILi2EdEclEjj(%"class.dealii::Table"* %411, i32 %add416, i32 %rem417), !dbg !11152
  %415 = load double, double* %call418, align 8, !dbg !11152
  %416 = load %"class.std::vector.19"*, %"class.std::vector.19"** %dofs_subcell.addr, align 8, !dbg !11158
  %call419 = call dereferenceable(96) %"class.dealii::FullMatrix"* @_ZNKSt6vectorIN6dealii10FullMatrixIdEESaIS2_EEixEm(%"class.std::vector.19"* %416, i64 1) #4, !dbg !11158
  %417 = bitcast %"class.dealii::FullMatrix"* %call419 to %"class.dealii::Table"*, !dbg !11158
  %418 = load i32, i32* %k, align 4, !dbg !11159
  %add420 = add i32 2, %418, !dbg !11160
  %419 = load i32, i32* %i, align 4, !dbg !11161
  %420 = load i32, i32* %i, align 4, !dbg !11162
  %421 = load i32, i32* %dofs_1d, align 4, !dbg !11163
  %rem421 = urem i32 %420, %421, !dbg !11164
  %sub422 = sub i32 %419, %rem421, !dbg !11165
  %422 = load i32, i32* %dofs_1d, align 4, !dbg !11166
  %div423 = udiv i32 %sub422, %422, !dbg !11167
  %call424 = call dereferenceable(8) double* @_ZNK6dealii5TableILi2EdEclEjj(%"class.dealii::Table"* %417, i32 %add420, i32 %div423), !dbg !11158
  %423 = load double, double* %call424, align 8, !dbg !11158
  %mul425 = fmul double %415, %423, !dbg !11168
  %424 = bitcast %"class.dealii::FE_Q_Hierarchical"* %this1 to %"class.dealii::FiniteElement"*, !dbg !11169
  %interface_constraints426 = getelementptr inbounds %"class.dealii::FiniteElement", %"class.dealii::FiniteElement"* %424, i32 0, i32 5, !dbg !11169
  %425 = bitcast %"class.dealii::FullMatrix"* %interface_constraints426 to %"class.dealii::Table"*, !dbg !11170
  %426 = load i32, i32* %degree, align 4, !dbg !11171
  %sub427 = sub i32 %426, 1, !dbg !11172
  %mul428 = mul i32 12, %sub427, !dbg !11173
  %add429 = add i32 5, %mul428, !dbg !11174
  %427 = load i32, i32* %j328, align 4, !dbg !11175
  %add430 = add i32 %add429, %427, !dbg !11176
  %428 = load i32, i32* %k, align 4, !dbg !11177
  %429 = load i32, i32* %degree, align 4, !dbg !11178
  %sub431 = sub i32 %429, 1, !dbg !11179
  %mul432 = mul i32 %428, %sub431, !dbg !11180
  %add433 = add i32 %add430, %mul432, !dbg !11181
  %430 = load i32, i32* %degree, align 4, !dbg !11182
  %sub434 = sub i32 %430, 1, !dbg !11183
  %mul435 = mul i32 3, %sub434, !dbg !11184
  %431 = load i32, i32* %degree, align 4, !dbg !11185
  %sub436 = sub i32 %431, 1, !dbg !11186
  %mul437 = mul i32 %mul435, %sub436, !dbg !11187
  %add438 = add i32 %add433, %mul437, !dbg !11188
  %face_renumber439 = getelementptr inbounds %"class.dealii::FE_Q_Hierarchical", %"class.dealii::FE_Q_Hierarchical"* %this1, i32 0, i32 1, !dbg !11189
  %432 = load i32, i32* %i, align 4, !dbg !11190
  %conv440 = zext i32 %432 to i64, !dbg !11190
  %call441 = call dereferenceable(4) i32* @_ZNKSt6vectorIjSaIjEEixEm(%"class.std::vector.58"* %face_renumber439, i64 %conv440) #4, !dbg !11189
  %433 = load i32, i32* %call441, align 4, !dbg !11189
  %call442 = call dereferenceable(8) double* @_ZN6dealii5TableILi2EdEclEjj(%"class.dealii::Table"* %425, i32 %add438, i32 %433), !dbg !11170
  store double %mul425, double* %call442, align 8, !dbg !11191
  br label %for.inc443, !dbg !11192

for.inc443:                                       ; preds = %for.body336
  %434 = load i32, i32* %k, align 4, !dbg !11193
  %inc444 = add i32 %434, 1, !dbg !11193
  store i32 %inc444, i32* %k, align 4, !dbg !11193
  br label %for.cond333, !dbg !11194, !llvm.loop !11195

for.end445:                                       ; preds = %for.cond333
  br label %for.inc446, !dbg !11196

for.inc446:                                       ; preds = %for.end445
  %435 = load i32, i32* %j328, align 4, !dbg !11197
  %inc447 = add i32 %435, 1, !dbg !11197
  store i32 %inc447, i32* %j328, align 4, !dbg !11197
  br label %for.cond329, !dbg !11198, !llvm.loop !11199

for.end448:                                       ; preds = %for.cond329
  br label %for.inc449, !dbg !11201

for.inc449:                                       ; preds = %for.end448
  %436 = load i32, i32* %i, align 4, !dbg !11202
  %inc450 = add i32 %436, 1, !dbg !11202
  store i32 %inc450, i32* %i, align 4, !dbg !11202
  br label %for.cond, !dbg !11203, !llvm.loop !11204

for.end451:                                       ; preds = %for.cond
  ret void, !dbg !11206
}

; Function Attrs: noinline uwtable
define weak_odr dso_local void @_ZN6dealii17FE_Q_HierarchicalILi3EE36initialize_embedding_and_restrictionERKSt6vectorINS_10FullMatrixIdEESaIS4_EES8_(%"class.dealii::FE_Q_Hierarchical"* %this, %"class.std::vector.19"* dereferenceable(24) %dofs_cell, %"class.std::vector.19"* dereferenceable(24) %dofs_subcell) #0 comdat align 2 !dbg !11207 {
entry:
  %this.addr = alloca %"class.dealii::FE_Q_Hierarchical"*, align 8
  %dofs_cell.addr = alloca %"class.std::vector.19"*, align 8
  %dofs_subcell.addr = alloca %"class.std::vector.19"*, align 8
  %iso = alloca i32, align 4
  %dofs_1d = alloca i32, align 4
  %renumber = alloca %"class.std::vector.58"*, align 8
  %c = alloca i32, align 4
  %j = alloca i32, align 4
  %i = alloca i32, align 4
  %c27 = alloca i32, align 4
  %c0 = alloca i32, align 4
  %c1 = alloca i32, align 4
  %c2 = alloca i32, align 4
  store %"class.dealii::FE_Q_Hierarchical"* %this, %"class.dealii::FE_Q_Hierarchical"** %this.addr, align 8
  call void @llvm.dbg.declare(metadata %"class.dealii::FE_Q_Hierarchical"** %this.addr, metadata !11208, metadata !DIExpression()), !dbg !11209
  store %"class.std::vector.19"* %dofs_cell, %"class.std::vector.19"** %dofs_cell.addr, align 8
  call void @llvm.dbg.declare(metadata %"class.std::vector.19"** %dofs_cell.addr, metadata !11210, metadata !DIExpression()), !dbg !11211
  store %"class.std::vector.19"* %dofs_subcell, %"class.std::vector.19"** %dofs_subcell.addr, align 8
  call void @llvm.dbg.declare(metadata %"class.std::vector.19"** %dofs_subcell.addr, metadata !11212, metadata !DIExpression()), !dbg !11213
  %this1 = load %"class.dealii::FE_Q_Hierarchical"*, %"class.dealii::FE_Q_Hierarchical"** %this.addr, align 8
  call void @llvm.dbg.declare(metadata i32* %iso, metadata !11214, metadata !DIExpression()), !dbg !11215
  store i32 6, i32* %iso, align 4, !dbg !11215
  call void @llvm.dbg.declare(metadata i32* %dofs_1d, metadata !11216, metadata !DIExpression()), !dbg !11217
  %0 = bitcast %"class.dealii::FE_Q_Hierarchical"* %this1 to i8*, !dbg !11218
  %add.ptr = getelementptr inbounds i8, i8* %0, i64 72, !dbg !11218
  %1 = bitcast i8* %add.ptr to %"class.dealii::FiniteElementData"*, !dbg !11218
  %dofs_per_vertex = getelementptr inbounds %"class.dealii::FiniteElementData", %"class.dealii::FiniteElementData"* %1, i32 0, i32 0, !dbg !11218
  %2 = load i32, i32* %dofs_per_vertex, align 8, !dbg !11218
  %mul = mul i32 2, %2, !dbg !11219
  %3 = bitcast %"class.dealii::FE_Q_Hierarchical"* %this1 to i8*, !dbg !11220
  %add.ptr2 = getelementptr inbounds i8, i8* %3, i64 72, !dbg !11220
  %4 = bitcast i8* %add.ptr2 to %"class.dealii::FiniteElementData"*, !dbg !11220
  %dofs_per_line = getelementptr inbounds %"class.dealii::FiniteElementData", %"class.dealii::FiniteElementData"* %4, i32 0, i32 1, !dbg !11220
  %5 = load i32, i32* %dofs_per_line, align 4, !dbg !11220
  %add = add i32 %mul, %5, !dbg !11221
  store i32 %add, i32* %dofs_1d, align 4, !dbg !11217
  call void @llvm.dbg.declare(metadata %"class.std::vector.58"** %renumber, metadata !11222, metadata !DIExpression()), !dbg !11223
  %6 = bitcast %"class.dealii::FE_Q_Hierarchical"* %this1 to %"class.dealii::FE_Poly"*, !dbg !11224
  %poly_space = getelementptr inbounds %"class.dealii::FE_Poly", %"class.dealii::FE_Poly"* %6, i32 0, i32 1, !dbg !11224
  %call = call dereferenceable(24) %"class.std::vector.58"* @_ZNK6dealii24TensorProductPolynomialsILi3EE13get_numberingEv(%"class.dealii::TensorProductPolynomials"* %poly_space), !dbg !11225
  store %"class.std::vector.58"* %call, %"class.std::vector.58"** %renumber, align 8, !dbg !11223
  call void @llvm.dbg.declare(metadata i32* %c, metadata !11226, metadata !DIExpression()), !dbg !11228
  store i32 0, i32* %c, align 4, !dbg !11228
  br label %for.cond, !dbg !11229

for.cond:                                         ; preds = %for.inc, %entry
  %7 = load i32, i32* %c, align 4, !dbg !11230
  %cmp = icmp ult i32 %7, 8, !dbg !11232
  br i1 %cmp, label %for.body, label %for.end, !dbg !11233

for.body:                                         ; preds = %for.cond
  %8 = bitcast %"class.dealii::FE_Q_Hierarchical"* %this1 to %"class.dealii::FiniteElement"*, !dbg !11234
  %prolongation = getelementptr inbounds %"class.dealii::FiniteElement", %"class.dealii::FiniteElement"* %8, i32 0, i32 4, !dbg !11234
  %9 = load i32, i32* %iso, align 4, !dbg !11236
  %conv = zext i32 %9 to i64, !dbg !11236
  %call3 = call dereferenceable(24) %"class.std::vector.19"* @_ZNSt6vectorIS_IN6dealii10FullMatrixIdEESaIS2_EESaIS4_EEixEm(%"class.std::vector"* %prolongation, i64 %conv) #4, !dbg !11237
  %10 = load i32, i32* %c, align 4, !dbg !11238
  %conv4 = zext i32 %10 to i64, !dbg !11238
  %call5 = call dereferenceable(96) %"class.dealii::FullMatrix"* @_ZNSt6vectorIN6dealii10FullMatrixIdEESaIS2_EEixEm(%"class.std::vector.19"* %call3, i64 %conv4) #4, !dbg !11237
  %11 = bitcast %"class.dealii::FullMatrix"* %call5 to %"class.dealii::Table"*, !dbg !11237
  %12 = bitcast %"class.dealii::FE_Q_Hierarchical"* %this1 to i8*, !dbg !11239
  %add.ptr6 = getelementptr inbounds i8, i8* %12, i64 72, !dbg !11239
  %13 = bitcast i8* %add.ptr6 to %"class.dealii::FiniteElementData"*, !dbg !11239
  %dofs_per_cell = getelementptr inbounds %"class.dealii::FiniteElementData", %"class.dealii::FiniteElementData"* %13, i32 0, i32 10, !dbg !11239
  %14 = load i32, i32* %dofs_per_cell, align 8, !dbg !11239
  %15 = bitcast %"class.dealii::FE_Q_Hierarchical"* %this1 to i8*, !dbg !11240
  %add.ptr7 = getelementptr inbounds i8, i8* %15, i64 72, !dbg !11240
  %16 = bitcast i8* %add.ptr7 to %"class.dealii::FiniteElementData"*, !dbg !11240
  %dofs_per_cell8 = getelementptr inbounds %"class.dealii::FiniteElementData", %"class.dealii::FiniteElementData"* %16, i32 0, i32 10, !dbg !11240
  %17 = load i32, i32* %dofs_per_cell8, align 8, !dbg !11240
  call void @_ZN6dealii5TableILi2EdE6reinitEjj(%"class.dealii::Table"* %11, i32 %14, i32 %17), !dbg !11241
  %18 = bitcast %"class.dealii::FE_Q_Hierarchical"* %this1 to %"class.dealii::FiniteElement"*, !dbg !11242
  %restriction = getelementptr inbounds %"class.dealii::FiniteElement", %"class.dealii::FiniteElement"* %18, i32 0, i32 3, !dbg !11242
  %19 = load i32, i32* %iso, align 4, !dbg !11243
  %conv9 = zext i32 %19 to i64, !dbg !11243
  %call10 = call dereferenceable(24) %"class.std::vector.19"* @_ZNSt6vectorIS_IN6dealii10FullMatrixIdEESaIS2_EESaIS4_EEixEm(%"class.std::vector"* %restriction, i64 %conv9) #4, !dbg !11244
  %20 = load i32, i32* %c, align 4, !dbg !11245
  %conv11 = zext i32 %20 to i64, !dbg !11245
  %call12 = call dereferenceable(96) %"class.dealii::FullMatrix"* @_ZNSt6vectorIN6dealii10FullMatrixIdEESaIS2_EEixEm(%"class.std::vector.19"* %call10, i64 %conv11) #4, !dbg !11244
  %21 = bitcast %"class.dealii::FullMatrix"* %call12 to %"class.dealii::Table"*, !dbg !11244
  %22 = bitcast %"class.dealii::FE_Q_Hierarchical"* %this1 to i8*, !dbg !11246
  %add.ptr13 = getelementptr inbounds i8, i8* %22, i64 72, !dbg !11246
  %23 = bitcast i8* %add.ptr13 to %"class.dealii::FiniteElementData"*, !dbg !11246
  %dofs_per_cell14 = getelementptr inbounds %"class.dealii::FiniteElementData", %"class.dealii::FiniteElementData"* %23, i32 0, i32 10, !dbg !11246
  %24 = load i32, i32* %dofs_per_cell14, align 8, !dbg !11246
  %25 = bitcast %"class.dealii::FE_Q_Hierarchical"* %this1 to i8*, !dbg !11247
  %add.ptr15 = getelementptr inbounds i8, i8* %25, i64 72, !dbg !11247
  %26 = bitcast i8* %add.ptr15 to %"class.dealii::FiniteElementData"*, !dbg !11247
  %dofs_per_cell16 = getelementptr inbounds %"class.dealii::FiniteElementData", %"class.dealii::FiniteElementData"* %26, i32 0, i32 10, !dbg !11247
  %27 = load i32, i32* %dofs_per_cell16, align 8, !dbg !11247
  call void @_ZN6dealii5TableILi2EdE6reinitEjj(%"class.dealii::Table"* %21, i32 %24, i32 %27), !dbg !11248
  br label %for.inc, !dbg !11249

for.inc:                                          ; preds = %for.body
  %28 = load i32, i32* %c, align 4, !dbg !11250
  %inc = add i32 %28, 1, !dbg !11250
  store i32 %inc, i32* %c, align 4, !dbg !11250
  br label %for.cond, !dbg !11251, !llvm.loop !11252

for.end:                                          ; preds = %for.cond
  call void @llvm.dbg.declare(metadata i32* %j, metadata !11254, metadata !DIExpression()), !dbg !11256
  store i32 0, i32* %j, align 4, !dbg !11256
  br label %for.cond17, !dbg !11257

for.cond17:                                       ; preds = %for.inc184, %for.end
  %29 = load i32, i32* %j, align 4, !dbg !11258
  %30 = bitcast %"class.dealii::FE_Q_Hierarchical"* %this1 to i8*, !dbg !11260
  %add.ptr18 = getelementptr inbounds i8, i8* %30, i64 72, !dbg !11260
  %31 = bitcast i8* %add.ptr18 to %"class.dealii::FiniteElementData"*, !dbg !11260
  %dofs_per_cell19 = getelementptr inbounds %"class.dealii::FiniteElementData", %"class.dealii::FiniteElementData"* %31, i32 0, i32 10, !dbg !11260
  %32 = load i32, i32* %dofs_per_cell19, align 8, !dbg !11260
  %cmp20 = icmp ult i32 %29, %32, !dbg !11261
  br i1 %cmp20, label %for.body21, label %for.end186, !dbg !11262

for.body21:                                       ; preds = %for.cond17
  call void @llvm.dbg.declare(metadata i32* %i, metadata !11263, metadata !DIExpression()), !dbg !11265
  store i32 0, i32* %i, align 4, !dbg !11265
  br label %for.cond22, !dbg !11266

for.cond22:                                       ; preds = %for.inc181, %for.body21
  %33 = load i32, i32* %i, align 4, !dbg !11267
  %34 = bitcast %"class.dealii::FE_Q_Hierarchical"* %this1 to i8*, !dbg !11269
  %add.ptr23 = getelementptr inbounds i8, i8* %34, i64 72, !dbg !11269
  %35 = bitcast i8* %add.ptr23 to %"class.dealii::FiniteElementData"*, !dbg !11269
  %dofs_per_cell24 = getelementptr inbounds %"class.dealii::FiniteElementData", %"class.dealii::FiniteElementData"* %35, i32 0, i32 10, !dbg !11269
  %36 = load i32, i32* %dofs_per_cell24, align 8, !dbg !11269
  %cmp25 = icmp ult i32 %33, %36, !dbg !11270
  br i1 %cmp25, label %for.body26, label %for.end183, !dbg !11271

for.body26:                                       ; preds = %for.cond22
  call void @llvm.dbg.declare(metadata i32* %c27, metadata !11272, metadata !DIExpression()), !dbg !11274
  store i32 0, i32* %c27, align 4, !dbg !11274
  br label %for.cond28, !dbg !11275

for.cond28:                                       ; preds = %for.inc178, %for.body26
  %37 = load i32, i32* %c27, align 4, !dbg !11276
  %cmp29 = icmp ult i32 %37, 8, !dbg !11278
  br i1 %cmp29, label %for.body30, label %for.end180, !dbg !11279

for.body30:                                       ; preds = %for.cond28
  call void @llvm.dbg.declare(metadata i32* %c0, metadata !11280, metadata !DIExpression()), !dbg !11282
  %38 = load i32, i32* %c27, align 4, !dbg !11283
  %rem = urem i32 %38, 2, !dbg !11284
  store i32 %rem, i32* %c0, align 4, !dbg !11282
  call void @llvm.dbg.declare(metadata i32* %c1, metadata !11285, metadata !DIExpression()), !dbg !11286
  %39 = load i32, i32* %c27, align 4, !dbg !11287
  %rem31 = urem i32 %39, 4, !dbg !11288
  %div = udiv i32 %rem31, 2, !dbg !11289
  store i32 %div, i32* %c1, align 4, !dbg !11286
  call void @llvm.dbg.declare(metadata i32* %c2, metadata !11290, metadata !DIExpression()), !dbg !11291
  %40 = load i32, i32* %c27, align 4, !dbg !11292
  %div32 = udiv i32 %40, 4, !dbg !11293
  store i32 %div32, i32* %c2, align 4, !dbg !11291
  %41 = load %"class.std::vector.19"*, %"class.std::vector.19"** %dofs_subcell.addr, align 8, !dbg !11294
  %42 = load i32, i32* %c0, align 4, !dbg !11295
  %conv33 = zext i32 %42 to i64, !dbg !11295
  %call34 = call dereferenceable(96) %"class.dealii::FullMatrix"* @_ZNKSt6vectorIN6dealii10FullMatrixIdEESaIS2_EEixEm(%"class.std::vector.19"* %41, i64 %conv33) #4, !dbg !11294
  %43 = bitcast %"class.dealii::FullMatrix"* %call34 to %"class.dealii::Table"*, !dbg !11294
  %44 = load %"class.std::vector.58"*, %"class.std::vector.58"** %renumber, align 8, !dbg !11296
  %45 = load i32, i32* %j, align 4, !dbg !11297
  %conv35 = zext i32 %45 to i64, !dbg !11297
  %call36 = call dereferenceable(4) i32* @_ZNKSt6vectorIjSaIjEEixEm(%"class.std::vector.58"* %44, i64 %conv35) #4, !dbg !11296
  %46 = load i32, i32* %call36, align 4, !dbg !11296
  %47 = load i32, i32* %dofs_1d, align 4, !dbg !11298
  %rem37 = urem i32 %46, %47, !dbg !11299
  %48 = load %"class.std::vector.58"*, %"class.std::vector.58"** %renumber, align 8, !dbg !11300
  %49 = load i32, i32* %i, align 4, !dbg !11301
  %conv38 = zext i32 %49 to i64, !dbg !11301
  %call39 = call dereferenceable(4) i32* @_ZNKSt6vectorIjSaIjEEixEm(%"class.std::vector.58"* %48, i64 %conv38) #4, !dbg !11300
  %50 = load i32, i32* %call39, align 4, !dbg !11300
  %51 = load i32, i32* %dofs_1d, align 4, !dbg !11302
  %rem40 = urem i32 %50, %51, !dbg !11303
  %call41 = call dereferenceable(8) double* @_ZNK6dealii5TableILi2EdEclEjj(%"class.dealii::Table"* %43, i32 %rem37, i32 %rem40), !dbg !11294
  %52 = load double, double* %call41, align 8, !dbg !11294
  %53 = load %"class.std::vector.19"*, %"class.std::vector.19"** %dofs_subcell.addr, align 8, !dbg !11304
  %54 = load i32, i32* %c1, align 4, !dbg !11305
  %conv42 = zext i32 %54 to i64, !dbg !11305
  %call43 = call dereferenceable(96) %"class.dealii::FullMatrix"* @_ZNKSt6vectorIN6dealii10FullMatrixIdEESaIS2_EEixEm(%"class.std::vector.19"* %53, i64 %conv42) #4, !dbg !11304
  %55 = bitcast %"class.dealii::FullMatrix"* %call43 to %"class.dealii::Table"*, !dbg !11304
  %56 = load %"class.std::vector.58"*, %"class.std::vector.58"** %renumber, align 8, !dbg !11306
  %57 = load i32, i32* %j, align 4, !dbg !11307
  %conv44 = zext i32 %57 to i64, !dbg !11307
  %call45 = call dereferenceable(4) i32* @_ZNKSt6vectorIjSaIjEEixEm(%"class.std::vector.58"* %56, i64 %conv44) #4, !dbg !11306
  %58 = load i32, i32* %call45, align 4, !dbg !11306
  %59 = load %"class.std::vector.58"*, %"class.std::vector.58"** %renumber, align 8, !dbg !11308
  %60 = load i32, i32* %j, align 4, !dbg !11309
  %conv46 = zext i32 %60 to i64, !dbg !11309
  %call47 = call dereferenceable(4) i32* @_ZNKSt6vectorIjSaIjEEixEm(%"class.std::vector.58"* %59, i64 %conv46) #4, !dbg !11308
  %61 = load i32, i32* %call47, align 4, !dbg !11308
  %62 = load i32, i32* %dofs_1d, align 4, !dbg !11310
  %rem48 = urem i32 %61, %62, !dbg !11311
  %sub = sub i32 %58, %rem48, !dbg !11312
  %63 = load i32, i32* %dofs_1d, align 4, !dbg !11313
  %div49 = udiv i32 %sub, %63, !dbg !11314
  %64 = load i32, i32* %dofs_1d, align 4, !dbg !11315
  %rem50 = urem i32 %div49, %64, !dbg !11316
  %65 = load %"class.std::vector.58"*, %"class.std::vector.58"** %renumber, align 8, !dbg !11317
  %66 = load i32, i32* %i, align 4, !dbg !11318
  %conv51 = zext i32 %66 to i64, !dbg !11318
  %call52 = call dereferenceable(4) i32* @_ZNKSt6vectorIjSaIjEEixEm(%"class.std::vector.58"* %65, i64 %conv51) #4, !dbg !11317
  %67 = load i32, i32* %call52, align 4, !dbg !11317
  %68 = load %"class.std::vector.58"*, %"class.std::vector.58"** %renumber, align 8, !dbg !11319
  %69 = load i32, i32* %i, align 4, !dbg !11320
  %conv53 = zext i32 %69 to i64, !dbg !11320
  %call54 = call dereferenceable(4) i32* @_ZNKSt6vectorIjSaIjEEixEm(%"class.std::vector.58"* %68, i64 %conv53) #4, !dbg !11319
  %70 = load i32, i32* %call54, align 4, !dbg !11319
  %71 = load i32, i32* %dofs_1d, align 4, !dbg !11321
  %rem55 = urem i32 %70, %71, !dbg !11322
  %sub56 = sub i32 %67, %rem55, !dbg !11323
  %72 = load i32, i32* %dofs_1d, align 4, !dbg !11324
  %div57 = udiv i32 %sub56, %72, !dbg !11325
  %73 = load i32, i32* %dofs_1d, align 4, !dbg !11326
  %rem58 = urem i32 %div57, %73, !dbg !11327
  %call59 = call dereferenceable(8) double* @_ZNK6dealii5TableILi2EdEclEjj(%"class.dealii::Table"* %55, i32 %rem50, i32 %rem58), !dbg !11304
  %74 = load double, double* %call59, align 8, !dbg !11304
  %mul60 = fmul double %52, %74, !dbg !11328
  %75 = load %"class.std::vector.19"*, %"class.std::vector.19"** %dofs_subcell.addr, align 8, !dbg !11329
  %76 = load i32, i32* %c2, align 4, !dbg !11330
  %conv61 = zext i32 %76 to i64, !dbg !11330
  %call62 = call dereferenceable(96) %"class.dealii::FullMatrix"* @_ZNKSt6vectorIN6dealii10FullMatrixIdEESaIS2_EEixEm(%"class.std::vector.19"* %75, i64 %conv61) #4, !dbg !11329
  %77 = bitcast %"class.dealii::FullMatrix"* %call62 to %"class.dealii::Table"*, !dbg !11329
  %78 = load %"class.std::vector.58"*, %"class.std::vector.58"** %renumber, align 8, !dbg !11331
  %79 = load i32, i32* %j, align 4, !dbg !11332
  %conv63 = zext i32 %79 to i64, !dbg !11332
  %call64 = call dereferenceable(4) i32* @_ZNKSt6vectorIjSaIjEEixEm(%"class.std::vector.58"* %78, i64 %conv63) #4, !dbg !11331
  %80 = load i32, i32* %call64, align 4, !dbg !11331
  %81 = load %"class.std::vector.58"*, %"class.std::vector.58"** %renumber, align 8, !dbg !11333
  %82 = load i32, i32* %j, align 4, !dbg !11334
  %conv65 = zext i32 %82 to i64, !dbg !11334
  %call66 = call dereferenceable(4) i32* @_ZNKSt6vectorIjSaIjEEixEm(%"class.std::vector.58"* %81, i64 %conv65) #4, !dbg !11333
  %83 = load i32, i32* %call66, align 4, !dbg !11333
  %84 = load i32, i32* %dofs_1d, align 4, !dbg !11335
  %rem67 = urem i32 %83, %84, !dbg !11336
  %sub68 = sub i32 %80, %rem67, !dbg !11337
  %85 = load i32, i32* %dofs_1d, align 4, !dbg !11338
  %div69 = udiv i32 %sub68, %85, !dbg !11339
  %86 = load %"class.std::vector.58"*, %"class.std::vector.58"** %renumber, align 8, !dbg !11340
  %87 = load i32, i32* %j, align 4, !dbg !11341
  %conv70 = zext i32 %87 to i64, !dbg !11341
  %call71 = call dereferenceable(4) i32* @_ZNKSt6vectorIjSaIjEEixEm(%"class.std::vector.58"* %86, i64 %conv70) #4, !dbg !11340
  %88 = load i32, i32* %call71, align 4, !dbg !11340
  %89 = load %"class.std::vector.58"*, %"class.std::vector.58"** %renumber, align 8, !dbg !11342
  %90 = load i32, i32* %j, align 4, !dbg !11343
  %conv72 = zext i32 %90 to i64, !dbg !11343
  %call73 = call dereferenceable(4) i32* @_ZNKSt6vectorIjSaIjEEixEm(%"class.std::vector.58"* %89, i64 %conv72) #4, !dbg !11342
  %91 = load i32, i32* %call73, align 4, !dbg !11342
  %92 = load i32, i32* %dofs_1d, align 4, !dbg !11344
  %rem74 = urem i32 %91, %92, !dbg !11345
  %sub75 = sub i32 %88, %rem74, !dbg !11346
  %93 = load i32, i32* %dofs_1d, align 4, !dbg !11347
  %div76 = udiv i32 %sub75, %93, !dbg !11348
  %94 = load i32, i32* %dofs_1d, align 4, !dbg !11349
  %rem77 = urem i32 %div76, %94, !dbg !11350
  %sub78 = sub i32 %div69, %rem77, !dbg !11351
  %95 = load i32, i32* %dofs_1d, align 4, !dbg !11352
  %div79 = udiv i32 %sub78, %95, !dbg !11353
  %96 = load %"class.std::vector.58"*, %"class.std::vector.58"** %renumber, align 8, !dbg !11354
  %97 = load i32, i32* %i, align 4, !dbg !11355
  %conv80 = zext i32 %97 to i64, !dbg !11355
  %call81 = call dereferenceable(4) i32* @_ZNKSt6vectorIjSaIjEEixEm(%"class.std::vector.58"* %96, i64 %conv80) #4, !dbg !11354
  %98 = load i32, i32* %call81, align 4, !dbg !11354
  %99 = load %"class.std::vector.58"*, %"class.std::vector.58"** %renumber, align 8, !dbg !11356
  %100 = load i32, i32* %i, align 4, !dbg !11357
  %conv82 = zext i32 %100 to i64, !dbg !11357
  %call83 = call dereferenceable(4) i32* @_ZNKSt6vectorIjSaIjEEixEm(%"class.std::vector.58"* %99, i64 %conv82) #4, !dbg !11356
  %101 = load i32, i32* %call83, align 4, !dbg !11356
  %102 = load i32, i32* %dofs_1d, align 4, !dbg !11358
  %rem84 = urem i32 %101, %102, !dbg !11359
  %sub85 = sub i32 %98, %rem84, !dbg !11360
  %103 = load i32, i32* %dofs_1d, align 4, !dbg !11361
  %div86 = udiv i32 %sub85, %103, !dbg !11362
  %104 = load %"class.std::vector.58"*, %"class.std::vector.58"** %renumber, align 8, !dbg !11363
  %105 = load i32, i32* %i, align 4, !dbg !11364
  %conv87 = zext i32 %105 to i64, !dbg !11364
  %call88 = call dereferenceable(4) i32* @_ZNKSt6vectorIjSaIjEEixEm(%"class.std::vector.58"* %104, i64 %conv87) #4, !dbg !11363
  %106 = load i32, i32* %call88, align 4, !dbg !11363
  %107 = load %"class.std::vector.58"*, %"class.std::vector.58"** %renumber, align 8, !dbg !11365
  %108 = load i32, i32* %i, align 4, !dbg !11366
  %conv89 = zext i32 %108 to i64, !dbg !11366
  %call90 = call dereferenceable(4) i32* @_ZNKSt6vectorIjSaIjEEixEm(%"class.std::vector.58"* %107, i64 %conv89) #4, !dbg !11365
  %109 = load i32, i32* %call90, align 4, !dbg !11365
  %110 = load i32, i32* %dofs_1d, align 4, !dbg !11367
  %rem91 = urem i32 %109, %110, !dbg !11368
  %sub92 = sub i32 %106, %rem91, !dbg !11369
  %111 = load i32, i32* %dofs_1d, align 4, !dbg !11370
  %div93 = udiv i32 %sub92, %111, !dbg !11371
  %112 = load i32, i32* %dofs_1d, align 4, !dbg !11372
  %rem94 = urem i32 %div93, %112, !dbg !11373
  %sub95 = sub i32 %div86, %rem94, !dbg !11374
  %113 = load i32, i32* %dofs_1d, align 4, !dbg !11375
  %div96 = udiv i32 %sub95, %113, !dbg !11376
  %call97 = call dereferenceable(8) double* @_ZNK6dealii5TableILi2EdEclEjj(%"class.dealii::Table"* %77, i32 %div79, i32 %div96), !dbg !11329
  %114 = load double, double* %call97, align 8, !dbg !11329
  %mul98 = fmul double %mul60, %114, !dbg !11377
  %115 = bitcast %"class.dealii::FE_Q_Hierarchical"* %this1 to %"class.dealii::FiniteElement"*, !dbg !11378
  %prolongation99 = getelementptr inbounds %"class.dealii::FiniteElement", %"class.dealii::FiniteElement"* %115, i32 0, i32 4, !dbg !11378
  %116 = load i32, i32* %iso, align 4, !dbg !11379
  %conv100 = zext i32 %116 to i64, !dbg !11379
  %call101 = call dereferenceable(24) %"class.std::vector.19"* @_ZNSt6vectorIS_IN6dealii10FullMatrixIdEESaIS2_EESaIS4_EEixEm(%"class.std::vector"* %prolongation99, i64 %conv100) #4, !dbg !11380
  %117 = load i32, i32* %c27, align 4, !dbg !11381
  %conv102 = zext i32 %117 to i64, !dbg !11381
  %call103 = call dereferenceable(96) %"class.dealii::FullMatrix"* @_ZNSt6vectorIN6dealii10FullMatrixIdEESaIS2_EEixEm(%"class.std::vector.19"* %call101, i64 %conv102) #4, !dbg !11380
  %118 = bitcast %"class.dealii::FullMatrix"* %call103 to %"class.dealii::Table"*, !dbg !11380
  %119 = load i32, i32* %j, align 4, !dbg !11382
  %120 = load i32, i32* %i, align 4, !dbg !11383
  %call104 = call dereferenceable(8) double* @_ZN6dealii5TableILi2EdEclEjj(%"class.dealii::Table"* %118, i32 %119, i32 %120), !dbg !11380
  store double %mul98, double* %call104, align 8, !dbg !11384
  %121 = load %"class.std::vector.19"*, %"class.std::vector.19"** %dofs_cell.addr, align 8, !dbg !11385
  %122 = load i32, i32* %c0, align 4, !dbg !11386
  %conv105 = zext i32 %122 to i64, !dbg !11386
  %call106 = call dereferenceable(96) %"class.dealii::FullMatrix"* @_ZNKSt6vectorIN6dealii10FullMatrixIdEESaIS2_EEixEm(%"class.std::vector.19"* %121, i64 %conv105) #4, !dbg !11385
  %123 = bitcast %"class.dealii::FullMatrix"* %call106 to %"class.dealii::Table"*, !dbg !11385
  %124 = load %"class.std::vector.58"*, %"class.std::vector.58"** %renumber, align 8, !dbg !11387
  %125 = load i32, i32* %j, align 4, !dbg !11388
  %conv107 = zext i32 %125 to i64, !dbg !11388
  %call108 = call dereferenceable(4) i32* @_ZNKSt6vectorIjSaIjEEixEm(%"class.std::vector.58"* %124, i64 %conv107) #4, !dbg !11387
  %126 = load i32, i32* %call108, align 4, !dbg !11387
  %127 = load i32, i32* %dofs_1d, align 4, !dbg !11389
  %rem109 = urem i32 %126, %127, !dbg !11390
  %128 = load %"class.std::vector.58"*, %"class.std::vector.58"** %renumber, align 8, !dbg !11391
  %129 = load i32, i32* %i, align 4, !dbg !11392
  %conv110 = zext i32 %129 to i64, !dbg !11392
  %call111 = call dereferenceable(4) i32* @_ZNKSt6vectorIjSaIjEEixEm(%"class.std::vector.58"* %128, i64 %conv110) #4, !dbg !11391
  %130 = load i32, i32* %call111, align 4, !dbg !11391
  %131 = load i32, i32* %dofs_1d, align 4, !dbg !11393
  %rem112 = urem i32 %130, %131, !dbg !11394
  %call113 = call dereferenceable(8) double* @_ZNK6dealii5TableILi2EdEclEjj(%"class.dealii::Table"* %123, i32 %rem109, i32 %rem112), !dbg !11385
  %132 = load double, double* %call113, align 8, !dbg !11385
  %133 = load %"class.std::vector.19"*, %"class.std::vector.19"** %dofs_cell.addr, align 8, !dbg !11395
  %134 = load i32, i32* %c1, align 4, !dbg !11396
  %conv114 = zext i32 %134 to i64, !dbg !11396
  %call115 = call dereferenceable(96) %"class.dealii::FullMatrix"* @_ZNKSt6vectorIN6dealii10FullMatrixIdEESaIS2_EEixEm(%"class.std::vector.19"* %133, i64 %conv114) #4, !dbg !11395
  %135 = bitcast %"class.dealii::FullMatrix"* %call115 to %"class.dealii::Table"*, !dbg !11395
  %136 = load %"class.std::vector.58"*, %"class.std::vector.58"** %renumber, align 8, !dbg !11397
  %137 = load i32, i32* %j, align 4, !dbg !11398
  %conv116 = zext i32 %137 to i64, !dbg !11398
  %call117 = call dereferenceable(4) i32* @_ZNKSt6vectorIjSaIjEEixEm(%"class.std::vector.58"* %136, i64 %conv116) #4, !dbg !11397
  %138 = load i32, i32* %call117, align 4, !dbg !11397
  %139 = load %"class.std::vector.58"*, %"class.std::vector.58"** %renumber, align 8, !dbg !11399
  %140 = load i32, i32* %j, align 4, !dbg !11400
  %conv118 = zext i32 %140 to i64, !dbg !11400
  %call119 = call dereferenceable(4) i32* @_ZNKSt6vectorIjSaIjEEixEm(%"class.std::vector.58"* %139, i64 %conv118) #4, !dbg !11399
  %141 = load i32, i32* %call119, align 4, !dbg !11399
  %142 = load i32, i32* %dofs_1d, align 4, !dbg !11401
  %rem120 = urem i32 %141, %142, !dbg !11402
  %sub121 = sub i32 %138, %rem120, !dbg !11403
  %143 = load i32, i32* %dofs_1d, align 4, !dbg !11404
  %div122 = udiv i32 %sub121, %143, !dbg !11405
  %144 = load i32, i32* %dofs_1d, align 4, !dbg !11406
  %rem123 = urem i32 %div122, %144, !dbg !11407
  %145 = load %"class.std::vector.58"*, %"class.std::vector.58"** %renumber, align 8, !dbg !11408
  %146 = load i32, i32* %i, align 4, !dbg !11409
  %conv124 = zext i32 %146 to i64, !dbg !11409
  %call125 = call dereferenceable(4) i32* @_ZNKSt6vectorIjSaIjEEixEm(%"class.std::vector.58"* %145, i64 %conv124) #4, !dbg !11408
  %147 = load i32, i32* %call125, align 4, !dbg !11408
  %148 = load %"class.std::vector.58"*, %"class.std::vector.58"** %renumber, align 8, !dbg !11410
  %149 = load i32, i32* %i, align 4, !dbg !11411
  %conv126 = zext i32 %149 to i64, !dbg !11411
  %call127 = call dereferenceable(4) i32* @_ZNKSt6vectorIjSaIjEEixEm(%"class.std::vector.58"* %148, i64 %conv126) #4, !dbg !11410
  %150 = load i32, i32* %call127, align 4, !dbg !11410
  %151 = load i32, i32* %dofs_1d, align 4, !dbg !11412
  %rem128 = urem i32 %150, %151, !dbg !11413
  %sub129 = sub i32 %147, %rem128, !dbg !11414
  %152 = load i32, i32* %dofs_1d, align 4, !dbg !11415
  %div130 = udiv i32 %sub129, %152, !dbg !11416
  %153 = load i32, i32* %dofs_1d, align 4, !dbg !11417
  %rem131 = urem i32 %div130, %153, !dbg !11418
  %call132 = call dereferenceable(8) double* @_ZNK6dealii5TableILi2EdEclEjj(%"class.dealii::Table"* %135, i32 %rem123, i32 %rem131), !dbg !11395
  %154 = load double, double* %call132, align 8, !dbg !11395
  %mul133 = fmul double %132, %154, !dbg !11419
  %155 = load %"class.std::vector.19"*, %"class.std::vector.19"** %dofs_cell.addr, align 8, !dbg !11420
  %156 = load i32, i32* %c2, align 4, !dbg !11421
  %conv134 = zext i32 %156 to i64, !dbg !11421
  %call135 = call dereferenceable(96) %"class.dealii::FullMatrix"* @_ZNKSt6vectorIN6dealii10FullMatrixIdEESaIS2_EEixEm(%"class.std::vector.19"* %155, i64 %conv134) #4, !dbg !11420
  %157 = bitcast %"class.dealii::FullMatrix"* %call135 to %"class.dealii::Table"*, !dbg !11420
  %158 = load %"class.std::vector.58"*, %"class.std::vector.58"** %renumber, align 8, !dbg !11422
  %159 = load i32, i32* %j, align 4, !dbg !11423
  %conv136 = zext i32 %159 to i64, !dbg !11423
  %call137 = call dereferenceable(4) i32* @_ZNKSt6vectorIjSaIjEEixEm(%"class.std::vector.58"* %158, i64 %conv136) #4, !dbg !11422
  %160 = load i32, i32* %call137, align 4, !dbg !11422
  %161 = load %"class.std::vector.58"*, %"class.std::vector.58"** %renumber, align 8, !dbg !11424
  %162 = load i32, i32* %j, align 4, !dbg !11425
  %conv138 = zext i32 %162 to i64, !dbg !11425
  %call139 = call dereferenceable(4) i32* @_ZNKSt6vectorIjSaIjEEixEm(%"class.std::vector.58"* %161, i64 %conv138) #4, !dbg !11424
  %163 = load i32, i32* %call139, align 4, !dbg !11424
  %164 = load i32, i32* %dofs_1d, align 4, !dbg !11426
  %rem140 = urem i32 %163, %164, !dbg !11427
  %sub141 = sub i32 %160, %rem140, !dbg !11428
  %165 = load i32, i32* %dofs_1d, align 4, !dbg !11429
  %div142 = udiv i32 %sub141, %165, !dbg !11430
  %166 = load %"class.std::vector.58"*, %"class.std::vector.58"** %renumber, align 8, !dbg !11431
  %167 = load i32, i32* %j, align 4, !dbg !11432
  %conv143 = zext i32 %167 to i64, !dbg !11432
  %call144 = call dereferenceable(4) i32* @_ZNKSt6vectorIjSaIjEEixEm(%"class.std::vector.58"* %166, i64 %conv143) #4, !dbg !11431
  %168 = load i32, i32* %call144, align 4, !dbg !11431
  %169 = load %"class.std::vector.58"*, %"class.std::vector.58"** %renumber, align 8, !dbg !11433
  %170 = load i32, i32* %j, align 4, !dbg !11434
  %conv145 = zext i32 %170 to i64, !dbg !11434
  %call146 = call dereferenceable(4) i32* @_ZNKSt6vectorIjSaIjEEixEm(%"class.std::vector.58"* %169, i64 %conv145) #4, !dbg !11433
  %171 = load i32, i32* %call146, align 4, !dbg !11433
  %172 = load i32, i32* %dofs_1d, align 4, !dbg !11435
  %rem147 = urem i32 %171, %172, !dbg !11436
  %sub148 = sub i32 %168, %rem147, !dbg !11437
  %173 = load i32, i32* %dofs_1d, align 4, !dbg !11438
  %div149 = udiv i32 %sub148, %173, !dbg !11439
  %174 = load i32, i32* %dofs_1d, align 4, !dbg !11440
  %rem150 = urem i32 %div149, %174, !dbg !11441
  %sub151 = sub i32 %div142, %rem150, !dbg !11442
  %175 = load i32, i32* %dofs_1d, align 4, !dbg !11443
  %div152 = udiv i32 %sub151, %175, !dbg !11444
  %176 = load %"class.std::vector.58"*, %"class.std::vector.58"** %renumber, align 8, !dbg !11445
  %177 = load i32, i32* %i, align 4, !dbg !11446
  %conv153 = zext i32 %177 to i64, !dbg !11446
  %call154 = call dereferenceable(4) i32* @_ZNKSt6vectorIjSaIjEEixEm(%"class.std::vector.58"* %176, i64 %conv153) #4, !dbg !11445
  %178 = load i32, i32* %call154, align 4, !dbg !11445
  %179 = load %"class.std::vector.58"*, %"class.std::vector.58"** %renumber, align 8, !dbg !11447
  %180 = load i32, i32* %i, align 4, !dbg !11448
  %conv155 = zext i32 %180 to i64, !dbg !11448
  %call156 = call dereferenceable(4) i32* @_ZNKSt6vectorIjSaIjEEixEm(%"class.std::vector.58"* %179, i64 %conv155) #4, !dbg !11447
  %181 = load i32, i32* %call156, align 4, !dbg !11447
  %182 = load i32, i32* %dofs_1d, align 4, !dbg !11449
  %rem157 = urem i32 %181, %182, !dbg !11450
  %sub158 = sub i32 %178, %rem157, !dbg !11451
  %183 = load i32, i32* %dofs_1d, align 4, !dbg !11452
  %div159 = udiv i32 %sub158, %183, !dbg !11453
  %184 = load %"class.std::vector.58"*, %"class.std::vector.58"** %renumber, align 8, !dbg !11454
  %185 = load i32, i32* %i, align 4, !dbg !11455
  %conv160 = zext i32 %185 to i64, !dbg !11455
  %call161 = call dereferenceable(4) i32* @_ZNKSt6vectorIjSaIjEEixEm(%"class.std::vector.58"* %184, i64 %conv160) #4, !dbg !11454
  %186 = load i32, i32* %call161, align 4, !dbg !11454
  %187 = load %"class.std::vector.58"*, %"class.std::vector.58"** %renumber, align 8, !dbg !11456
  %188 = load i32, i32* %i, align 4, !dbg !11457
  %conv162 = zext i32 %188 to i64, !dbg !11457
  %call163 = call dereferenceable(4) i32* @_ZNKSt6vectorIjSaIjEEixEm(%"class.std::vector.58"* %187, i64 %conv162) #4, !dbg !11456
  %189 = load i32, i32* %call163, align 4, !dbg !11456
  %190 = load i32, i32* %dofs_1d, align 4, !dbg !11458
  %rem164 = urem i32 %189, %190, !dbg !11459
  %sub165 = sub i32 %186, %rem164, !dbg !11460
  %191 = load i32, i32* %dofs_1d, align 4, !dbg !11461
  %div166 = udiv i32 %sub165, %191, !dbg !11462
  %192 = load i32, i32* %dofs_1d, align 4, !dbg !11463
  %rem167 = urem i32 %div166, %192, !dbg !11464
  %sub168 = sub i32 %div159, %rem167, !dbg !11465
  %193 = load i32, i32* %dofs_1d, align 4, !dbg !11466
  %div169 = udiv i32 %sub168, %193, !dbg !11467
  %call170 = call dereferenceable(8) double* @_ZNK6dealii5TableILi2EdEclEjj(%"class.dealii::Table"* %157, i32 %div152, i32 %div169), !dbg !11420
  %194 = load double, double* %call170, align 8, !dbg !11420
  %mul171 = fmul double %mul133, %194, !dbg !11468
  %195 = bitcast %"class.dealii::FE_Q_Hierarchical"* %this1 to %"class.dealii::FiniteElement"*, !dbg !11469
  %restriction172 = getelementptr inbounds %"class.dealii::FiniteElement", %"class.dealii::FiniteElement"* %195, i32 0, i32 3, !dbg !11469
  %196 = load i32, i32* %iso, align 4, !dbg !11470
  %conv173 = zext i32 %196 to i64, !dbg !11470
  %call174 = call dereferenceable(24) %"class.std::vector.19"* @_ZNSt6vectorIS_IN6dealii10FullMatrixIdEESaIS2_EESaIS4_EEixEm(%"class.std::vector"* %restriction172, i64 %conv173) #4, !dbg !11471
  %197 = load i32, i32* %c27, align 4, !dbg !11472
  %conv175 = zext i32 %197 to i64, !dbg !11472
  %call176 = call dereferenceable(96) %"class.dealii::FullMatrix"* @_ZNSt6vectorIN6dealii10FullMatrixIdEESaIS2_EEixEm(%"class.std::vector.19"* %call174, i64 %conv175) #4, !dbg !11471
  %198 = bitcast %"class.dealii::FullMatrix"* %call176 to %"class.dealii::Table"*, !dbg !11471
  %199 = load i32, i32* %j, align 4, !dbg !11473
  %200 = load i32, i32* %i, align 4, !dbg !11474
  %call177 = call dereferenceable(8) double* @_ZN6dealii5TableILi2EdEclEjj(%"class.dealii::Table"* %198, i32 %199, i32 %200), !dbg !11471
  store double %mul171, double* %call177, align 8, !dbg !11475
  br label %for.inc178, !dbg !11476

for.inc178:                                       ; preds = %for.body30
  %201 = load i32, i32* %c27, align 4, !dbg !11477
  %inc179 = add i32 %201, 1, !dbg !11477
  store i32 %inc179, i32* %c27, align 4, !dbg !11477
  br label %for.cond28, !dbg !11478, !llvm.loop !11479

for.end180:                                       ; preds = %for.cond28
  br label %for.inc181, !dbg !11480

for.inc181:                                       ; preds = %for.end180
  %202 = load i32, i32* %i, align 4, !dbg !11481
  %inc182 = add i32 %202, 1, !dbg !11481
  store i32 %inc182, i32* %i, align 4, !dbg !11481
  br label %for.cond22, !dbg !11482, !llvm.loop !11483

for.end183:                                       ; preds = %for.cond22
  br label %for.inc184, !dbg !11484

for.inc184:                                       ; preds = %for.end183
  %203 = load i32, i32* %j, align 4, !dbg !11485
  %inc185 = add i32 %203, 1, !dbg !11485
  store i32 %inc185, i32* %j, align 4, !dbg !11485
  br label %for.cond17, !dbg !11486, !llvm.loop !11487

for.end186:                                       ; preds = %for.cond17
  ret void, !dbg !11489
}

; Function Attrs: noinline uwtable
define weak_odr dso_local void @_ZN6dealii17FE_Q_HierarchicalILi3EE30initialize_unit_support_pointsEv(%"class.dealii::FE_Q_Hierarchical"* %this) #0 comdat align 2 !dbg !11490 {
entry:
  %this.addr = alloca %"class.dealii::FE_Q_Hierarchical"*, align 8
  %n = alloca i32, align 4
  %i = alloca i32, align 4
  %index_map_inverse = alloca %"class.std::vector.58"*, align 8
  %p = alloca %"class.dealii::Point", align 8
  %k = alloca i32, align 4
  %iz = alloca i32, align 4
  %iy = alloca i32, align 4
  %ix = alloca i32, align 4
  store %"class.dealii::FE_Q_Hierarchical"* %this, %"class.dealii::FE_Q_Hierarchical"** %this.addr, align 8
  call void @llvm.dbg.declare(metadata %"class.dealii::FE_Q_Hierarchical"** %this.addr, metadata !11491, metadata !DIExpression()), !dbg !11492
  %this1 = load %"class.dealii::FE_Q_Hierarchical"*, %"class.dealii::FE_Q_Hierarchical"** %this.addr, align 8
  call void @llvm.dbg.declare(metadata i32* %n, metadata !11493, metadata !DIExpression()), !dbg !11494
  %0 = bitcast %"class.dealii::FE_Q_Hierarchical"* %this1 to i8*, !dbg !11495
  %add.ptr = getelementptr inbounds i8, i8* %0, i64 72, !dbg !11495
  %1 = bitcast i8* %add.ptr to %"class.dealii::FiniteElementData"*, !dbg !11495
  %degree = getelementptr inbounds %"class.dealii::FiniteElementData", %"class.dealii::FiniteElementData"* %1, i32 0, i32 13, !dbg !11495
  %2 = load i32, i32* %degree, align 4, !dbg !11495
  %add = add i32 %2, 1, !dbg !11496
  store i32 %add, i32* %n, align 4, !dbg !11494
  call void @llvm.dbg.declare(metadata i32* %i, metadata !11497, metadata !DIExpression()), !dbg !11499
  store i32 1, i32* %i, align 4, !dbg !11499
  br label %for.cond, !dbg !11500

for.cond:                                         ; preds = %for.inc, %entry
  %3 = load i32, i32* %i, align 4, !dbg !11501
  %cmp = icmp ult i32 %3, 3, !dbg !11503
  br i1 %cmp, label %for.body, label %for.end, !dbg !11504

for.body:                                         ; preds = %for.cond
  %4 = bitcast %"class.dealii::FE_Q_Hierarchical"* %this1 to i8*, !dbg !11505
  %add.ptr2 = getelementptr inbounds i8, i8* %4, i64 72, !dbg !11505
  %5 = bitcast i8* %add.ptr2 to %"class.dealii::FiniteElementData"*, !dbg !11505
  %degree3 = getelementptr inbounds %"class.dealii::FiniteElementData", %"class.dealii::FiniteElementData"* %5, i32 0, i32 13, !dbg !11505
  %6 = load i32, i32* %degree3, align 4, !dbg !11505
  %add4 = add i32 %6, 1, !dbg !11506
  %7 = load i32, i32* %n, align 4, !dbg !11507
  %mul = mul i32 %7, %add4, !dbg !11507
  store i32 %mul, i32* %n, align 4, !dbg !11507
  br label %for.inc, !dbg !11508

for.inc:                                          ; preds = %for.body
  %8 = load i32, i32* %i, align 4, !dbg !11509
  %inc = add i32 %8, 1, !dbg !11509
  store i32 %inc, i32* %i, align 4, !dbg !11509
  br label %for.cond, !dbg !11510, !llvm.loop !11511

for.end:                                          ; preds = %for.cond
  %9 = bitcast %"class.dealii::FE_Q_Hierarchical"* %this1 to %"class.dealii::FiniteElement"*, !dbg !11513
  %unit_support_points = getelementptr inbounds %"class.dealii::FiniteElement", %"class.dealii::FiniteElement"* %9, i32 0, i32 6, !dbg !11513
  %10 = load i32, i32* %n, align 4, !dbg !11514
  %conv = zext i32 %10 to i64, !dbg !11514
  call void @_ZNSt6vectorIN6dealii5PointILi3EEESaIS2_EE6resizeEm(%"class.std::vector.24"* %unit_support_points, i64 %conv), !dbg !11515
  call void @llvm.dbg.declare(metadata %"class.std::vector.58"** %index_map_inverse, metadata !11516, metadata !DIExpression()), !dbg !11517
  %11 = bitcast %"class.dealii::FE_Q_Hierarchical"* %this1 to %"class.dealii::FE_Poly"*, !dbg !11518
  %poly_space = getelementptr inbounds %"class.dealii::FE_Poly", %"class.dealii::FE_Poly"* %11, i32 0, i32 1, !dbg !11518
  %call = call dereferenceable(24) %"class.std::vector.58"* @_ZNK6dealii24TensorProductPolynomialsILi3EE21get_numbering_inverseEv(%"class.dealii::TensorProductPolynomials"* %poly_space), !dbg !11519
  store %"class.std::vector.58"* %call, %"class.std::vector.58"** %index_map_inverse, align 8, !dbg !11517
  call void @llvm.dbg.declare(metadata %"class.dealii::Point"* %p, metadata !11520, metadata !DIExpression()), !dbg !11521
  call void @_ZN6dealii5PointILi3EEC2Ev(%"class.dealii::Point"* %p), !dbg !11521
  call void @llvm.dbg.declare(metadata i32* %k, metadata !11522, metadata !DIExpression()), !dbg !11523
  store i32 0, i32* %k, align 4, !dbg !11523
  call void @llvm.dbg.declare(metadata i32* %iz, metadata !11524, metadata !DIExpression()), !dbg !11526
  store i32 0, i32* %iz, align 4, !dbg !11526
  br label %for.cond5, !dbg !11527

for.cond5:                                        ; preds = %for.inc63, %for.end
  %12 = load i32, i32* %iz, align 4, !dbg !11528
  %13 = bitcast %"class.dealii::FE_Q_Hierarchical"* %this1 to i8*, !dbg !11530
  %add.ptr6 = getelementptr inbounds i8, i8* %13, i64 72, !dbg !11530
  %14 = bitcast i8* %add.ptr6 to %"class.dealii::FiniteElementData"*, !dbg !11530
  %degree7 = getelementptr inbounds %"class.dealii::FiniteElementData", %"class.dealii::FiniteElementData"* %14, i32 0, i32 13, !dbg !11530
  %15 = load i32, i32* %degree7, align 4, !dbg !11530
  %cmp8 = icmp ule i32 %12, %15, !dbg !11531
  br i1 %cmp8, label %for.body9, label %for.end65, !dbg !11532

for.body9:                                        ; preds = %for.cond5
  call void @llvm.dbg.declare(metadata i32* %iy, metadata !11533, metadata !DIExpression()), !dbg !11535
  store i32 0, i32* %iy, align 4, !dbg !11535
  br label %for.cond10, !dbg !11536

for.cond10:                                       ; preds = %for.inc60, %for.body9
  %16 = load i32, i32* %iy, align 4, !dbg !11537
  %17 = bitcast %"class.dealii::FE_Q_Hierarchical"* %this1 to i8*, !dbg !11539
  %add.ptr11 = getelementptr inbounds i8, i8* %17, i64 72, !dbg !11539
  %18 = bitcast i8* %add.ptr11 to %"class.dealii::FiniteElementData"*, !dbg !11539
  %degree12 = getelementptr inbounds %"class.dealii::FiniteElementData", %"class.dealii::FiniteElementData"* %18, i32 0, i32 13, !dbg !11539
  %19 = load i32, i32* %degree12, align 4, !dbg !11539
  %cmp13 = icmp ule i32 %16, %19, !dbg !11540
  br i1 %cmp13, label %for.body14, label %for.end62, !dbg !11541

for.body14:                                       ; preds = %for.cond10
  call void @llvm.dbg.declare(metadata i32* %ix, metadata !11542, metadata !DIExpression()), !dbg !11544
  store i32 0, i32* %ix, align 4, !dbg !11544
  br label %for.cond15, !dbg !11545

for.cond15:                                       ; preds = %for.inc57, %for.body14
  %20 = load i32, i32* %ix, align 4, !dbg !11546
  %21 = bitcast %"class.dealii::FE_Q_Hierarchical"* %this1 to i8*, !dbg !11548
  %add.ptr16 = getelementptr inbounds i8, i8* %21, i64 72, !dbg !11548
  %22 = bitcast i8* %add.ptr16 to %"class.dealii::FiniteElementData"*, !dbg !11548
  %degree17 = getelementptr inbounds %"class.dealii::FiniteElementData", %"class.dealii::FiniteElementData"* %22, i32 0, i32 13, !dbg !11548
  %23 = load i32, i32* %degree17, align 4, !dbg !11548
  %cmp18 = icmp ule i32 %20, %23, !dbg !11549
  br i1 %cmp18, label %for.body19, label %for.end59, !dbg !11550

for.body19:                                       ; preds = %for.cond15
  %24 = load i32, i32* %ix, align 4, !dbg !11551
  %cmp20 = icmp eq i32 %24, 0, !dbg !11554
  br i1 %cmp20, label %if.then, label %if.else, !dbg !11555

if.then:                                          ; preds = %for.body19
  %call21 = call dereferenceable(8) double* @_ZN6dealii5PointILi3EEclEj(%"class.dealii::Point"* %p, i32 0), !dbg !11556
  store double 0.000000e+00, double* %call21, align 8, !dbg !11557
  br label %if.end27, !dbg !11556

if.else:                                          ; preds = %for.body19
  %25 = load i32, i32* %ix, align 4, !dbg !11558
  %cmp22 = icmp eq i32 %25, 1, !dbg !11560
  br i1 %cmp22, label %if.then23, label %if.else25, !dbg !11561

if.then23:                                        ; preds = %if.else
  %call24 = call dereferenceable(8) double* @_ZN6dealii5PointILi3EEclEj(%"class.dealii::Point"* %p, i32 0), !dbg !11562
  store double 1.000000e+00, double* %call24, align 8, !dbg !11563
  br label %if.end, !dbg !11562

if.else25:                                        ; preds = %if.else
  %call26 = call dereferenceable(8) double* @_ZN6dealii5PointILi3EEclEj(%"class.dealii::Point"* %p, i32 0), !dbg !11564
  store double 5.000000e-01, double* %call26, align 8, !dbg !11565
  br label %if.end

if.end:                                           ; preds = %if.else25, %if.then23
  br label %if.end27

if.end27:                                         ; preds = %if.end, %if.then
  %26 = load i32, i32* %iy, align 4, !dbg !11566
  %cmp28 = icmp eq i32 %26, 0, !dbg !11570
  br i1 %cmp28, label %if.then29, label %if.else31, !dbg !11571

if.then29:                                        ; preds = %if.end27
  %call30 = call dereferenceable(8) double* @_ZN6dealii5PointILi3EEclEj(%"class.dealii::Point"* %p, i32 1), !dbg !11572
  store double 0.000000e+00, double* %call30, align 8, !dbg !11573
  br label %if.end38, !dbg !11572

if.else31:                                        ; preds = %if.end27
  %27 = load i32, i32* %iy, align 4, !dbg !11574
  %cmp32 = icmp eq i32 %27, 1, !dbg !11576
  br i1 %cmp32, label %if.then33, label %if.else35, !dbg !11577

if.then33:                                        ; preds = %if.else31
  %call34 = call dereferenceable(8) double* @_ZN6dealii5PointILi3EEclEj(%"class.dealii::Point"* %p, i32 1), !dbg !11578
  store double 1.000000e+00, double* %call34, align 8, !dbg !11579
  br label %if.end37, !dbg !11578

if.else35:                                        ; preds = %if.else31
  %call36 = call dereferenceable(8) double* @_ZN6dealii5PointILi3EEclEj(%"class.dealii::Point"* %p, i32 1), !dbg !11580
  store double 5.000000e-01, double* %call36, align 8, !dbg !11581
  br label %if.end37

if.end37:                                         ; preds = %if.else35, %if.then33
  br label %if.end38

if.end38:                                         ; preds = %if.end37, %if.then29
  %28 = load i32, i32* %iz, align 4, !dbg !11582
  %cmp39 = icmp eq i32 %28, 0, !dbg !11586
  br i1 %cmp39, label %if.then40, label %if.else42, !dbg !11587

if.then40:                                        ; preds = %if.end38
  %call41 = call dereferenceable(8) double* @_ZN6dealii5PointILi3EEclEj(%"class.dealii::Point"* %p, i32 2), !dbg !11588
  store double 0.000000e+00, double* %call41, align 8, !dbg !11589
  br label %if.end49, !dbg !11588

if.else42:                                        ; preds = %if.end38
  %29 = load i32, i32* %iz, align 4, !dbg !11590
  %cmp43 = icmp eq i32 %29, 1, !dbg !11592
  br i1 %cmp43, label %if.then44, label %if.else46, !dbg !11593

if.then44:                                        ; preds = %if.else42
  %call45 = call dereferenceable(8) double* @_ZN6dealii5PointILi3EEclEj(%"class.dealii::Point"* %p, i32 2), !dbg !11594
  store double 1.000000e+00, double* %call45, align 8, !dbg !11595
  br label %if.end48, !dbg !11594

if.else46:                                        ; preds = %if.else42
  %call47 = call dereferenceable(8) double* @_ZN6dealii5PointILi3EEclEj(%"class.dealii::Point"* %p, i32 2), !dbg !11596
  store double 5.000000e-01, double* %call47, align 8, !dbg !11597
  br label %if.end48

if.end48:                                         ; preds = %if.else46, %if.then44
  br label %if.end49

if.end49:                                         ; preds = %if.end48, %if.then40
  %30 = bitcast %"class.dealii::FE_Q_Hierarchical"* %this1 to %"class.dealii::FiniteElement"*, !dbg !11598
  %unit_support_points50 = getelementptr inbounds %"class.dealii::FiniteElement", %"class.dealii::FiniteElement"* %30, i32 0, i32 6, !dbg !11598
  %31 = load %"class.std::vector.58"*, %"class.std::vector.58"** %index_map_inverse, align 8, !dbg !11599
  %32 = load i32, i32* %k, align 4, !dbg !11600
  %inc51 = add i32 %32, 1, !dbg !11600
  store i32 %inc51, i32* %k, align 4, !dbg !11600
  %conv52 = zext i32 %32 to i64, !dbg !11601
  %call53 = call dereferenceable(4) i32* @_ZNKSt6vectorIjSaIjEEixEm(%"class.std::vector.58"* %31, i64 %conv52) #4, !dbg !11599
  %33 = load i32, i32* %call53, align 4, !dbg !11599
  %conv54 = zext i32 %33 to i64, !dbg !11599
  %call55 = call dereferenceable(24) %"class.dealii::Point"* @_ZNSt6vectorIN6dealii5PointILi3EEESaIS2_EEixEm(%"class.std::vector.24"* %unit_support_points50, i64 %conv54) #4, !dbg !11602
  %call56 = call dereferenceable(24) %"class.dealii::Point"* @_ZN6dealii5PointILi3EEaSERKS1_(%"class.dealii::Point"* %call55, %"class.dealii::Point"* dereferenceable(24) %p), !dbg !11603
  br label %for.inc57, !dbg !11604

for.inc57:                                        ; preds = %if.end49
  %34 = load i32, i32* %ix, align 4, !dbg !11605
  %inc58 = add i32 %34, 1, !dbg !11605
  store i32 %inc58, i32* %ix, align 4, !dbg !11605
  br label %for.cond15, !dbg !11606, !llvm.loop !11607

for.end59:                                        ; preds = %for.cond15
  br label %for.inc60, !dbg !11608

for.inc60:                                        ; preds = %for.end59
  %35 = load i32, i32* %iy, align 4, !dbg !11609
  %inc61 = add i32 %35, 1, !dbg !11609
  store i32 %inc61, i32* %iy, align 4, !dbg !11609
  br label %for.cond10, !dbg !11610, !llvm.loop !11611

for.end62:                                        ; preds = %for.cond10
  br label %for.inc63, !dbg !11612

for.inc63:                                        ; preds = %for.end62
  %36 = load i32, i32* %iz, align 4, !dbg !11613
  %inc64 = add i32 %36, 1, !dbg !11613
  store i32 %inc64, i32* %iz, align 4, !dbg !11613
  br label %for.cond5, !dbg !11614, !llvm.loop !11615

for.end65:                                        ; preds = %for.cond5
  ret void, !dbg !11617
}

; Function Attrs: noinline uwtable
define weak_odr dso_local void @_ZN6dealii17FE_Q_HierarchicalILi3EE35initialize_unit_face_support_pointsEv(%"class.dealii::FE_Q_Hierarchical"* %this) #0 comdat align 2 !dbg !11618 {
entry:
  %this.addr = alloca %"class.dealii::FE_Q_Hierarchical"*, align 8
  %codim = alloca i32, align 4
  %n = alloca i32, align 4
  %i = alloca i32, align 4
  %p = alloca %"class.dealii::Point.34", align 8
  %k = alloca i32, align 4
  %iz = alloca i32, align 4
  %iy = alloca i32, align 4
  %ix = alloca i32, align 4
  store %"class.dealii::FE_Q_Hierarchical"* %this, %"class.dealii::FE_Q_Hierarchical"** %this.addr, align 8
  call void @llvm.dbg.declare(metadata %"class.dealii::FE_Q_Hierarchical"** %this.addr, metadata !11619, metadata !DIExpression()), !dbg !11620
  %this1 = load %"class.dealii::FE_Q_Hierarchical"*, %"class.dealii::FE_Q_Hierarchical"** %this.addr, align 8
  call void @llvm.dbg.declare(metadata i32* %codim, metadata !11621, metadata !DIExpression()), !dbg !11622
  store i32 2, i32* %codim, align 4, !dbg !11622
  call void @llvm.dbg.declare(metadata i32* %n, metadata !11623, metadata !DIExpression()), !dbg !11624
  %0 = bitcast %"class.dealii::FE_Q_Hierarchical"* %this1 to i8*, !dbg !11625
  %add.ptr = getelementptr inbounds i8, i8* %0, i64 72, !dbg !11625
  %1 = bitcast i8* %add.ptr to %"class.dealii::FiniteElementData"*, !dbg !11625
  %degree = getelementptr inbounds %"class.dealii::FiniteElementData", %"class.dealii::FiniteElementData"* %1, i32 0, i32 13, !dbg !11625
  %2 = load i32, i32* %degree, align 4, !dbg !11625
  %add = add i32 %2, 1, !dbg !11626
  store i32 %add, i32* %n, align 4, !dbg !11624
  call void @llvm.dbg.declare(metadata i32* %i, metadata !11627, metadata !DIExpression()), !dbg !11629
  store i32 1, i32* %i, align 4, !dbg !11629
  br label %for.cond, !dbg !11630

for.cond:                                         ; preds = %for.inc, %entry
  %3 = load i32, i32* %i, align 4, !dbg !11631
  %cmp = icmp ult i32 %3, 2, !dbg !11633
  br i1 %cmp, label %for.body, label %for.end, !dbg !11634

for.body:                                         ; preds = %for.cond
  %4 = bitcast %"class.dealii::FE_Q_Hierarchical"* %this1 to i8*, !dbg !11635
  %add.ptr2 = getelementptr inbounds i8, i8* %4, i64 72, !dbg !11635
  %5 = bitcast i8* %add.ptr2 to %"class.dealii::FiniteElementData"*, !dbg !11635
  %degree3 = getelementptr inbounds %"class.dealii::FiniteElementData", %"class.dealii::FiniteElementData"* %5, i32 0, i32 13, !dbg !11635
  %6 = load i32, i32* %degree3, align 4, !dbg !11635
  %add4 = add i32 %6, 1, !dbg !11636
  %7 = load i32, i32* %n, align 4, !dbg !11637
  %mul = mul i32 %7, %add4, !dbg !11637
  store i32 %mul, i32* %n, align 4, !dbg !11637
  br label %for.inc, !dbg !11638

for.inc:                                          ; preds = %for.body
  %8 = load i32, i32* %i, align 4, !dbg !11639
  %inc = add i32 %8, 1, !dbg !11639
  store i32 %inc, i32* %i, align 4, !dbg !11639
  br label %for.cond, !dbg !11640, !llvm.loop !11641

for.end:                                          ; preds = %for.cond
  %9 = bitcast %"class.dealii::FE_Q_Hierarchical"* %this1 to %"class.dealii::FiniteElement"*, !dbg !11643
  %unit_face_support_points = getelementptr inbounds %"class.dealii::FiniteElement", %"class.dealii::FiniteElement"* %9, i32 0, i32 7, !dbg !11643
  %10 = load i32, i32* %n, align 4, !dbg !11644
  %conv = zext i32 %10 to i64, !dbg !11644
  call void @_ZNSt6vectorIN6dealii5PointILi2EEESaIS2_EE6resizeEm(%"class.std::vector.29"* %unit_face_support_points, i64 %conv), !dbg !11645
  call void @llvm.dbg.declare(metadata %"class.dealii::Point.34"* %p, metadata !11646, metadata !DIExpression()), !dbg !11647
  call void @_ZN6dealii5PointILi2EEC2Ev(%"class.dealii::Point.34"* %p), !dbg !11647
  call void @llvm.dbg.declare(metadata i32* %k, metadata !11648, metadata !DIExpression()), !dbg !11649
  store i32 0, i32* %k, align 4, !dbg !11649
  call void @llvm.dbg.declare(metadata i32* %iz, metadata !11650, metadata !DIExpression()), !dbg !11652
  store i32 0, i32* %iz, align 4, !dbg !11652
  br label %for.cond5, !dbg !11653

for.cond5:                                        ; preds = %for.inc49, %for.end
  %11 = load i32, i32* %iz, align 4, !dbg !11654
  %cmp6 = icmp ule i32 %11, 0, !dbg !11656
  br i1 %cmp6, label %for.body7, label %for.end51, !dbg !11657

for.body7:                                        ; preds = %for.cond5
  call void @llvm.dbg.declare(metadata i32* %iy, metadata !11658, metadata !DIExpression()), !dbg !11660
  store i32 0, i32* %iy, align 4, !dbg !11660
  br label %for.cond8, !dbg !11661

for.cond8:                                        ; preds = %for.inc46, %for.body7
  %12 = load i32, i32* %iy, align 4, !dbg !11662
  %13 = bitcast %"class.dealii::FE_Q_Hierarchical"* %this1 to i8*, !dbg !11664
  %add.ptr9 = getelementptr inbounds i8, i8* %13, i64 72, !dbg !11664
  %14 = bitcast i8* %add.ptr9 to %"class.dealii::FiniteElementData"*, !dbg !11664
  %degree10 = getelementptr inbounds %"class.dealii::FiniteElementData", %"class.dealii::FiniteElementData"* %14, i32 0, i32 13, !dbg !11664
  %15 = load i32, i32* %degree10, align 4, !dbg !11664
  %cmp11 = icmp ule i32 %12, %15, !dbg !11665
  br i1 %cmp11, label %for.body12, label %for.end48, !dbg !11666

for.body12:                                       ; preds = %for.cond8
  call void @llvm.dbg.declare(metadata i32* %ix, metadata !11667, metadata !DIExpression()), !dbg !11669
  store i32 0, i32* %ix, align 4, !dbg !11669
  br label %for.cond13, !dbg !11670

for.cond13:                                       ; preds = %for.inc43, %for.body12
  %16 = load i32, i32* %ix, align 4, !dbg !11671
  %17 = bitcast %"class.dealii::FE_Q_Hierarchical"* %this1 to i8*, !dbg !11673
  %add.ptr14 = getelementptr inbounds i8, i8* %17, i64 72, !dbg !11673
  %18 = bitcast i8* %add.ptr14 to %"class.dealii::FiniteElementData"*, !dbg !11673
  %degree15 = getelementptr inbounds %"class.dealii::FiniteElementData", %"class.dealii::FiniteElementData"* %18, i32 0, i32 13, !dbg !11673
  %19 = load i32, i32* %degree15, align 4, !dbg !11673
  %cmp16 = icmp ule i32 %16, %19, !dbg !11674
  br i1 %cmp16, label %for.body17, label %for.end45, !dbg !11675

for.body17:                                       ; preds = %for.cond13
  %20 = load i32, i32* %ix, align 4, !dbg !11676
  %cmp18 = icmp eq i32 %20, 0, !dbg !11679
  br i1 %cmp18, label %if.then, label %if.else, !dbg !11680

if.then:                                          ; preds = %for.body17
  %call = call dereferenceable(8) double* @_ZN6dealii5PointILi2EEclEj(%"class.dealii::Point.34"* %p, i32 0), !dbg !11681
  store double 0.000000e+00, double* %call, align 8, !dbg !11682
  br label %if.end24, !dbg !11681

if.else:                                          ; preds = %for.body17
  %21 = load i32, i32* %ix, align 4, !dbg !11683
  %cmp19 = icmp eq i32 %21, 1, !dbg !11685
  br i1 %cmp19, label %if.then20, label %if.else22, !dbg !11686

if.then20:                                        ; preds = %if.else
  %call21 = call dereferenceable(8) double* @_ZN6dealii5PointILi2EEclEj(%"class.dealii::Point.34"* %p, i32 0), !dbg !11687
  store double 1.000000e+00, double* %call21, align 8, !dbg !11688
  br label %if.end, !dbg !11687

if.else22:                                        ; preds = %if.else
  %call23 = call dereferenceable(8) double* @_ZN6dealii5PointILi2EEclEj(%"class.dealii::Point.34"* %p, i32 0), !dbg !11689
  store double 5.000000e-01, double* %call23, align 8, !dbg !11690
  br label %if.end

if.end:                                           ; preds = %if.else22, %if.then20
  br label %if.end24

if.end24:                                         ; preds = %if.end, %if.then
  %22 = load i32, i32* %iy, align 4, !dbg !11691
  %cmp25 = icmp eq i32 %22, 0, !dbg !11695
  br i1 %cmp25, label %if.then26, label %if.else28, !dbg !11696

if.then26:                                        ; preds = %if.end24
  %call27 = call dereferenceable(8) double* @_ZN6dealii5PointILi2EEclEj(%"class.dealii::Point.34"* %p, i32 1), !dbg !11697
  store double 0.000000e+00, double* %call27, align 8, !dbg !11698
  br label %if.end35, !dbg !11697

if.else28:                                        ; preds = %if.end24
  %23 = load i32, i32* %iy, align 4, !dbg !11699
  %cmp29 = icmp eq i32 %23, 1, !dbg !11701
  br i1 %cmp29, label %if.then30, label %if.else32, !dbg !11702

if.then30:                                        ; preds = %if.else28
  %call31 = call dereferenceable(8) double* @_ZN6dealii5PointILi2EEclEj(%"class.dealii::Point.34"* %p, i32 1), !dbg !11703
  store double 1.000000e+00, double* %call31, align 8, !dbg !11704
  br label %if.end34, !dbg !11703

if.else32:                                        ; preds = %if.else28
  %call33 = call dereferenceable(8) double* @_ZN6dealii5PointILi2EEclEj(%"class.dealii::Point.34"* %p, i32 1), !dbg !11705
  store double 5.000000e-01, double* %call33, align 8, !dbg !11706
  br label %if.end34

if.end34:                                         ; preds = %if.else32, %if.then30
  br label %if.end35

if.end35:                                         ; preds = %if.end34, %if.then26
  %24 = bitcast %"class.dealii::FE_Q_Hierarchical"* %this1 to %"class.dealii::FiniteElement"*, !dbg !11707
  %unit_face_support_points36 = getelementptr inbounds %"class.dealii::FiniteElement", %"class.dealii::FiniteElement"* %24, i32 0, i32 7, !dbg !11707
  %face_renumber = getelementptr inbounds %"class.dealii::FE_Q_Hierarchical", %"class.dealii::FE_Q_Hierarchical"* %this1, i32 0, i32 1, !dbg !11708
  %25 = load i32, i32* %k, align 4, !dbg !11709
  %inc37 = add i32 %25, 1, !dbg !11709
  store i32 %inc37, i32* %k, align 4, !dbg !11709
  %conv38 = zext i32 %25 to i64, !dbg !11710
  %call39 = call dereferenceable(4) i32* @_ZNKSt6vectorIjSaIjEEixEm(%"class.std::vector.58"* %face_renumber, i64 %conv38) #4, !dbg !11708
  %26 = load i32, i32* %call39, align 4, !dbg !11708
  %conv40 = zext i32 %26 to i64, !dbg !11708
  %call41 = call dereferenceable(16) %"class.dealii::Point.34"* @_ZNSt6vectorIN6dealii5PointILi2EEESaIS2_EEixEm(%"class.std::vector.29"* %unit_face_support_points36, i64 %conv40) #4, !dbg !11711
  %call42 = call dereferenceable(16) %"class.dealii::Point.34"* @_ZN6dealii5PointILi2EEaSERKS1_(%"class.dealii::Point.34"* %call41, %"class.dealii::Point.34"* dereferenceable(16) %p), !dbg !11712
  br label %for.inc43, !dbg !11713

for.inc43:                                        ; preds = %if.end35
  %27 = load i32, i32* %ix, align 4, !dbg !11714
  %inc44 = add i32 %27, 1, !dbg !11714
  store i32 %inc44, i32* %ix, align 4, !dbg !11714
  br label %for.cond13, !dbg !11715, !llvm.loop !11716

for.end45:                                        ; preds = %for.cond13
  br label %for.inc46, !dbg !11717

for.inc46:                                        ; preds = %for.end45
  %28 = load i32, i32* %iy, align 4, !dbg !11718
  %inc47 = add i32 %28, 1, !dbg !11718
  store i32 %inc47, i32* %iy, align 4, !dbg !11718
  br label %for.cond8, !dbg !11719, !llvm.loop !11720

for.end48:                                        ; preds = %for.cond8
  br label %for.inc49, !dbg !11721

for.inc49:                                        ; preds = %for.end48
  %29 = load i32, i32* %iz, align 4, !dbg !11722
  %inc50 = add i32 %29, 1, !dbg !11722
  store i32 %inc50, i32* %iz, align 4, !dbg !11722
  br label %for.cond5, !dbg !11723, !llvm.loop !11724

for.end51:                                        ; preds = %for.cond5
  ret void, !dbg !11726
}

; Function Attrs: noinline nounwind uwtable
define linkonce_odr dso_local void @_ZNSt6vectorIN6dealii10FullMatrixIdEESaIS2_EED2Ev(%"class.std::vector.19"* %this) unnamed_addr #1 comdat align 2 personality i8* bitcast (i32 (...)* @__gxx_personality_v0 to i8*) !dbg !11727 {
entry:
  %this.addr = alloca %"class.std::vector.19"*, align 8
  %exn.slot = alloca i8*
  %ehselector.slot = alloca i32
  store %"class.std::vector.19"* %this, %"class.std::vector.19"** %this.addr, align 8
  call void @llvm.dbg.declare(metadata %"class.std::vector.19"** %this.addr, metadata !11728, metadata !DIExpression()), !dbg !11729
  %this1 = load %"class.std::vector.19"*, %"class.std::vector.19"** %this.addr, align 8
  %0 = bitcast %"class.std::vector.19"* %this1 to %"struct.std::_Vector_base.20"*, !dbg !11730
  %_M_impl = getelementptr inbounds %"struct.std::_Vector_base.20", %"struct.std::_Vector_base.20"* %0, i32 0, i32 0, !dbg !11730
  %1 = bitcast %"struct.std::_Vector_base<dealii::FullMatrix<double>, std::allocator<dealii::FullMatrix<double> > >::_Vector_impl"* %_M_impl to %"struct.std::_Vector_base<dealii::FullMatrix<double>, std::allocator<dealii::FullMatrix<double> > >::_Vector_impl_data"*, !dbg !11732
  %_M_start = getelementptr inbounds %"struct.std::_Vector_base<dealii::FullMatrix<double>, std::allocator<dealii::FullMatrix<double> > >::_Vector_impl_data", %"struct.std::_Vector_base<dealii::FullMatrix<double>, std::allocator<dealii::FullMatrix<double> > >::_Vector_impl_data"* %1, i32 0, i32 0, !dbg !11733
  %2 = load %"class.dealii::FullMatrix"*, %"class.dealii::FullMatrix"** %_M_start, align 8, !dbg !11733
  %3 = bitcast %"class.std::vector.19"* %this1 to %"struct.std::_Vector_base.20"*, !dbg !11734
  %_M_impl2 = getelementptr inbounds %"struct.std::_Vector_base.20", %"struct.std::_Vector_base.20"* %3, i32 0, i32 0, !dbg !11734
  %4 = bitcast %"struct.std::_Vector_base<dealii::FullMatrix<double>, std::allocator<dealii::FullMatrix<double> > >::_Vector_impl"* %_M_impl2 to %"struct.std::_Vector_base<dealii::FullMatrix<double>, std::allocator<dealii::FullMatrix<double> > >::_Vector_impl_data"*, !dbg !11735
  %_M_finish = getelementptr inbounds %"struct.std::_Vector_base<dealii::FullMatrix<double>, std::allocator<dealii::FullMatrix<double> > >::_Vector_impl_data", %"struct.std::_Vector_base<dealii::FullMatrix<double>, std::allocator<dealii::FullMatrix<double> > >::_Vector_impl_data"* %4, i32 0, i32 1, !dbg !11736
  %5 = load %"class.dealii::FullMatrix"*, %"class.dealii::FullMatrix"** %_M_finish, align 8, !dbg !11736
  %6 = bitcast %"class.std::vector.19"* %this1 to %"struct.std::_Vector_base.20"*, !dbg !11737
  %call = call dereferenceable(1) %"class.std::allocator.21"* @_ZNSt12_Vector_baseIN6dealii10FullMatrixIdEESaIS2_EE19_M_get_Tp_allocatorEv(%"struct.std::_Vector_base.20"* %6) #4, !dbg !11737
  invoke void @_ZSt8_DestroyIPN6dealii10FullMatrixIdEES2_EvT_S4_RSaIT0_E(%"class.dealii::FullMatrix"* %2, %"class.dealii::FullMatrix"* %5, %"class.std::allocator.21"* dereferenceable(1) %call)
          to label %invoke.cont unwind label %lpad, !dbg !11738

invoke.cont:                                      ; preds = %entry
  %7 = bitcast %"class.std::vector.19"* %this1 to %"struct.std::_Vector_base.20"*, !dbg !11739
  call void @_ZNSt12_Vector_baseIN6dealii10FullMatrixIdEESaIS2_EED2Ev(%"struct.std::_Vector_base.20"* %7) #4, !dbg !11739
  ret void, !dbg !11740

lpad:                                             ; preds = %entry
  %8 = landingpad { i8*, i32 }
          catch i8* null, !dbg !11739
  %9 = extractvalue { i8*, i32 } %8, 0, !dbg !11739
  store i8* %9, i8** %exn.slot, align 8, !dbg !11739
  %10 = extractvalue { i8*, i32 } %8, 1, !dbg !11739
  store i32 %10, i32* %ehselector.slot, align 4, !dbg !11739
  %11 = bitcast %"class.std::vector.19"* %this1 to %"struct.std::_Vector_base.20"*, !dbg !11739
  call void @_ZNSt12_Vector_baseIN6dealii10FullMatrixIdEESaIS2_EED2Ev(%"struct.std::_Vector_base.20"* %11) #4, !dbg !11739
  br label %terminate.handler, !dbg !11739

terminate.handler:                                ; preds = %lpad
  %exn = load i8*, i8** %exn.slot, align 8, !dbg !11739
  call void @__clang_call_terminate(i8* %exn) #12, !dbg !11739
  unreachable, !dbg !11739
}

; Function Attrs: noinline uwtable
define weak_odr dso_local void @_ZNK6dealii17FE_Q_HierarchicalILi3EE8get_nameB5cxx11Ev(%"class.std::__cxx11::basic_string"* noalias sret %agg.result, %"class.dealii::FE_Q_Hierarchical"* %this) unnamed_addr #0 comdat align 2 personality i8* bitcast (i32 (...)* @__gxx_personality_v0 to i8*) !dbg !11741 {
entry:
  %result.ptr = alloca i8*, align 8
  %this.addr = alloca %"class.dealii::FE_Q_Hierarchical"*, align 8
  %namebuf = alloca %"class.std::__cxx11::basic_ostringstream", align 8
  %exn.slot = alloca i8*
  %ehselector.slot = alloca i32
  %0 = bitcast %"class.std::__cxx11::basic_string"* %agg.result to i8*
  store i8* %0, i8** %result.ptr, align 8
  store %"class.dealii::FE_Q_Hierarchical"* %this, %"class.dealii::FE_Q_Hierarchical"** %this.addr, align 8
  call void @llvm.dbg.declare(metadata %"class.dealii::FE_Q_Hierarchical"** %this.addr, metadata !11742, metadata !DIExpression()), !dbg !11743
  %this1 = load %"class.dealii::FE_Q_Hierarchical"*, %"class.dealii::FE_Q_Hierarchical"** %this.addr, align 8
  call void @llvm.dbg.declare(metadata %"class.std::__cxx11::basic_ostringstream"* %namebuf, metadata !11744, metadata !DIExpression()), !dbg !11748
  call void @_ZNSt7__cxx1119basic_ostringstreamIcSt11char_traitsIcESaIcEEC1Ev(%"class.std::__cxx11::basic_ostringstream"* %namebuf), !dbg !11748
  %1 = bitcast %"class.std::__cxx11::basic_ostringstream"* %namebuf to %"class.std::basic_ostream"*, !dbg !11749
  %call = invoke dereferenceable(272) %"class.std::basic_ostream"* @_ZStlsISt11char_traitsIcEERSt13basic_ostreamIcT_ES5_PKc(%"class.std::basic_ostream"* dereferenceable(272) %1, i8* getelementptr inbounds ([19 x i8], [19 x i8]* @.str, i64 0, i64 0))
          to label %invoke.cont unwind label %lpad, !dbg !11750

invoke.cont:                                      ; preds = %entry
  %call3 = invoke dereferenceable(272) %"class.std::basic_ostream"* @_ZNSolsEi(%"class.std::basic_ostream"* %call, i32 3)
          to label %invoke.cont2 unwind label %lpad, !dbg !11751

invoke.cont2:                                     ; preds = %invoke.cont
  %call5 = invoke dereferenceable(272) %"class.std::basic_ostream"* @_ZStlsISt11char_traitsIcEERSt13basic_ostreamIcT_ES5_PKc(%"class.std::basic_ostream"* dereferenceable(272) %call3, i8* getelementptr inbounds ([3 x i8], [3 x i8]* @.str.10, i64 0, i64 0))
          to label %invoke.cont4 unwind label %lpad, !dbg !11752

invoke.cont4:                                     ; preds = %invoke.cont2
  %2 = bitcast %"class.dealii::FE_Q_Hierarchical"* %this1 to i8*, !dbg !11753
  %add.ptr = getelementptr inbounds i8, i8* %2, i64 72, !dbg !11753
  %3 = bitcast i8* %add.ptr to %"class.dealii::FiniteElementData"*, !dbg !11753
  %degree = getelementptr inbounds %"class.dealii::FiniteElementData", %"class.dealii::FiniteElementData"* %3, i32 0, i32 13, !dbg !11753
  %4 = load i32, i32* %degree, align 4, !dbg !11753
  %call7 = invoke dereferenceable(272) %"class.std::basic_ostream"* @_ZNSolsEj(%"class.std::basic_ostream"* %call5, i32 %4)
          to label %invoke.cont6 unwind label %lpad, !dbg !11754

invoke.cont6:                                     ; preds = %invoke.cont4
  %call9 = invoke dereferenceable(272) %"class.std::basic_ostream"* @_ZStlsISt11char_traitsIcEERSt13basic_ostreamIcT_ES5_PKc(%"class.std::basic_ostream"* dereferenceable(272) %call7, i8* getelementptr inbounds ([2 x i8], [2 x i8]* @.str.11, i64 0, i64 0))
          to label %invoke.cont8 unwind label %lpad, !dbg !11755

invoke.cont8:                                     ; preds = %invoke.cont6
  invoke void @_ZNKSt7__cxx1119basic_ostringstreamIcSt11char_traitsIcESaIcEE3strEv(%"class.std::__cxx11::basic_string"* sret %agg.result, %"class.std::__cxx11::basic_ostringstream"* %namebuf)
          to label %invoke.cont10 unwind label %lpad, !dbg !11756

invoke.cont10:                                    ; preds = %invoke.cont8
  call void @_ZNSt7__cxx1119basic_ostringstreamIcSt11char_traitsIcESaIcEED1Ev(%"class.std::__cxx11::basic_ostringstream"* %namebuf) #4, !dbg !11757
  ret void, !dbg !11757

lpad:                                             ; preds = %invoke.cont8, %invoke.cont6, %invoke.cont4, %invoke.cont2, %invoke.cont, %entry
  %5 = landingpad { i8*, i32 }
          cleanup, !dbg !11757
  %6 = extractvalue { i8*, i32 } %5, 0, !dbg !11757
  store i8* %6, i8** %exn.slot, align 8, !dbg !11757
  %7 = extractvalue { i8*, i32 } %5, 1, !dbg !11757
  store i32 %7, i32* %ehselector.slot, align 4, !dbg !11757
  call void @_ZNSt7__cxx1119basic_ostringstreamIcSt11char_traitsIcESaIcEED1Ev(%"class.std::__cxx11::basic_ostringstream"* %namebuf) #4, !dbg !11757
  br label %eh.resume, !dbg !11757

eh.resume:                                        ; preds = %lpad
  %exn = load i8*, i8** %exn.slot, align 8, !dbg !11757
  %sel = load i32, i32* %ehselector.slot, align 4, !dbg !11757
  %lpad.val = insertvalue { i8*, i32 } undef, i8* %exn, 0, !dbg !11757
  %lpad.val11 = insertvalue { i8*, i32 } %lpad.val, i32 %sel, 1, !dbg !11757
  resume { i8*, i32 } %lpad.val11, !dbg !11757
}

declare dso_local void @_ZNSt7__cxx1119basic_ostringstreamIcSt11char_traitsIcESaIcEEC1Ev(%"class.std::__cxx11::basic_ostringstream"*) unnamed_addr #2

declare dso_local dereferenceable(272) %"class.std::basic_ostream"* @_ZStlsISt11char_traitsIcEERSt13basic_ostreamIcT_ES5_PKc(%"class.std::basic_ostream"* dereferenceable(272), i8*) #2

declare dso_local dereferenceable(272) %"class.std::basic_ostream"* @_ZNSolsEi(%"class.std::basic_ostream"*, i32) #2

declare dso_local dereferenceable(272) %"class.std::basic_ostream"* @_ZNSolsEj(%"class.std::basic_ostream"*, i32) #2

declare dso_local void @_ZNKSt7__cxx1119basic_ostringstreamIcSt11char_traitsIcESaIcEE3strEv(%"class.std::__cxx11::basic_string"* sret, %"class.std::__cxx11::basic_ostringstream"*) #2

; Function Attrs: nounwind
declare dso_local void @_ZNSt7__cxx1119basic_ostringstreamIcSt11char_traitsIcESaIcEED1Ev(%"class.std::__cxx11::basic_ostringstream"*) unnamed_addr #3

; Function Attrs: noinline uwtable
define weak_odr dso_local zeroext i1 @_ZNK6dealii17FE_Q_HierarchicalILi3EE19has_support_on_faceEjj(%"class.dealii::FE_Q_Hierarchical"* %this, i32 %shape_index, i32 %face_index) unnamed_addr #0 comdat align 2 !dbg !11758 {
entry:
  %retval = alloca i1, align 1
  %this.addr = alloca %"class.dealii::FE_Q_Hierarchical"*, align 8
  %shape_index.addr = alloca i32, align 4
  %face_index.addr = alloca i32, align 4
  %vertex_no = alloca i32, align 4
  %i = alloca i32, align 4
  %line_index = alloca i32, align 4
  %i15 = alloca i32, align 4
  %quad_index = alloca i32, align 4
  store %"class.dealii::FE_Q_Hierarchical"* %this, %"class.dealii::FE_Q_Hierarchical"** %this.addr, align 8
  call void @llvm.dbg.declare(metadata %"class.dealii::FE_Q_Hierarchical"** %this.addr, metadata !11759, metadata !DIExpression()), !dbg !11760
  store i32 %shape_index, i32* %shape_index.addr, align 4
  call void @llvm.dbg.declare(metadata i32* %shape_index.addr, metadata !11761, metadata !DIExpression()), !dbg !11762
  store i32 %face_index, i32* %face_index.addr, align 4
  call void @llvm.dbg.declare(metadata i32* %face_index.addr, metadata !11763, metadata !DIExpression()), !dbg !11764
  %this1 = load %"class.dealii::FE_Q_Hierarchical"*, %"class.dealii::FE_Q_Hierarchical"** %this.addr, align 8
  %0 = load i32, i32* %shape_index.addr, align 4, !dbg !11765
  %1 = bitcast %"class.dealii::FE_Q_Hierarchical"* %this1 to i8*, !dbg !11767
  %add.ptr = getelementptr inbounds i8, i8* %1, i64 72, !dbg !11767
  %2 = bitcast i8* %add.ptr to %"class.dealii::FiniteElementData"*, !dbg !11767
  %first_hex_index = getelementptr inbounds %"class.dealii::FiniteElementData", %"class.dealii::FiniteElementData"* %2, i32 0, i32 6, !dbg !11767
  %3 = load i32, i32* %first_hex_index, align 8, !dbg !11767
  %cmp = icmp uge i32 %0, %3, !dbg !11768
  br i1 %cmp, label %if.then, label %if.end, !dbg !11769

if.then:                                          ; preds = %entry
  store i1 false, i1* %retval, align 1, !dbg !11770
  br label %return, !dbg !11770

if.end:                                           ; preds = %entry
  %4 = load i32, i32* %shape_index.addr, align 4, !dbg !11771
  %5 = bitcast %"class.dealii::FE_Q_Hierarchical"* %this1 to i8*, !dbg !11773
  %add.ptr2 = getelementptr inbounds i8, i8* %5, i64 72, !dbg !11773
  %6 = bitcast i8* %add.ptr2 to %"class.dealii::FiniteElementData"*, !dbg !11773
  %first_line_index = getelementptr inbounds %"class.dealii::FiniteElementData", %"class.dealii::FiniteElementData"* %6, i32 0, i32 4, !dbg !11773
  %7 = load i32, i32* %first_line_index, align 8, !dbg !11773
  %cmp3 = icmp ult i32 %4, %7, !dbg !11774
  br i1 %cmp3, label %if.then4, label %if.else, !dbg !11775

if.then4:                                         ; preds = %if.end
  call void @llvm.dbg.declare(metadata i32* %vertex_no, metadata !11776, metadata !DIExpression()), !dbg !11778
  %8 = load i32, i32* %shape_index.addr, align 4, !dbg !11779
  store i32 %8, i32* %vertex_no, align 4, !dbg !11778
  call void @llvm.dbg.declare(metadata i32* %i, metadata !11780, metadata !DIExpression()), !dbg !11782
  store i32 0, i32* %i, align 4, !dbg !11782
  br label %for.cond, !dbg !11783

for.cond:                                         ; preds = %for.inc, %if.then4
  %9 = load i32, i32* %i, align 4, !dbg !11784
  %cmp5 = icmp ult i32 %9, 4, !dbg !11786
  br i1 %cmp5, label %for.body, label %for.end, !dbg !11787

for.body:                                         ; preds = %for.cond
  %10 = load i32, i32* %face_index.addr, align 4, !dbg !11788
  %11 = load i32, i32* %i, align 4, !dbg !11790
  %call = call i32 @_ZN6dealii12GeometryInfoILi3EE21face_to_cell_verticesEjjbbb(i32 %10, i32 %11, i1 zeroext true, i1 zeroext false, i1 zeroext false), !dbg !11791
  %12 = load i32, i32* %vertex_no, align 4, !dbg !11792
  %cmp6 = icmp eq i32 %call, %12, !dbg !11793
  br i1 %cmp6, label %if.then7, label %if.end8, !dbg !11794

if.then7:                                         ; preds = %for.body
  store i1 true, i1* %retval, align 1, !dbg !11795
  br label %return, !dbg !11795

if.end8:                                          ; preds = %for.body
  br label %for.inc, !dbg !11792

for.inc:                                          ; preds = %if.end8
  %13 = load i32, i32* %i, align 4, !dbg !11796
  %inc = add i32 %13, 1, !dbg !11796
  store i32 %inc, i32* %i, align 4, !dbg !11796
  br label %for.cond, !dbg !11797, !llvm.loop !11798

for.end:                                          ; preds = %for.cond
  store i1 false, i1* %retval, align 1, !dbg !11800
  br label %return, !dbg !11800

if.else:                                          ; preds = %if.end
  %14 = load i32, i32* %shape_index.addr, align 4, !dbg !11801
  %15 = bitcast %"class.dealii::FE_Q_Hierarchical"* %this1 to i8*, !dbg !11803
  %add.ptr9 = getelementptr inbounds i8, i8* %15, i64 72, !dbg !11803
  %16 = bitcast i8* %add.ptr9 to %"class.dealii::FiniteElementData"*, !dbg !11803
  %first_quad_index = getelementptr inbounds %"class.dealii::FiniteElementData", %"class.dealii::FiniteElementData"* %16, i32 0, i32 5, !dbg !11803
  %17 = load i32, i32* %first_quad_index, align 4, !dbg !11803
  %cmp10 = icmp ult i32 %14, %17, !dbg !11804
  br i1 %cmp10, label %if.then11, label %if.else26, !dbg !11805

if.then11:                                        ; preds = %if.else
  call void @llvm.dbg.declare(metadata i32* %line_index, metadata !11806, metadata !DIExpression()), !dbg !11808
  %18 = load i32, i32* %shape_index.addr, align 4, !dbg !11809
  %19 = bitcast %"class.dealii::FE_Q_Hierarchical"* %this1 to i8*, !dbg !11810
  %add.ptr12 = getelementptr inbounds i8, i8* %19, i64 72, !dbg !11810
  %20 = bitcast i8* %add.ptr12 to %"class.dealii::FiniteElementData"*, !dbg !11810
  %first_line_index13 = getelementptr inbounds %"class.dealii::FiniteElementData", %"class.dealii::FiniteElementData"* %20, i32 0, i32 4, !dbg !11810
  %21 = load i32, i32* %first_line_index13, align 8, !dbg !11810
  %sub = sub i32 %18, %21, !dbg !11811
  %22 = bitcast %"class.dealii::FE_Q_Hierarchical"* %this1 to i8*, !dbg !11812
  %add.ptr14 = getelementptr inbounds i8, i8* %22, i64 72, !dbg !11812
  %23 = bitcast i8* %add.ptr14 to %"class.dealii::FiniteElementData"*, !dbg !11812
  %dofs_per_line = getelementptr inbounds %"class.dealii::FiniteElementData", %"class.dealii::FiniteElementData"* %23, i32 0, i32 1, !dbg !11812
  %24 = load i32, i32* %dofs_per_line, align 4, !dbg !11812
  %div = udiv i32 %sub, %24, !dbg !11813
  store i32 %div, i32* %line_index, align 4, !dbg !11808
  call void @llvm.dbg.declare(metadata i32* %i15, metadata !11814, metadata !DIExpression()), !dbg !11816
  store i32 0, i32* %i15, align 4, !dbg !11816
  br label %for.cond16, !dbg !11817

for.cond16:                                       ; preds = %for.inc23, %if.then11
  %25 = load i32, i32* %i15, align 4, !dbg !11818
  %cmp17 = icmp ult i32 %25, 4, !dbg !11820
  br i1 %cmp17, label %for.body18, label %for.end25, !dbg !11821

for.body18:                                       ; preds = %for.cond16
  %26 = load i32, i32* %face_index.addr, align 4, !dbg !11822
  %27 = load i32, i32* %i15, align 4, !dbg !11824
  %call19 = call i32 @_ZN6dealii12GeometryInfoILi3EE18face_to_cell_linesEjjbbb(i32 %26, i32 %27, i1 zeroext true, i1 zeroext false, i1 zeroext false), !dbg !11825
  %28 = load i32, i32* %line_index, align 4, !dbg !11826
  %cmp20 = icmp eq i32 %call19, %28, !dbg !11827
  br i1 %cmp20, label %if.then21, label %if.end22, !dbg !11828

if.then21:                                        ; preds = %for.body18
  store i1 true, i1* %retval, align 1, !dbg !11829
  br label %return, !dbg !11829

if.end22:                                         ; preds = %for.body18
  br label %for.inc23, !dbg !11826

for.inc23:                                        ; preds = %if.end22
  %29 = load i32, i32* %i15, align 4, !dbg !11830
  %inc24 = add i32 %29, 1, !dbg !11830
  store i32 %inc24, i32* %i15, align 4, !dbg !11830
  br label %for.cond16, !dbg !11831, !llvm.loop !11832

for.end25:                                        ; preds = %for.cond16
  store i1 false, i1* %retval, align 1, !dbg !11834
  br label %return, !dbg !11834

if.else26:                                        ; preds = %if.else
  %30 = load i32, i32* %shape_index.addr, align 4, !dbg !11835
  %31 = bitcast %"class.dealii::FE_Q_Hierarchical"* %this1 to i8*, !dbg !11837
  %add.ptr27 = getelementptr inbounds i8, i8* %31, i64 72, !dbg !11837
  %32 = bitcast i8* %add.ptr27 to %"class.dealii::FiniteElementData"*, !dbg !11837
  %first_hex_index28 = getelementptr inbounds %"class.dealii::FiniteElementData", %"class.dealii::FiniteElementData"* %32, i32 0, i32 6, !dbg !11837
  %33 = load i32, i32* %first_hex_index28, align 8, !dbg !11837
  %cmp29 = icmp ult i32 %30, %33, !dbg !11838
  br i1 %cmp29, label %if.then30, label %if.else37, !dbg !11839

if.then30:                                        ; preds = %if.else26
  call void @llvm.dbg.declare(metadata i32* %quad_index, metadata !11840, metadata !DIExpression()), !dbg !11842
  %34 = load i32, i32* %shape_index.addr, align 4, !dbg !11843
  %35 = bitcast %"class.dealii::FE_Q_Hierarchical"* %this1 to i8*, !dbg !11844
  %add.ptr31 = getelementptr inbounds i8, i8* %35, i64 72, !dbg !11844
  %36 = bitcast i8* %add.ptr31 to %"class.dealii::FiniteElementData"*, !dbg !11844
  %first_quad_index32 = getelementptr inbounds %"class.dealii::FiniteElementData", %"class.dealii::FiniteElementData"* %36, i32 0, i32 5, !dbg !11844
  %37 = load i32, i32* %first_quad_index32, align 4, !dbg !11844
  %sub33 = sub i32 %34, %37, !dbg !11845
  %38 = bitcast %"class.dealii::FE_Q_Hierarchical"* %this1 to i8*, !dbg !11846
  %add.ptr34 = getelementptr inbounds i8, i8* %38, i64 72, !dbg !11846
  %39 = bitcast i8* %add.ptr34 to %"class.dealii::FiniteElementData"*, !dbg !11846
  %dofs_per_quad = getelementptr inbounds %"class.dealii::FiniteElementData", %"class.dealii::FiniteElementData"* %39, i32 0, i32 2, !dbg !11846
  %40 = load i32, i32* %dofs_per_quad, align 8, !dbg !11846
  %div35 = udiv i32 %sub33, %40, !dbg !11847
  store i32 %div35, i32* %quad_index, align 4, !dbg !11842
  %41 = load i32, i32* %quad_index, align 4, !dbg !11848
  %42 = load i32, i32* %face_index.addr, align 4, !dbg !11850
  %cmp36 = icmp eq i32 %41, %42, !dbg !11851
  store i1 %cmp36, i1* %retval, align 1, !dbg !11852
  br label %return, !dbg !11852

if.else37:                                        ; preds = %if.else26
  store i1 false, i1* %retval, align 1, !dbg !11853
  br label %return, !dbg !11853

return:                                           ; preds = %if.else37, %if.then30, %for.end25, %if.then21, %for.end, %if.then7, %if.then
  %43 = load i1, i1* %retval, align 1, !dbg !11855
  ret i1 %43, !dbg !11855
}

declare dso_local i32 @_ZN6dealii12GeometryInfoILi3EE21face_to_cell_verticesEjjbbb(i32, i32, i1 zeroext, i1 zeroext, i1 zeroext) #2

declare dso_local i32 @_ZN6dealii12GeometryInfoILi3EE18face_to_cell_linesEjjbbb(i32, i32, i1 zeroext, i1 zeroext, i1 zeroext) #2

; Function Attrs: noinline nounwind uwtable
define weak_odr dso_local i32 @_ZNK6dealii17FE_Q_HierarchicalILi3EE18memory_consumptionEv(%"class.dealii::FE_Q_Hierarchical"* %this) unnamed_addr #1 comdat align 2 !dbg !11856 {
entry:
  %this.addr = alloca %"class.dealii::FE_Q_Hierarchical"*, align 8
  store %"class.dealii::FE_Q_Hierarchical"* %this, %"class.dealii::FE_Q_Hierarchical"** %this.addr, align 8
  call void @llvm.dbg.declare(metadata %"class.dealii::FE_Q_Hierarchical"** %this.addr, metadata !11857, metadata !DIExpression()), !dbg !11858
  %this1 = load %"class.dealii::FE_Q_Hierarchical"*, %"class.dealii::FE_Q_Hierarchical"** %this.addr, align 8
  ret i32 0, !dbg !11859
}

; Function Attrs: noinline uwtable
define weak_odr dso_local void @_ZNK6dealii17FE_Q_HierarchicalILi3EE18get_embedding_dofsEj(%"class.std::vector.58"* noalias sret %agg.result, %"class.dealii::FE_Q_Hierarchical"* %this, i32 %sub_degree) #0 comdat align 2 personality i8* bitcast (i32 (...)* @__gxx_personality_v0 to i8*) !dbg !11860 {
entry:
  %result.ptr = alloca i8*, align 8
  %this.addr = alloca %"class.dealii::FE_Q_Hierarchical"*, align 8
  %sub_degree.addr = alloca i32, align 4
  %nrvo = alloca i1, align 1
  %ref.tmp = alloca %"class.std::allocator.60", align 1
  %exn.slot = alloca i8*
  %ehselector.slot = alloca i32
  %i = alloca i32, align 4
  %nrvo5 = alloca i1, align 1
  %ref.tmp8 = alloca %"class.std::allocator.60", align 1
  %i11 = alloca i32, align 4
  %nrvo26 = alloca i1, align 1
  %ref.tmp31 = alloca %"class.std::allocator.60", align 1
  %i34 = alloca i32, align 4
  %j = alloca i32, align 4
  %line = alloca i32, align 4
  %j76 = alloca i32, align 4
  %k = alloca i32, align 4
  %face = alloca i32, align 4
  %j144 = alloca i32, align 4
  %k156 = alloca i32, align 4
  %l = alloca i32, align 4
  %0 = bitcast %"class.std::vector.58"* %agg.result to i8*
  store i8* %0, i8** %result.ptr, align 8
  store %"class.dealii::FE_Q_Hierarchical"* %this, %"class.dealii::FE_Q_Hierarchical"** %this.addr, align 8
  call void @llvm.dbg.declare(metadata %"class.dealii::FE_Q_Hierarchical"** %this.addr, metadata !11861, metadata !DIExpression()), !dbg !11862
  store i32 %sub_degree, i32* %sub_degree.addr, align 4
  call void @llvm.dbg.declare(metadata i32* %sub_degree.addr, metadata !11863, metadata !DIExpression()), !dbg !11864
  %this1 = load %"class.dealii::FE_Q_Hierarchical"*, %"class.dealii::FE_Q_Hierarchical"** %this.addr, align 8
  %1 = load i32, i32* %sub_degree.addr, align 4, !dbg !11865
  %cmp = icmp eq i32 %1, 1, !dbg !11867
  br i1 %cmp, label %if.then, label %if.else, !dbg !11868

if.then:                                          ; preds = %entry
  store i1 false, i1* %nrvo, align 1, !dbg !11869
  call void @llvm.dbg.declare(metadata i8** %result.ptr, metadata !11871, metadata !DIExpression(DW_OP_deref)), !dbg !11872
  call void @_ZNSaIjEC2Ev(%"class.std::allocator.60"* %ref.tmp) #4, !dbg !11872
  invoke void @_ZNSt6vectorIjSaIjEEC2EmRKS0_(%"class.std::vector.58"* %agg.result, i64 8, %"class.std::allocator.60"* dereferenceable(1) %ref.tmp)
          to label %invoke.cont unwind label %lpad, !dbg !11872

invoke.cont:                                      ; preds = %if.then
  call void @_ZNSaIjED2Ev(%"class.std::allocator.60"* %ref.tmp) #4, !dbg !11872
  call void @llvm.dbg.declare(metadata i32* %i, metadata !11873, metadata !DIExpression()), !dbg !11875
  store i32 0, i32* %i, align 4, !dbg !11875
  br label %for.cond, !dbg !11876

for.cond:                                         ; preds = %for.inc, %invoke.cont
  %2 = load i32, i32* %i, align 4, !dbg !11877
  %cmp2 = icmp ult i32 %2, 8, !dbg !11879
  br i1 %cmp2, label %for.body, label %for.end, !dbg !11880

for.body:                                         ; preds = %for.cond
  %3 = load i32, i32* %i, align 4, !dbg !11881
  %4 = load i32, i32* %i, align 4, !dbg !11882
  %conv = zext i32 %4 to i64, !dbg !11882
  %call = call dereferenceable(4) i32* @_ZNSt6vectorIjSaIjEEixEm(%"class.std::vector.58"* %agg.result, i64 %conv) #4, !dbg !11883
  store i32 %3, i32* %call, align 4, !dbg !11884
  br label %for.inc, !dbg !11883

for.inc:                                          ; preds = %for.body
  %5 = load i32, i32* %i, align 4, !dbg !11885
  %inc = add i32 %5, 1, !dbg !11885
  store i32 %inc, i32* %i, align 4, !dbg !11885
  br label %for.cond, !dbg !11886, !llvm.loop !11887

lpad:                                             ; preds = %if.then
  %6 = landingpad { i8*, i32 }
          cleanup, !dbg !11889
  %7 = extractvalue { i8*, i32 } %6, 0, !dbg !11889
  store i8* %7, i8** %exn.slot, align 8, !dbg !11889
  %8 = extractvalue { i8*, i32 } %6, 1, !dbg !11889
  store i32 %8, i32* %ehselector.slot, align 4, !dbg !11889
  call void @_ZNSaIjED2Ev(%"class.std::allocator.60"* %ref.tmp) #4, !dbg !11872
  br label %eh.resume, !dbg !11872

for.end:                                          ; preds = %for.cond
  store i1 true, i1* %nrvo, align 1, !dbg !11890
  %nrvo.val = load i1, i1* %nrvo, align 1, !dbg !11891
  br i1 %nrvo.val, label %nrvo.skipdtor, label %nrvo.unused, !dbg !11891

nrvo.unused:                                      ; preds = %for.end
  call void @_ZNSt6vectorIjSaIjEED2Ev(%"class.std::vector.58"* %agg.result) #4, !dbg !11891
  br label %nrvo.skipdtor, !dbg !11891

nrvo.skipdtor:                                    ; preds = %nrvo.unused, %for.end
  br label %return

if.else:                                          ; preds = %entry
  %9 = load i32, i32* %sub_degree.addr, align 4, !dbg !11892
  %10 = bitcast %"class.dealii::FE_Q_Hierarchical"* %this1 to i8*, !dbg !11894
  %add.ptr = getelementptr inbounds i8, i8* %10, i64 72, !dbg !11894
  %11 = bitcast i8* %add.ptr to %"class.dealii::FiniteElementData"*, !dbg !11894
  %degree = getelementptr inbounds %"class.dealii::FiniteElementData", %"class.dealii::FiniteElementData"* %11, i32 0, i32 13, !dbg !11894
  %12 = load i32, i32* %degree, align 4, !dbg !11894
  %cmp3 = icmp eq i32 %9, %12, !dbg !11895
  br i1 %cmp3, label %if.then4, label %if.end, !dbg !11896

if.then4:                                         ; preds = %if.else
  store i1 false, i1* %nrvo5, align 1, !dbg !11897
  call void @llvm.dbg.declare(metadata i8** %result.ptr, metadata !11899, metadata !DIExpression(DW_OP_deref)), !dbg !11900
  %13 = bitcast %"class.dealii::FE_Q_Hierarchical"* %this1 to i8*, !dbg !11901
  %add.ptr6 = getelementptr inbounds i8, i8* %13, i64 72, !dbg !11901
  %14 = bitcast i8* %add.ptr6 to %"class.dealii::FiniteElementData"*, !dbg !11901
  %dofs_per_cell = getelementptr inbounds %"class.dealii::FiniteElementData", %"class.dealii::FiniteElementData"* %14, i32 0, i32 10, !dbg !11901
  %15 = load i32, i32* %dofs_per_cell, align 8, !dbg !11901
  %conv7 = zext i32 %15 to i64, !dbg !11902
  call void @_ZNSaIjEC2Ev(%"class.std::allocator.60"* %ref.tmp8) #4, !dbg !11900
  invoke void @_ZNSt6vectorIjSaIjEEC2EmRKS0_(%"class.std::vector.58"* %agg.result, i64 %conv7, %"class.std::allocator.60"* dereferenceable(1) %ref.tmp8)
          to label %invoke.cont10 unwind label %lpad9, !dbg !11900

invoke.cont10:                                    ; preds = %if.then4
  call void @_ZNSaIjED2Ev(%"class.std::allocator.60"* %ref.tmp8) #4, !dbg !11900
  call void @llvm.dbg.declare(metadata i32* %i11, metadata !11903, metadata !DIExpression()), !dbg !11905
  store i32 0, i32* %i11, align 4, !dbg !11905
  br label %for.cond12, !dbg !11906

for.cond12:                                       ; preds = %for.inc19, %invoke.cont10
  %16 = load i32, i32* %i11, align 4, !dbg !11907
  %17 = bitcast %"class.dealii::FE_Q_Hierarchical"* %this1 to i8*, !dbg !11909
  %add.ptr13 = getelementptr inbounds i8, i8* %17, i64 72, !dbg !11909
  %18 = bitcast i8* %add.ptr13 to %"class.dealii::FiniteElementData"*, !dbg !11909
  %dofs_per_cell14 = getelementptr inbounds %"class.dealii::FiniteElementData", %"class.dealii::FiniteElementData"* %18, i32 0, i32 10, !dbg !11909
  %19 = load i32, i32* %dofs_per_cell14, align 8, !dbg !11909
  %cmp15 = icmp ult i32 %16, %19, !dbg !11910
  br i1 %cmp15, label %for.body16, label %for.end21, !dbg !11911

for.body16:                                       ; preds = %for.cond12
  %20 = load i32, i32* %i11, align 4, !dbg !11912
  %21 = load i32, i32* %i11, align 4, !dbg !11913
  %conv17 = zext i32 %21 to i64, !dbg !11913
  %call18 = call dereferenceable(4) i32* @_ZNSt6vectorIjSaIjEEixEm(%"class.std::vector.58"* %agg.result, i64 %conv17) #4, !dbg !11914
  store i32 %20, i32* %call18, align 4, !dbg !11915
  br label %for.inc19, !dbg !11914

for.inc19:                                        ; preds = %for.body16
  %22 = load i32, i32* %i11, align 4, !dbg !11916
  %inc20 = add i32 %22, 1, !dbg !11916
  store i32 %inc20, i32* %i11, align 4, !dbg !11916
  br label %for.cond12, !dbg !11917, !llvm.loop !11918

lpad9:                                            ; preds = %if.then4
  %23 = landingpad { i8*, i32 }
          cleanup, !dbg !11920
  %24 = extractvalue { i8*, i32 } %23, 0, !dbg !11920
  store i8* %24, i8** %exn.slot, align 8, !dbg !11920
  %25 = extractvalue { i8*, i32 } %23, 1, !dbg !11920
  store i32 %25, i32* %ehselector.slot, align 4, !dbg !11920
  call void @_ZNSaIjED2Ev(%"class.std::allocator.60"* %ref.tmp8) #4, !dbg !11900
  br label %eh.resume, !dbg !11900

for.end21:                                        ; preds = %for.cond12
  store i1 true, i1* %nrvo5, align 1, !dbg !11921
  %nrvo.val22 = load i1, i1* %nrvo5, align 1, !dbg !11922
  br i1 %nrvo.val22, label %nrvo.skipdtor24, label %nrvo.unused23, !dbg !11922

nrvo.unused23:                                    ; preds = %for.end21
  call void @_ZNSt6vectorIjSaIjEED2Ev(%"class.std::vector.58"* %agg.result) #4, !dbg !11922
  br label %nrvo.skipdtor24, !dbg !11922

nrvo.skipdtor24:                                  ; preds = %nrvo.unused23, %for.end21
  br label %return

if.end:                                           ; preds = %if.else
  br label %if.end25

if.end25:                                         ; preds = %if.end
  store i1 false, i1* %nrvo26, align 1, !dbg !11923
  call void @llvm.dbg.declare(metadata i8** %result.ptr, metadata !11926, metadata !DIExpression(DW_OP_deref)), !dbg !11927
  %26 = load i32, i32* %sub_degree.addr, align 4, !dbg !11928
  %add = add i32 %26, 1, !dbg !11929
  %27 = load i32, i32* %sub_degree.addr, align 4, !dbg !11930
  %add27 = add i32 %27, 1, !dbg !11931
  %mul = mul i32 %add, %add27, !dbg !11932
  %28 = load i32, i32* %sub_degree.addr, align 4, !dbg !11933
  %add28 = add i32 %28, 1, !dbg !11934
  %mul29 = mul i32 %mul, %add28, !dbg !11935
  %conv30 = zext i32 %mul29 to i64, !dbg !11936
  call void @_ZNSaIjEC2Ev(%"class.std::allocator.60"* %ref.tmp31) #4, !dbg !11927
  invoke void @_ZNSt6vectorIjSaIjEEC2EmRKS0_(%"class.std::vector.58"* %agg.result, i64 %conv30, %"class.std::allocator.60"* dereferenceable(1) %ref.tmp31)
          to label %invoke.cont33 unwind label %lpad32, !dbg !11927

invoke.cont33:                                    ; preds = %if.end25
  call void @_ZNSaIjED2Ev(%"class.std::allocator.60"* %ref.tmp31) #4, !dbg !11927
  call void @llvm.dbg.declare(metadata i32* %i34, metadata !11937, metadata !DIExpression()), !dbg !11939
  store i32 0, i32* %i34, align 4, !dbg !11939
  br label %for.cond35, !dbg !11940

for.cond35:                                       ; preds = %for.inc223, %invoke.cont33
  %29 = load i32, i32* %i34, align 4, !dbg !11941
  %30 = load i32, i32* %sub_degree.addr, align 4, !dbg !11943
  %add36 = add i32 %30, 1, !dbg !11944
  %31 = load i32, i32* %sub_degree.addr, align 4, !dbg !11945
  %add37 = add i32 %31, 1, !dbg !11946
  %mul38 = mul i32 %add36, %add37, !dbg !11947
  %32 = load i32, i32* %sub_degree.addr, align 4, !dbg !11948
  %add39 = add i32 %32, 1, !dbg !11949
  %mul40 = mul i32 %mul38, %add39, !dbg !11950
  %cmp41 = icmp ult i32 %29, %mul40, !dbg !11951
  br i1 %cmp41, label %for.body42, label %for.end225, !dbg !11952

for.body42:                                       ; preds = %for.cond35
  %33 = load i32, i32* %i34, align 4, !dbg !11953
  %cmp43 = icmp ult i32 %33, 8, !dbg !11956
  br i1 %cmp43, label %if.then44, label %if.else47, !dbg !11957

if.then44:                                        ; preds = %for.body42
  %34 = load i32, i32* %i34, align 4, !dbg !11958
  %35 = load i32, i32* %i34, align 4, !dbg !11959
  %conv45 = zext i32 %35 to i64, !dbg !11959
  %call46 = call dereferenceable(4) i32* @_ZNSt6vectorIjSaIjEEixEm(%"class.std::vector.58"* %agg.result, i64 %conv45) #4, !dbg !11960
  store i32 %34, i32* %call46, align 4, !dbg !11961
  br label %if.end222, !dbg !11960

lpad32:                                           ; preds = %if.end25
  %36 = landingpad { i8*, i32 }
          cleanup, !dbg !11962
  %37 = extractvalue { i8*, i32 } %36, 0, !dbg !11962
  store i8* %37, i8** %exn.slot, align 8, !dbg !11962
  %38 = extractvalue { i8*, i32 } %36, 1, !dbg !11962
  store i32 %38, i32* %ehselector.slot, align 4, !dbg !11962
  call void @_ZNSaIjED2Ev(%"class.std::allocator.60"* %ref.tmp31) #4, !dbg !11927
  br label %eh.resume, !dbg !11927

if.else47:                                        ; preds = %for.body42
  %39 = load i32, i32* %i34, align 4, !dbg !11963
  %40 = load i32, i32* %sub_degree.addr, align 4, !dbg !11965
  %sub = sub i32 %40, 1, !dbg !11966
  %mul48 = mul i32 12, %sub, !dbg !11967
  %add49 = add i32 8, %mul48, !dbg !11968
  %cmp50 = icmp ult i32 %39, %add49, !dbg !11969
  br i1 %cmp50, label %if.then51, label %if.else65, !dbg !11970

if.then51:                                        ; preds = %if.else47
  call void @llvm.dbg.declare(metadata i32* %j, metadata !11971, metadata !DIExpression()), !dbg !11973
  %41 = load i32, i32* %i34, align 4, !dbg !11974
  %sub52 = sub i32 %41, 8, !dbg !11975
  %42 = load i32, i32* %sub_degree.addr, align 4, !dbg !11976
  %sub53 = sub i32 %42, 1, !dbg !11977
  %rem = urem i32 %sub52, %sub53, !dbg !11978
  store i32 %rem, i32* %j, align 4, !dbg !11973
  call void @llvm.dbg.declare(metadata i32* %line, metadata !11979, metadata !DIExpression()), !dbg !11980
  %43 = load i32, i32* %i34, align 4, !dbg !11981
  %sub54 = sub i32 %43, 8, !dbg !11982
  %44 = load i32, i32* %j, align 4, !dbg !11983
  %sub55 = sub i32 %sub54, %44, !dbg !11984
  %45 = load i32, i32* %sub_degree.addr, align 4, !dbg !11985
  %sub56 = sub i32 %45, 1, !dbg !11986
  %div = udiv i32 %sub55, %sub56, !dbg !11987
  store i32 %div, i32* %line, align 4, !dbg !11980
  %46 = load i32, i32* %line, align 4, !dbg !11988
  %47 = bitcast %"class.dealii::FE_Q_Hierarchical"* %this1 to i8*, !dbg !11989
  %add.ptr57 = getelementptr inbounds i8, i8* %47, i64 72, !dbg !11989
  %48 = bitcast i8* %add.ptr57 to %"class.dealii::FiniteElementData"*, !dbg !11989
  %degree58 = getelementptr inbounds %"class.dealii::FiniteElementData", %"class.dealii::FiniteElementData"* %48, i32 0, i32 13, !dbg !11989
  %49 = load i32, i32* %degree58, align 4, !dbg !11989
  %sub59 = sub i32 %49, 1, !dbg !11990
  %mul60 = mul i32 %46, %sub59, !dbg !11991
  %add61 = add i32 8, %mul60, !dbg !11992
  %50 = load i32, i32* %j, align 4, !dbg !11993
  %add62 = add i32 %add61, %50, !dbg !11994
  %51 = load i32, i32* %i34, align 4, !dbg !11995
  %conv63 = zext i32 %51 to i64, !dbg !11995
  %call64 = call dereferenceable(4) i32* @_ZNSt6vectorIjSaIjEEixEm(%"class.std::vector.58"* %agg.result, i64 %conv63) #4, !dbg !11996
  store i32 %add62, i32* %call64, align 4, !dbg !11997
  br label %if.end221, !dbg !11998

if.else65:                                        ; preds = %if.else47
  %52 = load i32, i32* %i34, align 4, !dbg !11999
  %53 = load i32, i32* %sub_degree.addr, align 4, !dbg !12001
  %sub66 = sub i32 %53, 1, !dbg !12002
  %mul67 = mul i32 12, %sub66, !dbg !12003
  %add68 = add i32 8, %mul67, !dbg !12004
  %54 = load i32, i32* %sub_degree.addr, align 4, !dbg !12005
  %sub69 = sub i32 %54, 1, !dbg !12006
  %mul70 = mul i32 6, %sub69, !dbg !12007
  %55 = load i32, i32* %sub_degree.addr, align 4, !dbg !12008
  %sub71 = sub i32 %55, 1, !dbg !12009
  %mul72 = mul i32 %mul70, %sub71, !dbg !12010
  %add73 = add i32 %add68, %mul72, !dbg !12011
  %cmp74 = icmp ult i32 %52, %add73, !dbg !12012
  br i1 %cmp74, label %if.then75, label %if.else126, !dbg !12013

if.then75:                                        ; preds = %if.else65
  call void @llvm.dbg.declare(metadata i32* %j76, metadata !12014, metadata !DIExpression()), !dbg !12016
  %56 = load i32, i32* %i34, align 4, !dbg !12017
  %sub77 = sub i32 %56, 8, !dbg !12018
  %57 = load i32, i32* %sub_degree.addr, align 4, !dbg !12019
  %sub78 = sub i32 %57, 1, !dbg !12020
  %mul79 = mul i32 12, %sub78, !dbg !12021
  %sub80 = sub i32 %sub77, %mul79, !dbg !12022
  %58 = load i32, i32* %sub_degree.addr, align 4, !dbg !12023
  %sub81 = sub i32 %58, 1, !dbg !12024
  %rem82 = urem i32 %sub80, %sub81, !dbg !12025
  store i32 %rem82, i32* %j76, align 4, !dbg !12016
  call void @llvm.dbg.declare(metadata i32* %k, metadata !12026, metadata !DIExpression()), !dbg !12027
  %59 = load i32, i32* %i34, align 4, !dbg !12028
  %sub83 = sub i32 %59, 8, !dbg !12029
  %60 = load i32, i32* %sub_degree.addr, align 4, !dbg !12030
  %sub84 = sub i32 %60, 1, !dbg !12031
  %mul85 = mul i32 12, %sub84, !dbg !12032
  %sub86 = sub i32 %sub83, %mul85, !dbg !12033
  %61 = load i32, i32* %j76, align 4, !dbg !12034
  %sub87 = sub i32 %sub86, %61, !dbg !12035
  %62 = load i32, i32* %sub_degree.addr, align 4, !dbg !12036
  %sub88 = sub i32 %62, 1, !dbg !12037
  %div89 = udiv i32 %sub87, %sub88, !dbg !12038
  %63 = load i32, i32* %sub_degree.addr, align 4, !dbg !12039
  %sub90 = sub i32 %63, 1, !dbg !12040
  %rem91 = urem i32 %div89, %sub90, !dbg !12041
  store i32 %rem91, i32* %k, align 4, !dbg !12027
  call void @llvm.dbg.declare(metadata i32* %face, metadata !12042, metadata !DIExpression()), !dbg !12043
  %64 = load i32, i32* %i34, align 4, !dbg !12044
  %sub92 = sub i32 %64, 8, !dbg !12045
  %65 = load i32, i32* %sub_degree.addr, align 4, !dbg !12046
  %sub93 = sub i32 %65, 1, !dbg !12047
  %mul94 = mul i32 12, %sub93, !dbg !12048
  %sub95 = sub i32 %sub92, %mul94, !dbg !12049
  %66 = load i32, i32* %k, align 4, !dbg !12050
  %67 = load i32, i32* %sub_degree.addr, align 4, !dbg !12051
  %sub96 = sub i32 %67, 1, !dbg !12052
  %mul97 = mul i32 %66, %sub96, !dbg !12053
  %sub98 = sub i32 %sub95, %mul97, !dbg !12054
  %68 = load i32, i32* %j76, align 4, !dbg !12055
  %sub99 = sub i32 %sub98, %68, !dbg !12056
  %69 = load i32, i32* %sub_degree.addr, align 4, !dbg !12057
  %sub100 = sub i32 %69, 1, !dbg !12058
  %70 = load i32, i32* %sub_degree.addr, align 4, !dbg !12059
  %sub101 = sub i32 %70, 1, !dbg !12060
  %mul102 = mul i32 %sub100, %sub101, !dbg !12061
  %div103 = udiv i32 %sub99, %mul102, !dbg !12062
  store i32 %div103, i32* %face, align 4, !dbg !12043
  %71 = bitcast %"class.dealii::FE_Q_Hierarchical"* %this1 to i8*, !dbg !12063
  %add.ptr104 = getelementptr inbounds i8, i8* %71, i64 72, !dbg !12063
  %72 = bitcast i8* %add.ptr104 to %"class.dealii::FiniteElementData"*, !dbg !12063
  %degree105 = getelementptr inbounds %"class.dealii::FiniteElementData", %"class.dealii::FiniteElementData"* %72, i32 0, i32 13, !dbg !12063
  %73 = load i32, i32* %degree105, align 4, !dbg !12063
  %sub106 = sub i32 %73, 1, !dbg !12064
  %mul107 = mul i32 12, %sub106, !dbg !12065
  %add108 = add i32 8, %mul107, !dbg !12066
  %74 = load i32, i32* %face, align 4, !dbg !12067
  %75 = bitcast %"class.dealii::FE_Q_Hierarchical"* %this1 to i8*, !dbg !12068
  %add.ptr109 = getelementptr inbounds i8, i8* %75, i64 72, !dbg !12068
  %76 = bitcast i8* %add.ptr109 to %"class.dealii::FiniteElementData"*, !dbg !12068
  %degree110 = getelementptr inbounds %"class.dealii::FiniteElementData", %"class.dealii::FiniteElementData"* %76, i32 0, i32 13, !dbg !12068
  %77 = load i32, i32* %degree110, align 4, !dbg !12068
  %sub111 = sub i32 %77, 1, !dbg !12069
  %mul112 = mul i32 %74, %sub111, !dbg !12070
  %78 = bitcast %"class.dealii::FE_Q_Hierarchical"* %this1 to i8*, !dbg !12071
  %add.ptr113 = getelementptr inbounds i8, i8* %78, i64 72, !dbg !12071
  %79 = bitcast i8* %add.ptr113 to %"class.dealii::FiniteElementData"*, !dbg !12071
  %degree114 = getelementptr inbounds %"class.dealii::FiniteElementData", %"class.dealii::FiniteElementData"* %79, i32 0, i32 13, !dbg !12071
  %80 = load i32, i32* %degree114, align 4, !dbg !12071
  %sub115 = sub i32 %80, 1, !dbg !12072
  %mul116 = mul i32 %mul112, %sub115, !dbg !12073
  %add117 = add i32 %add108, %mul116, !dbg !12074
  %81 = load i32, i32* %k, align 4, !dbg !12075
  %82 = bitcast %"class.dealii::FE_Q_Hierarchical"* %this1 to i8*, !dbg !12076
  %add.ptr118 = getelementptr inbounds i8, i8* %82, i64 72, !dbg !12076
  %83 = bitcast i8* %add.ptr118 to %"class.dealii::FiniteElementData"*, !dbg !12076
  %degree119 = getelementptr inbounds %"class.dealii::FiniteElementData", %"class.dealii::FiniteElementData"* %83, i32 0, i32 13, !dbg !12076
  %84 = load i32, i32* %degree119, align 4, !dbg !12076
  %sub120 = sub i32 %84, 1, !dbg !12077
  %mul121 = mul i32 %81, %sub120, !dbg !12078
  %add122 = add i32 %add117, %mul121, !dbg !12079
  %85 = load i32, i32* %j76, align 4, !dbg !12080
  %add123 = add i32 %add122, %85, !dbg !12081
  %86 = load i32, i32* %i34, align 4, !dbg !12082
  %conv124 = zext i32 %86 to i64, !dbg !12082
  %call125 = call dereferenceable(4) i32* @_ZNSt6vectorIjSaIjEEixEm(%"class.std::vector.58"* %agg.result, i64 %conv124) #4, !dbg !12083
  store i32 %add123, i32* %call125, align 4, !dbg !12084
  br label %if.end220, !dbg !12085

if.else126:                                       ; preds = %if.else65
  %87 = load i32, i32* %i34, align 4, !dbg !12086
  %88 = load i32, i32* %sub_degree.addr, align 4, !dbg !12088
  %sub127 = sub i32 %88, 1, !dbg !12089
  %mul128 = mul i32 12, %sub127, !dbg !12090
  %add129 = add i32 8, %mul128, !dbg !12091
  %89 = load i32, i32* %sub_degree.addr, align 4, !dbg !12092
  %sub130 = sub i32 %89, 1, !dbg !12093
  %mul131 = mul i32 6, %sub130, !dbg !12094
  %90 = load i32, i32* %sub_degree.addr, align 4, !dbg !12095
  %sub132 = sub i32 %90, 1, !dbg !12096
  %mul133 = mul i32 %mul131, %sub132, !dbg !12097
  %add134 = add i32 %add129, %mul133, !dbg !12098
  %91 = load i32, i32* %sub_degree.addr, align 4, !dbg !12099
  %sub135 = sub i32 %91, 1, !dbg !12100
  %mul136 = mul i32 1, %sub135, !dbg !12101
  %92 = load i32, i32* %sub_degree.addr, align 4, !dbg !12102
  %sub137 = sub i32 %92, 1, !dbg !12103
  %mul138 = mul i32 %mul136, %sub137, !dbg !12104
  %93 = load i32, i32* %sub_degree.addr, align 4, !dbg !12105
  %sub139 = sub i32 %93, 1, !dbg !12106
  %mul140 = mul i32 %mul138, %sub139, !dbg !12107
  %add141 = add i32 %add134, %mul140, !dbg !12108
  %cmp142 = icmp ult i32 %87, %add141, !dbg !12109
  br i1 %cmp142, label %if.then143, label %if.end219, !dbg !12110

if.then143:                                       ; preds = %if.else126
  call void @llvm.dbg.declare(metadata i32* %j144, metadata !12111, metadata !DIExpression()), !dbg !12113
  %94 = load i32, i32* %i34, align 4, !dbg !12114
  %sub145 = sub i32 %94, 8, !dbg !12115
  %95 = load i32, i32* %sub_degree.addr, align 4, !dbg !12116
  %sub146 = sub i32 %95, 1, !dbg !12117
  %mul147 = mul i32 12, %sub146, !dbg !12118
  %sub148 = sub i32 %sub145, %mul147, !dbg !12119
  %96 = load i32, i32* %sub_degree.addr, align 4, !dbg !12120
  %sub149 = sub i32 %96, 1, !dbg !12121
  %mul150 = mul i32 6, %sub149, !dbg !12122
  %97 = load i32, i32* %sub_degree.addr, align 4, !dbg !12123
  %sub151 = sub i32 %97, 1, !dbg !12124
  %mul152 = mul i32 %mul150, %sub151, !dbg !12125
  %sub153 = sub i32 %sub148, %mul152, !dbg !12126
  %98 = load i32, i32* %sub_degree.addr, align 4, !dbg !12127
  %sub154 = sub i32 %98, 1, !dbg !12128
  %rem155 = urem i32 %sub153, %sub154, !dbg !12129
  store i32 %rem155, i32* %j144, align 4, !dbg !12113
  call void @llvm.dbg.declare(metadata i32* %k156, metadata !12130, metadata !DIExpression()), !dbg !12131
  %99 = load i32, i32* %i34, align 4, !dbg !12132
  %sub157 = sub i32 %99, 8, !dbg !12133
  %100 = load i32, i32* %sub_degree.addr, align 4, !dbg !12134
  %sub158 = sub i32 %100, 1, !dbg !12135
  %mul159 = mul i32 12, %sub158, !dbg !12136
  %sub160 = sub i32 %sub157, %mul159, !dbg !12137
  %101 = load i32, i32* %sub_degree.addr, align 4, !dbg !12138
  %sub161 = sub i32 %101, 1, !dbg !12139
  %mul162 = mul i32 6, %sub161, !dbg !12140
  %102 = load i32, i32* %sub_degree.addr, align 4, !dbg !12141
  %sub163 = sub i32 %102, 1, !dbg !12142
  %mul164 = mul i32 %mul162, %sub163, !dbg !12143
  %sub165 = sub i32 %sub160, %mul164, !dbg !12144
  %103 = load i32, i32* %j144, align 4, !dbg !12145
  %sub166 = sub i32 %sub165, %103, !dbg !12146
  %104 = load i32, i32* %sub_degree.addr, align 4, !dbg !12147
  %sub167 = sub i32 %104, 1, !dbg !12148
  %div168 = udiv i32 %sub166, %sub167, !dbg !12149
  %105 = load i32, i32* %sub_degree.addr, align 4, !dbg !12150
  %sub169 = sub i32 %105, 1, !dbg !12151
  %rem170 = urem i32 %div168, %sub169, !dbg !12152
  store i32 %rem170, i32* %k156, align 4, !dbg !12131
  call void @llvm.dbg.declare(metadata i32* %l, metadata !12153, metadata !DIExpression()), !dbg !12154
  %106 = load i32, i32* %i34, align 4, !dbg !12155
  %sub171 = sub i32 %106, 8, !dbg !12156
  %107 = load i32, i32* %sub_degree.addr, align 4, !dbg !12157
  %sub172 = sub i32 %107, 1, !dbg !12158
  %mul173 = mul i32 12, %sub172, !dbg !12159
  %sub174 = sub i32 %sub171, %mul173, !dbg !12160
  %108 = load i32, i32* %sub_degree.addr, align 4, !dbg !12161
  %sub175 = sub i32 %108, 1, !dbg !12162
  %mul176 = mul i32 6, %sub175, !dbg !12163
  %109 = load i32, i32* %sub_degree.addr, align 4, !dbg !12164
  %sub177 = sub i32 %109, 1, !dbg !12165
  %mul178 = mul i32 %mul176, %sub177, !dbg !12166
  %sub179 = sub i32 %sub174, %mul178, !dbg !12167
  %110 = load i32, i32* %j144, align 4, !dbg !12168
  %sub180 = sub i32 %sub179, %110, !dbg !12169
  %111 = load i32, i32* %k156, align 4, !dbg !12170
  %112 = load i32, i32* %sub_degree.addr, align 4, !dbg !12171
  %sub181 = sub i32 %112, 1, !dbg !12172
  %mul182 = mul i32 %111, %sub181, !dbg !12173
  %sub183 = sub i32 %sub180, %mul182, !dbg !12174
  %113 = load i32, i32* %sub_degree.addr, align 4, !dbg !12175
  %sub184 = sub i32 %113, 1, !dbg !12176
  %114 = load i32, i32* %sub_degree.addr, align 4, !dbg !12177
  %sub185 = sub i32 %114, 1, !dbg !12178
  %mul186 = mul i32 %sub184, %sub185, !dbg !12179
  %div187 = udiv i32 %sub183, %mul186, !dbg !12180
  store i32 %div187, i32* %l, align 4, !dbg !12154
  %115 = bitcast %"class.dealii::FE_Q_Hierarchical"* %this1 to i8*, !dbg !12181
  %add.ptr188 = getelementptr inbounds i8, i8* %115, i64 72, !dbg !12181
  %116 = bitcast i8* %add.ptr188 to %"class.dealii::FiniteElementData"*, !dbg !12181
  %degree189 = getelementptr inbounds %"class.dealii::FiniteElementData", %"class.dealii::FiniteElementData"* %116, i32 0, i32 13, !dbg !12181
  %117 = load i32, i32* %degree189, align 4, !dbg !12181
  %sub190 = sub i32 %117, 1, !dbg !12182
  %mul191 = mul i32 12, %sub190, !dbg !12183
  %add192 = add i32 8, %mul191, !dbg !12184
  %118 = bitcast %"class.dealii::FE_Q_Hierarchical"* %this1 to i8*, !dbg !12185
  %add.ptr193 = getelementptr inbounds i8, i8* %118, i64 72, !dbg !12185
  %119 = bitcast i8* %add.ptr193 to %"class.dealii::FiniteElementData"*, !dbg !12185
  %degree194 = getelementptr inbounds %"class.dealii::FiniteElementData", %"class.dealii::FiniteElementData"* %119, i32 0, i32 13, !dbg !12185
  %120 = load i32, i32* %degree194, align 4, !dbg !12185
  %sub195 = sub i32 %120, 1, !dbg !12186
  %mul196 = mul i32 6, %sub195, !dbg !12187
  %121 = bitcast %"class.dealii::FE_Q_Hierarchical"* %this1 to i8*, !dbg !12188
  %add.ptr197 = getelementptr inbounds i8, i8* %121, i64 72, !dbg !12188
  %122 = bitcast i8* %add.ptr197 to %"class.dealii::FiniteElementData"*, !dbg !12188
  %degree198 = getelementptr inbounds %"class.dealii::FiniteElementData", %"class.dealii::FiniteElementData"* %122, i32 0, i32 13, !dbg !12188
  %123 = load i32, i32* %degree198, align 4, !dbg !12188
  %sub199 = sub i32 %123, 1, !dbg !12189
  %mul200 = mul i32 %mul196, %sub199, !dbg !12190
  %add201 = add i32 %add192, %mul200, !dbg !12191
  %124 = load i32, i32* %l, align 4, !dbg !12192
  %125 = bitcast %"class.dealii::FE_Q_Hierarchical"* %this1 to i8*, !dbg !12193
  %add.ptr202 = getelementptr inbounds i8, i8* %125, i64 72, !dbg !12193
  %126 = bitcast i8* %add.ptr202 to %"class.dealii::FiniteElementData"*, !dbg !12193
  %degree203 = getelementptr inbounds %"class.dealii::FiniteElementData", %"class.dealii::FiniteElementData"* %126, i32 0, i32 13, !dbg !12193
  %127 = load i32, i32* %degree203, align 4, !dbg !12193
  %sub204 = sub i32 %127, 1, !dbg !12194
  %mul205 = mul i32 %124, %sub204, !dbg !12195
  %128 = bitcast %"class.dealii::FE_Q_Hierarchical"* %this1 to i8*, !dbg !12196
  %add.ptr206 = getelementptr inbounds i8, i8* %128, i64 72, !dbg !12196
  %129 = bitcast i8* %add.ptr206 to %"class.dealii::FiniteElementData"*, !dbg !12196
  %degree207 = getelementptr inbounds %"class.dealii::FiniteElementData", %"class.dealii::FiniteElementData"* %129, i32 0, i32 13, !dbg !12196
  %130 = load i32, i32* %degree207, align 4, !dbg !12196
  %sub208 = sub i32 %130, 1, !dbg !12197
  %mul209 = mul i32 %mul205, %sub208, !dbg !12198
  %add210 = add i32 %add201, %mul209, !dbg !12199
  %131 = load i32, i32* %k156, align 4, !dbg !12200
  %132 = bitcast %"class.dealii::FE_Q_Hierarchical"* %this1 to i8*, !dbg !12201
  %add.ptr211 = getelementptr inbounds i8, i8* %132, i64 72, !dbg !12201
  %133 = bitcast i8* %add.ptr211 to %"class.dealii::FiniteElementData"*, !dbg !12201
  %degree212 = getelementptr inbounds %"class.dealii::FiniteElementData", %"class.dealii::FiniteElementData"* %133, i32 0, i32 13, !dbg !12201
  %134 = load i32, i32* %degree212, align 4, !dbg !12201
  %sub213 = sub i32 %134, 1, !dbg !12202
  %mul214 = mul i32 %131, %sub213, !dbg !12203
  %add215 = add i32 %add210, %mul214, !dbg !12204
  %135 = load i32, i32* %j144, align 4, !dbg !12205
  %add216 = add i32 %add215, %135, !dbg !12206
  %136 = load i32, i32* %i34, align 4, !dbg !12207
  %conv217 = zext i32 %136 to i64, !dbg !12207
  %call218 = call dereferenceable(4) i32* @_ZNSt6vectorIjSaIjEEixEm(%"class.std::vector.58"* %agg.result, i64 %conv217) #4, !dbg !12208
  store i32 %add216, i32* %call218, align 4, !dbg !12209
  br label %if.end219, !dbg !12210

if.end219:                                        ; preds = %if.then143, %if.else126
  br label %if.end220

if.end220:                                        ; preds = %if.end219, %if.then75
  br label %if.end221

if.end221:                                        ; preds = %if.end220, %if.then51
  br label %if.end222

if.end222:                                        ; preds = %if.end221, %if.then44
  br label %for.inc223, !dbg !12211

for.inc223:                                       ; preds = %if.end222
  %137 = load i32, i32* %i34, align 4, !dbg !12212
  %inc224 = add i32 %137, 1, !dbg !12212
  store i32 %inc224, i32* %i34, align 4, !dbg !12212
  br label %for.cond35, !dbg !12213, !llvm.loop !12214

for.end225:                                       ; preds = %for.cond35
  store i1 true, i1* %nrvo26, align 1, !dbg !12216
  %nrvo.val226 = load i1, i1* %nrvo26, align 1, !dbg !12217
  br i1 %nrvo.val226, label %nrvo.skipdtor228, label %nrvo.unused227, !dbg !12217

nrvo.unused227:                                   ; preds = %for.end225
  call void @_ZNSt6vectorIjSaIjEED2Ev(%"class.std::vector.58"* %agg.result) #4, !dbg !12217
  br label %nrvo.skipdtor228, !dbg !12217

nrvo.skipdtor228:                                 ; preds = %nrvo.unused227, %for.end225
  br label %return

return:                                           ; preds = %nrvo.skipdtor228, %nrvo.skipdtor24, %nrvo.skipdtor
  ret void, !dbg !12218

eh.resume:                                        ; preds = %lpad32, %lpad9, %lpad
  %exn = load i8*, i8** %exn.slot, align 8, !dbg !11872
  %sel = load i32, i32* %ehselector.slot, align 4, !dbg !11872
  %lpad.val = insertvalue { i8*, i32 } undef, i8* %exn, 0, !dbg !11872
  %lpad.val229 = insertvalue { i8*, i32 } %lpad.val, i32 %sel, 1, !dbg !11872
  resume { i8*, i32 } %lpad.val229, !dbg !11872
}

; Function Attrs: noinline nounwind uwtable
define linkonce_odr dso_local void @_ZNSaIjEC2Ev(%"class.std::allocator.60"* %this) unnamed_addr #1 comdat align 2 !dbg !12219 {
entry:
  %this.addr = alloca %"class.std::allocator.60"*, align 8
  store %"class.std::allocator.60"* %this, %"class.std::allocator.60"** %this.addr, align 8
  call void @llvm.dbg.declare(metadata %"class.std::allocator.60"** %this.addr, metadata !12220, metadata !DIExpression()), !dbg !12222
  %this1 = load %"class.std::allocator.60"*, %"class.std::allocator.60"** %this.addr, align 8
  %0 = bitcast %"class.std::allocator.60"* %this1 to %"class.__gnu_cxx::new_allocator.61"*, !dbg !12223
  call void @_ZN9__gnu_cxx13new_allocatorIjEC2Ev(%"class.__gnu_cxx::new_allocator.61"* %0) #4, !dbg !12224
  ret void, !dbg !12225
}

; Function Attrs: noinline uwtable
define linkonce_odr dso_local void @_ZNSt6vectorIjSaIjEEC2EmRKS0_(%"class.std::vector.58"* %this, i64 %__n, %"class.std::allocator.60"* dereferenceable(1) %__a) unnamed_addr #0 comdat align 2 personality i8* bitcast (i32 (...)* @__gxx_personality_v0 to i8*) !dbg !12226 {
entry:
  %this.addr = alloca %"class.std::vector.58"*, align 8
  %__n.addr = alloca i64, align 8
  %__a.addr = alloca %"class.std::allocator.60"*, align 8
  %exn.slot = alloca i8*
  %ehselector.slot = alloca i32
  store %"class.std::vector.58"* %this, %"class.std::vector.58"** %this.addr, align 8
  call void @llvm.dbg.declare(metadata %"class.std::vector.58"** %this.addr, metadata !12227, metadata !DIExpression()), !dbg !12228
  store i64 %__n, i64* %__n.addr, align 8
  call void @llvm.dbg.declare(metadata i64* %__n.addr, metadata !12229, metadata !DIExpression()), !dbg !12230
  store %"class.std::allocator.60"* %__a, %"class.std::allocator.60"** %__a.addr, align 8
  call void @llvm.dbg.declare(metadata %"class.std::allocator.60"** %__a.addr, metadata !12231, metadata !DIExpression()), !dbg !12232
  %this1 = load %"class.std::vector.58"*, %"class.std::vector.58"** %this.addr, align 8
  %0 = bitcast %"class.std::vector.58"* %this1 to %"struct.std::_Vector_base.59"*, !dbg !12233
  %1 = load i64, i64* %__n.addr, align 8, !dbg !12234
  %2 = load %"class.std::allocator.60"*, %"class.std::allocator.60"** %__a.addr, align 8, !dbg !12235
  %call = call i64 @_ZNSt6vectorIjSaIjEE17_S_check_init_lenEmRKS0_(i64 %1, %"class.std::allocator.60"* dereferenceable(1) %2), !dbg !12236
  %3 = load %"class.std::allocator.60"*, %"class.std::allocator.60"** %__a.addr, align 8, !dbg !12237
  call void @_ZNSt12_Vector_baseIjSaIjEEC2EmRKS0_(%"struct.std::_Vector_base.59"* %0, i64 %call, %"class.std::allocator.60"* dereferenceable(1) %3), !dbg !12238
  %4 = load i64, i64* %__n.addr, align 8, !dbg !12239
  invoke void @_ZNSt6vectorIjSaIjEE21_M_default_initializeEm(%"class.std::vector.58"* %this1, i64 %4)
          to label %invoke.cont unwind label %lpad, !dbg !12241

invoke.cont:                                      ; preds = %entry
  ret void, !dbg !12242

lpad:                                             ; preds = %entry
  %5 = landingpad { i8*, i32 }
          cleanup, !dbg !12243
  %6 = extractvalue { i8*, i32 } %5, 0, !dbg !12243
  store i8* %6, i8** %exn.slot, align 8, !dbg !12243
  %7 = extractvalue { i8*, i32 } %5, 1, !dbg !12243
  store i32 %7, i32* %ehselector.slot, align 4, !dbg !12243
  %8 = bitcast %"class.std::vector.58"* %this1 to %"struct.std::_Vector_base.59"*, !dbg !12243
  call void @_ZNSt12_Vector_baseIjSaIjEED2Ev(%"struct.std::_Vector_base.59"* %8) #4, !dbg !12243
  br label %eh.resume, !dbg !12243

eh.resume:                                        ; preds = %lpad
  %exn = load i8*, i8** %exn.slot, align 8, !dbg !12243
  %sel = load i32, i32* %ehselector.slot, align 4, !dbg !12243
  %lpad.val = insertvalue { i8*, i32 } undef, i8* %exn, 0, !dbg !12243
  %lpad.val2 = insertvalue { i8*, i32 } %lpad.val, i32 %sel, 1, !dbg !12243
  resume { i8*, i32 } %lpad.val2, !dbg !12243
}

; Function Attrs: noinline nounwind uwtable
define linkonce_odr dso_local void @_ZNSaIjED2Ev(%"class.std::allocator.60"* %this) unnamed_addr #1 comdat align 2 !dbg !12244 {
entry:
  %this.addr = alloca %"class.std::allocator.60"*, align 8
  store %"class.std::allocator.60"* %this, %"class.std::allocator.60"** %this.addr, align 8
  call void @llvm.dbg.declare(metadata %"class.std::allocator.60"** %this.addr, metadata !12245, metadata !DIExpression()), !dbg !12246
  %this1 = load %"class.std::allocator.60"*, %"class.std::allocator.60"** %this.addr, align 8
  %0 = bitcast %"class.std::allocator.60"* %this1 to %"class.__gnu_cxx::new_allocator.61"*, !dbg !12247
  call void @_ZN9__gnu_cxx13new_allocatorIjED2Ev(%"class.__gnu_cxx::new_allocator.61"* %0) #4, !dbg !12247
  ret void, !dbg !12249
}

; Function Attrs: noinline nounwind uwtable
define linkonce_odr dso_local dereferenceable(4) i32* @_ZNSt6vectorIjSaIjEEixEm(%"class.std::vector.58"* %this, i64 %__n) #1 comdat align 2 !dbg !12250 {
entry:
  %this.addr = alloca %"class.std::vector.58"*, align 8
  %__n.addr = alloca i64, align 8
  store %"class.std::vector.58"* %this, %"class.std::vector.58"** %this.addr, align 8
  call void @llvm.dbg.declare(metadata %"class.std::vector.58"** %this.addr, metadata !12251, metadata !DIExpression()), !dbg !12252
  store i64 %__n, i64* %__n.addr, align 8
  call void @llvm.dbg.declare(metadata i64* %__n.addr, metadata !12253, metadata !DIExpression()), !dbg !12254
  %this1 = load %"class.std::vector.58"*, %"class.std::vector.58"** %this.addr, align 8
  %0 = bitcast %"class.std::vector.58"* %this1 to %"struct.std::_Vector_base.59"*, !dbg !12255
  %_M_impl = getelementptr inbounds %"struct.std::_Vector_base.59", %"struct.std::_Vector_base.59"* %0, i32 0, i32 0, !dbg !12255
  %1 = bitcast %"struct.std::_Vector_base<unsigned int, std::allocator<unsigned int> >::_Vector_impl"* %_M_impl to %"struct.std::_Vector_base<unsigned int, std::allocator<unsigned int> >::_Vector_impl_data"*, !dbg !12256
  %_M_start = getelementptr inbounds %"struct.std::_Vector_base<unsigned int, std::allocator<unsigned int> >::_Vector_impl_data", %"struct.std::_Vector_base<unsigned int, std::allocator<unsigned int> >::_Vector_impl_data"* %1, i32 0, i32 0, !dbg !12257
  %2 = load i32*, i32** %_M_start, align 8, !dbg !12257
  %3 = load i64, i64* %__n.addr, align 8, !dbg !12258
  %add.ptr = getelementptr inbounds i32, i32* %2, i64 %3, !dbg !12259
  ret i32* %add.ptr, !dbg !12260
}

; Function Attrs: noinline uwtable
define weak_odr dso_local %"class.dealii::FiniteElement"* @_ZNK6dealii17FE_Q_HierarchicalILi3EE5cloneEv(%"class.dealii::FE_Q_Hierarchical"* %this) unnamed_addr #0 comdat align 2 personality i8* bitcast (i32 (...)* @__gxx_personality_v0 to i8*) !dbg !12261 {
entry:
  %this.addr = alloca %"class.dealii::FE_Q_Hierarchical"*, align 8
  %exn.slot = alloca i8*
  %ehselector.slot = alloca i32
  store %"class.dealii::FE_Q_Hierarchical"* %this, %"class.dealii::FE_Q_Hierarchical"** %this.addr, align 8
  call void @llvm.dbg.declare(metadata %"class.dealii::FE_Q_Hierarchical"** %this.addr, metadata !12262, metadata !DIExpression()), !dbg !12263
  %this1 = load %"class.dealii::FE_Q_Hierarchical"*, %"class.dealii::FE_Q_Hierarchical"** %this.addr, align 8
  %call = call i8* @_Znwm(i64 832) #13, !dbg !12264
  %0 = bitcast i8* %call to %"class.dealii::FE_Q_Hierarchical"*, !dbg !12264
  invoke void @_ZN6dealii17FE_Q_HierarchicalILi3EEC2ERKS1_(%"class.dealii::FE_Q_Hierarchical"* %0, %"class.dealii::FE_Q_Hierarchical"* dereferenceable(832) %this1)
          to label %invoke.cont unwind label %lpad, !dbg !12265

invoke.cont:                                      ; preds = %entry
  %1 = bitcast %"class.dealii::FE_Q_Hierarchical"* %0 to %"class.dealii::FiniteElement"*, !dbg !12264
  ret %"class.dealii::FiniteElement"* %1, !dbg !12266

lpad:                                             ; preds = %entry
  %2 = landingpad { i8*, i32 }
          cleanup, !dbg !12267
  %3 = extractvalue { i8*, i32 } %2, 0, !dbg !12267
  store i8* %3, i8** %exn.slot, align 8, !dbg !12267
  %4 = extractvalue { i8*, i32 } %2, 1, !dbg !12267
  store i32 %4, i32* %ehselector.slot, align 4, !dbg !12267
  call void @_ZdlPv(i8* %call) #14, !dbg !12264
  br label %eh.resume, !dbg !12264

eh.resume:                                        ; preds = %lpad
  %exn = load i8*, i8** %exn.slot, align 8, !dbg !12264
  %sel = load i32, i32* %ehselector.slot, align 4, !dbg !12264
  %lpad.val = insertvalue { i8*, i32 } undef, i8* %exn, 0, !dbg !12264
  %lpad.val2 = insertvalue { i8*, i32 } %lpad.val, i32 %sel, 1, !dbg !12264
  resume { i8*, i32 } %lpad.val2, !dbg !12264
}

; Function Attrs: nobuiltin
declare dso_local noalias i8* @_Znwm(i64) #6

; Function Attrs: noinline uwtable
define linkonce_odr dso_local void @_ZN6dealii17FE_Q_HierarchicalILi3EEC2ERKS1_(%"class.dealii::FE_Q_Hierarchical"* %this, %"class.dealii::FE_Q_Hierarchical"* dereferenceable(832) %0) unnamed_addr #0 comdat align 2 personality i8* bitcast (i32 (...)* @__gxx_personality_v0 to i8*) !dbg !12268 {
entry:
  %this.addr = alloca %"class.dealii::FE_Q_Hierarchical"*, align 8
  %.addr = alloca %"class.dealii::FE_Q_Hierarchical"*, align 8
  %exn.slot = alloca i8*
  %ehselector.slot = alloca i32
  store %"class.dealii::FE_Q_Hierarchical"* %this, %"class.dealii::FE_Q_Hierarchical"** %this.addr, align 8
  call void @llvm.dbg.declare(metadata %"class.dealii::FE_Q_Hierarchical"** %this.addr, metadata !12273, metadata !DIExpression()), !dbg !12274
  store %"class.dealii::FE_Q_Hierarchical"* %0, %"class.dealii::FE_Q_Hierarchical"** %.addr, align 8
  call void @llvm.dbg.declare(metadata %"class.dealii::FE_Q_Hierarchical"** %.addr, metadata !12275, metadata !DIExpression()), !dbg !12274
  %this1 = load %"class.dealii::FE_Q_Hierarchical"*, %"class.dealii::FE_Q_Hierarchical"** %this.addr, align 8
  %1 = bitcast %"class.dealii::FE_Q_Hierarchical"* %this1 to %"class.dealii::FE_Poly"*, !dbg !12276
  %2 = load %"class.dealii::FE_Q_Hierarchical"*, %"class.dealii::FE_Q_Hierarchical"** %.addr, align 8, !dbg !12276
  %3 = bitcast %"class.dealii::FE_Q_Hierarchical"* %2 to %"class.dealii::FE_Poly"*, !dbg !12276
  call void @_ZN6dealii7FE_PolyINS_24TensorProductPolynomialsILi3EEELi3ELi3EEC2ERKS3_(%"class.dealii::FE_Poly"* %1, %"class.dealii::FE_Poly"* dereferenceable(808) %3), !dbg !12276
  %4 = bitcast %"class.dealii::FE_Q_Hierarchical"* %this1 to i32 (...)***, !dbg !12276
  store i32 (...)** bitcast (i8** getelementptr inbounds ({ [38 x i8*] }, { [38 x i8*] }* @_ZTVN6dealii17FE_Q_HierarchicalILi3EEE, i32 0, inrange i32 0, i32 2) to i32 (...)**), i32 (...)*** %4, align 8, !dbg !12276
  %face_renumber = getelementptr inbounds %"class.dealii::FE_Q_Hierarchical", %"class.dealii::FE_Q_Hierarchical"* %this1, i32 0, i32 1, !dbg !12276
  %5 = load %"class.dealii::FE_Q_Hierarchical"*, %"class.dealii::FE_Q_Hierarchical"** %.addr, align 8, !dbg !12276
  %face_renumber2 = getelementptr inbounds %"class.dealii::FE_Q_Hierarchical", %"class.dealii::FE_Q_Hierarchical"* %5, i32 0, i32 1, !dbg !12276
  invoke void @_ZNSt6vectorIjSaIjEEC2ERKS1_(%"class.std::vector.58"* %face_renumber, %"class.std::vector.58"* dereferenceable(24) %face_renumber2)
          to label %invoke.cont unwind label %lpad, !dbg !12276

invoke.cont:                                      ; preds = %entry
  ret void, !dbg !12276

lpad:                                             ; preds = %entry
  %6 = landingpad { i8*, i32 }
          cleanup, !dbg !12276
  %7 = extractvalue { i8*, i32 } %6, 0, !dbg !12276
  store i8* %7, i8** %exn.slot, align 8, !dbg !12276
  %8 = extractvalue { i8*, i32 } %6, 1, !dbg !12276
  store i32 %8, i32* %ehselector.slot, align 4, !dbg !12276
  %9 = bitcast %"class.dealii::FE_Q_Hierarchical"* %this1 to %"class.dealii::FE_Poly"*, !dbg !12277
  call void @_ZN6dealii7FE_PolyINS_24TensorProductPolynomialsILi3EEELi3ELi3EED2Ev(%"class.dealii::FE_Poly"* %9) #4, !dbg !12277
  br label %eh.resume, !dbg !12277

eh.resume:                                        ; preds = %lpad
  %exn = load i8*, i8** %exn.slot, align 8, !dbg !12277
  %sel = load i32, i32* %ehselector.slot, align 4, !dbg !12277
  %lpad.val = insertvalue { i8*, i32 } undef, i8* %exn, 0, !dbg !12277
  %lpad.val3 = insertvalue { i8*, i32 } %lpad.val, i32 %sel, 1, !dbg !12277
  resume { i8*, i32 } %lpad.val3, !dbg !12277
}

; Function Attrs: nobuiltin nounwind
declare dso_local void @_ZdlPv(i8*) #7

; Function Attrs: noinline uwtable
define linkonce_odr dso_local void @_ZNSt6vectorIjSaIjEEC2EmRKjRKS0_(%"class.std::vector.58"* %this, i64 %__n, i32* dereferenceable(4) %__value, %"class.std::allocator.60"* dereferenceable(1) %__a) unnamed_addr #0 comdat align 2 personality i8* bitcast (i32 (...)* @__gxx_personality_v0 to i8*) !dbg !12279 {
entry:
  %this.addr = alloca %"class.std::vector.58"*, align 8
  %__n.addr = alloca i64, align 8
  %__value.addr = alloca i32*, align 8
  %__a.addr = alloca %"class.std::allocator.60"*, align 8
  %exn.slot = alloca i8*
  %ehselector.slot = alloca i32
  store %"class.std::vector.58"* %this, %"class.std::vector.58"** %this.addr, align 8
  call void @llvm.dbg.declare(metadata %"class.std::vector.58"** %this.addr, metadata !12280, metadata !DIExpression()), !dbg !12281
  store i64 %__n, i64* %__n.addr, align 8
  call void @llvm.dbg.declare(metadata i64* %__n.addr, metadata !12282, metadata !DIExpression()), !dbg !12283
  store i32* %__value, i32** %__value.addr, align 8
  call void @llvm.dbg.declare(metadata i32** %__value.addr, metadata !12284, metadata !DIExpression()), !dbg !12285
  store %"class.std::allocator.60"* %__a, %"class.std::allocator.60"** %__a.addr, align 8
  call void @llvm.dbg.declare(metadata %"class.std::allocator.60"** %__a.addr, metadata !12286, metadata !DIExpression()), !dbg !12287
  %this1 = load %"class.std::vector.58"*, %"class.std::vector.58"** %this.addr, align 8
  %0 = bitcast %"class.std::vector.58"* %this1 to %"struct.std::_Vector_base.59"*, !dbg !12288
  %1 = load i64, i64* %__n.addr, align 8, !dbg !12289
  %2 = load %"class.std::allocator.60"*, %"class.std::allocator.60"** %__a.addr, align 8, !dbg !12290
  %call = call i64 @_ZNSt6vectorIjSaIjEE17_S_check_init_lenEmRKS0_(i64 %1, %"class.std::allocator.60"* dereferenceable(1) %2), !dbg !12291
  %3 = load %"class.std::allocator.60"*, %"class.std::allocator.60"** %__a.addr, align 8, !dbg !12292
  call void @_ZNSt12_Vector_baseIjSaIjEEC2EmRKS0_(%"struct.std::_Vector_base.59"* %0, i64 %call, %"class.std::allocator.60"* dereferenceable(1) %3), !dbg !12293
  %4 = load i64, i64* %__n.addr, align 8, !dbg !12294
  %5 = load i32*, i32** %__value.addr, align 8, !dbg !12296
  invoke void @_ZNSt6vectorIjSaIjEE18_M_fill_initializeEmRKj(%"class.std::vector.58"* %this1, i64 %4, i32* dereferenceable(4) %5)
          to label %invoke.cont unwind label %lpad, !dbg !12297

invoke.cont:                                      ; preds = %entry
  ret void, !dbg !12298

lpad:                                             ; preds = %entry
  %6 = landingpad { i8*, i32 }
          cleanup, !dbg !12299
  %7 = extractvalue { i8*, i32 } %6, 0, !dbg !12299
  store i8* %7, i8** %exn.slot, align 8, !dbg !12299
  %8 = extractvalue { i8*, i32 } %6, 1, !dbg !12299
  store i32 %8, i32* %ehselector.slot, align 4, !dbg !12299
  %9 = bitcast %"class.std::vector.58"* %this1 to %"struct.std::_Vector_base.59"*, !dbg !12299
  call void @_ZNSt12_Vector_baseIjSaIjEED2Ev(%"struct.std::_Vector_base.59"* %9) #4, !dbg !12299
  br label %eh.resume, !dbg !12299

eh.resume:                                        ; preds = %lpad
  %exn = load i8*, i8** %exn.slot, align 8, !dbg !12299
  %sel = load i32, i32* %ehselector.slot, align 4, !dbg !12299
  %lpad.val = insertvalue { i8*, i32 } undef, i8* %exn, 0, !dbg !12299
  %lpad.val2 = insertvalue { i8*, i32 } %lpad.val, i32 %sel, 1, !dbg !12299
  resume { i8*, i32 } %lpad.val2, !dbg !12299
}

; Function Attrs: noinline nounwind uwtable
define linkonce_odr dso_local i64 @_ZNKSt6vectorIjSaIjEE4sizeEv(%"class.std::vector.58"* %this) #1 comdat align 2 !dbg !12300 {
entry:
  %this.addr = alloca %"class.std::vector.58"*, align 8
  store %"class.std::vector.58"* %this, %"class.std::vector.58"** %this.addr, align 8
  call void @llvm.dbg.declare(metadata %"class.std::vector.58"** %this.addr, metadata !12301, metadata !DIExpression()), !dbg !12303
  %this1 = load %"class.std::vector.58"*, %"class.std::vector.58"** %this.addr, align 8
  %0 = bitcast %"class.std::vector.58"* %this1 to %"struct.std::_Vector_base.59"*, !dbg !12304
  %_M_impl = getelementptr inbounds %"struct.std::_Vector_base.59", %"struct.std::_Vector_base.59"* %0, i32 0, i32 0, !dbg !12304
  %1 = bitcast %"struct.std::_Vector_base<unsigned int, std::allocator<unsigned int> >::_Vector_impl"* %_M_impl to %"struct.std::_Vector_base<unsigned int, std::allocator<unsigned int> >::_Vector_impl_data"*, !dbg !12305
  %_M_finish = getelementptr inbounds %"struct.std::_Vector_base<unsigned int, std::allocator<unsigned int> >::_Vector_impl_data", %"struct.std::_Vector_base<unsigned int, std::allocator<unsigned int> >::_Vector_impl_data"* %1, i32 0, i32 1, !dbg !12306
  %2 = load i32*, i32** %_M_finish, align 8, !dbg !12306
  %3 = bitcast %"class.std::vector.58"* %this1 to %"struct.std::_Vector_base.59"*, !dbg !12307
  %_M_impl2 = getelementptr inbounds %"struct.std::_Vector_base.59", %"struct.std::_Vector_base.59"* %3, i32 0, i32 0, !dbg !12307
  %4 = bitcast %"struct.std::_Vector_base<unsigned int, std::allocator<unsigned int> >::_Vector_impl"* %_M_impl2 to %"struct.std::_Vector_base<unsigned int, std::allocator<unsigned int> >::_Vector_impl_data"*, !dbg !12308
  %_M_start = getelementptr inbounds %"struct.std::_Vector_base<unsigned int, std::allocator<unsigned int> >::_Vector_impl_data", %"struct.std::_Vector_base<unsigned int, std::allocator<unsigned int> >::_Vector_impl_data"* %4, i32 0, i32 0, !dbg !12309
  %5 = load i32*, i32** %_M_start, align 8, !dbg !12309
  %sub.ptr.lhs.cast = ptrtoint i32* %2 to i64, !dbg !12310
  %sub.ptr.rhs.cast = ptrtoint i32* %5 to i64, !dbg !12310
  %sub.ptr.sub = sub i64 %sub.ptr.lhs.cast, %sub.ptr.rhs.cast, !dbg !12310
  %sub.ptr.div = sdiv exact i64 %sub.ptr.sub, 4, !dbg !12310
  ret i64 %sub.ptr.div, !dbg !12311
}

; Function Attrs: noinline uwtable
define linkonce_odr dso_local void @_ZN6dealii17FE_Q_HierarchicalILi2EE14get_dpo_vectorEj(%"class.std::vector.58"* noalias sret %agg.result, i32 %deg) #0 comdat align 2 personality i8* bitcast (i32 (...)* @__gxx_personality_v0 to i8*) !dbg !12312 {
entry:
  %result.ptr = alloca i8*, align 8
  %deg.addr = alloca i32, align 4
  %nrvo = alloca i1, align 1
  %ref.tmp = alloca i32, align 4
  %ref.tmp1 = alloca %"class.std::allocator.60", align 1
  %exn.slot = alloca i8*
  %ehselector.slot = alloca i32
  %i = alloca i32, align 4
  %0 = bitcast %"class.std::vector.58"* %agg.result to i8*
  store i8* %0, i8** %result.ptr, align 8
  store i32 %deg, i32* %deg.addr, align 4
  call void @llvm.dbg.declare(metadata i32* %deg.addr, metadata !12315, metadata !DIExpression()), !dbg !12316
  store i1 false, i1* %nrvo, align 1, !dbg !12317
  call void @llvm.dbg.declare(metadata i8** %result.ptr, metadata !12318, metadata !DIExpression(DW_OP_deref)), !dbg !12319
  store i32 1, i32* %ref.tmp, align 4, !dbg !12320
  call void @_ZNSaIjEC2Ev(%"class.std::allocator.60"* %ref.tmp1) #4, !dbg !12319
  invoke void @_ZNSt6vectorIjSaIjEEC2EmRKjRKS0_(%"class.std::vector.58"* %agg.result, i64 3, i32* dereferenceable(4) %ref.tmp, %"class.std::allocator.60"* dereferenceable(1) %ref.tmp1)
          to label %invoke.cont unwind label %lpad, !dbg !12319

invoke.cont:                                      ; preds = %entry
  call void @_ZNSaIjED2Ev(%"class.std::allocator.60"* %ref.tmp1) #4, !dbg !12319
  call void @llvm.dbg.declare(metadata i32* %i, metadata !12321, metadata !DIExpression()), !dbg !12323
  store i32 1, i32* %i, align 4, !dbg !12323
  br label %for.cond, !dbg !12324

for.cond:                                         ; preds = %for.inc, %invoke.cont
  %1 = load i32, i32* %i, align 4, !dbg !12325
  %conv = zext i32 %1 to i64, !dbg !12325
  %call = call i64 @_ZNKSt6vectorIjSaIjEE4sizeEv(%"class.std::vector.58"* %agg.result) #4, !dbg !12327
  %cmp = icmp ult i64 %conv, %call, !dbg !12328
  br i1 %cmp, label %for.body, label %for.end, !dbg !12329

for.body:                                         ; preds = %for.cond
  %2 = load i32, i32* %i, align 4, !dbg !12330
  %sub = sub i32 %2, 1, !dbg !12331
  %conv2 = zext i32 %sub to i64, !dbg !12330
  %call3 = call dereferenceable(4) i32* @_ZNSt6vectorIjSaIjEEixEm(%"class.std::vector.58"* %agg.result, i64 %conv2) #4, !dbg !12332
  %3 = load i32, i32* %call3, align 4, !dbg !12332
  %4 = load i32, i32* %deg.addr, align 4, !dbg !12333
  %sub4 = sub i32 %4, 1, !dbg !12334
  %mul = mul i32 %3, %sub4, !dbg !12335
  %5 = load i32, i32* %i, align 4, !dbg !12336
  %conv5 = zext i32 %5 to i64, !dbg !12336
  %call6 = call dereferenceable(4) i32* @_ZNSt6vectorIjSaIjEEixEm(%"class.std::vector.58"* %agg.result, i64 %conv5) #4, !dbg !12337
  store i32 %mul, i32* %call6, align 4, !dbg !12338
  br label %for.inc, !dbg !12337

for.inc:                                          ; preds = %for.body
  %6 = load i32, i32* %i, align 4, !dbg !12339
  %inc = add i32 %6, 1, !dbg !12339
  store i32 %inc, i32* %i, align 4, !dbg !12339
  br label %for.cond, !dbg !12340, !llvm.loop !12341

lpad:                                             ; preds = %entry
  %7 = landingpad { i8*, i32 }
          cleanup, !dbg !12343
  %8 = extractvalue { i8*, i32 } %7, 0, !dbg !12343
  store i8* %8, i8** %exn.slot, align 8, !dbg !12343
  %9 = extractvalue { i8*, i32 } %7, 1, !dbg !12343
  store i32 %9, i32* %ehselector.slot, align 4, !dbg !12343
  call void @_ZNSaIjED2Ev(%"class.std::allocator.60"* %ref.tmp1) #4, !dbg !12319
  br label %eh.resume, !dbg !12319

for.end:                                          ; preds = %for.cond
  store i1 true, i1* %nrvo, align 1, !dbg !12344
  %nrvo.val = load i1, i1* %nrvo, align 1, !dbg !12343
  br i1 %nrvo.val, label %nrvo.skipdtor, label %nrvo.unused, !dbg !12343

nrvo.unused:                                      ; preds = %for.end
  call void @_ZNSt6vectorIjSaIjEED2Ev(%"class.std::vector.58"* %agg.result) #4, !dbg !12343
  br label %nrvo.skipdtor, !dbg !12343

nrvo.skipdtor:                                    ; preds = %nrvo.unused, %for.end
  ret void, !dbg !12343

eh.resume:                                        ; preds = %lpad
  %exn = load i8*, i8** %exn.slot, align 8, !dbg !12319
  %sel = load i32, i32* %ehselector.slot, align 4, !dbg !12319
  %lpad.val = insertvalue { i8*, i32 } undef, i8* %exn, 0, !dbg !12319
  %lpad.val7 = insertvalue { i8*, i32 } %lpad.val, i32 %sel, 1, !dbg !12319
  resume { i8*, i32 } %lpad.val7, !dbg !12319
}

declare dso_local void @_ZN6dealii17FiniteElementDataILi2EEC1ERKSt6vectorIjSaIjEEjjNS1_10ConformityEj(%"class.dealii::FiniteElementData.92"*, %"class.std::vector.58"* dereferenceable(24), i32, i32, i32, i32) unnamed_addr #2

; Function Attrs: noinline uwtable
define internal void @_ZN6dealii12_GLOBAL__N_116invert_numberingERKSt6vectorIjSaIjEE(%"class.std::vector.58"* noalias sret %agg.result, %"class.std::vector.58"* dereferenceable(24) %in) #0 personality i8* bitcast (i32 (...)* @__gxx_personality_v0 to i8*) !dbg !12345 {
entry:
  %result.ptr = alloca i8*, align 8
  %in.addr = alloca %"class.std::vector.58"*, align 8
  %nrvo = alloca i1, align 1
  %ref.tmp = alloca %"class.std::allocator.60", align 1
  %exn.slot = alloca i8*
  %ehselector.slot = alloca i32
  %i = alloca i32, align 4
  %0 = bitcast %"class.std::vector.58"* %agg.result to i8*
  store i8* %0, i8** %result.ptr, align 8
  store %"class.std::vector.58"* %in, %"class.std::vector.58"** %in.addr, align 8
  call void @llvm.dbg.declare(metadata %"class.std::vector.58"** %in.addr, metadata !12349, metadata !DIExpression()), !dbg !12350
  store i1 false, i1* %nrvo, align 1, !dbg !12351
  call void @llvm.dbg.declare(metadata i8** %result.ptr, metadata !12352, metadata !DIExpression(DW_OP_deref)), !dbg !12353
  %1 = load %"class.std::vector.58"*, %"class.std::vector.58"** %in.addr, align 8, !dbg !12354
  %call = call i64 @_ZNKSt6vectorIjSaIjEE4sizeEv(%"class.std::vector.58"* %1) #4, !dbg !12355
  call void @_ZNSaIjEC2Ev(%"class.std::allocator.60"* %ref.tmp) #4, !dbg !12353
  invoke void @_ZNSt6vectorIjSaIjEEC2EmRKS0_(%"class.std::vector.58"* %agg.result, i64 %call, %"class.std::allocator.60"* dereferenceable(1) %ref.tmp)
          to label %invoke.cont unwind label %lpad, !dbg !12353

invoke.cont:                                      ; preds = %entry
  call void @_ZNSaIjED2Ev(%"class.std::allocator.60"* %ref.tmp) #4, !dbg !12353
  call void @llvm.dbg.declare(metadata i32* %i, metadata !12356, metadata !DIExpression()), !dbg !12358
  store i32 0, i32* %i, align 4, !dbg !12358
  br label %for.cond, !dbg !12359

for.cond:                                         ; preds = %for.inc, %invoke.cont
  %2 = load i32, i32* %i, align 4, !dbg !12360
  %conv = zext i32 %2 to i64, !dbg !12360
  %3 = load %"class.std::vector.58"*, %"class.std::vector.58"** %in.addr, align 8, !dbg !12362
  %call1 = call i64 @_ZNKSt6vectorIjSaIjEE4sizeEv(%"class.std::vector.58"* %3) #4, !dbg !12363
  %cmp = icmp ult i64 %conv, %call1, !dbg !12364
  br i1 %cmp, label %for.body, label %for.end, !dbg !12365

for.body:                                         ; preds = %for.cond
  %4 = load i32, i32* %i, align 4, !dbg !12366
  %5 = load %"class.std::vector.58"*, %"class.std::vector.58"** %in.addr, align 8, !dbg !12367
  %6 = load i32, i32* %i, align 4, !dbg !12368
  %conv2 = zext i32 %6 to i64, !dbg !12368
  %call3 = call dereferenceable(4) i32* @_ZNKSt6vectorIjSaIjEEixEm(%"class.std::vector.58"* %5, i64 %conv2) #4, !dbg !12367
  %7 = load i32, i32* %call3, align 4, !dbg !12367
  %conv4 = zext i32 %7 to i64, !dbg !12367
  %call5 = call dereferenceable(4) i32* @_ZNSt6vectorIjSaIjEEixEm(%"class.std::vector.58"* %agg.result, i64 %conv4) #4, !dbg !12369
  store i32 %4, i32* %call5, align 4, !dbg !12370
  br label %for.inc, !dbg !12369

for.inc:                                          ; preds = %for.body
  %8 = load i32, i32* %i, align 4, !dbg !12371
  %inc = add i32 %8, 1, !dbg !12371
  store i32 %inc, i32* %i, align 4, !dbg !12371
  br label %for.cond, !dbg !12372, !llvm.loop !12373

lpad:                                             ; preds = %entry
  %9 = landingpad { i8*, i32 }
          cleanup, !dbg !12375
  %10 = extractvalue { i8*, i32 } %9, 0, !dbg !12375
  store i8* %10, i8** %exn.slot, align 8, !dbg !12375
  %11 = extractvalue { i8*, i32 } %9, 1, !dbg !12375
  store i32 %11, i32* %ehselector.slot, align 4, !dbg !12375
  call void @_ZNSaIjED2Ev(%"class.std::allocator.60"* %ref.tmp) #4, !dbg !12353
  br label %eh.resume, !dbg !12353

for.end:                                          ; preds = %for.cond
  store i1 true, i1* %nrvo, align 1, !dbg !12376
  %nrvo.val = load i1, i1* %nrvo, align 1, !dbg !12375
  br i1 %nrvo.val, label %nrvo.skipdtor, label %nrvo.unused, !dbg !12375

nrvo.unused:                                      ; preds = %for.end
  call void @_ZNSt6vectorIjSaIjEED2Ev(%"class.std::vector.58"* %agg.result) #4, !dbg !12375
  br label %nrvo.skipdtor, !dbg !12375

nrvo.skipdtor:                                    ; preds = %nrvo.unused, %for.end
  ret void, !dbg !12375

eh.resume:                                        ; preds = %lpad
  %exn = load i8*, i8** %exn.slot, align 8, !dbg !12353
  %sel = load i32, i32* %ehselector.slot, align 4, !dbg !12353
  %lpad.val = insertvalue { i8*, i32 } undef, i8* %exn, 0, !dbg !12353
  %lpad.val6 = insertvalue { i8*, i32 } %lpad.val, i32 %sel, 1, !dbg !12353
  resume { i8*, i32 } %lpad.val6, !dbg !12353
}

; Function Attrs: noinline uwtable
define linkonce_odr dso_local void @_ZN6dealii17FE_Q_HierarchicalILi2EE41hierarchic_to_fe_q_hierarchical_numberingERKNS_17FiniteElementDataILi2EEE(%"class.std::vector.58"* noalias sret %agg.result, %"class.dealii::FiniteElementData.92"* dereferenceable(60) %fe) #0 comdat align 2 personality i8* bitcast (i32 (...)* @__gxx_personality_v0 to i8*) !dbg !12377 {
entry:
  %result.ptr = alloca i8*, align 8
  %fe.addr = alloca %"class.dealii::FiniteElementData.92"*, align 8
  %nrvo = alloca i1, align 1
  %ref.tmp = alloca %"class.std::allocator.60", align 1
  %exn.slot = alloca i8*
  %ehselector.slot = alloca i32
  %degree = alloca i32, align 4
  %n = alloca i32, align 4
  %next_index = alloca i32, align 4
  %i = alloca i32, align 4
  %i19 = alloca i32, align 4
  %i33 = alloca i32, align 4
  %i45 = alloca i32, align 4
  %i58 = alloca i32, align 4
  %j = alloca i32, align 4
  %0 = bitcast %"class.std::vector.58"* %agg.result to i8*
  store i8* %0, i8** %result.ptr, align 8
  store %"class.dealii::FiniteElementData.92"* %fe, %"class.dealii::FiniteElementData.92"** %fe.addr, align 8
  call void @llvm.dbg.declare(metadata %"class.dealii::FiniteElementData.92"** %fe.addr, metadata !12381, metadata !DIExpression()), !dbg !12382
  store i1 false, i1* %nrvo, align 1, !dbg !12383
  call void @llvm.dbg.declare(metadata i8** %result.ptr, metadata !12384, metadata !DIExpression(DW_OP_deref)), !dbg !12385
  %1 = load %"class.dealii::FiniteElementData.92"*, %"class.dealii::FiniteElementData.92"** %fe.addr, align 8, !dbg !12386
  %dofs_per_cell = getelementptr inbounds %"class.dealii::FiniteElementData.92", %"class.dealii::FiniteElementData.92"* %1, i32 0, i32 10, !dbg !12387
  %2 = load i32, i32* %dofs_per_cell, align 4, !dbg !12387
  %conv = zext i32 %2 to i64, !dbg !12386
  call void @_ZNSaIjEC2Ev(%"class.std::allocator.60"* %ref.tmp) #4, !dbg !12385
  invoke void @_ZNSt6vectorIjSaIjEEC2EmRKS0_(%"class.std::vector.58"* %agg.result, i64 %conv, %"class.std::allocator.60"* dereferenceable(1) %ref.tmp)
          to label %invoke.cont unwind label %lpad, !dbg !12385

invoke.cont:                                      ; preds = %entry
  call void @_ZNSaIjED2Ev(%"class.std::allocator.60"* %ref.tmp) #4, !dbg !12385
  call void @llvm.dbg.declare(metadata i32* %degree, metadata !12388, metadata !DIExpression()), !dbg !12389
  %3 = load %"class.dealii::FiniteElementData.92"*, %"class.dealii::FiniteElementData.92"** %fe.addr, align 8, !dbg !12390
  %dofs_per_line = getelementptr inbounds %"class.dealii::FiniteElementData.92", %"class.dealii::FiniteElementData.92"* %3, i32 0, i32 1, !dbg !12391
  %4 = load i32, i32* %dofs_per_line, align 4, !dbg !12391
  %add = add i32 %4, 1, !dbg !12392
  store i32 %add, i32* %degree, align 4, !dbg !12389
  call void @llvm.dbg.declare(metadata i32* %n, metadata !12393, metadata !DIExpression()), !dbg !12394
  %5 = load i32, i32* %degree, align 4, !dbg !12395
  %add1 = add i32 %5, 1, !dbg !12396
  store i32 %add1, i32* %n, align 4, !dbg !12394
  call void @llvm.dbg.declare(metadata i32* %next_index, metadata !12397, metadata !DIExpression()), !dbg !12398
  store i32 0, i32* %next_index, align 4, !dbg !12398
  %6 = load i32, i32* %next_index, align 4, !dbg !12399
  %inc = add i32 %6, 1, !dbg !12399
  store i32 %inc, i32* %next_index, align 4, !dbg !12399
  %conv2 = zext i32 %6 to i64, !dbg !12400
  %call = call dereferenceable(4) i32* @_ZNSt6vectorIjSaIjEEixEm(%"class.std::vector.58"* %agg.result, i64 %conv2) #4, !dbg !12401
  store i32 0, i32* %call, align 4, !dbg !12402
  %7 = load i32, i32* %next_index, align 4, !dbg !12403
  %inc3 = add i32 %7, 1, !dbg !12403
  store i32 %inc3, i32* %next_index, align 4, !dbg !12403
  %conv4 = zext i32 %7 to i64, !dbg !12404
  %call5 = call dereferenceable(4) i32* @_ZNSt6vectorIjSaIjEEixEm(%"class.std::vector.58"* %agg.result, i64 %conv4) #4, !dbg !12405
  store i32 1, i32* %call5, align 4, !dbg !12406
  %8 = load i32, i32* %n, align 4, !dbg !12407
  %9 = load i32, i32* %next_index, align 4, !dbg !12408
  %inc6 = add i32 %9, 1, !dbg !12408
  store i32 %inc6, i32* %next_index, align 4, !dbg !12408
  %conv7 = zext i32 %9 to i64, !dbg !12409
  %call8 = call dereferenceable(4) i32* @_ZNSt6vectorIjSaIjEEixEm(%"class.std::vector.58"* %agg.result, i64 %conv7) #4, !dbg !12410
  store i32 %8, i32* %call8, align 4, !dbg !12411
  %10 = load i32, i32* %n, align 4, !dbg !12412
  %add9 = add i32 %10, 1, !dbg !12413
  %11 = load i32, i32* %next_index, align 4, !dbg !12414
  %inc10 = add i32 %11, 1, !dbg !12414
  store i32 %inc10, i32* %next_index, align 4, !dbg !12414
  %conv11 = zext i32 %11 to i64, !dbg !12415
  %call12 = call dereferenceable(4) i32* @_ZNSt6vectorIjSaIjEEixEm(%"class.std::vector.58"* %agg.result, i64 %conv11) #4, !dbg !12416
  store i32 %add9, i32* %call12, align 4, !dbg !12417
  call void @llvm.dbg.declare(metadata i32* %i, metadata !12418, metadata !DIExpression()), !dbg !12420
  store i32 0, i32* %i, align 4, !dbg !12420
  br label %for.cond, !dbg !12421

for.cond:                                         ; preds = %for.inc, %invoke.cont
  %12 = load i32, i32* %i, align 4, !dbg !12422
  %13 = load %"class.dealii::FiniteElementData.92"*, %"class.dealii::FiniteElementData.92"** %fe.addr, align 8, !dbg !12424
  %dofs_per_line13 = getelementptr inbounds %"class.dealii::FiniteElementData.92", %"class.dealii::FiniteElementData.92"* %13, i32 0, i32 1, !dbg !12425
  %14 = load i32, i32* %dofs_per_line13, align 4, !dbg !12425
  %cmp = icmp ult i32 %12, %14, !dbg !12426
  br i1 %cmp, label %for.body, label %for.end, !dbg !12427

for.body:                                         ; preds = %for.cond
  %15 = load i32, i32* %i, align 4, !dbg !12428
  %add14 = add i32 2, %15, !dbg !12429
  %16 = load i32, i32* %n, align 4, !dbg !12430
  %mul = mul i32 %add14, %16, !dbg !12431
  %17 = load i32, i32* %next_index, align 4, !dbg !12432
  %inc15 = add i32 %17, 1, !dbg !12432
  store i32 %inc15, i32* %next_index, align 4, !dbg !12432
  %conv16 = zext i32 %17 to i64, !dbg !12433
  %call17 = call dereferenceable(4) i32* @_ZNSt6vectorIjSaIjEEixEm(%"class.std::vector.58"* %agg.result, i64 %conv16) #4, !dbg !12434
  store i32 %mul, i32* %call17, align 4, !dbg !12435
  br label %for.inc, !dbg !12434

for.inc:                                          ; preds = %for.body
  %18 = load i32, i32* %i, align 4, !dbg !12436
  %inc18 = add i32 %18, 1, !dbg !12436
  store i32 %inc18, i32* %i, align 4, !dbg !12436
  br label %for.cond, !dbg !12437, !llvm.loop !12438

lpad:                                             ; preds = %entry
  %19 = landingpad { i8*, i32 }
          cleanup, !dbg !12440
  %20 = extractvalue { i8*, i32 } %19, 0, !dbg !12440
  store i8* %20, i8** %exn.slot, align 8, !dbg !12440
  %21 = extractvalue { i8*, i32 } %19, 1, !dbg !12440
  store i32 %21, i32* %ehselector.slot, align 4, !dbg !12440
  call void @_ZNSaIjED2Ev(%"class.std::allocator.60"* %ref.tmp) #4, !dbg !12385
  br label %eh.resume, !dbg !12385

for.end:                                          ; preds = %for.cond
  call void @llvm.dbg.declare(metadata i32* %i19, metadata !12441, metadata !DIExpression()), !dbg !12443
  store i32 0, i32* %i19, align 4, !dbg !12443
  br label %for.cond20, !dbg !12444

for.cond20:                                       ; preds = %for.inc30, %for.end
  %22 = load i32, i32* %i19, align 4, !dbg !12445
  %23 = load %"class.dealii::FiniteElementData.92"*, %"class.dealii::FiniteElementData.92"** %fe.addr, align 8, !dbg !12447
  %dofs_per_line21 = getelementptr inbounds %"class.dealii::FiniteElementData.92", %"class.dealii::FiniteElementData.92"* %23, i32 0, i32 1, !dbg !12448
  %24 = load i32, i32* %dofs_per_line21, align 4, !dbg !12448
  %cmp22 = icmp ult i32 %22, %24, !dbg !12449
  br i1 %cmp22, label %for.body23, label %for.end32, !dbg !12450

for.body23:                                       ; preds = %for.cond20
  %25 = load i32, i32* %i19, align 4, !dbg !12451
  %add24 = add i32 2, %25, !dbg !12452
  %26 = load i32, i32* %n, align 4, !dbg !12453
  %mul25 = mul i32 %add24, %26, !dbg !12454
  %add26 = add i32 %mul25, 1, !dbg !12455
  %27 = load i32, i32* %next_index, align 4, !dbg !12456
  %inc27 = add i32 %27, 1, !dbg !12456
  store i32 %inc27, i32* %next_index, align 4, !dbg !12456
  %conv28 = zext i32 %27 to i64, !dbg !12457
  %call29 = call dereferenceable(4) i32* @_ZNSt6vectorIjSaIjEEixEm(%"class.std::vector.58"* %agg.result, i64 %conv28) #4, !dbg !12458
  store i32 %add26, i32* %call29, align 4, !dbg !12459
  br label %for.inc30, !dbg !12458

for.inc30:                                        ; preds = %for.body23
  %28 = load i32, i32* %i19, align 4, !dbg !12460
  %inc31 = add i32 %28, 1, !dbg !12460
  store i32 %inc31, i32* %i19, align 4, !dbg !12460
  br label %for.cond20, !dbg !12461, !llvm.loop !12462

