; ModuleID = 'source/base/polynomials_abf.cc'
source_filename = "source/base/polynomials_abf.cc"
target datalayout = "e-m:e-p270:32:32-p271:32:32-p272:64:64-i64:64-f80:128-n8:16:32:64-S128"
target triple = "x86_64-unknown-linux-gnu"

%"class.std::ios_base::Init" = type { i8 }
%"class.dealii::PolynomialsABF" = type { i32, %"class.dealii::AnisotropicPolynomials"*, i32, %"class.std::vector.8", %"class.std::vector.13", %"class.std::vector.18" }
%"class.dealii::AnisotropicPolynomials" = type <{ %"class.std::vector", i32, [4 x i8] }>
%"class.std::vector" = type { %"struct.std::_Vector_base" }
%"struct.std::_Vector_base" = type { %"struct.std::_Vector_base<std::vector<dealii::Polynomials::Polynomial<double>, std::allocator<dealii::Polynomials::Polynomial<double> > >, std::allocator<std::vector<dealii::Polynomials::Polynomial<double>, std::allocator<dealii::Polynomials::Polynomial<double> > > > >::_Vector_impl" }
%"struct.std::_Vector_base<std::vector<dealii::Polynomials::Polynomial<double>, std::allocator<dealii::Polynomials::Polynomial<double> > >, std::allocator<std::vector<dealii::Polynomials::Polynomial<double>, std::allocator<dealii::Polynomials::Polynomial<double> > > > >::_Vector_impl" = type { %"struct.std::_Vector_base<std::vector<dealii::Polynomials::Polynomial<double>, std::allocator<dealii::Polynomials::Polynomial<double> > >, std::allocator<std::vector<dealii::Polynomials::Polynomial<double>, std::allocator<dealii::Polynomials::Polynomial<double> > > > >::_Vector_impl_data" }
%"struct.std::_Vector_base<std::vector<dealii::Polynomials::Polynomial<double>, std::allocator<dealii::Polynomials::Polynomial<double> > >, std::allocator<std::vector<dealii::Polynomials::Polynomial<double>, std::allocator<dealii::Polynomials::Polynomial<double> > > > >::_Vector_impl_data" = type { %"class.std::vector.0"*, %"class.std::vector.0"*, %"class.std::vector.0"* }
%"class.std::vector.0" = type { %"struct.std::_Vector_base.1" }
%"struct.std::_Vector_base.1" = type { %"struct.std::_Vector_base<dealii::Polynomials::Polynomial<double>, std::allocator<dealii::Polynomials::Polynomial<double> > >::_Vector_impl" }
%"struct.std::_Vector_base<dealii::Polynomials::Polynomial<double>, std::allocator<dealii::Polynomials::Polynomial<double> > >::_Vector_impl" = type { %"struct.std::_Vector_base<dealii::Polynomials::Polynomial<double>, std::allocator<dealii::Polynomials::Polynomial<double> > >::_Vector_impl_data" }
%"struct.std::_Vector_base<dealii::Polynomials::Polynomial<double>, std::allocator<dealii::Polynomials::Polynomial<double> > >::_Vector_impl_data" = type { %"class.dealii::Polynomials::Polynomial"*, %"class.dealii::Polynomials::Polynomial"*, %"class.dealii::Polynomials::Polynomial"* }
%"class.dealii::Polynomials::Polynomial" = type { %"class.dealii::Subscriptor", %"class.std::vector.8" }
%"class.dealii::Subscriptor" = type { i32 (...)**, i32, %"class.std::map", %"class.std::type_info"* }
%"class.std::map" = type { %"class.std::_Rb_tree" }
%"class.std::_Rb_tree" = type { %"struct.std::_Rb_tree<const char *, std::pair<const char *const, unsigned int>, std::_Select1st<std::pair<const char *const, unsigned int> >, std::less<const char *>, std::allocator<std::pair<const char *const, unsigned int> > >::_Rb_tree_impl" }
%"struct.std::_Rb_tree<const char *, std::pair<const char *const, unsigned int>, std::_Select1st<std::pair<const char *const, unsigned int> >, std::less<const char *>, std::allocator<std::pair<const char *const, unsigned int> > >::_Rb_tree_impl" = type { %"struct.std::_Rb_tree_key_compare", %"struct.std::_Rb_tree_header" }
%"struct.std::_Rb_tree_key_compare" = type { %"struct.std::less" }
%"struct.std::less" = type { i8 }
%"struct.std::_Rb_tree_header" = type { %"struct.std::_Rb_tree_node_base", i64 }
%"struct.std::_Rb_tree_node_base" = type { i32, %"struct.std::_Rb_tree_node_base"*, %"struct.std::_Rb_tree_node_base"*, %"struct.std::_Rb_tree_node_base"* }
%"class.std::type_info" = type { i32 (...)**, i8* }
%"class.std::vector.8" = type { %"struct.std::_Vector_base.9" }
%"struct.std::_Vector_base.9" = type { %"struct.std::_Vector_base<double, std::allocator<double> >::_Vector_impl" }
%"struct.std::_Vector_base<double, std::allocator<double> >::_Vector_impl" = type { %"struct.std::_Vector_base<double, std::allocator<double> >::_Vector_impl_data" }
%"struct.std::_Vector_base<double, std::allocator<double> >::_Vector_impl_data" = type { double*, double*, double* }
%"class.std::vector.13" = type { %"struct.std::_Vector_base.14" }
%"struct.std::_Vector_base.14" = type { %"struct.std::_Vector_base<dealii::Tensor<1, 1>, std::allocator<dealii::Tensor<1, 1> > >::_Vector_impl" }
%"struct.std::_Vector_base<dealii::Tensor<1, 1>, std::allocator<dealii::Tensor<1, 1> > >::_Vector_impl" = type { %"struct.std::_Vector_base<dealii::Tensor<1, 1>, std::allocator<dealii::Tensor<1, 1> > >::_Vector_impl_data" }
%"struct.std::_Vector_base<dealii::Tensor<1, 1>, std::allocator<dealii::Tensor<1, 1> > >::_Vector_impl_data" = type { %"class.dealii::Tensor"*, %"class.dealii::Tensor"*, %"class.dealii::Tensor"* }
%"class.dealii::Tensor" = type { [1 x double] }
%"class.std::vector.18" = type { %"struct.std::_Vector_base.19" }
%"struct.std::_Vector_base.19" = type { %"struct.std::_Vector_base<dealii::Tensor<2, 1>, std::allocator<dealii::Tensor<2, 1> > >::_Vector_impl" }
%"struct.std::_Vector_base<dealii::Tensor<2, 1>, std::allocator<dealii::Tensor<2, 1> > >::_Vector_impl" = type { %"struct.std::_Vector_base<dealii::Tensor<2, 1>, std::allocator<dealii::Tensor<2, 1> > >::_Vector_impl_data" }
%"struct.std::_Vector_base<dealii::Tensor<2, 1>, std::allocator<dealii::Tensor<2, 1> > >::_Vector_impl_data" = type { %"class.dealii::Tensor.23"*, %"class.dealii::Tensor.23"*, %"class.dealii::Tensor.23"* }
%"class.dealii::Tensor.23" = type { [1 x %"class.dealii::Tensor"] }
%"class.dealii::PolynomialsABF.30" = type { i32, %"class.dealii::AnisotropicPolynomials.31"*, i32, %"class.std::vector.8", %"class.std::vector.33", %"class.std::vector.39" }
%"class.dealii::AnisotropicPolynomials.31" = type <{ %"class.std::vector", i32, [4 x i8] }>
%"class.std::vector.33" = type { %"struct.std::_Vector_base.34" }
%"struct.std::_Vector_base.34" = type { %"struct.std::_Vector_base<dealii::Tensor<1, 2>, std::allocator<dealii::Tensor<1, 2> > >::_Vector_impl" }
%"struct.std::_Vector_base<dealii::Tensor<1, 2>, std::allocator<dealii::Tensor<1, 2> > >::_Vector_impl" = type { %"struct.std::_Vector_base<dealii::Tensor<1, 2>, std::allocator<dealii::Tensor<1, 2> > >::_Vector_impl_data" }
%"struct.std::_Vector_base<dealii::Tensor<1, 2>, std::allocator<dealii::Tensor<1, 2> > >::_Vector_impl_data" = type { %"class.dealii::Tensor.38"*, %"class.dealii::Tensor.38"*, %"class.dealii::Tensor.38"* }
%"class.dealii::Tensor.38" = type { [2 x double] }
%"class.std::vector.39" = type { %"struct.std::_Vector_base.40" }
%"struct.std::_Vector_base.40" = type { %"struct.std::_Vector_base<dealii::Tensor<2, 2>, std::allocator<dealii::Tensor<2, 2> > >::_Vector_impl" }
%"struct.std::_Vector_base<dealii::Tensor<2, 2>, std::allocator<dealii::Tensor<2, 2> > >::_Vector_impl" = type { %"struct.std::_Vector_base<dealii::Tensor<2, 2>, std::allocator<dealii::Tensor<2, 2> > >::_Vector_impl_data" }
%"struct.std::_Vector_base<dealii::Tensor<2, 2>, std::allocator<dealii::Tensor<2, 2> > >::_Vector_impl_data" = type { %"class.dealii::Tensor.44"*, %"class.dealii::Tensor.44"*, %"class.dealii::Tensor.44"* }
%"class.dealii::Tensor.44" = type { [2 x %"class.dealii::Tensor.38"] }
%"class.dealii::PolynomialsABF.52" = type { i32, %"class.dealii::AnisotropicPolynomials.53"*, i32, %"class.std::vector.8", %"class.std::vector.55", %"class.std::vector.61" }
%"class.dealii::AnisotropicPolynomials.53" = type <{ %"class.std::vector", i32, [4 x i8] }>
%"class.std::vector.55" = type { %"struct.std::_Vector_base.56" }
%"struct.std::_Vector_base.56" = type { %"struct.std::_Vector_base<dealii::Tensor<1, 3>, std::allocator<dealii::Tensor<1, 3> > >::_Vector_impl" }
%"struct.std::_Vector_base<dealii::Tensor<1, 3>, std::allocator<dealii::Tensor<1, 3> > >::_Vector_impl" = type { %"struct.std::_Vector_base<dealii::Tensor<1, 3>, std::allocator<dealii::Tensor<1, 3> > >::_Vector_impl_data" }
%"struct.std::_Vector_base<dealii::Tensor<1, 3>, std::allocator<dealii::Tensor<1, 3> > >::_Vector_impl_data" = type { %"class.dealii::Tensor.60"*, %"class.dealii::Tensor.60"*, %"class.dealii::Tensor.60"* }
%"class.dealii::Tensor.60" = type { [3 x double] }
%"class.std::vector.61" = type { %"struct.std::_Vector_base.62" }
%"struct.std::_Vector_base.62" = type { %"struct.std::_Vector_base<dealii::Tensor<2, 3>, std::allocator<dealii::Tensor<2, 3> > >::_Vector_impl" }
%"struct.std::_Vector_base<dealii::Tensor<2, 3>, std::allocator<dealii::Tensor<2, 3> > >::_Vector_impl" = type { %"struct.std::_Vector_base<dealii::Tensor<2, 3>, std::allocator<dealii::Tensor<2, 3> > >::_Vector_impl_data" }
%"struct.std::_Vector_base<dealii::Tensor<2, 3>, std::allocator<dealii::Tensor<2, 3> > >::_Vector_impl_data" = type { %"class.dealii::Tensor.66"*, %"class.dealii::Tensor.66"*, %"class.dealii::Tensor.66"* }
%"class.dealii::Tensor.66" = type { [3 x %"class.dealii::Tensor.60"] }
%"class.std::allocator" = type { i8 }
%"class.__gnu_cxx::new_allocator" = type { i8 }
%"struct.std::integral_constant" = type { i8 }
%"class.std::allocator.2" = type { i8 }
%"class.std::allocator.20" = type { i8 }
%"class.std::allocator.15" = type { i8 }
%"class.std::allocator.10" = type { i8 }
%"class.dealii::Point" = type { %"class.dealii::Tensor" }
%"class.std::vector.24" = type { %"struct.std::_Vector_base.25" }
%"struct.std::_Vector_base.25" = type { %"struct.std::_Vector_base<dealii::Tensor<3, 1>, std::allocator<dealii::Tensor<3, 1> > >::_Vector_impl" }
%"struct.std::_Vector_base<dealii::Tensor<3, 1>, std::allocator<dealii::Tensor<3, 1> > >::_Vector_impl" = type { %"struct.std::_Vector_base<dealii::Tensor<3, 1>, std::allocator<dealii::Tensor<3, 1> > >::_Vector_impl_data" }
%"struct.std::_Vector_base<dealii::Tensor<3, 1>, std::allocator<dealii::Tensor<3, 1> > >::_Vector_impl_data" = type { %"class.dealii::Tensor.29"*, %"class.dealii::Tensor.29"*, %"class.dealii::Tensor.29"* }
%"class.dealii::Tensor.29" = type { [1 x %"class.dealii::Tensor.23"] }
%"class.std::allocator.41" = type { i8 }
%"class.std::allocator.35" = type { i8 }
%"class.dealii::Point.45" = type { %"class.dealii::Tensor.38" }
%"class.std::vector.46" = type { %"struct.std::_Vector_base.47" }
%"struct.std::_Vector_base.47" = type { %"struct.std::_Vector_base<dealii::Tensor<3, 2>, std::allocator<dealii::Tensor<3, 2> > >::_Vector_impl" }
%"struct.std::_Vector_base<dealii::Tensor<3, 2>, std::allocator<dealii::Tensor<3, 2> > >::_Vector_impl" = type { %"struct.std::_Vector_base<dealii::Tensor<3, 2>, std::allocator<dealii::Tensor<3, 2> > >::_Vector_impl_data" }
%"struct.std::_Vector_base<dealii::Tensor<3, 2>, std::allocator<dealii::Tensor<3, 2> > >::_Vector_impl_data" = type { %"class.dealii::Tensor.51"*, %"class.dealii::Tensor.51"*, %"class.dealii::Tensor.51"* }
%"class.dealii::Tensor.51" = type { [2 x %"class.dealii::Tensor.44"] }
%"class.std::allocator.63" = type { i8 }
%"class.std::allocator.57" = type { i8 }
%"class.dealii::Point.67" = type { %"class.dealii::Tensor.60" }
%"class.std::vector.68" = type { %"struct.std::_Vector_base.69" }
%"struct.std::_Vector_base.69" = type { %"struct.std::_Vector_base<dealii::Tensor<3, 3>, std::allocator<dealii::Tensor<3, 3> > >::_Vector_impl" }
%"struct.std::_Vector_base<dealii::Tensor<3, 3>, std::allocator<dealii::Tensor<3, 3> > >::_Vector_impl" = type { %"struct.std::_Vector_base<dealii::Tensor<3, 3>, std::allocator<dealii::Tensor<3, 3> > >::_Vector_impl_data" }
%"struct.std::_Vector_base<dealii::Tensor<3, 3>, std::allocator<dealii::Tensor<3, 3> > >::_Vector_impl_data" = type { %"class.dealii::Tensor.73"*, %"class.dealii::Tensor.73"*, %"class.dealii::Tensor.73"* }
%"class.dealii::Tensor.73" = type { [3 x %"class.dealii::Tensor.66"] }
%"class.__gnu_cxx::new_allocator.11" = type { i8 }
%"class.__gnu_cxx::new_allocator.16" = type { i8 }
%"class.__gnu_cxx::new_allocator.21" = type { i8 }
%"class.__gnu_cxx::new_allocator.36" = type { i8 }
%"class.__gnu_cxx::new_allocator.42" = type { i8 }
%"class.__gnu_cxx::new_allocator.58" = type { i8 }
%"class.__gnu_cxx::new_allocator.64" = type { i8 }
%"class.__gnu_cxx::new_allocator.3" = type { i8 }
%"struct.std::random_access_iterator_tag" = type { i8 }

$_ZN6dealii14PolynomialsABFILi1EEC5Ej = comdat any

$_ZN6dealii14PolynomialsABFILi1EE14compute_n_polsEj = comdat any

$_ZNSt6vectorIdSaIdEEC2Ev = comdat any

$_ZNSt6vectorIN6dealii6TensorILi1ELi1EEESaIS2_EEC2Ev = comdat any

$_ZNSt6vectorIN6dealii6TensorILi2ELi1EEESaIS2_EEC2Ev = comdat any

$_ZNSaISt6vectorIN6dealii11Polynomials10PolynomialIdEESaIS3_EEEC2Ev = comdat any

$_ZNSt6vectorIS_IN6dealii11Polynomials10PolynomialIdEESaIS3_EESaIS5_EEC2EmRKS6_ = comdat any

$_ZNSaISt6vectorIN6dealii11Polynomials10PolynomialIdEESaIS3_EEED2Ev = comdat any

$_ZNSt6vectorIS_IN6dealii11Polynomials10PolynomialIdEESaIS3_EESaIS5_EEixEm = comdat any

$_ZNSt6vectorIN6dealii11Polynomials10PolynomialIdEESaIS3_EEaSEOS5_ = comdat any

$_ZNSt6vectorIN6dealii11Polynomials10PolynomialIdEESaIS3_EED2Ev = comdat any

$_ZNSt6vectorIS_IN6dealii11Polynomials10PolynomialIdEESaIS3_EESaIS5_EED2Ev = comdat any

$_ZNSt6vectorIN6dealii6TensorILi2ELi1EEESaIS2_EED2Ev = comdat any

$_ZNSt6vectorIN6dealii6TensorILi1ELi1EEESaIS2_EED2Ev = comdat any

$_ZNSt6vectorIdSaIdEED2Ev = comdat any

$_ZN6dealii14PolynomialsABFILi1EED5Ev = comdat any

$_ZN6dealii22AnisotropicPolynomialsILi1EED2Ev = comdat any

$_ZNK6dealii14PolynomialsABFILi1EE7computeERKNS_5PointILi1EEERSt6vectorINS_6TensorILi1ELi1EEESaIS8_EERS6_INS7_ILi2ELi1EEESaISC_EERS6_INS7_ILi3ELi1EEESaISG_EE = comdat any

$_ZNSt6vectorIdSaIdEE6resizeEm = comdat any

$_ZNKSt6vectorIN6dealii6TensorILi1ELi1EEESaIS2_EE4sizeEv = comdat any

$_ZNSt6vectorIN6dealii6TensorILi1ELi1EEESaIS2_EE6resizeEm = comdat any

$_ZNKSt6vectorIN6dealii6TensorILi2ELi1EEESaIS2_EE4sizeEv = comdat any

$_ZNSt6vectorIN6dealii6TensorILi2ELi1EEESaIS2_EE6resizeEm = comdat any

$_ZNKSt6vectorIN6dealii6TensorILi3ELi1EEESaIS2_EE4sizeEv = comdat any

$_ZN6dealii5PointILi1EEC2Ev = comdat any

$_ZNK6dealii5PointILi1EEclEj = comdat any

$_ZN6dealii5PointILi1EEclEj = comdat any

$_ZNKSt6vectorIdSaIdEE4sizeEv = comdat any

$_ZNSt6vectorIdSaIdEEixEm = comdat any

$_ZNSt6vectorIN6dealii6TensorILi1ELi1EEESaIS2_EEixEm = comdat any

$_ZN6dealii6TensorILi1ELi1EEixEj = comdat any

$_ZNSt6vectorIN6dealii6TensorILi2ELi1EEESaIS2_EEixEm = comdat any

$_ZN6dealii6TensorILi2ELi1EEixEj = comdat any

$_ZNSt6vectorIN6dealii6TensorILi3ELi1EEESaIS2_EEixEm = comdat any

$_ZN6dealii6TensorILi3ELi1EEixEj = comdat any

$_ZNK6dealii14PolynomialsABFILi1EE1nEv = comdat any

$_ZNK6dealii14PolynomialsABFILi1EE6degreeEv = comdat any

$_ZN6dealii14PolynomialsABFILi2EEC5Ej = comdat any

$_ZN6dealii14PolynomialsABFILi2EE14compute_n_polsEj = comdat any

$_ZNSt6vectorIN6dealii6TensorILi1ELi2EEESaIS2_EEC2Ev = comdat any

$_ZNSt6vectorIN6dealii6TensorILi2ELi2EEESaIS2_EEC2Ev = comdat any

$_ZNSt6vectorIN6dealii6TensorILi2ELi2EEESaIS2_EED2Ev = comdat any

$_ZNSt6vectorIN6dealii6TensorILi1ELi2EEESaIS2_EED2Ev = comdat any

$_ZN6dealii14PolynomialsABFILi2EED5Ev = comdat any

$_ZN6dealii22AnisotropicPolynomialsILi2EED2Ev = comdat any

$_ZNK6dealii14PolynomialsABFILi2EE7computeERKNS_5PointILi2EEERSt6vectorINS_6TensorILi1ELi2EEESaIS8_EERS6_INS7_ILi2ELi2EEESaISC_EERS6_INS7_ILi3ELi2EEESaISG_EE = comdat any

$_ZNKSt6vectorIN6dealii6TensorILi1ELi2EEESaIS2_EE4sizeEv = comdat any

$_ZNSt6vectorIN6dealii6TensorILi1ELi2EEESaIS2_EE6resizeEm = comdat any

$_ZNKSt6vectorIN6dealii6TensorILi2ELi2EEESaIS2_EE4sizeEv = comdat any

$_ZNSt6vectorIN6dealii6TensorILi2ELi2EEESaIS2_EE6resizeEm = comdat any

$_ZNKSt6vectorIN6dealii6TensorILi3ELi2EEESaIS2_EE4sizeEv = comdat any

$_ZN6dealii5PointILi2EEC2Ev = comdat any

$_ZNK6dealii5PointILi2EEclEj = comdat any

$_ZN6dealii5PointILi2EEclEj = comdat any

$_ZNSt6vectorIN6dealii6TensorILi1ELi2EEESaIS2_EEixEm = comdat any

$_ZN6dealii6TensorILi1ELi2EEixEj = comdat any

$_ZNSt6vectorIN6dealii6TensorILi2ELi2EEESaIS2_EEixEm = comdat any

$_ZN6dealii6TensorILi2ELi2EEixEj = comdat any

$_ZNSt6vectorIN6dealii6TensorILi3ELi2EEESaIS2_EEixEm = comdat any

$_ZN6dealii6TensorILi3ELi2EEixEj = comdat any

$_ZNK6dealii14PolynomialsABFILi2EE1nEv = comdat any

$_ZNK6dealii14PolynomialsABFILi2EE6degreeEv = comdat any

$_ZN6dealii14PolynomialsABFILi3EEC5Ej = comdat any

$_ZN6dealii14PolynomialsABFILi3EE14compute_n_polsEj = comdat any

$_ZNSt6vectorIN6dealii6TensorILi1ELi3EEESaIS2_EEC2Ev = comdat any

$_ZNSt6vectorIN6dealii6TensorILi2ELi3EEESaIS2_EEC2Ev = comdat any

$_ZNSt6vectorIN6dealii6TensorILi2ELi3EEESaIS2_EED2Ev = comdat any

$_ZNSt6vectorIN6dealii6TensorILi1ELi3EEESaIS2_EED2Ev = comdat any

$_ZN6dealii14PolynomialsABFILi3EED5Ev = comdat any

$_ZN6dealii22AnisotropicPolynomialsILi3EED2Ev = comdat any

$_ZNK6dealii14PolynomialsABFILi3EE7computeERKNS_5PointILi3EEERSt6vectorINS_6TensorILi1ELi3EEESaIS8_EERS6_INS7_ILi2ELi3EEESaISC_EERS6_INS7_ILi3ELi3EEESaISG_EE = comdat any

$_ZNKSt6vectorIN6dealii6TensorILi1ELi3EEESaIS2_EE4sizeEv = comdat any

$_ZNSt6vectorIN6dealii6TensorILi1ELi3EEESaIS2_EE6resizeEm = comdat any

$_ZNKSt6vectorIN6dealii6TensorILi2ELi3EEESaIS2_EE4sizeEv = comdat any

$_ZNSt6vectorIN6dealii6TensorILi2ELi3EEESaIS2_EE6resizeEm = comdat any

$_ZNKSt6vectorIN6dealii6TensorILi3ELi3EEESaIS2_EE4sizeEv = comdat any

$_ZN6dealii5PointILi3EEC2Ev = comdat any

$_ZNK6dealii5PointILi3EEclEj = comdat any

$_ZN6dealii5PointILi3EEclEj = comdat any

$_ZNSt6vectorIN6dealii6TensorILi1ELi3EEESaIS2_EEixEm = comdat any

$_ZN6dealii6TensorILi1ELi3EEixEj = comdat any

$_ZNSt6vectorIN6dealii6TensorILi2ELi3EEESaIS2_EEixEm = comdat any

$_ZN6dealii6TensorILi2ELi3EEixEj = comdat any

$_ZNSt6vectorIN6dealii6TensorILi3ELi3EEESaIS2_EEixEm = comdat any

$_ZN6dealii6TensorILi3ELi3EEixEj = comdat any

$_ZNK6dealii14PolynomialsABFILi3EE1nEv = comdat any

$_ZNK6dealii14PolynomialsABFILi3EE6degreeEv = comdat any

$_ZNSt12_Vector_baseIdSaIdEEC2Ev = comdat any

$_ZNSt12_Vector_baseIdSaIdEE12_Vector_implC2Ev = comdat any

$_ZNSaIdEC2Ev = comdat any

$_ZNSt12_Vector_baseIdSaIdEE17_Vector_impl_dataC2Ev = comdat any

$_ZN9__gnu_cxx13new_allocatorIdEC2Ev = comdat any

$_ZNSt12_Vector_baseIN6dealii6TensorILi1ELi1EEESaIS2_EEC2Ev = comdat any

$_ZNSt12_Vector_baseIN6dealii6TensorILi1ELi1EEESaIS2_EE12_Vector_implC2Ev = comdat any

$_ZNSaIN6dealii6TensorILi1ELi1EEEEC2Ev = comdat any

$_ZNSt12_Vector_baseIN6dealii6TensorILi1ELi1EEESaIS2_EE17_Vector_impl_dataC2Ev = comdat any

$_ZN9__gnu_cxx13new_allocatorIN6dealii6TensorILi1ELi1EEEEC2Ev = comdat any

$_ZNSt12_Vector_baseIN6dealii6TensorILi2ELi1EEESaIS2_EEC2Ev = comdat any

$_ZNSt12_Vector_baseIN6dealii6TensorILi2ELi1EEESaIS2_EE12_Vector_implC2Ev = comdat any

$_ZNSaIN6dealii6TensorILi2ELi1EEEEC2Ev = comdat any

$_ZNSt12_Vector_baseIN6dealii6TensorILi2ELi1EEESaIS2_EE17_Vector_impl_dataC2Ev = comdat any

$_ZN9__gnu_cxx13new_allocatorIN6dealii6TensorILi2ELi1EEEEC2Ev = comdat any

$_ZNSt12_Vector_baseIN6dealii6TensorILi1ELi2EEESaIS2_EEC2Ev = comdat any

$_ZNSt12_Vector_baseIN6dealii6TensorILi1ELi2EEESaIS2_EE12_Vector_implC2Ev = comdat any

$_ZNSaIN6dealii6TensorILi1ELi2EEEEC2Ev = comdat any

$_ZNSt12_Vector_baseIN6dealii6TensorILi1ELi2EEESaIS2_EE17_Vector_impl_dataC2Ev = comdat any

$_ZN9__gnu_cxx13new_allocatorIN6dealii6TensorILi1ELi2EEEEC2Ev = comdat any

$_ZNSt12_Vector_baseIN6dealii6TensorILi2ELi2EEESaIS2_EEC2Ev = comdat any

$_ZNSt12_Vector_baseIN6dealii6TensorILi2ELi2EEESaIS2_EE12_Vector_implC2Ev = comdat any

$_ZNSaIN6dealii6TensorILi2ELi2EEEEC2Ev = comdat any

$_ZNSt12_Vector_baseIN6dealii6TensorILi2ELi2EEESaIS2_EE17_Vector_impl_dataC2Ev = comdat any

$_ZN9__gnu_cxx13new_allocatorIN6dealii6TensorILi2ELi2EEEEC2Ev = comdat any

$_ZNSt12_Vector_baseIN6dealii6TensorILi1ELi3EEESaIS2_EEC2Ev = comdat any

$_ZNSt12_Vector_baseIN6dealii6TensorILi1ELi3EEESaIS2_EE12_Vector_implC2Ev = comdat any

$_ZNSaIN6dealii6TensorILi1ELi3EEEEC2Ev = comdat any

$_ZNSt12_Vector_baseIN6dealii6TensorILi1ELi3EEESaIS2_EE17_Vector_impl_dataC2Ev = comdat any

$_ZN9__gnu_cxx13new_allocatorIN6dealii6TensorILi1ELi3EEEEC2Ev = comdat any

$_ZNSt12_Vector_baseIN6dealii6TensorILi2ELi3EEESaIS2_EEC2Ev = comdat any

$_ZNSt12_Vector_baseIN6dealii6TensorILi2ELi3EEESaIS2_EE12_Vector_implC2Ev = comdat any

$_ZNSaIN6dealii6TensorILi2ELi3EEEEC2Ev = comdat any

$_ZNSt12_Vector_baseIN6dealii6TensorILi2ELi3EEESaIS2_EE17_Vector_impl_dataC2Ev = comdat any

$_ZN9__gnu_cxx13new_allocatorIN6dealii6TensorILi2ELi3EEEEC2Ev = comdat any

$_ZN9__gnu_cxx13new_allocatorISt6vectorIN6dealii11Polynomials10PolynomialIdEESaIS5_EEEC2Ev = comdat any

$_ZN9__gnu_cxx13new_allocatorISt6vectorIN6dealii11Polynomials10PolynomialIdEESaIS5_EEED2Ev = comdat any

$_ZSt8_DestroyIPddEvT_S1_RSaIT0_E = comdat any

$_ZNSt12_Vector_baseIdSaIdEE19_M_get_Tp_allocatorEv = comdat any

$_ZNSt12_Vector_baseIdSaIdEED2Ev = comdat any

$__clang_call_terminate = comdat any

$_ZSt8_DestroyIPdEvT_S1_ = comdat any

$_ZNSt12_Destroy_auxILb1EE9__destroyIPdEEvT_S3_ = comdat any

$_ZNSt12_Vector_baseIdSaIdEE13_M_deallocateEPdm = comdat any

$_ZNSt12_Vector_baseIdSaIdEE12_Vector_implD2Ev = comdat any

$_ZNSt16allocator_traitsISaIdEE10deallocateERS0_Pdm = comdat any

$_ZN9__gnu_cxx13new_allocatorIdE10deallocateEPdm = comdat any

$_ZNSaIdED2Ev = comdat any

$_ZN9__gnu_cxx13new_allocatorIdED2Ev = comdat any

$_ZSt8_DestroyIPN6dealii6TensorILi1ELi1EEES2_EvT_S4_RSaIT0_E = comdat any

$_ZNSt12_Vector_baseIN6dealii6TensorILi1ELi1EEESaIS2_EE19_M_get_Tp_allocatorEv = comdat any

$_ZNSt12_Vector_baseIN6dealii6TensorILi1ELi1EEESaIS2_EED2Ev = comdat any

$_ZSt8_DestroyIPN6dealii6TensorILi1ELi1EEEEvT_S4_ = comdat any

$_ZNSt12_Destroy_auxILb1EE9__destroyIPN6dealii6TensorILi1ELi1EEEEEvT_S6_ = comdat any

$_ZNSt12_Vector_baseIN6dealii6TensorILi1ELi1EEESaIS2_EE13_M_deallocateEPS2_m = comdat any

$_ZNSt12_Vector_baseIN6dealii6TensorILi1ELi1EEESaIS2_EE12_Vector_implD2Ev = comdat any

$_ZNSt16allocator_traitsISaIN6dealii6TensorILi1ELi1EEEEE10deallocateERS3_PS2_m = comdat any

$_ZN9__gnu_cxx13new_allocatorIN6dealii6TensorILi1ELi1EEEE10deallocateEPS3_m = comdat any

$_ZNSaIN6dealii6TensorILi1ELi1EEEED2Ev = comdat any

$_ZN9__gnu_cxx13new_allocatorIN6dealii6TensorILi1ELi1EEEED2Ev = comdat any

$_ZSt8_DestroyIPN6dealii6TensorILi2ELi1EEES2_EvT_S4_RSaIT0_E = comdat any

$_ZNSt12_Vector_baseIN6dealii6TensorILi2ELi1EEESaIS2_EE19_M_get_Tp_allocatorEv = comdat any

$_ZNSt12_Vector_baseIN6dealii6TensorILi2ELi1EEESaIS2_EED2Ev = comdat any

$_ZSt8_DestroyIPN6dealii6TensorILi2ELi1EEEEvT_S4_ = comdat any

$_ZNSt12_Destroy_auxILb1EE9__destroyIPN6dealii6TensorILi2ELi1EEEEEvT_S6_ = comdat any

$_ZNSt12_Vector_baseIN6dealii6TensorILi2ELi1EEESaIS2_EE13_M_deallocateEPS2_m = comdat any

$_ZNSt12_Vector_baseIN6dealii6TensorILi2ELi1EEESaIS2_EE12_Vector_implD2Ev = comdat any

$_ZNSt16allocator_traitsISaIN6dealii6TensorILi2ELi1EEEEE10deallocateERS3_PS2_m = comdat any

$_ZN9__gnu_cxx13new_allocatorIN6dealii6TensorILi2ELi1EEEE10deallocateEPS3_m = comdat any

$_ZNSaIN6dealii6TensorILi2ELi1EEEED2Ev = comdat any

$_ZN9__gnu_cxx13new_allocatorIN6dealii6TensorILi2ELi1EEEED2Ev = comdat any

$_ZNSt6vectorIS_IN6dealii11Polynomials10PolynomialIdEESaIS3_EESaIS5_EE17_S_check_init_lenEmRKS6_ = comdat any

$_ZNSt12_Vector_baseISt6vectorIN6dealii11Polynomials10PolynomialIdEESaIS4_EESaIS6_EEC2EmRKS7_ = comdat any

$_ZNSt6vectorIS_IN6dealii11Polynomials10PolynomialIdEESaIS3_EESaIS5_EE21_M_default_initializeEm = comdat any

$_ZNSt12_Vector_baseISt6vectorIN6dealii11Polynomials10PolynomialIdEESaIS4_EESaIS6_EED2Ev = comdat any

$_ZNSt6vectorIS_IN6dealii11Polynomials10PolynomialIdEESaIS3_EESaIS5_EE11_S_max_sizeERKS6_ = comdat any

$_ZNSaISt6vectorIN6dealii11Polynomials10PolynomialIdEESaIS3_EEEC2ERKS6_ = comdat any

$_ZNSt16allocator_traitsISaISt6vectorIN6dealii11Polynomials10PolynomialIdEESaIS4_EEEE8max_sizeERKS7_ = comdat any

$_ZSt3minImERKT_S2_S2_ = comdat any

$_ZNK9__gnu_cxx13new_allocatorISt6vectorIN6dealii11Polynomials10PolynomialIdEESaIS5_EEE8max_sizeEv = comdat any

$_ZNK9__gnu_cxx13new_allocatorISt6vectorIN6dealii11Polynomials10PolynomialIdEESaIS5_EEE11_M_max_sizeEv = comdat any

$_ZN9__gnu_cxx13new_allocatorISt6vectorIN6dealii11Polynomials10PolynomialIdEESaIS5_EEEC2ERKS8_ = comdat any

$_ZNSt12_Vector_baseISt6vectorIN6dealii11Polynomials10PolynomialIdEESaIS4_EESaIS6_EE12_Vector_implC2ERKS7_ = comdat any

$_ZNSt12_Vector_baseISt6vectorIN6dealii11Polynomials10PolynomialIdEESaIS4_EESaIS6_EE17_M_create_storageEm = comdat any

$_ZNSt12_Vector_baseISt6vectorIN6dealii11Polynomials10PolynomialIdEESaIS4_EESaIS6_EE12_Vector_implD2Ev = comdat any

$_ZNSt12_Vector_baseISt6vectorIN6dealii11Polynomials10PolynomialIdEESaIS4_EESaIS6_EE17_Vector_impl_dataC2Ev = comdat any

$_ZNSt12_Vector_baseISt6vectorIN6dealii11Polynomials10PolynomialIdEESaIS4_EESaIS6_EE11_M_allocateEm = comdat any

$_ZNSt16allocator_traitsISaISt6vectorIN6dealii11Polynomials10PolynomialIdEESaIS4_EEEE8allocateERS7_m = comdat any

$_ZN9__gnu_cxx13new_allocatorISt6vectorIN6dealii11Polynomials10PolynomialIdEESaIS5_EEE8allocateEmPKv = comdat any

$_ZSt27__uninitialized_default_n_aIPSt6vectorIN6dealii11Polynomials10PolynomialIdEESaIS4_EEmS6_ET_S8_T0_RSaIT1_E = comdat any

$_ZNSt12_Vector_baseISt6vectorIN6dealii11Polynomials10PolynomialIdEESaIS4_EESaIS6_EE19_M_get_Tp_allocatorEv = comdat any

$_ZSt25__uninitialized_default_nIPSt6vectorIN6dealii11Polynomials10PolynomialIdEESaIS4_EEmET_S8_T0_ = comdat any

$_ZNSt27__uninitialized_default_n_1ILb0EE18__uninit_default_nIPSt6vectorIN6dealii11Polynomials10PolynomialIdEESaIS6_EEmEET_SA_T0_ = comdat any

$_ZSt10_ConstructISt6vectorIN6dealii11Polynomials10PolynomialIdEESaIS4_EEJEEvPT_DpOT0_ = comdat any

$_ZSt11__addressofISt6vectorIN6dealii11Polynomials10PolynomialIdEESaIS4_EEEPT_RS7_ = comdat any

$_ZSt8_DestroyIPSt6vectorIN6dealii11Polynomials10PolynomialIdEESaIS4_EEEvT_S8_ = comdat any

$_ZNSt6vectorIN6dealii11Polynomials10PolynomialIdEESaIS3_EEC2Ev = comdat any

$_ZNSt12_Vector_baseIN6dealii11Polynomials10PolynomialIdEESaIS3_EEC2Ev = comdat any

$_ZNSt12_Vector_baseIN6dealii11Polynomials10PolynomialIdEESaIS3_EE12_Vector_implC2Ev = comdat any

$_ZNSaIN6dealii11Polynomials10PolynomialIdEEEC2Ev = comdat any

$_ZN9__gnu_cxx13new_allocatorIN6dealii11Polynomials10PolynomialIdEEEC2Ev = comdat any

$_ZNSt12_Destroy_auxILb0EE9__destroyIPSt6vectorIN6dealii11Polynomials10PolynomialIdEESaIS6_EEEEvT_SA_ = comdat any

$_ZSt8_DestroyISt6vectorIN6dealii11Polynomials10PolynomialIdEESaIS4_EEEvPT_ = comdat any

$_ZNSt12_Vector_baseISt6vectorIN6dealii11Polynomials10PolynomialIdEESaIS4_EESaIS6_EE13_M_deallocateEPS6_m = comdat any

$_ZNSt16allocator_traitsISaISt6vectorIN6dealii11Polynomials10PolynomialIdEESaIS4_EEEE10deallocateERS7_PS6_m = comdat any

$_ZN9__gnu_cxx13new_allocatorISt6vectorIN6dealii11Polynomials10PolynomialIdEESaIS5_EEE10deallocateEPS7_m = comdat any

$_ZSt8_DestroyIPSt6vectorIN6dealii11Polynomials10PolynomialIdEESaIS4_EES6_EvT_S8_RSaIT0_E = comdat any

$_ZNSt6vectorIN6dealii11Polynomials10PolynomialIdEESaIS3_EE14_M_move_assignEOS5_St17integral_constantIbLb1EE = comdat any

$_ZSt4moveIRSt6vectorIN6dealii11Polynomials10PolynomialIdEESaIS4_EEEONSt16remove_referenceIT_E4typeEOS9_ = comdat any

$_ZNKSt12_Vector_baseIN6dealii11Polynomials10PolynomialIdEESaIS3_EE13get_allocatorEv = comdat any

$_ZNSt6vectorIN6dealii11Polynomials10PolynomialIdEESaIS3_EEC2ERKS4_ = comdat any

$_ZNSaIN6dealii11Polynomials10PolynomialIdEEED2Ev = comdat any

$_ZNSt12_Vector_baseIN6dealii11Polynomials10PolynomialIdEESaIS3_EE17_Vector_impl_data12_M_swap_dataERS6_ = comdat any

$_ZSt15__alloc_on_moveISaIN6dealii11Polynomials10PolynomialIdEEEEvRT_S6_ = comdat any

$_ZNSt12_Vector_baseIN6dealii11Polynomials10PolynomialIdEESaIS3_EE19_M_get_Tp_allocatorEv = comdat any

$_ZNKSt12_Vector_baseIN6dealii11Polynomials10PolynomialIdEESaIS3_EE19_M_get_Tp_allocatorEv = comdat any

$_ZNSaIN6dealii11Polynomials10PolynomialIdEEEC2ERKS3_ = comdat any

$_ZN9__gnu_cxx13new_allocatorIN6dealii11Polynomials10PolynomialIdEEEC2ERKS5_ = comdat any

$_ZNSt12_Vector_baseIN6dealii11Polynomials10PolynomialIdEESaIS3_EEC2ERKS4_ = comdat any

$_ZNSt12_Vector_baseIN6dealii11Polynomials10PolynomialIdEESaIS3_EE12_Vector_implC2ERKS4_ = comdat any

$_ZN9__gnu_cxx13new_allocatorIN6dealii11Polynomials10PolynomialIdEEED2Ev = comdat any

$_ZNSt12_Vector_baseIN6dealii11Polynomials10PolynomialIdEESaIS3_EE17_Vector_impl_dataC2Ev = comdat any

$_ZNSt12_Vector_baseIN6dealii11Polynomials10PolynomialIdEESaIS3_EE17_Vector_impl_data12_M_copy_dataERKS6_ = comdat any

$_ZSt18__do_alloc_on_moveISaIN6dealii11Polynomials10PolynomialIdEEEEvRT_S6_St17integral_constantIbLb1EE = comdat any

$_ZSt4moveIRSaIN6dealii11Polynomials10PolynomialIdEEEEONSt16remove_referenceIT_E4typeEOS7_ = comdat any

$_ZSt8_DestroyIPN6dealii11Polynomials10PolynomialIdEES3_EvT_S5_RSaIT0_E = comdat any

$_ZNSt12_Vector_baseIN6dealii11Polynomials10PolynomialIdEESaIS3_EED2Ev = comdat any

$_ZSt8_DestroyIPN6dealii11Polynomials10PolynomialIdEEEvT_S5_ = comdat any

$_ZNSt12_Destroy_auxILb0EE9__destroyIPN6dealii11Polynomials10PolynomialIdEEEEvT_S7_ = comdat any

$_ZSt8_DestroyIN6dealii11Polynomials10PolynomialIdEEEvPT_ = comdat any

$_ZSt11__addressofIN6dealii11Polynomials10PolynomialIdEEEPT_RS4_ = comdat any

$_ZNSt12_Vector_baseIN6dealii11Polynomials10PolynomialIdEESaIS3_EE13_M_deallocateEPS3_m = comdat any

$_ZNSt12_Vector_baseIN6dealii11Polynomials10PolynomialIdEESaIS3_EE12_Vector_implD2Ev = comdat any

$_ZNSt16allocator_traitsISaIN6dealii11Polynomials10PolynomialIdEEEE10deallocateERS4_PS3_m = comdat any

$_ZN9__gnu_cxx13new_allocatorIN6dealii11Polynomials10PolynomialIdEEE10deallocateEPS4_m = comdat any

$_ZNSt6vectorIdSaIdEE17_M_default_appendEm = comdat any

$_ZNSt6vectorIdSaIdEE15_M_erase_at_endEPd = comdat any

$_ZNKSt6vectorIdSaIdEE8max_sizeEv = comdat any

$_ZSt27__uninitialized_default_n_aIPdmdET_S1_T0_RSaIT1_E = comdat any

$_ZNKSt6vectorIdSaIdEE12_M_check_lenEmPKc = comdat any

$_ZNSt12_Vector_baseIdSaIdEE11_M_allocateEm = comdat any

$_ZNSt6vectorIdSaIdEE11_S_relocateEPdS2_S2_RS0_ = comdat any

$_ZNSt6vectorIdSaIdEE11_S_max_sizeERKS0_ = comdat any

$_ZNKSt12_Vector_baseIdSaIdEE19_M_get_Tp_allocatorEv = comdat any

$_ZNSt16allocator_traitsISaIdEE8max_sizeERKS0_ = comdat any

$_ZNK9__gnu_cxx13new_allocatorIdE8max_sizeEv = comdat any

$_ZNK9__gnu_cxx13new_allocatorIdE11_M_max_sizeEv = comdat any

$_ZSt25__uninitialized_default_nIPdmET_S1_T0_ = comdat any

$_ZNSt27__uninitialized_default_n_1ILb1EE18__uninit_default_nIPdmEET_S3_T0_ = comdat any

$_ZSt6fill_nIPdmdET_S1_T0_RKT1_ = comdat any

$_ZSt10__fill_n_aIPdmdET_S1_T0_RKT1_St26random_access_iterator_tag = comdat any

$_ZSt17__size_to_integerm = comdat any

$_ZSt19__iterator_categoryIPdENSt15iterator_traitsIT_E17iterator_categoryERKS2_ = comdat any

$_ZSt8__fill_aIPddEvT_S1_RKT0_ = comdat any

$_ZSt9__fill_a1IPddEN9__gnu_cxx11__enable_ifIXsr11__is_scalarIT0_EE7__valueEvE6__typeET_S6_RKS3_ = comdat any

$_ZSt3maxImERKT_S2_S2_ = comdat any

$_ZNSt16allocator_traitsISaIdEE8allocateERS0_m = comdat any

$_ZN9__gnu_cxx13new_allocatorIdE8allocateEmPKv = comdat any

$_ZNSt6vectorIdSaIdEE14_S_do_relocateEPdS2_S2_RS0_St17integral_constantIbLb1EE = comdat any

$_ZSt12__relocate_aIPdS0_SaIdEET0_T_S3_S2_RT1_ = comdat any

$_ZSt14__relocate_a_1IddENSt9enable_ifIXsr3std24__is_bitwise_relocatableIT_EE5valueEPS1_E4typeES2_S2_S2_RSaIT0_E = comdat any

$_ZSt12__niter_baseIPdET_S1_ = comdat any

$_ZNSt6vectorIN6dealii6TensorILi1ELi1EEESaIS2_EE17_M_default_appendEm = comdat any

$_ZNSt6vectorIN6dealii6TensorILi1ELi1EEESaIS2_EE15_M_erase_at_endEPS2_ = comdat any

$_ZNKSt6vectorIN6dealii6TensorILi1ELi1EEESaIS2_EE8max_sizeEv = comdat any

$_ZSt27__uninitialized_default_n_aIPN6dealii6TensorILi1ELi1EEEmS2_ET_S4_T0_RSaIT1_E = comdat any

$_ZNKSt6vectorIN6dealii6TensorILi1ELi1EEESaIS2_EE12_M_check_lenEmPKc = comdat any

$_ZNSt12_Vector_baseIN6dealii6TensorILi1ELi1EEESaIS2_EE11_M_allocateEm = comdat any

$_ZSt34__uninitialized_move_if_noexcept_aIPN6dealii6TensorILi1ELi1EEES3_SaIS2_EET0_T_S6_S5_RT1_ = comdat any

$_ZNSt6vectorIN6dealii6TensorILi1ELi1EEESaIS2_EE11_S_max_sizeERKS3_ = comdat any

$_ZNKSt12_Vector_baseIN6dealii6TensorILi1ELi1EEESaIS2_EE19_M_get_Tp_allocatorEv = comdat any

$_ZNSt16allocator_traitsISaIN6dealii6TensorILi1ELi1EEEEE8max_sizeERKS3_ = comdat any

$_ZNK9__gnu_cxx13new_allocatorIN6dealii6TensorILi1ELi1EEEE8max_sizeEv = comdat any

$_ZNK9__gnu_cxx13new_allocatorIN6dealii6TensorILi1ELi1EEEE11_M_max_sizeEv = comdat any

$_ZSt25__uninitialized_default_nIPN6dealii6TensorILi1ELi1EEEmET_S4_T0_ = comdat any

$_ZNSt27__uninitialized_default_n_1ILb0EE18__uninit_default_nIPN6dealii6TensorILi1ELi1EEEmEET_S6_T0_ = comdat any

$_ZSt10_ConstructIN6dealii6TensorILi1ELi1EEEJEEvPT_DpOT0_ = comdat any

$_ZSt11__addressofIN6dealii6TensorILi1ELi1EEEEPT_RS3_ = comdat any

$_ZN6dealii6TensorILi1ELi1EEC2Eb = comdat any

$_ZNSt16allocator_traitsISaIN6dealii6TensorILi1ELi1EEEEE8allocateERS3_m = comdat any

$_ZN9__gnu_cxx13new_allocatorIN6dealii6TensorILi1ELi1EEEE8allocateEmPKv = comdat any

$_ZSt22__uninitialized_copy_aIPKN6dealii6TensorILi1ELi1EEEPS2_S2_ET0_T_S7_S6_RSaIT1_E = comdat any

$_ZSt32__make_move_if_noexcept_iteratorIN6dealii6TensorILi1ELi1EEEPKS2_ET0_PT_ = comdat any

$_ZSt18uninitialized_copyIPKN6dealii6TensorILi1ELi1EEEPS2_ET0_T_S7_S6_ = comdat any

$_ZNSt20__uninitialized_copyILb0EE13__uninit_copyIPKN6dealii6TensorILi1ELi1EEEPS4_EET0_T_S9_S8_ = comdat any

$_ZSt10_ConstructIN6dealii6TensorILi1ELi1EEEJRKS2_EEvPT_DpOT0_ = comdat any

$_ZSt7forwardIRKN6dealii6TensorILi1ELi1EEEEOT_RNSt16remove_referenceIS5_E4typeE = comdat any

$_ZN6dealii6TensorILi1ELi1EEC2ERKS1_ = comdat any

$_ZNSt6vectorIN6dealii6TensorILi2ELi1EEESaIS2_EE17_M_default_appendEm = comdat any

$_ZNSt6vectorIN6dealii6TensorILi2ELi1EEESaIS2_EE15_M_erase_at_endEPS2_ = comdat any

$_ZNKSt6vectorIN6dealii6TensorILi2ELi1EEESaIS2_EE8max_sizeEv = comdat any

$_ZSt27__uninitialized_default_n_aIPN6dealii6TensorILi2ELi1EEEmS2_ET_S4_T0_RSaIT1_E = comdat any

$_ZNKSt6vectorIN6dealii6TensorILi2ELi1EEESaIS2_EE12_M_check_lenEmPKc = comdat any

$_ZNSt12_Vector_baseIN6dealii6TensorILi2ELi1EEESaIS2_EE11_M_allocateEm = comdat any

$_ZSt34__uninitialized_move_if_noexcept_aIPN6dealii6TensorILi2ELi1EEES3_SaIS2_EET0_T_S6_S5_RT1_ = comdat any

$_ZNSt6vectorIN6dealii6TensorILi2ELi1EEESaIS2_EE11_S_max_sizeERKS3_ = comdat any

$_ZNKSt12_Vector_baseIN6dealii6TensorILi2ELi1EEESaIS2_EE19_M_get_Tp_allocatorEv = comdat any

$_ZNSt16allocator_traitsISaIN6dealii6TensorILi2ELi1EEEEE8max_sizeERKS3_ = comdat any

$_ZNK9__gnu_cxx13new_allocatorIN6dealii6TensorILi2ELi1EEEE8max_sizeEv = comdat any

$_ZNK9__gnu_cxx13new_allocatorIN6dealii6TensorILi2ELi1EEEE11_M_max_sizeEv = comdat any

$_ZSt25__uninitialized_default_nIPN6dealii6TensorILi2ELi1EEEmET_S4_T0_ = comdat any

$_ZNSt27__uninitialized_default_n_1ILb0EE18__uninit_default_nIPN6dealii6TensorILi2ELi1EEEmEET_S6_T0_ = comdat any

$_ZSt10_ConstructIN6dealii6TensorILi2ELi1EEEJEEvPT_DpOT0_ = comdat any

$_ZSt11__addressofIN6dealii6TensorILi2ELi1EEEEPT_RS3_ = comdat any

$_ZN6dealii6TensorILi2ELi1EEC2Ev = comdat any

$_ZNSt16allocator_traitsISaIN6dealii6TensorILi2ELi1EEEEE8allocateERS3_m = comdat any

$_ZN9__gnu_cxx13new_allocatorIN6dealii6TensorILi2ELi1EEEE8allocateEmPKv = comdat any

$_ZSt22__uninitialized_copy_aIPKN6dealii6TensorILi2ELi1EEEPS2_S2_ET0_T_S7_S6_RSaIT1_E = comdat any

$_ZSt32__make_move_if_noexcept_iteratorIN6dealii6TensorILi2ELi1EEEPKS2_ET0_PT_ = comdat any

$_ZSt18uninitialized_copyIPKN6dealii6TensorILi2ELi1EEEPS2_ET0_T_S7_S6_ = comdat any

$_ZNSt20__uninitialized_copyILb0EE13__uninit_copyIPKN6dealii6TensorILi2ELi1EEEPS4_EET0_T_S9_S8_ = comdat any

$_ZSt10_ConstructIN6dealii6TensorILi2ELi1EEEJRKS2_EEvPT_DpOT0_ = comdat any

$_ZSt7forwardIRKN6dealii6TensorILi2ELi1EEEEOT_RNSt16remove_referenceIS5_E4typeE = comdat any

$_ZN6dealii6TensorILi2ELi1EEC2ERKS1_ = comdat any

$_ZSt8_DestroyIPN6dealii6TensorILi1ELi2EEES2_EvT_S4_RSaIT0_E = comdat any

$_ZNSt12_Vector_baseIN6dealii6TensorILi1ELi2EEESaIS2_EE19_M_get_Tp_allocatorEv = comdat any

$_ZNSt12_Vector_baseIN6dealii6TensorILi1ELi2EEESaIS2_EED2Ev = comdat any

$_ZSt8_DestroyIPN6dealii6TensorILi1ELi2EEEEvT_S4_ = comdat any

$_ZNSt12_Destroy_auxILb1EE9__destroyIPN6dealii6TensorILi1ELi2EEEEEvT_S6_ = comdat any

$_ZNSt12_Vector_baseIN6dealii6TensorILi1ELi2EEESaIS2_EE13_M_deallocateEPS2_m = comdat any

$_ZNSt12_Vector_baseIN6dealii6TensorILi1ELi2EEESaIS2_EE12_Vector_implD2Ev = comdat any

$_ZNSt16allocator_traitsISaIN6dealii6TensorILi1ELi2EEEEE10deallocateERS3_PS2_m = comdat any

$_ZN9__gnu_cxx13new_allocatorIN6dealii6TensorILi1ELi2EEEE10deallocateEPS3_m = comdat any

$_ZNSaIN6dealii6TensorILi1ELi2EEEED2Ev = comdat any

$_ZN9__gnu_cxx13new_allocatorIN6dealii6TensorILi1ELi2EEEED2Ev = comdat any

$_ZSt8_DestroyIPN6dealii6TensorILi2ELi2EEES2_EvT_S4_RSaIT0_E = comdat any

$_ZNSt12_Vector_baseIN6dealii6TensorILi2ELi2EEESaIS2_EE19_M_get_Tp_allocatorEv = comdat any

$_ZNSt12_Vector_baseIN6dealii6TensorILi2ELi2EEESaIS2_EED2Ev = comdat any

$_ZSt8_DestroyIPN6dealii6TensorILi2ELi2EEEEvT_S4_ = comdat any

$_ZNSt12_Destroy_auxILb1EE9__destroyIPN6dealii6TensorILi2ELi2EEEEEvT_S6_ = comdat any

$_ZNSt12_Vector_baseIN6dealii6TensorILi2ELi2EEESaIS2_EE13_M_deallocateEPS2_m = comdat any

$_ZNSt12_Vector_baseIN6dealii6TensorILi2ELi2EEESaIS2_EE12_Vector_implD2Ev = comdat any

$_ZNSt16allocator_traitsISaIN6dealii6TensorILi2ELi2EEEEE10deallocateERS3_PS2_m = comdat any

$_ZN9__gnu_cxx13new_allocatorIN6dealii6TensorILi2ELi2EEEE10deallocateEPS3_m = comdat any

$_ZNSaIN6dealii6TensorILi2ELi2EEEED2Ev = comdat any

$_ZN9__gnu_cxx13new_allocatorIN6dealii6TensorILi2ELi2EEEED2Ev = comdat any

$_ZNSt6vectorIN6dealii6TensorILi1ELi2EEESaIS2_EE17_M_default_appendEm = comdat any

$_ZNSt6vectorIN6dealii6TensorILi1ELi2EEESaIS2_EE15_M_erase_at_endEPS2_ = comdat any

$_ZNKSt6vectorIN6dealii6TensorILi1ELi2EEESaIS2_EE8max_sizeEv = comdat any

$_ZSt27__uninitialized_default_n_aIPN6dealii6TensorILi1ELi2EEEmS2_ET_S4_T0_RSaIT1_E = comdat any

$_ZNKSt6vectorIN6dealii6TensorILi1ELi2EEESaIS2_EE12_M_check_lenEmPKc = comdat any

$_ZNSt12_Vector_baseIN6dealii6TensorILi1ELi2EEESaIS2_EE11_M_allocateEm = comdat any

$_ZSt34__uninitialized_move_if_noexcept_aIPN6dealii6TensorILi1ELi2EEES3_SaIS2_EET0_T_S6_S5_RT1_ = comdat any

$_ZNSt6vectorIN6dealii6TensorILi1ELi2EEESaIS2_EE11_S_max_sizeERKS3_ = comdat any

$_ZNKSt12_Vector_baseIN6dealii6TensorILi1ELi2EEESaIS2_EE19_M_get_Tp_allocatorEv = comdat any

$_ZNSt16allocator_traitsISaIN6dealii6TensorILi1ELi2EEEEE8max_sizeERKS3_ = comdat any

$_ZNK9__gnu_cxx13new_allocatorIN6dealii6TensorILi1ELi2EEEE8max_sizeEv = comdat any

$_ZNK9__gnu_cxx13new_allocatorIN6dealii6TensorILi1ELi2EEEE11_M_max_sizeEv = comdat any

$_ZSt25__uninitialized_default_nIPN6dealii6TensorILi1ELi2EEEmET_S4_T0_ = comdat any

$_ZNSt27__uninitialized_default_n_1ILb0EE18__uninit_default_nIPN6dealii6TensorILi1ELi2EEEmEET_S6_T0_ = comdat any

$_ZSt10_ConstructIN6dealii6TensorILi1ELi2EEEJEEvPT_DpOT0_ = comdat any

$_ZSt11__addressofIN6dealii6TensorILi1ELi2EEEEPT_RS3_ = comdat any

$_ZN6dealii6TensorILi1ELi2EEC2Eb = comdat any

$_ZNSt16allocator_traitsISaIN6dealii6TensorILi1ELi2EEEEE8allocateERS3_m = comdat any

$_ZN9__gnu_cxx13new_allocatorIN6dealii6TensorILi1ELi2EEEE8allocateEmPKv = comdat any

$_ZSt22__uninitialized_copy_aIPKN6dealii6TensorILi1ELi2EEEPS2_S2_ET0_T_S7_S6_RSaIT1_E = comdat any

$_ZSt32__make_move_if_noexcept_iteratorIN6dealii6TensorILi1ELi2EEEPKS2_ET0_PT_ = comdat any

$_ZSt18uninitialized_copyIPKN6dealii6TensorILi1ELi2EEEPS2_ET0_T_S7_S6_ = comdat any

$_ZNSt20__uninitialized_copyILb0EE13__uninit_copyIPKN6dealii6TensorILi1ELi2EEEPS4_EET0_T_S9_S8_ = comdat any

$_ZSt10_ConstructIN6dealii6TensorILi1ELi2EEEJRKS2_EEvPT_DpOT0_ = comdat any

$_ZSt7forwardIRKN6dealii6TensorILi1ELi2EEEEOT_RNSt16remove_referenceIS5_E4typeE = comdat any

$_ZN6dealii6TensorILi1ELi2EEC2ERKS1_ = comdat any

$_ZNSt6vectorIN6dealii6TensorILi2ELi2EEESaIS2_EE17_M_default_appendEm = comdat any

$_ZNSt6vectorIN6dealii6TensorILi2ELi2EEESaIS2_EE15_M_erase_at_endEPS2_ = comdat any

$_ZNKSt6vectorIN6dealii6TensorILi2ELi2EEESaIS2_EE8max_sizeEv = comdat any

$_ZSt27__uninitialized_default_n_aIPN6dealii6TensorILi2ELi2EEEmS2_ET_S4_T0_RSaIT1_E = comdat any

$_ZNKSt6vectorIN6dealii6TensorILi2ELi2EEESaIS2_EE12_M_check_lenEmPKc = comdat any

$_ZNSt12_Vector_baseIN6dealii6TensorILi2ELi2EEESaIS2_EE11_M_allocateEm = comdat any

$_ZSt34__uninitialized_move_if_noexcept_aIPN6dealii6TensorILi2ELi2EEES3_SaIS2_EET0_T_S6_S5_RT1_ = comdat any

$_ZNSt6vectorIN6dealii6TensorILi2ELi2EEESaIS2_EE11_S_max_sizeERKS3_ = comdat any

$_ZNKSt12_Vector_baseIN6dealii6TensorILi2ELi2EEESaIS2_EE19_M_get_Tp_allocatorEv = comdat any

$_ZNSt16allocator_traitsISaIN6dealii6TensorILi2ELi2EEEEE8max_sizeERKS3_ = comdat any

$_ZNK9__gnu_cxx13new_allocatorIN6dealii6TensorILi2ELi2EEEE8max_sizeEv = comdat any

$_ZNK9__gnu_cxx13new_allocatorIN6dealii6TensorILi2ELi2EEEE11_M_max_sizeEv = comdat any

$_ZSt25__uninitialized_default_nIPN6dealii6TensorILi2ELi2EEEmET_S4_T0_ = comdat any

$_ZNSt27__uninitialized_default_n_1ILb0EE18__uninit_default_nIPN6dealii6TensorILi2ELi2EEEmEET_S6_T0_ = comdat any

$_ZSt10_ConstructIN6dealii6TensorILi2ELi2EEEJEEvPT_DpOT0_ = comdat any

$_ZSt11__addressofIN6dealii6TensorILi2ELi2EEEEPT_RS3_ = comdat any

$_ZN6dealii6TensorILi2ELi2EEC2Ev = comdat any

$_ZNSt16allocator_traitsISaIN6dealii6TensorILi2ELi2EEEEE8allocateERS3_m = comdat any

$_ZN9__gnu_cxx13new_allocatorIN6dealii6TensorILi2ELi2EEEE8allocateEmPKv = comdat any

$_ZSt22__uninitialized_copy_aIPKN6dealii6TensorILi2ELi2EEEPS2_S2_ET0_T_S7_S6_RSaIT1_E = comdat any

$_ZSt32__make_move_if_noexcept_iteratorIN6dealii6TensorILi2ELi2EEEPKS2_ET0_PT_ = comdat any

$_ZSt18uninitialized_copyIPKN6dealii6TensorILi2ELi2EEEPS2_ET0_T_S7_S6_ = comdat any

$_ZNSt20__uninitialized_copyILb0EE13__uninit_copyIPKN6dealii6TensorILi2ELi2EEEPS4_EET0_T_S9_S8_ = comdat any

$_ZSt10_ConstructIN6dealii6TensorILi2ELi2EEEJRKS2_EEvPT_DpOT0_ = comdat any

$_ZSt7forwardIRKN6dealii6TensorILi2ELi2EEEEOT_RNSt16remove_referenceIS5_E4typeE = comdat any

$_ZN6dealii6TensorILi2ELi2EEC2ERKS1_ = comdat any

$_ZSt8_DestroyIPN6dealii6TensorILi1ELi3EEES2_EvT_S4_RSaIT0_E = comdat any

$_ZNSt12_Vector_baseIN6dealii6TensorILi1ELi3EEESaIS2_EE19_M_get_Tp_allocatorEv = comdat any

$_ZNSt12_Vector_baseIN6dealii6TensorILi1ELi3EEESaIS2_EED2Ev = comdat any

$_ZSt8_DestroyIPN6dealii6TensorILi1ELi3EEEEvT_S4_ = comdat any

$_ZNSt12_Destroy_auxILb1EE9__destroyIPN6dealii6TensorILi1ELi3EEEEEvT_S6_ = comdat any

$_ZNSt12_Vector_baseIN6dealii6TensorILi1ELi3EEESaIS2_EE13_M_deallocateEPS2_m = comdat any

$_ZNSt12_Vector_baseIN6dealii6TensorILi1ELi3EEESaIS2_EE12_Vector_implD2Ev = comdat any

$_ZNSt16allocator_traitsISaIN6dealii6TensorILi1ELi3EEEEE10deallocateERS3_PS2_m = comdat any

$_ZN9__gnu_cxx13new_allocatorIN6dealii6TensorILi1ELi3EEEE10deallocateEPS3_m = comdat any

$_ZNSaIN6dealii6TensorILi1ELi3EEEED2Ev = comdat any

$_ZN9__gnu_cxx13new_allocatorIN6dealii6TensorILi1ELi3EEEED2Ev = comdat any

$_ZSt8_DestroyIPN6dealii6TensorILi2ELi3EEES2_EvT_S4_RSaIT0_E = comdat any

$_ZNSt12_Vector_baseIN6dealii6TensorILi2ELi3EEESaIS2_EE19_M_get_Tp_allocatorEv = comdat any

$_ZNSt12_Vector_baseIN6dealii6TensorILi2ELi3EEESaIS2_EED2Ev = comdat any

$_ZSt8_DestroyIPN6dealii6TensorILi2ELi3EEEEvT_S4_ = comdat any

$_ZNSt12_Destroy_auxILb1EE9__destroyIPN6dealii6TensorILi2ELi3EEEEEvT_S6_ = comdat any

$_ZNSt12_Vector_baseIN6dealii6TensorILi2ELi3EEESaIS2_EE13_M_deallocateEPS2_m = comdat any

$_ZNSt12_Vector_baseIN6dealii6TensorILi2ELi3EEESaIS2_EE12_Vector_implD2Ev = comdat any

$_ZNSt16allocator_traitsISaIN6dealii6TensorILi2ELi3EEEEE10deallocateERS3_PS2_m = comdat any

$_ZN9__gnu_cxx13new_allocatorIN6dealii6TensorILi2ELi3EEEE10deallocateEPS3_m = comdat any

$_ZNSaIN6dealii6TensorILi2ELi3EEEED2Ev = comdat any

$_ZN9__gnu_cxx13new_allocatorIN6dealii6TensorILi2ELi3EEEED2Ev = comdat any

$_ZNSt6vectorIN6dealii6TensorILi1ELi3EEESaIS2_EE17_M_default_appendEm = comdat any

$_ZNSt6vectorIN6dealii6TensorILi1ELi3EEESaIS2_EE15_M_erase_at_endEPS2_ = comdat any

$_ZNKSt6vectorIN6dealii6TensorILi1ELi3EEESaIS2_EE8max_sizeEv = comdat any

$_ZSt27__uninitialized_default_n_aIPN6dealii6TensorILi1ELi3EEEmS2_ET_S4_T0_RSaIT1_E = comdat any

$_ZNKSt6vectorIN6dealii6TensorILi1ELi3EEESaIS2_EE12_M_check_lenEmPKc = comdat any

$_ZNSt12_Vector_baseIN6dealii6TensorILi1ELi3EEESaIS2_EE11_M_allocateEm = comdat any

$_ZSt34__uninitialized_move_if_noexcept_aIPN6dealii6TensorILi1ELi3EEES3_SaIS2_EET0_T_S6_S5_RT1_ = comdat any

$_ZNSt6vectorIN6dealii6TensorILi1ELi3EEESaIS2_EE11_S_max_sizeERKS3_ = comdat any

$_ZNKSt12_Vector_baseIN6dealii6TensorILi1ELi3EEESaIS2_EE19_M_get_Tp_allocatorEv = comdat any

$_ZNSt16allocator_traitsISaIN6dealii6TensorILi1ELi3EEEEE8max_sizeERKS3_ = comdat any

$_ZNK9__gnu_cxx13new_allocatorIN6dealii6TensorILi1ELi3EEEE8max_sizeEv = comdat any

$_ZNK9__gnu_cxx13new_allocatorIN6dealii6TensorILi1ELi3EEEE11_M_max_sizeEv = comdat any

$_ZSt25__uninitialized_default_nIPN6dealii6TensorILi1ELi3EEEmET_S4_T0_ = comdat any

$_ZNSt27__uninitialized_default_n_1ILb0EE18__uninit_default_nIPN6dealii6TensorILi1ELi3EEEmEET_S6_T0_ = comdat any

$_ZSt10_ConstructIN6dealii6TensorILi1ELi3EEEJEEvPT_DpOT0_ = comdat any

$_ZSt11__addressofIN6dealii6TensorILi1ELi3EEEEPT_RS3_ = comdat any

$_ZN6dealii6TensorILi1ELi3EEC2Eb = comdat any

$_ZNSt16allocator_traitsISaIN6dealii6TensorILi1ELi3EEEEE8allocateERS3_m = comdat any

$_ZN9__gnu_cxx13new_allocatorIN6dealii6TensorILi1ELi3EEEE8allocateEmPKv = comdat any

$_ZSt22__uninitialized_copy_aIPKN6dealii6TensorILi1ELi3EEEPS2_S2_ET0_T_S7_S6_RSaIT1_E = comdat any

$_ZSt32__make_move_if_noexcept_iteratorIN6dealii6TensorILi1ELi3EEEPKS2_ET0_PT_ = comdat any

$_ZSt18uninitialized_copyIPKN6dealii6TensorILi1ELi3EEEPS2_ET0_T_S7_S6_ = comdat any

$_ZNSt20__uninitialized_copyILb0EE13__uninit_copyIPKN6dealii6TensorILi1ELi3EEEPS4_EET0_T_S9_S8_ = comdat any

$_ZSt10_ConstructIN6dealii6TensorILi1ELi3EEEJRKS2_EEvPT_DpOT0_ = comdat any

$_ZSt7forwardIRKN6dealii6TensorILi1ELi3EEEEOT_RNSt16remove_referenceIS5_E4typeE = comdat any

$_ZN6dealii6TensorILi1ELi3EEC2ERKS1_ = comdat any

$_ZNSt6vectorIN6dealii6TensorILi2ELi3EEESaIS2_EE17_M_default_appendEm = comdat any

$_ZNSt6vectorIN6dealii6TensorILi2ELi3EEESaIS2_EE15_M_erase_at_endEPS2_ = comdat any

$_ZNKSt6vectorIN6dealii6TensorILi2ELi3EEESaIS2_EE8max_sizeEv = comdat any

$_ZSt27__uninitialized_default_n_aIPN6dealii6TensorILi2ELi3EEEmS2_ET_S4_T0_RSaIT1_E = comdat any

$_ZNKSt6vectorIN6dealii6TensorILi2ELi3EEESaIS2_EE12_M_check_lenEmPKc = comdat any

$_ZNSt12_Vector_baseIN6dealii6TensorILi2ELi3EEESaIS2_EE11_M_allocateEm = comdat any

$_ZSt34__uninitialized_move_if_noexcept_aIPN6dealii6TensorILi2ELi3EEES3_SaIS2_EET0_T_S6_S5_RT1_ = comdat any

$_ZNSt6vectorIN6dealii6TensorILi2ELi3EEESaIS2_EE11_S_max_sizeERKS3_ = comdat any

$_ZNKSt12_Vector_baseIN6dealii6TensorILi2ELi3EEESaIS2_EE19_M_get_Tp_allocatorEv = comdat any

$_ZNSt16allocator_traitsISaIN6dealii6TensorILi2ELi3EEEEE8max_sizeERKS3_ = comdat any

$_ZNK9__gnu_cxx13new_allocatorIN6dealii6TensorILi2ELi3EEEE8max_sizeEv = comdat any

$_ZNK9__gnu_cxx13new_allocatorIN6dealii6TensorILi2ELi3EEEE11_M_max_sizeEv = comdat any

$_ZSt25__uninitialized_default_nIPN6dealii6TensorILi2ELi3EEEmET_S4_T0_ = comdat any

$_ZNSt27__uninitialized_default_n_1ILb0EE18__uninit_default_nIPN6dealii6TensorILi2ELi3EEEmEET_S6_T0_ = comdat any

$_ZSt10_ConstructIN6dealii6TensorILi2ELi3EEEJEEvPT_DpOT0_ = comdat any

$_ZSt11__addressofIN6dealii6TensorILi2ELi3EEEEPT_RS3_ = comdat any

$_ZN6dealii6TensorILi2ELi3EEC2Ev = comdat any

$_ZNSt16allocator_traitsISaIN6dealii6TensorILi2ELi3EEEEE8allocateERS3_m = comdat any

$_ZN9__gnu_cxx13new_allocatorIN6dealii6TensorILi2ELi3EEEE8allocateEmPKv = comdat any

$_ZSt22__uninitialized_copy_aIPKN6dealii6TensorILi2ELi3EEEPS2_S2_ET0_T_S7_S6_RSaIT1_E = comdat any

$_ZSt32__make_move_if_noexcept_iteratorIN6dealii6TensorILi2ELi3EEEPKS2_ET0_PT_ = comdat any

$_ZSt18uninitialized_copyIPKN6dealii6TensorILi2ELi3EEEPS2_ET0_T_S7_S6_ = comdat any

$_ZNSt20__uninitialized_copyILb0EE13__uninit_copyIPKN6dealii6TensorILi2ELi3EEEPS4_EET0_T_S9_S8_ = comdat any

$_ZSt10_ConstructIN6dealii6TensorILi2ELi3EEEJRKS2_EEvPT_DpOT0_ = comdat any

$_ZSt7forwardIRKN6dealii6TensorILi2ELi3EEEEOT_RNSt16remove_referenceIS5_E4typeE = comdat any

$_ZN6dealii6TensorILi2ELi3EEC2ERKS1_ = comdat any

@_ZStL8__ioinit = internal global %"class.std::ios_base::Init" zeroinitializer, align 1, !dbg !0
@__dso_handle = external hidden global i8
@.str = private unnamed_addr constant [49 x i8] c"cannot create std::vector larger than max_size()\00", align 1
@.str.1 = private unnamed_addr constant [26 x i8] c"vector::_M_default_append\00", align 1
@llvm.global_ctors = appending global [1 x { i32, void ()*, i8* }] [{ i32, void ()*, i8* } { i32 65535, void ()* @_GLOBAL__sub_I_polynomials_abf.cc, i8* null }]

@_ZN6dealii14PolynomialsABFILi1EEC1Ej = weak_odr dso_local unnamed_addr alias void (%"class.dealii::PolynomialsABF"*, i32), void (%"class.dealii::PolynomialsABF"*, i32)* @_ZN6dealii14PolynomialsABFILi1EEC2Ej
@_ZN6dealii14PolynomialsABFILi1EED1Ev = weak_odr dso_local unnamed_addr alias void (%"class.dealii::PolynomialsABF"*), void (%"class.dealii::PolynomialsABF"*)* @_ZN6dealii14PolynomialsABFILi1EED2Ev
@_ZN6dealii14PolynomialsABFILi2EEC1Ej = weak_odr dso_local unnamed_addr alias void (%"class.dealii::PolynomialsABF.30"*, i32), void (%"class.dealii::PolynomialsABF.30"*, i32)* @_ZN6dealii14PolynomialsABFILi2EEC2Ej
@_ZN6dealii14PolynomialsABFILi2EED1Ev = weak_odr dso_local unnamed_addr alias void (%"class.dealii::PolynomialsABF.30"*), void (%"class.dealii::PolynomialsABF.30"*)* @_ZN6dealii14PolynomialsABFILi2EED2Ev
@_ZN6dealii14PolynomialsABFILi3EEC1Ej = weak_odr dso_local unnamed_addr alias void (%"class.dealii::PolynomialsABF.52"*, i32), void (%"class.dealii::PolynomialsABF.52"*, i32)* @_ZN6dealii14PolynomialsABFILi3EEC2Ej
@_ZN6dealii14PolynomialsABFILi3EED1Ev = weak_odr dso_local unnamed_addr alias void (%"class.dealii::PolynomialsABF.52"*), void (%"class.dealii::PolynomialsABF.52"*)* @_ZN6dealii14PolynomialsABFILi3EED2Ev

; Function Attrs: noinline uwtable
define internal void @__cxx_global_var_init() #0 section ".text.startup" !dbg !7423 {
entry:
  call void @_ZNSt8ios_base4InitC1Ev(%"class.std::ios_base::Init"* @_ZStL8__ioinit), !dbg !7424
  %0 = call i32 @__cxa_atexit(void (i8*)* bitcast (void (%"class.std::ios_base::Init"*)* @_ZNSt8ios_base4InitD1Ev to void (i8*)*), i8* getelementptr inbounds (%"class.std::ios_base::Init", %"class.std::ios_base::Init"* @_ZStL8__ioinit, i32 0, i32 0), i8* @__dso_handle) #3, !dbg !7424
  ret void, !dbg !7424
}

declare dso_local void @_ZNSt8ios_base4InitC1Ev(%"class.std::ios_base::Init"*) unnamed_addr #1

; Function Attrs: nounwind
declare dso_local void @_ZNSt8ios_base4InitD1Ev(%"class.std::ios_base::Init"*) unnamed_addr #2

; Function Attrs: nounwind
declare dso_local i32 @__cxa_atexit(void (i8*)*, i8*, i8*) #3

; Function Attrs: noinline uwtable
define weak_odr dso_local void @_ZN6dealii14PolynomialsABFILi1EEC2Ej(%"class.dealii::PolynomialsABF"* %this, i32 %k) unnamed_addr #0 comdat($_ZN6dealii14PolynomialsABFILi1EEC5Ej) align 2 personality i8* bitcast (i32 (...)* @__gxx_personality_v0 to i8*) !dbg !7425 {
entry:
  %this.addr = alloca %"class.dealii::PolynomialsABF"*, align 8
  %k.addr = alloca i32, align 4
  %pols = alloca %"class.std::vector", align 8
  %ref.tmp = alloca %"class.std::allocator", align 1
  %exn.slot = alloca i8*
  %ehselector.slot = alloca i32
  %ref.tmp2 = alloca %"class.std::vector.0", align 8
  %d = alloca i32, align 4
  %ref.tmp8 = alloca %"class.std::vector.0", align 8
  %d12 = alloca i32, align 4
  %ref.tmp16 = alloca %"class.std::vector.0", align 8
  store %"class.dealii::PolynomialsABF"* %this, %"class.dealii::PolynomialsABF"** %this.addr, align 8
  call void @llvm.dbg.declare(metadata %"class.dealii::PolynomialsABF"** %this.addr, metadata !7426, metadata !DIExpression()), !dbg !7428
  store i32 %k, i32* %k.addr, align 4
  call void @llvm.dbg.declare(metadata i32* %k.addr, metadata !7429, metadata !DIExpression()), !dbg !7430
  %this1 = load %"class.dealii::PolynomialsABF"*, %"class.dealii::PolynomialsABF"** %this.addr, align 8
  %my_degree = getelementptr inbounds %"class.dealii::PolynomialsABF", %"class.dealii::PolynomialsABF"* %this1, i32 0, i32 0, !dbg !7431
  %0 = load i32, i32* %k.addr, align 4, !dbg !7432
  store i32 %0, i32* %my_degree, align 8, !dbg !7431
  %n_pols = getelementptr inbounds %"class.dealii::PolynomialsABF", %"class.dealii::PolynomialsABF"* %this1, i32 0, i32 2, !dbg !7433
  %1 = load i32, i32* %k.addr, align 4, !dbg !7434
  %call = call i32 @_ZN6dealii14PolynomialsABFILi1EE14compute_n_polsEj(i32 %1), !dbg !7435
  store i32 %call, i32* %n_pols, align 8, !dbg !7433
  %p_values = getelementptr inbounds %"class.dealii::PolynomialsABF", %"class.dealii::PolynomialsABF"* %this1, i32 0, i32 3, !dbg !7436
  call void @_ZNSt6vectorIdSaIdEEC2Ev(%"class.std::vector.8"* %p_values) #3, !dbg !7436
  %p_grads = getelementptr inbounds %"class.dealii::PolynomialsABF", %"class.dealii::PolynomialsABF"* %this1, i32 0, i32 4, !dbg !7436
  call void @_ZNSt6vectorIN6dealii6TensorILi1ELi1EEESaIS2_EEC2Ev(%"class.std::vector.13"* %p_grads) #3, !dbg !7436
  %p_grad_grads = getelementptr inbounds %"class.dealii::PolynomialsABF", %"class.dealii::PolynomialsABF"* %this1, i32 0, i32 5, !dbg !7436
  call void @_ZNSt6vectorIN6dealii6TensorILi2ELi1EEESaIS2_EEC2Ev(%"class.std::vector.18"* %p_grad_grads) #3, !dbg !7436
  call void @llvm.dbg.declare(metadata %"class.std::vector"* %pols, metadata !7438, metadata !DIExpression()), !dbg !7441
  call void @_ZNSaISt6vectorIN6dealii11Polynomials10PolynomialIdEESaIS3_EEEC2Ev(%"class.std::allocator"* %ref.tmp) #3, !dbg !7441
  invoke void @_ZNSt6vectorIS_IN6dealii11Polynomials10PolynomialIdEESaIS3_EESaIS5_EEC2EmRKS6_(%"class.std::vector"* %pols, i64 1, %"class.std::allocator"* dereferenceable(1) %ref.tmp)
          to label %invoke.cont unwind label %lpad, !dbg !7441

invoke.cont:                                      ; preds = %entry
  call void @_ZNSaISt6vectorIN6dealii11Polynomials10PolynomialIdEESaIS3_EEED2Ev(%"class.std::allocator"* %ref.tmp) #3, !dbg !7441
  %2 = load i32, i32* %k.addr, align 4, !dbg !7442
  %add = add i32 %2, 2, !dbg !7443
  invoke void @_ZN6dealii11Polynomials19LagrangeEquidistant23generate_complete_basisEj(%"class.std::vector.0"* sret %ref.tmp2, i32 %add)
          to label %invoke.cont4 unwind label %lpad3, !dbg !7444

invoke.cont4:                                     ; preds = %invoke.cont
  %call5 = call dereferenceable(24) %"class.std::vector.0"* @_ZNSt6vectorIS_IN6dealii11Polynomials10PolynomialIdEESaIS3_EESaIS5_EEixEm(%"class.std::vector"* %pols, i64 0) #3, !dbg !7445
  %call6 = call dereferenceable(24) %"class.std::vector.0"* @_ZNSt6vectorIN6dealii11Polynomials10PolynomialIdEESaIS3_EEaSEOS5_(%"class.std::vector.0"* %call5, %"class.std::vector.0"* dereferenceable(24) %ref.tmp2) #3, !dbg !7446
  call void @_ZNSt6vectorIN6dealii11Polynomials10PolynomialIdEESaIS3_EED2Ev(%"class.std::vector.0"* %ref.tmp2) #3, !dbg !7445
  %3 = load i32, i32* %k.addr, align 4, !dbg !7447
  %cmp = icmp eq i32 %3, 0, !dbg !7449
  br i1 %cmp, label %if.then, label %if.else, !dbg !7450

if.then:                                          ; preds = %invoke.cont4
  call void @llvm.dbg.declare(metadata i32* %d, metadata !7451, metadata !DIExpression()), !dbg !7453
  store i32 1, i32* %d, align 4, !dbg !7453
  br label %for.cond, !dbg !7454

for.cond:                                         ; preds = %for.inc, %if.then
  %4 = load i32, i32* %d, align 4, !dbg !7455
  %cmp7 = icmp ult i32 %4, 1, !dbg !7457
  br i1 %cmp7, label %for.body, label %for.end, !dbg !7458

for.body:                                         ; preds = %for.cond
  invoke void @_ZN6dealii11Polynomials8Legendre23generate_complete_basisEj(%"class.std::vector.0"* sret %ref.tmp8, i32 0)
          to label %invoke.cont9 unwind label %lpad3, !dbg !7459

invoke.cont9:                                     ; preds = %for.body
  %5 = load i32, i32* %d, align 4, !dbg !7460
  %conv = zext i32 %5 to i64, !dbg !7460
  %call10 = call dereferenceable(24) %"class.std::vector.0"* @_ZNSt6vectorIS_IN6dealii11Polynomials10PolynomialIdEESaIS3_EESaIS5_EEixEm(%"class.std::vector"* %pols, i64 %conv) #3, !dbg !7461
  %call11 = call dereferenceable(24) %"class.std::vector.0"* @_ZNSt6vectorIN6dealii11Polynomials10PolynomialIdEESaIS3_EEaSEOS5_(%"class.std::vector.0"* %call10, %"class.std::vector.0"* dereferenceable(24) %ref.tmp8) #3, !dbg !7462
  call void @_ZNSt6vectorIN6dealii11Polynomials10PolynomialIdEESaIS3_EED2Ev(%"class.std::vector.0"* %ref.tmp8) #3, !dbg !7461
  br label %for.inc, !dbg !7461

for.inc:                                          ; preds = %invoke.cont9
  %6 = load i32, i32* %d, align 4, !dbg !7463
  %inc = add i32 %6, 1, !dbg !7463
  store i32 %inc, i32* %d, align 4, !dbg !7463
  br label %for.cond, !dbg !7464, !llvm.loop !7465

lpad:                                             ; preds = %entry
  %7 = landingpad { i8*, i32 }
          cleanup, !dbg !7467
  %8 = extractvalue { i8*, i32 } %7, 0, !dbg !7467
  store i8* %8, i8** %exn.slot, align 8, !dbg !7467
  %9 = extractvalue { i8*, i32 } %7, 1, !dbg !7467
  store i32 %9, i32* %ehselector.slot, align 4, !dbg !7467
  call void @_ZNSaISt6vectorIN6dealii11Polynomials10PolynomialIdEESaIS3_EEED2Ev(%"class.std::allocator"* %ref.tmp) #3, !dbg !7441
  br label %ehcleanup28, !dbg !7441

lpad3:                                            ; preds = %if.end, %for.body15, %for.body, %invoke.cont
  %10 = landingpad { i8*, i32 }
          cleanup, !dbg !7467
  %11 = extractvalue { i8*, i32 } %10, 0, !dbg !7467
  store i8* %11, i8** %exn.slot, align 8, !dbg !7467
  %12 = extractvalue { i8*, i32 } %10, 1, !dbg !7467
  store i32 %12, i32* %ehselector.slot, align 4, !dbg !7467
  br label %ehcleanup, !dbg !7467

for.end:                                          ; preds = %for.cond
  br label %if.end, !dbg !7466

if.else:                                          ; preds = %invoke.cont4
  call void @llvm.dbg.declare(metadata i32* %d12, metadata !7468, metadata !DIExpression()), !dbg !7470
  store i32 1, i32* %d12, align 4, !dbg !7470
  br label %for.cond13, !dbg !7471

for.cond13:                                       ; preds = %for.inc21, %if.else
  %13 = load i32, i32* %d12, align 4, !dbg !7472
  %cmp14 = icmp ult i32 %13, 1, !dbg !7474
  br i1 %cmp14, label %for.body15, label %for.end23, !dbg !7475

for.body15:                                       ; preds = %for.cond13
  %14 = load i32, i32* %k.addr, align 4, !dbg !7476
  invoke void @_ZN6dealii11Polynomials19LagrangeEquidistant23generate_complete_basisEj(%"class.std::vector.0"* sret %ref.tmp16, i32 %14)
          to label %invoke.cont17 unwind label %lpad3, !dbg !7477

invoke.cont17:                                    ; preds = %for.body15
  %15 = load i32, i32* %d12, align 4, !dbg !7478
  %conv18 = zext i32 %15 to i64, !dbg !7478
  %call19 = call dereferenceable(24) %"class.std::vector.0"* @_ZNSt6vectorIS_IN6dealii11Polynomials10PolynomialIdEESaIS3_EESaIS5_EEixEm(%"class.std::vector"* %pols, i64 %conv18) #3, !dbg !7479
  %call20 = call dereferenceable(24) %"class.std::vector.0"* @_ZNSt6vectorIN6dealii11Polynomials10PolynomialIdEESaIS3_EEaSEOS5_(%"class.std::vector.0"* %call19, %"class.std::vector.0"* dereferenceable(24) %ref.tmp16) #3, !dbg !7480
  call void @_ZNSt6vectorIN6dealii11Polynomials10PolynomialIdEESaIS3_EED2Ev(%"class.std::vector.0"* %ref.tmp16) #3, !dbg !7479
  br label %for.inc21, !dbg !7479

for.inc21:                                        ; preds = %invoke.cont17
  %16 = load i32, i32* %d12, align 4, !dbg !7481
  %inc22 = add i32 %16, 1, !dbg !7481
  store i32 %inc22, i32* %d12, align 4, !dbg !7481
  br label %for.cond13, !dbg !7482, !llvm.loop !7483

for.end23:                                        ; preds = %for.cond13
  br label %if.end

if.end:                                           ; preds = %for.end23, %for.end
  %call25 = invoke i8* @_Znwm(i64 32) #12
          to label %invoke.cont24 unwind label %lpad3, !dbg !7485

invoke.cont24:                                    ; preds = %if.end
  %17 = bitcast i8* %call25 to %"class.dealii::AnisotropicPolynomials"*, !dbg !7485
  invoke void @_ZN6dealii22AnisotropicPolynomialsILi1EEC1ERKSt6vectorIS2_INS_11Polynomials10PolynomialIdEESaIS5_EESaIS7_EE(%"class.dealii::AnisotropicPolynomials"* %17, %"class.std::vector"* dereferenceable(24) %pols)
          to label %invoke.cont27 unwind label %lpad26, !dbg !7486

invoke.cont27:                                    ; preds = %invoke.cont24
  %polynomial_space = getelementptr inbounds %"class.dealii::PolynomialsABF", %"class.dealii::PolynomialsABF"* %this1, i32 0, i32 1, !dbg !7487
  store %"class.dealii::AnisotropicPolynomials"* %17, %"class.dealii::AnisotropicPolynomials"** %polynomial_space, align 8, !dbg !7488
  call void @_ZNSt6vectorIS_IN6dealii11Polynomials10PolynomialIdEESaIS3_EESaIS5_EED2Ev(%"class.std::vector"* %pols) #3, !dbg !7489
  ret void, !dbg !7489

lpad26:                                           ; preds = %invoke.cont24
  %18 = landingpad { i8*, i32 }
          cleanup, !dbg !7467
  %19 = extractvalue { i8*, i32 } %18, 0, !dbg !7467
  store i8* %19, i8** %exn.slot, align 8, !dbg !7467
  %20 = extractvalue { i8*, i32 } %18, 1, !dbg !7467
  store i32 %20, i32* %ehselector.slot, align 4, !dbg !7467
  call void @_ZdlPv(i8* %call25) #13, !dbg !7485
  br label %ehcleanup, !dbg !7485

ehcleanup:                                        ; preds = %lpad26, %lpad3
  call void @_ZNSt6vectorIS_IN6dealii11Polynomials10PolynomialIdEESaIS3_EESaIS5_EED2Ev(%"class.std::vector"* %pols) #3, !dbg !7489
  br label %ehcleanup28, !dbg !7489

ehcleanup28:                                      ; preds = %ehcleanup, %lpad
  call void @_ZNSt6vectorIN6dealii6TensorILi2ELi1EEESaIS2_EED2Ev(%"class.std::vector.18"* %p_grad_grads) #3, !dbg !7467
  call void @_ZNSt6vectorIN6dealii6TensorILi1ELi1EEESaIS2_EED2Ev(%"class.std::vector.13"* %p_grads) #3, !dbg !7467
  call void @_ZNSt6vectorIdSaIdEED2Ev(%"class.std::vector.8"* %p_values) #3, !dbg !7467
  br label %eh.resume, !dbg !7467

eh.resume:                                        ; preds = %ehcleanup28
  %exn = load i8*, i8** %exn.slot, align 8, !dbg !7467
  %sel = load i32, i32* %ehselector.slot, align 4, !dbg !7467
  %lpad.val = insertvalue { i8*, i32 } undef, i8* %exn, 0, !dbg !7467
  %lpad.val31 = insertvalue { i8*, i32 } %lpad.val, i32 %sel, 1, !dbg !7467
  resume { i8*, i32 } %lpad.val31, !dbg !7467
}

; Function Attrs: nounwind readnone speculatable willreturn
declare void @llvm.dbg.declare(metadata, metadata, metadata) #4

; Function Attrs: noinline nounwind uwtable
define weak_odr dso_local i32 @_ZN6dealii14PolynomialsABFILi1EE14compute_n_polsEj(i32 %k) #5 comdat align 2 !dbg !7490 {
entry:
  %k.addr = alloca i32, align 4
  store i32 %k, i32* %k.addr, align 4
  call void @llvm.dbg.declare(metadata i32* %k.addr, metadata !7491, metadata !DIExpression()), !dbg !7492
  %0 = load i32, i32* %k.addr, align 4, !dbg !7493
  %add = add i32 %0, 1, !dbg !7495
  ret i32 %add, !dbg !7496
}

; Function Attrs: noinline nounwind uwtable
define linkonce_odr dso_local void @_ZNSt6vectorIdSaIdEEC2Ev(%"class.std::vector.8"* %this) unnamed_addr #5 comdat align 2 !dbg !7497 {
entry:
  %this.addr = alloca %"class.std::vector.8"*, align 8
  store %"class.std::vector.8"* %this, %"class.std::vector.8"** %this.addr, align 8
  call void @llvm.dbg.declare(metadata %"class.std::vector.8"** %this.addr, metadata !7498, metadata !DIExpression()), !dbg !7500
  %this1 = load %"class.std::vector.8"*, %"class.std::vector.8"** %this.addr, align 8
  %0 = bitcast %"class.std::vector.8"* %this1 to %"struct.std::_Vector_base.9"*, !dbg !7501
  call void @_ZNSt12_Vector_baseIdSaIdEEC2Ev(%"struct.std::_Vector_base.9"* %0) #3, !dbg !7502
  ret void, !dbg !7501
}

; Function Attrs: noinline nounwind uwtable
define linkonce_odr dso_local void @_ZNSt6vectorIN6dealii6TensorILi1ELi1EEESaIS2_EEC2Ev(%"class.std::vector.13"* %this) unnamed_addr #5 comdat align 2 !dbg !7503 {
entry:
  %this.addr = alloca %"class.std::vector.13"*, align 8
  store %"class.std::vector.13"* %this, %"class.std::vector.13"** %this.addr, align 8
  call void @llvm.dbg.declare(metadata %"class.std::vector.13"** %this.addr, metadata !7504, metadata !DIExpression()), !dbg !7506
  %this1 = load %"class.std::vector.13"*, %"class.std::vector.13"** %this.addr, align 8
  %0 = bitcast %"class.std::vector.13"* %this1 to %"struct.std::_Vector_base.14"*, !dbg !7507
  call void @_ZNSt12_Vector_baseIN6dealii6TensorILi1ELi1EEESaIS2_EEC2Ev(%"struct.std::_Vector_base.14"* %0) #3, !dbg !7508
  ret void, !dbg !7507
}

; Function Attrs: noinline nounwind uwtable
define linkonce_odr dso_local void @_ZNSt6vectorIN6dealii6TensorILi2ELi1EEESaIS2_EEC2Ev(%"class.std::vector.18"* %this) unnamed_addr #5 comdat align 2 !dbg !7509 {
entry:
  %this.addr = alloca %"class.std::vector.18"*, align 8
  store %"class.std::vector.18"* %this, %"class.std::vector.18"** %this.addr, align 8
  call void @llvm.dbg.declare(metadata %"class.std::vector.18"** %this.addr, metadata !7510, metadata !DIExpression()), !dbg !7512
  %this1 = load %"class.std::vector.18"*, %"class.std::vector.18"** %this.addr, align 8
  %0 = bitcast %"class.std::vector.18"* %this1 to %"struct.std::_Vector_base.19"*, !dbg !7513
  call void @_ZNSt12_Vector_baseIN6dealii6TensorILi2ELi1EEESaIS2_EEC2Ev(%"struct.std::_Vector_base.19"* %0) #3, !dbg !7514
  ret void, !dbg !7513
}

; Function Attrs: noinline nounwind uwtable
define linkonce_odr dso_local void @_ZNSaISt6vectorIN6dealii11Polynomials10PolynomialIdEESaIS3_EEEC2Ev(%"class.std::allocator"* %this) unnamed_addr #5 comdat align 2 !dbg !7515 {
entry:
  %this.addr = alloca %"class.std::allocator"*, align 8
  store %"class.std::allocator"* %this, %"class.std::allocator"** %this.addr, align 8
  call void @llvm.dbg.declare(metadata %"class.std::allocator"** %this.addr, metadata !7516, metadata !DIExpression()), !dbg !7518
  %this1 = load %"class.std::allocator"*, %"class.std::allocator"** %this.addr, align 8
  %0 = bitcast %"class.std::allocator"* %this1 to %"class.__gnu_cxx::new_allocator"*, !dbg !7519
  call void @_ZN9__gnu_cxx13new_allocatorISt6vectorIN6dealii11Polynomials10PolynomialIdEESaIS5_EEEC2Ev(%"class.__gnu_cxx::new_allocator"* %0) #3, !dbg !7520
  ret void, !dbg !7521
}

; Function Attrs: noinline uwtable
define linkonce_odr dso_local void @_ZNSt6vectorIS_IN6dealii11Polynomials10PolynomialIdEESaIS3_EESaIS5_EEC2EmRKS6_(%"class.std::vector"* %this, i64 %__n, %"class.std::allocator"* dereferenceable(1) %__a) unnamed_addr #0 comdat align 2 personality i8* bitcast (i32 (...)* @__gxx_personality_v0 to i8*) !dbg !7522 {
entry:
  %this.addr = alloca %"class.std::vector"*, align 8
  %__n.addr = alloca i64, align 8
  %__a.addr = alloca %"class.std::allocator"*, align 8
  %exn.slot = alloca i8*
  %ehselector.slot = alloca i32
  store %"class.std::vector"* %this, %"class.std::vector"** %this.addr, align 8
  call void @llvm.dbg.declare(metadata %"class.std::vector"** %this.addr, metadata !7523, metadata !DIExpression()), !dbg !7525
  store i64 %__n, i64* %__n.addr, align 8
  call void @llvm.dbg.declare(metadata i64* %__n.addr, metadata !7526, metadata !DIExpression()), !dbg !7527
  store %"class.std::allocator"* %__a, %"class.std::allocator"** %__a.addr, align 8
  call void @llvm.dbg.declare(metadata %"class.std::allocator"** %__a.addr, metadata !7528, metadata !DIExpression()), !dbg !7529
  %this1 = load %"class.std::vector"*, %"class.std::vector"** %this.addr, align 8
  %0 = bitcast %"class.std::vector"* %this1 to %"struct.std::_Vector_base"*, !dbg !7530
  %1 = load i64, i64* %__n.addr, align 8, !dbg !7531
  %2 = load %"class.std::allocator"*, %"class.std::allocator"** %__a.addr, align 8, !dbg !7532
  %call = call i64 @_ZNSt6vectorIS_IN6dealii11Polynomials10PolynomialIdEESaIS3_EESaIS5_EE17_S_check_init_lenEmRKS6_(i64 %1, %"class.std::allocator"* dereferenceable(1) %2), !dbg !7533
  %3 = load %"class.std::allocator"*, %"class.std::allocator"** %__a.addr, align 8, !dbg !7534
  call void @_ZNSt12_Vector_baseISt6vectorIN6dealii11Polynomials10PolynomialIdEESaIS4_EESaIS6_EEC2EmRKS7_(%"struct.std::_Vector_base"* %0, i64 %call, %"class.std::allocator"* dereferenceable(1) %3), !dbg !7535
  %4 = load i64, i64* %__n.addr, align 8, !dbg !7536
  invoke void @_ZNSt6vectorIS_IN6dealii11Polynomials10PolynomialIdEESaIS3_EESaIS5_EE21_M_default_initializeEm(%"class.std::vector"* %this1, i64 %4)
          to label %invoke.cont unwind label %lpad, !dbg !7538

invoke.cont:                                      ; preds = %entry
  ret void, !dbg !7539

lpad:                                             ; preds = %entry
  %5 = landingpad { i8*, i32 }
          cleanup, !dbg !7540
  %6 = extractvalue { i8*, i32 } %5, 0, !dbg !7540
  store i8* %6, i8** %exn.slot, align 8, !dbg !7540
  %7 = extractvalue { i8*, i32 } %5, 1, !dbg !7540
  store i32 %7, i32* %ehselector.slot, align 4, !dbg !7540
  %8 = bitcast %"class.std::vector"* %this1 to %"struct.std::_Vector_base"*, !dbg !7540
  call void @_ZNSt12_Vector_baseISt6vectorIN6dealii11Polynomials10PolynomialIdEESaIS4_EESaIS6_EED2Ev(%"struct.std::_Vector_base"* %8) #3, !dbg !7540
  br label %eh.resume, !dbg !7540

eh.resume:                                        ; preds = %lpad
  %exn = load i8*, i8** %exn.slot, align 8, !dbg !7540
  %sel = load i32, i32* %ehselector.slot, align 4, !dbg !7540
  %lpad.val = insertvalue { i8*, i32 } undef, i8* %exn, 0, !dbg !7540
  %lpad.val2 = insertvalue { i8*, i32 } %lpad.val, i32 %sel, 1, !dbg !7540
  resume { i8*, i32 } %lpad.val2, !dbg !7540
}

declare dso_local i32 @__gxx_personality_v0(...)

; Function Attrs: noinline nounwind uwtable
define linkonce_odr dso_local void @_ZNSaISt6vectorIN6dealii11Polynomials10PolynomialIdEESaIS3_EEED2Ev(%"class.std::allocator"* %this) unnamed_addr #5 comdat align 2 !dbg !7541 {
entry:
  %this.addr = alloca %"class.std::allocator"*, align 8
  store %"class.std::allocator"* %this, %"class.std::allocator"** %this.addr, align 8
  call void @llvm.dbg.declare(metadata %"class.std::allocator"** %this.addr, metadata !7542, metadata !DIExpression()), !dbg !7543
  %this1 = load %"class.std::allocator"*, %"class.std::allocator"** %this.addr, align 8
  %0 = bitcast %"class.std::allocator"* %this1 to %"class.__gnu_cxx::new_allocator"*, !dbg !7544
  call void @_ZN9__gnu_cxx13new_allocatorISt6vectorIN6dealii11Polynomials10PolynomialIdEESaIS5_EEED2Ev(%"class.__gnu_cxx::new_allocator"* %0) #3, !dbg !7544
  ret void, !dbg !7546
}

declare dso_local void @_ZN6dealii11Polynomials19LagrangeEquidistant23generate_complete_basisEj(%"class.std::vector.0"* sret, i32) #1

; Function Attrs: noinline nounwind uwtable
define linkonce_odr dso_local dereferenceable(24) %"class.std::vector.0"* @_ZNSt6vectorIS_IN6dealii11Polynomials10PolynomialIdEESaIS3_EESaIS5_EEixEm(%"class.std::vector"* %this, i64 %__n) #5 comdat align 2 !dbg !7547 {
entry:
  %this.addr = alloca %"class.std::vector"*, align 8
  %__n.addr = alloca i64, align 8
  store %"class.std::vector"* %this, %"class.std::vector"** %this.addr, align 8
  call void @llvm.dbg.declare(metadata %"class.std::vector"** %this.addr, metadata !7548, metadata !DIExpression()), !dbg !7549
  store i64 %__n, i64* %__n.addr, align 8
  call void @llvm.dbg.declare(metadata i64* %__n.addr, metadata !7550, metadata !DIExpression()), !dbg !7551
  %this1 = load %"class.std::vector"*, %"class.std::vector"** %this.addr, align 8
  %0 = bitcast %"class.std::vector"* %this1 to %"struct.std::_Vector_base"*, !dbg !7552
  %_M_impl = getelementptr inbounds %"struct.std::_Vector_base", %"struct.std::_Vector_base"* %0, i32 0, i32 0, !dbg !7552
  %1 = bitcast %"struct.std::_Vector_base<std::vector<dealii::Polynomials::Polynomial<double>, std::allocator<dealii::Polynomials::Polynomial<double> > >, std::allocator<std::vector<dealii::Polynomials::Polynomial<double>, std::allocator<dealii::Polynomials::Polynomial<double> > > > >::_Vector_impl"* %_M_impl to %"struct.std::_Vector_base<std::vector<dealii::Polynomials::Polynomial<double>, std::allocator<dealii::Polynomials::Polynomial<double> > >, std::allocator<std::vector<dealii::Polynomials::Polynomial<double>, std::allocator<dealii::Polynomials::Polynomial<double> > > > >::_Vector_impl_data"*, !dbg !7553
  %_M_start = getelementptr inbounds %"struct.std::_Vector_base<std::vector<dealii::Polynomials::Polynomial<double>, std::allocator<dealii::Polynomials::Polynomial<double> > >, std::allocator<std::vector<dealii::Polynomials::Polynomial<double>, std::allocator<dealii::Polynomials::Polynomial<double> > > > >::_Vector_impl_data", %"struct.std::_Vector_base<std::vector<dealii::Polynomials::Polynomial<double>, std::allocator<dealii::Polynomials::Polynomial<double> > >, std::allocator<std::vector<dealii::Polynomials::Polynomial<double>, std::allocator<dealii::Polynomials::Polynomial<double> > > > >::_Vector_impl_data"* %1, i32 0, i32 0, !dbg !7554
  %2 = load %"class.std::vector.0"*, %"class.std::vector.0"** %_M_start, align 8, !dbg !7554
  %3 = load i64, i64* %__n.addr, align 8, !dbg !7555
  %add.ptr = getelementptr inbounds %"class.std::vector.0", %"class.std::vector.0"* %2, i64 %3, !dbg !7556
  ret %"class.std::vector.0"* %add.ptr, !dbg !7557
}

; Function Attrs: noinline nounwind uwtable
define linkonce_odr dso_local dereferenceable(24) %"class.std::vector.0"* @_ZNSt6vectorIN6dealii11Polynomials10PolynomialIdEESaIS3_EEaSEOS5_(%"class.std::vector.0"* %this, %"class.std::vector.0"* dereferenceable(24) %__x) #5 comdat align 2 !dbg !7558 {
entry:
  %this.addr = alloca %"class.std::vector.0"*, align 8
  %__x.addr = alloca %"class.std::vector.0"*, align 8
  %__move_storage = alloca i8, align 1
  %agg.tmp = alloca %"struct.std::integral_constant", align 1
  store %"class.std::vector.0"* %this, %"class.std::vector.0"** %this.addr, align 8
  call void @llvm.dbg.declare(metadata %"class.std::vector.0"** %this.addr, metadata !7559, metadata !DIExpression()), !dbg !7560
  store %"class.std::vector.0"* %__x, %"class.std::vector.0"** %__x.addr, align 8
  call void @llvm.dbg.declare(metadata %"class.std::vector.0"** %__x.addr, metadata !7561, metadata !DIExpression()), !dbg !7562
  %this1 = load %"class.std::vector.0"*, %"class.std::vector.0"** %this.addr, align 8
  call void @llvm.dbg.declare(metadata i8* %__move_storage, metadata !7563, metadata !DIExpression()), !dbg !7564
  store i8 1, i8* %__move_storage, align 1, !dbg !7564
  %0 = load %"class.std::vector.0"*, %"class.std::vector.0"** %__x.addr, align 8, !dbg !7565
  %call = call dereferenceable(24) %"class.std::vector.0"* @_ZSt4moveIRSt6vectorIN6dealii11Polynomials10PolynomialIdEESaIS4_EEEONSt16remove_referenceIT_E4typeEOS9_(%"class.std::vector.0"* dereferenceable(24) %0) #3, !dbg !7566
  call void @_ZNSt6vectorIN6dealii11Polynomials10PolynomialIdEESaIS3_EE14_M_move_assignEOS5_St17integral_constantIbLb1EE(%"class.std::vector.0"* %this1, %"class.std::vector.0"* dereferenceable(24) %call) #3, !dbg !7567
  ret %"class.std::vector.0"* %this1, !dbg !7568
}

; Function Attrs: noinline nounwind uwtable
define linkonce_odr dso_local void @_ZNSt6vectorIN6dealii11Polynomials10PolynomialIdEESaIS3_EED2Ev(%"class.std::vector.0"* %this) unnamed_addr #5 comdat align 2 personality i8* bitcast (i32 (...)* @__gxx_personality_v0 to i8*) !dbg !7569 {
entry:
  %this.addr = alloca %"class.std::vector.0"*, align 8
  %exn.slot = alloca i8*
  %ehselector.slot = alloca i32
  store %"class.std::vector.0"* %this, %"class.std::vector.0"** %this.addr, align 8
  call void @llvm.dbg.declare(metadata %"class.std::vector.0"** %this.addr, metadata !7570, metadata !DIExpression()), !dbg !7571
  %this1 = load %"class.std::vector.0"*, %"class.std::vector.0"** %this.addr, align 8
  %0 = bitcast %"class.std::vector.0"* %this1 to %"struct.std::_Vector_base.1"*, !dbg !7572
  %_M_impl = getelementptr inbounds %"struct.std::_Vector_base.1", %"struct.std::_Vector_base.1"* %0, i32 0, i32 0, !dbg !7572
  %1 = bitcast %"struct.std::_Vector_base<dealii::Polynomials::Polynomial<double>, std::allocator<dealii::Polynomials::Polynomial<double> > >::_Vector_impl"* %_M_impl to %"struct.std::_Vector_base<dealii::Polynomials::Polynomial<double>, std::allocator<dealii::Polynomials::Polynomial<double> > >::_Vector_impl_data"*, !dbg !7574
  %_M_start = getelementptr inbounds %"struct.std::_Vector_base<dealii::Polynomials::Polynomial<double>, std::allocator<dealii::Polynomials::Polynomial<double> > >::_Vector_impl_data", %"struct.std::_Vector_base<dealii::Polynomials::Polynomial<double>, std::allocator<dealii::Polynomials::Polynomial<double> > >::_Vector_impl_data"* %1, i32 0, i32 0, !dbg !7575
  %2 = load %"class.dealii::Polynomials::Polynomial"*, %"class.dealii::Polynomials::Polynomial"** %_M_start, align 8, !dbg !7575
  %3 = bitcast %"class.std::vector.0"* %this1 to %"struct.std::_Vector_base.1"*, !dbg !7576
  %_M_impl2 = getelementptr inbounds %"struct.std::_Vector_base.1", %"struct.std::_Vector_base.1"* %3, i32 0, i32 0, !dbg !7576
  %4 = bitcast %"struct.std::_Vector_base<dealii::Polynomials::Polynomial<double>, std::allocator<dealii::Polynomials::Polynomial<double> > >::_Vector_impl"* %_M_impl2 to %"struct.std::_Vector_base<dealii::Polynomials::Polynomial<double>, std::allocator<dealii::Polynomials::Polynomial<double> > >::_Vector_impl_data"*, !dbg !7577
  %_M_finish = getelementptr inbounds %"struct.std::_Vector_base<dealii::Polynomials::Polynomial<double>, std::allocator<dealii::Polynomials::Polynomial<double> > >::_Vector_impl_data", %"struct.std::_Vector_base<dealii::Polynomials::Polynomial<double>, std::allocator<dealii::Polynomials::Polynomial<double> > >::_Vector_impl_data"* %4, i32 0, i32 1, !dbg !7578
  %5 = load %"class.dealii::Polynomials::Polynomial"*, %"class.dealii::Polynomials::Polynomial"** %_M_finish, align 8, !dbg !7578
  %6 = bitcast %"class.std::vector.0"* %this1 to %"struct.std::_Vector_base.1"*, !dbg !7579
  %call = call dereferenceable(1) %"class.std::allocator.2"* @_ZNSt12_Vector_baseIN6dealii11Polynomials10PolynomialIdEESaIS3_EE19_M_get_Tp_allocatorEv(%"struct.std::_Vector_base.1"* %6) #3, !dbg !7579
  invoke void @_ZSt8_DestroyIPN6dealii11Polynomials10PolynomialIdEES3_EvT_S5_RSaIT0_E(%"class.dealii::Polynomials::Polynomial"* %2, %"class.dealii::Polynomials::Polynomial"* %5, %"class.std::allocator.2"* dereferenceable(1) %call)
          to label %invoke.cont unwind label %lpad, !dbg !7580

invoke.cont:                                      ; preds = %entry
  %7 = bitcast %"class.std::vector.0"* %this1 to %"struct.std::_Vector_base.1"*, !dbg !7581
  call void @_ZNSt12_Vector_baseIN6dealii11Polynomials10PolynomialIdEESaIS3_EED2Ev(%"struct.std::_Vector_base.1"* %7) #3, !dbg !7581
  ret void, !dbg !7582

lpad:                                             ; preds = %entry
  %8 = landingpad { i8*, i32 }
          catch i8* null, !dbg !7581
  %9 = extractvalue { i8*, i32 } %8, 0, !dbg !7581
  store i8* %9, i8** %exn.slot, align 8, !dbg !7581
  %10 = extractvalue { i8*, i32 } %8, 1, !dbg !7581
  store i32 %10, i32* %ehselector.slot, align 4, !dbg !7581
  %11 = bitcast %"class.std::vector.0"* %this1 to %"struct.std::_Vector_base.1"*, !dbg !7581
  call void @_ZNSt12_Vector_baseIN6dealii11Polynomials10PolynomialIdEESaIS3_EED2Ev(%"struct.std::_Vector_base.1"* %11) #3, !dbg !7581
  br label %terminate.handler, !dbg !7581

terminate.handler:                                ; preds = %lpad
  %exn = load i8*, i8** %exn.slot, align 8, !dbg !7581
  call void @__clang_call_terminate(i8* %exn) #14, !dbg !7581
  unreachable, !dbg !7581
}

declare dso_local void @_ZN6dealii11Polynomials8Legendre23generate_complete_basisEj(%"class.std::vector.0"* sret, i32) #1

; Function Attrs: nobuiltin
declare dso_local noalias i8* @_Znwm(i64) #6

declare dso_local void @_ZN6dealii22AnisotropicPolynomialsILi1EEC1ERKSt6vectorIS2_INS_11Polynomials10PolynomialIdEESaIS5_EESaIS7_EE(%"class.dealii::AnisotropicPolynomials"*, %"class.std::vector"* dereferenceable(24)) unnamed_addr #1

; Function Attrs: nobuiltin nounwind
declare dso_local void @_ZdlPv(i8*) #7

; Function Attrs: noinline nounwind uwtable
define linkonce_odr dso_local void @_ZNSt6vectorIS_IN6dealii11Polynomials10PolynomialIdEESaIS3_EESaIS5_EED2Ev(%"class.std::vector"* %this) unnamed_addr #5 comdat align 2 personality i8* bitcast (i32 (...)* @__gxx_personality_v0 to i8*) !dbg !7583 {
entry:
  %this.addr = alloca %"class.std::vector"*, align 8
  %exn.slot = alloca i8*
  %ehselector.slot = alloca i32
  store %"class.std::vector"* %this, %"class.std::vector"** %this.addr, align 8
  call void @llvm.dbg.declare(metadata %"class.std::vector"** %this.addr, metadata !7584, metadata !DIExpression()), !dbg !7585
  %this1 = load %"class.std::vector"*, %"class.std::vector"** %this.addr, align 8
  %0 = bitcast %"class.std::vector"* %this1 to %"struct.std::_Vector_base"*, !dbg !7586
  %_M_impl = getelementptr inbounds %"struct.std::_Vector_base", %"struct.std::_Vector_base"* %0, i32 0, i32 0, !dbg !7586
  %1 = bitcast %"struct.std::_Vector_base<std::vector<dealii::Polynomials::Polynomial<double>, std::allocator<dealii::Polynomials::Polynomial<double> > >, std::allocator<std::vector<dealii::Polynomials::Polynomial<double>, std::allocator<dealii::Polynomials::Polynomial<double> > > > >::_Vector_impl"* %_M_impl to %"struct.std::_Vector_base<std::vector<dealii::Polynomials::Polynomial<double>, std::allocator<dealii::Polynomials::Polynomial<double> > >, std::allocator<std::vector<dealii::Polynomials::Polynomial<double>, std::allocator<dealii::Polynomials::Polynomial<double> > > > >::_Vector_impl_data"*, !dbg !7588
  %_M_start = getelementptr inbounds %"struct.std::_Vector_base<std::vector<dealii::Polynomials::Polynomial<double>, std::allocator<dealii::Polynomials::Polynomial<double> > >, std::allocator<std::vector<dealii::Polynomials::Polynomial<double>, std::allocator<dealii::Polynomials::Polynomial<double> > > > >::_Vector_impl_data", %"struct.std::_Vector_base<std::vector<dealii::Polynomials::Polynomial<double>, std::allocator<dealii::Polynomials::Polynomial<double> > >, std::allocator<std::vector<dealii::Polynomials::Polynomial<double>, std::allocator<dealii::Polynomials::Polynomial<double> > > > >::_Vector_impl_data"* %1, i32 0, i32 0, !dbg !7589
  %2 = load %"class.std::vector.0"*, %"class.std::vector.0"** %_M_start, align 8, !dbg !7589
  %3 = bitcast %"class.std::vector"* %this1 to %"struct.std::_Vector_base"*, !dbg !7590
  %_M_impl2 = getelementptr inbounds %"struct.std::_Vector_base", %"struct.std::_Vector_base"* %3, i32 0, i32 0, !dbg !7590
  %4 = bitcast %"struct.std::_Vector_base<std::vector<dealii::Polynomials::Polynomial<double>, std::allocator<dealii::Polynomials::Polynomial<double> > >, std::allocator<std::vector<dealii::Polynomials::Polynomial<double>, std::allocator<dealii::Polynomials::Polynomial<double> > > > >::_Vector_impl"* %_M_impl2 to %"struct.std::_Vector_base<std::vector<dealii::Polynomials::Polynomial<double>, std::allocator<dealii::Polynomials::Polynomial<double> > >, std::allocator<std::vector<dealii::Polynomials::Polynomial<double>, std::allocator<dealii::Polynomials::Polynomial<double> > > > >::_Vector_impl_data"*, !dbg !7591
  %_M_finish = getelementptr inbounds %"struct.std::_Vector_base<std::vector<dealii::Polynomials::Polynomial<double>, std::allocator<dealii::Polynomials::Polynomial<double> > >, std::allocator<std::vector<dealii::Polynomials::Polynomial<double>, std::allocator<dealii::Polynomials::Polynomial<double> > > > >::_Vector_impl_data", %"struct.std::_Vector_base<std::vector<dealii::Polynomials::Polynomial<double>, std::allocator<dealii::Polynomials::Polynomial<double> > >, std::allocator<std::vector<dealii::Polynomials::Polynomial<double>, std::allocator<dealii::Polynomials::Polynomial<double> > > > >::_Vector_impl_data"* %4, i32 0, i32 1, !dbg !7592
  %5 = load %"class.std::vector.0"*, %"class.std::vector.0"** %_M_finish, align 8, !dbg !7592
  %6 = bitcast %"class.std::vector"* %this1 to %"struct.std::_Vector_base"*, !dbg !7593
  %call = call dereferenceable(1) %"class.std::allocator"* @_ZNSt12_Vector_baseISt6vectorIN6dealii11Polynomials10PolynomialIdEESaIS4_EESaIS6_EE19_M_get_Tp_allocatorEv(%"struct.std::_Vector_base"* %6) #3, !dbg !7593
  invoke void @_ZSt8_DestroyIPSt6vectorIN6dealii11Polynomials10PolynomialIdEESaIS4_EES6_EvT_S8_RSaIT0_E(%"class.std::vector.0"* %2, %"class.std::vector.0"* %5, %"class.std::allocator"* dereferenceable(1) %call)
          to label %invoke.cont unwind label %lpad, !dbg !7594

invoke.cont:                                      ; preds = %entry
  %7 = bitcast %"class.std::vector"* %this1 to %"struct.std::_Vector_base"*, !dbg !7595
  call void @_ZNSt12_Vector_baseISt6vectorIN6dealii11Polynomials10PolynomialIdEESaIS4_EESaIS6_EED2Ev(%"struct.std::_Vector_base"* %7) #3, !dbg !7595
  ret void, !dbg !7596

lpad:                                             ; preds = %entry
  %8 = landingpad { i8*, i32 }
          catch i8* null, !dbg !7595
  %9 = extractvalue { i8*, i32 } %8, 0, !dbg !7595
  store i8* %9, i8** %exn.slot, align 8, !dbg !7595
  %10 = extractvalue { i8*, i32 } %8, 1, !dbg !7595
  store i32 %10, i32* %ehselector.slot, align 4, !dbg !7595
  %11 = bitcast %"class.std::vector"* %this1 to %"struct.std::_Vector_base"*, !dbg !7595
  call void @_ZNSt12_Vector_baseISt6vectorIN6dealii11Polynomials10PolynomialIdEESaIS4_EESaIS6_EED2Ev(%"struct.std::_Vector_base"* %11) #3, !dbg !7595
  br label %terminate.handler, !dbg !7595

terminate.handler:                                ; preds = %lpad
  %exn = load i8*, i8** %exn.slot, align 8, !dbg !7595
  call void @__clang_call_terminate(i8* %exn) #14, !dbg !7595
  unreachable, !dbg !7595
}

; Function Attrs: noinline nounwind uwtable
define linkonce_odr dso_local void @_ZNSt6vectorIN6dealii6TensorILi2ELi1EEESaIS2_EED2Ev(%"class.std::vector.18"* %this) unnamed_addr #5 comdat align 2 personality i8* bitcast (i32 (...)* @__gxx_personality_v0 to i8*) !dbg !7597 {
entry:
  %this.addr = alloca %"class.std::vector.18"*, align 8
  %exn.slot = alloca i8*
  %ehselector.slot = alloca i32
  store %"class.std::vector.18"* %this, %"class.std::vector.18"** %this.addr, align 8
  call void @llvm.dbg.declare(metadata %"class.std::vector.18"** %this.addr, metadata !7598, metadata !DIExpression()), !dbg !7599
  %this1 = load %"class.std::vector.18"*, %"class.std::vector.18"** %this.addr, align 8
  %0 = bitcast %"class.std::vector.18"* %this1 to %"struct.std::_Vector_base.19"*, !dbg !7600
  %_M_impl = getelementptr inbounds %"struct.std::_Vector_base.19", %"struct.std::_Vector_base.19"* %0, i32 0, i32 0, !dbg !7600
  %1 = bitcast %"struct.std::_Vector_base<dealii::Tensor<2, 1>, std::allocator<dealii::Tensor<2, 1> > >::_Vector_impl"* %_M_impl to %"struct.std::_Vector_base<dealii::Tensor<2, 1>, std::allocator<dealii::Tensor<2, 1> > >::_Vector_impl_data"*, !dbg !7602
  %_M_start = getelementptr inbounds %"struct.std::_Vector_base<dealii::Tensor<2, 1>, std::allocator<dealii::Tensor<2, 1> > >::_Vector_impl_data", %"struct.std::_Vector_base<dealii::Tensor<2, 1>, std::allocator<dealii::Tensor<2, 1> > >::_Vector_impl_data"* %1, i32 0, i32 0, !dbg !7603
  %2 = load %"class.dealii::Tensor.23"*, %"class.dealii::Tensor.23"** %_M_start, align 8, !dbg !7603
  %3 = bitcast %"class.std::vector.18"* %this1 to %"struct.std::_Vector_base.19"*, !dbg !7604
  %_M_impl2 = getelementptr inbounds %"struct.std::_Vector_base.19", %"struct.std::_Vector_base.19"* %3, i32 0, i32 0, !dbg !7604
  %4 = bitcast %"struct.std::_Vector_base<dealii::Tensor<2, 1>, std::allocator<dealii::Tensor<2, 1> > >::_Vector_impl"* %_M_impl2 to %"struct.std::_Vector_base<dealii::Tensor<2, 1>, std::allocator<dealii::Tensor<2, 1> > >::_Vector_impl_data"*, !dbg !7605
  %_M_finish = getelementptr inbounds %"struct.std::_Vector_base<dealii::Tensor<2, 1>, std::allocator<dealii::Tensor<2, 1> > >::_Vector_impl_data", %"struct.std::_Vector_base<dealii::Tensor<2, 1>, std::allocator<dealii::Tensor<2, 1> > >::_Vector_impl_data"* %4, i32 0, i32 1, !dbg !7606
  %5 = load %"class.dealii::Tensor.23"*, %"class.dealii::Tensor.23"** %_M_finish, align 8, !dbg !7606
  %6 = bitcast %"class.std::vector.18"* %this1 to %"struct.std::_Vector_base.19"*, !dbg !7607
  %call = call dereferenceable(1) %"class.std::allocator.20"* @_ZNSt12_Vector_baseIN6dealii6TensorILi2ELi1EEESaIS2_EE19_M_get_Tp_allocatorEv(%"struct.std::_Vector_base.19"* %6) #3, !dbg !7607
  invoke void @_ZSt8_DestroyIPN6dealii6TensorILi2ELi1EEES2_EvT_S4_RSaIT0_E(%"class.dealii::Tensor.23"* %2, %"class.dealii::Tensor.23"* %5, %"class.std::allocator.20"* dereferenceable(1) %call)
          to label %invoke.cont unwind label %lpad, !dbg !7608

invoke.cont:                                      ; preds = %entry
  %7 = bitcast %"class.std::vector.18"* %this1 to %"struct.std::_Vector_base.19"*, !dbg !7609
  call void @_ZNSt12_Vector_baseIN6dealii6TensorILi2ELi1EEESaIS2_EED2Ev(%"struct.std::_Vector_base.19"* %7) #3, !dbg !7609
  ret void, !dbg !7610

lpad:                                             ; preds = %entry
  %8 = landingpad { i8*, i32 }
          catch i8* null, !dbg !7609
  %9 = extractvalue { i8*, i32 } %8, 0, !dbg !7609
  store i8* %9, i8** %exn.slot, align 8, !dbg !7609
  %10 = extractvalue { i8*, i32 } %8, 1, !dbg !7609
  store i32 %10, i32* %ehselector.slot, align 4, !dbg !7609
  %11 = bitcast %"class.std::vector.18"* %this1 to %"struct.std::_Vector_base.19"*, !dbg !7609
  call void @_ZNSt12_Vector_baseIN6dealii6TensorILi2ELi1EEESaIS2_EED2Ev(%"struct.std::_Vector_base.19"* %11) #3, !dbg !7609
  br label %terminate.handler, !dbg !7609

terminate.handler:                                ; preds = %lpad
  %exn = load i8*, i8** %exn.slot, align 8, !dbg !7609
  call void @__clang_call_terminate(i8* %exn) #14, !dbg !7609
  unreachable, !dbg !7609
}

; Function Attrs: noinline nounwind uwtable
define linkonce_odr dso_local void @_ZNSt6vectorIN6dealii6TensorILi1ELi1EEESaIS2_EED2Ev(%"class.std::vector.13"* %this) unnamed_addr #5 comdat align 2 personality i8* bitcast (i32 (...)* @__gxx_personality_v0 to i8*) !dbg !7611 {
entry:
  %this.addr = alloca %"class.std::vector.13"*, align 8
  %exn.slot = alloca i8*
  %ehselector.slot = alloca i32
  store %"class.std::vector.13"* %this, %"class.std::vector.13"** %this.addr, align 8
  call void @llvm.dbg.declare(metadata %"class.std::vector.13"** %this.addr, metadata !7612, metadata !DIExpression()), !dbg !7613
  %this1 = load %"class.std::vector.13"*, %"class.std::vector.13"** %this.addr, align 8
  %0 = bitcast %"class.std::vector.13"* %this1 to %"struct.std::_Vector_base.14"*, !dbg !7614
  %_M_impl = getelementptr inbounds %"struct.std::_Vector_base.14", %"struct.std::_Vector_base.14"* %0, i32 0, i32 0, !dbg !7614
  %1 = bitcast %"struct.std::_Vector_base<dealii::Tensor<1, 1>, std::allocator<dealii::Tensor<1, 1> > >::_Vector_impl"* %_M_impl to %"struct.std::_Vector_base<dealii::Tensor<1, 1>, std::allocator<dealii::Tensor<1, 1> > >::_Vector_impl_data"*, !dbg !7616
  %_M_start = getelementptr inbounds %"struct.std::_Vector_base<dealii::Tensor<1, 1>, std::allocator<dealii::Tensor<1, 1> > >::_Vector_impl_data", %"struct.std::_Vector_base<dealii::Tensor<1, 1>, std::allocator<dealii::Tensor<1, 1> > >::_Vector_impl_data"* %1, i32 0, i32 0, !dbg !7617
  %2 = load %"class.dealii::Tensor"*, %"class.dealii::Tensor"** %_M_start, align 8, !dbg !7617
  %3 = bitcast %"class.std::vector.13"* %this1 to %"struct.std::_Vector_base.14"*, !dbg !7618
  %_M_impl2 = getelementptr inbounds %"struct.std::_Vector_base.14", %"struct.std::_Vector_base.14"* %3, i32 0, i32 0, !dbg !7618
  %4 = bitcast %"struct.std::_Vector_base<dealii::Tensor<1, 1>, std::allocator<dealii::Tensor<1, 1> > >::_Vector_impl"* %_M_impl2 to %"struct.std::_Vector_base<dealii::Tensor<1, 1>, std::allocator<dealii::Tensor<1, 1> > >::_Vector_impl_data"*, !dbg !7619
  %_M_finish = getelementptr inbounds %"struct.std::_Vector_base<dealii::Tensor<1, 1>, std::allocator<dealii::Tensor<1, 1> > >::_Vector_impl_data", %"struct.std::_Vector_base<dealii::Tensor<1, 1>, std::allocator<dealii::Tensor<1, 1> > >::_Vector_impl_data"* %4, i32 0, i32 1, !dbg !7620
  %5 = load %"class.dealii::Tensor"*, %"class.dealii::Tensor"** %_M_finish, align 8, !dbg !7620
  %6 = bitcast %"class.std::vector.13"* %this1 to %"struct.std::_Vector_base.14"*, !dbg !7621
  %call = call dereferenceable(1) %"class.std::allocator.15"* @_ZNSt12_Vector_baseIN6dealii6TensorILi1ELi1EEESaIS2_EE19_M_get_Tp_allocatorEv(%"struct.std::_Vector_base.14"* %6) #3, !dbg !7621
  invoke void @_ZSt8_DestroyIPN6dealii6TensorILi1ELi1EEES2_EvT_S4_RSaIT0_E(%"class.dealii::Tensor"* %2, %"class.dealii::Tensor"* %5, %"class.std::allocator.15"* dereferenceable(1) %call)
          to label %invoke.cont unwind label %lpad, !dbg !7622

invoke.cont:                                      ; preds = %entry
  %7 = bitcast %"class.std::vector.13"* %this1 to %"struct.std::_Vector_base.14"*, !dbg !7623
  call void @_ZNSt12_Vector_baseIN6dealii6TensorILi1ELi1EEESaIS2_EED2Ev(%"struct.std::_Vector_base.14"* %7) #3, !dbg !7623
  ret void, !dbg !7624

lpad:                                             ; preds = %entry
  %8 = landingpad { i8*, i32 }
          catch i8* null, !dbg !7623
  %9 = extractvalue { i8*, i32 } %8, 0, !dbg !7623
  store i8* %9, i8** %exn.slot, align 8, !dbg !7623
  %10 = extractvalue { i8*, i32 } %8, 1, !dbg !7623
  store i32 %10, i32* %ehselector.slot, align 4, !dbg !7623
  %11 = bitcast %"class.std::vector.13"* %this1 to %"struct.std::_Vector_base.14"*, !dbg !7623
  call void @_ZNSt12_Vector_baseIN6dealii6TensorILi1ELi1EEESaIS2_EED2Ev(%"struct.std::_Vector_base.14"* %11) #3, !dbg !7623
  br label %terminate.handler, !dbg !7623

terminate.handler:                                ; preds = %lpad
  %exn = load i8*, i8** %exn.slot, align 8, !dbg !7623
  call void @__clang_call_terminate(i8* %exn) #14, !dbg !7623
  unreachable, !dbg !7623
}

; Function Attrs: noinline nounwind uwtable
define linkonce_odr dso_local void @_ZNSt6vectorIdSaIdEED2Ev(%"class.std::vector.8"* %this) unnamed_addr #5 comdat align 2 personality i8* bitcast (i32 (...)* @__gxx_personality_v0 to i8*) !dbg !7625 {
entry:
  %this.addr = alloca %"class.std::vector.8"*, align 8
  %exn.slot = alloca i8*
  %ehselector.slot = alloca i32
  store %"class.std::vector.8"* %this, %"class.std::vector.8"** %this.addr, align 8
  call void @llvm.dbg.declare(metadata %"class.std::vector.8"** %this.addr, metadata !7626, metadata !DIExpression()), !dbg !7627
  %this1 = load %"class.std::vector.8"*, %"class.std::vector.8"** %this.addr, align 8
  %0 = bitcast %"class.std::vector.8"* %this1 to %"struct.std::_Vector_base.9"*, !dbg !7628
  %_M_impl = getelementptr inbounds %"struct.std::_Vector_base.9", %"struct.std::_Vector_base.9"* %0, i32 0, i32 0, !dbg !7628
  %1 = bitcast %"struct.std::_Vector_base<double, std::allocator<double> >::_Vector_impl"* %_M_impl to %"struct.std::_Vector_base<double, std::allocator<double> >::_Vector_impl_data"*, !dbg !7630
  %_M_start = getelementptr inbounds %"struct.std::_Vector_base<double, std::allocator<double> >::_Vector_impl_data", %"struct.std::_Vector_base<double, std::allocator<double> >::_Vector_impl_data"* %1, i32 0, i32 0, !dbg !7631
  %2 = load double*, double** %_M_start, align 8, !dbg !7631
  %3 = bitcast %"class.std::vector.8"* %this1 to %"struct.std::_Vector_base.9"*, !dbg !7632
  %_M_impl2 = getelementptr inbounds %"struct.std::_Vector_base.9", %"struct.std::_Vector_base.9"* %3, i32 0, i32 0, !dbg !7632
  %4 = bitcast %"struct.std::_Vector_base<double, std::allocator<double> >::_Vector_impl"* %_M_impl2 to %"struct.std::_Vector_base<double, std::allocator<double> >::_Vector_impl_data"*, !dbg !7633
  %_M_finish = getelementptr inbounds %"struct.std::_Vector_base<double, std::allocator<double> >::_Vector_impl_data", %"struct.std::_Vector_base<double, std::allocator<double> >::_Vector_impl_data"* %4, i32 0, i32 1, !dbg !7634
  %5 = load double*, double** %_M_finish, align 8, !dbg !7634
  %6 = bitcast %"class.std::vector.8"* %this1 to %"struct.std::_Vector_base.9"*, !dbg !7635
  %call = call dereferenceable(1) %"class.std::allocator.10"* @_ZNSt12_Vector_baseIdSaIdEE19_M_get_Tp_allocatorEv(%"struct.std::_Vector_base.9"* %6) #3, !dbg !7635
  invoke void @_ZSt8_DestroyIPddEvT_S1_RSaIT0_E(double* %2, double* %5, %"class.std::allocator.10"* dereferenceable(1) %call)
          to label %invoke.cont unwind label %lpad, !dbg !7636

invoke.cont:                                      ; preds = %entry
  %7 = bitcast %"class.std::vector.8"* %this1 to %"struct.std::_Vector_base.9"*, !dbg !7637
  call void @_ZNSt12_Vector_baseIdSaIdEED2Ev(%"struct.std::_Vector_base.9"* %7) #3, !dbg !7637
  ret void, !dbg !7638

lpad:                                             ; preds = %entry
  %8 = landingpad { i8*, i32 }
          catch i8* null, !dbg !7637
  %9 = extractvalue { i8*, i32 } %8, 0, !dbg !7637
  store i8* %9, i8** %exn.slot, align 8, !dbg !7637
  %10 = extractvalue { i8*, i32 } %8, 1, !dbg !7637
  store i32 %10, i32* %ehselector.slot, align 4, !dbg !7637
  %11 = bitcast %"class.std::vector.8"* %this1 to %"struct.std::_Vector_base.9"*, !dbg !7637
  call void @_ZNSt12_Vector_baseIdSaIdEED2Ev(%"struct.std::_Vector_base.9"* %11) #3, !dbg !7637
  br label %terminate.handler, !dbg !7637

terminate.handler:                                ; preds = %lpad
  %exn = load i8*, i8** %exn.slot, align 8, !dbg !7637
  call void @__clang_call_terminate(i8* %exn) #14, !dbg !7637
  unreachable, !dbg !7637
}

; Function Attrs: noinline nounwind uwtable
define weak_odr dso_local void @_ZN6dealii14PolynomialsABFILi1EED2Ev(%"class.dealii::PolynomialsABF"* %this) unnamed_addr #5 comdat($_ZN6dealii14PolynomialsABFILi1EED5Ev) align 2 !dbg !7639 {
entry:
  %this.addr = alloca %"class.dealii::PolynomialsABF"*, align 8
  store %"class.dealii::PolynomialsABF"* %this, %"class.dealii::PolynomialsABF"** %this.addr, align 8
  call void @llvm.dbg.declare(metadata %"class.dealii::PolynomialsABF"** %this.addr, metadata !7640, metadata !DIExpression()), !dbg !7641
  %this1 = load %"class.dealii::PolynomialsABF"*, %"class.dealii::PolynomialsABF"** %this.addr, align 8
  %polynomial_space = getelementptr inbounds %"class.dealii::PolynomialsABF", %"class.dealii::PolynomialsABF"* %this1, i32 0, i32 1, !dbg !7642
  %0 = load %"class.dealii::AnisotropicPolynomials"*, %"class.dealii::AnisotropicPolynomials"** %polynomial_space, align 8, !dbg !7642
  %isnull = icmp eq %"class.dealii::AnisotropicPolynomials"* %0, null, !dbg !7644
  br i1 %isnull, label %delete.end, label %delete.notnull, !dbg !7644

delete.notnull:                                   ; preds = %entry
  call void @_ZN6dealii22AnisotropicPolynomialsILi1EED2Ev(%"class.dealii::AnisotropicPolynomials"* %0) #3, !dbg !7644
  %1 = bitcast %"class.dealii::AnisotropicPolynomials"* %0 to i8*, !dbg !7644
  call void @_ZdlPv(i8* %1) #13, !dbg !7644
  br label %delete.end, !dbg !7644

delete.end:                                       ; preds = %delete.notnull, %entry
  %p_grad_grads = getelementptr inbounds %"class.dealii::PolynomialsABF", %"class.dealii::PolynomialsABF"* %this1, i32 0, i32 5, !dbg !7645
  call void @_ZNSt6vectorIN6dealii6TensorILi2ELi1EEESaIS2_EED2Ev(%"class.std::vector.18"* %p_grad_grads) #3, !dbg !7645
  %p_grads = getelementptr inbounds %"class.dealii::PolynomialsABF", %"class.dealii::PolynomialsABF"* %this1, i32 0, i32 4, !dbg !7645
  call void @_ZNSt6vectorIN6dealii6TensorILi1ELi1EEESaIS2_EED2Ev(%"class.std::vector.13"* %p_grads) #3, !dbg !7645
  %p_values = getelementptr inbounds %"class.dealii::PolynomialsABF", %"class.dealii::PolynomialsABF"* %this1, i32 0, i32 3, !dbg !7645
  call void @_ZNSt6vectorIdSaIdEED2Ev(%"class.std::vector.8"* %p_values) #3, !dbg !7645
  ret void, !dbg !7646
}

; Function Attrs: noinline nounwind uwtable
define linkonce_odr dso_local void @_ZN6dealii22AnisotropicPolynomialsILi1EED2Ev(%"class.dealii::AnisotropicPolynomials"* %this) unnamed_addr #5 comdat align 2 !dbg !7647 {
entry:
  %this.addr = alloca %"class.dealii::AnisotropicPolynomials"*, align 8
  store %"class.dealii::AnisotropicPolynomials"* %this, %"class.dealii::AnisotropicPolynomials"** %this.addr, align 8
  call void @llvm.dbg.declare(metadata %"class.dealii::AnisotropicPolynomials"** %this.addr, metadata !7651, metadata !DIExpression()), !dbg !7652
  %this1 = load %"class.dealii::AnisotropicPolynomials"*, %"class.dealii::AnisotropicPolynomials"** %this.addr, align 8
  %polynomials = getelementptr inbounds %"class.dealii::AnisotropicPolynomials", %"class.dealii::AnisotropicPolynomials"* %this1, i32 0, i32 0, !dbg !7653
  call void @_ZNSt6vectorIS_IN6dealii11Polynomials10PolynomialIdEESaIS3_EESaIS5_EED2Ev(%"class.std::vector"* %polynomials) #3, !dbg !7653
  ret void, !dbg !7655
}

; Function Attrs: noinline uwtable
define weak_odr dso_local void @_ZNK6dealii14PolynomialsABFILi1EE7computeERKNS_5PointILi1EEERSt6vectorINS_6TensorILi1ELi1EEESaIS8_EERS6_INS7_ILi2ELi1EEESaISC_EERS6_INS7_ILi3ELi1EEESaISG_EE(%"class.dealii::PolynomialsABF"* %this, %"class.dealii::Point"* dereferenceable(8) %unit_point, %"class.std::vector.13"* dereferenceable(24) %values, %"class.std::vector.18"* dereferenceable(24) %grads, %"class.std::vector.24"* dereferenceable(24) %grad_grads) #0 comdat align 2 !dbg !7656 {
entry:
  %this.addr = alloca %"class.dealii::PolynomialsABF"*, align 8
  %unit_point.addr = alloca %"class.dealii::Point"*, align 8
  %values.addr = alloca %"class.std::vector.13"*, align 8
  %grads.addr = alloca %"class.std::vector.18"*, align 8
  %grad_grads.addr = alloca %"class.std::vector.24"*, align 8
  %n_sub = alloca i32, align 4
  %d = alloca i32, align 4
  %p = alloca %"class.dealii::Point", align 8
  %c = alloca i32, align 4
  %i = alloca i32, align 4
  %i43 = alloca i32, align 4
  %d1 = alloca i32, align 4
  %i71 = alloca i32, align 4
  %d178 = alloca i32, align 4
  %d2 = alloca i32, align 4
  store %"class.dealii::PolynomialsABF"* %this, %"class.dealii::PolynomialsABF"** %this.addr, align 8
  call void @llvm.dbg.declare(metadata %"class.dealii::PolynomialsABF"** %this.addr, metadata !7657, metadata !DIExpression()), !dbg !7659
  store %"class.dealii::Point"* %unit_point, %"class.dealii::Point"** %unit_point.addr, align 8
  call void @llvm.dbg.declare(metadata %"class.dealii::Point"** %unit_point.addr, metadata !7660, metadata !DIExpression()), !dbg !7661
  store %"class.std::vector.13"* %values, %"class.std::vector.13"** %values.addr, align 8
  call void @llvm.dbg.declare(metadata %"class.std::vector.13"** %values.addr, metadata !7662, metadata !DIExpression()), !dbg !7663
  store %"class.std::vector.18"* %grads, %"class.std::vector.18"** %grads.addr, align 8
  call void @llvm.dbg.declare(metadata %"class.std::vector.18"** %grads.addr, metadata !7664, metadata !DIExpression()), !dbg !7665
  store %"class.std::vector.24"* %grad_grads, %"class.std::vector.24"** %grad_grads.addr, align 8
  call void @llvm.dbg.declare(metadata %"class.std::vector.24"** %grad_grads.addr, metadata !7666, metadata !DIExpression()), !dbg !7667
  %this1 = load %"class.dealii::PolynomialsABF"*, %"class.dealii::PolynomialsABF"** %this.addr, align 8
  call void @llvm.dbg.declare(metadata i32* %n_sub, metadata !7668, metadata !DIExpression()), !dbg !7669
  %polynomial_space = getelementptr inbounds %"class.dealii::PolynomialsABF", %"class.dealii::PolynomialsABF"* %this1, i32 0, i32 1, !dbg !7670
  %0 = load %"class.dealii::AnisotropicPolynomials"*, %"class.dealii::AnisotropicPolynomials"** %polynomial_space, align 8, !dbg !7670
  %call = call i32 @_ZNK6dealii22AnisotropicPolynomialsILi1EE1nEv(%"class.dealii::AnisotropicPolynomials"* %0), !dbg !7671
  store i32 %call, i32* %n_sub, align 4, !dbg !7669
  %p_values = getelementptr inbounds %"class.dealii::PolynomialsABF", %"class.dealii::PolynomialsABF"* %this1, i32 0, i32 3, !dbg !7672
  %1 = load %"class.std::vector.13"*, %"class.std::vector.13"** %values.addr, align 8, !dbg !7673
  %call2 = call i64 @_ZNKSt6vectorIN6dealii6TensorILi1ELi1EEESaIS2_EE4sizeEv(%"class.std::vector.13"* %1) #3, !dbg !7674
  %cmp = icmp eq i64 %call2, 0, !dbg !7675
  br i1 %cmp, label %cond.true, label %cond.false, !dbg !7676

cond.true:                                        ; preds = %entry
  br label %cond.end, !dbg !7676

cond.false:                                       ; preds = %entry
  %2 = load i32, i32* %n_sub, align 4, !dbg !7677
  br label %cond.end, !dbg !7676

cond.end:                                         ; preds = %cond.false, %cond.true
  %cond = phi i32 [ 0, %cond.true ], [ %2, %cond.false ], !dbg !7676
  %conv = zext i32 %cond to i64, !dbg !7676
  call void @_ZNSt6vectorIdSaIdEE6resizeEm(%"class.std::vector.8"* %p_values, i64 %conv), !dbg !7678
  %p_grads = getelementptr inbounds %"class.dealii::PolynomialsABF", %"class.dealii::PolynomialsABF"* %this1, i32 0, i32 4, !dbg !7679
  %3 = load %"class.std::vector.18"*, %"class.std::vector.18"** %grads.addr, align 8, !dbg !7680
  %call3 = call i64 @_ZNKSt6vectorIN6dealii6TensorILi2ELi1EEESaIS2_EE4sizeEv(%"class.std::vector.18"* %3) #3, !dbg !7681
  %cmp4 = icmp eq i64 %call3, 0, !dbg !7682
  br i1 %cmp4, label %cond.true5, label %cond.false6, !dbg !7683

cond.true5:                                       ; preds = %cond.end
  br label %cond.end7, !dbg !7683

cond.false6:                                      ; preds = %cond.end
  %4 = load i32, i32* %n_sub, align 4, !dbg !7684
  br label %cond.end7, !dbg !7683

cond.end7:                                        ; preds = %cond.false6, %cond.true5
  %cond8 = phi i32 [ 0, %cond.true5 ], [ %4, %cond.false6 ], !dbg !7683
  %conv9 = zext i32 %cond8 to i64, !dbg !7683
  call void @_ZNSt6vectorIN6dealii6TensorILi1ELi1EEESaIS2_EE6resizeEm(%"class.std::vector.13"* %p_grads, i64 %conv9), !dbg !7685
  %p_grad_grads = getelementptr inbounds %"class.dealii::PolynomialsABF", %"class.dealii::PolynomialsABF"* %this1, i32 0, i32 5, !dbg !7686
  %5 = load %"class.std::vector.24"*, %"class.std::vector.24"** %grad_grads.addr, align 8, !dbg !7687
  %call10 = call i64 @_ZNKSt6vectorIN6dealii6TensorILi3ELi1EEESaIS2_EE4sizeEv(%"class.std::vector.24"* %5) #3, !dbg !7688
  %cmp11 = icmp eq i64 %call10, 0, !dbg !7689
  br i1 %cmp11, label %cond.true12, label %cond.false13, !dbg !7690

cond.true12:                                      ; preds = %cond.end7
  br label %cond.end14, !dbg !7690

cond.false13:                                     ; preds = %cond.end7
  %6 = load i32, i32* %n_sub, align 4, !dbg !7691
  br label %cond.end14, !dbg !7690

cond.end14:                                       ; preds = %cond.false13, %cond.true12
  %cond15 = phi i32 [ 0, %cond.true12 ], [ %6, %cond.false13 ], !dbg !7690
  %conv16 = zext i32 %cond15 to i64, !dbg !7690
  call void @_ZNSt6vectorIN6dealii6TensorILi2ELi1EEESaIS2_EE6resizeEm(%"class.std::vector.18"* %p_grad_grads, i64 %conv16), !dbg !7692
  call void @llvm.dbg.declare(metadata i32* %d, metadata !7693, metadata !DIExpression()), !dbg !7695
  store i32 0, i32* %d, align 4, !dbg !7695
  br label %for.cond, !dbg !7696

for.cond:                                         ; preds = %for.inc110, %cond.end14
  %7 = load i32, i32* %d, align 4, !dbg !7697
  %cmp17 = icmp ult i32 %7, 1, !dbg !7699
  br i1 %cmp17, label %for.body, label %for.end112, !dbg !7700

for.body:                                         ; preds = %for.cond
  call void @llvm.dbg.declare(metadata %"class.dealii::Point"* %p, metadata !7701, metadata !DIExpression()), !dbg !7703
  call void @_ZN6dealii5PointILi1EEC2Ev(%"class.dealii::Point"* %p), !dbg !7703
  call void @llvm.dbg.declare(metadata i32* %c, metadata !7704, metadata !DIExpression()), !dbg !7706
  store i32 0, i32* %c, align 4, !dbg !7706
  br label %for.cond18, !dbg !7707

for.cond18:                                       ; preds = %for.inc, %for.body
  %8 = load i32, i32* %c, align 4, !dbg !7708
  %cmp19 = icmp ult i32 %8, 1, !dbg !7710
  br i1 %cmp19, label %for.body20, label %for.end, !dbg !7711

for.body20:                                       ; preds = %for.cond18
  %9 = load %"class.dealii::Point"*, %"class.dealii::Point"** %unit_point.addr, align 8, !dbg !7712
  %10 = load i32, i32* %c, align 4, !dbg !7713
  %11 = load i32, i32* %d, align 4, !dbg !7714
  %add = add i32 %10, %11, !dbg !7715
  %rem = urem i32 %add, 1, !dbg !7716
  %call21 = call double @_ZNK6dealii5PointILi1EEclEj(%"class.dealii::Point"* %9, i32 %rem), !dbg !7712
  %12 = load i32, i32* %c, align 4, !dbg !7717
  %call22 = call dereferenceable(8) double* @_ZN6dealii5PointILi1EEclEj(%"class.dealii::Point"* %p, i32 %12), !dbg !7718
  store double %call21, double* %call22, align 8, !dbg !7719
  br label %for.inc, !dbg !7718

for.inc:                                          ; preds = %for.body20
  %13 = load i32, i32* %c, align 4, !dbg !7720
  %inc = add i32 %13, 1, !dbg !7720
  store i32 %inc, i32* %c, align 4, !dbg !7720
  br label %for.cond18, !dbg !7721, !llvm.loop !7722

for.end:                                          ; preds = %for.cond18
  %polynomial_space23 = getelementptr inbounds %"class.dealii::PolynomialsABF", %"class.dealii::PolynomialsABF"* %this1, i32 0, i32 1, !dbg !7724
  %14 = load %"class.dealii::AnisotropicPolynomials"*, %"class.dealii::AnisotropicPolynomials"** %polynomial_space23, align 8, !dbg !7724
  %p_values24 = getelementptr inbounds %"class.dealii::PolynomialsABF", %"class.dealii::PolynomialsABF"* %this1, i32 0, i32 3, !dbg !7725
  %p_grads25 = getelementptr inbounds %"class.dealii::PolynomialsABF", %"class.dealii::PolynomialsABF"* %this1, i32 0, i32 4, !dbg !7726
  %p_grad_grads26 = getelementptr inbounds %"class.dealii::PolynomialsABF", %"class.dealii::PolynomialsABF"* %this1, i32 0, i32 5, !dbg !7727
  call void @_ZNK6dealii22AnisotropicPolynomialsILi1EE7computeERKNS_5PointILi1EEERSt6vectorIdSaIdEERS6_INS_6TensorILi1ELi1EEESaISB_EERS6_INSA_ILi2ELi1EEESaISF_EE(%"class.dealii::AnisotropicPolynomials"* %14, %"class.dealii::Point"* dereferenceable(8) %p, %"class.std::vector.8"* dereferenceable(24) %p_values24, %"class.std::vector.13"* dereferenceable(24) %p_grads25, %"class.std::vector.18"* dereferenceable(24) %p_grad_grads26), !dbg !7728
  call void @llvm.dbg.declare(metadata i32* %i, metadata !7729, metadata !DIExpression()), !dbg !7731
  store i32 0, i32* %i, align 4, !dbg !7731
  br label %for.cond27, !dbg !7732

for.cond27:                                       ; preds = %for.inc40, %for.end
  %15 = load i32, i32* %i, align 4, !dbg !7733
  %conv28 = zext i32 %15 to i64, !dbg !7733
  %p_values29 = getelementptr inbounds %"class.dealii::PolynomialsABF", %"class.dealii::PolynomialsABF"* %this1, i32 0, i32 3, !dbg !7735
  %call30 = call i64 @_ZNKSt6vectorIdSaIdEE4sizeEv(%"class.std::vector.8"* %p_values29) #3, !dbg !7736
  %cmp31 = icmp ult i64 %conv28, %call30, !dbg !7737
  br i1 %cmp31, label %for.body32, label %for.end42, !dbg !7738

for.body32:                                       ; preds = %for.cond27
  %p_values33 = getelementptr inbounds %"class.dealii::PolynomialsABF", %"class.dealii::PolynomialsABF"* %this1, i32 0, i32 3, !dbg !7739
  %16 = load i32, i32* %i, align 4, !dbg !7740
  %conv34 = zext i32 %16 to i64, !dbg !7740
  %call35 = call dereferenceable(8) double* @_ZNSt6vectorIdSaIdEEixEm(%"class.std::vector.8"* %p_values33, i64 %conv34) #3, !dbg !7739
  %17 = load double, double* %call35, align 8, !dbg !7739
  %18 = load %"class.std::vector.13"*, %"class.std::vector.13"** %values.addr, align 8, !dbg !7741
  %19 = load i32, i32* %i, align 4, !dbg !7742
  %20 = load i32, i32* %d, align 4, !dbg !7743
  %21 = load i32, i32* %n_sub, align 4, !dbg !7744
  %mul = mul i32 %20, %21, !dbg !7745
  %add36 = add i32 %19, %mul, !dbg !7746
  %conv37 = zext i32 %add36 to i64, !dbg !7742
  %call38 = call dereferenceable(8) %"class.dealii::Tensor"* @_ZNSt6vectorIN6dealii6TensorILi1ELi1EEESaIS2_EEixEm(%"class.std::vector.13"* %18, i64 %conv37) #3, !dbg !7741
  %22 = load i32, i32* %d, align 4, !dbg !7747
  %call39 = call dereferenceable(8) double* @_ZN6dealii6TensorILi1ELi1EEixEj(%"class.dealii::Tensor"* %call38, i32 %22), !dbg !7741
  store double %17, double* %call39, align 8, !dbg !7748
  br label %for.inc40, !dbg !7741

for.inc40:                                        ; preds = %for.body32
  %23 = load i32, i32* %i, align 4, !dbg !7749
  %inc41 = add i32 %23, 1, !dbg !7749
  store i32 %inc41, i32* %i, align 4, !dbg !7749
  br label %for.cond27, !dbg !7750, !llvm.loop !7751

for.end42:                                        ; preds = %for.cond27
  call void @llvm.dbg.declare(metadata i32* %i43, metadata !7753, metadata !DIExpression()), !dbg !7755
  store i32 0, i32* %i43, align 4, !dbg !7755
  br label %for.cond44, !dbg !7756

for.cond44:                                       ; preds = %for.inc68, %for.end42
  %24 = load i32, i32* %i43, align 4, !dbg !7757
  %conv45 = zext i32 %24 to i64, !dbg !7757
  %p_grads46 = getelementptr inbounds %"class.dealii::PolynomialsABF", %"class.dealii::PolynomialsABF"* %this1, i32 0, i32 4, !dbg !7759
  %call47 = call i64 @_ZNKSt6vectorIN6dealii6TensorILi1ELi1EEESaIS2_EE4sizeEv(%"class.std::vector.13"* %p_grads46) #3, !dbg !7760
  %cmp48 = icmp ult i64 %conv45, %call47, !dbg !7761
  br i1 %cmp48, label %for.body49, label %for.end70, !dbg !7762

for.body49:                                       ; preds = %for.cond44
  call void @llvm.dbg.declare(metadata i32* %d1, metadata !7763, metadata !DIExpression()), !dbg !7765
  store i32 0, i32* %d1, align 4, !dbg !7765
  br label %for.cond50, !dbg !7766

for.cond50:                                       ; preds = %for.inc65, %for.body49
  %25 = load i32, i32* %d1, align 4, !dbg !7767
  %cmp51 = icmp ult i32 %25, 1, !dbg !7769
  br i1 %cmp51, label %for.body52, label %for.end67, !dbg !7770

for.body52:                                       ; preds = %for.cond50
  %p_grads53 = getelementptr inbounds %"class.dealii::PolynomialsABF", %"class.dealii::PolynomialsABF"* %this1, i32 0, i32 4, !dbg !7771
  %26 = load i32, i32* %i43, align 4, !dbg !7772
  %conv54 = zext i32 %26 to i64, !dbg !7772
  %call55 = call dereferenceable(8) %"class.dealii::Tensor"* @_ZNSt6vectorIN6dealii6TensorILi1ELi1EEESaIS2_EEixEm(%"class.std::vector.13"* %p_grads53, i64 %conv54) #3, !dbg !7771
  %27 = load i32, i32* %d1, align 4, !dbg !7773
  %call56 = call dereferenceable(8) double* @_ZN6dealii6TensorILi1ELi1EEixEj(%"class.dealii::Tensor"* %call55, i32 %27), !dbg !7771
  %28 = load double, double* %call56, align 8, !dbg !7771
  %29 = load %"class.std::vector.18"*, %"class.std::vector.18"** %grads.addr, align 8, !dbg !7774
  %30 = load i32, i32* %i43, align 4, !dbg !7775
  %31 = load i32, i32* %d, align 4, !dbg !7776
  %32 = load i32, i32* %n_sub, align 4, !dbg !7777
  %mul57 = mul i32 %31, %32, !dbg !7778
  %add58 = add i32 %30, %mul57, !dbg !7779
  %conv59 = zext i32 %add58 to i64, !dbg !7775
  %call60 = call dereferenceable(8) %"class.dealii::Tensor.23"* @_ZNSt6vectorIN6dealii6TensorILi2ELi1EEESaIS2_EEixEm(%"class.std::vector.18"* %29, i64 %conv59) #3, !dbg !7774
  %33 = load i32, i32* %d, align 4, !dbg !7780
  %call61 = call dereferenceable(8) %"class.dealii::Tensor"* @_ZN6dealii6TensorILi2ELi1EEixEj(%"class.dealii::Tensor.23"* %call60, i32 %33), !dbg !7774
  %34 = load i32, i32* %d1, align 4, !dbg !7781
  %35 = load i32, i32* %d, align 4, !dbg !7782
  %add62 = add i32 %34, %35, !dbg !7783
  %rem63 = urem i32 %add62, 1, !dbg !7784
  %call64 = call dereferenceable(8) double* @_ZN6dealii6TensorILi1ELi1EEixEj(%"class.dealii::Tensor"* %call61, i32 %rem63), !dbg !7774
  store double %28, double* %call64, align 8, !dbg !7785
  br label %for.inc65, !dbg !7774

for.inc65:                                        ; preds = %for.body52
  %36 = load i32, i32* %d1, align 4, !dbg !7786
  %inc66 = add i32 %36, 1, !dbg !7786
  store i32 %inc66, i32* %d1, align 4, !dbg !7786
  br label %for.cond50, !dbg !7787, !llvm.loop !7788

for.end67:                                        ; preds = %for.cond50
  br label %for.inc68, !dbg !7789

for.inc68:                                        ; preds = %for.end67
  %37 = load i32, i32* %i43, align 4, !dbg !7790
  %inc69 = add i32 %37, 1, !dbg !7790
  store i32 %inc69, i32* %i43, align 4, !dbg !7790
  br label %for.cond44, !dbg !7791, !llvm.loop !7792

for.end70:                                        ; preds = %for.cond44
  call void @llvm.dbg.declare(metadata i32* %i71, metadata !7794, metadata !DIExpression()), !dbg !7796
  store i32 0, i32* %i71, align 4, !dbg !7796
  br label %for.cond72, !dbg !7797

for.cond72:                                       ; preds = %for.inc107, %for.end70
  %38 = load i32, i32* %i71, align 4, !dbg !7798
  %conv73 = zext i32 %38 to i64, !dbg !7798
  %p_grad_grads74 = getelementptr inbounds %"class.dealii::PolynomialsABF", %"class.dealii::PolynomialsABF"* %this1, i32 0, i32 5, !dbg !7800
  %call75 = call i64 @_ZNKSt6vectorIN6dealii6TensorILi2ELi1EEESaIS2_EE4sizeEv(%"class.std::vector.18"* %p_grad_grads74) #3, !dbg !7801
  %cmp76 = icmp ult i64 %conv73, %call75, !dbg !7802
  br i1 %cmp76, label %for.body77, label %for.end109, !dbg !7803

for.body77:                                       ; preds = %for.cond72
  call void @llvm.dbg.declare(metadata i32* %d178, metadata !7804, metadata !DIExpression()), !dbg !7806
  store i32 0, i32* %d178, align 4, !dbg !7806
  br label %for.cond79, !dbg !7807

for.cond79:                                       ; preds = %for.inc104, %for.body77
  %39 = load i32, i32* %d178, align 4, !dbg !7808
  %cmp80 = icmp ult i32 %39, 1, !dbg !7810
  br i1 %cmp80, label %for.body81, label %for.end106, !dbg !7811

for.body81:                                       ; preds = %for.cond79
  call void @llvm.dbg.declare(metadata i32* %d2, metadata !7812, metadata !DIExpression()), !dbg !7814
  store i32 0, i32* %d2, align 4, !dbg !7814
  br label %for.cond82, !dbg !7815

for.cond82:                                       ; preds = %for.inc101, %for.body81
  %40 = load i32, i32* %d2, align 4, !dbg !7816
  %cmp83 = icmp ult i32 %40, 1, !dbg !7818
  br i1 %cmp83, label %for.body84, label %for.end103, !dbg !7819

for.body84:                                       ; preds = %for.cond82
  %p_grad_grads85 = getelementptr inbounds %"class.dealii::PolynomialsABF", %"class.dealii::PolynomialsABF"* %this1, i32 0, i32 5, !dbg !7820
  %41 = load i32, i32* %i71, align 4, !dbg !7821
  %conv86 = zext i32 %41 to i64, !dbg !7821
  %call87 = call dereferenceable(8) %"class.dealii::Tensor.23"* @_ZNSt6vectorIN6dealii6TensorILi2ELi1EEESaIS2_EEixEm(%"class.std::vector.18"* %p_grad_grads85, i64 %conv86) #3, !dbg !7820
  %42 = load i32, i32* %d178, align 4, !dbg !7822
  %call88 = call dereferenceable(8) %"class.dealii::Tensor"* @_ZN6dealii6TensorILi2ELi1EEixEj(%"class.dealii::Tensor.23"* %call87, i32 %42), !dbg !7820
  %43 = load i32, i32* %d2, align 4, !dbg !7823
  %call89 = call dereferenceable(8) double* @_ZN6dealii6TensorILi1ELi1EEixEj(%"class.dealii::Tensor"* %call88, i32 %43), !dbg !7820
  %44 = load double, double* %call89, align 8, !dbg !7820
  %45 = load %"class.std::vector.24"*, %"class.std::vector.24"** %grad_grads.addr, align 8, !dbg !7824
  %46 = load i32, i32* %i71, align 4, !dbg !7825
  %47 = load i32, i32* %d, align 4, !dbg !7826
  %48 = load i32, i32* %n_sub, align 4, !dbg !7827
  %mul90 = mul i32 %47, %48, !dbg !7828
  %add91 = add i32 %46, %mul90, !dbg !7829
  %conv92 = zext i32 %add91 to i64, !dbg !7825
  %call93 = call dereferenceable(8) %"class.dealii::Tensor.29"* @_ZNSt6vectorIN6dealii6TensorILi3ELi1EEESaIS2_EEixEm(%"class.std::vector.24"* %45, i64 %conv92) #3, !dbg !7824
  %49 = load i32, i32* %d, align 4, !dbg !7830
  %call94 = call dereferenceable(8) %"class.dealii::Tensor.23"* @_ZN6dealii6TensorILi3ELi1EEixEj(%"class.dealii::Tensor.29"* %call93, i32 %49), !dbg !7824
  %50 = load i32, i32* %d178, align 4, !dbg !7831
  %51 = load i32, i32* %d, align 4, !dbg !7832
  %add95 = add i32 %50, %51, !dbg !7833
  %rem96 = urem i32 %add95, 1, !dbg !7834
  %call97 = call dereferenceable(8) %"class.dealii::Tensor"* @_ZN6dealii6TensorILi2ELi1EEixEj(%"class.dealii::Tensor.23"* %call94, i32 %rem96), !dbg !7824
  %52 = load i32, i32* %d2, align 4, !dbg !7835
  %53 = load i32, i32* %d, align 4, !dbg !7836
  %add98 = add i32 %52, %53, !dbg !7837
  %rem99 = urem i32 %add98, 1, !dbg !7838
  %call100 = call dereferenceable(8) double* @_ZN6dealii6TensorILi1ELi1EEixEj(%"class.dealii::Tensor"* %call97, i32 %rem99), !dbg !7824
  store double %44, double* %call100, align 8, !dbg !7839
  br label %for.inc101, !dbg !7824

for.inc101:                                       ; preds = %for.body84
  %54 = load i32, i32* %d2, align 4, !dbg !7840
  %inc102 = add i32 %54, 1, !dbg !7840
  store i32 %inc102, i32* %d2, align 4, !dbg !7840
  br label %for.cond82, !dbg !7841, !llvm.loop !7842

for.end103:                                       ; preds = %for.cond82
  br label %for.inc104, !dbg !7843

for.inc104:                                       ; preds = %for.end103
  %55 = load i32, i32* %d178, align 4, !dbg !7844
  %inc105 = add i32 %55, 1, !dbg !7844
  store i32 %inc105, i32* %d178, align 4, !dbg !7844
  br label %for.cond79, !dbg !7845, !llvm.loop !7846

for.end106:                                       ; preds = %for.cond79
  br label %for.inc107, !dbg !7847

for.inc107:                                       ; preds = %for.end106
  %56 = load i32, i32* %i71, align 4, !dbg !7848
  %inc108 = add i32 %56, 1, !dbg !7848
  store i32 %inc108, i32* %i71, align 4, !dbg !7848
  br label %for.cond72, !dbg !7849, !llvm.loop !7850

for.end109:                                       ; preds = %for.cond72
  br label %for.inc110, !dbg !7852

for.inc110:                                       ; preds = %for.end109
  %57 = load i32, i32* %d, align 4, !dbg !7853
  %inc111 = add i32 %57, 1, !dbg !7853
  store i32 %inc111, i32* %d, align 4, !dbg !7853
  br label %for.cond, !dbg !7854, !llvm.loop !7855

for.end112:                                       ; preds = %for.cond
  ret void, !dbg !7857
}

declare dso_local i32 @_ZNK6dealii22AnisotropicPolynomialsILi1EE1nEv(%"class.dealii::AnisotropicPolynomials"*) #1

; Function Attrs: noinline uwtable
define linkonce_odr dso_local void @_ZNSt6vectorIdSaIdEE6resizeEm(%"class.std::vector.8"* %this, i64 %__new_size) #0 comdat align 2 !dbg !7858 {
entry:
  %this.addr = alloca %"class.std::vector.8"*, align 8
  %__new_size.addr = alloca i64, align 8
  store %"class.std::vector.8"* %this, %"class.std::vector.8"** %this.addr, align 8
  call void @llvm.dbg.declare(metadata %"class.std::vector.8"** %this.addr, metadata !7859, metadata !DIExpression()), !dbg !7860
  store i64 %__new_size, i64* %__new_size.addr, align 8
  call void @llvm.dbg.declare(metadata i64* %__new_size.addr, metadata !7861, metadata !DIExpression()), !dbg !7862
  %this1 = load %"class.std::vector.8"*, %"class.std::vector.8"** %this.addr, align 8
  %0 = load i64, i64* %__new_size.addr, align 8, !dbg !7863
  %call = call i64 @_ZNKSt6vectorIdSaIdEE4sizeEv(%"class.std::vector.8"* %this1) #3, !dbg !7865
  %cmp = icmp ugt i64 %0, %call, !dbg !7866
  br i1 %cmp, label %if.then, label %if.else, !dbg !7867

if.then:                                          ; preds = %entry
  %1 = load i64, i64* %__new_size.addr, align 8, !dbg !7868
  %call2 = call i64 @_ZNKSt6vectorIdSaIdEE4sizeEv(%"class.std::vector.8"* %this1) #3, !dbg !7869
  %sub = sub i64 %1, %call2, !dbg !7870
  call void @_ZNSt6vectorIdSaIdEE17_M_default_appendEm(%"class.std::vector.8"* %this1, i64 %sub), !dbg !7871
  br label %if.end6, !dbg !7871

if.else:                                          ; preds = %entry
  %2 = load i64, i64* %__new_size.addr, align 8, !dbg !7872
  %call3 = call i64 @_ZNKSt6vectorIdSaIdEE4sizeEv(%"class.std::vector.8"* %this1) #3, !dbg !7874
  %cmp4 = icmp ult i64 %2, %call3, !dbg !7875
  br i1 %cmp4, label %if.then5, label %if.end, !dbg !7876

if.then5:                                         ; preds = %if.else
  %3 = bitcast %"class.std::vector.8"* %this1 to %"struct.std::_Vector_base.9"*, !dbg !7877
  %_M_impl = getelementptr inbounds %"struct.std::_Vector_base.9", %"struct.std::_Vector_base.9"* %3, i32 0, i32 0, !dbg !7877
  %4 = bitcast %"struct.std::_Vector_base<double, std::allocator<double> >::_Vector_impl"* %_M_impl to %"struct.std::_Vector_base<double, std::allocator<double> >::_Vector_impl_data"*, !dbg !7878
  %_M_start = getelementptr inbounds %"struct.std::_Vector_base<double, std::allocator<double> >::_Vector_impl_data", %"struct.std::_Vector_base<double, std::allocator<double> >::_Vector_impl_data"* %4, i32 0, i32 0, !dbg !7879
  %5 = load double*, double** %_M_start, align 8, !dbg !7879
  %6 = load i64, i64* %__new_size.addr, align 8, !dbg !7880
  %add.ptr = getelementptr inbounds double, double* %5, i64 %6, !dbg !7881
  call void @_ZNSt6vectorIdSaIdEE15_M_erase_at_endEPd(%"class.std::vector.8"* %this1, double* %add.ptr) #3, !dbg !7882
  br label %if.end, !dbg !7882

if.end:                                           ; preds = %if.then5, %if.else
  br label %if.end6

if.end6:                                          ; preds = %if.end, %if.then
  ret void, !dbg !7883
}

; Function Attrs: noinline nounwind uwtable
define linkonce_odr dso_local i64 @_ZNKSt6vectorIN6dealii6TensorILi1ELi1EEESaIS2_EE4sizeEv(%"class.std::vector.13"* %this) #5 comdat align 2 !dbg !7884 {
entry:
  %this.addr = alloca %"class.std::vector.13"*, align 8
  store %"class.std::vector.13"* %this, %"class.std::vector.13"** %this.addr, align 8
  call void @llvm.dbg.declare(metadata %"class.std::vector.13"** %this.addr, metadata !7885, metadata !DIExpression()), !dbg !7887
  %this1 = load %"class.std::vector.13"*, %"class.std::vector.13"** %this.addr, align 8
  %0 = bitcast %"class.std::vector.13"* %this1 to %"struct.std::_Vector_base.14"*, !dbg !7888
  %_M_impl = getelementptr inbounds %"struct.std::_Vector_base.14", %"struct.std::_Vector_base.14"* %0, i32 0, i32 0, !dbg !7888
  %1 = bitcast %"struct.std::_Vector_base<dealii::Tensor<1, 1>, std::allocator<dealii::Tensor<1, 1> > >::_Vector_impl"* %_M_impl to %"struct.std::_Vector_base<dealii::Tensor<1, 1>, std::allocator<dealii::Tensor<1, 1> > >::_Vector_impl_data"*, !dbg !7889
  %_M_finish = getelementptr inbounds %"struct.std::_Vector_base<dealii::Tensor<1, 1>, std::allocator<dealii::Tensor<1, 1> > >::_Vector_impl_data", %"struct.std::_Vector_base<dealii::Tensor<1, 1>, std::allocator<dealii::Tensor<1, 1> > >::_Vector_impl_data"* %1, i32 0, i32 1, !dbg !7890
  %2 = load %"class.dealii::Tensor"*, %"class.dealii::Tensor"** %_M_finish, align 8, !dbg !7890
  %3 = bitcast %"class.std::vector.13"* %this1 to %"struct.std::_Vector_base.14"*, !dbg !7891
  %_M_impl2 = getelementptr inbounds %"struct.std::_Vector_base.14", %"struct.std::_Vector_base.14"* %3, i32 0, i32 0, !dbg !7891
  %4 = bitcast %"struct.std::_Vector_base<dealii::Tensor<1, 1>, std::allocator<dealii::Tensor<1, 1> > >::_Vector_impl"* %_M_impl2 to %"struct.std::_Vector_base<dealii::Tensor<1, 1>, std::allocator<dealii::Tensor<1, 1> > >::_Vector_impl_data"*, !dbg !7892
  %_M_start = getelementptr inbounds %"struct.std::_Vector_base<dealii::Tensor<1, 1>, std::allocator<dealii::Tensor<1, 1> > >::_Vector_impl_data", %"struct.std::_Vector_base<dealii::Tensor<1, 1>, std::allocator<dealii::Tensor<1, 1> > >::_Vector_impl_data"* %4, i32 0, i32 0, !dbg !7893
  %5 = load %"class.dealii::Tensor"*, %"class.dealii::Tensor"** %_M_start, align 8, !dbg !7893
  %sub.ptr.lhs.cast = ptrtoint %"class.dealii::Tensor"* %2 to i64, !dbg !7894
  %sub.ptr.rhs.cast = ptrtoint %"class.dealii::Tensor"* %5 to i64, !dbg !7894
  %sub.ptr.sub = sub i64 %sub.ptr.lhs.cast, %sub.ptr.rhs.cast, !dbg !7894
  %sub.ptr.div = sdiv exact i64 %sub.ptr.sub, 8, !dbg !7894
  ret i64 %sub.ptr.div, !dbg !7895
}

; Function Attrs: noinline uwtable
define linkonce_odr dso_local void @_ZNSt6vectorIN6dealii6TensorILi1ELi1EEESaIS2_EE6resizeEm(%"class.std::vector.13"* %this, i64 %__new_size) #0 comdat align 2 !dbg !7896 {
entry:
  %this.addr = alloca %"class.std::vector.13"*, align 8
  %__new_size.addr = alloca i64, align 8
  store %"class.std::vector.13"* %this, %"class.std::vector.13"** %this.addr, align 8
  call void @llvm.dbg.declare(metadata %"class.std::vector.13"** %this.addr, metadata !7897, metadata !DIExpression()), !dbg !7898
  store i64 %__new_size, i64* %__new_size.addr, align 8
  call void @llvm.dbg.declare(metadata i64* %__new_size.addr, metadata !7899, metadata !DIExpression()), !dbg !7900
  %this1 = load %"class.std::vector.13"*, %"class.std::vector.13"** %this.addr, align 8
  %0 = load i64, i64* %__new_size.addr, align 8, !dbg !7901
  %call = call i64 @_ZNKSt6vectorIN6dealii6TensorILi1ELi1EEESaIS2_EE4sizeEv(%"class.std::vector.13"* %this1) #3, !dbg !7903
  %cmp = icmp ugt i64 %0, %call, !dbg !7904
  br i1 %cmp, label %if.then, label %if.else, !dbg !7905

if.then:                                          ; preds = %entry
  %1 = load i64, i64* %__new_size.addr, align 8, !dbg !7906
  %call2 = call i64 @_ZNKSt6vectorIN6dealii6TensorILi1ELi1EEESaIS2_EE4sizeEv(%"class.std::vector.13"* %this1) #3, !dbg !7907
  %sub = sub i64 %1, %call2, !dbg !7908
  call void @_ZNSt6vectorIN6dealii6TensorILi1ELi1EEESaIS2_EE17_M_default_appendEm(%"class.std::vector.13"* %this1, i64 %sub), !dbg !7909
  br label %if.end6, !dbg !7909

if.else:                                          ; preds = %entry
  %2 = load i64, i64* %__new_size.addr, align 8, !dbg !7910
  %call3 = call i64 @_ZNKSt6vectorIN6dealii6TensorILi1ELi1EEESaIS2_EE4sizeEv(%"class.std::vector.13"* %this1) #3, !dbg !7912
  %cmp4 = icmp ult i64 %2, %call3, !dbg !7913
  br i1 %cmp4, label %if.then5, label %if.end, !dbg !7914

if.then5:                                         ; preds = %if.else
  %3 = bitcast %"class.std::vector.13"* %this1 to %"struct.std::_Vector_base.14"*, !dbg !7915
  %_M_impl = getelementptr inbounds %"struct.std::_Vector_base.14", %"struct.std::_Vector_base.14"* %3, i32 0, i32 0, !dbg !7915
  %4 = bitcast %"struct.std::_Vector_base<dealii::Tensor<1, 1>, std::allocator<dealii::Tensor<1, 1> > >::_Vector_impl"* %_M_impl to %"struct.std::_Vector_base<dealii::Tensor<1, 1>, std::allocator<dealii::Tensor<1, 1> > >::_Vector_impl_data"*, !dbg !7916
  %_M_start = getelementptr inbounds %"struct.std::_Vector_base<dealii::Tensor<1, 1>, std::allocator<dealii::Tensor<1, 1> > >::_Vector_impl_data", %"struct.std::_Vector_base<dealii::Tensor<1, 1>, std::allocator<dealii::Tensor<1, 1> > >::_Vector_impl_data"* %4, i32 0, i32 0, !dbg !7917
  %5 = load %"class.dealii::Tensor"*, %"class.dealii::Tensor"** %_M_start, align 8, !dbg !7917
  %6 = load i64, i64* %__new_size.addr, align 8, !dbg !7918
  %add.ptr = getelementptr inbounds %"class.dealii::Tensor", %"class.dealii::Tensor"* %5, i64 %6, !dbg !7919
  call void @_ZNSt6vectorIN6dealii6TensorILi1ELi1EEESaIS2_EE15_M_erase_at_endEPS2_(%"class.std::vector.13"* %this1, %"class.dealii::Tensor"* %add.ptr) #3, !dbg !7920
  br label %if.end, !dbg !7920

if.end:                                           ; preds = %if.then5, %if.else
  br label %if.end6

if.end6:                                          ; preds = %if.end, %if.then
  ret void, !dbg !7921
}

; Function Attrs: noinline nounwind uwtable
define linkonce_odr dso_local i64 @_ZNKSt6vectorIN6dealii6TensorILi2ELi1EEESaIS2_EE4sizeEv(%"class.std::vector.18"* %this) #5 comdat align 2 !dbg !7922 {
entry:
  %this.addr = alloca %"class.std::vector.18"*, align 8
  store %"class.std::vector.18"* %this, %"class.std::vector.18"** %this.addr, align 8
  call void @llvm.dbg.declare(metadata %"class.std::vector.18"** %this.addr, metadata !7923, metadata !DIExpression()), !dbg !7925
  %this1 = load %"class.std::vector.18"*, %"class.std::vector.18"** %this.addr, align 8
  %0 = bitcast %"class.std::vector.18"* %this1 to %"struct.std::_Vector_base.19"*, !dbg !7926
  %_M_impl = getelementptr inbounds %"struct.std::_Vector_base.19", %"struct.std::_Vector_base.19"* %0, i32 0, i32 0, !dbg !7926
  %1 = bitcast %"struct.std::_Vector_base<dealii::Tensor<2, 1>, std::allocator<dealii::Tensor<2, 1> > >::_Vector_impl"* %_M_impl to %"struct.std::_Vector_base<dealii::Tensor<2, 1>, std::allocator<dealii::Tensor<2, 1> > >::_Vector_impl_data"*, !dbg !7927
  %_M_finish = getelementptr inbounds %"struct.std::_Vector_base<dealii::Tensor<2, 1>, std::allocator<dealii::Tensor<2, 1> > >::_Vector_impl_data", %"struct.std::_Vector_base<dealii::Tensor<2, 1>, std::allocator<dealii::Tensor<2, 1> > >::_Vector_impl_data"* %1, i32 0, i32 1, !dbg !7928
  %2 = load %"class.dealii::Tensor.23"*, %"class.dealii::Tensor.23"** %_M_finish, align 8, !dbg !7928
  %3 = bitcast %"class.std::vector.18"* %this1 to %"struct.std::_Vector_base.19"*, !dbg !7929
  %_M_impl2 = getelementptr inbounds %"struct.std::_Vector_base.19", %"struct.std::_Vector_base.19"* %3, i32 0, i32 0, !dbg !7929
  %4 = bitcast %"struct.std::_Vector_base<dealii::Tensor<2, 1>, std::allocator<dealii::Tensor<2, 1> > >::_Vector_impl"* %_M_impl2 to %"struct.std::_Vector_base<dealii::Tensor<2, 1>, std::allocator<dealii::Tensor<2, 1> > >::_Vector_impl_data"*, !dbg !7930
  %_M_start = getelementptr inbounds %"struct.std::_Vector_base<dealii::Tensor<2, 1>, std::allocator<dealii::Tensor<2, 1> > >::_Vector_impl_data", %"struct.std::_Vector_base<dealii::Tensor<2, 1>, std::allocator<dealii::Tensor<2, 1> > >::_Vector_impl_data"* %4, i32 0, i32 0, !dbg !7931
  %5 = load %"class.dealii::Tensor.23"*, %"class.dealii::Tensor.23"** %_M_start, align 8, !dbg !7931
  %sub.ptr.lhs.cast = ptrtoint %"class.dealii::Tensor.23"* %2 to i64, !dbg !7932
  %sub.ptr.rhs.cast = ptrtoint %"class.dealii::Tensor.23"* %5 to i64, !dbg !7932
  %sub.ptr.sub = sub i64 %sub.ptr.lhs.cast, %sub.ptr.rhs.cast, !dbg !7932
  %sub.ptr.div = sdiv exact i64 %sub.ptr.sub, 8, !dbg !7932
  ret i64 %sub.ptr.div, !dbg !7933
}

; Function Attrs: noinline uwtable
define linkonce_odr dso_local void @_ZNSt6vectorIN6dealii6TensorILi2ELi1EEESaIS2_EE6resizeEm(%"class.std::vector.18"* %this, i64 %__new_size) #0 comdat align 2 !dbg !7934 {
entry:
  %this.addr = alloca %"class.std::vector.18"*, align 8
  %__new_size.addr = alloca i64, align 8
  store %"class.std::vector.18"* %this, %"class.std::vector.18"** %this.addr, align 8
  call void @llvm.dbg.declare(metadata %"class.std::vector.18"** %this.addr, metadata !7935, metadata !DIExpression()), !dbg !7936
  store i64 %__new_size, i64* %__new_size.addr, align 8
  call void @llvm.dbg.declare(metadata i64* %__new_size.addr, metadata !7937, metadata !DIExpression()), !dbg !7938
  %this1 = load %"class.std::vector.18"*, %"class.std::vector.18"** %this.addr, align 8
  %0 = load i64, i64* %__new_size.addr, align 8, !dbg !7939
  %call = call i64 @_ZNKSt6vectorIN6dealii6TensorILi2ELi1EEESaIS2_EE4sizeEv(%"class.std::vector.18"* %this1) #3, !dbg !7941
  %cmp = icmp ugt i64 %0, %call, !dbg !7942
  br i1 %cmp, label %if.then, label %if.else, !dbg !7943

if.then:                                          ; preds = %entry
  %1 = load i64, i64* %__new_size.addr, align 8, !dbg !7944
  %call2 = call i64 @_ZNKSt6vectorIN6dealii6TensorILi2ELi1EEESaIS2_EE4sizeEv(%"class.std::vector.18"* %this1) #3, !dbg !7945
  %sub = sub i64 %1, %call2, !dbg !7946
  call void @_ZNSt6vectorIN6dealii6TensorILi2ELi1EEESaIS2_EE17_M_default_appendEm(%"class.std::vector.18"* %this1, i64 %sub), !dbg !7947
  br label %if.end6, !dbg !7947

if.else:                                          ; preds = %entry
  %2 = load i64, i64* %__new_size.addr, align 8, !dbg !7948
  %call3 = call i64 @_ZNKSt6vectorIN6dealii6TensorILi2ELi1EEESaIS2_EE4sizeEv(%"class.std::vector.18"* %this1) #3, !dbg !7950
  %cmp4 = icmp ult i64 %2, %call3, !dbg !7951
  br i1 %cmp4, label %if.then5, label %if.end, !dbg !7952

if.then5:                                         ; preds = %if.else
  %3 = bitcast %"class.std::vector.18"* %this1 to %"struct.std::_Vector_base.19"*, !dbg !7953
  %_M_impl = getelementptr inbounds %"struct.std::_Vector_base.19", %"struct.std::_Vector_base.19"* %3, i32 0, i32 0, !dbg !7953
  %4 = bitcast %"struct.std::_Vector_base<dealii::Tensor<2, 1>, std::allocator<dealii::Tensor<2, 1> > >::_Vector_impl"* %_M_impl to %"struct.std::_Vector_base<dealii::Tensor<2, 1>, std::allocator<dealii::Tensor<2, 1> > >::_Vector_impl_data"*, !dbg !7954
  %_M_start = getelementptr inbounds %"struct.std::_Vector_base<dealii::Tensor<2, 1>, std::allocator<dealii::Tensor<2, 1> > >::_Vector_impl_data", %"struct.std::_Vector_base<dealii::Tensor<2, 1>, std::allocator<dealii::Tensor<2, 1> > >::_Vector_impl_data"* %4, i32 0, i32 0, !dbg !7955
  %5 = load %"class.dealii::Tensor.23"*, %"class.dealii::Tensor.23"** %_M_start, align 8, !dbg !7955
  %6 = load i64, i64* %__new_size.addr, align 8, !dbg !7956
  %add.ptr = getelementptr inbounds %"class.dealii::Tensor.23", %"class.dealii::Tensor.23"* %5, i64 %6, !dbg !7957
  call void @_ZNSt6vectorIN6dealii6TensorILi2ELi1EEESaIS2_EE15_M_erase_at_endEPS2_(%"class.std::vector.18"* %this1, %"class.dealii::Tensor.23"* %add.ptr) #3, !dbg !7958
  br label %if.end, !dbg !7958

if.end:                                           ; preds = %if.then5, %if.else
  br label %if.end6

if.end6:                                          ; preds = %if.end, %if.then
  ret void, !dbg !7959
}

; Function Attrs: noinline nounwind uwtable
define linkonce_odr dso_local i64 @_ZNKSt6vectorIN6dealii6TensorILi3ELi1EEESaIS2_EE4sizeEv(%"class.std::vector.24"* %this) #5 comdat align 2 !dbg !7960 {
entry:
  %this.addr = alloca %"class.std::vector.24"*, align 8
  store %"class.std::vector.24"* %this, %"class.std::vector.24"** %this.addr, align 8
  call void @llvm.dbg.declare(metadata %"class.std::vector.24"** %this.addr, metadata !7961, metadata !DIExpression()), !dbg !7963
  %this1 = load %"class.std::vector.24"*, %"class.std::vector.24"** %this.addr, align 8
  %0 = bitcast %"class.std::vector.24"* %this1 to %"struct.std::_Vector_base.25"*, !dbg !7964
  %_M_impl = getelementptr inbounds %"struct.std::_Vector_base.25", %"struct.std::_Vector_base.25"* %0, i32 0, i32 0, !dbg !7964
  %1 = bitcast %"struct.std::_Vector_base<dealii::Tensor<3, 1>, std::allocator<dealii::Tensor<3, 1> > >::_Vector_impl"* %_M_impl to %"struct.std::_Vector_base<dealii::Tensor<3, 1>, std::allocator<dealii::Tensor<3, 1> > >::_Vector_impl_data"*, !dbg !7965
  %_M_finish = getelementptr inbounds %"struct.std::_Vector_base<dealii::Tensor<3, 1>, std::allocator<dealii::Tensor<3, 1> > >::_Vector_impl_data", %"struct.std::_Vector_base<dealii::Tensor<3, 1>, std::allocator<dealii::Tensor<3, 1> > >::_Vector_impl_data"* %1, i32 0, i32 1, !dbg !7966
  %2 = load %"class.dealii::Tensor.29"*, %"class.dealii::Tensor.29"** %_M_finish, align 8, !dbg !7966
  %3 = bitcast %"class.std::vector.24"* %this1 to %"struct.std::_Vector_base.25"*, !dbg !7967
  %_M_impl2 = getelementptr inbounds %"struct.std::_Vector_base.25", %"struct.std::_Vector_base.25"* %3, i32 0, i32 0, !dbg !7967
  %4 = bitcast %"struct.std::_Vector_base<dealii::Tensor<3, 1>, std::allocator<dealii::Tensor<3, 1> > >::_Vector_impl"* %_M_impl2 to %"struct.std::_Vector_base<dealii::Tensor<3, 1>, std::allocator<dealii::Tensor<3, 1> > >::_Vector_impl_data"*, !dbg !7968
  %_M_start = getelementptr inbounds %"struct.std::_Vector_base<dealii::Tensor<3, 1>, std::allocator<dealii::Tensor<3, 1> > >::_Vector_impl_data", %"struct.std::_Vector_base<dealii::Tensor<3, 1>, std::allocator<dealii::Tensor<3, 1> > >::_Vector_impl_data"* %4, i32 0, i32 0, !dbg !7969
  %5 = load %"class.dealii::Tensor.29"*, %"class.dealii::Tensor.29"** %_M_start, align 8, !dbg !7969
  %sub.ptr.lhs.cast = ptrtoint %"class.dealii::Tensor.29"* %2 to i64, !dbg !7970
  %sub.ptr.rhs.cast = ptrtoint %"class.dealii::Tensor.29"* %5 to i64, !dbg !7970
  %sub.ptr.sub = sub i64 %sub.ptr.lhs.cast, %sub.ptr.rhs.cast, !dbg !7970
  %sub.ptr.div = sdiv exact i64 %sub.ptr.sub, 8, !dbg !7970
  ret i64 %sub.ptr.div, !dbg !7971
}

; Function Attrs: noinline nounwind uwtable
define linkonce_odr dso_local void @_ZN6dealii5PointILi1EEC2Ev(%"class.dealii::Point"* %this) unnamed_addr #5 comdat align 2 !dbg !7972 {
entry:
  %this.addr = alloca %"class.dealii::Point"*, align 8
  store %"class.dealii::Point"* %this, %"class.dealii::Point"** %this.addr, align 8
  call void @llvm.dbg.declare(metadata %"class.dealii::Point"** %this.addr, metadata !7973, metadata !DIExpression()), !dbg !7975
  %this1 = load %"class.dealii::Point"*, %"class.dealii::Point"** %this.addr, align 8
  %0 = bitcast %"class.dealii::Point"* %this1 to %"class.dealii::Tensor"*, !dbg !7976
  call void @_ZN6dealii6TensorILi1ELi1EEC2Eb(%"class.dealii::Tensor"* %0, i1 zeroext true), !dbg !7977
  ret void, !dbg !7978
}

; Function Attrs: noinline nounwind uwtable
define linkonce_odr dso_local double @_ZNK6dealii5PointILi1EEclEj(%"class.dealii::Point"* %this, i32 %index) #5 comdat align 2 !dbg !7979 {
entry:
  %this.addr = alloca %"class.dealii::Point"*, align 8
  %index.addr = alloca i32, align 4
  store %"class.dealii::Point"* %this, %"class.dealii::Point"** %this.addr, align 8
  call void @llvm.dbg.declare(metadata %"class.dealii::Point"** %this.addr, metadata !7980, metadata !DIExpression()), !dbg !7982
  store i32 %index, i32* %index.addr, align 4
  call void @llvm.dbg.declare(metadata i32* %index.addr, metadata !7983, metadata !DIExpression()), !dbg !7984
  %this1 = load %"class.dealii::Point"*, %"class.dealii::Point"** %this.addr, align 8
  %0 = bitcast %"class.dealii::Point"* %this1 to %"class.dealii::Tensor"*, !dbg !7985
  %values = getelementptr inbounds %"class.dealii::Tensor", %"class.dealii::Tensor"* %0, i32 0, i32 0, !dbg !7985
  %1 = load i32, i32* %index.addr, align 4, !dbg !7986
  %idxprom = zext i32 %1 to i64, !dbg !7987
  %arrayidx = getelementptr inbounds [1 x double], [1 x double]* %values, i64 0, i64 %idxprom, !dbg !7987
  %2 = load double, double* %arrayidx, align 8, !dbg !7987
  ret double %2, !dbg !7988
}

; Function Attrs: noinline nounwind uwtable
define linkonce_odr dso_local dereferenceable(8) double* @_ZN6dealii5PointILi1EEclEj(%"class.dealii::Point"* %this, i32 %index) #5 comdat align 2 !dbg !7989 {
entry:
  %this.addr = alloca %"class.dealii::Point"*, align 8
  %index.addr = alloca i32, align 4
  store %"class.dealii::Point"* %this, %"class.dealii::Point"** %this.addr, align 8
  call void @llvm.dbg.declare(metadata %"class.dealii::Point"** %this.addr, metadata !7990, metadata !DIExpression()), !dbg !7991
  store i32 %index, i32* %index.addr, align 4
  call void @llvm.dbg.declare(metadata i32* %index.addr, metadata !7992, metadata !DIExpression()), !dbg !7993
  %this1 = load %"class.dealii::Point"*, %"class.dealii::Point"** %this.addr, align 8
  %0 = bitcast %"class.dealii::Point"* %this1 to %"class.dealii::Tensor"*, !dbg !7994
  %values = getelementptr inbounds %"class.dealii::Tensor", %"class.dealii::Tensor"* %0, i32 0, i32 0, !dbg !7994
  %1 = load i32, i32* %index.addr, align 4, !dbg !7995
  %idxprom = zext i32 %1 to i64, !dbg !7996
  %arrayidx = getelementptr inbounds [1 x double], [1 x double]* %values, i64 0, i64 %idxprom, !dbg !7996
  ret double* %arrayidx, !dbg !7997
}

declare dso_local void @_ZNK6dealii22AnisotropicPolynomialsILi1EE7computeERKNS_5PointILi1EEERSt6vectorIdSaIdEERS6_INS_6TensorILi1ELi1EEESaISB_EERS6_INSA_ILi2ELi1EEESaISF_EE(%"class.dealii::AnisotropicPolynomials"*, %"class.dealii::Point"* dereferenceable(8), %"class.std::vector.8"* dereferenceable(24), %"class.std::vector.13"* dereferenceable(24), %"class.std::vector.18"* dereferenceable(24)) #1

; Function Attrs: noinline nounwind uwtable
define linkonce_odr dso_local i64 @_ZNKSt6vectorIdSaIdEE4sizeEv(%"class.std::vector.8"* %this) #5 comdat align 2 !dbg !7998 {
entry:
  %this.addr = alloca %"class.std::vector.8"*, align 8
  store %"class.std::vector.8"* %this, %"class.std::vector.8"** %this.addr, align 8
  call void @llvm.dbg.declare(metadata %"class.std::vector.8"** %this.addr, metadata !7999, metadata !DIExpression()), !dbg !8001
  %this1 = load %"class.std::vector.8"*, %"class.std::vector.8"** %this.addr, align 8
  %0 = bitcast %"class.std::vector.8"* %this1 to %"struct.std::_Vector_base.9"*, !dbg !8002
  %_M_impl = getelementptr inbounds %"struct.std::_Vector_base.9", %"struct.std::_Vector_base.9"* %0, i32 0, i32 0, !dbg !8002
  %1 = bitcast %"struct.std::_Vector_base<double, std::allocator<double> >::_Vector_impl"* %_M_impl to %"struct.std::_Vector_base<double, std::allocator<double> >::_Vector_impl_data"*, !dbg !8003
  %_M_finish = getelementptr inbounds %"struct.std::_Vector_base<double, std::allocator<double> >::_Vector_impl_data", %"struct.std::_Vector_base<double, std::allocator<double> >::_Vector_impl_data"* %1, i32 0, i32 1, !dbg !8004
  %2 = load double*, double** %_M_finish, align 8, !dbg !8004
  %3 = bitcast %"class.std::vector.8"* %this1 to %"struct.std::_Vector_base.9"*, !dbg !8005
  %_M_impl2 = getelementptr inbounds %"struct.std::_Vector_base.9", %"struct.std::_Vector_base.9"* %3, i32 0, i32 0, !dbg !8005
  %4 = bitcast %"struct.std::_Vector_base<double, std::allocator<double> >::_Vector_impl"* %_M_impl2 to %"struct.std::_Vector_base<double, std::allocator<double> >::_Vector_impl_data"*, !dbg !8006
  %_M_start = getelementptr inbounds %"struct.std::_Vector_base<double, std::allocator<double> >::_Vector_impl_data", %"struct.std::_Vector_base<double, std::allocator<double> >::_Vector_impl_data"* %4, i32 0, i32 0, !dbg !8007
  %5 = load double*, double** %_M_start, align 8, !dbg !8007
  %sub.ptr.lhs.cast = ptrtoint double* %2 to i64, !dbg !8008
  %sub.ptr.rhs.cast = ptrtoint double* %5 to i64, !dbg !8008
  %sub.ptr.sub = sub i64 %sub.ptr.lhs.cast, %sub.ptr.rhs.cast, !dbg !8008
  %sub.ptr.div = sdiv exact i64 %sub.ptr.sub, 8, !dbg !8008
  ret i64 %sub.ptr.div, !dbg !8009
}

; Function Attrs: noinline nounwind uwtable
define linkonce_odr dso_local dereferenceable(8) double* @_ZNSt6vectorIdSaIdEEixEm(%"class.std::vector.8"* %this, i64 %__n) #5 comdat align 2 !dbg !8010 {
entry:
  %this.addr = alloca %"class.std::vector.8"*, align 8
  %__n.addr = alloca i64, align 8
  store %"class.std::vector.8"* %this, %"class.std::vector.8"** %this.addr, align 8
  call void @llvm.dbg.declare(metadata %"class.std::vector.8"** %this.addr, metadata !8011, metadata !DIExpression()), !dbg !8012
  store i64 %__n, i64* %__n.addr, align 8
  call void @llvm.dbg.declare(metadata i64* %__n.addr, metadata !8013, metadata !DIExpression()), !dbg !8014
  %this1 = load %"class.std::vector.8"*, %"class.std::vector.8"** %this.addr, align 8
  %0 = bitcast %"class.std::vector.8"* %this1 to %"struct.std::_Vector_base.9"*, !dbg !8015
  %_M_impl = getelementptr inbounds %"struct.std::_Vector_base.9", %"struct.std::_Vector_base.9"* %0, i32 0, i32 0, !dbg !8015
  %1 = bitcast %"struct.std::_Vector_base<double, std::allocator<double> >::_Vector_impl"* %_M_impl to %"struct.std::_Vector_base<double, std::allocator<double> >::_Vector_impl_data"*, !dbg !8016
  %_M_start = getelementptr inbounds %"struct.std::_Vector_base<double, std::allocator<double> >::_Vector_impl_data", %"struct.std::_Vector_base<double, std::allocator<double> >::_Vector_impl_data"* %1, i32 0, i32 0, !dbg !8017
  %2 = load double*, double** %_M_start, align 8, !dbg !8017
  %3 = load i64, i64* %__n.addr, align 8, !dbg !8018
  %add.ptr = getelementptr inbounds double, double* %2, i64 %3, !dbg !8019
  ret double* %add.ptr, !dbg !8020
}

; Function Attrs: noinline nounwind uwtable
define linkonce_odr dso_local dereferenceable(8) %"class.dealii::Tensor"* @_ZNSt6vectorIN6dealii6TensorILi1ELi1EEESaIS2_EEixEm(%"class.std::vector.13"* %this, i64 %__n) #5 comdat align 2 !dbg !8021 {
entry:
  %this.addr = alloca %"class.std::vector.13"*, align 8
  %__n.addr = alloca i64, align 8
  store %"class.std::vector.13"* %this, %"class.std::vector.13"** %this.addr, align 8
  call void @llvm.dbg.declare(metadata %"class.std::vector.13"** %this.addr, metadata !8022, metadata !DIExpression()), !dbg !8023
  store i64 %__n, i64* %__n.addr, align 8
  call void @llvm.dbg.declare(metadata i64* %__n.addr, metadata !8024, metadata !DIExpression()), !dbg !8025
  %this1 = load %"class.std::vector.13"*, %"class.std::vector.13"** %this.addr, align 8
  %0 = bitcast %"class.std::vector.13"* %this1 to %"struct.std::_Vector_base.14"*, !dbg !8026
  %_M_impl = getelementptr inbounds %"struct.std::_Vector_base.14", %"struct.std::_Vector_base.14"* %0, i32 0, i32 0, !dbg !8026
  %1 = bitcast %"struct.std::_Vector_base<dealii::Tensor<1, 1>, std::allocator<dealii::Tensor<1, 1> > >::_Vector_impl"* %_M_impl to %"struct.std::_Vector_base<dealii::Tensor<1, 1>, std::allocator<dealii::Tensor<1, 1> > >::_Vector_impl_data"*, !dbg !8027
  %_M_start = getelementptr inbounds %"struct.std::_Vector_base<dealii::Tensor<1, 1>, std::allocator<dealii::Tensor<1, 1> > >::_Vector_impl_data", %"struct.std::_Vector_base<dealii::Tensor<1, 1>, std::allocator<dealii::Tensor<1, 1> > >::_Vector_impl_data"* %1, i32 0, i32 0, !dbg !8028
  %2 = load %"class.dealii::Tensor"*, %"class.dealii::Tensor"** %_M_start, align 8, !dbg !8028
  %3 = load i64, i64* %__n.addr, align 8, !dbg !8029
  %add.ptr = getelementptr inbounds %"class.dealii::Tensor", %"class.dealii::Tensor"* %2, i64 %3, !dbg !8030
  ret %"class.dealii::Tensor"* %add.ptr, !dbg !8031
}

; Function Attrs: noinline nounwind uwtable
define linkonce_odr dso_local dereferenceable(8) double* @_ZN6dealii6TensorILi1ELi1EEixEj(%"class.dealii::Tensor"* %this, i32 %index) #5 comdat align 2 !dbg !8032 {
entry:
  %this.addr = alloca %"class.dealii::Tensor"*, align 8
  %index.addr = alloca i32, align 4
  store %"class.dealii::Tensor"* %this, %"class.dealii::Tensor"** %this.addr, align 8
  call void @llvm.dbg.declare(metadata %"class.dealii::Tensor"** %this.addr, metadata !8033, metadata !DIExpression()), !dbg !8034
  store i32 %index, i32* %index.addr, align 4
  call void @llvm.dbg.declare(metadata i32* %index.addr, metadata !8035, metadata !DIExpression()), !dbg !8036
  %this1 = load %"class.dealii::Tensor"*, %"class.dealii::Tensor"** %this.addr, align 8
  %values = getelementptr inbounds %"class.dealii::Tensor", %"class.dealii::Tensor"* %this1, i32 0, i32 0, !dbg !8037
  %0 = load i32, i32* %index.addr, align 4, !dbg !8038
  %idxprom = zext i32 %0 to i64, !dbg !8037
  %arrayidx = getelementptr inbounds [1 x double], [1 x double]* %values, i64 0, i64 %idxprom, !dbg !8037
  ret double* %arrayidx, !dbg !8039
}

; Function Attrs: noinline nounwind uwtable
define linkonce_odr dso_local dereferenceable(8) %"class.dealii::Tensor.23"* @_ZNSt6vectorIN6dealii6TensorILi2ELi1EEESaIS2_EEixEm(%"class.std::vector.18"* %this, i64 %__n) #5 comdat align 2 !dbg !8040 {
entry:
  %this.addr = alloca %"class.std::vector.18"*, align 8
  %__n.addr = alloca i64, align 8
  store %"class.std::vector.18"* %this, %"class.std::vector.18"** %this.addr, align 8
  call void @llvm.dbg.declare(metadata %"class.std::vector.18"** %this.addr, metadata !8041, metadata !DIExpression()), !dbg !8042
  store i64 %__n, i64* %__n.addr, align 8
  call void @llvm.dbg.declare(metadata i64* %__n.addr, metadata !8043, metadata !DIExpression()), !dbg !8044
  %this1 = load %"class.std::vector.18"*, %"class.std::vector.18"** %this.addr, align 8
  %0 = bitcast %"class.std::vector.18"* %this1 to %"struct.std::_Vector_base.19"*, !dbg !8045
  %_M_impl = getelementptr inbounds %"struct.std::_Vector_base.19", %"struct.std::_Vector_base.19"* %0, i32 0, i32 0, !dbg !8045
  %1 = bitcast %"struct.std::_Vector_base<dealii::Tensor<2, 1>, std::allocator<dealii::Tensor<2, 1> > >::_Vector_impl"* %_M_impl to %"struct.std::_Vector_base<dealii::Tensor<2, 1>, std::allocator<dealii::Tensor<2, 1> > >::_Vector_impl_data"*, !dbg !8046
  %_M_start = getelementptr inbounds %"struct.std::_Vector_base<dealii::Tensor<2, 1>, std::allocator<dealii::Tensor<2, 1> > >::_Vector_impl_data", %"struct.std::_Vector_base<dealii::Tensor<2, 1>, std::allocator<dealii::Tensor<2, 1> > >::_Vector_impl_data"* %1, i32 0, i32 0, !dbg !8047
  %2 = load %"class.dealii::Tensor.23"*, %"class.dealii::Tensor.23"** %_M_start, align 8, !dbg !8047
  %3 = load i64, i64* %__n.addr, align 8, !dbg !8048
  %add.ptr = getelementptr inbounds %"class.dealii::Tensor.23", %"class.dealii::Tensor.23"* %2, i64 %3, !dbg !8049
  ret %"class.dealii::Tensor.23"* %add.ptr, !dbg !8050
}

; Function Attrs: noinline nounwind uwtable
define linkonce_odr dso_local dereferenceable(8) %"class.dealii::Tensor"* @_ZN6dealii6TensorILi2ELi1EEixEj(%"class.dealii::Tensor.23"* %this, i32 %i) #5 comdat align 2 !dbg !8051 {
entry:
  %this.addr = alloca %"class.dealii::Tensor.23"*, align 8
  %i.addr = alloca i32, align 4
  store %"class.dealii::Tensor.23"* %this, %"class.dealii::Tensor.23"** %this.addr, align 8
  call void @llvm.dbg.declare(metadata %"class.dealii::Tensor.23"** %this.addr, metadata !8052, metadata !DIExpression()), !dbg !8053
  store i32 %i, i32* %i.addr, align 4
  call void @llvm.dbg.declare(metadata i32* %i.addr, metadata !8054, metadata !DIExpression()), !dbg !8055
  %this1 = load %"class.dealii::Tensor.23"*, %"class.dealii::Tensor.23"** %this.addr, align 8
  %subtensor = getelementptr inbounds %"class.dealii::Tensor.23", %"class.dealii::Tensor.23"* %this1, i32 0, i32 0, !dbg !8056
  %0 = load i32, i32* %i.addr, align 4, !dbg !8057
  %idxprom = zext i32 %0 to i64, !dbg !8056
  %arrayidx = getelementptr inbounds [1 x %"class.dealii::Tensor"], [1 x %"class.dealii::Tensor"]* %subtensor, i64 0, i64 %idxprom, !dbg !8056
  ret %"class.dealii::Tensor"* %arrayidx, !dbg !8058
}

; Function Attrs: noinline nounwind uwtable
define linkonce_odr dso_local dereferenceable(8) %"class.dealii::Tensor.29"* @_ZNSt6vectorIN6dealii6TensorILi3ELi1EEESaIS2_EEixEm(%"class.std::vector.24"* %this, i64 %__n) #5 comdat align 2 !dbg !8059 {
entry:
  %this.addr = alloca %"class.std::vector.24"*, align 8
  %__n.addr = alloca i64, align 8
  store %"class.std::vector.24"* %this, %"class.std::vector.24"** %this.addr, align 8
  call void @llvm.dbg.declare(metadata %"class.std::vector.24"** %this.addr, metadata !8060, metadata !DIExpression()), !dbg !8062
  store i64 %__n, i64* %__n.addr, align 8
  call void @llvm.dbg.declare(metadata i64* %__n.addr, metadata !8063, metadata !DIExpression()), !dbg !8064
  %this1 = load %"class.std::vector.24"*, %"class.std::vector.24"** %this.addr, align 8
  %0 = bitcast %"class.std::vector.24"* %this1 to %"struct.std::_Vector_base.25"*, !dbg !8065
  %_M_impl = getelementptr inbounds %"struct.std::_Vector_base.25", %"struct.std::_Vector_base.25"* %0, i32 0, i32 0, !dbg !8065
  %1 = bitcast %"struct.std::_Vector_base<dealii::Tensor<3, 1>, std::allocator<dealii::Tensor<3, 1> > >::_Vector_impl"* %_M_impl to %"struct.std::_Vector_base<dealii::Tensor<3, 1>, std::allocator<dealii::Tensor<3, 1> > >::_Vector_impl_data"*, !dbg !8066
  %_M_start = getelementptr inbounds %"struct.std::_Vector_base<dealii::Tensor<3, 1>, std::allocator<dealii::Tensor<3, 1> > >::_Vector_impl_data", %"struct.std::_Vector_base<dealii::Tensor<3, 1>, std::allocator<dealii::Tensor<3, 1> > >::_Vector_impl_data"* %1, i32 0, i32 0, !dbg !8067
  %2 = load %"class.dealii::Tensor.29"*, %"class.dealii::Tensor.29"** %_M_start, align 8, !dbg !8067
  %3 = load i64, i64* %__n.addr, align 8, !dbg !8068
  %add.ptr = getelementptr inbounds %"class.dealii::Tensor.29", %"class.dealii::Tensor.29"* %2, i64 %3, !dbg !8069
  ret %"class.dealii::Tensor.29"* %add.ptr, !dbg !8070
}

; Function Attrs: noinline nounwind uwtable
define linkonce_odr dso_local dereferenceable(8) %"class.dealii::Tensor.23"* @_ZN6dealii6TensorILi3ELi1EEixEj(%"class.dealii::Tensor.29"* %this, i32 %i) #5 comdat align 2 !dbg !8071 {
entry:
  %this.addr = alloca %"class.dealii::Tensor.29"*, align 8
  %i.addr = alloca i32, align 4
  store %"class.dealii::Tensor.29"* %this, %"class.dealii::Tensor.29"** %this.addr, align 8
  call void @llvm.dbg.declare(metadata %"class.dealii::Tensor.29"** %this.addr, metadata !8072, metadata !DIExpression()), !dbg !8073
  store i32 %i, i32* %i.addr, align 4
  call void @llvm.dbg.declare(metadata i32* %i.addr, metadata !8074, metadata !DIExpression()), !dbg !8075
  %this1 = load %"class.dealii::Tensor.29"*, %"class.dealii::Tensor.29"** %this.addr, align 8
  %subtensor = getelementptr inbounds %"class.dealii::Tensor.29", %"class.dealii::Tensor.29"* %this1, i32 0, i32 0, !dbg !8076
  %0 = load i32, i32* %i.addr, align 4, !dbg !8077
  %idxprom = zext i32 %0 to i64, !dbg !8076
  %arrayidx = getelementptr inbounds [1 x %"class.dealii::Tensor.23"], [1 x %"class.dealii::Tensor.23"]* %subtensor, i64 0, i64 %idxprom, !dbg !8076
  ret %"class.dealii::Tensor.23"* %arrayidx, !dbg !8078
}

; Function Attrs: noinline nounwind uwtable
define weak_odr dso_local i32 @_ZNK6dealii14PolynomialsABFILi1EE1nEv(%"class.dealii::PolynomialsABF"* %this) #5 comdat align 2 !dbg !8079 {
entry:
  %this.addr = alloca %"class.dealii::PolynomialsABF"*, align 8
  store %"class.dealii::PolynomialsABF"* %this, %"class.dealii::PolynomialsABF"** %this.addr, align 8
  call void @llvm.dbg.declare(metadata %"class.dealii::PolynomialsABF"** %this.addr, metadata !8080, metadata !DIExpression()), !dbg !8081
  %this1 = load %"class.dealii::PolynomialsABF"*, %"class.dealii::PolynomialsABF"** %this.addr, align 8
  %n_pols = getelementptr inbounds %"class.dealii::PolynomialsABF", %"class.dealii::PolynomialsABF"* %this1, i32 0, i32 2, !dbg !8082
  %0 = load i32, i32* %n_pols, align 8, !dbg !8082
  ret i32 %0, !dbg !8083
}

; Function Attrs: noinline nounwind uwtable
define weak_odr dso_local i32 @_ZNK6dealii14PolynomialsABFILi1EE6degreeEv(%"class.dealii::PolynomialsABF"* %this) #5 comdat align 2 !dbg !8084 {
entry:
  %this.addr = alloca %"class.dealii::PolynomialsABF"*, align 8
  store %"class.dealii::PolynomialsABF"* %this, %"class.dealii::PolynomialsABF"** %this.addr, align 8
  call void @llvm.dbg.declare(metadata %"class.dealii::PolynomialsABF"** %this.addr, metadata !8085, metadata !DIExpression()), !dbg !8086
  %this1 = load %"class.dealii::PolynomialsABF"*, %"class.dealii::PolynomialsABF"** %this.addr, align 8
  %my_degree = getelementptr inbounds %"class.dealii::PolynomialsABF", %"class.dealii::PolynomialsABF"* %this1, i32 0, i32 0, !dbg !8087
  %0 = load i32, i32* %my_degree, align 8, !dbg !8087
  ret i32 %0, !dbg !8088
}

; Function Attrs: noinline uwtable
define weak_odr dso_local void @_ZN6dealii14PolynomialsABFILi2EEC2Ej(%"class.dealii::PolynomialsABF.30"* %this, i32 %k) unnamed_addr #0 comdat($_ZN6dealii14PolynomialsABFILi2EEC5Ej) align 2 personality i8* bitcast (i32 (...)* @__gxx_personality_v0 to i8*) !dbg !8089 {
entry:
  %this.addr = alloca %"class.dealii::PolynomialsABF.30"*, align 8
  %k.addr = alloca i32, align 4
  %pols = alloca %"class.std::vector", align 8
  %ref.tmp = alloca %"class.std::allocator", align 1
  %exn.slot = alloca i8*
  %ehselector.slot = alloca i32
  %ref.tmp2 = alloca %"class.std::vector.0", align 8
  %d = alloca i32, align 4
  %ref.tmp8 = alloca %"class.std::vector.0", align 8
  %d12 = alloca i32, align 4
  %ref.tmp16 = alloca %"class.std::vector.0", align 8
  store %"class.dealii::PolynomialsABF.30"* %this, %"class.dealii::PolynomialsABF.30"** %this.addr, align 8
  call void @llvm.dbg.declare(metadata %"class.dealii::PolynomialsABF.30"** %this.addr, metadata !8090, metadata !DIExpression()), !dbg !8092
  store i32 %k, i32* %k.addr, align 4
  call void @llvm.dbg.declare(metadata i32* %k.addr, metadata !8093, metadata !DIExpression()), !dbg !8094
  %this1 = load %"class.dealii::PolynomialsABF.30"*, %"class.dealii::PolynomialsABF.30"** %this.addr, align 8
  %my_degree = getelementptr inbounds %"class.dealii::PolynomialsABF.30", %"class.dealii::PolynomialsABF.30"* %this1, i32 0, i32 0, !dbg !8095
  %0 = load i32, i32* %k.addr, align 4, !dbg !8096
  store i32 %0, i32* %my_degree, align 8, !dbg !8095
  %n_pols = getelementptr inbounds %"class.dealii::PolynomialsABF.30", %"class.dealii::PolynomialsABF.30"* %this1, i32 0, i32 2, !dbg !8097
  %1 = load i32, i32* %k.addr, align 4, !dbg !8098
  %call = call i32 @_ZN6dealii14PolynomialsABFILi2EE14compute_n_polsEj(i32 %1), !dbg !8099
  store i32 %call, i32* %n_pols, align 8, !dbg !8097
  %p_values = getelementptr inbounds %"class.dealii::PolynomialsABF.30", %"class.dealii::PolynomialsABF.30"* %this1, i32 0, i32 3, !dbg !8100
  call void @_ZNSt6vectorIdSaIdEEC2Ev(%"class.std::vector.8"* %p_values) #3, !dbg !8100
  %p_grads = getelementptr inbounds %"class.dealii::PolynomialsABF.30", %"class.dealii::PolynomialsABF.30"* %this1, i32 0, i32 4, !dbg !8100
  call void @_ZNSt6vectorIN6dealii6TensorILi1ELi2EEESaIS2_EEC2Ev(%"class.std::vector.33"* %p_grads) #3, !dbg !8100
  %p_grad_grads = getelementptr inbounds %"class.dealii::PolynomialsABF.30", %"class.dealii::PolynomialsABF.30"* %this1, i32 0, i32 5, !dbg !8100
  call void @_ZNSt6vectorIN6dealii6TensorILi2ELi2EEESaIS2_EEC2Ev(%"class.std::vector.39"* %p_grad_grads) #3, !dbg !8100
  call void @llvm.dbg.declare(metadata %"class.std::vector"* %pols, metadata !8102, metadata !DIExpression()), !dbg !8105
  call void @_ZNSaISt6vectorIN6dealii11Polynomials10PolynomialIdEESaIS3_EEEC2Ev(%"class.std::allocator"* %ref.tmp) #3, !dbg !8105
  invoke void @_ZNSt6vectorIS_IN6dealii11Polynomials10PolynomialIdEESaIS3_EESaIS5_EEC2EmRKS6_(%"class.std::vector"* %pols, i64 2, %"class.std::allocator"* dereferenceable(1) %ref.tmp)
          to label %invoke.cont unwind label %lpad, !dbg !8105

invoke.cont:                                      ; preds = %entry
  call void @_ZNSaISt6vectorIN6dealii11Polynomials10PolynomialIdEESaIS3_EEED2Ev(%"class.std::allocator"* %ref.tmp) #3, !dbg !8105
  %2 = load i32, i32* %k.addr, align 4, !dbg !8106
  %add = add i32 %2, 2, !dbg !8107
  invoke void @_ZN6dealii11Polynomials19LagrangeEquidistant23generate_complete_basisEj(%"class.std::vector.0"* sret %ref.tmp2, i32 %add)
          to label %invoke.cont4 unwind label %lpad3, !dbg !8108

invoke.cont4:                                     ; preds = %invoke.cont
  %call5 = call dereferenceable(24) %"class.std::vector.0"* @_ZNSt6vectorIS_IN6dealii11Polynomials10PolynomialIdEESaIS3_EESaIS5_EEixEm(%"class.std::vector"* %pols, i64 0) #3, !dbg !8109
  %call6 = call dereferenceable(24) %"class.std::vector.0"* @_ZNSt6vectorIN6dealii11Polynomials10PolynomialIdEESaIS3_EEaSEOS5_(%"class.std::vector.0"* %call5, %"class.std::vector.0"* dereferenceable(24) %ref.tmp2) #3, !dbg !8110
  call void @_ZNSt6vectorIN6dealii11Polynomials10PolynomialIdEESaIS3_EED2Ev(%"class.std::vector.0"* %ref.tmp2) #3, !dbg !8109
  %3 = load i32, i32* %k.addr, align 4, !dbg !8111
  %cmp = icmp eq i32 %3, 0, !dbg !8113
  br i1 %cmp, label %if.then, label %if.else, !dbg !8114

if.then:                                          ; preds = %invoke.cont4
  call void @llvm.dbg.declare(metadata i32* %d, metadata !8115, metadata !DIExpression()), !dbg !8117
  store i32 1, i32* %d, align 4, !dbg !8117
  br label %for.cond, !dbg !8118

for.cond:                                         ; preds = %for.inc, %if.then
  %4 = load i32, i32* %d, align 4, !dbg !8119
  %cmp7 = icmp ult i32 %4, 2, !dbg !8121
  br i1 %cmp7, label %for.body, label %for.end, !dbg !8122

for.body:                                         ; preds = %for.cond
  invoke void @_ZN6dealii11Polynomials8Legendre23generate_complete_basisEj(%"class.std::vector.0"* sret %ref.tmp8, i32 0)
          to label %invoke.cont9 unwind label %lpad3, !dbg !8123

invoke.cont9:                                     ; preds = %for.body
  %5 = load i32, i32* %d, align 4, !dbg !8124
  %conv = zext i32 %5 to i64, !dbg !8124
  %call10 = call dereferenceable(24) %"class.std::vector.0"* @_ZNSt6vectorIS_IN6dealii11Polynomials10PolynomialIdEESaIS3_EESaIS5_EEixEm(%"class.std::vector"* %pols, i64 %conv) #3, !dbg !8125
  %call11 = call dereferenceable(24) %"class.std::vector.0"* @_ZNSt6vectorIN6dealii11Polynomials10PolynomialIdEESaIS3_EEaSEOS5_(%"class.std::vector.0"* %call10, %"class.std::vector.0"* dereferenceable(24) %ref.tmp8) #3, !dbg !8126
  call void @_ZNSt6vectorIN6dealii11Polynomials10PolynomialIdEESaIS3_EED2Ev(%"class.std::vector.0"* %ref.tmp8) #3, !dbg !8125
  br label %for.inc, !dbg !8125

for.inc:                                          ; preds = %invoke.cont9
  %6 = load i32, i32* %d, align 4, !dbg !8127
  %inc = add i32 %6, 1, !dbg !8127
  store i32 %inc, i32* %d, align 4, !dbg !8127
  br label %for.cond, !dbg !8128, !llvm.loop !8129

lpad:                                             ; preds = %entry
  %7 = landingpad { i8*, i32 }
          cleanup, !dbg !8131
  %8 = extractvalue { i8*, i32 } %7, 0, !dbg !8131
  store i8* %8, i8** %exn.slot, align 8, !dbg !8131
  %9 = extractvalue { i8*, i32 } %7, 1, !dbg !8131
  store i32 %9, i32* %ehselector.slot, align 4, !dbg !8131
  call void @_ZNSaISt6vectorIN6dealii11Polynomials10PolynomialIdEESaIS3_EEED2Ev(%"class.std::allocator"* %ref.tmp) #3, !dbg !8105
  br label %ehcleanup28, !dbg !8105

lpad3:                                            ; preds = %if.end, %for.body15, %for.body, %invoke.cont
  %10 = landingpad { i8*, i32 }
          cleanup, !dbg !8131
  %11 = extractvalue { i8*, i32 } %10, 0, !dbg !8131
  store i8* %11, i8** %exn.slot, align 8, !dbg !8131
  %12 = extractvalue { i8*, i32 } %10, 1, !dbg !8131
  store i32 %12, i32* %ehselector.slot, align 4, !dbg !8131
  br label %ehcleanup, !dbg !8131

for.end:                                          ; preds = %for.cond
  br label %if.end, !dbg !8130

if.else:                                          ; preds = %invoke.cont4
  call void @llvm.dbg.declare(metadata i32* %d12, metadata !8132, metadata !DIExpression()), !dbg !8134
  store i32 1, i32* %d12, align 4, !dbg !8134
  br label %for.cond13, !dbg !8135

for.cond13:                                       ; preds = %for.inc21, %if.else
  %13 = load i32, i32* %d12, align 4, !dbg !8136
  %cmp14 = icmp ult i32 %13, 2, !dbg !8138
  br i1 %cmp14, label %for.body15, label %for.end23, !dbg !8139

for.body15:                                       ; preds = %for.cond13
  %14 = load i32, i32* %k.addr, align 4, !dbg !8140
  invoke void @_ZN6dealii11Polynomials19LagrangeEquidistant23generate_complete_basisEj(%"class.std::vector.0"* sret %ref.tmp16, i32 %14)
          to label %invoke.cont17 unwind label %lpad3, !dbg !8141

invoke.cont17:                                    ; preds = %for.body15
  %15 = load i32, i32* %d12, align 4, !dbg !8142
  %conv18 = zext i32 %15 to i64, !dbg !8142
  %call19 = call dereferenceable(24) %"class.std::vector.0"* @_ZNSt6vectorIS_IN6dealii11Polynomials10PolynomialIdEESaIS3_EESaIS5_EEixEm(%"class.std::vector"* %pols, i64 %conv18) #3, !dbg !8143
  %call20 = call dereferenceable(24) %"class.std::vector.0"* @_ZNSt6vectorIN6dealii11Polynomials10PolynomialIdEESaIS3_EEaSEOS5_(%"class.std::vector.0"* %call19, %"class.std::vector.0"* dereferenceable(24) %ref.tmp16) #3, !dbg !8144
  call void @_ZNSt6vectorIN6dealii11Polynomials10PolynomialIdEESaIS3_EED2Ev(%"class.std::vector.0"* %ref.tmp16) #3, !dbg !8143
  br label %for.inc21, !dbg !8143

for.inc21:                                        ; preds = %invoke.cont17
  %16 = load i32, i32* %d12, align 4, !dbg !8145
  %inc22 = add i32 %16, 1, !dbg !8145
  store i32 %inc22, i32* %d12, align 4, !dbg !8145
  br label %for.cond13, !dbg !8146, !llvm.loop !8147

for.end23:                                        ; preds = %for.cond13
  br label %if.end

if.end:                                           ; preds = %for.end23, %for.end
  %call25 = invoke i8* @_Znwm(i64 32) #12
          to label %invoke.cont24 unwind label %lpad3, !dbg !8149

invoke.cont24:                                    ; preds = %if.end
  %17 = bitcast i8* %call25 to %"class.dealii::AnisotropicPolynomials.31"*, !dbg !8149
  invoke void @_ZN6dealii22AnisotropicPolynomialsILi2EEC1ERKSt6vectorIS2_INS_11Polynomials10PolynomialIdEESaIS5_EESaIS7_EE(%"class.dealii::AnisotropicPolynomials.31"* %17, %"class.std::vector"* dereferenceable(24) %pols)
          to label %invoke.cont27 unwind label %lpad26, !dbg !8150

invoke.cont27:                                    ; preds = %invoke.cont24
  %polynomial_space = getelementptr inbounds %"class.dealii::PolynomialsABF.30", %"class.dealii::PolynomialsABF.30"* %this1, i32 0, i32 1, !dbg !8151
  store %"class.dealii::AnisotropicPolynomials.31"* %17, %"class.dealii::AnisotropicPolynomials.31"** %polynomial_space, align 8, !dbg !8152
  call void @_ZNSt6vectorIS_IN6dealii11Polynomials10PolynomialIdEESaIS3_EESaIS5_EED2Ev(%"class.std::vector"* %pols) #3, !dbg !8153
  ret void, !dbg !8153

lpad26:                                           ; preds = %invoke.cont24
  %18 = landingpad { i8*, i32 }
          cleanup, !dbg !8131
  %19 = extractvalue { i8*, i32 } %18, 0, !dbg !8131
  store i8* %19, i8** %exn.slot, align 8, !dbg !8131
  %20 = extractvalue { i8*, i32 } %18, 1, !dbg !8131
  store i32 %20, i32* %ehselector.slot, align 4, !dbg !8131
  call void @_ZdlPv(i8* %call25) #13, !dbg !8149
  br label %ehcleanup, !dbg !8149

ehcleanup:                                        ; preds = %lpad26, %lpad3
  call void @_ZNSt6vectorIS_IN6dealii11Polynomials10PolynomialIdEESaIS3_EESaIS5_EED2Ev(%"class.std::vector"* %pols) #3, !dbg !8153
  br label %ehcleanup28, !dbg !8153

ehcleanup28:                                      ; preds = %ehcleanup, %lpad
  call void @_ZNSt6vectorIN6dealii6TensorILi2ELi2EEESaIS2_EED2Ev(%"class.std::vector.39"* %p_grad_grads) #3, !dbg !8131
  call void @_ZNSt6vectorIN6dealii6TensorILi1ELi2EEESaIS2_EED2Ev(%"class.std::vector.33"* %p_grads) #3, !dbg !8131
  call void @_ZNSt6vectorIdSaIdEED2Ev(%"class.std::vector.8"* %p_values) #3, !dbg !8131
  br label %eh.resume, !dbg !8131

eh.resume:                                        ; preds = %ehcleanup28
  %exn = load i8*, i8** %exn.slot, align 8, !dbg !8131
  %sel = load i32, i32* %ehselector.slot, align 4, !dbg !8131
  %lpad.val = insertvalue { i8*, i32 } undef, i8* %exn, 0, !dbg !8131
  %lpad.val31 = insertvalue { i8*, i32 } %lpad.val, i32 %sel, 1, !dbg !8131
  resume { i8*, i32 } %lpad.val31, !dbg !8131
}

; Function Attrs: noinline nounwind uwtable
define weak_odr dso_local i32 @_ZN6dealii14PolynomialsABFILi2EE14compute_n_polsEj(i32 %k) #5 comdat align 2 !dbg !8154 {
entry:
  %k.addr = alloca i32, align 4
  store i32 %k, i32* %k.addr, align 4
  call void @llvm.dbg.declare(metadata i32* %k.addr, metadata !8155, metadata !DIExpression()), !dbg !8156
  %0 = load i32, i32* %k.addr, align 4, !dbg !8157
  %add = add i32 %0, 1, !dbg !8159
  %mul = mul i32 2, %add, !dbg !8160
  %1 = load i32, i32* %k.addr, align 4, !dbg !8161
  %add1 = add i32 %1, 3, !dbg !8162
  %mul2 = mul i32 %mul, %add1, !dbg !8163
  ret i32 %mul2, !dbg !8164
}

; Function Attrs: noinline nounwind uwtable
define linkonce_odr dso_local void @_ZNSt6vectorIN6dealii6TensorILi1ELi2EEESaIS2_EEC2Ev(%"class.std::vector.33"* %this) unnamed_addr #5 comdat align 2 !dbg !8165 {
entry:
  %this.addr = alloca %"class.std::vector.33"*, align 8
  store %"class.std::vector.33"* %this, %"class.std::vector.33"** %this.addr, align 8
  call void @llvm.dbg.declare(metadata %"class.std::vector.33"** %this.addr, metadata !8166, metadata !DIExpression()), !dbg !8168
  %this1 = load %"class.std::vector.33"*, %"class.std::vector.33"** %this.addr, align 8
  %0 = bitcast %"class.std::vector.33"* %this1 to %"struct.std::_Vector_base.34"*, !dbg !8169
  call void @_ZNSt12_Vector_baseIN6dealii6TensorILi1ELi2EEESaIS2_EEC2Ev(%"struct.std::_Vector_base.34"* %0) #3, !dbg !8170
  ret void, !dbg !8169
}

; Function Attrs: noinline nounwind uwtable
define linkonce_odr dso_local void @_ZNSt6vectorIN6dealii6TensorILi2ELi2EEESaIS2_EEC2Ev(%"class.std::vector.39"* %this) unnamed_addr #5 comdat align 2 !dbg !8171 {
entry:
  %this.addr = alloca %"class.std::vector.39"*, align 8
  store %"class.std::vector.39"* %this, %"class.std::vector.39"** %this.addr, align 8
  call void @llvm.dbg.declare(metadata %"class.std::vector.39"** %this.addr, metadata !8172, metadata !DIExpression()), !dbg !8174
  %this1 = load %"class.std::vector.39"*, %"class.std::vector.39"** %this.addr, align 8
  %0 = bitcast %"class.std::vector.39"* %this1 to %"struct.std::_Vector_base.40"*, !dbg !8175
  call void @_ZNSt12_Vector_baseIN6dealii6TensorILi2ELi2EEESaIS2_EEC2Ev(%"struct.std::_Vector_base.40"* %0) #3, !dbg !8176
  ret void, !dbg !8175
}

declare dso_local void @_ZN6dealii22AnisotropicPolynomialsILi2EEC1ERKSt6vectorIS2_INS_11Polynomials10PolynomialIdEESaIS5_EESaIS7_EE(%"class.dealii::AnisotropicPolynomials.31"*, %"class.std::vector"* dereferenceable(24)) unnamed_addr #1

; Function Attrs: noinline nounwind uwtable
define linkonce_odr dso_local void @_ZNSt6vectorIN6dealii6TensorILi2ELi2EEESaIS2_EED2Ev(%"class.std::vector.39"* %this) unnamed_addr #5 comdat align 2 personality i8* bitcast (i32 (...)* @__gxx_personality_v0 to i8*) !dbg !8177 {
entry:
  %this.addr = alloca %"class.std::vector.39"*, align 8
  %exn.slot = alloca i8*
  %ehselector.slot = alloca i32
  store %"class.std::vector.39"* %this, %"class.std::vector.39"** %this.addr, align 8
  call void @llvm.dbg.declare(metadata %"class.std::vector.39"** %this.addr, metadata !8178, metadata !DIExpression()), !dbg !8179
  %this1 = load %"class.std::vector.39"*, %"class.std::vector.39"** %this.addr, align 8
  %0 = bitcast %"class.std::vector.39"* %this1 to %"struct.std::_Vector_base.40"*, !dbg !8180
  %_M_impl = getelementptr inbounds %"struct.std::_Vector_base.40", %"struct.std::_Vector_base.40"* %0, i32 0, i32 0, !dbg !8180
  %1 = bitcast %"struct.std::_Vector_base<dealii::Tensor<2, 2>, std::allocator<dealii::Tensor<2, 2> > >::_Vector_impl"* %_M_impl to %"struct.std::_Vector_base<dealii::Tensor<2, 2>, std::allocator<dealii::Tensor<2, 2> > >::_Vector_impl_data"*, !dbg !8182
  %_M_start = getelementptr inbounds %"struct.std::_Vector_base<dealii::Tensor<2, 2>, std::allocator<dealii::Tensor<2, 2> > >::_Vector_impl_data", %"struct.std::_Vector_base<dealii::Tensor<2, 2>, std::allocator<dealii::Tensor<2, 2> > >::_Vector_impl_data"* %1, i32 0, i32 0, !dbg !8183
  %2 = load %"class.dealii::Tensor.44"*, %"class.dealii::Tensor.44"** %_M_start, align 8, !dbg !8183
  %3 = bitcast %"class.std::vector.39"* %this1 to %"struct.std::_Vector_base.40"*, !dbg !8184
  %_M_impl2 = getelementptr inbounds %"struct.std::_Vector_base.40", %"struct.std::_Vector_base.40"* %3, i32 0, i32 0, !dbg !8184
  %4 = bitcast %"struct.std::_Vector_base<dealii::Tensor<2, 2>, std::allocator<dealii::Tensor<2, 2> > >::_Vector_impl"* %_M_impl2 to %"struct.std::_Vector_base<dealii::Tensor<2, 2>, std::allocator<dealii::Tensor<2, 2> > >::_Vector_impl_data"*, !dbg !8185
  %_M_finish = getelementptr inbounds %"struct.std::_Vector_base<dealii::Tensor<2, 2>, std::allocator<dealii::Tensor<2, 2> > >::_Vector_impl_data", %"struct.std::_Vector_base<dealii::Tensor<2, 2>, std::allocator<dealii::Tensor<2, 2> > >::_Vector_impl_data"* %4, i32 0, i32 1, !dbg !8186
  %5 = load %"class.dealii::Tensor.44"*, %"class.dealii::Tensor.44"** %_M_finish, align 8, !dbg !8186
  %6 = bitcast %"class.std::vector.39"* %this1 to %"struct.std::_Vector_base.40"*, !dbg !8187
  %call = call dereferenceable(1) %"class.std::allocator.41"* @_ZNSt12_Vector_baseIN6dealii6TensorILi2ELi2EEESaIS2_EE19_M_get_Tp_allocatorEv(%"struct.std::_Vector_base.40"* %6) #3, !dbg !8187
  invoke void @_ZSt8_DestroyIPN6dealii6TensorILi2ELi2EEES2_EvT_S4_RSaIT0_E(%"class.dealii::Tensor.44"* %2, %"class.dealii::Tensor.44"* %5, %"class.std::allocator.41"* dereferenceable(1) %call)
          to label %invoke.cont unwind label %lpad, !dbg !8188

invoke.cont:                                      ; preds = %entry
  %7 = bitcast %"class.std::vector.39"* %this1 to %"struct.std::_Vector_base.40"*, !dbg !8189
  call void @_ZNSt12_Vector_baseIN6dealii6TensorILi2ELi2EEESaIS2_EED2Ev(%"struct.std::_Vector_base.40"* %7) #3, !dbg !8189
  ret void, !dbg !8190

lpad:                                             ; preds = %entry
  %8 = landingpad { i8*, i32 }
          catch i8* null, !dbg !8189
  %9 = extractvalue { i8*, i32 } %8, 0, !dbg !8189
  store i8* %9, i8** %exn.slot, align 8, !dbg !8189
  %10 = extractvalue { i8*, i32 } %8, 1, !dbg !8189
  store i32 %10, i32* %ehselector.slot, align 4, !dbg !8189
  %11 = bitcast %"class.std::vector.39"* %this1 to %"struct.std::_Vector_base.40"*, !dbg !8189
  call void @_ZNSt12_Vector_baseIN6dealii6TensorILi2ELi2EEESaIS2_EED2Ev(%"struct.std::_Vector_base.40"* %11) #3, !dbg !8189
  br label %terminate.handler, !dbg !8189

terminate.handler:                                ; preds = %lpad
  %exn = load i8*, i8** %exn.slot, align 8, !dbg !8189
  call void @__clang_call_terminate(i8* %exn) #14, !dbg !8189
  unreachable, !dbg !8189
}

; Function Attrs: noinline nounwind uwtable
define linkonce_odr dso_local void @_ZNSt6vectorIN6dealii6TensorILi1ELi2EEESaIS2_EED2Ev(%"class.std::vector.33"* %this) unnamed_addr #5 comdat align 2 personality i8* bitcast (i32 (...)* @__gxx_personality_v0 to i8*) !dbg !8191 {
entry:
  %this.addr = alloca %"class.std::vector.33"*, align 8
  %exn.slot = alloca i8*
  %ehselector.slot = alloca i32
  store %"class.std::vector.33"* %this, %"class.std::vector.33"** %this.addr, align 8
  call void @llvm.dbg.declare(metadata %"class.std::vector.33"** %this.addr, metadata !8192, metadata !DIExpression()), !dbg !8193
  %this1 = load %"class.std::vector.33"*, %"class.std::vector.33"** %this.addr, align 8
  %0 = bitcast %"class.std::vector.33"* %this1 to %"struct.std::_Vector_base.34"*, !dbg !8194
  %_M_impl = getelementptr inbounds %"struct.std::_Vector_base.34", %"struct.std::_Vector_base.34"* %0, i32 0, i32 0, !dbg !8194
  %1 = bitcast %"struct.std::_Vector_base<dealii::Tensor<1, 2>, std::allocator<dealii::Tensor<1, 2> > >::_Vector_impl"* %_M_impl to %"struct.std::_Vector_base<dealii::Tensor<1, 2>, std::allocator<dealii::Tensor<1, 2> > >::_Vector_impl_data"*, !dbg !8196
  %_M_start = getelementptr inbounds %"struct.std::_Vector_base<dealii::Tensor<1, 2>, std::allocator<dealii::Tensor<1, 2> > >::_Vector_impl_data", %"struct.std::_Vector_base<dealii::Tensor<1, 2>, std::allocator<dealii::Tensor<1, 2> > >::_Vector_impl_data"* %1, i32 0, i32 0, !dbg !8197
  %2 = load %"class.dealii::Tensor.38"*, %"class.dealii::Tensor.38"** %_M_start, align 8, !dbg !8197
  %3 = bitcast %"class.std::vector.33"* %this1 to %"struct.std::_Vector_base.34"*, !dbg !8198
  %_M_impl2 = getelementptr inbounds %"struct.std::_Vector_base.34", %"struct.std::_Vector_base.34"* %3, i32 0, i32 0, !dbg !8198
  %4 = bitcast %"struct.std::_Vector_base<dealii::Tensor<1, 2>, std::allocator<dealii::Tensor<1, 2> > >::_Vector_impl"* %_M_impl2 to %"struct.std::_Vector_base<dealii::Tensor<1, 2>, std::allocator<dealii::Tensor<1, 2> > >::_Vector_impl_data"*, !dbg !8199
  %_M_finish = getelementptr inbounds %"struct.std::_Vector_base<dealii::Tensor<1, 2>, std::allocator<dealii::Tensor<1, 2> > >::_Vector_impl_data", %"struct.std::_Vector_base<dealii::Tensor<1, 2>, std::allocator<dealii::Tensor<1, 2> > >::_Vector_impl_data"* %4, i32 0, i32 1, !dbg !8200
  %5 = load %"class.dealii::Tensor.38"*, %"class.dealii::Tensor.38"** %_M_finish, align 8, !dbg !8200
  %6 = bitcast %"class.std::vector.33"* %this1 to %"struct.std::_Vector_base.34"*, !dbg !8201
  %call = call dereferenceable(1) %"class.std::allocator.35"* @_ZNSt12_Vector_baseIN6dealii6TensorILi1ELi2EEESaIS2_EE19_M_get_Tp_allocatorEv(%"struct.std::_Vector_base.34"* %6) #3, !dbg !8201
  invoke void @_ZSt8_DestroyIPN6dealii6TensorILi1ELi2EEES2_EvT_S4_RSaIT0_E(%"class.dealii::Tensor.38"* %2, %"class.dealii::Tensor.38"* %5, %"class.std::allocator.35"* dereferenceable(1) %call)
          to label %invoke.cont unwind label %lpad, !dbg !8202

invoke.cont:                                      ; preds = %entry
  %7 = bitcast %"class.std::vector.33"* %this1 to %"struct.std::_Vector_base.34"*, !dbg !8203
  call void @_ZNSt12_Vector_baseIN6dealii6TensorILi1ELi2EEESaIS2_EED2Ev(%"struct.std::_Vector_base.34"* %7) #3, !dbg !8203
  ret void, !dbg !8204

lpad:                                             ; preds = %entry
  %8 = landingpad { i8*, i32 }
          catch i8* null, !dbg !8203
  %9 = extractvalue { i8*, i32 } %8, 0, !dbg !8203
  store i8* %9, i8** %exn.slot, align 8, !dbg !8203
  %10 = extractvalue { i8*, i32 } %8, 1, !dbg !8203
  store i32 %10, i32* %ehselector.slot, align 4, !dbg !8203
  %11 = bitcast %"class.std::vector.33"* %this1 to %"struct.std::_Vector_base.34"*, !dbg !8203
  call void @_ZNSt12_Vector_baseIN6dealii6TensorILi1ELi2EEESaIS2_EED2Ev(%"struct.std::_Vector_base.34"* %11) #3, !dbg !8203
  br label %terminate.handler, !dbg !8203

terminate.handler:                                ; preds = %lpad
  %exn = load i8*, i8** %exn.slot, align 8, !dbg !8203
  call void @__clang_call_terminate(i8* %exn) #14, !dbg !8203
  unreachable, !dbg !8203
}

; Function Attrs: noinline nounwind uwtable
define weak_odr dso_local void @_ZN6dealii14PolynomialsABFILi2EED2Ev(%"class.dealii::PolynomialsABF.30"* %this) unnamed_addr #5 comdat($_ZN6dealii14PolynomialsABFILi2EED5Ev) align 2 !dbg !8205 {
entry:
  %this.addr = alloca %"class.dealii::PolynomialsABF.30"*, align 8
  store %"class.dealii::PolynomialsABF.30"* %this, %"class.dealii::PolynomialsABF.30"** %this.addr, align 8
  call void @llvm.dbg.declare(metadata %"class.dealii::PolynomialsABF.30"** %this.addr, metadata !8206, metadata !DIExpression()), !dbg !8207
  %this1 = load %"class.dealii::PolynomialsABF.30"*, %"class.dealii::PolynomialsABF.30"** %this.addr, align 8
  %polynomial_space = getelementptr inbounds %"class.dealii::PolynomialsABF.30", %"class.dealii::PolynomialsABF.30"* %this1, i32 0, i32 1, !dbg !8208
  %0 = load %"class.dealii::AnisotropicPolynomials.31"*, %"class.dealii::AnisotropicPolynomials.31"** %polynomial_space, align 8, !dbg !8208
  %isnull = icmp eq %"class.dealii::AnisotropicPolynomials.31"* %0, null, !dbg !8210
  br i1 %isnull, label %delete.end, label %delete.notnull, !dbg !8210

delete.notnull:                                   ; preds = %entry
  call void @_ZN6dealii22AnisotropicPolynomialsILi2EED2Ev(%"class.dealii::AnisotropicPolynomials.31"* %0) #3, !dbg !8210
  %1 = bitcast %"class.dealii::AnisotropicPolynomials.31"* %0 to i8*, !dbg !8210
  call void @_ZdlPv(i8* %1) #13, !dbg !8210
  br label %delete.end, !dbg !8210

delete.end:                                       ; preds = %delete.notnull, %entry
  %p_grad_grads = getelementptr inbounds %"class.dealii::PolynomialsABF.30", %"class.dealii::PolynomialsABF.30"* %this1, i32 0, i32 5, !dbg !8211
  call void @_ZNSt6vectorIN6dealii6TensorILi2ELi2EEESaIS2_EED2Ev(%"class.std::vector.39"* %p_grad_grads) #3, !dbg !8211
  %p_grads = getelementptr inbounds %"class.dealii::PolynomialsABF.30", %"class.dealii::PolynomialsABF.30"* %this1, i32 0, i32 4, !dbg !8211
  call void @_ZNSt6vectorIN6dealii6TensorILi1ELi2EEESaIS2_EED2Ev(%"class.std::vector.33"* %p_grads) #3, !dbg !8211
  %p_values = getelementptr inbounds %"class.dealii::PolynomialsABF.30", %"class.dealii::PolynomialsABF.30"* %this1, i32 0, i32 3, !dbg !8211
  call void @_ZNSt6vectorIdSaIdEED2Ev(%"class.std::vector.8"* %p_values) #3, !dbg !8211
  ret void, !dbg !8212
}

; Function Attrs: noinline nounwind uwtable
define linkonce_odr dso_local void @_ZN6dealii22AnisotropicPolynomialsILi2EED2Ev(%"class.dealii::AnisotropicPolynomials.31"* %this) unnamed_addr #5 comdat align 2 !dbg !8213 {
entry:
  %this.addr = alloca %"class.dealii::AnisotropicPolynomials.31"*, align 8
  store %"class.dealii::AnisotropicPolynomials.31"* %this, %"class.dealii::AnisotropicPolynomials.31"** %this.addr, align 8
  call void @llvm.dbg.declare(metadata %"class.dealii::AnisotropicPolynomials.31"** %this.addr, metadata !8217, metadata !DIExpression()), !dbg !8218
  %this1 = load %"class.dealii::AnisotropicPolynomials.31"*, %"class.dealii::AnisotropicPolynomials.31"** %this.addr, align 8
  %polynomials = getelementptr inbounds %"class.dealii::AnisotropicPolynomials.31", %"class.dealii::AnisotropicPolynomials.31"* %this1, i32 0, i32 0, !dbg !8219
  call void @_ZNSt6vectorIS_IN6dealii11Polynomials10PolynomialIdEESaIS3_EESaIS5_EED2Ev(%"class.std::vector"* %polynomials) #3, !dbg !8219
  ret void, !dbg !8221
}

; Function Attrs: noinline uwtable
define weak_odr dso_local void @_ZNK6dealii14PolynomialsABFILi2EE7computeERKNS_5PointILi2EEERSt6vectorINS_6TensorILi1ELi2EEESaIS8_EERS6_INS7_ILi2ELi2EEESaISC_EERS6_INS7_ILi3ELi2EEESaISG_EE(%"class.dealii::PolynomialsABF.30"* %this, %"class.dealii::Point.45"* dereferenceable(16) %unit_point, %"class.std::vector.33"* dereferenceable(24) %values, %"class.std::vector.39"* dereferenceable(24) %grads, %"class.std::vector.46"* dereferenceable(24) %grad_grads) #0 comdat align 2 !dbg !8222 {
entry:
  %this.addr = alloca %"class.dealii::PolynomialsABF.30"*, align 8
  %unit_point.addr = alloca %"class.dealii::Point.45"*, align 8
  %values.addr = alloca %"class.std::vector.33"*, align 8
  %grads.addr = alloca %"class.std::vector.39"*, align 8
  %grad_grads.addr = alloca %"class.std::vector.46"*, align 8
  %n_sub = alloca i32, align 4
  %d = alloca i32, align 4
  %p = alloca %"class.dealii::Point.45", align 8
  %c = alloca i32, align 4
  %i = alloca i32, align 4
  %i43 = alloca i32, align 4
  %d1 = alloca i32, align 4
  %i71 = alloca i32, align 4
  %d178 = alloca i32, align 4
  %d2 = alloca i32, align 4
  store %"class.dealii::PolynomialsABF.30"* %this, %"class.dealii::PolynomialsABF.30"** %this.addr, align 8
  call void @llvm.dbg.declare(metadata %"class.dealii::PolynomialsABF.30"** %this.addr, metadata !8223, metadata !DIExpression()), !dbg !8225
  store %"class.dealii::Point.45"* %unit_point, %"class.dealii::Point.45"** %unit_point.addr, align 8
  call void @llvm.dbg.declare(metadata %"class.dealii::Point.45"** %unit_point.addr, metadata !8226, metadata !DIExpression()), !dbg !8227
  store %"class.std::vector.33"* %values, %"class.std::vector.33"** %values.addr, align 8
  call void @llvm.dbg.declare(metadata %"class.std::vector.33"** %values.addr, metadata !8228, metadata !DIExpression()), !dbg !8229
  store %"class.std::vector.39"* %grads, %"class.std::vector.39"** %grads.addr, align 8
  call void @llvm.dbg.declare(metadata %"class.std::vector.39"** %grads.addr, metadata !8230, metadata !DIExpression()), !dbg !8231
  store %"class.std::vector.46"* %grad_grads, %"class.std::vector.46"** %grad_grads.addr, align 8
  call void @llvm.dbg.declare(metadata %"class.std::vector.46"** %grad_grads.addr, metadata !8232, metadata !DIExpression()), !dbg !8233
  %this1 = load %"class.dealii::PolynomialsABF.30"*, %"class.dealii::PolynomialsABF.30"** %this.addr, align 8
  call void @llvm.dbg.declare(metadata i32* %n_sub, metadata !8234, metadata !DIExpression()), !dbg !8235
  %polynomial_space = getelementptr inbounds %"class.dealii::PolynomialsABF.30", %"class.dealii::PolynomialsABF.30"* %this1, i32 0, i32 1, !dbg !8236
  %0 = load %"class.dealii::AnisotropicPolynomials.31"*, %"class.dealii::AnisotropicPolynomials.31"** %polynomial_space, align 8, !dbg !8236
  %call = call i32 @_ZNK6dealii22AnisotropicPolynomialsILi2EE1nEv(%"class.dealii::AnisotropicPolynomials.31"* %0), !dbg !8237
  store i32 %call, i32* %n_sub, align 4, !dbg !8235
  %p_values = getelementptr inbounds %"class.dealii::PolynomialsABF.30", %"class.dealii::PolynomialsABF.30"* %this1, i32 0, i32 3, !dbg !8238
  %1 = load %"class.std::vector.33"*, %"class.std::vector.33"** %values.addr, align 8, !dbg !8239
  %call2 = call i64 @_ZNKSt6vectorIN6dealii6TensorILi1ELi2EEESaIS2_EE4sizeEv(%"class.std::vector.33"* %1) #3, !dbg !8240
  %cmp = icmp eq i64 %call2, 0, !dbg !8241
  br i1 %cmp, label %cond.true, label %cond.false, !dbg !8242

cond.true:                                        ; preds = %entry
  br label %cond.end, !dbg !8242

cond.false:                                       ; preds = %entry
  %2 = load i32, i32* %n_sub, align 4, !dbg !8243
  br label %cond.end, !dbg !8242

cond.end:                                         ; preds = %cond.false, %cond.true
  %cond = phi i32 [ 0, %cond.true ], [ %2, %cond.false ], !dbg !8242
  %conv = zext i32 %cond to i64, !dbg !8242
  call void @_ZNSt6vectorIdSaIdEE6resizeEm(%"class.std::vector.8"* %p_values, i64 %conv), !dbg !8244
  %p_grads = getelementptr inbounds %"class.dealii::PolynomialsABF.30", %"class.dealii::PolynomialsABF.30"* %this1, i32 0, i32 4, !dbg !8245
  %3 = load %"class.std::vector.39"*, %"class.std::vector.39"** %grads.addr, align 8, !dbg !8246
  %call3 = call i64 @_ZNKSt6vectorIN6dealii6TensorILi2ELi2EEESaIS2_EE4sizeEv(%"class.std::vector.39"* %3) #3, !dbg !8247
  %cmp4 = icmp eq i64 %call3, 0, !dbg !8248
  br i1 %cmp4, label %cond.true5, label %cond.false6, !dbg !8249

cond.true5:                                       ; preds = %cond.end
  br label %cond.end7, !dbg !8249

cond.false6:                                      ; preds = %cond.end
  %4 = load i32, i32* %n_sub, align 4, !dbg !8250
  br label %cond.end7, !dbg !8249

cond.end7:                                        ; preds = %cond.false6, %cond.true5
  %cond8 = phi i32 [ 0, %cond.true5 ], [ %4, %cond.false6 ], !dbg !8249
  %conv9 = zext i32 %cond8 to i64, !dbg !8249
  call void @_ZNSt6vectorIN6dealii6TensorILi1ELi2EEESaIS2_EE6resizeEm(%"class.std::vector.33"* %p_grads, i64 %conv9), !dbg !8251
  %p_grad_grads = getelementptr inbounds %"class.dealii::PolynomialsABF.30", %"class.dealii::PolynomialsABF.30"* %this1, i32 0, i32 5, !dbg !8252
  %5 = load %"class.std::vector.46"*, %"class.std::vector.46"** %grad_grads.addr, align 8, !dbg !8253
  %call10 = call i64 @_ZNKSt6vectorIN6dealii6TensorILi3ELi2EEESaIS2_EE4sizeEv(%"class.std::vector.46"* %5) #3, !dbg !8254
  %cmp11 = icmp eq i64 %call10, 0, !dbg !8255
  br i1 %cmp11, label %cond.true12, label %cond.false13, !dbg !8256

cond.true12:                                      ; preds = %cond.end7
  br label %cond.end14, !dbg !8256

cond.false13:                                     ; preds = %cond.end7
  %6 = load i32, i32* %n_sub, align 4, !dbg !8257
  br label %cond.end14, !dbg !8256

cond.end14:                                       ; preds = %cond.false13, %cond.true12
  %cond15 = phi i32 [ 0, %cond.true12 ], [ %6, %cond.false13 ], !dbg !8256
  %conv16 = zext i32 %cond15 to i64, !dbg !8256
  call void @_ZNSt6vectorIN6dealii6TensorILi2ELi2EEESaIS2_EE6resizeEm(%"class.std::vector.39"* %p_grad_grads, i64 %conv16), !dbg !8258
  call void @llvm.dbg.declare(metadata i32* %d, metadata !8259, metadata !DIExpression()), !dbg !8261
  store i32 0, i32* %d, align 4, !dbg !8261
  br label %for.cond, !dbg !8262

for.cond:                                         ; preds = %for.inc110, %cond.end14
  %7 = load i32, i32* %d, align 4, !dbg !8263
  %cmp17 = icmp ult i32 %7, 2, !dbg !8265
  br i1 %cmp17, label %for.body, label %for.end112, !dbg !8266

for.body:                                         ; preds = %for.cond
  call void @llvm.dbg.declare(metadata %"class.dealii::Point.45"* %p, metadata !8267, metadata !DIExpression()), !dbg !8269
  call void @_ZN6dealii5PointILi2EEC2Ev(%"class.dealii::Point.45"* %p), !dbg !8269
  call void @llvm.dbg.declare(metadata i32* %c, metadata !8270, metadata !DIExpression()), !dbg !8272
  store i32 0, i32* %c, align 4, !dbg !8272
  br label %for.cond18, !dbg !8273

for.cond18:                                       ; preds = %for.inc, %for.body
  %8 = load i32, i32* %c, align 4, !dbg !8274
  %cmp19 = icmp ult i32 %8, 2, !dbg !8276
  br i1 %cmp19, label %for.body20, label %for.end, !dbg !8277

for.body20:                                       ; preds = %for.cond18
  %9 = load %"class.dealii::Point.45"*, %"class.dealii::Point.45"** %unit_point.addr, align 8, !dbg !8278
  %10 = load i32, i32* %c, align 4, !dbg !8279
  %11 = load i32, i32* %d, align 4, !dbg !8280
  %add = add i32 %10, %11, !dbg !8281
  %rem = urem i32 %add, 2, !dbg !8282
  %call21 = call double @_ZNK6dealii5PointILi2EEclEj(%"class.dealii::Point.45"* %9, i32 %rem), !dbg !8278
  %12 = load i32, i32* %c, align 4, !dbg !8283
  %call22 = call dereferenceable(8) double* @_ZN6dealii5PointILi2EEclEj(%"class.dealii::Point.45"* %p, i32 %12), !dbg !8284
  store double %call21, double* %call22, align 8, !dbg !8285
  br label %for.inc, !dbg !8284

for.inc:                                          ; preds = %for.body20
  %13 = load i32, i32* %c, align 4, !dbg !8286
  %inc = add i32 %13, 1, !dbg !8286
  store i32 %inc, i32* %c, align 4, !dbg !8286
  br label %for.cond18, !dbg !8287, !llvm.loop !8288

for.end:                                          ; preds = %for.cond18
  %polynomial_space23 = getelementptr inbounds %"class.dealii::PolynomialsABF.30", %"class.dealii::PolynomialsABF.30"* %this1, i32 0, i32 1, !dbg !8290
  %14 = load %"class.dealii::AnisotropicPolynomials.31"*, %"class.dealii::AnisotropicPolynomials.31"** %polynomial_space23, align 8, !dbg !8290
  %p_values24 = getelementptr inbounds %"class.dealii::PolynomialsABF.30", %"class.dealii::PolynomialsABF.30"* %this1, i32 0, i32 3, !dbg !8291
  %p_grads25 = getelementptr inbounds %"class.dealii::PolynomialsABF.30", %"class.dealii::PolynomialsABF.30"* %this1, i32 0, i32 4, !dbg !8292
  %p_grad_grads26 = getelementptr inbounds %"class.dealii::PolynomialsABF.30", %"class.dealii::PolynomialsABF.30"* %this1, i32 0, i32 5, !dbg !8293
  call void @_ZNK6dealii22AnisotropicPolynomialsILi2EE7computeERKNS_5PointILi2EEERSt6vectorIdSaIdEERS6_INS_6TensorILi1ELi2EEESaISB_EERS6_INSA_ILi2ELi2EEESaISF_EE(%"class.dealii::AnisotropicPolynomials.31"* %14, %"class.dealii::Point.45"* dereferenceable(16) %p, %"class.std::vector.8"* dereferenceable(24) %p_values24, %"class.std::vector.33"* dereferenceable(24) %p_grads25, %"class.std::vector.39"* dereferenceable(24) %p_grad_grads26), !dbg !8294
  call void @llvm.dbg.declare(metadata i32* %i, metadata !8295, metadata !DIExpression()), !dbg !8297
  store i32 0, i32* %i, align 4, !dbg !8297
  br label %for.cond27, !dbg !8298

for.cond27:                                       ; preds = %for.inc40, %for.end
  %15 = load i32, i32* %i, align 4, !dbg !8299
  %conv28 = zext i32 %15 to i64, !dbg !8299
  %p_values29 = getelementptr inbounds %"class.dealii::PolynomialsABF.30", %"class.dealii::PolynomialsABF.30"* %this1, i32 0, i32 3, !dbg !8301
  %call30 = call i64 @_ZNKSt6vectorIdSaIdEE4sizeEv(%"class.std::vector.8"* %p_values29) #3, !dbg !8302
  %cmp31 = icmp ult i64 %conv28, %call30, !dbg !8303
  br i1 %cmp31, label %for.body32, label %for.end42, !dbg !8304

for.body32:                                       ; preds = %for.cond27
  %p_values33 = getelementptr inbounds %"class.dealii::PolynomialsABF.30", %"class.dealii::PolynomialsABF.30"* %this1, i32 0, i32 3, !dbg !8305
  %16 = load i32, i32* %i, align 4, !dbg !8306
  %conv34 = zext i32 %16 to i64, !dbg !8306
  %call35 = call dereferenceable(8) double* @_ZNSt6vectorIdSaIdEEixEm(%"class.std::vector.8"* %p_values33, i64 %conv34) #3, !dbg !8305
  %17 = load double, double* %call35, align 8, !dbg !8305
  %18 = load %"class.std::vector.33"*, %"class.std::vector.33"** %values.addr, align 8, !dbg !8307
  %19 = load i32, i32* %i, align 4, !dbg !8308
  %20 = load i32, i32* %d, align 4, !dbg !8309
  %21 = load i32, i32* %n_sub, align 4, !dbg !8310
  %mul = mul i32 %20, %21, !dbg !8311
  %add36 = add i32 %19, %mul, !dbg !8312
  %conv37 = zext i32 %add36 to i64, !dbg !8308
  %call38 = call dereferenceable(16) %"class.dealii::Tensor.38"* @_ZNSt6vectorIN6dealii6TensorILi1ELi2EEESaIS2_EEixEm(%"class.std::vector.33"* %18, i64 %conv37) #3, !dbg !8307
  %22 = load i32, i32* %d, align 4, !dbg !8313
  %call39 = call dereferenceable(8) double* @_ZN6dealii6TensorILi1ELi2EEixEj(%"class.dealii::Tensor.38"* %call38, i32 %22), !dbg !8307
  store double %17, double* %call39, align 8, !dbg !8314
  br label %for.inc40, !dbg !8307

for.inc40:                                        ; preds = %for.body32
  %23 = load i32, i32* %i, align 4, !dbg !8315
  %inc41 = add i32 %23, 1, !dbg !8315
  store i32 %inc41, i32* %i, align 4, !dbg !8315
  br label %for.cond27, !dbg !8316, !llvm.loop !8317

for.end42:                                        ; preds = %for.cond27
  call void @llvm.dbg.declare(metadata i32* %i43, metadata !8319, metadata !DIExpression()), !dbg !8321
  store i32 0, i32* %i43, align 4, !dbg !8321
  br label %for.cond44, !dbg !8322

for.cond44:                                       ; preds = %for.inc68, %for.end42
  %24 = load i32, i32* %i43, align 4, !dbg !8323
  %conv45 = zext i32 %24 to i64, !dbg !8323
  %p_grads46 = getelementptr inbounds %"class.dealii::PolynomialsABF.30", %"class.dealii::PolynomialsABF.30"* %this1, i32 0, i32 4, !dbg !8325
  %call47 = call i64 @_ZNKSt6vectorIN6dealii6TensorILi1ELi2EEESaIS2_EE4sizeEv(%"class.std::vector.33"* %p_grads46) #3, !dbg !8326
  %cmp48 = icmp ult i64 %conv45, %call47, !dbg !8327
  br i1 %cmp48, label %for.body49, label %for.end70, !dbg !8328

for.body49:                                       ; preds = %for.cond44
  call void @llvm.dbg.declare(metadata i32* %d1, metadata !8329, metadata !DIExpression()), !dbg !8331
  store i32 0, i32* %d1, align 4, !dbg !8331
  br label %for.cond50, !dbg !8332

for.cond50:                                       ; preds = %for.inc65, %for.body49
  %25 = load i32, i32* %d1, align 4, !dbg !8333
  %cmp51 = icmp ult i32 %25, 2, !dbg !8335
  br i1 %cmp51, label %for.body52, label %for.end67, !dbg !8336

for.body52:                                       ; preds = %for.cond50
  %p_grads53 = getelementptr inbounds %"class.dealii::PolynomialsABF.30", %"class.dealii::PolynomialsABF.30"* %this1, i32 0, i32 4, !dbg !8337
  %26 = load i32, i32* %i43, align 4, !dbg !8338
  %conv54 = zext i32 %26 to i64, !dbg !8338
  %call55 = call dereferenceable(16) %"class.dealii::Tensor.38"* @_ZNSt6vectorIN6dealii6TensorILi1ELi2EEESaIS2_EEixEm(%"class.std::vector.33"* %p_grads53, i64 %conv54) #3, !dbg !8337
  %27 = load i32, i32* %d1, align 4, !dbg !8339
  %call56 = call dereferenceable(8) double* @_ZN6dealii6TensorILi1ELi2EEixEj(%"class.dealii::Tensor.38"* %call55, i32 %27), !dbg !8337
  %28 = load double, double* %call56, align 8, !dbg !8337
  %29 = load %"class.std::vector.39"*, %"class.std::vector.39"** %grads.addr, align 8, !dbg !8340
  %30 = load i32, i32* %i43, align 4, !dbg !8341
  %31 = load i32, i32* %d, align 4, !dbg !8342
  %32 = load i32, i32* %n_sub, align 4, !dbg !8343
  %mul57 = mul i32 %31, %32, !dbg !8344
  %add58 = add i32 %30, %mul57, !dbg !8345
  %conv59 = zext i32 %add58 to i64, !dbg !8341
  %call60 = call dereferenceable(32) %"class.dealii::Tensor.44"* @_ZNSt6vectorIN6dealii6TensorILi2ELi2EEESaIS2_EEixEm(%"class.std::vector.39"* %29, i64 %conv59) #3, !dbg !8340
  %33 = load i32, i32* %d, align 4, !dbg !8346
  %call61 = call dereferenceable(16) %"class.dealii::Tensor.38"* @_ZN6dealii6TensorILi2ELi2EEixEj(%"class.dealii::Tensor.44"* %call60, i32 %33), !dbg !8340
  %34 = load i32, i32* %d1, align 4, !dbg !8347
  %35 = load i32, i32* %d, align 4, !dbg !8348
  %add62 = add i32 %34, %35, !dbg !8349
  %rem63 = urem i32 %add62, 2, !dbg !8350
  %call64 = call dereferenceable(8) double* @_ZN6dealii6TensorILi1ELi2EEixEj(%"class.dealii::Tensor.38"* %call61, i32 %rem63), !dbg !8340
  store double %28, double* %call64, align 8, !dbg !8351
  br label %for.inc65, !dbg !8340

for.inc65:                                        ; preds = %for.body52
  %36 = load i32, i32* %d1, align 4, !dbg !8352
  %inc66 = add i32 %36, 1, !dbg !8352
  store i32 %inc66, i32* %d1, align 4, !dbg !8352
  br label %for.cond50, !dbg !8353, !llvm.loop !8354

for.end67:                                        ; preds = %for.cond50
  br label %for.inc68, !dbg !8355

for.inc68:                                        ; preds = %for.end67
  %37 = load i32, i32* %i43, align 4, !dbg !8356
  %inc69 = add i32 %37, 1, !dbg !8356
  store i32 %inc69, i32* %i43, align 4, !dbg !8356
  br label %for.cond44, !dbg !8357, !llvm.loop !8358

for.end70:                                        ; preds = %for.cond44
  call void @llvm.dbg.declare(metadata i32* %i71, metadata !8360, metadata !DIExpression()), !dbg !8362
  store i32 0, i32* %i71, align 4, !dbg !8362
  br label %for.cond72, !dbg !8363

for.cond72:                                       ; preds = %for.inc107, %for.end70
  %38 = load i32, i32* %i71, align 4, !dbg !8364
  %conv73 = zext i32 %38 to i64, !dbg !8364
  %p_grad_grads74 = getelementptr inbounds %"class.dealii::PolynomialsABF.30", %"class.dealii::PolynomialsABF.30"* %this1, i32 0, i32 5, !dbg !8366
  %call75 = call i64 @_ZNKSt6vectorIN6dealii6TensorILi2ELi2EEESaIS2_EE4sizeEv(%"class.std::vector.39"* %p_grad_grads74) #3, !dbg !8367
  %cmp76 = icmp ult i64 %conv73, %call75, !dbg !8368
  br i1 %cmp76, label %for.body77, label %for.end109, !dbg !8369

for.body77:                                       ; preds = %for.cond72
  call void @llvm.dbg.declare(metadata i32* %d178, metadata !8370, metadata !DIExpression()), !dbg !8372
  store i32 0, i32* %d178, align 4, !dbg !8372
  br label %for.cond79, !dbg !8373

for.cond79:                                       ; preds = %for.inc104, %for.body77
  %39 = load i32, i32* %d178, align 4, !dbg !8374
  %cmp80 = icmp ult i32 %39, 2, !dbg !8376
  br i1 %cmp80, label %for.body81, label %for.end106, !dbg !8377

for.body81:                                       ; preds = %for.cond79
  call void @llvm.dbg.declare(metadata i32* %d2, metadata !8378, metadata !DIExpression()), !dbg !8380
  store i32 0, i32* %d2, align 4, !dbg !8380
  br label %for.cond82, !dbg !8381

for.cond82:                                       ; preds = %for.inc101, %for.body81
  %40 = load i32, i32* %d2, align 4, !dbg !8382
  %cmp83 = icmp ult i32 %40, 2, !dbg !8384
  br i1 %cmp83, label %for.body84, label %for.end103, !dbg !8385

for.body84:                                       ; preds = %for.cond82
  %p_grad_grads85 = getelementptr inbounds %"class.dealii::PolynomialsABF.30", %"class.dealii::PolynomialsABF.30"* %this1, i32 0, i32 5, !dbg !8386
  %41 = load i32, i32* %i71, align 4, !dbg !8387
  %conv86 = zext i32 %41 to i64, !dbg !8387
  %call87 = call dereferenceable(32) %"class.dealii::Tensor.44"* @_ZNSt6vectorIN6dealii6TensorILi2ELi2EEESaIS2_EEixEm(%"class.std::vector.39"* %p_grad_grads85, i64 %conv86) #3, !dbg !8386
  %42 = load i32, i32* %d178, align 4, !dbg !8388
  %call88 = call dereferenceable(16) %"class.dealii::Tensor.38"* @_ZN6dealii6TensorILi2ELi2EEixEj(%"class.dealii::Tensor.44"* %call87, i32 %42), !dbg !8386
  %43 = load i32, i32* %d2, align 4, !dbg !8389
  %call89 = call dereferenceable(8) double* @_ZN6dealii6TensorILi1ELi2EEixEj(%"class.dealii::Tensor.38"* %call88, i32 %43), !dbg !8386
  %44 = load double, double* %call89, align 8, !dbg !8386
  %45 = load %"class.std::vector.46"*, %"class.std::vector.46"** %grad_grads.addr, align 8, !dbg !8390
  %46 = load i32, i32* %i71, align 4, !dbg !8391
  %47 = load i32, i32* %d, align 4, !dbg !8392
  %48 = load i32, i32* %n_sub, align 4, !dbg !8393
  %mul90 = mul i32 %47, %48, !dbg !8394
  %add91 = add i32 %46, %mul90, !dbg !8395
  %conv92 = zext i32 %add91 to i64, !dbg !8391
  %call93 = call dereferenceable(64) %"class.dealii::Tensor.51"* @_ZNSt6vectorIN6dealii6TensorILi3ELi2EEESaIS2_EEixEm(%"class.std::vector.46"* %45, i64 %conv92) #3, !dbg !8390
  %49 = load i32, i32* %d, align 4, !dbg !8396
  %call94 = call dereferenceable(32) %"class.dealii::Tensor.44"* @_ZN6dealii6TensorILi3ELi2EEixEj(%"class.dealii::Tensor.51"* %call93, i32 %49), !dbg !8390
  %50 = load i32, i32* %d178, align 4, !dbg !8397
  %51 = load i32, i32* %d, align 4, !dbg !8398
  %add95 = add i32 %50, %51, !dbg !8399
  %rem96 = urem i32 %add95, 2, !dbg !8400
  %call97 = call dereferenceable(16) %"class.dealii::Tensor.38"* @_ZN6dealii6TensorILi2ELi2EEixEj(%"class.dealii::Tensor.44"* %call94, i32 %rem96), !dbg !8390
  %52 = load i32, i32* %d2, align 4, !dbg !8401
  %53 = load i32, i32* %d, align 4, !dbg !8402
  %add98 = add i32 %52, %53, !dbg !8403
  %rem99 = urem i32 %add98, 2, !dbg !8404
  %call100 = call dereferenceable(8) double* @_ZN6dealii6TensorILi1ELi2EEixEj(%"class.dealii::Tensor.38"* %call97, i32 %rem99), !dbg !8390
  store double %44, double* %call100, align 8, !dbg !8405
  br label %for.inc101, !dbg !8390

for.inc101:                                       ; preds = %for.body84
  %54 = load i32, i32* %d2, align 4, !dbg !8406
  %inc102 = add i32 %54, 1, !dbg !8406
  store i32 %inc102, i32* %d2, align 4, !dbg !8406
  br label %for.cond82, !dbg !8407, !llvm.loop !8408

for.end103:                                       ; preds = %for.cond82
  br label %for.inc104, !dbg !8409

for.inc104:                                       ; preds = %for.end103
  %55 = load i32, i32* %d178, align 4, !dbg !8410
  %inc105 = add i32 %55, 1, !dbg !8410
  store i32 %inc105, i32* %d178, align 4, !dbg !8410
  br label %for.cond79, !dbg !8411, !llvm.loop !8412

for.end106:                                       ; preds = %for.cond79
  br label %for.inc107, !dbg !8413

for.inc107:                                       ; preds = %for.end106
  %56 = load i32, i32* %i71, align 4, !dbg !8414
  %inc108 = add i32 %56, 1, !dbg !8414
  store i32 %inc108, i32* %i71, align 4, !dbg !8414
  br label %for.cond72, !dbg !8415, !llvm.loop !8416

for.end109:                                       ; preds = %for.cond72
  br label %for.inc110, !dbg !8418

for.inc110:                                       ; preds = %for.end109
  %57 = load i32, i32* %d, align 4, !dbg !8419
  %inc111 = add i32 %57, 1, !dbg !8419
  store i32 %inc111, i32* %d, align 4, !dbg !8419
  br label %for.cond, !dbg !8420, !llvm.loop !8421

for.end112:                                       ; preds = %for.cond
  ret void, !dbg !8423
}

declare dso_local i32 @_ZNK6dealii22AnisotropicPolynomialsILi2EE1nEv(%"class.dealii::AnisotropicPolynomials.31"*) #1

; Function Attrs: noinline nounwind uwtable
define linkonce_odr dso_local i64 @_ZNKSt6vectorIN6dealii6TensorILi1ELi2EEESaIS2_EE4sizeEv(%"class.std::vector.33"* %this) #5 comdat align 2 !dbg !8424 {
entry:
  %this.addr = alloca %"class.std::vector.33"*, align 8
  store %"class.std::vector.33"* %this, %"class.std::vector.33"** %this.addr, align 8
  call void @llvm.dbg.declare(metadata %"class.std::vector.33"** %this.addr, metadata !8425, metadata !DIExpression()), !dbg !8427
  %this1 = load %"class.std::vector.33"*, %"class.std::vector.33"** %this.addr, align 8
  %0 = bitcast %"class.std::vector.33"* %this1 to %"struct.std::_Vector_base.34"*, !dbg !8428
  %_M_impl = getelementptr inbounds %"struct.std::_Vector_base.34", %"struct.std::_Vector_base.34"* %0, i32 0, i32 0, !dbg !8428
  %1 = bitcast %"struct.std::_Vector_base<dealii::Tensor<1, 2>, std::allocator<dealii::Tensor<1, 2> > >::_Vector_impl"* %_M_impl to %"struct.std::_Vector_base<dealii::Tensor<1, 2>, std::allocator<dealii::Tensor<1, 2> > >::_Vector_impl_data"*, !dbg !8429
  %_M_finish = getelementptr inbounds %"struct.std::_Vector_base<dealii::Tensor<1, 2>, std::allocator<dealii::Tensor<1, 2> > >::_Vector_impl_data", %"struct.std::_Vector_base<dealii::Tensor<1, 2>, std::allocator<dealii::Tensor<1, 2> > >::_Vector_impl_data"* %1, i32 0, i32 1, !dbg !8430
  %2 = load %"class.dealii::Tensor.38"*, %"class.dealii::Tensor.38"** %_M_finish, align 8, !dbg !8430
  %3 = bitcast %"class.std::vector.33"* %this1 to %"struct.std::_Vector_base.34"*, !dbg !8431
  %_M_impl2 = getelementptr inbounds %"struct.std::_Vector_base.34", %"struct.std::_Vector_base.34"* %3, i32 0, i32 0, !dbg !8431
  %4 = bitcast %"struct.std::_Vector_base<dealii::Tensor<1, 2>, std::allocator<dealii::Tensor<1, 2> > >::_Vector_impl"* %_M_impl2 to %"struct.std::_Vector_base<dealii::Tensor<1, 2>, std::allocator<dealii::Tensor<1, 2> > >::_Vector_impl_data"*, !dbg !8432
  %_M_start = getelementptr inbounds %"struct.std::_Vector_base<dealii::Tensor<1, 2>, std::allocator<dealii::Tensor<1, 2> > >::_Vector_impl_data", %"struct.std::_Vector_base<dealii::Tensor<1, 2>, std::allocator<dealii::Tensor<1, 2> > >::_Vector_impl_data"* %4, i32 0, i32 0, !dbg !8433
  %5 = load %"class.dealii::Tensor.38"*, %"class.dealii::Tensor.38"** %_M_start, align 8, !dbg !8433
  %sub.ptr.lhs.cast = ptrtoint %"class.dealii::Tensor.38"* %2 to i64, !dbg !8434
  %sub.ptr.rhs.cast = ptrtoint %"class.dealii::Tensor.38"* %5 to i64, !dbg !8434
  %sub.ptr.sub = sub i64 %sub.ptr.lhs.cast, %sub.ptr.rhs.cast, !dbg !8434
  %sub.ptr.div = sdiv exact i64 %sub.ptr.sub, 16, !dbg !8434
  ret i64 %sub.ptr.div, !dbg !8435
}

; Function Attrs: noinline uwtable
define linkonce_odr dso_local void @_ZNSt6vectorIN6dealii6TensorILi1ELi2EEESaIS2_EE6resizeEm(%"class.std::vector.33"* %this, i64 %__new_size) #0 comdat align 2 !dbg !8436 {
entry:
  %this.addr = alloca %"class.std::vector.33"*, align 8
  %__new_size.addr = alloca i64, align 8
  store %"class.std::vector.33"* %this, %"class.std::vector.33"** %this.addr, align 8
  call void @llvm.dbg.declare(metadata %"class.std::vector.33"** %this.addr, metadata !8437, metadata !DIExpression()), !dbg !8438
  store i64 %__new_size, i64* %__new_size.addr, align 8
  call void @llvm.dbg.declare(metadata i64* %__new_size.addr, metadata !8439, metadata !DIExpression()), !dbg !8440
  %this1 = load %"class.std::vector.33"*, %"class.std::vector.33"** %this.addr, align 8
  %0 = load i64, i64* %__new_size.addr, align 8, !dbg !8441
  %call = call i64 @_ZNKSt6vectorIN6dealii6TensorILi1ELi2EEESaIS2_EE4sizeEv(%"class.std::vector.33"* %this1) #3, !dbg !8443
  %cmp = icmp ugt i64 %0, %call, !dbg !8444
  br i1 %cmp, label %if.then, label %if.else, !dbg !8445

if.then:                                          ; preds = %entry
  %1 = load i64, i64* %__new_size.addr, align 8, !dbg !8446
  %call2 = call i64 @_ZNKSt6vectorIN6dealii6TensorILi1ELi2EEESaIS2_EE4sizeEv(%"class.std::vector.33"* %this1) #3, !dbg !8447
  %sub = sub i64 %1, %call2, !dbg !8448
  call void @_ZNSt6vectorIN6dealii6TensorILi1ELi2EEESaIS2_EE17_M_default_appendEm(%"class.std::vector.33"* %this1, i64 %sub), !dbg !8449
  br label %if.end6, !dbg !8449

if.else:                                          ; preds = %entry
  %2 = load i64, i64* %__new_size.addr, align 8, !dbg !8450
  %call3 = call i64 @_ZNKSt6vectorIN6dealii6TensorILi1ELi2EEESaIS2_EE4sizeEv(%"class.std::vector.33"* %this1) #3, !dbg !8452
  %cmp4 = icmp ult i64 %2, %call3, !dbg !8453
  br i1 %cmp4, label %if.then5, label %if.end, !dbg !8454

if.then5:                                         ; preds = %if.else
  %3 = bitcast %"class.std::vector.33"* %this1 to %"struct.std::_Vector_base.34"*, !dbg !8455
  %_M_impl = getelementptr inbounds %"struct.std::_Vector_base.34", %"struct.std::_Vector_base.34"* %3, i32 0, i32 0, !dbg !8455
  %4 = bitcast %"struct.std::_Vector_base<dealii::Tensor<1, 2>, std::allocator<dealii::Tensor<1, 2> > >::_Vector_impl"* %_M_impl to %"struct.std::_Vector_base<dealii::Tensor<1, 2>, std::allocator<dealii::Tensor<1, 2> > >::_Vector_impl_data"*, !dbg !8456
  %_M_start = getelementptr inbounds %"struct.std::_Vector_base<dealii::Tensor<1, 2>, std::allocator<dealii::Tensor<1, 2> > >::_Vector_impl_data", %"struct.std::_Vector_base<dealii::Tensor<1, 2>, std::allocator<dealii::Tensor<1, 2> > >::_Vector_impl_data"* %4, i32 0, i32 0, !dbg !8457
  %5 = load %"class.dealii::Tensor.38"*, %"class.dealii::Tensor.38"** %_M_start, align 8, !dbg !8457
  %6 = load i64, i64* %__new_size.addr, align 8, !dbg !8458
  %add.ptr = getelementptr inbounds %"class.dealii::Tensor.38", %"class.dealii::Tensor.38"* %5, i64 %6, !dbg !8459
  call void @_ZNSt6vectorIN6dealii6TensorILi1ELi2EEESaIS2_EE15_M_erase_at_endEPS2_(%"class.std::vector.33"* %this1, %"class.dealii::Tensor.38"* %add.ptr) #3, !dbg !8460
  br label %if.end, !dbg !8460

if.end:                                           ; preds = %if.then5, %if.else
  br label %if.end6

if.end6:                                          ; preds = %if.end, %if.then
  ret void, !dbg !8461
}

; Function Attrs: noinline nounwind uwtable
define linkonce_odr dso_local i64 @_ZNKSt6vectorIN6dealii6TensorILi2ELi2EEESaIS2_EE4sizeEv(%"class.std::vector.39"* %this) #5 comdat align 2 !dbg !8462 {
entry:
  %this.addr = alloca %"class.std::vector.39"*, align 8
  store %"class.std::vector.39"* %this, %"class.std::vector.39"** %this.addr, align 8
  call void @llvm.dbg.declare(metadata %"class.std::vector.39"** %this.addr, metadata !8463, metadata !DIExpression()), !dbg !8465
  %this1 = load %"class.std::vector.39"*, %"class.std::vector.39"** %this.addr, align 8
  %0 = bitcast %"class.std::vector.39"* %this1 to %"struct.std::_Vector_base.40"*, !dbg !8466
  %_M_impl = getelementptr inbounds %"struct.std::_Vector_base.40", %"struct.std::_Vector_base.40"* %0, i32 0, i32 0, !dbg !8466
  %1 = bitcast %"struct.std::_Vector_base<dealii::Tensor<2, 2>, std::allocator<dealii::Tensor<2, 2> > >::_Vector_impl"* %_M_impl to %"struct.std::_Vector_base<dealii::Tensor<2, 2>, std::allocator<dealii::Tensor<2, 2> > >::_Vector_impl_data"*, !dbg !8467
  %_M_finish = getelementptr inbounds %"struct.std::_Vector_base<dealii::Tensor<2, 2>, std::allocator<dealii::Tensor<2, 2> > >::_Vector_impl_data", %"struct.std::_Vector_base<dealii::Tensor<2, 2>, std::allocator<dealii::Tensor<2, 2> > >::_Vector_impl_data"* %1, i32 0, i32 1, !dbg !8468
  %2 = load %"class.dealii::Tensor.44"*, %"class.dealii::Tensor.44"** %_M_finish, align 8, !dbg !8468
  %3 = bitcast %"class.std::vector.39"* %this1 to %"struct.std::_Vector_base.40"*, !dbg !8469
  %_M_impl2 = getelementptr inbounds %"struct.std::_Vector_base.40", %"struct.std::_Vector_base.40"* %3, i32 0, i32 0, !dbg !8469
  %4 = bitcast %"struct.std::_Vector_base<dealii::Tensor<2, 2>, std::allocator<dealii::Tensor<2, 2> > >::_Vector_impl"* %_M_impl2 to %"struct.std::_Vector_base<dealii::Tensor<2, 2>, std::allocator<dealii::Tensor<2, 2> > >::_Vector_impl_data"*, !dbg !8470
  %_M_start = getelementptr inbounds %"struct.std::_Vector_base<dealii::Tensor<2, 2>, std::allocator<dealii::Tensor<2, 2> > >::_Vector_impl_data", %"struct.std::_Vector_base<dealii::Tensor<2, 2>, std::allocator<dealii::Tensor<2, 2> > >::_Vector_impl_data"* %4, i32 0, i32 0, !dbg !8471
  %5 = load %"class.dealii::Tensor.44"*, %"class.dealii::Tensor.44"** %_M_start, align 8, !dbg !8471
  %sub.ptr.lhs.cast = ptrtoint %"class.dealii::Tensor.44"* %2 to i64, !dbg !8472
  %sub.ptr.rhs.cast = ptrtoint %"class.dealii::Tensor.44"* %5 to i64, !dbg !8472
  %sub.ptr.sub = sub i64 %sub.ptr.lhs.cast, %sub.ptr.rhs.cast, !dbg !8472
  %sub.ptr.div = sdiv exact i64 %sub.ptr.sub, 32, !dbg !8472
  ret i64 %sub.ptr.div, !dbg !8473
}

; Function Attrs: noinline uwtable
define linkonce_odr dso_local void @_ZNSt6vectorIN6dealii6TensorILi2ELi2EEESaIS2_EE6resizeEm(%"class.std::vector.39"* %this, i64 %__new_size) #0 comdat align 2 !dbg !8474 {
entry:
  %this.addr = alloca %"class.std::vector.39"*, align 8
  %__new_size.addr = alloca i64, align 8
  store %"class.std::vector.39"* %this, %"class.std::vector.39"** %this.addr, align 8
  call void @llvm.dbg.declare(metadata %"class.std::vector.39"** %this.addr, metadata !8475, metadata !DIExpression()), !dbg !8476
  store i64 %__new_size, i64* %__new_size.addr, align 8
  call void @llvm.dbg.declare(metadata i64* %__new_size.addr, metadata !8477, metadata !DIExpression()), !dbg !8478
  %this1 = load %"class.std::vector.39"*, %"class.std::vector.39"** %this.addr, align 8
  %0 = load i64, i64* %__new_size.addr, align 8, !dbg !8479
  %call = call i64 @_ZNKSt6vectorIN6dealii6TensorILi2ELi2EEESaIS2_EE4sizeEv(%"class.std::vector.39"* %this1) #3, !dbg !8481
  %cmp = icmp ugt i64 %0, %call, !dbg !8482
  br i1 %cmp, label %if.then, label %if.else, !dbg !8483

if.then:                                          ; preds = %entry
  %1 = load i64, i64* %__new_size.addr, align 8, !dbg !8484
  %call2 = call i64 @_ZNKSt6vectorIN6dealii6TensorILi2ELi2EEESaIS2_EE4sizeEv(%"class.std::vector.39"* %this1) #3, !dbg !8485
  %sub = sub i64 %1, %call2, !dbg !8486
  call void @_ZNSt6vectorIN6dealii6TensorILi2ELi2EEESaIS2_EE17_M_default_appendEm(%"class.std::vector.39"* %this1, i64 %sub), !dbg !8487
  br label %if.end6, !dbg !8487

if.else:                                          ; preds = %entry
  %2 = load i64, i64* %__new_size.addr, align 8, !dbg !8488
  %call3 = call i64 @_ZNKSt6vectorIN6dealii6TensorILi2ELi2EEESaIS2_EE4sizeEv(%"class.std::vector.39"* %this1) #3, !dbg !8490
  %cmp4 = icmp ult i64 %2, %call3, !dbg !8491
  br i1 %cmp4, label %if.then5, label %if.end, !dbg !8492

if.then5:                                         ; preds = %if.else
  %3 = bitcast %"class.std::vector.39"* %this1 to %"struct.std::_Vector_base.40"*, !dbg !8493
  %_M_impl = getelementptr inbounds %"struct.std::_Vector_base.40", %"struct.std::_Vector_base.40"* %3, i32 0, i32 0, !dbg !8493
  %4 = bitcast %"struct.std::_Vector_base<dealii::Tensor<2, 2>, std::allocator<dealii::Tensor<2, 2> > >::_Vector_impl"* %_M_impl to %"struct.std::_Vector_base<dealii::Tensor<2, 2>, std::allocator<dealii::Tensor<2, 2> > >::_Vector_impl_data"*, !dbg !8494
  %_M_start = getelementptr inbounds %"struct.std::_Vector_base<dealii::Tensor<2, 2>, std::allocator<dealii::Tensor<2, 2> > >::_Vector_impl_data", %"struct.std::_Vector_base<dealii::Tensor<2, 2>, std::allocator<dealii::Tensor<2, 2> > >::_Vector_impl_data"* %4, i32 0, i32 0, !dbg !8495
  %5 = load %"class.dealii::Tensor.44"*, %"class.dealii::Tensor.44"** %_M_start, align 8, !dbg !8495
  %6 = load i64, i64* %__new_size.addr, align 8, !dbg !8496
  %add.ptr = getelementptr inbounds %"class.dealii::Tensor.44", %"class.dealii::Tensor.44"* %5, i64 %6, !dbg !8497
  call void @_ZNSt6vectorIN6dealii6TensorILi2ELi2EEESaIS2_EE15_M_erase_at_endEPS2_(%"class.std::vector.39"* %this1, %"class.dealii::Tensor.44"* %add.ptr) #3, !dbg !8498
  br label %if.end, !dbg !8498

if.end:                                           ; preds = %if.then5, %if.else
  br label %if.end6

if.end6:                                          ; preds = %if.end, %if.then
  ret void, !dbg !8499
}

; Function Attrs: noinline nounwind uwtable
define linkonce_odr dso_local i64 @_ZNKSt6vectorIN6dealii6TensorILi3ELi2EEESaIS2_EE4sizeEv(%"class.std::vector.46"* %this) #5 comdat align 2 !dbg !8500 {
entry:
  %this.addr = alloca %"class.std::vector.46"*, align 8
  store %"class.std::vector.46"* %this, %"class.std::vector.46"** %this.addr, align 8
  call void @llvm.dbg.declare(metadata %"class.std::vector.46"** %this.addr, metadata !8501, metadata !DIExpression()), !dbg !8503
  %this1 = load %"class.std::vector.46"*, %"class.std::vector.46"** %this.addr, align 8
  %0 = bitcast %"class.std::vector.46"* %this1 to %"struct.std::_Vector_base.47"*, !dbg !8504
  %_M_impl = getelementptr inbounds %"struct.std::_Vector_base.47", %"struct.std::_Vector_base.47"* %0, i32 0, i32 0, !dbg !8504
  %1 = bitcast %"struct.std::_Vector_base<dealii::Tensor<3, 2>, std::allocator<dealii::Tensor<3, 2> > >::_Vector_impl"* %_M_impl to %"struct.std::_Vector_base<dealii::Tensor<3, 2>, std::allocator<dealii::Tensor<3, 2> > >::_Vector_impl_data"*, !dbg !8505
  %_M_finish = getelementptr inbounds %"struct.std::_Vector_base<dealii::Tensor<3, 2>, std::allocator<dealii::Tensor<3, 2> > >::_Vector_impl_data", %"struct.std::_Vector_base<dealii::Tensor<3, 2>, std::allocator<dealii::Tensor<3, 2> > >::_Vector_impl_data"* %1, i32 0, i32 1, !dbg !8506
  %2 = load %"class.dealii::Tensor.51"*, %"class.dealii::Tensor.51"** %_M_finish, align 8, !dbg !8506
  %3 = bitcast %"class.std::vector.46"* %this1 to %"struct.std::_Vector_base.47"*, !dbg !8507
  %_M_impl2 = getelementptr inbounds %"struct.std::_Vector_base.47", %"struct.std::_Vector_base.47"* %3, i32 0, i32 0, !dbg !8507
  %4 = bitcast %"struct.std::_Vector_base<dealii::Tensor<3, 2>, std::allocator<dealii::Tensor<3, 2> > >::_Vector_impl"* %_M_impl2 to %"struct.std::_Vector_base<dealii::Tensor<3, 2>, std::allocator<dealii::Tensor<3, 2> > >::_Vector_impl_data"*, !dbg !8508
  %_M_start = getelementptr inbounds %"struct.std::_Vector_base<dealii::Tensor<3, 2>, std::allocator<dealii::Tensor<3, 2> > >::_Vector_impl_data", %"struct.std::_Vector_base<dealii::Tensor<3, 2>, std::allocator<dealii::Tensor<3, 2> > >::_Vector_impl_data"* %4, i32 0, i32 0, !dbg !8509
  %5 = load %"class.dealii::Tensor.51"*, %"class.dealii::Tensor.51"** %_M_start, align 8, !dbg !8509
  %sub.ptr.lhs.cast = ptrtoint %"class.dealii::Tensor.51"* %2 to i64, !dbg !8510
  %sub.ptr.rhs.cast = ptrtoint %"class.dealii::Tensor.51"* %5 to i64, !dbg !8510
  %sub.ptr.sub = sub i64 %sub.ptr.lhs.cast, %sub.ptr.rhs.cast, !dbg !8510
  %sub.ptr.div = sdiv exact i64 %sub.ptr.sub, 64, !dbg !8510
  ret i64 %sub.ptr.div, !dbg !8511
}

; Function Attrs: noinline nounwind uwtable
define linkonce_odr dso_local void @_ZN6dealii5PointILi2EEC2Ev(%"class.dealii::Point.45"* %this) unnamed_addr #5 comdat align 2 !dbg !8512 {
entry:
  %this.addr = alloca %"class.dealii::Point.45"*, align 8
  store %"class.dealii::Point.45"* %this, %"class.dealii::Point.45"** %this.addr, align 8
  call void @llvm.dbg.declare(metadata %"class.dealii::Point.45"** %this.addr, metadata !8513, metadata !DIExpression()), !dbg !8515
  %this1 = load %"class.dealii::Point.45"*, %"class.dealii::Point.45"** %this.addr, align 8
  %0 = bitcast %"class.dealii::Point.45"* %this1 to %"class.dealii::Tensor.38"*, !dbg !8516
  call void @_ZN6dealii6TensorILi1ELi2EEC2Eb(%"class.dealii::Tensor.38"* %0, i1 zeroext true), !dbg !8517
  ret void, !dbg !8518
}

; Function Attrs: noinline nounwind uwtable
define linkonce_odr dso_local double @_ZNK6dealii5PointILi2EEclEj(%"class.dealii::Point.45"* %this, i32 %index) #5 comdat align 2 !dbg !8519 {
entry:
  %this.addr = alloca %"class.dealii::Point.45"*, align 8
  %index.addr = alloca i32, align 4
  store %"class.dealii::Point.45"* %this, %"class.dealii::Point.45"** %this.addr, align 8
  call void @llvm.dbg.declare(metadata %"class.dealii::Point.45"** %this.addr, metadata !8520, metadata !DIExpression()), !dbg !8522
  store i32 %index, i32* %index.addr, align 4
  call void @llvm.dbg.declare(metadata i32* %index.addr, metadata !8523, metadata !DIExpression()), !dbg !8524
  %this1 = load %"class.dealii::Point.45"*, %"class.dealii::Point.45"** %this.addr, align 8
  %0 = bitcast %"class.dealii::Point.45"* %this1 to %"class.dealii::Tensor.38"*, !dbg !8525
  %values = getelementptr inbounds %"class.dealii::Tensor.38", %"class.dealii::Tensor.38"* %0, i32 0, i32 0, !dbg !8525
  %1 = load i32, i32* %index.addr, align 4, !dbg !8526
  %idxprom = zext i32 %1 to i64, !dbg !8527
  %arrayidx = getelementptr inbounds [2 x double], [2 x double]* %values, i64 0, i64 %idxprom, !dbg !8527
  %2 = load double, double* %arrayidx, align 8, !dbg !8527
  ret double %2, !dbg !8528
}

; Function Attrs: noinline nounwind uwtable
define linkonce_odr dso_local dereferenceable(8) double* @_ZN6dealii5PointILi2EEclEj(%"class.dealii::Point.45"* %this, i32 %index) #5 comdat align 2 !dbg !8529 {
entry:
  %this.addr = alloca %"class.dealii::Point.45"*, align 8
  %index.addr = alloca i32, align 4
  store %"class.dealii::Point.45"* %this, %"class.dealii::Point.45"** %this.addr, align 8
  call void @llvm.dbg.declare(metadata %"class.dealii::Point.45"** %this.addr, metadata !8530, metadata !DIExpression()), !dbg !8531
  store i32 %index, i32* %index.addr, align 4
  call void @llvm.dbg.declare(metadata i32* %index.addr, metadata !8532, metadata !DIExpression()), !dbg !8533
  %this1 = load %"class.dealii::Point.45"*, %"class.dealii::Point.45"** %this.addr, align 8
  %0 = bitcast %"class.dealii::Point.45"* %this1 to %"class.dealii::Tensor.38"*, !dbg !8534
  %values = getelementptr inbounds %"class.dealii::Tensor.38", %"class.dealii::Tensor.38"* %0, i32 0, i32 0, !dbg !8534
  %1 = load i32, i32* %index.addr, align 4, !dbg !8535
  %idxprom = zext i32 %1 to i64, !dbg !8536
  %arrayidx = getelementptr inbounds [2 x double], [2 x double]* %values, i64 0, i64 %idxprom, !dbg !8536
  ret double* %arrayidx, !dbg !8537
}

declare dso_local void @_ZNK6dealii22AnisotropicPolynomialsILi2EE7computeERKNS_5PointILi2EEERSt6vectorIdSaIdEERS6_INS_6TensorILi1ELi2EEESaISB_EERS6_INSA_ILi2ELi2EEESaISF_EE(%"class.dealii::AnisotropicPolynomials.31"*, %"class.dealii::Point.45"* dereferenceable(16), %"class.std::vector.8"* dereferenceable(24), %"class.std::vector.33"* dereferenceable(24), %"class.std::vector.39"* dereferenceable(24)) #1

; Function Attrs: noinline nounwind uwtable
define linkonce_odr dso_local dereferenceable(16) %"class.dealii::Tensor.38"* @_ZNSt6vectorIN6dealii6TensorILi1ELi2EEESaIS2_EEixEm(%"class.std::vector.33"* %this, i64 %__n) #5 comdat align 2 !dbg !8538 {
entry:
  %this.addr = alloca %"class.std::vector.33"*, align 8
  %__n.addr = alloca i64, align 8
  store %"class.std::vector.33"* %this, %"class.std::vector.33"** %this.addr, align 8
  call void @llvm.dbg.declare(metadata %"class.std::vector.33"** %this.addr, metadata !8539, metadata !DIExpression()), !dbg !8540
  store i64 %__n, i64* %__n.addr, align 8
  call void @llvm.dbg.declare(metadata i64* %__n.addr, metadata !8541, metadata !DIExpression()), !dbg !8542
  %this1 = load %"class.std::vector.33"*, %"class.std::vector.33"** %this.addr, align 8
  %0 = bitcast %"class.std::vector.33"* %this1 to %"struct.std::_Vector_base.34"*, !dbg !8543
  %_M_impl = getelementptr inbounds %"struct.std::_Vector_base.34", %"struct.std::_Vector_base.34"* %0, i32 0, i32 0, !dbg !8543
  %1 = bitcast %"struct.std::_Vector_base<dealii::Tensor<1, 2>, std::allocator<dealii::Tensor<1, 2> > >::_Vector_impl"* %_M_impl to %"struct.std::_Vector_base<dealii::Tensor<1, 2>, std::allocator<dealii::Tensor<1, 2> > >::_Vector_impl_data"*, !dbg !8544
  %_M_start = getelementptr inbounds %"struct.std::_Vector_base<dealii::Tensor<1, 2>, std::allocator<dealii::Tensor<1, 2> > >::_Vector_impl_data", %"struct.std::_Vector_base<dealii::Tensor<1, 2>, std::allocator<dealii::Tensor<1, 2> > >::_Vector_impl_data"* %1, i32 0, i32 0, !dbg !8545
  %2 = load %"class.dealii::Tensor.38"*, %"class.dealii::Tensor.38"** %_M_start, align 8, !dbg !8545
  %3 = load i64, i64* %__n.addr, align 8, !dbg !8546
  %add.ptr = getelementptr inbounds %"class.dealii::Tensor.38", %"class.dealii::Tensor.38"* %2, i64 %3, !dbg !8547
  ret %"class.dealii::Tensor.38"* %add.ptr, !dbg !8548
}

; Function Attrs: noinline nounwind uwtable
define linkonce_odr dso_local dereferenceable(8) double* @_ZN6dealii6TensorILi1ELi2EEixEj(%"class.dealii::Tensor.38"* %this, i32 %index) #5 comdat align 2 !dbg !8549 {
entry:
  %this.addr = alloca %"class.dealii::Tensor.38"*, align 8
  %index.addr = alloca i32, align 4
  store %"class.dealii::Tensor.38"* %this, %"class.dealii::Tensor.38"** %this.addr, align 8
  call void @llvm.dbg.declare(metadata %"class.dealii::Tensor.38"** %this.addr, metadata !8550, metadata !DIExpression()), !dbg !8551
  store i32 %index, i32* %index.addr, align 4
  call void @llvm.dbg.declare(metadata i32* %index.addr, metadata !8552, metadata !DIExpression()), !dbg !8553
  %this1 = load %"class.dealii::Tensor.38"*, %"class.dealii::Tensor.38"** %this.addr, align 8
  %values = getelementptr inbounds %"class.dealii::Tensor.38", %"class.dealii::Tensor.38"* %this1, i32 0, i32 0, !dbg !8554
  %0 = load i32, i32* %index.addr, align 4, !dbg !8555
  %idxprom = zext i32 %0 to i64, !dbg !8554
  %arrayidx = getelementptr inbounds [2 x double], [2 x double]* %values, i64 0, i64 %idxprom, !dbg !8554
  ret double* %arrayidx, !dbg !8556
}

; Function Attrs: noinline nounwind uwtable
define linkonce_odr dso_local dereferenceable(32) %"class.dealii::Tensor.44"* @_ZNSt6vectorIN6dealii6TensorILi2ELi2EEESaIS2_EEixEm(%"class.std::vector.39"* %this, i64 %__n) #5 comdat align 2 !dbg !8557 {
entry:
  %this.addr = alloca %"class.std::vector.39"*, align 8
  %__n.addr = alloca i64, align 8
  store %"class.std::vector.39"* %this, %"class.std::vector.39"** %this.addr, align 8
  call void @llvm.dbg.declare(metadata %"class.std::vector.39"** %this.addr, metadata !8558, metadata !DIExpression()), !dbg !8559
  store i64 %__n, i64* %__n.addr, align 8
  call void @llvm.dbg.declare(metadata i64* %__n.addr, metadata !8560, metadata !DIExpression()), !dbg !8561
  %this1 = load %"class.std::vector.39"*, %"class.std::vector.39"** %this.addr, align 8
  %0 = bitcast %"class.std::vector.39"* %this1 to %"struct.std::_Vector_base.40"*, !dbg !8562
  %_M_impl = getelementptr inbounds %"struct.std::_Vector_base.40", %"struct.std::_Vector_base.40"* %0, i32 0, i32 0, !dbg !8562
  %1 = bitcast %"struct.std::_Vector_base<dealii::Tensor<2, 2>, std::allocator<dealii::Tensor<2, 2> > >::_Vector_impl"* %_M_impl to %"struct.std::_Vector_base<dealii::Tensor<2, 2>, std::allocator<dealii::Tensor<2, 2> > >::_Vector_impl_data"*, !dbg !8563
  %_M_start = getelementptr inbounds %"struct.std::_Vector_base<dealii::Tensor<2, 2>, std::allocator<dealii::Tensor<2, 2> > >::_Vector_impl_data", %"struct.std::_Vector_base<dealii::Tensor<2, 2>, std::allocator<dealii::Tensor<2, 2> > >::_Vector_impl_data"* %1, i32 0, i32 0, !dbg !8564
  %2 = load %"class.dealii::Tensor.44"*, %"class.dealii::Tensor.44"** %_M_start, align 8, !dbg !8564
  %3 = load i64, i64* %__n.addr, align 8, !dbg !8565
  %add.ptr = getelementptr inbounds %"class.dealii::Tensor.44", %"class.dealii::Tensor.44"* %2, i64 %3, !dbg !8566
  ret %"class.dealii::Tensor.44"* %add.ptr, !dbg !8567
}

; Function Attrs: noinline nounwind uwtable
define linkonce_odr dso_local dereferenceable(16) %"class.dealii::Tensor.38"* @_ZN6dealii6TensorILi2ELi2EEixEj(%"class.dealii::Tensor.44"* %this, i32 %i) #5 comdat align 2 !dbg !8568 {
entry:
  %this.addr = alloca %"class.dealii::Tensor.44"*, align 8
  %i.addr = alloca i32, align 4
  store %"class.dealii::Tensor.44"* %this, %"class.dealii::Tensor.44"** %this.addr, align 8
  call void @llvm.dbg.declare(metadata %"class.dealii::Tensor.44"** %this.addr, metadata !8569, metadata !DIExpression()), !dbg !8570
  store i32 %i, i32* %i.addr, align 4
  call void @llvm.dbg.declare(metadata i32* %i.addr, metadata !8571, metadata !DIExpression()), !dbg !8572
  %this1 = load %"class.dealii::Tensor.44"*, %"class.dealii::Tensor.44"** %this.addr, align 8
  %subtensor = getelementptr inbounds %"class.dealii::Tensor.44", %"class.dealii::Tensor.44"* %this1, i32 0, i32 0, !dbg !8573
  %0 = load i32, i32* %i.addr, align 4, !dbg !8574
  %idxprom = zext i32 %0 to i64, !dbg !8573
  %arrayidx = getelementptr inbounds [2 x %"class.dealii::Tensor.38"], [2 x %"class.dealii::Tensor.38"]* %subtensor, i64 0, i64 %idxprom, !dbg !8573
  ret %"class.dealii::Tensor.38"* %arrayidx, !dbg !8575
}

; Function Attrs: noinline nounwind uwtable
define linkonce_odr dso_local dereferenceable(64) %"class.dealii::Tensor.51"* @_ZNSt6vectorIN6dealii6TensorILi3ELi2EEESaIS2_EEixEm(%"class.std::vector.46"* %this, i64 %__n) #5 comdat align 2 !dbg !8576 {
entry:
  %this.addr = alloca %"class.std::vector.46"*, align 8
  %__n.addr = alloca i64, align 8
  store %"class.std::vector.46"* %this, %"class.std::vector.46"** %this.addr, align 8
  call void @llvm.dbg.declare(metadata %"class.std::vector.46"** %this.addr, metadata !8577, metadata !DIExpression()), !dbg !8579
  store i64 %__n, i64* %__n.addr, align 8
  call void @llvm.dbg.declare(metadata i64* %__n.addr, metadata !8580, metadata !DIExpression()), !dbg !8581
  %this1 = load %"class.std::vector.46"*, %"class.std::vector.46"** %this.addr, align 8
  %0 = bitcast %"class.std::vector.46"* %this1 to %"struct.std::_Vector_base.47"*, !dbg !8582
  %_M_impl = getelementptr inbounds %"struct.std::_Vector_base.47", %"struct.std::_Vector_base.47"* %0, i32 0, i32 0, !dbg !8582
  %1 = bitcast %"struct.std::_Vector_base<dealii::Tensor<3, 2>, std::allocator<dealii::Tensor<3, 2> > >::_Vector_impl"* %_M_impl to %"struct.std::_Vector_base<dealii::Tensor<3, 2>, std::allocator<dealii::Tensor<3, 2> > >::_Vector_impl_data"*, !dbg !8583
  %_M_start = getelementptr inbounds %"struct.std::_Vector_base<dealii::Tensor<3, 2>, std::allocator<dealii::Tensor<3, 2> > >::_Vector_impl_data", %"struct.std::_Vector_base<dealii::Tensor<3, 2>, std::allocator<dealii::Tensor<3, 2> > >::_Vector_impl_data"* %1, i32 0, i32 0, !dbg !8584
  %2 = load %"class.dealii::Tensor.51"*, %"class.dealii::Tensor.51"** %_M_start, align 8, !dbg !8584
  %3 = load i64, i64* %__n.addr, align 8, !dbg !8585
  %add.ptr = getelementptr inbounds %"class.dealii::Tensor.51", %"class.dealii::Tensor.51"* %2, i64 %3, !dbg !8586
  ret %"class.dealii::Tensor.51"* %add.ptr, !dbg !8587
}

; Function Attrs: noinline nounwind uwtable
define linkonce_odr dso_local dereferenceable(32) %"class.dealii::Tensor.44"* @_ZN6dealii6TensorILi3ELi2EEixEj(%"class.dealii::Tensor.51"* %this, i32 %i) #5 comdat align 2 !dbg !8588 {
entry:
  %this.addr = alloca %"class.dealii::Tensor.51"*, align 8
  %i.addr = alloca i32, align 4
  store %"class.dealii::Tensor.51"* %this, %"class.dealii::Tensor.51"** %this.addr, align 8
  call void @llvm.dbg.declare(metadata %"class.dealii::Tensor.51"** %this.addr, metadata !8589, metadata !DIExpression()), !dbg !8590
  store i32 %i, i32* %i.addr, align 4
  call void @llvm.dbg.declare(metadata i32* %i.addr, metadata !8591, metadata !DIExpression()), !dbg !8592
  %this1 = load %"class.dealii::Tensor.51"*, %"class.dealii::Tensor.51"** %this.addr, align 8
  %subtensor = getelementptr inbounds %"class.dealii::Tensor.51", %"class.dealii::Tensor.51"* %this1, i32 0, i32 0, !dbg !8593
  %0 = load i32, i32* %i.addr, align 4, !dbg !8594
  %idxprom = zext i32 %0 to i64, !dbg !8593
  %arrayidx = getelementptr inbounds [2 x %"class.dealii::Tensor.44"], [2 x %"class.dealii::Tensor.44"]* %subtensor, i64 0, i64 %idxprom, !dbg !8593
  ret %"class.dealii::Tensor.44"* %arrayidx, !dbg !8595
}

; Function Attrs: noinline nounwind uwtable
define weak_odr dso_local i32 @_ZNK6dealii14PolynomialsABFILi2EE1nEv(%"class.dealii::PolynomialsABF.30"* %this) #5 comdat align 2 !dbg !8596 {
entry:
  %this.addr = alloca %"class.dealii::PolynomialsABF.30"*, align 8
  store %"class.dealii::PolynomialsABF.30"* %this, %"class.dealii::PolynomialsABF.30"** %this.addr, align 8
  call void @llvm.dbg.declare(metadata %"class.dealii::PolynomialsABF.30"** %this.addr, metadata !8597, metadata !DIExpression()), !dbg !8598
  %this1 = load %"class.dealii::PolynomialsABF.30"*, %"class.dealii::PolynomialsABF.30"** %this.addr, align 8
  %n_pols = getelementptr inbounds %"class.dealii::PolynomialsABF.30", %"class.dealii::PolynomialsABF.30"* %this1, i32 0, i32 2, !dbg !8599
  %0 = load i32, i32* %n_pols, align 8, !dbg !8599
  ret i32 %0, !dbg !8600
}

; Function Attrs: noinline nounwind uwtable
define weak_odr dso_local i32 @_ZNK6dealii14PolynomialsABFILi2EE6degreeEv(%"class.dealii::PolynomialsABF.30"* %this) #5 comdat align 2 !dbg !8601 {
entry:
  %this.addr = alloca %"class.dealii::PolynomialsABF.30"*, align 8
  store %"class.dealii::PolynomialsABF.30"* %this, %"class.dealii::PolynomialsABF.30"** %this.addr, align 8
  call void @llvm.dbg.declare(metadata %"class.dealii::PolynomialsABF.30"** %this.addr, metadata !8602, metadata !DIExpression()), !dbg !8603
  %this1 = load %"class.dealii::PolynomialsABF.30"*, %"class.dealii::PolynomialsABF.30"** %this.addr, align 8
  %my_degree = getelementptr inbounds %"class.dealii::PolynomialsABF.30", %"class.dealii::PolynomialsABF.30"* %this1, i32 0, i32 0, !dbg !8604
  %0 = load i32, i32* %my_degree, align 8, !dbg !8604
  ret i32 %0, !dbg !8605
}

; Function Attrs: noinline uwtable
define weak_odr dso_local void @_ZN6dealii14PolynomialsABFILi3EEC2Ej(%"class.dealii::PolynomialsABF.52"* %this, i32 %k) unnamed_addr #0 comdat($_ZN6dealii14PolynomialsABFILi3EEC5Ej) align 2 personality i8* bitcast (i32 (...)* @__gxx_personality_v0 to i8*) !dbg !8606 {
entry:
  %this.addr = alloca %"class.dealii::PolynomialsABF.52"*, align 8
  %k.addr = alloca i32, align 4
  %pols = alloca %"class.std::vector", align 8
  %ref.tmp = alloca %"class.std::allocator", align 1
  %exn.slot = alloca i8*
  %ehselector.slot = alloca i32
  %ref.tmp2 = alloca %"class.std::vector.0", align 8
  %d = alloca i32, align 4
  %ref.tmp8 = alloca %"class.std::vector.0", align 8
  %d12 = alloca i32, align 4
  %ref.tmp16 = alloca %"class.std::vector.0", align 8
  store %"class.dealii::PolynomialsABF.52"* %this, %"class.dealii::PolynomialsABF.52"** %this.addr, align 8
  call void @llvm.dbg.declare(metadata %"class.dealii::PolynomialsABF.52"** %this.addr, metadata !8607, metadata !DIExpression()), !dbg !8609
  store i32 %k, i32* %k.addr, align 4
  call void @llvm.dbg.declare(metadata i32* %k.addr, metadata !8610, metadata !DIExpression()), !dbg !8611
  %this1 = load %"class.dealii::PolynomialsABF.52"*, %"class.dealii::PolynomialsABF.52"** %this.addr, align 8
  %my_degree = getelementptr inbounds %"class.dealii::PolynomialsABF.52", %"class.dealii::PolynomialsABF.52"* %this1, i32 0, i32 0, !dbg !8612
  %0 = load i32, i32* %k.addr, align 4, !dbg !8613
  store i32 %0, i32* %my_degree, align 8, !dbg !8612
  %n_pols = getelementptr inbounds %"class.dealii::PolynomialsABF.52", %"class.dealii::PolynomialsABF.52"* %this1, i32 0, i32 2, !dbg !8614
  %1 = load i32, i32* %k.addr, align 4, !dbg !8615
  %call = call i32 @_ZN6dealii14PolynomialsABFILi3EE14compute_n_polsEj(i32 %1), !dbg !8616
  store i32 %call, i32* %n_pols, align 8, !dbg !8614
  %p_values = getelementptr inbounds %"class.dealii::PolynomialsABF.52", %"class.dealii::PolynomialsABF.52"* %this1, i32 0, i32 3, !dbg !8617
  call void @_ZNSt6vectorIdSaIdEEC2Ev(%"class.std::vector.8"* %p_values) #3, !dbg !8617
  %p_grads = getelementptr inbounds %"class.dealii::PolynomialsABF.52", %"class.dealii::PolynomialsABF.52"* %this1, i32 0, i32 4, !dbg !8617
  call void @_ZNSt6vectorIN6dealii6TensorILi1ELi3EEESaIS2_EEC2Ev(%"class.std::vector.55"* %p_grads) #3, !dbg !8617
  %p_grad_grads = getelementptr inbounds %"class.dealii::PolynomialsABF.52", %"class.dealii::PolynomialsABF.52"* %this1, i32 0, i32 5, !dbg !8617
  call void @_ZNSt6vectorIN6dealii6TensorILi2ELi3EEESaIS2_EEC2Ev(%"class.std::vector.61"* %p_grad_grads) #3, !dbg !8617
  call void @llvm.dbg.declare(metadata %"class.std::vector"* %pols, metadata !8619, metadata !DIExpression()), !dbg !8622
  call void @_ZNSaISt6vectorIN6dealii11Polynomials10PolynomialIdEESaIS3_EEEC2Ev(%"class.std::allocator"* %ref.tmp) #3, !dbg !8622
  invoke void @_ZNSt6vectorIS_IN6dealii11Polynomials10PolynomialIdEESaIS3_EESaIS5_EEC2EmRKS6_(%"class.std::vector"* %pols, i64 3, %"class.std::allocator"* dereferenceable(1) %ref.tmp)
          to label %invoke.cont unwind label %lpad, !dbg !8622

invoke.cont:                                      ; preds = %entry
  call void @_ZNSaISt6vectorIN6dealii11Polynomials10PolynomialIdEESaIS3_EEED2Ev(%"class.std::allocator"* %ref.tmp) #3, !dbg !8622
  %2 = load i32, i32* %k.addr, align 4, !dbg !8623
  %add = add i32 %2, 2, !dbg !8624
  invoke void @_ZN6dealii11Polynomials19LagrangeEquidistant23generate_complete_basisEj(%"class.std::vector.0"* sret %ref.tmp2, i32 %add)
          to label %invoke.cont4 unwind label %lpad3, !dbg !8625

invoke.cont4:                                     ; preds = %invoke.cont
  %call5 = call dereferenceable(24) %"class.std::vector.0"* @_ZNSt6vectorIS_IN6dealii11Polynomials10PolynomialIdEESaIS3_EESaIS5_EEixEm(%"class.std::vector"* %pols, i64 0) #3, !dbg !8626
  %call6 = call dereferenceable(24) %"class.std::vector.0"* @_ZNSt6vectorIN6dealii11Polynomials10PolynomialIdEESaIS3_EEaSEOS5_(%"class.std::vector.0"* %call5, %"class.std::vector.0"* dereferenceable(24) %ref.tmp2) #3, !dbg !8627
  call void @_ZNSt6vectorIN6dealii11Polynomials10PolynomialIdEESaIS3_EED2Ev(%"class.std::vector.0"* %ref.tmp2) #3, !dbg !8626
  %3 = load i32, i32* %k.addr, align 4, !dbg !8628
  %cmp = icmp eq i32 %3, 0, !dbg !8630
  br i1 %cmp, label %if.then, label %if.else, !dbg !8631

if.then:                                          ; preds = %invoke.cont4
  call void @llvm.dbg.declare(metadata i32* %d, metadata !8632, metadata !DIExpression()), !dbg !8634
  store i32 1, i32* %d, align 4, !dbg !8634
  br label %for.cond, !dbg !8635

for.cond:                                         ; preds = %for.inc, %if.then
  %4 = load i32, i32* %d, align 4, !dbg !8636
  %cmp7 = icmp ult i32 %4, 3, !dbg !8638
  br i1 %cmp7, label %for.body, label %for.end, !dbg !8639

for.body:                                         ; preds = %for.cond
  invoke void @_ZN6dealii11Polynomials8Legendre23generate_complete_basisEj(%"class.std::vector.0"* sret %ref.tmp8, i32 0)
          to label %invoke.cont9 unwind label %lpad3, !dbg !8640

invoke.cont9:                                     ; preds = %for.body
  %5 = load i32, i32* %d, align 4, !dbg !8641
  %conv = zext i32 %5 to i64, !dbg !8641
  %call10 = call dereferenceable(24) %"class.std::vector.0"* @_ZNSt6vectorIS_IN6dealii11Polynomials10PolynomialIdEESaIS3_EESaIS5_EEixEm(%"class.std::vector"* %pols, i64 %conv) #3, !dbg !8642
  %call11 = call dereferenceable(24) %"class.std::vector.0"* @_ZNSt6vectorIN6dealii11Polynomials10PolynomialIdEESaIS3_EEaSEOS5_(%"class.std::vector.0"* %call10, %"class.std::vector.0"* dereferenceable(24) %ref.tmp8) #3, !dbg !8643
  call void @_ZNSt6vectorIN6dealii11Polynomials10PolynomialIdEESaIS3_EED2Ev(%"class.std::vector.0"* %ref.tmp8) #3, !dbg !8642
  br label %for.inc, !dbg !8642

for.inc:                                          ; preds = %invoke.cont9
  %6 = load i32, i32* %d, align 4, !dbg !8644
  %inc = add i32 %6, 1, !dbg !8644
  store i32 %inc, i32* %d, align 4, !dbg !8644
  br label %for.cond, !dbg !8645, !llvm.loop !8646

lpad:                                             ; preds = %entry
  %7 = landingpad { i8*, i32 }
          cleanup, !dbg !8648
  %8 = extractvalue { i8*, i32 } %7, 0, !dbg !8648
  store i8* %8, i8** %exn.slot, align 8, !dbg !8648
  %9 = extractvalue { i8*, i32 } %7, 1, !dbg !8648
  store i32 %9, i32* %ehselector.slot, align 4, !dbg !8648
  call void @_ZNSaISt6vectorIN6dealii11Polynomials10PolynomialIdEESaIS3_EEED2Ev(%"class.std::allocator"* %ref.tmp) #3, !dbg !8622
  br label %ehcleanup28, !dbg !8622

lpad3:                                            ; preds = %if.end, %for.body15, %for.body, %invoke.cont
  %10 = landingpad { i8*, i32 }
          cleanup, !dbg !8648
  %11 = extractvalue { i8*, i32 } %10, 0, !dbg !8648
  store i8* %11, i8** %exn.slot, align 8, !dbg !8648
  %12 = extractvalue { i8*, i32 } %10, 1, !dbg !8648
  store i32 %12, i32* %ehselector.slot, align 4, !dbg !8648
  br label %ehcleanup, !dbg !8648

for.end:                                          ; preds = %for.cond
  br label %if.end, !dbg !8647

if.else:                                          ; preds = %invoke.cont4
  call void @llvm.dbg.declare(metadata i32* %d12, metadata !8649, metadata !DIExpression()), !dbg !8651
  store i32 1, i32* %d12, align 4, !dbg !8651
  br label %for.cond13, !dbg !8652

for.cond13:                                       ; preds = %for.inc21, %if.else
  %13 = load i32, i32* %d12, align 4, !dbg !8653
  %cmp14 = icmp ult i32 %13, 3, !dbg !8655
  br i1 %cmp14, label %for.body15, label %for.end23, !dbg !8656

for.body15:                                       ; preds = %for.cond13
  %14 = load i32, i32* %k.addr, align 4, !dbg !8657
  invoke void @_ZN6dealii11Polynomials19LagrangeEquidistant23generate_complete_basisEj(%"class.std::vector.0"* sret %ref.tmp16, i32 %14)
          to label %invoke.cont17 unwind label %lpad3, !dbg !8658

invoke.cont17:                                    ; preds = %for.body15
  %15 = load i32, i32* %d12, align 4, !dbg !8659
  %conv18 = zext i32 %15 to i64, !dbg !8659
  %call19 = call dereferenceable(24) %"class.std::vector.0"* @_ZNSt6vectorIS_IN6dealii11Polynomials10PolynomialIdEESaIS3_EESaIS5_EEixEm(%"class.std::vector"* %pols, i64 %conv18) #3, !dbg !8660
  %call20 = call dereferenceable(24) %"class.std::vector.0"* @_ZNSt6vectorIN6dealii11Polynomials10PolynomialIdEESaIS3_EEaSEOS5_(%"class.std::vector.0"* %call19, %"class.std::vector.0"* dereferenceable(24) %ref.tmp16) #3, !dbg !8661
  call void @_ZNSt6vectorIN6dealii11Polynomials10PolynomialIdEESaIS3_EED2Ev(%"class.std::vector.0"* %ref.tmp16) #3, !dbg !8660
  br label %for.inc21, !dbg !8660

for.inc21:                                        ; preds = %invoke.cont17
  %16 = load i32, i32* %d12, align 4, !dbg !8662
  %inc22 = add i32 %16, 1, !dbg !8662
  store i32 %inc22, i32* %d12, align 4, !dbg !8662
  br label %for.cond13, !dbg !8663, !llvm.loop !8664

for.end23:                                        ; preds = %for.cond13
  br label %if.end

if.end:                                           ; preds = %for.end23, %for.end
  %call25 = invoke i8* @_Znwm(i64 32) #12
          to label %invoke.cont24 unwind label %lpad3, !dbg !8666

invoke.cont24:                                    ; preds = %if.end
  %17 = bitcast i8* %call25 to %"class.dealii::AnisotropicPolynomials.53"*, !dbg !8666
  invoke void @_ZN6dealii22AnisotropicPolynomialsILi3EEC1ERKSt6vectorIS2_INS_11Polynomials10PolynomialIdEESaIS5_EESaIS7_EE(%"class.dealii::AnisotropicPolynomials.53"* %17, %"class.std::vector"* dereferenceable(24) %pols)
          to label %invoke.cont27 unwind label %lpad26, !dbg !8667

invoke.cont27:                                    ; preds = %invoke.cont24
  %polynomial_space = getelementptr inbounds %"class.dealii::PolynomialsABF.52", %"class.dealii::PolynomialsABF.52"* %this1, i32 0, i32 1, !dbg !8668
  store %"class.dealii::AnisotropicPolynomials.53"* %17, %"class.dealii::AnisotropicPolynomials.53"** %polynomial_space, align 8, !dbg !8669
  call void @_ZNSt6vectorIS_IN6dealii11Polynomials10PolynomialIdEESaIS3_EESaIS5_EED2Ev(%"class.std::vector"* %pols) #3, !dbg !8670
  ret void, !dbg !8670

lpad26:                                           ; preds = %invoke.cont24
  %18 = landingpad { i8*, i32 }
          cleanup, !dbg !8648
  %19 = extractvalue { i8*, i32 } %18, 0, !dbg !8648
  store i8* %19, i8** %exn.slot, align 8, !dbg !8648
  %20 = extractvalue { i8*, i32 } %18, 1, !dbg !8648
  store i32 %20, i32* %ehselector.slot, align 4, !dbg !8648
  call void @_ZdlPv(i8* %call25) #13, !dbg !8666
  br label %ehcleanup, !dbg !8666

ehcleanup:                                        ; preds = %lpad26, %lpad3
  call void @_ZNSt6vectorIS_IN6dealii11Polynomials10PolynomialIdEESaIS3_EESaIS5_EED2Ev(%"class.std::vector"* %pols) #3, !dbg !8670
  br label %ehcleanup28, !dbg !8670

ehcleanup28:                                      ; preds = %ehcleanup, %lpad
  call void @_ZNSt6vectorIN6dealii6TensorILi2ELi3EEESaIS2_EED2Ev(%"class.std::vector.61"* %p_grad_grads) #3, !dbg !8648
  call void @_ZNSt6vectorIN6dealii6TensorILi1ELi3EEESaIS2_EED2Ev(%"class.std::vector.55"* %p_grads) #3, !dbg !8648
  call void @_ZNSt6vectorIdSaIdEED2Ev(%"class.std::vector.8"* %p_values) #3, !dbg !8648
  br label %eh.resume, !dbg !8648

eh.resume:                                        ; preds = %ehcleanup28
  %exn = load i8*, i8** %exn.slot, align 8, !dbg !8648
  %sel = load i32, i32* %ehselector.slot, align 4, !dbg !8648
  %lpad.val = insertvalue { i8*, i32 } undef, i8* %exn, 0, !dbg !8648
  %lpad.val31 = insertvalue { i8*, i32 } %lpad.val, i32 %sel, 1, !dbg !8648
  resume { i8*, i32 } %lpad.val31, !dbg !8648
}

; Function Attrs: noinline nounwind uwtable
define weak_odr dso_local i32 @_ZN6dealii14PolynomialsABFILi3EE14compute_n_polsEj(i32 %k) #5 comdat align 2 !dbg !8671 {
entry:
  %k.addr = alloca i32, align 4
  store i32 %k, i32* %k.addr, align 4
  call void @llvm.dbg.declare(metadata i32* %k.addr, metadata !8672, metadata !DIExpression()), !dbg !8673
  %0 = load i32, i32* %k.addr, align 4, !dbg !8674
  %add = add i32 %0, 1, !dbg !8676
  %mul = mul i32 3, %add, !dbg !8677
  %1 = load i32, i32* %k.addr, align 4, !dbg !8678
  %add1 = add i32 %1, 1, !dbg !8679
  %mul2 = mul i32 %mul, %add1, !dbg !8680
  %2 = load i32, i32* %k.addr, align 4, !dbg !8681
  %add3 = add i32 %2, 2, !dbg !8682
  %mul4 = mul i32 %mul2, %add3, !dbg !8683
  ret i32 %mul4, !dbg !8684
}

; Function Attrs: noinline nounwind uwtable
define linkonce_odr dso_local void @_ZNSt6vectorIN6dealii6TensorILi1ELi3EEESaIS2_EEC2Ev(%"class.std::vector.55"* %this) unnamed_addr #5 comdat align 2 !dbg !8685 {
entry:
  %this.addr = alloca %"class.std::vector.55"*, align 8
  store %"class.std::vector.55"* %this, %"class.std::vector.55"** %this.addr, align 8
  call void @llvm.dbg.declare(metadata %"class.std::vector.55"** %this.addr, metadata !8686, metadata !DIExpression()), !dbg !8688
  %this1 = load %"class.std::vector.55"*, %"class.std::vector.55"** %this.addr, align 8
  %0 = bitcast %"class.std::vector.55"* %this1 to %"struct.std::_Vector_base.56"*, !dbg !8689
  call void @_ZNSt12_Vector_baseIN6dealii6TensorILi1ELi3EEESaIS2_EEC2Ev(%"struct.std::_Vector_base.56"* %0) #3, !dbg !8690
  ret void, !dbg !8689
}

; Function Attrs: noinline nounwind uwtable
define linkonce_odr dso_local void @_ZNSt6vectorIN6dealii6TensorILi2ELi3EEESaIS2_EEC2Ev(%"class.std::vector.61"* %this) unnamed_addr #5 comdat align 2 !dbg !8691 {
entry:
  %this.addr = alloca %"class.std::vector.61"*, align 8
  store %"class.std::vector.61"* %this, %"class.std::vector.61"** %this.addr, align 8
  call void @llvm.dbg.declare(metadata %"class.std::vector.61"** %this.addr, metadata !8692, metadata !DIExpression()), !dbg !8694
  %this1 = load %"class.std::vector.61"*, %"class.std::vector.61"** %this.addr, align 8
  %0 = bitcast %"class.std::vector.61"* %this1 to %"struct.std::_Vector_base.62"*, !dbg !8695
  call void @_ZNSt12_Vector_baseIN6dealii6TensorILi2ELi3EEESaIS2_EEC2Ev(%"struct.std::_Vector_base.62"* %0) #3, !dbg !8696
  ret void, !dbg !8695
}

declare dso_local void @_ZN6dealii22AnisotropicPolynomialsILi3EEC1ERKSt6vectorIS2_INS_11Polynomials10PolynomialIdEESaIS5_EESaIS7_EE(%"class.dealii::AnisotropicPolynomials.53"*, %"class.std::vector"* dereferenceable(24)) unnamed_addr #1

; Function Attrs: noinline nounwind uwtable
define linkonce_odr dso_local void @_ZNSt6vectorIN6dealii6TensorILi2ELi3EEESaIS2_EED2Ev(%"class.std::vector.61"* %this) unnamed_addr #5 comdat align 2 personality i8* bitcast (i32 (...)* @__gxx_personality_v0 to i8*) !dbg !8697 {
entry:
  %this.addr = alloca %"class.std::vector.61"*, align 8
  %exn.slot = alloca i8*
  %ehselector.slot = alloca i32
  store %"class.std::vector.61"* %this, %"class.std::vector.61"** %this.addr, align 8
  call void @llvm.dbg.declare(metadata %"class.std::vector.61"** %this.addr, metadata !8698, metadata !DIExpression()), !dbg !8699
  %this1 = load %"class.std::vector.61"*, %"class.std::vector.61"** %this.addr, align 8
