; ModuleID = 'source/base/polynomials_bdm.cc'
source_filename = "source/base/polynomials_bdm.cc"
target datalayout = "e-m:e-p270:32:32-p271:32:32-p272:64:64-i64:64-f80:128-n8:16:32:64-S128"
target triple = "x86_64-unknown-linux-gnu"

%"class.std::ios_base::Init" = type { i8 }
%"class.dealii::PolynomialsBDM" = type { %"class.dealii::PolynomialSpace", %"class.std::vector", i32, %"class.std::vector.3", %"class.std::vector.13", %"class.std::vector.18" }
%"class.dealii::PolynomialSpace" = type { %"class.std::vector", i32, %"class.std::vector.8", %"class.std::vector.8" }
%"class.std::vector.8" = type { %"struct.std::_Vector_base.9" }
%"struct.std::_Vector_base.9" = type { %"struct.std::_Vector_base<unsigned int, std::allocator<unsigned int> >::_Vector_impl" }
%"struct.std::_Vector_base<unsigned int, std::allocator<unsigned int> >::_Vector_impl" = type { %"struct.std::_Vector_base<unsigned int, std::allocator<unsigned int> >::_Vector_impl_data" }
%"struct.std::_Vector_base<unsigned int, std::allocator<unsigned int> >::_Vector_impl_data" = type { i32*, i32*, i32* }
%"class.std::vector" = type { %"struct.std::_Vector_base" }
%"struct.std::_Vector_base" = type { %"struct.std::_Vector_base<dealii::Polynomials::Polynomial<double>, std::allocator<dealii::Polynomials::Polynomial<double> > >::_Vector_impl" }
%"struct.std::_Vector_base<dealii::Polynomials::Polynomial<double>, std::allocator<dealii::Polynomials::Polynomial<double> > >::_Vector_impl" = type { %"struct.std::_Vector_base<dealii::Polynomials::Polynomial<double>, std::allocator<dealii::Polynomials::Polynomial<double> > >::_Vector_impl_data" }
%"struct.std::_Vector_base<dealii::Polynomials::Polynomial<double>, std::allocator<dealii::Polynomials::Polynomial<double> > >::_Vector_impl_data" = type { %"class.dealii::Polynomials::Polynomial"*, %"class.dealii::Polynomials::Polynomial"*, %"class.dealii::Polynomials::Polynomial"* }
%"class.dealii::Polynomials::Polynomial" = type { %"class.dealii::Subscriptor", %"class.std::vector.3" }
%"class.dealii::Subscriptor" = type { i32 (...)**, i32, %"class.std::map", %"class.std::type_info"* }
%"class.std::map" = type { %"class.std::_Rb_tree" }
%"class.std::_Rb_tree" = type { %"struct.std::_Rb_tree<const char *, std::pair<const char *const, unsigned int>, std::_Select1st<std::pair<const char *const, unsigned int> >, std::less<const char *>, std::allocator<std::pair<const char *const, unsigned int> > >::_Rb_tree_impl" }
%"struct.std::_Rb_tree<const char *, std::pair<const char *const, unsigned int>, std::_Select1st<std::pair<const char *const, unsigned int> >, std::less<const char *>, std::allocator<std::pair<const char *const, unsigned int> > >::_Rb_tree_impl" = type { %"struct.std::_Rb_tree_key_compare", %"struct.std::_Rb_tree_header" }
%"struct.std::_Rb_tree_key_compare" = type { %"struct.std::less" }
%"struct.std::less" = type { i8 }
%"struct.std::_Rb_tree_header" = type { %"struct.std::_Rb_tree_node_base", i64 }
%"struct.std::_Rb_tree_node_base" = type { i32, %"struct.std::_Rb_tree_node_base"*, %"struct.std::_Rb_tree_node_base"*, %"struct.std::_Rb_tree_node_base"* }
%"class.std::type_info" = type { i32 (...)**, i8* }
%"class.std::vector.3" = type { %"struct.std::_Vector_base.4" }
%"struct.std::_Vector_base.4" = type { %"struct.std::_Vector_base<double, std::allocator<double> >::_Vector_impl" }
%"struct.std::_Vector_base<double, std::allocator<double> >::_Vector_impl" = type { %"struct.std::_Vector_base<double, std::allocator<double> >::_Vector_impl_data" }
%"struct.std::_Vector_base<double, std::allocator<double> >::_Vector_impl_data" = type { double*, double*, double* }
%"class.std::vector.13" = type { %"struct.std::_Vector_base.14" }
%"struct.std::_Vector_base.14" = type { %"struct.std::_Vector_base<dealii::Tensor<1, 1>, std::allocator<dealii::Tensor<1, 1> > >::_Vector_impl" }
%"struct.std::_Vector_base<dealii::Tensor<1, 1>, std::allocator<dealii::Tensor<1, 1> > >::_Vector_impl" = type { %"struct.std::_Vector_base<dealii::Tensor<1, 1>, std::allocator<dealii::Tensor<1, 1> > >::_Vector_impl_data" }
%"struct.std::_Vector_base<dealii::Tensor<1, 1>, std::allocator<dealii::Tensor<1, 1> > >::_Vector_impl_data" = type { %"class.dealii::Tensor"*, %"class.dealii::Tensor"*, %"class.dealii::Tensor"* }
%"class.dealii::Tensor" = type { [1 x double] }
%"class.std::vector.18" = type { %"struct.std::_Vector_base.19" }
%"struct.std::_Vector_base.19" = type { %"struct.std::_Vector_base<dealii::Tensor<2, 1>, std::allocator<dealii::Tensor<2, 1> > >::_Vector_impl" }
%"struct.std::_Vector_base<dealii::Tensor<2, 1>, std::allocator<dealii::Tensor<2, 1> > >::_Vector_impl" = type { %"struct.std::_Vector_base<dealii::Tensor<2, 1>, std::allocator<dealii::Tensor<2, 1> > >::_Vector_impl_data" }
%"struct.std::_Vector_base<dealii::Tensor<2, 1>, std::allocator<dealii::Tensor<2, 1> > >::_Vector_impl_data" = type { %"class.dealii::Tensor.23"*, %"class.dealii::Tensor.23"*, %"class.dealii::Tensor.23"* }
%"class.dealii::Tensor.23" = type { [1 x %"class.dealii::Tensor"] }
%"class.dealii::PolynomialsBDM.32" = type { %"class.dealii::PolynomialSpace.33", %"class.std::vector", i32, %"class.std::vector.3", %"class.std::vector.34", %"class.std::vector.40" }
%"class.dealii::PolynomialSpace.33" = type { %"class.std::vector", i32, %"class.std::vector.8", %"class.std::vector.8" }
%"class.std::vector.34" = type { %"struct.std::_Vector_base.35" }
%"struct.std::_Vector_base.35" = type { %"struct.std::_Vector_base<dealii::Tensor<1, 2>, std::allocator<dealii::Tensor<1, 2> > >::_Vector_impl" }
%"struct.std::_Vector_base<dealii::Tensor<1, 2>, std::allocator<dealii::Tensor<1, 2> > >::_Vector_impl" = type { %"struct.std::_Vector_base<dealii::Tensor<1, 2>, std::allocator<dealii::Tensor<1, 2> > >::_Vector_impl_data" }
%"struct.std::_Vector_base<dealii::Tensor<1, 2>, std::allocator<dealii::Tensor<1, 2> > >::_Vector_impl_data" = type { %"class.dealii::Tensor.39"*, %"class.dealii::Tensor.39"*, %"class.dealii::Tensor.39"* }
%"class.dealii::Tensor.39" = type { [2 x double] }
%"class.std::vector.40" = type { %"struct.std::_Vector_base.41" }
%"struct.std::_Vector_base.41" = type { %"struct.std::_Vector_base<dealii::Tensor<2, 2>, std::allocator<dealii::Tensor<2, 2> > >::_Vector_impl" }
%"struct.std::_Vector_base<dealii::Tensor<2, 2>, std::allocator<dealii::Tensor<2, 2> > >::_Vector_impl" = type { %"struct.std::_Vector_base<dealii::Tensor<2, 2>, std::allocator<dealii::Tensor<2, 2> > >::_Vector_impl_data" }
%"struct.std::_Vector_base<dealii::Tensor<2, 2>, std::allocator<dealii::Tensor<2, 2> > >::_Vector_impl_data" = type { %"class.dealii::Tensor.45"*, %"class.dealii::Tensor.45"*, %"class.dealii::Tensor.45"* }
%"class.dealii::Tensor.45" = type { [2 x %"class.dealii::Tensor.39"] }
%"class.dealii::PolynomialsBDM.56" = type { %"class.dealii::PolynomialSpace.57", %"class.std::vector", i32, %"class.std::vector.3", %"class.std::vector.58", %"class.std::vector.64" }
%"class.dealii::PolynomialSpace.57" = type { %"class.std::vector", i32, %"class.std::vector.8", %"class.std::vector.8" }
%"class.std::vector.58" = type { %"struct.std::_Vector_base.59" }
%"struct.std::_Vector_base.59" = type { %"struct.std::_Vector_base<dealii::Tensor<1, 3>, std::allocator<dealii::Tensor<1, 3> > >::_Vector_impl" }
%"struct.std::_Vector_base<dealii::Tensor<1, 3>, std::allocator<dealii::Tensor<1, 3> > >::_Vector_impl" = type { %"struct.std::_Vector_base<dealii::Tensor<1, 3>, std::allocator<dealii::Tensor<1, 3> > >::_Vector_impl_data" }
%"struct.std::_Vector_base<dealii::Tensor<1, 3>, std::allocator<dealii::Tensor<1, 3> > >::_Vector_impl_data" = type { %"class.dealii::Tensor.63"*, %"class.dealii::Tensor.63"*, %"class.dealii::Tensor.63"* }
%"class.dealii::Tensor.63" = type { [3 x double] }
%"class.std::vector.64" = type { %"struct.std::_Vector_base.65" }
%"struct.std::_Vector_base.65" = type { %"struct.std::_Vector_base<dealii::Tensor<2, 3>, std::allocator<dealii::Tensor<2, 3> > >::_Vector_impl" }
%"struct.std::_Vector_base<dealii::Tensor<2, 3>, std::allocator<dealii::Tensor<2, 3> > >::_Vector_impl" = type { %"struct.std::_Vector_base<dealii::Tensor<2, 3>, std::allocator<dealii::Tensor<2, 3> > >::_Vector_impl_data" }
%"struct.std::_Vector_base<dealii::Tensor<2, 3>, std::allocator<dealii::Tensor<2, 3> > >::_Vector_impl_data" = type { %"class.dealii::Tensor.69"*, %"class.dealii::Tensor.69"*, %"class.dealii::Tensor.69"* }
%"class.dealii::Tensor.69" = type { [3 x %"class.dealii::Tensor.63"] }
%"class.std::allocator" = type { i8 }
%"class.std::allocator.5" = type { i8 }
%"class.std::allocator.15" = type { i8 }
%"class.std::allocator.20" = type { i8 }
%"class.dealii::Polynomials::Monomial" = type { %"class.dealii::Polynomials::Polynomial" }
%"class.__gnu_cxx::__normal_iterator.80" = type { %"class.dealii::Polynomials::Polynomial"* }
%"class.std::allocator.10" = type { i8 }
%"class.__gnu_cxx::new_allocator" = type { i8 }
%"class.__gnu_cxx::new_allocator.6" = type { i8 }
%"class.__gnu_cxx::new_allocator.16" = type { i8 }
%"class.__gnu_cxx::new_allocator.21" = type { i8 }
%"class.dealii::Point" = type { %"class.dealii::Tensor" }
%"class.std::vector.24" = type { %"struct.std::_Vector_base.25" }
%"struct.std::_Vector_base.25" = type { %"struct.std::_Vector_base<dealii::Tensor<3, 1>, std::allocator<dealii::Tensor<3, 1> > >::_Vector_impl" }
%"struct.std::_Vector_base<dealii::Tensor<3, 1>, std::allocator<dealii::Tensor<3, 1> > >::_Vector_impl" = type { %"struct.std::_Vector_base<dealii::Tensor<3, 1>, std::allocator<dealii::Tensor<3, 1> > >::_Vector_impl_data" }
%"struct.std::_Vector_base<dealii::Tensor<3, 1>, std::allocator<dealii::Tensor<3, 1> > >::_Vector_impl_data" = type { %"class.dealii::Tensor.29"*, %"class.dealii::Tensor.29"*, %"class.dealii::Tensor.29"* }
%"class.dealii::Tensor.29" = type { [1 x %"class.dealii::Tensor.23"] }
%"class.__gnu_cxx::__normal_iterator" = type { %"class.dealii::Tensor"* }
%"class.__gnu_cxx::__normal_iterator.30" = type { %"class.dealii::Tensor.23"* }
%"class.__gnu_cxx::__normal_iterator.31" = type { %"class.dealii::Tensor.29"* }
%"class.std::allocator.36" = type { i8 }
%"class.std::allocator.42" = type { i8 }
%"class.__gnu_cxx::new_allocator.37" = type { i8 }
%"class.__gnu_cxx::new_allocator.43" = type { i8 }
%"class.dealii::Point.46" = type { %"class.dealii::Tensor.39" }
%"class.std::vector.47" = type { %"struct.std::_Vector_base.48" }
%"struct.std::_Vector_base.48" = type { %"struct.std::_Vector_base<dealii::Tensor<3, 2>, std::allocator<dealii::Tensor<3, 2> > >::_Vector_impl" }
%"struct.std::_Vector_base<dealii::Tensor<3, 2>, std::allocator<dealii::Tensor<3, 2> > >::_Vector_impl" = type { %"struct.std::_Vector_base<dealii::Tensor<3, 2>, std::allocator<dealii::Tensor<3, 2> > >::_Vector_impl_data" }
%"struct.std::_Vector_base<dealii::Tensor<3, 2>, std::allocator<dealii::Tensor<3, 2> > >::_Vector_impl_data" = type { %"class.dealii::Tensor.52"*, %"class.dealii::Tensor.52"*, %"class.dealii::Tensor.52"* }
%"class.dealii::Tensor.52" = type { [2 x %"class.dealii::Tensor.45"] }
%"class.__gnu_cxx::__normal_iterator.53" = type { %"class.dealii::Tensor.39"* }
%"class.__gnu_cxx::__normal_iterator.54" = type { %"class.dealii::Tensor.45"* }
%"class.__gnu_cxx::__normal_iterator.55" = type { %"class.dealii::Tensor.52"* }
%"class.std::allocator.60" = type { i8 }
%"class.std::allocator.66" = type { i8 }
%"class.__gnu_cxx::new_allocator.61" = type { i8 }
%"class.__gnu_cxx::new_allocator.67" = type { i8 }
%"class.dealii::Point.70" = type { %"class.dealii::Tensor.63" }
%"class.std::vector.71" = type { %"struct.std::_Vector_base.72" }
%"struct.std::_Vector_base.72" = type { %"struct.std::_Vector_base<dealii::Tensor<3, 3>, std::allocator<dealii::Tensor<3, 3> > >::_Vector_impl" }
%"struct.std::_Vector_base<dealii::Tensor<3, 3>, std::allocator<dealii::Tensor<3, 3> > >::_Vector_impl" = type { %"struct.std::_Vector_base<dealii::Tensor<3, 3>, std::allocator<dealii::Tensor<3, 3> > >::_Vector_impl_data" }
%"struct.std::_Vector_base<dealii::Tensor<3, 3>, std::allocator<dealii::Tensor<3, 3> > >::_Vector_impl_data" = type { %"class.dealii::Tensor.76"*, %"class.dealii::Tensor.76"*, %"class.dealii::Tensor.76"* }
%"class.dealii::Tensor.76" = type { [3 x %"class.dealii::Tensor.69"] }
%"class.__gnu_cxx::__normal_iterator.77" = type { %"class.dealii::Tensor.63"* }
%"class.__gnu_cxx::__normal_iterator.78" = type { %"class.dealii::Tensor.69"* }
%"class.__gnu_cxx::__normal_iterator.79" = type { %"class.dealii::Tensor.76"* }
%"struct.std::integral_constant" = type { i8 }
%"class.__gnu_cxx::new_allocator.11" = type { i8 }
%"struct.std::forward_iterator_tag" = type { i8 }
%"struct.std::random_access_iterator_tag" = type { i8 }
%"class.__gnu_cxx::__normal_iterator.81" = type { double* }

$_ZN6dealii14PolynomialsBDMILi1EEC5Ej = comdat any

$_ZN6dealii15PolynomialSpaceILi1EEC2INS_11Polynomials10PolynomialIdEEEERKSt6vectorIT_SaIS7_EE = comdat any

$_ZNSt6vectorIN6dealii11Polynomials10PolynomialIdEESaIS3_EED2Ev = comdat any

$_ZNSaIN6dealii11Polynomials10PolynomialIdEEEC2Ev = comdat any

$_ZNSt6vectorIN6dealii11Polynomials10PolynomialIdEESaIS3_EEC2EmRKS4_ = comdat any

$_ZNSaIN6dealii11Polynomials10PolynomialIdEEED2Ev = comdat any

$_ZN6dealii14PolynomialsBDMILi1EE14compute_n_polsEj = comdat any

$_ZNK6dealii15PolynomialSpaceILi1EE1nEv = comdat any

$_ZNSaIdEC2Ev = comdat any

$_ZNSt6vectorIdSaIdEEC2EmRKS0_ = comdat any

$_ZNSaIdED2Ev = comdat any

$_ZNSaIN6dealii6TensorILi1ELi1EEEEC2Ev = comdat any

$_ZNSt6vectorIN6dealii6TensorILi1ELi1EEESaIS2_EEC2EmRKS3_ = comdat any

$_ZNSaIN6dealii6TensorILi1ELi1EEEED2Ev = comdat any

$_ZNSaIN6dealii6TensorILi2ELi1EEEEC2Ev = comdat any

$_ZNSt6vectorIN6dealii6TensorILi2ELi1EEESaIS2_EEC2EmRKS3_ = comdat any

$_ZNSaIN6dealii6TensorILi2ELi1EEEED2Ev = comdat any

$_ZNSt6vectorIN6dealii11Polynomials10PolynomialIdEESaIS3_EEixEm = comdat any

$_ZN6dealii11Polynomials10PolynomialIdEaSEOS2_ = comdat any

$_ZN6dealii11Polynomials8MonomialIdED2Ev = comdat any

$_ZNSt6vectorIN6dealii6TensorILi2ELi1EEESaIS2_EED2Ev = comdat any

$_ZNSt6vectorIN6dealii6TensorILi1ELi1EEESaIS2_EED2Ev = comdat any

$_ZNSt6vectorIdSaIdEED2Ev = comdat any

$_ZN6dealii15PolynomialSpaceILi1EED2Ev = comdat any

$_ZNK6dealii14PolynomialsBDMILi1EE7computeERKNS_5PointILi1EEERSt6vectorINS_6TensorILi1ELi1EEESaIS8_EERS6_INS7_ILi2ELi1EEESaISC_EERS6_INS7_ILi3ELi1EEESaISG_EE = comdat any

$_ZNSt6vectorIdSaIdEE6resizeEm = comdat any

$_ZNKSt6vectorIN6dealii6TensorILi1ELi1EEESaIS2_EE4sizeEv = comdat any

$_ZNSt6vectorIN6dealii6TensorILi1ELi1EEESaIS2_EE6resizeEm = comdat any

$_ZNKSt6vectorIN6dealii6TensorILi2ELi1EEESaIS2_EE4sizeEv = comdat any

$_ZNSt6vectorIN6dealii6TensorILi2ELi1EEESaIS2_EE6resizeEm = comdat any

$_ZNKSt6vectorIN6dealii6TensorILi3ELi1EEESaIS2_EE4sizeEv = comdat any

$_ZSt4fillIN9__gnu_cxx17__normal_iteratorIPN6dealii6TensorILi1ELi1EEESt6vectorIS4_SaIS4_EEEES4_EvT_SA_RKT0_ = comdat any

$_ZNSt6vectorIN6dealii6TensorILi1ELi1EEESaIS2_EE5beginEv = comdat any

$_ZNSt6vectorIN6dealii6TensorILi1ELi1EEESaIS2_EE3endEv = comdat any

$_ZN6dealii6TensorILi1ELi1EEC2Eb = comdat any

$_ZNKSt6vectorIdSaIdEE4sizeEv = comdat any

$_ZNSt6vectorIdSaIdEEixEm = comdat any

$_ZNSt6vectorIN6dealii6TensorILi1ELi1EEESaIS2_EEixEm = comdat any

$_ZN6dealii6TensorILi1ELi1EEixEj = comdat any

$_ZSt4fillIN9__gnu_cxx17__normal_iteratorIPN6dealii6TensorILi2ELi1EEESt6vectorIS4_SaIS4_EEEES4_EvT_SA_RKT0_ = comdat any

$_ZNSt6vectorIN6dealii6TensorILi2ELi1EEESaIS2_EE5beginEv = comdat any

$_ZNSt6vectorIN6dealii6TensorILi2ELi1EEESaIS2_EE3endEv = comdat any

$_ZN6dealii6TensorILi2ELi1EEC2Ev = comdat any

$_ZNSt6vectorIN6dealii6TensorILi2ELi1EEESaIS2_EEixEm = comdat any

$_ZN6dealii6TensorILi2ELi1EEixEj = comdat any

$_ZN6dealii6TensorILi1ELi1EEaSERKS1_ = comdat any

$_ZSt4fillIN9__gnu_cxx17__normal_iteratorIPN6dealii6TensorILi3ELi1EEESt6vectorIS4_SaIS4_EEEES4_EvT_SA_RKT0_ = comdat any

$_ZNSt6vectorIN6dealii6TensorILi3ELi1EEESaIS2_EE5beginEv = comdat any

$_ZNSt6vectorIN6dealii6TensorILi3ELi1EEESaIS2_EE3endEv = comdat any

$_ZN6dealii6TensorILi3ELi1EEC2Ev = comdat any

$_ZNSt6vectorIN6dealii6TensorILi3ELi1EEESaIS2_EEixEm = comdat any

$_ZN6dealii6TensorILi3ELi1EEixEj = comdat any

$_ZN6dealii6TensorILi2ELi1EEaSERKS1_ = comdat any

$_ZNKSt6vectorIN6dealii11Polynomials10PolynomialIdEESaIS3_EEixEm = comdat any

$_ZNK6dealii5PointILi1EEclEj = comdat any

$_ZNK6dealii14PolynomialsBDMILi1EE1nEv = comdat any

$_ZNK6dealii14PolynomialsBDMILi1EE6degreeEv = comdat any

$_ZNK6dealii15PolynomialSpaceILi1EE6degreeEv = comdat any

$_ZN6dealii14PolynomialsBDMILi2EEC5Ej = comdat any

$_ZN6dealii15PolynomialSpaceILi2EEC2INS_11Polynomials10PolynomialIdEEEERKSt6vectorIT_SaIS7_EE = comdat any

$_ZN6dealii14PolynomialsBDMILi2EE14compute_n_polsEj = comdat any

$_ZNK6dealii15PolynomialSpaceILi2EE1nEv = comdat any

$_ZNSaIN6dealii6TensorILi1ELi2EEEEC2Ev = comdat any

$_ZNSt6vectorIN6dealii6TensorILi1ELi2EEESaIS2_EEC2EmRKS3_ = comdat any

$_ZNSaIN6dealii6TensorILi1ELi2EEEED2Ev = comdat any

$_ZNSaIN6dealii6TensorILi2ELi2EEEEC2Ev = comdat any

$_ZNSt6vectorIN6dealii6TensorILi2ELi2EEESaIS2_EEC2EmRKS3_ = comdat any

$_ZNSaIN6dealii6TensorILi2ELi2EEEED2Ev = comdat any

$_ZNSt6vectorIN6dealii6TensorILi2ELi2EEESaIS2_EED2Ev = comdat any

$_ZNSt6vectorIN6dealii6TensorILi1ELi2EEESaIS2_EED2Ev = comdat any

$_ZN6dealii15PolynomialSpaceILi2EED2Ev = comdat any

$_ZNK6dealii14PolynomialsBDMILi2EE7computeERKNS_5PointILi2EEERSt6vectorINS_6TensorILi1ELi2EEESaIS8_EERS6_INS7_ILi2ELi2EEESaISC_EERS6_INS7_ILi3ELi2EEESaISG_EE = comdat any

$_ZNKSt6vectorIN6dealii6TensorILi1ELi2EEESaIS2_EE4sizeEv = comdat any

$_ZNSt6vectorIN6dealii6TensorILi1ELi2EEESaIS2_EE6resizeEm = comdat any

$_ZNKSt6vectorIN6dealii6TensorILi2ELi2EEESaIS2_EE4sizeEv = comdat any

$_ZNSt6vectorIN6dealii6TensorILi2ELi2EEESaIS2_EE6resizeEm = comdat any

$_ZNKSt6vectorIN6dealii6TensorILi3ELi2EEESaIS2_EE4sizeEv = comdat any

$_ZSt4fillIN9__gnu_cxx17__normal_iteratorIPN6dealii6TensorILi1ELi2EEESt6vectorIS4_SaIS4_EEEES4_EvT_SA_RKT0_ = comdat any

$_ZNSt6vectorIN6dealii6TensorILi1ELi2EEESaIS2_EE5beginEv = comdat any

$_ZNSt6vectorIN6dealii6TensorILi1ELi2EEESaIS2_EE3endEv = comdat any

$_ZN6dealii6TensorILi1ELi2EEC2Eb = comdat any

$_ZNSt6vectorIN6dealii6TensorILi1ELi2EEESaIS2_EEixEm = comdat any

$_ZN6dealii6TensorILi1ELi2EEixEj = comdat any

$_ZSt4fillIN9__gnu_cxx17__normal_iteratorIPN6dealii6TensorILi2ELi2EEESt6vectorIS4_SaIS4_EEEES4_EvT_SA_RKT0_ = comdat any

$_ZNSt6vectorIN6dealii6TensorILi2ELi2EEESaIS2_EE5beginEv = comdat any

$_ZNSt6vectorIN6dealii6TensorILi2ELi2EEESaIS2_EE3endEv = comdat any

$_ZN6dealii6TensorILi2ELi2EEC2Ev = comdat any

$_ZNSt6vectorIN6dealii6TensorILi2ELi2EEESaIS2_EEixEm = comdat any

$_ZN6dealii6TensorILi2ELi2EEixEj = comdat any

$_ZN6dealii6TensorILi1ELi2EEaSERKS1_ = comdat any

$_ZSt4fillIN9__gnu_cxx17__normal_iteratorIPN6dealii6TensorILi3ELi2EEESt6vectorIS4_SaIS4_EEEES4_EvT_SA_RKT0_ = comdat any

$_ZNSt6vectorIN6dealii6TensorILi3ELi2EEESaIS2_EE5beginEv = comdat any

$_ZNSt6vectorIN6dealii6TensorILi3ELi2EEESaIS2_EE3endEv = comdat any

$_ZN6dealii6TensorILi3ELi2EEC2Ev = comdat any

$_ZNSt6vectorIN6dealii6TensorILi3ELi2EEESaIS2_EEixEm = comdat any

$_ZN6dealii6TensorILi3ELi2EEixEj = comdat any

$_ZN6dealii6TensorILi2ELi2EEaSERKS1_ = comdat any

$_ZNK6dealii5PointILi2EEclEj = comdat any

$_ZNK6dealii14PolynomialsBDMILi2EE1nEv = comdat any

$_ZNK6dealii14PolynomialsBDMILi2EE6degreeEv = comdat any

$_ZNK6dealii15PolynomialSpaceILi2EE6degreeEv = comdat any

$_ZN6dealii14PolynomialsBDMILi3EEC5Ej = comdat any

$_ZN6dealii15PolynomialSpaceILi3EEC2INS_11Polynomials10PolynomialIdEEEERKSt6vectorIT_SaIS7_EE = comdat any

$_ZN6dealii14PolynomialsBDMILi3EE14compute_n_polsEj = comdat any

$_ZNK6dealii15PolynomialSpaceILi3EE1nEv = comdat any

$_ZNSaIN6dealii6TensorILi1ELi3EEEEC2Ev = comdat any

$_ZNSt6vectorIN6dealii6TensorILi1ELi3EEESaIS2_EEC2EmRKS3_ = comdat any

$_ZNSaIN6dealii6TensorILi1ELi3EEEED2Ev = comdat any

$_ZNSaIN6dealii6TensorILi2ELi3EEEEC2Ev = comdat any

$_ZNSt6vectorIN6dealii6TensorILi2ELi3EEESaIS2_EEC2EmRKS3_ = comdat any

$_ZNSaIN6dealii6TensorILi2ELi3EEEED2Ev = comdat any

$_ZNSt6vectorIN6dealii6TensorILi2ELi3EEESaIS2_EED2Ev = comdat any

$_ZNSt6vectorIN6dealii6TensorILi1ELi3EEESaIS2_EED2Ev = comdat any

$_ZN6dealii15PolynomialSpaceILi3EED2Ev = comdat any

$_ZNK6dealii14PolynomialsBDMILi3EE7computeERKNS_5PointILi3EEERSt6vectorINS_6TensorILi1ELi3EEESaIS8_EERS6_INS7_ILi2ELi3EEESaISC_EERS6_INS7_ILi3ELi3EEESaISG_EE = comdat any

$_ZNKSt6vectorIN6dealii6TensorILi1ELi3EEESaIS2_EE4sizeEv = comdat any

$_ZNSt6vectorIN6dealii6TensorILi1ELi3EEESaIS2_EE6resizeEm = comdat any

$_ZNKSt6vectorIN6dealii6TensorILi2ELi3EEESaIS2_EE4sizeEv = comdat any

$_ZNSt6vectorIN6dealii6TensorILi2ELi3EEESaIS2_EE6resizeEm = comdat any

$_ZNKSt6vectorIN6dealii6TensorILi3ELi3EEESaIS2_EE4sizeEv = comdat any

$_ZSt4fillIN9__gnu_cxx17__normal_iteratorIPN6dealii6TensorILi1ELi3EEESt6vectorIS4_SaIS4_EEEES4_EvT_SA_RKT0_ = comdat any

$_ZNSt6vectorIN6dealii6TensorILi1ELi3EEESaIS2_EE5beginEv = comdat any

$_ZNSt6vectorIN6dealii6TensorILi1ELi3EEESaIS2_EE3endEv = comdat any

$_ZN6dealii6TensorILi1ELi3EEC2Eb = comdat any

$_ZNSt6vectorIN6dealii6TensorILi1ELi3EEESaIS2_EEixEm = comdat any

$_ZN6dealii6TensorILi1ELi3EEixEj = comdat any

$_ZSt4fillIN9__gnu_cxx17__normal_iteratorIPN6dealii6TensorILi2ELi3EEESt6vectorIS4_SaIS4_EEEES4_EvT_SA_RKT0_ = comdat any

$_ZNSt6vectorIN6dealii6TensorILi2ELi3EEESaIS2_EE5beginEv = comdat any

$_ZNSt6vectorIN6dealii6TensorILi2ELi3EEESaIS2_EE3endEv = comdat any

$_ZN6dealii6TensorILi2ELi3EEC2Ev = comdat any

$_ZNSt6vectorIN6dealii6TensorILi2ELi3EEESaIS2_EEixEm = comdat any

$_ZN6dealii6TensorILi2ELi3EEixEj = comdat any

$_ZN6dealii6TensorILi1ELi3EEaSERKS1_ = comdat any

$_ZSt4fillIN9__gnu_cxx17__normal_iteratorIPN6dealii6TensorILi3ELi3EEESt6vectorIS4_SaIS4_EEEES4_EvT_SA_RKT0_ = comdat any

$_ZNSt6vectorIN6dealii6TensorILi3ELi3EEESaIS2_EE5beginEv = comdat any

$_ZNSt6vectorIN6dealii6TensorILi3ELi3EEESaIS2_EE3endEv = comdat any

$_ZN6dealii6TensorILi3ELi3EEC2Ev = comdat any

$_ZNSt6vectorIN6dealii6TensorILi3ELi3EEESaIS2_EEixEm = comdat any

$_ZN6dealii6TensorILi3ELi3EEixEj = comdat any

$_ZN6dealii6TensorILi2ELi3EEaSERKS1_ = comdat any

$_ZNK6dealii5PointILi3EEclEj = comdat any

$_ZNK6dealii14PolynomialsBDMILi3EE1nEv = comdat any

$_ZNK6dealii14PolynomialsBDMILi3EE6degreeEv = comdat any

$_ZNK6dealii15PolynomialSpaceILi3EE6degreeEv = comdat any

$_ZNSt6vectorIdSaIdEEaSEOS1_ = comdat any

$_ZNSt6vectorIdSaIdEE14_M_move_assignEOS1_St17integral_constantIbLb1EE = comdat any

$_ZSt4moveIRSt6vectorIdSaIdEEEONSt16remove_referenceIT_E4typeEOS5_ = comdat any

$_ZNKSt12_Vector_baseIdSaIdEE13get_allocatorEv = comdat any

$_ZNSt6vectorIdSaIdEEC2ERKS0_ = comdat any

$_ZNSt12_Vector_baseIdSaIdEE17_Vector_impl_data12_M_swap_dataERS2_ = comdat any

$_ZSt15__alloc_on_moveISaIdEEvRT_S2_ = comdat any

$_ZNSt12_Vector_baseIdSaIdEE19_M_get_Tp_allocatorEv = comdat any

$__clang_call_terminate = comdat any

$_ZNKSt12_Vector_baseIdSaIdEE19_M_get_Tp_allocatorEv = comdat any

$_ZNSaIdEC2ERKS_ = comdat any

$_ZN9__gnu_cxx13new_allocatorIdEC2ERKS1_ = comdat any

$_ZNSt12_Vector_baseIdSaIdEEC2ERKS0_ = comdat any

$_ZNSt12_Vector_baseIdSaIdEE12_Vector_implC2ERKS0_ = comdat any

$_ZNSt12_Vector_baseIdSaIdEE17_Vector_impl_dataC2Ev = comdat any

$_ZNSt12_Vector_baseIdSaIdEE17_Vector_impl_data12_M_copy_dataERKS2_ = comdat any

$_ZSt18__do_alloc_on_moveISaIdEEvRT_S2_St17integral_constantIbLb1EE = comdat any

$_ZSt4moveIRSaIdEEONSt16remove_referenceIT_E4typeEOS3_ = comdat any

$_ZN6dealii11Polynomials10PolynomialIdED2Ev = comdat any

$_ZN6dealii11Polynomials10PolynomialIdED0Ev = comdat any

$_ZNSt6vectorIjSaIjEED2Ev = comdat any

$_ZSt8_DestroyIPjjEvT_S1_RSaIT0_E = comdat any

$_ZNSt12_Vector_baseIjSaIjEE19_M_get_Tp_allocatorEv = comdat any

$_ZNSt12_Vector_baseIjSaIjEED2Ev = comdat any

$_ZSt8_DestroyIPjEvT_S1_ = comdat any

$_ZNSt12_Destroy_auxILb1EE9__destroyIPjEEvT_S3_ = comdat any

$_ZNSt12_Vector_baseIjSaIjEE13_M_deallocateEPjm = comdat any

$_ZNSt12_Vector_baseIjSaIjEE12_Vector_implD2Ev = comdat any

$_ZNSt16allocator_traitsISaIjEE10deallocateERS0_Pjm = comdat any

$_ZN9__gnu_cxx13new_allocatorIjE10deallocateEPjm = comdat any

$_ZN9__gnu_cxx13new_allocatorIjED2Ev = comdat any

$_ZN9__gnu_cxx13new_allocatorIN6dealii11Polynomials10PolynomialIdEEEC2Ev = comdat any

$_ZN9__gnu_cxx13new_allocatorIN6dealii11Polynomials10PolynomialIdEEED2Ev = comdat any

$_ZN9__gnu_cxx13new_allocatorIdEC2Ev = comdat any

$_ZN9__gnu_cxx13new_allocatorIdED2Ev = comdat any

$_ZSt8_DestroyIPN6dealii11Polynomials10PolynomialIdEES3_EvT_S5_RSaIT0_E = comdat any

$_ZNSt12_Vector_baseIN6dealii11Polynomials10PolynomialIdEESaIS3_EE19_M_get_Tp_allocatorEv = comdat any

$_ZNSt12_Vector_baseIN6dealii11Polynomials10PolynomialIdEESaIS3_EED2Ev = comdat any

$_ZSt8_DestroyIPN6dealii11Polynomials10PolynomialIdEEEvT_S5_ = comdat any

$_ZNSt12_Destroy_auxILb0EE9__destroyIPN6dealii11Polynomials10PolynomialIdEEEEvT_S7_ = comdat any

$_ZSt8_DestroyIN6dealii11Polynomials10PolynomialIdEEEvPT_ = comdat any

$_ZSt11__addressofIN6dealii11Polynomials10PolynomialIdEEEPT_RS4_ = comdat any

$_ZNSt12_Vector_baseIN6dealii11Polynomials10PolynomialIdEESaIS3_EE13_M_deallocateEPS3_m = comdat any

$_ZNSt12_Vector_baseIN6dealii11Polynomials10PolynomialIdEESaIS3_EE12_Vector_implD2Ev = comdat any

$_ZNSt16allocator_traitsISaIN6dealii11Polynomials10PolynomialIdEEEE10deallocateERS4_PS3_m = comdat any

$_ZN9__gnu_cxx13new_allocatorIN6dealii11Polynomials10PolynomialIdEEE10deallocateEPS4_m = comdat any

$_ZNKSt6vectorIN6dealii11Polynomials10PolynomialIdEESaIS3_EE5beginEv = comdat any

$_ZNKSt6vectorIN6dealii11Polynomials10PolynomialIdEESaIS3_EE3endEv = comdat any

$_ZNSt6vectorIN6dealii11Polynomials10PolynomialIdEESaIS3_EEC2IN9__gnu_cxx17__normal_iteratorIPKS3_S5_EEvEET_SC_RKS4_ = comdat any

$_ZNKSt6vectorIN6dealii11Polynomials10PolynomialIdEESaIS3_EE4sizeEv = comdat any

$_ZNSaIjEC2Ev = comdat any

$_ZNSt6vectorIjSaIjEEC2EmRKS0_ = comdat any

$_ZNSaIjED2Ev = comdat any

$_ZNSt6vectorIjSaIjEEixEm = comdat any

$_ZN9__gnu_cxx17__normal_iteratorIPKN6dealii11Polynomials10PolynomialIdEESt6vectorIS4_SaIS4_EEEC2ERKS6_ = comdat any

$_ZNSt12_Vector_baseIN6dealii11Polynomials10PolynomialIdEESaIS3_EEC2ERKS4_ = comdat any

$_ZNSt6vectorIN6dealii11Polynomials10PolynomialIdEESaIS3_EE19_M_range_initializeIN9__gnu_cxx17__normal_iteratorIPKS3_S5_EEEEvT_SC_St20forward_iterator_tag = comdat any

$_ZSt19__iterator_categoryIN9__gnu_cxx17__normal_iteratorIPKN6dealii11Polynomials10PolynomialIdEESt6vectorIS5_SaIS5_EEEEENSt15iterator_traitsIT_E17iterator_categoryERKSD_ = comdat any

$_ZNSt12_Vector_baseIN6dealii11Polynomials10PolynomialIdEESaIS3_EE12_Vector_implC2ERKS4_ = comdat any

$_ZNSt12_Vector_baseIN6dealii11Polynomials10PolynomialIdEESaIS3_EE17_Vector_impl_dataC2Ev = comdat any

$_ZN9__gnu_cxx13new_allocatorIN6dealii11Polynomials10PolynomialIdEEEC2ERKS5_ = comdat any

$_ZSt8distanceIN9__gnu_cxx17__normal_iteratorIPKN6dealii11Polynomials10PolynomialIdEESt6vectorIS5_SaIS5_EEEEENSt15iterator_traitsIT_E15difference_typeESD_SD_ = comdat any

$_ZNSt12_Vector_baseIN6dealii11Polynomials10PolynomialIdEESaIS3_EE11_M_allocateEm = comdat any

$_ZNSt6vectorIN6dealii11Polynomials10PolynomialIdEESaIS3_EE17_S_check_init_lenEmRKS4_ = comdat any

$_ZSt22__uninitialized_copy_aIN9__gnu_cxx17__normal_iteratorIPKN6dealii11Polynomials10PolynomialIdEESt6vectorIS5_SaIS5_EEEEPS5_S5_ET0_T_SE_SD_RSaIT1_E = comdat any

$_ZSt10__distanceIN9__gnu_cxx17__normal_iteratorIPKN6dealii11Polynomials10PolynomialIdEESt6vectorIS5_SaIS5_EEEEENSt15iterator_traitsIT_E15difference_typeESD_SD_St26random_access_iterator_tag = comdat any

$_ZN9__gnu_cxxmiIPKN6dealii11Polynomials10PolynomialIdEESt6vectorIS4_SaIS4_EEEENS_17__normal_iteratorIT_T0_E15difference_typeERKSD_SG_ = comdat any

$_ZNK9__gnu_cxx17__normal_iteratorIPKN6dealii11Polynomials10PolynomialIdEESt6vectorIS4_SaIS4_EEE4baseEv = comdat any

$_ZNSt16allocator_traitsISaIN6dealii11Polynomials10PolynomialIdEEEE8allocateERS4_m = comdat any

$_ZN9__gnu_cxx13new_allocatorIN6dealii11Polynomials10PolynomialIdEEE8allocateEmPKv = comdat any

$_ZNK9__gnu_cxx13new_allocatorIN6dealii11Polynomials10PolynomialIdEEE11_M_max_sizeEv = comdat any

$_ZNSt6vectorIN6dealii11Polynomials10PolynomialIdEESaIS3_EE11_S_max_sizeERKS4_ = comdat any

$_ZNSaIN6dealii11Polynomials10PolynomialIdEEEC2ERKS3_ = comdat any

$_ZNSt16allocator_traitsISaIN6dealii11Polynomials10PolynomialIdEEEE8max_sizeERKS4_ = comdat any

$_ZSt3minImERKT_S2_S2_ = comdat any

$_ZNK9__gnu_cxx13new_allocatorIN6dealii11Polynomials10PolynomialIdEEE8max_sizeEv = comdat any

$_ZSt18uninitialized_copyIN9__gnu_cxx17__normal_iteratorIPKN6dealii11Polynomials10PolynomialIdEESt6vectorIS5_SaIS5_EEEEPS5_ET0_T_SE_SD_ = comdat any

$_ZNSt20__uninitialized_copyILb0EE13__uninit_copyIN9__gnu_cxx17__normal_iteratorIPKN6dealii11Polynomials10PolynomialIdEESt6vectorIS7_SaIS7_EEEEPS7_EET0_T_SG_SF_ = comdat any

$_ZN9__gnu_cxxneIPKN6dealii11Polynomials10PolynomialIdEESt6vectorIS4_SaIS4_EEEEbRKNS_17__normal_iteratorIT_T0_EESF_ = comdat any

$_ZSt10_ConstructIN6dealii11Polynomials10PolynomialIdEEJRKS3_EEvPT_DpOT0_ = comdat any

$_ZNK9__gnu_cxx17__normal_iteratorIPKN6dealii11Polynomials10PolynomialIdEESt6vectorIS4_SaIS4_EEEdeEv = comdat any

$_ZN9__gnu_cxx17__normal_iteratorIPKN6dealii11Polynomials10PolynomialIdEESt6vectorIS4_SaIS4_EEEppEv = comdat any

$_ZSt7forwardIRKN6dealii11Polynomials10PolynomialIdEEEOT_RNSt16remove_referenceIS6_E4typeE = comdat any

$_ZN6dealii11Polynomials10PolynomialIdEC2ERKS2_ = comdat any

$_ZNSt6vectorIdSaIdEEC2ERKS1_ = comdat any

$_ZN9__gnu_cxx14__alloc_traitsISaIdEdE17_S_select_on_copyERKS1_ = comdat any

$_ZNSt12_Vector_baseIdSaIdEEC2EmRKS0_ = comdat any

$_ZSt22__uninitialized_copy_aIN9__gnu_cxx17__normal_iteratorIPKdSt6vectorIdSaIdEEEEPddET0_T_SA_S9_RSaIT1_E = comdat any

$_ZNKSt6vectorIdSaIdEE5beginEv = comdat any

$_ZNKSt6vectorIdSaIdEE3endEv = comdat any

$_ZNSt12_Vector_baseIdSaIdEED2Ev = comdat any

$_ZNSt16allocator_traitsISaIdEE37select_on_container_copy_constructionERKS0_ = comdat any

$_ZNSt12_Vector_baseIdSaIdEE17_M_create_storageEm = comdat any

$_ZNSt12_Vector_baseIdSaIdEE12_Vector_implD2Ev = comdat any

$_ZNSt12_Vector_baseIdSaIdEE11_M_allocateEm = comdat any

$_ZNSt16allocator_traitsISaIdEE8allocateERS0_m = comdat any

$_ZN9__gnu_cxx13new_allocatorIdE8allocateEmPKv = comdat any

$_ZNK9__gnu_cxx13new_allocatorIdE11_M_max_sizeEv = comdat any

$_ZSt18uninitialized_copyIN9__gnu_cxx17__normal_iteratorIPKdSt6vectorIdSaIdEEEEPdET0_T_SA_S9_ = comdat any

$_ZNSt20__uninitialized_copyILb1EE13__uninit_copyIN9__gnu_cxx17__normal_iteratorIPKdSt6vectorIdSaIdEEEEPdEET0_T_SC_SB_ = comdat any

$_ZSt4copyIN9__gnu_cxx17__normal_iteratorIPKdSt6vectorIdSaIdEEEEPdET0_T_SA_S9_ = comdat any

$_ZSt13__copy_move_aILb0EN9__gnu_cxx17__normal_iteratorIPKdSt6vectorIdSaIdEEEEPdET1_T0_SA_S9_ = comdat any

$_ZSt12__miter_baseIN9__gnu_cxx17__normal_iteratorIPKdSt6vectorIdSaIdEEEEET_S8_ = comdat any

$_ZSt12__niter_wrapIPdET_RKS1_S1_ = comdat any

$_ZSt14__copy_move_a1ILb0EPKdPdET1_T0_S4_S3_ = comdat any

$_ZSt12__niter_baseIPKdSt6vectorIdSaIdEEET_N9__gnu_cxx17__normal_iteratorIS5_T0_EE = comdat any

$_ZSt12__niter_baseIPdET_S1_ = comdat any

$_ZSt14__copy_move_a2ILb0EPKdPdET1_T0_S4_S3_ = comdat any

$_ZNSt11__copy_moveILb0ELb1ESt26random_access_iterator_tagE8__copy_mIdEEPT_PKS3_S6_S4_ = comdat any

$_ZNK9__gnu_cxx17__normal_iteratorIPKdSt6vectorIdSaIdEEE4baseEv = comdat any

$_ZN9__gnu_cxx17__normal_iteratorIPKdSt6vectorIdSaIdEEEC2ERKS2_ = comdat any

$_ZNSt12_Vector_baseIdSaIdEE13_M_deallocateEPdm = comdat any

$_ZNSt16allocator_traitsISaIdEE10deallocateERS0_Pdm = comdat any

$_ZN9__gnu_cxx13new_allocatorIdE10deallocateEPdm = comdat any

$_ZN9__gnu_cxx13new_allocatorIjEC2Ev = comdat any

$_ZNSt6vectorIjSaIjEE17_S_check_init_lenEmRKS0_ = comdat any

$_ZNSt12_Vector_baseIjSaIjEEC2EmRKS0_ = comdat any

$_ZNSt6vectorIjSaIjEE21_M_default_initializeEm = comdat any

$_ZNSt6vectorIjSaIjEE11_S_max_sizeERKS0_ = comdat any

$_ZNSaIjEC2ERKS_ = comdat any

$_ZNSt16allocator_traitsISaIjEE8max_sizeERKS0_ = comdat any

$_ZNK9__gnu_cxx13new_allocatorIjE8max_sizeEv = comdat any

$_ZNK9__gnu_cxx13new_allocatorIjE11_M_max_sizeEv = comdat any

$_ZN9__gnu_cxx13new_allocatorIjEC2ERKS1_ = comdat any

$_ZNSt12_Vector_baseIjSaIjEE12_Vector_implC2ERKS0_ = comdat any

$_ZNSt12_Vector_baseIjSaIjEE17_M_create_storageEm = comdat any

$_ZNSt12_Vector_baseIjSaIjEE17_Vector_impl_dataC2Ev = comdat any

$_ZNSt12_Vector_baseIjSaIjEE11_M_allocateEm = comdat any

$_ZNSt16allocator_traitsISaIjEE8allocateERS0_m = comdat any

$_ZN9__gnu_cxx13new_allocatorIjE8allocateEmPKv = comdat any

$_ZSt27__uninitialized_default_n_aIPjmjET_S1_T0_RSaIT1_E = comdat any

$_ZSt25__uninitialized_default_nIPjmET_S1_T0_ = comdat any

$_ZNSt27__uninitialized_default_n_1ILb1EE18__uninit_default_nIPjmEET_S3_T0_ = comdat any

$_ZSt6fill_nIPjmjET_S1_T0_RKT1_ = comdat any

$_ZSt10__fill_n_aIPjmjET_S1_T0_RKT1_St26random_access_iterator_tag = comdat any

$_ZSt17__size_to_integerm = comdat any

$_ZSt19__iterator_categoryIPjENSt15iterator_traitsIT_E17iterator_categoryERKS2_ = comdat any

$_ZSt8__fill_aIPjjEvT_S1_RKT0_ = comdat any

$_ZSt9__fill_a1IPjjEN9__gnu_cxx11__enable_ifIXsr11__is_scalarIT0_EE7__valueEvE6__typeET_S6_RKS3_ = comdat any

$_ZNSt12_Vector_baseIN6dealii11Polynomials10PolynomialIdEESaIS3_EEC2EmRKS4_ = comdat any

$_ZNSt6vectorIN6dealii11Polynomials10PolynomialIdEESaIS3_EE21_M_default_initializeEm = comdat any

$_ZNSt12_Vector_baseIN6dealii11Polynomials10PolynomialIdEESaIS3_EE17_M_create_storageEm = comdat any

$_ZSt27__uninitialized_default_n_aIPN6dealii11Polynomials10PolynomialIdEEmS3_ET_S5_T0_RSaIT1_E = comdat any

$_ZSt25__uninitialized_default_nIPN6dealii11Polynomials10PolynomialIdEEmET_S5_T0_ = comdat any

$_ZNSt27__uninitialized_default_n_1ILb0EE18__uninit_default_nIPN6dealii11Polynomials10PolynomialIdEEmEET_S7_T0_ = comdat any

$_ZSt10_ConstructIN6dealii11Polynomials10PolynomialIdEEJEEvPT_DpOT0_ = comdat any

$_ZN6dealii11Polynomials10PolynomialIdEC2Ev = comdat any

$_ZNSt6vectorIdSaIdEEC2Ev = comdat any

$_ZNSt12_Vector_baseIdSaIdEEC2Ev = comdat any

$_ZNSt12_Vector_baseIdSaIdEE12_Vector_implC2Ev = comdat any

$_ZNSt6vectorIdSaIdEE17_S_check_init_lenEmRKS0_ = comdat any

$_ZNSt6vectorIdSaIdEE21_M_default_initializeEm = comdat any

$_ZNSt6vectorIdSaIdEE11_S_max_sizeERKS0_ = comdat any

$_ZNSt16allocator_traitsISaIdEE8max_sizeERKS0_ = comdat any

$_ZNK9__gnu_cxx13new_allocatorIdE8max_sizeEv = comdat any

$_ZSt27__uninitialized_default_n_aIPdmdET_S1_T0_RSaIT1_E = comdat any

$_ZSt25__uninitialized_default_nIPdmET_S1_T0_ = comdat any

$_ZNSt27__uninitialized_default_n_1ILb1EE18__uninit_default_nIPdmEET_S3_T0_ = comdat any

$_ZSt6fill_nIPdmdET_S1_T0_RKT1_ = comdat any

$_ZSt10__fill_n_aIPdmdET_S1_T0_RKT1_St26random_access_iterator_tag = comdat any

$_ZSt19__iterator_categoryIPdENSt15iterator_traitsIT_E17iterator_categoryERKS2_ = comdat any

$_ZSt8__fill_aIPddEvT_S1_RKT0_ = comdat any

$_ZSt9__fill_a1IPddEN9__gnu_cxx11__enable_ifIXsr11__is_scalarIT0_EE7__valueEvE6__typeET_S6_RKS3_ = comdat any

$_ZN9__gnu_cxx13new_allocatorIN6dealii6TensorILi1ELi1EEEEC2Ev = comdat any

$_ZN9__gnu_cxx13new_allocatorIN6dealii6TensorILi1ELi1EEEED2Ev = comdat any

$_ZNSt6vectorIN6dealii6TensorILi1ELi1EEESaIS2_EE17_S_check_init_lenEmRKS3_ = comdat any

$_ZNSt12_Vector_baseIN6dealii6TensorILi1ELi1EEESaIS2_EEC2EmRKS3_ = comdat any

$_ZNSt6vectorIN6dealii6TensorILi1ELi1EEESaIS2_EE21_M_default_initializeEm = comdat any

$_ZNSt12_Vector_baseIN6dealii6TensorILi1ELi1EEESaIS2_EED2Ev = comdat any

$_ZNSt6vectorIN6dealii6TensorILi1ELi1EEESaIS2_EE11_S_max_sizeERKS3_ = comdat any

$_ZNSaIN6dealii6TensorILi1ELi1EEEEC2ERKS2_ = comdat any

$_ZNSt16allocator_traitsISaIN6dealii6TensorILi1ELi1EEEEE8max_sizeERKS3_ = comdat any

$_ZNK9__gnu_cxx13new_allocatorIN6dealii6TensorILi1ELi1EEEE8max_sizeEv = comdat any

$_ZNK9__gnu_cxx13new_allocatorIN6dealii6TensorILi1ELi1EEEE11_M_max_sizeEv = comdat any

$_ZN9__gnu_cxx13new_allocatorIN6dealii6TensorILi1ELi1EEEEC2ERKS4_ = comdat any

$_ZNSt12_Vector_baseIN6dealii6TensorILi1ELi1EEESaIS2_EE12_Vector_implC2ERKS3_ = comdat any

$_ZNSt12_Vector_baseIN6dealii6TensorILi1ELi1EEESaIS2_EE17_M_create_storageEm = comdat any

$_ZNSt12_Vector_baseIN6dealii6TensorILi1ELi1EEESaIS2_EE12_Vector_implD2Ev = comdat any

$_ZNSt12_Vector_baseIN6dealii6TensorILi1ELi1EEESaIS2_EE17_Vector_impl_dataC2Ev = comdat any

$_ZNSt12_Vector_baseIN6dealii6TensorILi1ELi1EEESaIS2_EE11_M_allocateEm = comdat any

$_ZNSt16allocator_traitsISaIN6dealii6TensorILi1ELi1EEEEE8allocateERS3_m = comdat any

$_ZN9__gnu_cxx13new_allocatorIN6dealii6TensorILi1ELi1EEEE8allocateEmPKv = comdat any

$_ZSt27__uninitialized_default_n_aIPN6dealii6TensorILi1ELi1EEEmS2_ET_S4_T0_RSaIT1_E = comdat any

$_ZNSt12_Vector_baseIN6dealii6TensorILi1ELi1EEESaIS2_EE19_M_get_Tp_allocatorEv = comdat any

$_ZSt25__uninitialized_default_nIPN6dealii6TensorILi1ELi1EEEmET_S4_T0_ = comdat any

$_ZNSt27__uninitialized_default_n_1ILb0EE18__uninit_default_nIPN6dealii6TensorILi1ELi1EEEmEET_S6_T0_ = comdat any

$_ZSt10_ConstructIN6dealii6TensorILi1ELi1EEEJEEvPT_DpOT0_ = comdat any

$_ZSt11__addressofIN6dealii6TensorILi1ELi1EEEEPT_RS3_ = comdat any

$_ZSt8_DestroyIPN6dealii6TensorILi1ELi1EEEEvT_S4_ = comdat any

$_ZNSt12_Destroy_auxILb1EE9__destroyIPN6dealii6TensorILi1ELi1EEEEEvT_S6_ = comdat any

$_ZNSt12_Vector_baseIN6dealii6TensorILi1ELi1EEESaIS2_EE13_M_deallocateEPS2_m = comdat any

$_ZNSt16allocator_traitsISaIN6dealii6TensorILi1ELi1EEEEE10deallocateERS3_PS2_m = comdat any

$_ZN9__gnu_cxx13new_allocatorIN6dealii6TensorILi1ELi1EEEE10deallocateEPS3_m = comdat any

$_ZN9__gnu_cxx13new_allocatorIN6dealii6TensorILi2ELi1EEEEC2Ev = comdat any

$_ZN9__gnu_cxx13new_allocatorIN6dealii6TensorILi2ELi1EEEED2Ev = comdat any

$_ZNSt6vectorIN6dealii6TensorILi2ELi1EEESaIS2_EE17_S_check_init_lenEmRKS3_ = comdat any

$_ZNSt12_Vector_baseIN6dealii6TensorILi2ELi1EEESaIS2_EEC2EmRKS3_ = comdat any

$_ZNSt6vectorIN6dealii6TensorILi2ELi1EEESaIS2_EE21_M_default_initializeEm = comdat any

$_ZNSt12_Vector_baseIN6dealii6TensorILi2ELi1EEESaIS2_EED2Ev = comdat any

$_ZNSt6vectorIN6dealii6TensorILi2ELi1EEESaIS2_EE11_S_max_sizeERKS3_ = comdat any

$_ZNSaIN6dealii6TensorILi2ELi1EEEEC2ERKS2_ = comdat any

$_ZNSt16allocator_traitsISaIN6dealii6TensorILi2ELi1EEEEE8max_sizeERKS3_ = comdat any

$_ZNK9__gnu_cxx13new_allocatorIN6dealii6TensorILi2ELi1EEEE8max_sizeEv = comdat any

$_ZNK9__gnu_cxx13new_allocatorIN6dealii6TensorILi2ELi1EEEE11_M_max_sizeEv = comdat any

$_ZN9__gnu_cxx13new_allocatorIN6dealii6TensorILi2ELi1EEEEC2ERKS4_ = comdat any

$_ZNSt12_Vector_baseIN6dealii6TensorILi2ELi1EEESaIS2_EE12_Vector_implC2ERKS3_ = comdat any

$_ZNSt12_Vector_baseIN6dealii6TensorILi2ELi1EEESaIS2_EE17_M_create_storageEm = comdat any

$_ZNSt12_Vector_baseIN6dealii6TensorILi2ELi1EEESaIS2_EE12_Vector_implD2Ev = comdat any

$_ZNSt12_Vector_baseIN6dealii6TensorILi2ELi1EEESaIS2_EE17_Vector_impl_dataC2Ev = comdat any

$_ZNSt12_Vector_baseIN6dealii6TensorILi2ELi1EEESaIS2_EE11_M_allocateEm = comdat any

$_ZNSt16allocator_traitsISaIN6dealii6TensorILi2ELi1EEEEE8allocateERS3_m = comdat any

$_ZN9__gnu_cxx13new_allocatorIN6dealii6TensorILi2ELi1EEEE8allocateEmPKv = comdat any

$_ZSt27__uninitialized_default_n_aIPN6dealii6TensorILi2ELi1EEEmS2_ET_S4_T0_RSaIT1_E = comdat any

$_ZNSt12_Vector_baseIN6dealii6TensorILi2ELi1EEESaIS2_EE19_M_get_Tp_allocatorEv = comdat any

$_ZSt25__uninitialized_default_nIPN6dealii6TensorILi2ELi1EEEmET_S4_T0_ = comdat any

$_ZNSt27__uninitialized_default_n_1ILb0EE18__uninit_default_nIPN6dealii6TensorILi2ELi1EEEmEET_S6_T0_ = comdat any

$_ZSt10_ConstructIN6dealii6TensorILi2ELi1EEEJEEvPT_DpOT0_ = comdat any

$_ZSt11__addressofIN6dealii6TensorILi2ELi1EEEEPT_RS3_ = comdat any

$_ZSt8_DestroyIPN6dealii6TensorILi2ELi1EEEEvT_S4_ = comdat any

$_ZNSt12_Destroy_auxILb1EE9__destroyIPN6dealii6TensorILi2ELi1EEEEEvT_S6_ = comdat any

$_ZNSt12_Vector_baseIN6dealii6TensorILi2ELi1EEESaIS2_EE13_M_deallocateEPS2_m = comdat any

$_ZNSt16allocator_traitsISaIN6dealii6TensorILi2ELi1EEEEE10deallocateERS3_PS2_m = comdat any

$_ZN9__gnu_cxx13new_allocatorIN6dealii6TensorILi2ELi1EEEE10deallocateEPS3_m = comdat any

$_ZSt8_DestroyIPddEvT_S1_RSaIT0_E = comdat any

$_ZSt8_DestroyIPdEvT_S1_ = comdat any

$_ZNSt12_Destroy_auxILb1EE9__destroyIPdEEvT_S3_ = comdat any

$_ZSt8_DestroyIPN6dealii6TensorILi1ELi1EEES2_EvT_S4_RSaIT0_E = comdat any

$_ZSt8_DestroyIPN6dealii6TensorILi2ELi1EEES2_EvT_S4_RSaIT0_E = comdat any

$_ZNSt6vectorIdSaIdEE17_M_default_appendEm = comdat any

$_ZNSt6vectorIdSaIdEE15_M_erase_at_endEPd = comdat any

$_ZNKSt6vectorIdSaIdEE8max_sizeEv = comdat any

$_ZNKSt6vectorIdSaIdEE12_M_check_lenEmPKc = comdat any

$_ZNSt6vectorIdSaIdEE11_S_relocateEPdS2_S2_RS0_ = comdat any

$_ZSt3maxImERKT_S2_S2_ = comdat any

$_ZNSt6vectorIdSaIdEE14_S_do_relocateEPdS2_S2_RS0_St17integral_constantIbLb1EE = comdat any

$_ZSt12__relocate_aIPdS0_SaIdEET0_T_S3_S2_RT1_ = comdat any

$_ZSt14__relocate_a_1IddENSt9enable_ifIXsr3std24__is_bitwise_relocatableIT_EE5valueEPS1_E4typeES2_S2_S2_RSaIT0_E = comdat any

$_ZNSt6vectorIN6dealii6TensorILi1ELi1EEESaIS2_EE17_M_default_appendEm = comdat any

$_ZNSt6vectorIN6dealii6TensorILi1ELi1EEESaIS2_EE15_M_erase_at_endEPS2_ = comdat any

$_ZNKSt6vectorIN6dealii6TensorILi1ELi1EEESaIS2_EE8max_sizeEv = comdat any

$_ZNKSt6vectorIN6dealii6TensorILi1ELi1EEESaIS2_EE12_M_check_lenEmPKc = comdat any

$_ZSt34__uninitialized_move_if_noexcept_aIPN6dealii6TensorILi1ELi1EEES3_SaIS2_EET0_T_S6_S5_RT1_ = comdat any

$_ZNKSt12_Vector_baseIN6dealii6TensorILi1ELi1EEESaIS2_EE19_M_get_Tp_allocatorEv = comdat any

$_ZSt22__uninitialized_copy_aIPKN6dealii6TensorILi1ELi1EEEPS2_S2_ET0_T_S7_S6_RSaIT1_E = comdat any

$_ZSt32__make_move_if_noexcept_iteratorIN6dealii6TensorILi1ELi1EEEPKS2_ET0_PT_ = comdat any

$_ZSt18uninitialized_copyIPKN6dealii6TensorILi1ELi1EEEPS2_ET0_T_S7_S6_ = comdat any

$_ZNSt20__uninitialized_copyILb0EE13__uninit_copyIPKN6dealii6TensorILi1ELi1EEEPS4_EET0_T_S9_S8_ = comdat any

$_ZSt10_ConstructIN6dealii6TensorILi1ELi1EEEJRKS2_EEvPT_DpOT0_ = comdat any

$_ZSt7forwardIRKN6dealii6TensorILi1ELi1EEEEOT_RNSt16remove_referenceIS5_E4typeE = comdat any

$_ZN6dealii6TensorILi1ELi1EEC2ERKS1_ = comdat any

$_ZNSt6vectorIN6dealii6TensorILi2ELi1EEESaIS2_EE17_M_default_appendEm = comdat any

$_ZNSt6vectorIN6dealii6TensorILi2ELi1EEESaIS2_EE15_M_erase_at_endEPS2_ = comdat any

$_ZNKSt6vectorIN6dealii6TensorILi2ELi1EEESaIS2_EE8max_sizeEv = comdat any

$_ZNKSt6vectorIN6dealii6TensorILi2ELi1EEESaIS2_EE12_M_check_lenEmPKc = comdat any

$_ZSt34__uninitialized_move_if_noexcept_aIPN6dealii6TensorILi2ELi1EEES3_SaIS2_EET0_T_S6_S5_RT1_ = comdat any

$_ZNKSt12_Vector_baseIN6dealii6TensorILi2ELi1EEESaIS2_EE19_M_get_Tp_allocatorEv = comdat any

$_ZSt22__uninitialized_copy_aIPKN6dealii6TensorILi2ELi1EEEPS2_S2_ET0_T_S7_S6_RSaIT1_E = comdat any

$_ZSt32__make_move_if_noexcept_iteratorIN6dealii6TensorILi2ELi1EEEPKS2_ET0_PT_ = comdat any

$_ZSt18uninitialized_copyIPKN6dealii6TensorILi2ELi1EEEPS2_ET0_T_S7_S6_ = comdat any

$_ZNSt20__uninitialized_copyILb0EE13__uninit_copyIPKN6dealii6TensorILi2ELi1EEEPS4_EET0_T_S9_S8_ = comdat any

$_ZSt10_ConstructIN6dealii6TensorILi2ELi1EEEJRKS2_EEvPT_DpOT0_ = comdat any

$_ZSt7forwardIRKN6dealii6TensorILi2ELi1EEEEOT_RNSt16remove_referenceIS5_E4typeE = comdat any

$_ZN6dealii6TensorILi2ELi1EEC2ERKS1_ = comdat any

$_ZN9__gnu_cxx17__normal_iteratorIPN6dealii6TensorILi1ELi1EEESt6vectorIS3_SaIS3_EEEC2ERKS4_ = comdat any

$_ZSt8__fill_aIN9__gnu_cxx17__normal_iteratorIPN6dealii6TensorILi1ELi1EEESt6vectorIS4_SaIS4_EEEES4_EvT_SA_RKT0_ = comdat any

$_ZSt9__fill_a1IPN6dealii6TensorILi1ELi1EEESt6vectorIS2_SaIS2_EES2_EvN9__gnu_cxx17__normal_iteratorIT_T0_EESB_RKT1_ = comdat any

$_ZSt9__fill_a1IPN6dealii6TensorILi1ELi1EEES2_EN9__gnu_cxx11__enable_ifIXntsr11__is_scalarIT0_EE7__valueEvE6__typeET_S9_RKS6_ = comdat any

$_ZNK9__gnu_cxx17__normal_iteratorIPN6dealii6TensorILi1ELi1EEESt6vectorIS3_SaIS3_EEE4baseEv = comdat any

$_ZN9__gnu_cxx17__normal_iteratorIPN6dealii6TensorILi2ELi1EEESt6vectorIS3_SaIS3_EEEC2ERKS4_ = comdat any

$_ZSt8__fill_aIN9__gnu_cxx17__normal_iteratorIPN6dealii6TensorILi2ELi1EEESt6vectorIS4_SaIS4_EEEES4_EvT_SA_RKT0_ = comdat any

$_ZSt9__fill_a1IPN6dealii6TensorILi2ELi1EEESt6vectorIS2_SaIS2_EES2_EvN9__gnu_cxx17__normal_iteratorIT_T0_EESB_RKT1_ = comdat any

$_ZSt9__fill_a1IPN6dealii6TensorILi2ELi1EEES2_EN9__gnu_cxx11__enable_ifIXntsr11__is_scalarIT0_EE7__valueEvE6__typeET_S9_RKS6_ = comdat any

$_ZNK9__gnu_cxx17__normal_iteratorIPN6dealii6TensorILi2ELi1EEESt6vectorIS3_SaIS3_EEE4baseEv = comdat any

$_ZN9__gnu_cxx17__normal_iteratorIPN6dealii6TensorILi3ELi1EEESt6vectorIS3_SaIS3_EEEC2ERKS4_ = comdat any

$_ZSt8__fill_aIN9__gnu_cxx17__normal_iteratorIPN6dealii6TensorILi3ELi1EEESt6vectorIS4_SaIS4_EEEES4_EvT_SA_RKT0_ = comdat any

$_ZSt9__fill_a1IPN6dealii6TensorILi3ELi1EEESt6vectorIS2_SaIS2_EES2_EvN9__gnu_cxx17__normal_iteratorIT_T0_EESB_RKT1_ = comdat any

$_ZSt9__fill_a1IPN6dealii6TensorILi3ELi1EEES2_EN9__gnu_cxx11__enable_ifIXntsr11__is_scalarIT0_EE7__valueEvE6__typeET_S9_RKS6_ = comdat any

$_ZNK9__gnu_cxx17__normal_iteratorIPN6dealii6TensorILi3ELi1EEESt6vectorIS3_SaIS3_EEE4baseEv = comdat any

$_ZN6dealii6TensorILi3ELi1EEaSERKS1_ = comdat any

$_ZN9__gnu_cxx13new_allocatorIN6dealii6TensorILi1ELi2EEEEC2Ev = comdat any

$_ZN9__gnu_cxx13new_allocatorIN6dealii6TensorILi1ELi2EEEED2Ev = comdat any

$_ZNSt6vectorIN6dealii6TensorILi1ELi2EEESaIS2_EE17_S_check_init_lenEmRKS3_ = comdat any

$_ZNSt12_Vector_baseIN6dealii6TensorILi1ELi2EEESaIS2_EEC2EmRKS3_ = comdat any

$_ZNSt6vectorIN6dealii6TensorILi1ELi2EEESaIS2_EE21_M_default_initializeEm = comdat any

$_ZNSt12_Vector_baseIN6dealii6TensorILi1ELi2EEESaIS2_EED2Ev = comdat any

$_ZNSt6vectorIN6dealii6TensorILi1ELi2EEESaIS2_EE11_S_max_sizeERKS3_ = comdat any

$_ZNSaIN6dealii6TensorILi1ELi2EEEEC2ERKS2_ = comdat any

$_ZNSt16allocator_traitsISaIN6dealii6TensorILi1ELi2EEEEE8max_sizeERKS3_ = comdat any

$_ZNK9__gnu_cxx13new_allocatorIN6dealii6TensorILi1ELi2EEEE8max_sizeEv = comdat any

$_ZNK9__gnu_cxx13new_allocatorIN6dealii6TensorILi1ELi2EEEE11_M_max_sizeEv = comdat any

$_ZN9__gnu_cxx13new_allocatorIN6dealii6TensorILi1ELi2EEEEC2ERKS4_ = comdat any

$_ZNSt12_Vector_baseIN6dealii6TensorILi1ELi2EEESaIS2_EE12_Vector_implC2ERKS3_ = comdat any

$_ZNSt12_Vector_baseIN6dealii6TensorILi1ELi2EEESaIS2_EE17_M_create_storageEm = comdat any

$_ZNSt12_Vector_baseIN6dealii6TensorILi1ELi2EEESaIS2_EE12_Vector_implD2Ev = comdat any

$_ZNSt12_Vector_baseIN6dealii6TensorILi1ELi2EEESaIS2_EE17_Vector_impl_dataC2Ev = comdat any

$_ZNSt12_Vector_baseIN6dealii6TensorILi1ELi2EEESaIS2_EE11_M_allocateEm = comdat any

$_ZNSt16allocator_traitsISaIN6dealii6TensorILi1ELi2EEEEE8allocateERS3_m = comdat any

$_ZN9__gnu_cxx13new_allocatorIN6dealii6TensorILi1ELi2EEEE8allocateEmPKv = comdat any

$_ZSt27__uninitialized_default_n_aIPN6dealii6TensorILi1ELi2EEEmS2_ET_S4_T0_RSaIT1_E = comdat any

$_ZNSt12_Vector_baseIN6dealii6TensorILi1ELi2EEESaIS2_EE19_M_get_Tp_allocatorEv = comdat any

$_ZSt25__uninitialized_default_nIPN6dealii6TensorILi1ELi2EEEmET_S4_T0_ = comdat any

$_ZNSt27__uninitialized_default_n_1ILb0EE18__uninit_default_nIPN6dealii6TensorILi1ELi2EEEmEET_S6_T0_ = comdat any

$_ZSt10_ConstructIN6dealii6TensorILi1ELi2EEEJEEvPT_DpOT0_ = comdat any

$_ZSt11__addressofIN6dealii6TensorILi1ELi2EEEEPT_RS3_ = comdat any

$_ZSt8_DestroyIPN6dealii6TensorILi1ELi2EEEEvT_S4_ = comdat any

$_ZNSt12_Destroy_auxILb1EE9__destroyIPN6dealii6TensorILi1ELi2EEEEEvT_S6_ = comdat any

$_ZNSt12_Vector_baseIN6dealii6TensorILi1ELi2EEESaIS2_EE13_M_deallocateEPS2_m = comdat any

$_ZNSt16allocator_traitsISaIN6dealii6TensorILi1ELi2EEEEE10deallocateERS3_PS2_m = comdat any

$_ZN9__gnu_cxx13new_allocatorIN6dealii6TensorILi1ELi2EEEE10deallocateEPS3_m = comdat any

$_ZN9__gnu_cxx13new_allocatorIN6dealii6TensorILi2ELi2EEEEC2Ev = comdat any

$_ZN9__gnu_cxx13new_allocatorIN6dealii6TensorILi2ELi2EEEED2Ev = comdat any

$_ZNSt6vectorIN6dealii6TensorILi2ELi2EEESaIS2_EE17_S_check_init_lenEmRKS3_ = comdat any

$_ZNSt12_Vector_baseIN6dealii6TensorILi2ELi2EEESaIS2_EEC2EmRKS3_ = comdat any

$_ZNSt6vectorIN6dealii6TensorILi2ELi2EEESaIS2_EE21_M_default_initializeEm = comdat any

$_ZNSt12_Vector_baseIN6dealii6TensorILi2ELi2EEESaIS2_EED2Ev = comdat any

$_ZNSt6vectorIN6dealii6TensorILi2ELi2EEESaIS2_EE11_S_max_sizeERKS3_ = comdat any

$_ZNSaIN6dealii6TensorILi2ELi2EEEEC2ERKS2_ = comdat any

$_ZNSt16allocator_traitsISaIN6dealii6TensorILi2ELi2EEEEE8max_sizeERKS3_ = comdat any

$_ZNK9__gnu_cxx13new_allocatorIN6dealii6TensorILi2ELi2EEEE8max_sizeEv = comdat any

$_ZNK9__gnu_cxx13new_allocatorIN6dealii6TensorILi2ELi2EEEE11_M_max_sizeEv = comdat any

$_ZN9__gnu_cxx13new_allocatorIN6dealii6TensorILi2ELi2EEEEC2ERKS4_ = comdat any

$_ZNSt12_Vector_baseIN6dealii6TensorILi2ELi2EEESaIS2_EE12_Vector_implC2ERKS3_ = comdat any

$_ZNSt12_Vector_baseIN6dealii6TensorILi2ELi2EEESaIS2_EE17_M_create_storageEm = comdat any

$_ZNSt12_Vector_baseIN6dealii6TensorILi2ELi2EEESaIS2_EE12_Vector_implD2Ev = comdat any

$_ZNSt12_Vector_baseIN6dealii6TensorILi2ELi2EEESaIS2_EE17_Vector_impl_dataC2Ev = comdat any

$_ZNSt12_Vector_baseIN6dealii6TensorILi2ELi2EEESaIS2_EE11_M_allocateEm = comdat any

$_ZNSt16allocator_traitsISaIN6dealii6TensorILi2ELi2EEEEE8allocateERS3_m = comdat any

$_ZN9__gnu_cxx13new_allocatorIN6dealii6TensorILi2ELi2EEEE8allocateEmPKv = comdat any

$_ZSt27__uninitialized_default_n_aIPN6dealii6TensorILi2ELi2EEEmS2_ET_S4_T0_RSaIT1_E = comdat any

$_ZNSt12_Vector_baseIN6dealii6TensorILi2ELi2EEESaIS2_EE19_M_get_Tp_allocatorEv = comdat any

$_ZSt25__uninitialized_default_nIPN6dealii6TensorILi2ELi2EEEmET_S4_T0_ = comdat any

$_ZNSt27__uninitialized_default_n_1ILb0EE18__uninit_default_nIPN6dealii6TensorILi2ELi2EEEmEET_S6_T0_ = comdat any

$_ZSt10_ConstructIN6dealii6TensorILi2ELi2EEEJEEvPT_DpOT0_ = comdat any

$_ZSt11__addressofIN6dealii6TensorILi2ELi2EEEEPT_RS3_ = comdat any

$_ZSt8_DestroyIPN6dealii6TensorILi2ELi2EEEEvT_S4_ = comdat any

$_ZNSt12_Destroy_auxILb1EE9__destroyIPN6dealii6TensorILi2ELi2EEEEEvT_S6_ = comdat any

$_ZNSt12_Vector_baseIN6dealii6TensorILi2ELi2EEESaIS2_EE13_M_deallocateEPS2_m = comdat any

$_ZNSt16allocator_traitsISaIN6dealii6TensorILi2ELi2EEEEE10deallocateERS3_PS2_m = comdat any

$_ZN9__gnu_cxx13new_allocatorIN6dealii6TensorILi2ELi2EEEE10deallocateEPS3_m = comdat any

$_ZSt8_DestroyIPN6dealii6TensorILi1ELi2EEES2_EvT_S4_RSaIT0_E = comdat any

$_ZSt8_DestroyIPN6dealii6TensorILi2ELi2EEES2_EvT_S4_RSaIT0_E = comdat any

$_ZNSt6vectorIN6dealii6TensorILi1ELi2EEESaIS2_EE17_M_default_appendEm = comdat any

$_ZNSt6vectorIN6dealii6TensorILi1ELi2EEESaIS2_EE15_M_erase_at_endEPS2_ = comdat any

$_ZNKSt6vectorIN6dealii6TensorILi1ELi2EEESaIS2_EE8max_sizeEv = comdat any

$_ZNKSt6vectorIN6dealii6TensorILi1ELi2EEESaIS2_EE12_M_check_lenEmPKc = comdat any

$_ZSt34__uninitialized_move_if_noexcept_aIPN6dealii6TensorILi1ELi2EEES3_SaIS2_EET0_T_S6_S5_RT1_ = comdat any

$_ZNKSt12_Vector_baseIN6dealii6TensorILi1ELi2EEESaIS2_EE19_M_get_Tp_allocatorEv = comdat any

$_ZSt22__uninitialized_copy_aIPKN6dealii6TensorILi1ELi2EEEPS2_S2_ET0_T_S7_S6_RSaIT1_E = comdat any

$_ZSt32__make_move_if_noexcept_iteratorIN6dealii6TensorILi1ELi2EEEPKS2_ET0_PT_ = comdat any

$_ZSt18uninitialized_copyIPKN6dealii6TensorILi1ELi2EEEPS2_ET0_T_S7_S6_ = comdat any

$_ZNSt20__uninitialized_copyILb0EE13__uninit_copyIPKN6dealii6TensorILi1ELi2EEEPS4_EET0_T_S9_S8_ = comdat any

$_ZSt10_ConstructIN6dealii6TensorILi1ELi2EEEJRKS2_EEvPT_DpOT0_ = comdat any

$_ZSt7forwardIRKN6dealii6TensorILi1ELi2EEEEOT_RNSt16remove_referenceIS5_E4typeE = comdat any

$_ZN6dealii6TensorILi1ELi2EEC2ERKS1_ = comdat any

$_ZNSt6vectorIN6dealii6TensorILi2ELi2EEESaIS2_EE17_M_default_appendEm = comdat any

$_ZNSt6vectorIN6dealii6TensorILi2ELi2EEESaIS2_EE15_M_erase_at_endEPS2_ = comdat any

$_ZNKSt6vectorIN6dealii6TensorILi2ELi2EEESaIS2_EE8max_sizeEv = comdat any

$_ZNKSt6vectorIN6dealii6TensorILi2ELi2EEESaIS2_EE12_M_check_lenEmPKc = comdat any

$_ZSt34__uninitialized_move_if_noexcept_aIPN6dealii6TensorILi2ELi2EEES3_SaIS2_EET0_T_S6_S5_RT1_ = comdat any

$_ZNKSt12_Vector_baseIN6dealii6TensorILi2ELi2EEESaIS2_EE19_M_get_Tp_allocatorEv = comdat any

$_ZSt22__uninitialized_copy_aIPKN6dealii6TensorILi2ELi2EEEPS2_S2_ET0_T_S7_S6_RSaIT1_E = comdat any

$_ZSt32__make_move_if_noexcept_iteratorIN6dealii6TensorILi2ELi2EEEPKS2_ET0_PT_ = comdat any

$_ZSt18uninitialized_copyIPKN6dealii6TensorILi2ELi2EEEPS2_ET0_T_S7_S6_ = comdat any

$_ZNSt20__uninitialized_copyILb0EE13__uninit_copyIPKN6dealii6TensorILi2ELi2EEEPS4_EET0_T_S9_S8_ = comdat any

$_ZSt10_ConstructIN6dealii6TensorILi2ELi2EEEJRKS2_EEvPT_DpOT0_ = comdat any

$_ZSt7forwardIRKN6dealii6TensorILi2ELi2EEEEOT_RNSt16remove_referenceIS5_E4typeE = comdat any

$_ZN6dealii6TensorILi2ELi2EEC2ERKS1_ = comdat any

$_ZN9__gnu_cxx17__normal_iteratorIPN6dealii6TensorILi1ELi2EEESt6vectorIS3_SaIS3_EEEC2ERKS4_ = comdat any

$_ZSt8__fill_aIN9__gnu_cxx17__normal_iteratorIPN6dealii6TensorILi1ELi2EEESt6vectorIS4_SaIS4_EEEES4_EvT_SA_RKT0_ = comdat any

$_ZSt9__fill_a1IPN6dealii6TensorILi1ELi2EEESt6vectorIS2_SaIS2_EES2_EvN9__gnu_cxx17__normal_iteratorIT_T0_EESB_RKT1_ = comdat any

$_ZSt9__fill_a1IPN6dealii6TensorILi1ELi2EEES2_EN9__gnu_cxx11__enable_ifIXntsr11__is_scalarIT0_EE7__valueEvE6__typeET_S9_RKS6_ = comdat any

$_ZNK9__gnu_cxx17__normal_iteratorIPN6dealii6TensorILi1ELi2EEESt6vectorIS3_SaIS3_EEE4baseEv = comdat any

$_ZN9__gnu_cxx17__normal_iteratorIPN6dealii6TensorILi2ELi2EEESt6vectorIS3_SaIS3_EEEC2ERKS4_ = comdat any

$_ZSt8__fill_aIN9__gnu_cxx17__normal_iteratorIPN6dealii6TensorILi2ELi2EEESt6vectorIS4_SaIS4_EEEES4_EvT_SA_RKT0_ = comdat any

$_ZSt9__fill_a1IPN6dealii6TensorILi2ELi2EEESt6vectorIS2_SaIS2_EES2_EvN9__gnu_cxx17__normal_iteratorIT_T0_EESB_RKT1_ = comdat any

$_ZSt9__fill_a1IPN6dealii6TensorILi2ELi2EEES2_EN9__gnu_cxx11__enable_ifIXntsr11__is_scalarIT0_EE7__valueEvE6__typeET_S9_RKS6_ = comdat any

$_ZNK9__gnu_cxx17__normal_iteratorIPN6dealii6TensorILi2ELi2EEESt6vectorIS3_SaIS3_EEE4baseEv = comdat any

$_ZN9__gnu_cxx17__normal_iteratorIPN6dealii6TensorILi3ELi2EEESt6vectorIS3_SaIS3_EEEC2ERKS4_ = comdat any

$_ZSt8__fill_aIN9__gnu_cxx17__normal_iteratorIPN6dealii6TensorILi3ELi2EEESt6vectorIS4_SaIS4_EEEES4_EvT_SA_RKT0_ = comdat any

$_ZSt9__fill_a1IPN6dealii6TensorILi3ELi2EEESt6vectorIS2_SaIS2_EES2_EvN9__gnu_cxx17__normal_iteratorIT_T0_EESB_RKT1_ = comdat any

$_ZSt9__fill_a1IPN6dealii6TensorILi3ELi2EEES2_EN9__gnu_cxx11__enable_ifIXntsr11__is_scalarIT0_EE7__valueEvE6__typeET_S9_RKS6_ = comdat any

$_ZNK9__gnu_cxx17__normal_iteratorIPN6dealii6TensorILi3ELi2EEESt6vectorIS3_SaIS3_EEE4baseEv = comdat any

$_ZN6dealii6TensorILi3ELi2EEaSERKS1_ = comdat any

$_ZN9__gnu_cxx13new_allocatorIN6dealii6TensorILi1ELi3EEEEC2Ev = comdat any

$_ZN9__gnu_cxx13new_allocatorIN6dealii6TensorILi1ELi3EEEED2Ev = comdat any

$_ZNSt6vectorIN6dealii6TensorILi1ELi3EEESaIS2_EE17_S_check_init_lenEmRKS3_ = comdat any

$_ZNSt12_Vector_baseIN6dealii6TensorILi1ELi3EEESaIS2_EEC2EmRKS3_ = comdat any

$_ZNSt6vectorIN6dealii6TensorILi1ELi3EEESaIS2_EE21_M_default_initializeEm = comdat any

$_ZNSt12_Vector_baseIN6dealii6TensorILi1ELi3EEESaIS2_EED2Ev = comdat any

$_ZNSt6vectorIN6dealii6TensorILi1ELi3EEESaIS2_EE11_S_max_sizeERKS3_ = comdat any

$_ZNSaIN6dealii6TensorILi1ELi3EEEEC2ERKS2_ = comdat any

$_ZNSt16allocator_traitsISaIN6dealii6TensorILi1ELi3EEEEE8max_sizeERKS3_ = comdat any

$_ZNK9__gnu_cxx13new_allocatorIN6dealii6TensorILi1ELi3EEEE8max_sizeEv = comdat any

$_ZNK9__gnu_cxx13new_allocatorIN6dealii6TensorILi1ELi3EEEE11_M_max_sizeEv = comdat any

$_ZN9__gnu_cxx13new_allocatorIN6dealii6TensorILi1ELi3EEEEC2ERKS4_ = comdat any

$_ZNSt12_Vector_baseIN6dealii6TensorILi1ELi3EEESaIS2_EE12_Vector_implC2ERKS3_ = comdat any

$_ZNSt12_Vector_baseIN6dealii6TensorILi1ELi3EEESaIS2_EE17_M_create_storageEm = comdat any

$_ZNSt12_Vector_baseIN6dealii6TensorILi1ELi3EEESaIS2_EE12_Vector_implD2Ev = comdat any

$_ZNSt12_Vector_baseIN6dealii6TensorILi1ELi3EEESaIS2_EE17_Vector_impl_dataC2Ev = comdat any

$_ZNSt12_Vector_baseIN6dealii6TensorILi1ELi3EEESaIS2_EE11_M_allocateEm = comdat any

$_ZNSt16allocator_traitsISaIN6dealii6TensorILi1ELi3EEEEE8allocateERS3_m = comdat any

$_ZN9__gnu_cxx13new_allocatorIN6dealii6TensorILi1ELi3EEEE8allocateEmPKv = comdat any

$_ZSt27__uninitialized_default_n_aIPN6dealii6TensorILi1ELi3EEEmS2_ET_S4_T0_RSaIT1_E = comdat any

$_ZNSt12_Vector_baseIN6dealii6TensorILi1ELi3EEESaIS2_EE19_M_get_Tp_allocatorEv = comdat any

$_ZSt25__uninitialized_default_nIPN6dealii6TensorILi1ELi3EEEmET_S4_T0_ = comdat any

$_ZNSt27__uninitialized_default_n_1ILb0EE18__uninit_default_nIPN6dealii6TensorILi1ELi3EEEmEET_S6_T0_ = comdat any

$_ZSt10_ConstructIN6dealii6TensorILi1ELi3EEEJEEvPT_DpOT0_ = comdat any

$_ZSt11__addressofIN6dealii6TensorILi1ELi3EEEEPT_RS3_ = comdat any

$_ZSt8_DestroyIPN6dealii6TensorILi1ELi3EEEEvT_S4_ = comdat any

$_ZNSt12_Destroy_auxILb1EE9__destroyIPN6dealii6TensorILi1ELi3EEEEEvT_S6_ = comdat any

$_ZNSt12_Vector_baseIN6dealii6TensorILi1ELi3EEESaIS2_EE13_M_deallocateEPS2_m = comdat any

$_ZNSt16allocator_traitsISaIN6dealii6TensorILi1ELi3EEEEE10deallocateERS3_PS2_m = comdat any

$_ZN9__gnu_cxx13new_allocatorIN6dealii6TensorILi1ELi3EEEE10deallocateEPS3_m = comdat any

$_ZN9__gnu_cxx13new_allocatorIN6dealii6TensorILi2ELi3EEEEC2Ev = comdat any

$_ZN9__gnu_cxx13new_allocatorIN6dealii6TensorILi2ELi3EEEED2Ev = comdat any

$_ZNSt6vectorIN6dealii6TensorILi2ELi3EEESaIS2_EE17_S_check_init_lenEmRKS3_ = comdat any

$_ZNSt12_Vector_baseIN6dealii6TensorILi2ELi3EEESaIS2_EEC2EmRKS3_ = comdat any

$_ZNSt6vectorIN6dealii6TensorILi2ELi3EEESaIS2_EE21_M_default_initializeEm = comdat any

$_ZNSt12_Vector_baseIN6dealii6TensorILi2ELi3EEESaIS2_EED2Ev = comdat any

$_ZNSt6vectorIN6dealii6TensorILi2ELi3EEESaIS2_EE11_S_max_sizeERKS3_ = comdat any

$_ZNSaIN6dealii6TensorILi2ELi3EEEEC2ERKS2_ = comdat any

$_ZNSt16allocator_traitsISaIN6dealii6TensorILi2ELi3EEEEE8max_sizeERKS3_ = comdat any

$_ZNK9__gnu_cxx13new_allocatorIN6dealii6TensorILi2ELi3EEEE8max_sizeEv = comdat any

$_ZNK9__gnu_cxx13new_allocatorIN6dealii6TensorILi2ELi3EEEE11_M_max_sizeEv = comdat any

$_ZN9__gnu_cxx13new_allocatorIN6dealii6TensorILi2ELi3EEEEC2ERKS4_ = comdat any

$_ZNSt12_Vector_baseIN6dealii6TensorILi2ELi3EEESaIS2_EE12_Vector_implC2ERKS3_ = comdat any

$_ZNSt12_Vector_baseIN6dealii6TensorILi2ELi3EEESaIS2_EE17_M_create_storageEm = comdat any

$_ZNSt12_Vector_baseIN6dealii6TensorILi2ELi3EEESaIS2_EE12_Vector_implD2Ev = comdat any

$_ZNSt12_Vector_baseIN6dealii6TensorILi2ELi3EEESaIS2_EE17_Vector_impl_dataC2Ev = comdat any

$_ZNSt12_Vector_baseIN6dealii6TensorILi2ELi3EEESaIS2_EE11_M_allocateEm = comdat any

$_ZNSt16allocator_traitsISaIN6dealii6TensorILi2ELi3EEEEE8allocateERS3_m = comdat any

$_ZN9__gnu_cxx13new_allocatorIN6dealii6TensorILi2ELi3EEEE8allocateEmPKv = comdat any

$_ZSt27__uninitialized_default_n_aIPN6dealii6TensorILi2ELi3EEEmS2_ET_S4_T0_RSaIT1_E = comdat any

$_ZNSt12_Vector_baseIN6dealii6TensorILi2ELi3EEESaIS2_EE19_M_get_Tp_allocatorEv = comdat any

$_ZSt25__uninitialized_default_nIPN6dealii6TensorILi2ELi3EEEmET_S4_T0_ = comdat any

$_ZNSt27__uninitialized_default_n_1ILb0EE18__uninit_default_nIPN6dealii6TensorILi2ELi3EEEmEET_S6_T0_ = comdat any

$_ZSt10_ConstructIN6dealii6TensorILi2ELi3EEEJEEvPT_DpOT0_ = comdat any

$_ZSt11__addressofIN6dealii6TensorILi2ELi3EEEEPT_RS3_ = comdat any

$_ZSt8_DestroyIPN6dealii6TensorILi2ELi3EEEEvT_S4_ = comdat any

$_ZNSt12_Destroy_auxILb1EE9__destroyIPN6dealii6TensorILi2ELi3EEEEEvT_S6_ = comdat any

$_ZNSt12_Vector_baseIN6dealii6TensorILi2ELi3EEESaIS2_EE13_M_deallocateEPS2_m = comdat any

$_ZNSt16allocator_traitsISaIN6dealii6TensorILi2ELi3EEEEE10deallocateERS3_PS2_m = comdat any

$_ZN9__gnu_cxx13new_allocatorIN6dealii6TensorILi2ELi3EEEE10deallocateEPS3_m = comdat any

$_ZSt8_DestroyIPN6dealii6TensorILi1ELi3EEES2_EvT_S4_RSaIT0_E = comdat any

$_ZSt8_DestroyIPN6dealii6TensorILi2ELi3EEES2_EvT_S4_RSaIT0_E = comdat any

$_ZNSt6vectorIN6dealii6TensorILi1ELi3EEESaIS2_EE17_M_default_appendEm = comdat any

$_ZNSt6vectorIN6dealii6TensorILi1ELi3EEESaIS2_EE15_M_erase_at_endEPS2_ = comdat any

$_ZNKSt6vectorIN6dealii6TensorILi1ELi3EEESaIS2_EE8max_sizeEv = comdat any

$_ZNKSt6vectorIN6dealii6TensorILi1ELi3EEESaIS2_EE12_M_check_lenEmPKc = comdat any

$_ZSt34__uninitialized_move_if_noexcept_aIPN6dealii6TensorILi1ELi3EEES3_SaIS2_EET0_T_S6_S5_RT1_ = comdat any

$_ZNKSt12_Vector_baseIN6dealii6TensorILi1ELi3EEESaIS2_EE19_M_get_Tp_allocatorEv = comdat any

$_ZSt22__uninitialized_copy_aIPKN6dealii6TensorILi1ELi3EEEPS2_S2_ET0_T_S7_S6_RSaIT1_E = comdat any

$_ZSt32__make_move_if_noexcept_iteratorIN6dealii6TensorILi1ELi3EEEPKS2_ET0_PT_ = comdat any

$_ZSt18uninitialized_copyIPKN6dealii6TensorILi1ELi3EEEPS2_ET0_T_S7_S6_ = comdat any

$_ZNSt20__uninitialized_copyILb0EE13__uninit_copyIPKN6dealii6TensorILi1ELi3EEEPS4_EET0_T_S9_S8_ = comdat any

$_ZSt10_ConstructIN6dealii6TensorILi1ELi3EEEJRKS2_EEvPT_DpOT0_ = comdat any

$_ZSt7forwardIRKN6dealii6TensorILi1ELi3EEEEOT_RNSt16remove_referenceIS5_E4typeE = comdat any

$_ZN6dealii6TensorILi1ELi3EEC2ERKS1_ = comdat any

$_ZNSt6vectorIN6dealii6TensorILi2ELi3EEESaIS2_EE17_M_default_appendEm = comdat any

$_ZNSt6vectorIN6dealii6TensorILi2ELi3EEESaIS2_EE15_M_erase_at_endEPS2_ = comdat any

$_ZNKSt6vectorIN6dealii6TensorILi2ELi3EEESaIS2_EE8max_sizeEv = comdat any

$_ZNKSt6vectorIN6dealii6TensorILi2ELi3EEESaIS2_EE12_M_check_lenEmPKc = comdat any

$_ZSt34__uninitialized_move_if_noexcept_aIPN6dealii6TensorILi2ELi3EEES3_SaIS2_EET0_T_S6_S5_RT1_ = comdat any

$_ZNKSt12_Vector_baseIN6dealii6TensorILi2ELi3EEESaIS2_EE19_M_get_Tp_allocatorEv = comdat any

$_ZSt22__uninitialized_copy_aIPKN6dealii6TensorILi2ELi3EEEPS2_S2_ET0_T_S7_S6_RSaIT1_E = comdat any

$_ZSt32__make_move_if_noexcept_iteratorIN6dealii6TensorILi2ELi3EEEPKS2_ET0_PT_ = comdat any

$_ZSt18uninitialized_copyIPKN6dealii6TensorILi2ELi3EEEPS2_ET0_T_S7_S6_ = comdat any

$_ZNSt20__uninitialized_copyILb0EE13__uninit_copyIPKN6dealii6TensorILi2ELi3EEEPS4_EET0_T_S9_S8_ = comdat any

$_ZSt10_ConstructIN6dealii6TensorILi2ELi3EEEJRKS2_EEvPT_DpOT0_ = comdat any

$_ZSt7forwardIRKN6dealii6TensorILi2ELi3EEEEOT_RNSt16remove_referenceIS5_E4typeE = comdat any

$_ZN6dealii6TensorILi2ELi3EEC2ERKS1_ = comdat any

$_ZN9__gnu_cxx17__normal_iteratorIPN6dealii6TensorILi1ELi3EEESt6vectorIS3_SaIS3_EEEC2ERKS4_ = comdat any

$_ZSt8__fill_aIN9__gnu_cxx17__normal_iteratorIPN6dealii6TensorILi1ELi3EEESt6vectorIS4_SaIS4_EEEES4_EvT_SA_RKT0_ = comdat any

$_ZSt9__fill_a1IPN6dealii6TensorILi1ELi3EEESt6vectorIS2_SaIS2_EES2_EvN9__gnu_cxx17__normal_iteratorIT_T0_EESB_RKT1_ = comdat any

$_ZSt9__fill_a1IPN6dealii6TensorILi1ELi3EEES2_EN9__gnu_cxx11__enable_ifIXntsr11__is_scalarIT0_EE7__valueEvE6__typeET_S9_RKS6_ = comdat any

$_ZNK9__gnu_cxx17__normal_iteratorIPN6dealii6TensorILi1ELi3EEESt6vectorIS3_SaIS3_EEE4baseEv = comdat any

$_ZN9__gnu_cxx17__normal_iteratorIPN6dealii6TensorILi2ELi3EEESt6vectorIS3_SaIS3_EEEC2ERKS4_ = comdat any

$_ZSt8__fill_aIN9__gnu_cxx17__normal_iteratorIPN6dealii6TensorILi2ELi3EEESt6vectorIS4_SaIS4_EEEES4_EvT_SA_RKT0_ = comdat any

$_ZSt9__fill_a1IPN6dealii6TensorILi2ELi3EEESt6vectorIS2_SaIS2_EES2_EvN9__gnu_cxx17__normal_iteratorIT_T0_EESB_RKT1_ = comdat any

$_ZSt9__fill_a1IPN6dealii6TensorILi2ELi3EEES2_EN9__gnu_cxx11__enable_ifIXntsr11__is_scalarIT0_EE7__valueEvE6__typeET_S9_RKS6_ = comdat any

$_ZNK9__gnu_cxx17__normal_iteratorIPN6dealii6TensorILi2ELi3EEESt6vectorIS3_SaIS3_EEE4baseEv = comdat any

$_ZN9__gnu_cxx17__normal_iteratorIPN6dealii6TensorILi3ELi3EEESt6vectorIS3_SaIS3_EEEC2ERKS4_ = comdat any

$_ZSt8__fill_aIN9__gnu_cxx17__normal_iteratorIPN6dealii6TensorILi3ELi3EEESt6vectorIS4_SaIS4_EEEES4_EvT_SA_RKT0_ = comdat any

$_ZSt9__fill_a1IPN6dealii6TensorILi3ELi3EEESt6vectorIS2_SaIS2_EES2_EvN9__gnu_cxx17__normal_iteratorIT_T0_EESB_RKT1_ = comdat any

$_ZSt9__fill_a1IPN6dealii6TensorILi3ELi3EEES2_EN9__gnu_cxx11__enable_ifIXntsr11__is_scalarIT0_EE7__valueEvE6__typeET_S9_RKS6_ = comdat any

$_ZNK9__gnu_cxx17__normal_iteratorIPN6dealii6TensorILi3ELi3EEESt6vectorIS3_SaIS3_EEE4baseEv = comdat any

$_ZN6dealii6TensorILi3ELi3EEaSERKS1_ = comdat any

$_ZTVN6dealii11Polynomials10PolynomialIdEE = comdat any

$_ZTSN6dealii11Polynomials10PolynomialIdEE = comdat any

$_ZTIN6dealii11Polynomials10PolynomialIdEE = comdat any

@_ZStL8__ioinit = internal global %"class.std::ios_base::Init" zeroinitializer, align 1, !dbg !0
@__dso_handle = external hidden global i8
@_ZTVN6dealii11Polynomials10PolynomialIdEE = linkonce_odr dso_local unnamed_addr constant { [4 x i8*] } { [4 x i8*] [i8* null, i8* bitcast ({ i8*, i8*, i8* }* @_ZTIN6dealii11Polynomials10PolynomialIdEE to i8*), i8* bitcast (void (%"class.dealii::Polynomials::Polynomial"*)* @_ZN6dealii11Polynomials10PolynomialIdED2Ev to i8*), i8* bitcast (void (%"class.dealii::Polynomials::Polynomial"*)* @_ZN6dealii11Polynomials10PolynomialIdED0Ev to i8*)] }, comdat, align 8
@_ZTVN10__cxxabiv120__si_class_type_infoE = external dso_local global i8*
@_ZTSN6dealii11Polynomials10PolynomialIdEE = linkonce_odr dso_local constant [38 x i8] c"N6dealii11Polynomials10PolynomialIdEE\00", comdat, align 1
@_ZTIN6dealii11SubscriptorE = external dso_local constant i8*
@_ZTIN6dealii11Polynomials10PolynomialIdEE = linkonce_odr dso_local constant { i8*, i8*, i8* } { i8* bitcast (i8** getelementptr inbounds (i8*, i8** @_ZTVN10__cxxabiv120__si_class_type_infoE, i64 2) to i8*), i8* getelementptr inbounds ([38 x i8], [38 x i8]* @_ZTSN6dealii11Polynomials10PolynomialIdEE, i32 0, i32 0), i8* bitcast (i8** @_ZTIN6dealii11SubscriptorE to i8*) }, comdat, align 8
@.str = private unnamed_addr constant [49 x i8] c"cannot create std::vector larger than max_size()\00", align 1
@.str.1 = private unnamed_addr constant [26 x i8] c"vector::_M_default_append\00", align 1
@llvm.global_ctors = appending global [1 x { i32, void ()*, i8* }] [{ i32, void ()*, i8* } { i32 65535, void ()* @_GLOBAL__sub_I_polynomials_bdm.cc, i8* null }]

@_ZN6dealii14PolynomialsBDMILi1EEC1Ej = weak_odr dso_local unnamed_addr alias void (%"class.dealii::PolynomialsBDM"*, i32), void (%"class.dealii::PolynomialsBDM"*, i32)* @_ZN6dealii14PolynomialsBDMILi1EEC2Ej
@_ZN6dealii14PolynomialsBDMILi2EEC1Ej = weak_odr dso_local unnamed_addr alias void (%"class.dealii::PolynomialsBDM.32"*, i32), void (%"class.dealii::PolynomialsBDM.32"*, i32)* @_ZN6dealii14PolynomialsBDMILi2EEC2Ej
@_ZN6dealii14PolynomialsBDMILi3EEC1Ej = weak_odr dso_local unnamed_addr alias void (%"class.dealii::PolynomialsBDM.56"*, i32), void (%"class.dealii::PolynomialsBDM.56"*, i32)* @_ZN6dealii14PolynomialsBDMILi3EEC2Ej

; Function Attrs: noinline uwtable
define internal void @__cxx_global_var_init() #0 section ".text.startup" !dbg !8058 {
entry:
  call void @_ZNSt8ios_base4InitC1Ev(%"class.std::ios_base::Init"* @_ZStL8__ioinit), !dbg !8059
  %0 = call i32 @__cxa_atexit(void (i8*)* bitcast (void (%"class.std::ios_base::Init"*)* @_ZNSt8ios_base4InitD1Ev to void (i8*)*), i8* getelementptr inbounds (%"class.std::ios_base::Init", %"class.std::ios_base::Init"* @_ZStL8__ioinit, i32 0, i32 0), i8* @__dso_handle) #3, !dbg !8059
  ret void, !dbg !8059
}

declare dso_local void @_ZNSt8ios_base4InitC1Ev(%"class.std::ios_base::Init"*) unnamed_addr #1

; Function Attrs: nounwind
declare dso_local void @_ZNSt8ios_base4InitD1Ev(%"class.std::ios_base::Init"*) unnamed_addr #2

; Function Attrs: nounwind
declare dso_local i32 @__cxa_atexit(void (i8*)*, i8*, i8*) #3

; Function Attrs: noinline uwtable
define weak_odr dso_local void @_ZN6dealii14PolynomialsBDMILi1EEC2Ej(%"class.dealii::PolynomialsBDM"* %this, i32 %k) unnamed_addr #0 comdat($_ZN6dealii14PolynomialsBDMILi1EEC5Ej) align 2 personality i8* bitcast (i32 (...)* @__gxx_personality_v0 to i8*) !dbg !8060 {
entry:
  %this.addr = alloca %"class.dealii::PolynomialsBDM"*, align 8
  %k.addr = alloca i32, align 4
  %ref.tmp = alloca %"class.std::vector", align 8
  %exn.slot = alloca i8*
  %ehselector.slot = alloca i32
  %ref.tmp2 = alloca %"class.std::allocator", align 1
  %ref.tmp10 = alloca %"class.std::allocator.5", align 1
  %ref.tmp18 = alloca %"class.std::allocator.15", align 1
  %ref.tmp26 = alloca %"class.std::allocator.20", align 1
  %ref.tmp29 = alloca %"class.dealii::Polynomials::Monomial", align 8
  store %"class.dealii::PolynomialsBDM"* %this, %"class.dealii::PolynomialsBDM"** %this.addr, align 8
  call void @llvm.dbg.declare(metadata %"class.dealii::PolynomialsBDM"** %this.addr, metadata !8061, metadata !DIExpression()), !dbg !8063
  store i32 %k, i32* %k.addr, align 4
  call void @llvm.dbg.declare(metadata i32* %k.addr, metadata !8064, metadata !DIExpression()), !dbg !8065
  %this1 = load %"class.dealii::PolynomialsBDM"*, %"class.dealii::PolynomialsBDM"** %this.addr, align 8
  %polynomial_space = getelementptr inbounds %"class.dealii::PolynomialsBDM", %"class.dealii::PolynomialsBDM"* %this1, i32 0, i32 0, !dbg !8066
  %0 = load i32, i32* %k.addr, align 4, !dbg !8067
  call void @_ZN6dealii11Polynomials8Legendre23generate_complete_basisEj(%"class.std::vector"* sret %ref.tmp, i32 %0), !dbg !8068
  invoke void @_ZN6dealii15PolynomialSpaceILi1EEC2INS_11Polynomials10PolynomialIdEEEERKSt6vectorIT_SaIS7_EE(%"class.dealii::PolynomialSpace"* %polynomial_space, %"class.std::vector"* dereferenceable(24) %ref.tmp)
          to label %invoke.cont unwind label %lpad, !dbg !8066

invoke.cont:                                      ; preds = %entry
  call void @_ZNSt6vectorIN6dealii11Polynomials10PolynomialIdEESaIS3_EED2Ev(%"class.std::vector"* %ref.tmp) #3, !dbg !8066
  %monomials = getelementptr inbounds %"class.dealii::PolynomialsBDM", %"class.dealii::PolynomialsBDM"* %this1, i32 0, i32 1, !dbg !8069
  call void @_ZNSaIN6dealii11Polynomials10PolynomialIdEEEC2Ev(%"class.std::allocator"* %ref.tmp2) #3, !dbg !8069
  invoke void @_ZNSt6vectorIN6dealii11Polynomials10PolynomialIdEESaIS3_EEC2EmRKS4_(%"class.std::vector"* %monomials, i64 1, %"class.std::allocator"* dereferenceable(1) %ref.tmp2)
          to label %invoke.cont4 unwind label %lpad3, !dbg !8069

invoke.cont4:                                     ; preds = %invoke.cont
  call void @_ZNSaIN6dealii11Polynomials10PolynomialIdEEED2Ev(%"class.std::allocator"* %ref.tmp2) #3, !dbg !8069
  %n_pols = getelementptr inbounds %"class.dealii::PolynomialsBDM", %"class.dealii::PolynomialsBDM"* %this1, i32 0, i32 2, !dbg !8070
  %1 = load i32, i32* %k.addr, align 4, !dbg !8071
  %call = invoke i32 @_ZN6dealii14PolynomialsBDMILi1EE14compute_n_polsEj(i32 %1)
          to label %invoke.cont6 unwind label %lpad5, !dbg !8072

invoke.cont6:                                     ; preds = %invoke.cont4
  store i32 %call, i32* %n_pols, align 8, !dbg !8070
  %p_values = getelementptr inbounds %"class.dealii::PolynomialsBDM", %"class.dealii::PolynomialsBDM"* %this1, i32 0, i32 3, !dbg !8073
  %polynomial_space7 = getelementptr inbounds %"class.dealii::PolynomialsBDM", %"class.dealii::PolynomialsBDM"* %this1, i32 0, i32 0, !dbg !8074
  %call9 = invoke i32 @_ZNK6dealii15PolynomialSpaceILi1EE1nEv(%"class.dealii::PolynomialSpace"* %polynomial_space7)
          to label %invoke.cont8 unwind label %lpad5, !dbg !8075

invoke.cont8:                                     ; preds = %invoke.cont6
  %conv = zext i32 %call9 to i64, !dbg !8074
  call void @_ZNSaIdEC2Ev(%"class.std::allocator.5"* %ref.tmp10) #3, !dbg !8073
  invoke void @_ZNSt6vectorIdSaIdEEC2EmRKS0_(%"class.std::vector.3"* %p_values, i64 %conv, %"class.std::allocator.5"* dereferenceable(1) %ref.tmp10)
          to label %invoke.cont12 unwind label %lpad11, !dbg !8073

invoke.cont12:                                    ; preds = %invoke.cont8
  call void @_ZNSaIdED2Ev(%"class.std::allocator.5"* %ref.tmp10) #3, !dbg !8073
  %p_grads = getelementptr inbounds %"class.dealii::PolynomialsBDM", %"class.dealii::PolynomialsBDM"* %this1, i32 0, i32 4, !dbg !8076
  %polynomial_space13 = getelementptr inbounds %"class.dealii::PolynomialsBDM", %"class.dealii::PolynomialsBDM"* %this1, i32 0, i32 0, !dbg !8077
  %call16 = invoke i32 @_ZNK6dealii15PolynomialSpaceILi1EE1nEv(%"class.dealii::PolynomialSpace"* %polynomial_space13)
          to label %invoke.cont15 unwind label %lpad14, !dbg !8078

invoke.cont15:                                    ; preds = %invoke.cont12
  %conv17 = zext i32 %call16 to i64, !dbg !8077
  call void @_ZNSaIN6dealii6TensorILi1ELi1EEEEC2Ev(%"class.std::allocator.15"* %ref.tmp18) #3, !dbg !8076
  invoke void @_ZNSt6vectorIN6dealii6TensorILi1ELi1EEESaIS2_EEC2EmRKS3_(%"class.std::vector.13"* %p_grads, i64 %conv17, %"class.std::allocator.15"* dereferenceable(1) %ref.tmp18)
          to label %invoke.cont20 unwind label %lpad19, !dbg !8076

invoke.cont20:                                    ; preds = %invoke.cont15
  call void @_ZNSaIN6dealii6TensorILi1ELi1EEEED2Ev(%"class.std::allocator.15"* %ref.tmp18) #3, !dbg !8076
  %p_grad_grads = getelementptr inbounds %"class.dealii::PolynomialsBDM", %"class.dealii::PolynomialsBDM"* %this1, i32 0, i32 5, !dbg !8079
  %polynomial_space21 = getelementptr inbounds %"class.dealii::PolynomialsBDM", %"class.dealii::PolynomialsBDM"* %this1, i32 0, i32 0, !dbg !8080
  %call24 = invoke i32 @_ZNK6dealii15PolynomialSpaceILi1EE1nEv(%"class.dealii::PolynomialSpace"* %polynomial_space21)
          to label %invoke.cont23 unwind label %lpad22, !dbg !8081

invoke.cont23:                                    ; preds = %invoke.cont20
  %conv25 = zext i32 %call24 to i64, !dbg !8080
  call void @_ZNSaIN6dealii6TensorILi2ELi1EEEEC2Ev(%"class.std::allocator.20"* %ref.tmp26) #3, !dbg !8079
  invoke void @_ZNSt6vectorIN6dealii6TensorILi2ELi1EEESaIS2_EEC2EmRKS3_(%"class.std::vector.18"* %p_grad_grads, i64 %conv25, %"class.std::allocator.20"* dereferenceable(1) %ref.tmp26)
          to label %invoke.cont28 unwind label %lpad27, !dbg !8079

invoke.cont28:                                    ; preds = %invoke.cont23
  call void @_ZNSaIN6dealii6TensorILi2ELi1EEEED2Ev(%"class.std::allocator.20"* %ref.tmp26) #3, !dbg !8079
  %2 = load i32, i32* %k.addr, align 4, !dbg !8082
  %add = add i32 %2, 1, !dbg !8084
  invoke void @_ZN6dealii11Polynomials8MonomialIdEC1Ejd(%"class.dealii::Polynomials::Monomial"* %ref.tmp29, i32 %add, double 1.000000e+00)
          to label %invoke.cont31 unwind label %lpad30, !dbg !8085

invoke.cont31:                                    ; preds = %invoke.cont28
  %3 = bitcast %"class.dealii::Polynomials::Monomial"* %ref.tmp29 to %"class.dealii::Polynomials::Polynomial"*, !dbg !8085
  %monomials32 = getelementptr inbounds %"class.dealii::PolynomialsBDM", %"class.dealii::PolynomialsBDM"* %this1, i32 0, i32 1, !dbg !8086
  %call33 = call dereferenceable(96) %"class.dealii::Polynomials::Polynomial"* @_ZNSt6vectorIN6dealii11Polynomials10PolynomialIdEESaIS3_EEixEm(%"class.std::vector"* %monomials32, i64 0) #3, !dbg !8086
  %call36 = invoke dereferenceable(96) %"class.dealii::Polynomials::Polynomial"* @_ZN6dealii11Polynomials10PolynomialIdEaSEOS2_(%"class.dealii::Polynomials::Polynomial"* %call33, %"class.dealii::Polynomials::Polynomial"* dereferenceable(96) %3)
          to label %invoke.cont35 unwind label %lpad34, !dbg !8087

invoke.cont35:                                    ; preds = %invoke.cont31
  call void @_ZN6dealii11Polynomials8MonomialIdED2Ev(%"class.dealii::Polynomials::Monomial"* %ref.tmp29) #3, !dbg !8086
  ret void, !dbg !8088

lpad:                                             ; preds = %entry
  %4 = landingpad { i8*, i32 }
          cleanup, !dbg !8088
  %5 = extractvalue { i8*, i32 } %4, 0, !dbg !8088
  store i8* %5, i8** %exn.slot, align 8, !dbg !8088
  %6 = extractvalue { i8*, i32 } %4, 1, !dbg !8088
  store i32 %6, i32* %ehselector.slot, align 4, !dbg !8088
  call void @_ZNSt6vectorIN6dealii11Polynomials10PolynomialIdEESaIS3_EED2Ev(%"class.std::vector"* %ref.tmp) #3, !dbg !8066
  br label %eh.resume, !dbg !8066

lpad3:                                            ; preds = %invoke.cont
  %7 = landingpad { i8*, i32 }
          cleanup, !dbg !8088
  %8 = extractvalue { i8*, i32 } %7, 0, !dbg !8088
  store i8* %8, i8** %exn.slot, align 8, !dbg !8088
  %9 = extractvalue { i8*, i32 } %7, 1, !dbg !8088
  store i32 %9, i32* %ehselector.slot, align 4, !dbg !8088
  call void @_ZNSaIN6dealii11Polynomials10PolynomialIdEEED2Ev(%"class.std::allocator"* %ref.tmp2) #3, !dbg !8069
  br label %ehcleanup40, !dbg !8069

lpad5:                                            ; preds = %invoke.cont6, %invoke.cont4
  %10 = landingpad { i8*, i32 }
          cleanup, !dbg !8088
  %11 = extractvalue { i8*, i32 } %10, 0, !dbg !8088
  store i8* %11, i8** %exn.slot, align 8, !dbg !8088
  %12 = extractvalue { i8*, i32 } %10, 1, !dbg !8088
  store i32 %12, i32* %ehselector.slot, align 4, !dbg !8088
  br label %ehcleanup39, !dbg !8088

lpad11:                                           ; preds = %invoke.cont8
  %13 = landingpad { i8*, i32 }
          cleanup, !dbg !8088
  %14 = extractvalue { i8*, i32 } %13, 0, !dbg !8088
  store i8* %14, i8** %exn.slot, align 8, !dbg !8088
  %15 = extractvalue { i8*, i32 } %13, 1, !dbg !8088
  store i32 %15, i32* %ehselector.slot, align 4, !dbg !8088
  call void @_ZNSaIdED2Ev(%"class.std::allocator.5"* %ref.tmp10) #3, !dbg !8073
  br label %ehcleanup39, !dbg !8073

lpad14:                                           ; preds = %invoke.cont12
  %16 = landingpad { i8*, i32 }
          cleanup, !dbg !8088
  %17 = extractvalue { i8*, i32 } %16, 0, !dbg !8088
  store i8* %17, i8** %exn.slot, align 8, !dbg !8088
  %18 = extractvalue { i8*, i32 } %16, 1, !dbg !8088
  store i32 %18, i32* %ehselector.slot, align 4, !dbg !8088
  br label %ehcleanup38, !dbg !8088

lpad19:                                           ; preds = %invoke.cont15
  %19 = landingpad { i8*, i32 }
          cleanup, !dbg !8088
  %20 = extractvalue { i8*, i32 } %19, 0, !dbg !8088
  store i8* %20, i8** %exn.slot, align 8, !dbg !8088
  %21 = extractvalue { i8*, i32 } %19, 1, !dbg !8088
  store i32 %21, i32* %ehselector.slot, align 4, !dbg !8088
  call void @_ZNSaIN6dealii6TensorILi1ELi1EEEED2Ev(%"class.std::allocator.15"* %ref.tmp18) #3, !dbg !8076
  br label %ehcleanup38, !dbg !8076

lpad22:                                           ; preds = %invoke.cont20
  %22 = landingpad { i8*, i32 }
          cleanup, !dbg !8088
  %23 = extractvalue { i8*, i32 } %22, 0, !dbg !8088
  store i8* %23, i8** %exn.slot, align 8, !dbg !8088
  %24 = extractvalue { i8*, i32 } %22, 1, !dbg !8088
  store i32 %24, i32* %ehselector.slot, align 4, !dbg !8088
  br label %ehcleanup37, !dbg !8088

lpad27:                                           ; preds = %invoke.cont23
  %25 = landingpad { i8*, i32 }
          cleanup, !dbg !8088
  %26 = extractvalue { i8*, i32 } %25, 0, !dbg !8088
  store i8* %26, i8** %exn.slot, align 8, !dbg !8088
  %27 = extractvalue { i8*, i32 } %25, 1, !dbg !8088
  store i32 %27, i32* %ehselector.slot, align 4, !dbg !8088
  call void @_ZNSaIN6dealii6TensorILi2ELi1EEEED2Ev(%"class.std::allocator.20"* %ref.tmp26) #3, !dbg !8079
  br label %ehcleanup37, !dbg !8079

lpad30:                                           ; preds = %invoke.cont28
  %28 = landingpad { i8*, i32 }
          cleanup, !dbg !8089
  %29 = extractvalue { i8*, i32 } %28, 0, !dbg !8089
  store i8* %29, i8** %exn.slot, align 8, !dbg !8089
  %30 = extractvalue { i8*, i32 } %28, 1, !dbg !8089
  store i32 %30, i32* %ehselector.slot, align 4, !dbg !8089
  br label %ehcleanup, !dbg !8089

lpad34:                                           ; preds = %invoke.cont31
  %31 = landingpad { i8*, i32 }
          cleanup, !dbg !8089
  %32 = extractvalue { i8*, i32 } %31, 0, !dbg !8089
  store i8* %32, i8** %exn.slot, align 8, !dbg !8089
  %33 = extractvalue { i8*, i32 } %31, 1, !dbg !8089
  store i32 %33, i32* %ehselector.slot, align 4, !dbg !8089
  call void @_ZN6dealii11Polynomials8MonomialIdED2Ev(%"class.dealii::Polynomials::Monomial"* %ref.tmp29) #3, !dbg !8086
  br label %ehcleanup, !dbg !8086

ehcleanup:                                        ; preds = %lpad34, %lpad30
  call void @_ZNSt6vectorIN6dealii6TensorILi2ELi1EEESaIS2_EED2Ev(%"class.std::vector.18"* %p_grad_grads) #3, !dbg !8089
  br label %ehcleanup37, !dbg !8089

ehcleanup37:                                      ; preds = %ehcleanup, %lpad27, %lpad22
  call void @_ZNSt6vectorIN6dealii6TensorILi1ELi1EEESaIS2_EED2Ev(%"class.std::vector.13"* %p_grads) #3, !dbg !8089
  br label %ehcleanup38, !dbg !8089

ehcleanup38:                                      ; preds = %ehcleanup37, %lpad19, %lpad14
  call void @_ZNSt6vectorIdSaIdEED2Ev(%"class.std::vector.3"* %p_values) #3, !dbg !8089
  br label %ehcleanup39, !dbg !8089

ehcleanup39:                                      ; preds = %ehcleanup38, %lpad11, %lpad5
  call void @_ZNSt6vectorIN6dealii11Polynomials10PolynomialIdEESaIS3_EED2Ev(%"class.std::vector"* %monomials) #3, !dbg !8089
  br label %ehcleanup40, !dbg !8089

ehcleanup40:                                      ; preds = %ehcleanup39, %lpad3
  call void @_ZN6dealii15PolynomialSpaceILi1EED2Ev(%"class.dealii::PolynomialSpace"* %polynomial_space) #3, !dbg !8089
  br label %eh.resume, !dbg !8089

eh.resume:                                        ; preds = %ehcleanup40, %lpad
  %exn = load i8*, i8** %exn.slot, align 8, !dbg !8066
  %sel = load i32, i32* %ehselector.slot, align 4, !dbg !8066
  %lpad.val = insertvalue { i8*, i32 } undef, i8* %exn, 0, !dbg !8066
  %lpad.val41 = insertvalue { i8*, i32 } %lpad.val, i32 %sel, 1, !dbg !8066
  resume { i8*, i32 } %lpad.val41, !dbg !8066
}

; Function Attrs: nounwind readnone speculatable willreturn
declare void @llvm.dbg.declare(metadata, metadata, metadata) #4

declare dso_local void @_ZN6dealii11Polynomials8Legendre23generate_complete_basisEj(%"class.std::vector"* sret, i32) #1

; Function Attrs: noinline uwtable
define linkonce_odr dso_local void @_ZN6dealii15PolynomialSpaceILi1EEC2INS_11Polynomials10PolynomialIdEEEERKSt6vectorIT_SaIS7_EE(%"class.dealii::PolynomialSpace"* %this, %"class.std::vector"* dereferenceable(24) %pols) unnamed_addr #0 comdat align 2 personality i8* bitcast (i32 (...)* @__gxx_personality_v0 to i8*) !dbg !8090 {
entry:
  %this.addr = alloca %"class.dealii::PolynomialSpace"*, align 8
  %pols.addr = alloca %"class.std::vector"*, align 8
  %agg.tmp = alloca %"class.__gnu_cxx::__normal_iterator.80", align 8
  %agg.tmp2 = alloca %"class.__gnu_cxx::__normal_iterator.80", align 8
  %ref.tmp = alloca %"class.std::allocator", align 1
  %exn.slot = alloca i8*
  %ehselector.slot = alloca i32
  %ref.tmp14 = alloca %"class.std::allocator.10", align 1
  %ref.tmp19 = alloca %"class.std::allocator.10", align 1
  %i = alloca i32, align 4
  store %"class.dealii::PolynomialSpace"* %this, %"class.dealii::PolynomialSpace"** %this.addr, align 8
  call void @llvm.dbg.declare(metadata %"class.dealii::PolynomialSpace"** %this.addr, metadata !8096, metadata !DIExpression()), !dbg !8098
  store %"class.std::vector"* %pols, %"class.std::vector"** %pols.addr, align 8
  call void @llvm.dbg.declare(metadata %"class.std::vector"** %pols.addr, metadata !8099, metadata !DIExpression()), !dbg !8100
  %this1 = load %"class.dealii::PolynomialSpace"*, %"class.dealii::PolynomialSpace"** %this.addr, align 8
  %polynomials = getelementptr inbounds %"class.dealii::PolynomialSpace", %"class.dealii::PolynomialSpace"* %this1, i32 0, i32 0, !dbg !8101
  %0 = load %"class.std::vector"*, %"class.std::vector"** %pols.addr, align 8, !dbg !8102
  %call = call %"class.dealii::Polynomials::Polynomial"* @_ZNKSt6vectorIN6dealii11Polynomials10PolynomialIdEESaIS3_EE5beginEv(%"class.std::vector"* %0) #3, !dbg !8103
  %coerce.dive = getelementptr inbounds %"class.__gnu_cxx::__normal_iterator.80", %"class.__gnu_cxx::__normal_iterator.80"* %agg.tmp, i32 0, i32 0, !dbg !8103
  store %"class.dealii::Polynomials::Polynomial"* %call, %"class.dealii::Polynomials::Polynomial"** %coerce.dive, align 8, !dbg !8103
  %1 = load %"class.std::vector"*, %"class.std::vector"** %pols.addr, align 8, !dbg !8104
  %call3 = call %"class.dealii::Polynomials::Polynomial"* @_ZNKSt6vectorIN6dealii11Polynomials10PolynomialIdEESaIS3_EE3endEv(%"class.std::vector"* %1) #3, !dbg !8105
  %coerce.dive4 = getelementptr inbounds %"class.__gnu_cxx::__normal_iterator.80", %"class.__gnu_cxx::__normal_iterator.80"* %agg.tmp2, i32 0, i32 0, !dbg !8105
  store %"class.dealii::Polynomials::Polynomial"* %call3, %"class.dealii::Polynomials::Polynomial"** %coerce.dive4, align 8, !dbg !8105
  call void @_ZNSaIN6dealii11Polynomials10PolynomialIdEEEC2Ev(%"class.std::allocator"* %ref.tmp) #3, !dbg !8101
  %coerce.dive5 = getelementptr inbounds %"class.__gnu_cxx::__normal_iterator.80", %"class.__gnu_cxx::__normal_iterator.80"* %agg.tmp, i32 0, i32 0, !dbg !8101
  %2 = load %"class.dealii::Polynomials::Polynomial"*, %"class.dealii::Polynomials::Polynomial"** %coerce.dive5, align 8, !dbg !8101
  %coerce.dive6 = getelementptr inbounds %"class.__gnu_cxx::__normal_iterator.80", %"class.__gnu_cxx::__normal_iterator.80"* %agg.tmp2, i32 0, i32 0, !dbg !8101
  %3 = load %"class.dealii::Polynomials::Polynomial"*, %"class.dealii::Polynomials::Polynomial"** %coerce.dive6, align 8, !dbg !8101
  invoke void @_ZNSt6vectorIN6dealii11Polynomials10PolynomialIdEESaIS3_EEC2IN9__gnu_cxx17__normal_iteratorIPKS3_S5_EEvEET_SC_RKS4_(%"class.std::vector"* %polynomials, %"class.dealii::Polynomials::Polynomial"* %2, %"class.dealii::Polynomials::Polynomial"* %3, %"class.std::allocator"* dereferenceable(1) %ref.tmp)
          to label %invoke.cont unwind label %lpad, !dbg !8101

invoke.cont:                                      ; preds = %entry
  call void @_ZNSaIN6dealii11Polynomials10PolynomialIdEEED2Ev(%"class.std::allocator"* %ref.tmp) #3, !dbg !8101
  %n_pols = getelementptr inbounds %"class.dealii::PolynomialSpace", %"class.dealii::PolynomialSpace"* %this1, i32 0, i32 1, !dbg !8106
  %polynomials7 = getelementptr inbounds %"class.dealii::PolynomialSpace", %"class.dealii::PolynomialSpace"* %this1, i32 0, i32 0, !dbg !8107
  %call8 = call i64 @_ZNKSt6vectorIN6dealii11Polynomials10PolynomialIdEESaIS3_EE4sizeEv(%"class.std::vector"* %polynomials7) #3, !dbg !8108
  %conv = trunc i64 %call8 to i32, !dbg !8107
  %call11 = invoke i32 @_ZN6dealii15PolynomialSpaceILi1EE14compute_n_polsEj(i32 %conv)
          to label %invoke.cont10 unwind label %lpad9, !dbg !8109

invoke.cont10:                                    ; preds = %invoke.cont
  store i32 %call11, i32* %n_pols, align 8, !dbg !8106
  %index_map = getelementptr inbounds %"class.dealii::PolynomialSpace", %"class.dealii::PolynomialSpace"* %this1, i32 0, i32 2, !dbg !8110
  %n_pols12 = getelementptr inbounds %"class.dealii::PolynomialSpace", %"class.dealii::PolynomialSpace"* %this1, i32 0, i32 1, !dbg !8111
  %4 = load i32, i32* %n_pols12, align 8, !dbg !8111
  %conv13 = zext i32 %4 to i64, !dbg !8111
  call void @_ZNSaIjEC2Ev(%"class.std::allocator.10"* %ref.tmp14) #3, !dbg !8110
  invoke void @_ZNSt6vectorIjSaIjEEC2EmRKS0_(%"class.std::vector.8"* %index_map, i64 %conv13, %"class.std::allocator.10"* dereferenceable(1) %ref.tmp14)
          to label %invoke.cont16 unwind label %lpad15, !dbg !8110

invoke.cont16:                                    ; preds = %invoke.cont10
  call void @_ZNSaIjED2Ev(%"class.std::allocator.10"* %ref.tmp14) #3, !dbg !8110
  %index_map_inverse = getelementptr inbounds %"class.dealii::PolynomialSpace", %"class.dealii::PolynomialSpace"* %this1, i32 0, i32 3, !dbg !8112
  %n_pols17 = getelementptr inbounds %"class.dealii::PolynomialSpace", %"class.dealii::PolynomialSpace"* %this1, i32 0, i32 1, !dbg !8113
  %5 = load i32, i32* %n_pols17, align 8, !dbg !8113
  %conv18 = zext i32 %5 to i64, !dbg !8113
  call void @_ZNSaIjEC2Ev(%"class.std::allocator.10"* %ref.tmp19) #3, !dbg !8112
  invoke void @_ZNSt6vectorIjSaIjEEC2EmRKS0_(%"class.std::vector.8"* %index_map_inverse, i64 %conv18, %"class.std::allocator.10"* dereferenceable(1) %ref.tmp19)
          to label %invoke.cont21 unwind label %lpad20, !dbg !8112

invoke.cont21:                                    ; preds = %invoke.cont16
  call void @_ZNSaIjED2Ev(%"class.std::allocator.10"* %ref.tmp19) #3, !dbg !8112
  call void @llvm.dbg.declare(metadata i32* %i, metadata !8114, metadata !DIExpression()), !dbg !8117
  store i32 0, i32* %i, align 4, !dbg !8117
  br label %for.cond, !dbg !8118

for.cond:                                         ; preds = %for.inc, %invoke.cont21
  %6 = load i32, i32* %i, align 4, !dbg !8119
  %n_pols22 = getelementptr inbounds %"class.dealii::PolynomialSpace", %"class.dealii::PolynomialSpace"* %this1, i32 0, i32 1, !dbg !8121
  %7 = load i32, i32* %n_pols22, align 8, !dbg !8121
  %cmp = icmp ult i32 %6, %7, !dbg !8122
  br i1 %cmp, label %for.body, label %for.end, !dbg !8123

for.body:                                         ; preds = %for.cond
  %8 = load i32, i32* %i, align 4, !dbg !8124
  %index_map23 = getelementptr inbounds %"class.dealii::PolynomialSpace", %"class.dealii::PolynomialSpace"* %this1, i32 0, i32 2, !dbg !8126
  %9 = load i32, i32* %i, align 4, !dbg !8127
  %conv24 = zext i32 %9 to i64, !dbg !8127
  %call25 = call dereferenceable(4) i32* @_ZNSt6vectorIjSaIjEEixEm(%"class.std::vector.8"* %index_map23, i64 %conv24) #3, !dbg !8126
  store i32 %8, i32* %call25, align 4, !dbg !8128
  %10 = load i32, i32* %i, align 4, !dbg !8129
  %index_map_inverse26 = getelementptr inbounds %"class.dealii::PolynomialSpace", %"class.dealii::PolynomialSpace"* %this1, i32 0, i32 3, !dbg !8130
  %11 = load i32, i32* %i, align 4, !dbg !8131
  %conv27 = zext i32 %11 to i64, !dbg !8131
  %call28 = call dereferenceable(4) i32* @_ZNSt6vectorIjSaIjEEixEm(%"class.std::vector.8"* %index_map_inverse26, i64 %conv27) #3, !dbg !8130
  store i32 %10, i32* %call28, align 4, !dbg !8132
  br label %for.inc, !dbg !8133

for.inc:                                          ; preds = %for.body
  %12 = load i32, i32* %i, align 4, !dbg !8134
  %inc = add i32 %12, 1, !dbg !8134
  store i32 %inc, i32* %i, align 4, !dbg !8134
  br label %for.cond, !dbg !8135, !llvm.loop !8136

lpad:                                             ; preds = %entry
  %13 = landingpad { i8*, i32 }
          cleanup, !dbg !8138
  %14 = extractvalue { i8*, i32 } %13, 0, !dbg !8138
  store i8* %14, i8** %exn.slot, align 8, !dbg !8138
  %15 = extractvalue { i8*, i32 } %13, 1, !dbg !8138
  store i32 %15, i32* %ehselector.slot, align 4, !dbg !8138
  call void @_ZNSaIN6dealii11Polynomials10PolynomialIdEEED2Ev(%"class.std::allocator"* %ref.tmp) #3, !dbg !8101
  br label %eh.resume, !dbg !8101

lpad9:                                            ; preds = %invoke.cont
  %16 = landingpad { i8*, i32 }
          cleanup, !dbg !8138
  %17 = extractvalue { i8*, i32 } %16, 0, !dbg !8138
  store i8* %17, i8** %exn.slot, align 8, !dbg !8138
  %18 = extractvalue { i8*, i32 } %16, 1, !dbg !8138
  store i32 %18, i32* %ehselector.slot, align 4, !dbg !8138
  br label %ehcleanup, !dbg !8138

lpad15:                                           ; preds = %invoke.cont10
  %19 = landingpad { i8*, i32 }
          cleanup, !dbg !8138
  %20 = extractvalue { i8*, i32 } %19, 0, !dbg !8138
  store i8* %20, i8** %exn.slot, align 8, !dbg !8138
  %21 = extractvalue { i8*, i32 } %19, 1, !dbg !8138
  store i32 %21, i32* %ehselector.slot, align 4, !dbg !8138
  call void @_ZNSaIjED2Ev(%"class.std::allocator.10"* %ref.tmp14) #3, !dbg !8110
  br label %ehcleanup, !dbg !8110

lpad20:                                           ; preds = %invoke.cont16
  %22 = landingpad { i8*, i32 }
          cleanup, !dbg !8138
  %23 = extractvalue { i8*, i32 } %22, 0, !dbg !8138
  store i8* %23, i8** %exn.slot, align 8, !dbg !8138
  %24 = extractvalue { i8*, i32 } %22, 1, !dbg !8138
  store i32 %24, i32* %ehselector.slot, align 4, !dbg !8138
  call void @_ZNSaIjED2Ev(%"class.std::allocator.10"* %ref.tmp19) #3, !dbg !8112
  call void @_ZNSt6vectorIjSaIjEED2Ev(%"class.std::vector.8"* %index_map) #3, !dbg !8139
  br label %ehcleanup, !dbg !8139

for.end:                                          ; preds = %for.cond
  ret void, !dbg !8138

ehcleanup:                                        ; preds = %lpad20, %lpad15, %lpad9
  call void @_ZNSt6vectorIN6dealii11Polynomials10PolynomialIdEESaIS3_EED2Ev(%"class.std::vector"* %polynomials) #3, !dbg !8139
  br label %eh.resume, !dbg !8139

eh.resume:                                        ; preds = %ehcleanup, %lpad
  %exn = load i8*, i8** %exn.slot, align 8, !dbg !8101
  %sel = load i32, i32* %ehselector.slot, align 4, !dbg !8101
  %lpad.val = insertvalue { i8*, i32 } undef, i8* %exn, 0, !dbg !8101
  %lpad.val29 = insertvalue { i8*, i32 } %lpad.val, i32 %sel, 1, !dbg !8101
  resume { i8*, i32 } %lpad.val29, !dbg !8101
}

declare dso_local i32 @__gxx_personality_v0(...)

; Function Attrs: noinline nounwind uwtable
define linkonce_odr dso_local void @_ZNSt6vectorIN6dealii11Polynomials10PolynomialIdEESaIS3_EED2Ev(%"class.std::vector"* %this) unnamed_addr #5 comdat align 2 personality i8* bitcast (i32 (...)* @__gxx_personality_v0 to i8*) !dbg !8140 {
entry:
  %this.addr = alloca %"class.std::vector"*, align 8
  %exn.slot = alloca i8*
  %ehselector.slot = alloca i32
  store %"class.std::vector"* %this, %"class.std::vector"** %this.addr, align 8
  call void @llvm.dbg.declare(metadata %"class.std::vector"** %this.addr, metadata !8141, metadata !DIExpression()), !dbg !8143
  %this1 = load %"class.std::vector"*, %"class.std::vector"** %this.addr, align 8
  %0 = bitcast %"class.std::vector"* %this1 to %"struct.std::_Vector_base"*, !dbg !8144
  %_M_impl = getelementptr inbounds %"struct.std::_Vector_base", %"struct.std::_Vector_base"* %0, i32 0, i32 0, !dbg !8144
  %1 = bitcast %"struct.std::_Vector_base<dealii::Polynomials::Polynomial<double>, std::allocator<dealii::Polynomials::Polynomial<double> > >::_Vector_impl"* %_M_impl to %"struct.std::_Vector_base<dealii::Polynomials::Polynomial<double>, std::allocator<dealii::Polynomials::Polynomial<double> > >::_Vector_impl_data"*, !dbg !8146
  %_M_start = getelementptr inbounds %"struct.std::_Vector_base<dealii::Polynomials::Polynomial<double>, std::allocator<dealii::Polynomials::Polynomial<double> > >::_Vector_impl_data", %"struct.std::_Vector_base<dealii::Polynomials::Polynomial<double>, std::allocator<dealii::Polynomials::Polynomial<double> > >::_Vector_impl_data"* %1, i32 0, i32 0, !dbg !8147
  %2 = load %"class.dealii::Polynomials::Polynomial"*, %"class.dealii::Polynomials::Polynomial"** %_M_start, align 8, !dbg !8147
  %3 = bitcast %"class.std::vector"* %this1 to %"struct.std::_Vector_base"*, !dbg !8148
  %_M_impl2 = getelementptr inbounds %"struct.std::_Vector_base", %"struct.std::_Vector_base"* %3, i32 0, i32 0, !dbg !8148
  %4 = bitcast %"struct.std::_Vector_base<dealii::Polynomials::Polynomial<double>, std::allocator<dealii::Polynomials::Polynomial<double> > >::_Vector_impl"* %_M_impl2 to %"struct.std::_Vector_base<dealii::Polynomials::Polynomial<double>, std::allocator<dealii::Polynomials::Polynomial<double> > >::_Vector_impl_data"*, !dbg !8149
  %_M_finish = getelementptr inbounds %"struct.std::_Vector_base<dealii::Polynomials::Polynomial<double>, std::allocator<dealii::Polynomials::Polynomial<double> > >::_Vector_impl_data", %"struct.std::_Vector_base<dealii::Polynomials::Polynomial<double>, std::allocator<dealii::Polynomials::Polynomial<double> > >::_Vector_impl_data"* %4, i32 0, i32 1, !dbg !8150
  %5 = load %"class.dealii::Polynomials::Polynomial"*, %"class.dealii::Polynomials::Polynomial"** %_M_finish, align 8, !dbg !8150
  %6 = bitcast %"class.std::vector"* %this1 to %"struct.std::_Vector_base"*, !dbg !8151
  %call = call dereferenceable(1) %"class.std::allocator"* @_ZNSt12_Vector_baseIN6dealii11Polynomials10PolynomialIdEESaIS3_EE19_M_get_Tp_allocatorEv(%"struct.std::_Vector_base"* %6) #3, !dbg !8151
  invoke void @_ZSt8_DestroyIPN6dealii11Polynomials10PolynomialIdEES3_EvT_S5_RSaIT0_E(%"class.dealii::Polynomials::Polynomial"* %2, %"class.dealii::Polynomials::Polynomial"* %5, %"class.std::allocator"* dereferenceable(1) %call)
          to label %invoke.cont unwind label %lpad, !dbg !8152

invoke.cont:                                      ; preds = %entry
  %7 = bitcast %"class.std::vector"* %this1 to %"struct.std::_Vector_base"*, !dbg !8153
  call void @_ZNSt12_Vector_baseIN6dealii11Polynomials10PolynomialIdEESaIS3_EED2Ev(%"struct.std::_Vector_base"* %7) #3, !dbg !8153
  ret void, !dbg !8154

lpad:                                             ; preds = %entry
  %8 = landingpad { i8*, i32 }
          catch i8* null, !dbg !8153
  %9 = extractvalue { i8*, i32 } %8, 0, !dbg !8153
  store i8* %9, i8** %exn.slot, align 8, !dbg !8153
  %10 = extractvalue { i8*, i32 } %8, 1, !dbg !8153
  store i32 %10, i32* %ehselector.slot, align 4, !dbg !8153
  %11 = bitcast %"class.std::vector"* %this1 to %"struct.std::_Vector_base"*, !dbg !8153
  call void @_ZNSt12_Vector_baseIN6dealii11Polynomials10PolynomialIdEESaIS3_EED2Ev(%"struct.std::_Vector_base"* %11) #3, !dbg !8153
  br label %terminate.handler, !dbg !8153

terminate.handler:                                ; preds = %lpad
  %exn = load i8*, i8** %exn.slot, align 8, !dbg !8153
  call void @__clang_call_terminate(i8* %exn) #12, !dbg !8153
  unreachable, !dbg !8153
}

; Function Attrs: noinline nounwind uwtable
define linkonce_odr dso_local void @_ZNSaIN6dealii11Polynomials10PolynomialIdEEEC2Ev(%"class.std::allocator"* %this) unnamed_addr #5 comdat align 2 !dbg !8155 {
entry:
  %this.addr = alloca %"class.std::allocator"*, align 8
  store %"class.std::allocator"* %this, %"class.std::allocator"** %this.addr, align 8
  call void @llvm.dbg.declare(metadata %"class.std::allocator"** %this.addr, metadata !8156, metadata !DIExpression()), !dbg !8158
  %this1 = load %"class.std::allocator"*, %"class.std::allocator"** %this.addr, align 8
  %0 = bitcast %"class.std::allocator"* %this1 to %"class.__gnu_cxx::new_allocator"*, !dbg !8159
  call void @_ZN9__gnu_cxx13new_allocatorIN6dealii11Polynomials10PolynomialIdEEEC2Ev(%"class.__gnu_cxx::new_allocator"* %0) #3, !dbg !8160
  ret void, !dbg !8161
}

; Function Attrs: noinline uwtable
define linkonce_odr dso_local void @_ZNSt6vectorIN6dealii11Polynomials10PolynomialIdEESaIS3_EEC2EmRKS4_(%"class.std::vector"* %this, i64 %__n, %"class.std::allocator"* dereferenceable(1) %__a) unnamed_addr #0 comdat align 2 personality i8* bitcast (i32 (...)* @__gxx_personality_v0 to i8*) !dbg !8162 {
entry:
  %this.addr = alloca %"class.std::vector"*, align 8
  %__n.addr = alloca i64, align 8
  %__a.addr = alloca %"class.std::allocator"*, align 8
  %exn.slot = alloca i8*
  %ehselector.slot = alloca i32
  store %"class.std::vector"* %this, %"class.std::vector"** %this.addr, align 8
  call void @llvm.dbg.declare(metadata %"class.std::vector"** %this.addr, metadata !8163, metadata !DIExpression()), !dbg !8164
  store i64 %__n, i64* %__n.addr, align 8
  call void @llvm.dbg.declare(metadata i64* %__n.addr, metadata !8165, metadata !DIExpression()), !dbg !8166
  store %"class.std::allocator"* %__a, %"class.std::allocator"** %__a.addr, align 8
  call void @llvm.dbg.declare(metadata %"class.std::allocator"** %__a.addr, metadata !8167, metadata !DIExpression()), !dbg !8168
  %this1 = load %"class.std::vector"*, %"class.std::vector"** %this.addr, align 8
  %0 = bitcast %"class.std::vector"* %this1 to %"struct.std::_Vector_base"*, !dbg !8169
  %1 = load i64, i64* %__n.addr, align 8, !dbg !8170
  %2 = load %"class.std::allocator"*, %"class.std::allocator"** %__a.addr, align 8, !dbg !8171
  %call = call i64 @_ZNSt6vectorIN6dealii11Polynomials10PolynomialIdEESaIS3_EE17_S_check_init_lenEmRKS4_(i64 %1, %"class.std::allocator"* dereferenceable(1) %2), !dbg !8172
  %3 = load %"class.std::allocator"*, %"class.std::allocator"** %__a.addr, align 8, !dbg !8173
  call void @_ZNSt12_Vector_baseIN6dealii11Polynomials10PolynomialIdEESaIS3_EEC2EmRKS4_(%"struct.std::_Vector_base"* %0, i64 %call, %"class.std::allocator"* dereferenceable(1) %3), !dbg !8174
  %4 = load i64, i64* %__n.addr, align 8, !dbg !8175
  invoke void @_ZNSt6vectorIN6dealii11Polynomials10PolynomialIdEESaIS3_EE21_M_default_initializeEm(%"class.std::vector"* %this1, i64 %4)
          to label %invoke.cont unwind label %lpad, !dbg !8177

invoke.cont:                                      ; preds = %entry
  ret void, !dbg !8178

lpad:                                             ; preds = %entry
  %5 = landingpad { i8*, i32 }
          cleanup, !dbg !8179
  %6 = extractvalue { i8*, i32 } %5, 0, !dbg !8179
  store i8* %6, i8** %exn.slot, align 8, !dbg !8179
  %7 = extractvalue { i8*, i32 } %5, 1, !dbg !8179
  store i32 %7, i32* %ehselector.slot, align 4, !dbg !8179
  %8 = bitcast %"class.std::vector"* %this1 to %"struct.std::_Vector_base"*, !dbg !8179
  call void @_ZNSt12_Vector_baseIN6dealii11Polynomials10PolynomialIdEESaIS3_EED2Ev(%"struct.std::_Vector_base"* %8) #3, !dbg !8179
  br label %eh.resume, !dbg !8179

eh.resume:                                        ; preds = %lpad
  %exn = load i8*, i8** %exn.slot, align 8, !dbg !8179
  %sel = load i32, i32* %ehselector.slot, align 4, !dbg !8179
  %lpad.val = insertvalue { i8*, i32 } undef, i8* %exn, 0, !dbg !8179
  %lpad.val2 = insertvalue { i8*, i32 } %lpad.val, i32 %sel, 1, !dbg !8179
  resume { i8*, i32 } %lpad.val2, !dbg !8179
}

; Function Attrs: noinline nounwind uwtable
define linkonce_odr dso_local void @_ZNSaIN6dealii11Polynomials10PolynomialIdEEED2Ev(%"class.std::allocator"* %this) unnamed_addr #5 comdat align 2 !dbg !8180 {
entry:
  %this.addr = alloca %"class.std::allocator"*, align 8
  store %"class.std::allocator"* %this, %"class.std::allocator"** %this.addr, align 8
  call void @llvm.dbg.declare(metadata %"class.std::allocator"** %this.addr, metadata !8181, metadata !DIExpression()), !dbg !8182
  %this1 = load %"class.std::allocator"*, %"class.std::allocator"** %this.addr, align 8
  %0 = bitcast %"class.std::allocator"* %this1 to %"class.__gnu_cxx::new_allocator"*, !dbg !8183
  call void @_ZN9__gnu_cxx13new_allocatorIN6dealii11Polynomials10PolynomialIdEEED2Ev(%"class.__gnu_cxx::new_allocator"* %0) #3, !dbg !8183
  ret void, !dbg !8185
}

; Function Attrs: noinline nounwind uwtable
define weak_odr dso_local i32 @_ZN6dealii14PolynomialsBDMILi1EE14compute_n_polsEj(i32 %k) #5 comdat align 2 !dbg !8186 {
entry:
  %k.addr = alloca i32, align 4
  store i32 %k, i32* %k.addr, align 4
  call void @llvm.dbg.declare(metadata i32* %k.addr, metadata !8187, metadata !DIExpression()), !dbg !8188
  %0 = load i32, i32* %k.addr, align 4, !dbg !8189
  %add = add i32 %0, 1, !dbg !8191
  ret i32 %add, !dbg !8192
}

; Function Attrs: noinline nounwind uwtable
define linkonce_odr dso_local i32 @_ZNK6dealii15PolynomialSpaceILi1EE1nEv(%"class.dealii::PolynomialSpace"* %this) #5 comdat align 2 !dbg !8193 {
entry:
  %this.addr = alloca %"class.dealii::PolynomialSpace"*, align 8
  store %"class.dealii::PolynomialSpace"* %this, %"class.dealii::PolynomialSpace"** %this.addr, align 8
  call void @llvm.dbg.declare(metadata %"class.dealii::PolynomialSpace"** %this.addr, metadata !8194, metadata !DIExpression()), !dbg !8196
  %this1 = load %"class.dealii::PolynomialSpace"*, %"class.dealii::PolynomialSpace"** %this.addr, align 8
  %n_pols = getelementptr inbounds %"class.dealii::PolynomialSpace", %"class.dealii::PolynomialSpace"* %this1, i32 0, i32 1, !dbg !8197
  %0 = load i32, i32* %n_pols, align 8, !dbg !8197
  ret i32 %0, !dbg !8198
}

; Function Attrs: noinline nounwind uwtable
define linkonce_odr dso_local void @_ZNSaIdEC2Ev(%"class.std::allocator.5"* %this) unnamed_addr #5 comdat align 2 !dbg !8199 {
entry:
  %this.addr = alloca %"class.std::allocator.5"*, align 8
  store %"class.std::allocator.5"* %this, %"class.std::allocator.5"** %this.addr, align 8
  call void @llvm.dbg.declare(metadata %"class.std::allocator.5"** %this.addr, metadata !8200, metadata !DIExpression()), !dbg !8202
  %this1 = load %"class.std::allocator.5"*, %"class.std::allocator.5"** %this.addr, align 8
  %0 = bitcast %"class.std::allocator.5"* %this1 to %"class.__gnu_cxx::new_allocator.6"*, !dbg !8203
  call void @_ZN9__gnu_cxx13new_allocatorIdEC2Ev(%"class.__gnu_cxx::new_allocator.6"* %0) #3, !dbg !8204
  ret void, !dbg !8205
}

; Function Attrs: noinline uwtable
define linkonce_odr dso_local void @_ZNSt6vectorIdSaIdEEC2EmRKS0_(%"class.std::vector.3"* %this, i64 %__n, %"class.std::allocator.5"* dereferenceable(1) %__a) unnamed_addr #0 comdat align 2 personality i8* bitcast (i32 (...)* @__gxx_personality_v0 to i8*) !dbg !8206 {
entry:
  %this.addr = alloca %"class.std::vector.3"*, align 8
  %__n.addr = alloca i64, align 8
  %__a.addr = alloca %"class.std::allocator.5"*, align 8
  %exn.slot = alloca i8*
  %ehselector.slot = alloca i32
  store %"class.std::vector.3"* %this, %"class.std::vector.3"** %this.addr, align 8
  call void @llvm.dbg.declare(metadata %"class.std::vector.3"** %this.addr, metadata !8207, metadata !DIExpression()), !dbg !8209
  store i64 %__n, i64* %__n.addr, align 8
  call void @llvm.dbg.declare(metadata i64* %__n.addr, metadata !8210, metadata !DIExpression()), !dbg !8211
  store %"class.std::allocator.5"* %__a, %"class.std::allocator.5"** %__a.addr, align 8
  call void @llvm.dbg.declare(metadata %"class.std::allocator.5"** %__a.addr, metadata !8212, metadata !DIExpression()), !dbg !8213
  %this1 = load %"class.std::vector.3"*, %"class.std::vector.3"** %this.addr, align 8
  %0 = bitcast %"class.std::vector.3"* %this1 to %"struct.std::_Vector_base.4"*, !dbg !8214
  %1 = load i64, i64* %__n.addr, align 8, !dbg !8215
  %2 = load %"class.std::allocator.5"*, %"class.std::allocator.5"** %__a.addr, align 8, !dbg !8216
  %call = call i64 @_ZNSt6vectorIdSaIdEE17_S_check_init_lenEmRKS0_(i64 %1, %"class.std::allocator.5"* dereferenceable(1) %2), !dbg !8217
  %3 = load %"class.std::allocator.5"*, %"class.std::allocator.5"** %__a.addr, align 8, !dbg !8218
  call void @_ZNSt12_Vector_baseIdSaIdEEC2EmRKS0_(%"struct.std::_Vector_base.4"* %0, i64 %call, %"class.std::allocator.5"* dereferenceable(1) %3), !dbg !8219
  %4 = load i64, i64* %__n.addr, align 8, !dbg !8220
  invoke void @_ZNSt6vectorIdSaIdEE21_M_default_initializeEm(%"class.std::vector.3"* %this1, i64 %4)
          to label %invoke.cont unwind label %lpad, !dbg !8222

invoke.cont:                                      ; preds = %entry
  ret void, !dbg !8223

lpad:                                             ; preds = %entry
  %5 = landingpad { i8*, i32 }
          cleanup, !dbg !8224
  %6 = extractvalue { i8*, i32 } %5, 0, !dbg !8224
  store i8* %6, i8** %exn.slot, align 8, !dbg !8224
  %7 = extractvalue { i8*, i32 } %5, 1, !dbg !8224
  store i32 %7, i32* %ehselector.slot, align 4, !dbg !8224
  %8 = bitcast %"class.std::vector.3"* %this1 to %"struct.std::_Vector_base.4"*, !dbg !8224
  call void @_ZNSt12_Vector_baseIdSaIdEED2Ev(%"struct.std::_Vector_base.4"* %8) #3, !dbg !8224
  br label %eh.resume, !dbg !8224

eh.resume:                                        ; preds = %lpad
  %exn = load i8*, i8** %exn.slot, align 8, !dbg !8224
  %sel = load i32, i32* %ehselector.slot, align 4, !dbg !8224
  %lpad.val = insertvalue { i8*, i32 } undef, i8* %exn, 0, !dbg !8224
  %lpad.val2 = insertvalue { i8*, i32 } %lpad.val, i32 %sel, 1, !dbg !8224
  resume { i8*, i32 } %lpad.val2, !dbg !8224
}

; Function Attrs: noinline nounwind uwtable
define linkonce_odr dso_local void @_ZNSaIdED2Ev(%"class.std::allocator.5"* %this) unnamed_addr #5 comdat align 2 !dbg !8225 {
entry:
  %this.addr = alloca %"class.std::allocator.5"*, align 8
  store %"class.std::allocator.5"* %this, %"class.std::allocator.5"** %this.addr, align 8
  call void @llvm.dbg.declare(metadata %"class.std::allocator.5"** %this.addr, metadata !8226, metadata !DIExpression()), !dbg !8227
  %this1 = load %"class.std::allocator.5"*, %"class.std::allocator.5"** %this.addr, align 8
  %0 = bitcast %"class.std::allocator.5"* %this1 to %"class.__gnu_cxx::new_allocator.6"*, !dbg !8228
  call void @_ZN9__gnu_cxx13new_allocatorIdED2Ev(%"class.__gnu_cxx::new_allocator.6"* %0) #3, !dbg !8228
  ret void, !dbg !8230
}

; Function Attrs: noinline nounwind uwtable
define linkonce_odr dso_local void @_ZNSaIN6dealii6TensorILi1ELi1EEEEC2Ev(%"class.std::allocator.15"* %this) unnamed_addr #5 comdat align 2 !dbg !8231 {
entry:
  %this.addr = alloca %"class.std::allocator.15"*, align 8
  store %"class.std::allocator.15"* %this, %"class.std::allocator.15"** %this.addr, align 8
  call void @llvm.dbg.declare(metadata %"class.std::allocator.15"** %this.addr, metadata !8232, metadata !DIExpression()), !dbg !8234
  %this1 = load %"class.std::allocator.15"*, %"class.std::allocator.15"** %this.addr, align 8
  %0 = bitcast %"class.std::allocator.15"* %this1 to %"class.__gnu_cxx::new_allocator.16"*, !dbg !8235
  call void @_ZN9__gnu_cxx13new_allocatorIN6dealii6TensorILi1ELi1EEEEC2Ev(%"class.__gnu_cxx::new_allocator.16"* %0) #3, !dbg !8236
  ret void, !dbg !8237
}

; Function Attrs: noinline uwtable
define linkonce_odr dso_local void @_ZNSt6vectorIN6dealii6TensorILi1ELi1EEESaIS2_EEC2EmRKS3_(%"class.std::vector.13"* %this, i64 %__n, %"class.std::allocator.15"* dereferenceable(1) %__a) unnamed_addr #0 comdat align 2 personality i8* bitcast (i32 (...)* @__gxx_personality_v0 to i8*) !dbg !8238 {
entry:
  %this.addr = alloca %"class.std::vector.13"*, align 8
  %__n.addr = alloca i64, align 8
  %__a.addr = alloca %"class.std::allocator.15"*, align 8
  %exn.slot = alloca i8*
  %ehselector.slot = alloca i32
  store %"class.std::vector.13"* %this, %"class.std::vector.13"** %this.addr, align 8
  call void @llvm.dbg.declare(metadata %"class.std::vector.13"** %this.addr, metadata !8239, metadata !DIExpression()), !dbg !8241
  store i64 %__n, i64* %__n.addr, align 8
  call void @llvm.dbg.declare(metadata i64* %__n.addr, metadata !8242, metadata !DIExpression()), !dbg !8243
  store %"class.std::allocator.15"* %__a, %"class.std::allocator.15"** %__a.addr, align 8
  call void @llvm.dbg.declare(metadata %"class.std::allocator.15"** %__a.addr, metadata !8244, metadata !DIExpression()), !dbg !8245
  %this1 = load %"class.std::vector.13"*, %"class.std::vector.13"** %this.addr, align 8
  %0 = bitcast %"class.std::vector.13"* %this1 to %"struct.std::_Vector_base.14"*, !dbg !8246
  %1 = load i64, i64* %__n.addr, align 8, !dbg !8247
  %2 = load %"class.std::allocator.15"*, %"class.std::allocator.15"** %__a.addr, align 8, !dbg !8248
  %call = call i64 @_ZNSt6vectorIN6dealii6TensorILi1ELi1EEESaIS2_EE17_S_check_init_lenEmRKS3_(i64 %1, %"class.std::allocator.15"* dereferenceable(1) %2), !dbg !8249
  %3 = load %"class.std::allocator.15"*, %"class.std::allocator.15"** %__a.addr, align 8, !dbg !8250
  call void @_ZNSt12_Vector_baseIN6dealii6TensorILi1ELi1EEESaIS2_EEC2EmRKS3_(%"struct.std::_Vector_base.14"* %0, i64 %call, %"class.std::allocator.15"* dereferenceable(1) %3), !dbg !8251
  %4 = load i64, i64* %__n.addr, align 8, !dbg !8252
  invoke void @_ZNSt6vectorIN6dealii6TensorILi1ELi1EEESaIS2_EE21_M_default_initializeEm(%"class.std::vector.13"* %this1, i64 %4)
          to label %invoke.cont unwind label %lpad, !dbg !8254

invoke.cont:                                      ; preds = %entry
  ret void, !dbg !8255

lpad:                                             ; preds = %entry
  %5 = landingpad { i8*, i32 }
          cleanup, !dbg !8256
  %6 = extractvalue { i8*, i32 } %5, 0, !dbg !8256
  store i8* %6, i8** %exn.slot, align 8, !dbg !8256
  %7 = extractvalue { i8*, i32 } %5, 1, !dbg !8256
  store i32 %7, i32* %ehselector.slot, align 4, !dbg !8256
  %8 = bitcast %"class.std::vector.13"* %this1 to %"struct.std::_Vector_base.14"*, !dbg !8256
  call void @_ZNSt12_Vector_baseIN6dealii6TensorILi1ELi1EEESaIS2_EED2Ev(%"struct.std::_Vector_base.14"* %8) #3, !dbg !8256
  br label %eh.resume, !dbg !8256

eh.resume:                                        ; preds = %lpad
  %exn = load i8*, i8** %exn.slot, align 8, !dbg !8256
  %sel = load i32, i32* %ehselector.slot, align 4, !dbg !8256
  %lpad.val = insertvalue { i8*, i32 } undef, i8* %exn, 0, !dbg !8256
  %lpad.val2 = insertvalue { i8*, i32 } %lpad.val, i32 %sel, 1, !dbg !8256
  resume { i8*, i32 } %lpad.val2, !dbg !8256
}

; Function Attrs: noinline nounwind uwtable
define linkonce_odr dso_local void @_ZNSaIN6dealii6TensorILi1ELi1EEEED2Ev(%"class.std::allocator.15"* %this) unnamed_addr #5 comdat align 2 !dbg !8257 {
entry:
  %this.addr = alloca %"class.std::allocator.15"*, align 8
  store %"class.std::allocator.15"* %this, %"class.std::allocator.15"** %this.addr, align 8
  call void @llvm.dbg.declare(metadata %"class.std::allocator.15"** %this.addr, metadata !8258, metadata !DIExpression()), !dbg !8259
  %this1 = load %"class.std::allocator.15"*, %"class.std::allocator.15"** %this.addr, align 8
  %0 = bitcast %"class.std::allocator.15"* %this1 to %"class.__gnu_cxx::new_allocator.16"*, !dbg !8260
  call void @_ZN9__gnu_cxx13new_allocatorIN6dealii6TensorILi1ELi1EEEED2Ev(%"class.__gnu_cxx::new_allocator.16"* %0) #3, !dbg !8260
  ret void, !dbg !8262
}

; Function Attrs: noinline nounwind uwtable
define linkonce_odr dso_local void @_ZNSaIN6dealii6TensorILi2ELi1EEEEC2Ev(%"class.std::allocator.20"* %this) unnamed_addr #5 comdat align 2 !dbg !8263 {
entry:
  %this.addr = alloca %"class.std::allocator.20"*, align 8
  store %"class.std::allocator.20"* %this, %"class.std::allocator.20"** %this.addr, align 8
  call void @llvm.dbg.declare(metadata %"class.std::allocator.20"** %this.addr, metadata !8264, metadata !DIExpression()), !dbg !8266
  %this1 = load %"class.std::allocator.20"*, %"class.std::allocator.20"** %this.addr, align 8
  %0 = bitcast %"class.std::allocator.20"* %this1 to %"class.__gnu_cxx::new_allocator.21"*, !dbg !8267
  call void @_ZN9__gnu_cxx13new_allocatorIN6dealii6TensorILi2ELi1EEEEC2Ev(%"class.__gnu_cxx::new_allocator.21"* %0) #3, !dbg !8268
  ret void, !dbg !8269
}

; Function Attrs: noinline uwtable
define linkonce_odr dso_local void @_ZNSt6vectorIN6dealii6TensorILi2ELi1EEESaIS2_EEC2EmRKS3_(%"class.std::vector.18"* %this, i64 %__n, %"class.std::allocator.20"* dereferenceable(1) %__a) unnamed_addr #0 comdat align 2 personality i8* bitcast (i32 (...)* @__gxx_personality_v0 to i8*) !dbg !8270 {
entry:
  %this.addr = alloca %"class.std::vector.18"*, align 8
  %__n.addr = alloca i64, align 8
  %__a.addr = alloca %"class.std::allocator.20"*, align 8
  %exn.slot = alloca i8*
  %ehselector.slot = alloca i32
  store %"class.std::vector.18"* %this, %"class.std::vector.18"** %this.addr, align 8
  call void @llvm.dbg.declare(metadata %"class.std::vector.18"** %this.addr, metadata !8271, metadata !DIExpression()), !dbg !8273
  store i64 %__n, i64* %__n.addr, align 8
  call void @llvm.dbg.declare(metadata i64* %__n.addr, metadata !8274, metadata !DIExpression()), !dbg !8275
  store %"class.std::allocator.20"* %__a, %"class.std::allocator.20"** %__a.addr, align 8
  call void @llvm.dbg.declare(metadata %"class.std::allocator.20"** %__a.addr, metadata !8276, metadata !DIExpression()), !dbg !8277
  %this1 = load %"class.std::vector.18"*, %"class.std::vector.18"** %this.addr, align 8
  %0 = bitcast %"class.std::vector.18"* %this1 to %"struct.std::_Vector_base.19"*, !dbg !8278
  %1 = load i64, i64* %__n.addr, align 8, !dbg !8279
  %2 = load %"class.std::allocator.20"*, %"class.std::allocator.20"** %__a.addr, align 8, !dbg !8280
  %call = call i64 @_ZNSt6vectorIN6dealii6TensorILi2ELi1EEESaIS2_EE17_S_check_init_lenEmRKS3_(i64 %1, %"class.std::allocator.20"* dereferenceable(1) %2), !dbg !8281
  %3 = load %"class.std::allocator.20"*, %"class.std::allocator.20"** %__a.addr, align 8, !dbg !8282
  call void @_ZNSt12_Vector_baseIN6dealii6TensorILi2ELi1EEESaIS2_EEC2EmRKS3_(%"struct.std::_Vector_base.19"* %0, i64 %call, %"class.std::allocator.20"* dereferenceable(1) %3), !dbg !8283
  %4 = load i64, i64* %__n.addr, align 8, !dbg !8284
  invoke void @_ZNSt6vectorIN6dealii6TensorILi2ELi1EEESaIS2_EE21_M_default_initializeEm(%"class.std::vector.18"* %this1, i64 %4)
          to label %invoke.cont unwind label %lpad, !dbg !8286

invoke.cont:                                      ; preds = %entry
  ret void, !dbg !8287

lpad:                                             ; preds = %entry
  %5 = landingpad { i8*, i32 }
          cleanup, !dbg !8288
  %6 = extractvalue { i8*, i32 } %5, 0, !dbg !8288
  store i8* %6, i8** %exn.slot, align 8, !dbg !8288
  %7 = extractvalue { i8*, i32 } %5, 1, !dbg !8288
  store i32 %7, i32* %ehselector.slot, align 4, !dbg !8288
  %8 = bitcast %"class.std::vector.18"* %this1 to %"struct.std::_Vector_base.19"*, !dbg !8288
  call void @_ZNSt12_Vector_baseIN6dealii6TensorILi2ELi1EEESaIS2_EED2Ev(%"struct.std::_Vector_base.19"* %8) #3, !dbg !8288
  br label %eh.resume, !dbg !8288

eh.resume:                                        ; preds = %lpad
  %exn = load i8*, i8** %exn.slot, align 8, !dbg !8288
  %sel = load i32, i32* %ehselector.slot, align 4, !dbg !8288
  %lpad.val = insertvalue { i8*, i32 } undef, i8* %exn, 0, !dbg !8288
  %lpad.val2 = insertvalue { i8*, i32 } %lpad.val, i32 %sel, 1, !dbg !8288
  resume { i8*, i32 } %lpad.val2, !dbg !8288
}

; Function Attrs: noinline nounwind uwtable
define linkonce_odr dso_local void @_ZNSaIN6dealii6TensorILi2ELi1EEEED2Ev(%"class.std::allocator.20"* %this) unnamed_addr #5 comdat align 2 !dbg !8289 {
entry:
  %this.addr = alloca %"class.std::allocator.20"*, align 8
  store %"class.std::allocator.20"* %this, %"class.std::allocator.20"** %this.addr, align 8
  call void @llvm.dbg.declare(metadata %"class.std::allocator.20"** %this.addr, metadata !8290, metadata !DIExpression()), !dbg !8291
  %this1 = load %"class.std::allocator.20"*, %"class.std::allocator.20"** %this.addr, align 8
  %0 = bitcast %"class.std::allocator.20"* %this1 to %"class.__gnu_cxx::new_allocator.21"*, !dbg !8292
  call void @_ZN9__gnu_cxx13new_allocatorIN6dealii6TensorILi2ELi1EEEED2Ev(%"class.__gnu_cxx::new_allocator.21"* %0) #3, !dbg !8292
  ret void, !dbg !8294
}

declare dso_local void @_ZN6dealii11Polynomials8MonomialIdEC1Ejd(%"class.dealii::Polynomials::Monomial"*, i32, double) unnamed_addr #1

; Function Attrs: noinline nounwind uwtable
define linkonce_odr dso_local dereferenceable(96) %"class.dealii::Polynomials::Polynomial"* @_ZNSt6vectorIN6dealii11Polynomials10PolynomialIdEESaIS3_EEixEm(%"class.std::vector"* %this, i64 %__n) #5 comdat align 2 !dbg !8295 {
entry:
  %this.addr = alloca %"class.std::vector"*, align 8
  %__n.addr = alloca i64, align 8
  store %"class.std::vector"* %this, %"class.std::vector"** %this.addr, align 8
  call void @llvm.dbg.declare(metadata %"class.std::vector"** %this.addr, metadata !8296, metadata !DIExpression()), !dbg !8297
  store i64 %__n, i64* %__n.addr, align 8
  call void @llvm.dbg.declare(metadata i64* %__n.addr, metadata !8298, metadata !DIExpression()), !dbg !8299
  %this1 = load %"class.std::vector"*, %"class.std::vector"** %this.addr, align 8
  %0 = bitcast %"class.std::vector"* %this1 to %"struct.std::_Vector_base"*, !dbg !8300
  %_M_impl = getelementptr inbounds %"struct.std::_Vector_base", %"struct.std::_Vector_base"* %0, i32 0, i32 0, !dbg !8300
  %1 = bitcast %"struct.std::_Vector_base<dealii::Polynomials::Polynomial<double>, std::allocator<dealii::Polynomials::Polynomial<double> > >::_Vector_impl"* %_M_impl to %"struct.std::_Vector_base<dealii::Polynomials::Polynomial<double>, std::allocator<dealii::Polynomials::Polynomial<double> > >::_Vector_impl_data"*, !dbg !8301
  %_M_start = getelementptr inbounds %"struct.std::_Vector_base<dealii::Polynomials::Polynomial<double>, std::allocator<dealii::Polynomials::Polynomial<double> > >::_Vector_impl_data", %"struct.std::_Vector_base<dealii::Polynomials::Polynomial<double>, std::allocator<dealii::Polynomials::Polynomial<double> > >::_Vector_impl_data"* %1, i32 0, i32 0, !dbg !8302
  %2 = load %"class.dealii::Polynomials::Polynomial"*, %"class.dealii::Polynomials::Polynomial"** %_M_start, align 8, !dbg !8302
  %3 = load i64, i64* %__n.addr, align 8, !dbg !8303
  %add.ptr = getelementptr inbounds %"class.dealii::Polynomials::Polynomial", %"class.dealii::Polynomials::Polynomial"* %2, i64 %3, !dbg !8304
  ret %"class.dealii::Polynomials::Polynomial"* %add.ptr, !dbg !8305
}

; Function Attrs: noinline uwtable
define linkonce_odr dso_local dereferenceable(96) %"class.dealii::Polynomials::Polynomial"* @_ZN6dealii11Polynomials10PolynomialIdEaSEOS2_(%"class.dealii::Polynomials::Polynomial"* %this, %"class.dealii::Polynomials::Polynomial"* dereferenceable(96) %0) #0 comdat align 2 !dbg !8306 {
entry:
  %this.addr = alloca %"class.dealii::Polynomials::Polynomial"*, align 8
  %.addr = alloca %"class.dealii::Polynomials::Polynomial"*, align 8
  store %"class.dealii::Polynomials::Polynomial"* %this, %"class.dealii::Polynomials::Polynomial"** %this.addr, align 8
  call void @llvm.dbg.declare(metadata %"class.dealii::Polynomials::Polynomial"** %this.addr, metadata !8311, metadata !DIExpression()), !dbg !8312
  store %"class.dealii::Polynomials::Polynomial"* %0, %"class.dealii::Polynomials::Polynomial"** %.addr, align 8
  call void @llvm.dbg.declare(metadata %"class.dealii::Polynomials::Polynomial"** %.addr, metadata !8313, metadata !DIExpression()), !dbg !8312
  %this1 = load %"class.dealii::Polynomials::Polynomial"*, %"class.dealii::Polynomials::Polynomial"** %this.addr, align 8
  %1 = bitcast %"class.dealii::Polynomials::Polynomial"* %this1 to %"class.dealii::Subscriptor"*, !dbg !8314
  %2 = load %"class.dealii::Polynomials::Polynomial"*, %"class.dealii::Polynomials::Polynomial"** %.addr, align 8, !dbg !8314
  %3 = bitcast %"class.dealii::Polynomials::Polynomial"* %2 to %"class.dealii::Subscriptor"*, !dbg !8314
  %call = call dereferenceable(72) %"class.dealii::Subscriptor"* @_ZN6dealii11SubscriptoraSERKS0_(%"class.dealii::Subscriptor"* %1, %"class.dealii::Subscriptor"* dereferenceable(72) %3), !dbg !8314
  %coefficients = getelementptr inbounds %"class.dealii::Polynomials::Polynomial", %"class.dealii::Polynomials::Polynomial"* %this1, i32 0, i32 1, !dbg !8314
  %4 = load %"class.dealii::Polynomials::Polynomial"*, %"class.dealii::Polynomials::Polynomial"** %.addr, align 8, !dbg !8314
  %coefficients2 = getelementptr inbounds %"class.dealii::Polynomials::Polynomial", %"class.dealii::Polynomials::Polynomial"* %4, i32 0, i32 1, !dbg !8314
  %call3 = call dereferenceable(24) %"class.std::vector.3"* @_ZNSt6vectorIdSaIdEEaSEOS1_(%"class.std::vector.3"* %coefficients, %"class.std::vector.3"* dereferenceable(24) %coefficients2) #3, !dbg !8314
  ret %"class.dealii::Polynomials::Polynomial"* %this1, !dbg !8314
}

; Function Attrs: noinline nounwind uwtable
define linkonce_odr dso_local void @_ZN6dealii11Polynomials8MonomialIdED2Ev(%"class.dealii::Polynomials::Monomial"* %this) unnamed_addr #5 comdat align 2 !dbg !8316 {
entry:
  %this.addr = alloca %"class.dealii::Polynomials::Monomial"*, align 8
  store %"class.dealii::Polynomials::Monomial"* %this, %"class.dealii::Polynomials::Monomial"** %this.addr, align 8
  call void @llvm.dbg.declare(metadata %"class.dealii::Polynomials::Monomial"** %this.addr, metadata !8321, metadata !DIExpression()), !dbg !8323
  %this1 = load %"class.dealii::Polynomials::Monomial"*, %"class.dealii::Polynomials::Monomial"** %this.addr, align 8
  %0 = bitcast %"class.dealii::Polynomials::Monomial"* %this1 to %"class.dealii::Polynomials::Polynomial"*, !dbg !8324
  call void @_ZN6dealii11Polynomials10PolynomialIdED2Ev(%"class.dealii::Polynomials::Polynomial"* %0) #3, !dbg !8324
  ret void, !dbg !8326
}

; Function Attrs: noinline nounwind uwtable
define linkonce_odr dso_local void @_ZNSt6vectorIN6dealii6TensorILi2ELi1EEESaIS2_EED2Ev(%"class.std::vector.18"* %this) unnamed_addr #5 comdat align 2 personality i8* bitcast (i32 (...)* @__gxx_personality_v0 to i8*) !dbg !8327 {
entry:
  %this.addr = alloca %"class.std::vector.18"*, align 8
  %exn.slot = alloca i8*
  %ehselector.slot = alloca i32
  store %"class.std::vector.18"* %this, %"class.std::vector.18"** %this.addr, align 8
  call void @llvm.dbg.declare(metadata %"class.std::vector.18"** %this.addr, metadata !8328, metadata !DIExpression()), !dbg !8329
  %this1 = load %"class.std::vector.18"*, %"class.std::vector.18"** %this.addr, align 8
  %0 = bitcast %"class.std::vector.18"* %this1 to %"struct.std::_Vector_base.19"*, !dbg !8330
  %_M_impl = getelementptr inbounds %"struct.std::_Vector_base.19", %"struct.std::_Vector_base.19"* %0, i32 0, i32 0, !dbg !8330
  %1 = bitcast %"struct.std::_Vector_base<dealii::Tensor<2, 1>, std::allocator<dealii::Tensor<2, 1> > >::_Vector_impl"* %_M_impl to %"struct.std::_Vector_base<dealii::Tensor<2, 1>, std::allocator<dealii::Tensor<2, 1> > >::_Vector_impl_data"*, !dbg !8332
  %_M_start = getelementptr inbounds %"struct.std::_Vector_base<dealii::Tensor<2, 1>, std::allocator<dealii::Tensor<2, 1> > >::_Vector_impl_data", %"struct.std::_Vector_base<dealii::Tensor<2, 1>, std::allocator<dealii::Tensor<2, 1> > >::_Vector_impl_data"* %1, i32 0, i32 0, !dbg !8333
  %2 = load %"class.dealii::Tensor.23"*, %"class.dealii::Tensor.23"** %_M_start, align 8, !dbg !8333
  %3 = bitcast %"class.std::vector.18"* %this1 to %"struct.std::_Vector_base.19"*, !dbg !8334
  %_M_impl2 = getelementptr inbounds %"struct.std::_Vector_base.19", %"struct.std::_Vector_base.19"* %3, i32 0, i32 0, !dbg !8334
  %4 = bitcast %"struct.std::_Vector_base<dealii::Tensor<2, 1>, std::allocator<dealii::Tensor<2, 1> > >::_Vector_impl"* %_M_impl2 to %"struct.std::_Vector_base<dealii::Tensor<2, 1>, std::allocator<dealii::Tensor<2, 1> > >::_Vector_impl_data"*, !dbg !8335
  %_M_finish = getelementptr inbounds %"struct.std::_Vector_base<dealii::Tensor<2, 1>, std::allocator<dealii::Tensor<2, 1> > >::_Vector_impl_data", %"struct.std::_Vector_base<dealii::Tensor<2, 1>, std::allocator<dealii::Tensor<2, 1> > >::_Vector_impl_data"* %4, i32 0, i32 1, !dbg !8336
  %5 = load %"class.dealii::Tensor.23"*, %"class.dealii::Tensor.23"** %_M_finish, align 8, !dbg !8336
  %6 = bitcast %"class.std::vector.18"* %this1 to %"struct.std::_Vector_base.19"*, !dbg !8337
  %call = call dereferenceable(1) %"class.std::allocator.20"* @_ZNSt12_Vector_baseIN6dealii6TensorILi2ELi1EEESaIS2_EE19_M_get_Tp_allocatorEv(%"struct.std::_Vector_base.19"* %6) #3, !dbg !8337
  invoke void @_ZSt8_DestroyIPN6dealii6TensorILi2ELi1EEES2_EvT_S4_RSaIT0_E(%"class.dealii::Tensor.23"* %2, %"class.dealii::Tensor.23"* %5, %"class.std::allocator.20"* dereferenceable(1) %call)
          to label %invoke.cont unwind label %lpad, !dbg !8338

invoke.cont:                                      ; preds = %entry
  %7 = bitcast %"class.std::vector.18"* %this1 to %"struct.std::_Vector_base.19"*, !dbg !8339
  call void @_ZNSt12_Vector_baseIN6dealii6TensorILi2ELi1EEESaIS2_EED2Ev(%"struct.std::_Vector_base.19"* %7) #3, !dbg !8339
  ret void, !dbg !8340

lpad:                                             ; preds = %entry
  %8 = landingpad { i8*, i32 }
          catch i8* null, !dbg !8339
  %9 = extractvalue { i8*, i32 } %8, 0, !dbg !8339
  store i8* %9, i8** %exn.slot, align 8, !dbg !8339
  %10 = extractvalue { i8*, i32 } %8, 1, !dbg !8339
  store i32 %10, i32* %ehselector.slot, align 4, !dbg !8339
  %11 = bitcast %"class.std::vector.18"* %this1 to %"struct.std::_Vector_base.19"*, !dbg !8339
  call void @_ZNSt12_Vector_baseIN6dealii6TensorILi2ELi1EEESaIS2_EED2Ev(%"struct.std::_Vector_base.19"* %11) #3, !dbg !8339
  br label %terminate.handler, !dbg !8339

terminate.handler:                                ; preds = %lpad
  %exn = load i8*, i8** %exn.slot, align 8, !dbg !8339
  call void @__clang_call_terminate(i8* %exn) #12, !dbg !8339
  unreachable, !dbg !8339
}

; Function Attrs: noinline nounwind uwtable
define linkonce_odr dso_local void @_ZNSt6vectorIN6dealii6TensorILi1ELi1EEESaIS2_EED2Ev(%"class.std::vector.13"* %this) unnamed_addr #5 comdat align 2 personality i8* bitcast (i32 (...)* @__gxx_personality_v0 to i8*) !dbg !8341 {
entry:
  %this.addr = alloca %"class.std::vector.13"*, align 8
  %exn.slot = alloca i8*
  %ehselector.slot = alloca i32
  store %"class.std::vector.13"* %this, %"class.std::vector.13"** %this.addr, align 8
  call void @llvm.dbg.declare(metadata %"class.std::vector.13"** %this.addr, metadata !8342, metadata !DIExpression()), !dbg !8343
  %this1 = load %"class.std::vector.13"*, %"class.std::vector.13"** %this.addr, align 8
  %0 = bitcast %"class.std::vector.13"* %this1 to %"struct.std::_Vector_base.14"*, !dbg !8344
  %_M_impl = getelementptr inbounds %"struct.std::_Vector_base.14", %"struct.std::_Vector_base.14"* %0, i32 0, i32 0, !dbg !8344
  %1 = bitcast %"struct.std::_Vector_base<dealii::Tensor<1, 1>, std::allocator<dealii::Tensor<1, 1> > >::_Vector_impl"* %_M_impl to %"struct.std::_Vector_base<dealii::Tensor<1, 1>, std::allocator<dealii::Tensor<1, 1> > >::_Vector_impl_data"*, !dbg !8346
  %_M_start = getelementptr inbounds %"struct.std::_Vector_base<dealii::Tensor<1, 1>, std::allocator<dealii::Tensor<1, 1> > >::_Vector_impl_data", %"struct.std::_Vector_base<dealii::Tensor<1, 1>, std::allocator<dealii::Tensor<1, 1> > >::_Vector_impl_data"* %1, i32 0, i32 0, !dbg !8347
  %2 = load %"class.dealii::Tensor"*, %"class.dealii::Tensor"** %_M_start, align 8, !dbg !8347
  %3 = bitcast %"class.std::vector.13"* %this1 to %"struct.std::_Vector_base.14"*, !dbg !8348
  %_M_impl2 = getelementptr inbounds %"struct.std::_Vector_base.14", %"struct.std::_Vector_base.14"* %3, i32 0, i32 0, !dbg !8348
  %4 = bitcast %"struct.std::_Vector_base<dealii::Tensor<1, 1>, std::allocator<dealii::Tensor<1, 1> > >::_Vector_impl"* %_M_impl2 to %"struct.std::_Vector_base<dealii::Tensor<1, 1>, std::allocator<dealii::Tensor<1, 1> > >::_Vector_impl_data"*, !dbg !8349
  %_M_finish = getelementptr inbounds %"struct.std::_Vector_base<dealii::Tensor<1, 1>, std::allocator<dealii::Tensor<1, 1> > >::_Vector_impl_data", %"struct.std::_Vector_base<dealii::Tensor<1, 1>, std::allocator<dealii::Tensor<1, 1> > >::_Vector_impl_data"* %4, i32 0, i32 1, !dbg !8350
  %5 = load %"class.dealii::Tensor"*, %"class.dealii::Tensor"** %_M_finish, align 8, !dbg !8350
  %6 = bitcast %"class.std::vector.13"* %this1 to %"struct.std::_Vector_base.14"*, !dbg !8351
  %call = call dereferenceable(1) %"class.std::allocator.15"* @_ZNSt12_Vector_baseIN6dealii6TensorILi1ELi1EEESaIS2_EE19_M_get_Tp_allocatorEv(%"struct.std::_Vector_base.14"* %6) #3, !dbg !8351
  invoke void @_ZSt8_DestroyIPN6dealii6TensorILi1ELi1EEES2_EvT_S4_RSaIT0_E(%"class.dealii::Tensor"* %2, %"class.dealii::Tensor"* %5, %"class.std::allocator.15"* dereferenceable(1) %call)
          to label %invoke.cont unwind label %lpad, !dbg !8352

invoke.cont:                                      ; preds = %entry
  %7 = bitcast %"class.std::vector.13"* %this1 to %"struct.std::_Vector_base.14"*, !dbg !8353
  call void @_ZNSt12_Vector_baseIN6dealii6TensorILi1ELi1EEESaIS2_EED2Ev(%"struct.std::_Vector_base.14"* %7) #3, !dbg !8353
  ret void, !dbg !8354

lpad:                                             ; preds = %entry
  %8 = landingpad { i8*, i32 }
          catch i8* null, !dbg !8353
  %9 = extractvalue { i8*, i32 } %8, 0, !dbg !8353
  store i8* %9, i8** %exn.slot, align 8, !dbg !8353
  %10 = extractvalue { i8*, i32 } %8, 1, !dbg !8353
  store i32 %10, i32* %ehselector.slot, align 4, !dbg !8353
  %11 = bitcast %"class.std::vector.13"* %this1 to %"struct.std::_Vector_base.14"*, !dbg !8353
  call void @_ZNSt12_Vector_baseIN6dealii6TensorILi1ELi1EEESaIS2_EED2Ev(%"struct.std::_Vector_base.14"* %11) #3, !dbg !8353
  br label %terminate.handler, !dbg !8353

terminate.handler:                                ; preds = %lpad
  %exn = load i8*, i8** %exn.slot, align 8, !dbg !8353
  call void @__clang_call_terminate(i8* %exn) #12, !dbg !8353
  unreachable, !dbg !8353
}

; Function Attrs: noinline nounwind uwtable
define linkonce_odr dso_local void @_ZNSt6vectorIdSaIdEED2Ev(%"class.std::vector.3"* %this) unnamed_addr #5 comdat align 2 personality i8* bitcast (i32 (...)* @__gxx_personality_v0 to i8*) !dbg !8355 {
entry:
  %this.addr = alloca %"class.std::vector.3"*, align 8
  %exn.slot = alloca i8*
  %ehselector.slot = alloca i32
  store %"class.std::vector.3"* %this, %"class.std::vector.3"** %this.addr, align 8
  call void @llvm.dbg.declare(metadata %"class.std::vector.3"** %this.addr, metadata !8356, metadata !DIExpression()), !dbg !8357
  %this1 = load %"class.std::vector.3"*, %"class.std::vector.3"** %this.addr, align 8
  %0 = bitcast %"class.std::vector.3"* %this1 to %"struct.std::_Vector_base.4"*, !dbg !8358
  %_M_impl = getelementptr inbounds %"struct.std::_Vector_base.4", %"struct.std::_Vector_base.4"* %0, i32 0, i32 0, !dbg !8358
  %1 = bitcast %"struct.std::_Vector_base<double, std::allocator<double> >::_Vector_impl"* %_M_impl to %"struct.std::_Vector_base<double, std::allocator<double> >::_Vector_impl_data"*, !dbg !8360
  %_M_start = getelementptr inbounds %"struct.std::_Vector_base<double, std::allocator<double> >::_Vector_impl_data", %"struct.std::_Vector_base<double, std::allocator<double> >::_Vector_impl_data"* %1, i32 0, i32 0, !dbg !8361
  %2 = load double*, double** %_M_start, align 8, !dbg !8361
  %3 = bitcast %"class.std::vector.3"* %this1 to %"struct.std::_Vector_base.4"*, !dbg !8362
  %_M_impl2 = getelementptr inbounds %"struct.std::_Vector_base.4", %"struct.std::_Vector_base.4"* %3, i32 0, i32 0, !dbg !8362
  %4 = bitcast %"struct.std::_Vector_base<double, std::allocator<double> >::_Vector_impl"* %_M_impl2 to %"struct.std::_Vector_base<double, std::allocator<double> >::_Vector_impl_data"*, !dbg !8363
  %_M_finish = getelementptr inbounds %"struct.std::_Vector_base<double, std::allocator<double> >::_Vector_impl_data", %"struct.std::_Vector_base<double, std::allocator<double> >::_Vector_impl_data"* %4, i32 0, i32 1, !dbg !8364
  %5 = load double*, double** %_M_finish, align 8, !dbg !8364
  %6 = bitcast %"class.std::vector.3"* %this1 to %"struct.std::_Vector_base.4"*, !dbg !8365
  %call = call dereferenceable(1) %"class.std::allocator.5"* @_ZNSt12_Vector_baseIdSaIdEE19_M_get_Tp_allocatorEv(%"struct.std::_Vector_base.4"* %6) #3, !dbg !8365
  invoke void @_ZSt8_DestroyIPddEvT_S1_RSaIT0_E(double* %2, double* %5, %"class.std::allocator.5"* dereferenceable(1) %call)
          to label %invoke.cont unwind label %lpad, !dbg !8366

invoke.cont:                                      ; preds = %entry
  %7 = bitcast %"class.std::vector.3"* %this1 to %"struct.std::_Vector_base.4"*, !dbg !8367
  call void @_ZNSt12_Vector_baseIdSaIdEED2Ev(%"struct.std::_Vector_base.4"* %7) #3, !dbg !8367
  ret void, !dbg !8368

lpad:                                             ; preds = %entry
  %8 = landingpad { i8*, i32 }
          catch i8* null, !dbg !8367
  %9 = extractvalue { i8*, i32 } %8, 0, !dbg !8367
  store i8* %9, i8** %exn.slot, align 8, !dbg !8367
  %10 = extractvalue { i8*, i32 } %8, 1, !dbg !8367
  store i32 %10, i32* %ehselector.slot, align 4, !dbg !8367
  %11 = bitcast %"class.std::vector.3"* %this1 to %"struct.std::_Vector_base.4"*, !dbg !8367
  call void @_ZNSt12_Vector_baseIdSaIdEED2Ev(%"struct.std::_Vector_base.4"* %11) #3, !dbg !8367
  br label %terminate.handler, !dbg !8367

terminate.handler:                                ; preds = %lpad
  %exn = load i8*, i8** %exn.slot, align 8, !dbg !8367
  call void @__clang_call_terminate(i8* %exn) #12, !dbg !8367
  unreachable, !dbg !8367
}

; Function Attrs: noinline nounwind uwtable
define linkonce_odr dso_local void @_ZN6dealii15PolynomialSpaceILi1EED2Ev(%"class.dealii::PolynomialSpace"* %this) unnamed_addr #5 comdat align 2 !dbg !8369 {
entry:
  %this.addr = alloca %"class.dealii::PolynomialSpace"*, align 8
  store %"class.dealii::PolynomialSpace"* %this, %"class.dealii::PolynomialSpace"** %this.addr, align 8
  call void @llvm.dbg.declare(metadata %"class.dealii::PolynomialSpace"** %this.addr, metadata !8373, metadata !DIExpression()), !dbg !8374
  %this1 = load %"class.dealii::PolynomialSpace"*, %"class.dealii::PolynomialSpace"** %this.addr, align 8
  %index_map_inverse = getelementptr inbounds %"class.dealii::PolynomialSpace", %"class.dealii::PolynomialSpace"* %this1, i32 0, i32 3, !dbg !8375
  call void @_ZNSt6vectorIjSaIjEED2Ev(%"class.std::vector.8"* %index_map_inverse) #3, !dbg !8375
  %index_map = getelementptr inbounds %"class.dealii::PolynomialSpace", %"class.dealii::PolynomialSpace"* %this1, i32 0, i32 2, !dbg !8375
  call void @_ZNSt6vectorIjSaIjEED2Ev(%"class.std::vector.8"* %index_map) #3, !dbg !8375
  %polynomials = getelementptr inbounds %"class.dealii::PolynomialSpace", %"class.dealii::PolynomialSpace"* %this1, i32 0, i32 0, !dbg !8375
  call void @_ZNSt6vectorIN6dealii11Polynomials10PolynomialIdEESaIS3_EED2Ev(%"class.std::vector"* %polynomials) #3, !dbg !8375
  ret void, !dbg !8377
}

; Function Attrs: noinline uwtable
define weak_odr dso_local void @_ZNK6dealii14PolynomialsBDMILi1EE7computeERKNS_5PointILi1EEERSt6vectorINS_6TensorILi1ELi1EEESaIS8_EERS6_INS7_ILi2ELi1EEESaISC_EERS6_INS7_ILi3ELi1EEESaISG_EE(%"class.dealii::PolynomialsBDM"* %this, %"class.dealii::Point"* dereferenceable(8) %unit_point, %"class.std::vector.13"* dereferenceable(24) %values, %"class.std::vector.18"* dereferenceable(24) %grads, %"class.std::vector.24"* dereferenceable(24) %grad_grads) #0 comdat align 2 personality i8* bitcast (i32 (...)* @__gxx_personality_v0 to i8*) !dbg !8378 {
entry:
  %this.addr = alloca %"class.dealii::PolynomialsBDM"*, align 8
  %unit_point.addr = alloca %"class.dealii::Point"*, align 8
  %values.addr = alloca %"class.std::vector.13"*, align 8
  %grads.addr = alloca %"class.std::vector.18"*, align 8
  %grad_grads.addr = alloca %"class.std::vector.24"*, align 8
  %n_sub = alloca i32, align 4
  %agg.tmp = alloca %"class.__gnu_cxx::__normal_iterator", align 8
  %agg.tmp22 = alloca %"class.__gnu_cxx::__normal_iterator", align 8
  %ref.tmp = alloca %"class.dealii::Tensor", align 8
  %i = alloca i32, align 4
  %j = alloca i32, align 4
  %agg.tmp43 = alloca %"class.__gnu_cxx::__normal_iterator.30", align 8
  %agg.tmp46 = alloca %"class.__gnu_cxx::__normal_iterator.30", align 8
  %ref.tmp49 = alloca %"class.dealii::Tensor.23", align 8
  %i52 = alloca i32, align 4
  %j59 = alloca i32, align 4
  %agg.tmp78 = alloca %"class.__gnu_cxx::__normal_iterator.31", align 8
  %agg.tmp81 = alloca %"class.__gnu_cxx::__normal_iterator.31", align 8
  %ref.tmp84 = alloca %"class.dealii::Tensor.29", align 8
  %i87 = alloca i32, align 4
  %j94 = alloca i32, align 4
  %start = alloca i32, align 4
  %monoval0 = alloca %"class.std::vector.3", align 8
  %ref.tmp114 = alloca %"class.std::allocator.5", align 1
  %exn.slot = alloca i8*
  %ehselector.slot = alloca i32
  %monoval1 = alloca %"class.std::vector.3", align 8
  %ref.tmp115 = alloca %"class.std::allocator.5", align 1
  store %"class.dealii::PolynomialsBDM"* %this, %"class.dealii::PolynomialsBDM"** %this.addr, align 8
  call void @llvm.dbg.declare(metadata %"class.dealii::PolynomialsBDM"** %this.addr, metadata !8379, metadata !DIExpression()), !dbg !8381
  store %"class.dealii::Point"* %unit_point, %"class.dealii::Point"** %unit_point.addr, align 8
  call void @llvm.dbg.declare(metadata %"class.dealii::Point"** %unit_point.addr, metadata !8382, metadata !DIExpression()), !dbg !8383
  store %"class.std::vector.13"* %values, %"class.std::vector.13"** %values.addr, align 8
  call void @llvm.dbg.declare(metadata %"class.std::vector.13"** %values.addr, metadata !8384, metadata !DIExpression()), !dbg !8385
  store %"class.std::vector.18"* %grads, %"class.std::vector.18"** %grads.addr, align 8
  call void @llvm.dbg.declare(metadata %"class.std::vector.18"** %grads.addr, metadata !8386, metadata !DIExpression()), !dbg !8387
  store %"class.std::vector.24"* %grad_grads, %"class.std::vector.24"** %grad_grads.addr, align 8
  call void @llvm.dbg.declare(metadata %"class.std::vector.24"** %grad_grads.addr, metadata !8388, metadata !DIExpression()), !dbg !8389
  %this1 = load %"class.dealii::PolynomialsBDM"*, %"class.dealii::PolynomialsBDM"** %this.addr, align 8
  call void @llvm.dbg.declare(metadata i32* %n_sub, metadata !8390, metadata !DIExpression()), !dbg !8391
  %polynomial_space = getelementptr inbounds %"class.dealii::PolynomialsBDM", %"class.dealii::PolynomialsBDM"* %this1, i32 0, i32 0, !dbg !8392
  %call = call i32 @_ZNK6dealii15PolynomialSpaceILi1EE1nEv(%"class.dealii::PolynomialSpace"* %polynomial_space), !dbg !8393
  store i32 %call, i32* %n_sub, align 4, !dbg !8391
  %p_values = getelementptr inbounds %"class.dealii::PolynomialsBDM", %"class.dealii::PolynomialsBDM"* %this1, i32 0, i32 3, !dbg !8394
  %0 = load %"class.std::vector.13"*, %"class.std::vector.13"** %values.addr, align 8, !dbg !8395
  %call2 = call i64 @_ZNKSt6vectorIN6dealii6TensorILi1ELi1EEESaIS2_EE4sizeEv(%"class.std::vector.13"* %0) #3, !dbg !8396
  %cmp = icmp eq i64 %call2, 0, !dbg !8397
  br i1 %cmp, label %cond.true, label %cond.false, !dbg !8398

cond.true:                                        ; preds = %entry
  br label %cond.end, !dbg !8398

cond.false:                                       ; preds = %entry
  %1 = load i32, i32* %n_sub, align 4, !dbg !8399
  br label %cond.end, !dbg !8398

cond.end:                                         ; preds = %cond.false, %cond.true
  %cond = phi i32 [ 0, %cond.true ], [ %1, %cond.false ], !dbg !8398
  %conv = zext i32 %cond to i64, !dbg !8398
  call void @_ZNSt6vectorIdSaIdEE6resizeEm(%"class.std::vector.3"* %p_values, i64 %conv), !dbg !8400
  %p_grads = getelementptr inbounds %"class.dealii::PolynomialsBDM", %"class.dealii::PolynomialsBDM"* %this1, i32 0, i32 4, !dbg !8401
  %2 = load %"class.std::vector.18"*, %"class.std::vector.18"** %grads.addr, align 8, !dbg !8402
  %call3 = call i64 @_ZNKSt6vectorIN6dealii6TensorILi2ELi1EEESaIS2_EE4sizeEv(%"class.std::vector.18"* %2) #3, !dbg !8403
  %cmp4 = icmp eq i64 %call3, 0, !dbg !8404
  br i1 %cmp4, label %cond.true5, label %cond.false6, !dbg !8405

cond.true5:                                       ; preds = %cond.end
  br label %cond.end7, !dbg !8405

cond.false6:                                      ; preds = %cond.end
  %3 = load i32, i32* %n_sub, align 4, !dbg !8406
  br label %cond.end7, !dbg !8405

cond.end7:                                        ; preds = %cond.false6, %cond.true5
  %cond8 = phi i32 [ 0, %cond.true5 ], [ %3, %cond.false6 ], !dbg !8405
  %conv9 = zext i32 %cond8 to i64, !dbg !8405
  call void @_ZNSt6vectorIN6dealii6TensorILi1ELi1EEESaIS2_EE6resizeEm(%"class.std::vector.13"* %p_grads, i64 %conv9), !dbg !8407
  %p_grad_grads = getelementptr inbounds %"class.dealii::PolynomialsBDM", %"class.dealii::PolynomialsBDM"* %this1, i32 0, i32 5, !dbg !8408
  %4 = load %"class.std::vector.24"*, %"class.std::vector.24"** %grad_grads.addr, align 8, !dbg !8409
  %call10 = call i64 @_ZNKSt6vectorIN6dealii6TensorILi3ELi1EEESaIS2_EE4sizeEv(%"class.std::vector.24"* %4) #3, !dbg !8410
  %cmp11 = icmp eq i64 %call10, 0, !dbg !8411
  br i1 %cmp11, label %cond.true12, label %cond.false13, !dbg !8412

cond.true12:                                      ; preds = %cond.end7
  br label %cond.end14, !dbg !8412

cond.false13:                                     ; preds = %cond.end7
  %5 = load i32, i32* %n_sub, align 4, !dbg !8413
  br label %cond.end14, !dbg !8412

cond.end14:                                       ; preds = %cond.false13, %cond.true12
  %cond15 = phi i32 [ 0, %cond.true12 ], [ %5, %cond.false13 ], !dbg !8412
  %conv16 = zext i32 %cond15 to i64, !dbg !8412
  call void @_ZNSt6vectorIN6dealii6TensorILi2ELi1EEESaIS2_EE6resizeEm(%"class.std::vector.18"* %p_grad_grads, i64 %conv16), !dbg !8414
  %polynomial_space17 = getelementptr inbounds %"class.dealii::PolynomialsBDM", %"class.dealii::PolynomialsBDM"* %this1, i32 0, i32 0, !dbg !8415
  %6 = load %"class.dealii::Point"*, %"class.dealii::Point"** %unit_point.addr, align 8, !dbg !8416
  %p_values18 = getelementptr inbounds %"class.dealii::PolynomialsBDM", %"class.dealii::PolynomialsBDM"* %this1, i32 0, i32 3, !dbg !8417
  %p_grads19 = getelementptr inbounds %"class.dealii::PolynomialsBDM", %"class.dealii::PolynomialsBDM"* %this1, i32 0, i32 4, !dbg !8418
  %p_grad_grads20 = getelementptr inbounds %"class.dealii::PolynomialsBDM", %"class.dealii::PolynomialsBDM"* %this1, i32 0, i32 5, !dbg !8419
  call void @_ZNK6dealii15PolynomialSpaceILi1EE7computeERKNS_5PointILi1EEERSt6vectorIdSaIdEERS6_INS_6TensorILi1ELi1EEESaISB_EERS6_INSA_ILi2ELi1EEESaISF_EE(%"class.dealii::PolynomialSpace"* %polynomial_space17, %"class.dealii::Point"* dereferenceable(8) %6, %"class.std::vector.3"* dereferenceable(24) %p_values18, %"class.std::vector.13"* dereferenceable(24) %p_grads19, %"class.std::vector.18"* dereferenceable(24) %p_grad_grads20), !dbg !8420
  %7 = load %"class.std::vector.13"*, %"class.std::vector.13"** %values.addr, align 8, !dbg !8421
  %call21 = call %"class.dealii::Tensor"* @_ZNSt6vectorIN6dealii6TensorILi1ELi1EEESaIS2_EE5beginEv(%"class.std::vector.13"* %7) #3, !dbg !8422
  %coerce.dive = getelementptr inbounds %"class.__gnu_cxx::__normal_iterator", %"class.__gnu_cxx::__normal_iterator"* %agg.tmp, i32 0, i32 0, !dbg !8422
  store %"class.dealii::Tensor"* %call21, %"class.dealii::Tensor"** %coerce.dive, align 8, !dbg !8422
  %8 = load %"class.std::vector.13"*, %"class.std::vector.13"** %values.addr, align 8, !dbg !8423
  %call23 = call %"class.dealii::Tensor"* @_ZNSt6vectorIN6dealii6TensorILi1ELi1EEESaIS2_EE3endEv(%"class.std::vector.13"* %8) #3, !dbg !8424
  %coerce.dive24 = getelementptr inbounds %"class.__gnu_cxx::__normal_iterator", %"class.__gnu_cxx::__normal_iterator"* %agg.tmp22, i32 0, i32 0, !dbg !8424
  store %"class.dealii::Tensor"* %call23, %"class.dealii::Tensor"** %coerce.dive24, align 8, !dbg !8424
  call void @_ZN6dealii6TensorILi1ELi1EEC2Eb(%"class.dealii::Tensor"* %ref.tmp, i1 zeroext true), !dbg !8425
  %coerce.dive25 = getelementptr inbounds %"class.__gnu_cxx::__normal_iterator", %"class.__gnu_cxx::__normal_iterator"* %agg.tmp, i32 0, i32 0, !dbg !8426
  %9 = load %"class.dealii::Tensor"*, %"class.dealii::Tensor"** %coerce.dive25, align 8, !dbg !8426
  %coerce.dive26 = getelementptr inbounds %"class.__gnu_cxx::__normal_iterator", %"class.__gnu_cxx::__normal_iterator"* %agg.tmp22, i32 0, i32 0, !dbg !8426
  %10 = load %"class.dealii::Tensor"*, %"class.dealii::Tensor"** %coerce.dive26, align 8, !dbg !8426
  call void @_ZSt4fillIN9__gnu_cxx17__normal_iteratorIPN6dealii6TensorILi1ELi1EEESt6vectorIS4_SaIS4_EEEES4_EvT_SA_RKT0_(%"class.dealii::Tensor"* %9, %"class.dealii::Tensor"* %10, %"class.dealii::Tensor"* dereferenceable(8) %ref.tmp), !dbg !8426
  call void @llvm.dbg.declare(metadata i32* %i, metadata !8427, metadata !DIExpression()), !dbg !8429
  store i32 0, i32* %i, align 4, !dbg !8429
  br label %for.cond, !dbg !8430

for.cond:                                         ; preds = %for.inc40, %cond.end14
  %11 = load i32, i32* %i, align 4, !dbg !8431
  %conv27 = zext i32 %11 to i64, !dbg !8431
  %p_values28 = getelementptr inbounds %"class.dealii::PolynomialsBDM", %"class.dealii::PolynomialsBDM"* %this1, i32 0, i32 3, !dbg !8433
  %call29 = call i64 @_ZNKSt6vectorIdSaIdEE4sizeEv(%"class.std::vector.3"* %p_values28) #3, !dbg !8434
  %cmp30 = icmp ult i64 %conv27, %call29, !dbg !8435
  br i1 %cmp30, label %for.body, label %for.end42, !dbg !8436

for.body:                                         ; preds = %for.cond
  call void @llvm.dbg.declare(metadata i32* %j, metadata !8437, metadata !DIExpression()), !dbg !8440
  store i32 0, i32* %j, align 4, !dbg !8440
  br label %for.cond31, !dbg !8441

for.cond31:                                       ; preds = %for.inc, %for.body
  %12 = load i32, i32* %j, align 4, !dbg !8442
  %cmp32 = icmp ult i32 %12, 1, !dbg !8444
  br i1 %cmp32, label %for.body33, label %for.end, !dbg !8445

for.body33:                                       ; preds = %for.cond31
  %p_values34 = getelementptr inbounds %"class.dealii::PolynomialsBDM", %"class.dealii::PolynomialsBDM"* %this1, i32 0, i32 3, !dbg !8446
  %13 = load i32, i32* %i, align 4, !dbg !8448
  %conv35 = zext i32 %13 to i64, !dbg !8448
  %call36 = call dereferenceable(8) double* @_ZNSt6vectorIdSaIdEEixEm(%"class.std::vector.3"* %p_values34, i64 %conv35) #3, !dbg !8446
  %14 = load double, double* %call36, align 8, !dbg !8446
  %15 = load %"class.std::vector.13"*, %"class.std::vector.13"** %values.addr, align 8, !dbg !8449
  %16 = load i32, i32* %i, align 4, !dbg !8450
  %17 = load i32, i32* %j, align 4, !dbg !8451
  %18 = load i32, i32* %n_sub, align 4, !dbg !8452
  %mul = mul i32 %17, %18, !dbg !8453
  %add = add i32 %16, %mul, !dbg !8454
  %conv37 = zext i32 %add to i64, !dbg !8450
  %call38 = call dereferenceable(8) %"class.dealii::Tensor"* @_ZNSt6vectorIN6dealii6TensorILi1ELi1EEESaIS2_EEixEm(%"class.std::vector.13"* %15, i64 %conv37) #3, !dbg !8449
  %19 = load i32, i32* %j, align 4, !dbg !8455
  %call39 = call dereferenceable(8) double* @_ZN6dealii6TensorILi1ELi1EEixEj(%"class.dealii::Tensor"* %call38, i32 %19), !dbg !8449
  store double %14, double* %call39, align 8, !dbg !8456
  br label %for.inc, !dbg !8457

for.inc:                                          ; preds = %for.body33
  %20 = load i32, i32* %j, align 4, !dbg !8458
  %inc = add i32 %20, 1, !dbg !8458
  store i32 %inc, i32* %j, align 4, !dbg !8458
  br label %for.cond31, !dbg !8459, !llvm.loop !8460

for.end:                                          ; preds = %for.cond31
  br label %for.inc40, !dbg !8462

for.inc40:                                        ; preds = %for.end
  %21 = load i32, i32* %i, align 4, !dbg !8463
  %inc41 = add i32 %21, 1, !dbg !8463
  store i32 %inc41, i32* %i, align 4, !dbg !8463
  br label %for.cond, !dbg !8464, !llvm.loop !8465

for.end42:                                        ; preds = %for.cond
  %22 = load %"class.std::vector.18"*, %"class.std::vector.18"** %grads.addr, align 8, !dbg !8467
  %call44 = call %"class.dealii::Tensor.23"* @_ZNSt6vectorIN6dealii6TensorILi2ELi1EEESaIS2_EE5beginEv(%"class.std::vector.18"* %22) #3, !dbg !8468
  %coerce.dive45 = getelementptr inbounds %"class.__gnu_cxx::__normal_iterator.30", %"class.__gnu_cxx::__normal_iterator.30"* %agg.tmp43, i32 0, i32 0, !dbg !8468
  store %"class.dealii::Tensor.23"* %call44, %"class.dealii::Tensor.23"** %coerce.dive45, align 8, !dbg !8468
  %23 = load %"class.std::vector.18"*, %"class.std::vector.18"** %grads.addr, align 8, !dbg !8469
  %call47 = call %"class.dealii::Tensor.23"* @_ZNSt6vectorIN6dealii6TensorILi2ELi1EEESaIS2_EE3endEv(%"class.std::vector.18"* %23) #3, !dbg !8470
  %coerce.dive48 = getelementptr inbounds %"class.__gnu_cxx::__normal_iterator.30", %"class.__gnu_cxx::__normal_iterator.30"* %agg.tmp46, i32 0, i32 0, !dbg !8470
  store %"class.dealii::Tensor.23"* %call47, %"class.dealii::Tensor.23"** %coerce.dive48, align 8, !dbg !8470
  call void @_ZN6dealii6TensorILi2ELi1EEC2Ev(%"class.dealii::Tensor.23"* %ref.tmp49), !dbg !8471
  %coerce.dive50 = getelementptr inbounds %"class.__gnu_cxx::__normal_iterator.30", %"class.__gnu_cxx::__normal_iterator.30"* %agg.tmp43, i32 0, i32 0, !dbg !8472
  %24 = load %"class.dealii::Tensor.23"*, %"class.dealii::Tensor.23"** %coerce.dive50, align 8, !dbg !8472
  %coerce.dive51 = getelementptr inbounds %"class.__gnu_cxx::__normal_iterator.30", %"class.__gnu_cxx::__normal_iterator.30"* %agg.tmp46, i32 0, i32 0, !dbg !8472
  %25 = load %"class.dealii::Tensor.23"*, %"class.dealii::Tensor.23"** %coerce.dive51, align 8, !dbg !8472
  call void @_ZSt4fillIN9__gnu_cxx17__normal_iteratorIPN6dealii6TensorILi2ELi1EEESt6vectorIS4_SaIS4_EEEES4_EvT_SA_RKT0_(%"class.dealii::Tensor.23"* %24, %"class.dealii::Tensor.23"* %25, %"class.dealii::Tensor.23"* dereferenceable(8) %ref.tmp49), !dbg !8472
  call void @llvm.dbg.declare(metadata i32* %i52, metadata !8473, metadata !DIExpression()), !dbg !8475
  store i32 0, i32* %i52, align 4, !dbg !8475
  br label %for.cond53, !dbg !8476

for.cond53:                                       ; preds = %for.inc75, %for.end42
  %26 = load i32, i32* %i52, align 4, !dbg !8477
  %conv54 = zext i32 %26 to i64, !dbg !8477
  %p_grads55 = getelementptr inbounds %"class.dealii::PolynomialsBDM", %"class.dealii::PolynomialsBDM"* %this1, i32 0, i32 4, !dbg !8479
  %call56 = call i64 @_ZNKSt6vectorIN6dealii6TensorILi1ELi1EEESaIS2_EE4sizeEv(%"class.std::vector.13"* %p_grads55) #3, !dbg !8480
  %cmp57 = icmp ult i64 %conv54, %call56, !dbg !8481
  br i1 %cmp57, label %for.body58, label %for.end77, !dbg !8482

for.body58:                                       ; preds = %for.cond53
  call void @llvm.dbg.declare(metadata i32* %j59, metadata !8483, metadata !DIExpression()), !dbg !8486
  store i32 0, i32* %j59, align 4, !dbg !8486
  br label %for.cond60, !dbg !8487

for.cond60:                                       ; preds = %for.inc72, %for.body58
  %27 = load i32, i32* %j59, align 4, !dbg !8488
  %cmp61 = icmp ult i32 %27, 1, !dbg !8490
  br i1 %cmp61, label %for.body62, label %for.end74, !dbg !8491

for.body62:                                       ; preds = %for.cond60
  %p_grads63 = getelementptr inbounds %"class.dealii::PolynomialsBDM", %"class.dealii::PolynomialsBDM"* %this1, i32 0, i32 4, !dbg !8492
  %28 = load i32, i32* %i52, align 4, !dbg !8493
  %conv64 = zext i32 %28 to i64, !dbg !8493
  %call65 = call dereferenceable(8) %"class.dealii::Tensor"* @_ZNSt6vectorIN6dealii6TensorILi1ELi1EEESaIS2_EEixEm(%"class.std::vector.13"* %p_grads63, i64 %conv64) #3, !dbg !8492
  %29 = load %"class.std::vector.18"*, %"class.std::vector.18"** %grads.addr, align 8, !dbg !8494
  %30 = load i32, i32* %i52, align 4, !dbg !8495
  %31 = load i32, i32* %j59, align 4, !dbg !8496
  %32 = load i32, i32* %n_sub, align 4, !dbg !8497
  %mul66 = mul i32 %31, %32, !dbg !8498
  %add67 = add i32 %30, %mul66, !dbg !8499
  %conv68 = zext i32 %add67 to i64, !dbg !8495
  %call69 = call dereferenceable(8) %"class.dealii::Tensor.23"* @_ZNSt6vectorIN6dealii6TensorILi2ELi1EEESaIS2_EEixEm(%"class.std::vector.18"* %29, i64 %conv68) #3, !dbg !8494
  %33 = load i32, i32* %j59, align 4, !dbg !8500
  %call70 = call dereferenceable(8) %"class.dealii::Tensor"* @_ZN6dealii6TensorILi2ELi1EEixEj(%"class.dealii::Tensor.23"* %call69, i32 %33), !dbg !8494
  %call71 = call dereferenceable(8) %"class.dealii::Tensor"* @_ZN6dealii6TensorILi1ELi1EEaSERKS1_(%"class.dealii::Tensor"* %call70, %"class.dealii::Tensor"* dereferenceable(8) %call65), !dbg !8501
  br label %for.inc72, !dbg !8494

for.inc72:                                        ; preds = %for.body62
  %34 = load i32, i32* %j59, align 4, !dbg !8502
  %inc73 = add i32 %34, 1, !dbg !8502
  store i32 %inc73, i32* %j59, align 4, !dbg !8502
  br label %for.cond60, !dbg !8503, !llvm.loop !8504

for.end74:                                        ; preds = %for.cond60
  br label %for.inc75, !dbg !8506

for.inc75:                                        ; preds = %for.end74
  %35 = load i32, i32* %i52, align 4, !dbg !8507
  %inc76 = add i32 %35, 1, !dbg !8507
  store i32 %inc76, i32* %i52, align 4, !dbg !8507
  br label %for.cond53, !dbg !8508, !llvm.loop !8509

for.end77:                                        ; preds = %for.cond53
  %36 = load %"class.std::vector.24"*, %"class.std::vector.24"** %grad_grads.addr, align 8, !dbg !8511
  %call79 = call %"class.dealii::Tensor.29"* @_ZNSt6vectorIN6dealii6TensorILi3ELi1EEESaIS2_EE5beginEv(%"class.std::vector.24"* %36) #3, !dbg !8512
  %coerce.dive80 = getelementptr inbounds %"class.__gnu_cxx::__normal_iterator.31", %"class.__gnu_cxx::__normal_iterator.31"* %agg.tmp78, i32 0, i32 0, !dbg !8512
  store %"class.dealii::Tensor.29"* %call79, %"class.dealii::Tensor.29"** %coerce.dive80, align 8, !dbg !8512
  %37 = load %"class.std::vector.24"*, %"class.std::vector.24"** %grad_grads.addr, align 8, !dbg !8513
  %call82 = call %"class.dealii::Tensor.29"* @_ZNSt6vectorIN6dealii6TensorILi3ELi1EEESaIS2_EE3endEv(%"class.std::vector.24"* %37) #3, !dbg !8514
  %coerce.dive83 = getelementptr inbounds %"class.__gnu_cxx::__normal_iterator.31", %"class.__gnu_cxx::__normal_iterator.31"* %agg.tmp81, i32 0, i32 0, !dbg !8514
  store %"class.dealii::Tensor.29"* %call82, %"class.dealii::Tensor.29"** %coerce.dive83, align 8, !dbg !8514
  call void @_ZN6dealii6TensorILi3ELi1EEC2Ev(%"class.dealii::Tensor.29"* %ref.tmp84), !dbg !8515
  %coerce.dive85 = getelementptr inbounds %"class.__gnu_cxx::__normal_iterator.31", %"class.__gnu_cxx::__normal_iterator.31"* %agg.tmp78, i32 0, i32 0, !dbg !8516
  %38 = load %"class.dealii::Tensor.29"*, %"class.dealii::Tensor.29"** %coerce.dive85, align 8, !dbg !8516
  %coerce.dive86 = getelementptr inbounds %"class.__gnu_cxx::__normal_iterator.31", %"class.__gnu_cxx::__normal_iterator.31"* %agg.tmp81, i32 0, i32 0, !dbg !8516
  %39 = load %"class.dealii::Tensor.29"*, %"class.dealii::Tensor.29"** %coerce.dive86, align 8, !dbg !8516
  call void @_ZSt4fillIN9__gnu_cxx17__normal_iteratorIPN6dealii6TensorILi3ELi1EEESt6vectorIS4_SaIS4_EEEES4_EvT_SA_RKT0_(%"class.dealii::Tensor.29"* %38, %"class.dealii::Tensor.29"* %39, %"class.dealii::Tensor.29"* dereferenceable(8) %ref.tmp84), !dbg !8516
  call void @llvm.dbg.declare(metadata i32* %i87, metadata !8517, metadata !DIExpression()), !dbg !8519
  store i32 0, i32* %i87, align 4, !dbg !8519
  br label %for.cond88, !dbg !8520

for.cond88:                                       ; preds = %for.inc110, %for.end77
  %40 = load i32, i32* %i87, align 4, !dbg !8521
  %conv89 = zext i32 %40 to i64, !dbg !8521
  %p_grad_grads90 = getelementptr inbounds %"class.dealii::PolynomialsBDM", %"class.dealii::PolynomialsBDM"* %this1, i32 0, i32 5, !dbg !8523
  %call91 = call i64 @_ZNKSt6vectorIN6dealii6TensorILi2ELi1EEESaIS2_EE4sizeEv(%"class.std::vector.18"* %p_grad_grads90) #3, !dbg !8524
  %cmp92 = icmp ult i64 %conv89, %call91, !dbg !8525
  br i1 %cmp92, label %for.body93, label %for.end112, !dbg !8526

for.body93:                                       ; preds = %for.cond88
  call void @llvm.dbg.declare(metadata i32* %j94, metadata !8527, metadata !DIExpression()), !dbg !8530
  store i32 0, i32* %j94, align 4, !dbg !8530
  br label %for.cond95, !dbg !8531

for.cond95:                                       ; preds = %for.inc107, %for.body93
  %41 = load i32, i32* %j94, align 4, !dbg !8532
  %cmp96 = icmp ult i32 %41, 1, !dbg !8534
  br i1 %cmp96, label %for.body97, label %for.end109, !dbg !8535

for.body97:                                       ; preds = %for.cond95
  %p_grad_grads98 = getelementptr inbounds %"class.dealii::PolynomialsBDM", %"class.dealii::PolynomialsBDM"* %this1, i32 0, i32 5, !dbg !8536
  %42 = load i32, i32* %i87, align 4, !dbg !8537
  %conv99 = zext i32 %42 to i64, !dbg !8537
  %call100 = call dereferenceable(8) %"class.dealii::Tensor.23"* @_ZNSt6vectorIN6dealii6TensorILi2ELi1EEESaIS2_EEixEm(%"class.std::vector.18"* %p_grad_grads98, i64 %conv99) #3, !dbg !8536
  %43 = load %"class.std::vector.24"*, %"class.std::vector.24"** %grad_grads.addr, align 8, !dbg !8538
  %44 = load i32, i32* %i87, align 4, !dbg !8539
  %45 = load i32, i32* %j94, align 4, !dbg !8540
  %46 = load i32, i32* %n_sub, align 4, !dbg !8541
  %mul101 = mul i32 %45, %46, !dbg !8542
  %add102 = add i32 %44, %mul101, !dbg !8543
  %conv103 = zext i32 %add102 to i64, !dbg !8539
  %call104 = call dereferenceable(8) %"class.dealii::Tensor.29"* @_ZNSt6vectorIN6dealii6TensorILi3ELi1EEESaIS2_EEixEm(%"class.std::vector.24"* %43, i64 %conv103) #3, !dbg !8538
  %47 = load i32, i32* %j94, align 4, !dbg !8544
  %call105 = call dereferenceable(8) %"class.dealii::Tensor.23"* @_ZN6dealii6TensorILi3ELi1EEixEj(%"class.dealii::Tensor.29"* %call104, i32 %47), !dbg !8538
  %call106 = call dereferenceable(8) %"class.dealii::Tensor.23"* @_ZN6dealii6TensorILi2ELi1EEaSERKS1_(%"class.dealii::Tensor.23"* %call105, %"class.dealii::Tensor.23"* dereferenceable(8) %call100), !dbg !8545
  br label %for.inc107, !dbg !8538

for.inc107:                                       ; preds = %for.body97
  %48 = load i32, i32* %j94, align 4, !dbg !8546
  %inc108 = add i32 %48, 1, !dbg !8546
  store i32 %inc108, i32* %j94, align 4, !dbg !8546
  br label %for.cond95, !dbg !8547, !llvm.loop !8548

for.end109:                                       ; preds = %for.cond95
  br label %for.inc110, !dbg !8550

for.inc110:                                       ; preds = %for.end109
  %49 = load i32, i32* %i87, align 4, !dbg !8551
  %inc111 = add i32 %49, 1, !dbg !8551
  store i32 %inc111, i32* %i87, align 4, !dbg !8551
  br label %for.cond88, !dbg !8552, !llvm.loop !8553

for.end112:                                       ; preds = %for.cond88
  call void @llvm.dbg.declare(metadata i32* %start, metadata !8555, metadata !DIExpression()), !dbg !8556
  %50 = load i32, i32* %n_sub, align 4, !dbg !8557
  %mul113 = mul i32 1, %50, !dbg !8558
  store i32 %mul113, i32* %start, align 4, !dbg !8556
  call void @llvm.dbg.declare(metadata %"class.std::vector.3"* %monoval0, metadata !8559, metadata !DIExpression()), !dbg !8560
  call void @_ZNSaIdEC2Ev(%"class.std::allocator.5"* %ref.tmp114) #3, !dbg !8560
  invoke void @_ZNSt6vectorIdSaIdEEC2EmRKS0_(%"class.std::vector.3"* %monoval0, i64 3, %"class.std::allocator.5"* dereferenceable(1) %ref.tmp114)
          to label %invoke.cont unwind label %lpad, !dbg !8560

invoke.cont:                                      ; preds = %for.end112
  call void @_ZNSaIdED2Ev(%"class.std::allocator.5"* %ref.tmp114) #3, !dbg !8560
  call void @llvm.dbg.declare(metadata %"class.std::vector.3"* %monoval1, metadata !8561, metadata !DIExpression()), !dbg !8562
  call void @_ZNSaIdEC2Ev(%"class.std::allocator.5"* %ref.tmp115) #3, !dbg !8562
  invoke void @_ZNSt6vectorIdSaIdEEC2EmRKS0_(%"class.std::vector.3"* %monoval1, i64 3, %"class.std::allocator.5"* dereferenceable(1) %ref.tmp115)
          to label %invoke.cont117 unwind label %lpad116, !dbg !8562

invoke.cont117:                                   ; preds = %invoke.cont
  call void @_ZNSaIdED2Ev(%"class.std::allocator.5"* %ref.tmp115) #3, !dbg !8562
  %monomials = getelementptr inbounds %"class.dealii::PolynomialsBDM", %"class.dealii::PolynomialsBDM"* %this1, i32 0, i32 1, !dbg !8563
  %call118 = call dereferenceable(96) %"class.dealii::Polynomials::Polynomial"* @_ZNKSt6vectorIN6dealii11Polynomials10PolynomialIdEESaIS3_EEixEm(%"class.std::vector"* %monomials, i64 0) #3, !dbg !8563
  %51 = load %"class.dealii::Point"*, %"class.dealii::Point"** %unit_point.addr, align 8, !dbg !8564
  %call121 = invoke double @_ZNK6dealii5PointILi1EEclEj(%"class.dealii::Point"* %51, i32 0)
          to label %invoke.cont120 unwind label %lpad119, !dbg !8564

invoke.cont120:                                   ; preds = %invoke.cont117
  invoke void @_ZNK6dealii11Polynomials10PolynomialIdE5valueEdRSt6vectorIdSaIdEE(%"class.dealii::Polynomials::Polynomial"* %call118, double %call121, %"class.std::vector.3"* dereferenceable(24) %monoval0)
          to label %invoke.cont122 unwind label %lpad119, !dbg !8565

invoke.cont122:                                   ; preds = %invoke.cont120
  %monomials123 = getelementptr inbounds %"class.dealii::PolynomialsBDM", %"class.dealii::PolynomialsBDM"* %this1, i32 0, i32 1, !dbg !8566
  %call124 = call dereferenceable(96) %"class.dealii::Polynomials::Polynomial"* @_ZNKSt6vectorIN6dealii11Polynomials10PolynomialIdEESaIS3_EEixEm(%"class.std::vector"* %monomials123, i64 0) #3, !dbg !8566
  %52 = load %"class.dealii::Point"*, %"class.dealii::Point"** %unit_point.addr, align 8, !dbg !8567
  %call126 = invoke double @_ZNK6dealii5PointILi1EEclEj(%"class.dealii::Point"* %52, i32 1)
          to label %invoke.cont125 unwind label %lpad119, !dbg !8567

invoke.cont125:                                   ; preds = %invoke.cont122
  invoke void @_ZNK6dealii11Polynomials10PolynomialIdE5valueEdRSt6vectorIdSaIdEE(%"class.dealii::Polynomials::Polynomial"* %call124, double %call126, %"class.std::vector.3"* dereferenceable(24) %monoval1)
          to label %invoke.cont127 unwind label %lpad119, !dbg !8568

invoke.cont127:                                   ; preds = %invoke.cont125
  %53 = load %"class.std::vector.13"*, %"class.std::vector.13"** %values.addr, align 8, !dbg !8569
  %call128 = call i64 @_ZNKSt6vectorIN6dealii6TensorILi1ELi1EEESaIS2_EE4sizeEv(%"class.std::vector.13"* %53) #3, !dbg !8571
  %cmp129 = icmp ne i64 %call128, 0, !dbg !8572
  br i1 %cmp129, label %if.then, label %if.end, !dbg !8573

if.then:                                          ; preds = %invoke.cont127
  %call130 = call dereferenceable(8) double* @_ZNSt6vectorIdSaIdEEixEm(%"class.std::vector.3"* %monoval0, i64 0) #3, !dbg !8574
  %54 = load double, double* %call130, align 8, !dbg !8574
  %55 = load %"class.std::vector.13"*, %"class.std::vector.13"** %values.addr, align 8, !dbg !8576
  %56 = load i32, i32* %start, align 4, !dbg !8577
  %conv131 = zext i32 %56 to i64, !dbg !8577
  %call132 = call dereferenceable(8) %"class.dealii::Tensor"* @_ZNSt6vectorIN6dealii6TensorILi1ELi1EEESaIS2_EEixEm(%"class.std::vector.13"* %55, i64 %conv131) #3, !dbg !8576
  %call134 = invoke dereferenceable(8) double* @_ZN6dealii6TensorILi1ELi1EEixEj(%"class.dealii::Tensor"* %call132, i32 0)
          to label %invoke.cont133 unwind label %lpad119, !dbg !8576

invoke.cont133:                                   ; preds = %if.then
  store double %54, double* %call134, align 8, !dbg !8578
  %57 = load %"class.dealii::Point"*, %"class.dealii::Point"** %unit_point.addr, align 8, !dbg !8579
  %call136 = invoke double @_ZNK6dealii5PointILi1EEclEj(%"class.dealii::Point"* %57, i32 1)
          to label %invoke.cont135 unwind label %lpad119, !dbg !8579

invoke.cont135:                                   ; preds = %invoke.cont133
  %fneg = fneg double %call136, !dbg !8580
  %call137 = call dereferenceable(8) double* @_ZNSt6vectorIdSaIdEEixEm(%"class.std::vector.3"* %monoval0, i64 1) #3, !dbg !8581
  %58 = load double, double* %call137, align 8, !dbg !8581
  %mul138 = fmul double %fneg, %58, !dbg !8582
  %59 = load %"class.std::vector.13"*, %"class.std::vector.13"** %values.addr, align 8, !dbg !8583
  %60 = load i32, i32* %start, align 4, !dbg !8584
  %conv139 = zext i32 %60 to i64, !dbg !8584
  %call140 = call dereferenceable(8) %"class.dealii::Tensor"* @_ZNSt6vectorIN6dealii6TensorILi1ELi1EEESaIS2_EEixEm(%"class.std::vector.13"* %59, i64 %conv139) #3, !dbg !8583
  %call142 = invoke dereferenceable(8) double* @_ZN6dealii6TensorILi1ELi1EEixEj(%"class.dealii::Tensor"* %call140, i32 1)
          to label %invoke.cont141 unwind label %lpad119, !dbg !8583

invoke.cont141:                                   ; preds = %invoke.cont135
  store double %mul138, double* %call142, align 8, !dbg !8585
  %61 = load %"class.dealii::Point"*, %"class.dealii::Point"** %unit_point.addr, align 8, !dbg !8586
  %call144 = invoke double @_ZNK6dealii5PointILi1EEclEj(%"class.dealii::Point"* %61, i32 0)
          to label %invoke.cont143 unwind label %lpad119, !dbg !8586

invoke.cont143:                                   ; preds = %invoke.cont141
  %fneg145 = fneg double %call144, !dbg !8587
  %call146 = call dereferenceable(8) double* @_ZNSt6vectorIdSaIdEEixEm(%"class.std::vector.3"* %monoval1, i64 1) #3, !dbg !8588
  %62 = load double, double* %call146, align 8, !dbg !8588
  %mul147 = fmul double %fneg145, %62, !dbg !8589
  %63 = load %"class.std::vector.13"*, %"class.std::vector.13"** %values.addr, align 8, !dbg !8590
  %64 = load i32, i32* %start, align 4, !dbg !8591
  %add148 = add i32 %64, 1, !dbg !8592
  %conv149 = zext i32 %add148 to i64, !dbg !8591
  %call150 = call dereferenceable(8) %"class.dealii::Tensor"* @_ZNSt6vectorIN6dealii6TensorILi1ELi1EEESaIS2_EEixEm(%"class.std::vector.13"* %63, i64 %conv149) #3, !dbg !8590
  %call152 = invoke dereferenceable(8) double* @_ZN6dealii6TensorILi1ELi1EEixEj(%"class.dealii::Tensor"* %call150, i32 0)
          to label %invoke.cont151 unwind label %lpad119, !dbg !8590

invoke.cont151:                                   ; preds = %invoke.cont143
  store double %mul147, double* %call152, align 8, !dbg !8593
  %call153 = call dereferenceable(8) double* @_ZNSt6vectorIdSaIdEEixEm(%"class.std::vector.3"* %monoval1, i64 0) #3, !dbg !8594
  %65 = load double, double* %call153, align 8, !dbg !8594
  %66 = load %"class.std::vector.13"*, %"class.std::vector.13"** %values.addr, align 8, !dbg !8595
  %67 = load i32, i32* %start, align 4, !dbg !8596
  %add154 = add i32 %67, 1, !dbg !8597
  %conv155 = zext i32 %add154 to i64, !dbg !8596
  %call156 = call dereferenceable(8) %"class.dealii::Tensor"* @_ZNSt6vectorIN6dealii6TensorILi1ELi1EEESaIS2_EEixEm(%"class.std::vector.13"* %66, i64 %conv155) #3, !dbg !8595
  %call158 = invoke dereferenceable(8) double* @_ZN6dealii6TensorILi1ELi1EEixEj(%"class.dealii::Tensor"* %call156, i32 1)
          to label %invoke.cont157 unwind label %lpad119, !dbg !8595

invoke.cont157:                                   ; preds = %invoke.cont151
  store double %65, double* %call158, align 8, !dbg !8598
  br label %if.end, !dbg !8599

lpad:                                             ; preds = %for.end112
  %68 = landingpad { i8*, i32 }
          cleanup, !dbg !8600
  %69 = extractvalue { i8*, i32 } %68, 0, !dbg !8600
  store i8* %69, i8** %exn.slot, align 8, !dbg !8600
  %70 = extractvalue { i8*, i32 } %68, 1, !dbg !8600
  store i32 %70, i32* %ehselector.slot, align 4, !dbg !8600
  call void @_ZNSaIdED2Ev(%"class.std::allocator.5"* %ref.tmp114) #3, !dbg !8560
  br label %eh.resume, !dbg !8560

lpad116:                                          ; preds = %invoke.cont
  %71 = landingpad { i8*, i32 }
          cleanup, !dbg !8600
  %72 = extractvalue { i8*, i32 } %71, 0, !dbg !8600
  store i8* %72, i8** %exn.slot, align 8, !dbg !8600
  %73 = extractvalue { i8*, i32 } %71, 1, !dbg !8600
  store i32 %73, i32* %ehselector.slot, align 4, !dbg !8600
  call void @_ZNSaIdED2Ev(%"class.std::allocator.5"* %ref.tmp115) #3, !dbg !8562
  br label %ehcleanup, !dbg !8562

lpad119:                                          ; preds = %invoke.cont226, %invoke.cont220, %invoke.cont218, %invoke.cont213, %invoke.cont211, %invoke.cont203, %invoke.cont201, %invoke.cont199, %invoke.cont192, %invoke.cont190, %invoke.cont184, %invoke.cont182, %invoke.cont175, %invoke.cont173, %invoke.cont171, %invoke.cont167, %invoke.cont165, %if.then161, %invoke.cont151, %invoke.cont143, %invoke.cont141, %invoke.cont135, %invoke.cont133, %if.then, %invoke.cont125, %invoke.cont122, %invoke.cont120, %invoke.cont117
  %74 = landingpad { i8*, i32 }
          cleanup, !dbg !8600
  %75 = extractvalue { i8*, i32 } %74, 0, !dbg !8600
  store i8* %75, i8** %exn.slot, align 8, !dbg !8600
  %76 = extractvalue { i8*, i32 } %74, 1, !dbg !8600
  store i32 %76, i32* %ehselector.slot, align 4, !dbg !8600
  call void @_ZNSt6vectorIdSaIdEED2Ev(%"class.std::vector.3"* %monoval1) #3, !dbg !8600
  br label %ehcleanup, !dbg !8600

if.end:                                           ; preds = %invoke.cont157, %invoke.cont127
  %77 = load %"class.std::vector.18"*, %"class.std::vector.18"** %grads.addr, align 8, !dbg !8601
  %call159 = call i64 @_ZNKSt6vectorIN6dealii6TensorILi2ELi1EEESaIS2_EE4sizeEv(%"class.std::vector.18"* %77) #3, !dbg !8603
  %cmp160 = icmp ne i64 %call159, 0, !dbg !8604
  br i1 %cmp160, label %if.then161, label %if.end230, !dbg !8605

if.then161:                                       ; preds = %if.end
  %call162 = call dereferenceable(8) double* @_ZNSt6vectorIdSaIdEEixEm(%"class.std::vector.3"* %monoval0, i64 1) #3, !dbg !8606
  %78 = load double, double* %call162, align 8, !dbg !8606
  %79 = load %"class.std::vector.18"*, %"class.std::vector.18"** %grads.addr, align 8, !dbg !8608
  %80 = load i32, i32* %start, align 4, !dbg !8609
  %conv163 = zext i32 %80 to i64, !dbg !8609
  %call164 = call dereferenceable(8) %"class.dealii::Tensor.23"* @_ZNSt6vectorIN6dealii6TensorILi2ELi1EEESaIS2_EEixEm(%"class.std::vector.18"* %79, i64 %conv163) #3, !dbg !8608
  %call166 = invoke dereferenceable(8) %"class.dealii::Tensor"* @_ZN6dealii6TensorILi2ELi1EEixEj(%"class.dealii::Tensor.23"* %call164, i32 0)
          to label %invoke.cont165 unwind label %lpad119, !dbg !8608

invoke.cont165:                                   ; preds = %if.then161
  %call168 = invoke dereferenceable(8) double* @_ZN6dealii6TensorILi1ELi1EEixEj(%"class.dealii::Tensor"* %call166, i32 0)
          to label %invoke.cont167 unwind label %lpad119, !dbg !8608

invoke.cont167:                                   ; preds = %invoke.cont165
  store double %78, double* %call168, align 8, !dbg !8610
  %81 = load %"class.std::vector.18"*, %"class.std::vector.18"** %grads.addr, align 8, !dbg !8611
  %82 = load i32, i32* %start, align 4, !dbg !8612
  %conv169 = zext i32 %82 to i64, !dbg !8612
  %call170 = call dereferenceable(8) %"class.dealii::Tensor.23"* @_ZNSt6vectorIN6dealii6TensorILi2ELi1EEESaIS2_EEixEm(%"class.std::vector.18"* %81, i64 %conv169) #3, !dbg !8611
  %call172 = invoke dereferenceable(8) %"class.dealii::Tensor"* @_ZN6dealii6TensorILi2ELi1EEixEj(%"class.dealii::Tensor.23"* %call170, i32 0)
          to label %invoke.cont171 unwind label %lpad119, !dbg !8611

invoke.cont171:                                   ; preds = %invoke.cont167
  %call174 = invoke dereferenceable(8) double* @_ZN6dealii6TensorILi1ELi1EEixEj(%"class.dealii::Tensor"* %call172, i32 1)
          to label %invoke.cont173 unwind label %lpad119, !dbg !8611

invoke.cont173:                                   ; preds = %invoke.cont171
  store double 0.000000e+00, double* %call174, align 8, !dbg !8613
  %83 = load %"class.dealii::Point"*, %"class.dealii::Point"** %unit_point.addr, align 8, !dbg !8614
  %call176 = invoke double @_ZNK6dealii5PointILi1EEclEj(%"class.dealii::Point"* %83, i32 1)
          to label %invoke.cont175 unwind label %lpad119, !dbg !8614

invoke.cont175:                                   ; preds = %invoke.cont173
  %fneg177 = fneg double %call176, !dbg !8615
  %call178 = call dereferenceable(8) double* @_ZNSt6vectorIdSaIdEEixEm(%"class.std::vector.3"* %monoval0, i64 2) #3, !dbg !8616
  %84 = load double, double* %call178, align 8, !dbg !8616
  %mul179 = fmul double %fneg177, %84, !dbg !8617
  %85 = load %"class.std::vector.18"*, %"class.std::vector.18"** %grads.addr, align 8, !dbg !8618
  %86 = load i32, i32* %start, align 4, !dbg !8619
  %conv180 = zext i32 %86 to i64, !dbg !8619
  %call181 = call dereferenceable(8) %"class.dealii::Tensor.23"* @_ZNSt6vectorIN6dealii6TensorILi2ELi1EEESaIS2_EEixEm(%"class.std::vector.18"* %85, i64 %conv180) #3, !dbg !8618
  %call183 = invoke dereferenceable(8) %"class.dealii::Tensor"* @_ZN6dealii6TensorILi2ELi1EEixEj(%"class.dealii::Tensor.23"* %call181, i32 1)
          to label %invoke.cont182 unwind label %lpad119, !dbg !8618

invoke.cont182:                                   ; preds = %invoke.cont175
  %call185 = invoke dereferenceable(8) double* @_ZN6dealii6TensorILi1ELi1EEixEj(%"class.dealii::Tensor"* %call183, i32 0)
          to label %invoke.cont184 unwind label %lpad119, !dbg !8618

invoke.cont184:                                   ; preds = %invoke.cont182
  store double %mul179, double* %call185, align 8, !dbg !8620
  %call186 = call dereferenceable(8) double* @_ZNSt6vectorIdSaIdEEixEm(%"class.std::vector.3"* %monoval0, i64 1) #3, !dbg !8621
  %87 = load double, double* %call186, align 8, !dbg !8621
  %fneg187 = fneg double %87, !dbg !8622
  %88 = load %"class.std::vector.18"*, %"class.std::vector.18"** %grads.addr, align 8, !dbg !8623
  %89 = load i32, i32* %start, align 4, !dbg !8624
  %conv188 = zext i32 %89 to i64, !dbg !8624
  %call189 = call dereferenceable(8) %"class.dealii::Tensor.23"* @_ZNSt6vectorIN6dealii6TensorILi2ELi1EEESaIS2_EEixEm(%"class.std::vector.18"* %88, i64 %conv188) #3, !dbg !8623
  %call191 = invoke dereferenceable(8) %"class.dealii::Tensor"* @_ZN6dealii6TensorILi2ELi1EEixEj(%"class.dealii::Tensor.23"* %call189, i32 1)
          to label %invoke.cont190 unwind label %lpad119, !dbg !8623

invoke.cont190:                                   ; preds = %invoke.cont184
  %call193 = invoke dereferenceable(8) double* @_ZN6dealii6TensorILi1ELi1EEixEj(%"class.dealii::Tensor"* %call191, i32 1)
          to label %invoke.cont192 unwind label %lpad119, !dbg !8623

invoke.cont192:                                   ; preds = %invoke.cont190
  store double %fneg187, double* %call193, align 8, !dbg !8625
  %call194 = call dereferenceable(8) double* @_ZNSt6vectorIdSaIdEEixEm(%"class.std::vector.3"* %monoval1, i64 1) #3, !dbg !8626
  %90 = load double, double* %call194, align 8, !dbg !8626
  %fneg195 = fneg double %90, !dbg !8627
  %91 = load %"class.std::vector.18"*, %"class.std::vector.18"** %grads.addr, align 8, !dbg !8628
  %92 = load i32, i32* %start, align 4, !dbg !8629
  %add196 = add i32 %92, 1, !dbg !8630
  %conv197 = zext i32 %add196 to i64, !dbg !8629
  %call198 = call dereferenceable(8) %"class.dealii::Tensor.23"* @_ZNSt6vectorIN6dealii6TensorILi2ELi1EEESaIS2_EEixEm(%"class.std::vector.18"* %91, i64 %conv197) #3, !dbg !8628
  %call200 = invoke dereferenceable(8) %"class.dealii::Tensor"* @_ZN6dealii6TensorILi2ELi1EEixEj(%"class.dealii::Tensor.23"* %call198, i32 0)
          to label %invoke.cont199 unwind label %lpad119, !dbg !8628

invoke.cont199:                                   ; preds = %invoke.cont192
  %call202 = invoke dereferenceable(8) double* @_ZN6dealii6TensorILi1ELi1EEixEj(%"class.dealii::Tensor"* %call200, i32 0)
          to label %invoke.cont201 unwind label %lpad119, !dbg !8628

invoke.cont201:                                   ; preds = %invoke.cont199
  store double %fneg195, double* %call202, align 8, !dbg !8631
  %93 = load %"class.dealii::Point"*, %"class.dealii::Point"** %unit_point.addr, align 8, !dbg !8632
  %call204 = invoke double @_ZNK6dealii5PointILi1EEclEj(%"class.dealii::Point"* %93, i32 0)
          to label %invoke.cont203 unwind label %lpad119, !dbg !8632

invoke.cont203:                                   ; preds = %invoke.cont201
  %fneg205 = fneg double %call204, !dbg !8633
  %call206 = call dereferenceable(8) double* @_ZNSt6vectorIdSaIdEEixEm(%"class.std::vector.3"* %monoval1, i64 2) #3, !dbg !8634
  %94 = load double, double* %call206, align 8, !dbg !8634
  %mul207 = fmul double %fneg205, %94, !dbg !8635
  %95 = load %"class.std::vector.18"*, %"class.std::vector.18"** %grads.addr, align 8, !dbg !8636
  %96 = load i32, i32* %start, align 4, !dbg !8637
  %add208 = add i32 %96, 1, !dbg !8638
  %conv209 = zext i32 %add208 to i64, !dbg !8637
  %call210 = call dereferenceable(8) %"class.dealii::Tensor.23"* @_ZNSt6vectorIN6dealii6TensorILi2ELi1EEESaIS2_EEixEm(%"class.std::vector.18"* %95, i64 %conv209) #3, !dbg !8636
  %call212 = invoke dereferenceable(8) %"class.dealii::Tensor"* @_ZN6dealii6TensorILi2ELi1EEixEj(%"class.dealii::Tensor.23"* %call210, i32 0)
          to label %invoke.cont211 unwind label %lpad119, !dbg !8636

invoke.cont211:                                   ; preds = %invoke.cont203
  %call214 = invoke dereferenceable(8) double* @_ZN6dealii6TensorILi1ELi1EEixEj(%"class.dealii::Tensor"* %call212, i32 1)
          to label %invoke.cont213 unwind label %lpad119, !dbg !8636

invoke.cont213:                                   ; preds = %invoke.cont211
  store double %mul207, double* %call214, align 8, !dbg !8639
  %97 = load %"class.std::vector.18"*, %"class.std::vector.18"** %grads.addr, align 8, !dbg !8640
  %98 = load i32, i32* %start, align 4, !dbg !8641
  %add215 = add i32 %98, 1, !dbg !8642
  %conv216 = zext i32 %add215 to i64, !dbg !8641
  %call217 = call dereferenceable(8) %"class.dealii::Tensor.23"* @_ZNSt6vectorIN6dealii6TensorILi2ELi1EEESaIS2_EEixEm(%"class.std::vector.18"* %97, i64 %conv216) #3, !dbg !8640
  %call219 = invoke dereferenceable(8) %"class.dealii::Tensor"* @_ZN6dealii6TensorILi2ELi1EEixEj(%"class.dealii::Tensor.23"* %call217, i32 1)
          to label %invoke.cont218 unwind label %lpad119, !dbg !8640

invoke.cont218:                                   ; preds = %invoke.cont213
  %call221 = invoke dereferenceable(8) double* @_ZN6dealii6TensorILi1ELi1EEixEj(%"class.dealii::Tensor"* %call219, i32 0)
          to label %invoke.cont220 unwind label %lpad119, !dbg !8640

invoke.cont220:                                   ; preds = %invoke.cont218
  store double 0.000000e+00, double* %call221, align 8, !dbg !8643
  %call222 = call dereferenceable(8) double* @_ZNSt6vectorIdSaIdEEixEm(%"class.std::vector.3"* %monoval1, i64 1) #3, !dbg !8644
  %99 = load double, double* %call222, align 8, !dbg !8644
  %100 = load %"class.std::vector.18"*, %"class.std::vector.18"** %grads.addr, align 8, !dbg !8645
  %101 = load i32, i32* %start, align 4, !dbg !8646
  %add223 = add i32 %101, 1, !dbg !8647
  %conv224 = zext i32 %add223 to i64, !dbg !8646
  %call225 = call dereferenceable(8) %"class.dealii::Tensor.23"* @_ZNSt6vectorIN6dealii6TensorILi2ELi1EEESaIS2_EEixEm(%"class.std::vector.18"* %100, i64 %conv224) #3, !dbg !8645
  %call227 = invoke dereferenceable(8) %"class.dealii::Tensor"* @_ZN6dealii6TensorILi2ELi1EEixEj(%"class.dealii::Tensor.23"* %call225, i32 1)
          to label %invoke.cont226 unwind label %lpad119, !dbg !8645

invoke.cont226:                                   ; preds = %invoke.cont220
  %call229 = invoke dereferenceable(8) double* @_ZN6dealii6TensorILi1ELi1EEixEj(%"class.dealii::Tensor"* %call227, i32 1)
          to label %invoke.cont228 unwind label %lpad119, !dbg !8645

invoke.cont228:                                   ; preds = %invoke.cont226
  store double %99, double* %call229, align 8, !dbg !8648
  br label %if.end230, !dbg !8649

if.end230:                                        ; preds = %invoke.cont228, %if.end
  %102 = load %"class.std::vector.24"*, %"class.std::vector.24"** %grad_grads.addr, align 8, !dbg !8650
  %call231 = call i64 @_ZNKSt6vectorIN6dealii6TensorILi3ELi1EEESaIS2_EE4sizeEv(%"class.std::vector.24"* %102) #3, !dbg !8652
  %cmp232 = icmp ne i64 %call231, 0, !dbg !8653
  br i1 %cmp232, label %if.then233, label %if.end234, !dbg !8654

if.then233:                                       ; preds = %if.end230
  br label %if.end234, !dbg !8655

if.end234:                                        ; preds = %if.then233, %if.end230
  call void @_ZNSt6vectorIdSaIdEED2Ev(%"class.std::vector.3"* %monoval1) #3, !dbg !8600
  call void @_ZNSt6vectorIdSaIdEED2Ev(%"class.std::vector.3"* %monoval0) #3, !dbg !8600
  ret void, !dbg !8600

ehcleanup:                                        ; preds = %lpad119, %lpad116
  call void @_ZNSt6vectorIdSaIdEED2Ev(%"class.std::vector.3"* %monoval0) #3, !dbg !8600
  br label %eh.resume, !dbg !8600

eh.resume:                                        ; preds = %ehcleanup, %lpad
  %exn = load i8*, i8** %exn.slot, align 8, !dbg !8560
  %sel = load i32, i32* %ehselector.slot, align 4, !dbg !8560
  %lpad.val = insertvalue { i8*, i32 } undef, i8* %exn, 0, !dbg !8560
  %lpad.val235 = insertvalue { i8*, i32 } %lpad.val, i32 %sel, 1, !dbg !8560
  resume { i8*, i32 } %lpad.val235, !dbg !8560
}

; Function Attrs: noinline uwtable
define linkonce_odr dso_local void @_ZNSt6vectorIdSaIdEE6resizeEm(%"class.std::vector.3"* %this, i64 %__new_size) #0 comdat align 2 !dbg !8657 {
entry:
  %this.addr = alloca %"class.std::vector.3"*, align 8
  %__new_size.addr = alloca i64, align 8
  store %"class.std::vector.3"* %this, %"class.std::vector.3"** %this.addr, align 8
  call void @llvm.dbg.declare(metadata %"class.std::vector.3"** %this.addr, metadata !8658, metadata !DIExpression()), !dbg !8659
  store i64 %__new_size, i64* %__new_size.addr, align 8
  call void @llvm.dbg.declare(metadata i64* %__new_size.addr, metadata !8660, metadata !DIExpression()), !dbg !8661
  %this1 = load %"class.std::vector.3"*, %"class.std::vector.3"** %this.addr, align 8
  %0 = load i64, i64* %__new_size.addr, align 8, !dbg !8662
  %call = call i64 @_ZNKSt6vectorIdSaIdEE4sizeEv(%"class.std::vector.3"* %this1) #3, !dbg !8664
  %cmp = icmp ugt i64 %0, %call, !dbg !8665
  br i1 %cmp, label %if.then, label %if.else, !dbg !8666

if.then:                                          ; preds = %entry
  %1 = load i64, i64* %__new_size.addr, align 8, !dbg !8667
  %call2 = call i64 @_ZNKSt6vectorIdSaIdEE4sizeEv(%"class.std::vector.3"* %this1) #3, !dbg !8668
  %sub = sub i64 %1, %call2, !dbg !8669
  call void @_ZNSt6vectorIdSaIdEE17_M_default_appendEm(%"class.std::vector.3"* %this1, i64 %sub), !dbg !8670
  br label %if.end6, !dbg !8670

if.else:                                          ; preds = %entry
  %2 = load i64, i64* %__new_size.addr, align 8, !dbg !8671
  %call3 = call i64 @_ZNKSt6vectorIdSaIdEE4sizeEv(%"class.std::vector.3"* %this1) #3, !dbg !8673
  %cmp4 = icmp ult i64 %2, %call3, !dbg !8674
  br i1 %cmp4, label %if.then5, label %if.end, !dbg !8675

if.then5:                                         ; preds = %if.else
  %3 = bitcast %"class.std::vector.3"* %this1 to %"struct.std::_Vector_base.4"*, !dbg !8676
  %_M_impl = getelementptr inbounds %"struct.std::_Vector_base.4", %"struct.std::_Vector_base.4"* %3, i32 0, i32 0, !dbg !8676
  %4 = bitcast %"struct.std::_Vector_base<double, std::allocator<double> >::_Vector_impl"* %_M_impl to %"struct.std::_Vector_base<double, std::allocator<double> >::_Vector_impl_data"*, !dbg !8677
  %_M_start = getelementptr inbounds %"struct.std::_Vector_base<double, std::allocator<double> >::_Vector_impl_data", %"struct.std::_Vector_base<double, std::allocator<double> >::_Vector_impl_data"* %4, i32 0, i32 0, !dbg !8678
  %5 = load double*, double** %_M_start, align 8, !dbg !8678
  %6 = load i64, i64* %__new_size.addr, align 8, !dbg !8679
  %add.ptr = getelementptr inbounds double, double* %5, i64 %6, !dbg !8680
  call void @_ZNSt6vectorIdSaIdEE15_M_erase_at_endEPd(%"class.std::vector.3"* %this1, double* %add.ptr) #3, !dbg !8681
  br label %if.end, !dbg !8681

if.end:                                           ; preds = %if.then5, %if.else
  br label %if.end6

if.end6:                                          ; preds = %if.end, %if.then
  ret void, !dbg !8682
}

; Function Attrs: noinline nounwind uwtable
define linkonce_odr dso_local i64 @_ZNKSt6vectorIN6dealii6TensorILi1ELi1EEESaIS2_EE4sizeEv(%"class.std::vector.13"* %this) #5 comdat align 2 !dbg !8683 {
entry:
  %this.addr = alloca %"class.std::vector.13"*, align 8
  store %"class.std::vector.13"* %this, %"class.std::vector.13"** %this.addr, align 8
  call void @llvm.dbg.declare(metadata %"class.std::vector.13"** %this.addr, metadata !8684, metadata !DIExpression()), !dbg !8686
  %this1 = load %"class.std::vector.13"*, %"class.std::vector.13"** %this.addr, align 8
  %0 = bitcast %"class.std::vector.13"* %this1 to %"struct.std::_Vector_base.14"*, !dbg !8687
  %_M_impl = getelementptr inbounds %"struct.std::_Vector_base.14", %"struct.std::_Vector_base.14"* %0, i32 0, i32 0, !dbg !8687
  %1 = bitcast %"struct.std::_Vector_base<dealii::Tensor<1, 1>, std::allocator<dealii::Tensor<1, 1> > >::_Vector_impl"* %_M_impl to %"struct.std::_Vector_base<dealii::Tensor<1, 1>, std::allocator<dealii::Tensor<1, 1> > >::_Vector_impl_data"*, !dbg !8688
  %_M_finish = getelementptr inbounds %"struct.std::_Vector_base<dealii::Tensor<1, 1>, std::allocator<dealii::Tensor<1, 1> > >::_Vector_impl_data", %"struct.std::_Vector_base<dealii::Tensor<1, 1>, std::allocator<dealii::Tensor<1, 1> > >::_Vector_impl_data"* %1, i32 0, i32 1, !dbg !8689
  %2 = load %"class.dealii::Tensor"*, %"class.dealii::Tensor"** %_M_finish, align 8, !dbg !8689
  %3 = bitcast %"class.std::vector.13"* %this1 to %"struct.std::_Vector_base.14"*, !dbg !8690
  %_M_impl2 = getelementptr inbounds %"struct.std::_Vector_base.14", %"struct.std::_Vector_base.14"* %3, i32 0, i32 0, !dbg !8690
  %4 = bitcast %"struct.std::_Vector_base<dealii::Tensor<1, 1>, std::allocator<dealii::Tensor<1, 1> > >::_Vector_impl"* %_M_impl2 to %"struct.std::_Vector_base<dealii::Tensor<1, 1>, std::allocator<dealii::Tensor<1, 1> > >::_Vector_impl_data"*, !dbg !8691
  %_M_start = getelementptr inbounds %"struct.std::_Vector_base<dealii::Tensor<1, 1>, std::allocator<dealii::Tensor<1, 1> > >::_Vector_impl_data", %"struct.std::_Vector_base<dealii::Tensor<1, 1>, std::allocator<dealii::Tensor<1, 1> > >::_Vector_impl_data"* %4, i32 0, i32 0, !dbg !8692
  %5 = load %"class.dealii::Tensor"*, %"class.dealii::Tensor"** %_M_start, align 8, !dbg !8692
  %sub.ptr.lhs.cast = ptrtoint %"class.dealii::Tensor"* %2 to i64, !dbg !8693
  %sub.ptr.rhs.cast = ptrtoint %"class.dealii::Tensor"* %5 to i64, !dbg !8693
  %sub.ptr.sub = sub i64 %sub.ptr.lhs.cast, %sub.ptr.rhs.cast, !dbg !8693
  %sub.ptr.div = sdiv exact i64 %sub.ptr.sub, 8, !dbg !8693
  ret i64 %sub.ptr.div, !dbg !8694
}

; Function Attrs: noinline uwtable
define linkonce_odr dso_local void @_ZNSt6vectorIN6dealii6TensorILi1ELi1EEESaIS2_EE6resizeEm(%"class.std::vector.13"* %this, i64 %__new_size) #0 comdat align 2 !dbg !8695 {
entry:
  %this.addr = alloca %"class.std::vector.13"*, align 8
  %__new_size.addr = alloca i64, align 8
  store %"class.std::vector.13"* %this, %"class.std::vector.13"** %this.addr, align 8
  call void @llvm.dbg.declare(metadata %"class.std::vector.13"** %this.addr, metadata !8696, metadata !DIExpression()), !dbg !8697
  store i64 %__new_size, i64* %__new_size.addr, align 8
  call void @llvm.dbg.declare(metadata i64* %__new_size.addr, metadata !8698, metadata !DIExpression()), !dbg !8699
  %this1 = load %"class.std::vector.13"*, %"class.std::vector.13"** %this.addr, align 8
  %0 = load i64, i64* %__new_size.addr, align 8, !dbg !8700
  %call = call i64 @_ZNKSt6vectorIN6dealii6TensorILi1ELi1EEESaIS2_EE4sizeEv(%"class.std::vector.13"* %this1) #3, !dbg !8702
  %cmp = icmp ugt i64 %0, %call, !dbg !8703
  br i1 %cmp, label %if.then, label %if.else, !dbg !8704

if.then:                                          ; preds = %entry
  %1 = load i64, i64* %__new_size.addr, align 8, !dbg !8705
  %call2 = call i64 @_ZNKSt6vectorIN6dealii6TensorILi1ELi1EEESaIS2_EE4sizeEv(%"class.std::vector.13"* %this1) #3, !dbg !8706
  %sub = sub i64 %1, %call2, !dbg !8707
  call void @_ZNSt6vectorIN6dealii6TensorILi1ELi1EEESaIS2_EE17_M_default_appendEm(%"class.std::vector.13"* %this1, i64 %sub), !dbg !8708
  br label %if.end6, !dbg !8708

if.else:                                          ; preds = %entry
  %2 = load i64, i64* %__new_size.addr, align 8, !dbg !8709
  %call3 = call i64 @_ZNKSt6vectorIN6dealii6TensorILi1ELi1EEESaIS2_EE4sizeEv(%"class.std::vector.13"* %this1) #3, !dbg !8711
  %cmp4 = icmp ult i64 %2, %call3, !dbg !8712
  br i1 %cmp4, label %if.then5, label %if.end, !dbg !8713

if.then5:                                         ; preds = %if.else
  %3 = bitcast %"class.std::vector.13"* %this1 to %"struct.std::_Vector_base.14"*, !dbg !8714
  %_M_impl = getelementptr inbounds %"struct.std::_Vector_base.14", %"struct.std::_Vector_base.14"* %3, i32 0, i32 0, !dbg !8714
  %4 = bitcast %"struct.std::_Vector_base<dealii::Tensor<1, 1>, std::allocator<dealii::Tensor<1, 1> > >::_Vector_impl"* %_M_impl to %"struct.std::_Vector_base<dealii::Tensor<1, 1>, std::allocator<dealii::Tensor<1, 1> > >::_Vector_impl_data"*, !dbg !8715
  %_M_start = getelementptr inbounds %"struct.std::_Vector_base<dealii::Tensor<1, 1>, std::allocator<dealii::Tensor<1, 1> > >::_Vector_impl_data", %"struct.std::_Vector_base<dealii::Tensor<1, 1>, std::allocator<dealii::Tensor<1, 1> > >::_Vector_impl_data"* %4, i32 0, i32 0, !dbg !8716
  %5 = load %"class.dealii::Tensor"*, %"class.dealii::Tensor"** %_M_start, align 8, !dbg !8716
  %6 = load i64, i64* %__new_size.addr, align 8, !dbg !8717
  %add.ptr = getelementptr inbounds %"class.dealii::Tensor", %"class.dealii::Tensor"* %5, i64 %6, !dbg !8718
  call void @_ZNSt6vectorIN6dealii6TensorILi1ELi1EEESaIS2_EE15_M_erase_at_endEPS2_(%"class.std::vector.13"* %this1, %"class.dealii::Tensor"* %add.ptr) #3, !dbg !8719
  br label %if.end, !dbg !8719

if.end:                                           ; preds = %if.then5, %if.else
  br label %if.end6

if.end6:                                          ; preds = %if.end, %if.then
  ret void, !dbg !8720
}

; Function Attrs: noinline nounwind uwtable
define linkonce_odr dso_local i64 @_ZNKSt6vectorIN6dealii6TensorILi2ELi1EEESaIS2_EE4sizeEv(%"class.std::vector.18"* %this) #5 comdat align 2 !dbg !8721 {
entry:
  %this.addr = alloca %"class.std::vector.18"*, align 8
  store %"class.std::vector.18"* %this, %"class.std::vector.18"** %this.addr, align 8
  call void @llvm.dbg.declare(metadata %"class.std::vector.18"** %this.addr, metadata !8722, metadata !DIExpression()), !dbg !8724
  %this1 = load %"class.std::vector.18"*, %"class.std::vector.18"** %this.addr, align 8
  %0 = bitcast %"class.std::vector.18"* %this1 to %"struct.std::_Vector_base.19"*, !dbg !8725
  %_M_impl = getelementptr inbounds %"struct.std::_Vector_base.19", %"struct.std::_Vector_base.19"* %0, i32 0, i32 0, !dbg !8725
  %1 = bitcast %"struct.std::_Vector_base<dealii::Tensor<2, 1>, std::allocator<dealii::Tensor<2, 1> > >::_Vector_impl"* %_M_impl to %"struct.std::_Vector_base<dealii::Tensor<2, 1>, std::allocator<dealii::Tensor<2, 1> > >::_Vector_impl_data"*, !dbg !8726
  %_M_finish = getelementptr inbounds %"struct.std::_Vector_base<dealii::Tensor<2, 1>, std::allocator<dealii::Tensor<2, 1> > >::_Vector_impl_data", %"struct.std::_Vector_base<dealii::Tensor<2, 1>, std::allocator<dealii::Tensor<2, 1> > >::_Vector_impl_data"* %1, i32 0, i32 1, !dbg !8727
  %2 = load %"class.dealii::Tensor.23"*, %"class.dealii::Tensor.23"** %_M_finish, align 8, !dbg !8727
  %3 = bitcast %"class.std::vector.18"* %this1 to %"struct.std::_Vector_base.19"*, !dbg !8728
  %_M_impl2 = getelementptr inbounds %"struct.std::_Vector_base.19", %"struct.std::_Vector_base.19"* %3, i32 0, i32 0, !dbg !8728
  %4 = bitcast %"struct.std::_Vector_base<dealii::Tensor<2, 1>, std::allocator<dealii::Tensor<2, 1> > >::_Vector_impl"* %_M_impl2 to %"struct.std::_Vector_base<dealii::Tensor<2, 1>, std::allocator<dealii::Tensor<2, 1> > >::_Vector_impl_data"*, !dbg !8729
  %_M_start = getelementptr inbounds %"struct.std::_Vector_base<dealii::Tensor<2, 1>, std::allocator<dealii::Tensor<2, 1> > >::_Vector_impl_data", %"struct.std::_Vector_base<dealii::Tensor<2, 1>, std::allocator<dealii::Tensor<2, 1> > >::_Vector_impl_data"* %4, i32 0, i32 0, !dbg !8730
  %5 = load %"class.dealii::Tensor.23"*, %"class.dealii::Tensor.23"** %_M_start, align 8, !dbg !8730
  %sub.ptr.lhs.cast = ptrtoint %"class.dealii::Tensor.23"* %2 to i64, !dbg !8731
  %sub.ptr.rhs.cast = ptrtoint %"class.dealii::Tensor.23"* %5 to i64, !dbg !8731
  %sub.ptr.sub = sub i64 %sub.ptr.lhs.cast, %sub.ptr.rhs.cast, !dbg !8731
  %sub.ptr.div = sdiv exact i64 %sub.ptr.sub, 8, !dbg !8731
  ret i64 %sub.ptr.div, !dbg !8732
}

; Function Attrs: noinline uwtable
define linkonce_odr dso_local void @_ZNSt6vectorIN6dealii6TensorILi2ELi1EEESaIS2_EE6resizeEm(%"class.std::vector.18"* %this, i64 %__new_size) #0 comdat align 2 !dbg !8733 {
entry:
  %this.addr = alloca %"class.std::vector.18"*, align 8
  %__new_size.addr = alloca i64, align 8
  store %"class.std::vector.18"* %this, %"class.std::vector.18"** %this.addr, align 8
  call void @llvm.dbg.declare(metadata %"class.std::vector.18"** %this.addr, metadata !8734, metadata !DIExpression()), !dbg !8735
  store i64 %__new_size, i64* %__new_size.addr, align 8
  call void @llvm.dbg.declare(metadata i64* %__new_size.addr, metadata !8736, metadata !DIExpression()), !dbg !8737
  %this1 = load %"class.std::vector.18"*, %"class.std::vector.18"** %this.addr, align 8
  %0 = load i64, i64* %__new_size.addr, align 8, !dbg !8738
  %call = call i64 @_ZNKSt6vectorIN6dealii6TensorILi2ELi1EEESaIS2_EE4sizeEv(%"class.std::vector.18"* %this1) #3, !dbg !8740
  %cmp = icmp ugt i64 %0, %call, !dbg !8741
  br i1 %cmp, label %if.then, label %if.else, !dbg !8742

if.then:                                          ; preds = %entry
  %1 = load i64, i64* %__new_size.addr, align 8, !dbg !8743
  %call2 = call i64 @_ZNKSt6vectorIN6dealii6TensorILi2ELi1EEESaIS2_EE4sizeEv(%"class.std::vector.18"* %this1) #3, !dbg !8744
  %sub = sub i64 %1, %call2, !dbg !8745
  call void @_ZNSt6vectorIN6dealii6TensorILi2ELi1EEESaIS2_EE17_M_default_appendEm(%"class.std::vector.18"* %this1, i64 %sub), !dbg !8746
  br label %if.end6, !dbg !8746

if.else:                                          ; preds = %entry
  %2 = load i64, i64* %__new_size.addr, align 8, !dbg !8747
  %call3 = call i64 @_ZNKSt6vectorIN6dealii6TensorILi2ELi1EEESaIS2_EE4sizeEv(%"class.std::vector.18"* %this1) #3, !dbg !8749
  %cmp4 = icmp ult i64 %2, %call3, !dbg !8750
  br i1 %cmp4, label %if.then5, label %if.end, !dbg !8751

if.then5:                                         ; preds = %if.else
  %3 = bitcast %"class.std::vector.18"* %this1 to %"struct.std::_Vector_base.19"*, !dbg !8752
  %_M_impl = getelementptr inbounds %"struct.std::_Vector_base.19", %"struct.std::_Vector_base.19"* %3, i32 0, i32 0, !dbg !8752
  %4 = bitcast %"struct.std::_Vector_base<dealii::Tensor<2, 1>, std::allocator<dealii::Tensor<2, 1> > >::_Vector_impl"* %_M_impl to %"struct.std::_Vector_base<dealii::Tensor<2, 1>, std::allocator<dealii::Tensor<2, 1> > >::_Vector_impl_data"*, !dbg !8753
  %_M_start = getelementptr inbounds %"struct.std::_Vector_base<dealii::Tensor<2, 1>, std::allocator<dealii::Tensor<2, 1> > >::_Vector_impl_data", %"struct.std::_Vector_base<dealii::Tensor<2, 1>, std::allocator<dealii::Tensor<2, 1> > >::_Vector_impl_data"* %4, i32 0, i32 0, !dbg !8754
  %5 = load %"class.dealii::Tensor.23"*, %"class.dealii::Tensor.23"** %_M_start, align 8, !dbg !8754
  %6 = load i64, i64* %__new_size.addr, align 8, !dbg !8755
  %add.ptr = getelementptr inbounds %"class.dealii::Tensor.23", %"class.dealii::Tensor.23"* %5, i64 %6, !dbg !8756
  call void @_ZNSt6vectorIN6dealii6TensorILi2ELi1EEESaIS2_EE15_M_erase_at_endEPS2_(%"class.std::vector.18"* %this1, %"class.dealii::Tensor.23"* %add.ptr) #3, !dbg !8757
  br label %if.end, !dbg !8757

if.end:                                           ; preds = %if.then5, %if.else
  br label %if.end6

if.end6:                                          ; preds = %if.end, %if.then
  ret void, !dbg !8758
}

; Function Attrs: noinline nounwind uwtable
define linkonce_odr dso_local i64 @_ZNKSt6vectorIN6dealii6TensorILi3ELi1EEESaIS2_EE4sizeEv(%"class.std::vector.24"* %this) #5 comdat align 2 !dbg !8759 {
entry:
  %this.addr = alloca %"class.std::vector.24"*, align 8
  store %"class.std::vector.24"* %this, %"class.std::vector.24"** %this.addr, align 8
  call void @llvm.dbg.declare(metadata %"class.std::vector.24"** %this.addr, metadata !8760, metadata !DIExpression()), !dbg !8762
  %this1 = load %"class.std::vector.24"*, %"class.std::vector.24"** %this.addr, align 8
  %0 = bitcast %"class.std::vector.24"* %this1 to %"struct.std::_Vector_base.25"*, !dbg !8763
  %_M_impl = getelementptr inbounds %"struct.std::_Vector_base.25", %"struct.std::_Vector_base.25"* %0, i32 0, i32 0, !dbg !8763
  %1 = bitcast %"struct.std::_Vector_base<dealii::Tensor<3, 1>, std::allocator<dealii::Tensor<3, 1> > >::_Vector_impl"* %_M_impl to %"struct.std::_Vector_base<dealii::Tensor<3, 1>, std::allocator<dealii::Tensor<3, 1> > >::_Vector_impl_data"*, !dbg !8764
  %_M_finish = getelementptr inbounds %"struct.std::_Vector_base<dealii::Tensor<3, 1>, std::allocator<dealii::Tensor<3, 1> > >::_Vector_impl_data", %"struct.std::_Vector_base<dealii::Tensor<3, 1>, std::allocator<dealii::Tensor<3, 1> > >::_Vector_impl_data"* %1, i32 0, i32 1, !dbg !8765
  %2 = load %"class.dealii::Tensor.29"*, %"class.dealii::Tensor.29"** %_M_finish, align 8, !dbg !8765
  %3 = bitcast %"class.std::vector.24"* %this1 to %"struct.std::_Vector_base.25"*, !dbg !8766
  %_M_impl2 = getelementptr inbounds %"struct.std::_Vector_base.25", %"struct.std::_Vector_base.25"* %3, i32 0, i32 0, !dbg !8766
  %4 = bitcast %"struct.std::_Vector_base<dealii::Tensor<3, 1>, std::allocator<dealii::Tensor<3, 1> > >::_Vector_impl"* %_M_impl2 to %"struct.std::_Vector_base<dealii::Tensor<3, 1>, std::allocator<dealii::Tensor<3, 1> > >::_Vector_impl_data"*, !dbg !8767
  %_M_start = getelementptr inbounds %"struct.std::_Vector_base<dealii::Tensor<3, 1>, std::allocator<dealii::Tensor<3, 1> > >::_Vector_impl_data", %"struct.std::_Vector_base<dealii::Tensor<3, 1>, std::allocator<dealii::Tensor<3, 1> > >::_Vector_impl_data"* %4, i32 0, i32 0, !dbg !8768
  %5 = load %"class.dealii::Tensor.29"*, %"class.dealii::Tensor.29"** %_M_start, align 8, !dbg !8768
  %sub.ptr.lhs.cast = ptrtoint %"class.dealii::Tensor.29"* %2 to i64, !dbg !8769
  %sub.ptr.rhs.cast = ptrtoint %"class.dealii::Tensor.29"* %5 to i64, !dbg !8769
  %sub.ptr.sub = sub i64 %sub.ptr.lhs.cast, %sub.ptr.rhs.cast, !dbg !8769
  %sub.ptr.div = sdiv exact i64 %sub.ptr.sub, 8, !dbg !8769
  ret i64 %sub.ptr.div, !dbg !8770
}

declare dso_local void @_ZNK6dealii15PolynomialSpaceILi1EE7computeERKNS_5PointILi1EEERSt6vectorIdSaIdEERS6_INS_6TensorILi1ELi1EEESaISB_EERS6_INSA_ILi2ELi1EEESaISF_EE(%"class.dealii::PolynomialSpace"*, %"class.dealii::Point"* dereferenceable(8), %"class.std::vector.3"* dereferenceable(24), %"class.std::vector.13"* dereferenceable(24), %"class.std::vector.18"* dereferenceable(24)) #1

; Function Attrs: noinline uwtable
define linkonce_odr dso_local void @_ZSt4fillIN9__gnu_cxx17__normal_iteratorIPN6dealii6TensorILi1ELi1EEESt6vectorIS4_SaIS4_EEEES4_EvT_SA_RKT0_(%"class.dealii::Tensor"* %__first.coerce, %"class.dealii::Tensor"* %__last.coerce, %"class.dealii::Tensor"* dereferenceable(8) %__value) #0 comdat !dbg !8771 {
entry:
  %__first = alloca %"class.__gnu_cxx::__normal_iterator", align 8
  %__last = alloca %"class.__gnu_cxx::__normal_iterator", align 8
  %__value.addr = alloca %"class.dealii::Tensor"*, align 8
  %agg.tmp = alloca %"class.__gnu_cxx::__normal_iterator", align 8
  %agg.tmp2 = alloca %"class.__gnu_cxx::__normal_iterator", align 8
  %coerce.dive = getelementptr inbounds %"class.__gnu_cxx::__normal_iterator", %"class.__gnu_cxx::__normal_iterator"* %__first, i32 0, i32 0
  store %"class.dealii::Tensor"* %__first.coerce, %"class.dealii::Tensor"** %coerce.dive, align 8
  %coerce.dive1 = getelementptr inbounds %"class.__gnu_cxx::__normal_iterator", %"class.__gnu_cxx::__normal_iterator"* %__last, i32 0, i32 0
  store %"class.dealii::Tensor"* %__last.coerce, %"class.dealii::Tensor"** %coerce.dive1, align 8
  call void @llvm.dbg.declare(metadata %"class.__gnu_cxx::__normal_iterator"* %__first, metadata !8777, metadata !DIExpression()), !dbg !8779
  call void @llvm.dbg.declare(metadata %"class.__gnu_cxx::__normal_iterator"* %__last, metadata !8780, metadata !DIExpression()), !dbg !8781
  store %"class.dealii::Tensor"* %__value, %"class.dealii::Tensor"** %__value.addr, align 8
  call void @llvm.dbg.declare(metadata %"class.dealii::Tensor"** %__value.addr, metadata !8782, metadata !DIExpression()), !dbg !8783
  %0 = bitcast %"class.__gnu_cxx::__normal_iterator"* %agg.tmp to i8*, !dbg !8784
  %1 = bitcast %"class.__gnu_cxx::__normal_iterator"* %__first to i8*, !dbg !8784
  call void @llvm.memcpy.p0i8.p0i8.i64(i8* align 8 %0, i8* align 8 %1, i64 8, i1 false), !dbg !8784
  %2 = bitcast %"class.__gnu_cxx::__normal_iterator"* %agg.tmp2 to i8*, !dbg !8785
  %3 = bitcast %"class.__gnu_cxx::__normal_iterator"* %__last to i8*, !dbg !8785
  call void @llvm.memcpy.p0i8.p0i8.i64(i8* align 8 %2, i8* align 8 %3, i64 8, i1 false), !dbg !8785
  %4 = load %"class.dealii::Tensor"*, %"class.dealii::Tensor"** %__value.addr, align 8, !dbg !8786
  %coerce.dive3 = getelementptr inbounds %"class.__gnu_cxx::__normal_iterator", %"class.__gnu_cxx::__normal_iterator"* %agg.tmp, i32 0, i32 0, !dbg !8787
  %5 = load %"class.dealii::Tensor"*, %"class.dealii::Tensor"** %coerce.dive3, align 8, !dbg !8787
  %coerce.dive4 = getelementptr inbounds %"class.__gnu_cxx::__normal_iterator", %"class.__gnu_cxx::__normal_iterator"* %agg.tmp2, i32 0, i32 0, !dbg !8787
  %6 = load %"class.dealii::Tensor"*, %"class.dealii::Tensor"** %coerce.dive4, align 8, !dbg !8787
  call void @_ZSt8__fill_aIN9__gnu_cxx17__normal_iteratorIPN6dealii6TensorILi1ELi1EEESt6vectorIS4_SaIS4_EEEES4_EvT_SA_RKT0_(%"class.dealii::Tensor"* %5, %"class.dealii::Tensor"* %6, %"class.dealii::Tensor"* dereferenceable(8) %4), !dbg !8787
  ret void, !dbg !8788
}

; Function Attrs: noinline nounwind uwtable
define linkonce_odr dso_local %"class.dealii::Tensor"* @_ZNSt6vectorIN6dealii6TensorILi1ELi1EEESaIS2_EE5beginEv(%"class.std::vector.13"* %this) #5 comdat align 2 !dbg !8789 {
entry:
  %retval = alloca %"class.__gnu_cxx::__normal_iterator", align 8
  %this.addr = alloca %"class.std::vector.13"*, align 8
  store %"class.std::vector.13"* %this, %"class.std::vector.13"** %this.addr, align 8
  call void @llvm.dbg.declare(metadata %"class.std::vector.13"** %this.addr, metadata !8790, metadata !DIExpression()), !dbg !8791
  %this1 = load %"class.std::vector.13"*, %"class.std::vector.13"** %this.addr, align 8
  %0 = bitcast %"class.std::vector.13"* %this1 to %"struct.std::_Vector_base.14"*, !dbg !8792
  %_M_impl = getelementptr inbounds %"struct.std::_Vector_base.14", %"struct.std::_Vector_base.14"* %0, i32 0, i32 0, !dbg !8792
  %1 = bitcast %"struct.std::_Vector_base<dealii::Tensor<1, 1>, std::allocator<dealii::Tensor<1, 1> > >::_Vector_impl"* %_M_impl to %"struct.std::_Vector_base<dealii::Tensor<1, 1>, std::allocator<dealii::Tensor<1, 1> > >::_Vector_impl_data"*, !dbg !8793
  %_M_start = getelementptr inbounds %"struct.std::_Vector_base<dealii::Tensor<1, 1>, std::allocator<dealii::Tensor<1, 1> > >::_Vector_impl_data", %"struct.std::_Vector_base<dealii::Tensor<1, 1>, std::allocator<dealii::Tensor<1, 1> > >::_Vector_impl_data"* %1, i32 0, i32 0, !dbg !8794
  call void @_ZN9__gnu_cxx17__normal_iteratorIPN6dealii6TensorILi1ELi1EEESt6vectorIS3_SaIS3_EEEC2ERKS4_(%"class.__gnu_cxx::__normal_iterator"* %retval, %"class.dealii::Tensor"** dereferenceable(8) %_M_start) #3, !dbg !8795
  %coerce.dive = getelementptr inbounds %"class.__gnu_cxx::__normal_iterator", %"class.__gnu_cxx::__normal_iterator"* %retval, i32 0, i32 0, !dbg !8796
  %2 = load %"class.dealii::Tensor"*, %"class.dealii::Tensor"** %coerce.dive, align 8, !dbg !8796
  ret %"class.dealii::Tensor"* %2, !dbg !8796
}

; Function Attrs: noinline nounwind uwtable
define linkonce_odr dso_local %"class.dealii::Tensor"* @_ZNSt6vectorIN6dealii6TensorILi1ELi1EEESaIS2_EE3endEv(%"class.std::vector.13"* %this) #5 comdat align 2 !dbg !8797 {
entry:
  %retval = alloca %"class.__gnu_cxx::__normal_iterator", align 8
  %this.addr = alloca %"class.std::vector.13"*, align 8
  store %"class.std::vector.13"* %this, %"class.std::vector.13"** %this.addr, align 8
  call void @llvm.dbg.declare(metadata %"class.std::vector.13"** %this.addr, metadata !8798, metadata !DIExpression()), !dbg !8799
  %this1 = load %"class.std::vector.13"*, %"class.std::vector.13"** %this.addr, align 8
  %0 = bitcast %"class.std::vector.13"* %this1 to %"struct.std::_Vector_base.14"*, !dbg !8800
  %_M_impl = getelementptr inbounds %"struct.std::_Vector_base.14", %"struct.std::_Vector_base.14"* %0, i32 0, i32 0, !dbg !8800
  %1 = bitcast %"struct.std::_Vector_base<dealii::Tensor<1, 1>, std::allocator<dealii::Tensor<1, 1> > >::_Vector_impl"* %_M_impl to %"struct.std::_Vector_base<dealii::Tensor<1, 1>, std::allocator<dealii::Tensor<1, 1> > >::_Vector_impl_data"*, !dbg !8801
  %_M_finish = getelementptr inbounds %"struct.std::_Vector_base<dealii::Tensor<1, 1>, std::allocator<dealii::Tensor<1, 1> > >::_Vector_impl_data", %"struct.std::_Vector_base<dealii::Tensor<1, 1>, std::allocator<dealii::Tensor<1, 1> > >::_Vector_impl_data"* %1, i32 0, i32 1, !dbg !8802
  call void @_ZN9__gnu_cxx17__normal_iteratorIPN6dealii6TensorILi1ELi1EEESt6vectorIS3_SaIS3_EEEC2ERKS4_(%"class.__gnu_cxx::__normal_iterator"* %retval, %"class.dealii::Tensor"** dereferenceable(8) %_M_finish) #3, !dbg !8803
  %coerce.dive = getelementptr inbounds %"class.__gnu_cxx::__normal_iterator", %"class.__gnu_cxx::__normal_iterator"* %retval, i32 0, i32 0, !dbg !8804
  %2 = load %"class.dealii::Tensor"*, %"class.dealii::Tensor"** %coerce.dive, align 8, !dbg !8804
  ret %"class.dealii::Tensor"* %2, !dbg !8804
}

; Function Attrs: noinline nounwind uwtable
define linkonce_odr dso_local void @_ZN6dealii6TensorILi1ELi1EEC2Eb(%"class.dealii::Tensor"* %this, i1 zeroext %initialize) unnamed_addr #5 comdat align 2 !dbg !8805 {
entry:
  %this.addr = alloca %"class.dealii::Tensor"*, align 8
  %initialize.addr = alloca i8, align 1
  %i = alloca i32, align 4
  store %"class.dealii::Tensor"* %this, %"class.dealii::Tensor"** %this.addr, align 8
  call void @llvm.dbg.declare(metadata %"class.dealii::Tensor"** %this.addr, metadata !8806, metadata !DIExpression()), !dbg !8807
  %frombool = zext i1 %initialize to i8
  store i8 %frombool, i8* %initialize.addr, align 1
  call void @llvm.dbg.declare(metadata i8* %initialize.addr, metadata !8808, metadata !DIExpression()), !dbg !8809
  %this1 = load %"class.dealii::Tensor"*, %"class.dealii::Tensor"** %this.addr, align 8
  %0 = load i8, i8* %initialize.addr, align 1, !dbg !8810
  %tobool = trunc i8 %0 to i1, !dbg !8810
  br i1 %tobool, label %if.then, label %if.end, !dbg !8813

if.then:                                          ; preds = %entry
  call void @llvm.dbg.declare(metadata i32* %i, metadata !8814, metadata !DIExpression()), !dbg !8816
  store i32 0, i32* %i, align 4, !dbg !8816
  br label %for.cond, !dbg !8817

for.cond:                                         ; preds = %for.inc, %if.then
  %1 = load i32, i32* %i, align 4, !dbg !8818
  %cmp = icmp ne i32 %1, 1, !dbg !8820
  br i1 %cmp, label %for.body, label %for.end, !dbg !8821

for.body:                                         ; preds = %for.cond
  %values = getelementptr inbounds %"class.dealii::Tensor", %"class.dealii::Tensor"* %this1, i32 0, i32 0, !dbg !8822
  %2 = load i32, i32* %i, align 4, !dbg !8823
  %idxprom = zext i32 %2 to i64, !dbg !8822
  %arrayidx = getelementptr inbounds [1 x double], [1 x double]* %values, i64 0, i64 %idxprom, !dbg !8822
  store double 0.000000e+00, double* %arrayidx, align 8, !dbg !8824
  br label %for.inc, !dbg !8822

for.inc:                                          ; preds = %for.body
  %3 = load i32, i32* %i, align 4, !dbg !8825
  %inc = add i32 %3, 1, !dbg !8825
  store i32 %inc, i32* %i, align 4, !dbg !8825
  br label %for.cond, !dbg !8826, !llvm.loop !8827

for.end:                                          ; preds = %for.cond
  br label %if.end, !dbg !8828

if.end:                                           ; preds = %for.end, %entry
  ret void, !dbg !8829
}

; Function Attrs: noinline nounwind uwtable
define linkonce_odr dso_local i64 @_ZNKSt6vectorIdSaIdEE4sizeEv(%"class.std::vector.3"* %this) #5 comdat align 2 !dbg !8830 {
entry:
  %this.addr = alloca %"class.std::vector.3"*, align 8
  store %"class.std::vector.3"* %this, %"class.std::vector.3"** %this.addr, align 8
  call void @llvm.dbg.declare(metadata %"class.std::vector.3"** %this.addr, metadata !8831, metadata !DIExpression()), !dbg !8833
  %this1 = load %"class.std::vector.3"*, %"class.std::vector.3"** %this.addr, align 8
  %0 = bitcast %"class.std::vector.3"* %this1 to %"struct.std::_Vector_base.4"*, !dbg !8834
  %_M_impl = getelementptr inbounds %"struct.std::_Vector_base.4", %"struct.std::_Vector_base.4"* %0, i32 0, i32 0, !dbg !8834
  %1 = bitcast %"struct.std::_Vector_base<double, std::allocator<double> >::_Vector_impl"* %_M_impl to %"struct.std::_Vector_base<double, std::allocator<double> >::_Vector_impl_data"*, !dbg !8835
  %_M_finish = getelementptr inbounds %"struct.std::_Vector_base<double, std::allocator<double> >::_Vector_impl_data", %"struct.std::_Vector_base<double, std::allocator<double> >::_Vector_impl_data"* %1, i32 0, i32 1, !dbg !8836
  %2 = load double*, double** %_M_finish, align 8, !dbg !8836
  %3 = bitcast %"class.std::vector.3"* %this1 to %"struct.std::_Vector_base.4"*, !dbg !8837
  %_M_impl2 = getelementptr inbounds %"struct.std::_Vector_base.4", %"struct.std::_Vector_base.4"* %3, i32 0, i32 0, !dbg !8837
  %4 = bitcast %"struct.std::_Vector_base<double, std::allocator<double> >::_Vector_impl"* %_M_impl2 to %"struct.std::_Vector_base<double, std::allocator<double> >::_Vector_impl_data"*, !dbg !8838
  %_M_start = getelementptr inbounds %"struct.std::_Vector_base<double, std::allocator<double> >::_Vector_impl_data", %"struct.std::_Vector_base<double, std::allocator<double> >::_Vector_impl_data"* %4, i32 0, i32 0, !dbg !8839
  %5 = load double*, double** %_M_start, align 8, !dbg !8839
  %sub.ptr.lhs.cast = ptrtoint double* %2 to i64, !dbg !8840
  %sub.ptr.rhs.cast = ptrtoint double* %5 to i64, !dbg !8840
  %sub.ptr.sub = sub i64 %sub.ptr.lhs.cast, %sub.ptr.rhs.cast, !dbg !8840
  %sub.ptr.div = sdiv exact i64 %sub.ptr.sub, 8, !dbg !8840
  ret i64 %sub.ptr.div, !dbg !8841
}

; Function Attrs: noinline nounwind uwtable
define linkonce_odr dso_local dereferenceable(8) double* @_ZNSt6vectorIdSaIdEEixEm(%"class.std::vector.3"* %this, i64 %__n) #5 comdat align 2 !dbg !8842 {
entry:
  %this.addr = alloca %"class.std::vector.3"*, align 8
  %__n.addr = alloca i64, align 8
  store %"class.std::vector.3"* %this, %"class.std::vector.3"** %this.addr, align 8
  call void @llvm.dbg.declare(metadata %"class.std::vector.3"** %this.addr, metadata !8843, metadata !DIExpression()), !dbg !8844
  store i64 %__n, i64* %__n.addr, align 8
  call void @llvm.dbg.declare(metadata i64* %__n.addr, metadata !8845, metadata !DIExpression()), !dbg !8846
  %this1 = load %"class.std::vector.3"*, %"class.std::vector.3"** %this.addr, align 8
  %0 = bitcast %"class.std::vector.3"* %this1 to %"struct.std::_Vector_base.4"*, !dbg !8847
  %_M_impl = getelementptr inbounds %"struct.std::_Vector_base.4", %"struct.std::_Vector_base.4"* %0, i32 0, i32 0, !dbg !8847
  %1 = bitcast %"struct.std::_Vector_base<double, std::allocator<double> >::_Vector_impl"* %_M_impl to %"struct.std::_Vector_base<double, std::allocator<double> >::_Vector_impl_data"*, !dbg !8848
  %_M_start = getelementptr inbounds %"struct.std::_Vector_base<double, std::allocator<double> >::_Vector_impl_data", %"struct.std::_Vector_base<double, std::allocator<double> >::_Vector_impl_data"* %1, i32 0, i32 0, !dbg !8849
  %2 = load double*, double** %_M_start, align 8, !dbg !8849
  %3 = load i64, i64* %__n.addr, align 8, !dbg !8850
  %add.ptr = getelementptr inbounds double, double* %2, i64 %3, !dbg !8851
  ret double* %add.ptr, !dbg !8852
}

; Function Attrs: noinline nounwind uwtable
define linkonce_odr dso_local dereferenceable(8) %"class.dealii::Tensor"* @_ZNSt6vectorIN6dealii6TensorILi1ELi1EEESaIS2_EEixEm(%"class.std::vector.13"* %this, i64 %__n) #5 comdat align 2 !dbg !8853 {
entry:
  %this.addr = alloca %"class.std::vector.13"*, align 8
  %__n.addr = alloca i64, align 8
  store %"class.std::vector.13"* %this, %"class.std::vector.13"** %this.addr, align 8
  call void @llvm.dbg.declare(metadata %"class.std::vector.13"** %this.addr, metadata !8854, metadata !DIExpression()), !dbg !8855
  store i64 %__n, i64* %__n.addr, align 8
  call void @llvm.dbg.declare(metadata i64* %__n.addr, metadata !8856, metadata !DIExpression()), !dbg !8857
  %this1 = load %"class.std::vector.13"*, %"class.std::vector.13"** %this.addr, align 8
  %0 = bitcast %"class.std::vector.13"* %this1 to %"struct.std::_Vector_base.14"*, !dbg !8858
  %_M_impl = getelementptr inbounds %"struct.std::_Vector_base.14", %"struct.std::_Vector_base.14"* %0, i32 0, i32 0, !dbg !8858
  %1 = bitcast %"struct.std::_Vector_base<dealii::Tensor<1, 1>, std::allocator<dealii::Tensor<1, 1> > >::_Vector_impl"* %_M_impl to %"struct.std::_Vector_base<dealii::Tensor<1, 1>, std::allocator<dealii::Tensor<1, 1> > >::_Vector_impl_data"*, !dbg !8859
  %_M_start = getelementptr inbounds %"struct.std::_Vector_base<dealii::Tensor<1, 1>, std::allocator<dealii::Tensor<1, 1> > >::_Vector_impl_data", %"struct.std::_Vector_base<dealii::Tensor<1, 1>, std::allocator<dealii::Tensor<1, 1> > >::_Vector_impl_data"* %1, i32 0, i32 0, !dbg !8860
  %2 = load %"class.dealii::Tensor"*, %"class.dealii::Tensor"** %_M_start, align 8, !dbg !8860
  %3 = load i64, i64* %__n.addr, align 8, !dbg !8861
  %add.ptr = getelementptr inbounds %"class.dealii::Tensor", %"class.dealii::Tensor"* %2, i64 %3, !dbg !8862
  ret %"class.dealii::Tensor"* %add.ptr, !dbg !8863
}

; Function Attrs: noinline nounwind uwtable
define linkonce_odr dso_local dereferenceable(8) double* @_ZN6dealii6TensorILi1ELi1EEixEj(%"class.dealii::Tensor"* %this, i32 %index) #5 comdat align 2 !dbg !8864 {
entry:
  %this.addr = alloca %"class.dealii::Tensor"*, align 8
  %index.addr = alloca i32, align 4
  store %"class.dealii::Tensor"* %this, %"class.dealii::Tensor"** %this.addr, align 8
  call void @llvm.dbg.declare(metadata %"class.dealii::Tensor"** %this.addr, metadata !8865, metadata !DIExpression()), !dbg !8866
  store i32 %index, i32* %index.addr, align 4
  call void @llvm.dbg.declare(metadata i32* %index.addr, metadata !8867, metadata !DIExpression()), !dbg !8868
  %this1 = load %"class.dealii::Tensor"*, %"class.dealii::Tensor"** %this.addr, align 8
  %values = getelementptr inbounds %"class.dealii::Tensor", %"class.dealii::Tensor"* %this1, i32 0, i32 0, !dbg !8869
  %0 = load i32, i32* %index.addr, align 4, !dbg !8870
  %idxprom = zext i32 %0 to i64, !dbg !8869
  %arrayidx = getelementptr inbounds [1 x double], [1 x double]* %values, i64 0, i64 %idxprom, !dbg !8869
  ret double* %arrayidx, !dbg !8871
}

; Function Attrs: noinline uwtable
define linkonce_odr dso_local void @_ZSt4fillIN9__gnu_cxx17__normal_iteratorIPN6dealii6TensorILi2ELi1EEESt6vectorIS4_SaIS4_EEEES4_EvT_SA_RKT0_(%"class.dealii::Tensor.23"* %__first.coerce, %"class.dealii::Tensor.23"* %__last.coerce, %"class.dealii::Tensor.23"* dereferenceable(8) %__value) #0 comdat !dbg !8872 {
entry:
  %__first = alloca %"class.__gnu_cxx::__normal_iterator.30", align 8
  %__last = alloca %"class.__gnu_cxx::__normal_iterator.30", align 8
  %__value.addr = alloca %"class.dealii::Tensor.23"*, align 8
  %agg.tmp = alloca %"class.__gnu_cxx::__normal_iterator.30", align 8
  %agg.tmp2 = alloca %"class.__gnu_cxx::__normal_iterator.30", align 8
  %coerce.dive = getelementptr inbounds %"class.__gnu_cxx::__normal_iterator.30", %"class.__gnu_cxx::__normal_iterator.30"* %__first, i32 0, i32 0
  store %"class.dealii::Tensor.23"* %__first.coerce, %"class.dealii::Tensor.23"** %coerce.dive, align 8
  %coerce.dive1 = getelementptr inbounds %"class.__gnu_cxx::__normal_iterator.30", %"class.__gnu_cxx::__normal_iterator.30"* %__last, i32 0, i32 0
  store %"class.dealii::Tensor.23"* %__last.coerce, %"class.dealii::Tensor.23"** %coerce.dive1, align 8
  call void @llvm.dbg.declare(metadata %"class.__gnu_cxx::__normal_iterator.30"* %__first, metadata !8877, metadata !DIExpression()), !dbg !8878
  call void @llvm.dbg.declare(metadata %"class.__gnu_cxx::__normal_iterator.30"* %__last, metadata !8879, metadata !DIExpression()), !dbg !8880
  store %"class.dealii::Tensor.23"* %__value, %"class.dealii::Tensor.23"** %__value.addr, align 8
  call void @llvm.dbg.declare(metadata %"class.dealii::Tensor.23"** %__value.addr, metadata !8881, metadata !DIExpression()), !dbg !8882
  %0 = bitcast %"class.__gnu_cxx::__normal_iterator.30"* %agg.tmp to i8*, !dbg !8883
  %1 = bitcast %"class.__gnu_cxx::__normal_iterator.30"* %__first to i8*, !dbg !8883
  call void @llvm.memcpy.p0i8.p0i8.i64(i8* align 8 %0, i8* align 8 %1, i64 8, i1 false), !dbg !8883
  %2 = bitcast %"class.__gnu_cxx::__normal_iterator.30"* %agg.tmp2 to i8*, !dbg !8884
  %3 = bitcast %"class.__gnu_cxx::__normal_iterator.30"* %__last to i8*, !dbg !8884
  call void @llvm.memcpy.p0i8.p0i8.i64(i8* align 8 %2, i8* align 8 %3, i64 8, i1 false), !dbg !8884
  %4 = load %"class.dealii::Tensor.23"*, %"class.dealii::Tensor.23"** %__value.addr, align 8, !dbg !8885
  %coerce.dive3 = getelementptr inbounds %"class.__gnu_cxx::__normal_iterator.30", %"class.__gnu_cxx::__normal_iterator.30"* %agg.tmp, i32 0, i32 0, !dbg !8886
  %5 = load %"class.dealii::Tensor.23"*, %"class.dealii::Tensor.23"** %coerce.dive3, align 8, !dbg !8886
  %coerce.dive4 = getelementptr inbounds %"class.__gnu_cxx::__normal_iterator.30", %"class.__gnu_cxx::__normal_iterator.30"* %agg.tmp2, i32 0, i32 0, !dbg !8886
  %6 = load %"class.dealii::Tensor.23"*, %"class.dealii::Tensor.23"** %coerce.dive4, align 8, !dbg !8886
  call void @_ZSt8__fill_aIN9__gnu_cxx17__normal_iteratorIPN6dealii6TensorILi2ELi1EEESt6vectorIS4_SaIS4_EEEES4_EvT_SA_RKT0_(%"class.dealii::Tensor.23"* %5, %"class.dealii::Tensor.23"* %6, %"class.dealii::Tensor.23"* dereferenceable(8) %4), !dbg !8886
  ret void, !dbg !8887
}

; Function Attrs: noinline nounwind uwtable
define linkonce_odr dso_local %"class.dealii::Tensor.23"* @_ZNSt6vectorIN6dealii6TensorILi2ELi1EEESaIS2_EE5beginEv(%"class.std::vector.18"* %this) #5 comdat align 2 !dbg !8888 {
entry:
  %retval = alloca %"class.__gnu_cxx::__normal_iterator.30", align 8
  %this.addr = alloca %"class.std::vector.18"*, align 8
  store %"class.std::vector.18"* %this, %"class.std::vector.18"** %this.addr, align 8
  call void @llvm.dbg.declare(metadata %"class.std::vector.18"** %this.addr, metadata !8889, metadata !DIExpression()), !dbg !8890
  %this1 = load %"class.std::vector.18"*, %"class.std::vector.18"** %this.addr, align 8
  %0 = bitcast %"class.std::vector.18"* %this1 to %"struct.std::_Vector_base.19"*, !dbg !8891
  %_M_impl = getelementptr inbounds %"struct.std::_Vector_base.19", %"struct.std::_Vector_base.19"* %0, i32 0, i32 0, !dbg !8891
  %1 = bitcast %"struct.std::_Vector_base<dealii::Tensor<2, 1>, std::allocator<dealii::Tensor<2, 1> > >::_Vector_impl"* %_M_impl to %"struct.std::_Vector_base<dealii::Tensor<2, 1>, std::allocator<dealii::Tensor<2, 1> > >::_Vector_impl_data"*, !dbg !8892
  %_M_start = getelementptr inbounds %"struct.std::_Vector_base<dealii::Tensor<2, 1>, std::allocator<dealii::Tensor<2, 1> > >::_Vector_impl_data", %"struct.std::_Vector_base<dealii::Tensor<2, 1>, std::allocator<dealii::Tensor<2, 1> > >::_Vector_impl_data"* %1, i32 0, i32 0, !dbg !8893
  call void @_ZN9__gnu_cxx17__normal_iteratorIPN6dealii6TensorILi2ELi1EEESt6vectorIS3_SaIS3_EEEC2ERKS4_(%"class.__gnu_cxx::__normal_iterator.30"* %retval, %"class.dealii::Tensor.23"** dereferenceable(8) %_M_start) #3, !dbg !8894
  %coerce.dive = getelementptr inbounds %"class.__gnu_cxx::__normal_iterator.30", %"class.__gnu_cxx::__normal_iterator.30"* %retval, i32 0, i32 0, !dbg !8895
  %2 = load %"class.dealii::Tensor.23"*, %"class.dealii::Tensor.23"** %coerce.dive, align 8, !dbg !8895
  ret %"class.dealii::Tensor.23"* %2, !dbg !8895
}

; Function Attrs: noinline nounwind uwtable
define linkonce_odr dso_local %"class.dealii::Tensor.23"* @_ZNSt6vectorIN6dealii6TensorILi2ELi1EEESaIS2_EE3endEv(%"class.std::vector.18"* %this) #5 comdat align 2 !dbg !8896 {
entry:
  %retval = alloca %"class.__gnu_cxx::__normal_iterator.30", align 8
  %this.addr = alloca %"class.std::vector.18"*, align 8
  store %"class.std::vector.18"* %this, %"class.std::vector.18"** %this.addr, align 8
  call void @llvm.dbg.declare(metadata %"class.std::vector.18"** %this.addr, metadata !8897, metadata !DIExpression()), !dbg !8898
  %this1 = load %"class.std::vector.18"*, %"class.std::vector.18"** %this.addr, align 8
  %0 = bitcast %"class.std::vector.18"* %this1 to %"struct.std::_Vector_base.19"*, !dbg !8899
  %_M_impl = getelementptr inbounds %"struct.std::_Vector_base.19", %"struct.std::_Vector_base.19"* %0, i32 0, i32 0, !dbg !8899
  %1 = bitcast %"struct.std::_Vector_base<dealii::Tensor<2, 1>, std::allocator<dealii::Tensor<2, 1> > >::_Vector_impl"* %_M_impl to %"struct.std::_Vector_base<dealii::Tensor<2, 1>, std::allocator<dealii::Tensor<2, 1> > >::_Vector_impl_data"*, !dbg !8900
  %_M_finish = getelementptr inbounds %"struct.std::_Vector_base<dealii::Tensor<2, 1>, std::allocator<dealii::Tensor<2, 1> > >::_Vector_impl_data", %"struct.std::_Vector_base<dealii::Tensor<2, 1>, std::allocator<dealii::Tensor<2, 1> > >::_Vector_impl_data"* %1, i32 0, i32 1, !dbg !8901
  call void @_ZN9__gnu_cxx17__normal_iteratorIPN6dealii6TensorILi2ELi1EEESt6vectorIS3_SaIS3_EEEC2ERKS4_(%"class.__gnu_cxx::__normal_iterator.30"* %retval, %"class.dealii::Tensor.23"** dereferenceable(8) %_M_finish) #3, !dbg !8902
  %coerce.dive = getelementptr inbounds %"class.__gnu_cxx::__normal_iterator.30", %"class.__gnu_cxx::__normal_iterator.30"* %retval, i32 0, i32 0, !dbg !8903
  %2 = load %"class.dealii::Tensor.23"*, %"class.dealii::Tensor.23"** %coerce.dive, align 8, !dbg !8903
  ret %"class.dealii::Tensor.23"* %2, !dbg !8903
}

; Function Attrs: noinline uwtable
define linkonce_odr dso_local void @_ZN6dealii6TensorILi2ELi1EEC2Ev(%"class.dealii::Tensor.23"* %this) unnamed_addr #0 comdat align 2 !dbg !8904 {
entry:
  %this.addr = alloca %"class.dealii::Tensor.23"*, align 8
  store %"class.dealii::Tensor.23"* %this, %"class.dealii::Tensor.23"** %this.addr, align 8
  call void @llvm.dbg.declare(metadata %"class.dealii::Tensor.23"** %this.addr, metadata !8905, metadata !DIExpression()), !dbg !8906
  %this1 = load %"class.dealii::Tensor.23"*, %"class.dealii::Tensor.23"** %this.addr, align 8
  %subtensor = getelementptr inbounds %"class.dealii::Tensor.23", %"class.dealii::Tensor.23"* %this1, i32 0, i32 0, !dbg !8907
  %array.begin = getelementptr inbounds [1 x %"class.dealii::Tensor"], [1 x %"class.dealii::Tensor"]* %subtensor, i32 0, i32 0, !dbg !8907
  %arrayctor.end = getelementptr inbounds %"class.dealii::Tensor", %"class.dealii::Tensor"* %array.begin, i64 1, !dbg !8907
  br label %arrayctor.loop, !dbg !8907

arrayctor.loop:                                   ; preds = %arrayctor.loop, %entry
  %arrayctor.cur = phi %"class.dealii::Tensor"* [ %array.begin, %entry ], [ %arrayctor.next, %arrayctor.loop ], !dbg !8907
  call void @_ZN6dealii6TensorILi1ELi1EEC2Eb(%"class.dealii::Tensor"* %arrayctor.cur, i1 zeroext true), !dbg !8907
  %arrayctor.next = getelementptr inbounds %"class.dealii::Tensor", %"class.dealii::Tensor"* %arrayctor.cur, i64 1, !dbg !8907
  %arrayctor.done = icmp eq %"class.dealii::Tensor"* %arrayctor.next, %arrayctor.end, !dbg !8907
  br i1 %arrayctor.done, label %arrayctor.cont, label %arrayctor.loop, !dbg !8907

arrayctor.cont:                                   ; preds = %arrayctor.loop
  ret void, !dbg !8908
}

; Function Attrs: noinline nounwind uwtable
define linkonce_odr dso_local dereferenceable(8) %"class.dealii::Tensor.23"* @_ZNSt6vectorIN6dealii6TensorILi2ELi1EEESaIS2_EEixEm(%"class.std::vector.18"* %this, i64 %__n) #5 comdat align 2 !dbg !8909 {
entry:
  %this.addr = alloca %"class.std::vector.18"*, align 8
  %__n.addr = alloca i64, align 8
  store %"class.std::vector.18"* %this, %"class.std::vector.18"** %this.addr, align 8
  call void @llvm.dbg.declare(metadata %"class.std::vector.18"** %this.addr, metadata !8910, metadata !DIExpression()), !dbg !8911
  store i64 %__n, i64* %__n.addr, align 8
  call void @llvm.dbg.declare(metadata i64* %__n.addr, metadata !8912, metadata !DIExpression()), !dbg !8913
  %this1 = load %"class.std::vector.18"*, %"class.std::vector.18"** %this.addr, align 8
  %0 = bitcast %"class.std::vector.18"* %this1 to %"struct.std::_Vector_base.19"*, !dbg !8914
  %_M_impl = getelementptr inbounds %"struct.std::_Vector_base.19", %"struct.std::_Vector_base.19"* %0, i32 0, i32 0, !dbg !8914
  %1 = bitcast %"struct.std::_Vector_base<dealii::Tensor<2, 1>, std::allocator<dealii::Tensor<2, 1> > >::_Vector_impl"* %_M_impl to %"struct.std::_Vector_base<dealii::Tensor<2, 1>, std::allocator<dealii::Tensor<2, 1> > >::_Vector_impl_data"*, !dbg !8915
  %_M_start = getelementptr inbounds %"struct.std::_Vector_base<dealii::Tensor<2, 1>, std::allocator<dealii::Tensor<2, 1> > >::_Vector_impl_data", %"struct.std::_Vector_base<dealii::Tensor<2, 1>, std::allocator<dealii::Tensor<2, 1> > >::_Vector_impl_data"* %1, i32 0, i32 0, !dbg !8916
  %2 = load %"class.dealii::Tensor.23"*, %"class.dealii::Tensor.23"** %_M_start, align 8, !dbg !8916
  %3 = load i64, i64* %__n.addr, align 8, !dbg !8917
  %add.ptr = getelementptr inbounds %"class.dealii::Tensor.23", %"class.dealii::Tensor.23"* %2, i64 %3, !dbg !8918
  ret %"class.dealii::Tensor.23"* %add.ptr, !dbg !8919
}

; Function Attrs: noinline nounwind uwtable
define linkonce_odr dso_local dereferenceable(8) %"class.dealii::Tensor"* @_ZN6dealii6TensorILi2ELi1EEixEj(%"class.dealii::Tensor.23"* %this, i32 %i) #5 comdat align 2 !dbg !8920 {
entry:
  %this.addr = alloca %"class.dealii::Tensor.23"*, align 8
  %i.addr = alloca i32, align 4
  store %"class.dealii::Tensor.23"* %this, %"class.dealii::Tensor.23"** %this.addr, align 8
  call void @llvm.dbg.declare(metadata %"class.dealii::Tensor.23"** %this.addr, metadata !8921, metadata !DIExpression()), !dbg !8922
  store i32 %i, i32* %i.addr, align 4
  call void @llvm.dbg.declare(metadata i32* %i.addr, metadata !8923, metadata !DIExpression()), !dbg !8924
  %this1 = load %"class.dealii::Tensor.23"*, %"class.dealii::Tensor.23"** %this.addr, align 8
  %subtensor = getelementptr inbounds %"class.dealii::Tensor.23", %"class.dealii::Tensor.23"* %this1, i32 0, i32 0, !dbg !8925
  %0 = load i32, i32* %i.addr, align 4, !dbg !8926
  %idxprom = zext i32 %0 to i64, !dbg !8925
  %arrayidx = getelementptr inbounds [1 x %"class.dealii::Tensor"], [1 x %"class.dealii::Tensor"]* %subtensor, i64 0, i64 %idxprom, !dbg !8925
  ret %"class.dealii::Tensor"* %arrayidx, !dbg !8927
}

; Function Attrs: noinline nounwind uwtable
define linkonce_odr dso_local dereferenceable(8) %"class.dealii::Tensor"* @_ZN6dealii6TensorILi1ELi1EEaSERKS1_(%"class.dealii::Tensor"* %this, %"class.dealii::Tensor"* dereferenceable(8) %p) #5 comdat align 2 !dbg !8928 {
entry:
  %this.addr = alloca %"class.dealii::Tensor"*, align 8
  %p.addr = alloca %"class.dealii::Tensor"*, align 8
  store %"class.dealii::Tensor"* %this, %"class.dealii::Tensor"** %this.addr, align 8
  call void @llvm.dbg.declare(metadata %"class.dealii::Tensor"** %this.addr, metadata !8929, metadata !DIExpression()), !dbg !8930
  store %"class.dealii::Tensor"* %p, %"class.dealii::Tensor"** %p.addr, align 8
  call void @llvm.dbg.declare(metadata %"class.dealii::Tensor"** %p.addr, metadata !8931, metadata !DIExpression()), !dbg !8932
  %this1 = load %"class.dealii::Tensor"*, %"class.dealii::Tensor"** %this.addr, align 8
  %0 = load %"class.dealii::Tensor"*, %"class.dealii::Tensor"** %p.addr, align 8, !dbg !8933
  %values = getelementptr inbounds %"class.dealii::Tensor", %"class.dealii::Tensor"* %0, i32 0, i32 0, !dbg !8934
  %arrayidx = getelementptr inbounds [1 x double], [1 x double]* %values, i64 0, i64 0, !dbg !8933
  %1 = load double, double* %arrayidx, align 8, !dbg !8933
  %values2 = getelementptr inbounds %"class.dealii::Tensor", %"class.dealii::Tensor"* %this1, i32 0, i32 0, !dbg !8935
  %arrayidx3 = getelementptr inbounds [1 x double], [1 x double]* %values2, i64 0, i64 0, !dbg !8935
  store double %1, double* %arrayidx3, align 8, !dbg !8936
  ret %"class.dealii::Tensor"* %this1, !dbg !8937
}

; Function Attrs: noinline uwtable
define linkonce_odr dso_local void @_ZSt4fillIN9__gnu_cxx17__normal_iteratorIPN6dealii6TensorILi3ELi1EEESt6vectorIS4_SaIS4_EEEES4_EvT_SA_RKT0_(%"class.dealii::Tensor.29"* %__first.coerce, %"class.dealii::Tensor.29"* %__last.coerce, %"class.dealii::Tensor.29"* dereferenceable(8) %__value) #0 comdat !dbg !8938 {
entry:
  %__first = alloca %"class.__gnu_cxx::__normal_iterator.31", align 8
  %__last = alloca %"class.__gnu_cxx::__normal_iterator.31", align 8
  %__value.addr = alloca %"class.dealii::Tensor.29"*, align 8
  %agg.tmp = alloca %"class.__gnu_cxx::__normal_iterator.31", align 8
  %agg.tmp2 = alloca %"class.__gnu_cxx::__normal_iterator.31", align 8
  %coerce.dive = getelementptr inbounds %"class.__gnu_cxx::__normal_iterator.31", %"class.__gnu_cxx::__normal_iterator.31"* %__first, i32 0, i32 0
  store %"class.dealii::Tensor.29"* %__first.coerce, %"class.dealii::Tensor.29"** %coerce.dive, align 8
  %coerce.dive1 = getelementptr inbounds %"class.__gnu_cxx::__normal_iterator.31", %"class.__gnu_cxx::__normal_iterator.31"* %__last, i32 0, i32 0
  store %"class.dealii::Tensor.29"* %__last.coerce, %"class.dealii::Tensor.29"** %coerce.dive1, align 8
  call void @llvm.dbg.declare(metadata %"class.__gnu_cxx::__normal_iterator.31"* %__first, metadata !8943, metadata !DIExpression()), !dbg !8944
  call void @llvm.dbg.declare(metadata %"class.__gnu_cxx::__normal_iterator.31"* %__last, metadata !8945, metadata !DIExpression()), !dbg !8946
  store %"class.dealii::Tensor.29"* %__value, %"class.dealii::Tensor.29"** %__value.addr, align 8
  call void @llvm.dbg.declare(metadata %"class.dealii::Tensor.29"** %__value.addr, metadata !8947, metadata !DIExpression()), !dbg !8948
  %0 = bitcast %"class.__gnu_cxx::__normal_iterator.31"* %agg.tmp to i8*, !dbg !8949
  %1 = bitcast %"class.__gnu_cxx::__normal_iterator.31"* %__first to i8*, !dbg !8949
  call void @llvm.memcpy.p0i8.p0i8.i64(i8* align 8 %0, i8* align 8 %1, i64 8, i1 false), !dbg !8949
  %2 = bitcast %"class.__gnu_cxx::__normal_iterator.31"* %agg.tmp2 to i8*, !dbg !8950
  %3 = bitcast %"class.__gnu_cxx::__normal_iterator.31"* %__last to i8*, !dbg !8950
  call void @llvm.memcpy.p0i8.p0i8.i64(i8* align 8 %2, i8* align 8 %3, i64 8, i1 false), !dbg !8950
  %4 = load %"class.dealii::Tensor.29"*, %"class.dealii::Tensor.29"** %__value.addr, align 8, !dbg !8951
  %coerce.dive3 = getelementptr inbounds %"class.__gnu_cxx::__normal_iterator.31", %"class.__gnu_cxx::__normal_iterator.31"* %agg.tmp, i32 0, i32 0, !dbg !8952
  %5 = load %"class.dealii::Tensor.29"*, %"class.dealii::Tensor.29"** %coerce.dive3, align 8, !dbg !8952
  %coerce.dive4 = getelementptr inbounds %"class.__gnu_cxx::__normal_iterator.31", %"class.__gnu_cxx::__normal_iterator.31"* %agg.tmp2, i32 0, i32 0, !dbg !8952
  %6 = load %"class.dealii::Tensor.29"*, %"class.dealii::Tensor.29"** %coerce.dive4, align 8, !dbg !8952
  call void @_ZSt8__fill_aIN9__gnu_cxx17__normal_iteratorIPN6dealii6TensorILi3ELi1EEESt6vectorIS4_SaIS4_EEEES4_EvT_SA_RKT0_(%"class.dealii::Tensor.29"* %5, %"class.dealii::Tensor.29"* %6, %"class.dealii::Tensor.29"* dereferenceable(8) %4), !dbg !8952
  ret void, !dbg !8953
}

; Function Attrs: noinline nounwind uwtable
define linkonce_odr dso_local %"class.dealii::Tensor.29"* @_ZNSt6vectorIN6dealii6TensorILi3ELi1EEESaIS2_EE5beginEv(%"class.std::vector.24"* %this) #5 comdat align 2 !dbg !8954 {
entry:
  %retval = alloca %"class.__gnu_cxx::__normal_iterator.31", align 8
  %this.addr = alloca %"class.std::vector.24"*, align 8
  store %"class.std::vector.24"* %this, %"class.std::vector.24"** %this.addr, align 8
  call void @llvm.dbg.declare(metadata %"class.std::vector.24"** %this.addr, metadata !8955, metadata !DIExpression()), !dbg !8957
  %this1 = load %"class.std::vector.24"*, %"class.std::vector.24"** %this.addr, align 8
  %0 = bitcast %"class.std::vector.24"* %this1 to %"struct.std::_Vector_base.25"*, !dbg !8958
  %_M_impl = getelementptr inbounds %"struct.std::_Vector_base.25", %"struct.std::_Vector_base.25"* %0, i32 0, i32 0, !dbg !8958
  %1 = bitcast %"struct.std::_Vector_base<dealii::Tensor<3, 1>, std::allocator<dealii::Tensor<3, 1> > >::_Vector_impl"* %_M_impl to %"struct.std::_Vector_base<dealii::Tensor<3, 1>, std::allocator<dealii::Tensor<3, 1> > >::_Vector_impl_data"*, !dbg !8959
  %_M_start = getelementptr inbounds %"struct.std::_Vector_base<dealii::Tensor<3, 1>, std::allocator<dealii::Tensor<3, 1> > >::_Vector_impl_data", %"struct.std::_Vector_base<dealii::Tensor<3, 1>, std::allocator<dealii::Tensor<3, 1> > >::_Vector_impl_data"* %1, i32 0, i32 0, !dbg !8960
  call void @_ZN9__gnu_cxx17__normal_iteratorIPN6dealii6TensorILi3ELi1EEESt6vectorIS3_SaIS3_EEEC2ERKS4_(%"class.__gnu_cxx::__normal_iterator.31"* %retval, %"class.dealii::Tensor.29"** dereferenceable(8) %_M_start) #3, !dbg !8961
  %coerce.dive = getelementptr inbounds %"class.__gnu_cxx::__normal_iterator.31", %"class.__gnu_cxx::__normal_iterator.31"* %retval, i32 0, i32 0, !dbg !8962
  %2 = load %"class.dealii::Tensor.29"*, %"class.dealii::Tensor.29"** %coerce.dive, align 8, !dbg !8962
  ret %"class.dealii::Tensor.29"* %2, !dbg !8962
}

; Function Attrs: noinline nounwind uwtable
define linkonce_odr dso_local %"class.dealii::Tensor.29"* @_ZNSt6vectorIN6dealii6TensorILi3ELi1EEESaIS2_EE3endEv(%"class.std::vector.24"* %this) #5 comdat align 2 !dbg !8963 {
entry:
  %retval = alloca %"class.__gnu_cxx::__normal_iterator.31", align 8
  %this.addr = alloca %"class.std::vector.24"*, align 8
  store %"class.std::vector.24"* %this, %"class.std::vector.24"** %this.addr, align 8
  call void @llvm.dbg.declare(metadata %"class.std::vector.24"** %this.addr, metadata !8964, metadata !DIExpression()), !dbg !8965
  %this1 = load %"class.std::vector.24"*, %"class.std::vector.24"** %this.addr, align 8
  %0 = bitcast %"class.std::vector.24"* %this1 to %"struct.std::_Vector_base.25"*, !dbg !8966
  %_M_impl = getelementptr inbounds %"struct.std::_Vector_base.25", %"struct.std::_Vector_base.25"* %0, i32 0, i32 0, !dbg !8966
  %1 = bitcast %"struct.std::_Vector_base<dealii::Tensor<3, 1>, std::allocator<dealii::Tensor<3, 1> > >::_Vector_impl"* %_M_impl to %"struct.std::_Vector_base<dealii::Tensor<3, 1>, std::allocator<dealii::Tensor<3, 1> > >::_Vector_impl_data"*, !dbg !8967
  %_M_finish = getelementptr inbounds %"struct.std::_Vector_base<dealii::Tensor<3, 1>, std::allocator<dealii::Tensor<3, 1> > >::_Vector_impl_data", %"struct.std::_Vector_base<dealii::Tensor<3, 1>, std::allocator<dealii::Tensor<3, 1> > >::_Vector_impl_data"* %1, i32 0, i32 1, !dbg !8968
  call void @_ZN9__gnu_cxx17__normal_iteratorIPN6dealii6TensorILi3ELi1EEESt6vectorIS3_SaIS3_EEEC2ERKS4_(%"class.__gnu_cxx::__normal_iterator.31"* %retval, %"class.dealii::Tensor.29"** dereferenceable(8) %_M_finish) #3, !dbg !8969
  %coerce.dive = getelementptr inbounds %"class.__gnu_cxx::__normal_iterator.31", %"class.__gnu_cxx::__normal_iterator.31"* %retval, i32 0, i32 0, !dbg !8970
  %2 = load %"class.dealii::Tensor.29"*, %"class.dealii::Tensor.29"** %coerce.dive, align 8, !dbg !8970
  ret %"class.dealii::Tensor.29"* %2, !dbg !8970
}

; Function Attrs: noinline uwtable
define linkonce_odr dso_local void @_ZN6dealii6TensorILi3ELi1EEC2Ev(%"class.dealii::Tensor.29"* %this) unnamed_addr #0 comdat align 2 !dbg !8971 {
entry:
  %this.addr = alloca %"class.dealii::Tensor.29"*, align 8
  store %"class.dealii::Tensor.29"* %this, %"class.dealii::Tensor.29"** %this.addr, align 8
  call void @llvm.dbg.declare(metadata %"class.dealii::Tensor.29"** %this.addr, metadata !8972, metadata !DIExpression()), !dbg !8973
  %this1 = load %"class.dealii::Tensor.29"*, %"class.dealii::Tensor.29"** %this.addr, align 8
  %subtensor = getelementptr inbounds %"class.dealii::Tensor.29", %"class.dealii::Tensor.29"* %this1, i32 0, i32 0, !dbg !8974
  %array.begin = getelementptr inbounds [1 x %"class.dealii::Tensor.23"], [1 x %"class.dealii::Tensor.23"]* %subtensor, i32 0, i32 0, !dbg !8974
  %arrayctor.end = getelementptr inbounds %"class.dealii::Tensor.23", %"class.dealii::Tensor.23"* %array.begin, i64 1, !dbg !8974
  br label %arrayctor.loop, !dbg !8974

arrayctor.loop:                                   ; preds = %arrayctor.loop, %entry
  %arrayctor.cur = phi %"class.dealii::Tensor.23"* [ %array.begin, %entry ], [ %arrayctor.next, %arrayctor.loop ], !dbg !8974
  call void @_ZN6dealii6TensorILi2ELi1EEC2Ev(%"class.dealii::Tensor.23"* %arrayctor.cur), !dbg !8974
  %arrayctor.next = getelementptr inbounds %"class.dealii::Tensor.23", %"class.dealii::Tensor.23"* %arrayctor.cur, i64 1, !dbg !8974
  %arrayctor.done = icmp eq %"class.dealii::Tensor.23"* %arrayctor.next, %arrayctor.end, !dbg !8974
  br i1 %arrayctor.done, label %arrayctor.cont, label %arrayctor.loop, !dbg !8974

arrayctor.cont:                                   ; preds = %arrayctor.loop
  ret void, !dbg !8975
}

; Function Attrs: noinline nounwind uwtable
define linkonce_odr dso_local dereferenceable(8) %"class.dealii::Tensor.29"* @_ZNSt6vectorIN6dealii6TensorILi3ELi1EEESaIS2_EEixEm(%"class.std::vector.24"* %this, i64 %__n) #5 comdat align 2 !dbg !8976 {
entry:
  %this.addr = alloca %"class.std::vector.24"*, align 8
  %__n.addr = alloca i64, align 8
  store %"class.std::vector.24"* %this, %"class.std::vector.24"** %this.addr, align 8
  call void @llvm.dbg.declare(metadata %"class.std::vector.24"** %this.addr, metadata !8977, metadata !DIExpression()), !dbg !8978
  store i64 %__n, i64* %__n.addr, align 8
  call void @llvm.dbg.declare(metadata i64* %__n.addr, metadata !8979, metadata !DIExpression()), !dbg !8980
  %this1 = load %"class.std::vector.24"*, %"class.std::vector.24"** %this.addr, align 8
  %0 = bitcast %"class.std::vector.24"* %this1 to %"struct.std::_Vector_base.25"*, !dbg !8981
  %_M_impl = getelementptr inbounds %"struct.std::_Vector_base.25", %"struct.std::_Vector_base.25"* %0, i32 0, i32 0, !dbg !8981
  %1 = bitcast %"struct.std::_Vector_base<dealii::Tensor<3, 1>, std::allocator<dealii::Tensor<3, 1> > >::_Vector_impl"* %_M_impl to %"struct.std::_Vector_base<dealii::Tensor<3, 1>, std::allocator<dealii::Tensor<3, 1> > >::_Vector_impl_data"*, !dbg !8982
  %_M_start = getelementptr inbounds %"struct.std::_Vector_base<dealii::Tensor<3, 1>, std::allocator<dealii::Tensor<3, 1> > >::_Vector_impl_data", %"struct.std::_Vector_base<dealii::Tensor<3, 1>, std::allocator<dealii::Tensor<3, 1> > >::_Vector_impl_data"* %1, i32 0, i32 0, !dbg !8983
  %2 = load %"class.dealii::Tensor.29"*, %"class.dealii::Tensor.29"** %_M_start, align 8, !dbg !8983
  %3 = load i64, i64* %__n.addr, align 8, !dbg !8984
  %add.ptr = getelementptr inbounds %"class.dealii::Tensor.29", %"class.dealii::Tensor.29"* %2, i64 %3, !dbg !8985
  ret %"class.dealii::Tensor.29"* %add.ptr, !dbg !8986
}

; Function Attrs: noinline nounwind uwtable
define linkonce_odr dso_local dereferenceable(8) %"class.dealii::Tensor.23"* @_ZN6dealii6TensorILi3ELi1EEixEj(%"class.dealii::Tensor.29"* %this, i32 %i) #5 comdat align 2 !dbg !8987 {
entry:
  %this.addr = alloca %"class.dealii::Tensor.29"*, align 8
  %i.addr = alloca i32, align 4
  store %"class.dealii::Tensor.29"* %this, %"class.dealii::Tensor.29"** %this.addr, align 8
  call void @llvm.dbg.declare(metadata %"class.dealii::Tensor.29"** %this.addr, metadata !8988, metadata !DIExpression()), !dbg !8989
  store i32 %i, i32* %i.addr, align 4
  call void @llvm.dbg.declare(metadata i32* %i.addr, metadata !8990, metadata !DIExpression()), !dbg !8991
  %this1 = load %"class.dealii::Tensor.29"*, %"class.dealii::Tensor.29"** %this.addr, align 8
  %subtensor = getelementptr inbounds %"class.dealii::Tensor.29", %"class.dealii::Tensor.29"* %this1, i32 0, i32 0, !dbg !8992
  %0 = load i32, i32* %i.addr, align 4, !dbg !8993
  %idxprom = zext i32 %0 to i64, !dbg !8992
  %arrayidx = getelementptr inbounds [1 x %"class.dealii::Tensor.23"], [1 x %"class.dealii::Tensor.23"]* %subtensor, i64 0, i64 %idxprom, !dbg !8992
  ret %"class.dealii::Tensor.23"* %arrayidx, !dbg !8994
}

; Function Attrs: noinline nounwind uwtable
define linkonce_odr dso_local dereferenceable(8) %"class.dealii::Tensor.23"* @_ZN6dealii6TensorILi2ELi1EEaSERKS1_(%"class.dealii::Tensor.23"* %this, %"class.dealii::Tensor.23"* dereferenceable(8) %t) #5 comdat align 2 !dbg !8995 {
entry:
  %this.addr = alloca %"class.dealii::Tensor.23"*, align 8
  %t.addr = alloca %"class.dealii::Tensor.23"*, align 8
  %i = alloca i32, align 4
  store %"class.dealii::Tensor.23"* %this, %"class.dealii::Tensor.23"** %this.addr, align 8
  call void @llvm.dbg.declare(metadata %"class.dealii::Tensor.23"** %this.addr, metadata !8996, metadata !DIExpression()), !dbg !8997
  store %"class.dealii::Tensor.23"* %t, %"class.dealii::Tensor.23"** %t.addr, align 8
  call void @llvm.dbg.declare(metadata %"class.dealii::Tensor.23"** %t.addr, metadata !8998, metadata !DIExpression()), !dbg !8999
  %this1 = load %"class.dealii::Tensor.23"*, %"class.dealii::Tensor.23"** %this.addr, align 8
  call void @llvm.dbg.declare(metadata i32* %i, metadata !9000, metadata !DIExpression()), !dbg !9002
  store i32 0, i32* %i, align 4, !dbg !9002
  br label %for.cond, !dbg !9003

for.cond:                                         ; preds = %for.inc, %entry
  %0 = load i32, i32* %i, align 4, !dbg !9004
  %cmp = icmp ult i32 %0, 1, !dbg !9006
  br i1 %cmp, label %for.body, label %for.end, !dbg !9007

for.body:                                         ; preds = %for.cond
  %1 = load %"class.dealii::Tensor.23"*, %"class.dealii::Tensor.23"** %t.addr, align 8, !dbg !9008
  %subtensor = getelementptr inbounds %"class.dealii::Tensor.23", %"class.dealii::Tensor.23"* %1, i32 0, i32 0, !dbg !9009
  %2 = load i32, i32* %i, align 4, !dbg !9010
  %idxprom = zext i32 %2 to i64, !dbg !9008
  %arrayidx = getelementptr inbounds [1 x %"class.dealii::Tensor"], [1 x %"class.dealii::Tensor"]* %subtensor, i64 0, i64 %idxprom, !dbg !9008
  %subtensor2 = getelementptr inbounds %"class.dealii::Tensor.23", %"class.dealii::Tensor.23"* %this1, i32 0, i32 0, !dbg !9011
  %3 = load i32, i32* %i, align 4, !dbg !9012
  %idxprom3 = zext i32 %3 to i64, !dbg !9011
  %arrayidx4 = getelementptr inbounds [1 x %"class.dealii::Tensor"], [1 x %"class.dealii::Tensor"]* %subtensor2, i64 0, i64 %idxprom3, !dbg !9011
  %call = call dereferenceable(8) %"class.dealii::Tensor"* @_ZN6dealii6TensorILi1ELi1EEaSERKS1_(%"class.dealii::Tensor"* %arrayidx4, %"class.dealii::Tensor"* dereferenceable(8) %arrayidx), !dbg !9013
  br label %for.inc, !dbg !9011

for.inc:                                          ; preds = %for.body
  %4 = load i32, i32* %i, align 4, !dbg !9014
  %inc = add i32 %4, 1, !dbg !9014
  store i32 %inc, i32* %i, align 4, !dbg !9014
  br label %for.cond, !dbg !9015, !llvm.loop !9016

for.end:                                          ; preds = %for.cond
  ret %"class.dealii::Tensor.23"* %this1, !dbg !9018
}

; Function Attrs: noinline nounwind uwtable
define linkonce_odr dso_local dereferenceable(96) %"class.dealii::Polynomials::Polynomial"* @_ZNKSt6vectorIN6dealii11Polynomials10PolynomialIdEESaIS3_EEixEm(%"class.std::vector"* %this, i64 %__n) #5 comdat align 2 !dbg !9019 {
entry:
  %this.addr = alloca %"class.std::vector"*, align 8
  %__n.addr = alloca i64, align 8
  store %"class.std::vector"* %this, %"class.std::vector"** %this.addr, align 8
  call void @llvm.dbg.declare(metadata %"class.std::vector"** %this.addr, metadata !9020, metadata !DIExpression()), !dbg !9022
  store i64 %__n, i64* %__n.addr, align 8
  call void @llvm.dbg.declare(metadata i64* %__n.addr, metadata !9023, metadata !DIExpression()), !dbg !9024
  %this1 = load %"class.std::vector"*, %"class.std::vector"** %this.addr, align 8
  %0 = bitcast %"class.std::vector"* %this1 to %"struct.std::_Vector_base"*, !dbg !9025
  %_M_impl = getelementptr inbounds %"struct.std::_Vector_base", %"struct.std::_Vector_base"* %0, i32 0, i32 0, !dbg !9025
  %1 = bitcast %"struct.std::_Vector_base<dealii::Polynomials::Polynomial<double>, std::allocator<dealii::Polynomials::Polynomial<double> > >::_Vector_impl"* %_M_impl to %"struct.std::_Vector_base<dealii::Polynomials::Polynomial<double>, std::allocator<dealii::Polynomials::Polynomial<double> > >::_Vector_impl_data"*, !dbg !9026
  %_M_start = getelementptr inbounds %"struct.std::_Vector_base<dealii::Polynomials::Polynomial<double>, std::allocator<dealii::Polynomials::Polynomial<double> > >::_Vector_impl_data", %"struct.std::_Vector_base<dealii::Polynomials::Polynomial<double>, std::allocator<dealii::Polynomials::Polynomial<double> > >::_Vector_impl_data"* %1, i32 0, i32 0, !dbg !9027
  %2 = load %"class.dealii::Polynomials::Polynomial"*, %"class.dealii::Polynomials::Polynomial"** %_M_start, align 8, !dbg !9027
  %3 = load i64, i64* %__n.addr, align 8, !dbg !9028
  %add.ptr = getelementptr inbounds %"class.dealii::Polynomials::Polynomial", %"class.dealii::Polynomials::Polynomial"* %2, i64 %3, !dbg !9029
  ret %"class.dealii::Polynomials::Polynomial"* %add.ptr, !dbg !9030
}

declare dso_local void @_ZNK6dealii11Polynomials10PolynomialIdE5valueEdRSt6vectorIdSaIdEE(%"class.dealii::Polynomials::Polynomial"*, double, %"class.std::vector.3"* dereferenceable(24)) #1

; Function Attrs: noinline nounwind uwtable
define linkonce_odr dso_local double @_ZNK6dealii5PointILi1EEclEj(%"class.dealii::Point"* %this, i32 %index) #5 comdat align 2 !dbg !9031 {
entry:
  %this.addr = alloca %"class.dealii::Point"*, align 8
  %index.addr = alloca i32, align 4
  store %"class.dealii::Point"* %this, %"class.dealii::Point"** %this.addr, align 8
  call void @llvm.dbg.declare(metadata %"class.dealii::Point"** %this.addr, metadata !9032, metadata !DIExpression()), !dbg !9034
  store i32 %index, i32* %index.addr, align 4
  call void @llvm.dbg.declare(metadata i32* %index.addr, metadata !9035, metadata !DIExpression()), !dbg !9036
  %this1 = load %"class.dealii::Point"*, %"class.dealii::Point"** %this.addr, align 8
  %0 = bitcast %"class.dealii::Point"* %this1 to %"class.dealii::Tensor"*, !dbg !9037
  %values = getelementptr inbounds %"class.dealii::Tensor", %"class.dealii::Tensor"* %0, i32 0, i32 0, !dbg !9037
  %1 = load i32, i32* %index.addr, align 4, !dbg !9038
  %idxprom = zext i32 %1 to i64, !dbg !9039
  %arrayidx = getelementptr inbounds [1 x double], [1 x double]* %values, i64 0, i64 %idxprom, !dbg !9039
  %2 = load double, double* %arrayidx, align 8, !dbg !9039
  ret double %2, !dbg !9040
}

; Function Attrs: noinline nounwind uwtable
define weak_odr dso_local i32 @_ZNK6dealii14PolynomialsBDMILi1EE1nEv(%"class.dealii::PolynomialsBDM"* %this) #5 comdat align 2 !dbg !9041 {
entry:
  %this.addr = alloca %"class.dealii::PolynomialsBDM"*, align 8
  store %"class.dealii::PolynomialsBDM"* %this, %"class.dealii::PolynomialsBDM"** %this.addr, align 8
  call void @llvm.dbg.declare(metadata %"class.dealii::PolynomialsBDM"** %this.addr, metadata !9042, metadata !DIExpression()), !dbg !9043
  %this1 = load %"class.dealii::PolynomialsBDM"*, %"class.dealii::PolynomialsBDM"** %this.addr, align 8
  %n_pols = getelementptr inbounds %"class.dealii::PolynomialsBDM", %"class.dealii::PolynomialsBDM"* %this1, i32 0, i32 2, !dbg !9044
  %0 = load i32, i32* %n_pols, align 8, !dbg !9044
  ret i32 %0, !dbg !9045
}

; Function Attrs: noinline uwtable
define weak_odr dso_local i32 @_ZNK6dealii14PolynomialsBDMILi1EE6degreeEv(%"class.dealii::PolynomialsBDM"* %this) #0 comdat align 2 !dbg !9046 {
entry:
  %this.addr = alloca %"class.dealii::PolynomialsBDM"*, align 8
  store %"class.dealii::PolynomialsBDM"* %this, %"class.dealii::PolynomialsBDM"** %this.addr, align 8
  call void @llvm.dbg.declare(metadata %"class.dealii::PolynomialsBDM"** %this.addr, metadata !9047, metadata !DIExpression()), !dbg !9048
  %this1 = load %"class.dealii::PolynomialsBDM"*, %"class.dealii::PolynomialsBDM"** %this.addr, align 8
