; ModuleID = 'source/base/geometry_info.cc'
source_filename = "source/base/geometry_info.cc"
target datalayout = "e-m:e-p270:32:32-p271:32:32-p272:64:64-i64:64-f80:128-n8:16:32:64-S128"
target triple = "x86_64-unknown-linux-gnu"

%"class.dealii::RefinementCase" = type { i8 }
%"class.dealii::RefinementCase.2" = type { i8 }
%"class.dealii::RefinementCase.6" = type { i8 }
%"class.dealii::GeometryInfo<1>::ExcInvalidCoordinate" = type { %"class.dealii::ExceptionBase.base", double }
%"class.dealii::ExceptionBase.base" = type <{ %"class.std::exception", i8*, i32, [4 x i8], i8*, i8*, i8*, i8**, i32 }>
%"class.std::exception" = type { i32 (...)** }
%"class.dealii::GeometryInfo<1>::ExcInvalidSubface" = type { %"class.dealii::ExceptionBase.base", i32, i32, i32 }
%"class.dealii::GeometryInfo<2>::ExcInvalidCoordinate" = type { %"class.dealii::ExceptionBase.base", double }
%"class.dealii::GeometryInfo<2>::ExcInvalidSubface" = type { %"class.dealii::ExceptionBase.base", i32, i32, i32 }
%"class.dealii::GeometryInfo<3>::ExcInvalidCoordinate" = type { %"class.dealii::ExceptionBase.base", double }
%"class.dealii::GeometryInfo<3>::ExcInvalidSubface" = type { %"class.dealii::ExceptionBase.base", i32, i32, i32 }
%"class.dealii::GeometryInfo<4>::ExcInvalidCoordinate" = type { %"class.dealii::ExceptionBase.base", double }
%"class.dealii::GeometryInfo<4>::ExcInvalidSubface" = type { %"class.dealii::ExceptionBase.base", i32, i32, i32 }
%"class.dealii::RefinementCase.0" = type { i8 }
%"struct.dealii::RefinementPossibilities" = type { i8 }
%"struct.dealii::RefinementPossibilities.1" = type { i8 }
%"class.dealii::Point" = type { %"class.dealii::Tensor" }
%"class.dealii::Tensor" = type { [1 x double] }
%"class.dealii::ExceptionBase" = type <{ %"class.std::exception", i8*, i32, [4 x i8], i8*, i8*, i8*, i8**, i32, [4 x i8] }>
%"class.std::basic_ostream" = type { i32 (...)**, %"class.std::basic_ios" }
%"class.std::basic_ios" = type { %"class.std::ios_base", %"class.std::basic_ostream"*, i8, i8, %"class.std::basic_streambuf"*, %"class.std::ctype"*, %"class.std::num_put"*, %"class.std::num_get"* }
%"class.std::ios_base" = type { i32 (...)**, i64, i64, i32, i32, i32, %"struct.std::ios_base::_Callback_list"*, %"struct.std::ios_base::_Words", [8 x %"struct.std::ios_base::_Words"], i32, %"struct.std::ios_base::_Words"*, %"class.std::locale" }
%"struct.std::ios_base::_Callback_list" = type { %"struct.std::ios_base::_Callback_list"*, void (i32, %"class.std::ios_base"*, i32)*, i32, i32 }
%"struct.std::ios_base::_Words" = type { i8*, i64 }
%"class.std::locale" = type { %"class.std::locale::_Impl"* }
%"class.std::locale::_Impl" = type { i32, %"class.std::locale::facet"**, i64, %"class.std::locale::facet"**, i8** }
%"class.std::locale::facet" = type <{ i32 (...)**, i32, [4 x i8] }>
%"class.std::basic_streambuf" = type { i32 (...)**, i8*, i8*, i8*, i8*, i8*, i8*, %"class.std::locale" }
%"class.std::ctype" = type <{ %"class.std::locale::facet.base", [4 x i8], %struct.__locale_struct*, i8, [7 x i8], i32*, i32*, i16*, i8, [256 x i8], [256 x i8], i8, [6 x i8] }>
%"class.std::locale::facet.base" = type <{ i32 (...)**, i32 }>
%struct.__locale_struct = type { [13 x %struct.__locale_data*], i16*, i32*, i32*, [13 x i8*] }
%struct.__locale_data = type opaque
%"class.std::num_put" = type { %"class.std::locale::facet.base", [4 x i8] }
%"class.std::num_get" = type { %"class.std::locale::facet.base", [4 x i8] }
%"struct.dealii::RefinementPossibilities.3" = type { i8 }
%"class.dealii::Point.4" = type { %"class.dealii::Tensor.5" }
%"class.dealii::Tensor.5" = type { [2 x double] }
%"struct.dealii::RefinementPossibilities.7" = type { i8 }
%"class.dealii::Point.10" = type { %"class.dealii::Tensor.11" }
%"class.dealii::Tensor.11" = type { [3 x double] }
%"class.dealii::RefinementCase.12" = type { i8 }
%"struct.dealii::RefinementPossibilities.13" = type { i8 }
%"class.dealii::Point.14" = type { %"class.dealii::Tensor.15" }
%"class.dealii::Tensor.15" = type { [4 x double] }
%"class.dealii::StandardExceptions::ExcNotImplemented" = type { %"class.dealii::ExceptionBase.base", [4 x i8] }
%"class.dealii::internal::SubfaceCase.16" = type opaque
%"class.dealii::internal::SubfaceCase" = type { i8 }
%"class.dealii::internal::SubfaceCase.8" = type { i8 }

$_ZN6dealii8internal16define_variablesILi2EEEvv = comdat any

$_ZN6dealii8internal16define_variablesILi3EEEvv = comdat any

$_ZN6dealii8internal16define_variablesILi4EEEvv = comdat any

$_ZN6dealii12GeometryInfoILi1EE10n_childrenERKNS_14RefinementCaseILi1EEE = comdat any

$_ZNK6dealii14RefinementCaseILi1EEcvhEv = comdat any

$_ZN6dealii12GeometryInfoILi1EE21face_to_cell_verticesEjjbbb = comdat any

$_ZN6dealii14RefinementCaseILi1EEC2ENS_23RefinementPossibilitiesILi1EE13PossibilitiesE = comdat any

$_ZN6dealii14RefinementCaseILi0EEC2ENS_23RefinementPossibilitiesILi0EE13PossibilitiesE = comdat any

$_ZN6dealii12GeometryInfoILi1EE28standard_to_real_face_vertexEjbbb = comdat any

$_ZN6dealii12GeometryInfoILi1EE28real_to_standard_face_vertexEjbbb = comdat any

$_ZN6dealii12GeometryInfoILi1EE26standard_to_real_face_lineEjbbb = comdat any

$_ZN6dealii12GeometryInfoILi1EE26real_to_standard_face_lineEjbbb = comdat any

$_ZN6dealii12GeometryInfoILi1EE20project_to_unit_cellERKNS_5PointILi1EEE = comdat any

$_ZN6dealii5PointILi1EEC2ERKS1_ = comdat any

$_ZN6dealii6TensorILi1ELi1EEixEj = comdat any

$_ZN6dealii12GeometryInfoILi1EE21distance_to_unit_cellERKNS_5PointILi1EEE = comdat any

$_ZNK6dealii6TensorILi1ELi1EEixEj = comdat any

$_ZN6dealii12GeometryInfoILi1EE20ExcInvalidCoordinateC5Ed = comdat any

$_ZN6dealii12GeometryInfoILi1EE20ExcInvalidCoordinateD5Ev = comdat any

$_ZNK6dealii12GeometryInfoILi1EE20ExcInvalidCoordinate10print_infoERSo = comdat any

$_ZN6dealii12GeometryInfoILi1EE17ExcInvalidSubfaceC5Eiii = comdat any

$_ZN6dealii12GeometryInfoILi1EE17ExcInvalidSubfaceD5Ev = comdat any

$_ZNK6dealii12GeometryInfoILi1EE17ExcInvalidSubface10print_infoERSo = comdat any

$_ZN6dealii12GeometryInfoILi2EE10n_childrenERKNS_14RefinementCaseILi2EEE = comdat any

$_ZNK6dealii14RefinementCaseILi2EEcvhEv = comdat any

$_ZN6dealii12GeometryInfoILi2EE21face_to_cell_verticesEjjbbb = comdat any

$_ZN6dealii14RefinementCaseILi2EEC2ENS_23RefinementPossibilitiesILi2EE13PossibilitiesE = comdat any

$_ZN6dealii12GeometryInfoILi2EE28standard_to_real_face_vertexEjbbb = comdat any

$_ZN6dealii12GeometryInfoILi2EE28real_to_standard_face_vertexEjbbb = comdat any

$_ZN6dealii12GeometryInfoILi2EE26standard_to_real_face_lineEjbbb = comdat any

$_ZN6dealii12GeometryInfoILi2EE26real_to_standard_face_lineEjbbb = comdat any

$_ZN6dealii12GeometryInfoILi2EE20project_to_unit_cellERKNS_5PointILi2EEE = comdat any

$_ZN6dealii5PointILi2EEC2ERKS1_ = comdat any

$_ZN6dealii6TensorILi1ELi2EEixEj = comdat any

$_ZN6dealii12GeometryInfoILi2EE21distance_to_unit_cellERKNS_5PointILi2EEE = comdat any

$_ZNK6dealii6TensorILi1ELi2EEixEj = comdat any

$_ZN6dealii12GeometryInfoILi2EE20ExcInvalidCoordinateC5Ed = comdat any

$_ZN6dealii12GeometryInfoILi2EE20ExcInvalidCoordinateD5Ev = comdat any

$_ZNK6dealii12GeometryInfoILi2EE20ExcInvalidCoordinate10print_infoERSo = comdat any

$_ZN6dealii12GeometryInfoILi2EE17ExcInvalidSubfaceC5Eiii = comdat any

$_ZN6dealii12GeometryInfoILi2EE17ExcInvalidSubfaceD5Ev = comdat any

$_ZNK6dealii12GeometryInfoILi2EE17ExcInvalidSubface10print_infoERSo = comdat any

$_ZN6dealii12GeometryInfoILi3EE10n_childrenERKNS_14RefinementCaseILi3EEE = comdat any

$_ZNK6dealii14RefinementCaseILi3EEcvhEv = comdat any

$_ZN6dealii12GeometryInfoILi3EE21face_to_cell_verticesEjjbbb = comdat any

$_ZN6dealii14RefinementCaseILi3EEC2ENS_23RefinementPossibilitiesILi3EE13PossibilitiesE = comdat any

$_ZN6dealii12GeometryInfoILi3EE20project_to_unit_cellERKNS_5PointILi3EEE = comdat any

$_ZN6dealii5PointILi3EEC2ERKS1_ = comdat any

$_ZN6dealii6TensorILi1ELi3EEixEj = comdat any

$_ZN6dealii12GeometryInfoILi3EE21distance_to_unit_cellERKNS_5PointILi3EEE = comdat any

$_ZNK6dealii6TensorILi1ELi3EEixEj = comdat any

$_ZN6dealii12GeometryInfoILi3EE20ExcInvalidCoordinateC5Ed = comdat any

$_ZN6dealii12GeometryInfoILi3EE20ExcInvalidCoordinateD5Ev = comdat any

$_ZNK6dealii12GeometryInfoILi3EE20ExcInvalidCoordinate10print_infoERSo = comdat any

$_ZN6dealii12GeometryInfoILi3EE17ExcInvalidSubfaceC5Eiii = comdat any

$_ZN6dealii12GeometryInfoILi3EE17ExcInvalidSubfaceD5Ev = comdat any

$_ZNK6dealii12GeometryInfoILi3EE17ExcInvalidSubface10print_infoERSo = comdat any

$_ZN6dealii12GeometryInfoILi4EE10n_childrenERKNS_14RefinementCaseILi4EEE = comdat any

$_ZNK6dealii14RefinementCaseILi4EEcvhEv = comdat any

$_ZN6dealii12GeometryInfoILi4EE21face_to_cell_verticesEjjbbb = comdat any

$_ZN6dealii14RefinementCaseILi4EEC2ENS_23RefinementPossibilitiesILi4EE13PossibilitiesE = comdat any

$_ZN6dealii12GeometryInfoILi4EE18face_to_cell_linesEjjbbb = comdat any

$_ZN6dealii12GeometryInfoILi4EE28standard_to_real_face_vertexEjbbb = comdat any

$_ZN6dealii12GeometryInfoILi4EE28real_to_standard_face_vertexEjbbb = comdat any

$_ZN6dealii12GeometryInfoILi4EE26standard_to_real_face_lineEjbbb = comdat any

$_ZN6dealii12GeometryInfoILi4EE26real_to_standard_face_lineEjbbb = comdat any

$_ZN6dealii12GeometryInfoILi4EE16unit_cell_vertexEj = comdat any

$_ZN6dealii5PointILi4EEC2Ev = comdat any

$_ZN6dealii12GeometryInfoILi4EE21child_cell_from_pointERKNS_5PointILi4EEE = comdat any

$_ZN6dealii12GeometryInfoILi4EE25cell_to_child_coordinatesERKNS_5PointILi4EEEjNS_14RefinementCaseILi4EEE = comdat any

$_ZN6dealii18deal_II_exceptions9internals17issue_error_throwINS_18StandardExceptions17ExcNotImplementedEEEvPKciS6_S6_S6_T_ = comdat any

$_ZN6dealii18StandardExceptions17ExcNotImplementedC2Ev = comdat any

$_ZN6dealii18StandardExceptions17ExcNotImplementedD2Ev = comdat any

$_ZN6dealii12GeometryInfoILi4EE25child_to_cell_coordinatesERKNS_5PointILi4EEEjNS_14RefinementCaseILi4EEE = comdat any

$_ZN6dealii12GeometryInfoILi4EE20project_to_unit_cellERKNS_5PointILi4EEE = comdat any

$_ZN6dealii5PointILi4EEC2ERKS1_ = comdat any

$_ZN6dealii6TensorILi1ELi4EEixEj = comdat any

$_ZN6dealii12GeometryInfoILi4EE21distance_to_unit_cellERKNS_5PointILi4EEE = comdat any

$_ZNK6dealii6TensorILi1ELi4EEixEj = comdat any

$_ZN6dealii12GeometryInfoILi4EE20ExcInvalidCoordinateC5Ed = comdat any

$_ZN6dealii12GeometryInfoILi4EE20ExcInvalidCoordinateD5Ev = comdat any

$_ZNK6dealii12GeometryInfoILi4EE20ExcInvalidCoordinate10print_infoERSo = comdat any

$_ZN6dealii12GeometryInfoILi4EE17ExcInvalidSubfaceC5Eiii = comdat any

$_ZN6dealii12GeometryInfoILi4EE17ExcInvalidSubfaceD5Ev = comdat any

$_ZNK6dealii12GeometryInfoILi4EE17ExcInvalidSubface10print_infoERSo = comdat any

$_ZNK6dealii8internal11SubfaceCaseILi2EEcvhEv = comdat any

$_ZNK6dealii8internal11SubfaceCaseILi3EEcvhEv = comdat any

$_ZNK6dealii14RefinementCaseILi3EEanERKS1_ = comdat any

$_ZNK6dealii14RefinementCaseILi2EEanERKS1_ = comdat any

$_ZN6dealii6TensorILi1ELi1EEC2ERKS1_ = comdat any

$_ZN6dealii6TensorILi1ELi2EEC2ERKS1_ = comdat any

$_ZN6dealii6TensorILi1ELi3EEC2ERKS1_ = comdat any

$_ZN6dealii18StandardExceptions17ExcNotImplementedD0Ev = comdat any

$_ZN6dealii6TensorILi1ELi4EEC2ERKS1_ = comdat any

$_ZN6dealii14RefinementCaseILi3EEC2Eh = comdat any

$_ZN6dealii14RefinementCaseILi2EEC2Eh = comdat any

$_ZN6dealii6TensorILi1ELi4EEC2Eb = comdat any

$_ZN6dealii18StandardExceptions17ExcNotImplementedC2EOS1_ = comdat any

$_ZN6dealii12GeometryInfoILi2EE17vertices_per_cellE = comdat any

$_ZN6dealii12GeometryInfoILi3EE17vertices_per_cellE = comdat any

$_ZN6dealii12GeometryInfoILi4EE17vertices_per_cellE = comdat any

$_ZN6dealii12GeometryInfoILi1EE21max_children_per_cellE = comdat any

$_ZN6dealii12GeometryInfoILi1EE14faces_per_cellE = comdat any

$_ZN6dealii12GeometryInfoILi1EE21max_children_per_faceE = comdat any

$_ZN6dealii12GeometryInfoILi1EE17vertices_per_cellE = comdat any

$_ZN6dealii12GeometryInfoILi1EE17vertices_per_faceE = comdat any

$_ZN6dealii12GeometryInfoILi1EE14lines_per_faceE = comdat any

$_ZN6dealii12GeometryInfoILi1EE14quads_per_faceE = comdat any

$_ZN6dealii12GeometryInfoILi1EE14lines_per_cellE = comdat any

$_ZN6dealii12GeometryInfoILi1EE14quads_per_cellE = comdat any

$_ZN6dealii12GeometryInfoILi1EE14hexes_per_cellE = comdat any

$_ZZN6dealii12GeometryInfoILi1EE10n_childrenERKNS_14RefinementCaseILi1EEEE10n_children = comdat any

$_ZTVN6dealii12GeometryInfoILi1EE20ExcInvalidCoordinateE = comdat any

$_ZTVN6dealii12GeometryInfoILi1EE17ExcInvalidSubfaceE = comdat any

$_ZN6dealii12GeometryInfoILi2EE21max_children_per_cellE = comdat any

$_ZN6dealii12GeometryInfoILi2EE14faces_per_cellE = comdat any

$_ZN6dealii12GeometryInfoILi2EE21max_children_per_faceE = comdat any

$_ZN6dealii12GeometryInfoILi2EE17vertices_per_faceE = comdat any

$_ZN6dealii12GeometryInfoILi2EE14lines_per_faceE = comdat any

$_ZN6dealii12GeometryInfoILi2EE14quads_per_faceE = comdat any

$_ZN6dealii12GeometryInfoILi2EE14lines_per_cellE = comdat any

$_ZN6dealii12GeometryInfoILi2EE14quads_per_cellE = comdat any

$_ZN6dealii12GeometryInfoILi2EE14hexes_per_cellE = comdat any

$_ZZN6dealii12GeometryInfoILi2EE10n_childrenERKNS_14RefinementCaseILi2EEEE10n_children = comdat any

$_ZTVN6dealii12GeometryInfoILi2EE20ExcInvalidCoordinateE = comdat any

$_ZTVN6dealii12GeometryInfoILi2EE17ExcInvalidSubfaceE = comdat any

$_ZN6dealii12GeometryInfoILi3EE21max_children_per_cellE = comdat any

$_ZN6dealii12GeometryInfoILi3EE14faces_per_cellE = comdat any

$_ZN6dealii12GeometryInfoILi3EE21max_children_per_faceE = comdat any

$_ZN6dealii12GeometryInfoILi3EE17vertices_per_faceE = comdat any

$_ZN6dealii12GeometryInfoILi3EE14lines_per_faceE = comdat any

$_ZN6dealii12GeometryInfoILi3EE14quads_per_faceE = comdat any

$_ZN6dealii12GeometryInfoILi3EE14lines_per_cellE = comdat any

$_ZN6dealii12GeometryInfoILi3EE14quads_per_cellE = comdat any

$_ZN6dealii12GeometryInfoILi3EE14hexes_per_cellE = comdat any

$_ZZN6dealii12GeometryInfoILi3EE10n_childrenERKNS_14RefinementCaseILi3EEEE10n_children = comdat any

$_ZTVN6dealii12GeometryInfoILi3EE20ExcInvalidCoordinateE = comdat any

$_ZTVN6dealii12GeometryInfoILi3EE17ExcInvalidSubfaceE = comdat any

$_ZN6dealii12GeometryInfoILi4EE21max_children_per_cellE = comdat any

$_ZN6dealii12GeometryInfoILi4EE14faces_per_cellE = comdat any

$_ZN6dealii12GeometryInfoILi4EE21max_children_per_faceE = comdat any

$_ZN6dealii12GeometryInfoILi4EE17vertices_per_faceE = comdat any

$_ZN6dealii12GeometryInfoILi4EE14lines_per_faceE = comdat any

$_ZN6dealii12GeometryInfoILi4EE14quads_per_faceE = comdat any

$_ZN6dealii12GeometryInfoILi4EE14lines_per_cellE = comdat any

$_ZN6dealii12GeometryInfoILi4EE14quads_per_cellE = comdat any

$_ZN6dealii12GeometryInfoILi4EE14hexes_per_cellE = comdat any

$_ZZN6dealii12GeometryInfoILi4EE10n_childrenERKNS_14RefinementCaseILi4EEEE10n_children = comdat any

$_ZTVN6dealii12GeometryInfoILi4EE20ExcInvalidCoordinateE = comdat any

$_ZTVN6dealii12GeometryInfoILi4EE17ExcInvalidSubfaceE = comdat any

$_ZTSN6dealii12GeometryInfoILi1EE20ExcInvalidCoordinateE = comdat any

$_ZTIN6dealii12GeometryInfoILi1EE20ExcInvalidCoordinateE = comdat any

$_ZTSN6dealii12GeometryInfoILi1EE17ExcInvalidSubfaceE = comdat any

$_ZTIN6dealii12GeometryInfoILi1EE17ExcInvalidSubfaceE = comdat any

$_ZTSN6dealii12GeometryInfoILi2EE20ExcInvalidCoordinateE = comdat any

$_ZTIN6dealii12GeometryInfoILi2EE20ExcInvalidCoordinateE = comdat any

$_ZTSN6dealii12GeometryInfoILi2EE17ExcInvalidSubfaceE = comdat any

$_ZTIN6dealii12GeometryInfoILi2EE17ExcInvalidSubfaceE = comdat any

$_ZTSN6dealii12GeometryInfoILi3EE20ExcInvalidCoordinateE = comdat any

$_ZTIN6dealii12GeometryInfoILi3EE20ExcInvalidCoordinateE = comdat any

$_ZTSN6dealii12GeometryInfoILi3EE17ExcInvalidSubfaceE = comdat any

$_ZTIN6dealii12GeometryInfoILi3EE17ExcInvalidSubfaceE = comdat any

$_ZTSN6dealii12GeometryInfoILi4EE20ExcInvalidCoordinateE = comdat any

$_ZTIN6dealii12GeometryInfoILi4EE20ExcInvalidCoordinateE = comdat any

$_ZTSN6dealii12GeometryInfoILi4EE17ExcInvalidSubfaceE = comdat any

$_ZTIN6dealii12GeometryInfoILi4EE17ExcInvalidSubfaceE = comdat any

$_ZTVN6dealii18StandardExceptions17ExcNotImplementedE = comdat any

$_ZTSN6dealii18StandardExceptions17ExcNotImplementedE = comdat any

$_ZTIN6dealii18StandardExceptions17ExcNotImplementedE = comdat any

@_ZN6dealii12GeometryInfoILi2EE17vertices_per_cellE = weak_odr dso_local constant i32 4, comdat, align 4, !dbg !0
@_ZN6dealii12GeometryInfoILi3EE17vertices_per_cellE = weak_odr dso_local constant i32 8, comdat, align 4, !dbg !324
@_ZN6dealii12GeometryInfoILi4EE17vertices_per_cellE = weak_odr dso_local constant i32 16, comdat, align 4, !dbg !592
@_ZN6dealii12GeometryInfoILi1EE21max_children_per_cellE = weak_odr dso_local constant i32 2, comdat, align 4, !dbg !826, !dbg !826
@_ZN6dealii12GeometryInfoILi1EE14faces_per_cellE = weak_odr dso_local constant i32 2, comdat, align 4, !dbg !1058
@_ZN6dealii12GeometryInfoILi1EE21max_children_per_faceE = weak_odr dso_local constant i32 1, comdat, align 4, !dbg !1060, !dbg !1060
@_ZN6dealii12GeometryInfoILi1EE17vertices_per_cellE = weak_odr dso_local constant i32 2, comdat, align 4, !dbg !1062
@_ZN6dealii12GeometryInfoILi1EE17vertices_per_faceE = weak_odr dso_local constant i32 1, comdat, align 4, !dbg !1064, !dbg !1064
@_ZN6dealii12GeometryInfoILi1EE14lines_per_faceE = weak_odr dso_local constant i32 0, comdat, align 4, !dbg !1066, !dbg !1066
@_ZN6dealii12GeometryInfoILi1EE14quads_per_faceE = weak_odr dso_local constant i32 0, comdat, align 4, !dbg !1068, !dbg !1068
@_ZN6dealii12GeometryInfoILi1EE14lines_per_cellE = weak_odr dso_local constant i32 1, comdat, align 4, !dbg !1070, !dbg !1070
@_ZN6dealii12GeometryInfoILi1EE14quads_per_cellE = weak_odr dso_local constant i32 0, comdat, align 4, !dbg !1072, !dbg !1072
@_ZN6dealii12GeometryInfoILi1EE14hexes_per_cellE = weak_odr dso_local constant i32 0, comdat, align 4, !dbg !1074, !dbg !1074
@_ZZN6dealii12GeometryInfoILi1EE10n_childrenERKNS_14RefinementCaseILi1EEEE10n_children = linkonce_odr dso_local constant [8 x i32] [i32 0, i32 2, i32 2, i32 4, i32 2, i32 4, i32 4, i32 8], comdat, align 16, !dbg !1076
@_ZTVN6dealii12GeometryInfoILi1EE20ExcInvalidCoordinateE = weak_odr dso_local unnamed_addr constant { [6 x i8*] } { [6 x i8*] [i8* null, i8* bitcast ({ i8*, i8*, i8* }* @_ZTIN6dealii12GeometryInfoILi1EE20ExcInvalidCoordinateE to i8*), i8* bitcast (void (%"class.dealii::GeometryInfo<1>::ExcInvalidCoordinate"*)* @_ZN6dealii12GeometryInfoILi1EE20ExcInvalidCoordinateD1Ev to i8*), i8* bitcast (void (%"class.dealii::GeometryInfo<1>::ExcInvalidCoordinate"*)* @_ZN6dealii12GeometryInfoILi1EE20ExcInvalidCoordinateD0Ev to i8*), i8* bitcast (i8* (%"class.dealii::ExceptionBase"*)* @_ZNK6dealii13ExceptionBase4whatEv to i8*), i8* bitcast (void (%"class.dealii::GeometryInfo<1>::ExcInvalidCoordinate"*, %"class.std::basic_ostream"*)* @_ZNK6dealii12GeometryInfoILi1EE20ExcInvalidCoordinate10print_infoERSo to i8*)] }, comdat, align 8
@.str = private unnamed_addr constant [45 x i8] c"The coordinates must satisfy 0 <= x_i <= 1, \00", align 1
@.str.1 = private unnamed_addr constant [22 x i8] c"but here we have x_i=\00", align 1
@_ZTVN6dealii12GeometryInfoILi1EE17ExcInvalidSubfaceE = weak_odr dso_local unnamed_addr constant { [6 x i8*] } { [6 x i8*] [i8* null, i8* bitcast ({ i8*, i8*, i8* }* @_ZTIN6dealii12GeometryInfoILi1EE17ExcInvalidSubfaceE to i8*), i8* bitcast (void (%"class.dealii::GeometryInfo<1>::ExcInvalidSubface"*)* @_ZN6dealii12GeometryInfoILi1EE17ExcInvalidSubfaceD1Ev to i8*), i8* bitcast (void (%"class.dealii::GeometryInfo<1>::ExcInvalidSubface"*)* @_ZN6dealii12GeometryInfoILi1EE17ExcInvalidSubfaceD0Ev to i8*), i8* bitcast (i8* (%"class.dealii::ExceptionBase"*)* @_ZNK6dealii13ExceptionBase4whatEv to i8*), i8* bitcast (void (%"class.dealii::GeometryInfo<1>::ExcInvalidSubface"*, %"class.std::basic_ostream"*)* @_ZNK6dealii12GeometryInfoILi1EE17ExcInvalidSubface10print_infoERSo to i8*)] }, comdat, align 8
@.str.2 = private unnamed_addr constant [21 x i8] c"RefinementCase<dim> \00", align 1
@.str.3 = private unnamed_addr constant [8 x i8] c": face \00", align 1
@.str.4 = private unnamed_addr constant [17 x i8] c" has no subface \00", align 1
@_ZN6dealii12GeometryInfoILi2EE21max_children_per_cellE = weak_odr dso_local constant i32 4, comdat, align 4, !dbg !1083, !dbg !1083
@_ZN6dealii12GeometryInfoILi2EE14faces_per_cellE = weak_odr dso_local constant i32 4, comdat, align 4, !dbg !1138
@_ZN6dealii12GeometryInfoILi2EE21max_children_per_faceE = weak_odr dso_local constant i32 2, comdat, align 4, !dbg !1196
@_ZN6dealii12GeometryInfoILi2EE17vertices_per_faceE = weak_odr dso_local constant i32 2, comdat, align 4, !dbg !1085, !dbg !1085
@_ZN6dealii12GeometryInfoILi2EE14lines_per_faceE = weak_odr dso_local constant i32 1, comdat, align 4, !dbg !1087, !dbg !1087
@_ZN6dealii12GeometryInfoILi2EE14quads_per_faceE = weak_odr dso_local constant i32 0, comdat, align 4, !dbg !1089, !dbg !1089
@_ZN6dealii12GeometryInfoILi2EE14lines_per_cellE = weak_odr dso_local constant i32 4, comdat, align 4, !dbg !1091, !dbg !1091
@_ZN6dealii12GeometryInfoILi2EE14quads_per_cellE = weak_odr dso_local constant i32 1, comdat, align 4, !dbg !1093, !dbg !1093
@_ZN6dealii12GeometryInfoILi2EE14hexes_per_cellE = weak_odr dso_local constant i32 0, comdat, align 4, !dbg !1095, !dbg !1095
@_ZZN6dealii12GeometryInfoILi2EE10n_childrenERKNS_14RefinementCaseILi2EEEE10n_children = linkonce_odr dso_local constant [8 x i32] [i32 0, i32 2, i32 2, i32 4, i32 2, i32 4, i32 4, i32 8], comdat, align 16, !dbg !1097
@_ZTVN6dealii12GeometryInfoILi2EE20ExcInvalidCoordinateE = weak_odr dso_local unnamed_addr constant { [6 x i8*] } { [6 x i8*] [i8* null, i8* bitcast ({ i8*, i8*, i8* }* @_ZTIN6dealii12GeometryInfoILi2EE20ExcInvalidCoordinateE to i8*), i8* bitcast (void (%"class.dealii::GeometryInfo<2>::ExcInvalidCoordinate"*)* @_ZN6dealii12GeometryInfoILi2EE20ExcInvalidCoordinateD1Ev to i8*), i8* bitcast (void (%"class.dealii::GeometryInfo<2>::ExcInvalidCoordinate"*)* @_ZN6dealii12GeometryInfoILi2EE20ExcInvalidCoordinateD0Ev to i8*), i8* bitcast (i8* (%"class.dealii::ExceptionBase"*)* @_ZNK6dealii13ExceptionBase4whatEv to i8*), i8* bitcast (void (%"class.dealii::GeometryInfo<2>::ExcInvalidCoordinate"*, %"class.std::basic_ostream"*)* @_ZNK6dealii12GeometryInfoILi2EE20ExcInvalidCoordinate10print_infoERSo to i8*)] }, comdat, align 8
@_ZTVN6dealii12GeometryInfoILi2EE17ExcInvalidSubfaceE = weak_odr dso_local unnamed_addr constant { [6 x i8*] } { [6 x i8*] [i8* null, i8* bitcast ({ i8*, i8*, i8* }* @_ZTIN6dealii12GeometryInfoILi2EE17ExcInvalidSubfaceE to i8*), i8* bitcast (void (%"class.dealii::GeometryInfo<2>::ExcInvalidSubface"*)* @_ZN6dealii12GeometryInfoILi2EE17ExcInvalidSubfaceD1Ev to i8*), i8* bitcast (void (%"class.dealii::GeometryInfo<2>::ExcInvalidSubface"*)* @_ZN6dealii12GeometryInfoILi2EE17ExcInvalidSubfaceD0Ev to i8*), i8* bitcast (i8* (%"class.dealii::ExceptionBase"*)* @_ZNK6dealii13ExceptionBase4whatEv to i8*), i8* bitcast (void (%"class.dealii::GeometryInfo<2>::ExcInvalidSubface"*, %"class.std::basic_ostream"*)* @_ZNK6dealii12GeometryInfoILi2EE17ExcInvalidSubface10print_infoERSo to i8*)] }, comdat, align 8
@_ZN6dealii12GeometryInfoILi3EE21max_children_per_cellE = weak_odr dso_local constant i32 8, comdat, align 4, !dbg !1100, !dbg !1100
@_ZN6dealii12GeometryInfoILi3EE14faces_per_cellE = weak_odr dso_local constant i32 6, comdat, align 4, !dbg !1142
@_ZN6dealii12GeometryInfoILi3EE21max_children_per_faceE = weak_odr dso_local constant i32 4, comdat, align 4, !dbg !1198
@_ZN6dealii12GeometryInfoILi3EE17vertices_per_faceE = weak_odr dso_local constant i32 4, comdat, align 4, !dbg !1102, !dbg !1102
@_ZN6dealii12GeometryInfoILi3EE14lines_per_faceE = weak_odr dso_local constant i32 4, comdat, align 4, !dbg !1280
@_ZN6dealii12GeometryInfoILi3EE14quads_per_faceE = weak_odr dso_local constant i32 1, comdat, align 4, !dbg !1104, !dbg !1104
@_ZN6dealii12GeometryInfoILi3EE14lines_per_cellE = weak_odr dso_local constant i32 12, comdat, align 4, !dbg !1220
@_ZN6dealii12GeometryInfoILi3EE14quads_per_cellE = weak_odr dso_local constant i32 6, comdat, align 4, !dbg !1106, !dbg !1106
@_ZN6dealii12GeometryInfoILi3EE14hexes_per_cellE = weak_odr dso_local constant i32 1, comdat, align 4, !dbg !1108, !dbg !1108
@_ZZN6dealii12GeometryInfoILi3EE10n_childrenERKNS_14RefinementCaseILi3EEEE10n_children = linkonce_odr dso_local constant [8 x i32] [i32 0, i32 2, i32 2, i32 4, i32 2, i32 4, i32 4, i32 8], comdat, align 16, !dbg !1110
@_ZTVN6dealii12GeometryInfoILi3EE20ExcInvalidCoordinateE = weak_odr dso_local unnamed_addr constant { [6 x i8*] } { [6 x i8*] [i8* null, i8* bitcast ({ i8*, i8*, i8* }* @_ZTIN6dealii12GeometryInfoILi3EE20ExcInvalidCoordinateE to i8*), i8* bitcast (void (%"class.dealii::GeometryInfo<3>::ExcInvalidCoordinate"*)* @_ZN6dealii12GeometryInfoILi3EE20ExcInvalidCoordinateD1Ev to i8*), i8* bitcast (void (%"class.dealii::GeometryInfo<3>::ExcInvalidCoordinate"*)* @_ZN6dealii12GeometryInfoILi3EE20ExcInvalidCoordinateD0Ev to i8*), i8* bitcast (i8* (%"class.dealii::ExceptionBase"*)* @_ZNK6dealii13ExceptionBase4whatEv to i8*), i8* bitcast (void (%"class.dealii::GeometryInfo<3>::ExcInvalidCoordinate"*, %"class.std::basic_ostream"*)* @_ZNK6dealii12GeometryInfoILi3EE20ExcInvalidCoordinate10print_infoERSo to i8*)] }, comdat, align 8
@_ZTVN6dealii12GeometryInfoILi3EE17ExcInvalidSubfaceE = weak_odr dso_local unnamed_addr constant { [6 x i8*] } { [6 x i8*] [i8* null, i8* bitcast ({ i8*, i8*, i8* }* @_ZTIN6dealii12GeometryInfoILi3EE17ExcInvalidSubfaceE to i8*), i8* bitcast (void (%"class.dealii::GeometryInfo<3>::ExcInvalidSubface"*)* @_ZN6dealii12GeometryInfoILi3EE17ExcInvalidSubfaceD1Ev to i8*), i8* bitcast (void (%"class.dealii::GeometryInfo<3>::ExcInvalidSubface"*)* @_ZN6dealii12GeometryInfoILi3EE17ExcInvalidSubfaceD0Ev to i8*), i8* bitcast (i8* (%"class.dealii::ExceptionBase"*)* @_ZNK6dealii13ExceptionBase4whatEv to i8*), i8* bitcast (void (%"class.dealii::GeometryInfo<3>::ExcInvalidSubface"*, %"class.std::basic_ostream"*)* @_ZNK6dealii12GeometryInfoILi3EE17ExcInvalidSubface10print_infoERSo to i8*)] }, comdat, align 8
@_ZN6dealii12GeometryInfoILi4EE21max_children_per_cellE = weak_odr dso_local constant i32 16, comdat, align 4, !dbg !1113, !dbg !1113
@_ZN6dealii12GeometryInfoILi4EE14faces_per_cellE = weak_odr dso_local constant i32 8, comdat, align 4, !dbg !1146
@_ZN6dealii12GeometryInfoILi4EE21max_children_per_faceE = weak_odr dso_local constant i32 8, comdat, align 4, !dbg !1115, !dbg !1115
@_ZN6dealii12GeometryInfoILi4EE17vertices_per_faceE = weak_odr dso_local constant i32 8, comdat, align 4, !dbg !1117, !dbg !1117
@_ZN6dealii12GeometryInfoILi4EE14lines_per_faceE = weak_odr dso_local constant i32 12, comdat, align 4, !dbg !1119, !dbg !1119
@_ZN6dealii12GeometryInfoILi4EE14quads_per_faceE = weak_odr dso_local constant i32 6, comdat, align 4, !dbg !1121, !dbg !1121
@_ZN6dealii12GeometryInfoILi4EE14lines_per_cellE = weak_odr dso_local constant i32 32, comdat, align 4, !dbg !1123, !dbg !1123
@_ZN6dealii12GeometryInfoILi4EE14quads_per_cellE = weak_odr dso_local constant i32 24, comdat, align 4, !dbg !1125, !dbg !1125
@_ZN6dealii12GeometryInfoILi4EE14hexes_per_cellE = weak_odr dso_local constant i32 8, comdat, align 4, !dbg !1127, !dbg !1127
@_ZZN6dealii12GeometryInfoILi4EE10n_childrenERKNS_14RefinementCaseILi4EEEE10n_children = linkonce_odr dso_local constant [8 x i32] [i32 0, i32 2, i32 2, i32 4, i32 2, i32 4, i32 4, i32 8], comdat, align 16, !dbg !1129
@.str.5 = private unnamed_addr constant [29 x i8] c"include/base/geometry_info.h\00", align 1
@.str.6 = private unnamed_addr constant [1 x i8] zeroinitializer, align 1
@.str.7 = private unnamed_addr constant [6 x i8] c"false\00", align 1
@.str.8 = private unnamed_addr constant [20 x i8] c"ExcNotImplemented()\00", align 1
@_ZTVN6dealii12GeometryInfoILi4EE20ExcInvalidCoordinateE = weak_odr dso_local unnamed_addr constant { [6 x i8*] } { [6 x i8*] [i8* null, i8* bitcast ({ i8*, i8*, i8* }* @_ZTIN6dealii12GeometryInfoILi4EE20ExcInvalidCoordinateE to i8*), i8* bitcast (void (%"class.dealii::GeometryInfo<4>::ExcInvalidCoordinate"*)* @_ZN6dealii12GeometryInfoILi4EE20ExcInvalidCoordinateD1Ev to i8*), i8* bitcast (void (%"class.dealii::GeometryInfo<4>::ExcInvalidCoordinate"*)* @_ZN6dealii12GeometryInfoILi4EE20ExcInvalidCoordinateD0Ev to i8*), i8* bitcast (i8* (%"class.dealii::ExceptionBase"*)* @_ZNK6dealii13ExceptionBase4whatEv to i8*), i8* bitcast (void (%"class.dealii::GeometryInfo<4>::ExcInvalidCoordinate"*, %"class.std::basic_ostream"*)* @_ZNK6dealii12GeometryInfoILi4EE20ExcInvalidCoordinate10print_infoERSo to i8*)] }, comdat, align 8
@_ZTVN6dealii12GeometryInfoILi4EE17ExcInvalidSubfaceE = weak_odr dso_local unnamed_addr constant { [6 x i8*] } { [6 x i8*] [i8* null, i8* bitcast ({ i8*, i8*, i8* }* @_ZTIN6dealii12GeometryInfoILi4EE17ExcInvalidSubfaceE to i8*), i8* bitcast (void (%"class.dealii::GeometryInfo<4>::ExcInvalidSubface"*)* @_ZN6dealii12GeometryInfoILi4EE17ExcInvalidSubfaceD1Ev to i8*), i8* bitcast (void (%"class.dealii::GeometryInfo<4>::ExcInvalidSubface"*)* @_ZN6dealii12GeometryInfoILi4EE17ExcInvalidSubfaceD0Ev to i8*), i8* bitcast (i8* (%"class.dealii::ExceptionBase"*)* @_ZNK6dealii13ExceptionBase4whatEv to i8*), i8* bitcast (void (%"class.dealii::GeometryInfo<4>::ExcInvalidSubface"*, %"class.std::basic_ostream"*)* @_ZNK6dealii12GeometryInfoILi4EE17ExcInvalidSubface10print_infoERSo to i8*)] }, comdat, align 8
@_ZN6dealii12GeometryInfoILi1EE21unit_normal_directionE = dso_local constant [2 x i32] zeroinitializer, align 4, !dbg !1136
@_ZN6dealii12GeometryInfoILi2EE21unit_normal_directionE = dso_local constant [4 x i32] [i32 0, i32 0, i32 1, i32 1], align 16, !dbg !1140
@_ZN6dealii12GeometryInfoILi3EE21unit_normal_directionE = dso_local constant [6 x i32] [i32 0, i32 0, i32 1, i32 1, i32 2, i32 2], align 16, !dbg !1144
@_ZN6dealii12GeometryInfoILi4EE21unit_normal_directionE = dso_local constant [8 x i32] [i32 0, i32 0, i32 1, i32 1, i32 2, i32 2, i32 3, i32 3], align 16, !dbg !1148
@_ZN6dealii12GeometryInfoILi1EE23unit_normal_orientationE = dso_local constant [2 x i32] [i32 -1, i32 1], align 4, !dbg !1150
@_ZN6dealii12GeometryInfoILi2EE23unit_normal_orientationE = dso_local constant [4 x i32] [i32 -1, i32 1, i32 -1, i32 1], align 16, !dbg !1152
@_ZN6dealii12GeometryInfoILi3EE23unit_normal_orientationE = dso_local constant [6 x i32] [i32 -1, i32 1, i32 -1, i32 1, i32 -1, i32 1], align 16, !dbg !1154
@_ZN6dealii12GeometryInfoILi4EE23unit_normal_orientationE = dso_local constant [8 x i32] [i32 -1, i32 1, i32 -1, i32 1, i32 -1, i32 1, i32 -1, i32 1], align 16, !dbg !1156
@_ZN6dealii12GeometryInfoILi1EE13opposite_faceE = dso_local constant [2 x i32] [i32 1, i32 0], align 4, !dbg !1158
@_ZN6dealii12GeometryInfoILi2EE13opposite_faceE = dso_local constant [4 x i32] [i32 1, i32 0, i32 3, i32 2], align 16, !dbg !1160
@_ZN6dealii12GeometryInfoILi3EE13opposite_faceE = dso_local constant [6 x i32] [i32 1, i32 0, i32 3, i32 2, i32 5, i32 4], align 16, !dbg !1162
@_ZN6dealii12GeometryInfoILi4EE13opposite_faceE = dso_local constant [8 x i32] [i32 1, i32 0, i32 3, i32 2, i32 5, i32 4, i32 7, i32 6], align 16, !dbg !1164
@_ZN6dealii12GeometryInfoILi1EE11ucd_to_dealE = dso_local constant [2 x i32] [i32 0, i32 1], align 4, !dbg !1166
@_ZN6dealii12GeometryInfoILi2EE11ucd_to_dealE = dso_local constant [4 x i32] [i32 0, i32 1, i32 3, i32 2], align 16, !dbg !1168
@_ZN6dealii12GeometryInfoILi3EE11ucd_to_dealE = dso_local constant [8 x i32] [i32 0, i32 1, i32 5, i32 4, i32 2, i32 3, i32 7, i32 6], align 16, !dbg !1170
@_ZN6dealii12GeometryInfoILi4EE11ucd_to_dealE = dso_local constant [16 x i32] [i32 -1, i32 -1, i32 -1, i32 -1, i32 -1, i32 -1, i32 -1, i32 -1, i32 -1, i32 -1, i32 -1, i32 -1, i32 -1, i32 -1, i32 -1, i32 -1], align 16, !dbg !1172
@_ZN6dealii12GeometryInfoILi1EE10dx_to_dealE = dso_local constant [2 x i32] [i32 0, i32 1], align 4, !dbg !1174
@_ZN6dealii12GeometryInfoILi2EE10dx_to_dealE = dso_local constant [4 x i32] [i32 0, i32 2, i32 1, i32 3], align 16, !dbg !1176
@_ZN6dealii12GeometryInfoILi3EE10dx_to_dealE = dso_local constant [8 x i32] [i32 0, i32 4, i32 2, i32 6, i32 1, i32 5, i32 3, i32 7], align 16, !dbg !1178
@_ZN6dealii12GeometryInfoILi4EE10dx_to_dealE = dso_local constant [16 x i32] [i32 -1, i32 -1, i32 -1, i32 -1, i32 -1, i32 -1, i32 -1, i32 -1, i32 -1, i32 -1, i32 -1, i32 -1, i32 -1, i32 -1, i32 -1, i32 -1], align 16, !dbg !1180
@_ZN6dealii12GeometryInfoILi1EE14vertex_to_faceE = dso_local constant [2 x [1 x i32]] [[1 x i32] zeroinitializer, [1 x i32] [i32 1]], align 4, !dbg !1182
@_ZN6dealii12GeometryInfoILi2EE14vertex_to_faceE = dso_local constant [4 x [2 x i32]] [[2 x i32] [i32 0, i32 2], [2 x i32] [i32 1, i32 2], [2 x i32] [i32 0, i32 3], [2 x i32] [i32 1, i32 3]], align 16, !dbg !1184
@_ZN6dealii12GeometryInfoILi3EE14vertex_to_faceE = dso_local constant [8 x [3 x i32]] [[3 x i32] [i32 0, i32 2, i32 4], [3 x i32] [i32 1, i32 2, i32 4], [3 x i32] [i32 0, i32 3, i32 4], [3 x i32] [i32 1, i32 3, i32 4], [3 x i32] [i32 0, i32 2, i32 5], [3 x i32] [i32 1, i32 2, i32 5], [3 x i32] [i32 0, i32 3, i32 5], [3 x i32] [i32 1, i32 3, i32 5]], align 16, !dbg !1186
@_ZN6dealii12GeometryInfoILi4EE14vertex_to_faceE = dso_local constant [16 x [4 x i32]] [[4 x i32] [i32 -1, i32 -1, i32 -1, i32 -1], [4 x i32] [i32 -1, i32 -1, i32 -1, i32 -1], [4 x i32] [i32 -1, i32 -1, i32 -1, i32 -1], [4 x i32] [i32 -1, i32 -1, i32 -1, i32 -1], [4 x i32] [i32 -1, i32 -1, i32 -1, i32 -1], [4 x i32] [i32 -1, i32 -1, i32 -1, i32 -1], [4 x i32] [i32 -1, i32 -1, i32 -1, i32 -1], [4 x i32] [i32 -1, i32 -1, i32 -1, i32 -1], [4 x i32] [i32 -1, i32 -1, i32 -1, i32 -1], [4 x i32] [i32 -1, i32 -1, i32 -1, i32 -1], [4 x i32] [i32 -1, i32 -1, i32 -1, i32 -1], [4 x i32] [i32 -1, i32 -1, i32 -1, i32 -1], [4 x i32] [i32 -1, i32 -1, i32 -1, i32 -1], [4 x i32] [i32 -1, i32 -1, i32 -1, i32 -1], [4 x i32] [i32 -1, i32 -1, i32 -1, i32 -1], [4 x i32] [i32 -1, i32 -1, i32 -1, i32 -1]], align 16, !dbg !1188
@_ZZN6dealii12GeometryInfoILi3EE10n_subfacesERKNS_8internal11SubfaceCaseILi3EEEE5nsubs = internal constant [10 x i32] [i32 0, i32 2, i32 3, i32 3, i32 4, i32 2, i32 3, i32 3, i32 4, i32 4], align 16, !dbg !1190
@_ZZN6dealii12GeometryInfoILi2EE20face_refinement_caseERKNS_14RefinementCaseILi2EEEjbbbE9ref_cases = internal global [4 x [2 x %"class.dealii::RefinementCase"]] zeroinitializer, align 1, !dbg !1200
@_ZGVZN6dealii12GeometryInfoILi2EE20face_refinement_caseERKNS_14RefinementCaseILi2EEEjbbbE9ref_cases = internal global i64 0, align 8
@_ZZN6dealii12GeometryInfoILi3EE20face_refinement_caseERKNS_14RefinementCaseILi3EEEjbbbE9ref_cases = internal global [8 x [3 x %"class.dealii::RefinementCase.2"]] zeroinitializer, align 16, !dbg !1204
@_ZGVZN6dealii12GeometryInfoILi3EE20face_refinement_caseERKNS_14RefinementCaseILi3EEEjbbbE9ref_cases = internal global i64 0, align 8
@_ZZN6dealii12GeometryInfoILi3EE20face_refinement_caseERKNS_14RefinementCaseILi3EEEjbbbE4flip = internal global [4 x %"class.dealii::RefinementCase.2"] zeroinitializer, align 1, !dbg !1208
@_ZGVZN6dealii12GeometryInfoILi3EE20face_refinement_caseERKNS_14RefinementCaseILi3EEEjbbbE4flip = internal global i64 0, align 8
@_ZZN6dealii12GeometryInfoILi3EE20line_refinement_caseERKNS_14RefinementCaseILi3EEEjE7cut_one = internal global [3 x %"class.dealii::RefinementCase.6"] zeroinitializer, align 1, !dbg !1211
@_ZGVZN6dealii12GeometryInfoILi3EE20line_refinement_caseERKNS_14RefinementCaseILi3EEEjE7cut_one = internal global i64 0, align 8
@_ZZN6dealii12GeometryInfoILi3EE20line_refinement_caseERKNS_14RefinementCaseILi3EEEjE9direction = internal constant [12 x i32] [i32 1, i32 1, i32 0, i32 0, i32 1, i32 1, i32 0, i32 0, i32 2, i32 2, i32 2, i32 2], align 16, !dbg !1215
@_ZZN6dealii12GeometryInfoILi3EE44min_cell_refinement_case_for_face_refinementERKNS_14RefinementCaseILi2EEEjbbbE4flip = internal global [4 x %"class.dealii::RefinementCase.2"] zeroinitializer, align 1, !dbg !1222
@_ZGVZN6dealii12GeometryInfoILi3EE44min_cell_refinement_case_for_face_refinementERKNS_14RefinementCaseILi2EEEjbbbE4flip = internal global i64 0, align 8
@_ZZN6dealii12GeometryInfoILi3EE44min_cell_refinement_case_for_face_refinementERKNS_14RefinementCaseILi2EEEjbbbE12face_to_cell = internal global [3 x [4 x %"class.dealii::RefinementCase.6"]] zeroinitializer, align 1, !dbg !1225
@_ZGVZN6dealii12GeometryInfoILi3EE44min_cell_refinement_case_for_face_refinementERKNS_14RefinementCaseILi2EEEjbbbE12face_to_cell = internal global i64 0, align 8
@_ZZN6dealii12GeometryInfoILi3EE44min_cell_refinement_case_for_line_refinementEjE9ref_cases = internal global [6 x %"class.dealii::RefinementCase.6"] zeroinitializer, align 1, !dbg !1229
@_ZGVZN6dealii12GeometryInfoILi3EE44min_cell_refinement_case_for_line_refinementEjE9ref_cases = internal global i64 0, align 8
@_ZZN6dealii12GeometryInfoILi3EE28standard_to_real_face_vertexEjbbbE18vertex_translation = internal constant [4 x [2 x [2 x [2 x i32]]]] [[2 x [2 x [2 x i32]]] [[2 x [2 x i32]] [[2 x i32] [i32 0, i32 2], [2 x i32] [i32 3, i32 1]], [2 x [2 x i32]] [[2 x i32] [i32 0, i32 2], [2 x i32] [i32 3, i32 1]]], [2 x [2 x [2 x i32]]] [[2 x [2 x i32]] [[2 x i32] [i32 2, i32 3], [2 x i32] [i32 1, i32 0]], [2 x [2 x i32]] [[2 x i32] [i32 1, i32 0], [2 x i32] [i32 2, i32 3]]], [2 x [2 x [2 x i32]]] [[2 x [2 x i32]] [[2 x i32] [i32 1, i32 0], [2 x i32] [i32 2, i32 3]], [2 x [2 x i32]] [[2 x i32] [i32 2, i32 3], [2 x i32] [i32 1, i32 0]]], [2 x [2 x [2 x i32]]] [[2 x [2 x i32]] [[2 x i32] [i32 3, i32 1], [2 x i32] [i32 0, i32 2]], [2 x [2 x i32]] [[2 x i32] [i32 3, i32 1], [2 x i32] [i32 0, i32 2]]]], align 16, !dbg !1233
@_ZZN6dealii12GeometryInfoILi3EE28real_to_standard_face_vertexEjbbbE18vertex_translation = internal constant [4 x [2 x [2 x [2 x i32]]]] [[2 x [2 x [2 x i32]]] [[2 x [2 x i32]] [[2 x i32] [i32 0, i32 2], [2 x i32] [i32 3, i32 1]], [2 x [2 x i32]] [[2 x i32] [i32 0, i32 1], [2 x i32] [i32 3, i32 2]]], [2 x [2 x [2 x i32]]] [[2 x [2 x i32]] [[2 x i32] [i32 2, i32 3], [2 x i32] [i32 1, i32 0]], [2 x [2 x i32]] [[2 x i32] [i32 1, i32 3], [2 x i32] [i32 2, i32 0]]], [2 x [2 x [2 x i32]]] [[2 x [2 x i32]] [[2 x i32] [i32 1, i32 0], [2 x i32] [i32 2, i32 3]], [2 x [2 x i32]] [[2 x i32] [i32 2, i32 0], [2 x i32] [i32 1, i32 3]]], [2 x [2 x [2 x i32]]] [[2 x [2 x i32]] [[2 x i32] [i32 3, i32 1], [2 x i32] [i32 0, i32 2]], [2 x [2 x i32]] [[2 x i32] [i32 3, i32 2], [2 x i32] [i32 0, i32 1]]]], align 16, !dbg !1238
@_ZZN6dealii12GeometryInfoILi3EE26standard_to_real_face_lineEjbbbE16line_translation = internal constant [4 x [2 x [2 x [2 x i32]]]] [[2 x [2 x [2 x i32]]] [[2 x [2 x i32]] [[2 x i32] [i32 2, i32 0], [2 x i32] [i32 3, i32 1]], [2 x [2 x i32]] [[2 x i32] [i32 0, i32 3], [2 x i32] [i32 1, i32 2]]], [2 x [2 x [2 x i32]]] [[2 x [2 x i32]] [[2 x i32] [i32 3, i32 1], [2 x i32] [i32 2, i32 0]], [2 x [2 x i32]] [[2 x i32] [i32 1, i32 2], [2 x i32] [i32 0, i32 3]]], [2 x [2 x [2 x i32]]] [[2 x [2 x i32]] [[2 x i32] [i32 0, i32 3], [2 x i32] [i32 1, i32 2]], [2 x [2 x i32]] [[2 x i32] [i32 2, i32 0], [2 x i32] [i32 3, i32 1]]], [2 x [2 x [2 x i32]]] [[2 x [2 x i32]] [[2 x i32] [i32 1, i32 2], [2 x i32] [i32 0, i32 3]], [2 x [2 x i32]] [[2 x i32] [i32 3, i32 1], [2 x i32] [i32 2, i32 0]]]], align 16, !dbg !1241
@_ZZN6dealii12GeometryInfoILi3EE26real_to_standard_face_lineEjbbbE16line_translation = internal constant [4 x [2 x [2 x [2 x i32]]]] [[2 x [2 x [2 x i32]]] [[2 x [2 x i32]] [[2 x i32] [i32 2, i32 0], [2 x i32] [i32 3, i32 1]], [2 x [2 x i32]] [[2 x i32] [i32 0, i32 2], [2 x i32] [i32 1, i32 3]]], [2 x [2 x [2 x i32]]] [[2 x [2 x i32]] [[2 x i32] [i32 3, i32 1], [2 x i32] [i32 2, i32 0]], [2 x [2 x i32]] [[2 x i32] [i32 1, i32 3], [2 x i32] [i32 0, i32 2]]], [2 x [2 x [2 x i32]]] [[2 x [2 x i32]] [[2 x i32] [i32 0, i32 3], [2 x i32] [i32 1, i32 2]], [2 x [2 x i32]] [[2 x i32] [i32 2, i32 1], [2 x i32] [i32 3, i32 0]]], [2 x [2 x [2 x i32]]] [[2 x [2 x i32]] [[2 x i32] [i32 1, i32 2], [2 x i32] [i32 0, i32 3]], [2 x [2 x i32]] [[2 x i32] [i32 3, i32 0], [2 x i32] [i32 2, i32 1]]]], align 16, !dbg !1244
@_ZZN6dealii12GeometryInfoILi2EE18child_cell_on_faceERKNS_14RefinementCaseILi2EEEjjbbbRKNS2_ILi1EEEE8subcells = internal constant [3 x [4 x [2 x i32]]] [[4 x [2 x i32]] [[2 x i32] zeroinitializer, [2 x i32] [i32 1, i32 1], [2 x i32] [i32 0, i32 1], [2 x i32] [i32 0, i32 1]], [4 x [2 x i32]] [[2 x i32] [i32 0, i32 1], [2 x i32] [i32 0, i32 1], [2 x i32] zeroinitializer, [2 x i32] [i32 1, i32 1]], [4 x [2 x i32]] [[2 x i32] [i32 0, i32 2], [2 x i32] [i32 1, i32 3], [2 x i32] [i32 0, i32 1], [2 x i32] [i32 2, i32 3]]], align 16, !dbg !1247
@_ZZN6dealii12GeometryInfoILi3EE18child_cell_on_faceERKNS_14RefinementCaseILi3EEEjjbbbRKNS2_ILi2EEEE1e = internal constant i32 -1, align 4, !dbg !1252
@_ZZN6dealii12GeometryInfoILi3EE18child_cell_on_faceERKNS_14RefinementCaseILi3EEEjjbbbRKNS2_ILi2EEEE4flip = internal global [4 x %"class.dealii::RefinementCase.2"] zeroinitializer, align 1, !dbg !1255
@_ZGVZN6dealii12GeometryInfoILi3EE18child_cell_on_faceERKNS_14RefinementCaseILi3EEEjjbbbRKNS2_ILi2EEEE4flip = internal global i64 0, align 8
@_ZZN6dealii12GeometryInfoILi3EE18child_cell_on_faceERKNS_14RefinementCaseILi3EEEjjbbbRKNS2_ILi2EEEE16subface_exchange = internal constant [4 x [2 x [2 x [2 x [4 x i32]]]]] [[2 x [2 x [2 x [4 x i32]]]] [[2 x [2 x [4 x i32]]] [[2 x [4 x i32]] [[4 x i32] [i32 0, i32 -1, i32 -1, i32 -1], [4 x i32] [i32 0, i32 -1, i32 -1, i32 -1]], [2 x [4 x i32]] [[4 x i32] [i32 0, i32 -1, i32 -1, i32 -1], [4 x i32] [i32 0, i32 -1, i32 -1, i32 -1]]], [2 x [2 x [4 x i32]]] [[2 x [4 x i32]] [[4 x i32] [i32 0, i32 -1, i32 -1, i32 -1], [4 x i32] [i32 0, i32 -1, i32 -1, i32 -1]], [2 x [4 x i32]] [[4 x i32] [i32 0, i32 -1, i32 -1, i32 -1], [4 x i32] [i32 0, i32 -1, i32 -1, i32 -1]]]], [2 x [2 x [2 x [4 x i32]]]] [[2 x [2 x [4 x i32]]] [[2 x [4 x i32]] [[4 x i32] [i32 0, i32 1, i32 -1, i32 -1], [4 x i32] [i32 0, i32 1, i32 -1, i32 -1]], [2 x [4 x i32]] [[4 x i32] [i32 1, i32 0, i32 -1, i32 -1], [4 x i32] [i32 1, i32 0, i32 -1, i32 -1]]], [2 x [2 x [4 x i32]]] [[2 x [4 x i32]] [[4 x i32] [i32 0, i32 1, i32 -1, i32 -1], [4 x i32] [i32 0, i32 1, i32 -1, i32 -1]], [2 x [4 x i32]] [[4 x i32] [i32 1, i32 0, i32 -1, i32 -1], [4 x i32] [i32 1, i32 0, i32 -1, i32 -1]]]], [2 x [2 x [2 x [4 x i32]]]] [[2 x [2 x [4 x i32]]] [[2 x [4 x i32]] [[4 x i32] [i32 0, i32 1, i32 -1, i32 -1], [4 x i32] [i32 1, i32 0, i32 -1, i32 -1]], [2 x [4 x i32]] [[4 x i32] [i32 1, i32 0, i32 -1, i32 -1], [4 x i32] [i32 0, i32 1, i32 -1, i32 -1]]], [2 x [2 x [4 x i32]]] [[2 x [4 x i32]] [[4 x i32] [i32 0, i32 1, i32 -1, i32 -1], [4 x i32] [i32 1, i32 0, i32 -1, i32 -1]], [2 x [4 x i32]] [[4 x i32] [i32 1, i32 0, i32 -1, i32 -1], [4 x i32] [i32 0, i32 1, i32 -1, i32 -1]]]], [2 x [2 x [2 x [4 x i32]]]] [[2 x [2 x [4 x i32]]] [[2 x [4 x i32]] [[4 x i32] [i32 0, i32 2, i32 1, i32 3], [4 x i32] [i32 2, i32 3, i32 0, i32 1]], [2 x [4 x i32]] [[4 x i32] [i32 3, i32 1, i32 2, i32 0], [4 x i32] [i32 1, i32 0, i32 3, i32 2]]], [2 x [2 x [4 x i32]]] [[2 x [4 x i32]] [[4 x i32] [i32 0, i32 1, i32 2, i32 3], [4 x i32] [i32 1, i32 3, i32 0, i32 2]], [2 x [4 x i32]] [[4 x i32] [i32 3, i32 2, i32 1, i32 0], [4 x i32] [i32 2, i32 0, i32 3, i32 1]]]]], align 16, !dbg !1257
@_ZZN6dealii12GeometryInfoILi3EE18child_cell_on_faceERKNS_14RefinementCaseILi3EEEjjbbbRKNS2_ILi2EEEE12iso_children = internal constant [7 x [6 x [4 x i32]]] [[6 x [4 x i32]] [[4 x i32] zeroinitializer, [4 x i32] [i32 1, i32 1, i32 1, i32 1], [4 x i32] [i32 0, i32 0, i32 1, i32 1], [4 x i32] [i32 0, i32 0, i32 1, i32 1], [4 x i32] [i32 0, i32 1, i32 0, i32 1], [4 x i32] [i32 0, i32 1, i32 0, i32 1]], [6 x [4 x i32]] [[4 x i32] [i32 0, i32 1, i32 0, i32 1], [4 x i32] [i32 0, i32 1, i32 0, i32 1], [4 x i32] zeroinitializer, [4 x i32] [i32 1, i32 1, i32 1, i32 1], [4 x i32] [i32 0, i32 0, i32 1, i32 1], [4 x i32] [i32 0, i32 0, i32 1, i32 1]], [6 x [4 x i32]] [[4 x i32] [i32 0, i32 2, i32 0, i32 2], [4 x i32] [i32 1, i32 3, i32 1, i32 3], [4 x i32] [i32 0, i32 0, i32 1, i32 1], [4 x i32] [i32 2, i32 2, i32 3, i32 3], [4 x i32] [i32 0, i32 1, i32 2, i32 3], [4 x i32] [i32 0, i32 1, i32 2, i32 3]], [6 x [4 x i32]] [[4 x i32] [i32 0, i32 0, i32 1, i32 1], [4 x i32] [i32 0, i32 0, i32 1, i32 1], [4 x i32] [i32 0, i32 1, i32 0, i32 1], [4 x i32] [i32 0, i32 1, i32 0, i32 1], [4 x i32] zeroinitializer, [4 x i32] [i32 1, i32 1, i32 1, i32 1]], [6 x [4 x i32]] [[4 x i32] [i32 0, i32 0, i32 1, i32 1], [4 x i32] [i32 2, i32 2, i32 3, i32 3], [4 x i32] [i32 0, i32 1, i32 2, i32 3], [4 x i32] [i32 0, i32 1, i32 2, i32 3], [4 x i32] [i32 0, i32 2, i32 0, i32 2], [4 x i32] [i32 1, i32 3, i32 1, i32 3]], [6 x [4 x i32]] [[4 x i32] [i32 0, i32 1, i32 2, i32 3], [4 x i32] [i32 0, i32 1, i32 2, i32 3], [4 x i32] [i32 0, i32 2, i32 0, i32 2], [4 x i32] [i32 1, i32 3, i32 1, i32 3], [4 x i32] [i32 0, i32 0, i32 1, i32 1], [4 x i32] [i32 2, i32 2, i32 3, i32 3]], [6 x [4 x i32]] [[4 x i32] [i32 0, i32 2, i32 4, i32 6], [4 x i32] [i32 1, i32 3, i32 5, i32 7], [4 x i32] [i32 0, i32 4, i32 1, i32 5], [4 x i32] [i32 2, i32 6, i32 3, i32 7], [4 x i32] [i32 0, i32 1, i32 2, i32 3], [4 x i32] [i32 4, i32 5, i32 6, i32 7]]], align 16, !dbg !1261
@_ZZN6dealii12GeometryInfoILi3EE18child_cell_on_faceERKNS_14RefinementCaseILi3EEEjjbbbRKNS2_ILi2EEEE22equivalent_iso_subface = internal constant [4 x [4 x i32]] [[4 x i32] [i32 0, i32 -1, i32 -1, i32 -1], [4 x i32] [i32 0, i32 3, i32 -1, i32 -1], [4 x i32] [i32 0, i32 3, i32 -1, i32 -1], [4 x i32] [i32 0, i32 1, i32 2, i32 3]], align 16, !dbg !1266
@_ZZN6dealii12GeometryInfoILi3EE21line_to_cell_verticesEjjE8vertices = internal constant [12 x [2 x i32]] [[2 x i32] [i32 0, i32 2], [2 x i32] [i32 1, i32 3], [2 x i32] [i32 0, i32 1], [2 x i32] [i32 2, i32 3], [2 x i32] [i32 4, i32 6], [2 x i32] [i32 5, i32 7], [2 x i32] [i32 4, i32 5], [2 x i32] [i32 6, i32 7], [2 x i32] [i32 0, i32 4], [2 x i32] [i32 1, i32 5], [2 x i32] [i32 2, i32 6], [2 x i32] [i32 3, i32 7]], align 16, !dbg !1270
@_ZZN6dealii12GeometryInfoILi3EE18face_to_cell_linesEjjbbbE5lines = internal constant [6 x [4 x i32]] [[4 x i32] [i32 8, i32 10, i32 0, i32 4], [4 x i32] [i32 9, i32 11, i32 1, i32 5], [4 x i32] [i32 2, i32 6, i32 8, i32 9], [4 x i32] [i32 3, i32 7, i32 10, i32 11], [4 x i32] [i32 0, i32 1, i32 2, i32 3], [4 x i32] [i32 4, i32 5, i32 6, i32 7]], align 16, !dbg !1275
@_ZTVN10__cxxabiv120__si_class_type_infoE = external dso_local global i8*
@_ZTSN6dealii12GeometryInfoILi1EE20ExcInvalidCoordinateE = weak_odr dso_local constant [52 x i8] c"N6dealii12GeometryInfoILi1EE20ExcInvalidCoordinateE\00", comdat, align 1
@_ZTIN6dealii13ExceptionBaseE = external dso_local constant i8*
@_ZTIN6dealii12GeometryInfoILi1EE20ExcInvalidCoordinateE = weak_odr dso_local constant { i8*, i8*, i8* } { i8* bitcast (i8** getelementptr inbounds (i8*, i8** @_ZTVN10__cxxabiv120__si_class_type_infoE, i64 2) to i8*), i8* getelementptr inbounds ([52 x i8], [52 x i8]* @_ZTSN6dealii12GeometryInfoILi1EE20ExcInvalidCoordinateE, i32 0, i32 0), i8* bitcast (i8** @_ZTIN6dealii13ExceptionBaseE to i8*) }, comdat, align 8
@_ZTSN6dealii12GeometryInfoILi1EE17ExcInvalidSubfaceE = weak_odr dso_local constant [49 x i8] c"N6dealii12GeometryInfoILi1EE17ExcInvalidSubfaceE\00", comdat, align 1
@_ZTIN6dealii12GeometryInfoILi1EE17ExcInvalidSubfaceE = weak_odr dso_local constant { i8*, i8*, i8* } { i8* bitcast (i8** getelementptr inbounds (i8*, i8** @_ZTVN10__cxxabiv120__si_class_type_infoE, i64 2) to i8*), i8* getelementptr inbounds ([49 x i8], [49 x i8]* @_ZTSN6dealii12GeometryInfoILi1EE17ExcInvalidSubfaceE, i32 0, i32 0), i8* bitcast (i8** @_ZTIN6dealii13ExceptionBaseE to i8*) }, comdat, align 8
@_ZTSN6dealii12GeometryInfoILi2EE20ExcInvalidCoordinateE = weak_odr dso_local constant [52 x i8] c"N6dealii12GeometryInfoILi2EE20ExcInvalidCoordinateE\00", comdat, align 1
@_ZTIN6dealii12GeometryInfoILi2EE20ExcInvalidCoordinateE = weak_odr dso_local constant { i8*, i8*, i8* } { i8* bitcast (i8** getelementptr inbounds (i8*, i8** @_ZTVN10__cxxabiv120__si_class_type_infoE, i64 2) to i8*), i8* getelementptr inbounds ([52 x i8], [52 x i8]* @_ZTSN6dealii12GeometryInfoILi2EE20ExcInvalidCoordinateE, i32 0, i32 0), i8* bitcast (i8** @_ZTIN6dealii13ExceptionBaseE to i8*) }, comdat, align 8
@_ZTSN6dealii12GeometryInfoILi2EE17ExcInvalidSubfaceE = weak_odr dso_local constant [49 x i8] c"N6dealii12GeometryInfoILi2EE17ExcInvalidSubfaceE\00", comdat, align 1
@_ZTIN6dealii12GeometryInfoILi2EE17ExcInvalidSubfaceE = weak_odr dso_local constant { i8*, i8*, i8* } { i8* bitcast (i8** getelementptr inbounds (i8*, i8** @_ZTVN10__cxxabiv120__si_class_type_infoE, i64 2) to i8*), i8* getelementptr inbounds ([49 x i8], [49 x i8]* @_ZTSN6dealii12GeometryInfoILi2EE17ExcInvalidSubfaceE, i32 0, i32 0), i8* bitcast (i8** @_ZTIN6dealii13ExceptionBaseE to i8*) }, comdat, align 8
@_ZTSN6dealii12GeometryInfoILi3EE20ExcInvalidCoordinateE = weak_odr dso_local constant [52 x i8] c"N6dealii12GeometryInfoILi3EE20ExcInvalidCoordinateE\00", comdat, align 1
@_ZTIN6dealii12GeometryInfoILi3EE20ExcInvalidCoordinateE = weak_odr dso_local constant { i8*, i8*, i8* } { i8* bitcast (i8** getelementptr inbounds (i8*, i8** @_ZTVN10__cxxabiv120__si_class_type_infoE, i64 2) to i8*), i8* getelementptr inbounds ([52 x i8], [52 x i8]* @_ZTSN6dealii12GeometryInfoILi3EE20ExcInvalidCoordinateE, i32 0, i32 0), i8* bitcast (i8** @_ZTIN6dealii13ExceptionBaseE to i8*) }, comdat, align 8
@_ZTSN6dealii12GeometryInfoILi3EE17ExcInvalidSubfaceE = weak_odr dso_local constant [49 x i8] c"N6dealii12GeometryInfoILi3EE17ExcInvalidSubfaceE\00", comdat, align 1
@_ZTIN6dealii12GeometryInfoILi3EE17ExcInvalidSubfaceE = weak_odr dso_local constant { i8*, i8*, i8* } { i8* bitcast (i8** getelementptr inbounds (i8*, i8** @_ZTVN10__cxxabiv120__si_class_type_infoE, i64 2) to i8*), i8* getelementptr inbounds ([49 x i8], [49 x i8]* @_ZTSN6dealii12GeometryInfoILi3EE17ExcInvalidSubfaceE, i32 0, i32 0), i8* bitcast (i8** @_ZTIN6dealii13ExceptionBaseE to i8*) }, comdat, align 8
@_ZTSN6dealii12GeometryInfoILi4EE20ExcInvalidCoordinateE = weak_odr dso_local constant [52 x i8] c"N6dealii12GeometryInfoILi4EE20ExcInvalidCoordinateE\00", comdat, align 1
@_ZTIN6dealii12GeometryInfoILi4EE20ExcInvalidCoordinateE = weak_odr dso_local constant { i8*, i8*, i8* } { i8* bitcast (i8** getelementptr inbounds (i8*, i8** @_ZTVN10__cxxabiv120__si_class_type_infoE, i64 2) to i8*), i8* getelementptr inbounds ([52 x i8], [52 x i8]* @_ZTSN6dealii12GeometryInfoILi4EE20ExcInvalidCoordinateE, i32 0, i32 0), i8* bitcast (i8** @_ZTIN6dealii13ExceptionBaseE to i8*) }, comdat, align 8
@_ZTSN6dealii12GeometryInfoILi4EE17ExcInvalidSubfaceE = weak_odr dso_local constant [49 x i8] c"N6dealii12GeometryInfoILi4EE17ExcInvalidSubfaceE\00", comdat, align 1
@_ZTIN6dealii12GeometryInfoILi4EE17ExcInvalidSubfaceE = weak_odr dso_local constant { i8*, i8*, i8* } { i8* bitcast (i8** getelementptr inbounds (i8*, i8** @_ZTVN10__cxxabiv120__si_class_type_infoE, i64 2) to i8*), i8* getelementptr inbounds ([49 x i8], [49 x i8]* @_ZTSN6dealii12GeometryInfoILi4EE17ExcInvalidSubfaceE, i32 0, i32 0), i8* bitcast (i8** @_ZTIN6dealii13ExceptionBaseE to i8*) }, comdat, align 8
@_ZTVN6dealii18StandardExceptions17ExcNotImplementedE = linkonce_odr dso_local unnamed_addr constant { [6 x i8*] } { [6 x i8*] [i8* null, i8* bitcast ({ i8*, i8*, i8* }* @_ZTIN6dealii18StandardExceptions17ExcNotImplementedE to i8*), i8* bitcast (void (%"class.dealii::StandardExceptions::ExcNotImplemented"*)* @_ZN6dealii18StandardExceptions17ExcNotImplementedD2Ev to i8*), i8* bitcast (void (%"class.dealii::StandardExceptions::ExcNotImplemented"*)* @_ZN6dealii18StandardExceptions17ExcNotImplementedD0Ev to i8*), i8* bitcast (i8* (%"class.dealii::ExceptionBase"*)* @_ZNK6dealii13ExceptionBase4whatEv to i8*), i8* bitcast (void (%"class.dealii::ExceptionBase"*, %"class.std::basic_ostream"*)* @_ZNK6dealii13ExceptionBase10print_infoERSo to i8*)] }, comdat, align 8
@_ZTSN6dealii18StandardExceptions17ExcNotImplementedE = linkonce_odr dso_local constant [49 x i8] c"N6dealii18StandardExceptions17ExcNotImplementedE\00", comdat, align 1
@_ZTIN6dealii18StandardExceptions17ExcNotImplementedE = linkonce_odr dso_local constant { i8*, i8*, i8* } { i8* bitcast (i8** getelementptr inbounds (i8*, i8** @_ZTVN10__cxxabiv120__si_class_type_infoE, i64 2) to i8*), i8* getelementptr inbounds ([49 x i8], [49 x i8]* @_ZTSN6dealii18StandardExceptions17ExcNotImplementedE, i32 0, i32 0), i8* bitcast (i8** @_ZTIN6dealii13ExceptionBaseE to i8*) }, comdat, align 8

@_ZN6dealii12GeometryInfoILi1EE20ExcInvalidCoordinateC1Ed = weak_odr dso_local unnamed_addr alias void (%"class.dealii::GeometryInfo<1>::ExcInvalidCoordinate"*, double), void (%"class.dealii::GeometryInfo<1>::ExcInvalidCoordinate"*, double)* @_ZN6dealii12GeometryInfoILi1EE20ExcInvalidCoordinateC2Ed
@_ZN6dealii12GeometryInfoILi1EE20ExcInvalidCoordinateD1Ev = weak_odr dso_local unnamed_addr alias void (%"class.dealii::GeometryInfo<1>::ExcInvalidCoordinate"*), void (%"class.dealii::GeometryInfo<1>::ExcInvalidCoordinate"*)* @_ZN6dealii12GeometryInfoILi1EE20ExcInvalidCoordinateD2Ev
@_ZN6dealii12GeometryInfoILi1EE17ExcInvalidSubfaceC1Eiii = weak_odr dso_local unnamed_addr alias void (%"class.dealii::GeometryInfo<1>::ExcInvalidSubface"*, i32, i32, i32), void (%"class.dealii::GeometryInfo<1>::ExcInvalidSubface"*, i32, i32, i32)* @_ZN6dealii12GeometryInfoILi1EE17ExcInvalidSubfaceC2Eiii
@_ZN6dealii12GeometryInfoILi1EE17ExcInvalidSubfaceD1Ev = weak_odr dso_local unnamed_addr alias void (%"class.dealii::GeometryInfo<1>::ExcInvalidSubface"*), void (%"class.dealii::GeometryInfo<1>::ExcInvalidSubface"*)* @_ZN6dealii12GeometryInfoILi1EE17ExcInvalidSubfaceD2Ev
@_ZN6dealii12GeometryInfoILi2EE20ExcInvalidCoordinateC1Ed = weak_odr dso_local unnamed_addr alias void (%"class.dealii::GeometryInfo<2>::ExcInvalidCoordinate"*, double), void (%"class.dealii::GeometryInfo<2>::ExcInvalidCoordinate"*, double)* @_ZN6dealii12GeometryInfoILi2EE20ExcInvalidCoordinateC2Ed
@_ZN6dealii12GeometryInfoILi2EE20ExcInvalidCoordinateD1Ev = weak_odr dso_local unnamed_addr alias void (%"class.dealii::GeometryInfo<2>::ExcInvalidCoordinate"*), void (%"class.dealii::GeometryInfo<2>::ExcInvalidCoordinate"*)* @_ZN6dealii12GeometryInfoILi2EE20ExcInvalidCoordinateD2Ev
@_ZN6dealii12GeometryInfoILi2EE17ExcInvalidSubfaceC1Eiii = weak_odr dso_local unnamed_addr alias void (%"class.dealii::GeometryInfo<2>::ExcInvalidSubface"*, i32, i32, i32), void (%"class.dealii::GeometryInfo<2>::ExcInvalidSubface"*, i32, i32, i32)* @_ZN6dealii12GeometryInfoILi2EE17ExcInvalidSubfaceC2Eiii
@_ZN6dealii12GeometryInfoILi2EE17ExcInvalidSubfaceD1Ev = weak_odr dso_local unnamed_addr alias void (%"class.dealii::GeometryInfo<2>::ExcInvalidSubface"*), void (%"class.dealii::GeometryInfo<2>::ExcInvalidSubface"*)* @_ZN6dealii12GeometryInfoILi2EE17ExcInvalidSubfaceD2Ev
@_ZN6dealii12GeometryInfoILi3EE20ExcInvalidCoordinateC1Ed = weak_odr dso_local unnamed_addr alias void (%"class.dealii::GeometryInfo<3>::ExcInvalidCoordinate"*, double), void (%"class.dealii::GeometryInfo<3>::ExcInvalidCoordinate"*, double)* @_ZN6dealii12GeometryInfoILi3EE20ExcInvalidCoordinateC2Ed
@_ZN6dealii12GeometryInfoILi3EE20ExcInvalidCoordinateD1Ev = weak_odr dso_local unnamed_addr alias void (%"class.dealii::GeometryInfo<3>::ExcInvalidCoordinate"*), void (%"class.dealii::GeometryInfo<3>::ExcInvalidCoordinate"*)* @_ZN6dealii12GeometryInfoILi3EE20ExcInvalidCoordinateD2Ev
@_ZN6dealii12GeometryInfoILi3EE17ExcInvalidSubfaceC1Eiii = weak_odr dso_local unnamed_addr alias void (%"class.dealii::GeometryInfo<3>::ExcInvalidSubface"*, i32, i32, i32), void (%"class.dealii::GeometryInfo<3>::ExcInvalidSubface"*, i32, i32, i32)* @_ZN6dealii12GeometryInfoILi3EE17ExcInvalidSubfaceC2Eiii
@_ZN6dealii12GeometryInfoILi3EE17ExcInvalidSubfaceD1Ev = weak_odr dso_local unnamed_addr alias void (%"class.dealii::GeometryInfo<3>::ExcInvalidSubface"*), void (%"class.dealii::GeometryInfo<3>::ExcInvalidSubface"*)* @_ZN6dealii12GeometryInfoILi3EE17ExcInvalidSubfaceD2Ev
@_ZN6dealii12GeometryInfoILi4EE20ExcInvalidCoordinateC1Ed = weak_odr dso_local unnamed_addr alias void (%"class.dealii::GeometryInfo<4>::ExcInvalidCoordinate"*, double), void (%"class.dealii::GeometryInfo<4>::ExcInvalidCoordinate"*, double)* @_ZN6dealii12GeometryInfoILi4EE20ExcInvalidCoordinateC2Ed
@_ZN6dealii12GeometryInfoILi4EE20ExcInvalidCoordinateD1Ev = weak_odr dso_local unnamed_addr alias void (%"class.dealii::GeometryInfo<4>::ExcInvalidCoordinate"*), void (%"class.dealii::GeometryInfo<4>::ExcInvalidCoordinate"*)* @_ZN6dealii12GeometryInfoILi4EE20ExcInvalidCoordinateD2Ev
@_ZN6dealii12GeometryInfoILi4EE17ExcInvalidSubfaceC1Eiii = weak_odr dso_local unnamed_addr alias void (%"class.dealii::GeometryInfo<4>::ExcInvalidSubface"*, i32, i32, i32), void (%"class.dealii::GeometryInfo<4>::ExcInvalidSubface"*, i32, i32, i32)* @_ZN6dealii12GeometryInfoILi4EE17ExcInvalidSubfaceC2Eiii
@_ZN6dealii12GeometryInfoILi4EE17ExcInvalidSubfaceD1Ev = weak_odr dso_local unnamed_addr alias void (%"class.dealii::GeometryInfo<4>::ExcInvalidSubface"*), void (%"class.dealii::GeometryInfo<4>::ExcInvalidSubface"*)* @_ZN6dealii12GeometryInfoILi4EE17ExcInvalidSubfaceD2Ev

; Function Attrs: noinline uwtable
define weak_odr dso_local void @_ZN6dealii8internal16define_variablesILi2EEEvv() #0 comdat !dbg !2504 {
entry:
  call void @_ZN6dealii8internal3fooEPKj(i32* @_ZN6dealii12GeometryInfoILi2EE17vertices_per_cellE), !dbg !2505
  ret void, !dbg !2506
}

; Function Attrs: noinline nounwind uwtable
define dso_local void @_ZN6dealii8internal3fooEPKj(i32* %0) #1 !dbg !2507 {
entry:
  %.addr = alloca i32*, align 8
  store i32* %0, i32** %.addr, align 8
  call void @llvm.dbg.declare(metadata i32** %.addr, metadata !2511, metadata !DIExpression()), !dbg !2512
  ret void, !dbg !2513
}

; Function Attrs: noinline uwtable
define weak_odr dso_local void @_ZN6dealii8internal16define_variablesILi3EEEvv() #0 comdat !dbg !2514 {
entry:
  call void @_ZN6dealii8internal3fooEPKj(i32* @_ZN6dealii12GeometryInfoILi3EE17vertices_per_cellE), !dbg !2515
  ret void, !dbg !2516
}

; Function Attrs: noinline uwtable
define weak_odr dso_local void @_ZN6dealii8internal16define_variablesILi4EEEvv() #0 comdat !dbg !2517 {
entry:
  call void @_ZN6dealii8internal3fooEPKj(i32* @_ZN6dealii12GeometryInfoILi4EE17vertices_per_cellE), !dbg !2518
  ret void, !dbg !2519
}

; Function Attrs: noinline uwtable
define weak_odr dso_local i32 @_ZN6dealii12GeometryInfoILi1EE10n_childrenERKNS_14RefinementCaseILi1EEE(%"class.dealii::RefinementCase"* dereferenceable(1) %ref_case) #0 comdat align 2 !dbg !1078 {
entry:
  %ref_case.addr = alloca %"class.dealii::RefinementCase"*, align 8
  store %"class.dealii::RefinementCase"* %ref_case, %"class.dealii::RefinementCase"** %ref_case.addr, align 8
  call void @llvm.dbg.declare(metadata %"class.dealii::RefinementCase"** %ref_case.addr, metadata !2520, metadata !DIExpression()), !dbg !2521
  %0 = load %"class.dealii::RefinementCase"*, %"class.dealii::RefinementCase"** %ref_case.addr, align 8, !dbg !2522
  %call = call zeroext i8 @_ZNK6dealii14RefinementCaseILi1EEcvhEv(%"class.dealii::RefinementCase"* %0), !dbg !2522
  %idxprom = zext i8 %call to i64, !dbg !2523
  %arrayidx = getelementptr inbounds [8 x i32], [8 x i32]* @_ZZN6dealii12GeometryInfoILi1EE10n_childrenERKNS_14RefinementCaseILi1EEEE10n_children, i64 0, i64 %idxprom, !dbg !2523
  %1 = load i32, i32* %arrayidx, align 4, !dbg !2523
  ret i32 %1, !dbg !2524
}

; Function Attrs: nounwind readnone speculatable willreturn
declare void @llvm.dbg.declare(metadata, metadata, metadata) #2

; Function Attrs: noinline nounwind uwtable
define linkonce_odr dso_local zeroext i8 @_ZNK6dealii14RefinementCaseILi1EEcvhEv(%"class.dealii::RefinementCase"* %this) #1 comdat align 2 !dbg !2525 {
entry:
  %this.addr = alloca %"class.dealii::RefinementCase"*, align 8
  store %"class.dealii::RefinementCase"* %this, %"class.dealii::RefinementCase"** %this.addr, align 8
  call void @llvm.dbg.declare(metadata %"class.dealii::RefinementCase"** %this.addr, metadata !2526, metadata !DIExpression()), !dbg !2528
  %this1 = load %"class.dealii::RefinementCase"*, %"class.dealii::RefinementCase"** %this.addr, align 8
  %0 = bitcast %"class.dealii::RefinementCase"* %this1 to i8*, !dbg !2529
  %bf.load = load i8, i8* %0, align 1, !dbg !2529
  %bf.clear = and i8 %bf.load, 1, !dbg !2529
  ret i8 %bf.clear, !dbg !2530
}

; Function Attrs: noinline uwtable
define weak_odr dso_local i32 @_ZN6dealii12GeometryInfoILi1EE21face_to_cell_verticesEjjbbb(i32 %face, i32 %vertex, i1 zeroext %face_orientation, i1 zeroext %face_flip, i1 zeroext %face_rotation) #0 comdat align 2 !dbg !2531 {
entry:
  %face.addr = alloca i32, align 4
  %vertex.addr = alloca i32, align 4
  %face_orientation.addr = alloca i8, align 1
  %face_flip.addr = alloca i8, align 1
  %face_rotation.addr = alloca i8, align 1
  %ref.tmp = alloca %"class.dealii::RefinementCase", align 1
  %ref.tmp5 = alloca %"class.dealii::RefinementCase.0", align 1
  store i32 %face, i32* %face.addr, align 4
  call void @llvm.dbg.declare(metadata i32* %face.addr, metadata !2532, metadata !DIExpression()), !dbg !2533
  store i32 %vertex, i32* %vertex.addr, align 4
  call void @llvm.dbg.declare(metadata i32* %vertex.addr, metadata !2534, metadata !DIExpression()), !dbg !2535
  %frombool = zext i1 %face_orientation to i8
  store i8 %frombool, i8* %face_orientation.addr, align 1
  call void @llvm.dbg.declare(metadata i8* %face_orientation.addr, metadata !2536, metadata !DIExpression()), !dbg !2537
  %frombool1 = zext i1 %face_flip to i8
  store i8 %frombool1, i8* %face_flip.addr, align 1
  call void @llvm.dbg.declare(metadata i8* %face_flip.addr, metadata !2538, metadata !DIExpression()), !dbg !2539
  %frombool2 = zext i1 %face_rotation to i8
  store i8 %frombool2, i8* %face_rotation.addr, align 1
  call void @llvm.dbg.declare(metadata i8* %face_rotation.addr, metadata !2540, metadata !DIExpression()), !dbg !2541
  call void @_ZN6dealii14RefinementCaseILi1EEC2ENS_23RefinementPossibilitiesILi1EE13PossibilitiesE(%"class.dealii::RefinementCase"* %ref.tmp, i32 1), !dbg !2542
  %0 = load i32, i32* %face.addr, align 4, !dbg !2543
  %1 = load i32, i32* %vertex.addr, align 4, !dbg !2544
  %2 = load i8, i8* %face_orientation.addr, align 1, !dbg !2545
  %tobool = trunc i8 %2 to i1, !dbg !2545
  %3 = load i8, i8* %face_flip.addr, align 1, !dbg !2546
  %tobool3 = trunc i8 %3 to i1, !dbg !2546
  %4 = load i8, i8* %face_rotation.addr, align 1, !dbg !2547
  %tobool4 = trunc i8 %4 to i1, !dbg !2547
  call void @_ZN6dealii14RefinementCaseILi0EEC2ENS_23RefinementPossibilitiesILi0EE13PossibilitiesE(%"class.dealii::RefinementCase.0"* %ref.tmp5, i32 255), !dbg !2548
  %call = call i32 @_ZN6dealii12GeometryInfoILi1EE18child_cell_on_faceERKNS_14RefinementCaseILi1EEEjjbbbRKNS2_ILi0EEE(%"class.dealii::RefinementCase"* dereferenceable(1) %ref.tmp, i32 %0, i32 %1, i1 zeroext %tobool, i1 zeroext %tobool3, i1 zeroext %tobool4, %"class.dealii::RefinementCase.0"* dereferenceable(1) %ref.tmp5), !dbg !2548
  ret i32 %call, !dbg !2549
}

; Function Attrs: noinline nounwind uwtable
define dso_local i32 @_ZN6dealii12GeometryInfoILi1EE18child_cell_on_faceERKNS_14RefinementCaseILi1EEEjjbbbRKNS2_ILi0EEE(%"class.dealii::RefinementCase"* dereferenceable(1) %0, i32 %face, i32 %subface, i1 zeroext %1, i1 zeroext %2, i1 zeroext %3, %"class.dealii::RefinementCase.0"* dereferenceable(1) %4) #1 align 2 !dbg !2550 {
entry:
  %.addr = alloca %"class.dealii::RefinementCase"*, align 8
  %face.addr = alloca i32, align 4
  %subface.addr = alloca i32, align 4
  %.addr1 = alloca i8, align 1
  %.addr2 = alloca i8, align 1
  %.addr4 = alloca i8, align 1
  %.addr6 = alloca %"class.dealii::RefinementCase.0"*, align 8
  store %"class.dealii::RefinementCase"* %0, %"class.dealii::RefinementCase"** %.addr, align 8
  call void @llvm.dbg.declare(metadata %"class.dealii::RefinementCase"** %.addr, metadata !2551, metadata !DIExpression()), !dbg !2552
  store i32 %face, i32* %face.addr, align 4
  call void @llvm.dbg.declare(metadata i32* %face.addr, metadata !2553, metadata !DIExpression()), !dbg !2554
  store i32 %subface, i32* %subface.addr, align 4
  call void @llvm.dbg.declare(metadata i32* %subface.addr, metadata !2555, metadata !DIExpression()), !dbg !2556
  %frombool = zext i1 %1 to i8
  store i8 %frombool, i8* %.addr1, align 1
  call void @llvm.dbg.declare(metadata i8* %.addr1, metadata !2557, metadata !DIExpression()), !dbg !2558
  %frombool3 = zext i1 %2 to i8
  store i8 %frombool3, i8* %.addr2, align 1
  call void @llvm.dbg.declare(metadata i8* %.addr2, metadata !2559, metadata !DIExpression()), !dbg !2560
  %frombool5 = zext i1 %3 to i8
  store i8 %frombool5, i8* %.addr4, align 1
  call void @llvm.dbg.declare(metadata i8* %.addr4, metadata !2561, metadata !DIExpression()), !dbg !2562
  store %"class.dealii::RefinementCase.0"* %4, %"class.dealii::RefinementCase.0"** %.addr6, align 8
  call void @llvm.dbg.declare(metadata %"class.dealii::RefinementCase.0"** %.addr6, metadata !2563, metadata !DIExpression()), !dbg !2564
  %5 = load i32, i32* %face.addr, align 4, !dbg !2565
  ret i32 %5, !dbg !2566
}

; Function Attrs: noinline nounwind uwtable
define linkonce_odr dso_local void @_ZN6dealii14RefinementCaseILi1EEC2ENS_23RefinementPossibilitiesILi1EE13PossibilitiesE(%"class.dealii::RefinementCase"* %this, i32 %refinement_case) unnamed_addr #1 comdat align 2 !dbg !2567 {
entry:
  %this.addr = alloca %"class.dealii::RefinementCase"*, align 8
  %refinement_case.addr = alloca i32, align 4
  store %"class.dealii::RefinementCase"* %this, %"class.dealii::RefinementCase"** %this.addr, align 8
  call void @llvm.dbg.declare(metadata %"class.dealii::RefinementCase"** %this.addr, metadata !2568, metadata !DIExpression()), !dbg !2570
  store i32 %refinement_case, i32* %refinement_case.addr, align 4
  call void @llvm.dbg.declare(metadata i32* %refinement_case.addr, metadata !2571, metadata !DIExpression()), !dbg !2572
  %this1 = load %"class.dealii::RefinementCase"*, %"class.dealii::RefinementCase"** %this.addr, align 8
  %0 = bitcast %"class.dealii::RefinementCase"* %this1 to %"struct.dealii::RefinementPossibilities"*, !dbg !2573
  %1 = bitcast %"class.dealii::RefinementCase"* %this1 to i8*, !dbg !2574
  %2 = load i32, i32* %refinement_case.addr, align 4, !dbg !2575
  %conv = trunc i32 %2 to i8, !dbg !2575
  %bf.load = load i8, i8* %1, align 1, !dbg !2574
  %bf.value = and i8 %conv, 1, !dbg !2574
  %bf.clear = and i8 %bf.load, -2, !dbg !2574
  %bf.set = or i8 %bf.clear, %bf.value, !dbg !2574
  store i8 %bf.set, i8* %1, align 1, !dbg !2574
  ret void, !dbg !2576
}

; Function Attrs: noinline nounwind uwtable
define linkonce_odr dso_local void @_ZN6dealii14RefinementCaseILi0EEC2ENS_23RefinementPossibilitiesILi0EE13PossibilitiesE(%"class.dealii::RefinementCase.0"* %this, i32 %refinement_case) unnamed_addr #1 comdat align 2 !dbg !2577 {
entry:
  %this.addr = alloca %"class.dealii::RefinementCase.0"*, align 8
  %refinement_case.addr = alloca i32, align 4
  store %"class.dealii::RefinementCase.0"* %this, %"class.dealii::RefinementCase.0"** %this.addr, align 8
  call void @llvm.dbg.declare(metadata %"class.dealii::RefinementCase.0"** %this.addr, metadata !2578, metadata !DIExpression()), !dbg !2580
  store i32 %refinement_case, i32* %refinement_case.addr, align 4
  call void @llvm.dbg.declare(metadata i32* %refinement_case.addr, metadata !2581, metadata !DIExpression()), !dbg !2582
  %this1 = load %"class.dealii::RefinementCase.0"*, %"class.dealii::RefinementCase.0"** %this.addr, align 8
  %0 = bitcast %"class.dealii::RefinementCase.0"* %this1 to %"struct.dealii::RefinementPossibilities.1"*, !dbg !2583
  %1 = bitcast %"class.dealii::RefinementCase.0"* %this1 to i8*, !dbg !2584
  %2 = load i32, i32* %refinement_case.addr, align 4, !dbg !2585
  %conv = trunc i32 %2 to i8, !dbg !2585
  %bf.load = load i8, i8* %1, align 1, !dbg !2584
  %bf.value = and i8 %conv, 1, !dbg !2584
  %bf.clear = and i8 %bf.load, -2, !dbg !2584
  %bf.set = or i8 %bf.clear, %bf.value, !dbg !2584
  store i8 %bf.set, i8* %1, align 1, !dbg !2584
  ret void, !dbg !2586
}

; Function Attrs: noinline nounwind uwtable
define weak_odr dso_local i32 @_ZN6dealii12GeometryInfoILi1EE28standard_to_real_face_vertexEjbbb(i32 %vertex, i1 zeroext %0, i1 zeroext %1, i1 zeroext %2) #1 comdat align 2 !dbg !2587 {
entry:
  %vertex.addr = alloca i32, align 4
  %.addr = alloca i8, align 1
  %.addr1 = alloca i8, align 1
  %.addr3 = alloca i8, align 1
  store i32 %vertex, i32* %vertex.addr, align 4
  call void @llvm.dbg.declare(metadata i32* %vertex.addr, metadata !2588, metadata !DIExpression()), !dbg !2589
  %frombool = zext i1 %0 to i8
  store i8 %frombool, i8* %.addr, align 1
  call void @llvm.dbg.declare(metadata i8* %.addr, metadata !2590, metadata !DIExpression()), !dbg !2591
  %frombool2 = zext i1 %1 to i8
  store i8 %frombool2, i8* %.addr1, align 1
  call void @llvm.dbg.declare(metadata i8* %.addr1, metadata !2592, metadata !DIExpression()), !dbg !2593
  %frombool4 = zext i1 %2 to i8
  store i8 %frombool4, i8* %.addr3, align 1
  call void @llvm.dbg.declare(metadata i8* %.addr3, metadata !2594, metadata !DIExpression()), !dbg !2595
  %3 = load i32, i32* %vertex.addr, align 4, !dbg !2596
  ret i32 %3, !dbg !2597
}

; Function Attrs: noinline nounwind uwtable
define weak_odr dso_local i32 @_ZN6dealii12GeometryInfoILi1EE28real_to_standard_face_vertexEjbbb(i32 %vertex, i1 zeroext %0, i1 zeroext %1, i1 zeroext %2) #1 comdat align 2 !dbg !2598 {
entry:
  %vertex.addr = alloca i32, align 4
  %.addr = alloca i8, align 1
  %.addr1 = alloca i8, align 1
  %.addr3 = alloca i8, align 1
  store i32 %vertex, i32* %vertex.addr, align 4
  call void @llvm.dbg.declare(metadata i32* %vertex.addr, metadata !2599, metadata !DIExpression()), !dbg !2600
  %frombool = zext i1 %0 to i8
  store i8 %frombool, i8* %.addr, align 1
  call void @llvm.dbg.declare(metadata i8* %.addr, metadata !2601, metadata !DIExpression()), !dbg !2602
  %frombool2 = zext i1 %1 to i8
  store i8 %frombool2, i8* %.addr1, align 1
  call void @llvm.dbg.declare(metadata i8* %.addr1, metadata !2603, metadata !DIExpression()), !dbg !2604
  %frombool4 = zext i1 %2 to i8
  store i8 %frombool4, i8* %.addr3, align 1
  call void @llvm.dbg.declare(metadata i8* %.addr3, metadata !2605, metadata !DIExpression()), !dbg !2606
  %3 = load i32, i32* %vertex.addr, align 4, !dbg !2607
  ret i32 %3, !dbg !2608
}

; Function Attrs: noinline nounwind uwtable
define weak_odr dso_local i32 @_ZN6dealii12GeometryInfoILi1EE26standard_to_real_face_lineEjbbb(i32 %line, i1 zeroext %0, i1 zeroext %1, i1 zeroext %2) #1 comdat align 2 !dbg !2609 {
entry:
  %line.addr = alloca i32, align 4
  %.addr = alloca i8, align 1
  %.addr1 = alloca i8, align 1
  %.addr3 = alloca i8, align 1
  store i32 %line, i32* %line.addr, align 4
  call void @llvm.dbg.declare(metadata i32* %line.addr, metadata !2610, metadata !DIExpression()), !dbg !2611
  %frombool = zext i1 %0 to i8
  store i8 %frombool, i8* %.addr, align 1
  call void @llvm.dbg.declare(metadata i8* %.addr, metadata !2612, metadata !DIExpression()), !dbg !2613
  %frombool2 = zext i1 %1 to i8
  store i8 %frombool2, i8* %.addr1, align 1
  call void @llvm.dbg.declare(metadata i8* %.addr1, metadata !2614, metadata !DIExpression()), !dbg !2615
  %frombool4 = zext i1 %2 to i8
  store i8 %frombool4, i8* %.addr3, align 1
  call void @llvm.dbg.declare(metadata i8* %.addr3, metadata !2616, metadata !DIExpression()), !dbg !2617
  %3 = load i32, i32* %line.addr, align 4, !dbg !2618
  ret i32 %3, !dbg !2619
}

; Function Attrs: noinline nounwind uwtable
define weak_odr dso_local i32 @_ZN6dealii12GeometryInfoILi1EE26real_to_standard_face_lineEjbbb(i32 %line, i1 zeroext %0, i1 zeroext %1, i1 zeroext %2) #1 comdat align 2 !dbg !2620 {
entry:
  %line.addr = alloca i32, align 4
  %.addr = alloca i8, align 1
  %.addr1 = alloca i8, align 1
  %.addr3 = alloca i8, align 1
  store i32 %line, i32* %line.addr, align 4
  call void @llvm.dbg.declare(metadata i32* %line.addr, metadata !2621, metadata !DIExpression()), !dbg !2622
  %frombool = zext i1 %0 to i8
  store i8 %frombool, i8* %.addr, align 1
  call void @llvm.dbg.declare(metadata i8* %.addr, metadata !2623, metadata !DIExpression()), !dbg !2624
  %frombool2 = zext i1 %1 to i8
  store i8 %frombool2, i8* %.addr1, align 1
  call void @llvm.dbg.declare(metadata i8* %.addr1, metadata !2625, metadata !DIExpression()), !dbg !2626
  %frombool4 = zext i1 %2 to i8
  store i8 %frombool4, i8* %.addr3, align 1
  call void @llvm.dbg.declare(metadata i8* %.addr3, metadata !2627, metadata !DIExpression()), !dbg !2628
  %3 = load i32, i32* %line.addr, align 4, !dbg !2629
  ret i32 %3, !dbg !2630
}

; Function Attrs: noinline uwtable
define weak_odr dso_local void @_ZN6dealii12GeometryInfoILi1EE20project_to_unit_cellERKNS_5PointILi1EEE(%"class.dealii::Point"* noalias sret %agg.result, %"class.dealii::Point"* dereferenceable(8) %q) #0 comdat align 2 !dbg !2631 {
entry:
  %result.ptr = alloca i8*, align 8
  %q.addr = alloca %"class.dealii::Point"*, align 8
  %i = alloca i32, align 4
  %0 = bitcast %"class.dealii::Point"* %agg.result to i8*
  store i8* %0, i8** %result.ptr, align 8
  store %"class.dealii::Point"* %q, %"class.dealii::Point"** %q.addr, align 8
  call void @llvm.dbg.declare(metadata %"class.dealii::Point"** %q.addr, metadata !2632, metadata !DIExpression()), !dbg !2633
  call void @llvm.dbg.declare(metadata i8** %result.ptr, metadata !2634, metadata !DIExpression(DW_OP_deref)), !dbg !2635
  %1 = load %"class.dealii::Point"*, %"class.dealii::Point"** %q.addr, align 8, !dbg !2636
  call void @_ZN6dealii5PointILi1EEC2ERKS1_(%"class.dealii::Point"* %agg.result, %"class.dealii::Point"* dereferenceable(8) %1), !dbg !2636
  call void @llvm.dbg.declare(metadata i32* %i, metadata !2637, metadata !DIExpression()), !dbg !2639
  store i32 0, i32* %i, align 4, !dbg !2639
  br label %for.cond, !dbg !2640

for.cond:                                         ; preds = %for.inc, %entry
  %2 = load i32, i32* %i, align 4, !dbg !2641
  %cmp = icmp ult i32 %2, 1, !dbg !2643
  br i1 %cmp, label %for.body, label %for.end, !dbg !2644

for.body:                                         ; preds = %for.cond
  %3 = bitcast %"class.dealii::Point"* %agg.result to %"class.dealii::Tensor"*, !dbg !2645
  %4 = load i32, i32* %i, align 4, !dbg !2647
  %call = call dereferenceable(8) double* @_ZN6dealii6TensorILi1ELi1EEixEj(%"class.dealii::Tensor"* %3, i32 %4), !dbg !2645
  %5 = load double, double* %call, align 8, !dbg !2645
  %cmp1 = fcmp olt double %5, 0.000000e+00, !dbg !2648
  br i1 %cmp1, label %if.then, label %if.else, !dbg !2649

if.then:                                          ; preds = %for.body
  %6 = bitcast %"class.dealii::Point"* %agg.result to %"class.dealii::Tensor"*, !dbg !2650
  %7 = load i32, i32* %i, align 4, !dbg !2651
  %call2 = call dereferenceable(8) double* @_ZN6dealii6TensorILi1ELi1EEixEj(%"class.dealii::Tensor"* %6, i32 %7), !dbg !2650
  store double 0.000000e+00, double* %call2, align 8, !dbg !2652
  br label %if.end7, !dbg !2650

if.else:                                          ; preds = %for.body
  %8 = bitcast %"class.dealii::Point"* %agg.result to %"class.dealii::Tensor"*, !dbg !2653
  %9 = load i32, i32* %i, align 4, !dbg !2655
  %call3 = call dereferenceable(8) double* @_ZN6dealii6TensorILi1ELi1EEixEj(%"class.dealii::Tensor"* %8, i32 %9), !dbg !2653
  %10 = load double, double* %call3, align 8, !dbg !2653
  %cmp4 = fcmp ogt double %10, 1.000000e+00, !dbg !2656
  br i1 %cmp4, label %if.then5, label %if.end, !dbg !2657

if.then5:                                         ; preds = %if.else
  %11 = bitcast %"class.dealii::Point"* %agg.result to %"class.dealii::Tensor"*, !dbg !2658
  %12 = load i32, i32* %i, align 4, !dbg !2659
  %call6 = call dereferenceable(8) double* @_ZN6dealii6TensorILi1ELi1EEixEj(%"class.dealii::Tensor"* %11, i32 %12), !dbg !2658
  store double 1.000000e+00, double* %call6, align 8, !dbg !2660
  br label %if.end, !dbg !2658

if.end:                                           ; preds = %if.then5, %if.else
  br label %if.end7

if.end7:                                          ; preds = %if.end, %if.then
  br label %for.inc, !dbg !2661

for.inc:                                          ; preds = %if.end7
  %13 = load i32, i32* %i, align 4, !dbg !2662
  %inc = add i32 %13, 1, !dbg !2662
  store i32 %inc, i32* %i, align 4, !dbg !2662
  br label %for.cond, !dbg !2663, !llvm.loop !2664

for.end:                                          ; preds = %for.cond
  ret void, !dbg !2666
}

; Function Attrs: noinline uwtable
define linkonce_odr dso_local void @_ZN6dealii5PointILi1EEC2ERKS1_(%"class.dealii::Point"* %this, %"class.dealii::Point"* dereferenceable(8) %0) unnamed_addr #0 comdat align 2 !dbg !2667 {
entry:
  %this.addr = alloca %"class.dealii::Point"*, align 8
  %.addr = alloca %"class.dealii::Point"*, align 8
  store %"class.dealii::Point"* %this, %"class.dealii::Point"** %this.addr, align 8
  call void @llvm.dbg.declare(metadata %"class.dealii::Point"** %this.addr, metadata !2671, metadata !DIExpression()), !dbg !2673
  store %"class.dealii::Point"* %0, %"class.dealii::Point"** %.addr, align 8
  call void @llvm.dbg.declare(metadata %"class.dealii::Point"** %.addr, metadata !2674, metadata !DIExpression()), !dbg !2673
  %this1 = load %"class.dealii::Point"*, %"class.dealii::Point"** %this.addr, align 8
  %1 = bitcast %"class.dealii::Point"* %this1 to %"class.dealii::Tensor"*, !dbg !2675
  %2 = load %"class.dealii::Point"*, %"class.dealii::Point"** %.addr, align 8, !dbg !2675
  %3 = bitcast %"class.dealii::Point"* %2 to %"class.dealii::Tensor"*, !dbg !2675
  call void @_ZN6dealii6TensorILi1ELi1EEC2ERKS1_(%"class.dealii::Tensor"* %1, %"class.dealii::Tensor"* dereferenceable(8) %3), !dbg !2675
  ret void, !dbg !2675
}

; Function Attrs: noinline nounwind uwtable
define linkonce_odr dso_local dereferenceable(8) double* @_ZN6dealii6TensorILi1ELi1EEixEj(%"class.dealii::Tensor"* %this, i32 %index) #1 comdat align 2 !dbg !2676 {
entry:
  %this.addr = alloca %"class.dealii::Tensor"*, align 8
  %index.addr = alloca i32, align 4
  store %"class.dealii::Tensor"* %this, %"class.dealii::Tensor"** %this.addr, align 8
  call void @llvm.dbg.declare(metadata %"class.dealii::Tensor"** %this.addr, metadata !2677, metadata !DIExpression()), !dbg !2679
  store i32 %index, i32* %index.addr, align 4
  call void @llvm.dbg.declare(metadata i32* %index.addr, metadata !2680, metadata !DIExpression()), !dbg !2681
  %this1 = load %"class.dealii::Tensor"*, %"class.dealii::Tensor"** %this.addr, align 8
  %values = getelementptr inbounds %"class.dealii::Tensor", %"class.dealii::Tensor"* %this1, i32 0, i32 0, !dbg !2682
  %0 = load i32, i32* %index.addr, align 4, !dbg !2683
  %idxprom = zext i32 %0 to i64, !dbg !2682
  %arrayidx = getelementptr inbounds [1 x double], [1 x double]* %values, i64 0, i64 %idxprom, !dbg !2682
  ret double* %arrayidx, !dbg !2684
}

; Function Attrs: noinline uwtable
define weak_odr dso_local double @_ZN6dealii12GeometryInfoILi1EE21distance_to_unit_cellERKNS_5PointILi1EEE(%"class.dealii::Point"* dereferenceable(8) %p) #0 comdat align 2 !dbg !2685 {
entry:
  %p.addr = alloca %"class.dealii::Point"*, align 8
  %result = alloca double, align 8
  %i = alloca i32, align 4
  store %"class.dealii::Point"* %p, %"class.dealii::Point"** %p.addr, align 8
  call void @llvm.dbg.declare(metadata %"class.dealii::Point"** %p.addr, metadata !2686, metadata !DIExpression()), !dbg !2687
  call void @llvm.dbg.declare(metadata double* %result, metadata !2688, metadata !DIExpression()), !dbg !2689
  store double 0.000000e+00, double* %result, align 8, !dbg !2689
  call void @llvm.dbg.declare(metadata i32* %i, metadata !2690, metadata !DIExpression()), !dbg !2692
  store i32 0, i32* %i, align 4, !dbg !2692
  br label %for.cond, !dbg !2693

for.cond:                                         ; preds = %for.inc, %entry
  %0 = load i32, i32* %i, align 4, !dbg !2694
  %cmp = icmp ult i32 %0, 1, !dbg !2696
  br i1 %cmp, label %for.body, label %for.end, !dbg !2697

for.body:                                         ; preds = %for.cond
  %1 = load %"class.dealii::Point"*, %"class.dealii::Point"** %p.addr, align 8, !dbg !2698
  %2 = bitcast %"class.dealii::Point"* %1 to %"class.dealii::Tensor"*, !dbg !2698
  %3 = load i32, i32* %i, align 4, !dbg !2700
  %call = call double @_ZNK6dealii6TensorILi1ELi1EEixEj(%"class.dealii::Tensor"* %2, i32 %3), !dbg !2698
  %fneg = fneg double %call, !dbg !2701
  %4 = load double, double* %result, align 8, !dbg !2702
  %cmp1 = fcmp ogt double %fneg, %4, !dbg !2703
  br i1 %cmp1, label %if.then, label %if.else, !dbg !2704

if.then:                                          ; preds = %for.body
  %5 = load %"class.dealii::Point"*, %"class.dealii::Point"** %p.addr, align 8, !dbg !2705
  %6 = bitcast %"class.dealii::Point"* %5 to %"class.dealii::Tensor"*, !dbg !2705
  %7 = load i32, i32* %i, align 4, !dbg !2706
  %call2 = call double @_ZNK6dealii6TensorILi1ELi1EEixEj(%"class.dealii::Tensor"* %6, i32 %7), !dbg !2705
  %fneg3 = fneg double %call2, !dbg !2707
  store double %fneg3, double* %result, align 8, !dbg !2708
  br label %if.end9, !dbg !2709

if.else:                                          ; preds = %for.body
  %8 = load %"class.dealii::Point"*, %"class.dealii::Point"** %p.addr, align 8, !dbg !2710
  %9 = bitcast %"class.dealii::Point"* %8 to %"class.dealii::Tensor"*, !dbg !2710
  %10 = load i32, i32* %i, align 4, !dbg !2712
  %call4 = call double @_ZNK6dealii6TensorILi1ELi1EEixEj(%"class.dealii::Tensor"* %9, i32 %10), !dbg !2710
  %sub = fsub double %call4, 1.000000e+00, !dbg !2713
  %11 = load double, double* %result, align 8, !dbg !2714
  %cmp5 = fcmp ogt double %sub, %11, !dbg !2715
  br i1 %cmp5, label %if.then6, label %if.end, !dbg !2716

if.then6:                                         ; preds = %if.else
  %12 = load %"class.dealii::Point"*, %"class.dealii::Point"** %p.addr, align 8, !dbg !2717
  %13 = bitcast %"class.dealii::Point"* %12 to %"class.dealii::Tensor"*, !dbg !2717
  %14 = load i32, i32* %i, align 4, !dbg !2718
  %call7 = call double @_ZNK6dealii6TensorILi1ELi1EEixEj(%"class.dealii::Tensor"* %13, i32 %14), !dbg !2717
  %sub8 = fsub double %call7, 1.000000e+00, !dbg !2719
  store double %sub8, double* %result, align 8, !dbg !2720
  br label %if.end, !dbg !2721

if.end:                                           ; preds = %if.then6, %if.else
  br label %if.end9

if.end9:                                          ; preds = %if.end, %if.then
  br label %for.inc, !dbg !2702

for.inc:                                          ; preds = %if.end9
  %15 = load i32, i32* %i, align 4, !dbg !2722
  %inc = add i32 %15, 1, !dbg !2722
  store i32 %inc, i32* %i, align 4, !dbg !2722
  br label %for.cond, !dbg !2723, !llvm.loop !2724

for.end:                                          ; preds = %for.cond
  %16 = load double, double* %result, align 8, !dbg !2726
  ret double %16, !dbg !2727
}

; Function Attrs: noinline nounwind uwtable
define linkonce_odr dso_local double @_ZNK6dealii6TensorILi1ELi1EEixEj(%"class.dealii::Tensor"* %this, i32 %index) #1 comdat align 2 !dbg !2728 {
entry:
  %this.addr = alloca %"class.dealii::Tensor"*, align 8
  %index.addr = alloca i32, align 4
  store %"class.dealii::Tensor"* %this, %"class.dealii::Tensor"** %this.addr, align 8
  call void @llvm.dbg.declare(metadata %"class.dealii::Tensor"** %this.addr, metadata !2729, metadata !DIExpression()), !dbg !2731
  store i32 %index, i32* %index.addr, align 4
  call void @llvm.dbg.declare(metadata i32* %index.addr, metadata !2732, metadata !DIExpression()), !dbg !2733
  %this1 = load %"class.dealii::Tensor"*, %"class.dealii::Tensor"** %this.addr, align 8
  %values = getelementptr inbounds %"class.dealii::Tensor", %"class.dealii::Tensor"* %this1, i32 0, i32 0, !dbg !2734
  %0 = load i32, i32* %index.addr, align 4, !dbg !2735
  %idxprom = zext i32 %0 to i64, !dbg !2734
  %arrayidx = getelementptr inbounds [1 x double], [1 x double]* %values, i64 0, i64 %idxprom, !dbg !2734
  %1 = load double, double* %arrayidx, align 8, !dbg !2734
  ret double %1, !dbg !2736
}

; Function Attrs: noinline uwtable
define weak_odr dso_local void @_ZN6dealii12GeometryInfoILi1EE20ExcInvalidCoordinateC2Ed(%"class.dealii::GeometryInfo<1>::ExcInvalidCoordinate"* %this, double %a1) unnamed_addr #0 comdat($_ZN6dealii12GeometryInfoILi1EE20ExcInvalidCoordinateC5Ed) align 2 !dbg !2737 {
entry:
  %this.addr = alloca %"class.dealii::GeometryInfo<1>::ExcInvalidCoordinate"*, align 8
  %a1.addr = alloca double, align 8
  store %"class.dealii::GeometryInfo<1>::ExcInvalidCoordinate"* %this, %"class.dealii::GeometryInfo<1>::ExcInvalidCoordinate"** %this.addr, align 8
  call void @llvm.dbg.declare(metadata %"class.dealii::GeometryInfo<1>::ExcInvalidCoordinate"** %this.addr, metadata !2762, metadata !DIExpression()), !dbg !2764
  store double %a1, double* %a1.addr, align 8
  call void @llvm.dbg.declare(metadata double* %a1.addr, metadata !2765, metadata !DIExpression()), !dbg !2766
  %this1 = load %"class.dealii::GeometryInfo<1>::ExcInvalidCoordinate"*, %"class.dealii::GeometryInfo<1>::ExcInvalidCoordinate"** %this.addr, align 8
  %0 = bitcast %"class.dealii::GeometryInfo<1>::ExcInvalidCoordinate"* %this1 to %"class.dealii::ExceptionBase"*, !dbg !2766
  call void @_ZN6dealii13ExceptionBaseC2Ev(%"class.dealii::ExceptionBase"* %0), !dbg !2766
  %1 = bitcast %"class.dealii::GeometryInfo<1>::ExcInvalidCoordinate"* %this1 to i32 (...)***, !dbg !2766
  store i32 (...)** bitcast (i8** getelementptr inbounds ({ [6 x i8*] }, { [6 x i8*] }* @_ZTVN6dealii12GeometryInfoILi1EE20ExcInvalidCoordinateE, i32 0, inrange i32 0, i32 2) to i32 (...)**), i32 (...)*** %1, align 8, !dbg !2766
  %arg1 = getelementptr inbounds %"class.dealii::GeometryInfo<1>::ExcInvalidCoordinate", %"class.dealii::GeometryInfo<1>::ExcInvalidCoordinate"* %this1, i32 0, i32 1, !dbg !2766
  %2 = load double, double* %a1.addr, align 8, !dbg !2766
  store double %2, double* %arg1, align 8, !dbg !2766
  ret void, !dbg !2766
}

declare dso_local void @_ZN6dealii13ExceptionBaseC2Ev(%"class.dealii::ExceptionBase"*) unnamed_addr #3

; Function Attrs: noinline nounwind uwtable
define weak_odr dso_local void @_ZN6dealii12GeometryInfoILi1EE20ExcInvalidCoordinateD2Ev(%"class.dealii::GeometryInfo<1>::ExcInvalidCoordinate"* %this) unnamed_addr #1 comdat($_ZN6dealii12GeometryInfoILi1EE20ExcInvalidCoordinateD5Ev) align 2 !dbg !2767 {
entry:
  %this.addr = alloca %"class.dealii::GeometryInfo<1>::ExcInvalidCoordinate"*, align 8
  store %"class.dealii::GeometryInfo<1>::ExcInvalidCoordinate"* %this, %"class.dealii::GeometryInfo<1>::ExcInvalidCoordinate"** %this.addr, align 8
  call void @llvm.dbg.declare(metadata %"class.dealii::GeometryInfo<1>::ExcInvalidCoordinate"** %this.addr, metadata !2768, metadata !DIExpression()), !dbg !2769
  %this1 = load %"class.dealii::GeometryInfo<1>::ExcInvalidCoordinate"*, %"class.dealii::GeometryInfo<1>::ExcInvalidCoordinate"** %this.addr, align 8
  %0 = bitcast %"class.dealii::GeometryInfo<1>::ExcInvalidCoordinate"* %this1 to %"class.dealii::ExceptionBase"*, !dbg !2770
  call void @_ZN6dealii13ExceptionBaseD2Ev(%"class.dealii::ExceptionBase"* %0) #7, !dbg !2770
  ret void, !dbg !2772
}

; Function Attrs: nounwind
declare dso_local void @_ZN6dealii13ExceptionBaseD2Ev(%"class.dealii::ExceptionBase"*) unnamed_addr #4

; Function Attrs: noinline nounwind uwtable
define weak_odr dso_local void @_ZN6dealii12GeometryInfoILi1EE20ExcInvalidCoordinateD0Ev(%"class.dealii::GeometryInfo<1>::ExcInvalidCoordinate"* %this) unnamed_addr #1 comdat($_ZN6dealii12GeometryInfoILi1EE20ExcInvalidCoordinateD5Ev) align 2 !dbg !2773 {
entry:
  %this.addr = alloca %"class.dealii::GeometryInfo<1>::ExcInvalidCoordinate"*, align 8
  store %"class.dealii::GeometryInfo<1>::ExcInvalidCoordinate"* %this, %"class.dealii::GeometryInfo<1>::ExcInvalidCoordinate"** %this.addr, align 8
  call void @llvm.dbg.declare(metadata %"class.dealii::GeometryInfo<1>::ExcInvalidCoordinate"** %this.addr, metadata !2774, metadata !DIExpression()), !dbg !2775
  %this1 = load %"class.dealii::GeometryInfo<1>::ExcInvalidCoordinate"*, %"class.dealii::GeometryInfo<1>::ExcInvalidCoordinate"** %this.addr, align 8
  call void @_ZN6dealii12GeometryInfoILi1EE20ExcInvalidCoordinateD1Ev(%"class.dealii::GeometryInfo<1>::ExcInvalidCoordinate"* %this1) #7, !dbg !2776
  %0 = bitcast %"class.dealii::GeometryInfo<1>::ExcInvalidCoordinate"* %this1 to i8*, !dbg !2776
  call void @_ZdlPv(i8* %0) #8, !dbg !2776
  ret void, !dbg !2776
}

; Function Attrs: nobuiltin nounwind
declare dso_local void @_ZdlPv(i8*) #5

; Function Attrs: noinline uwtable
define weak_odr dso_local void @_ZNK6dealii12GeometryInfoILi1EE20ExcInvalidCoordinate10print_infoERSo(%"class.dealii::GeometryInfo<1>::ExcInvalidCoordinate"* %this, %"class.std::basic_ostream"* dereferenceable(272) %out) unnamed_addr #0 comdat align 2 !dbg !2777 {
entry:
  %this.addr = alloca %"class.dealii::GeometryInfo<1>::ExcInvalidCoordinate"*, align 8
  %out.addr = alloca %"class.std::basic_ostream"*, align 8
  store %"class.dealii::GeometryInfo<1>::ExcInvalidCoordinate"* %this, %"class.dealii::GeometryInfo<1>::ExcInvalidCoordinate"** %this.addr, align 8
  call void @llvm.dbg.declare(metadata %"class.dealii::GeometryInfo<1>::ExcInvalidCoordinate"** %this.addr, metadata !2778, metadata !DIExpression()), !dbg !2780
  store %"class.std::basic_ostream"* %out, %"class.std::basic_ostream"** %out.addr, align 8
  call void @llvm.dbg.declare(metadata %"class.std::basic_ostream"** %out.addr, metadata !2781, metadata !DIExpression()), !dbg !2782
  %this1 = load %"class.dealii::GeometryInfo<1>::ExcInvalidCoordinate"*, %"class.dealii::GeometryInfo<1>::ExcInvalidCoordinate"** %this.addr, align 8
  %0 = load %"class.std::basic_ostream"*, %"class.std::basic_ostream"** %out.addr, align 8, !dbg !2782
  %call = call dereferenceable(272) %"class.std::basic_ostream"* @_ZStlsISt11char_traitsIcEERSt13basic_ostreamIcT_ES5_PKc(%"class.std::basic_ostream"* dereferenceable(272) %0, i8* getelementptr inbounds ([45 x i8], [45 x i8]* @.str, i64 0, i64 0)), !dbg !2782
  %call2 = call dereferenceable(272) %"class.std::basic_ostream"* @_ZStlsISt11char_traitsIcEERSt13basic_ostreamIcT_ES5_PKc(%"class.std::basic_ostream"* dereferenceable(272) %call, i8* getelementptr inbounds ([22 x i8], [22 x i8]* @.str.1, i64 0, i64 0)), !dbg !2782
  %arg1 = getelementptr inbounds %"class.dealii::GeometryInfo<1>::ExcInvalidCoordinate", %"class.dealii::GeometryInfo<1>::ExcInvalidCoordinate"* %this1, i32 0, i32 1, !dbg !2782
  %1 = load double, double* %arg1, align 8, !dbg !2782
  %call3 = call dereferenceable(272) %"class.std::basic_ostream"* @_ZNSolsEd(%"class.std::basic_ostream"* %call2, double %1), !dbg !2782
  %call4 = call dereferenceable(272) %"class.std::basic_ostream"* @_ZNSolsEPFRSoS_E(%"class.std::basic_ostream"* %call3, %"class.std::basic_ostream"* (%"class.std::basic_ostream"*)* @_ZSt4endlIcSt11char_traitsIcEERSt13basic_ostreamIT_T0_ES6_), !dbg !2782
  ret void, !dbg !2782
}

declare dso_local dereferenceable(272) %"class.std::basic_ostream"* @_ZStlsISt11char_traitsIcEERSt13basic_ostreamIcT_ES5_PKc(%"class.std::basic_ostream"* dereferenceable(272), i8*) #3

declare dso_local dereferenceable(272) %"class.std::basic_ostream"* @_ZNSolsEd(%"class.std::basic_ostream"*, double) #3

declare dso_local dereferenceable(272) %"class.std::basic_ostream"* @_ZNSolsEPFRSoS_E(%"class.std::basic_ostream"*, %"class.std::basic_ostream"* (%"class.std::basic_ostream"*)*) #3

declare dso_local dereferenceable(272) %"class.std::basic_ostream"* @_ZSt4endlIcSt11char_traitsIcEERSt13basic_ostreamIT_T0_ES6_(%"class.std::basic_ostream"* dereferenceable(272)) #3

; Function Attrs: noinline uwtable
define weak_odr dso_local void @_ZN6dealii12GeometryInfoILi1EE17ExcInvalidSubfaceC2Eiii(%"class.dealii::GeometryInfo<1>::ExcInvalidSubface"* %this, i32 %a1, i32 %a2, i32 %a3) unnamed_addr #0 comdat($_ZN6dealii12GeometryInfoILi1EE17ExcInvalidSubfaceC5Eiii) align 2 !dbg !2783 {
entry:
  %this.addr = alloca %"class.dealii::GeometryInfo<1>::ExcInvalidSubface"*, align 8
  %a1.addr = alloca i32, align 4
  %a2.addr = alloca i32, align 4
  %a3.addr = alloca i32, align 4
  store %"class.dealii::GeometryInfo<1>::ExcInvalidSubface"* %this, %"class.dealii::GeometryInfo<1>::ExcInvalidSubface"** %this.addr, align 8
  call void @llvm.dbg.declare(metadata %"class.dealii::GeometryInfo<1>::ExcInvalidSubface"** %this.addr, metadata !2802, metadata !DIExpression()), !dbg !2804
  store i32 %a1, i32* %a1.addr, align 4
  call void @llvm.dbg.declare(metadata i32* %a1.addr, metadata !2805, metadata !DIExpression()), !dbg !2806
  store i32 %a2, i32* %a2.addr, align 4
  call void @llvm.dbg.declare(metadata i32* %a2.addr, metadata !2807, metadata !DIExpression()), !dbg !2806
  store i32 %a3, i32* %a3.addr, align 4
  call void @llvm.dbg.declare(metadata i32* %a3.addr, metadata !2808, metadata !DIExpression()), !dbg !2806
  %this1 = load %"class.dealii::GeometryInfo<1>::ExcInvalidSubface"*, %"class.dealii::GeometryInfo<1>::ExcInvalidSubface"** %this.addr, align 8
  %0 = bitcast %"class.dealii::GeometryInfo<1>::ExcInvalidSubface"* %this1 to %"class.dealii::ExceptionBase"*, !dbg !2806
  call void @_ZN6dealii13ExceptionBaseC2Ev(%"class.dealii::ExceptionBase"* %0), !dbg !2806
  %1 = bitcast %"class.dealii::GeometryInfo<1>::ExcInvalidSubface"* %this1 to i32 (...)***, !dbg !2806
  store i32 (...)** bitcast (i8** getelementptr inbounds ({ [6 x i8*] }, { [6 x i8*] }* @_ZTVN6dealii12GeometryInfoILi1EE17ExcInvalidSubfaceE, i32 0, inrange i32 0, i32 2) to i32 (...)**), i32 (...)*** %1, align 8, !dbg !2806
  %arg1 = getelementptr inbounds %"class.dealii::GeometryInfo<1>::ExcInvalidSubface", %"class.dealii::GeometryInfo<1>::ExcInvalidSubface"* %this1, i32 0, i32 1, !dbg !2806
  %2 = load i32, i32* %a1.addr, align 4, !dbg !2806
  store i32 %2, i32* %arg1, align 4, !dbg !2806
  %arg2 = getelementptr inbounds %"class.dealii::GeometryInfo<1>::ExcInvalidSubface", %"class.dealii::GeometryInfo<1>::ExcInvalidSubface"* %this1, i32 0, i32 2, !dbg !2806
  %3 = load i32, i32* %a2.addr, align 4, !dbg !2806
  store i32 %3, i32* %arg2, align 8, !dbg !2806
  %arg3 = getelementptr inbounds %"class.dealii::GeometryInfo<1>::ExcInvalidSubface", %"class.dealii::GeometryInfo<1>::ExcInvalidSubface"* %this1, i32 0, i32 3, !dbg !2806
  %4 = load i32, i32* %a3.addr, align 4, !dbg !2806
  store i32 %4, i32* %arg3, align 4, !dbg !2806
  ret void, !dbg !2806
}

; Function Attrs: noinline nounwind uwtable
define weak_odr dso_local void @_ZN6dealii12GeometryInfoILi1EE17ExcInvalidSubfaceD2Ev(%"class.dealii::GeometryInfo<1>::ExcInvalidSubface"* %this) unnamed_addr #1 comdat($_ZN6dealii12GeometryInfoILi1EE17ExcInvalidSubfaceD5Ev) align 2 !dbg !2809 {
entry:
  %this.addr = alloca %"class.dealii::GeometryInfo<1>::ExcInvalidSubface"*, align 8
  store %"class.dealii::GeometryInfo<1>::ExcInvalidSubface"* %this, %"class.dealii::GeometryInfo<1>::ExcInvalidSubface"** %this.addr, align 8
  call void @llvm.dbg.declare(metadata %"class.dealii::GeometryInfo<1>::ExcInvalidSubface"** %this.addr, metadata !2810, metadata !DIExpression()), !dbg !2811
  %this1 = load %"class.dealii::GeometryInfo<1>::ExcInvalidSubface"*, %"class.dealii::GeometryInfo<1>::ExcInvalidSubface"** %this.addr, align 8
  %0 = bitcast %"class.dealii::GeometryInfo<1>::ExcInvalidSubface"* %this1 to %"class.dealii::ExceptionBase"*, !dbg !2812
  call void @_ZN6dealii13ExceptionBaseD2Ev(%"class.dealii::ExceptionBase"* %0) #7, !dbg !2812
  ret void, !dbg !2814
}

; Function Attrs: noinline nounwind uwtable
define weak_odr dso_local void @_ZN6dealii12GeometryInfoILi1EE17ExcInvalidSubfaceD0Ev(%"class.dealii::GeometryInfo<1>::ExcInvalidSubface"* %this) unnamed_addr #1 comdat($_ZN6dealii12GeometryInfoILi1EE17ExcInvalidSubfaceD5Ev) align 2 !dbg !2815 {
entry:
  %this.addr = alloca %"class.dealii::GeometryInfo<1>::ExcInvalidSubface"*, align 8
  store %"class.dealii::GeometryInfo<1>::ExcInvalidSubface"* %this, %"class.dealii::GeometryInfo<1>::ExcInvalidSubface"** %this.addr, align 8
  call void @llvm.dbg.declare(metadata %"class.dealii::GeometryInfo<1>::ExcInvalidSubface"** %this.addr, metadata !2816, metadata !DIExpression()), !dbg !2817
  %this1 = load %"class.dealii::GeometryInfo<1>::ExcInvalidSubface"*, %"class.dealii::GeometryInfo<1>::ExcInvalidSubface"** %this.addr, align 8
  call void @_ZN6dealii12GeometryInfoILi1EE17ExcInvalidSubfaceD1Ev(%"class.dealii::GeometryInfo<1>::ExcInvalidSubface"* %this1) #7, !dbg !2818
  %0 = bitcast %"class.dealii::GeometryInfo<1>::ExcInvalidSubface"* %this1 to i8*, !dbg !2818
  call void @_ZdlPv(i8* %0) #8, !dbg !2818
  ret void, !dbg !2818
}

; Function Attrs: noinline uwtable
define weak_odr dso_local void @_ZNK6dealii12GeometryInfoILi1EE17ExcInvalidSubface10print_infoERSo(%"class.dealii::GeometryInfo<1>::ExcInvalidSubface"* %this, %"class.std::basic_ostream"* dereferenceable(272) %out) unnamed_addr #0 comdat align 2 !dbg !2819 {
entry:
  %this.addr = alloca %"class.dealii::GeometryInfo<1>::ExcInvalidSubface"*, align 8
  %out.addr = alloca %"class.std::basic_ostream"*, align 8
  store %"class.dealii::GeometryInfo<1>::ExcInvalidSubface"* %this, %"class.dealii::GeometryInfo<1>::ExcInvalidSubface"** %this.addr, align 8
  call void @llvm.dbg.declare(metadata %"class.dealii::GeometryInfo<1>::ExcInvalidSubface"** %this.addr, metadata !2820, metadata !DIExpression()), !dbg !2822
  store %"class.std::basic_ostream"* %out, %"class.std::basic_ostream"** %out.addr, align 8
  call void @llvm.dbg.declare(metadata %"class.std::basic_ostream"** %out.addr, metadata !2823, metadata !DIExpression()), !dbg !2824
  %this1 = load %"class.dealii::GeometryInfo<1>::ExcInvalidSubface"*, %"class.dealii::GeometryInfo<1>::ExcInvalidSubface"** %this.addr, align 8
  %0 = load %"class.std::basic_ostream"*, %"class.std::basic_ostream"** %out.addr, align 8, !dbg !2824
  %call = call dereferenceable(272) %"class.std::basic_ostream"* @_ZStlsISt11char_traitsIcEERSt13basic_ostreamIcT_ES5_PKc(%"class.std::basic_ostream"* dereferenceable(272) %0, i8* getelementptr inbounds ([21 x i8], [21 x i8]* @.str.2, i64 0, i64 0)), !dbg !2824
  %arg1 = getelementptr inbounds %"class.dealii::GeometryInfo<1>::ExcInvalidSubface", %"class.dealii::GeometryInfo<1>::ExcInvalidSubface"* %this1, i32 0, i32 1, !dbg !2824
  %1 = load i32, i32* %arg1, align 4, !dbg !2824
  %call2 = call dereferenceable(272) %"class.std::basic_ostream"* @_ZNSolsEi(%"class.std::basic_ostream"* %call, i32 %1), !dbg !2824
  %call3 = call dereferenceable(272) %"class.std::basic_ostream"* @_ZStlsISt11char_traitsIcEERSt13basic_ostreamIcT_ES5_PKc(%"class.std::basic_ostream"* dereferenceable(272) %call2, i8* getelementptr inbounds ([8 x i8], [8 x i8]* @.str.3, i64 0, i64 0)), !dbg !2824
  %arg2 = getelementptr inbounds %"class.dealii::GeometryInfo<1>::ExcInvalidSubface", %"class.dealii::GeometryInfo<1>::ExcInvalidSubface"* %this1, i32 0, i32 2, !dbg !2824
  %2 = load i32, i32* %arg2, align 8, !dbg !2824
  %call4 = call dereferenceable(272) %"class.std::basic_ostream"* @_ZNSolsEi(%"class.std::basic_ostream"* %call3, i32 %2), !dbg !2824
  %call5 = call dereferenceable(272) %"class.std::basic_ostream"* @_ZStlsISt11char_traitsIcEERSt13basic_ostreamIcT_ES5_PKc(%"class.std::basic_ostream"* dereferenceable(272) %call4, i8* getelementptr inbounds ([17 x i8], [17 x i8]* @.str.4, i64 0, i64 0)), !dbg !2824
  %arg3 = getelementptr inbounds %"class.dealii::GeometryInfo<1>::ExcInvalidSubface", %"class.dealii::GeometryInfo<1>::ExcInvalidSubface"* %this1, i32 0, i32 3, !dbg !2824
  %3 = load i32, i32* %arg3, align 4, !dbg !2824
  %call6 = call dereferenceable(272) %"class.std::basic_ostream"* @_ZNSolsEi(%"class.std::basic_ostream"* %call5, i32 %3), !dbg !2824
  %call7 = call dereferenceable(272) %"class.std::basic_ostream"* @_ZNSolsEPFRSoS_E(%"class.std::basic_ostream"* %call6, %"class.std::basic_ostream"* (%"class.std::basic_ostream"*)* @_ZSt4endlIcSt11char_traitsIcEERSt13basic_ostreamIT_T0_ES6_), !dbg !2824
  ret void, !dbg !2824
}

declare dso_local dereferenceable(272) %"class.std::basic_ostream"* @_ZNSolsEi(%"class.std::basic_ostream"*, i32) #3

; Function Attrs: noinline uwtable
define weak_odr dso_local i32 @_ZN6dealii12GeometryInfoILi2EE10n_childrenERKNS_14RefinementCaseILi2EEE(%"class.dealii::RefinementCase.2"* dereferenceable(1) %ref_case) #0 comdat align 2 !dbg !1099 {
entry:
  %ref_case.addr = alloca %"class.dealii::RefinementCase.2"*, align 8
  store %"class.dealii::RefinementCase.2"* %ref_case, %"class.dealii::RefinementCase.2"** %ref_case.addr, align 8
  call void @llvm.dbg.declare(metadata %"class.dealii::RefinementCase.2"** %ref_case.addr, metadata !2825, metadata !DIExpression()), !dbg !2826
  %0 = load %"class.dealii::RefinementCase.2"*, %"class.dealii::RefinementCase.2"** %ref_case.addr, align 8, !dbg !2827
  %call = call zeroext i8 @_ZNK6dealii14RefinementCaseILi2EEcvhEv(%"class.dealii::RefinementCase.2"* %0), !dbg !2827
  %idxprom = zext i8 %call to i64, !dbg !2828
  %arrayidx = getelementptr inbounds [8 x i32], [8 x i32]* @_ZZN6dealii12GeometryInfoILi2EE10n_childrenERKNS_14RefinementCaseILi2EEEE10n_children, i64 0, i64 %idxprom, !dbg !2828
  %1 = load i32, i32* %arrayidx, align 4, !dbg !2828
  ret i32 %1, !dbg !2829
}

; Function Attrs: noinline nounwind uwtable
define linkonce_odr dso_local zeroext i8 @_ZNK6dealii14RefinementCaseILi2EEcvhEv(%"class.dealii::RefinementCase.2"* %this) #1 comdat align 2 !dbg !2830 {
entry:
  %this.addr = alloca %"class.dealii::RefinementCase.2"*, align 8
  store %"class.dealii::RefinementCase.2"* %this, %"class.dealii::RefinementCase.2"** %this.addr, align 8
  call void @llvm.dbg.declare(metadata %"class.dealii::RefinementCase.2"** %this.addr, metadata !2831, metadata !DIExpression()), !dbg !2833
  %this1 = load %"class.dealii::RefinementCase.2"*, %"class.dealii::RefinementCase.2"** %this.addr, align 8
  %0 = bitcast %"class.dealii::RefinementCase.2"* %this1 to i8*, !dbg !2834
  %bf.load = load i8, i8* %0, align 1, !dbg !2834
  %bf.clear = and i8 %bf.load, 3, !dbg !2834
  ret i8 %bf.clear, !dbg !2835
}

; Function Attrs: noinline uwtable
define weak_odr dso_local i32 @_ZN6dealii12GeometryInfoILi2EE21face_to_cell_verticesEjjbbb(i32 %face, i32 %vertex, i1 zeroext %face_orientation, i1 zeroext %face_flip, i1 zeroext %face_rotation) #0 comdat align 2 !dbg !2836 {
entry:
  %face.addr = alloca i32, align 4
  %vertex.addr = alloca i32, align 4
  %face_orientation.addr = alloca i8, align 1
  %face_flip.addr = alloca i8, align 1
  %face_rotation.addr = alloca i8, align 1
  %ref.tmp = alloca %"class.dealii::RefinementCase.2", align 1
  %ref.tmp5 = alloca %"class.dealii::RefinementCase", align 1
  store i32 %face, i32* %face.addr, align 4
  call void @llvm.dbg.declare(metadata i32* %face.addr, metadata !2837, metadata !DIExpression()), !dbg !2838
  store i32 %vertex, i32* %vertex.addr, align 4
  call void @llvm.dbg.declare(metadata i32* %vertex.addr, metadata !2839, metadata !DIExpression()), !dbg !2840
  %frombool = zext i1 %face_orientation to i8
  store i8 %frombool, i8* %face_orientation.addr, align 1
  call void @llvm.dbg.declare(metadata i8* %face_orientation.addr, metadata !2841, metadata !DIExpression()), !dbg !2842
  %frombool1 = zext i1 %face_flip to i8
  store i8 %frombool1, i8* %face_flip.addr, align 1
  call void @llvm.dbg.declare(metadata i8* %face_flip.addr, metadata !2843, metadata !DIExpression()), !dbg !2844
  %frombool2 = zext i1 %face_rotation to i8
  store i8 %frombool2, i8* %face_rotation.addr, align 1
  call void @llvm.dbg.declare(metadata i8* %face_rotation.addr, metadata !2845, metadata !DIExpression()), !dbg !2846
  call void @_ZN6dealii14RefinementCaseILi2EEC2ENS_23RefinementPossibilitiesILi2EE13PossibilitiesE(%"class.dealii::RefinementCase.2"* %ref.tmp, i32 3), !dbg !2847
  %0 = load i32, i32* %face.addr, align 4, !dbg !2848
  %1 = load i32, i32* %vertex.addr, align 4, !dbg !2849
  %2 = load i8, i8* %face_orientation.addr, align 1, !dbg !2850
  %tobool = trunc i8 %2 to i1, !dbg !2850
  %3 = load i8, i8* %face_flip.addr, align 1, !dbg !2851
  %tobool3 = trunc i8 %3 to i1, !dbg !2851
  %4 = load i8, i8* %face_rotation.addr, align 1, !dbg !2852
  %tobool4 = trunc i8 %4 to i1, !dbg !2852
  call void @_ZN6dealii14RefinementCaseILi1EEC2ENS_23RefinementPossibilitiesILi1EE13PossibilitiesE(%"class.dealii::RefinementCase"* %ref.tmp5, i32 1), !dbg !2853
  %call = call i32 @_ZN6dealii12GeometryInfoILi2EE18child_cell_on_faceERKNS_14RefinementCaseILi2EEEjjbbbRKNS2_ILi1EEE(%"class.dealii::RefinementCase.2"* dereferenceable(1) %ref.tmp, i32 %0, i32 %1, i1 zeroext %tobool, i1 zeroext %tobool3, i1 zeroext %tobool4, %"class.dealii::RefinementCase"* dereferenceable(1) %ref.tmp5), !dbg !2853
  ret i32 %call, !dbg !2854
}

; Function Attrs: noinline uwtable
define dso_local i32 @_ZN6dealii12GeometryInfoILi2EE18child_cell_on_faceERKNS_14RefinementCaseILi2EEEjjbbbRKNS2_ILi1EEE(%"class.dealii::RefinementCase.2"* dereferenceable(1) %ref_case, i32 %face, i32 %subface, i1 zeroext %0, i1 zeroext %1, i1 zeroext %2, %"class.dealii::RefinementCase"* dereferenceable(1) %3) #0 align 2 !dbg !1249 {
entry:
  %ref_case.addr = alloca %"class.dealii::RefinementCase.2"*, align 8
  %face.addr = alloca i32, align 4
  %subface.addr = alloca i32, align 4
  %.addr = alloca i8, align 1
  %.addr1 = alloca i8, align 1
  %.addr3 = alloca i8, align 1
  %.addr5 = alloca %"class.dealii::RefinementCase"*, align 8
  store %"class.dealii::RefinementCase.2"* %ref_case, %"class.dealii::RefinementCase.2"** %ref_case.addr, align 8
  call void @llvm.dbg.declare(metadata %"class.dealii::RefinementCase.2"** %ref_case.addr, metadata !2855, metadata !DIExpression()), !dbg !2856
  store i32 %face, i32* %face.addr, align 4
  call void @llvm.dbg.declare(metadata i32* %face.addr, metadata !2857, metadata !DIExpression()), !dbg !2858
  store i32 %subface, i32* %subface.addr, align 4
  call void @llvm.dbg.declare(metadata i32* %subface.addr, metadata !2859, metadata !DIExpression()), !dbg !2860
  %frombool = zext i1 %0 to i8
  store i8 %frombool, i8* %.addr, align 1
  call void @llvm.dbg.declare(metadata i8* %.addr, metadata !2861, metadata !DIExpression()), !dbg !2862
  %frombool2 = zext i1 %1 to i8
  store i8 %frombool2, i8* %.addr1, align 1
  call void @llvm.dbg.declare(metadata i8* %.addr1, metadata !2863, metadata !DIExpression()), !dbg !2864
  %frombool4 = zext i1 %2 to i8
  store i8 %frombool4, i8* %.addr3, align 1
  call void @llvm.dbg.declare(metadata i8* %.addr3, metadata !2865, metadata !DIExpression()), !dbg !2866
  store %"class.dealii::RefinementCase"* %3, %"class.dealii::RefinementCase"** %.addr5, align 8
  call void @llvm.dbg.declare(metadata %"class.dealii::RefinementCase"** %.addr5, metadata !2867, metadata !DIExpression()), !dbg !2868
  %4 = load %"class.dealii::RefinementCase.2"*, %"class.dealii::RefinementCase.2"** %ref_case.addr, align 8, !dbg !2869
  %call = call zeroext i8 @_ZNK6dealii14RefinementCaseILi2EEcvhEv(%"class.dealii::RefinementCase.2"* %4), !dbg !2869
  %conv = zext i8 %call to i32, !dbg !2869
  %sub = sub nsw i32 %conv, 1, !dbg !2870
  %idxprom = sext i32 %sub to i64, !dbg !2871
  %arrayidx = getelementptr inbounds [3 x [4 x [2 x i32]]], [3 x [4 x [2 x i32]]]* @_ZZN6dealii12GeometryInfoILi2EE18child_cell_on_faceERKNS_14RefinementCaseILi2EEEjjbbbRKNS2_ILi1EEEE8subcells, i64 0, i64 %idxprom, !dbg !2871
  %5 = load i32, i32* %face.addr, align 4, !dbg !2872
  %idxprom6 = zext i32 %5 to i64, !dbg !2871
  %arrayidx7 = getelementptr inbounds [4 x [2 x i32]], [4 x [2 x i32]]* %arrayidx, i64 0, i64 %idxprom6, !dbg !2871
  %6 = load i32, i32* %subface.addr, align 4, !dbg !2873
  %idxprom8 = zext i32 %6 to i64, !dbg !2871
  %arrayidx9 = getelementptr inbounds [2 x i32], [2 x i32]* %arrayidx7, i64 0, i64 %idxprom8, !dbg !2871
  %7 = load i32, i32* %arrayidx9, align 4, !dbg !2871
  ret i32 %7, !dbg !2874
}

; Function Attrs: noinline nounwind uwtable
define linkonce_odr dso_local void @_ZN6dealii14RefinementCaseILi2EEC2ENS_23RefinementPossibilitiesILi2EE13PossibilitiesE(%"class.dealii::RefinementCase.2"* %this, i32 %refinement_case) unnamed_addr #1 comdat align 2 !dbg !2875 {
entry:
  %this.addr = alloca %"class.dealii::RefinementCase.2"*, align 8
  %refinement_case.addr = alloca i32, align 4
  store %"class.dealii::RefinementCase.2"* %this, %"class.dealii::RefinementCase.2"** %this.addr, align 8
  call void @llvm.dbg.declare(metadata %"class.dealii::RefinementCase.2"** %this.addr, metadata !2876, metadata !DIExpression()), !dbg !2878
  store i32 %refinement_case, i32* %refinement_case.addr, align 4
  call void @llvm.dbg.declare(metadata i32* %refinement_case.addr, metadata !2879, metadata !DIExpression()), !dbg !2880
  %this1 = load %"class.dealii::RefinementCase.2"*, %"class.dealii::RefinementCase.2"** %this.addr, align 8
  %0 = bitcast %"class.dealii::RefinementCase.2"* %this1 to %"struct.dealii::RefinementPossibilities.3"*, !dbg !2881
  %1 = bitcast %"class.dealii::RefinementCase.2"* %this1 to i8*, !dbg !2882
  %2 = load i32, i32* %refinement_case.addr, align 4, !dbg !2883
  %conv = trunc i32 %2 to i8, !dbg !2883
  %bf.load = load i8, i8* %1, align 1, !dbg !2882
  %bf.value = and i8 %conv, 3, !dbg !2882
  %bf.clear = and i8 %bf.load, -4, !dbg !2882
  %bf.set = or i8 %bf.clear, %bf.value, !dbg !2882
  store i8 %bf.set, i8* %1, align 1, !dbg !2882
  ret void, !dbg !2884
}

; Function Attrs: noinline nounwind uwtable
define weak_odr dso_local i32 @_ZN6dealii12GeometryInfoILi2EE28standard_to_real_face_vertexEjbbb(i32 %vertex, i1 zeroext %0, i1 zeroext %1, i1 zeroext %2) #1 comdat align 2 !dbg !2885 {
entry:
  %vertex.addr = alloca i32, align 4
  %.addr = alloca i8, align 1
  %.addr1 = alloca i8, align 1
  %.addr3 = alloca i8, align 1
  store i32 %vertex, i32* %vertex.addr, align 4
  call void @llvm.dbg.declare(metadata i32* %vertex.addr, metadata !2886, metadata !DIExpression()), !dbg !2887
  %frombool = zext i1 %0 to i8
  store i8 %frombool, i8* %.addr, align 1
  call void @llvm.dbg.declare(metadata i8* %.addr, metadata !2888, metadata !DIExpression()), !dbg !2889
  %frombool2 = zext i1 %1 to i8
  store i8 %frombool2, i8* %.addr1, align 1
  call void @llvm.dbg.declare(metadata i8* %.addr1, metadata !2890, metadata !DIExpression()), !dbg !2891
  %frombool4 = zext i1 %2 to i8
  store i8 %frombool4, i8* %.addr3, align 1
  call void @llvm.dbg.declare(metadata i8* %.addr3, metadata !2892, metadata !DIExpression()), !dbg !2893
  %3 = load i32, i32* %vertex.addr, align 4, !dbg !2894
  ret i32 %3, !dbg !2895
}

; Function Attrs: noinline nounwind uwtable
define weak_odr dso_local i32 @_ZN6dealii12GeometryInfoILi2EE28real_to_standard_face_vertexEjbbb(i32 %vertex, i1 zeroext %0, i1 zeroext %1, i1 zeroext %2) #1 comdat align 2 !dbg !2896 {
entry:
  %vertex.addr = alloca i32, align 4
  %.addr = alloca i8, align 1
  %.addr1 = alloca i8, align 1
  %.addr3 = alloca i8, align 1
  store i32 %vertex, i32* %vertex.addr, align 4
  call void @llvm.dbg.declare(metadata i32* %vertex.addr, metadata !2897, metadata !DIExpression()), !dbg !2898
  %frombool = zext i1 %0 to i8
  store i8 %frombool, i8* %.addr, align 1
  call void @llvm.dbg.declare(metadata i8* %.addr, metadata !2899, metadata !DIExpression()), !dbg !2900
  %frombool2 = zext i1 %1 to i8
  store i8 %frombool2, i8* %.addr1, align 1
  call void @llvm.dbg.declare(metadata i8* %.addr1, metadata !2901, metadata !DIExpression()), !dbg !2902
  %frombool4 = zext i1 %2 to i8
  store i8 %frombool4, i8* %.addr3, align 1
  call void @llvm.dbg.declare(metadata i8* %.addr3, metadata !2903, metadata !DIExpression()), !dbg !2904
  %3 = load i32, i32* %vertex.addr, align 4, !dbg !2905
  ret i32 %3, !dbg !2906
}

; Function Attrs: noinline nounwind uwtable
define weak_odr dso_local i32 @_ZN6dealii12GeometryInfoILi2EE26standard_to_real_face_lineEjbbb(i32 %line, i1 zeroext %0, i1 zeroext %1, i1 zeroext %2) #1 comdat align 2 !dbg !2907 {
entry:
  %line.addr = alloca i32, align 4
  %.addr = alloca i8, align 1
  %.addr1 = alloca i8, align 1
  %.addr3 = alloca i8, align 1
  store i32 %line, i32* %line.addr, align 4
  call void @llvm.dbg.declare(metadata i32* %line.addr, metadata !2908, metadata !DIExpression()), !dbg !2909
  %frombool = zext i1 %0 to i8
  store i8 %frombool, i8* %.addr, align 1
  call void @llvm.dbg.declare(metadata i8* %.addr, metadata !2910, metadata !DIExpression()), !dbg !2911
  %frombool2 = zext i1 %1 to i8
  store i8 %frombool2, i8* %.addr1, align 1
  call void @llvm.dbg.declare(metadata i8* %.addr1, metadata !2912, metadata !DIExpression()), !dbg !2913
  %frombool4 = zext i1 %2 to i8
  store i8 %frombool4, i8* %.addr3, align 1
  call void @llvm.dbg.declare(metadata i8* %.addr3, metadata !2914, metadata !DIExpression()), !dbg !2915
  %3 = load i32, i32* %line.addr, align 4, !dbg !2916
  ret i32 %3, !dbg !2917
}

; Function Attrs: noinline nounwind uwtable
define weak_odr dso_local i32 @_ZN6dealii12GeometryInfoILi2EE26real_to_standard_face_lineEjbbb(i32 %line, i1 zeroext %0, i1 zeroext %1, i1 zeroext %2) #1 comdat align 2 !dbg !2918 {
entry:
  %line.addr = alloca i32, align 4
  %.addr = alloca i8, align 1
  %.addr1 = alloca i8, align 1
  %.addr3 = alloca i8, align 1
  store i32 %line, i32* %line.addr, align 4
  call void @llvm.dbg.declare(metadata i32* %line.addr, metadata !2919, metadata !DIExpression()), !dbg !2920
  %frombool = zext i1 %0 to i8
  store i8 %frombool, i8* %.addr, align 1
  call void @llvm.dbg.declare(metadata i8* %.addr, metadata !2921, metadata !DIExpression()), !dbg !2922
  %frombool2 = zext i1 %1 to i8
  store i8 %frombool2, i8* %.addr1, align 1
  call void @llvm.dbg.declare(metadata i8* %.addr1, metadata !2923, metadata !DIExpression()), !dbg !2924
  %frombool4 = zext i1 %2 to i8
  store i8 %frombool4, i8* %.addr3, align 1
  call void @llvm.dbg.declare(metadata i8* %.addr3, metadata !2925, metadata !DIExpression()), !dbg !2926
  %3 = load i32, i32* %line.addr, align 4, !dbg !2927
  ret i32 %3, !dbg !2928
}

; Function Attrs: noinline uwtable
define weak_odr dso_local void @_ZN6dealii12GeometryInfoILi2EE20project_to_unit_cellERKNS_5PointILi2EEE(%"class.dealii::Point.4"* noalias sret %agg.result, %"class.dealii::Point.4"* dereferenceable(16) %q) #0 comdat align 2 !dbg !2929 {
entry:
  %result.ptr = alloca i8*, align 8
  %q.addr = alloca %"class.dealii::Point.4"*, align 8
  %i = alloca i32, align 4
  %0 = bitcast %"class.dealii::Point.4"* %agg.result to i8*
  store i8* %0, i8** %result.ptr, align 8
  store %"class.dealii::Point.4"* %q, %"class.dealii::Point.4"** %q.addr, align 8
  call void @llvm.dbg.declare(metadata %"class.dealii::Point.4"** %q.addr, metadata !2930, metadata !DIExpression()), !dbg !2931
  call void @llvm.dbg.declare(metadata i8** %result.ptr, metadata !2932, metadata !DIExpression(DW_OP_deref)), !dbg !2933
  %1 = load %"class.dealii::Point.4"*, %"class.dealii::Point.4"** %q.addr, align 8, !dbg !2934
  call void @_ZN6dealii5PointILi2EEC2ERKS1_(%"class.dealii::Point.4"* %agg.result, %"class.dealii::Point.4"* dereferenceable(16) %1), !dbg !2934
  call void @llvm.dbg.declare(metadata i32* %i, metadata !2935, metadata !DIExpression()), !dbg !2937
  store i32 0, i32* %i, align 4, !dbg !2937
  br label %for.cond, !dbg !2938

for.cond:                                         ; preds = %for.inc, %entry
  %2 = load i32, i32* %i, align 4, !dbg !2939
  %cmp = icmp ult i32 %2, 2, !dbg !2941
  br i1 %cmp, label %for.body, label %for.end, !dbg !2942

for.body:                                         ; preds = %for.cond
  %3 = bitcast %"class.dealii::Point.4"* %agg.result to %"class.dealii::Tensor.5"*, !dbg !2943
  %4 = load i32, i32* %i, align 4, !dbg !2945
  %call = call dereferenceable(8) double* @_ZN6dealii6TensorILi1ELi2EEixEj(%"class.dealii::Tensor.5"* %3, i32 %4), !dbg !2943
  %5 = load double, double* %call, align 8, !dbg !2943
  %cmp1 = fcmp olt double %5, 0.000000e+00, !dbg !2946
  br i1 %cmp1, label %if.then, label %if.else, !dbg !2947

if.then:                                          ; preds = %for.body
  %6 = bitcast %"class.dealii::Point.4"* %agg.result to %"class.dealii::Tensor.5"*, !dbg !2948
  %7 = load i32, i32* %i, align 4, !dbg !2949
  %call2 = call dereferenceable(8) double* @_ZN6dealii6TensorILi1ELi2EEixEj(%"class.dealii::Tensor.5"* %6, i32 %7), !dbg !2948
  store double 0.000000e+00, double* %call2, align 8, !dbg !2950
  br label %if.end7, !dbg !2948

if.else:                                          ; preds = %for.body
  %8 = bitcast %"class.dealii::Point.4"* %agg.result to %"class.dealii::Tensor.5"*, !dbg !2951
  %9 = load i32, i32* %i, align 4, !dbg !2953
  %call3 = call dereferenceable(8) double* @_ZN6dealii6TensorILi1ELi2EEixEj(%"class.dealii::Tensor.5"* %8, i32 %9), !dbg !2951
  %10 = load double, double* %call3, align 8, !dbg !2951
  %cmp4 = fcmp ogt double %10, 1.000000e+00, !dbg !2954
  br i1 %cmp4, label %if.then5, label %if.end, !dbg !2955

if.then5:                                         ; preds = %if.else
  %11 = bitcast %"class.dealii::Point.4"* %agg.result to %"class.dealii::Tensor.5"*, !dbg !2956
  %12 = load i32, i32* %i, align 4, !dbg !2957
  %call6 = call dereferenceable(8) double* @_ZN6dealii6TensorILi1ELi2EEixEj(%"class.dealii::Tensor.5"* %11, i32 %12), !dbg !2956
  store double 1.000000e+00, double* %call6, align 8, !dbg !2958
  br label %if.end, !dbg !2956

if.end:                                           ; preds = %if.then5, %if.else
  br label %if.end7

if.end7:                                          ; preds = %if.end, %if.then
  br label %for.inc, !dbg !2959

for.inc:                                          ; preds = %if.end7
  %13 = load i32, i32* %i, align 4, !dbg !2960
  %inc = add i32 %13, 1, !dbg !2960
  store i32 %inc, i32* %i, align 4, !dbg !2960
  br label %for.cond, !dbg !2961, !llvm.loop !2962

for.end:                                          ; preds = %for.cond
  ret void, !dbg !2964
}

; Function Attrs: noinline uwtable
define linkonce_odr dso_local void @_ZN6dealii5PointILi2EEC2ERKS1_(%"class.dealii::Point.4"* %this, %"class.dealii::Point.4"* dereferenceable(16) %0) unnamed_addr #0 comdat align 2 !dbg !2965 {
entry:
  %this.addr = alloca %"class.dealii::Point.4"*, align 8
  %.addr = alloca %"class.dealii::Point.4"*, align 8
  store %"class.dealii::Point.4"* %this, %"class.dealii::Point.4"** %this.addr, align 8
  call void @llvm.dbg.declare(metadata %"class.dealii::Point.4"** %this.addr, metadata !2969, metadata !DIExpression()), !dbg !2971
  store %"class.dealii::Point.4"* %0, %"class.dealii::Point.4"** %.addr, align 8
  call void @llvm.dbg.declare(metadata %"class.dealii::Point.4"** %.addr, metadata !2972, metadata !DIExpression()), !dbg !2971
  %this1 = load %"class.dealii::Point.4"*, %"class.dealii::Point.4"** %this.addr, align 8
  %1 = bitcast %"class.dealii::Point.4"* %this1 to %"class.dealii::Tensor.5"*, !dbg !2973
  %2 = load %"class.dealii::Point.4"*, %"class.dealii::Point.4"** %.addr, align 8, !dbg !2973
  %3 = bitcast %"class.dealii::Point.4"* %2 to %"class.dealii::Tensor.5"*, !dbg !2973
  call void @_ZN6dealii6TensorILi1ELi2EEC2ERKS1_(%"class.dealii::Tensor.5"* %1, %"class.dealii::Tensor.5"* dereferenceable(16) %3), !dbg !2973
  ret void, !dbg !2973
}

; Function Attrs: noinline nounwind uwtable
define linkonce_odr dso_local dereferenceable(8) double* @_ZN6dealii6TensorILi1ELi2EEixEj(%"class.dealii::Tensor.5"* %this, i32 %index) #1 comdat align 2 !dbg !2974 {
entry:
  %this.addr = alloca %"class.dealii::Tensor.5"*, align 8
  %index.addr = alloca i32, align 4
  store %"class.dealii::Tensor.5"* %this, %"class.dealii::Tensor.5"** %this.addr, align 8
  call void @llvm.dbg.declare(metadata %"class.dealii::Tensor.5"** %this.addr, metadata !2975, metadata !DIExpression()), !dbg !2977
  store i32 %index, i32* %index.addr, align 4
  call void @llvm.dbg.declare(metadata i32* %index.addr, metadata !2978, metadata !DIExpression()), !dbg !2979
  %this1 = load %"class.dealii::Tensor.5"*, %"class.dealii::Tensor.5"** %this.addr, align 8
  %values = getelementptr inbounds %"class.dealii::Tensor.5", %"class.dealii::Tensor.5"* %this1, i32 0, i32 0, !dbg !2980
  %0 = load i32, i32* %index.addr, align 4, !dbg !2981
  %idxprom = zext i32 %0 to i64, !dbg !2980
  %arrayidx = getelementptr inbounds [2 x double], [2 x double]* %values, i64 0, i64 %idxprom, !dbg !2980
  ret double* %arrayidx, !dbg !2982
}

; Function Attrs: noinline uwtable
define weak_odr dso_local double @_ZN6dealii12GeometryInfoILi2EE21distance_to_unit_cellERKNS_5PointILi2EEE(%"class.dealii::Point.4"* dereferenceable(16) %p) #0 comdat align 2 !dbg !2983 {
entry:
  %p.addr = alloca %"class.dealii::Point.4"*, align 8
  %result = alloca double, align 8
  %i = alloca i32, align 4
  store %"class.dealii::Point.4"* %p, %"class.dealii::Point.4"** %p.addr, align 8
  call void @llvm.dbg.declare(metadata %"class.dealii::Point.4"** %p.addr, metadata !2984, metadata !DIExpression()), !dbg !2985
  call void @llvm.dbg.declare(metadata double* %result, metadata !2986, metadata !DIExpression()), !dbg !2987
  store double 0.000000e+00, double* %result, align 8, !dbg !2987
  call void @llvm.dbg.declare(metadata i32* %i, metadata !2988, metadata !DIExpression()), !dbg !2990
  store i32 0, i32* %i, align 4, !dbg !2990
  br label %for.cond, !dbg !2991

for.cond:                                         ; preds = %for.inc, %entry
  %0 = load i32, i32* %i, align 4, !dbg !2992
  %cmp = icmp ult i32 %0, 2, !dbg !2994
  br i1 %cmp, label %for.body, label %for.end, !dbg !2995

for.body:                                         ; preds = %for.cond
  %1 = load %"class.dealii::Point.4"*, %"class.dealii::Point.4"** %p.addr, align 8, !dbg !2996
  %2 = bitcast %"class.dealii::Point.4"* %1 to %"class.dealii::Tensor.5"*, !dbg !2996
  %3 = load i32, i32* %i, align 4, !dbg !2998
  %call = call double @_ZNK6dealii6TensorILi1ELi2EEixEj(%"class.dealii::Tensor.5"* %2, i32 %3), !dbg !2996
  %fneg = fneg double %call, !dbg !2999
  %4 = load double, double* %result, align 8, !dbg !3000
  %cmp1 = fcmp ogt double %fneg, %4, !dbg !3001
  br i1 %cmp1, label %if.then, label %if.else, !dbg !3002

if.then:                                          ; preds = %for.body
  %5 = load %"class.dealii::Point.4"*, %"class.dealii::Point.4"** %p.addr, align 8, !dbg !3003
  %6 = bitcast %"class.dealii::Point.4"* %5 to %"class.dealii::Tensor.5"*, !dbg !3003
  %7 = load i32, i32* %i, align 4, !dbg !3004
  %call2 = call double @_ZNK6dealii6TensorILi1ELi2EEixEj(%"class.dealii::Tensor.5"* %6, i32 %7), !dbg !3003
  %fneg3 = fneg double %call2, !dbg !3005
  store double %fneg3, double* %result, align 8, !dbg !3006
  br label %if.end9, !dbg !3007

if.else:                                          ; preds = %for.body
  %8 = load %"class.dealii::Point.4"*, %"class.dealii::Point.4"** %p.addr, align 8, !dbg !3008
  %9 = bitcast %"class.dealii::Point.4"* %8 to %"class.dealii::Tensor.5"*, !dbg !3008
  %10 = load i32, i32* %i, align 4, !dbg !3010
  %call4 = call double @_ZNK6dealii6TensorILi1ELi2EEixEj(%"class.dealii::Tensor.5"* %9, i32 %10), !dbg !3008
  %sub = fsub double %call4, 1.000000e+00, !dbg !3011
  %11 = load double, double* %result, align 8, !dbg !3012
  %cmp5 = fcmp ogt double %sub, %11, !dbg !3013
  br i1 %cmp5, label %if.then6, label %if.end, !dbg !3014

if.then6:                                         ; preds = %if.else
  %12 = load %"class.dealii::Point.4"*, %"class.dealii::Point.4"** %p.addr, align 8, !dbg !3015
  %13 = bitcast %"class.dealii::Point.4"* %12 to %"class.dealii::Tensor.5"*, !dbg !3015
  %14 = load i32, i32* %i, align 4, !dbg !3016
  %call7 = call double @_ZNK6dealii6TensorILi1ELi2EEixEj(%"class.dealii::Tensor.5"* %13, i32 %14), !dbg !3015
  %sub8 = fsub double %call7, 1.000000e+00, !dbg !3017
  store double %sub8, double* %result, align 8, !dbg !3018
  br label %if.end, !dbg !3019

if.end:                                           ; preds = %if.then6, %if.else
  br label %if.end9

if.end9:                                          ; preds = %if.end, %if.then
  br label %for.inc, !dbg !3000

for.inc:                                          ; preds = %if.end9
  %15 = load i32, i32* %i, align 4, !dbg !3020
  %inc = add i32 %15, 1, !dbg !3020
  store i32 %inc, i32* %i, align 4, !dbg !3020
  br label %for.cond, !dbg !3021, !llvm.loop !3022

for.end:                                          ; preds = %for.cond
  %16 = load double, double* %result, align 8, !dbg !3024
  ret double %16, !dbg !3025
}

; Function Attrs: noinline nounwind uwtable
define linkonce_odr dso_local double @_ZNK6dealii6TensorILi1ELi2EEixEj(%"class.dealii::Tensor.5"* %this, i32 %index) #1 comdat align 2 !dbg !3026 {
entry:
  %this.addr = alloca %"class.dealii::Tensor.5"*, align 8
  %index.addr = alloca i32, align 4
  store %"class.dealii::Tensor.5"* %this, %"class.dealii::Tensor.5"** %this.addr, align 8
  call void @llvm.dbg.declare(metadata %"class.dealii::Tensor.5"** %this.addr, metadata !3027, metadata !DIExpression()), !dbg !3029
  store i32 %index, i32* %index.addr, align 4
  call void @llvm.dbg.declare(metadata i32* %index.addr, metadata !3030, metadata !DIExpression()), !dbg !3031
  %this1 = load %"class.dealii::Tensor.5"*, %"class.dealii::Tensor.5"** %this.addr, align 8
  %values = getelementptr inbounds %"class.dealii::Tensor.5", %"class.dealii::Tensor.5"* %this1, i32 0, i32 0, !dbg !3032
  %0 = load i32, i32* %index.addr, align 4, !dbg !3033
  %idxprom = zext i32 %0 to i64, !dbg !3032
  %arrayidx = getelementptr inbounds [2 x double], [2 x double]* %values, i64 0, i64 %idxprom, !dbg !3032
  %1 = load double, double* %arrayidx, align 8, !dbg !3032
  ret double %1, !dbg !3034
}

; Function Attrs: noinline uwtable
define weak_odr dso_local void @_ZN6dealii12GeometryInfoILi2EE20ExcInvalidCoordinateC2Ed(%"class.dealii::GeometryInfo<2>::ExcInvalidCoordinate"* %this, double %a1) unnamed_addr #0 comdat($_ZN6dealii12GeometryInfoILi2EE20ExcInvalidCoordinateC5Ed) align 2 !dbg !3035 {
entry:
  %this.addr = alloca %"class.dealii::GeometryInfo<2>::ExcInvalidCoordinate"*, align 8
  %a1.addr = alloca double, align 8
  store %"class.dealii::GeometryInfo<2>::ExcInvalidCoordinate"* %this, %"class.dealii::GeometryInfo<2>::ExcInvalidCoordinate"** %this.addr, align 8
  call void @llvm.dbg.declare(metadata %"class.dealii::GeometryInfo<2>::ExcInvalidCoordinate"** %this.addr, metadata !3052, metadata !DIExpression()), !dbg !3054
  store double %a1, double* %a1.addr, align 8
  call void @llvm.dbg.declare(metadata double* %a1.addr, metadata !3055, metadata !DIExpression()), !dbg !3056
  %this1 = load %"class.dealii::GeometryInfo<2>::ExcInvalidCoordinate"*, %"class.dealii::GeometryInfo<2>::ExcInvalidCoordinate"** %this.addr, align 8
  %0 = bitcast %"class.dealii::GeometryInfo<2>::ExcInvalidCoordinate"* %this1 to %"class.dealii::ExceptionBase"*, !dbg !3056
  call void @_ZN6dealii13ExceptionBaseC2Ev(%"class.dealii::ExceptionBase"* %0), !dbg !3056
  %1 = bitcast %"class.dealii::GeometryInfo<2>::ExcInvalidCoordinate"* %this1 to i32 (...)***, !dbg !3056
  store i32 (...)** bitcast (i8** getelementptr inbounds ({ [6 x i8*] }, { [6 x i8*] }* @_ZTVN6dealii12GeometryInfoILi2EE20ExcInvalidCoordinateE, i32 0, inrange i32 0, i32 2) to i32 (...)**), i32 (...)*** %1, align 8, !dbg !3056
  %arg1 = getelementptr inbounds %"class.dealii::GeometryInfo<2>::ExcInvalidCoordinate", %"class.dealii::GeometryInfo<2>::ExcInvalidCoordinate"* %this1, i32 0, i32 1, !dbg !3056
  %2 = load double, double* %a1.addr, align 8, !dbg !3056
  store double %2, double* %arg1, align 8, !dbg !3056
  ret void, !dbg !3056
}

; Function Attrs: noinline nounwind uwtable
define weak_odr dso_local void @_ZN6dealii12GeometryInfoILi2EE20ExcInvalidCoordinateD2Ev(%"class.dealii::GeometryInfo<2>::ExcInvalidCoordinate"* %this) unnamed_addr #1 comdat($_ZN6dealii12GeometryInfoILi2EE20ExcInvalidCoordinateD5Ev) align 2 !dbg !3057 {
entry:
  %this.addr = alloca %"class.dealii::GeometryInfo<2>::ExcInvalidCoordinate"*, align 8
  store %"class.dealii::GeometryInfo<2>::ExcInvalidCoordinate"* %this, %"class.dealii::GeometryInfo<2>::ExcInvalidCoordinate"** %this.addr, align 8
  call void @llvm.dbg.declare(metadata %"class.dealii::GeometryInfo<2>::ExcInvalidCoordinate"** %this.addr, metadata !3058, metadata !DIExpression()), !dbg !3059
  %this1 = load %"class.dealii::GeometryInfo<2>::ExcInvalidCoordinate"*, %"class.dealii::GeometryInfo<2>::ExcInvalidCoordinate"** %this.addr, align 8
  %0 = bitcast %"class.dealii::GeometryInfo<2>::ExcInvalidCoordinate"* %this1 to %"class.dealii::ExceptionBase"*, !dbg !3060
  call void @_ZN6dealii13ExceptionBaseD2Ev(%"class.dealii::ExceptionBase"* %0) #7, !dbg !3060
  ret void, !dbg !3062
}

; Function Attrs: noinline nounwind uwtable
define weak_odr dso_local void @_ZN6dealii12GeometryInfoILi2EE20ExcInvalidCoordinateD0Ev(%"class.dealii::GeometryInfo<2>::ExcInvalidCoordinate"* %this) unnamed_addr #1 comdat($_ZN6dealii12GeometryInfoILi2EE20ExcInvalidCoordinateD5Ev) align 2 !dbg !3063 {
entry:
  %this.addr = alloca %"class.dealii::GeometryInfo<2>::ExcInvalidCoordinate"*, align 8
  store %"class.dealii::GeometryInfo<2>::ExcInvalidCoordinate"* %this, %"class.dealii::GeometryInfo<2>::ExcInvalidCoordinate"** %this.addr, align 8
  call void @llvm.dbg.declare(metadata %"class.dealii::GeometryInfo<2>::ExcInvalidCoordinate"** %this.addr, metadata !3064, metadata !DIExpression()), !dbg !3065
  %this1 = load %"class.dealii::GeometryInfo<2>::ExcInvalidCoordinate"*, %"class.dealii::GeometryInfo<2>::ExcInvalidCoordinate"** %this.addr, align 8
  call void @_ZN6dealii12GeometryInfoILi2EE20ExcInvalidCoordinateD1Ev(%"class.dealii::GeometryInfo<2>::ExcInvalidCoordinate"* %this1) #7, !dbg !3066
  %0 = bitcast %"class.dealii::GeometryInfo<2>::ExcInvalidCoordinate"* %this1 to i8*, !dbg !3066
  call void @_ZdlPv(i8* %0) #8, !dbg !3066
  ret void, !dbg !3066
}

; Function Attrs: noinline uwtable
define weak_odr dso_local void @_ZNK6dealii12GeometryInfoILi2EE20ExcInvalidCoordinate10print_infoERSo(%"class.dealii::GeometryInfo<2>::ExcInvalidCoordinate"* %this, %"class.std::basic_ostream"* dereferenceable(272) %out) unnamed_addr #0 comdat align 2 !dbg !3067 {
entry:
  %this.addr = alloca %"class.dealii::GeometryInfo<2>::ExcInvalidCoordinate"*, align 8
  %out.addr = alloca %"class.std::basic_ostream"*, align 8
  store %"class.dealii::GeometryInfo<2>::ExcInvalidCoordinate"* %this, %"class.dealii::GeometryInfo<2>::ExcInvalidCoordinate"** %this.addr, align 8
  call void @llvm.dbg.declare(metadata %"class.dealii::GeometryInfo<2>::ExcInvalidCoordinate"** %this.addr, metadata !3068, metadata !DIExpression()), !dbg !3070
  store %"class.std::basic_ostream"* %out, %"class.std::basic_ostream"** %out.addr, align 8
  call void @llvm.dbg.declare(metadata %"class.std::basic_ostream"** %out.addr, metadata !3071, metadata !DIExpression()), !dbg !3072
  %this1 = load %"class.dealii::GeometryInfo<2>::ExcInvalidCoordinate"*, %"class.dealii::GeometryInfo<2>::ExcInvalidCoordinate"** %this.addr, align 8
  %0 = load %"class.std::basic_ostream"*, %"class.std::basic_ostream"** %out.addr, align 8, !dbg !3072
  %call = call dereferenceable(272) %"class.std::basic_ostream"* @_ZStlsISt11char_traitsIcEERSt13basic_ostreamIcT_ES5_PKc(%"class.std::basic_ostream"* dereferenceable(272) %0, i8* getelementptr inbounds ([45 x i8], [45 x i8]* @.str, i64 0, i64 0)), !dbg !3072
  %call2 = call dereferenceable(272) %"class.std::basic_ostream"* @_ZStlsISt11char_traitsIcEERSt13basic_ostreamIcT_ES5_PKc(%"class.std::basic_ostream"* dereferenceable(272) %call, i8* getelementptr inbounds ([22 x i8], [22 x i8]* @.str.1, i64 0, i64 0)), !dbg !3072
  %arg1 = getelementptr inbounds %"class.dealii::GeometryInfo<2>::ExcInvalidCoordinate", %"class.dealii::GeometryInfo<2>::ExcInvalidCoordinate"* %this1, i32 0, i32 1, !dbg !3072
  %1 = load double, double* %arg1, align 8, !dbg !3072
  %call3 = call dereferenceable(272) %"class.std::basic_ostream"* @_ZNSolsEd(%"class.std::basic_ostream"* %call2, double %1), !dbg !3072
  %call4 = call dereferenceable(272) %"class.std::basic_ostream"* @_ZNSolsEPFRSoS_E(%"class.std::basic_ostream"* %call3, %"class.std::basic_ostream"* (%"class.std::basic_ostream"*)* @_ZSt4endlIcSt11char_traitsIcEERSt13basic_ostreamIT_T0_ES6_), !dbg !3072
  ret void, !dbg !3072
}

; Function Attrs: noinline uwtable
define weak_odr dso_local void @_ZN6dealii12GeometryInfoILi2EE17ExcInvalidSubfaceC2Eiii(%"class.dealii::GeometryInfo<2>::ExcInvalidSubface"* %this, i32 %a1, i32 %a2, i32 %a3) unnamed_addr #0 comdat($_ZN6dealii12GeometryInfoILi2EE17ExcInvalidSubfaceC5Eiii) align 2 !dbg !3073 {
entry:
  %this.addr = alloca %"class.dealii::GeometryInfo<2>::ExcInvalidSubface"*, align 8
  %a1.addr = alloca i32, align 4
  %a2.addr = alloca i32, align 4
  %a3.addr = alloca i32, align 4
  store %"class.dealii::GeometryInfo<2>::ExcInvalidSubface"* %this, %"class.dealii::GeometryInfo<2>::ExcInvalidSubface"** %this.addr, align 8
  call void @llvm.dbg.declare(metadata %"class.dealii::GeometryInfo<2>::ExcInvalidSubface"** %this.addr, metadata !3092, metadata !DIExpression()), !dbg !3094
  store i32 %a1, i32* %a1.addr, align 4
  call void @llvm.dbg.declare(metadata i32* %a1.addr, metadata !3095, metadata !DIExpression()), !dbg !3096
  store i32 %a2, i32* %a2.addr, align 4
  call void @llvm.dbg.declare(metadata i32* %a2.addr, metadata !3097, metadata !DIExpression()), !dbg !3096
  store i32 %a3, i32* %a3.addr, align 4
  call void @llvm.dbg.declare(metadata i32* %a3.addr, metadata !3098, metadata !DIExpression()), !dbg !3096
  %this1 = load %"class.dealii::GeometryInfo<2>::ExcInvalidSubface"*, %"class.dealii::GeometryInfo<2>::ExcInvalidSubface"** %this.addr, align 8
  %0 = bitcast %"class.dealii::GeometryInfo<2>::ExcInvalidSubface"* %this1 to %"class.dealii::ExceptionBase"*, !dbg !3096
  call void @_ZN6dealii13ExceptionBaseC2Ev(%"class.dealii::ExceptionBase"* %0), !dbg !3096
  %1 = bitcast %"class.dealii::GeometryInfo<2>::ExcInvalidSubface"* %this1 to i32 (...)***, !dbg !3096
  store i32 (...)** bitcast (i8** getelementptr inbounds ({ [6 x i8*] }, { [6 x i8*] }* @_ZTVN6dealii12GeometryInfoILi2EE17ExcInvalidSubfaceE, i32 0, inrange i32 0, i32 2) to i32 (...)**), i32 (...)*** %1, align 8, !dbg !3096
  %arg1 = getelementptr inbounds %"class.dealii::GeometryInfo<2>::ExcInvalidSubface", %"class.dealii::GeometryInfo<2>::ExcInvalidSubface"* %this1, i32 0, i32 1, !dbg !3096
  %2 = load i32, i32* %a1.addr, align 4, !dbg !3096
  store i32 %2, i32* %arg1, align 4, !dbg !3096
  %arg2 = getelementptr inbounds %"class.dealii::GeometryInfo<2>::ExcInvalidSubface", %"class.dealii::GeometryInfo<2>::ExcInvalidSubface"* %this1, i32 0, i32 2, !dbg !3096
  %3 = load i32, i32* %a2.addr, align 4, !dbg !3096
  store i32 %3, i32* %arg2, align 8, !dbg !3096
  %arg3 = getelementptr inbounds %"class.dealii::GeometryInfo<2>::ExcInvalidSubface", %"class.dealii::GeometryInfo<2>::ExcInvalidSubface"* %this1, i32 0, i32 3, !dbg !3096
  %4 = load i32, i32* %a3.addr, align 4, !dbg !3096
  store i32 %4, i32* %arg3, align 4, !dbg !3096
  ret void, !dbg !3096
}

; Function Attrs: noinline nounwind uwtable
define weak_odr dso_local void @_ZN6dealii12GeometryInfoILi2EE17ExcInvalidSubfaceD2Ev(%"class.dealii::GeometryInfo<2>::ExcInvalidSubface"* %this) unnamed_addr #1 comdat($_ZN6dealii12GeometryInfoILi2EE17ExcInvalidSubfaceD5Ev) align 2 !dbg !3099 {
entry:
  %this.addr = alloca %"class.dealii::GeometryInfo<2>::ExcInvalidSubface"*, align 8
  store %"class.dealii::GeometryInfo<2>::ExcInvalidSubface"* %this, %"class.dealii::GeometryInfo<2>::ExcInvalidSubface"** %this.addr, align 8
  call void @llvm.dbg.declare(metadata %"class.dealii::GeometryInfo<2>::ExcInvalidSubface"** %this.addr, metadata !3100, metadata !DIExpression()), !dbg !3101
  %this1 = load %"class.dealii::GeometryInfo<2>::ExcInvalidSubface"*, %"class.dealii::GeometryInfo<2>::ExcInvalidSubface"** %this.addr, align 8
  %0 = bitcast %"class.dealii::GeometryInfo<2>::ExcInvalidSubface"* %this1 to %"class.dealii::ExceptionBase"*, !dbg !3102
  call void @_ZN6dealii13ExceptionBaseD2Ev(%"class.dealii::ExceptionBase"* %0) #7, !dbg !3102
  ret void, !dbg !3104
}

; Function Attrs: noinline nounwind uwtable
define weak_odr dso_local void @_ZN6dealii12GeometryInfoILi2EE17ExcInvalidSubfaceD0Ev(%"class.dealii::GeometryInfo<2>::ExcInvalidSubface"* %this) unnamed_addr #1 comdat($_ZN6dealii12GeometryInfoILi2EE17ExcInvalidSubfaceD5Ev) align 2 !dbg !3105 {
entry:
  %this.addr = alloca %"class.dealii::GeometryInfo<2>::ExcInvalidSubface"*, align 8
  store %"class.dealii::GeometryInfo<2>::ExcInvalidSubface"* %this, %"class.dealii::GeometryInfo<2>::ExcInvalidSubface"** %this.addr, align 8
  call void @llvm.dbg.declare(metadata %"class.dealii::GeometryInfo<2>::ExcInvalidSubface"** %this.addr, metadata !3106, metadata !DIExpression()), !dbg !3107
  %this1 = load %"class.dealii::GeometryInfo<2>::ExcInvalidSubface"*, %"class.dealii::GeometryInfo<2>::ExcInvalidSubface"** %this.addr, align 8
  call void @_ZN6dealii12GeometryInfoILi2EE17ExcInvalidSubfaceD1Ev(%"class.dealii::GeometryInfo<2>::ExcInvalidSubface"* %this1) #7, !dbg !3108
  %0 = bitcast %"class.dealii::GeometryInfo<2>::ExcInvalidSubface"* %this1 to i8*, !dbg !3108
  call void @_ZdlPv(i8* %0) #8, !dbg !3108
  ret void, !dbg !3108
}

; Function Attrs: noinline uwtable
define weak_odr dso_local void @_ZNK6dealii12GeometryInfoILi2EE17ExcInvalidSubface10print_infoERSo(%"class.dealii::GeometryInfo<2>::ExcInvalidSubface"* %this, %"class.std::basic_ostream"* dereferenceable(272) %out) unnamed_addr #0 comdat align 2 !dbg !3109 {
entry:
  %this.addr = alloca %"class.dealii::GeometryInfo<2>::ExcInvalidSubface"*, align 8
  %out.addr = alloca %"class.std::basic_ostream"*, align 8
  store %"class.dealii::GeometryInfo<2>::ExcInvalidSubface"* %this, %"class.dealii::GeometryInfo<2>::ExcInvalidSubface"** %this.addr, align 8
  call void @llvm.dbg.declare(metadata %"class.dealii::GeometryInfo<2>::ExcInvalidSubface"** %this.addr, metadata !3110, metadata !DIExpression()), !dbg !3112
  store %"class.std::basic_ostream"* %out, %"class.std::basic_ostream"** %out.addr, align 8
  call void @llvm.dbg.declare(metadata %"class.std::basic_ostream"** %out.addr, metadata !3113, metadata !DIExpression()), !dbg !3114
  %this1 = load %"class.dealii::GeometryInfo<2>::ExcInvalidSubface"*, %"class.dealii::GeometryInfo<2>::ExcInvalidSubface"** %this.addr, align 8
  %0 = load %"class.std::basic_ostream"*, %"class.std::basic_ostream"** %out.addr, align 8, !dbg !3114
  %call = call dereferenceable(272) %"class.std::basic_ostream"* @_ZStlsISt11char_traitsIcEERSt13basic_ostreamIcT_ES5_PKc(%"class.std::basic_ostream"* dereferenceable(272) %0, i8* getelementptr inbounds ([21 x i8], [21 x i8]* @.str.2, i64 0, i64 0)), !dbg !3114
  %arg1 = getelementptr inbounds %"class.dealii::GeometryInfo<2>::ExcInvalidSubface", %"class.dealii::GeometryInfo<2>::ExcInvalidSubface"* %this1, i32 0, i32 1, !dbg !3114
  %1 = load i32, i32* %arg1, align 4, !dbg !3114
  %call2 = call dereferenceable(272) %"class.std::basic_ostream"* @_ZNSolsEi(%"class.std::basic_ostream"* %call, i32 %1), !dbg !3114
  %call3 = call dereferenceable(272) %"class.std::basic_ostream"* @_ZStlsISt11char_traitsIcEERSt13basic_ostreamIcT_ES5_PKc(%"class.std::basic_ostream"* dereferenceable(272) %call2, i8* getelementptr inbounds ([8 x i8], [8 x i8]* @.str.3, i64 0, i64 0)), !dbg !3114
  %arg2 = getelementptr inbounds %"class.dealii::GeometryInfo<2>::ExcInvalidSubface", %"class.dealii::GeometryInfo<2>::ExcInvalidSubface"* %this1, i32 0, i32 2, !dbg !3114
  %2 = load i32, i32* %arg2, align 8, !dbg !3114
  %call4 = call dereferenceable(272) %"class.std::basic_ostream"* @_ZNSolsEi(%"class.std::basic_ostream"* %call3, i32 %2), !dbg !3114
  %call5 = call dereferenceable(272) %"class.std::basic_ostream"* @_ZStlsISt11char_traitsIcEERSt13basic_ostreamIcT_ES5_PKc(%"class.std::basic_ostream"* dereferenceable(272) %call4, i8* getelementptr inbounds ([17 x i8], [17 x i8]* @.str.4, i64 0, i64 0)), !dbg !3114
  %arg3 = getelementptr inbounds %"class.dealii::GeometryInfo<2>::ExcInvalidSubface", %"class.dealii::GeometryInfo<2>::ExcInvalidSubface"* %this1, i32 0, i32 3, !dbg !3114
  %3 = load i32, i32* %arg3, align 4, !dbg !3114
  %call6 = call dereferenceable(272) %"class.std::basic_ostream"* @_ZNSolsEi(%"class.std::basic_ostream"* %call5, i32 %3), !dbg !3114
  %call7 = call dereferenceable(272) %"class.std::basic_ostream"* @_ZNSolsEPFRSoS_E(%"class.std::basic_ostream"* %call6, %"class.std::basic_ostream"* (%"class.std::basic_ostream"*)* @_ZSt4endlIcSt11char_traitsIcEERSt13basic_ostreamIT_T0_ES6_), !dbg !3114
  ret void, !dbg !3114
}

; Function Attrs: noinline uwtable
define weak_odr dso_local i32 @_ZN6dealii12GeometryInfoILi3EE10n_childrenERKNS_14RefinementCaseILi3EEE(%"class.dealii::RefinementCase.6"* dereferenceable(1) %ref_case) #0 comdat align 2 !dbg !1112 {
entry:
  %ref_case.addr = alloca %"class.dealii::RefinementCase.6"*, align 8
  store %"class.dealii::RefinementCase.6"* %ref_case, %"class.dealii::RefinementCase.6"** %ref_case.addr, align 8
  call void @llvm.dbg.declare(metadata %"class.dealii::RefinementCase.6"** %ref_case.addr, metadata !3115, metadata !DIExpression()), !dbg !3116
  %0 = load %"class.dealii::RefinementCase.6"*, %"class.dealii::RefinementCase.6"** %ref_case.addr, align 8, !dbg !3117
  %call = call zeroext i8 @_ZNK6dealii14RefinementCaseILi3EEcvhEv(%"class.dealii::RefinementCase.6"* %0), !dbg !3117
  %idxprom = zext i8 %call to i64, !dbg !3118
  %arrayidx = getelementptr inbounds [8 x i32], [8 x i32]* @_ZZN6dealii12GeometryInfoILi3EE10n_childrenERKNS_14RefinementCaseILi3EEEE10n_children, i64 0, i64 %idxprom, !dbg !3118
  %1 = load i32, i32* %arrayidx, align 4, !dbg !3118
  ret i32 %1, !dbg !3119
}

; Function Attrs: noinline nounwind uwtable
define linkonce_odr dso_local zeroext i8 @_ZNK6dealii14RefinementCaseILi3EEcvhEv(%"class.dealii::RefinementCase.6"* %this) #1 comdat align 2 !dbg !3120 {
entry:
  %this.addr = alloca %"class.dealii::RefinementCase.6"*, align 8
  store %"class.dealii::RefinementCase.6"* %this, %"class.dealii::RefinementCase.6"** %this.addr, align 8
  call void @llvm.dbg.declare(metadata %"class.dealii::RefinementCase.6"** %this.addr, metadata !3121, metadata !DIExpression()), !dbg !3123
  %this1 = load %"class.dealii::RefinementCase.6"*, %"class.dealii::RefinementCase.6"** %this.addr, align 8
  %0 = bitcast %"class.dealii::RefinementCase.6"* %this1 to i8*, !dbg !3124
  %bf.load = load i8, i8* %0, align 1, !dbg !3124
  %bf.clear = and i8 %bf.load, 7, !dbg !3124
  ret i8 %bf.clear, !dbg !3125
}

; Function Attrs: noinline uwtable
define weak_odr dso_local i32 @_ZN6dealii12GeometryInfoILi3EE21face_to_cell_verticesEjjbbb(i32 %face, i32 %vertex, i1 zeroext %face_orientation, i1 zeroext %face_flip, i1 zeroext %face_rotation) #0 comdat align 2 !dbg !3126 {
entry:
  %face.addr = alloca i32, align 4
  %vertex.addr = alloca i32, align 4
  %face_orientation.addr = alloca i8, align 1
  %face_flip.addr = alloca i8, align 1
  %face_rotation.addr = alloca i8, align 1
  %ref.tmp = alloca %"class.dealii::RefinementCase.6", align 1
  %ref.tmp5 = alloca %"class.dealii::RefinementCase.2", align 1
  store i32 %face, i32* %face.addr, align 4
  call void @llvm.dbg.declare(metadata i32* %face.addr, metadata !3127, metadata !DIExpression()), !dbg !3128
  store i32 %vertex, i32* %vertex.addr, align 4
  call void @llvm.dbg.declare(metadata i32* %vertex.addr, metadata !3129, metadata !DIExpression()), !dbg !3130
  %frombool = zext i1 %face_orientation to i8
  store i8 %frombool, i8* %face_orientation.addr, align 1
  call void @llvm.dbg.declare(metadata i8* %face_orientation.addr, metadata !3131, metadata !DIExpression()), !dbg !3132
  %frombool1 = zext i1 %face_flip to i8
  store i8 %frombool1, i8* %face_flip.addr, align 1
  call void @llvm.dbg.declare(metadata i8* %face_flip.addr, metadata !3133, metadata !DIExpression()), !dbg !3134
  %frombool2 = zext i1 %face_rotation to i8
  store i8 %frombool2, i8* %face_rotation.addr, align 1
  call void @llvm.dbg.declare(metadata i8* %face_rotation.addr, metadata !3135, metadata !DIExpression()), !dbg !3136
  call void @_ZN6dealii14RefinementCaseILi3EEC2ENS_23RefinementPossibilitiesILi3EE13PossibilitiesE(%"class.dealii::RefinementCase.6"* %ref.tmp, i32 7), !dbg !3137
  %0 = load i32, i32* %face.addr, align 4, !dbg !3138
  %1 = load i32, i32* %vertex.addr, align 4, !dbg !3139
  %2 = load i8, i8* %face_orientation.addr, align 1, !dbg !3140
  %tobool = trunc i8 %2 to i1, !dbg !3140
  %3 = load i8, i8* %face_flip.addr, align 1, !dbg !3141
  %tobool3 = trunc i8 %3 to i1, !dbg !3141
  %4 = load i8, i8* %face_rotation.addr, align 1, !dbg !3142
  %tobool4 = trunc i8 %4 to i1, !dbg !3142
  call void @_ZN6dealii14RefinementCaseILi2EEC2ENS_23RefinementPossibilitiesILi2EE13PossibilitiesE(%"class.dealii::RefinementCase.2"* %ref.tmp5, i32 3), !dbg !3143
  %call = call i32 @_ZN6dealii12GeometryInfoILi3EE18child_cell_on_faceERKNS_14RefinementCaseILi3EEEjjbbbRKNS2_ILi2EEE(%"class.dealii::RefinementCase.6"* dereferenceable(1) %ref.tmp, i32 %0, i32 %1, i1 zeroext %tobool, i1 zeroext %tobool3, i1 zeroext %tobool4, %"class.dealii::RefinementCase.2"* dereferenceable(1) %ref.tmp5), !dbg !3143
  ret i32 %call, !dbg !3144
}

; Function Attrs: noinline uwtable
define dso_local i32 @_ZN6dealii12GeometryInfoILi3EE18child_cell_on_faceERKNS_14RefinementCaseILi3EEEjjbbbRKNS2_ILi2EEE(%"class.dealii::RefinementCase.6"* dereferenceable(1) %ref_case, i32 %face, i32 %subface, i1 zeroext %face_orientation, i1 zeroext %face_flip, i1 zeroext %face_rotation, %"class.dealii::RefinementCase.2"* dereferenceable(1) %face_ref_case) #0 align 2 personality i8* bitcast (i32 (...)* @__gxx_personality_v0 to i8*) !dbg !1254 {
entry:
  %retval = alloca i32, align 4
  %ref_case.addr = alloca %"class.dealii::RefinementCase.6"*, align 8
  %face.addr = alloca i32, align 4
  %subface.addr = alloca i32, align 4
  %face_orientation.addr = alloca i8, align 1
  %face_flip.addr = alloca i8, align 1
  %face_rotation.addr = alloca i8, align 1
  %face_ref_case.addr = alloca %"class.dealii::RefinementCase.2"*, align 8
  %dim = alloca i32, align 4
  %exn.slot = alloca i8*
  %ehselector.slot = alloca i32
  %std_face_ref = alloca %"class.dealii::RefinementCase.2", align 1
  %std_subface = alloca i32, align 4
  %ref.tmp = alloca %"class.dealii::RefinementCase.2", align 1
  %ref.tmp23 = alloca %"class.dealii::RefinementCase.2", align 1
  %ref.tmp29 = alloca %"class.dealii::RefinementCase.2", align 1
  %equ_std_subface = alloca i32, align 4
  store %"class.dealii::RefinementCase.6"* %ref_case, %"class.dealii::RefinementCase.6"** %ref_case.addr, align 8
  call void @llvm.dbg.declare(metadata %"class.dealii::RefinementCase.6"** %ref_case.addr, metadata !3145, metadata !DIExpression()), !dbg !3146
  store i32 %face, i32* %face.addr, align 4
  call void @llvm.dbg.declare(metadata i32* %face.addr, metadata !3147, metadata !DIExpression()), !dbg !3148
  store i32 %subface, i32* %subface.addr, align 4
  call void @llvm.dbg.declare(metadata i32* %subface.addr, metadata !3149, metadata !DIExpression()), !dbg !3150
  %frombool = zext i1 %face_orientation to i8
  store i8 %frombool, i8* %face_orientation.addr, align 1
  call void @llvm.dbg.declare(metadata i8* %face_orientation.addr, metadata !3151, metadata !DIExpression()), !dbg !3152
  %frombool1 = zext i1 %face_flip to i8
  store i8 %frombool1, i8* %face_flip.addr, align 1
  call void @llvm.dbg.declare(metadata i8* %face_flip.addr, metadata !3153, metadata !DIExpression()), !dbg !3154
  %frombool2 = zext i1 %face_rotation to i8
  store i8 %frombool2, i8* %face_rotation.addr, align 1
  call void @llvm.dbg.declare(metadata i8* %face_rotation.addr, metadata !3155, metadata !DIExpression()), !dbg !3156
  store %"class.dealii::RefinementCase.2"* %face_ref_case, %"class.dealii::RefinementCase.2"** %face_ref_case.addr, align 8
  call void @llvm.dbg.declare(metadata %"class.dealii::RefinementCase.2"** %face_ref_case.addr, metadata !3157, metadata !DIExpression()), !dbg !3158
  call void @llvm.dbg.declare(metadata i32* %dim, metadata !3159, metadata !DIExpression()), !dbg !3160
  store i32 3, i32* %dim, align 4, !dbg !3160
  %0 = load atomic i8, i8* bitcast (i64* @_ZGVZN6dealii12GeometryInfoILi3EE18child_cell_on_faceERKNS_14RefinementCaseILi3EEEjjbbbRKNS2_ILi2EEEE4flip to i8*) acquire, align 8, !dbg !3161
  %guard.uninitialized = icmp eq i8 %0, 0, !dbg !3161
  br i1 %guard.uninitialized, label %init.check, label %init.end, !dbg !3161, !prof !3162

init.check:                                       ; preds = %entry
  %1 = call i32 @__cxa_guard_acquire(i64* @_ZGVZN6dealii12GeometryInfoILi3EE18child_cell_on_faceERKNS_14RefinementCaseILi3EEEjjbbbRKNS2_ILi2EEEE4flip) #7, !dbg !3161
  %tobool = icmp ne i32 %1, 0, !dbg !3161
  br i1 %tobool, label %init, label %init.end, !dbg !3161

init:                                             ; preds = %init.check
  invoke void @_ZN6dealii14RefinementCaseILi2EEC2ENS_23RefinementPossibilitiesILi2EE13PossibilitiesE(%"class.dealii::RefinementCase.2"* getelementptr inbounds ([4 x %"class.dealii::RefinementCase.2"], [4 x %"class.dealii::RefinementCase.2"]* @_ZZN6dealii12GeometryInfoILi3EE18child_cell_on_faceERKNS_14RefinementCaseILi3EEEjjbbbRKNS2_ILi2EEEE4flip, i64 0, i64 0), i32 0)
          to label %invoke.cont unwind label %lpad, !dbg !3163

invoke.cont:                                      ; preds = %init
  invoke void @_ZN6dealii14RefinementCaseILi2EEC2ENS_23RefinementPossibilitiesILi2EE13PossibilitiesE(%"class.dealii::RefinementCase.2"* getelementptr inbounds ([4 x %"class.dealii::RefinementCase.2"], [4 x %"class.dealii::RefinementCase.2"]* @_ZZN6dealii12GeometryInfoILi3EE18child_cell_on_faceERKNS_14RefinementCaseILi3EEEjjbbbRKNS2_ILi2EEEE4flip, i64 0, i64 1), i32 2)
          to label %invoke.cont3 unwind label %lpad, !dbg !3164

invoke.cont3:                                     ; preds = %invoke.cont
  invoke void @_ZN6dealii14RefinementCaseILi2EEC2ENS_23RefinementPossibilitiesILi2EE13PossibilitiesE(%"class.dealii::RefinementCase.2"* getelementptr inbounds ([4 x %"class.dealii::RefinementCase.2"], [4 x %"class.dealii::RefinementCase.2"]* @_ZZN6dealii12GeometryInfoILi3EE18child_cell_on_faceERKNS_14RefinementCaseILi3EEEjjbbbRKNS2_ILi2EEEE4flip, i64 0, i64 2), i32 1)
          to label %invoke.cont4 unwind label %lpad, !dbg !3165

invoke.cont4:                                     ; preds = %invoke.cont3
  invoke void @_ZN6dealii14RefinementCaseILi2EEC2ENS_23RefinementPossibilitiesILi2EE13PossibilitiesE(%"class.dealii::RefinementCase.2"* getelementptr inbounds ([4 x %"class.dealii::RefinementCase.2"], [4 x %"class.dealii::RefinementCase.2"]* @_ZZN6dealii12GeometryInfoILi3EE18child_cell_on_faceERKNS_14RefinementCaseILi3EEEjjbbbRKNS2_ILi2EEEE4flip, i64 0, i64 3), i32 3)
          to label %invoke.cont5 unwind label %lpad, !dbg !3166

invoke.cont5:                                     ; preds = %invoke.cont4
  call void @__cxa_guard_release(i64* @_ZGVZN6dealii12GeometryInfoILi3EE18child_cell_on_faceERKNS_14RefinementCaseILi3EEEjjbbbRKNS2_ILi2EEEE4flip) #7, !dbg !3161
  br label %init.end, !dbg !3161

init.end:                                         ; preds = %invoke.cont5, %init.check, %entry
  call void @llvm.dbg.declare(metadata %"class.dealii::RefinementCase.2"* %std_face_ref, metadata !3167, metadata !DIExpression()), !dbg !3168
  %2 = load i8, i8* %face_orientation.addr, align 1, !dbg !3169
  %tobool6 = trunc i8 %2 to i1, !dbg !3169
  %conv = zext i1 %tobool6 to i32, !dbg !3169
  %3 = load i8, i8* %face_rotation.addr, align 1, !dbg !3170
  %tobool7 = trunc i8 %3 to i1, !dbg !3170
  %conv8 = zext i1 %tobool7 to i32, !dbg !3170
  %cmp = icmp eq i32 %conv, %conv8, !dbg !3171
  br i1 %cmp, label %cond.true, label %cond.false, !dbg !3172

cond.true:                                        ; preds = %init.end
  %4 = load %"class.dealii::RefinementCase.2"*, %"class.dealii::RefinementCase.2"** %face_ref_case.addr, align 8, !dbg !3173
  %call = call zeroext i8 @_ZNK6dealii14RefinementCaseILi2EEcvhEv(%"class.dealii::RefinementCase.2"* %4), !dbg !3173
  %idxprom = zext i8 %call to i64, !dbg !3174
  %arrayidx = getelementptr inbounds [4 x %"class.dealii::RefinementCase.2"], [4 x %"class.dealii::RefinementCase.2"]* @_ZZN6dealii12GeometryInfoILi3EE18child_cell_on_faceERKNS_14RefinementCaseILi3EEEjjbbbRKNS2_ILi2EEEE4flip, i64 0, i64 %idxprom, !dbg !3174
  br label %cond.end, !dbg !3172

cond.false:                                       ; preds = %init.end
  %5 = load %"class.dealii::RefinementCase.2"*, %"class.dealii::RefinementCase.2"** %face_ref_case.addr, align 8, !dbg !3175
  br label %cond.end, !dbg !3172

cond.end:                                         ; preds = %cond.false, %cond.true
  %cond-lvalue = phi %"class.dealii::RefinementCase.2"* [ %arrayidx, %cond.true ], [ %5, %cond.false ], !dbg !3172
  %6 = bitcast %"class.dealii::RefinementCase.2"* %std_face_ref to i8*, !dbg !3172
  %7 = bitcast %"class.dealii::RefinementCase.2"* %cond-lvalue to i8*, !dbg !3172
  call void @llvm.memcpy.p0i8.p0i8.i64(i8* align 1 %6, i8* align 1 %7, i64 1, i1 false), !dbg !3172
  call void @llvm.dbg.declare(metadata i32* %std_subface, metadata !3176, metadata !DIExpression()), !dbg !3177
  %8 = load %"class.dealii::RefinementCase.2"*, %"class.dealii::RefinementCase.2"** %face_ref_case.addr, align 8, !dbg !3178
  %call9 = call zeroext i8 @_ZNK6dealii14RefinementCaseILi2EEcvhEv(%"class.dealii::RefinementCase.2"* %8), !dbg !3178
  %idxprom10 = zext i8 %call9 to i64, !dbg !3179
  %arrayidx11 = getelementptr inbounds [4 x [2 x [2 x [2 x [4 x i32]]]]], [4 x [2 x [2 x [2 x [4 x i32]]]]]* @_ZZN6dealii12GeometryInfoILi3EE18child_cell_on_faceERKNS_14RefinementCaseILi3EEEjjbbbRKNS2_ILi2EEEE16subface_exchange, i64 0, i64 %idxprom10, !dbg !3179
  %9 = load i8, i8* %face_orientation.addr, align 1, !dbg !3180
  %tobool12 = trunc i8 %9 to i1, !dbg !3180
  %idxprom13 = zext i1 %tobool12 to i64, !dbg !3179
  %arrayidx14 = getelementptr inbounds [2 x [2 x [2 x [4 x i32]]]], [2 x [2 x [2 x [4 x i32]]]]* %arrayidx11, i64 0, i64 %idxprom13, !dbg !3179
  %10 = load i8, i8* %face_flip.addr, align 1, !dbg !3181
  %tobool15 = trunc i8 %10 to i1, !dbg !3181
  %idxprom16 = zext i1 %tobool15 to i64, !dbg !3179
  %arrayidx17 = getelementptr inbounds [2 x [2 x [4 x i32]]], [2 x [2 x [4 x i32]]]* %arrayidx14, i64 0, i64 %idxprom16, !dbg !3179
  %11 = load i8, i8* %face_rotation.addr, align 1, !dbg !3182
  %tobool18 = trunc i8 %11 to i1, !dbg !3182
  %idxprom19 = zext i1 %tobool18 to i64, !dbg !3179
  %arrayidx20 = getelementptr inbounds [2 x [4 x i32]], [2 x [4 x i32]]* %arrayidx17, i64 0, i64 %idxprom19, !dbg !3179
  %12 = load i32, i32* %subface.addr, align 4, !dbg !3183
  %idxprom21 = zext i32 %12 to i64, !dbg !3179
  %arrayidx22 = getelementptr inbounds [4 x i32], [4 x i32]* %arrayidx20, i64 0, i64 %idxprom21, !dbg !3179
  %13 = load i32, i32* %arrayidx22, align 4, !dbg !3179
  store i32 %13, i32* %std_subface, align 4, !dbg !3177
  %14 = load %"class.dealii::RefinementCase.6"*, %"class.dealii::RefinementCase.6"** %ref_case.addr, align 8, !dbg !3184
  %15 = load i32, i32* %face.addr, align 4, !dbg !3186
  %call24 = call i8 @_ZN6dealii12GeometryInfoILi3EE20face_refinement_caseERKNS_14RefinementCaseILi3EEEjbbb(%"class.dealii::RefinementCase.6"* dereferenceable(1) %14, i32 %15, i1 zeroext true, i1 zeroext false, i1 zeroext false), !dbg !3187
  %coerce.dive = getelementptr inbounds %"class.dealii::RefinementCase.2", %"class.dealii::RefinementCase.2"* %ref.tmp23, i32 0, i32 0, !dbg !3187
  store i8 %call24, i8* %coerce.dive, align 1, !dbg !3187
  %call25 = call i8 @_ZNK6dealii14RefinementCaseILi2EEanERKS1_(%"class.dealii::RefinementCase.2"* %std_face_ref, %"class.dealii::RefinementCase.2"* dereferenceable(1) %ref.tmp23), !dbg !3188
  %coerce.dive26 = getelementptr inbounds %"class.dealii::RefinementCase.2", %"class.dealii::RefinementCase.2"* %ref.tmp, i32 0, i32 0, !dbg !3188
  store i8 %call25, i8* %coerce.dive26, align 1, !dbg !3188
  %call27 = call zeroext i8 @_ZNK6dealii14RefinementCaseILi2EEcvhEv(%"class.dealii::RefinementCase.2"* %ref.tmp), !dbg !3189
  %conv28 = zext i8 %call27 to i32, !dbg !3189
  %16 = load %"class.dealii::RefinementCase.6"*, %"class.dealii::RefinementCase.6"** %ref_case.addr, align 8, !dbg !3190
  %17 = load i32, i32* %face.addr, align 4, !dbg !3191
  %call30 = call i8 @_ZN6dealii12GeometryInfoILi3EE20face_refinement_caseERKNS_14RefinementCaseILi3EEEjbbb(%"class.dealii::RefinementCase.6"* dereferenceable(1) %16, i32 %17, i1 zeroext true, i1 zeroext false, i1 zeroext false), !dbg !3192
  %coerce.dive31 = getelementptr inbounds %"class.dealii::RefinementCase.2", %"class.dealii::RefinementCase.2"* %ref.tmp29, i32 0, i32 0, !dbg !3192
  store i8 %call30, i8* %coerce.dive31, align 1, !dbg !3192
  %call32 = call zeroext i8 @_ZNK6dealii14RefinementCaseILi2EEcvhEv(%"class.dealii::RefinementCase.2"* %ref.tmp29), !dbg !3192
  %conv33 = zext i8 %call32 to i32, !dbg !3192
  %cmp34 = icmp eq i32 %conv28, %conv33, !dbg !3193
  br i1 %cmp34, label %if.then, label %if.else, !dbg !3194

if.then:                                          ; preds = %cond.end
  call void @llvm.dbg.declare(metadata i32* %equ_std_subface, metadata !3195, metadata !DIExpression()), !dbg !3197
  %call35 = call zeroext i8 @_ZNK6dealii14RefinementCaseILi2EEcvhEv(%"class.dealii::RefinementCase.2"* %std_face_ref), !dbg !3198
  %idxprom36 = zext i8 %call35 to i64, !dbg !3199
  %arrayidx37 = getelementptr inbounds [4 x [4 x i32]], [4 x [4 x i32]]* @_ZZN6dealii12GeometryInfoILi3EE18child_cell_on_faceERKNS_14RefinementCaseILi3EEEjjbbbRKNS2_ILi2EEEE22equivalent_iso_subface, i64 0, i64 %idxprom36, !dbg !3199
  %18 = load i32, i32* %std_subface, align 4, !dbg !3200
  %idxprom38 = zext i32 %18 to i64, !dbg !3199
  %arrayidx39 = getelementptr inbounds [4 x i32], [4 x i32]* %arrayidx37, i64 0, i64 %idxprom38, !dbg !3199
  %19 = load i32, i32* %arrayidx39, align 4, !dbg !3199
  store i32 %19, i32* %equ_std_subface, align 4, !dbg !3197
  %20 = load %"class.dealii::RefinementCase.6"*, %"class.dealii::RefinementCase.6"** %ref_case.addr, align 8, !dbg !3201
  %call40 = call zeroext i8 @_ZNK6dealii14RefinementCaseILi3EEcvhEv(%"class.dealii::RefinementCase.6"* %20), !dbg !3201
  %conv41 = zext i8 %call40 to i32, !dbg !3201
  %sub = sub nsw i32 %conv41, 1, !dbg !3202
  %idxprom42 = sext i32 %sub to i64, !dbg !3203
  %arrayidx43 = getelementptr inbounds [7 x [6 x [4 x i32]]], [7 x [6 x [4 x i32]]]* @_ZZN6dealii12GeometryInfoILi3EE18child_cell_on_faceERKNS_14RefinementCaseILi3EEEjjbbbRKNS2_ILi2EEEE12iso_children, i64 0, i64 %idxprom42, !dbg !3203
  %21 = load i32, i32* %face.addr, align 4, !dbg !3204
  %idxprom44 = zext i32 %21 to i64, !dbg !3203
  %arrayidx45 = getelementptr inbounds [6 x [4 x i32]], [6 x [4 x i32]]* %arrayidx43, i64 0, i64 %idxprom44, !dbg !3203
  %22 = load i32, i32* %equ_std_subface, align 4, !dbg !3205
  %idxprom46 = zext i32 %22 to i64, !dbg !3203
  %arrayidx47 = getelementptr inbounds [4 x i32], [4 x i32]* %arrayidx45, i64 0, i64 %idxprom46, !dbg !3203
  %23 = load i32, i32* %arrayidx47, align 4, !dbg !3203
  store i32 %23, i32* %retval, align 4, !dbg !3206
  br label %return, !dbg !3206

lpad:                                             ; preds = %invoke.cont4, %invoke.cont3, %invoke.cont, %init
  %24 = landingpad { i8*, i32 }
          cleanup, !dbg !3207
  %25 = extractvalue { i8*, i32 } %24, 0, !dbg !3207
  store i8* %25, i8** %exn.slot, align 8, !dbg !3207
  %26 = extractvalue { i8*, i32 } %24, 1, !dbg !3207
  store i32 %26, i32* %ehselector.slot, align 4, !dbg !3207
  call void @__cxa_guard_abort(i64* @_ZGVZN6dealii12GeometryInfoILi3EE18child_cell_on_faceERKNS_14RefinementCaseILi3EEEjjbbbRKNS2_ILi2EEEE4flip) #7, !dbg !3161
  br label %eh.resume, !dbg !3161

if.else:                                          ; preds = %cond.end
  br label %if.end

if.end:                                           ; preds = %if.else
  store i32 -1, i32* %retval, align 4, !dbg !3208
  br label %return, !dbg !3208

return:                                           ; preds = %if.end, %if.then
  %27 = load i32, i32* %retval, align 4, !dbg !3207
  ret i32 %27, !dbg !3207

eh.resume:                                        ; preds = %lpad
  %exn = load i8*, i8** %exn.slot, align 8, !dbg !3161
  %sel = load i32, i32* %ehselector.slot, align 4, !dbg !3161
  %lpad.val = insertvalue { i8*, i32 } undef, i8* %exn, 0, !dbg !3161
  %lpad.val48 = insertvalue { i8*, i32 } %lpad.val, i32 %sel, 1, !dbg !3161
  resume { i8*, i32 } %lpad.val48, !dbg !3161
}

; Function Attrs: noinline nounwind uwtable
define linkonce_odr dso_local void @_ZN6dealii14RefinementCaseILi3EEC2ENS_23RefinementPossibilitiesILi3EE13PossibilitiesE(%"class.dealii::RefinementCase.6"* %this, i32 %refinement_case) unnamed_addr #1 comdat align 2 !dbg !3209 {
entry:
  %this.addr = alloca %"class.dealii::RefinementCase.6"*, align 8
  %refinement_case.addr = alloca i32, align 4
  store %"class.dealii::RefinementCase.6"* %this, %"class.dealii::RefinementCase.6"** %this.addr, align 8
  call void @llvm.dbg.declare(metadata %"class.dealii::RefinementCase.6"** %this.addr, metadata !3210, metadata !DIExpression()), !dbg !3212
  store i32 %refinement_case, i32* %refinement_case.addr, align 4
  call void @llvm.dbg.declare(metadata i32* %refinement_case.addr, metadata !3213, metadata !DIExpression()), !dbg !3214
  %this1 = load %"class.dealii::RefinementCase.6"*, %"class.dealii::RefinementCase.6"** %this.addr, align 8
  %0 = bitcast %"class.dealii::RefinementCase.6"* %this1 to %"struct.dealii::RefinementPossibilities.7"*, !dbg !3215
  %1 = bitcast %"class.dealii::RefinementCase.6"* %this1 to i8*, !dbg !3216
  %2 = load i32, i32* %refinement_case.addr, align 4, !dbg !3217
  %conv = trunc i32 %2 to i8, !dbg !3217
  %bf.load = load i8, i8* %1, align 1, !dbg !3216
  %bf.value = and i8 %conv, 7, !dbg !3216
  %bf.clear = and i8 %bf.load, -8, !dbg !3216
  %bf.set = or i8 %bf.clear, %bf.value, !dbg !3216
  store i8 %bf.set, i8* %1, align 1, !dbg !3216
  ret void, !dbg !3218
}

; Function Attrs: noinline uwtable
define weak_odr dso_local void @_ZN6dealii12GeometryInfoILi3EE20project_to_unit_cellERKNS_5PointILi3EEE(%"class.dealii::Point.10"* noalias sret %agg.result, %"class.dealii::Point.10"* dereferenceable(24) %q) #0 comdat align 2 !dbg !3219 {
entry:
  %result.ptr = alloca i8*, align 8
  %q.addr = alloca %"class.dealii::Point.10"*, align 8
  %i = alloca i32, align 4
  %0 = bitcast %"class.dealii::Point.10"* %agg.result to i8*
  store i8* %0, i8** %result.ptr, align 8
  store %"class.dealii::Point.10"* %q, %"class.dealii::Point.10"** %q.addr, align 8
  call void @llvm.dbg.declare(metadata %"class.dealii::Point.10"** %q.addr, metadata !3220, metadata !DIExpression()), !dbg !3221
  call void @llvm.dbg.declare(metadata i8** %result.ptr, metadata !3222, metadata !DIExpression(DW_OP_deref)), !dbg !3223
  %1 = load %"class.dealii::Point.10"*, %"class.dealii::Point.10"** %q.addr, align 8, !dbg !3224
  call void @_ZN6dealii5PointILi3EEC2ERKS1_(%"class.dealii::Point.10"* %agg.result, %"class.dealii::Point.10"* dereferenceable(24) %1), !dbg !3224
  call void @llvm.dbg.declare(metadata i32* %i, metadata !3225, metadata !DIExpression()), !dbg !3227
  store i32 0, i32* %i, align 4, !dbg !3227
  br label %for.cond, !dbg !3228

for.cond:                                         ; preds = %for.inc, %entry
  %2 = load i32, i32* %i, align 4, !dbg !3229
  %cmp = icmp ult i32 %2, 3, !dbg !3231
  br i1 %cmp, label %for.body, label %for.end, !dbg !3232

for.body:                                         ; preds = %for.cond
  %3 = bitcast %"class.dealii::Point.10"* %agg.result to %"class.dealii::Tensor.11"*, !dbg !3233
  %4 = load i32, i32* %i, align 4, !dbg !3235
  %call = call dereferenceable(8) double* @_ZN6dealii6TensorILi1ELi3EEixEj(%"class.dealii::Tensor.11"* %3, i32 %4), !dbg !3233
  %5 = load double, double* %call, align 8, !dbg !3233
  %cmp1 = fcmp olt double %5, 0.000000e+00, !dbg !3236
  br i1 %cmp1, label %if.then, label %if.else, !dbg !3237

if.then:                                          ; preds = %for.body
  %6 = bitcast %"class.dealii::Point.10"* %agg.result to %"class.dealii::Tensor.11"*, !dbg !3238
  %7 = load i32, i32* %i, align 4, !dbg !3239
  %call2 = call dereferenceable(8) double* @_ZN6dealii6TensorILi1ELi3EEixEj(%"class.dealii::Tensor.11"* %6, i32 %7), !dbg !3238
  store double 0.000000e+00, double* %call2, align 8, !dbg !3240
  br label %if.end7, !dbg !3238

if.else:                                          ; preds = %for.body
  %8 = bitcast %"class.dealii::Point.10"* %agg.result to %"class.dealii::Tensor.11"*, !dbg !3241
  %9 = load i32, i32* %i, align 4, !dbg !3243
  %call3 = call dereferenceable(8) double* @_ZN6dealii6TensorILi1ELi3EEixEj(%"class.dealii::Tensor.11"* %8, i32 %9), !dbg !3241
  %10 = load double, double* %call3, align 8, !dbg !3241
  %cmp4 = fcmp ogt double %10, 1.000000e+00, !dbg !3244
  br i1 %cmp4, label %if.then5, label %if.end, !dbg !3245

if.then5:                                         ; preds = %if.else
  %11 = bitcast %"class.dealii::Point.10"* %agg.result to %"class.dealii::Tensor.11"*, !dbg !3246
  %12 = load i32, i32* %i, align 4, !dbg !3247
  %call6 = call dereferenceable(8) double* @_ZN6dealii6TensorILi1ELi3EEixEj(%"class.dealii::Tensor.11"* %11, i32 %12), !dbg !3246
  store double 1.000000e+00, double* %call6, align 8, !dbg !3248
  br label %if.end, !dbg !3246

if.end:                                           ; preds = %if.then5, %if.else
  br label %if.end7

if.end7:                                          ; preds = %if.end, %if.then
  br label %for.inc, !dbg !3249

for.inc:                                          ; preds = %if.end7
  %13 = load i32, i32* %i, align 4, !dbg !3250
  %inc = add i32 %13, 1, !dbg !3250
  store i32 %inc, i32* %i, align 4, !dbg !3250
  br label %for.cond, !dbg !3251, !llvm.loop !3252

for.end:                                          ; preds = %for.cond
  ret void, !dbg !3254
}

; Function Attrs: noinline uwtable
define linkonce_odr dso_local void @_ZN6dealii5PointILi3EEC2ERKS1_(%"class.dealii::Point.10"* %this, %"class.dealii::Point.10"* dereferenceable(24) %0) unnamed_addr #0 comdat align 2 !dbg !3255 {
entry:
  %this.addr = alloca %"class.dealii::Point.10"*, align 8
  %.addr = alloca %"class.dealii::Point.10"*, align 8
  store %"class.dealii::Point.10"* %this, %"class.dealii::Point.10"** %this.addr, align 8
  call void @llvm.dbg.declare(metadata %"class.dealii::Point.10"** %this.addr, metadata !3259, metadata !DIExpression()), !dbg !3261
  store %"class.dealii::Point.10"* %0, %"class.dealii::Point.10"** %.addr, align 8
  call void @llvm.dbg.declare(metadata %"class.dealii::Point.10"** %.addr, metadata !3262, metadata !DIExpression()), !dbg !3261
  %this1 = load %"class.dealii::Point.10"*, %"class.dealii::Point.10"** %this.addr, align 8
  %1 = bitcast %"class.dealii::Point.10"* %this1 to %"class.dealii::Tensor.11"*, !dbg !3263
  %2 = load %"class.dealii::Point.10"*, %"class.dealii::Point.10"** %.addr, align 8, !dbg !3263
  %3 = bitcast %"class.dealii::Point.10"* %2 to %"class.dealii::Tensor.11"*, !dbg !3263
  call void @_ZN6dealii6TensorILi1ELi3EEC2ERKS1_(%"class.dealii::Tensor.11"* %1, %"class.dealii::Tensor.11"* dereferenceable(24) %3), !dbg !3263
  ret void, !dbg !3263
}

; Function Attrs: noinline nounwind uwtable
define linkonce_odr dso_local dereferenceable(8) double* @_ZN6dealii6TensorILi1ELi3EEixEj(%"class.dealii::Tensor.11"* %this, i32 %index) #1 comdat align 2 !dbg !3264 {
entry:
  %this.addr = alloca %"class.dealii::Tensor.11"*, align 8
  %index.addr = alloca i32, align 4
  store %"class.dealii::Tensor.11"* %this, %"class.dealii::Tensor.11"** %this.addr, align 8
  call void @llvm.dbg.declare(metadata %"class.dealii::Tensor.11"** %this.addr, metadata !3265, metadata !DIExpression()), !dbg !3267
  store i32 %index, i32* %index.addr, align 4
  call void @llvm.dbg.declare(metadata i32* %index.addr, metadata !3268, metadata !DIExpression()), !dbg !3269
  %this1 = load %"class.dealii::Tensor.11"*, %"class.dealii::Tensor.11"** %this.addr, align 8
  %values = getelementptr inbounds %"class.dealii::Tensor.11", %"class.dealii::Tensor.11"* %this1, i32 0, i32 0, !dbg !3270
  %0 = load i32, i32* %index.addr, align 4, !dbg !3271
  %idxprom = zext i32 %0 to i64, !dbg !3270
  %arrayidx = getelementptr inbounds [3 x double], [3 x double]* %values, i64 0, i64 %idxprom, !dbg !3270
  ret double* %arrayidx, !dbg !3272
}

; Function Attrs: noinline uwtable
define weak_odr dso_local double @_ZN6dealii12GeometryInfoILi3EE21distance_to_unit_cellERKNS_5PointILi3EEE(%"class.dealii::Point.10"* dereferenceable(24) %p) #0 comdat align 2 !dbg !3273 {
entry:
  %p.addr = alloca %"class.dealii::Point.10"*, align 8
  %result = alloca double, align 8
  %i = alloca i32, align 4
  store %"class.dealii::Point.10"* %p, %"class.dealii::Point.10"** %p.addr, align 8
  call void @llvm.dbg.declare(metadata %"class.dealii::Point.10"** %p.addr, metadata !3274, metadata !DIExpression()), !dbg !3275
  call void @llvm.dbg.declare(metadata double* %result, metadata !3276, metadata !DIExpression()), !dbg !3277
  store double 0.000000e+00, double* %result, align 8, !dbg !3277
  call void @llvm.dbg.declare(metadata i32* %i, metadata !3278, metadata !DIExpression()), !dbg !3280
  store i32 0, i32* %i, align 4, !dbg !3280
  br label %for.cond, !dbg !3281

for.cond:                                         ; preds = %for.inc, %entry
  %0 = load i32, i32* %i, align 4, !dbg !3282
  %cmp = icmp ult i32 %0, 3, !dbg !3284
  br i1 %cmp, label %for.body, label %for.end, !dbg !3285

for.body:                                         ; preds = %for.cond
  %1 = load %"class.dealii::Point.10"*, %"class.dealii::Point.10"** %p.addr, align 8, !dbg !3286
  %2 = bitcast %"class.dealii::Point.10"* %1 to %"class.dealii::Tensor.11"*, !dbg !3286
  %3 = load i32, i32* %i, align 4, !dbg !3288
  %call = call double @_ZNK6dealii6TensorILi1ELi3EEixEj(%"class.dealii::Tensor.11"* %2, i32 %3), !dbg !3286
  %fneg = fneg double %call, !dbg !3289
  %4 = load double, double* %result, align 8, !dbg !3290
  %cmp1 = fcmp ogt double %fneg, %4, !dbg !3291
  br i1 %cmp1, label %if.then, label %if.else, !dbg !3292

if.then:                                          ; preds = %for.body
  %5 = load %"class.dealii::Point.10"*, %"class.dealii::Point.10"** %p.addr, align 8, !dbg !3293
  %6 = bitcast %"class.dealii::Point.10"* %5 to %"class.dealii::Tensor.11"*, !dbg !3293
  %7 = load i32, i32* %i, align 4, !dbg !3294
  %call2 = call double @_ZNK6dealii6TensorILi1ELi3EEixEj(%"class.dealii::Tensor.11"* %6, i32 %7), !dbg !3293
  %fneg3 = fneg double %call2, !dbg !3295
  store double %fneg3, double* %result, align 8, !dbg !3296
  br label %if.end9, !dbg !3297

if.else:                                          ; preds = %for.body
  %8 = load %"class.dealii::Point.10"*, %"class.dealii::Point.10"** %p.addr, align 8, !dbg !3298
  %9 = bitcast %"class.dealii::Point.10"* %8 to %"class.dealii::Tensor.11"*, !dbg !3298
  %10 = load i32, i32* %i, align 4, !dbg !3300
  %call4 = call double @_ZNK6dealii6TensorILi1ELi3EEixEj(%"class.dealii::Tensor.11"* %9, i32 %10), !dbg !3298
  %sub = fsub double %call4, 1.000000e+00, !dbg !3301
  %11 = load double, double* %result, align 8, !dbg !3302
  %cmp5 = fcmp ogt double %sub, %11, !dbg !3303
  br i1 %cmp5, label %if.then6, label %if.end, !dbg !3304

if.then6:                                         ; preds = %if.else
  %12 = load %"class.dealii::Point.10"*, %"class.dealii::Point.10"** %p.addr, align 8, !dbg !3305
  %13 = bitcast %"class.dealii::Point.10"* %12 to %"class.dealii::Tensor.11"*, !dbg !3305
  %14 = load i32, i32* %i, align 4, !dbg !3306
  %call7 = call double @_ZNK6dealii6TensorILi1ELi3EEixEj(%"class.dealii::Tensor.11"* %13, i32 %14), !dbg !3305
  %sub8 = fsub double %call7, 1.000000e+00, !dbg !3307
  store double %sub8, double* %result, align 8, !dbg !3308
  br label %if.end, !dbg !3309

if.end:                                           ; preds = %if.then6, %if.else
  br label %if.end9

if.end9:                                          ; preds = %if.end, %if.then
  br label %for.inc, !dbg !3290

for.inc:                                          ; preds = %if.end9
  %15 = load i32, i32* %i, align 4, !dbg !3310
  %inc = add i32 %15, 1, !dbg !3310
  store i32 %inc, i32* %i, align 4, !dbg !3310
  br label %for.cond, !dbg !3311, !llvm.loop !3312

for.end:                                          ; preds = %for.cond
  %16 = load double, double* %result, align 8, !dbg !3314
  ret double %16, !dbg !3315
}

; Function Attrs: noinline nounwind uwtable
define linkonce_odr dso_local double @_ZNK6dealii6TensorILi1ELi3EEixEj(%"class.dealii::Tensor.11"* %this, i32 %index) #1 comdat align 2 !dbg !3316 {
entry:
  %this.addr = alloca %"class.dealii::Tensor.11"*, align 8
  %index.addr = alloca i32, align 4
  store %"class.dealii::Tensor.11"* %this, %"class.dealii::Tensor.11"** %this.addr, align 8
  call void @llvm.dbg.declare(metadata %"class.dealii::Tensor.11"** %this.addr, metadata !3317, metadata !DIExpression()), !dbg !3319
  store i32 %index, i32* %index.addr, align 4
  call void @llvm.dbg.declare(metadata i32* %index.addr, metadata !3320, metadata !DIExpression()), !dbg !3321
  %this1 = load %"class.dealii::Tensor.11"*, %"class.dealii::Tensor.11"** %this.addr, align 8
  %values = getelementptr inbounds %"class.dealii::Tensor.11", %"class.dealii::Tensor.11"* %this1, i32 0, i32 0, !dbg !3322
  %0 = load i32, i32* %index.addr, align 4, !dbg !3323
  %idxprom = zext i32 %0 to i64, !dbg !3322
  %arrayidx = getelementptr inbounds [3 x double], [3 x double]* %values, i64 0, i64 %idxprom, !dbg !3322
  %1 = load double, double* %arrayidx, align 8, !dbg !3322
  ret double %1, !dbg !3324
}

; Function Attrs: noinline uwtable
define weak_odr dso_local void @_ZN6dealii12GeometryInfoILi3EE20ExcInvalidCoordinateC2Ed(%"class.dealii::GeometryInfo<3>::ExcInvalidCoordinate"* %this, double %a1) unnamed_addr #0 comdat($_ZN6dealii12GeometryInfoILi3EE20ExcInvalidCoordinateC5Ed) align 2 !dbg !3325 {
entry:
  %this.addr = alloca %"class.dealii::GeometryInfo<3>::ExcInvalidCoordinate"*, align 8
  %a1.addr = alloca double, align 8
  store %"class.dealii::GeometryInfo<3>::ExcInvalidCoordinate"* %this, %"class.dealii::GeometryInfo<3>::ExcInvalidCoordinate"** %this.addr, align 8
  call void @llvm.dbg.declare(metadata %"class.dealii::GeometryInfo<3>::ExcInvalidCoordinate"** %this.addr, metadata !3342, metadata !DIExpression()), !dbg !3344
  store double %a1, double* %a1.addr, align 8
  call void @llvm.dbg.declare(metadata double* %a1.addr, metadata !3345, metadata !DIExpression()), !dbg !3346
  %this1 = load %"class.dealii::GeometryInfo<3>::ExcInvalidCoordinate"*, %"class.dealii::GeometryInfo<3>::ExcInvalidCoordinate"** %this.addr, align 8
  %0 = bitcast %"class.dealii::GeometryInfo<3>::ExcInvalidCoordinate"* %this1 to %"class.dealii::ExceptionBase"*, !dbg !3346
  call void @_ZN6dealii13ExceptionBaseC2Ev(%"class.dealii::ExceptionBase"* %0), !dbg !3346
  %1 = bitcast %"class.dealii::GeometryInfo<3>::ExcInvalidCoordinate"* %this1 to i32 (...)***, !dbg !3346
  store i32 (...)** bitcast (i8** getelementptr inbounds ({ [6 x i8*] }, { [6 x i8*] }* @_ZTVN6dealii12GeometryInfoILi3EE20ExcInvalidCoordinateE, i32 0, inrange i32 0, i32 2) to i32 (...)**), i32 (...)*** %1, align 8, !dbg !3346
  %arg1 = getelementptr inbounds %"class.dealii::GeometryInfo<3>::ExcInvalidCoordinate", %"class.dealii::GeometryInfo<3>::ExcInvalidCoordinate"* %this1, i32 0, i32 1, !dbg !3346
  %2 = load double, double* %a1.addr, align 8, !dbg !3346
  store double %2, double* %arg1, align 8, !dbg !3346
  ret void, !dbg !3346
}

; Function Attrs: noinline nounwind uwtable
define weak_odr dso_local void @_ZN6dealii12GeometryInfoILi3EE20ExcInvalidCoordinateD2Ev(%"class.dealii::GeometryInfo<3>::ExcInvalidCoordinate"* %this) unnamed_addr #1 comdat($_ZN6dealii12GeometryInfoILi3EE20ExcInvalidCoordinateD5Ev) align 2 !dbg !3347 {
entry:
  %this.addr = alloca %"class.dealii::GeometryInfo<3>::ExcInvalidCoordinate"*, align 8
  store %"class.dealii::GeometryInfo<3>::ExcInvalidCoordinate"* %this, %"class.dealii::GeometryInfo<3>::ExcInvalidCoordinate"** %this.addr, align 8
  call void @llvm.dbg.declare(metadata %"class.dealii::GeometryInfo<3>::ExcInvalidCoordinate"** %this.addr, metadata !3348, metadata !DIExpression()), !dbg !3349
  %this1 = load %"class.dealii::GeometryInfo<3>::ExcInvalidCoordinate"*, %"class.dealii::GeometryInfo<3>::ExcInvalidCoordinate"** %this.addr, align 8
  %0 = bitcast %"class.dealii::GeometryInfo<3>::ExcInvalidCoordinate"* %this1 to %"class.dealii::ExceptionBase"*, !dbg !3350
  call void @_ZN6dealii13ExceptionBaseD2Ev(%"class.dealii::ExceptionBase"* %0) #7, !dbg !3350
  ret void, !dbg !3352
}

; Function Attrs: noinline nounwind uwtable
define weak_odr dso_local void @_ZN6dealii12GeometryInfoILi3EE20ExcInvalidCoordinateD0Ev(%"class.dealii::GeometryInfo<3>::ExcInvalidCoordinate"* %this) unnamed_addr #1 comdat($_ZN6dealii12GeometryInfoILi3EE20ExcInvalidCoordinateD5Ev) align 2 !dbg !3353 {
entry:
  %this.addr = alloca %"class.dealii::GeometryInfo<3>::ExcInvalidCoordinate"*, align 8
  store %"class.dealii::GeometryInfo<3>::ExcInvalidCoordinate"* %this, %"class.dealii::GeometryInfo<3>::ExcInvalidCoordinate"** %this.addr, align 8
  call void @llvm.dbg.declare(metadata %"class.dealii::GeometryInfo<3>::ExcInvalidCoordinate"** %this.addr, metadata !3354, metadata !DIExpression()), !dbg !3355
  %this1 = load %"class.dealii::GeometryInfo<3>::ExcInvalidCoordinate"*, %"class.dealii::GeometryInfo<3>::ExcInvalidCoordinate"** %this.addr, align 8
  call void @_ZN6dealii12GeometryInfoILi3EE20ExcInvalidCoordinateD1Ev(%"class.dealii::GeometryInfo<3>::ExcInvalidCoordinate"* %this1) #7, !dbg !3356
  %0 = bitcast %"class.dealii::GeometryInfo<3>::ExcInvalidCoordinate"* %this1 to i8*, !dbg !3356
  call void @_ZdlPv(i8* %0) #8, !dbg !3356
  ret void, !dbg !3356
}

; Function Attrs: noinline uwtable
define weak_odr dso_local void @_ZNK6dealii12GeometryInfoILi3EE20ExcInvalidCoordinate10print_infoERSo(%"class.dealii::GeometryInfo<3>::ExcInvalidCoordinate"* %this, %"class.std::basic_ostream"* dereferenceable(272) %out) unnamed_addr #0 comdat align 2 !dbg !3357 {
entry:
  %this.addr = alloca %"class.dealii::GeometryInfo<3>::ExcInvalidCoordinate"*, align 8
  %out.addr = alloca %"class.std::basic_ostream"*, align 8
  store %"class.dealii::GeometryInfo<3>::ExcInvalidCoordinate"* %this, %"class.dealii::GeometryInfo<3>::ExcInvalidCoordinate"** %this.addr, align 8
  call void @llvm.dbg.declare(metadata %"class.dealii::GeometryInfo<3>::ExcInvalidCoordinate"** %this.addr, metadata !3358, metadata !DIExpression()), !dbg !3360
  store %"class.std::basic_ostream"* %out, %"class.std::basic_ostream"** %out.addr, align 8
  call void @llvm.dbg.declare(metadata %"class.std::basic_ostream"** %out.addr, metadata !3361, metadata !DIExpression()), !dbg !3362
  %this1 = load %"class.dealii::GeometryInfo<3>::ExcInvalidCoordinate"*, %"class.dealii::GeometryInfo<3>::ExcInvalidCoordinate"** %this.addr, align 8
  %0 = load %"class.std::basic_ostream"*, %"class.std::basic_ostream"** %out.addr, align 8, !dbg !3362
  %call = call dereferenceable(272) %"class.std::basic_ostream"* @_ZStlsISt11char_traitsIcEERSt13basic_ostreamIcT_ES5_PKc(%"class.std::basic_ostream"* dereferenceable(272) %0, i8* getelementptr inbounds ([45 x i8], [45 x i8]* @.str, i64 0, i64 0)), !dbg !3362
  %call2 = call dereferenceable(272) %"class.std::basic_ostream"* @_ZStlsISt11char_traitsIcEERSt13basic_ostreamIcT_ES5_PKc(%"class.std::basic_ostream"* dereferenceable(272) %call, i8* getelementptr inbounds ([22 x i8], [22 x i8]* @.str.1, i64 0, i64 0)), !dbg !3362
  %arg1 = getelementptr inbounds %"class.dealii::GeometryInfo<3>::ExcInvalidCoordinate", %"class.dealii::GeometryInfo<3>::ExcInvalidCoordinate"* %this1, i32 0, i32 1, !dbg !3362
  %1 = load double, double* %arg1, align 8, !dbg !3362
  %call3 = call dereferenceable(272) %"class.std::basic_ostream"* @_ZNSolsEd(%"class.std::basic_ostream"* %call2, double %1), !dbg !3362
  %call4 = call dereferenceable(272) %"class.std::basic_ostream"* @_ZNSolsEPFRSoS_E(%"class.std::basic_ostream"* %call3, %"class.std::basic_ostream"* (%"class.std::basic_ostream"*)* @_ZSt4endlIcSt11char_traitsIcEERSt13basic_ostreamIT_T0_ES6_), !dbg !3362
  ret void, !dbg !3362
}

; Function Attrs: noinline uwtable
define weak_odr dso_local void @_ZN6dealii12GeometryInfoILi3EE17ExcInvalidSubfaceC2Eiii(%"class.dealii::GeometryInfo<3>::ExcInvalidSubface"* %this, i32 %a1, i32 %a2, i32 %a3) unnamed_addr #0 comdat($_ZN6dealii12GeometryInfoILi3EE17ExcInvalidSubfaceC5Eiii) align 2 !dbg !3363 {
entry:
  %this.addr = alloca %"class.dealii::GeometryInfo<3>::ExcInvalidSubface"*, align 8
  %a1.addr = alloca i32, align 4
  %a2.addr = alloca i32, align 4
  %a3.addr = alloca i32, align 4
  store %"class.dealii::GeometryInfo<3>::ExcInvalidSubface"* %this, %"class.dealii::GeometryInfo<3>::ExcInvalidSubface"** %this.addr, align 8
  call void @llvm.dbg.declare(metadata %"class.dealii::GeometryInfo<3>::ExcInvalidSubface"** %this.addr, metadata !3382, metadata !DIExpression()), !dbg !3384
  store i32 %a1, i32* %a1.addr, align 4
  call void @llvm.dbg.declare(metadata i32* %a1.addr, metadata !3385, metadata !DIExpression()), !dbg !3386
  store i32 %a2, i32* %a2.addr, align 4
  call void @llvm.dbg.declare(metadata i32* %a2.addr, metadata !3387, metadata !DIExpression()), !dbg !3386
  store i32 %a3, i32* %a3.addr, align 4
  call void @llvm.dbg.declare(metadata i32* %a3.addr, metadata !3388, metadata !DIExpression()), !dbg !3386
  %this1 = load %"class.dealii::GeometryInfo<3>::ExcInvalidSubface"*, %"class.dealii::GeometryInfo<3>::ExcInvalidSubface"** %this.addr, align 8
  %0 = bitcast %"class.dealii::GeometryInfo<3>::ExcInvalidSubface"* %this1 to %"class.dealii::ExceptionBase"*, !dbg !3386
  call void @_ZN6dealii13ExceptionBaseC2Ev(%"class.dealii::ExceptionBase"* %0), !dbg !3386
  %1 = bitcast %"class.dealii::GeometryInfo<3>::ExcInvalidSubface"* %this1 to i32 (...)***, !dbg !3386
  store i32 (...)** bitcast (i8** getelementptr inbounds ({ [6 x i8*] }, { [6 x i8*] }* @_ZTVN6dealii12GeometryInfoILi3EE17ExcInvalidSubfaceE, i32 0, inrange i32 0, i32 2) to i32 (...)**), i32 (...)*** %1, align 8, !dbg !3386
  %arg1 = getelementptr inbounds %"class.dealii::GeometryInfo<3>::ExcInvalidSubface", %"class.dealii::GeometryInfo<3>::ExcInvalidSubface"* %this1, i32 0, i32 1, !dbg !3386
  %2 = load i32, i32* %a1.addr, align 4, !dbg !3386
  store i32 %2, i32* %arg1, align 4, !dbg !3386
  %arg2 = getelementptr inbounds %"class.dealii::GeometryInfo<3>::ExcInvalidSubface", %"class.dealii::GeometryInfo<3>::ExcInvalidSubface"* %this1, i32 0, i32 2, !dbg !3386
  %3 = load i32, i32* %a2.addr, align 4, !dbg !3386
  store i32 %3, i32* %arg2, align 8, !dbg !3386
  %arg3 = getelementptr inbounds %"class.dealii::GeometryInfo<3>::ExcInvalidSubface", %"class.dealii::GeometryInfo<3>::ExcInvalidSubface"* %this1, i32 0, i32 3, !dbg !3386
  %4 = load i32, i32* %a3.addr, align 4, !dbg !3386
  store i32 %4, i32* %arg3, align 4, !dbg !3386
  ret void, !dbg !3386
}

; Function Attrs: noinline nounwind uwtable
define weak_odr dso_local void @_ZN6dealii12GeometryInfoILi3EE17ExcInvalidSubfaceD2Ev(%"class.dealii::GeometryInfo<3>::ExcInvalidSubface"* %this) unnamed_addr #1 comdat($_ZN6dealii12GeometryInfoILi3EE17ExcInvalidSubfaceD5Ev) align 2 !dbg !3389 {
entry:
  %this.addr = alloca %"class.dealii::GeometryInfo<3>::ExcInvalidSubface"*, align 8
  store %"class.dealii::GeometryInfo<3>::ExcInvalidSubface"* %this, %"class.dealii::GeometryInfo<3>::ExcInvalidSubface"** %this.addr, align 8
  call void @llvm.dbg.declare(metadata %"class.dealii::GeometryInfo<3>::ExcInvalidSubface"** %this.addr, metadata !3390, metadata !DIExpression()), !dbg !3391
  %this1 = load %"class.dealii::GeometryInfo<3>::ExcInvalidSubface"*, %"class.dealii::GeometryInfo<3>::ExcInvalidSubface"** %this.addr, align 8
  %0 = bitcast %"class.dealii::GeometryInfo<3>::ExcInvalidSubface"* %this1 to %"class.dealii::ExceptionBase"*, !dbg !3392
  call void @_ZN6dealii13ExceptionBaseD2Ev(%"class.dealii::ExceptionBase"* %0) #7, !dbg !3392
  ret void, !dbg !3394
}

; Function Attrs: noinline nounwind uwtable
define weak_odr dso_local void @_ZN6dealii12GeometryInfoILi3EE17ExcInvalidSubfaceD0Ev(%"class.dealii::GeometryInfo<3>::ExcInvalidSubface"* %this) unnamed_addr #1 comdat($_ZN6dealii12GeometryInfoILi3EE17ExcInvalidSubfaceD5Ev) align 2 !dbg !3395 {
entry:
  %this.addr = alloca %"class.dealii::GeometryInfo<3>::ExcInvalidSubface"*, align 8
  store %"class.dealii::GeometryInfo<3>::ExcInvalidSubface"* %this, %"class.dealii::GeometryInfo<3>::ExcInvalidSubface"** %this.addr, align 8
  call void @llvm.dbg.declare(metadata %"class.dealii::GeometryInfo<3>::ExcInvalidSubface"** %this.addr, metadata !3396, metadata !DIExpression()), !dbg !3397
  %this1 = load %"class.dealii::GeometryInfo<3>::ExcInvalidSubface"*, %"class.dealii::GeometryInfo<3>::ExcInvalidSubface"** %this.addr, align 8
  call void @_ZN6dealii12GeometryInfoILi3EE17ExcInvalidSubfaceD1Ev(%"class.dealii::GeometryInfo<3>::ExcInvalidSubface"* %this1) #7, !dbg !3398
  %0 = bitcast %"class.dealii::GeometryInfo<3>::ExcInvalidSubface"* %this1 to i8*, !dbg !3398
  call void @_ZdlPv(i8* %0) #8, !dbg !3398
  ret void, !dbg !3398
}

; Function Attrs: noinline uwtable
define weak_odr dso_local void @_ZNK6dealii12GeometryInfoILi3EE17ExcInvalidSubface10print_infoERSo(%"class.dealii::GeometryInfo<3>::ExcInvalidSubface"* %this, %"class.std::basic_ostream"* dereferenceable(272) %out) unnamed_addr #0 comdat align 2 !dbg !3399 {
entry:
  %this.addr = alloca %"class.dealii::GeometryInfo<3>::ExcInvalidSubface"*, align 8
  %out.addr = alloca %"class.std::basic_ostream"*, align 8
  store %"class.dealii::GeometryInfo<3>::ExcInvalidSubface"* %this, %"class.dealii::GeometryInfo<3>::ExcInvalidSubface"** %this.addr, align 8
  call void @llvm.dbg.declare(metadata %"class.dealii::GeometryInfo<3>::ExcInvalidSubface"** %this.addr, metadata !3400, metadata !DIExpression()), !dbg !3402
  store %"class.std::basic_ostream"* %out, %"class.std::basic_ostream"** %out.addr, align 8
  call void @llvm.dbg.declare(metadata %"class.std::basic_ostream"** %out.addr, metadata !3403, metadata !DIExpression()), !dbg !3404
  %this1 = load %"class.dealii::GeometryInfo<3>::ExcInvalidSubface"*, %"class.dealii::GeometryInfo<3>::ExcInvalidSubface"** %this.addr, align 8
  %0 = load %"class.std::basic_ostream"*, %"class.std::basic_ostream"** %out.addr, align 8, !dbg !3404
  %call = call dereferenceable(272) %"class.std::basic_ostream"* @_ZStlsISt11char_traitsIcEERSt13basic_ostreamIcT_ES5_PKc(%"class.std::basic_ostream"* dereferenceable(272) %0, i8* getelementptr inbounds ([21 x i8], [21 x i8]* @.str.2, i64 0, i64 0)), !dbg !3404
  %arg1 = getelementptr inbounds %"class.dealii::GeometryInfo<3>::ExcInvalidSubface", %"class.dealii::GeometryInfo<3>::ExcInvalidSubface"* %this1, i32 0, i32 1, !dbg !3404
  %1 = load i32, i32* %arg1, align 4, !dbg !3404
  %call2 = call dereferenceable(272) %"class.std::basic_ostream"* @_ZNSolsEi(%"class.std::basic_ostream"* %call, i32 %1), !dbg !3404
  %call3 = call dereferenceable(272) %"class.std::basic_ostream"* @_ZStlsISt11char_traitsIcEERSt13basic_ostreamIcT_ES5_PKc(%"class.std::basic_ostream"* dereferenceable(272) %call2, i8* getelementptr inbounds ([8 x i8], [8 x i8]* @.str.3, i64 0, i64 0)), !dbg !3404
  %arg2 = getelementptr inbounds %"class.dealii::GeometryInfo<3>::ExcInvalidSubface", %"class.dealii::GeometryInfo<3>::ExcInvalidSubface"* %this1, i32 0, i32 2, !dbg !3404
  %2 = load i32, i32* %arg2, align 8, !dbg !3404
  %call4 = call dereferenceable(272) %"class.std::basic_ostream"* @_ZNSolsEi(%"class.std::basic_ostream"* %call3, i32 %2), !dbg !3404
  %call5 = call dereferenceable(272) %"class.std::basic_ostream"* @_ZStlsISt11char_traitsIcEERSt13basic_ostreamIcT_ES5_PKc(%"class.std::basic_ostream"* dereferenceable(272) %call4, i8* getelementptr inbounds ([17 x i8], [17 x i8]* @.str.4, i64 0, i64 0)), !dbg !3404
  %arg3 = getelementptr inbounds %"class.dealii::GeometryInfo<3>::ExcInvalidSubface", %"class.dealii::GeometryInfo<3>::ExcInvalidSubface"* %this1, i32 0, i32 3, !dbg !3404
  %3 = load i32, i32* %arg3, align 4, !dbg !3404
  %call6 = call dereferenceable(272) %"class.std::basic_ostream"* @_ZNSolsEi(%"class.std::basic_ostream"* %call5, i32 %3), !dbg !3404
  %call7 = call dereferenceable(272) %"class.std::basic_ostream"* @_ZNSolsEPFRSoS_E(%"class.std::basic_ostream"* %call6, %"class.std::basic_ostream"* (%"class.std::basic_ostream"*)* @_ZSt4endlIcSt11char_traitsIcEERSt13basic_ostreamIT_T0_ES6_), !dbg !3404
  ret void, !dbg !3404
}

; Function Attrs: noinline uwtable
define weak_odr dso_local i32 @_ZN6dealii12GeometryInfoILi4EE10n_childrenERKNS_14RefinementCaseILi4EEE(%"class.dealii::RefinementCase.12"* dereferenceable(1) %ref_case) #0 comdat align 2 !dbg !1131 {
entry:
  %ref_case.addr = alloca %"class.dealii::RefinementCase.12"*, align 8
  store %"class.dealii::RefinementCase.12"* %ref_case, %"class.dealii::RefinementCase.12"** %ref_case.addr, align 8
  call void @llvm.dbg.declare(metadata %"class.dealii::RefinementCase.12"** %ref_case.addr, metadata !3405, metadata !DIExpression()), !dbg !3406
  %0 = load %"class.dealii::RefinementCase.12"*, %"class.dealii::RefinementCase.12"** %ref_case.addr, align 8, !dbg !3407
  %call = call zeroext i8 @_ZNK6dealii14RefinementCaseILi4EEcvhEv(%"class.dealii::RefinementCase.12"* %0), !dbg !3407
  %idxprom = zext i8 %call to i64, !dbg !3408
  %arrayidx = getelementptr inbounds [8 x i32], [8 x i32]* @_ZZN6dealii12GeometryInfoILi4EE10n_childrenERKNS_14RefinementCaseILi4EEEE10n_children, i64 0, i64 %idxprom, !dbg !3408
  %1 = load i32, i32* %arrayidx, align 4, !dbg !3408
  ret i32 %1, !dbg !3409
}

; Function Attrs: noinline nounwind uwtable
define linkonce_odr dso_local zeroext i8 @_ZNK6dealii14RefinementCaseILi4EEcvhEv(%"class.dealii::RefinementCase.12"* %this) #1 comdat align 2 !dbg !3410 {
entry:
  %this.addr = alloca %"class.dealii::RefinementCase.12"*, align 8
  store %"class.dealii::RefinementCase.12"* %this, %"class.dealii::RefinementCase.12"** %this.addr, align 8
  call void @llvm.dbg.declare(metadata %"class.dealii::RefinementCase.12"** %this.addr, metadata !3411, metadata !DIExpression()), !dbg !3413
  %this1 = load %"class.dealii::RefinementCase.12"*, %"class.dealii::RefinementCase.12"** %this.addr, align 8
  %0 = bitcast %"class.dealii::RefinementCase.12"* %this1 to i8*, !dbg !3414
  %bf.load = load i8, i8* %0, align 1, !dbg !3414
  %bf.clear = and i8 %bf.load, 15, !dbg !3414
  ret i8 %bf.clear, !dbg !3415
}

; Function Attrs: noinline uwtable
define weak_odr dso_local i32 @_ZN6dealii12GeometryInfoILi4EE21face_to_cell_verticesEjjbbb(i32 %face, i32 %vertex, i1 zeroext %face_orientation, i1 zeroext %face_flip, i1 zeroext %face_rotation) #0 comdat align 2 !dbg !3416 {
entry:
  %face.addr = alloca i32, align 4
  %vertex.addr = alloca i32, align 4
  %face_orientation.addr = alloca i8, align 1
  %face_flip.addr = alloca i8, align 1
  %face_rotation.addr = alloca i8, align 1
  %ref.tmp = alloca %"class.dealii::RefinementCase.12", align 1
  %ref.tmp5 = alloca %"class.dealii::RefinementCase.6", align 1
  store i32 %face, i32* %face.addr, align 4
  call void @llvm.dbg.declare(metadata i32* %face.addr, metadata !3417, metadata !DIExpression()), !dbg !3418
  store i32 %vertex, i32* %vertex.addr, align 4
  call void @llvm.dbg.declare(metadata i32* %vertex.addr, metadata !3419, metadata !DIExpression()), !dbg !3420
  %frombool = zext i1 %face_orientation to i8
  store i8 %frombool, i8* %face_orientation.addr, align 1
  call void @llvm.dbg.declare(metadata i8* %face_orientation.addr, metadata !3421, metadata !DIExpression()), !dbg !3422
  %frombool1 = zext i1 %face_flip to i8
  store i8 %frombool1, i8* %face_flip.addr, align 1
  call void @llvm.dbg.declare(metadata i8* %face_flip.addr, metadata !3423, metadata !DIExpression()), !dbg !3424
  %frombool2 = zext i1 %face_rotation to i8
  store i8 %frombool2, i8* %face_rotation.addr, align 1
  call void @llvm.dbg.declare(metadata i8* %face_rotation.addr, metadata !3425, metadata !DIExpression()), !dbg !3426
  call void @_ZN6dealii14RefinementCaseILi4EEC2ENS_23RefinementPossibilitiesILi4EE13PossibilitiesE(%"class.dealii::RefinementCase.12"* %ref.tmp, i32 255), !dbg !3427
  %0 = load i32, i32* %face.addr, align 4, !dbg !3428
  %1 = load i32, i32* %vertex.addr, align 4, !dbg !3429
  %2 = load i8, i8* %face_orientation.addr, align 1, !dbg !3430
  %tobool = trunc i8 %2 to i1, !dbg !3430
  %3 = load i8, i8* %face_flip.addr, align 1, !dbg !3431
  %tobool3 = trunc i8 %3 to i1, !dbg !3431
  %4 = load i8, i8* %face_rotation.addr, align 1, !dbg !3432
  %tobool4 = trunc i8 %4 to i1, !dbg !3432
  call void @_ZN6dealii14RefinementCaseILi3EEC2ENS_23RefinementPossibilitiesILi3EE13PossibilitiesE(%"class.dealii::RefinementCase.6"* %ref.tmp5, i32 7), !dbg !3433
  %call = call i32 @_ZN6dealii12GeometryInfoILi4EE18child_cell_on_faceERKNS_14RefinementCaseILi4EEEjjbbbRKNS2_ILi3EEE(%"class.dealii::RefinementCase.12"* dereferenceable(1) %ref.tmp, i32 %0, i32 %1, i1 zeroext %tobool, i1 zeroext %tobool3, i1 zeroext %tobool4, %"class.dealii::RefinementCase.6"* dereferenceable(1) %ref.tmp5), !dbg !3433
  ret i32 %call, !dbg !3434
}

; Function Attrs: noinline nounwind uwtable
define dso_local i32 @_ZN6dealii12GeometryInfoILi4EE18child_cell_on_faceERKNS_14RefinementCaseILi4EEEjjbbbRKNS2_ILi3EEE(%"class.dealii::RefinementCase.12"* dereferenceable(1) %0, i32 %1, i32 %2, i1 zeroext %3, i1 zeroext %4, i1 zeroext %5, %"class.dealii::RefinementCase.6"* dereferenceable(1) %6) #1 align 2 !dbg !3435 {
entry:
  %.addr = alloca %"class.dealii::RefinementCase.12"*, align 8
  %.addr1 = alloca i32, align 4
  %.addr2 = alloca i32, align 4
  %.addr3 = alloca i8, align 1
  %.addr4 = alloca i8, align 1
  %.addr6 = alloca i8, align 1
  %.addr8 = alloca %"class.dealii::RefinementCase.6"*, align 8
  store %"class.dealii::RefinementCase.12"* %0, %"class.dealii::RefinementCase.12"** %.addr, align 8
  call void @llvm.dbg.declare(metadata %"class.dealii::RefinementCase.12"** %.addr, metadata !3436, metadata !DIExpression()), !dbg !3437
  store i32 %1, i32* %.addr1, align 4
  call void @llvm.dbg.declare(metadata i32* %.addr1, metadata !3438, metadata !DIExpression()), !dbg !3439
  store i32 %2, i32* %.addr2, align 4
  call void @llvm.dbg.declare(metadata i32* %.addr2, metadata !3440, metadata !DIExpression()), !dbg !3441
  %frombool = zext i1 %3 to i8
  store i8 %frombool, i8* %.addr3, align 1
  call void @llvm.dbg.declare(metadata i8* %.addr3, metadata !3442, metadata !DIExpression()), !dbg !3443
  %frombool5 = zext i1 %4 to i8
  store i8 %frombool5, i8* %.addr4, align 1
  call void @llvm.dbg.declare(metadata i8* %.addr4, metadata !3444, metadata !DIExpression()), !dbg !3445
  %frombool7 = zext i1 %5 to i8
  store i8 %frombool7, i8* %.addr6, align 1
  call void @llvm.dbg.declare(metadata i8* %.addr6, metadata !3446, metadata !DIExpression()), !dbg !3447
  store %"class.dealii::RefinementCase.6"* %6, %"class.dealii::RefinementCase.6"** %.addr8, align 8
  call void @llvm.dbg.declare(metadata %"class.dealii::RefinementCase.6"** %.addr8, metadata !3448, metadata !DIExpression()), !dbg !3449
  ret i32 -1, !dbg !3450
}

; Function Attrs: noinline nounwind uwtable
define linkonce_odr dso_local void @_ZN6dealii14RefinementCaseILi4EEC2ENS_23RefinementPossibilitiesILi4EE13PossibilitiesE(%"class.dealii::RefinementCase.12"* %this, i32 %refinement_case) unnamed_addr #1 comdat align 2 !dbg !3451 {
entry:
  %this.addr = alloca %"class.dealii::RefinementCase.12"*, align 8
  %refinement_case.addr = alloca i32, align 4
  store %"class.dealii::RefinementCase.12"* %this, %"class.dealii::RefinementCase.12"** %this.addr, align 8
  call void @llvm.dbg.declare(metadata %"class.dealii::RefinementCase.12"** %this.addr, metadata !3452, metadata !DIExpression()), !dbg !3454
  store i32 %refinement_case, i32* %refinement_case.addr, align 4
  call void @llvm.dbg.declare(metadata i32* %refinement_case.addr, metadata !3455, metadata !DIExpression()), !dbg !3456
  %this1 = load %"class.dealii::RefinementCase.12"*, %"class.dealii::RefinementCase.12"** %this.addr, align 8
  %0 = bitcast %"class.dealii::RefinementCase.12"* %this1 to %"struct.dealii::RefinementPossibilities.13"*, !dbg !3457
  %1 = bitcast %"class.dealii::RefinementCase.12"* %this1 to i8*, !dbg !3458
  %2 = load i32, i32* %refinement_case.addr, align 4, !dbg !3459
  %conv = trunc i32 %2 to i8, !dbg !3459
  %bf.load = load i8, i8* %1, align 1, !dbg !3458
  %bf.value = and i8 %conv, 15, !dbg !3458
  %bf.clear = and i8 %bf.load, -16, !dbg !3458
  %bf.set = or i8 %bf.clear, %bf.value, !dbg !3458
  store i8 %bf.set, i8* %1, align 1, !dbg !3458
  ret void, !dbg !3460
}

; Function Attrs: noinline nounwind uwtable
define weak_odr dso_local i32 @_ZN6dealii12GeometryInfoILi4EE18face_to_cell_linesEjjbbb(i32 %0, i32 %1, i1 zeroext %2, i1 zeroext %3, i1 zeroext %4) #1 comdat align 2 !dbg !3461 {
entry:
  %.addr = alloca i32, align 4
  %.addr1 = alloca i32, align 4
  %.addr2 = alloca i8, align 1
  %.addr3 = alloca i8, align 1
  %.addr5 = alloca i8, align 1
  store i32 %0, i32* %.addr, align 4
  call void @llvm.dbg.declare(metadata i32* %.addr, metadata !3462, metadata !DIExpression()), !dbg !3463
  store i32 %1, i32* %.addr1, align 4
  call void @llvm.dbg.declare(metadata i32* %.addr1, metadata !3464, metadata !DIExpression()), !dbg !3465
  %frombool = zext i1 %2 to i8
  store i8 %frombool, i8* %.addr2, align 1
  call void @llvm.dbg.declare(metadata i8* %.addr2, metadata !3466, metadata !DIExpression()), !dbg !3467
  %frombool4 = zext i1 %3 to i8
  store i8 %frombool4, i8* %.addr3, align 1
  call void @llvm.dbg.declare(metadata i8* %.addr3, metadata !3468, metadata !DIExpression()), !dbg !3469
  %frombool6 = zext i1 %4 to i8
  store i8 %frombool6, i8* %.addr5, align 1
  call void @llvm.dbg.declare(metadata i8* %.addr5, metadata !3470, metadata !DIExpression()), !dbg !3471
  ret i32 -1, !dbg !3472
}

; Function Attrs: noinline nounwind uwtable
define weak_odr dso_local i32 @_ZN6dealii12GeometryInfoILi4EE28standard_to_real_face_vertexEjbbb(i32 %vertex, i1 zeroext %0, i1 zeroext %1, i1 zeroext %2) #1 comdat align 2 !dbg !3473 {
entry:
  %vertex.addr = alloca i32, align 4
  %.addr = alloca i8, align 1
  %.addr1 = alloca i8, align 1
  %.addr3 = alloca i8, align 1
  store i32 %vertex, i32* %vertex.addr, align 4
  call void @llvm.dbg.declare(metadata i32* %vertex.addr, metadata !3474, metadata !DIExpression()), !dbg !3475
  %frombool = zext i1 %0 to i8
  store i8 %frombool, i8* %.addr, align 1
  call void @llvm.dbg.declare(metadata i8* %.addr, metadata !3476, metadata !DIExpression()), !dbg !3477
  %frombool2 = zext i1 %1 to i8
  store i8 %frombool2, i8* %.addr1, align 1
  call void @llvm.dbg.declare(metadata i8* %.addr1, metadata !3478, metadata !DIExpression()), !dbg !3479
  %frombool4 = zext i1 %2 to i8
  store i8 %frombool4, i8* %.addr3, align 1
  call void @llvm.dbg.declare(metadata i8* %.addr3, metadata !3480, metadata !DIExpression()), !dbg !3481
  %3 = load i32, i32* %vertex.addr, align 4, !dbg !3482
  ret i32 %3, !dbg !3483
}

; Function Attrs: noinline nounwind uwtable
define weak_odr dso_local i32 @_ZN6dealii12GeometryInfoILi4EE28real_to_standard_face_vertexEjbbb(i32 %vertex, i1 zeroext %0, i1 zeroext %1, i1 zeroext %2) #1 comdat align 2 !dbg !3484 {
entry:
  %vertex.addr = alloca i32, align 4
  %.addr = alloca i8, align 1
  %.addr1 = alloca i8, align 1
  %.addr3 = alloca i8, align 1
  store i32 %vertex, i32* %vertex.addr, align 4
  call void @llvm.dbg.declare(metadata i32* %vertex.addr, metadata !3485, metadata !DIExpression()), !dbg !3486
  %frombool = zext i1 %0 to i8
  store i8 %frombool, i8* %.addr, align 1
  call void @llvm.dbg.declare(metadata i8* %.addr, metadata !3487, metadata !DIExpression()), !dbg !3488
  %frombool2 = zext i1 %1 to i8
  store i8 %frombool2, i8* %.addr1, align 1
  call void @llvm.dbg.declare(metadata i8* %.addr1, metadata !3489, metadata !DIExpression()), !dbg !3490
  %frombool4 = zext i1 %2 to i8
  store i8 %frombool4, i8* %.addr3, align 1
  call void @llvm.dbg.declare(metadata i8* %.addr3, metadata !3491, metadata !DIExpression()), !dbg !3492
  %3 = load i32, i32* %vertex.addr, align 4, !dbg !3493
  ret i32 %3, !dbg !3494
}

; Function Attrs: noinline nounwind uwtable
define weak_odr dso_local i32 @_ZN6dealii12GeometryInfoILi4EE26standard_to_real_face_lineEjbbb(i32 %line, i1 zeroext %0, i1 zeroext %1, i1 zeroext %2) #1 comdat align 2 !dbg !3495 {
entry:
  %line.addr = alloca i32, align 4
  %.addr = alloca i8, align 1
  %.addr1 = alloca i8, align 1
  %.addr3 = alloca i8, align 1
  store i32 %line, i32* %line.addr, align 4
  call void @llvm.dbg.declare(metadata i32* %line.addr, metadata !3496, metadata !DIExpression()), !dbg !3497
  %frombool = zext i1 %0 to i8
  store i8 %frombool, i8* %.addr, align 1
  call void @llvm.dbg.declare(metadata i8* %.addr, metadata !3498, metadata !DIExpression()), !dbg !3499
  %frombool2 = zext i1 %1 to i8
  store i8 %frombool2, i8* %.addr1, align 1
  call void @llvm.dbg.declare(metadata i8* %.addr1, metadata !3500, metadata !DIExpression()), !dbg !3501
  %frombool4 = zext i1 %2 to i8
  store i8 %frombool4, i8* %.addr3, align 1
  call void @llvm.dbg.declare(metadata i8* %.addr3, metadata !3502, metadata !DIExpression()), !dbg !3503
  %3 = load i32, i32* %line.addr, align 4, !dbg !3504
  ret i32 %3, !dbg !3505
}

; Function Attrs: noinline nounwind uwtable
define weak_odr dso_local i32 @_ZN6dealii12GeometryInfoILi4EE26real_to_standard_face_lineEjbbb(i32 %line, i1 zeroext %0, i1 zeroext %1, i1 zeroext %2) #1 comdat align 2 !dbg !3506 {
entry:
  %line.addr = alloca i32, align 4
  %.addr = alloca i8, align 1
  %.addr1 = alloca i8, align 1
  %.addr3 = alloca i8, align 1
  store i32 %line, i32* %line.addr, align 4
  call void @llvm.dbg.declare(metadata i32* %line.addr, metadata !3507, metadata !DIExpression()), !dbg !3508
  %frombool = zext i1 %0 to i8
  store i8 %frombool, i8* %.addr, align 1
  call void @llvm.dbg.declare(metadata i8* %.addr, metadata !3509, metadata !DIExpression()), !dbg !3510
  %frombool2 = zext i1 %1 to i8
  store i8 %frombool2, i8* %.addr1, align 1
  call void @llvm.dbg.declare(metadata i8* %.addr1, metadata !3511, metadata !DIExpression()), !dbg !3512
  %frombool4 = zext i1 %2 to i8
  store i8 %frombool4, i8* %.addr3, align 1
  call void @llvm.dbg.declare(metadata i8* %.addr3, metadata !3513, metadata !DIExpression()), !dbg !3514
  %3 = load i32, i32* %line.addr, align 4, !dbg !3515
  ret i32 %3, !dbg !3516
}

; Function Attrs: noinline uwtable
define weak_odr dso_local void @_ZN6dealii12GeometryInfoILi4EE16unit_cell_vertexEj(%"class.dealii::Point.14"* noalias sret %agg.result, i32 %0) #0 comdat align 2 !dbg !3517 {
entry:
  %result.ptr = alloca i8*, align 8
  %.addr = alloca i32, align 4
  %1 = bitcast %"class.dealii::Point.14"* %agg.result to i8*
  store i8* %1, i8** %result.ptr, align 8
  store i32 %0, i32* %.addr, align 4
  call void @llvm.dbg.declare(metadata i32* %.addr, metadata !3518, metadata !DIExpression()), !dbg !3519
  call void @_ZN6dealii5PointILi4EEC2Ev(%"class.dealii::Point.14"* %agg.result), !dbg !3520
  ret void, !dbg !3521
}

; Function Attrs: noinline uwtable
define linkonce_odr dso_local void @_ZN6dealii5PointILi4EEC2Ev(%"class.dealii::Point.14"* %this) unnamed_addr #0 comdat align 2 !dbg !3522 {
entry:
  %this.addr = alloca %"class.dealii::Point.14"*, align 8
  store %"class.dealii::Point.14"* %this, %"class.dealii::Point.14"** %this.addr, align 8
  call void @llvm.dbg.declare(metadata %"class.dealii::Point.14"** %this.addr, metadata !3523, metadata !DIExpression()), !dbg !3525
  %this1 = load %"class.dealii::Point.14"*, %"class.dealii::Point.14"** %this.addr, align 8
  %0 = bitcast %"class.dealii::Point.14"* %this1 to %"class.dealii::Tensor.15"*, !dbg !3526
  call void @_ZN6dealii6TensorILi1ELi4EEC2Eb(%"class.dealii::Tensor.15"* %0, i1 zeroext true), !dbg !3527
  ret void, !dbg !3528
}

; Function Attrs: noinline nounwind uwtable
define weak_odr dso_local i32 @_ZN6dealii12GeometryInfoILi4EE21child_cell_from_pointERKNS_5PointILi4EEE(%"class.dealii::Point.14"* dereferenceable(32) %0) #1 comdat align 2 !dbg !3529 {
entry:
  %.addr = alloca %"class.dealii::Point.14"*, align 8
  store %"class.dealii::Point.14"* %0, %"class.dealii::Point.14"** %.addr, align 8
  call void @llvm.dbg.declare(metadata %"class.dealii::Point.14"** %.addr, metadata !3530, metadata !DIExpression()), !dbg !3531
  ret i32 0, !dbg !3532
}

; Function Attrs: noinline uwtable
define weak_odr dso_local void @_ZN6dealii12GeometryInfoILi4EE25cell_to_child_coordinatesERKNS_5PointILi4EEEjNS_14RefinementCaseILi4EEE(%"class.dealii::Point.14"* noalias sret %agg.result, %"class.dealii::Point.14"* dereferenceable(32) %0, i32 %1, i8 %.coerce) #0 comdat align 2 personality i8* bitcast (i32 (...)* @__gxx_personality_v0 to i8*) !dbg !3533 {
entry:
  %result.ptr = alloca i8*, align 8
  %2 = alloca %"class.dealii::RefinementCase.12", align 1
  %.addr = alloca %"class.dealii::Point.14"*, align 8
  %.addr1 = alloca i32, align 4
  %agg.tmp = alloca %"class.dealii::StandardExceptions::ExcNotImplemented", align 8
  %exn.slot = alloca i8*
  %ehselector.slot = alloca i32
  %3 = bitcast %"class.dealii::Point.14"* %agg.result to i8*
  store i8* %3, i8** %result.ptr, align 8
  %coerce.dive = getelementptr inbounds %"class.dealii::RefinementCase.12", %"class.dealii::RefinementCase.12"* %2, i32 0, i32 0
  store i8 %.coerce, i8* %coerce.dive, align 1
  store %"class.dealii::Point.14"* %0, %"class.dealii::Point.14"** %.addr, align 8
  call void @llvm.dbg.declare(metadata %"class.dealii::Point.14"** %.addr, metadata !3534, metadata !DIExpression()), !dbg !3535
  store i32 %1, i32* %.addr1, align 4
  call void @llvm.dbg.declare(metadata i32* %.addr1, metadata !3536, metadata !DIExpression()), !dbg !3537
  call void @llvm.dbg.declare(metadata %"class.dealii::RefinementCase.12"* %2, metadata !3538, metadata !DIExpression()), !dbg !3539
  %4 = bitcast %"class.dealii::StandardExceptions::ExcNotImplemented"* %agg.tmp to i8*, !dbg !3540
  call void @llvm.memset.p0i8.i64(i8* align 8 %4, i8 0, i64 64, i1 false), !dbg !3540
  call void @_ZN6dealii18StandardExceptions17ExcNotImplementedC2Ev(%"class.dealii::StandardExceptions::ExcNotImplemented"* %agg.tmp), !dbg !3540
  invoke void @_ZN6dealii18deal_II_exceptions9internals17issue_error_throwINS_18StandardExceptions17ExcNotImplementedEEEvPKciS6_S6_S6_T_(i8* getelementptr inbounds ([29 x i8], [29 x i8]* @.str.5, i64 0, i64 0), i32 2499, i8* getelementptr inbounds ([1 x i8], [1 x i8]* @.str.6, i64 0, i64 0), i8* getelementptr inbounds ([6 x i8], [6 x i8]* @.str.7, i64 0, i64 0), i8* getelementptr inbounds ([20 x i8], [20 x i8]* @.str.8, i64 0, i64 0), %"class.dealii::StandardExceptions::ExcNotImplemented"* %agg.tmp)
          to label %invoke.cont unwind label %lpad, !dbg !3540

invoke.cont:                                      ; preds = %entry
  call void @_ZN6dealii18StandardExceptions17ExcNotImplementedD2Ev(%"class.dealii::StandardExceptions::ExcNotImplemented"* %agg.tmp) #7, !dbg !3540
  call void @_ZN6dealii5PointILi4EEC2Ev(%"class.dealii::Point.14"* %agg.result), !dbg !3543
  ret void, !dbg !3544

lpad:                                             ; preds = %entry
  %5 = landingpad { i8*, i32 }
          cleanup, !dbg !3545
  %6 = extractvalue { i8*, i32 } %5, 0, !dbg !3545
  store i8* %6, i8** %exn.slot, align 8, !dbg !3545
  %7 = extractvalue { i8*, i32 } %5, 1, !dbg !3545
  store i32 %7, i32* %ehselector.slot, align 4, !dbg !3545
  call void @_ZN6dealii18StandardExceptions17ExcNotImplementedD2Ev(%"class.dealii::StandardExceptions::ExcNotImplemented"* %agg.tmp) #7, !dbg !3540
  br label %eh.resume, !dbg !3540

eh.resume:                                        ; preds = %lpad
  %exn = load i8*, i8** %exn.slot, align 8, !dbg !3540
  %sel = load i32, i32* %ehselector.slot, align 4, !dbg !3540
  %lpad.val = insertvalue { i8*, i32 } undef, i8* %exn, 0, !dbg !3540
  %lpad.val2 = insertvalue { i8*, i32 } %lpad.val, i32 %sel, 1, !dbg !3540
  resume { i8*, i32 } %lpad.val2, !dbg !3540
}

; Function Attrs: noinline uwtable
define linkonce_odr dso_local void @_ZN6dealii18deal_II_exceptions9internals17issue_error_throwINS_18StandardExceptions17ExcNotImplementedEEEvPKciS6_S6_S6_T_(i8* %file, i32 %line, i8* %function, i8* %cond, i8* %exc_name, %"class.dealii::StandardExceptions::ExcNotImplemented"* %e) #0 comdat personality i8* bitcast (i32 (...)* @__gxx_personality_v0 to i8*) !dbg !3546 {
entry:
  %file.addr = alloca i8*, align 8
  %line.addr = alloca i32, align 4
  %function.addr = alloca i8*, align 8
  %cond.addr = alloca i8*, align 8
  %exc_name.addr = alloca i8*, align 8
  %exn.slot = alloca i8*
  %ehselector.slot = alloca i32
  store i8* %file, i8** %file.addr, align 8
  call void @llvm.dbg.declare(metadata i8** %file.addr, metadata !3556, metadata !DIExpression()), !dbg !3557
  store i32 %line, i32* %line.addr, align 4
  call void @llvm.dbg.declare(metadata i32* %line.addr, metadata !3558, metadata !DIExpression()), !dbg !3559
  store i8* %function, i8** %function.addr, align 8
  call void @llvm.dbg.declare(metadata i8** %function.addr, metadata !3560, metadata !DIExpression()), !dbg !3561
  store i8* %cond, i8** %cond.addr, align 8
  call void @llvm.dbg.declare(metadata i8** %cond.addr, metadata !3562, metadata !DIExpression()), !dbg !3563
  store i8* %exc_name, i8** %exc_name.addr, align 8
  call void @llvm.dbg.declare(metadata i8** %exc_name.addr, metadata !3564, metadata !DIExpression()), !dbg !3565
  call void @llvm.dbg.declare(metadata %"class.dealii::StandardExceptions::ExcNotImplemented"* %e, metadata !3566, metadata !DIExpression()), !dbg !3567
  %0 = bitcast %"class.dealii::StandardExceptions::ExcNotImplemented"* %e to %"class.dealii::ExceptionBase"*, !dbg !3568
  %1 = load i8*, i8** %file.addr, align 8, !dbg !3569
  %2 = load i32, i32* %line.addr, align 4, !dbg !3570
  %3 = load i8*, i8** %function.addr, align 8, !dbg !3571
  %4 = load i8*, i8** %cond.addr, align 8, !dbg !3572
  %5 = load i8*, i8** %exc_name.addr, align 8, !dbg !3573
  call void @_ZN6dealii13ExceptionBase10set_fieldsEPKciS2_S2_S2_(%"class.dealii::ExceptionBase"* %0, i8* %1, i32 %2, i8* %3, i8* %4, i8* %5), !dbg !3574
  %exception = call i8* @__cxa_allocate_exception(i64 64) #7, !dbg !3575
  %6 = bitcast i8* %exception to %"class.dealii::StandardExceptions::ExcNotImplemented"*, !dbg !3575
  invoke void @_ZN6dealii18StandardExceptions17ExcNotImplementedC2EOS1_(%"class.dealii::StandardExceptions::ExcNotImplemented"* %6, %"class.dealii::StandardExceptions::ExcNotImplemented"* dereferenceable(64) %e)
          to label %invoke.cont unwind label %lpad, !dbg !3576

invoke.cont:                                      ; preds = %entry
  call void @__cxa_throw(i8* %exception, i8* bitcast ({ i8*, i8*, i8* }* @_ZTIN6dealii18StandardExceptions17ExcNotImplementedE to i8*), i8* bitcast (void (%"class.dealii::StandardExceptions::ExcNotImplemented"*)* @_ZN6dealii18StandardExceptions17ExcNotImplementedD2Ev to i8*)) #9, !dbg !3575
  unreachable, !dbg !3575

lpad:                                             ; preds = %entry
  %7 = landingpad { i8*, i32 }
          cleanup, !dbg !3577
  %8 = extractvalue { i8*, i32 } %7, 0, !dbg !3577
  store i8* %8, i8** %exn.slot, align 8, !dbg !3577
  %9 = extractvalue { i8*, i32 } %7, 1, !dbg !3577
  store i32 %9, i32* %ehselector.slot, align 4, !dbg !3577
  call void @__cxa_free_exception(i8* %exception) #7, !dbg !3575
  br label %eh.resume, !dbg !3575

eh.resume:                                        ; preds = %lpad
  %exn = load i8*, i8** %exn.slot, align 8, !dbg !3575
  %sel = load i32, i32* %ehselector.slot, align 4, !dbg !3575
  %lpad.val = insertvalue { i8*, i32 } undef, i8* %exn, 0, !dbg !3575
  %lpad.val1 = insertvalue { i8*, i32 } %lpad.val, i32 %sel, 1, !dbg !3575
  resume { i8*, i32 } %lpad.val1, !dbg !3575
}

; Function Attrs: argmemonly nounwind willreturn
declare void @llvm.memset.p0i8.i64(i8* nocapture writeonly, i8, i64, i1 immarg) #6

; Function Attrs: noinline uwtable
define linkonce_odr dso_local void @_ZN6dealii18StandardExceptions17ExcNotImplementedC2Ev(%"class.dealii::StandardExceptions::ExcNotImplemented"* %this) unnamed_addr #0 comdat align 2 !dbg !3578 {
entry:
  %this.addr = alloca %"class.dealii::StandardExceptions::ExcNotImplemented"*, align 8
  store %"class.dealii::StandardExceptions::ExcNotImplemented"* %this, %"class.dealii::StandardExceptions::ExcNotImplemented"** %this.addr, align 8
  call void @llvm.dbg.declare(metadata %"class.dealii::StandardExceptions::ExcNotImplemented"** %this.addr, metadata !3583, metadata !DIExpression()), !dbg !3585
  %this1 = load %"class.dealii::StandardExceptions::ExcNotImplemented"*, %"class.dealii::StandardExceptions::ExcNotImplemented"** %this.addr, align 8
  %0 = bitcast %"class.dealii::StandardExceptions::ExcNotImplemented"* %this1 to %"class.dealii::ExceptionBase"*, !dbg !3586
  call void @_ZN6dealii13ExceptionBaseC2Ev(%"class.dealii::ExceptionBase"* %0), !dbg !3586
  %1 = bitcast %"class.dealii::StandardExceptions::ExcNotImplemented"* %this1 to i32 (...)***, !dbg !3586
  store i32 (...)** bitcast (i8** getelementptr inbounds ({ [6 x i8*] }, { [6 x i8*] }* @_ZTVN6dealii18StandardExceptions17ExcNotImplementedE, i32 0, inrange i32 0, i32 2) to i32 (...)**), i32 (...)*** %1, align 8, !dbg !3586
  ret void, !dbg !3586
}

declare dso_local i32 @__gxx_personality_v0(...)

; Function Attrs: noinline nounwind uwtable
define linkonce_odr dso_local void @_ZN6dealii18StandardExceptions17ExcNotImplementedD2Ev(%"class.dealii::StandardExceptions::ExcNotImplemented"* %this) unnamed_addr #1 comdat align 2 !dbg !3587 {
entry:
  %this.addr = alloca %"class.dealii::StandardExceptions::ExcNotImplemented"*, align 8
  store %"class.dealii::StandardExceptions::ExcNotImplemented"* %this, %"class.dealii::StandardExceptions::ExcNotImplemented"** %this.addr, align 8
  call void @llvm.dbg.declare(metadata %"class.dealii::StandardExceptions::ExcNotImplemented"** %this.addr, metadata !3589, metadata !DIExpression()), !dbg !3590
  %this1 = load %"class.dealii::StandardExceptions::ExcNotImplemented"*, %"class.dealii::StandardExceptions::ExcNotImplemented"** %this.addr, align 8
  %0 = bitcast %"class.dealii::StandardExceptions::ExcNotImplemented"* %this1 to %"class.dealii::ExceptionBase"*, !dbg !3591
  call void @_ZN6dealii13ExceptionBaseD2Ev(%"class.dealii::ExceptionBase"* %0) #7, !dbg !3591
  ret void, !dbg !3593
}

; Function Attrs: noinline uwtable
define weak_odr dso_local void @_ZN6dealii12GeometryInfoILi4EE25child_to_cell_coordinatesERKNS_5PointILi4EEEjNS_14RefinementCaseILi4EEE(%"class.dealii::Point.14"* noalias sret %agg.result, %"class.dealii::Point.14"* dereferenceable(32) %0, i32 %1, i8 %.coerce) #0 comdat align 2 personality i8* bitcast (i32 (...)* @__gxx_personality_v0 to i8*) !dbg !3594 {
entry:
  %result.ptr = alloca i8*, align 8
  %2 = alloca %"class.dealii::RefinementCase.12", align 1
  %.addr = alloca %"class.dealii::Point.14"*, align 8
  %.addr1 = alloca i32, align 4
  %agg.tmp = alloca %"class.dealii::StandardExceptions::ExcNotImplemented", align 8
  %exn.slot = alloca i8*
  %ehselector.slot = alloca i32
  %3 = bitcast %"class.dealii::Point.14"* %agg.result to i8*
  store i8* %3, i8** %result.ptr, align 8
  %coerce.dive = getelementptr inbounds %"class.dealii::RefinementCase.12", %"class.dealii::RefinementCase.12"* %2, i32 0, i32 0
  store i8 %.coerce, i8* %coerce.dive, align 1
  store %"class.dealii::Point.14"* %0, %"class.dealii::Point.14"** %.addr, align 8
  call void @llvm.dbg.declare(metadata %"class.dealii::Point.14"** %.addr, metadata !3595, metadata !DIExpression()), !dbg !3596
  store i32 %1, i32* %.addr1, align 4
  call void @llvm.dbg.declare(metadata i32* %.addr1, metadata !3597, metadata !DIExpression()), !dbg !3598
  call void @llvm.dbg.declare(metadata %"class.dealii::RefinementCase.12"* %2, metadata !3599, metadata !DIExpression()), !dbg !3600
  %4 = bitcast %"class.dealii::StandardExceptions::ExcNotImplemented"* %agg.tmp to i8*, !dbg !3601
  call void @llvm.memset.p0i8.i64(i8* align 8 %4, i8 0, i64 64, i1 false), !dbg !3601
  call void @_ZN6dealii18StandardExceptions17ExcNotImplementedC2Ev(%"class.dealii::StandardExceptions::ExcNotImplemented"* %agg.tmp), !dbg !3601
  invoke void @_ZN6dealii18deal_II_exceptions9internals17issue_error_throwINS_18StandardExceptions17ExcNotImplementedEEEvPKciS6_S6_S6_T_(i8* getelementptr inbounds ([29 x i8], [29 x i8]* @.str.5, i64 0, i64 0), i32 2639, i8* getelementptr inbounds ([1 x i8], [1 x i8]* @.str.6, i64 0, i64 0), i8* getelementptr inbounds ([6 x i8], [6 x i8]* @.str.7, i64 0, i64 0), i8* getelementptr inbounds ([20 x i8], [20 x i8]* @.str.8, i64 0, i64 0), %"class.dealii::StandardExceptions::ExcNotImplemented"* %agg.tmp)
          to label %invoke.cont unwind label %lpad, !dbg !3601

invoke.cont:                                      ; preds = %entry
  call void @_ZN6dealii18StandardExceptions17ExcNotImplementedD2Ev(%"class.dealii::StandardExceptions::ExcNotImplemented"* %agg.tmp) #7, !dbg !3601
  call void @_ZN6dealii5PointILi4EEC2Ev(%"class.dealii::Point.14"* %agg.result), !dbg !3604
  ret void, !dbg !3605

lpad:                                             ; preds = %entry
  %5 = landingpad { i8*, i32 }
          cleanup, !dbg !3606
  %6 = extractvalue { i8*, i32 } %5, 0, !dbg !3606
  store i8* %6, i8** %exn.slot, align 8, !dbg !3606
  %7 = extractvalue { i8*, i32 } %5, 1, !dbg !3606
  store i32 %7, i32* %ehselector.slot, align 4, !dbg !3606
  call void @_ZN6dealii18StandardExceptions17ExcNotImplementedD2Ev(%"class.dealii::StandardExceptions::ExcNotImplemented"* %agg.tmp) #7, !dbg !3601
  br label %eh.resume, !dbg !3601

eh.resume:                                        ; preds = %lpad
  %exn = load i8*, i8** %exn.slot, align 8, !dbg !3601
  %sel = load i32, i32* %ehselector.slot, align 4, !dbg !3601
  %lpad.val = insertvalue { i8*, i32 } undef, i8* %exn, 0, !dbg !3601
  %lpad.val2 = insertvalue { i8*, i32 } %lpad.val, i32 %sel, 1, !dbg !3601
  resume { i8*, i32 } %lpad.val2, !dbg !3601
}

; Function Attrs: noinline uwtable
define weak_odr dso_local void @_ZN6dealii12GeometryInfoILi4EE20project_to_unit_cellERKNS_5PointILi4EEE(%"class.dealii::Point.14"* noalias sret %agg.result, %"class.dealii::Point.14"* dereferenceable(32) %q) #0 comdat align 2 !dbg !3607 {
entry:
  %result.ptr = alloca i8*, align 8
  %q.addr = alloca %"class.dealii::Point.14"*, align 8
  %i = alloca i32, align 4
  %0 = bitcast %"class.dealii::Point.14"* %agg.result to i8*
  store i8* %0, i8** %result.ptr, align 8
  store %"class.dealii::Point.14"* %q, %"class.dealii::Point.14"** %q.addr, align 8
  call void @llvm.dbg.declare(metadata %"class.dealii::Point.14"** %q.addr, metadata !3608, metadata !DIExpression()), !dbg !3609
  call void @llvm.dbg.declare(metadata i8** %result.ptr, metadata !3610, metadata !DIExpression(DW_OP_deref)), !dbg !3611
  %1 = load %"class.dealii::Point.14"*, %"class.dealii::Point.14"** %q.addr, align 8, !dbg !3612
  call void @_ZN6dealii5PointILi4EEC2ERKS1_(%"class.dealii::Point.14"* %agg.result, %"class.dealii::Point.14"* dereferenceable(32) %1), !dbg !3612
  call void @llvm.dbg.declare(metadata i32* %i, metadata !3613, metadata !DIExpression()), !dbg !3615
  store i32 0, i32* %i, align 4, !dbg !3615
  br label %for.cond, !dbg !3616

for.cond:                                         ; preds = %for.inc, %entry
  %2 = load i32, i32* %i, align 4, !dbg !3617
  %cmp = icmp ult i32 %2, 4, !dbg !3619
  br i1 %cmp, label %for.body, label %for.end, !dbg !3620

for.body:                                         ; preds = %for.cond
  %3 = bitcast %"class.dealii::Point.14"* %agg.result to %"class.dealii::Tensor.15"*, !dbg !3621
  %4 = load i32, i32* %i, align 4, !dbg !3623
  %call = call dereferenceable(8) double* @_ZN6dealii6TensorILi1ELi4EEixEj(%"class.dealii::Tensor.15"* %3, i32 %4), !dbg !3621
  %5 = load double, double* %call, align 8, !dbg !3621
  %cmp1 = fcmp olt double %5, 0.000000e+00, !dbg !3624
  br i1 %cmp1, label %if.then, label %if.else, !dbg !3625

if.then:                                          ; preds = %for.body
  %6 = bitcast %"class.dealii::Point.14"* %agg.result to %"class.dealii::Tensor.15"*, !dbg !3626
  %7 = load i32, i32* %i, align 4, !dbg !3627
  %call2 = call dereferenceable(8) double* @_ZN6dealii6TensorILi1ELi4EEixEj(%"class.dealii::Tensor.15"* %6, i32 %7), !dbg !3626
  store double 0.000000e+00, double* %call2, align 8, !dbg !3628
  br label %if.end7, !dbg !3626

if.else:                                          ; preds = %for.body
  %8 = bitcast %"class.dealii::Point.14"* %agg.result to %"class.dealii::Tensor.15"*, !dbg !3629
  %9 = load i32, i32* %i, align 4, !dbg !3631
  %call3 = call dereferenceable(8) double* @_ZN6dealii6TensorILi1ELi4EEixEj(%"class.dealii::Tensor.15"* %8, i32 %9), !dbg !3629
  %10 = load double, double* %call3, align 8, !dbg !3629
  %cmp4 = fcmp ogt double %10, 1.000000e+00, !dbg !3632
  br i1 %cmp4, label %if.then5, label %if.end, !dbg !3633

if.then5:                                         ; preds = %if.else
  %11 = bitcast %"class.dealii::Point.14"* %agg.result to %"class.dealii::Tensor.15"*, !dbg !3634
  %12 = load i32, i32* %i, align 4, !dbg !3635
  %call6 = call dereferenceable(8) double* @_ZN6dealii6TensorILi1ELi4EEixEj(%"class.dealii::Tensor.15"* %11, i32 %12), !dbg !3634
  store double 1.000000e+00, double* %call6, align 8, !dbg !3636
  br label %if.end, !dbg !3634

if.end:                                           ; preds = %if.then5, %if.else
  br label %if.end7

if.end7:                                          ; preds = %if.end, %if.then
  br label %for.inc, !dbg !3637

for.inc:                                          ; preds = %if.end7
  %13 = load i32, i32* %i, align 4, !dbg !3638
  %inc = add i32 %13, 1, !dbg !3638
  store i32 %inc, i32* %i, align 4, !dbg !3638
  br label %for.cond, !dbg !3639, !llvm.loop !3640

for.end:                                          ; preds = %for.cond
  ret void, !dbg !3642
}

; Function Attrs: noinline uwtable
define linkonce_odr dso_local void @_ZN6dealii5PointILi4EEC2ERKS1_(%"class.dealii::Point.14"* %this, %"class.dealii::Point.14"* dereferenceable(32) %0) unnamed_addr #0 comdat align 2 !dbg !3643 {
entry:
  %this.addr = alloca %"class.dealii::Point.14"*, align 8
  %.addr = alloca %"class.dealii::Point.14"*, align 8
  store %"class.dealii::Point.14"* %this, %"class.dealii::Point.14"** %this.addr, align 8
  call void @llvm.dbg.declare(metadata %"class.dealii::Point.14"** %this.addr, metadata !3647, metadata !DIExpression()), !dbg !3648
  store %"class.dealii::Point.14"* %0, %"class.dealii::Point.14"** %.addr, align 8
  call void @llvm.dbg.declare(metadata %"class.dealii::Point.14"** %.addr, metadata !3649, metadata !DIExpression()), !dbg !3648
  %this1 = load %"class.dealii::Point.14"*, %"class.dealii::Point.14"** %this.addr, align 8
  %1 = bitcast %"class.dealii::Point.14"* %this1 to %"class.dealii::Tensor.15"*, !dbg !3650
  %2 = load %"class.dealii::Point.14"*, %"class.dealii::Point.14"** %.addr, align 8, !dbg !3650
  %3 = bitcast %"class.dealii::Point.14"* %2 to %"class.dealii::Tensor.15"*, !dbg !3650
  call void @_ZN6dealii6TensorILi1ELi4EEC2ERKS1_(%"class.dealii::Tensor.15"* %1, %"class.dealii::Tensor.15"* dereferenceable(32) %3), !dbg !3650
  ret void, !dbg !3650
}

; Function Attrs: noinline nounwind uwtable
define linkonce_odr dso_local dereferenceable(8) double* @_ZN6dealii6TensorILi1ELi4EEixEj(%"class.dealii::Tensor.15"* %this, i32 %index) #1 comdat align 2 !dbg !3651 {
entry:
  %this.addr = alloca %"class.dealii::Tensor.15"*, align 8
  %index.addr = alloca i32, align 4
  store %"class.dealii::Tensor.15"* %this, %"class.dealii::Tensor.15"** %this.addr, align 8
  call void @llvm.dbg.declare(metadata %"class.dealii::Tensor.15"** %this.addr, metadata !3652, metadata !DIExpression()), !dbg !3654
  store i32 %index, i32* %index.addr, align 4
  call void @llvm.dbg.declare(metadata i32* %index.addr, metadata !3655, metadata !DIExpression()), !dbg !3656
  %this1 = load %"class.dealii::Tensor.15"*, %"class.dealii::Tensor.15"** %this.addr, align 8
  %values = getelementptr inbounds %"class.dealii::Tensor.15", %"class.dealii::Tensor.15"* %this1, i32 0, i32 0, !dbg !3657
  %0 = load i32, i32* %index.addr, align 4, !dbg !3658
  %idxprom = zext i32 %0 to i64, !dbg !3657
  %arrayidx = getelementptr inbounds [4 x double], [4 x double]* %values, i64 0, i64 %idxprom, !dbg !3657
  ret double* %arrayidx, !dbg !3659
}

; Function Attrs: noinline uwtable
define weak_odr dso_local double @_ZN6dealii12GeometryInfoILi4EE21distance_to_unit_cellERKNS_5PointILi4EEE(%"class.dealii::Point.14"* dereferenceable(32) %p) #0 comdat align 2 !dbg !3660 {
entry:
  %p.addr = alloca %"class.dealii::Point.14"*, align 8
  %result = alloca double, align 8
  %i = alloca i32, align 4
  store %"class.dealii::Point.14"* %p, %"class.dealii::Point.14"** %p.addr, align 8
  call void @llvm.dbg.declare(metadata %"class.dealii::Point.14"** %p.addr, metadata !3661, metadata !DIExpression()), !dbg !3662
  call void @llvm.dbg.declare(metadata double* %result, metadata !3663, metadata !DIExpression()), !dbg !3664
  store double 0.000000e+00, double* %result, align 8, !dbg !3664
  call void @llvm.dbg.declare(metadata i32* %i, metadata !3665, metadata !DIExpression()), !dbg !3667
  store i32 0, i32* %i, align 4, !dbg !3667
  br label %for.cond, !dbg !3668

for.cond:                                         ; preds = %for.inc, %entry
  %0 = load i32, i32* %i, align 4, !dbg !3669
  %cmp = icmp ult i32 %0, 4, !dbg !3671
  br i1 %cmp, label %for.body, label %for.end, !dbg !3672

for.body:                                         ; preds = %for.cond
  %1 = load %"class.dealii::Point.14"*, %"class.dealii::Point.14"** %p.addr, align 8, !dbg !3673
  %2 = bitcast %"class.dealii::Point.14"* %1 to %"class.dealii::Tensor.15"*, !dbg !3673
  %3 = load i32, i32* %i, align 4, !dbg !3675
  %call = call double @_ZNK6dealii6TensorILi1ELi4EEixEj(%"class.dealii::Tensor.15"* %2, i32 %3), !dbg !3673
  %fneg = fneg double %call, !dbg !3676
  %4 = load double, double* %result, align 8, !dbg !3677
  %cmp1 = fcmp ogt double %fneg, %4, !dbg !3678
  br i1 %cmp1, label %if.then, label %if.else, !dbg !3679

if.then:                                          ; preds = %for.body
  %5 = load %"class.dealii::Point.14"*, %"class.dealii::Point.14"** %p.addr, align 8, !dbg !3680
  %6 = bitcast %"class.dealii::Point.14"* %5 to %"class.dealii::Tensor.15"*, !dbg !3680
  %7 = load i32, i32* %i, align 4, !dbg !3681
  %call2 = call double @_ZNK6dealii6TensorILi1ELi4EEixEj(%"class.dealii::Tensor.15"* %6, i32 %7), !dbg !3680
  %fneg3 = fneg double %call2, !dbg !3682
  store double %fneg3, double* %result, align 8, !dbg !3683
  br label %if.end9, !dbg !3684

if.else:                                          ; preds = %for.body
  %8 = load %"class.dealii::Point.14"*, %"class.dealii::Point.14"** %p.addr, align 8, !dbg !3685
  %9 = bitcast %"class.dealii::Point.14"* %8 to %"class.dealii::Tensor.15"*, !dbg !3685
  %10 = load i32, i32* %i, align 4, !dbg !3687
  %call4 = call double @_ZNK6dealii6TensorILi1ELi4EEixEj(%"class.dealii::Tensor.15"* %9, i32 %10), !dbg !3685
  %sub = fsub double %call4, 1.000000e+00, !dbg !3688
  %11 = load double, double* %result, align 8, !dbg !3689
  %cmp5 = fcmp ogt double %sub, %11, !dbg !3690
  br i1 %cmp5, label %if.then6, label %if.end, !dbg !3691

if.then6:                                         ; preds = %if.else
  %12 = load %"class.dealii::Point.14"*, %"class.dealii::Point.14"** %p.addr, align 8, !dbg !3692
  %13 = bitcast %"class.dealii::Point.14"* %12 to %"class.dealii::Tensor.15"*, !dbg !3692
  %14 = load i32, i32* %i, align 4, !dbg !3693
  %call7 = call double @_ZNK6dealii6TensorILi1ELi4EEixEj(%"class.dealii::Tensor.15"* %13, i32 %14), !dbg !3692
  %sub8 = fsub double %call7, 1.000000e+00, !dbg !3694
  store double %sub8, double* %result, align 8, !dbg !3695
  br label %if.end, !dbg !3696

if.end:                                           ; preds = %if.then6, %if.else
  br label %if.end9

if.end9:                                          ; preds = %if.end, %if.then
  br label %for.inc, !dbg !3677

for.inc:                                          ; preds = %if.end9
  %15 = load i32, i32* %i, align 4, !dbg !3697
  %inc = add i32 %15, 1, !dbg !3697
  store i32 %inc, i32* %i, align 4, !dbg !3697
  br label %for.cond, !dbg !3698, !llvm.loop !3699

for.end:                                          ; preds = %for.cond
  %16 = load double, double* %result, align 8, !dbg !3701
  ret double %16, !dbg !3702
}

; Function Attrs: noinline nounwind uwtable
define linkonce_odr dso_local double @_ZNK6dealii6TensorILi1ELi4EEixEj(%"class.dealii::Tensor.15"* %this, i32 %index) #1 comdat align 2 !dbg !3703 {
entry:
  %this.addr = alloca %"class.dealii::Tensor.15"*, align 8
  %index.addr = alloca i32, align 4
  store %"class.dealii::Tensor.15"* %this, %"class.dealii::Tensor.15"** %this.addr, align 8
  call void @llvm.dbg.declare(metadata %"class.dealii::Tensor.15"** %this.addr, metadata !3704, metadata !DIExpression()), !dbg !3706
  store i32 %index, i32* %index.addr, align 4
  call void @llvm.dbg.declare(metadata i32* %index.addr, metadata !3707, metadata !DIExpression()), !dbg !3708
  %this1 = load %"class.dealii::Tensor.15"*, %"class.dealii::Tensor.15"** %this.addr, align 8
  %values = getelementptr inbounds %"class.dealii::Tensor.15", %"class.dealii::Tensor.15"* %this1, i32 0, i32 0, !dbg !3709
  %0 = load i32, i32* %index.addr, align 4, !dbg !3710
  %idxprom = zext i32 %0 to i64, !dbg !3709
  %arrayidx = getelementptr inbounds [4 x double], [4 x double]* %values, i64 0, i64 %idxprom, !dbg !3709
  %1 = load double, double* %arrayidx, align 8, !dbg !3709
  ret double %1, !dbg !3711
}

; Function Attrs: noinline uwtable
define weak_odr dso_local void @_ZN6dealii12GeometryInfoILi4EE20ExcInvalidCoordinateC2Ed(%"class.dealii::GeometryInfo<4>::ExcInvalidCoordinate"* %this, double %a1) unnamed_addr #0 comdat($_ZN6dealii12GeometryInfoILi4EE20ExcInvalidCoordinateC5Ed) align 2 !dbg !3712 {
entry:
  %this.addr = alloca %"class.dealii::GeometryInfo<4>::ExcInvalidCoordinate"*, align 8
  %a1.addr = alloca double, align 8
  store %"class.dealii::GeometryInfo<4>::ExcInvalidCoordinate"* %this, %"class.dealii::GeometryInfo<4>::ExcInvalidCoordinate"** %this.addr, align 8
  call void @llvm.dbg.declare(metadata %"class.dealii::GeometryInfo<4>::ExcInvalidCoordinate"** %this.addr, metadata !3729, metadata !DIExpression()), !dbg !3731
  store double %a1, double* %a1.addr, align 8
  call void @llvm.dbg.declare(metadata double* %a1.addr, metadata !3732, metadata !DIExpression()), !dbg !3733
  %this1 = load %"class.dealii::GeometryInfo<4>::ExcInvalidCoordinate"*, %"class.dealii::GeometryInfo<4>::ExcInvalidCoordinate"** %this.addr, align 8
  %0 = bitcast %"class.dealii::GeometryInfo<4>::ExcInvalidCoordinate"* %this1 to %"class.dealii::ExceptionBase"*, !dbg !3733
  call void @_ZN6dealii13ExceptionBaseC2Ev(%"class.dealii::ExceptionBase"* %0), !dbg !3733
  %1 = bitcast %"class.dealii::GeometryInfo<4>::ExcInvalidCoordinate"* %this1 to i32 (...)***, !dbg !3733
  store i32 (...)** bitcast (i8** getelementptr inbounds ({ [6 x i8*] }, { [6 x i8*] }* @_ZTVN6dealii12GeometryInfoILi4EE20ExcInvalidCoordinateE, i32 0, inrange i32 0, i32 2) to i32 (...)**), i32 (...)*** %1, align 8, !dbg !3733
  %arg1 = getelementptr inbounds %"class.dealii::GeometryInfo<4>::ExcInvalidCoordinate", %"class.dealii::GeometryInfo<4>::ExcInvalidCoordinate"* %this1, i32 0, i32 1, !dbg !3733
  %2 = load double, double* %a1.addr, align 8, !dbg !3733
  store double %2, double* %arg1, align 8, !dbg !3733
  ret void, !dbg !3733
}

; Function Attrs: noinline nounwind uwtable
define weak_odr dso_local void @_ZN6dealii12GeometryInfoILi4EE20ExcInvalidCoordinateD2Ev(%"class.dealii::GeometryInfo<4>::ExcInvalidCoordinate"* %this) unnamed_addr #1 comdat($_ZN6dealii12GeometryInfoILi4EE20ExcInvalidCoordinateD5Ev) align 2 !dbg !3734 {
entry:
  %this.addr = alloca %"class.dealii::GeometryInfo<4>::ExcInvalidCoordinate"*, align 8
  store %"class.dealii::GeometryInfo<4>::ExcInvalidCoordinate"* %this, %"class.dealii::GeometryInfo<4>::ExcInvalidCoordinate"** %this.addr, align 8
  call void @llvm.dbg.declare(metadata %"class.dealii::GeometryInfo<4>::ExcInvalidCoordinate"** %this.addr, metadata !3735, metadata !DIExpression()), !dbg !3736
  %this1 = load %"class.dealii::GeometryInfo<4>::ExcInvalidCoordinate"*, %"class.dealii::GeometryInfo<4>::ExcInvalidCoordinate"** %this.addr, align 8
  %0 = bitcast %"class.dealii::GeometryInfo<4>::ExcInvalidCoordinate"* %this1 to %"class.dealii::ExceptionBase"*, !dbg !3737
  call void @_ZN6dealii13ExceptionBaseD2Ev(%"class.dealii::ExceptionBase"* %0) #7, !dbg !3737
  ret void, !dbg !3739
}

; Function Attrs: noinline nounwind uwtable
define weak_odr dso_local void @_ZN6dealii12GeometryInfoILi4EE20ExcInvalidCoordinateD0Ev(%"class.dealii::GeometryInfo<4>::ExcInvalidCoordinate"* %this) unnamed_addr #1 comdat($_ZN6dealii12GeometryInfoILi4EE20ExcInvalidCoordinateD5Ev) align 2 !dbg !3740 {
entry:
  %this.addr = alloca %"class.dealii::GeometryInfo<4>::ExcInvalidCoordinate"*, align 8
  store %"class.dealii::GeometryInfo<4>::ExcInvalidCoordinate"* %this, %"class.dealii::GeometryInfo<4>::ExcInvalidCoordinate"** %this.addr, align 8
  call void @llvm.dbg.declare(metadata %"class.dealii::GeometryInfo<4>::ExcInvalidCoordinate"** %this.addr, metadata !3741, metadata !DIExpression()), !dbg !3742
  %this1 = load %"class.dealii::GeometryInfo<4>::ExcInvalidCoordinate"*, %"class.dealii::GeometryInfo<4>::ExcInvalidCoordinate"** %this.addr, align 8
  call void @_ZN6dealii12GeometryInfoILi4EE20ExcInvalidCoordinateD1Ev(%"class.dealii::GeometryInfo<4>::ExcInvalidCoordinate"* %this1) #7, !dbg !3743
  %0 = bitcast %"class.dealii::GeometryInfo<4>::ExcInvalidCoordinate"* %this1 to i8*, !dbg !3743
  call void @_ZdlPv(i8* %0) #8, !dbg !3743
  ret void, !dbg !3743
}

; Function Attrs: noinline uwtable
define weak_odr dso_local void @_ZNK6dealii12GeometryInfoILi4EE20ExcInvalidCoordinate10print_infoERSo(%"class.dealii::GeometryInfo<4>::ExcInvalidCoordinate"* %this, %"class.std::basic_ostream"* dereferenceable(272) %out) unnamed_addr #0 comdat align 2 !dbg !3744 {
entry:
  %this.addr = alloca %"class.dealii::GeometryInfo<4>::ExcInvalidCoordinate"*, align 8
  %out.addr = alloca %"class.std::basic_ostream"*, align 8
  store %"class.dealii::GeometryInfo<4>::ExcInvalidCoordinate"* %this, %"class.dealii::GeometryInfo<4>::ExcInvalidCoordinate"** %this.addr, align 8
  call void @llvm.dbg.declare(metadata %"class.dealii::GeometryInfo<4>::ExcInvalidCoordinate"** %this.addr, metadata !3745, metadata !DIExpression()), !dbg !3747
  store %"class.std::basic_ostream"* %out, %"class.std::basic_ostream"** %out.addr, align 8
  call void @llvm.dbg.declare(metadata %"class.std::basic_ostream"** %out.addr, metadata !3748, metadata !DIExpression()), !dbg !3749
  %this1 = load %"class.dealii::GeometryInfo<4>::ExcInvalidCoordinate"*, %"class.dealii::GeometryInfo<4>::ExcInvalidCoordinate"** %this.addr, align 8
  %0 = load %"class.std::basic_ostream"*, %"class.std::basic_ostream"** %out.addr, align 8, !dbg !3749
  %call = call dereferenceable(272) %"class.std::basic_ostream"* @_ZStlsISt11char_traitsIcEERSt13basic_ostreamIcT_ES5_PKc(%"class.std::basic_ostream"* dereferenceable(272) %0, i8* getelementptr inbounds ([45 x i8], [45 x i8]* @.str, i64 0, i64 0)), !dbg !3749
  %call2 = call dereferenceable(272) %"class.std::basic_ostream"* @_ZStlsISt11char_traitsIcEERSt13basic_ostreamIcT_ES5_PKc(%"class.std::basic_ostream"* dereferenceable(272) %call, i8* getelementptr inbounds ([22 x i8], [22 x i8]* @.str.1, i64 0, i64 0)), !dbg !3749
  %arg1 = getelementptr inbounds %"class.dealii::GeometryInfo<4>::ExcInvalidCoordinate", %"class.dealii::GeometryInfo<4>::ExcInvalidCoordinate"* %this1, i32 0, i32 1, !dbg !3749
  %1 = load double, double* %arg1, align 8, !dbg !3749
  %call3 = call dereferenceable(272) %"class.std::basic_ostream"* @_ZNSolsEd(%"class.std::basic_ostream"* %call2, double %1), !dbg !3749
  %call4 = call dereferenceable(272) %"class.std::basic_ostream"* @_ZNSolsEPFRSoS_E(%"class.std::basic_ostream"* %call3, %"class.std::basic_ostream"* (%"class.std::basic_ostream"*)* @_ZSt4endlIcSt11char_traitsIcEERSt13basic_ostreamIT_T0_ES6_), !dbg !3749
  ret void, !dbg !3749
}

; Function Attrs: noinline uwtable
define weak_odr dso_local void @_ZN6dealii12GeometryInfoILi4EE17ExcInvalidSubfaceC2Eiii(%"class.dealii::GeometryInfo<4>::ExcInvalidSubface"* %this, i32 %a1, i32 %a2, i32 %a3) unnamed_addr #0 comdat($_ZN6dealii12GeometryInfoILi4EE17ExcInvalidSubfaceC5Eiii) align 2 !dbg !3750 {
entry:
  %this.addr = alloca %"class.dealii::GeometryInfo<4>::ExcInvalidSubface"*, align 8
  %a1.addr = alloca i32, align 4
  %a2.addr = alloca i32, align 4
  %a3.addr = alloca i32, align 4
  store %"class.dealii::GeometryInfo<4>::ExcInvalidSubface"* %this, %"class.dealii::GeometryInfo<4>::ExcInvalidSubface"** %this.addr, align 8
  call void @llvm.dbg.declare(metadata %"class.dealii::GeometryInfo<4>::ExcInvalidSubface"** %this.addr, metadata !3769, metadata !DIExpression()), !dbg !3771
  store i32 %a1, i32* %a1.addr, align 4
  call void @llvm.dbg.declare(metadata i32* %a1.addr, metadata !3772, metadata !DIExpression()), !dbg !3773
  store i32 %a2, i32* %a2.addr, align 4
  call void @llvm.dbg.declare(metadata i32* %a2.addr, metadata !3774, metadata !DIExpression()), !dbg !3773
  store i32 %a3, i32* %a3.addr, align 4
  call void @llvm.dbg.declare(metadata i32* %a3.addr, metadata !3775, metadata !DIExpression()), !dbg !3773
  %this1 = load %"class.dealii::GeometryInfo<4>::ExcInvalidSubface"*, %"class.dealii::GeometryInfo<4>::ExcInvalidSubface"** %this.addr, align 8
  %0 = bitcast %"class.dealii::GeometryInfo<4>::ExcInvalidSubface"* %this1 to %"class.dealii::ExceptionBase"*, !dbg !3773
  call void @_ZN6dealii13ExceptionBaseC2Ev(%"class.dealii::ExceptionBase"* %0), !dbg !3773
  %1 = bitcast %"class.dealii::GeometryInfo<4>::ExcInvalidSubface"* %this1 to i32 (...)***, !dbg !3773
  store i32 (...)** bitcast (i8** getelementptr inbounds ({ [6 x i8*] }, { [6 x i8*] }* @_ZTVN6dealii12GeometryInfoILi4EE17ExcInvalidSubfaceE, i32 0, inrange i32 0, i32 2) to i32 (...)**), i32 (...)*** %1, align 8, !dbg !3773
  %arg1 = getelementptr inbounds %"class.dealii::GeometryInfo<4>::ExcInvalidSubface", %"class.dealii::GeometryInfo<4>::ExcInvalidSubface"* %this1, i32 0, i32 1, !dbg !3773
  %2 = load i32, i32* %a1.addr, align 4, !dbg !3773
  store i32 %2, i32* %arg1, align 4, !dbg !3773
  %arg2 = getelementptr inbounds %"class.dealii::GeometryInfo<4>::ExcInvalidSubface", %"class.dealii::GeometryInfo<4>::ExcInvalidSubface"* %this1, i32 0, i32 2, !dbg !3773
  %3 = load i32, i32* %a2.addr, align 4, !dbg !3773
  store i32 %3, i32* %arg2, align 8, !dbg !3773
  %arg3 = getelementptr inbounds %"class.dealii::GeometryInfo<4>::ExcInvalidSubface", %"class.dealii::GeometryInfo<4>::ExcInvalidSubface"* %this1, i32 0, i32 3, !dbg !3773
  %4 = load i32, i32* %a3.addr, align 4, !dbg !3773
  store i32 %4, i32* %arg3, align 4, !dbg !3773
  ret void, !dbg !3773
}

; Function Attrs: noinline nounwind uwtable
define weak_odr dso_local void @_ZN6dealii12GeometryInfoILi4EE17ExcInvalidSubfaceD2Ev(%"class.dealii::GeometryInfo<4>::ExcInvalidSubface"* %this) unnamed_addr #1 comdat($_ZN6dealii12GeometryInfoILi4EE17ExcInvalidSubfaceD5Ev) align 2 !dbg !3776 {
entry:
  %this.addr = alloca %"class.dealii::GeometryInfo<4>::ExcInvalidSubface"*, align 8
  store %"class.dealii::GeometryInfo<4>::ExcInvalidSubface"* %this, %"class.dealii::GeometryInfo<4>::ExcInvalidSubface"** %this.addr, align 8
  call void @llvm.dbg.declare(metadata %"class.dealii::GeometryInfo<4>::ExcInvalidSubface"** %this.addr, metadata !3777, metadata !DIExpression()), !dbg !3778
  %this1 = load %"class.dealii::GeometryInfo<4>::ExcInvalidSubface"*, %"class.dealii::GeometryInfo<4>::ExcInvalidSubface"** %this.addr, align 8
  %0 = bitcast %"class.dealii::GeometryInfo<4>::ExcInvalidSubface"* %this1 to %"class.dealii::ExceptionBase"*, !dbg !3779
  call void @_ZN6dealii13ExceptionBaseD2Ev(%"class.dealii::ExceptionBase"* %0) #7, !dbg !3779
  ret void, !dbg !3781
}

; Function Attrs: noinline nounwind uwtable
define weak_odr dso_local void @_ZN6dealii12GeometryInfoILi4EE17ExcInvalidSubfaceD0Ev(%"class.dealii::GeometryInfo<4>::ExcInvalidSubface"* %this) unnamed_addr #1 comdat($_ZN6dealii12GeometryInfoILi4EE17ExcInvalidSubfaceD5Ev) align 2 !dbg !3782 {
entry:
  %this.addr = alloca %"class.dealii::GeometryInfo<4>::ExcInvalidSubface"*, align 8
  store %"class.dealii::GeometryInfo<4>::ExcInvalidSubface"* %this, %"class.dealii::GeometryInfo<4>::ExcInvalidSubface"** %this.addr, align 8
  call void @llvm.dbg.declare(metadata %"class.dealii::GeometryInfo<4>::ExcInvalidSubface"** %this.addr, metadata !3783, metadata !DIExpression()), !dbg !3784
  %this1 = load %"class.dealii::GeometryInfo<4>::ExcInvalidSubface"*, %"class.dealii::GeometryInfo<4>::ExcInvalidSubface"** %this.addr, align 8
  call void @_ZN6dealii12GeometryInfoILi4EE17ExcInvalidSubfaceD1Ev(%"class.dealii::GeometryInfo<4>::ExcInvalidSubface"* %this1) #7, !dbg !3785
  %0 = bitcast %"class.dealii::GeometryInfo<4>::ExcInvalidSubface"* %this1 to i8*, !dbg !3785
  call void @_ZdlPv(i8* %0) #8, !dbg !3785
  ret void, !dbg !3785
}

; Function Attrs: noinline uwtable
define weak_odr dso_local void @_ZNK6dealii12GeometryInfoILi4EE17ExcInvalidSubface10print_infoERSo(%"class.dealii::GeometryInfo<4>::ExcInvalidSubface"* %this, %"class.std::basic_ostream"* dereferenceable(272) %out) unnamed_addr #0 comdat align 2 !dbg !3786 {
entry:
  %this.addr = alloca %"class.dealii::GeometryInfo<4>::ExcInvalidSubface"*, align 8
  %out.addr = alloca %"class.std::basic_ostream"*, align 8
  store %"class.dealii::GeometryInfo<4>::ExcInvalidSubface"* %this, %"class.dealii::GeometryInfo<4>::ExcInvalidSubface"** %this.addr, align 8
  call void @llvm.dbg.declare(metadata %"class.dealii::GeometryInfo<4>::ExcInvalidSubface"** %this.addr, metadata !3787, metadata !DIExpression()), !dbg !3789
  store %"class.std::basic_ostream"* %out, %"class.std::basic_ostream"** %out.addr, align 8
  call void @llvm.dbg.declare(metadata %"class.std::basic_ostream"** %out.addr, metadata !3790, metadata !DIExpression()), !dbg !3791
  %this1 = load %"class.dealii::GeometryInfo<4>::ExcInvalidSubface"*, %"class.dealii::GeometryInfo<4>::ExcInvalidSubface"** %this.addr, align 8
  %0 = load %"class.std::basic_ostream"*, %"class.std::basic_ostream"** %out.addr, align 8, !dbg !3791
  %call = call dereferenceable(272) %"class.std::basic_ostream"* @_ZStlsISt11char_traitsIcEERSt13basic_ostreamIcT_ES5_PKc(%"class.std::basic_ostream"* dereferenceable(272) %0, i8* getelementptr inbounds ([21 x i8], [21 x i8]* @.str.2, i64 0, i64 0)), !dbg !3791
  %arg1 = getelementptr inbounds %"class.dealii::GeometryInfo<4>::ExcInvalidSubface", %"class.dealii::GeometryInfo<4>::ExcInvalidSubface"* %this1, i32 0, i32 1, !dbg !3791
  %1 = load i32, i32* %arg1, align 4, !dbg !3791
  %call2 = call dereferenceable(272) %"class.std::basic_ostream"* @_ZNSolsEi(%"class.std::basic_ostream"* %call, i32 %1), !dbg !3791
  %call3 = call dereferenceable(272) %"class.std::basic_ostream"* @_ZStlsISt11char_traitsIcEERSt13basic_ostreamIcT_ES5_PKc(%"class.std::basic_ostream"* dereferenceable(272) %call2, i8* getelementptr inbounds ([8 x i8], [8 x i8]* @.str.3, i64 0, i64 0)), !dbg !3791
  %arg2 = getelementptr inbounds %"class.dealii::GeometryInfo<4>::ExcInvalidSubface", %"class.dealii::GeometryInfo<4>::ExcInvalidSubface"* %this1, i32 0, i32 2, !dbg !3791
  %2 = load i32, i32* %arg2, align 8, !dbg !3791
  %call4 = call dereferenceable(272) %"class.std::basic_ostream"* @_ZNSolsEi(%"class.std::basic_ostream"* %call3, i32 %2), !dbg !3791
  %call5 = call dereferenceable(272) %"class.std::basic_ostream"* @_ZStlsISt11char_traitsIcEERSt13basic_ostreamIcT_ES5_PKc(%"class.std::basic_ostream"* dereferenceable(272) %call4, i8* getelementptr inbounds ([17 x i8], [17 x i8]* @.str.4, i64 0, i64 0)), !dbg !3791
  %arg3 = getelementptr inbounds %"class.dealii::GeometryInfo<4>::ExcInvalidSubface", %"class.dealii::GeometryInfo<4>::ExcInvalidSubface"* %this1, i32 0, i32 3, !dbg !3791
  %3 = load i32, i32* %arg3, align 4, !dbg !3791
  %call6 = call dereferenceable(272) %"class.std::basic_ostream"* @_ZNSolsEi(%"class.std::basic_ostream"* %call5, i32 %3), !dbg !3791
  %call7 = call dereferenceable(272) %"class.std::basic_ostream"* @_ZNSolsEPFRSoS_E(%"class.std::basic_ostream"* %call6, %"class.std::basic_ostream"* (%"class.std::basic_ostream"*)* @_ZSt4endlIcSt11char_traitsIcEERSt13basic_ostreamIT_T0_ES6_), !dbg !3791
  ret void, !dbg !3791
}

; Function Attrs: noinline nounwind uwtable
define dso_local i32 @_ZN6dealii12GeometryInfoILi0EE10n_childrenERKNS_14RefinementCaseILi0EEE(%"class.dealii::RefinementCase.0"* dereferenceable(1) %0) #1 align 2 !dbg !3792 {
entry:
  %.addr = alloca %"class.dealii::RefinementCase.0"*, align 8
  store %"class.dealii::RefinementCase.0"* %0, %"class.dealii::RefinementCase.0"** %.addr, align 8
  call void @llvm.dbg.declare(metadata %"class.dealii::RefinementCase.0"** %.addr, metadata !3808, metadata !DIExpression()), !dbg !3809
  ret i32 0, !dbg !3810
}

; Function Attrs: noinline nounwind uwtable
define dso_local i32 @_ZN6dealii12GeometryInfoILi1EE10n_subfacesERKNS_8internal11SubfaceCaseILi1EEE(%"class.dealii::internal::SubfaceCase.16"* nonnull %0) #1 align 2 !dbg !3811 {
entry:
  %.addr = alloca %"class.dealii::internal::SubfaceCase.16"*, align 8
  store %"class.dealii::internal::SubfaceCase.16"* %0, %"class.dealii::internal::SubfaceCase.16"** %.addr, align 8
  call void @llvm.dbg.declare(metadata %"class.dealii::internal::SubfaceCase.16"** %.addr, metadata !3812, metadata !DIExpression()), !dbg !3813
  ret i32 0, !dbg !3814
}

; Function Attrs: noinline uwtable
define dso_local i32 @_ZN6dealii12GeometryInfoILi2EE10n_subfacesERKNS_8internal11SubfaceCaseILi2EEE(%"class.dealii::internal::SubfaceCase"* dereferenceable(1) %subface_case) #0 align 2 !dbg !3815 {
entry:
  %subface_case.addr = alloca %"class.dealii::internal::SubfaceCase"*, align 8
  store %"class.dealii::internal::SubfaceCase"* %subface_case, %"class.dealii::internal::SubfaceCase"** %subface_case.addr, align 8
  call void @llvm.dbg.declare(metadata %"class.dealii::internal::SubfaceCase"** %subface_case.addr, metadata !3816, metadata !DIExpression()), !dbg !3817
  %0 = load %"class.dealii::internal::SubfaceCase"*, %"class.dealii::internal::SubfaceCase"** %subface_case.addr, align 8, !dbg !3818
  %call = call zeroext i8 @_ZNK6dealii8internal11SubfaceCaseILi2EEcvhEv(%"class.dealii::internal::SubfaceCase"* %0), !dbg !3818
  %conv = zext i8 %call to i32, !dbg !3818
  %cmp = icmp eq i32 %conv, 1, !dbg !3819
  %1 = zext i1 %cmp to i64, !dbg !3820
  %cond = select i1 %cmp, i32 2, i32 0, !dbg !3820
  ret i32 %cond, !dbg !3821
}

; Function Attrs: noinline nounwind uwtable
define linkonce_odr dso_local zeroext i8 @_ZNK6dealii8internal11SubfaceCaseILi2EEcvhEv(%"class.dealii::internal::SubfaceCase"* %this) #1 comdat align 2 !dbg !3822 {
entry:
  %this.addr = alloca %"class.dealii::internal::SubfaceCase"*, align 8
  store %"class.dealii::internal::SubfaceCase"* %this, %"class.dealii::internal::SubfaceCase"** %this.addr, align 8
  call void @llvm.dbg.declare(metadata %"class.dealii::internal::SubfaceCase"** %this.addr, metadata !3823, metadata !DIExpression()), !dbg !3825
  %this1 = load %"class.dealii::internal::SubfaceCase"*, %"class.dealii::internal::SubfaceCase"** %this.addr, align 8
  %0 = bitcast %"class.dealii::internal::SubfaceCase"* %this1 to i8*, !dbg !3826
  %bf.load = load i8, i8* %0, align 1, !dbg !3826
  %bf.clear = and i8 %bf.load, 1, !dbg !3826
  ret i8 %bf.clear, !dbg !3827
}

; Function Attrs: noinline uwtable
define dso_local i32 @_ZN6dealii12GeometryInfoILi3EE10n_subfacesERKNS_8internal11SubfaceCaseILi3EEE(%"class.dealii::internal::SubfaceCase.8"* dereferenceable(1) %subface_case) #0 align 2 !dbg !1192 {
entry:
  %subface_case.addr = alloca %"class.dealii::internal::SubfaceCase.8"*, align 8
  store %"class.dealii::internal::SubfaceCase.8"* %subface_case, %"class.dealii::internal::SubfaceCase.8"** %subface_case.addr, align 8
  call void @llvm.dbg.declare(metadata %"class.dealii::internal::SubfaceCase.8"** %subface_case.addr, metadata !3828, metadata !DIExpression()), !dbg !3829
  %0 = load %"class.dealii::internal::SubfaceCase.8"*, %"class.dealii::internal::SubfaceCase.8"** %subface_case.addr, align 8, !dbg !3830
  %call = call zeroext i8 @_ZNK6dealii8internal11SubfaceCaseILi3EEcvhEv(%"class.dealii::internal::SubfaceCase.8"* %0), !dbg !3830
  %idxprom = zext i8 %call to i64, !dbg !3831
  %arrayidx = getelementptr inbounds [10 x i32], [10 x i32]* @_ZZN6dealii12GeometryInfoILi3EE10n_subfacesERKNS_8internal11SubfaceCaseILi3EEEE5nsubs, i64 0, i64 %idxprom, !dbg !3831
  %1 = load i32, i32* %arrayidx, align 4, !dbg !3831
  ret i32 %1, !dbg !3832
}

; Function Attrs: noinline nounwind uwtable
define linkonce_odr dso_local zeroext i8 @_ZNK6dealii8internal11SubfaceCaseILi3EEcvhEv(%"class.dealii::internal::SubfaceCase.8"* %this) #1 comdat align 2 !dbg !3833 {
entry:
  %this.addr = alloca %"class.dealii::internal::SubfaceCase.8"*, align 8
  store %"class.dealii::internal::SubfaceCase.8"* %this, %"class.dealii::internal::SubfaceCase.8"** %this.addr, align 8
  call void @llvm.dbg.declare(metadata %"class.dealii::internal::SubfaceCase.8"** %this.addr, metadata !3834, metadata !DIExpression()), !dbg !3836
  %this1 = load %"class.dealii::internal::SubfaceCase.8"*, %"class.dealii::internal::SubfaceCase.8"** %this.addr, align 8
  %0 = bitcast %"class.dealii::internal::SubfaceCase.8"* %this1 to i8*, !dbg !3837
  %bf.load = load i8, i8* %0, align 1, !dbg !3837
  %bf.clear = and i8 %bf.load, 15, !dbg !3837
  ret i8 %bf.clear, !dbg !3838
}

; Function Attrs: noinline nounwind uwtable
