; ModuleID = 'source/multigrid/mg_dof_handler.cc'
source_filename = "source/multigrid/mg_dof_handler.cc"
target datalayout = "e-m:e-p270:32:32-p271:32:32-p272:64:64-i64:64-f80:128-n8:16:32:64-S128"
target triple = "x86_64-unknown-linux-gnu"

%"class.std::ios_base::Init" = type { i8 }
%"struct.boost::arg" = type { i8 }
%"struct.boost::arg.0" = type { i8 }
%"struct.boost::arg.2" = type { i8 }
%"struct.boost::arg.4" = type { i8 }
%"struct.boost::arg.6" = type { i8 }
%"struct.boost::arg.8" = type { i8 }
%"struct.boost::arg.10" = type { i8 }
%"struct.boost::arg.12" = type { i8 }
%"struct.boost::arg.14" = type { i8 }
%"class.dealii::MGDoFHandler" = type { %"class.dealii::DoFHandler", %"class.std::vector.146", %"class.dealii::internal::DoFHandler::DoFFaces"*, %"class.std::vector.154", %"class.std::vector.33" }
%"class.dealii::DoFHandler" = type { %"class.dealii::Subscriptor", %"class.dealii::SmartPointer", %"class.dealii::SmartPointer.109", %"class.std::vector.146", %"class.dealii::internal::DoFHandler::DoFFaces"*, i32, %"class.std::vector.33" }
%"class.dealii::Subscriptor" = type { i32 (...)**, i32, %"class.std::map", %"class.std::type_info"* }
%"class.std::map" = type { %"class.std::_Rb_tree" }
%"class.std::_Rb_tree" = type { %"struct.std::_Rb_tree<const char *, std::pair<const char *const, unsigned int>, std::_Select1st<std::pair<const char *const, unsigned int> >, std::less<const char *>, std::allocator<std::pair<const char *const, unsigned int> > >::_Rb_tree_impl" }
%"struct.std::_Rb_tree<const char *, std::pair<const char *const, unsigned int>, std::_Select1st<std::pair<const char *const, unsigned int> >, std::less<const char *>, std::allocator<std::pair<const char *const, unsigned int> > >::_Rb_tree_impl" = type { %"struct.std::_Rb_tree_key_compare", %"struct.std::_Rb_tree_header" }
%"struct.std::_Rb_tree_key_compare" = type { %"struct.std::less" }
%"struct.std::less" = type { i8 }
%"struct.std::_Rb_tree_header" = type { %"struct.std::_Rb_tree_node_base", i64 }
%"struct.std::_Rb_tree_node_base" = type { i32, %"struct.std::_Rb_tree_node_base"*, %"struct.std::_Rb_tree_node_base"*, %"struct.std::_Rb_tree_node_base"* }
%"class.std::type_info" = type { i32 (...)**, i8* }
%"class.dealii::SmartPointer" = type { %"class.dealii::Triangulation"*, i8* }
%"class.dealii::SmartPointer.109" = type { %"class.dealii::FiniteElement"*, i8* }
%"class.dealii::FiniteElement" = type { %"class.dealii::Subscriptor", %"class.dealii::FiniteElementData", i8, %"class.std::vector.110", %"class.std::vector.110", %"class.dealii::FullMatrix", %"class.std::vector.98", %"class.std::vector.116", %"class.std::vector.98", %"class.std::vector.116", %"class.dealii::Table.123", %"class.std::vector.43", %"class.std::vector.127", %"class.std::vector.127", %"class.std::vector.133", %"class.std::vector.133", %"class.std::vector.33", %"class.std::vector.133", %"class.std::vector.24", %"class.std::vector.141", %"class.std::vector.33" }
%"class.dealii::FiniteElementData" = type { i32, i32, i32, i32, i32, i32, i32, i32, i32, i32, i32, i32, i32, i32, i32 }
%"class.std::vector.110" = type { %"struct.std::_Vector_base.111" }
%"struct.std::_Vector_base.111" = type { %"struct.std::_Vector_base<std::vector<dealii::FullMatrix<double>, std::allocator<dealii::FullMatrix<double> > >, std::allocator<std::vector<dealii::FullMatrix<double>, std::allocator<dealii::FullMatrix<double> > > > >::_Vector_impl" }
%"struct.std::_Vector_base<std::vector<dealii::FullMatrix<double>, std::allocator<dealii::FullMatrix<double> > >, std::allocator<std::vector<dealii::FullMatrix<double>, std::allocator<dealii::FullMatrix<double> > > > >::_Vector_impl" = type { %"struct.std::_Vector_base<std::vector<dealii::FullMatrix<double>, std::allocator<dealii::FullMatrix<double> > >, std::allocator<std::vector<dealii::FullMatrix<double>, std::allocator<dealii::FullMatrix<double> > > > >::_Vector_impl_data" }
%"struct.std::_Vector_base<std::vector<dealii::FullMatrix<double>, std::allocator<dealii::FullMatrix<double> > >, std::allocator<std::vector<dealii::FullMatrix<double>, std::allocator<dealii::FullMatrix<double> > > > >::_Vector_impl_data" = type { %"class.std::vector.115"*, %"class.std::vector.115"*, %"class.std::vector.115"* }
%"class.std::vector.115" = type opaque
%"class.dealii::FullMatrix" = type { %"class.dealii::Table.base", [4 x i8] }
%"class.dealii::Table.base" = type { %"class.dealii::TableBase.base" }
%"class.dealii::TableBase.base" = type <{ %"class.dealii::Subscriptor", double*, i32, %"class.dealii::TableIndices" }>
%"class.dealii::TableIndices" = type { %"class.dealii::TableIndicesBase" }
%"class.dealii::TableIndicesBase" = type { [2 x i32] }
%"class.std::vector.98" = type { %"struct.std::_Vector_base.99" }
%"struct.std::_Vector_base.99" = type { %"struct.std::_Vector_base<dealii::Point<3>, std::allocator<dealii::Point<3> > >::_Vector_impl" }
%"struct.std::_Vector_base<dealii::Point<3>, std::allocator<dealii::Point<3> > >::_Vector_impl" = type { %"struct.std::_Vector_base<dealii::Point<3>, std::allocator<dealii::Point<3> > >::_Vector_impl_data" }
%"struct.std::_Vector_base<dealii::Point<3>, std::allocator<dealii::Point<3> > >::_Vector_impl_data" = type { %"class.dealii::Point"*, %"class.dealii::Point"*, %"class.dealii::Point"* }
%"class.dealii::Point" = type { %"class.dealii::Tensor" }
%"class.dealii::Tensor" = type { [3 x double] }
%"class.std::vector.116" = type { %"struct.std::_Vector_base.117" }
%"struct.std::_Vector_base.117" = type { %"struct.std::_Vector_base<dealii::Point<2>, std::allocator<dealii::Point<2> > >::_Vector_impl" }
%"struct.std::_Vector_base<dealii::Point<2>, std::allocator<dealii::Point<2> > >::_Vector_impl" = type { %"struct.std::_Vector_base<dealii::Point<2>, std::allocator<dealii::Point<2> > >::_Vector_impl_data" }
%"struct.std::_Vector_base<dealii::Point<2>, std::allocator<dealii::Point<2> > >::_Vector_impl_data" = type { %"class.dealii::Point.121"*, %"class.dealii::Point.121"*, %"class.dealii::Point.121"* }
%"class.dealii::Point.121" = type { %"class.dealii::Tensor.122" }
%"class.dealii::Tensor.122" = type { [2 x double] }
%"class.dealii::Table.123" = type { %"class.dealii::TableBase.base.125", [4 x i8] }
%"class.dealii::TableBase.base.125" = type <{ %"class.dealii::Subscriptor", i32*, i32, %"class.dealii::TableIndices" }>
%"class.std::vector.43" = type { %"struct.std::_Vector_base.44" }
%"struct.std::_Vector_base.44" = type { %"struct.std::_Vector_base<int, std::allocator<int> >::_Vector_impl" }
%"struct.std::_Vector_base<int, std::allocator<int> >::_Vector_impl" = type { %"struct.std::_Vector_base<int, std::allocator<int> >::_Vector_impl_data" }
%"struct.std::_Vector_base<int, std::allocator<int> >::_Vector_impl_data" = type { i32*, i32*, i32* }
%"class.std::vector.127" = type { %"struct.std::_Vector_base.128" }
%"struct.std::_Vector_base.128" = type { %"struct.std::_Vector_base<std::pair<unsigned int, unsigned int>, std::allocator<std::pair<unsigned int, unsigned int> > >::_Vector_impl" }
%"struct.std::_Vector_base<std::pair<unsigned int, unsigned int>, std::allocator<std::pair<unsigned int, unsigned int> > >::_Vector_impl" = type { %"struct.std::_Vector_base<std::pair<unsigned int, unsigned int>, std::allocator<std::pair<unsigned int, unsigned int> > >::_Vector_impl_data" }
%"struct.std::_Vector_base<std::pair<unsigned int, unsigned int>, std::allocator<std::pair<unsigned int, unsigned int> > >::_Vector_impl_data" = type { %"struct.std::pair.132"*, %"struct.std::pair.132"*, %"struct.std::pair.132"* }
%"struct.std::pair.132" = type { i32, i32 }
%"class.std::vector.133" = type { %"struct.std::_Vector_base.134" }
%"struct.std::_Vector_base.134" = type { %"struct.std::_Vector_base<std::pair<std::pair<unsigned int, unsigned int>, unsigned int>, std::allocator<std::pair<std::pair<unsigned int, unsigned int>, unsigned int> > >::_Vector_impl" }
%"struct.std::_Vector_base<std::pair<std::pair<unsigned int, unsigned int>, unsigned int>, std::allocator<std::pair<std::pair<unsigned int, unsigned int>, unsigned int> > >::_Vector_impl" = type { %"struct.std::_Vector_base<std::pair<std::pair<unsigned int, unsigned int>, unsigned int>, std::allocator<std::pair<std::pair<unsigned int, unsigned int>, unsigned int> > >::_Vector_impl_data" }
%"struct.std::_Vector_base<std::pair<std::pair<unsigned int, unsigned int>, unsigned int>, std::allocator<std::pair<std::pair<unsigned int, unsigned int>, unsigned int> > >::_Vector_impl_data" = type { %"struct.std::pair.138"*, %"struct.std::pair.138"*, %"struct.std::pair.138"* }
%"struct.std::pair.138" = type { %"struct.std::pair.132", i32 }
%"class.std::vector.24" = type { %"struct.std::_Bvector_base" }
%"struct.std::_Bvector_base" = type { %"struct.std::_Bvector_base<std::allocator<bool> >::_Bvector_impl" }
%"struct.std::_Bvector_base<std::allocator<bool> >::_Bvector_impl" = type { %"struct.std::_Bvector_base<std::allocator<bool> >::_Bvector_impl_data" }
%"struct.std::_Bvector_base<std::allocator<bool> >::_Bvector_impl_data" = type { %"struct.std::_Bit_iterator", %"struct.std::_Bit_iterator", i64* }
%"struct.std::_Bit_iterator" = type { %"struct.std::_Bit_iterator_base.base", [4 x i8] }
%"struct.std::_Bit_iterator_base.base" = type <{ i64*, i32 }>
%"class.std::vector.141" = type { %"struct.std::_Vector_base.142" }
%"struct.std::_Vector_base.142" = type { %"struct.std::_Vector_base<std::vector<bool, std::allocator<bool> >, std::allocator<std::vector<bool, std::allocator<bool> > > >::_Vector_impl" }
%"struct.std::_Vector_base<std::vector<bool, std::allocator<bool> >, std::allocator<std::vector<bool, std::allocator<bool> > > >::_Vector_impl" = type { %"struct.std::_Vector_base<std::vector<bool, std::allocator<bool> >, std::allocator<std::vector<bool, std::allocator<bool> > > >::_Vector_impl_data" }
%"struct.std::_Vector_base<std::vector<bool, std::allocator<bool> >, std::allocator<std::vector<bool, std::allocator<bool> > > >::_Vector_impl_data" = type { %"class.std::vector.24"*, %"class.std::vector.24"*, %"class.std::vector.24"* }
%"class.std::vector.146" = type { %"struct.std::_Vector_base.147" }
%"struct.std::_Vector_base.147" = type { %"struct.std::_Vector_base<dealii::internal::DoFHandler::DoFLevel<3> *, std::allocator<dealii::internal::DoFHandler::DoFLevel<3> *> >::_Vector_impl" }
%"struct.std::_Vector_base<dealii::internal::DoFHandler::DoFLevel<3> *, std::allocator<dealii::internal::DoFHandler::DoFLevel<3> *> >::_Vector_impl" = type { %"struct.std::_Vector_base<dealii::internal::DoFHandler::DoFLevel<3> *, std::allocator<dealii::internal::DoFHandler::DoFLevel<3> *> >::_Vector_impl_data" }
%"struct.std::_Vector_base<dealii::internal::DoFHandler::DoFLevel<3> *, std::allocator<dealii::internal::DoFHandler::DoFLevel<3> *> >::_Vector_impl_data" = type { %"class.dealii::internal::DoFHandler::DoFLevel"**, %"class.dealii::internal::DoFHandler::DoFLevel"**, %"class.dealii::internal::DoFHandler::DoFLevel"** }
%"class.dealii::internal::DoFHandler::DoFLevel" = type { %"class.dealii::internal::DoFHandler::DoFLevel.151", %"class.dealii::internal::DoFHandler::DoFObjects" }
%"class.dealii::internal::DoFHandler::DoFLevel.151" = type { %"class.std::vector.33" }
%"class.dealii::internal::DoFHandler::DoFObjects" = type { %"class.std::vector.33" }
%"class.dealii::internal::DoFHandler::DoFFaces" = type { %"class.dealii::internal::DoFHandler::DoFObjects.152", %"class.dealii::internal::DoFHandler::DoFObjects.153" }
%"class.dealii::internal::DoFHandler::DoFObjects.152" = type { %"class.std::vector.33" }
%"class.dealii::internal::DoFHandler::DoFObjects.153" = type { %"class.std::vector.33" }
%"class.std::vector.154" = type { %"struct.std::_Vector_base.155" }
%"struct.std::_Vector_base.155" = type { %"struct.std::_Vector_base<dealii::MGDoFHandler<3, 3>::MGVertexDoFs, std::allocator<dealii::MGDoFHandler<3, 3>::MGVertexDoFs> >::_Vector_impl" }
%"struct.std::_Vector_base<dealii::MGDoFHandler<3, 3>::MGVertexDoFs, std::allocator<dealii::MGDoFHandler<3, 3>::MGVertexDoFs> >::_Vector_impl" = type { %"struct.std::_Vector_base<dealii::MGDoFHandler<3, 3>::MGVertexDoFs, std::allocator<dealii::MGDoFHandler<3, 3>::MGVertexDoFs> >::_Vector_impl_data" }
%"struct.std::_Vector_base<dealii::MGDoFHandler<3, 3>::MGVertexDoFs, std::allocator<dealii::MGDoFHandler<3, 3>::MGVertexDoFs> >::_Vector_impl_data" = type { %"class.dealii::MGDoFHandler<3, 3>::MGVertexDoFs"*, %"class.dealii::MGDoFHandler<3, 3>::MGVertexDoFs"*, %"class.dealii::MGDoFHandler<3, 3>::MGVertexDoFs"* }
%"class.dealii::MGDoFHandler<3, 3>::MGVertexDoFs" = type { i32, i32, i32* }
%"class.std::vector.33" = type { %"struct.std::_Vector_base.34" }
%"struct.std::_Vector_base.34" = type { %"struct.std::_Vector_base<unsigned int, std::allocator<unsigned int> >::_Vector_impl" }
%"struct.std::_Vector_base<unsigned int, std::allocator<unsigned int> >::_Vector_impl" = type { %"struct.std::_Vector_base<unsigned int, std::allocator<unsigned int> >::_Vector_impl_data" }
%"struct.std::_Vector_base<unsigned int, std::allocator<unsigned int> >::_Vector_impl_data" = type { i32*, i32*, i32* }
%"class.dealii::Triangulation" = type { %"class.dealii::Subscriptor", %"class.std::vector", %"class.dealii::internal::Triangulation::TriaFaces"*, %"class.std::vector.98", %"class.std::vector.24", [255 x %"class.dealii::SmartPointer.103"], [255 x %"class.dealii::SmartPointer.103"], i8, i32, %"struct.dealii::internal::Triangulation::NumberCache", %"class.std::__cxx11::list" }
%"class.std::vector" = type { %"struct.std::_Vector_base" }
%"struct.std::_Vector_base" = type { %"struct.std::_Vector_base<dealii::internal::Triangulation::TriaLevel<3> *, std::allocator<dealii::internal::Triangulation::TriaLevel<3> *> >::_Vector_impl" }
%"struct.std::_Vector_base<dealii::internal::Triangulation::TriaLevel<3> *, std::allocator<dealii::internal::Triangulation::TriaLevel<3> *> >::_Vector_impl" = type { %"struct.std::_Vector_base<dealii::internal::Triangulation::TriaLevel<3> *, std::allocator<dealii::internal::Triangulation::TriaLevel<3> *> >::_Vector_impl_data" }
%"struct.std::_Vector_base<dealii::internal::Triangulation::TriaLevel<3> *, std::allocator<dealii::internal::Triangulation::TriaLevel<3> *> >::_Vector_impl_data" = type { %"class.dealii::internal::Triangulation::TriaLevel"**, %"class.dealii::internal::Triangulation::TriaLevel"**, %"class.dealii::internal::Triangulation::TriaLevel"** }
%"class.dealii::internal::Triangulation::TriaLevel" = type { %"class.std::vector.19", %"class.std::vector.24", %"class.std::vector.28", %"class.std::vector.33", %"class.dealii::internal::Triangulation::TriaObjectsHex" }
%"class.std::vector.19" = type { %"struct.std::_Vector_base.20" }
%"struct.std::_Vector_base.20" = type { %"struct.std::_Vector_base<unsigned char, std::allocator<unsigned char> >::_Vector_impl" }
%"struct.std::_Vector_base<unsigned char, std::allocator<unsigned char> >::_Vector_impl" = type { %"struct.std::_Vector_base<unsigned char, std::allocator<unsigned char> >::_Vector_impl_data" }
%"struct.std::_Vector_base<unsigned char, std::allocator<unsigned char> >::_Vector_impl_data" = type { i8*, i8*, i8* }
%"class.std::vector.28" = type { %"struct.std::_Vector_base.29" }
%"struct.std::_Vector_base.29" = type { %"struct.std::_Vector_base<std::pair<int, int>, std::allocator<std::pair<int, int> > >::_Vector_impl" }
%"struct.std::_Vector_base<std::pair<int, int>, std::allocator<std::pair<int, int> > >::_Vector_impl" = type { %"struct.std::_Vector_base<std::pair<int, int>, std::allocator<std::pair<int, int> > >::_Vector_impl_data" }
%"struct.std::_Vector_base<std::pair<int, int>, std::allocator<std::pair<int, int> > >::_Vector_impl_data" = type { %"struct.std::pair"*, %"struct.std::pair"*, %"struct.std::pair"* }
%"struct.std::pair" = type opaque
%"class.dealii::internal::Triangulation::TriaObjectsHex" = type { %"class.dealii::internal::Triangulation::TriaObjects.base", %"class.std::vector.24", %"class.std::vector.24", %"class.std::vector.24" }
%"class.dealii::internal::Triangulation::TriaObjects.base" = type <{ %"class.std::vector.38", %"class.std::vector.43", %"class.std::vector.48", %"class.std::vector.24", %"class.std::vector.24", %"class.std::vector.19", i32, i32, i8, [7 x i8], %"class.std::vector.53", i32 }>
%"class.std::vector.38" = type { %"struct.std::_Vector_base.39" }
%"struct.std::_Vector_base.39" = type { %"struct.std::_Vector_base<dealii::internal::Triangulation::TriaObject<3>, std::allocator<dealii::internal::Triangulation::TriaObject<3> > >::_Vector_impl" }
%"struct.std::_Vector_base<dealii::internal::Triangulation::TriaObject<3>, std::allocator<dealii::internal::Triangulation::TriaObject<3> > >::_Vector_impl" = type { %"struct.std::_Vector_base<dealii::internal::Triangulation::TriaObject<3>, std::allocator<dealii::internal::Triangulation::TriaObject<3> > >::_Vector_impl_data" }
%"struct.std::_Vector_base<dealii::internal::Triangulation::TriaObject<3>, std::allocator<dealii::internal::Triangulation::TriaObject<3> > >::_Vector_impl_data" = type { %"class.dealii::internal::Triangulation::TriaObject"*, %"class.dealii::internal::Triangulation::TriaObject"*, %"class.dealii::internal::Triangulation::TriaObject"* }
%"class.dealii::internal::Triangulation::TriaObject" = type { [6 x i32] }
%"class.std::vector.48" = type { %"struct.std::_Vector_base.49" }
%"struct.std::_Vector_base.49" = type { %"struct.std::_Vector_base<dealii::RefinementCase<3>, std::allocator<dealii::RefinementCase<3> > >::_Vector_impl" }
%"struct.std::_Vector_base<dealii::RefinementCase<3>, std::allocator<dealii::RefinementCase<3> > >::_Vector_impl" = type { %"struct.std::_Vector_base<dealii::RefinementCase<3>, std::allocator<dealii::RefinementCase<3> > >::_Vector_impl_data" }
%"struct.std::_Vector_base<dealii::RefinementCase<3>, std::allocator<dealii::RefinementCase<3> > >::_Vector_impl_data" = type { %"class.dealii::RefinementCase"*, %"class.dealii::RefinementCase"*, %"class.dealii::RefinementCase"* }
%"class.dealii::RefinementCase" = type { i8 }
%"class.std::vector.53" = type { %"struct.std::_Vector_base.54" }
%"struct.std::_Vector_base.54" = type { %"struct.std::_Vector_base<dealii::internal::Triangulation::TriaObjects<dealii::internal::Triangulation::TriaObject<3> >::UserData, std::allocator<dealii::internal::Triangulation::TriaObjects<dealii::internal::Triangulation::TriaObject<3> >::UserData> >::_Vector_impl" }
%"struct.std::_Vector_base<dealii::internal::Triangulation::TriaObjects<dealii::internal::Triangulation::TriaObject<3> >::UserData, std::allocator<dealii::internal::Triangulation::TriaObjects<dealii::internal::Triangulation::TriaObject<3> >::UserData> >::_Vector_impl" = type { %"struct.std::_Vector_base<dealii::internal::Triangulation::TriaObjects<dealii::internal::Triangulation::TriaObject<3> >::UserData, std::allocator<dealii::internal::Triangulation::TriaObjects<dealii::internal::Triangulation::TriaObject<3> >::UserData> >::_Vector_impl_data" }
%"struct.std::_Vector_base<dealii::internal::Triangulation::TriaObjects<dealii::internal::Triangulation::TriaObject<3> >::UserData, std::allocator<dealii::internal::Triangulation::TriaObjects<dealii::internal::Triangulation::TriaObject<3> >::UserData> >::_Vector_impl_data" = type { %"union.dealii::internal::Triangulation::TriaObjects<dealii::internal::Triangulation::TriaObject<3> >::UserData"*, %"union.dealii::internal::Triangulation::TriaObjects<dealii::internal::Triangulation::TriaObject<3> >::UserData"*, %"union.dealii::internal::Triangulation::TriaObjects<dealii::internal::Triangulation::TriaObject<3> >::UserData"* }
%"union.dealii::internal::Triangulation::TriaObjects<dealii::internal::Triangulation::TriaObject<3> >::UserData" = type opaque
%"class.dealii::internal::Triangulation::TriaFaces" = type { %"class.dealii::internal::Triangulation::TriaObjectsQuad3D", %"class.dealii::internal::Triangulation::TriaObjects.78" }
%"class.dealii::internal::Triangulation::TriaObjectsQuad3D" = type { %"class.dealii::internal::Triangulation::TriaObjects.base.77", %"class.std::vector.24" }
%"class.dealii::internal::Triangulation::TriaObjects.base.77" = type <{ %"class.std::vector.59", %"class.std::vector.43", %"class.std::vector.65", %"class.std::vector.24", %"class.std::vector.24", %"class.std::vector.19", i32, i32, i8, [7 x i8], %"class.std::vector.72", i32 }>
%"class.std::vector.59" = type { %"struct.std::_Vector_base.60" }
%"struct.std::_Vector_base.60" = type { %"struct.std::_Vector_base<dealii::internal::Triangulation::TriaObject<2>, std::allocator<dealii::internal::Triangulation::TriaObject<2> > >::_Vector_impl" }
%"struct.std::_Vector_base<dealii::internal::Triangulation::TriaObject<2>, std::allocator<dealii::internal::Triangulation::TriaObject<2> > >::_Vector_impl" = type { %"struct.std::_Vector_base<dealii::internal::Triangulation::TriaObject<2>, std::allocator<dealii::internal::Triangulation::TriaObject<2> > >::_Vector_impl_data" }
%"struct.std::_Vector_base<dealii::internal::Triangulation::TriaObject<2>, std::allocator<dealii::internal::Triangulation::TriaObject<2> > >::_Vector_impl_data" = type { %"class.dealii::internal::Triangulation::TriaObject.64"*, %"class.dealii::internal::Triangulation::TriaObject.64"*, %"class.dealii::internal::Triangulation::TriaObject.64"* }
%"class.dealii::internal::Triangulation::TriaObject.64" = type { [4 x i32] }
%"class.std::vector.65" = type { %"struct.std::_Vector_base.66" }
%"struct.std::_Vector_base.66" = type { %"struct.std::_Vector_base<dealii::RefinementCase<2>, std::allocator<dealii::RefinementCase<2> > >::_Vector_impl" }
%"struct.std::_Vector_base<dealii::RefinementCase<2>, std::allocator<dealii::RefinementCase<2> > >::_Vector_impl" = type { %"struct.std::_Vector_base<dealii::RefinementCase<2>, std::allocator<dealii::RefinementCase<2> > >::_Vector_impl_data" }
%"struct.std::_Vector_base<dealii::RefinementCase<2>, std::allocator<dealii::RefinementCase<2> > >::_Vector_impl_data" = type { %"class.dealii::RefinementCase.70"*, %"class.dealii::RefinementCase.70"*, %"class.dealii::RefinementCase.70"* }
%"class.dealii::RefinementCase.70" = type { i8 }
%"class.std::vector.72" = type { %"struct.std::_Vector_base.73" }
%"struct.std::_Vector_base.73" = type { %"struct.std::_Vector_base<dealii::internal::Triangulation::TriaObjects<dealii::internal::Triangulation::TriaObject<2> >::UserData, std::allocator<dealii::internal::Triangulation::TriaObjects<dealii::internal::Triangulation::TriaObject<2> >::UserData> >::_Vector_impl" }
%"struct.std::_Vector_base<dealii::internal::Triangulation::TriaObjects<dealii::internal::Triangulation::TriaObject<2> >::UserData, std::allocator<dealii::internal::Triangulation::TriaObjects<dealii::internal::Triangulation::TriaObject<2> >::UserData> >::_Vector_impl" = type { %"struct.std::_Vector_base<dealii::internal::Triangulation::TriaObjects<dealii::internal::Triangulation::TriaObject<2> >::UserData, std::allocator<dealii::internal::Triangulation::TriaObjects<dealii::internal::Triangulation::TriaObject<2> >::UserData> >::_Vector_impl_data" }
%"struct.std::_Vector_base<dealii::internal::Triangulation::TriaObjects<dealii::internal::Triangulation::TriaObject<2> >::UserData, std::allocator<dealii::internal::Triangulation::TriaObjects<dealii::internal::Triangulation::TriaObject<2> >::UserData> >::_Vector_impl_data" = type { %"union.dealii::internal::Triangulation::TriaObjects<dealii::internal::Triangulation::TriaObject<2> >::UserData"*, %"union.dealii::internal::Triangulation::TriaObjects<dealii::internal::Triangulation::TriaObject<2> >::UserData"*, %"union.dealii::internal::Triangulation::TriaObjects<dealii::internal::Triangulation::TriaObject<2> >::UserData"* }
%"union.dealii::internal::Triangulation::TriaObjects<dealii::internal::Triangulation::TriaObject<2> >::UserData" = type opaque
%"class.dealii::internal::Triangulation::TriaObjects.78" = type <{ %"class.std::vector.79", %"class.std::vector.43", %"class.std::vector.85", %"class.std::vector.24", %"class.std::vector.24", %"class.std::vector.19", i32, i32, i8, [7 x i8], %"class.std::vector.92", i32, [4 x i8] }>
%"class.std::vector.79" = type { %"struct.std::_Vector_base.80" }
%"struct.std::_Vector_base.80" = type { %"struct.std::_Vector_base<dealii::internal::Triangulation::TriaObject<1>, std::allocator<dealii::internal::Triangulation::TriaObject<1> > >::_Vector_impl" }
%"struct.std::_Vector_base<dealii::internal::Triangulation::TriaObject<1>, std::allocator<dealii::internal::Triangulation::TriaObject<1> > >::_Vector_impl" = type { %"struct.std::_Vector_base<dealii::internal::Triangulation::TriaObject<1>, std::allocator<dealii::internal::Triangulation::TriaObject<1> > >::_Vector_impl_data" }
%"struct.std::_Vector_base<dealii::internal::Triangulation::TriaObject<1>, std::allocator<dealii::internal::Triangulation::TriaObject<1> > >::_Vector_impl_data" = type { %"class.dealii::internal::Triangulation::TriaObject.84"*, %"class.dealii::internal::Triangulation::TriaObject.84"*, %"class.dealii::internal::Triangulation::TriaObject.84"* }
%"class.dealii::internal::Triangulation::TriaObject.84" = type { [2 x i32] }
%"class.std::vector.85" = type { %"struct.std::_Vector_base.86" }
%"struct.std::_Vector_base.86" = type { %"struct.std::_Vector_base<dealii::RefinementCase<1>, std::allocator<dealii::RefinementCase<1> > >::_Vector_impl" }
%"struct.std::_Vector_base<dealii::RefinementCase<1>, std::allocator<dealii::RefinementCase<1> > >::_Vector_impl" = type { %"struct.std::_Vector_base<dealii::RefinementCase<1>, std::allocator<dealii::RefinementCase<1> > >::_Vector_impl_data" }
%"struct.std::_Vector_base<dealii::RefinementCase<1>, std::allocator<dealii::RefinementCase<1> > >::_Vector_impl_data" = type { %"class.dealii::RefinementCase.90"*, %"class.dealii::RefinementCase.90"*, %"class.dealii::RefinementCase.90"* }
%"class.dealii::RefinementCase.90" = type { i8 }
%"class.std::vector.92" = type { %"struct.std::_Vector_base.93" }
%"struct.std::_Vector_base.93" = type { %"struct.std::_Vector_base<dealii::internal::Triangulation::TriaObjects<dealii::internal::Triangulation::TriaObject<1> >::UserData, std::allocator<dealii::internal::Triangulation::TriaObjects<dealii::internal::Triangulation::TriaObject<1> >::UserData> >::_Vector_impl" }
%"struct.std::_Vector_base<dealii::internal::Triangulation::TriaObjects<dealii::internal::Triangulation::TriaObject<1> >::UserData, std::allocator<dealii::internal::Triangulation::TriaObjects<dealii::internal::Triangulation::TriaObject<1> >::UserData> >::_Vector_impl" = type { %"struct.std::_Vector_base<dealii::internal::Triangulation::TriaObjects<dealii::internal::Triangulation::TriaObject<1> >::UserData, std::allocator<dealii::internal::Triangulation::TriaObjects<dealii::internal::Triangulation::TriaObject<1> >::UserData> >::_Vector_impl_data" }
%"struct.std::_Vector_base<dealii::internal::Triangulation::TriaObjects<dealii::internal::Triangulation::TriaObject<1> >::UserData, std::allocator<dealii::internal::Triangulation::TriaObjects<dealii::internal::Triangulation::TriaObject<1> >::UserData> >::_Vector_impl_data" = type { %"union.dealii::internal::Triangulation::TriaObjects<dealii::internal::Triangulation::TriaObject<1> >::UserData"*, %"union.dealii::internal::Triangulation::TriaObjects<dealii::internal::Triangulation::TriaObject<1> >::UserData"*, %"union.dealii::internal::Triangulation::TriaObjects<dealii::internal::Triangulation::TriaObject<1> >::UserData"* }
%"union.dealii::internal::Triangulation::TriaObjects<dealii::internal::Triangulation::TriaObject<1> >::UserData" = type opaque
%"class.dealii::SmartPointer.103" = type { %"class.dealii::Boundary"*, i8* }
%"class.dealii::Boundary" = type opaque
%"struct.dealii::internal::Triangulation::NumberCache" = type { %"struct.dealii::internal::Triangulation::NumberCache.104", i32, %"class.std::vector.33", i32, %"class.std::vector.33" }
%"struct.dealii::internal::Triangulation::NumberCache.104" = type { %"struct.dealii::internal::Triangulation::NumberCache.105", i32, %"class.std::vector.33", i32, %"class.std::vector.33" }
%"struct.dealii::internal::Triangulation::NumberCache.105" = type { i32, %"class.std::vector.33", i32, %"class.std::vector.33" }
%"class.std::__cxx11::list" = type { %"class.std::__cxx11::_List_base" }
%"class.std::__cxx11::_List_base" = type { %"struct.std::__cxx11::_List_base<dealii::Triangulation<3, 3>::RefinementListener *, std::allocator<dealii::Triangulation<3, 3>::RefinementListener *> >::_List_impl" }
%"struct.std::__cxx11::_List_base<dealii::Triangulation<3, 3>::RefinementListener *, std::allocator<dealii::Triangulation<3, 3>::RefinementListener *> >::_List_impl" = type { %"struct.std::__detail::_List_node_header" }
%"struct.std::__detail::_List_node_header" = type { %"struct.std::__detail::_List_node_base", i64 }
%"struct.std::__detail::_List_node_base" = type { %"struct.std::__detail::_List_node_base"*, %"struct.std::__detail::_List_node_base"* }
%"class.dealii::MGDoFHandler<3, 3>::ExcInvalidLevel" = type { %"class.dealii::ExceptionBase.base", i32 }
%"class.dealii::ExceptionBase.base" = type <{ %"class.std::exception", i8*, i32, [4 x i8], i8*, i8*, i8*, i8**, i32 }>
%"class.std::exception" = type { i32 (...)** }
%"class.dealii::MGDoFHandler<3, 3>::ExcEmptyLevel" = type { %"class.dealii::ExceptionBase.base", i32 }
%"class.dealii::MGDoFHandler<3, 3>::MGVertexDoFs::ExcInvalidLevel" = type { %"class.dealii::ExceptionBase.base", i32 }
%"class.std::allocator.35" = type { i8 }
%"class.std::allocator.156" = type { i8 }
%"class.std::allocator.148" = type { i8 }
%"class.dealii::TriaIterator" = type { %"class.dealii::TriaRawIterator" }
%"class.dealii::TriaRawIterator" = type { %"class.dealii::MGDoFCellAccessor" }
%"class.dealii::MGDoFCellAccessor" = type { %"class.dealii::MGDoFAccessor" }
%"class.dealii::MGDoFAccessor" = type { %"class.dealii::DoFCellAccessor", %"class.dealii::MGDoFHandler"* }
%"class.dealii::DoFCellAccessor" = type { %"class.dealii::DoFAccessor" }
%"class.dealii::DoFAccessor" = type { %"class.dealii::CellAccessor", %"class.dealii::DoFHandler"* }
%"class.dealii::CellAccessor" = type { %"class.dealii::TriaAccessor" }
%"class.dealii::TriaAccessor" = type { %"class.dealii::TriaAccessorBase" }
%"class.dealii::TriaAccessorBase" = type { i32, i32, %"class.dealii::Triangulation"* }
%"class.dealii::TriaIterator.177" = type { %"class.dealii::TriaRawIterator.178" }
%"class.dealii::TriaRawIterator.178" = type { %"class.dealii::CellAccessor" }
%"class.__gnu_cxx::__normal_iterator.176" = type { i32* }
%"class.dealii::TriaIterator.174" = type { %"class.dealii::TriaRawIterator.168" }
%"class.dealii::TriaRawIterator.168" = type { %"class.dealii::MGDoFAccessor.170" }
%"class.dealii::MGDoFAccessor.170" = type { %"class.dealii::DoFAccessor.171", %"class.dealii::MGDoFHandler"* }
%"class.dealii::DoFAccessor.171" = type { %"class.dealii::TriaAccessor.172", %"class.dealii::DoFHandler"* }
%"class.dealii::TriaAccessor.172" = type { %"class.dealii::TriaAccessorBase.173" }
%"class.dealii::TriaAccessorBase.173" = type { i32, %"class.dealii::Triangulation"* }
%"class.dealii::TriaIterator.166" = type { %"class.dealii::TriaRawIterator.160" }
%"class.dealii::TriaRawIterator.160" = type { %"class.dealii::MGDoFAccessor.162" }
%"class.dealii::MGDoFAccessor.162" = type { %"class.dealii::DoFAccessor.163", %"class.dealii::MGDoFHandler"* }
%"class.dealii::DoFAccessor.163" = type { %"class.dealii::TriaAccessor.164", %"class.dealii::DoFHandler"* }
%"class.dealii::TriaAccessor.164" = type { %"class.dealii::TriaAccessorBase.165" }
%"class.dealii::TriaAccessorBase.165" = type { i32, %"class.dealii::Triangulation"* }
%"class.dealii::TriaActiveIterator" = type { %"class.dealii::TriaIterator" }
%"class.dealii::TriaActiveIterator.167" = type { %"class.dealii::TriaIterator.166" }
%"struct.std::iterator.169" = type { i8 }
%"struct.std::_Bit_reference" = type { i64*, i64 }
%"class.dealii::TriaActiveIterator.175" = type { %"class.dealii::TriaIterator.174" }
%"struct.std::iterator.161" = type { i8 }
%"class.dealii::internal::Triangulation::TriaObjects.58" = type <{ %"class.std::vector.59", %"class.std::vector.43", %"class.std::vector.65", %"class.std::vector.24", %"class.std::vector.24", %"class.std::vector.19", i32, i32, i8, [7 x i8], %"class.std::vector.72", i32, [4 x i8] }>
%"struct.std::iterator.159" = type { i8 }
%"class.dealii::internal::Triangulation::TriaObjects" = type <{ %"class.std::vector.38", %"class.std::vector.43", %"class.std::vector.48", %"class.std::vector.24", %"class.std::vector.24", %"class.std::vector.19", i32, i32, i8, [7 x i8], %"class.std::vector.53", i32, [4 x i8] }>
%"class.dealii::ExceptionBase" = type <{ %"class.std::exception", i8*, i32, [4 x i8], i8*, i8*, i8*, i8**, i32, [4 x i8] }>
%"class.std::basic_ostream" = type { i32 (...)**, %"class.std::basic_ios" }
%"class.std::basic_ios" = type { %"class.std::ios_base", %"class.std::basic_ostream"*, i8, i8, %"class.std::basic_streambuf"*, %"class.std::ctype"*, %"class.std::num_put"*, %"class.std::num_get"* }
%"class.std::ios_base" = type { i32 (...)**, i64, i64, i32, i32, i32, %"struct.std::ios_base::_Callback_list"*, %"struct.std::ios_base::_Words", [8 x %"struct.std::ios_base::_Words"], i32, %"struct.std::ios_base::_Words"*, %"class.std::locale" }
%"struct.std::ios_base::_Callback_list" = type { %"struct.std::ios_base::_Callback_list"*, void (i32, %"class.std::ios_base"*, i32)*, i32, i32 }
%"struct.std::ios_base::_Words" = type { i8*, i64 }
%"class.std::locale" = type { %"class.std::locale::_Impl"* }
%"class.std::locale::_Impl" = type { i32, %"class.std::locale::facet"**, i64, %"class.std::locale::facet"**, i8** }
%"class.std::locale::facet" = type <{ i32 (...)**, i32, [4 x i8] }>
%"class.std::basic_streambuf" = type { i32 (...)**, i8*, i8*, i8*, i8*, i8*, i8*, %"class.std::locale" }
%"class.std::ctype" = type <{ %"class.std::locale::facet.base", [4 x i8], %struct.__locale_struct*, i8, [7 x i8], i32*, i32*, i16*, i8, [256 x i8], [256 x i8], i8, [6 x i8] }>
%"class.std::locale::facet.base" = type <{ i32 (...)**, i32 }>
%struct.__locale_struct = type { [13 x %struct.__locale_data*], i16*, i32*, i32*, [13 x i8*] }
%struct.__locale_data = type opaque
%"class.std::num_put" = type { %"class.std::locale::facet.base", [4 x i8] }
%"class.std::num_get" = type { %"class.std::locale::facet.base", [4 x i8] }
%"class.__gnu_cxx::__normal_iterator" = type { %"class.dealii::MGDoFHandler<3, 3>::MGVertexDoFs"* }
%"class.__gnu_cxx::new_allocator.36" = type { i8 }
%"class.__gnu_cxx::__normal_iterator.181" = type { %"class.dealii::internal::DoFHandler::DoFLevel"** }
%"struct.std::integral_constant" = type { i8 }
%"class.dealii::MGDoFHandler<3, 3>::ExcFacesHaveNoLevel" = type { %"class.dealii::ExceptionBase.base", [4 x i8] }
%"class.dealii::MGDoFHandler<3, 3>::MGVertexDoFs::ExcNoMemory" = type { %"class.dealii::ExceptionBase.base", [4 x i8] }
%"class.__gnu_cxx::new_allocator.149" = type { i8 }
%"class.__gnu_cxx::new_allocator.157" = type { i8 }
%"class.std::allocator.25" = type { i8 }
%"class.__gnu_cxx::new_allocator.26" = type { i8 }
%"struct.std::_Bit_iterator_base" = type <{ i64*, i32, [4 x i8] }>
%"struct.std::iterator" = type { i8 }
%"struct.dealii::internal::int2type" = type { i8 }
%"struct.dealii::internal::int2type.180" = type { i8 }
%"struct.std::random_access_iterator_tag" = type { i8 }
%"struct.std::iterator.179" = type { i8 }
%"class.dealii::TriaIterator.182" = type { %"class.dealii::TriaRawIterator.183" }
%"class.dealii::TriaRawIterator.183" = type { %"class.dealii::TriaAccessor.164" }
%"struct.std::iterator.184" = type { i8 }
%"class.dealii::TriaIterator.185" = type { %"class.dealii::TriaRawIterator.186" }
%"class.dealii::TriaRawIterator.186" = type { %"class.dealii::TriaAccessor.172" }
%"struct.std::iterator.187" = type { i8 }
%"struct.std::_Bit_const_iterator" = type { %"struct.std::_Bit_iterator_base.base", [4 x i8] }
%"struct.std::vector<unsigned int, std::allocator<unsigned int> >::_Temporary_value" = type <{ %"class.std::vector.33"*, %"union.std::aligned_storage<4, 4>::type", [4 x i8] }>
%"union.std::aligned_storage<4, 4>::type" = type { [4 x i8] }
%"class.std::move_iterator" = type { i32* }
%"struct.std::integral_constant.190" = type { i8 }

$_ZN5boost3argILi1EEC2Ev = comdat any

$_ZN5boost3argILi2EEC2Ev = comdat any

$_ZN5boost3argILi3EEC2Ev = comdat any

$_ZN5boost3argILi4EEC2Ev = comdat any

$_ZN5boost3argILi5EEC2Ev = comdat any

$_ZN5boost3argILi6EEC2Ev = comdat any

$_ZN5boost3argILi7EEC2Ev = comdat any

$_ZN5boost3argILi8EEC2Ev = comdat any

$_ZN5boost3argILi9EEC2Ev = comdat any

$_ZN6dealii12MGDoFHandlerILi3ELi3EEC5ERKNS_13TriangulationILi3ELi3EEE = comdat any

$_ZNSt6vectorIPN6dealii8internal10DoFHandler8DoFLevelILi3EEESaIS5_EEC2Ev = comdat any

$_ZNSt6vectorIN6dealii12MGDoFHandlerILi3ELi3EE12MGVertexDoFsESaIS3_EEC2Ev = comdat any

$_ZNSt6vectorIjSaIjEEC2Ev = comdat any

$_ZN6dealii12MGDoFHandlerILi3ELi3EED5Ev = comdat any

$_ZNSt6vectorIjSaIjEED2Ev = comdat any

$_ZNSt6vectorIN6dealii12MGDoFHandlerILi3ELi3EE12MGVertexDoFsESaIS3_EED2Ev = comdat any

$_ZNSt6vectorIPN6dealii8internal10DoFHandler8DoFLevelILi3EEESaIS5_EED2Ev = comdat any

$__clang_call_terminate = comdat any

$_ZN6dealii12MGDoFHandlerILi3ELi3EE15distribute_dofsERKNS_13FiniteElementILi3ELi3EEEj = comdat any

$_ZNSt6vectorIjSaIjEE6resizeEmRKj = comdat any

$_ZNK6dealii12SmartPointerIKNS_13TriangulationILi3ELi3EEEEptEv = comdat any

$_ZNSt6vectorIbSaIbEEC2Ev = comdat any

$_ZNK6dealii12SmartPointerIKNS_13TriangulationILi3ELi3EEEEdeEv = comdat any

$_ZNK6dealii12MGDoFHandlerILi3ELi3EE5beginEj = comdat any

$_ZNK6dealii12MGDoFHandlerILi3ELi3EE3endEj = comdat any

$_ZNK6dealii15TriaRawIteratorINS_17MGDoFCellAccessorILi3ELi3EEEEneERKS3_ = comdat any

$_ZN6dealii12TriaIteratorINS_17MGDoFCellAccessorILi3ELi3EEEEppEv = comdat any

$_ZNSt6vectorIjSaIjEEixEm = comdat any

$_ZNSt6vectorIbSaIbEED2Ev = comdat any

$_ZN6dealii12MGDoFHandlerILi3ELi3EE5clearEv = comdat any

$_ZN6dealii12MGDoFHandlerILi3ELi3EE11clear_spaceEv = comdat any

$_ZN6dealii12MGDoFHandlerILi3ELi3EE13renumber_dofsERKSt6vectorIjSaIjEE = comdat any

$_ZNK6dealii12MGDoFHandlerILi3ELi3EE9begin_rawEj = comdat any

$_ZNK6dealii12MGDoFHandlerILi3ELi3EE13begin_raw_hexEj = comdat any

$_ZNK6dealii12MGDoFHandlerILi3ELi3EE9begin_hexEj = comdat any

$_ZNK6dealii12MGDoFHandlerILi3ELi3EE12begin_activeEj = comdat any

$_ZNK6dealii12MGDoFHandlerILi3ELi3EE16begin_active_hexEj = comdat any

$_ZNK6dealii12MGDoFHandlerILi3ELi3EE3endEv = comdat any

$_ZNK6dealii12MGDoFHandlerILi3ELi3EE7end_hexEv = comdat any

$_ZN6dealii12TriaIteratorINS_17MGDoFCellAccessorILi3ELi3EEEEC2ERKNS_15TriaRawIteratorIS2_EE = comdat any

$_ZNK6dealii12MGDoFHandlerILi3ELi3EE7end_rawEj = comdat any

$_ZNK6dealii12MGDoFHandlerILi3ELi3EE10end_activeEj = comdat any

$_ZN6dealii18TriaActiveIteratorINS_17MGDoFCellAccessorILi3ELi3EEEEC2ERKNS_15TriaRawIteratorIS2_EE = comdat any

$_ZNK6dealii12MGDoFHandlerILi3ELi3EE8last_rawEv = comdat any

$_ZNK6dealii12MGDoFHandlerILi3ELi3EE12last_raw_hexEv = comdat any

$_ZNK6dealii12MGDoFHandlerILi3ELi3EE8last_rawEj = comdat any

$_ZNK6dealii12MGDoFHandlerILi3ELi3EE12last_raw_hexEj = comdat any

$_ZNK6dealii12MGDoFHandlerILi3ELi3EE4lastEv = comdat any

$_ZNK6dealii12MGDoFHandlerILi3ELi3EE8last_hexEv = comdat any

$_ZNK6dealii12MGDoFHandlerILi3ELi3EE4lastEj = comdat any

$_ZNK6dealii12MGDoFHandlerILi3ELi3EE8last_hexEj = comdat any

$_ZNK6dealii12MGDoFHandlerILi3ELi3EE11last_activeEv = comdat any

$_ZNK6dealii12MGDoFHandlerILi3ELi3EE15last_active_hexEv = comdat any

$_ZNK6dealii12MGDoFHandlerILi3ELi3EE11last_activeEj = comdat any

$_ZNK6dealii12MGDoFHandlerILi3ELi3EE15last_active_hexEj = comdat any

$_ZNK6dealii12MGDoFHandlerILi3ELi3EE14begin_raw_faceEv = comdat any

$_ZNK6dealii12MGDoFHandlerILi3ELi3EE14begin_raw_quadEj = comdat any

$_ZNK6dealii12MGDoFHandlerILi3ELi3EE10begin_faceEv = comdat any

$_ZNK6dealii12MGDoFHandlerILi3ELi3EE10begin_quadEj = comdat any

$_ZNK6dealii12MGDoFHandlerILi3ELi3EE17begin_active_faceEv = comdat any

$_ZNK6dealii12MGDoFHandlerILi3ELi3EE17begin_active_quadEj = comdat any

$_ZNK6dealii12MGDoFHandlerILi3ELi3EE8end_faceEv = comdat any

$_ZNK6dealii12MGDoFHandlerILi3ELi3EE8end_quadEv = comdat any

$_ZNK6dealii12MGDoFHandlerILi3ELi3EE12end_raw_faceEv = comdat any

$_ZNK6dealii12MGDoFHandlerILi3ELi3EE15end_active_faceEv = comdat any

$_ZN6dealii18TriaActiveIteratorINS_13MGDoFAccessorILi2ELi3ELi3EEEEC2ERKNS_15TriaRawIteratorIS2_EE = comdat any

$_ZNK6dealii12MGDoFHandlerILi3ELi3EE13last_raw_faceEv = comdat any

$_ZNK6dealii12MGDoFHandlerILi3ELi3EE13last_raw_quadEv = comdat any

$_ZNK6dealii12MGDoFHandlerILi3ELi3EE9last_faceEv = comdat any

$_ZNK6dealii12MGDoFHandlerILi3ELi3EE9last_quadEv = comdat any

$_ZNK6dealii12MGDoFHandlerILi3ELi3EE16last_active_faceEv = comdat any

$_ZNK6dealii12MGDoFHandlerILi3ELi3EE16last_active_quadEv = comdat any

$_ZNK6dealii12MGDoFHandlerILi3ELi3EE14begin_raw_lineEj = comdat any

$_ZNK6dealii12SmartPointerIKNS_13TriangulationILi3ELi3EEEEcvPS3_Ev = comdat any

$_ZN6dealii15TriaRawIteratorINS_13MGDoFAccessorILi1ELi3ELi3EEEEC2EPKNS_13TriangulationILi3ELi3EEEiiPKNS_12MGDoFHandlerILi3ELi3EEE = comdat any

$_ZNK6dealii12MGDoFHandlerILi3ELi3EE10begin_lineEj = comdat any

$_ZNK6dealii15TriaRawIteratorINS_13MGDoFAccessorILi1ELi3ELi3EEEE5stateEv = comdat any

$_ZN6dealii12TriaIteratorINS_13MGDoFAccessorILi1ELi3ELi3EEEEC2ERKNS_15TriaRawIteratorIS2_EE = comdat any

$_ZN6dealii15TriaRawIteratorINS_13MGDoFAccessorILi1ELi3ELi3EEEEptEv = comdat any

$_ZNK6dealii12TriaAccessorILi1ELi3ELi3EE4usedEv = comdat any

$_ZN6dealii15TriaRawIteratorINS_13MGDoFAccessorILi1ELi3ELi3EEEEppEv = comdat any

$_ZNK6dealii12MGDoFHandlerILi3ELi3EE17begin_active_lineEj = comdat any

$_ZN6dealii18TriaActiveIteratorINS_13MGDoFAccessorILi1ELi3ELi3EEEEC2ERKNS_12TriaIteratorIS2_EE = comdat any

$_ZNK6dealii12TriaAccessorILi1ELi3ELi3EE12has_childrenEv = comdat any

$_ZN6dealii12TriaIteratorINS_13MGDoFAccessorILi1ELi3ELi3EEEEppEv = comdat any

$_ZNK6dealii12MGDoFHandlerILi3ELi3EE8end_lineEv = comdat any

$_ZNK6dealii12MGDoFHandlerILi3ELi3EE8end_lineEj = comdat any

$_ZNK6dealii12MGDoFHandlerILi3ELi3EE12end_raw_lineEj = comdat any

$_ZNK6dealii12MGDoFHandlerILi3ELi3EE15end_active_lineEj = comdat any

$_ZN6dealii18TriaActiveIteratorINS_13MGDoFAccessorILi1ELi3ELi3EEEEC2ERKNS_15TriaRawIteratorIS2_EE = comdat any

$_ZNK6dealii12MGDoFHandlerILi3ELi3EE13last_raw_lineEv = comdat any

$_ZNK6dealii12MGDoFHandlerILi3ELi3EE13last_raw_lineEj = comdat any

$_ZNK6dealii12MGDoFHandlerILi3ELi3EE9last_lineEv = comdat any

$_ZNK6dealii12MGDoFHandlerILi3ELi3EE9last_lineEj = comdat any

$_ZN6dealii15TriaRawIteratorINS_13MGDoFAccessorILi1ELi3ELi3EEEEmmEv = comdat any

$_ZNK6dealii12MGDoFHandlerILi3ELi3EE16last_active_lineEv = comdat any

$_ZNK6dealii12MGDoFHandlerILi3ELi3EE16last_active_lineEj = comdat any

$_ZN6dealii12TriaIteratorINS_13MGDoFAccessorILi1ELi3ELi3EEEEmmEv = comdat any

$_ZN6dealii15TriaRawIteratorINS_13MGDoFAccessorILi2ELi3ELi3EEEEC2EPKNS_13TriangulationILi3ELi3EEEiiPKNS_12MGDoFHandlerILi3ELi3EEE = comdat any

$_ZNK6dealii15TriaRawIteratorINS_13MGDoFAccessorILi2ELi3ELi3EEEE5stateEv = comdat any

$_ZN6dealii12TriaIteratorINS_13MGDoFAccessorILi2ELi3ELi3EEEEC2ERKNS_15TriaRawIteratorIS2_EE = comdat any

$_ZN6dealii15TriaRawIteratorINS_13MGDoFAccessorILi2ELi3ELi3EEEEptEv = comdat any

$_ZNK6dealii12TriaAccessorILi2ELi3ELi3EE4usedEv = comdat any

$_ZN6dealii15TriaRawIteratorINS_13MGDoFAccessorILi2ELi3ELi3EEEEppEv = comdat any

$_ZN6dealii18TriaActiveIteratorINS_13MGDoFAccessorILi2ELi3ELi3EEEEC2ERKNS_12TriaIteratorIS2_EE = comdat any

$_ZNK6dealii12TriaAccessorILi2ELi3ELi3EE12has_childrenEv = comdat any

$_ZN6dealii12TriaIteratorINS_13MGDoFAccessorILi2ELi3ELi3EEEEppEv = comdat any

$_ZNK6dealii12MGDoFHandlerILi3ELi3EE8end_quadEj = comdat any

$_ZNK6dealii12MGDoFHandlerILi3ELi3EE12end_raw_quadEj = comdat any

$_ZNK6dealii12MGDoFHandlerILi3ELi3EE15end_active_quadEj = comdat any

$_ZNK6dealii12MGDoFHandlerILi3ELi3EE13last_raw_quadEj = comdat any

$_ZNK6dealii12MGDoFHandlerILi3ELi3EE9last_quadEj = comdat any

$_ZN6dealii15TriaRawIteratorINS_13MGDoFAccessorILi2ELi3ELi3EEEEmmEv = comdat any

$_ZNK6dealii12MGDoFHandlerILi3ELi3EE16last_active_quadEj = comdat any

$_ZN6dealii12TriaIteratorINS_13MGDoFAccessorILi2ELi3ELi3EEEEmmEv = comdat any

$_ZN6dealii15TriaRawIteratorINS_17MGDoFCellAccessorILi3ELi3EEEEC2EPKNS_13TriangulationILi3ELi3EEEiiPKNS_12MGDoFHandlerILi3ELi3EEE = comdat any

$_ZNK6dealii15TriaRawIteratorINS_17MGDoFCellAccessorILi3ELi3EEEE5stateEv = comdat any

$_ZN6dealii15TriaRawIteratorINS_17MGDoFCellAccessorILi3ELi3EEEEptEv = comdat any

$_ZNK6dealii12TriaAccessorILi3ELi3ELi3EE4usedEv = comdat any

$_ZN6dealii15TriaRawIteratorINS_17MGDoFCellAccessorILi3ELi3EEEEppEv = comdat any

$_ZN6dealii18TriaActiveIteratorINS_17MGDoFCellAccessorILi3ELi3EEEEC2ERKNS_12TriaIteratorIS2_EE = comdat any

$_ZNK6dealii12TriaAccessorILi3ELi3ELi3EE12has_childrenEv = comdat any

$_ZNK6dealii12MGDoFHandlerILi3ELi3EE7end_hexEj = comdat any

$_ZNK6dealii12MGDoFHandlerILi3ELi3EE11end_raw_hexEj = comdat any

$_ZNK6dealii12MGDoFHandlerILi3ELi3EE14end_active_hexEj = comdat any

$_ZN6dealii15TriaRawIteratorINS_17MGDoFCellAccessorILi3ELi3EEEEmmEv = comdat any

$_ZN6dealii12TriaIteratorINS_17MGDoFCellAccessorILi3ELi3EEEEmmEv = comdat any

$_ZNK6dealii12MGDoFHandlerILi3ELi3EE6n_dofsEj = comdat any

$_ZNKSt6vectorIjSaIjEEixEm = comdat any

$_ZNK6dealii12MGDoFHandlerILi3ELi3EE6n_dofsEv = comdat any

$_ZNK6dealii10DoFHandlerILi3ELi3EE6n_dofsEv = comdat any

$_ZNK6dealii12MGDoFHandlerILi3ELi3EE18memory_consumptionEv = comdat any

$_ZNKSt6vectorIPN6dealii8internal10DoFHandler8DoFLevelILi3EEESaIS5_EE4sizeEv = comdat any

$_ZNKSt6vectorIPN6dealii8internal10DoFHandler8DoFLevelILi3EEESaIS5_EEixEm = comdat any

$_ZN6dealii17MemoryConsumption18memory_consumptionINS_8internal10DoFHandler8DoFFacesILi3EEEEEjRKT_ = comdat any

$_ZNKSt6vectorIN6dealii12MGDoFHandlerILi3ELi3EE12MGVertexDoFsESaIS3_EE4sizeEv = comdat any

$_ZNKSt6vectorIN6dealii12MGDoFHandlerILi3ELi3EE12MGVertexDoFsESaIS3_EEixEm = comdat any

$_ZNK6dealii12MGDoFHandlerILi3ELi3EE12MGVertexDoFs16get_finest_levelEv = comdat any

$_ZNK6dealii12MGDoFHandlerILi3ELi3EE12MGVertexDoFs18get_coarsest_levelEv = comdat any

$_ZN6dealii17MemoryConsumption18memory_consumptionIjEEjRKSt6vectorIT_SaIS3_EE = comdat any

$_ZN6dealii12MGDoFHandlerILi3ELi3EE15ExcInvalidLevelC5Ei = comdat any

$_ZN6dealii12MGDoFHandlerILi3ELi3EE15ExcInvalidLevelD5Ev = comdat any

$_ZNK6dealii12MGDoFHandlerILi3ELi3EE15ExcInvalidLevel10print_infoERSo = comdat any

$_ZN6dealii12MGDoFHandlerILi3ELi3EE13ExcEmptyLevelC5Ei = comdat any

$_ZN6dealii12MGDoFHandlerILi3ELi3EE13ExcEmptyLevelD5Ev = comdat any

$_ZNK6dealii12MGDoFHandlerILi3ELi3EE13ExcEmptyLevel10print_infoERSo = comdat any

$_ZN6dealii12MGDoFHandlerILi3ELi3EE12MGVertexDoFsC5Ev = comdat any

$_ZN6dealii12MGDoFHandlerILi3ELi3EE12MGVertexDoFs4initEjjj = comdat any

$_ZN6dealii12MGDoFHandlerILi3ELi3EE12MGVertexDoFsD5Ev = comdat any

$_ZN6dealii12MGDoFHandlerILi3ELi3EE12MGVertexDoFsaSERKS2_ = comdat any

$_ZN6dealii12MGDoFHandlerILi3ELi3EE12MGVertexDoFs9set_indexEjjjj = comdat any

$_ZNK6dealii12MGDoFHandlerILi3ELi3EE12MGVertexDoFs9get_indexEjjj = comdat any

$_ZN6dealii12MGDoFHandlerILi3ELi3EE12MGVertexDoFs15ExcInvalidLevelC5Ei = comdat any

$_ZN6dealii12MGDoFHandlerILi3ELi3EE12MGVertexDoFs15ExcInvalidLevelD5Ev = comdat any

$_ZNK6dealii12MGDoFHandlerILi3ELi3EE12MGVertexDoFs15ExcInvalidLevel10print_infoERSo = comdat any

$_ZNSt6vectorIPN6dealii8internal10DoFHandler8DoFLevelILi3EEESaIS5_EEixEm = comdat any

$_ZN6dealii8internal10DoFHandler8DoFLevelILi3EED2Ev = comdat any

$_ZNSt6vectorIPN6dealii8internal10DoFHandler8DoFLevelILi3EEESaIS5_EE5clearEv = comdat any

$_ZN6dealii8internal10DoFHandler8DoFFacesILi3EED2Ev = comdat any

$_ZSt4swapIN6dealii12MGDoFHandlerILi3ELi3EE12MGVertexDoFsESaIS3_EEvRSt6vectorIT_T0_ES9_ = comdat any

$_ZNK6dealii8internal10DoFHandler10DoFObjectsILi1EE13get_dof_indexILi3ELi3EEEjRKNS_10DoFHandlerIXT_EXT0_EEEjjj = comdat any

$_ZNK6dealii8internal10DoFHandler10DoFObjectsILi2EE13get_dof_indexILi3ELi3EEEjRKNS_10DoFHandlerIXT_EXT0_EEEjjj = comdat any

$_ZNK6dealii8internal10DoFHandler10DoFObjectsILi3EE13get_dof_indexILi3ELi3EEEjRKNS_10DoFHandlerIXT_EXT0_EEEjjj = comdat any

$_ZNK6dealii12SmartPointerIKNS_13FiniteElementILi3ELi3EEEEptEv = comdat any

$_ZNK6dealii16TriaAccessorBaseILi3ELi3ELi3EE5levelEv = comdat any

$_ZNK6dealii12TriaAccessorILi3ELi3ELi3EE13set_user_flagEv = comdat any

$_ZNSt6vectorIN6dealii12MGDoFHandlerILi3ELi3EE12MGVertexDoFsESaIS3_EE5beginEv = comdat any

$_ZN9__gnu_cxxneIPN6dealii12MGDoFHandlerILi3ELi3EE12MGVertexDoFsESt6vectorIS4_SaIS4_EEEEbRKNS_17__normal_iteratorIT_T0_EESE_ = comdat any

$_ZNSt6vectorIN6dealii12MGDoFHandlerILi3ELi3EE12MGVertexDoFsESaIS3_EE3endEv = comdat any

$_ZNK9__gnu_cxx17__normal_iteratorIPN6dealii12MGDoFHandlerILi3ELi3EE12MGVertexDoFsESt6vectorIS4_SaIS4_EEEptEv = comdat any

$_ZN9__gnu_cxx17__normal_iteratorIPN6dealii12MGDoFHandlerILi3ELi3EE12MGVertexDoFsESt6vectorIS4_SaIS4_EEEppEv = comdat any

$_ZNK6dealii12TriaAccessorILi1ELi3ELi3EE13set_user_flagEv = comdat any

$_ZNK6dealii15TriaRawIteratorINS_13MGDoFAccessorILi1ELi3ELi3EEEEneERKS3_ = comdat any

$_ZNK6dealii12TriaAccessorILi1ELi3ELi3EE13user_flag_setEv = comdat any

$_ZNK6dealii12TriaAccessorILi1ELi3ELi3EE15clear_user_flagEv = comdat any

$_ZNK6dealii12TriaAccessorILi2ELi3ELi3EE13set_user_flagEv = comdat any

$_ZNK6dealii15TriaRawIteratorINS_13MGDoFAccessorILi2ELi3ELi3EEEEneERKS3_ = comdat any

$_ZNK6dealii12TriaAccessorILi2ELi3ELi3EE13user_flag_setEv = comdat any

$_ZNK6dealii12TriaAccessorILi2ELi3ELi3EE15clear_user_flagEv = comdat any

$_ZNSt6vectorIjSaIjEE5beginEv = comdat any

$_ZN9__gnu_cxxneIPjSt6vectorIjSaIjEEEEbRKNS_17__normal_iteratorIT_T0_EESA_ = comdat any

$_ZNSt6vectorIjSaIjEE3endEv = comdat any

$_ZNK9__gnu_cxx17__normal_iteratorIPjSt6vectorIjSaIjEEEdeEv = comdat any

$_ZN9__gnu_cxx17__normal_iteratorIPjSt6vectorIjSaIjEEEppEv = comdat any

$_ZNSt6vectorIPN6dealii8internal10DoFHandler8DoFLevelILi3EEESaIS5_EE9push_backEOS5_ = comdat any

$_ZN6dealii8internal10DoFHandler8DoFLevelILi3EEC2Ev = comdat any

$_ZNSaIjEC2Ev = comdat any

$_ZNSt6vectorIjSaIjEEC2EmRKjRKS0_ = comdat any

$_ZNSt6vectorIPN6dealii8internal10DoFHandler8DoFLevelILi3EEESaIS5_EE4backEv = comdat any

$_ZNSt6vectorIjSaIjEEaSEOS1_ = comdat any

$_ZNSaIjED2Ev = comdat any

$_ZN6dealii8internal10DoFHandler8DoFFacesILi3EEC2Ev = comdat any

$_ZNSt6vectorIN6dealii12MGDoFHandlerILi3ELi3EE12MGVertexDoFsESaIS3_EE6resizeEm = comdat any

$_ZN6dealii12TriaIteratorINS_12CellAccessorILi3ELi3EEEEC2ERKNS_15TriaRawIteratorIS2_EE = comdat any

$_ZNK6dealii15TriaRawIteratorINS_12CellAccessorILi3ELi3EEEEneERKS3_ = comdat any

$_ZN6dealii15TriaRawIteratorINS_12CellAccessorILi3ELi3EEEEptEv = comdat any

$_ZNK6dealii12TriaAccessorILi3ELi3ELi3EE12vertex_indexEj = comdat any

$_ZN6dealii12TriaIteratorINS_12CellAccessorILi3ELi3EEEEppEv = comdat any

$_ZNK6dealii13TriangulationILi3ELi3EE11vertex_usedEj = comdat any

$_ZNSt6vectorIN6dealii12MGDoFHandlerILi3ELi3EE12MGVertexDoFsESaIS3_EEixEm = comdat any

$_ZNK6dealii10DoFHandlerILi3ELi3EE6get_feEv = comdat any

$_ZN6dealii12MGDoFHandlerILi3ELi3EE19ExcFacesHaveNoLevelD2Ev = comdat any

$_ZN6dealii12MGDoFHandlerILi3ELi3EE19ExcFacesHaveNoLevelD0Ev = comdat any

$_ZN6dealii12MGDoFHandlerILi3ELi3EE12MGVertexDoFs11ExcNoMemoryD2Ev = comdat any

$_ZN6dealii12MGDoFHandlerILi3ELi3EE12MGVertexDoFs11ExcNoMemoryD0Ev = comdat any

$_ZNSt12_Vector_baseIPN6dealii8internal10DoFHandler8DoFLevelILi3EEESaIS5_EEC2Ev = comdat any

$_ZNSt12_Vector_baseIPN6dealii8internal10DoFHandler8DoFLevelILi3EEESaIS5_EE12_Vector_implC2Ev = comdat any

$_ZNSaIPN6dealii8internal10DoFHandler8DoFLevelILi3EEEEC2Ev = comdat any

$_ZNSt12_Vector_baseIPN6dealii8internal10DoFHandler8DoFLevelILi3EEESaIS5_EE17_Vector_impl_dataC2Ev = comdat any

$_ZN9__gnu_cxx13new_allocatorIPN6dealii8internal10DoFHandler8DoFLevelILi3EEEEC2Ev = comdat any

$_ZNSt12_Vector_baseIN6dealii12MGDoFHandlerILi3ELi3EE12MGVertexDoFsESaIS3_EEC2Ev = comdat any

$_ZNSt12_Vector_baseIN6dealii12MGDoFHandlerILi3ELi3EE12MGVertexDoFsESaIS3_EE12_Vector_implC2Ev = comdat any

$_ZNSaIN6dealii12MGDoFHandlerILi3ELi3EE12MGVertexDoFsEEC2Ev = comdat any

$_ZN9__gnu_cxx13new_allocatorIN6dealii12MGDoFHandlerILi3ELi3EE12MGVertexDoFsEEC2Ev = comdat any

$_ZNSt12_Vector_baseIjSaIjEEC2Ev = comdat any

$_ZNSt12_Vector_baseIjSaIjEE12_Vector_implC2Ev = comdat any

$_ZN9__gnu_cxx13new_allocatorIjEC2Ev = comdat any

$_ZNSt13_Bvector_baseISaIbEEC2Ev = comdat any

$_ZNSt13_Bvector_baseISaIbEE13_Bvector_implC2Ev = comdat any

$_ZNSaImEC2Ev = comdat any

$_ZNSt13_Bvector_baseISaIbEE18_Bvector_impl_dataC2Ev = comdat any

$_ZN9__gnu_cxx13new_allocatorImEC2Ev = comdat any

$_ZNSt13_Bit_iteratorC2Ev = comdat any

$_ZNSt18_Bit_iterator_baseC2EPmj = comdat any

$_ZN6dealii8internal10DoFHandler10DoFObjectsILi3EED2Ev = comdat any

$_ZN6dealii8internal10DoFHandler8DoFLevelILi0EED2Ev = comdat any

$_ZN6dealii8internal10DoFHandler10DoFObjectsILi2EED2Ev = comdat any

$_ZN6dealii8internal10DoFHandler10DoFObjectsILi1EED2Ev = comdat any

$_ZN6dealii8internal10DoFHandler8DoFLevelILi0EEC2Ev = comdat any

$_ZN6dealii8internal10DoFHandler10DoFObjectsILi3EEC2Ev = comdat any

$_ZN6dealii8internal10DoFHandler10DoFObjectsILi1EEC2Ev = comdat any

$_ZN6dealii8internal10DoFHandler10DoFObjectsILi2EEC2Ev = comdat any

$_ZNSt13_Bvector_baseISaIbEED2Ev = comdat any

$_ZNSt13_Bvector_baseISaIbEE13_M_deallocateEv = comdat any

$_ZNSt13_Bvector_baseISaIbEE13_Bvector_implD2Ev = comdat any

$_ZNKSt13_Bvector_baseISaIbEE13_Bvector_impl11_M_end_addrEv = comdat any

$_ZNSt16allocator_traitsISaImEE10deallocateERS0_Pmm = comdat any

$_ZNSt13_Bvector_baseISaIbEE18_Bvector_impl_data8_M_resetEv = comdat any

$_ZSt11__addressofImEPT_RS0_ = comdat any

$_ZN9__gnu_cxx13new_allocatorImE10deallocateEPmm = comdat any

$_ZNSaImED2Ev = comdat any

$_ZN9__gnu_cxx13new_allocatorImED2Ev = comdat any

$_ZNK6dealii16TriaAccessorBaseILi2ELi3ELi3EE7objectsEv = comdat any

$_ZNSt6vectorIiSaIiEEixEm = comdat any

$_ZN6dealii8internal16TriaAccessorBase11get_objectsILi3EEERNS0_13Triangulation11TriaObjectsINS3_10TriaObjectILi2EEEEEPNS3_9TriaFacesIXT_EEENS0_8int2typeILi2EEE = comdat any

$_ZN9__gnu_cxx13new_allocatorIjED2Ev = comdat any

$_ZNK6dealii17FiniteElementDataILi3EE17n_dofs_per_objectILi1EEEjv = comdat any

$_ZNK6dealii17FiniteElementDataILi3EE17n_dofs_per_objectILi2EEEjv = comdat any

$_ZNK6dealii17FiniteElementDataILi3EE17n_dofs_per_objectILi3EEEjv = comdat any

$_ZN6dealii15TriaRawIteratorINS_17MGDoFCellAccessorILi3ELi3EEEEdeEv = comdat any

$_ZN6dealii15TriaRawIteratorINS_13MGDoFAccessorILi1ELi3ELi3EEEEdeEv = comdat any

$_ZN6dealii15TriaRawIteratorINS_13MGDoFAccessorILi2ELi3ELi3EEEEdeEv = comdat any

$_ZNK6dealii16TriaAccessorBaseILi3ELi3ELi3EE7objectsEv = comdat any

$_ZNSt6vectorIbSaIbEEixEm = comdat any

$_ZNSt14_Bit_referenceaSEb = comdat any

$_ZNKSt6vectorIPN6dealii8internal13Triangulation9TriaLevelILi3EEESaIS5_EEixEm = comdat any

$_ZNSt13_Bit_iteratorC2EPmj = comdat any

$_ZNKSt13_Bit_iteratordeEv = comdat any

$_ZNSt14_Bit_referenceC2EPmm = comdat any

$_ZN9__gnu_cxx17__normal_iteratorIPN6dealii12MGDoFHandlerILi3ELi3EE12MGVertexDoFsESt6vectorIS4_SaIS4_EEEC2ERKS5_ = comdat any

$_ZNK9__gnu_cxx17__normal_iteratorIPN6dealii12MGDoFHandlerILi3ELi3EE12MGVertexDoFsESt6vectorIS4_SaIS4_EEE4baseEv = comdat any

$_ZNK6dealii11DoFAccessorILi3ENS_10DoFHandlerILi3ELi3EEEEneERKS3_ = comdat any

$_ZNK6dealii16TriaAccessorBaseILi3ELi3ELi3EEneERKS1_ = comdat any

$_ZNK6dealii16TriaAccessorBaseILi1ELi3ELi3EE7objectsEv = comdat any

$_ZN6dealii8internal16TriaAccessorBase11get_objectsILi3EEERNS0_13Triangulation11TriaObjectsINS3_10TriaObjectILi1EEEEEPNS3_9TriaFacesIXT_EEENS0_8int2typeILi1EEE = comdat any

$_ZN6dealii15TriaRawIteratorINS_13MGDoFAccessorILi1ELi3ELi3EEEEC2ERKS2_ = comdat any

$_ZNK6dealii11DoFAccessorILi1ENS_10DoFHandlerILi3ELi3EEEEneERKS3_ = comdat any

$_ZNK6dealii16TriaAccessorBaseILi1ELi3ELi3EEneERKS1_ = comdat any

$_ZNKSt14_Bit_referencecvbEv = comdat any

$_ZN6dealii15TriaRawIteratorINS_13MGDoFAccessorILi2ELi3ELi3EEEEC2ERKS2_ = comdat any

$_ZNK6dealii11DoFAccessorILi2ENS_10DoFHandlerILi3ELi3EEEEneERKS3_ = comdat any

$_ZNK6dealii16TriaAccessorBaseILi2ELi3ELi3EEneERKS1_ = comdat any

$_ZN9__gnu_cxx17__normal_iteratorIPjSt6vectorIjSaIjEEEC2ERKS1_ = comdat any

$_ZNK9__gnu_cxx17__normal_iteratorIPjSt6vectorIjSaIjEEE4baseEv = comdat any

$_ZSt8_DestroyIPjjEvT_S1_RSaIT0_E = comdat any

$_ZNSt12_Vector_baseIjSaIjEE19_M_get_Tp_allocatorEv = comdat any

$_ZNSt12_Vector_baseIjSaIjEED2Ev = comdat any

$_ZSt8_DestroyIPjEvT_S1_ = comdat any

$_ZNSt12_Destroy_auxILb1EE9__destroyIPjEEvT_S3_ = comdat any

$_ZNSt12_Vector_baseIjSaIjEE13_M_deallocateEPjm = comdat any

$_ZNSt12_Vector_baseIjSaIjEE12_Vector_implD2Ev = comdat any

$_ZNSt16allocator_traitsISaIjEE10deallocateERS0_Pjm = comdat any

$_ZN9__gnu_cxx13new_allocatorIjE10deallocateEPjm = comdat any

$_ZNSt6vectorIPN6dealii8internal10DoFHandler8DoFLevelILi3EEESaIS5_EE12emplace_backIJS5_EEEvDpOT_ = comdat any

$_ZSt4moveIRPN6dealii8internal10DoFHandler8DoFLevelILi3EEEEONSt16remove_referenceIT_E4typeEOS8_ = comdat any

$_ZNSt16allocator_traitsISaIPN6dealii8internal10DoFHandler8DoFLevelILi3EEEEE9constructIS5_JS5_EEEvRS6_PT_DpOT0_ = comdat any

$_ZSt7forwardIPN6dealii8internal10DoFHandler8DoFLevelILi3EEEEOT_RNSt16remove_referenceIS6_E4typeE = comdat any

$_ZNSt6vectorIPN6dealii8internal10DoFHandler8DoFLevelILi3EEESaIS5_EE17_M_realloc_insertIJS5_EEEvN9__gnu_cxx17__normal_iteratorIPS5_S7_EEDpOT_ = comdat any

$_ZNSt6vectorIPN6dealii8internal10DoFHandler8DoFLevelILi3EEESaIS5_EE3endEv = comdat any

$_ZN9__gnu_cxx13new_allocatorIPN6dealii8internal10DoFHandler8DoFLevelILi3EEEE9constructIS6_JS6_EEEvPT_DpOT0_ = comdat any

$_ZNKSt6vectorIPN6dealii8internal10DoFHandler8DoFLevelILi3EEESaIS5_EE12_M_check_lenEmPKc = comdat any

$_ZN9__gnu_cxxmiIPPN6dealii8internal10DoFHandler8DoFLevelILi3EEESt6vectorIS6_SaIS6_EEEENS_17__normal_iteratorIT_T0_E15difference_typeERKSE_SH_ = comdat any

$_ZNSt6vectorIPN6dealii8internal10DoFHandler8DoFLevelILi3EEESaIS5_EE5beginEv = comdat any

$_ZNSt12_Vector_baseIPN6dealii8internal10DoFHandler8DoFLevelILi3EEESaIS5_EE11_M_allocateEm = comdat any

$_ZNSt6vectorIPN6dealii8internal10DoFHandler8DoFLevelILi3EEESaIS5_EE11_S_relocateEPS5_S8_S8_RS6_ = comdat any

$_ZNK9__gnu_cxx17__normal_iteratorIPPN6dealii8internal10DoFHandler8DoFLevelILi3EEESt6vectorIS6_SaIS6_EEE4baseEv = comdat any

$_ZNSt12_Vector_baseIPN6dealii8internal10DoFHandler8DoFLevelILi3EEESaIS5_EE19_M_get_Tp_allocatorEv = comdat any

$_ZNSt12_Vector_baseIPN6dealii8internal10DoFHandler8DoFLevelILi3EEESaIS5_EE13_M_deallocateEPS5_m = comdat any

$_ZNKSt6vectorIPN6dealii8internal10DoFHandler8DoFLevelILi3EEESaIS5_EE8max_sizeEv = comdat any

$_ZSt3maxImERKT_S2_S2_ = comdat any

$_ZNSt6vectorIPN6dealii8internal10DoFHandler8DoFLevelILi3EEESaIS5_EE11_S_max_sizeERKS6_ = comdat any

$_ZNKSt12_Vector_baseIPN6dealii8internal10DoFHandler8DoFLevelILi3EEESaIS5_EE19_M_get_Tp_allocatorEv = comdat any

$_ZNSt16allocator_traitsISaIPN6dealii8internal10DoFHandler8DoFLevelILi3EEEEE8max_sizeERKS6_ = comdat any

$_ZSt3minImERKT_S2_S2_ = comdat any

$_ZNK9__gnu_cxx13new_allocatorIPN6dealii8internal10DoFHandler8DoFLevelILi3EEEE8max_sizeEv = comdat any

$_ZNK9__gnu_cxx13new_allocatorIPN6dealii8internal10DoFHandler8DoFLevelILi3EEEE11_M_max_sizeEv = comdat any

$_ZN9__gnu_cxx17__normal_iteratorIPPN6dealii8internal10DoFHandler8DoFLevelILi3EEESt6vectorIS6_SaIS6_EEEC2ERKS7_ = comdat any

$_ZNSt16allocator_traitsISaIPN6dealii8internal10DoFHandler8DoFLevelILi3EEEEE8allocateERS6_m = comdat any

$_ZN9__gnu_cxx13new_allocatorIPN6dealii8internal10DoFHandler8DoFLevelILi3EEEE8allocateEmPKv = comdat any

$_ZNSt6vectorIPN6dealii8internal10DoFHandler8DoFLevelILi3EEESaIS5_EE14_S_do_relocateEPS5_S8_S8_RS6_St17integral_constantIbLb1EE = comdat any

$_ZSt12__relocate_aIPPN6dealii8internal10DoFHandler8DoFLevelILi3EEES6_SaIS5_EET0_T_S9_S8_RT1_ = comdat any

$_ZSt14__relocate_a_1IPN6dealii8internal10DoFHandler8DoFLevelILi3EEES5_ENSt9enable_ifIXsr3std24__is_bitwise_relocatableIT_EE5valueEPS7_E4typeES8_S8_S8_RSaIT0_E = comdat any

$_ZSt12__niter_baseIPPN6dealii8internal10DoFHandler8DoFLevelILi3EEEET_S7_ = comdat any

$_ZNSt16allocator_traitsISaIPN6dealii8internal10DoFHandler8DoFLevelILi3EEEEE10deallocateERS6_PS5_m = comdat any

$_ZN9__gnu_cxx13new_allocatorIPN6dealii8internal10DoFHandler8DoFLevelILi3EEEE10deallocateEPS6_m = comdat any

$_ZNK9__gnu_cxx17__normal_iteratorIPPN6dealii8internal10DoFHandler8DoFLevelILi3EEESt6vectorIS6_SaIS6_EEEmiEl = comdat any

$_ZNK9__gnu_cxx17__normal_iteratorIPPN6dealii8internal10DoFHandler8DoFLevelILi3EEESt6vectorIS6_SaIS6_EEEdeEv = comdat any

$_ZNSt6vectorIjSaIjEE17_S_check_init_lenEmRKS0_ = comdat any

$_ZNSt12_Vector_baseIjSaIjEEC2EmRKS0_ = comdat any

$_ZNSt6vectorIjSaIjEE18_M_fill_initializeEmRKj = comdat any

$_ZNSt6vectorIjSaIjEE11_S_max_sizeERKS0_ = comdat any

$_ZNSaIjEC2ERKS_ = comdat any

$_ZNSt16allocator_traitsISaIjEE8max_sizeERKS0_ = comdat any

$_ZNK9__gnu_cxx13new_allocatorIjE8max_sizeEv = comdat any

$_ZNK9__gnu_cxx13new_allocatorIjE11_M_max_sizeEv = comdat any

$_ZN9__gnu_cxx13new_allocatorIjEC2ERKS1_ = comdat any

$_ZNSt12_Vector_baseIjSaIjEE12_Vector_implC2ERKS0_ = comdat any

$_ZNSt12_Vector_baseIjSaIjEE17_M_create_storageEm = comdat any

$_ZNSt12_Vector_baseIjSaIjEE11_M_allocateEm = comdat any

$_ZNSt16allocator_traitsISaIjEE8allocateERS0_m = comdat any

$_ZN9__gnu_cxx13new_allocatorIjE8allocateEmPKv = comdat any

$_ZSt24__uninitialized_fill_n_aIPjmjjET_S1_T0_RKT1_RSaIT2_E = comdat any

$_ZSt20uninitialized_fill_nIPjmjET_S1_T0_RKT1_ = comdat any

$_ZNSt22__uninitialized_fill_nILb1EE15__uninit_fill_nIPjmjEET_S3_T0_RKT1_ = comdat any

$_ZSt6fill_nIPjmjET_S1_T0_RKT1_ = comdat any

$_ZSt10__fill_n_aIPjmjET_S1_T0_RKT1_St26random_access_iterator_tag = comdat any

$_ZSt17__size_to_integerm = comdat any

$_ZSt19__iterator_categoryIPjENSt15iterator_traitsIT_E17iterator_categoryERKS2_ = comdat any

$_ZSt8__fill_aIPjjEvT_S1_RKT0_ = comdat any

$_ZSt9__fill_a1IPjjEN9__gnu_cxx11__enable_ifIXsr11__is_scalarIT0_EE7__valueEvE6__typeET_S6_RKS3_ = comdat any

$_ZNSt6vectorIjSaIjEE14_M_move_assignEOS1_St17integral_constantIbLb1EE = comdat any

$_ZSt4moveIRSt6vectorIjSaIjEEEONSt16remove_referenceIT_E4typeEOS5_ = comdat any

$_ZNKSt12_Vector_baseIjSaIjEE13get_allocatorEv = comdat any

$_ZNSt6vectorIjSaIjEEC2ERKS0_ = comdat any

$_ZNSt12_Vector_baseIjSaIjEE17_Vector_impl_data12_M_swap_dataERS2_ = comdat any

$_ZSt15__alloc_on_moveISaIjEEvRT_S2_ = comdat any

$_ZNKSt12_Vector_baseIjSaIjEE19_M_get_Tp_allocatorEv = comdat any

$_ZNSt12_Vector_baseIjSaIjEEC2ERKS0_ = comdat any

$_ZNSt12_Vector_baseIjSaIjEE17_Vector_impl_dataC2Ev = comdat any

$_ZNSt12_Vector_baseIjSaIjEE17_Vector_impl_data12_M_copy_dataERKS2_ = comdat any

$_ZSt18__do_alloc_on_moveISaIjEEvRT_S2_St17integral_constantIbLb1EE = comdat any

$_ZSt4moveIRSaIjEEONSt16remove_referenceIT_E4typeEOS3_ = comdat any

$_ZNSt6vectorIN6dealii12MGDoFHandlerILi3ELi3EE12MGVertexDoFsESaIS3_EE17_M_default_appendEm = comdat any

$_ZNSt6vectorIN6dealii12MGDoFHandlerILi3ELi3EE12MGVertexDoFsESaIS3_EE15_M_erase_at_endEPS3_ = comdat any

$_ZNKSt6vectorIN6dealii12MGDoFHandlerILi3ELi3EE12MGVertexDoFsESaIS3_EE8max_sizeEv = comdat any

$_ZSt27__uninitialized_default_n_aIPN6dealii12MGDoFHandlerILi3ELi3EE12MGVertexDoFsEmS3_ET_S5_T0_RSaIT1_E = comdat any

$_ZNSt12_Vector_baseIN6dealii12MGDoFHandlerILi3ELi3EE12MGVertexDoFsESaIS3_EE19_M_get_Tp_allocatorEv = comdat any

$_ZNKSt6vectorIN6dealii12MGDoFHandlerILi3ELi3EE12MGVertexDoFsESaIS3_EE12_M_check_lenEmPKc = comdat any

$_ZNSt12_Vector_baseIN6dealii12MGDoFHandlerILi3ELi3EE12MGVertexDoFsESaIS3_EE11_M_allocateEm = comdat any

$_ZNSt12_Vector_baseIN6dealii12MGDoFHandlerILi3ELi3EE12MGVertexDoFsESaIS3_EE13_M_deallocateEPS3_m = comdat any

$_ZNSt6vectorIN6dealii12MGDoFHandlerILi3ELi3EE12MGVertexDoFsESaIS3_EE11_S_relocateEPS3_S6_S6_RS4_ = comdat any

$_ZNSt6vectorIN6dealii12MGDoFHandlerILi3ELi3EE12MGVertexDoFsESaIS3_EE11_S_max_sizeERKS4_ = comdat any

$_ZNKSt12_Vector_baseIN6dealii12MGDoFHandlerILi3ELi3EE12MGVertexDoFsESaIS3_EE19_M_get_Tp_allocatorEv = comdat any

$_ZNSt16allocator_traitsISaIN6dealii12MGDoFHandlerILi3ELi3EE12MGVertexDoFsEEE8max_sizeERKS4_ = comdat any

$_ZNK9__gnu_cxx13new_allocatorIN6dealii12MGDoFHandlerILi3ELi3EE12MGVertexDoFsEE8max_sizeEv = comdat any

$_ZNK9__gnu_cxx13new_allocatorIN6dealii12MGDoFHandlerILi3ELi3EE12MGVertexDoFsEE11_M_max_sizeEv = comdat any

$_ZSt25__uninitialized_default_nIPN6dealii12MGDoFHandlerILi3ELi3EE12MGVertexDoFsEmET_S5_T0_ = comdat any

$_ZNSt27__uninitialized_default_n_1ILb0EE18__uninit_default_nIPN6dealii12MGDoFHandlerILi3ELi3EE12MGVertexDoFsEmEET_S7_T0_ = comdat any

$_ZSt10_ConstructIN6dealii12MGDoFHandlerILi3ELi3EE12MGVertexDoFsEJEEvPT_DpOT0_ = comdat any

$_ZSt11__addressofIN6dealii12MGDoFHandlerILi3ELi3EE12MGVertexDoFsEEPT_RS4_ = comdat any

$_ZSt8_DestroyIPN6dealii12MGDoFHandlerILi3ELi3EE12MGVertexDoFsEEvT_S5_ = comdat any

$_ZNSt12_Destroy_auxILb0EE9__destroyIPN6dealii12MGDoFHandlerILi3ELi3EE12MGVertexDoFsEEEvT_S7_ = comdat any

$_ZSt8_DestroyIN6dealii12MGDoFHandlerILi3ELi3EE12MGVertexDoFsEEvPT_ = comdat any

$_ZNSt16allocator_traitsISaIN6dealii12MGDoFHandlerILi3ELi3EE12MGVertexDoFsEEE8allocateERS4_m = comdat any

$_ZN9__gnu_cxx13new_allocatorIN6dealii12MGDoFHandlerILi3ELi3EE12MGVertexDoFsEE8allocateEmPKv = comdat any

$_ZNSt16allocator_traitsISaIN6dealii12MGDoFHandlerILi3ELi3EE12MGVertexDoFsEEE10deallocateERS4_PS3_m = comdat any

$_ZN9__gnu_cxx13new_allocatorIN6dealii12MGDoFHandlerILi3ELi3EE12MGVertexDoFsEE10deallocateEPS4_m = comdat any

$_ZNSt6vectorIN6dealii12MGDoFHandlerILi3ELi3EE12MGVertexDoFsESaIS3_EE14_S_do_relocateEPS3_S6_S6_RS4_St17integral_constantIbLb1EE = comdat any

$_ZSt12__relocate_aIPN6dealii12MGDoFHandlerILi3ELi3EE12MGVertexDoFsES4_SaIS3_EET0_T_S7_S6_RT1_ = comdat any

$_ZSt14__relocate_a_1IPN6dealii12MGDoFHandlerILi3ELi3EE12MGVertexDoFsES4_SaIS3_EET0_T_S7_S6_RT1_ = comdat any

$_ZSt12__niter_baseIPN6dealii12MGDoFHandlerILi3ELi3EE12MGVertexDoFsEET_S5_ = comdat any

$_ZSt19__relocate_object_aIN6dealii12MGDoFHandlerILi3ELi3EE12MGVertexDoFsES3_SaIS3_EEvPT_PT0_RT1_ = comdat any

$_ZNSt16allocator_traitsISaIN6dealii12MGDoFHandlerILi3ELi3EE12MGVertexDoFsEEE9constructIS3_JS3_EEEvRS4_PT_DpOT0_ = comdat any

$_ZSt4moveIRN6dealii12MGDoFHandlerILi3ELi3EE12MGVertexDoFsEEONSt16remove_referenceIT_E4typeEOS6_ = comdat any

$_ZNSt16allocator_traitsISaIN6dealii12MGDoFHandlerILi3ELi3EE12MGVertexDoFsEEE7destroyIS3_EEvRS4_PT_ = comdat any

$_ZN9__gnu_cxx13new_allocatorIN6dealii12MGDoFHandlerILi3ELi3EE12MGVertexDoFsEE9constructIS4_JS4_EEEvPT_DpOT0_ = comdat any

$_ZSt7forwardIN6dealii12MGDoFHandlerILi3ELi3EE12MGVertexDoFsEEOT_RNSt16remove_referenceIS4_E4typeE = comdat any

$_ZN9__gnu_cxx13new_allocatorIN6dealii12MGDoFHandlerILi3ELi3EE12MGVertexDoFsEE7destroyIS4_EEvPT_ = comdat any

$_ZSt8_DestroyIPN6dealii12MGDoFHandlerILi3ELi3EE12MGVertexDoFsES3_EvT_S5_RSaIT0_E = comdat any

$_ZN6dealii15TriaRawIteratorINS_12CellAccessorILi3ELi3EEEEC2ERKS2_ = comdat any

$_ZN6dealii12CellAccessorILi3ELi3EEC2ERKS1_ = comdat any

$_ZN6dealii15TriaRawIteratorINS_12CellAccessorILi3ELi3EEEEppEv = comdat any

$_ZNK6dealii15TriaRawIteratorINS_12CellAccessorILi3ELi3EEEE5stateEv = comdat any

$_ZN6dealii16TriaAccessorBaseILi3ELi3ELi3EEppEv = comdat any

$_ZNKSt6vectorIN6dealii8internal13Triangulation10TriaObjectILi3EEESaIS4_EE4sizeEv = comdat any

$_ZNKSt6vectorIPN6dealii8internal13Triangulation9TriaLevelILi3EEESaIS5_EE4sizeEv = comdat any

$_ZNK6dealii16TriaAccessorBaseILi3ELi3ELi3EE5stateEv = comdat any

$_ZN6dealii15TriaRawIteratorINS_12CellAccessorILi3ELi3EEEEdeEv = comdat any

$_ZN6dealii8internal12TriaAccessor14Implementation12vertex_indexILi3ELi3EEEjRKNS_12TriaAccessorILi3EXT_EXT0_EEEj = comdat any

$_ZNK6dealii12TriaAccessorILi3ELi3ELi3EE4quadEj = comdat any

$_ZN6dealii15TriaRawIteratorINS_12TriaAccessorILi2ELi3ELi3EEEEptEv = comdat any

$_ZNK6dealii12TriaAccessorILi2ELi3ELi3EE12vertex_indexEj = comdat any

$_ZNK6dealii12TriaAccessorILi3ELi3ELi3EE16face_orientationEj = comdat any

$_ZNK6dealii12TriaAccessorILi3ELi3ELi3EE9face_flipEj = comdat any

$_ZNK6dealii12TriaAccessorILi3ELi3ELi3EE13face_rotationEj = comdat any

$_ZNK6dealii12TriaAccessorILi3ELi3ELi3EE10quad_indexEj = comdat any

$_ZN6dealii12TriaIteratorINS_12TriaAccessorILi2ELi3ELi3EEEEC2EPKNS_13TriangulationILi3ELi3EEEiiPKv = comdat any

$_ZN6dealii8internal12TriaAccessor14Implementation10quad_indexILi3ELi3EEEjRKNS_12TriaAccessorILi3EXT_EXT0_EEEj = comdat any

$_ZNSt6vectorIN6dealii8internal13Triangulation10TriaObjectILi3EEESaIS4_EEixEm = comdat any

$_ZNK6dealii8internal13Triangulation10TriaObjectILi3EE4faceEj = comdat any

$_ZN6dealii15TriaRawIteratorINS_12TriaAccessorILi2ELi3ELi3EEEEC2EPKNS_13TriangulationILi3ELi3EEEiiPKv = comdat any

$_ZN6dealii12TriaAccessorILi2ELi3ELi3EEC2EPKNS_13TriangulationILi3ELi3EEEiiPKv = comdat any

$_ZN6dealii16TriaAccessorBaseILi2ELi3ELi3EEC2EPKNS_13TriangulationILi3ELi3EEEiiPKv = comdat any

$_ZN6dealii15TriaRawIteratorINS_12TriaAccessorILi2ELi3ELi3EEEEdeEv = comdat any

$_ZN6dealii8internal12TriaAccessor14Implementation12vertex_indexILi3ELi3EEEjRKNS_12TriaAccessorILi2EXT_EXT0_EEEj = comdat any

$_ZNK6dealii12TriaAccessorILi2ELi3ELi3EE4lineEj = comdat any

$_ZN6dealii15TriaRawIteratorINS_12TriaAccessorILi1ELi3ELi3EEEEptEv = comdat any

$_ZNK6dealii12TriaAccessorILi1ELi3ELi3EE12vertex_indexEj = comdat any

$_ZNK6dealii12TriaAccessorILi2ELi3ELi3EE16line_orientationEj = comdat any

$_ZNK6dealii12TriaAccessorILi2ELi3ELi3EE10line_indexEj = comdat any

$_ZN6dealii12TriaIteratorINS_12TriaAccessorILi1ELi3ELi3EEEEC2EPKNS_13TriangulationILi3ELi3EEEiiPKv = comdat any

$_ZN6dealii8internal12TriaAccessor14Implementation10line_indexILi3ELi3EEEjRKNS_12TriaAccessorILi2EXT_EXT0_EEEj = comdat any

$_ZNSt6vectorIN6dealii8internal13Triangulation10TriaObjectILi2EEESaIS4_EEixEm = comdat any

$_ZNK6dealii8internal13Triangulation10TriaObjectILi2EE4faceEj = comdat any

$_ZN6dealii15TriaRawIteratorINS_12TriaAccessorILi1ELi3ELi3EEEEC2EPKNS_13TriangulationILi3ELi3EEEiiPKv = comdat any

$_ZN6dealii12TriaAccessorILi1ELi3ELi3EEC2EPKNS_13TriangulationILi3ELi3EEEiiPKv = comdat any

$_ZN6dealii16TriaAccessorBaseILi1ELi3ELi3EEC2EPKNS_13TriangulationILi3ELi3EEEiiPKv = comdat any

$_ZN6dealii15TriaRawIteratorINS_12TriaAccessorILi1ELi3ELi3EEEEdeEv = comdat any

$_ZN6dealii8internal12TriaAccessor14Implementation12vertex_indexILi3ELi3EEEjRKNS_12TriaAccessorILi1EXT_EXT0_EEEj = comdat any

$_ZNSt6vectorIN6dealii8internal13Triangulation10TriaObjectILi1EEESaIS4_EEixEm = comdat any

$_ZNK6dealii8internal13Triangulation10TriaObjectILi1EE4faceEj = comdat any

$_ZN6dealii8internal12TriaAccessor14Implementation16line_orientationILi3EEEbRKNS_12TriaAccessorILi2ELi3EXT_EEEj = comdat any

$_ZNK6dealii8internal13Triangulation17TriaObjectsQuad3D16face_orientationEjj = comdat any

$_ZNKSt6vectorIbSaIbEEixEm = comdat any

$_ZNSt19_Bit_const_iteratorC2EPmj = comdat any

$_ZNKSt19_Bit_const_iteratordeEv = comdat any

$_ZN6dealii8internal12TriaAccessor14Implementation16face_orientationILi3ELi3EEEbRKNS_12TriaAccessorILi3EXT_EXT0_EEEj = comdat any

$_ZNK6dealii8internal13Triangulation14TriaObjectsHex16face_orientationEjj = comdat any

$_ZN6dealii8internal12TriaAccessor14Implementation9face_flipILi3ELi3EEEbRKNS_12TriaAccessorILi3EXT_EXT0_EEEj = comdat any

$_ZN6dealii8internal12TriaAccessor14Implementation13face_rotationILi3ELi3EEEbRKNS_12TriaAccessorILi3EXT_EXT0_EEEj = comdat any

$_ZNK6dealii12SmartPointerIKNS_13FiniteElementILi3ELi3EEEEdeEv = comdat any

$_ZSt8_DestroyIPPN6dealii8internal10DoFHandler8DoFLevelILi3EEES5_EvT_S7_RSaIT0_E = comdat any

$_ZNSt12_Vector_baseIPN6dealii8internal10DoFHandler8DoFLevelILi3EEESaIS5_EED2Ev = comdat any

$_ZSt8_DestroyIPPN6dealii8internal10DoFHandler8DoFLevelILi3EEEEvT_S7_ = comdat any

$_ZNSt12_Destroy_auxILb1EE9__destroyIPPN6dealii8internal10DoFHandler8DoFLevelILi3EEEEEvT_S9_ = comdat any

$_ZNSt12_Vector_baseIPN6dealii8internal10DoFHandler8DoFLevelILi3EEESaIS5_EE12_Vector_implD2Ev = comdat any

$_ZNSaIPN6dealii8internal10DoFHandler8DoFLevelILi3EEEED2Ev = comdat any

$_ZN9__gnu_cxx13new_allocatorIPN6dealii8internal10DoFHandler8DoFLevelILi3EEEED2Ev = comdat any

$_ZNSt12_Vector_baseIN6dealii12MGDoFHandlerILi3ELi3EE12MGVertexDoFsESaIS3_EED2Ev = comdat any

$_ZNSt12_Vector_baseIN6dealii12MGDoFHandlerILi3ELi3EE12MGVertexDoFsESaIS3_EE12_Vector_implD2Ev = comdat any

$_ZNSaIN6dealii12MGDoFHandlerILi3ELi3EE12MGVertexDoFsEED2Ev = comdat any

$_ZN9__gnu_cxx13new_allocatorIN6dealii12MGDoFHandlerILi3ELi3EE12MGVertexDoFsEED2Ev = comdat any

$_ZNKSt6vectorIjSaIjEE4sizeEv = comdat any

$_ZNSt6vectorIjSaIjEE14_M_fill_insertEN9__gnu_cxx17__normal_iteratorIPjS1_EEmRKj = comdat any

$_ZNSt6vectorIjSaIjEE15_M_erase_at_endEPj = comdat any

$_ZNSt6vectorIjSaIjEE16_Temporary_valueC2IJRKjEEEPS1_DpOT_ = comdat any

$_ZNSt6vectorIjSaIjEE16_Temporary_value6_M_valEv = comdat any

$_ZN9__gnu_cxxmiIPjSt6vectorIjSaIjEEEENS_17__normal_iteratorIT_T0_E15difference_typeERKS8_SB_ = comdat any

$_ZSt22__uninitialized_move_aIPjS0_SaIjEET0_T_S3_S2_RT1_ = comdat any

$_ZSt13move_backwardIPjS0_ET0_T_S2_S1_ = comdat any

$_ZSt4fillIPjjEvT_S1_RKT0_ = comdat any

$_ZNSt6vectorIjSaIjEE16_Temporary_valueD2Ev = comdat any

$_ZNKSt6vectorIjSaIjEE12_M_check_lenEmPKc = comdat any

$_ZSt34__uninitialized_move_if_noexcept_aIPjS0_SaIjEET0_T_S3_S2_RT1_ = comdat any

$_ZNSt16allocator_traitsISaIjEE9constructIjJRKjEEEvRS0_PT_DpOT0_ = comdat any

$_ZNSt6vectorIjSaIjEE16_Temporary_value6_M_ptrEv = comdat any

$_ZSt7forwardIRKjEOT_RNSt16remove_referenceIS2_E4typeE = comdat any

$_ZN9__gnu_cxx13new_allocatorIjE9constructIjJRKjEEEvPT_DpOT0_ = comdat any

$_ZSt22__uninitialized_copy_aISt13move_iteratorIPjES1_jET0_T_S4_S3_RSaIT1_E = comdat any

$_ZSt18make_move_iteratorIPjESt13move_iteratorIT_ES2_ = comdat any

$_ZSt18uninitialized_copyISt13move_iteratorIPjES1_ET0_T_S4_S3_ = comdat any

$_ZNSt20__uninitialized_copyILb1EE13__uninit_copyISt13move_iteratorIPjES3_EET0_T_S6_S5_ = comdat any

$_ZSt4copyISt13move_iteratorIPjES1_ET0_T_S4_S3_ = comdat any

$_ZSt13__copy_move_aILb1EPjS0_ET1_T0_S2_S1_ = comdat any

$_ZSt12__miter_baseIPjEDTcl12__miter_basecldtfp_4baseEEESt13move_iteratorIT_E = comdat any

$_ZSt12__niter_wrapIPjET_RKS1_S1_ = comdat any

$_ZSt14__copy_move_a1ILb1EPjS0_ET1_T0_S2_S1_ = comdat any

$_ZSt12__niter_baseIPjET_S1_ = comdat any

$_ZSt14__copy_move_a2ILb1EPjS0_ET1_T0_S2_S1_ = comdat any

$_ZNSt11__copy_moveILb1ELb1ESt26random_access_iterator_tagE8__copy_mIjEEPT_PKS3_S6_S4_ = comdat any

$_ZSt12__miter_baseIPjET_S1_ = comdat any

$_ZNKSt13move_iteratorIPjE4baseEv = comdat any

$_ZSt4moveIRPjEONSt16remove_referenceIT_E4typeEOS3_ = comdat any

$_ZNSt13move_iteratorIPjEC2ES0_ = comdat any

$_ZSt22__copy_move_backward_aILb1EPjS0_ET1_T0_S2_S1_ = comdat any

$_ZSt23__copy_move_backward_a1ILb1EPjS0_ET1_T0_S2_S1_ = comdat any

$_ZSt23__copy_move_backward_a2ILb1EPjS0_ET1_T0_S2_S1_ = comdat any

$_ZNSt20__copy_move_backwardILb1ELb1ESt26random_access_iterator_tagE13__copy_move_bIjEEPT_PKS3_S6_S4_ = comdat any

$_ZNSt16allocator_traitsISaIjEE7destroyIjEEvRS0_PT_ = comdat any

$_ZN9__gnu_cxx13new_allocatorIjE7destroyIjEEvPT_ = comdat any

$_ZNKSt6vectorIjSaIjEE8max_sizeEv = comdat any

$_ZSt32__make_move_if_noexcept_iteratorIjSt13move_iteratorIPjEET0_PT_ = comdat any

$_ZN6dealii15TriaRawIteratorINS_17MGDoFCellAccessorILi3ELi3EEEEC2ERKS2_ = comdat any

$_ZN6dealii17MGDoFCellAccessorILi3ELi3EEC2ERKS1_ = comdat any

$_ZN6dealii13MGDoFAccessorILi3ELi3ELi3EEC2ERKS1_ = comdat any

$_ZN6dealii15DoFCellAccessorINS_10DoFHandlerILi3ELi3EEEEC2ERKS3_ = comdat any

$_ZN6dealii11DoFAccessorILi3ENS_10DoFHandlerILi3ELi3EEEEC2ERKS3_ = comdat any

$_ZNK6dealii16TriaAccessorBaseILi1ELi3ELi3EE5stateEv = comdat any

$_ZN6dealii16TriaAccessorBaseILi1ELi3ELi3EEppEv = comdat any

$_ZNKSt6vectorIN6dealii8internal13Triangulation10TriaObjectILi1EEESaIS4_EE4sizeEv = comdat any

$_ZN6dealii12TriaIteratorINS_13MGDoFAccessorILi1ELi3ELi3EEEEC2ERKS3_ = comdat any

$_ZN6dealii16TriaAccessorBaseILi1ELi3ELi3EEmmEv = comdat any

$_ZNK6dealii16TriaAccessorBaseILi2ELi3ELi3EE5stateEv = comdat any

$_ZN6dealii16TriaAccessorBaseILi2ELi3ELi3EEppEv = comdat any

$_ZNKSt6vectorIN6dealii8internal13Triangulation10TriaObjectILi2EEESaIS4_EE4sizeEv = comdat any

$_ZN6dealii12TriaIteratorINS_13MGDoFAccessorILi2ELi3ELi3EEEEC2ERKS3_ = comdat any

$_ZN6dealii16TriaAccessorBaseILi2ELi3ELi3EEmmEv = comdat any

$_ZN6dealii12TriaIteratorINS_17MGDoFCellAccessorILi3ELi3EEEEC2ERKS3_ = comdat any

$_ZN6dealii16TriaAccessorBaseILi3ELi3ELi3EEmmEv = comdat any

$_ZN6dealii17MemoryConsumption18memory_consumptionEj = comdat any

$_ZNKSt6vectorIjSaIjEE8capacityEv = comdat any

$_ZNSt6vectorIPN6dealii8internal10DoFHandler8DoFLevelILi3EEESaIS5_EE15_M_erase_at_endEPS5_ = comdat any

$_ZNSt6vectorIN6dealii12MGDoFHandlerILi3ELi3EE12MGVertexDoFsESaIS3_EE4swapERS5_ = comdat any

$_ZNSt12_Vector_baseIN6dealii12MGDoFHandlerILi3ELi3EE12MGVertexDoFsESaIS3_EE17_Vector_impl_data12_M_swap_dataERS6_ = comdat any

$_ZN9__gnu_cxx14__alloc_traitsISaIN6dealii12MGDoFHandlerILi3ELi3EE12MGVertexDoFsEES4_E10_S_on_swapERS5_S7_ = comdat any

$_ZNSt12_Vector_baseIN6dealii12MGDoFHandlerILi3ELi3EE12MGVertexDoFsESaIS3_EE17_Vector_impl_dataC2Ev = comdat any

$_ZNSt12_Vector_baseIN6dealii12MGDoFHandlerILi3ELi3EE12MGVertexDoFsESaIS3_EE17_Vector_impl_data12_M_copy_dataERKS6_ = comdat any

$_ZSt15__alloc_on_swapISaIN6dealii12MGDoFHandlerILi3ELi3EE12MGVertexDoFsEEEvRT_S6_ = comdat any

$_ZSt18__do_alloc_on_swapISaIN6dealii12MGDoFHandlerILi3ELi3EE12MGVertexDoFsEEEvRT_S6_St17integral_constantIbLb0EE = comdat any

$_ZN6dealii12MGDoFHandlerILi3ELi3EE9dimensionE = comdat any

$_ZTVN6dealii12MGDoFHandlerILi3ELi3EEE = comdat any

$_ZTVN6dealii12MGDoFHandlerILi3ELi3EE15ExcInvalidLevelE = comdat any

$_ZTVN6dealii12MGDoFHandlerILi3ELi3EE13ExcEmptyLevelE = comdat any

$_ZTVN6dealii12MGDoFHandlerILi3ELi3EE12MGVertexDoFs15ExcInvalidLevelE = comdat any

$_ZTSN6dealii12MGDoFHandlerILi3ELi3EEE = comdat any

$_ZTSN6dealii10DoFHandlerILi3ELi3EEE = comdat any

$_ZTIN6dealii10DoFHandlerILi3ELi3EEE = comdat any

$_ZTIN6dealii12MGDoFHandlerILi3ELi3EEE = comdat any

$_ZTSN6dealii12MGDoFHandlerILi3ELi3EE15ExcInvalidLevelE = comdat any

$_ZTIN6dealii12MGDoFHandlerILi3ELi3EE15ExcInvalidLevelE = comdat any

$_ZTVN6dealii12MGDoFHandlerILi3ELi3EE19ExcFacesHaveNoLevelE = comdat any

$_ZTSN6dealii12MGDoFHandlerILi3ELi3EE19ExcFacesHaveNoLevelE = comdat any

$_ZTIN6dealii12MGDoFHandlerILi3ELi3EE19ExcFacesHaveNoLevelE = comdat any

$_ZTSN6dealii12MGDoFHandlerILi3ELi3EE13ExcEmptyLevelE = comdat any

$_ZTIN6dealii12MGDoFHandlerILi3ELi3EE13ExcEmptyLevelE = comdat any

$_ZTVN6dealii12MGDoFHandlerILi3ELi3EE12MGVertexDoFs11ExcNoMemoryE = comdat any

$_ZTSN6dealii12MGDoFHandlerILi3ELi3EE12MGVertexDoFs11ExcNoMemoryE = comdat any

$_ZTIN6dealii12MGDoFHandlerILi3ELi3EE12MGVertexDoFs11ExcNoMemoryE = comdat any

$_ZTSN6dealii12MGDoFHandlerILi3ELi3EE12MGVertexDoFs15ExcInvalidLevelE = comdat any

$_ZTIN6dealii12MGDoFHandlerILi3ELi3EE12MGVertexDoFs15ExcInvalidLevelE = comdat any

$_ZZN6dealii8internal12TriaAccessor14Implementation12vertex_indexILi3ELi3EEEjRKNS_12TriaAccessorILi2EXT_EXT0_EEEjE12switch_table = comdat any

@_ZStL8__ioinit = internal global %"class.std::ios_base::Init" zeroinitializer, align 1, !dbg !0
@__dso_handle = external hidden global i8
@_ZN12_GLOBAL__N_12_1E = internal global %"struct.boost::arg" zeroinitializer, align 1, !dbg !28
@_ZN12_GLOBAL__N_12_2E = internal global %"struct.boost::arg.0" zeroinitializer, align 1, !dbg !42
@_ZN12_GLOBAL__N_12_3E = internal global %"struct.boost::arg.2" zeroinitializer, align 1, !dbg !52
@_ZN12_GLOBAL__N_12_4E = internal global %"struct.boost::arg.4" zeroinitializer, align 1, !dbg !62
@_ZN12_GLOBAL__N_12_5E = internal global %"struct.boost::arg.6" zeroinitializer, align 1, !dbg !72
@_ZN12_GLOBAL__N_12_6E = internal global %"struct.boost::arg.8" zeroinitializer, align 1, !dbg !82
@_ZN12_GLOBAL__N_12_7E = internal global %"struct.boost::arg.10" zeroinitializer, align 1, !dbg !92
@_ZN12_GLOBAL__N_12_8E = internal global %"struct.boost::arg.12" zeroinitializer, align 1, !dbg !102
@_ZN12_GLOBAL__N_12_9E = internal global %"struct.boost::arg.14" zeroinitializer, align 1, !dbg !112
@_ZN6dealii12MGDoFHandlerILi3ELi3EE9dimensionE = weak_odr dso_local constant i32 3, comdat, align 4, !dbg !122, !dbg !122
@_ZTVN6dealii12MGDoFHandlerILi3ELi3EEE = weak_odr dso_local unnamed_addr constant { [7 x i8*] } { [7 x i8*] [i8* null, i8* bitcast ({ i8*, i8*, i8* }* @_ZTIN6dealii12MGDoFHandlerILi3ELi3EEE to i8*), i8* bitcast (void (%"class.dealii::MGDoFHandler"*)* @_ZN6dealii12MGDoFHandlerILi3ELi3EED1Ev to i8*), i8* bitcast (void (%"class.dealii::MGDoFHandler"*)* @_ZN6dealii12MGDoFHandlerILi3ELi3EED0Ev to i8*), i8* bitcast (void (%"class.dealii::MGDoFHandler"*, %"class.dealii::FiniteElement"*, i32)* @_ZN6dealii12MGDoFHandlerILi3ELi3EE15distribute_dofsERKNS_13FiniteElementILi3ELi3EEEj to i8*), i8* bitcast (void (%"class.dealii::MGDoFHandler"*)* @_ZN6dealii12MGDoFHandlerILi3ELi3EE5clearEv to i8*), i8* bitcast (i32 (%"class.dealii::MGDoFHandler"*)* @_ZNK6dealii12MGDoFHandlerILi3ELi3EE18memory_consumptionEv to i8*)] }, comdat, align 8
@_ZTVN6dealii12MGDoFHandlerILi3ELi3EE15ExcInvalidLevelE = weak_odr dso_local unnamed_addr constant { [6 x i8*] } { [6 x i8*] [i8* null, i8* bitcast ({ i8*, i8*, i8* }* @_ZTIN6dealii12MGDoFHandlerILi3ELi3EE15ExcInvalidLevelE to i8*), i8* bitcast (void (%"class.dealii::MGDoFHandler<3, 3>::ExcInvalidLevel"*)* @_ZN6dealii12MGDoFHandlerILi3ELi3EE15ExcInvalidLevelD1Ev to i8*), i8* bitcast (void (%"class.dealii::MGDoFHandler<3, 3>::ExcInvalidLevel"*)* @_ZN6dealii12MGDoFHandlerILi3ELi3EE15ExcInvalidLevelD0Ev to i8*), i8* bitcast (i8* (%"class.dealii::ExceptionBase"*)* @_ZNK6dealii13ExceptionBase4whatEv to i8*), i8* bitcast (void (%"class.dealii::MGDoFHandler<3, 3>::ExcInvalidLevel"*, %"class.std::basic_ostream"*)* @_ZNK6dealii12MGDoFHandlerILi3ELi3EE15ExcInvalidLevel10print_infoERSo to i8*)] }, comdat, align 8
@.str = private unnamed_addr constant [17 x i8] c"The given level \00", align 1
@.str.10 = private unnamed_addr constant [28 x i8] c" is not in the valid range!\00", align 1
@_ZTVN6dealii12MGDoFHandlerILi3ELi3EE13ExcEmptyLevelE = weak_odr dso_local unnamed_addr constant { [6 x i8*] } { [6 x i8*] [i8* null, i8* bitcast ({ i8*, i8*, i8* }* @_ZTIN6dealii12MGDoFHandlerILi3ELi3EE13ExcEmptyLevelE to i8*), i8* bitcast (void (%"class.dealii::MGDoFHandler<3, 3>::ExcEmptyLevel"*)* @_ZN6dealii12MGDoFHandlerILi3ELi3EE13ExcEmptyLevelD1Ev to i8*), i8* bitcast (void (%"class.dealii::MGDoFHandler<3, 3>::ExcEmptyLevel"*)* @_ZN6dealii12MGDoFHandlerILi3ELi3EE13ExcEmptyLevelD0Ev to i8*), i8* bitcast (i8* (%"class.dealii::ExceptionBase"*)* @_ZNK6dealii13ExceptionBase4whatEv to i8*), i8* bitcast (void (%"class.dealii::MGDoFHandler<3, 3>::ExcEmptyLevel"*, %"class.std::basic_ostream"*)* @_ZNK6dealii12MGDoFHandlerILi3ELi3EE13ExcEmptyLevel10print_infoERSo to i8*)] }, comdat, align 8
@.str.11 = private unnamed_addr constant [36 x i8] c"You tried to do something on level \00", align 1
@.str.12 = private unnamed_addr constant [27 x i8] c", but this level is empty.\00", align 1
@_ZTVN6dealii12MGDoFHandlerILi3ELi3EE12MGVertexDoFs15ExcInvalidLevelE = weak_odr dso_local unnamed_addr constant { [6 x i8*] } { [6 x i8*] [i8* null, i8* bitcast ({ i8*, i8*, i8* }* @_ZTIN6dealii12MGDoFHandlerILi3ELi3EE12MGVertexDoFs15ExcInvalidLevelE to i8*), i8* bitcast (void (%"class.dealii::MGDoFHandler<3, 3>::MGVertexDoFs::ExcInvalidLevel"*)* @_ZN6dealii12MGDoFHandlerILi3ELi3EE12MGVertexDoFs15ExcInvalidLevelD1Ev to i8*), i8* bitcast (void (%"class.dealii::MGDoFHandler<3, 3>::MGVertexDoFs::ExcInvalidLevel"*)* @_ZN6dealii12MGDoFHandlerILi3ELi3EE12MGVertexDoFs15ExcInvalidLevelD0Ev to i8*), i8* bitcast (i8* (%"class.dealii::ExceptionBase"*)* @_ZNK6dealii13ExceptionBase4whatEv to i8*), i8* bitcast (void (%"class.dealii::MGDoFHandler<3, 3>::MGVertexDoFs::ExcInvalidLevel"*, %"class.std::basic_ostream"*)* @_ZNK6dealii12MGDoFHandlerILi3ELi3EE12MGVertexDoFs15ExcInvalidLevel10print_infoERSo to i8*)] }, comdat, align 8
@.str.13 = private unnamed_addr constant [24 x i8] c"The given level number \00", align 1
@.str.14 = private unnamed_addr constant [13 x i8] c" is outside \00", align 1
@.str.15 = private unnamed_addr constant [42 x i8] c"the range of levels this vertex lives on.\00", align 1
@_ZN6dealii10DoFHandlerILi3ELi3EE17invalid_dof_indexE = available_externally dso_local constant i32 -1, align 4
@_ZTVN10__cxxabiv120__si_class_type_infoE = external dso_local global i8*
@_ZTSN6dealii12MGDoFHandlerILi3ELi3EEE = weak_odr dso_local constant [34 x i8] c"N6dealii12MGDoFHandlerILi3ELi3EEE\00", comdat, align 1
@_ZTSN6dealii10DoFHandlerILi3ELi3EEE = linkonce_odr dso_local constant [32 x i8] c"N6dealii10DoFHandlerILi3ELi3EEE\00", comdat, align 1
@_ZTIN6dealii11SubscriptorE = external dso_local constant i8*
@_ZTIN6dealii10DoFHandlerILi3ELi3EEE = linkonce_odr dso_local constant { i8*, i8*, i8* } { i8* bitcast (i8** getelementptr inbounds (i8*, i8** @_ZTVN10__cxxabiv120__si_class_type_infoE, i64 2) to i8*), i8* getelementptr inbounds ([32 x i8], [32 x i8]* @_ZTSN6dealii10DoFHandlerILi3ELi3EEE, i32 0, i32 0), i8* bitcast (i8** @_ZTIN6dealii11SubscriptorE to i8*) }, comdat, align 8
@_ZTIN6dealii12MGDoFHandlerILi3ELi3EEE = weak_odr dso_local constant { i8*, i8*, i8* } { i8* bitcast (i8** getelementptr inbounds (i8*, i8** @_ZTVN10__cxxabiv120__si_class_type_infoE, i64 2) to i8*), i8* getelementptr inbounds ([34 x i8], [34 x i8]* @_ZTSN6dealii12MGDoFHandlerILi3ELi3EEE, i32 0, i32 0), i8* bitcast ({ i8*, i8*, i8* }* @_ZTIN6dealii10DoFHandlerILi3ELi3EEE to i8*) }, comdat, align 8
@_ZTSN6dealii12MGDoFHandlerILi3ELi3EE15ExcInvalidLevelE = weak_odr dso_local constant [51 x i8] c"N6dealii12MGDoFHandlerILi3ELi3EE15ExcInvalidLevelE\00", comdat, align 1
@_ZTIN6dealii13ExceptionBaseE = external dso_local constant i8*
@_ZTIN6dealii12MGDoFHandlerILi3ELi3EE15ExcInvalidLevelE = weak_odr dso_local constant { i8*, i8*, i8* } { i8* bitcast (i8** getelementptr inbounds (i8*, i8** @_ZTVN10__cxxabiv120__si_class_type_infoE, i64 2) to i8*), i8* getelementptr inbounds ([51 x i8], [51 x i8]* @_ZTSN6dealii12MGDoFHandlerILi3ELi3EE15ExcInvalidLevelE, i32 0, i32 0), i8* bitcast (i8** @_ZTIN6dealii13ExceptionBaseE to i8*) }, comdat, align 8
@_ZTVN6dealii12MGDoFHandlerILi3ELi3EE19ExcFacesHaveNoLevelE = weak_odr dso_local unnamed_addr constant { [6 x i8*] } { [6 x i8*] [i8* null, i8* bitcast ({ i8*, i8*, i8* }* @_ZTIN6dealii12MGDoFHandlerILi3ELi3EE19ExcFacesHaveNoLevelE to i8*), i8* bitcast (void (%"class.dealii::MGDoFHandler<3, 3>::ExcFacesHaveNoLevel"*)* @_ZN6dealii12MGDoFHandlerILi3ELi3EE19ExcFacesHaveNoLevelD2Ev to i8*), i8* bitcast (void (%"class.dealii::MGDoFHandler<3, 3>::ExcFacesHaveNoLevel"*)* @_ZN6dealii12MGDoFHandlerILi3ELi3EE19ExcFacesHaveNoLevelD0Ev to i8*), i8* bitcast (i8* (%"class.dealii::ExceptionBase"*)* @_ZNK6dealii13ExceptionBase4whatEv to i8*), i8* bitcast (void (%"class.dealii::ExceptionBase"*, %"class.std::basic_ostream"*)* @_ZNK6dealii13ExceptionBase10print_infoERSo to i8*)] }, comdat, align 8
@_ZTSN6dealii12MGDoFHandlerILi3ELi3EE19ExcFacesHaveNoLevelE = weak_odr dso_local constant [55 x i8] c"N6dealii12MGDoFHandlerILi3ELi3EE19ExcFacesHaveNoLevelE\00", comdat, align 1
@_ZTIN6dealii12MGDoFHandlerILi3ELi3EE19ExcFacesHaveNoLevelE = weak_odr dso_local constant { i8*, i8*, i8* } { i8* bitcast (i8** getelementptr inbounds (i8*, i8** @_ZTVN10__cxxabiv120__si_class_type_infoE, i64 2) to i8*), i8* getelementptr inbounds ([55 x i8], [55 x i8]* @_ZTSN6dealii12MGDoFHandlerILi3ELi3EE19ExcFacesHaveNoLevelE, i32 0, i32 0), i8* bitcast (i8** @_ZTIN6dealii13ExceptionBaseE to i8*) }, comdat, align 8
@_ZTSN6dealii12MGDoFHandlerILi3ELi3EE13ExcEmptyLevelE = weak_odr dso_local constant [49 x i8] c"N6dealii12MGDoFHandlerILi3ELi3EE13ExcEmptyLevelE\00", comdat, align 1
@_ZTIN6dealii12MGDoFHandlerILi3ELi3EE13ExcEmptyLevelE = weak_odr dso_local constant { i8*, i8*, i8* } { i8* bitcast (i8** getelementptr inbounds (i8*, i8** @_ZTVN10__cxxabiv120__si_class_type_infoE, i64 2) to i8*), i8* getelementptr inbounds ([49 x i8], [49 x i8]* @_ZTSN6dealii12MGDoFHandlerILi3ELi3EE13ExcEmptyLevelE, i32 0, i32 0), i8* bitcast (i8** @_ZTIN6dealii13ExceptionBaseE to i8*) }, comdat, align 8
@_ZTVN6dealii12MGDoFHandlerILi3ELi3EE12MGVertexDoFs11ExcNoMemoryE = weak_odr dso_local unnamed_addr constant { [6 x i8*] } { [6 x i8*] [i8* null, i8* bitcast ({ i8*, i8*, i8* }* @_ZTIN6dealii12MGDoFHandlerILi3ELi3EE12MGVertexDoFs11ExcNoMemoryE to i8*), i8* bitcast (void (%"class.dealii::MGDoFHandler<3, 3>::MGVertexDoFs::ExcNoMemory"*)* @_ZN6dealii12MGDoFHandlerILi3ELi3EE12MGVertexDoFs11ExcNoMemoryD2Ev to i8*), i8* bitcast (void (%"class.dealii::MGDoFHandler<3, 3>::MGVertexDoFs::ExcNoMemory"*)* @_ZN6dealii12MGDoFHandlerILi3ELi3EE12MGVertexDoFs11ExcNoMemoryD0Ev to i8*), i8* bitcast (i8* (%"class.dealii::ExceptionBase"*)* @_ZNK6dealii13ExceptionBase4whatEv to i8*), i8* bitcast (void (%"class.dealii::ExceptionBase"*, %"class.std::basic_ostream"*)* @_ZNK6dealii13ExceptionBase10print_infoERSo to i8*)] }, comdat, align 8
@_ZTSN6dealii12MGDoFHandlerILi3ELi3EE12MGVertexDoFs11ExcNoMemoryE = weak_odr dso_local constant [61 x i8] c"N6dealii12MGDoFHandlerILi3ELi3EE12MGVertexDoFs11ExcNoMemoryE\00", comdat, align 1
@_ZTIN6dealii12MGDoFHandlerILi3ELi3EE12MGVertexDoFs11ExcNoMemoryE = weak_odr dso_local constant { i8*, i8*, i8* } { i8* bitcast (i8** getelementptr inbounds (i8*, i8** @_ZTVN10__cxxabiv120__si_class_type_infoE, i64 2) to i8*), i8* getelementptr inbounds ([61 x i8], [61 x i8]* @_ZTSN6dealii12MGDoFHandlerILi3ELi3EE12MGVertexDoFs11ExcNoMemoryE, i32 0, i32 0), i8* bitcast (i8** @_ZTIN6dealii13ExceptionBaseE to i8*) }, comdat, align 8
@_ZTSN6dealii12MGDoFHandlerILi3ELi3EE12MGVertexDoFs15ExcInvalidLevelE = weak_odr dso_local constant [65 x i8] c"N6dealii12MGDoFHandlerILi3ELi3EE12MGVertexDoFs15ExcInvalidLevelE\00", comdat, align 1
@_ZTIN6dealii12MGDoFHandlerILi3ELi3EE12MGVertexDoFs15ExcInvalidLevelE = weak_odr dso_local constant { i8*, i8*, i8* } { i8* bitcast (i8** getelementptr inbounds (i8*, i8** @_ZTVN10__cxxabiv120__si_class_type_infoE, i64 2) to i8*), i8* getelementptr inbounds ([65 x i8], [65 x i8]* @_ZTSN6dealii12MGDoFHandlerILi3ELi3EE12MGVertexDoFs15ExcInvalidLevelE, i32 0, i32 0), i8* bitcast (i8** @_ZTIN6dealii13ExceptionBaseE to i8*) }, comdat, align 8
@.str.16 = private unnamed_addr constant [26 x i8] c"vector::_M_realloc_insert\00", align 1
@.str.17 = private unnamed_addr constant [49 x i8] c"cannot create std::vector larger than max_size()\00", align 1
@.str.18 = private unnamed_addr constant [26 x i8] c"vector::_M_default_append\00", align 1
@_ZZN6dealii8internal12TriaAccessor14Implementation12vertex_indexILi3ELi3EEEjRKNS_12TriaAccessorILi2EXT_EXT0_EEEjE12switch_table = linkonce_odr dso_local constant [2 x [2 x i32]] [[2 x i32] [i32 1, i32 0], [2 x i32] [i32 0, i32 1]], comdat, align 16, !dbg !9800
@.str.19 = private unnamed_addr constant [23 x i8] c"vector::_M_fill_insert\00", align 1
@llvm.global_ctors = appending global [1 x { i32, void ()*, i8* }] [{ i32, void ()*, i8* } { i32 65535, void ()* @_GLOBAL__sub_I_mg_dof_handler.cc, i8* null }]

@_ZN6dealii12MGDoFHandlerILi3ELi3EEC1ERKNS_13TriangulationILi3ELi3EEE = weak_odr dso_local unnamed_addr alias void (%"class.dealii::MGDoFHandler"*, %"class.dealii::Triangulation"*), void (%"class.dealii::MGDoFHandler"*, %"class.dealii::Triangulation"*)* @_ZN6dealii12MGDoFHandlerILi3ELi3EEC2ERKNS_13TriangulationILi3ELi3EEE
@_ZN6dealii12MGDoFHandlerILi3ELi3EED1Ev = weak_odr dso_local unnamed_addr alias void (%"class.dealii::MGDoFHandler"*), void (%"class.dealii::MGDoFHandler"*)* @_ZN6dealii12MGDoFHandlerILi3ELi3EED2Ev
@_ZN6dealii12MGDoFHandlerILi3ELi3EE15ExcInvalidLevelC1Ei = weak_odr dso_local unnamed_addr alias void (%"class.dealii::MGDoFHandler<3, 3>::ExcInvalidLevel"*, i32), void (%"class.dealii::MGDoFHandler<3, 3>::ExcInvalidLevel"*, i32)* @_ZN6dealii12MGDoFHandlerILi3ELi3EE15ExcInvalidLevelC2Ei
@_ZN6dealii12MGDoFHandlerILi3ELi3EE15ExcInvalidLevelD1Ev = weak_odr dso_local unnamed_addr alias void (%"class.dealii::MGDoFHandler<3, 3>::ExcInvalidLevel"*), void (%"class.dealii::MGDoFHandler<3, 3>::ExcInvalidLevel"*)* @_ZN6dealii12MGDoFHandlerILi3ELi3EE15ExcInvalidLevelD2Ev
@_ZN6dealii12MGDoFHandlerILi3ELi3EE13ExcEmptyLevelC1Ei = weak_odr dso_local unnamed_addr alias void (%"class.dealii::MGDoFHandler<3, 3>::ExcEmptyLevel"*, i32), void (%"class.dealii::MGDoFHandler<3, 3>::ExcEmptyLevel"*, i32)* @_ZN6dealii12MGDoFHandlerILi3ELi3EE13ExcEmptyLevelC2Ei
@_ZN6dealii12MGDoFHandlerILi3ELi3EE13ExcEmptyLevelD1Ev = weak_odr dso_local unnamed_addr alias void (%"class.dealii::MGDoFHandler<3, 3>::ExcEmptyLevel"*), void (%"class.dealii::MGDoFHandler<3, 3>::ExcEmptyLevel"*)* @_ZN6dealii12MGDoFHandlerILi3ELi3EE13ExcEmptyLevelD2Ev
@_ZN6dealii12MGDoFHandlerILi3ELi3EE12MGVertexDoFsC1Ev = weak_odr dso_local unnamed_addr alias void (%"class.dealii::MGDoFHandler<3, 3>::MGVertexDoFs"*), void (%"class.dealii::MGDoFHandler<3, 3>::MGVertexDoFs"*)* @_ZN6dealii12MGDoFHandlerILi3ELi3EE12MGVertexDoFsC2Ev
@_ZN6dealii12MGDoFHandlerILi3ELi3EE12MGVertexDoFsD1Ev = weak_odr dso_local unnamed_addr alias void (%"class.dealii::MGDoFHandler<3, 3>::MGVertexDoFs"*), void (%"class.dealii::MGDoFHandler<3, 3>::MGVertexDoFs"*)* @_ZN6dealii12MGDoFHandlerILi3ELi3EE12MGVertexDoFsD2Ev
@_ZN6dealii12MGDoFHandlerILi3ELi3EE12MGVertexDoFs15ExcInvalidLevelC1Ei = weak_odr dso_local unnamed_addr alias void (%"class.dealii::MGDoFHandler<3, 3>::MGVertexDoFs::ExcInvalidLevel"*, i32), void (%"class.dealii::MGDoFHandler<3, 3>::MGVertexDoFs::ExcInvalidLevel"*, i32)* @_ZN6dealii12MGDoFHandlerILi3ELi3EE12MGVertexDoFs15ExcInvalidLevelC2Ei
@_ZN6dealii12MGDoFHandlerILi3ELi3EE12MGVertexDoFs15ExcInvalidLevelD1Ev = weak_odr dso_local unnamed_addr alias void (%"class.dealii::MGDoFHandler<3, 3>::MGVertexDoFs::ExcInvalidLevel"*), void (%"class.dealii::MGDoFHandler<3, 3>::MGVertexDoFs::ExcInvalidLevel"*)* @_ZN6dealii12MGDoFHandlerILi3ELi3EE12MGVertexDoFs15ExcInvalidLevelD2Ev

; Function Attrs: noinline uwtable
define internal void @__cxx_global_var_init() #0 section ".text.startup" !dbg !11637 {
entry:
  call void @_ZNSt8ios_base4InitC1Ev(%"class.std::ios_base::Init"* @_ZStL8__ioinit), !dbg !11638
  %0 = call i32 @__cxa_atexit(void (i8*)* bitcast (void (%"class.std::ios_base::Init"*)* @_ZNSt8ios_base4InitD1Ev to void (i8*)*), i8* getelementptr inbounds (%"class.std::ios_base::Init", %"class.std::ios_base::Init"* @_ZStL8__ioinit, i32 0, i32 0), i8* @__dso_handle) #3, !dbg !11638
  ret void, !dbg !11638
}

declare dso_local void @_ZNSt8ios_base4InitC1Ev(%"class.std::ios_base::Init"*) unnamed_addr #1

; Function Attrs: nounwind
declare dso_local void @_ZNSt8ios_base4InitD1Ev(%"class.std::ios_base::Init"*) unnamed_addr #2

; Function Attrs: nounwind
declare dso_local i32 @__cxa_atexit(void (i8*)*, i8*, i8*) #3

; Function Attrs: noinline uwtable
define internal void @__cxx_global_var_init.1() #0 section ".text.startup" !dbg !11639 {
entry:
  call void @_ZN5boost3argILi1EEC2Ev(%"struct.boost::arg"* @_ZN12_GLOBAL__N_12_1E), !dbg !11640
  ret void, !dbg !11640
}

; Function Attrs: noinline nounwind uwtable
define linkonce_odr dso_local void @_ZN5boost3argILi1EEC2Ev(%"struct.boost::arg"* %this) unnamed_addr #4 comdat align 2 !dbg !11641 {
entry:
  %this.addr = alloca %"struct.boost::arg"*, align 8
  store %"struct.boost::arg"* %this, %"struct.boost::arg"** %this.addr, align 8
  call void @llvm.dbg.declare(metadata %"struct.boost::arg"** %this.addr, metadata !11642, metadata !DIExpression()), !dbg !11644
  %this1 = load %"struct.boost::arg"*, %"struct.boost::arg"** %this.addr, align 8
  ret void, !dbg !11645
}

; Function Attrs: noinline uwtable
define internal void @__cxx_global_var_init.2() #0 section ".text.startup" !dbg !11646 {
entry:
  call void @_ZN5boost3argILi2EEC2Ev(%"struct.boost::arg.0"* @_ZN12_GLOBAL__N_12_2E), !dbg !11647
  ret void, !dbg !11647
}

; Function Attrs: noinline nounwind uwtable
define linkonce_odr dso_local void @_ZN5boost3argILi2EEC2Ev(%"struct.boost::arg.0"* %this) unnamed_addr #4 comdat align 2 !dbg !11648 {
entry:
  %this.addr = alloca %"struct.boost::arg.0"*, align 8
  store %"struct.boost::arg.0"* %this, %"struct.boost::arg.0"** %this.addr, align 8
  call void @llvm.dbg.declare(metadata %"struct.boost::arg.0"** %this.addr, metadata !11649, metadata !DIExpression()), !dbg !11651
  %this1 = load %"struct.boost::arg.0"*, %"struct.boost::arg.0"** %this.addr, align 8
  ret void, !dbg !11652
}

; Function Attrs: noinline uwtable
define internal void @__cxx_global_var_init.3() #0 section ".text.startup" !dbg !11653 {
entry:
  call void @_ZN5boost3argILi3EEC2Ev(%"struct.boost::arg.2"* @_ZN12_GLOBAL__N_12_3E), !dbg !11654
  ret void, !dbg !11654
}

; Function Attrs: noinline nounwind uwtable
define linkonce_odr dso_local void @_ZN5boost3argILi3EEC2Ev(%"struct.boost::arg.2"* %this) unnamed_addr #4 comdat align 2 !dbg !11655 {
entry:
  %this.addr = alloca %"struct.boost::arg.2"*, align 8
  store %"struct.boost::arg.2"* %this, %"struct.boost::arg.2"** %this.addr, align 8
  call void @llvm.dbg.declare(metadata %"struct.boost::arg.2"** %this.addr, metadata !11656, metadata !DIExpression()), !dbg !11658
  %this1 = load %"struct.boost::arg.2"*, %"struct.boost::arg.2"** %this.addr, align 8
  ret void, !dbg !11659
}

; Function Attrs: noinline uwtable
define internal void @__cxx_global_var_init.4() #0 section ".text.startup" !dbg !11660 {
entry:
  call void @_ZN5boost3argILi4EEC2Ev(%"struct.boost::arg.4"* @_ZN12_GLOBAL__N_12_4E), !dbg !11661
  ret void, !dbg !11661
}

; Function Attrs: noinline nounwind uwtable
define linkonce_odr dso_local void @_ZN5boost3argILi4EEC2Ev(%"struct.boost::arg.4"* %this) unnamed_addr #4 comdat align 2 !dbg !11662 {
entry:
  %this.addr = alloca %"struct.boost::arg.4"*, align 8
  store %"struct.boost::arg.4"* %this, %"struct.boost::arg.4"** %this.addr, align 8
  call void @llvm.dbg.declare(metadata %"struct.boost::arg.4"** %this.addr, metadata !11663, metadata !DIExpression()), !dbg !11665
  %this1 = load %"struct.boost::arg.4"*, %"struct.boost::arg.4"** %this.addr, align 8
  ret void, !dbg !11666
}

; Function Attrs: noinline uwtable
define internal void @__cxx_global_var_init.5() #0 section ".text.startup" !dbg !11667 {
entry:
  call void @_ZN5boost3argILi5EEC2Ev(%"struct.boost::arg.6"* @_ZN12_GLOBAL__N_12_5E), !dbg !11668
  ret void, !dbg !11668
}

; Function Attrs: noinline nounwind uwtable
define linkonce_odr dso_local void @_ZN5boost3argILi5EEC2Ev(%"struct.boost::arg.6"* %this) unnamed_addr #4 comdat align 2 !dbg !11669 {
entry:
  %this.addr = alloca %"struct.boost::arg.6"*, align 8
  store %"struct.boost::arg.6"* %this, %"struct.boost::arg.6"** %this.addr, align 8
  call void @llvm.dbg.declare(metadata %"struct.boost::arg.6"** %this.addr, metadata !11670, metadata !DIExpression()), !dbg !11672
  %this1 = load %"struct.boost::arg.6"*, %"struct.boost::arg.6"** %this.addr, align 8
  ret void, !dbg !11673
}

; Function Attrs: noinline uwtable
define internal void @__cxx_global_var_init.6() #0 section ".text.startup" !dbg !11674 {
entry:
  call void @_ZN5boost3argILi6EEC2Ev(%"struct.boost::arg.8"* @_ZN12_GLOBAL__N_12_6E), !dbg !11675
  ret void, !dbg !11675
}

; Function Attrs: noinline nounwind uwtable
define linkonce_odr dso_local void @_ZN5boost3argILi6EEC2Ev(%"struct.boost::arg.8"* %this) unnamed_addr #4 comdat align 2 !dbg !11676 {
entry:
  %this.addr = alloca %"struct.boost::arg.8"*, align 8
  store %"struct.boost::arg.8"* %this, %"struct.boost::arg.8"** %this.addr, align 8
  call void @llvm.dbg.declare(metadata %"struct.boost::arg.8"** %this.addr, metadata !11677, metadata !DIExpression()), !dbg !11679
  %this1 = load %"struct.boost::arg.8"*, %"struct.boost::arg.8"** %this.addr, align 8
  ret void, !dbg !11680
}

; Function Attrs: noinline uwtable
define internal void @__cxx_global_var_init.7() #0 section ".text.startup" !dbg !11681 {
entry:
  call void @_ZN5boost3argILi7EEC2Ev(%"struct.boost::arg.10"* @_ZN12_GLOBAL__N_12_7E), !dbg !11682
  ret void, !dbg !11682
}

; Function Attrs: noinline nounwind uwtable
define linkonce_odr dso_local void @_ZN5boost3argILi7EEC2Ev(%"struct.boost::arg.10"* %this) unnamed_addr #4 comdat align 2 !dbg !11683 {
entry:
  %this.addr = alloca %"struct.boost::arg.10"*, align 8
  store %"struct.boost::arg.10"* %this, %"struct.boost::arg.10"** %this.addr, align 8
  call void @llvm.dbg.declare(metadata %"struct.boost::arg.10"** %this.addr, metadata !11684, metadata !DIExpression()), !dbg !11686
  %this1 = load %"struct.boost::arg.10"*, %"struct.boost::arg.10"** %this.addr, align 8
  ret void, !dbg !11687
}

; Function Attrs: noinline uwtable
define internal void @__cxx_global_var_init.8() #0 section ".text.startup" !dbg !11688 {
entry:
  call void @_ZN5boost3argILi8EEC2Ev(%"struct.boost::arg.12"* @_ZN12_GLOBAL__N_12_8E), !dbg !11689
  ret void, !dbg !11689
}

; Function Attrs: noinline nounwind uwtable
define linkonce_odr dso_local void @_ZN5boost3argILi8EEC2Ev(%"struct.boost::arg.12"* %this) unnamed_addr #4 comdat align 2 !dbg !11690 {
entry:
  %this.addr = alloca %"struct.boost::arg.12"*, align 8
  store %"struct.boost::arg.12"* %this, %"struct.boost::arg.12"** %this.addr, align 8
  call void @llvm.dbg.declare(metadata %"struct.boost::arg.12"** %this.addr, metadata !11691, metadata !DIExpression()), !dbg !11693
  %this1 = load %"struct.boost::arg.12"*, %"struct.boost::arg.12"** %this.addr, align 8
  ret void, !dbg !11694
}

; Function Attrs: noinline uwtable
define internal void @__cxx_global_var_init.9() #0 section ".text.startup" !dbg !11695 {
entry:
  call void @_ZN5boost3argILi9EEC2Ev(%"struct.boost::arg.14"* @_ZN12_GLOBAL__N_12_9E), !dbg !11696
  ret void, !dbg !11696
}

; Function Attrs: noinline nounwind uwtable
define linkonce_odr dso_local void @_ZN5boost3argILi9EEC2Ev(%"struct.boost::arg.14"* %this) unnamed_addr #4 comdat align 2 !dbg !11697 {
entry:
  %this.addr = alloca %"struct.boost::arg.14"*, align 8
  store %"struct.boost::arg.14"* %this, %"struct.boost::arg.14"** %this.addr, align 8
  call void @llvm.dbg.declare(metadata %"struct.boost::arg.14"** %this.addr, metadata !11698, metadata !DIExpression()), !dbg !11700
  %this1 = load %"struct.boost::arg.14"*, %"struct.boost::arg.14"** %this.addr, align 8
  ret void, !dbg !11701
}

; Function Attrs: noinline uwtable
define weak_odr dso_local void @_ZN6dealii12MGDoFHandlerILi3ELi3EEC2ERKNS_13TriangulationILi3ELi3EEE(%"class.dealii::MGDoFHandler"* %this, %"class.dealii::Triangulation"* dereferenceable(8552) %tria) unnamed_addr #0 comdat($_ZN6dealii12MGDoFHandlerILi3ELi3EEC5ERKNS_13TriangulationILi3ELi3EEE) align 2 !dbg !11702 {
entry:
  %this.addr = alloca %"class.dealii::MGDoFHandler"*, align 8
  %tria.addr = alloca %"class.dealii::Triangulation"*, align 8
  store %"class.dealii::MGDoFHandler"* %this, %"class.dealii::MGDoFHandler"** %this.addr, align 8
  call void @llvm.dbg.declare(metadata %"class.dealii::MGDoFHandler"** %this.addr, metadata !11703, metadata !DIExpression()), !dbg !11704
  store %"class.dealii::Triangulation"* %tria, %"class.dealii::Triangulation"** %tria.addr, align 8
  call void @llvm.dbg.declare(metadata %"class.dealii::Triangulation"** %tria.addr, metadata !11705, metadata !DIExpression()), !dbg !11706
  %this1 = load %"class.dealii::MGDoFHandler"*, %"class.dealii::MGDoFHandler"** %this.addr, align 8
  %0 = bitcast %"class.dealii::MGDoFHandler"* %this1 to %"class.dealii::DoFHandler"*, !dbg !11707
  %1 = load %"class.dealii::Triangulation"*, %"class.dealii::Triangulation"** %tria.addr, align 8, !dbg !11708
  call void @_ZN6dealii10DoFHandlerILi3ELi3EEC2ERKNS_13TriangulationILi3ELi3EEE(%"class.dealii::DoFHandler"* %0, %"class.dealii::Triangulation"* dereferenceable(8552) %1), !dbg !11709
  %2 = bitcast %"class.dealii::MGDoFHandler"* %this1 to i32 (...)***, !dbg !11707
  store i32 (...)** bitcast (i8** getelementptr inbounds ({ [7 x i8*] }, { [7 x i8*] }* @_ZTVN6dealii12MGDoFHandlerILi3ELi3EEE, i32 0, inrange i32 0, i32 2) to i32 (...)**), i32 (...)*** %2, align 8, !dbg !11707
  %mg_levels = getelementptr inbounds %"class.dealii::MGDoFHandler", %"class.dealii::MGDoFHandler"* %this1, i32 0, i32 1, !dbg !11710
  call void @_ZNSt6vectorIPN6dealii8internal10DoFHandler8DoFLevelILi3EEESaIS5_EEC2Ev(%"class.std::vector.146"* %mg_levels) #3, !dbg !11710
  %mg_faces = getelementptr inbounds %"class.dealii::MGDoFHandler", %"class.dealii::MGDoFHandler"* %this1, i32 0, i32 2, !dbg !11712
  store %"class.dealii::internal::DoFHandler::DoFFaces"* null, %"class.dealii::internal::DoFHandler::DoFFaces"** %mg_faces, align 8, !dbg !11712
  %mg_vertex_dofs = getelementptr inbounds %"class.dealii::MGDoFHandler", %"class.dealii::MGDoFHandler"* %this1, i32 0, i32 3, !dbg !11710
  call void @_ZNSt6vectorIN6dealii12MGDoFHandlerILi3ELi3EE12MGVertexDoFsESaIS3_EEC2Ev(%"class.std::vector.154"* %mg_vertex_dofs) #3, !dbg !11710
  %mg_used_dofs = getelementptr inbounds %"class.dealii::MGDoFHandler", %"class.dealii::MGDoFHandler"* %this1, i32 0, i32 4, !dbg !11710
  call void @_ZNSt6vectorIjSaIjEEC2Ev(%"class.std::vector.33"* %mg_used_dofs) #3, !dbg !11710
  ret void, !dbg !11714
}

; Function Attrs: nounwind readnone speculatable willreturn
declare void @llvm.dbg.declare(metadata, metadata, metadata) #5

declare dso_local void @_ZN6dealii10DoFHandlerILi3ELi3EEC2ERKNS_13TriangulationILi3ELi3EEE(%"class.dealii::DoFHandler"*, %"class.dealii::Triangulation"* dereferenceable(8552)) unnamed_addr #1

; Function Attrs: noinline nounwind uwtable
define linkonce_odr dso_local void @_ZNSt6vectorIPN6dealii8internal10DoFHandler8DoFLevelILi3EEESaIS5_EEC2Ev(%"class.std::vector.146"* %this) unnamed_addr #4 comdat align 2 !dbg !11715 {
entry:
  %this.addr = alloca %"class.std::vector.146"*, align 8
  store %"class.std::vector.146"* %this, %"class.std::vector.146"** %this.addr, align 8
  call void @llvm.dbg.declare(metadata %"class.std::vector.146"** %this.addr, metadata !11716, metadata !DIExpression()), !dbg !11718
  %this1 = load %"class.std::vector.146"*, %"class.std::vector.146"** %this.addr, align 8
  %0 = bitcast %"class.std::vector.146"* %this1 to %"struct.std::_Vector_base.147"*, !dbg !11719
  call void @_ZNSt12_Vector_baseIPN6dealii8internal10DoFHandler8DoFLevelILi3EEESaIS5_EEC2Ev(%"struct.std::_Vector_base.147"* %0) #3, !dbg !11720
  ret void, !dbg !11719
}

; Function Attrs: noinline nounwind uwtable
define linkonce_odr dso_local void @_ZNSt6vectorIN6dealii12MGDoFHandlerILi3ELi3EE12MGVertexDoFsESaIS3_EEC2Ev(%"class.std::vector.154"* %this) unnamed_addr #4 comdat align 2 !dbg !11721 {
entry:
  %this.addr = alloca %"class.std::vector.154"*, align 8
  store %"class.std::vector.154"* %this, %"class.std::vector.154"** %this.addr, align 8
  call void @llvm.dbg.declare(metadata %"class.std::vector.154"** %this.addr, metadata !11722, metadata !DIExpression()), !dbg !11724
  %this1 = load %"class.std::vector.154"*, %"class.std::vector.154"** %this.addr, align 8
  %0 = bitcast %"class.std::vector.154"* %this1 to %"struct.std::_Vector_base.155"*, !dbg !11725
  call void @_ZNSt12_Vector_baseIN6dealii12MGDoFHandlerILi3ELi3EE12MGVertexDoFsESaIS3_EEC2Ev(%"struct.std::_Vector_base.155"* %0) #3, !dbg !11726
  ret void, !dbg !11725
}

; Function Attrs: noinline nounwind uwtable
define linkonce_odr dso_local void @_ZNSt6vectorIjSaIjEEC2Ev(%"class.std::vector.33"* %this) unnamed_addr #4 comdat align 2 !dbg !11727 {
entry:
  %this.addr = alloca %"class.std::vector.33"*, align 8
  store %"class.std::vector.33"* %this, %"class.std::vector.33"** %this.addr, align 8
  call void @llvm.dbg.declare(metadata %"class.std::vector.33"** %this.addr, metadata !11728, metadata !DIExpression()), !dbg !11730
  %this1 = load %"class.std::vector.33"*, %"class.std::vector.33"** %this.addr, align 8
  %0 = bitcast %"class.std::vector.33"* %this1 to %"struct.std::_Vector_base.34"*, !dbg !11731
  call void @_ZNSt12_Vector_baseIjSaIjEEC2Ev(%"struct.std::_Vector_base.34"* %0) #3, !dbg !11732
  ret void, !dbg !11731
}

; Function Attrs: noinline nounwind uwtable
define weak_odr dso_local void @_ZN6dealii12MGDoFHandlerILi3ELi3EED2Ev(%"class.dealii::MGDoFHandler"* %this) unnamed_addr #4 comdat($_ZN6dealii12MGDoFHandlerILi3ELi3EED5Ev) align 2 personality i8* bitcast (i32 (...)* @__gxx_personality_v0 to i8*) !dbg !11733 {
entry:
  %this.addr = alloca %"class.dealii::MGDoFHandler"*, align 8
  %exn.slot = alloca i8*
  %ehselector.slot = alloca i32
  store %"class.dealii::MGDoFHandler"* %this, %"class.dealii::MGDoFHandler"** %this.addr, align 8
  call void @llvm.dbg.declare(metadata %"class.dealii::MGDoFHandler"** %this.addr, metadata !11734, metadata !DIExpression()), !dbg !11735
  %this1 = load %"class.dealii::MGDoFHandler"*, %"class.dealii::MGDoFHandler"** %this.addr, align 8
  %0 = bitcast %"class.dealii::MGDoFHandler"* %this1 to i32 (...)***, !dbg !11736
  store i32 (...)** bitcast (i8** getelementptr inbounds ({ [7 x i8*] }, { [7 x i8*] }* @_ZTVN6dealii12MGDoFHandlerILi3ELi3EEE, i32 0, inrange i32 0, i32 2) to i32 (...)**), i32 (...)*** %0, align 8, !dbg !11736
  %1 = bitcast %"class.dealii::MGDoFHandler"* %this1 to void (%"class.dealii::MGDoFHandler"*)***, !dbg !11737
  %vtable = load void (%"class.dealii::MGDoFHandler"*)**, void (%"class.dealii::MGDoFHandler"*)*** %1, align 8, !dbg !11737
  %vfn = getelementptr inbounds void (%"class.dealii::MGDoFHandler"*)*, void (%"class.dealii::MGDoFHandler"*)** %vtable, i64 3, !dbg !11737
  %2 = load void (%"class.dealii::MGDoFHandler"*)*, void (%"class.dealii::MGDoFHandler"*)** %vfn, align 8, !dbg !11737
  invoke void %2(%"class.dealii::MGDoFHandler"* %this1)
          to label %invoke.cont unwind label %lpad, !dbg !11737

invoke.cont:                                      ; preds = %entry
  %mg_used_dofs = getelementptr inbounds %"class.dealii::MGDoFHandler", %"class.dealii::MGDoFHandler"* %this1, i32 0, i32 4, !dbg !11739
  call void @_ZNSt6vectorIjSaIjEED2Ev(%"class.std::vector.33"* %mg_used_dofs) #3, !dbg !11739
  %mg_vertex_dofs = getelementptr inbounds %"class.dealii::MGDoFHandler", %"class.dealii::MGDoFHandler"* %this1, i32 0, i32 3, !dbg !11739
  call void @_ZNSt6vectorIN6dealii12MGDoFHandlerILi3ELi3EE12MGVertexDoFsESaIS3_EED2Ev(%"class.std::vector.154"* %mg_vertex_dofs) #3, !dbg !11739
  %mg_levels = getelementptr inbounds %"class.dealii::MGDoFHandler", %"class.dealii::MGDoFHandler"* %this1, i32 0, i32 1, !dbg !11739
  call void @_ZNSt6vectorIPN6dealii8internal10DoFHandler8DoFLevelILi3EEESaIS5_EED2Ev(%"class.std::vector.146"* %mg_levels) #3, !dbg !11739
  %3 = bitcast %"class.dealii::MGDoFHandler"* %this1 to %"class.dealii::DoFHandler"*, !dbg !11739
  call void @_ZN6dealii10DoFHandlerILi3ELi3EED2Ev(%"class.dealii::DoFHandler"* %3) #3, !dbg !11739
  ret void, !dbg !11740

lpad:                                             ; preds = %entry
  %4 = landingpad { i8*, i32 }
          catch i8* null, !dbg !11739
  %5 = extractvalue { i8*, i32 } %4, 0, !dbg !11739
  store i8* %5, i8** %exn.slot, align 8, !dbg !11739
  %6 = extractvalue { i8*, i32 } %4, 1, !dbg !11739
  store i32 %6, i32* %ehselector.slot, align 4, !dbg !11739
  %mg_used_dofs2 = getelementptr inbounds %"class.dealii::MGDoFHandler", %"class.dealii::MGDoFHandler"* %this1, i32 0, i32 4, !dbg !11739
  call void @_ZNSt6vectorIjSaIjEED2Ev(%"class.std::vector.33"* %mg_used_dofs2) #3, !dbg !11739
  %mg_vertex_dofs3 = getelementptr inbounds %"class.dealii::MGDoFHandler", %"class.dealii::MGDoFHandler"* %this1, i32 0, i32 3, !dbg !11739
  call void @_ZNSt6vectorIN6dealii12MGDoFHandlerILi3ELi3EE12MGVertexDoFsESaIS3_EED2Ev(%"class.std::vector.154"* %mg_vertex_dofs3) #3, !dbg !11739
  %mg_levels4 = getelementptr inbounds %"class.dealii::MGDoFHandler", %"class.dealii::MGDoFHandler"* %this1, i32 0, i32 1, !dbg !11739
  call void @_ZNSt6vectorIPN6dealii8internal10DoFHandler8DoFLevelILi3EEESaIS5_EED2Ev(%"class.std::vector.146"* %mg_levels4) #3, !dbg !11739
  %7 = bitcast %"class.dealii::MGDoFHandler"* %this1 to %"class.dealii::DoFHandler"*, !dbg !11739
  call void @_ZN6dealii10DoFHandlerILi3ELi3EED2Ev(%"class.dealii::DoFHandler"* %7) #3, !dbg !11739
  br label %terminate.handler, !dbg !11739

terminate.handler:                                ; preds = %lpad
  %exn = load i8*, i8** %exn.slot, align 8, !dbg !11739
  call void @__clang_call_terminate(i8* %exn) #12, !dbg !11739
  unreachable, !dbg !11739
}

declare dso_local i32 @__gxx_personality_v0(...)

; Function Attrs: noinline nounwind uwtable
define linkonce_odr dso_local void @_ZNSt6vectorIjSaIjEED2Ev(%"class.std::vector.33"* %this) unnamed_addr #4 comdat align 2 personality i8* bitcast (i32 (...)* @__gxx_personality_v0 to i8*) !dbg !11741 {
entry:
  %this.addr = alloca %"class.std::vector.33"*, align 8
  %exn.slot = alloca i8*
  %ehselector.slot = alloca i32
  store %"class.std::vector.33"* %this, %"class.std::vector.33"** %this.addr, align 8
  call void @llvm.dbg.declare(metadata %"class.std::vector.33"** %this.addr, metadata !11742, metadata !DIExpression()), !dbg !11743
  %this1 = load %"class.std::vector.33"*, %"class.std::vector.33"** %this.addr, align 8
  %0 = bitcast %"class.std::vector.33"* %this1 to %"struct.std::_Vector_base.34"*, !dbg !11744
  %_M_impl = getelementptr inbounds %"struct.std::_Vector_base.34", %"struct.std::_Vector_base.34"* %0, i32 0, i32 0, !dbg !11744
  %1 = bitcast %"struct.std::_Vector_base<unsigned int, std::allocator<unsigned int> >::_Vector_impl"* %_M_impl to %"struct.std::_Vector_base<unsigned int, std::allocator<unsigned int> >::_Vector_impl_data"*, !dbg !11746
  %_M_start = getelementptr inbounds %"struct.std::_Vector_base<unsigned int, std::allocator<unsigned int> >::_Vector_impl_data", %"struct.std::_Vector_base<unsigned int, std::allocator<unsigned int> >::_Vector_impl_data"* %1, i32 0, i32 0, !dbg !11747
  %2 = load i32*, i32** %_M_start, align 8, !dbg !11747
  %3 = bitcast %"class.std::vector.33"* %this1 to %"struct.std::_Vector_base.34"*, !dbg !11748
  %_M_impl2 = getelementptr inbounds %"struct.std::_Vector_base.34", %"struct.std::_Vector_base.34"* %3, i32 0, i32 0, !dbg !11748
  %4 = bitcast %"struct.std::_Vector_base<unsigned int, std::allocator<unsigned int> >::_Vector_impl"* %_M_impl2 to %"struct.std::_Vector_base<unsigned int, std::allocator<unsigned int> >::_Vector_impl_data"*, !dbg !11749
  %_M_finish = getelementptr inbounds %"struct.std::_Vector_base<unsigned int, std::allocator<unsigned int> >::_Vector_impl_data", %"struct.std::_Vector_base<unsigned int, std::allocator<unsigned int> >::_Vector_impl_data"* %4, i32 0, i32 1, !dbg !11750
  %5 = load i32*, i32** %_M_finish, align 8, !dbg !11750
  %6 = bitcast %"class.std::vector.33"* %this1 to %"struct.std::_Vector_base.34"*, !dbg !11751
  %call = call dereferenceable(1) %"class.std::allocator.35"* @_ZNSt12_Vector_baseIjSaIjEE19_M_get_Tp_allocatorEv(%"struct.std::_Vector_base.34"* %6) #3, !dbg !11751
  invoke void @_ZSt8_DestroyIPjjEvT_S1_RSaIT0_E(i32* %2, i32* %5, %"class.std::allocator.35"* dereferenceable(1) %call)
          to label %invoke.cont unwind label %lpad, !dbg !11752

invoke.cont:                                      ; preds = %entry
  %7 = bitcast %"class.std::vector.33"* %this1 to %"struct.std::_Vector_base.34"*, !dbg !11753
  call void @_ZNSt12_Vector_baseIjSaIjEED2Ev(%"struct.std::_Vector_base.34"* %7) #3, !dbg !11753
  ret void, !dbg !11754

lpad:                                             ; preds = %entry
  %8 = landingpad { i8*, i32 }
          catch i8* null, !dbg !11753
  %9 = extractvalue { i8*, i32 } %8, 0, !dbg !11753
  store i8* %9, i8** %exn.slot, align 8, !dbg !11753
  %10 = extractvalue { i8*, i32 } %8, 1, !dbg !11753
  store i32 %10, i32* %ehselector.slot, align 4, !dbg !11753
  %11 = bitcast %"class.std::vector.33"* %this1 to %"struct.std::_Vector_base.34"*, !dbg !11753
  call void @_ZNSt12_Vector_baseIjSaIjEED2Ev(%"struct.std::_Vector_base.34"* %11) #3, !dbg !11753
  br label %terminate.handler, !dbg !11753

terminate.handler:                                ; preds = %lpad
  %exn = load i8*, i8** %exn.slot, align 8, !dbg !11753
  call void @__clang_call_terminate(i8* %exn) #12, !dbg !11753
  unreachable, !dbg !11753
}

; Function Attrs: noinline nounwind uwtable
define linkonce_odr dso_local void @_ZNSt6vectorIN6dealii12MGDoFHandlerILi3ELi3EE12MGVertexDoFsESaIS3_EED2Ev(%"class.std::vector.154"* %this) unnamed_addr #4 comdat align 2 personality i8* bitcast (i32 (...)* @__gxx_personality_v0 to i8*) !dbg !11755 {
entry:
  %this.addr = alloca %"class.std::vector.154"*, align 8
  %exn.slot = alloca i8*
  %ehselector.slot = alloca i32
  store %"class.std::vector.154"* %this, %"class.std::vector.154"** %this.addr, align 8
  call void @llvm.dbg.declare(metadata %"class.std::vector.154"** %this.addr, metadata !11756, metadata !DIExpression()), !dbg !11757
  %this1 = load %"class.std::vector.154"*, %"class.std::vector.154"** %this.addr, align 8
  %0 = bitcast %"class.std::vector.154"* %this1 to %"struct.std::_Vector_base.155"*, !dbg !11758
  %_M_impl = getelementptr inbounds %"struct.std::_Vector_base.155", %"struct.std::_Vector_base.155"* %0, i32 0, i32 0, !dbg !11758
  %1 = bitcast %"struct.std::_Vector_base<dealii::MGDoFHandler<3, 3>::MGVertexDoFs, std::allocator<dealii::MGDoFHandler<3, 3>::MGVertexDoFs> >::_Vector_impl"* %_M_impl to %"struct.std::_Vector_base<dealii::MGDoFHandler<3, 3>::MGVertexDoFs, std::allocator<dealii::MGDoFHandler<3, 3>::MGVertexDoFs> >::_Vector_impl_data"*, !dbg !11760
  %_M_start = getelementptr inbounds %"struct.std::_Vector_base<dealii::MGDoFHandler<3, 3>::MGVertexDoFs, std::allocator<dealii::MGDoFHandler<3, 3>::MGVertexDoFs> >::_Vector_impl_data", %"struct.std::_Vector_base<dealii::MGDoFHandler<3, 3>::MGVertexDoFs, std::allocator<dealii::MGDoFHandler<3, 3>::MGVertexDoFs> >::_Vector_impl_data"* %1, i32 0, i32 0, !dbg !11761
  %2 = load %"class.dealii::MGDoFHandler<3, 3>::MGVertexDoFs"*, %"class.dealii::MGDoFHandler<3, 3>::MGVertexDoFs"** %_M_start, align 8, !dbg !11761
  %3 = bitcast %"class.std::vector.154"* %this1 to %"struct.std::_Vector_base.155"*, !dbg !11762
  %_M_impl2 = getelementptr inbounds %"struct.std::_Vector_base.155", %"struct.std::_Vector_base.155"* %3, i32 0, i32 0, !dbg !11762
  %4 = bitcast %"struct.std::_Vector_base<dealii::MGDoFHandler<3, 3>::MGVertexDoFs, std::allocator<dealii::MGDoFHandler<3, 3>::MGVertexDoFs> >::_Vector_impl"* %_M_impl2 to %"struct.std::_Vector_base<dealii::MGDoFHandler<3, 3>::MGVertexDoFs, std::allocator<dealii::MGDoFHandler<3, 3>::MGVertexDoFs> >::_Vector_impl_data"*, !dbg !11763
  %_M_finish = getelementptr inbounds %"struct.std::_Vector_base<dealii::MGDoFHandler<3, 3>::MGVertexDoFs, std::allocator<dealii::MGDoFHandler<3, 3>::MGVertexDoFs> >::_Vector_impl_data", %"struct.std::_Vector_base<dealii::MGDoFHandler<3, 3>::MGVertexDoFs, std::allocator<dealii::MGDoFHandler<3, 3>::MGVertexDoFs> >::_Vector_impl_data"* %4, i32 0, i32 1, !dbg !11764
  %5 = load %"class.dealii::MGDoFHandler<3, 3>::MGVertexDoFs"*, %"class.dealii::MGDoFHandler<3, 3>::MGVertexDoFs"** %_M_finish, align 8, !dbg !11764
  %6 = bitcast %"class.std::vector.154"* %this1 to %"struct.std::_Vector_base.155"*, !dbg !11765
  %call = call dereferenceable(1) %"class.std::allocator.156"* @_ZNSt12_Vector_baseIN6dealii12MGDoFHandlerILi3ELi3EE12MGVertexDoFsESaIS3_EE19_M_get_Tp_allocatorEv(%"struct.std::_Vector_base.155"* %6) #3, !dbg !11765
  invoke void @_ZSt8_DestroyIPN6dealii12MGDoFHandlerILi3ELi3EE12MGVertexDoFsES3_EvT_S5_RSaIT0_E(%"class.dealii::MGDoFHandler<3, 3>::MGVertexDoFs"* %2, %"class.dealii::MGDoFHandler<3, 3>::MGVertexDoFs"* %5, %"class.std::allocator.156"* dereferenceable(1) %call)
          to label %invoke.cont unwind label %lpad, !dbg !11766

invoke.cont:                                      ; preds = %entry
  %7 = bitcast %"class.std::vector.154"* %this1 to %"struct.std::_Vector_base.155"*, !dbg !11767
  call void @_ZNSt12_Vector_baseIN6dealii12MGDoFHandlerILi3ELi3EE12MGVertexDoFsESaIS3_EED2Ev(%"struct.std::_Vector_base.155"* %7) #3, !dbg !11767
  ret void, !dbg !11768

lpad:                                             ; preds = %entry
  %8 = landingpad { i8*, i32 }
          catch i8* null, !dbg !11767
  %9 = extractvalue { i8*, i32 } %8, 0, !dbg !11767
  store i8* %9, i8** %exn.slot, align 8, !dbg !11767
  %10 = extractvalue { i8*, i32 } %8, 1, !dbg !11767
  store i32 %10, i32* %ehselector.slot, align 4, !dbg !11767
  %11 = bitcast %"class.std::vector.154"* %this1 to %"struct.std::_Vector_base.155"*, !dbg !11767
  call void @_ZNSt12_Vector_baseIN6dealii12MGDoFHandlerILi3ELi3EE12MGVertexDoFsESaIS3_EED2Ev(%"struct.std::_Vector_base.155"* %11) #3, !dbg !11767
  br label %terminate.handler, !dbg !11767

terminate.handler:                                ; preds = %lpad
  %exn = load i8*, i8** %exn.slot, align 8, !dbg !11767
  call void @__clang_call_terminate(i8* %exn) #12, !dbg !11767
  unreachable, !dbg !11767
}

; Function Attrs: noinline nounwind uwtable
define linkonce_odr dso_local void @_ZNSt6vectorIPN6dealii8internal10DoFHandler8DoFLevelILi3EEESaIS5_EED2Ev(%"class.std::vector.146"* %this) unnamed_addr #4 comdat align 2 personality i8* bitcast (i32 (...)* @__gxx_personality_v0 to i8*) !dbg !11769 {
entry:
  %this.addr = alloca %"class.std::vector.146"*, align 8
  %exn.slot = alloca i8*
  %ehselector.slot = alloca i32
  store %"class.std::vector.146"* %this, %"class.std::vector.146"** %this.addr, align 8
  call void @llvm.dbg.declare(metadata %"class.std::vector.146"** %this.addr, metadata !11770, metadata !DIExpression()), !dbg !11771
  %this1 = load %"class.std::vector.146"*, %"class.std::vector.146"** %this.addr, align 8
  %0 = bitcast %"class.std::vector.146"* %this1 to %"struct.std::_Vector_base.147"*, !dbg !11772
  %_M_impl = getelementptr inbounds %"struct.std::_Vector_base.147", %"struct.std::_Vector_base.147"* %0, i32 0, i32 0, !dbg !11772
  %1 = bitcast %"struct.std::_Vector_base<dealii::internal::DoFHandler::DoFLevel<3> *, std::allocator<dealii::internal::DoFHandler::DoFLevel<3> *> >::_Vector_impl"* %_M_impl to %"struct.std::_Vector_base<dealii::internal::DoFHandler::DoFLevel<3> *, std::allocator<dealii::internal::DoFHandler::DoFLevel<3> *> >::_Vector_impl_data"*, !dbg !11774
  %_M_start = getelementptr inbounds %"struct.std::_Vector_base<dealii::internal::DoFHandler::DoFLevel<3> *, std::allocator<dealii::internal::DoFHandler::DoFLevel<3> *> >::_Vector_impl_data", %"struct.std::_Vector_base<dealii::internal::DoFHandler::DoFLevel<3> *, std::allocator<dealii::internal::DoFHandler::DoFLevel<3> *> >::_Vector_impl_data"* %1, i32 0, i32 0, !dbg !11775
  %2 = load %"class.dealii::internal::DoFHandler::DoFLevel"**, %"class.dealii::internal::DoFHandler::DoFLevel"*** %_M_start, align 8, !dbg !11775
  %3 = bitcast %"class.std::vector.146"* %this1 to %"struct.std::_Vector_base.147"*, !dbg !11776
  %_M_impl2 = getelementptr inbounds %"struct.std::_Vector_base.147", %"struct.std::_Vector_base.147"* %3, i32 0, i32 0, !dbg !11776
  %4 = bitcast %"struct.std::_Vector_base<dealii::internal::DoFHandler::DoFLevel<3> *, std::allocator<dealii::internal::DoFHandler::DoFLevel<3> *> >::_Vector_impl"* %_M_impl2 to %"struct.std::_Vector_base<dealii::internal::DoFHandler::DoFLevel<3> *, std::allocator<dealii::internal::DoFHandler::DoFLevel<3> *> >::_Vector_impl_data"*, !dbg !11777
  %_M_finish = getelementptr inbounds %"struct.std::_Vector_base<dealii::internal::DoFHandler::DoFLevel<3> *, std::allocator<dealii::internal::DoFHandler::DoFLevel<3> *> >::_Vector_impl_data", %"struct.std::_Vector_base<dealii::internal::DoFHandler::DoFLevel<3> *, std::allocator<dealii::internal::DoFHandler::DoFLevel<3> *> >::_Vector_impl_data"* %4, i32 0, i32 1, !dbg !11778
  %5 = load %"class.dealii::internal::DoFHandler::DoFLevel"**, %"class.dealii::internal::DoFHandler::DoFLevel"*** %_M_finish, align 8, !dbg !11778
  %6 = bitcast %"class.std::vector.146"* %this1 to %"struct.std::_Vector_base.147"*, !dbg !11779
  %call = call dereferenceable(1) %"class.std::allocator.148"* @_ZNSt12_Vector_baseIPN6dealii8internal10DoFHandler8DoFLevelILi3EEESaIS5_EE19_M_get_Tp_allocatorEv(%"struct.std::_Vector_base.147"* %6) #3, !dbg !11779
  invoke void @_ZSt8_DestroyIPPN6dealii8internal10DoFHandler8DoFLevelILi3EEES5_EvT_S7_RSaIT0_E(%"class.dealii::internal::DoFHandler::DoFLevel"** %2, %"class.dealii::internal::DoFHandler::DoFLevel"** %5, %"class.std::allocator.148"* dereferenceable(1) %call)
          to label %invoke.cont unwind label %lpad, !dbg !11780

invoke.cont:                                      ; preds = %entry
  %7 = bitcast %"class.std::vector.146"* %this1 to %"struct.std::_Vector_base.147"*, !dbg !11781
  call void @_ZNSt12_Vector_baseIPN6dealii8internal10DoFHandler8DoFLevelILi3EEESaIS5_EED2Ev(%"struct.std::_Vector_base.147"* %7) #3, !dbg !11781
  ret void, !dbg !11782

lpad:                                             ; preds = %entry
  %8 = landingpad { i8*, i32 }
          catch i8* null, !dbg !11781
  %9 = extractvalue { i8*, i32 } %8, 0, !dbg !11781
  store i8* %9, i8** %exn.slot, align 8, !dbg !11781
  %10 = extractvalue { i8*, i32 } %8, 1, !dbg !11781
  store i32 %10, i32* %ehselector.slot, align 4, !dbg !11781
  %11 = bitcast %"class.std::vector.146"* %this1 to %"struct.std::_Vector_base.147"*, !dbg !11781
  call void @_ZNSt12_Vector_baseIPN6dealii8internal10DoFHandler8DoFLevelILi3EEESaIS5_EED2Ev(%"struct.std::_Vector_base.147"* %11) #3, !dbg !11781
  br label %terminate.handler, !dbg !11781

terminate.handler:                                ; preds = %lpad
  %exn = load i8*, i8** %exn.slot, align 8, !dbg !11781
  call void @__clang_call_terminate(i8* %exn) #12, !dbg !11781
  unreachable, !dbg !11781
}

; Function Attrs: nounwind
declare dso_local void @_ZN6dealii10DoFHandlerILi3ELi3EED2Ev(%"class.dealii::DoFHandler"*) unnamed_addr #2

; Function Attrs: noinline noreturn nounwind
define linkonce_odr hidden void @__clang_call_terminate(i8* %0) #6 comdat {
  %2 = call i8* @__cxa_begin_catch(i8* %0) #3
  call void @_ZSt9terminatev() #12
  unreachable
}

declare dso_local i8* @__cxa_begin_catch(i8*)

declare dso_local void @_ZSt9terminatev()

; Function Attrs: noinline nounwind uwtable
define weak_odr dso_local void @_ZN6dealii12MGDoFHandlerILi3ELi3EED0Ev(%"class.dealii::MGDoFHandler"* %this) unnamed_addr #4 comdat($_ZN6dealii12MGDoFHandlerILi3ELi3EED5Ev) align 2 !dbg !11783 {
entry:
  %this.addr = alloca %"class.dealii::MGDoFHandler"*, align 8
  store %"class.dealii::MGDoFHandler"* %this, %"class.dealii::MGDoFHandler"** %this.addr, align 8
  call void @llvm.dbg.declare(metadata %"class.dealii::MGDoFHandler"** %this.addr, metadata !11784, metadata !DIExpression()), !dbg !11785
  %this1 = load %"class.dealii::MGDoFHandler"*, %"class.dealii::MGDoFHandler"** %this.addr, align 8
  call void @_ZN6dealii12MGDoFHandlerILi3ELi3EED1Ev(%"class.dealii::MGDoFHandler"* %this1) #3, !dbg !11786
  %0 = bitcast %"class.dealii::MGDoFHandler"* %this1 to i8*, !dbg !11786
  call void @_ZdlPv(i8* %0) #13, !dbg !11786
  ret void, !dbg !11787
}

; Function Attrs: nobuiltin nounwind
declare dso_local void @_ZdlPv(i8*) #7

; Function Attrs: noinline uwtable
define weak_odr dso_local void @_ZN6dealii12MGDoFHandlerILi3ELi3EE15distribute_dofsERKNS_13FiniteElementILi3ELi3EEEj(%"class.dealii::MGDoFHandler"* %this, %"class.dealii::FiniteElement"* dereferenceable(728) %fe, i32 %offset) unnamed_addr #0 comdat align 2 personality i8* bitcast (i32 (...)* @__gxx_personality_v0 to i8*) !dbg !11788 {
entry:
  %this.addr = alloca %"class.dealii::MGDoFHandler"*, align 8
  %fe.addr = alloca %"class.dealii::FiniteElement"*, align 8
  %offset.addr = alloca i32, align 4
  %ref.tmp = alloca i32, align 4
  %user_flags = alloca %"class.std::vector.24", align 8
  %exn.slot = alloca i8*
  %ehselector.slot = alloca i32
  %level = alloca i32, align 4
  %next_free_dof = alloca i32, align 4
  %cell = alloca %"class.dealii::TriaIterator", align 8
  %endc = alloca %"class.dealii::TriaIterator", align 8
  store %"class.dealii::MGDoFHandler"* %this, %"class.dealii::MGDoFHandler"** %this.addr, align 8
  call void @llvm.dbg.declare(metadata %"class.dealii::MGDoFHandler"** %this.addr, metadata !11789, metadata !DIExpression()), !dbg !11790
  store %"class.dealii::FiniteElement"* %fe, %"class.dealii::FiniteElement"** %fe.addr, align 8
  call void @llvm.dbg.declare(metadata %"class.dealii::FiniteElement"** %fe.addr, metadata !11791, metadata !DIExpression()), !dbg !11792
  store i32 %offset, i32* %offset.addr, align 4
  call void @llvm.dbg.declare(metadata i32* %offset.addr, metadata !11793, metadata !DIExpression()), !dbg !11794
  %this1 = load %"class.dealii::MGDoFHandler"*, %"class.dealii::MGDoFHandler"** %this.addr, align 8
  %0 = bitcast %"class.dealii::MGDoFHandler"* %this1 to %"class.dealii::DoFHandler"*, !dbg !11795
  %1 = load %"class.dealii::FiniteElement"*, %"class.dealii::FiniteElement"** %fe.addr, align 8, !dbg !11796
  call void @_ZN6dealii10DoFHandlerILi3ELi3EE15distribute_dofsERKNS_13FiniteElementILi3ELi3EEEj(%"class.dealii::DoFHandler"* %0, %"class.dealii::FiniteElement"* dereferenceable(728) %1, i32 0), !dbg !11795
  call void @_ZN6dealii12MGDoFHandlerILi3ELi3EE13reserve_spaceEv(%"class.dealii::MGDoFHandler"* %this1), !dbg !11797
  %mg_used_dofs = getelementptr inbounds %"class.dealii::MGDoFHandler", %"class.dealii::MGDoFHandler"* %this1, i32 0, i32 4, !dbg !11798
  %2 = bitcast %"class.dealii::MGDoFHandler"* %this1 to %"class.dealii::DoFHandler"*, !dbg !11799
  %tria = getelementptr inbounds %"class.dealii::DoFHandler", %"class.dealii::DoFHandler"* %2, i32 0, i32 1, !dbg !11799
  %call = call %"class.dealii::Triangulation"* @_ZNK6dealii12SmartPointerIKNS_13TriangulationILi3ELi3EEEEptEv(%"class.dealii::SmartPointer"* %tria), !dbg !11800
  %call2 = call i32 @_ZNK6dealii13TriangulationILi3ELi3EE8n_levelsEv(%"class.dealii::Triangulation"* %call), !dbg !11801
  %conv = zext i32 %call2 to i64, !dbg !11800
  store i32 0, i32* %ref.tmp, align 4, !dbg !11802
  call void @_ZNSt6vectorIjSaIjEE6resizeEmRKj(%"class.std::vector.33"* %mg_used_dofs, i64 %conv, i32* dereferenceable(4) %ref.tmp), !dbg !11803
  call void @llvm.dbg.declare(metadata %"class.std::vector.24"* %user_flags, metadata !11804, metadata !DIExpression()), !dbg !11805
  call void @_ZNSt6vectorIbSaIbEEC2Ev(%"class.std::vector.24"* %user_flags) #3, !dbg !11805
  %3 = bitcast %"class.dealii::MGDoFHandler"* %this1 to %"class.dealii::DoFHandler"*, !dbg !11806
  %tria3 = getelementptr inbounds %"class.dealii::DoFHandler", %"class.dealii::DoFHandler"* %3, i32 0, i32 1, !dbg !11806
  %call4 = invoke %"class.dealii::Triangulation"* @_ZNK6dealii12SmartPointerIKNS_13TriangulationILi3ELi3EEEEptEv(%"class.dealii::SmartPointer"* %tria3)
          to label %invoke.cont unwind label %lpad, !dbg !11807

invoke.cont:                                      ; preds = %entry
  invoke void @_ZNK6dealii13TriangulationILi3ELi3EE15save_user_flagsERSt6vectorIbSaIbEE(%"class.dealii::Triangulation"* %call4, %"class.std::vector.24"* dereferenceable(40) %user_flags)
          to label %invoke.cont5 unwind label %lpad, !dbg !11808

invoke.cont5:                                     ; preds = %invoke.cont
  %4 = bitcast %"class.dealii::MGDoFHandler"* %this1 to %"class.dealii::DoFHandler"*, !dbg !11809
  %tria6 = getelementptr inbounds %"class.dealii::DoFHandler", %"class.dealii::DoFHandler"* %4, i32 0, i32 1, !dbg !11809
  %call8 = invoke dereferenceable(8552) %"class.dealii::Triangulation"* @_ZNK6dealii12SmartPointerIKNS_13TriangulationILi3ELi3EEEEdeEv(%"class.dealii::SmartPointer"* %tria6)
          to label %invoke.cont7 unwind label %lpad, !dbg !11810

invoke.cont7:                                     ; preds = %invoke.cont5
  invoke void @_ZN6dealii13TriangulationILi3ELi3EE16clear_user_flagsEv(%"class.dealii::Triangulation"* %call8)
          to label %invoke.cont9 unwind label %lpad, !dbg !11811

invoke.cont9:                                     ; preds = %invoke.cont7
  call void @llvm.dbg.declare(metadata i32* %level, metadata !11812, metadata !DIExpression()), !dbg !11814
  store i32 0, i32* %level, align 4, !dbg !11814
  br label %for.cond, !dbg !11815

for.cond:                                         ; preds = %for.inc28, %invoke.cont9
  %5 = load i32, i32* %level, align 4, !dbg !11816
  %6 = bitcast %"class.dealii::MGDoFHandler"* %this1 to %"class.dealii::DoFHandler"*, !dbg !11818
  %tria10 = getelementptr inbounds %"class.dealii::DoFHandler", %"class.dealii::DoFHandler"* %6, i32 0, i32 1, !dbg !11818
  %call12 = invoke %"class.dealii::Triangulation"* @_ZNK6dealii12SmartPointerIKNS_13TriangulationILi3ELi3EEEEptEv(%"class.dealii::SmartPointer"* %tria10)
          to label %invoke.cont11 unwind label %lpad, !dbg !11819

invoke.cont11:                                    ; preds = %for.cond
  %call14 = invoke i32 @_ZNK6dealii13TriangulationILi3ELi3EE8n_levelsEv(%"class.dealii::Triangulation"* %call12)
          to label %invoke.cont13 unwind label %lpad, !dbg !11820

invoke.cont13:                                    ; preds = %invoke.cont11
  %cmp = icmp ult i32 %5, %call14, !dbg !11821
  br i1 %cmp, label %for.body, label %for.end29, !dbg !11822

for.body:                                         ; preds = %invoke.cont13
  call void @llvm.dbg.declare(metadata i32* %next_free_dof, metadata !11823, metadata !DIExpression()), !dbg !11825
  %7 = load i32, i32* %offset.addr, align 4, !dbg !11826
  store i32 %7, i32* %next_free_dof, align 4, !dbg !11825
  call void @llvm.dbg.declare(metadata %"class.dealii::TriaIterator"* %cell, metadata !11827, metadata !DIExpression()), !dbg !11828
  %8 = load i32, i32* %level, align 4, !dbg !11829
  invoke void @_ZNK6dealii12MGDoFHandlerILi3ELi3EE5beginEj(%"class.dealii::TriaIterator"* sret %cell, %"class.dealii::MGDoFHandler"* %this1, i32 %8)
          to label %invoke.cont15 unwind label %lpad, !dbg !11830

invoke.cont15:                                    ; preds = %for.body
  call void @llvm.dbg.declare(metadata %"class.dealii::TriaIterator"* %endc, metadata !11831, metadata !DIExpression()), !dbg !11832
  %9 = load i32, i32* %level, align 4, !dbg !11833
  invoke void @_ZNK6dealii12MGDoFHandlerILi3ELi3EE3endEj(%"class.dealii::TriaIterator"* sret %endc, %"class.dealii::MGDoFHandler"* %this1, i32 %9)
          to label %invoke.cont16 unwind label %lpad, !dbg !11834

invoke.cont16:                                    ; preds = %invoke.cont15
  br label %for.cond17, !dbg !11835

for.cond17:                                       ; preds = %invoke.cont23, %invoke.cont16
  %10 = bitcast %"class.dealii::TriaIterator"* %cell to %"class.dealii::TriaRawIterator"*, !dbg !11836
  %11 = bitcast %"class.dealii::TriaIterator"* %endc to %"class.dealii::TriaRawIterator"*, !dbg !11839
  %call19 = invoke zeroext i1 @_ZNK6dealii15TriaRawIteratorINS_17MGDoFCellAccessorILi3ELi3EEEEneERKS3_(%"class.dealii::TriaRawIterator"* %10, %"class.dealii::TriaRawIterator"* dereferenceable(32) %11)
          to label %invoke.cont18 unwind label %lpad, !dbg !11840

invoke.cont18:                                    ; preds = %for.cond17
  br i1 %call19, label %for.body20, label %for.end, !dbg !11841

for.body20:                                       ; preds = %invoke.cont18
  %12 = load i32, i32* %next_free_dof, align 4, !dbg !11842
  %call22 = invoke i32 @_ZN6dealii12MGDoFHandlerILi3ELi3EE23distribute_dofs_on_cellERNS_12TriaIteratorINS_17MGDoFCellAccessorILi3ELi3EEEEEj(%"class.dealii::MGDoFHandler"* %this1, %"class.dealii::TriaIterator"* dereferenceable(32) %cell, i32 %12)
          to label %invoke.cont21 unwind label %lpad, !dbg !11843

invoke.cont21:                                    ; preds = %for.body20
  store i32 %call22, i32* %next_free_dof, align 4, !dbg !11844
  br label %for.inc, !dbg !11845

for.inc:                                          ; preds = %invoke.cont21
  %call24 = invoke dereferenceable(32) %"class.dealii::TriaIterator"* @_ZN6dealii12TriaIteratorINS_17MGDoFCellAccessorILi3ELi3EEEEppEv(%"class.dealii::TriaIterator"* %cell)
          to label %invoke.cont23 unwind label %lpad, !dbg !11846

invoke.cont23:                                    ; preds = %for.inc
  br label %for.cond17, !dbg !11847, !llvm.loop !11848

lpad:                                             ; preds = %invoke.cont31, %for.end29, %for.inc, %for.body20, %for.cond17, %invoke.cont15, %for.body, %invoke.cont11, %for.cond, %invoke.cont7, %invoke.cont5, %invoke.cont, %entry
  %13 = landingpad { i8*, i32 }
          cleanup, !dbg !11850
  %14 = extractvalue { i8*, i32 } %13, 0, !dbg !11850
  store i8* %14, i8** %exn.slot, align 8, !dbg !11850
  %15 = extractvalue { i8*, i32 } %13, 1, !dbg !11850
  store i32 %15, i32* %ehselector.slot, align 4, !dbg !11850
  call void @_ZNSt6vectorIbSaIbEED2Ev(%"class.std::vector.24"* %user_flags) #3, !dbg !11850
  br label %eh.resume, !dbg !11850

for.end:                                          ; preds = %invoke.cont18
  %16 = load i32, i32* %next_free_dof, align 4, !dbg !11851
  %mg_used_dofs25 = getelementptr inbounds %"class.dealii::MGDoFHandler", %"class.dealii::MGDoFHandler"* %this1, i32 0, i32 4, !dbg !11852
  %17 = load i32, i32* %level, align 4, !dbg !11853
  %conv26 = zext i32 %17 to i64, !dbg !11853
  %call27 = call dereferenceable(4) i32* @_ZNSt6vectorIjSaIjEEixEm(%"class.std::vector.33"* %mg_used_dofs25, i64 %conv26) #3, !dbg !11852
  store i32 %16, i32* %call27, align 4, !dbg !11854
  br label %for.inc28, !dbg !11855

for.inc28:                                        ; preds = %for.end
  %18 = load i32, i32* %level, align 4, !dbg !11856
  %inc = add i32 %18, 1, !dbg !11856
  store i32 %inc, i32* %level, align 4, !dbg !11856
  br label %for.cond, !dbg !11857, !llvm.loop !11858

for.end29:                                        ; preds = %invoke.cont13
  %19 = bitcast %"class.dealii::MGDoFHandler"* %this1 to %"class.dealii::DoFHandler"*, !dbg !11860
  %tria30 = getelementptr inbounds %"class.dealii::DoFHandler", %"class.dealii::DoFHandler"* %19, i32 0, i32 1, !dbg !11860
  %call32 = invoke dereferenceable(8552) %"class.dealii::Triangulation"* @_ZNK6dealii12SmartPointerIKNS_13TriangulationILi3ELi3EEEEdeEv(%"class.dealii::SmartPointer"* %tria30)
          to label %invoke.cont31 unwind label %lpad, !dbg !11861

invoke.cont31:                                    ; preds = %for.end29
  invoke void @_ZN6dealii13TriangulationILi3ELi3EE15load_user_flagsERKSt6vectorIbSaIbEE(%"class.dealii::Triangulation"* %call32, %"class.std::vector.24"* dereferenceable(40) %user_flags)
          to label %invoke.cont33 unwind label %lpad, !dbg !11862

invoke.cont33:                                    ; preds = %invoke.cont31
  call void @_ZNSt6vectorIbSaIbEED2Ev(%"class.std::vector.24"* %user_flags) #3, !dbg !11850
  ret void, !dbg !11850

eh.resume:                                        ; preds = %lpad
  %exn = load i8*, i8** %exn.slot, align 8, !dbg !11850
  %sel = load i32, i32* %ehselector.slot, align 4, !dbg !11850
  %lpad.val = insertvalue { i8*, i32 } undef, i8* %exn, 0, !dbg !11850
  %lpad.val34 = insertvalue { i8*, i32 } %lpad.val, i32 %sel, 1, !dbg !11850
  resume { i8*, i32 } %lpad.val34, !dbg !11850
}

declare dso_local void @_ZN6dealii10DoFHandlerILi3ELi3EE15distribute_dofsERKNS_13FiniteElementILi3ELi3EEEj(%"class.dealii::DoFHandler"*, %"class.dealii::FiniteElement"* dereferenceable(728), i32) unnamed_addr #1

; Function Attrs: noinline uwtable
define dso_local void @_ZN6dealii12MGDoFHandlerILi3ELi3EE13reserve_spaceEv(%"class.dealii::MGDoFHandler"* %this) #0 align 2 personality i8* bitcast (i32 (...)* @__gxx_personality_v0 to i8*) !dbg !11863 {
entry:
  %this.addr = alloca %"class.dealii::MGDoFHandler"*, align 8
  %dim = alloca i32, align 4
  %spacedim = alloca i32, align 4
  %i = alloca i32, align 4
  %ref.tmp = alloca %"class.dealii::internal::DoFHandler::DoFLevel"*, align 8
  %ref.tmp4 = alloca %"class.std::vector.33", align 8
  %ref.tmp9 = alloca %"class.std::allocator.35", align 1
  %exn.slot = alloca i8*
  %ehselector.slot = alloca i32
  %ref.tmp14 = alloca %"class.std::vector.33", align 8
  %ref.tmp23 = alloca %"class.std::allocator.35", align 1
  %ref.tmp29 = alloca %"class.std::vector.33", align 8
  %ref.tmp38 = alloca %"class.std::allocator.35", align 1
  %min_level = alloca %"class.std::vector.33", align 8
  %ref.tmp52 = alloca i32, align 4
  %ref.tmp56 = alloca %"class.std::allocator.35", align 1
  %max_level = alloca %"class.std::vector.33", align 8
  %ref.tmp66 = alloca i32, align 4
  %ref.tmp67 = alloca %"class.std::allocator.35", align 1
  %cell = alloca %"class.dealii::TriaIterator.177", align 8
  %endc = alloca %"class.dealii::TriaIterator.177", align 8
  %ref.tmp75 = alloca %"class.dealii::TriaRawIterator.178", align 8
  %vertex = alloca i32, align 4
  %vertex_index = alloca i32, align 4
  %vertex127 = alloca i32, align 4
  store %"class.dealii::MGDoFHandler"* %this, %"class.dealii::MGDoFHandler"** %this.addr, align 8
  call void @llvm.dbg.declare(metadata %"class.dealii::MGDoFHandler"** %this.addr, metadata !11864, metadata !DIExpression()), !dbg !11865
  %this1 = load %"class.dealii::MGDoFHandler"*, %"class.dealii::MGDoFHandler"** %this.addr, align 8
  call void @llvm.dbg.declare(metadata i32* %dim, metadata !11866, metadata !DIExpression()), !dbg !11867
  store i32 3, i32* %dim, align 4, !dbg !11867
  call void @llvm.dbg.declare(metadata i32* %spacedim, metadata !11868, metadata !DIExpression()), !dbg !11869
  store i32 3, i32* %spacedim, align 4, !dbg !11869
  call void @_ZN6dealii12MGDoFHandlerILi3ELi3EE11clear_spaceEv(%"class.dealii::MGDoFHandler"* %this1), !dbg !11870
  call void @llvm.dbg.declare(metadata i32* %i, metadata !11871, metadata !DIExpression()), !dbg !11873
  store i32 0, i32* %i, align 4, !dbg !11873
  br label %for.cond, !dbg !11874

for.cond:                                         ; preds = %for.inc, %entry
  %0 = load i32, i32* %i, align 4, !dbg !11875
  %1 = bitcast %"class.dealii::MGDoFHandler"* %this1 to %"class.dealii::DoFHandler"*, !dbg !11877
  %tria = getelementptr inbounds %"class.dealii::DoFHandler", %"class.dealii::DoFHandler"* %1, i32 0, i32 1, !dbg !11877
  %call = call %"class.dealii::Triangulation"* @_ZNK6dealii12SmartPointerIKNS_13TriangulationILi3ELi3EEEEptEv(%"class.dealii::SmartPointer"* %tria), !dbg !11878
  %call2 = call i32 @_ZNK6dealii13TriangulationILi3ELi3EE8n_levelsEv(%"class.dealii::Triangulation"* %call), !dbg !11879
  %cmp = icmp ult i32 %0, %call2, !dbg !11880
  br i1 %cmp, label %for.body, label %for.end, !dbg !11881

for.body:                                         ; preds = %for.cond
  %mg_levels = getelementptr inbounds %"class.dealii::MGDoFHandler", %"class.dealii::MGDoFHandler"* %this1, i32 0, i32 1, !dbg !11882
  %call3 = call i8* @_Znwm(i64 48) #14, !dbg !11884
  %2 = bitcast i8* %call3 to %"class.dealii::internal::DoFHandler::DoFLevel"*, !dbg !11884
  call void @_ZN6dealii8internal10DoFHandler8DoFLevelILi3EEC2Ev(%"class.dealii::internal::DoFHandler::DoFLevel"* %2) #3, !dbg !11885
  store %"class.dealii::internal::DoFHandler::DoFLevel"* %2, %"class.dealii::internal::DoFHandler::DoFLevel"** %ref.tmp, align 8, !dbg !11884
  call void @_ZNSt6vectorIPN6dealii8internal10DoFHandler8DoFLevelILi3EEESaIS5_EE9push_backEOS5_(%"class.std::vector.146"* %mg_levels, %"class.dealii::internal::DoFHandler::DoFLevel"** dereferenceable(8) %ref.tmp), !dbg !11886
  %3 = bitcast %"class.dealii::MGDoFHandler"* %this1 to %"class.dealii::DoFHandler"*, !dbg !11887
  %tria5 = getelementptr inbounds %"class.dealii::DoFHandler", %"class.dealii::DoFHandler"* %3, i32 0, i32 1, !dbg !11887
  %call6 = call %"class.dealii::Triangulation"* @_ZNK6dealii12SmartPointerIKNS_13TriangulationILi3ELi3EEEEptEv(%"class.dealii::SmartPointer"* %tria5), !dbg !11888
  %4 = load i32, i32* %i, align 4, !dbg !11889
  %call7 = call i32 @_ZNK6dealii13TriangulationILi3ELi3EE10n_raw_hexsEj(%"class.dealii::Triangulation"* %call6, i32 %4), !dbg !11890
  %5 = bitcast %"class.dealii::MGDoFHandler"* %this1 to %"class.dealii::DoFHandler"*, !dbg !11891
  %selected_fe = getelementptr inbounds %"class.dealii::DoFHandler", %"class.dealii::DoFHandler"* %5, i32 0, i32 2, !dbg !11891
  %call8 = call %"class.dealii::FiniteElement"* @_ZNK6dealii12SmartPointerIKNS_13FiniteElementILi3ELi3EEEEptEv(%"class.dealii::SmartPointer.109"* %selected_fe), !dbg !11892
  %6 = bitcast %"class.dealii::FiniteElement"* %call8 to i8*, !dbg !11893
  %add.ptr = getelementptr inbounds i8, i8* %6, i64 72, !dbg !11893
  %7 = bitcast i8* %add.ptr to %"class.dealii::FiniteElementData"*, !dbg !11893
  %dofs_per_hex = getelementptr inbounds %"class.dealii::FiniteElementData", %"class.dealii::FiniteElementData"* %7, i32 0, i32 3, !dbg !11893
  %8 = load i32, i32* %dofs_per_hex, align 4, !dbg !11893
  %mul = mul i32 %call7, %8, !dbg !11894
  %conv = zext i32 %mul to i64, !dbg !11888
  call void @_ZNSaIjEC2Ev(%"class.std::allocator.35"* %ref.tmp9) #3, !dbg !11895
  invoke void @_ZNSt6vectorIjSaIjEEC2EmRKjRKS0_(%"class.std::vector.33"* %ref.tmp4, i64 %conv, i32* dereferenceable(4) @_ZN6dealii10DoFHandlerILi3ELi3EE17invalid_dof_indexE, %"class.std::allocator.35"* dereferenceable(1) %ref.tmp9)
          to label %invoke.cont unwind label %lpad, !dbg !11895

invoke.cont:                                      ; preds = %for.body
  %mg_levels10 = getelementptr inbounds %"class.dealii::MGDoFHandler", %"class.dealii::MGDoFHandler"* %this1, i32 0, i32 1, !dbg !11896
  %call11 = call dereferenceable(8) %"class.dealii::internal::DoFHandler::DoFLevel"** @_ZNSt6vectorIPN6dealii8internal10DoFHandler8DoFLevelILi3EEESaIS5_EE4backEv(%"class.std::vector.146"* %mg_levels10) #3, !dbg !11897
  %9 = load %"class.dealii::internal::DoFHandler::DoFLevel"*, %"class.dealii::internal::DoFHandler::DoFLevel"** %call11, align 8, !dbg !11897
  %hexes = getelementptr inbounds %"class.dealii::internal::DoFHandler::DoFLevel", %"class.dealii::internal::DoFHandler::DoFLevel"* %9, i32 0, i32 1, !dbg !11898
  %dofs = getelementptr inbounds %"class.dealii::internal::DoFHandler::DoFObjects", %"class.dealii::internal::DoFHandler::DoFObjects"* %hexes, i32 0, i32 0, !dbg !11899
  %call12 = call dereferenceable(24) %"class.std::vector.33"* @_ZNSt6vectorIjSaIjEEaSEOS1_(%"class.std::vector.33"* %dofs, %"class.std::vector.33"* dereferenceable(24) %ref.tmp4) #3, !dbg !11900
  call void @_ZNSt6vectorIjSaIjEED2Ev(%"class.std::vector.33"* %ref.tmp4) #3, !dbg !11896
  call void @_ZNSaIjED2Ev(%"class.std::allocator.35"* %ref.tmp9) #3, !dbg !11896
  br label %for.inc, !dbg !11901

for.inc:                                          ; preds = %invoke.cont
  %10 = load i32, i32* %i, align 4, !dbg !11902
  %inc = add i32 %10, 1, !dbg !11902
  store i32 %inc, i32* %i, align 4, !dbg !11902
  br label %for.cond, !dbg !11903, !llvm.loop !11904

lpad:                                             ; preds = %for.body
  %11 = landingpad { i8*, i32 }
          cleanup, !dbg !11906
  %12 = extractvalue { i8*, i32 } %11, 0, !dbg !11906
  store i8* %12, i8** %exn.slot, align 8, !dbg !11906
  %13 = extractvalue { i8*, i32 } %11, 1, !dbg !11906
  store i32 %13, i32* %ehselector.slot, align 4, !dbg !11906
  call void @_ZNSaIjED2Ev(%"class.std::allocator.35"* %ref.tmp9) #3, !dbg !11896
  br label %eh.resume, !dbg !11896

for.end:                                          ; preds = %for.cond
  %call13 = call i8* @_Znwm(i64 48) #14, !dbg !11907
  %14 = bitcast i8* %call13 to %"class.dealii::internal::DoFHandler::DoFFaces"*, !dbg !11907
  call void @_ZN6dealii8internal10DoFHandler8DoFFacesILi3EEC2Ev(%"class.dealii::internal::DoFHandler::DoFFaces"* %14) #3, !dbg !11908
  %mg_faces = getelementptr inbounds %"class.dealii::MGDoFHandler", %"class.dealii::MGDoFHandler"* %this1, i32 0, i32 2, !dbg !11909
  store %"class.dealii::internal::DoFHandler::DoFFaces"* %14, %"class.dealii::internal::DoFHandler::DoFFaces"** %mg_faces, align 8, !dbg !11910
  %15 = bitcast %"class.dealii::MGDoFHandler"* %this1 to %"class.dealii::DoFHandler"*, !dbg !11911
  %tria15 = getelementptr inbounds %"class.dealii::DoFHandler", %"class.dealii::DoFHandler"* %15, i32 0, i32 1, !dbg !11911
  %call16 = call %"class.dealii::Triangulation"* @_ZNK6dealii12SmartPointerIKNS_13TriangulationILi3ELi3EEEEptEv(%"class.dealii::SmartPointer"* %tria15), !dbg !11912
  %call17 = call i32 @_ZNK6dealii13TriangulationILi3ELi3EE11n_raw_linesEv(%"class.dealii::Triangulation"* %call16), !dbg !11913
  %16 = bitcast %"class.dealii::MGDoFHandler"* %this1 to %"class.dealii::DoFHandler"*, !dbg !11914
  %selected_fe18 = getelementptr inbounds %"class.dealii::DoFHandler", %"class.dealii::DoFHandler"* %16, i32 0, i32 2, !dbg !11914
  %call19 = call %"class.dealii::FiniteElement"* @_ZNK6dealii12SmartPointerIKNS_13FiniteElementILi3ELi3EEEEptEv(%"class.dealii::SmartPointer.109"* %selected_fe18), !dbg !11915
  %17 = bitcast %"class.dealii::FiniteElement"* %call19 to i8*, !dbg !11916
  %add.ptr20 = getelementptr inbounds i8, i8* %17, i64 72, !dbg !11916
  %18 = bitcast i8* %add.ptr20 to %"class.dealii::FiniteElementData"*, !dbg !11916
  %dofs_per_line = getelementptr inbounds %"class.dealii::FiniteElementData", %"class.dealii::FiniteElementData"* %18, i32 0, i32 1, !dbg !11916
  %19 = load i32, i32* %dofs_per_line, align 4, !dbg !11916
  %mul21 = mul i32 %call17, %19, !dbg !11917
  %conv22 = zext i32 %mul21 to i64, !dbg !11912
  call void @_ZNSaIjEC2Ev(%"class.std::allocator.35"* %ref.tmp23) #3, !dbg !11918
  invoke void @_ZNSt6vectorIjSaIjEEC2EmRKjRKS0_(%"class.std::vector.33"* %ref.tmp14, i64 %conv22, i32* dereferenceable(4) @_ZN6dealii10DoFHandlerILi3ELi3EE17invalid_dof_indexE, %"class.std::allocator.35"* dereferenceable(1) %ref.tmp23)
          to label %invoke.cont25 unwind label %lpad24, !dbg !11918

invoke.cont25:                                    ; preds = %for.end
  %mg_faces26 = getelementptr inbounds %"class.dealii::MGDoFHandler", %"class.dealii::MGDoFHandler"* %this1, i32 0, i32 2, !dbg !11919
  %20 = load %"class.dealii::internal::DoFHandler::DoFFaces"*, %"class.dealii::internal::DoFHandler::DoFFaces"** %mg_faces26, align 8, !dbg !11919
  %lines = getelementptr inbounds %"class.dealii::internal::DoFHandler::DoFFaces", %"class.dealii::internal::DoFHandler::DoFFaces"* %20, i32 0, i32 0, !dbg !11920
  %dofs27 = getelementptr inbounds %"class.dealii::internal::DoFHandler::DoFObjects.152", %"class.dealii::internal::DoFHandler::DoFObjects.152"* %lines, i32 0, i32 0, !dbg !11921
  %call28 = call dereferenceable(24) %"class.std::vector.33"* @_ZNSt6vectorIjSaIjEEaSEOS1_(%"class.std::vector.33"* %dofs27, %"class.std::vector.33"* dereferenceable(24) %ref.tmp14) #3, !dbg !11922
  call void @_ZNSt6vectorIjSaIjEED2Ev(%"class.std::vector.33"* %ref.tmp14) #3, !dbg !11919
  call void @_ZNSaIjED2Ev(%"class.std::allocator.35"* %ref.tmp23) #3, !dbg !11919
  %21 = bitcast %"class.dealii::MGDoFHandler"* %this1 to %"class.dealii::DoFHandler"*, !dbg !11923
  %tria30 = getelementptr inbounds %"class.dealii::DoFHandler", %"class.dealii::DoFHandler"* %21, i32 0, i32 1, !dbg !11923
  %call31 = call %"class.dealii::Triangulation"* @_ZNK6dealii12SmartPointerIKNS_13TriangulationILi3ELi3EEEEptEv(%"class.dealii::SmartPointer"* %tria30), !dbg !11924
  %call32 = call i32 @_ZNK6dealii13TriangulationILi3ELi3EE11n_raw_quadsEv(%"class.dealii::Triangulation"* %call31), !dbg !11925
  %22 = bitcast %"class.dealii::MGDoFHandler"* %this1 to %"class.dealii::DoFHandler"*, !dbg !11926
  %selected_fe33 = getelementptr inbounds %"class.dealii::DoFHandler", %"class.dealii::DoFHandler"* %22, i32 0, i32 2, !dbg !11926
  %call34 = call %"class.dealii::FiniteElement"* @_ZNK6dealii12SmartPointerIKNS_13FiniteElementILi3ELi3EEEEptEv(%"class.dealii::SmartPointer.109"* %selected_fe33), !dbg !11927
  %23 = bitcast %"class.dealii::FiniteElement"* %call34 to i8*, !dbg !11928
  %add.ptr35 = getelementptr inbounds i8, i8* %23, i64 72, !dbg !11928
  %24 = bitcast i8* %add.ptr35 to %"class.dealii::FiniteElementData"*, !dbg !11928
  %dofs_per_quad = getelementptr inbounds %"class.dealii::FiniteElementData", %"class.dealii::FiniteElementData"* %24, i32 0, i32 2, !dbg !11928
  %25 = load i32, i32* %dofs_per_quad, align 8, !dbg !11928
  %mul36 = mul i32 %call32, %25, !dbg !11929
  %conv37 = zext i32 %mul36 to i64, !dbg !11924
  call void @_ZNSaIjEC2Ev(%"class.std::allocator.35"* %ref.tmp38) #3, !dbg !11930
  invoke void @_ZNSt6vectorIjSaIjEEC2EmRKjRKS0_(%"class.std::vector.33"* %ref.tmp29, i64 %conv37, i32* dereferenceable(4) @_ZN6dealii10DoFHandlerILi3ELi3EE17invalid_dof_indexE, %"class.std::allocator.35"* dereferenceable(1) %ref.tmp38)
          to label %invoke.cont40 unwind label %lpad39, !dbg !11930

invoke.cont40:                                    ; preds = %invoke.cont25
  %mg_faces41 = getelementptr inbounds %"class.dealii::MGDoFHandler", %"class.dealii::MGDoFHandler"* %this1, i32 0, i32 2, !dbg !11931
  %26 = load %"class.dealii::internal::DoFHandler::DoFFaces"*, %"class.dealii::internal::DoFHandler::DoFFaces"** %mg_faces41, align 8, !dbg !11931
  %quads = getelementptr inbounds %"class.dealii::internal::DoFHandler::DoFFaces", %"class.dealii::internal::DoFHandler::DoFFaces"* %26, i32 0, i32 1, !dbg !11932
  %dofs42 = getelementptr inbounds %"class.dealii::internal::DoFHandler::DoFObjects.153", %"class.dealii::internal::DoFHandler::DoFObjects.153"* %quads, i32 0, i32 0, !dbg !11933
  %call43 = call dereferenceable(24) %"class.std::vector.33"* @_ZNSt6vectorIjSaIjEEaSEOS1_(%"class.std::vector.33"* %dofs42, %"class.std::vector.33"* dereferenceable(24) %ref.tmp29) #3, !dbg !11934
  call void @_ZNSt6vectorIjSaIjEED2Ev(%"class.std::vector.33"* %ref.tmp29) #3, !dbg !11931
  call void @_ZNSaIjED2Ev(%"class.std::allocator.35"* %ref.tmp38) #3, !dbg !11931
  %mg_vertex_dofs = getelementptr inbounds %"class.dealii::MGDoFHandler", %"class.dealii::MGDoFHandler"* %this1, i32 0, i32 3, !dbg !11935
  %27 = bitcast %"class.dealii::MGDoFHandler"* %this1 to %"class.dealii::DoFHandler"*, !dbg !11936
  %tria44 = getelementptr inbounds %"class.dealii::DoFHandler", %"class.dealii::DoFHandler"* %27, i32 0, i32 1, !dbg !11936
  %call45 = call %"class.dealii::Triangulation"* @_ZNK6dealii12SmartPointerIKNS_13TriangulationILi3ELi3EEEEptEv(%"class.dealii::SmartPointer"* %tria44), !dbg !11937
  %call46 = call i32 @_ZNK6dealii13TriangulationILi3ELi3EE10n_verticesEv(%"class.dealii::Triangulation"* %call45), !dbg !11938
  %conv47 = zext i32 %call46 to i64, !dbg !11937
  call void @_ZNSt6vectorIN6dealii12MGDoFHandlerILi3ELi3EE12MGVertexDoFsESaIS3_EE6resizeEm(%"class.std::vector.154"* %mg_vertex_dofs, i64 %conv47), !dbg !11939
  call void @llvm.dbg.declare(metadata %"class.std::vector.33"* %min_level, metadata !11940, metadata !DIExpression()), !dbg !11941
  %28 = bitcast %"class.dealii::MGDoFHandler"* %this1 to %"class.dealii::DoFHandler"*, !dbg !11942
  %tria48 = getelementptr inbounds %"class.dealii::DoFHandler", %"class.dealii::DoFHandler"* %28, i32 0, i32 1, !dbg !11942
  %call49 = call %"class.dealii::Triangulation"* @_ZNK6dealii12SmartPointerIKNS_13TriangulationILi3ELi3EEEEptEv(%"class.dealii::SmartPointer"* %tria48), !dbg !11943
  %call50 = call i32 @_ZNK6dealii13TriangulationILi3ELi3EE10n_verticesEv(%"class.dealii::Triangulation"* %call49), !dbg !11944
  %conv51 = zext i32 %call50 to i64, !dbg !11943
  %29 = bitcast %"class.dealii::MGDoFHandler"* %this1 to %"class.dealii::DoFHandler"*, !dbg !11945
  %tria53 = getelementptr inbounds %"class.dealii::DoFHandler", %"class.dealii::DoFHandler"* %29, i32 0, i32 1, !dbg !11945
  %call54 = call %"class.dealii::Triangulation"* @_ZNK6dealii12SmartPointerIKNS_13TriangulationILi3ELi3EEEEptEv(%"class.dealii::SmartPointer"* %tria53), !dbg !11946
  %call55 = call i32 @_ZNK6dealii13TriangulationILi3ELi3EE8n_levelsEv(%"class.dealii::Triangulation"* %call54), !dbg !11947
  store i32 %call55, i32* %ref.tmp52, align 4, !dbg !11946
  call void @_ZNSaIjEC2Ev(%"class.std::allocator.35"* %ref.tmp56) #3, !dbg !11941
  invoke void @_ZNSt6vectorIjSaIjEEC2EmRKjRKS0_(%"class.std::vector.33"* %min_level, i64 %conv51, i32* dereferenceable(4) %ref.tmp52, %"class.std::allocator.35"* dereferenceable(1) %ref.tmp56)
          to label %invoke.cont58 unwind label %lpad57, !dbg !11941

invoke.cont58:                                    ; preds = %invoke.cont40
  call void @_ZNSaIjED2Ev(%"class.std::allocator.35"* %ref.tmp56) #3, !dbg !11941
  call void @llvm.dbg.declare(metadata %"class.std::vector.33"* %max_level, metadata !11948, metadata !DIExpression()), !dbg !11949
  %30 = bitcast %"class.dealii::MGDoFHandler"* %this1 to %"class.dealii::DoFHandler"*, !dbg !11950
  %tria59 = getelementptr inbounds %"class.dealii::DoFHandler", %"class.dealii::DoFHandler"* %30, i32 0, i32 1, !dbg !11950
  %call62 = invoke %"class.dealii::Triangulation"* @_ZNK6dealii12SmartPointerIKNS_13TriangulationILi3ELi3EEEEptEv(%"class.dealii::SmartPointer"* %tria59)
          to label %invoke.cont61 unwind label %lpad60, !dbg !11951

invoke.cont61:                                    ; preds = %invoke.cont58
  %call64 = invoke i32 @_ZNK6dealii13TriangulationILi3ELi3EE10n_verticesEv(%"class.dealii::Triangulation"* %call62)
          to label %invoke.cont63 unwind label %lpad60, !dbg !11952

invoke.cont63:                                    ; preds = %invoke.cont61
  %conv65 = zext i32 %call64 to i64, !dbg !11951
  store i32 0, i32* %ref.tmp66, align 4, !dbg !11953
  call void @_ZNSaIjEC2Ev(%"class.std::allocator.35"* %ref.tmp67) #3, !dbg !11949
  invoke void @_ZNSt6vectorIjSaIjEEC2EmRKjRKS0_(%"class.std::vector.33"* %max_level, i64 %conv65, i32* dereferenceable(4) %ref.tmp66, %"class.std::allocator.35"* dereferenceable(1) %ref.tmp67)
          to label %invoke.cont69 unwind label %lpad68, !dbg !11949

invoke.cont69:                                    ; preds = %invoke.cont63
  call void @_ZNSaIjED2Ev(%"class.std::allocator.35"* %ref.tmp67) #3, !dbg !11949
  call void @llvm.dbg.declare(metadata %"class.dealii::TriaIterator.177"* %cell, metadata !11954, metadata !DIExpression()), !dbg !11958
  %31 = bitcast %"class.dealii::MGDoFHandler"* %this1 to %"class.dealii::DoFHandler"*, !dbg !11959
  %tria70 = getelementptr inbounds %"class.dealii::DoFHandler", %"class.dealii::DoFHandler"* %31, i32 0, i32 1, !dbg !11959
  %call73 = invoke %"class.dealii::Triangulation"* @_ZNK6dealii12SmartPointerIKNS_13TriangulationILi3ELi3EEEEptEv(%"class.dealii::SmartPointer"* %tria70)
          to label %invoke.cont72 unwind label %lpad71, !dbg !11960

invoke.cont72:                                    ; preds = %invoke.cont69
  invoke void @_ZNK6dealii13TriangulationILi3ELi3EE5beginEj(%"class.dealii::TriaIterator.177"* sret %cell, %"class.dealii::Triangulation"* %call73, i32 0)
          to label %invoke.cont74 unwind label %lpad71, !dbg !11961

invoke.cont74:                                    ; preds = %invoke.cont72
  call void @llvm.dbg.declare(metadata %"class.dealii::TriaIterator.177"* %endc, metadata !11962, metadata !DIExpression()), !dbg !11963
  %32 = bitcast %"class.dealii::MGDoFHandler"* %this1 to %"class.dealii::DoFHandler"*, !dbg !11964
  %tria76 = getelementptr inbounds %"class.dealii::DoFHandler", %"class.dealii::DoFHandler"* %32, i32 0, i32 1, !dbg !11964
  %call78 = invoke %"class.dealii::Triangulation"* @_ZNK6dealii12SmartPointerIKNS_13TriangulationILi3ELi3EEEEptEv(%"class.dealii::SmartPointer"* %tria76)
          to label %invoke.cont77 unwind label %lpad71, !dbg !11965

invoke.cont77:                                    ; preds = %invoke.cont74
  invoke void @_ZNK6dealii13TriangulationILi3ELi3EE3endEv(%"class.dealii::TriaRawIterator.178"* sret %ref.tmp75, %"class.dealii::Triangulation"* %call78)
          to label %invoke.cont79 unwind label %lpad71, !dbg !11966

invoke.cont79:                                    ; preds = %invoke.cont77
  invoke void @_ZN6dealii12TriaIteratorINS_12CellAccessorILi3ELi3EEEEC2ERKNS_15TriaRawIteratorIS2_EE(%"class.dealii::TriaIterator.177"* %endc, %"class.dealii::TriaRawIterator.178"* dereferenceable(16) %ref.tmp75)
          to label %invoke.cont80 unwind label %lpad71, !dbg !11965

invoke.cont80:                                    ; preds = %invoke.cont79
  br label %for.cond81, !dbg !11967

for.cond81:                                       ; preds = %invoke.cont124, %invoke.cont80
  %33 = bitcast %"class.dealii::TriaIterator.177"* %cell to %"class.dealii::TriaRawIterator.178"*, !dbg !11968
  %34 = bitcast %"class.dealii::TriaIterator.177"* %endc to %"class.dealii::TriaRawIterator.178"*, !dbg !11971
  %call83 = invoke zeroext i1 @_ZNK6dealii15TriaRawIteratorINS_12CellAccessorILi3ELi3EEEEneERKS3_(%"class.dealii::TriaRawIterator.178"* %33, %"class.dealii::TriaRawIterator.178"* dereferenceable(16) %34)
          to label %invoke.cont82 unwind label %lpad71, !dbg !11972

invoke.cont82:                                    ; preds = %for.cond81
  br i1 %call83, label %for.body84, label %for.end126, !dbg !11973

for.body84:                                       ; preds = %invoke.cont82
  call void @llvm.dbg.declare(metadata i32* %vertex, metadata !11974, metadata !DIExpression()), !dbg !11976
  store i32 0, i32* %vertex, align 4, !dbg !11976
  br label %for.cond85, !dbg !11977

for.cond85:                                       ; preds = %for.inc120, %for.body84
  %35 = load i32, i32* %vertex, align 4, !dbg !11978
  %cmp86 = icmp ult i32 %35, 8, !dbg !11980
  br i1 %cmp86, label %for.body87, label %for.end122, !dbg !11981

for.body87:                                       ; preds = %for.cond85
  call void @llvm.dbg.declare(metadata i32* %vertex_index, metadata !11982, metadata !DIExpression()), !dbg !11984
  %36 = bitcast %"class.dealii::TriaIterator.177"* %cell to %"class.dealii::TriaRawIterator.178"*, !dbg !11985
  %call89 = invoke %"class.dealii::CellAccessor"* @_ZN6dealii15TriaRawIteratorINS_12CellAccessorILi3ELi3EEEEptEv(%"class.dealii::TriaRawIterator.178"* %36)
          to label %invoke.cont88 unwind label %lpad71, !dbg !11985

invoke.cont88:                                    ; preds = %for.body87
  %37 = bitcast %"class.dealii::CellAccessor"* %call89 to %"class.dealii::TriaAccessor"*, !dbg !11986
  %38 = load i32, i32* %vertex, align 4, !dbg !11987
  %call91 = invoke i32 @_ZNK6dealii12TriaAccessorILi3ELi3ELi3EE12vertex_indexEj(%"class.dealii::TriaAccessor"* %37, i32 %38)
          to label %invoke.cont90 unwind label %lpad71, !dbg !11986

invoke.cont90:                                    ; preds = %invoke.cont88
  store i32 %call91, i32* %vertex_index, align 4, !dbg !11984
  %39 = load i32, i32* %vertex_index, align 4, !dbg !11988
  %conv92 = zext i32 %39 to i64, !dbg !11988
  %call93 = call dereferenceable(4) i32* @_ZNSt6vectorIjSaIjEEixEm(%"class.std::vector.33"* %min_level, i64 %conv92) #3, !dbg !11990
  %40 = load i32, i32* %call93, align 4, !dbg !11990
  %41 = bitcast %"class.dealii::TriaIterator.177"* %cell to %"class.dealii::TriaRawIterator.178"*, !dbg !11991
  %call95 = invoke %"class.dealii::CellAccessor"* @_ZN6dealii15TriaRawIteratorINS_12CellAccessorILi3ELi3EEEEptEv(%"class.dealii::TriaRawIterator.178"* %41)
          to label %invoke.cont94 unwind label %lpad71, !dbg !11991

invoke.cont94:                                    ; preds = %invoke.cont90
  %42 = bitcast %"class.dealii::CellAccessor"* %call95 to %"class.dealii::TriaAccessorBase"*, !dbg !11992
  %call97 = invoke i32 @_ZNK6dealii16TriaAccessorBaseILi3ELi3ELi3EE5levelEv(%"class.dealii::TriaAccessorBase"* %42)
          to label %invoke.cont96 unwind label %lpad71, !dbg !11992

invoke.cont96:                                    ; preds = %invoke.cont94
  %cmp98 = icmp ugt i32 %40, %call97, !dbg !11993
  br i1 %cmp98, label %if.then, label %if.end, !dbg !11994

if.then:                                          ; preds = %invoke.cont96
  %43 = bitcast %"class.dealii::TriaIterator.177"* %cell to %"class.dealii::TriaRawIterator.178"*, !dbg !11995
  %call100 = invoke %"class.dealii::CellAccessor"* @_ZN6dealii15TriaRawIteratorINS_12CellAccessorILi3ELi3EEEEptEv(%"class.dealii::TriaRawIterator.178"* %43)
          to label %invoke.cont99 unwind label %lpad71, !dbg !11995

invoke.cont99:                                    ; preds = %if.then
  %44 = bitcast %"class.dealii::CellAccessor"* %call100 to %"class.dealii::TriaAccessorBase"*, !dbg !11996
  %call102 = invoke i32 @_ZNK6dealii16TriaAccessorBaseILi3ELi3ELi3EE5levelEv(%"class.dealii::TriaAccessorBase"* %44)
          to label %invoke.cont101 unwind label %lpad71, !dbg !11996

invoke.cont101:                                   ; preds = %invoke.cont99
  %45 = load i32, i32* %vertex_index, align 4, !dbg !11997
  %conv103 = zext i32 %45 to i64, !dbg !11997
  %call104 = call dereferenceable(4) i32* @_ZNSt6vectorIjSaIjEEixEm(%"class.std::vector.33"* %min_level, i64 %conv103) #3, !dbg !11998
  store i32 %call102, i32* %call104, align 4, !dbg !11999
  br label %if.end, !dbg !11998

lpad24:                                           ; preds = %for.end
  %46 = landingpad { i8*, i32 }
          cleanup, !dbg !12000
  %47 = extractvalue { i8*, i32 } %46, 0, !dbg !12000
  store i8* %47, i8** %exn.slot, align 8, !dbg !12000
  %48 = extractvalue { i8*, i32 } %46, 1, !dbg !12000
  store i32 %48, i32* %ehselector.slot, align 4, !dbg !12000
  call void @_ZNSaIjED2Ev(%"class.std::allocator.35"* %ref.tmp23) #3, !dbg !11919
  br label %eh.resume, !dbg !11919

lpad39:                                           ; preds = %invoke.cont25
  %49 = landingpad { i8*, i32 }
          cleanup, !dbg !12000
  %50 = extractvalue { i8*, i32 } %49, 0, !dbg !12000
  store i8* %50, i8** %exn.slot, align 8, !dbg !12000
  %51 = extractvalue { i8*, i32 } %49, 1, !dbg !12000
  store i32 %51, i32* %ehselector.slot, align 4, !dbg !12000
  call void @_ZNSaIjED2Ev(%"class.std::allocator.35"* %ref.tmp38) #3, !dbg !11931
  br label %eh.resume, !dbg !11931

lpad57:                                           ; preds = %invoke.cont40
  %52 = landingpad { i8*, i32 }
          cleanup, !dbg !12000
  %53 = extractvalue { i8*, i32 } %52, 0, !dbg !12000
  store i8* %53, i8** %exn.slot, align 8, !dbg !12000
  %54 = extractvalue { i8*, i32 } %52, 1, !dbg !12000
  store i32 %54, i32* %ehselector.slot, align 4, !dbg !12000
  call void @_ZNSaIjED2Ev(%"class.std::allocator.35"* %ref.tmp56) #3, !dbg !11941
  br label %eh.resume, !dbg !11941

lpad60:                                           ; preds = %invoke.cont61, %invoke.cont58
  %55 = landingpad { i8*, i32 }
          cleanup, !dbg !12000
  %56 = extractvalue { i8*, i32 } %55, 0, !dbg !12000
  store i8* %56, i8** %exn.slot, align 8, !dbg !12000
  %57 = extractvalue { i8*, i32 } %55, 1, !dbg !12000
  store i32 %57, i32* %ehselector.slot, align 4, !dbg !12000
  br label %ehcleanup, !dbg !12000

lpad68:                                           ; preds = %invoke.cont63
  %58 = landingpad { i8*, i32 }
          cleanup, !dbg !12000
  %59 = extractvalue { i8*, i32 } %58, 0, !dbg !12000
  store i8* %59, i8** %exn.slot, align 8, !dbg !12000
  %60 = extractvalue { i8*, i32 } %58, 1, !dbg !12000
  store i32 %60, i32* %ehselector.slot, align 4, !dbg !12000
  call void @_ZNSaIjED2Ev(%"class.std::allocator.35"* %ref.tmp67) #3, !dbg !11949
  br label %ehcleanup, !dbg !11949

lpad71:                                           ; preds = %if.else, %invoke.cont149, %if.then141, %invoke.cont137, %for.body135, %invoke.cont130, %for.cond128, %for.inc123, %invoke.cont113, %if.then112, %invoke.cont107, %if.end, %invoke.cont99, %if.then, %invoke.cont94, %invoke.cont90, %invoke.cont88, %for.body87, %for.cond81, %invoke.cont79, %invoke.cont77, %invoke.cont74, %invoke.cont72, %invoke.cont69
  %61 = landingpad { i8*, i32 }
          cleanup, !dbg !12000
  %62 = extractvalue { i8*, i32 } %61, 0, !dbg !12000
  store i8* %62, i8** %exn.slot, align 8, !dbg !12000
  %63 = extractvalue { i8*, i32 } %61, 1, !dbg !12000
  store i32 %63, i32* %ehselector.slot, align 4, !dbg !12000
  call void @_ZNSt6vectorIjSaIjEED2Ev(%"class.std::vector.33"* %max_level) #3, !dbg !12000
  br label %ehcleanup, !dbg !12000

if.end:                                           ; preds = %invoke.cont101, %invoke.cont96
  %64 = load i32, i32* %vertex_index, align 4, !dbg !12001
  %conv105 = zext i32 %64 to i64, !dbg !12001
  %call106 = call dereferenceable(4) i32* @_ZNSt6vectorIjSaIjEEixEm(%"class.std::vector.33"* %max_level, i64 %conv105) #3, !dbg !12003
  %65 = load i32, i32* %call106, align 4, !dbg !12003
  %66 = bitcast %"class.dealii::TriaIterator.177"* %cell to %"class.dealii::TriaRawIterator.178"*, !dbg !12004
  %call108 = invoke %"class.dealii::CellAccessor"* @_ZN6dealii15TriaRawIteratorINS_12CellAccessorILi3ELi3EEEEptEv(%"class.dealii::TriaRawIterator.178"* %66)
          to label %invoke.cont107 unwind label %lpad71, !dbg !12004

invoke.cont107:                                   ; preds = %if.end
  %67 = bitcast %"class.dealii::CellAccessor"* %call108 to %"class.dealii::TriaAccessorBase"*, !dbg !12005
  %call110 = invoke i32 @_ZNK6dealii16TriaAccessorBaseILi3ELi3ELi3EE5levelEv(%"class.dealii::TriaAccessorBase"* %67)
          to label %invoke.cont109 unwind label %lpad71, !dbg !12005

invoke.cont109:                                   ; preds = %invoke.cont107
  %cmp111 = icmp ult i32 %65, %call110, !dbg !12006
  br i1 %cmp111, label %if.then112, label %if.end119, !dbg !12007

if.then112:                                       ; preds = %invoke.cont109
  %68 = bitcast %"class.dealii::TriaIterator.177"* %cell to %"class.dealii::TriaRawIterator.178"*, !dbg !12008
  %call114 = invoke %"class.dealii::CellAccessor"* @_ZN6dealii15TriaRawIteratorINS_12CellAccessorILi3ELi3EEEEptEv(%"class.dealii::TriaRawIterator.178"* %68)
          to label %invoke.cont113 unwind label %lpad71, !dbg !12008

invoke.cont113:                                   ; preds = %if.then112
  %69 = bitcast %"class.dealii::CellAccessor"* %call114 to %"class.dealii::TriaAccessorBase"*, !dbg !12009
  %call116 = invoke i32 @_ZNK6dealii16TriaAccessorBaseILi3ELi3ELi3EE5levelEv(%"class.dealii::TriaAccessorBase"* %69)
          to label %invoke.cont115 unwind label %lpad71, !dbg !12009

invoke.cont115:                                   ; preds = %invoke.cont113
  %70 = load i32, i32* %vertex_index, align 4, !dbg !12010
  %conv117 = zext i32 %70 to i64, !dbg !12010
  %call118 = call dereferenceable(4) i32* @_ZNSt6vectorIjSaIjEEixEm(%"class.std::vector.33"* %max_level, i64 %conv117) #3, !dbg !12011
  store i32 %call116, i32* %call118, align 4, !dbg !12012
  br label %if.end119, !dbg !12011

if.end119:                                        ; preds = %invoke.cont115, %invoke.cont109
  br label %for.inc120, !dbg !12013

for.inc120:                                       ; preds = %if.end119
  %71 = load i32, i32* %vertex, align 4, !dbg !12014
  %inc121 = add i32 %71, 1, !dbg !12014
  store i32 %inc121, i32* %vertex, align 4, !dbg !12014
  br label %for.cond85, !dbg !12015, !llvm.loop !12016

for.end122:                                       ; preds = %for.cond85
  br label %for.inc123, !dbg !12017

for.inc123:                                       ; preds = %for.end122
  %call125 = invoke dereferenceable(16) %"class.dealii::TriaIterator.177"* @_ZN6dealii12TriaIteratorINS_12CellAccessorILi3ELi3EEEEppEv(%"class.dealii::TriaIterator.177"* %cell)
          to label %invoke.cont124 unwind label %lpad71, !dbg !12018

invoke.cont124:                                   ; preds = %for.inc123
  br label %for.cond81, !dbg !12019, !llvm.loop !12020

for.end126:                                       ; preds = %invoke.cont82
  call void @llvm.dbg.declare(metadata i32* %vertex127, metadata !12022, metadata !DIExpression()), !dbg !12024
  store i32 0, i32* %vertex127, align 4, !dbg !12024
  br label %for.cond128, !dbg !12025

for.cond128:                                      ; preds = %for.inc158, %for.end126
  %72 = load i32, i32* %vertex127, align 4, !dbg !12026
  %73 = bitcast %"class.dealii::MGDoFHandler"* %this1 to %"class.dealii::DoFHandler"*, !dbg !12028
  %tria129 = getelementptr inbounds %"class.dealii::DoFHandler", %"class.dealii::DoFHandler"* %73, i32 0, i32 1, !dbg !12028
  %call131 = invoke %"class.dealii::Triangulation"* @_ZNK6dealii12SmartPointerIKNS_13TriangulationILi3ELi3EEEEptEv(%"class.dealii::SmartPointer"* %tria129)
          to label %invoke.cont130 unwind label %lpad71, !dbg !12029

invoke.cont130:                                   ; preds = %for.cond128
  %call133 = invoke i32 @_ZNK6dealii13TriangulationILi3ELi3EE10n_verticesEv(%"class.dealii::Triangulation"* %call131)
          to label %invoke.cont132 unwind label %lpad71, !dbg !12030

invoke.cont132:                                   ; preds = %invoke.cont130
  %cmp134 = icmp ult i32 %72, %call133, !dbg !12031
  br i1 %cmp134, label %for.body135, label %for.end160, !dbg !12032

for.body135:                                      ; preds = %invoke.cont132
  %74 = bitcast %"class.dealii::MGDoFHandler"* %this1 to %"class.dealii::DoFHandler"*, !dbg !12033
  %tria136 = getelementptr inbounds %"class.dealii::DoFHandler", %"class.dealii::DoFHandler"* %74, i32 0, i32 1, !dbg !12033
  %call138 = invoke %"class.dealii::Triangulation"* @_ZNK6dealii12SmartPointerIKNS_13TriangulationILi3ELi3EEEEptEv(%"class.dealii::SmartPointer"* %tria136)
          to label %invoke.cont137 unwind label %lpad71, !dbg !12035

invoke.cont137:                                   ; preds = %for.body135
  %75 = load i32, i32* %vertex127, align 4, !dbg !12036
  %call140 = invoke zeroext i1 @_ZNK6dealii13TriangulationILi3ELi3EE11vertex_usedEj(%"class.dealii::Triangulation"* %call138, i32 %75)
          to label %invoke.cont139 unwind label %lpad71, !dbg !12037

invoke.cont139:                                   ; preds = %invoke.cont137
  br i1 %call140, label %if.then141, label %if.else, !dbg !12038

if.then141:                                       ; preds = %invoke.cont139
  %mg_vertex_dofs142 = getelementptr inbounds %"class.dealii::MGDoFHandler", %"class.dealii::MGDoFHandler"* %this1, i32 0, i32 3, !dbg !12039
  %76 = load i32, i32* %vertex127, align 4, !dbg !12041
  %conv143 = zext i32 %76 to i64, !dbg !12041
  %call144 = call dereferenceable(16) %"class.dealii::MGDoFHandler<3, 3>::MGVertexDoFs"* @_ZNSt6vectorIN6dealii12MGDoFHandlerILi3ELi3EE12MGVertexDoFsESaIS3_EEixEm(%"class.std::vector.154"* %mg_vertex_dofs142, i64 %conv143) #3, !dbg !12039
  %77 = load i32, i32* %vertex127, align 4, !dbg !12042
  %conv145 = zext i32 %77 to i64, !dbg !12042
  %call146 = call dereferenceable(4) i32* @_ZNSt6vectorIjSaIjEEixEm(%"class.std::vector.33"* %min_level, i64 %conv145) #3, !dbg !12043
  %78 = load i32, i32* %call146, align 4, !dbg !12043
  %79 = load i32, i32* %vertex127, align 4, !dbg !12044
  %conv147 = zext i32 %79 to i64, !dbg !12044
  %call148 = call dereferenceable(4) i32* @_ZNSt6vectorIjSaIjEEixEm(%"class.std::vector.33"* %max_level, i64 %conv147) #3, !dbg !12045
  %80 = load i32, i32* %call148, align 4, !dbg !12045
  %81 = bitcast %"class.dealii::MGDoFHandler"* %this1 to %"class.dealii::DoFHandler"*, !dbg !12046
  %call150 = invoke dereferenceable(728) %"class.dealii::FiniteElement"* @_ZNK6dealii10DoFHandlerILi3ELi3EE6get_feEv(%"class.dealii::DoFHandler"* %81)
          to label %invoke.cont149 unwind label %lpad71, !dbg !12046

invoke.cont149:                                   ; preds = %if.then141
  %82 = bitcast %"class.dealii::FiniteElement"* %call150 to i8*, !dbg !12047
  %add.ptr151 = getelementptr inbounds i8, i8* %82, i64 72, !dbg !12047
  %83 = bitcast i8* %add.ptr151 to %"class.dealii::FiniteElementData"*, !dbg !12047
  %dofs_per_vertex = getelementptr inbounds %"class.dealii::FiniteElementData", %"class.dealii::FiniteElementData"* %83, i32 0, i32 0, !dbg !12048
  %84 = load i32, i32* %dofs_per_vertex, align 8, !dbg !12048
  invoke void @_ZN6dealii12MGDoFHandlerILi3ELi3EE12MGVertexDoFs4initEjjj(%"class.dealii::MGDoFHandler<3, 3>::MGVertexDoFs"* %call144, i32 %78, i32 %80, i32 %84)
          to label %invoke.cont152 unwind label %lpad71, !dbg !12049

invoke.cont152:                                   ; preds = %invoke.cont149
  br label %if.end157, !dbg !12050

if.else:                                          ; preds = %invoke.cont139
  %mg_vertex_dofs153 = getelementptr inbounds %"class.dealii::MGDoFHandler", %"class.dealii::MGDoFHandler"* %this1, i32 0, i32 3, !dbg !12051
  %85 = load i32, i32* %vertex127, align 4, !dbg !12053
  %conv154 = zext i32 %85 to i64, !dbg !12053
  %call155 = call dereferenceable(16) %"class.dealii::MGDoFHandler<3, 3>::MGVertexDoFs"* @_ZNSt6vectorIN6dealii12MGDoFHandlerILi3ELi3EE12MGVertexDoFsESaIS3_EEixEm(%"class.std::vector.154"* %mg_vertex_dofs153, i64 %conv154) #3, !dbg !12051
  invoke void @_ZN6dealii12MGDoFHandlerILi3ELi3EE12MGVertexDoFs4initEjjj(%"class.dealii::MGDoFHandler<3, 3>::MGVertexDoFs"* %call155, i32 1, i32 0, i32 0)
          to label %invoke.cont156 unwind label %lpad71, !dbg !12054

invoke.cont156:                                   ; preds = %if.else
  br label %if.end157

if.end157:                                        ; preds = %invoke.cont156, %invoke.cont152
  br label %for.inc158, !dbg !12055

for.inc158:                                       ; preds = %if.end157
  %86 = load i32, i32* %vertex127, align 4, !dbg !12056
  %inc159 = add i32 %86, 1, !dbg !12056
  store i32 %inc159, i32* %vertex127, align 4, !dbg !12056
  br label %for.cond128, !dbg !12057, !llvm.loop !12058

for.end160:                                       ; preds = %invoke.cont132
  call void @_ZNSt6vectorIjSaIjEED2Ev(%"class.std::vector.33"* %max_level) #3, !dbg !12000
  call void @_ZNSt6vectorIjSaIjEED2Ev(%"class.std::vector.33"* %min_level) #3, !dbg !12000
  ret void, !dbg !12000

ehcleanup:                                        ; preds = %lpad71, %lpad68, %lpad60
  call void @_ZNSt6vectorIjSaIjEED2Ev(%"class.std::vector.33"* %min_level) #3, !dbg !12000
  br label %eh.resume, !dbg !12000

eh.resume:                                        ; preds = %ehcleanup, %lpad57, %lpad39, %lpad24, %lpad
  %exn = load i8*, i8** %exn.slot, align 8, !dbg !11896
  %sel = load i32, i32* %ehselector.slot, align 4, !dbg !11896
  %lpad.val = insertvalue { i8*, i32 } undef, i8* %exn, 0, !dbg !11896
  %lpad.val161 = insertvalue { i8*, i32 } %lpad.val, i32 %sel, 1, !dbg !11896
  resume { i8*, i32 } %lpad.val161, !dbg !11896
}

; Function Attrs: noinline uwtable
define linkonce_odr dso_local void @_ZNSt6vectorIjSaIjEE6resizeEmRKj(%"class.std::vector.33"* %this, i64 %__new_size, i32* dereferenceable(4) %__x) #0 comdat align 2 !dbg !12060 {
entry:
  %this.addr = alloca %"class.std::vector.33"*, align 8
  %__new_size.addr = alloca i64, align 8
  %__x.addr = alloca i32*, align 8
  %agg.tmp = alloca %"class.__gnu_cxx::__normal_iterator.176", align 8
  store %"class.std::vector.33"* %this, %"class.std::vector.33"** %this.addr, align 8
  call void @llvm.dbg.declare(metadata %"class.std::vector.33"** %this.addr, metadata !12061, metadata !DIExpression()), !dbg !12062
  store i64 %__new_size, i64* %__new_size.addr, align 8
  call void @llvm.dbg.declare(metadata i64* %__new_size.addr, metadata !12063, metadata !DIExpression()), !dbg !12064
  store i32* %__x, i32** %__x.addr, align 8
  call void @llvm.dbg.declare(metadata i32** %__x.addr, metadata !12065, metadata !DIExpression()), !dbg !12066
  %this1 = load %"class.std::vector.33"*, %"class.std::vector.33"** %this.addr, align 8
  %0 = load i64, i64* %__new_size.addr, align 8, !dbg !12067
  %call = call i64 @_ZNKSt6vectorIjSaIjEE4sizeEv(%"class.std::vector.33"* %this1) #3, !dbg !12069
  %cmp = icmp ugt i64 %0, %call, !dbg !12070
  br i1 %cmp, label %if.then, label %if.else, !dbg !12071

if.then:                                          ; preds = %entry
  %call2 = call i32* @_ZNSt6vectorIjSaIjEE3endEv(%"class.std::vector.33"* %this1) #3, !dbg !12072
  %coerce.dive = getelementptr inbounds %"class.__gnu_cxx::__normal_iterator.176", %"class.__gnu_cxx::__normal_iterator.176"* %agg.tmp, i32 0, i32 0, !dbg !12072
  store i32* %call2, i32** %coerce.dive, align 8, !dbg !12072
  %1 = load i64, i64* %__new_size.addr, align 8, !dbg !12073
  %call3 = call i64 @_ZNKSt6vectorIjSaIjEE4sizeEv(%"class.std::vector.33"* %this1) #3, !dbg !12074
  %sub = sub i64 %1, %call3, !dbg !12075
  %2 = load i32*, i32** %__x.addr, align 8, !dbg !12076
  %coerce.dive4 = getelementptr inbounds %"class.__gnu_cxx::__normal_iterator.176", %"class.__gnu_cxx::__normal_iterator.176"* %agg.tmp, i32 0, i32 0, !dbg !12077
  %3 = load i32*, i32** %coerce.dive4, align 8, !dbg !12077
  call void @_ZNSt6vectorIjSaIjEE14_M_fill_insertEN9__gnu_cxx17__normal_iteratorIPjS1_EEmRKj(%"class.std::vector.33"* %this1, i32* %3, i64 %sub, i32* dereferenceable(4) %2), !dbg !12077
  br label %if.end8, !dbg !12077

if.else:                                          ; preds = %entry
  %4 = load i64, i64* %__new_size.addr, align 8, !dbg !12078
  %call5 = call i64 @_ZNKSt6vectorIjSaIjEE4sizeEv(%"class.std::vector.33"* %this1) #3, !dbg !12080
  %cmp6 = icmp ult i64 %4, %call5, !dbg !12081
  br i1 %cmp6, label %if.then7, label %if.end, !dbg !12082

if.then7:                                         ; preds = %if.else
  %5 = bitcast %"class.std::vector.33"* %this1 to %"struct.std::_Vector_base.34"*, !dbg !12083
  %_M_impl = getelementptr inbounds %"struct.std::_Vector_base.34", %"struct.std::_Vector_base.34"* %5, i32 0, i32 0, !dbg !12083
  %6 = bitcast %"struct.std::_Vector_base<unsigned int, std::allocator<unsigned int> >::_Vector_impl"* %_M_impl to %"struct.std::_Vector_base<unsigned int, std::allocator<unsigned int> >::_Vector_impl_data"*, !dbg !12084
  %_M_start = getelementptr inbounds %"struct.std::_Vector_base<unsigned int, std::allocator<unsigned int> >::_Vector_impl_data", %"struct.std::_Vector_base<unsigned int, std::allocator<unsigned int> >::_Vector_impl_data"* %6, i32 0, i32 0, !dbg !12085
  %7 = load i32*, i32** %_M_start, align 8, !dbg !12085
  %8 = load i64, i64* %__new_size.addr, align 8, !dbg !12086
  %add.ptr = getelementptr inbounds i32, i32* %7, i64 %8, !dbg !12087
  call void @_ZNSt6vectorIjSaIjEE15_M_erase_at_endEPj(%"class.std::vector.33"* %this1, i32* %add.ptr) #3, !dbg !12088
  br label %if.end, !dbg !12088

if.end:                                           ; preds = %if.then7, %if.else
  br label %if.end8

if.end8:                                          ; preds = %if.end, %if.then
  ret void, !dbg !12089
}

; Function Attrs: noinline nounwind uwtable
define linkonce_odr dso_local %"class.dealii::Triangulation"* @_ZNK6dealii12SmartPointerIKNS_13TriangulationILi3ELi3EEEEptEv(%"class.dealii::SmartPointer"* %this) #4 comdat align 2 !dbg !12090 {
entry:
  %this.addr = alloca %"class.dealii::SmartPointer"*, align 8
  store %"class.dealii::SmartPointer"* %this, %"class.dealii::SmartPointer"** %this.addr, align 8
  call void @llvm.dbg.declare(metadata %"class.dealii::SmartPointer"** %this.addr, metadata !12137, metadata !DIExpression()), !dbg !12139
  %this1 = load %"class.dealii::SmartPointer"*, %"class.dealii::SmartPointer"** %this.addr, align 8
  %t = getelementptr inbounds %"class.dealii::SmartPointer", %"class.dealii::SmartPointer"* %this1, i32 0, i32 0, !dbg !12140
  %0 = load %"class.dealii::Triangulation"*, %"class.dealii::Triangulation"** %t, align 8, !dbg !12140
  ret %"class.dealii::Triangulation"* %0, !dbg !12141
}

declare dso_local i32 @_ZNK6dealii13TriangulationILi3ELi3EE8n_levelsEv(%"class.dealii::Triangulation"*) #1

; Function Attrs: noinline nounwind uwtable
define linkonce_odr dso_local void @_ZNSt6vectorIbSaIbEEC2Ev(%"class.std::vector.24"* %this) unnamed_addr #4 comdat align 2 !dbg !12142 {
entry:
  %this.addr = alloca %"class.std::vector.24"*, align 8
  store %"class.std::vector.24"* %this, %"class.std::vector.24"** %this.addr, align 8
  call void @llvm.dbg.declare(metadata %"class.std::vector.24"** %this.addr, metadata !12143, metadata !DIExpression()), !dbg !12145
  %this1 = load %"class.std::vector.24"*, %"class.std::vector.24"** %this.addr, align 8
  %0 = bitcast %"class.std::vector.24"* %this1 to %"struct.std::_Bvector_base"*, !dbg !12146
  call void @_ZNSt13_Bvector_baseISaIbEEC2Ev(%"struct.std::_Bvector_base"* %0) #3, !dbg !12147
  ret void, !dbg !12146
}

declare dso_local void @_ZNK6dealii13TriangulationILi3ELi3EE15save_user_flagsERSt6vectorIbSaIbEE(%"class.dealii::Triangulation"*, %"class.std::vector.24"* dereferenceable(40)) #1

; Function Attrs: noinline nounwind uwtable
define linkonce_odr dso_local dereferenceable(8552) %"class.dealii::Triangulation"* @_ZNK6dealii12SmartPointerIKNS_13TriangulationILi3ELi3EEEEdeEv(%"class.dealii::SmartPointer"* %this) #4 comdat align 2 !dbg !12148 {
entry:
  %this.addr = alloca %"class.dealii::SmartPointer"*, align 8
  store %"class.dealii::SmartPointer"* %this, %"class.dealii::SmartPointer"** %this.addr, align 8
  call void @llvm.dbg.declare(metadata %"class.dealii::SmartPointer"** %this.addr, metadata !12149, metadata !DIExpression()), !dbg !12150
  %this1 = load %"class.dealii::SmartPointer"*, %"class.dealii::SmartPointer"** %this.addr, align 8
  %t = getelementptr inbounds %"class.dealii::SmartPointer", %"class.dealii::SmartPointer"* %this1, i32 0, i32 0, !dbg !12151
  %0 = load %"class.dealii::Triangulation"*, %"class.dealii::Triangulation"** %t, align 8, !dbg !12151
  ret %"class.dealii::Triangulation"* %0, !dbg !12152
}

declare dso_local void @_ZN6dealii13TriangulationILi3ELi3EE16clear_user_flagsEv(%"class.dealii::Triangulation"*) #1

; Function Attrs: noinline uwtable
define weak_odr dso_local void @_ZNK6dealii12MGDoFHandlerILi3ELi3EE5beginEj(%"class.dealii::TriaIterator"* noalias sret %agg.result, %"class.dealii::MGDoFHandler"* %this, i32 %level) #0 comdat align 2 !dbg !12153 {
entry:
  %result.ptr = alloca i8*, align 8
  %this.addr = alloca %"class.dealii::MGDoFHandler"*, align 8
  %level.addr = alloca i32, align 4
  %0 = bitcast %"class.dealii::TriaIterator"* %agg.result to i8*
  store i8* %0, i8** %result.ptr, align 8
  store %"class.dealii::MGDoFHandler"* %this, %"class.dealii::MGDoFHandler"** %this.addr, align 8
  call void @llvm.dbg.declare(metadata %"class.dealii::MGDoFHandler"** %this.addr, metadata !12154, metadata !DIExpression()), !dbg !12156
  store i32 %level, i32* %level.addr, align 4
  call void @llvm.dbg.declare(metadata i32* %level.addr, metadata !12157, metadata !DIExpression()), !dbg !12158
  %this1 = load %"class.dealii::MGDoFHandler"*, %"class.dealii::MGDoFHandler"** %this.addr, align 8
  %1 = load i32, i32* %level.addr, align 4, !dbg !12159
  call void @_ZNK6dealii12MGDoFHandlerILi3ELi3EE9begin_hexEj(%"class.dealii::TriaIterator"* sret %agg.result, %"class.dealii::MGDoFHandler"* %this1, i32 %1), !dbg !12160
  ret void, !dbg !12161
}

; Function Attrs: noinline uwtable
define weak_odr dso_local void @_ZNK6dealii12MGDoFHandlerILi3ELi3EE3endEj(%"class.dealii::TriaIterator"* noalias sret %agg.result, %"class.dealii::MGDoFHandler"* %this, i32 %level) #0 comdat align 2 !dbg !12162 {
entry:
  %result.ptr = alloca i8*, align 8
  %this.addr = alloca %"class.dealii::MGDoFHandler"*, align 8
  %level.addr = alloca i32, align 4
  %ref.tmp = alloca %"class.dealii::TriaRawIterator", align 8
  %0 = bitcast %"class.dealii::TriaIterator"* %agg.result to i8*
  store i8* %0, i8** %result.ptr, align 8
  store %"class.dealii::MGDoFHandler"* %this, %"class.dealii::MGDoFHandler"** %this.addr, align 8
  call void @llvm.dbg.declare(metadata %"class.dealii::MGDoFHandler"** %this.addr, metadata !12163, metadata !DIExpression()), !dbg !12164
  store i32 %level, i32* %level.addr, align 4
  call void @llvm.dbg.declare(metadata i32* %level.addr, metadata !12165, metadata !DIExpression()), !dbg !12166
  %this1 = load %"class.dealii::MGDoFHandler"*, %"class.dealii::MGDoFHandler"** %this.addr, align 8
  %1 = load i32, i32* %level.addr, align 4, !dbg !12167
  %2 = bitcast %"class.dealii::MGDoFHandler"* %this1 to %"class.dealii::DoFHandler"*, !dbg !12168
  %tria = getelementptr inbounds %"class.dealii::DoFHandler", %"class.dealii::DoFHandler"* %2, i32 0, i32 1, !dbg !12168
  %call = call %"class.dealii::Triangulation"* @_ZNK6dealii12SmartPointerIKNS_13TriangulationILi3ELi3EEEEptEv(%"class.dealii::SmartPointer"* %tria), !dbg !12169
  %call2 = call i32 @_ZNK6dealii13TriangulationILi3ELi3EE8n_levelsEv(%"class.dealii::Triangulation"* %call), !dbg !12170
  %sub = sub i32 %call2, 1, !dbg !12171
  %cmp = icmp eq i32 %1, %sub, !dbg !12172
  br i1 %cmp, label %cond.true, label %cond.false, !dbg !12167

cond.true:                                        ; preds = %entry
  call void @_ZNK6dealii12MGDoFHandlerILi3ELi3EE3endEv(%"class.dealii::TriaRawIterator"* sret %ref.tmp, %"class.dealii::MGDoFHandler"* %this1), !dbg !12173
  call void @_ZN6dealii12TriaIteratorINS_17MGDoFCellAccessorILi3ELi3EEEEC2ERKNS_15TriaRawIteratorIS2_EE(%"class.dealii::TriaIterator"* %agg.result, %"class.dealii::TriaRawIterator"* dereferenceable(32) %ref.tmp), !dbg !12174
  br label %cond.end, !dbg !12167

cond.false:                                       ; preds = %entry
  %3 = load i32, i32* %level.addr, align 4, !dbg !12175
  %add = add i32 %3, 1, !dbg !12176
  call void @_ZNK6dealii12MGDoFHandlerILi3ELi3EE5beginEj(%"class.dealii::TriaIterator"* sret %agg.result, %"class.dealii::MGDoFHandler"* %this1, i32 %add), !dbg !12177
  br label %cond.end, !dbg !12167

cond.end:                                         ; preds = %cond.false, %cond.true
  ret void, !dbg !12178
}

; Function Attrs: noinline uwtable
define linkonce_odr dso_local zeroext i1 @_ZNK6dealii15TriaRawIteratorINS_17MGDoFCellAccessorILi3ELi3EEEEneERKS3_(%"class.dealii::TriaRawIterator"* %this, %"class.dealii::TriaRawIterator"* dereferenceable(32) %i) #0 comdat align 2 !dbg !12179 {
entry:
  %this.addr = alloca %"class.dealii::TriaRawIterator"*, align 8
  %i.addr = alloca %"class.dealii::TriaRawIterator"*, align 8
  store %"class.dealii::TriaRawIterator"* %this, %"class.dealii::TriaRawIterator"** %this.addr, align 8
  call void @llvm.dbg.declare(metadata %"class.dealii::TriaRawIterator"** %this.addr, metadata !12181, metadata !DIExpression()), !dbg !12183
  store %"class.dealii::TriaRawIterator"* %i, %"class.dealii::TriaRawIterator"** %i.addr, align 8
  call void @llvm.dbg.declare(metadata %"class.dealii::TriaRawIterator"** %i.addr, metadata !12184, metadata !DIExpression()), !dbg !12185
  %this1 = load %"class.dealii::TriaRawIterator"*, %"class.dealii::TriaRawIterator"** %this.addr, align 8
  %accessor = getelementptr inbounds %"class.dealii::TriaRawIterator", %"class.dealii::TriaRawIterator"* %this1, i32 0, i32 0, !dbg !12186
  %0 = bitcast %"class.dealii::MGDoFCellAccessor"* %accessor to %"class.dealii::DoFAccessor"*, !dbg !12186
  %1 = load %"class.dealii::TriaRawIterator"*, %"class.dealii::TriaRawIterator"** %i.addr, align 8, !dbg !12187
  %accessor2 = getelementptr inbounds %"class.dealii::TriaRawIterator", %"class.dealii::TriaRawIterator"* %1, i32 0, i32 0, !dbg !12188
  %2 = bitcast %"class.dealii::MGDoFCellAccessor"* %accessor2 to %"class.dealii::DoFAccessor"*, !dbg !12187
  %call = call zeroext i1 @_ZNK6dealii11DoFAccessorILi3ENS_10DoFHandlerILi3ELi3EEEEneERKS3_(%"class.dealii::DoFAccessor"* %0, %"class.dealii::DoFAccessor"* dereferenceable(24) %2), !dbg !12189
  ret i1 %call, !dbg !12190
}

; Function Attrs: noinline uwtable
define dso_local i32 @_ZN6dealii12MGDoFHandlerILi3ELi3EE23distribute_dofs_on_cellERNS_12TriaIteratorINS_17MGDoFCellAccessorILi3ELi3EEEEEj(%"class.dealii::MGDoFHandler"* %this, %"class.dealii::TriaIterator"* dereferenceable(32) %cell, i32 %next_free_dof) #0 align 2 !dbg !12191 {
entry:
  %this.addr = alloca %"class.dealii::MGDoFHandler"*, align 8
  %cell.addr = alloca %"class.dealii::TriaIterator"*, align 8
  %next_free_dof.addr = alloca i32, align 4
  %vertex = alloca i32, align 4
  %d = alloca i32, align 4
  %l = alloca i32, align 4
  %line = alloca %"class.dealii::TriaIterator.174", align 8
  %d39 = alloca i32, align 4
  %q = alloca i32, align 4
  %quad = alloca %"class.dealii::TriaIterator.166", align 8
  %d74 = alloca i32, align 4
  %d99 = alloca i32, align 4
  store %"class.dealii::MGDoFHandler"* %this, %"class.dealii::MGDoFHandler"** %this.addr, align 8
  call void @llvm.dbg.declare(metadata %"class.dealii::MGDoFHandler"** %this.addr, metadata !12192, metadata !DIExpression()), !dbg !12193
  store %"class.dealii::TriaIterator"* %cell, %"class.dealii::TriaIterator"** %cell.addr, align 8
  call void @llvm.dbg.declare(metadata %"class.dealii::TriaIterator"** %cell.addr, metadata !12194, metadata !DIExpression()), !dbg !12195
  store i32 %next_free_dof, i32* %next_free_dof.addr, align 4
  call void @llvm.dbg.declare(metadata i32* %next_free_dof.addr, metadata !12196, metadata !DIExpression()), !dbg !12197
  %this1 = load %"class.dealii::MGDoFHandler"*, %"class.dealii::MGDoFHandler"** %this.addr, align 8
  %0 = bitcast %"class.dealii::MGDoFHandler"* %this1 to %"class.dealii::DoFHandler"*, !dbg !12198
  %selected_fe = getelementptr inbounds %"class.dealii::DoFHandler", %"class.dealii::DoFHandler"* %0, i32 0, i32 2, !dbg !12198
  %call = call %"class.dealii::FiniteElement"* @_ZNK6dealii12SmartPointerIKNS_13FiniteElementILi3ELi3EEEEptEv(%"class.dealii::SmartPointer.109"* %selected_fe), !dbg !12200
  %1 = bitcast %"class.dealii::FiniteElement"* %call to i8*, !dbg !12201
  %add.ptr = getelementptr inbounds i8, i8* %1, i64 72, !dbg !12201
  %2 = bitcast i8* %add.ptr to %"class.dealii::FiniteElementData"*, !dbg !12201
  %dofs_per_vertex = getelementptr inbounds %"class.dealii::FiniteElementData", %"class.dealii::FiniteElementData"* %2, i32 0, i32 0, !dbg !12201
  %3 = load i32, i32* %dofs_per_vertex, align 8, !dbg !12201
  %cmp = icmp ugt i32 %3, 0, !dbg !12202
  br i1 %cmp, label %if.then, label %if.end23, !dbg !12203

if.then:                                          ; preds = %entry
  call void @llvm.dbg.declare(metadata i32* %vertex, metadata !12204, metadata !DIExpression()), !dbg !12206
  store i32 0, i32* %vertex, align 4, !dbg !12206
  br label %for.cond, !dbg !12207

for.cond:                                         ; preds = %for.inc20, %if.then
  %4 = load i32, i32* %vertex, align 4, !dbg !12208
  %cmp2 = icmp ult i32 %4, 8, !dbg !12210
  br i1 %cmp2, label %for.body, label %for.end22, !dbg !12211

for.body:                                         ; preds = %for.cond
  %5 = load %"class.dealii::TriaIterator"*, %"class.dealii::TriaIterator"** %cell.addr, align 8, !dbg !12212
  %6 = bitcast %"class.dealii::TriaIterator"* %5 to %"class.dealii::TriaRawIterator"*, !dbg !12212
  %call3 = call %"class.dealii::MGDoFCellAccessor"* @_ZN6dealii15TriaRawIteratorINS_17MGDoFCellAccessorILi3ELi3EEEEptEv(%"class.dealii::TriaRawIterator"* %6), !dbg !12212
  %7 = bitcast %"class.dealii::MGDoFCellAccessor"* %call3 to %"class.dealii::MGDoFAccessor"*, !dbg !12214
  %8 = load %"class.dealii::TriaIterator"*, %"class.dealii::TriaIterator"** %cell.addr, align 8, !dbg !12215
  %9 = bitcast %"class.dealii::TriaIterator"* %8 to %"class.dealii::TriaRawIterator"*, !dbg !12215
  %call4 = call %"class.dealii::MGDoFCellAccessor"* @_ZN6dealii15TriaRawIteratorINS_17MGDoFCellAccessorILi3ELi3EEEEptEv(%"class.dealii::TriaRawIterator"* %9), !dbg !12215
  %10 = bitcast %"class.dealii::MGDoFCellAccessor"* %call4 to %"class.dealii::TriaAccessorBase"*, !dbg !12216
  %call5 = call i32 @_ZNK6dealii16TriaAccessorBaseILi3ELi3ELi3EE5levelEv(%"class.dealii::TriaAccessorBase"* %10), !dbg !12216
  %11 = load i32, i32* %vertex, align 4, !dbg !12217
  %call6 = call i32 @_ZNK6dealii13MGDoFAccessorILi3ELi3ELi3EE19mg_vertex_dof_indexEijj(%"class.dealii::MGDoFAccessor"* %7, i32 %call5, i32 %11, i32 0), !dbg !12214
  %cmp7 = icmp eq i32 %call6, -1, !dbg !12218
  br i1 %cmp7, label %if.then8, label %if.end, !dbg !12219

if.then8:                                         ; preds = %for.body
  call void @llvm.dbg.declare(metadata i32* %d, metadata !12220, metadata !DIExpression()), !dbg !12222
  store i32 0, i32* %d, align 4, !dbg !12222
  br label %for.cond9, !dbg !12223

for.cond9:                                        ; preds = %for.inc, %if.then8
  %12 = load i32, i32* %d, align 4, !dbg !12224
  %13 = bitcast %"class.dealii::MGDoFHandler"* %this1 to %"class.dealii::DoFHandler"*, !dbg !12226
  %selected_fe10 = getelementptr inbounds %"class.dealii::DoFHandler", %"class.dealii::DoFHandler"* %13, i32 0, i32 2, !dbg !12226
  %call11 = call %"class.dealii::FiniteElement"* @_ZNK6dealii12SmartPointerIKNS_13FiniteElementILi3ELi3EEEEptEv(%"class.dealii::SmartPointer.109"* %selected_fe10), !dbg !12227
  %14 = bitcast %"class.dealii::FiniteElement"* %call11 to i8*, !dbg !12228
  %add.ptr12 = getelementptr inbounds i8, i8* %14, i64 72, !dbg !12228
  %15 = bitcast i8* %add.ptr12 to %"class.dealii::FiniteElementData"*, !dbg !12228
  %dofs_per_vertex13 = getelementptr inbounds %"class.dealii::FiniteElementData", %"class.dealii::FiniteElementData"* %15, i32 0, i32 0, !dbg !12228
  %16 = load i32, i32* %dofs_per_vertex13, align 8, !dbg !12228
  %cmp14 = icmp ult i32 %12, %16, !dbg !12229
  br i1 %cmp14, label %for.body15, label %for.end, !dbg !12230

for.body15:                                       ; preds = %for.cond9
  %17 = load %"class.dealii::TriaIterator"*, %"class.dealii::TriaIterator"** %cell.addr, align 8, !dbg !12231
  %18 = bitcast %"class.dealii::TriaIterator"* %17 to %"class.dealii::TriaRawIterator"*, !dbg !12231
  %call16 = call %"class.dealii::MGDoFCellAccessor"* @_ZN6dealii15TriaRawIteratorINS_17MGDoFCellAccessorILi3ELi3EEEEptEv(%"class.dealii::TriaRawIterator"* %18), !dbg !12231
  %19 = bitcast %"class.dealii::MGDoFCellAccessor"* %call16 to %"class.dealii::MGDoFAccessor"*, !dbg !12232
  %20 = load %"class.dealii::TriaIterator"*, %"class.dealii::TriaIterator"** %cell.addr, align 8, !dbg !12233
  %21 = bitcast %"class.dealii::TriaIterator"* %20 to %"class.dealii::TriaRawIterator"*, !dbg !12233
  %call17 = call %"class.dealii::MGDoFCellAccessor"* @_ZN6dealii15TriaRawIteratorINS_17MGDoFCellAccessorILi3ELi3EEEEptEv(%"class.dealii::TriaRawIterator"* %21), !dbg !12233
  %22 = bitcast %"class.dealii::MGDoFCellAccessor"* %call17 to %"class.dealii::TriaAccessorBase"*, !dbg !12234
  %call18 = call i32 @_ZNK6dealii16TriaAccessorBaseILi3ELi3ELi3EE5levelEv(%"class.dealii::TriaAccessorBase"* %22), !dbg !12234
  %23 = load i32, i32* %vertex, align 4, !dbg !12235
  %24 = load i32, i32* %d, align 4, !dbg !12236
  %25 = load i32, i32* %next_free_dof.addr, align 4, !dbg !12237
  %inc = add i32 %25, 1, !dbg !12237
  store i32 %inc, i32* %next_free_dof.addr, align 4, !dbg !12237
  call void @_ZNK6dealii13MGDoFAccessorILi3ELi3ELi3EE23set_mg_vertex_dof_indexEijjj(%"class.dealii::MGDoFAccessor"* %19, i32 %call18, i32 %23, i32 %24, i32 %25), !dbg !12232
  br label %for.inc, !dbg !12231

for.inc:                                          ; preds = %for.body15
  %26 = load i32, i32* %d, align 4, !dbg !12238
  %inc19 = add i32 %26, 1, !dbg !12238
  store i32 %inc19, i32* %d, align 4, !dbg !12238
  br label %for.cond9, !dbg !12239, !llvm.loop !12240

for.end:                                          ; preds = %for.cond9
  br label %if.end, !dbg !12241

if.end:                                           ; preds = %for.end, %for.body
  br label %for.inc20, !dbg !12242

for.inc20:                                        ; preds = %if.end
  %27 = load i32, i32* %vertex, align 4, !dbg !12243
  %inc21 = add i32 %27, 1, !dbg !12243
  store i32 %inc21, i32* %vertex, align 4, !dbg !12243
  br label %for.cond, !dbg !12244, !llvm.loop !12245

for.end22:                                        ; preds = %for.cond
  br label %if.end23, !dbg !12246

if.end23:                                         ; preds = %for.end22, %entry
  %28 = bitcast %"class.dealii::MGDoFHandler"* %this1 to %"class.dealii::DoFHandler"*, !dbg !12247
  %selected_fe24 = getelementptr inbounds %"class.dealii::DoFHandler", %"class.dealii::DoFHandler"* %28, i32 0, i32 2, !dbg !12247
  %call25 = call %"class.dealii::FiniteElement"* @_ZNK6dealii12SmartPointerIKNS_13FiniteElementILi3ELi3EEEEptEv(%"class.dealii::SmartPointer.109"* %selected_fe24), !dbg !12249
  %29 = bitcast %"class.dealii::FiniteElement"* %call25 to i8*, !dbg !12250
  %add.ptr26 = getelementptr inbounds i8, i8* %29, i64 72, !dbg !12250
  %30 = bitcast i8* %add.ptr26 to %"class.dealii::FiniteElementData"*, !dbg !12250
  %dofs_per_line = getelementptr inbounds %"class.dealii::FiniteElementData", %"class.dealii::FiniteElementData"* %30, i32 0, i32 1, !dbg !12250
  %31 = load i32, i32* %dofs_per_line, align 4, !dbg !12250
  %cmp27 = icmp ugt i32 %31, 0, !dbg !12251
  br i1 %cmp27, label %if.then28, label %if.end58, !dbg !12252

if.then28:                                        ; preds = %if.end23
  call void @llvm.dbg.declare(metadata i32* %l, metadata !12253, metadata !DIExpression()), !dbg !12255
  store i32 0, i32* %l, align 4, !dbg !12255
  br label %for.cond29, !dbg !12256

for.cond29:                                       ; preds = %for.inc55, %if.then28
  %32 = load i32, i32* %l, align 4, !dbg !12257
  %cmp30 = icmp ult i32 %32, 12, !dbg !12259
  br i1 %cmp30, label %for.body31, label %for.end57, !dbg !12260

for.body31:                                       ; preds = %for.cond29
  call void @llvm.dbg.declare(metadata %"class.dealii::TriaIterator.174"* %line, metadata !12261, metadata !DIExpression()), !dbg !12263
  %33 = load %"class.dealii::TriaIterator"*, %"class.dealii::TriaIterator"** %cell.addr, align 8, !dbg !12264
  %34 = bitcast %"class.dealii::TriaIterator"* %33 to %"class.dealii::TriaRawIterator"*, !dbg !12264
  %call32 = call %"class.dealii::MGDoFCellAccessor"* @_ZN6dealii15TriaRawIteratorINS_17MGDoFCellAccessorILi3ELi3EEEEptEv(%"class.dealii::TriaRawIterator"* %34), !dbg !12264
  %35 = bitcast %"class.dealii::MGDoFCellAccessor"* %call32 to %"class.dealii::MGDoFAccessor"*, !dbg !12265
  %36 = load i32, i32* %l, align 4, !dbg !12266
  call void @_ZNK6dealii13MGDoFAccessorILi3ELi3ELi3EE4lineEj(%"class.dealii::TriaIterator.174"* sret %line, %"class.dealii::MGDoFAccessor"* %35, i32 %36), !dbg !12265
  %37 = bitcast %"class.dealii::TriaIterator.174"* %line to %"class.dealii::TriaRawIterator.168"*, !dbg !12267
  %call33 = call %"class.dealii::MGDoFAccessor.170"* @_ZN6dealii15TriaRawIteratorINS_13MGDoFAccessorILi1ELi3ELi3EEEEptEv(%"class.dealii::TriaRawIterator.168"* %37), !dbg !12267
  %38 = load %"class.dealii::TriaIterator"*, %"class.dealii::TriaIterator"** %cell.addr, align 8, !dbg !12269
  %39 = bitcast %"class.dealii::TriaIterator"* %38 to %"class.dealii::TriaRawIterator"*, !dbg !12269
  %call34 = call %"class.dealii::MGDoFCellAccessor"* @_ZN6dealii15TriaRawIteratorINS_17MGDoFCellAccessorILi3ELi3EEEEptEv(%"class.dealii::TriaRawIterator"* %39), !dbg !12269
  %40 = bitcast %"class.dealii::MGDoFCellAccessor"* %call34 to %"class.dealii::TriaAccessorBase"*, !dbg !12270
  %call35 = call i32 @_ZNK6dealii16TriaAccessorBaseILi3ELi3ELi3EE5levelEv(%"class.dealii::TriaAccessorBase"* %40), !dbg !12270
  %call36 = call i32 @_ZNK6dealii13MGDoFAccessorILi1ELi3ELi3EE12mg_dof_indexEij(%"class.dealii::MGDoFAccessor.170"* %call33, i32 %call35, i32 0), !dbg !12271
  %cmp37 = icmp eq i32 %call36, -1, !dbg !12272
  br i1 %cmp37, label %if.then38, label %if.end54, !dbg !12273

if.then38:                                        ; preds = %for.body31
  call void @llvm.dbg.declare(metadata i32* %d39, metadata !12274, metadata !DIExpression()), !dbg !12276
  store i32 0, i32* %d39, align 4, !dbg !12276
  br label %for.cond40, !dbg !12277

for.cond40:                                       ; preds = %for.inc51, %if.then38
  %41 = load i32, i32* %d39, align 4, !dbg !12278
  %42 = bitcast %"class.dealii::MGDoFHandler"* %this1 to %"class.dealii::DoFHandler"*, !dbg !12280
  %selected_fe41 = getelementptr inbounds %"class.dealii::DoFHandler", %"class.dealii::DoFHandler"* %42, i32 0, i32 2, !dbg !12280
  %call42 = call %"class.dealii::FiniteElement"* @_ZNK6dealii12SmartPointerIKNS_13FiniteElementILi3ELi3EEEEptEv(%"class.dealii::SmartPointer.109"* %selected_fe41), !dbg !12281
  %43 = bitcast %"class.dealii::FiniteElement"* %call42 to i8*, !dbg !12282
  %add.ptr43 = getelementptr inbounds i8, i8* %43, i64 72, !dbg !12282
  %44 = bitcast i8* %add.ptr43 to %"class.dealii::FiniteElementData"*, !dbg !12282
  %dofs_per_line44 = getelementptr inbounds %"class.dealii::FiniteElementData", %"class.dealii::FiniteElementData"* %44, i32 0, i32 1, !dbg !12282
  %45 = load i32, i32* %dofs_per_line44, align 4, !dbg !12282
  %cmp45 = icmp ult i32 %41, %45, !dbg !12283
  br i1 %cmp45, label %for.body46, label %for.end53, !dbg !12284

for.body46:                                       ; preds = %for.cond40
  %46 = bitcast %"class.dealii::TriaIterator.174"* %line to %"class.dealii::TriaRawIterator.168"*, !dbg !12285
  %call47 = call %"class.dealii::MGDoFAccessor.170"* @_ZN6dealii15TriaRawIteratorINS_13MGDoFAccessorILi1ELi3ELi3EEEEptEv(%"class.dealii::TriaRawIterator.168"* %46), !dbg !12285
  %47 = load %"class.dealii::TriaIterator"*, %"class.dealii::TriaIterator"** %cell.addr, align 8, !dbg !12286
  %48 = bitcast %"class.dealii::TriaIterator"* %47 to %"class.dealii::TriaRawIterator"*, !dbg !12286
  %call48 = call %"class.dealii::MGDoFCellAccessor"* @_ZN6dealii15TriaRawIteratorINS_17MGDoFCellAccessorILi3ELi3EEEEptEv(%"class.dealii::TriaRawIterator"* %48), !dbg !12286
  %49 = bitcast %"class.dealii::MGDoFCellAccessor"* %call48 to %"class.dealii::TriaAccessorBase"*, !dbg !12287
  %call49 = call i32 @_ZNK6dealii16TriaAccessorBaseILi3ELi3ELi3EE5levelEv(%"class.dealii::TriaAccessorBase"* %49), !dbg !12287
  %50 = load i32, i32* %d39, align 4, !dbg !12288
  %51 = load i32, i32* %next_free_dof.addr, align 4, !dbg !12289
  %inc50 = add i32 %51, 1, !dbg !12289
  store i32 %inc50, i32* %next_free_dof.addr, align 4, !dbg !12289
  call void @_ZNK6dealii13MGDoFAccessorILi1ELi3ELi3EE16set_mg_dof_indexEijj(%"class.dealii::MGDoFAccessor.170"* %call47, i32 %call49, i32 %50, i32 %51), !dbg !12290
  br label %for.inc51, !dbg !12285

for.inc51:                                        ; preds = %for.body46
  %52 = load i32, i32* %d39, align 4, !dbg !12291
  %inc52 = add i32 %52, 1, !dbg !12291
  store i32 %inc52, i32* %d39, align 4, !dbg !12291
  br label %for.cond40, !dbg !12292, !llvm.loop !12293

for.end53:                                        ; preds = %for.cond40
  br label %if.end54, !dbg !12294

if.end54:                                         ; preds = %for.end53, %for.body31
  br label %for.inc55, !dbg !12295

for.inc55:                                        ; preds = %if.end54
  %53 = load i32, i32* %l, align 4, !dbg !12296
  %inc56 = add i32 %53, 1, !dbg !12296
  store i32 %inc56, i32* %l, align 4, !dbg !12296
  br label %for.cond29, !dbg !12297, !llvm.loop !12298

for.end57:                                        ; preds = %for.cond29
  br label %if.end58, !dbg !12299

if.end58:                                         ; preds = %for.end57, %if.end23
  %54 = bitcast %"class.dealii::MGDoFHandler"* %this1 to %"class.dealii::DoFHandler"*, !dbg !12300
  %selected_fe59 = getelementptr inbounds %"class.dealii::DoFHandler", %"class.dealii::DoFHandler"* %54, i32 0, i32 2, !dbg !12300
  %call60 = call %"class.dealii::FiniteElement"* @_ZNK6dealii12SmartPointerIKNS_13FiniteElementILi3ELi3EEEEptEv(%"class.dealii::SmartPointer.109"* %selected_fe59), !dbg !12302
  %55 = bitcast %"class.dealii::FiniteElement"* %call60 to i8*, !dbg !12303
  %add.ptr61 = getelementptr inbounds i8, i8* %55, i64 72, !dbg !12303
  %56 = bitcast i8* %add.ptr61 to %"class.dealii::FiniteElementData"*, !dbg !12303
  %dofs_per_quad = getelementptr inbounds %"class.dealii::FiniteElementData", %"class.dealii::FiniteElementData"* %56, i32 0, i32 2, !dbg !12303
  %57 = load i32, i32* %dofs_per_quad, align 8, !dbg !12303
  %cmp62 = icmp ugt i32 %57, 0, !dbg !12304
  br i1 %cmp62, label %if.then63, label %if.end93, !dbg !12305

if.then63:                                        ; preds = %if.end58
  call void @llvm.dbg.declare(metadata i32* %q, metadata !12306, metadata !DIExpression()), !dbg !12308
  store i32 0, i32* %q, align 4, !dbg !12308
  br label %for.cond64, !dbg !12309

for.cond64:                                       ; preds = %for.inc90, %if.then63
  %58 = load i32, i32* %q, align 4, !dbg !12310
  %cmp65 = icmp ult i32 %58, 6, !dbg !12312
  br i1 %cmp65, label %for.body66, label %for.end92, !dbg !12313

for.body66:                                       ; preds = %for.cond64
  call void @llvm.dbg.declare(metadata %"class.dealii::TriaIterator.166"* %quad, metadata !12314, metadata !DIExpression()), !dbg !12316
  %59 = load %"class.dealii::TriaIterator"*, %"class.dealii::TriaIterator"** %cell.addr, align 8, !dbg !12317
  %60 = bitcast %"class.dealii::TriaIterator"* %59 to %"class.dealii::TriaRawIterator"*, !dbg !12317
  %call67 = call %"class.dealii::MGDoFCellAccessor"* @_ZN6dealii15TriaRawIteratorINS_17MGDoFCellAccessorILi3ELi3EEEEptEv(%"class.dealii::TriaRawIterator"* %60), !dbg !12317
  %61 = bitcast %"class.dealii::MGDoFCellAccessor"* %call67 to %"class.dealii::MGDoFAccessor"*, !dbg !12318
  %62 = load i32, i32* %q, align 4, !dbg !12319
  call void @_ZNK6dealii13MGDoFAccessorILi3ELi3ELi3EE4quadEj(%"class.dealii::TriaIterator.166"* sret %quad, %"class.dealii::MGDoFAccessor"* %61, i32 %62), !dbg !12318
  %63 = bitcast %"class.dealii::TriaIterator.166"* %quad to %"class.dealii::TriaRawIterator.160"*, !dbg !12320
  %call68 = call %"class.dealii::MGDoFAccessor.162"* @_ZN6dealii15TriaRawIteratorINS_13MGDoFAccessorILi2ELi3ELi3EEEEptEv(%"class.dealii::TriaRawIterator.160"* %63), !dbg !12320
  %64 = load %"class.dealii::TriaIterator"*, %"class.dealii::TriaIterator"** %cell.addr, align 8, !dbg !12322
  %65 = bitcast %"class.dealii::TriaIterator"* %64 to %"class.dealii::TriaRawIterator"*, !dbg !12322
  %call69 = call %"class.dealii::MGDoFCellAccessor"* @_ZN6dealii15TriaRawIteratorINS_17MGDoFCellAccessorILi3ELi3EEEEptEv(%"class.dealii::TriaRawIterator"* %65), !dbg !12322
  %66 = bitcast %"class.dealii::MGDoFCellAccessor"* %call69 to %"class.dealii::TriaAccessorBase"*, !dbg !12323
  %call70 = call i32 @_ZNK6dealii16TriaAccessorBaseILi3ELi3ELi3EE5levelEv(%"class.dealii::TriaAccessorBase"* %66), !dbg !12323
  %call71 = call i32 @_ZNK6dealii13MGDoFAccessorILi2ELi3ELi3EE12mg_dof_indexEij(%"class.dealii::MGDoFAccessor.162"* %call68, i32 %call70, i32 0), !dbg !12324
  %cmp72 = icmp eq i32 %call71, -1, !dbg !12325
  br i1 %cmp72, label %if.then73, label %if.end89, !dbg !12326

if.then73:                                        ; preds = %for.body66
  call void @llvm.dbg.declare(metadata i32* %d74, metadata !12327, metadata !DIExpression()), !dbg !12329
  store i32 0, i32* %d74, align 4, !dbg !12329
  br label %for.cond75, !dbg !12330

for.cond75:                                       ; preds = %for.inc86, %if.then73
  %67 = load i32, i32* %d74, align 4, !dbg !12331
  %68 = bitcast %"class.dealii::MGDoFHandler"* %this1 to %"class.dealii::DoFHandler"*, !dbg !12333
  %selected_fe76 = getelementptr inbounds %"class.dealii::DoFHandler", %"class.dealii::DoFHandler"* %68, i32 0, i32 2, !dbg !12333
  %call77 = call %"class.dealii::FiniteElement"* @_ZNK6dealii12SmartPointerIKNS_13FiniteElementILi3ELi3EEEEptEv(%"class.dealii::SmartPointer.109"* %selected_fe76), !dbg !12334
  %69 = bitcast %"class.dealii::FiniteElement"* %call77 to i8*, !dbg !12335
  %add.ptr78 = getelementptr inbounds i8, i8* %69, i64 72, !dbg !12335
  %70 = bitcast i8* %add.ptr78 to %"class.dealii::FiniteElementData"*, !dbg !12335
  %dofs_per_quad79 = getelementptr inbounds %"class.dealii::FiniteElementData", %"class.dealii::FiniteElementData"* %70, i32 0, i32 2, !dbg !12335
  %71 = load i32, i32* %dofs_per_quad79, align 8, !dbg !12335
  %cmp80 = icmp ult i32 %67, %71, !dbg !12336
  br i1 %cmp80, label %for.body81, label %for.end88, !dbg !12337

for.body81:                                       ; preds = %for.cond75
  %72 = bitcast %"class.dealii::TriaIterator.166"* %quad to %"class.dealii::TriaRawIterator.160"*, !dbg !12338
  %call82 = call %"class.dealii::MGDoFAccessor.162"* @_ZN6dealii15TriaRawIteratorINS_13MGDoFAccessorILi2ELi3ELi3EEEEptEv(%"class.dealii::TriaRawIterator.160"* %72), !dbg !12338
  %73 = load %"class.dealii::TriaIterator"*, %"class.dealii::TriaIterator"** %cell.addr, align 8, !dbg !12339
  %74 = bitcast %"class.dealii::TriaIterator"* %73 to %"class.dealii::TriaRawIterator"*, !dbg !12339
  %call83 = call %"class.dealii::MGDoFCellAccessor"* @_ZN6dealii15TriaRawIteratorINS_17MGDoFCellAccessorILi3ELi3EEEEptEv(%"class.dealii::TriaRawIterator"* %74), !dbg !12339
  %75 = bitcast %"class.dealii::MGDoFCellAccessor"* %call83 to %"class.dealii::TriaAccessorBase"*, !dbg !12340
  %call84 = call i32 @_ZNK6dealii16TriaAccessorBaseILi3ELi3ELi3EE5levelEv(%"class.dealii::TriaAccessorBase"* %75), !dbg !12340
  %76 = load i32, i32* %d74, align 4, !dbg !12341
  %77 = load i32, i32* %next_free_dof.addr, align 4, !dbg !12342
  %inc85 = add i32 %77, 1, !dbg !12342
  store i32 %inc85, i32* %next_free_dof.addr, align 4, !dbg !12342
  call void @_ZNK6dealii13MGDoFAccessorILi2ELi3ELi3EE16set_mg_dof_indexEijj(%"class.dealii::MGDoFAccessor.162"* %call82, i32 %call84, i32 %76, i32 %77), !dbg !12343
  br label %for.inc86, !dbg !12338

for.inc86:                                        ; preds = %for.body81
  %78 = load i32, i32* %d74, align 4, !dbg !12344
  %inc87 = add i32 %78, 1, !dbg !12344
  store i32 %inc87, i32* %d74, align 4, !dbg !12344
  br label %for.cond75, !dbg !12345, !llvm.loop !12346

for.end88:                                        ; preds = %for.cond75
  br label %if.end89, !dbg !12347

if.end89:                                         ; preds = %for.end88, %for.body66
  br label %for.inc90, !dbg !12348

for.inc90:                                        ; preds = %if.end89
  %79 = load i32, i32* %q, align 4, !dbg !12349
  %inc91 = add i32 %79, 1, !dbg !12349
  store i32 %inc91, i32* %q, align 4, !dbg !12349
  br label %for.cond64, !dbg !12350, !llvm.loop !12351

for.end92:                                        ; preds = %for.cond64
  br label %if.end93, !dbg !12352

if.end93:                                         ; preds = %for.end92, %if.end58
  %80 = bitcast %"class.dealii::MGDoFHandler"* %this1 to %"class.dealii::DoFHandler"*, !dbg !12353
  %selected_fe94 = getelementptr inbounds %"class.dealii::DoFHandler", %"class.dealii::DoFHandler"* %80, i32 0, i32 2, !dbg !12353
  %call95 = call %"class.dealii::FiniteElement"* @_ZNK6dealii12SmartPointerIKNS_13FiniteElementILi3ELi3EEEEptEv(%"class.dealii::SmartPointer.109"* %selected_fe94), !dbg !12355
  %81 = bitcast %"class.dealii::FiniteElement"* %call95 to i8*, !dbg !12356
  %add.ptr96 = getelementptr inbounds i8, i8* %81, i64 72, !dbg !12356
  %82 = bitcast i8* %add.ptr96 to %"class.dealii::FiniteElementData"*, !dbg !12356
  %dofs_per_hex = getelementptr inbounds %"class.dealii::FiniteElementData", %"class.dealii::FiniteElementData"* %82, i32 0, i32 3, !dbg !12356
  %83 = load i32, i32* %dofs_per_hex, align 4, !dbg !12356
  %cmp97 = icmp ugt i32 %83, 0, !dbg !12357
  br i1 %cmp97, label %if.then98, label %if.end114, !dbg !12358

if.then98:                                        ; preds = %if.end93
  call void @llvm.dbg.declare(metadata i32* %d99, metadata !12359, metadata !DIExpression()), !dbg !12361
  store i32 0, i32* %d99, align 4, !dbg !12361
  br label %for.cond100, !dbg !12362

for.cond100:                                      ; preds = %for.inc111, %if.then98
  %84 = load i32, i32* %d99, align 4, !dbg !12363
  %85 = bitcast %"class.dealii::MGDoFHandler"* %this1 to %"class.dealii::DoFHandler"*, !dbg !12365
  %selected_fe101 = getelementptr inbounds %"class.dealii::DoFHandler", %"class.dealii::DoFHandler"* %85, i32 0, i32 2, !dbg !12365
  %call102 = call %"class.dealii::FiniteElement"* @_ZNK6dealii12SmartPointerIKNS_13FiniteElementILi3ELi3EEEEptEv(%"class.dealii::SmartPointer.109"* %selected_fe101), !dbg !12366
  %86 = bitcast %"class.dealii::FiniteElement"* %call102 to i8*, !dbg !12367
  %add.ptr103 = getelementptr inbounds i8, i8* %86, i64 72, !dbg !12367
  %87 = bitcast i8* %add.ptr103 to %"class.dealii::FiniteElementData"*, !dbg !12367
  %dofs_per_hex104 = getelementptr inbounds %"class.dealii::FiniteElementData", %"class.dealii::FiniteElementData"* %87, i32 0, i32 3, !dbg !12367
  %88 = load i32, i32* %dofs_per_hex104, align 4, !dbg !12367
  %cmp105 = icmp ult i32 %84, %88, !dbg !12368
  br i1 %cmp105, label %for.body106, label %for.end113, !dbg !12369

for.body106:                                      ; preds = %for.cond100
  %89 = load %"class.dealii::TriaIterator"*, %"class.dealii::TriaIterator"** %cell.addr, align 8, !dbg !12370
  %90 = bitcast %"class.dealii::TriaIterator"* %89 to %"class.dealii::TriaRawIterator"*, !dbg !12370
  %call107 = call %"class.dealii::MGDoFCellAccessor"* @_ZN6dealii15TriaRawIteratorINS_17MGDoFCellAccessorILi3ELi3EEEEptEv(%"class.dealii::TriaRawIterator"* %90), !dbg !12370
  %91 = bitcast %"class.dealii::MGDoFCellAccessor"* %call107 to %"class.dealii::MGDoFAccessor"*, !dbg !12371
  %92 = load %"class.dealii::TriaIterator"*, %"class.dealii::TriaIterator"** %cell.addr, align 8, !dbg !12372
  %93 = bitcast %"class.dealii::TriaIterator"* %92 to %"class.dealii::TriaRawIterator"*, !dbg !12372
  %call108 = call %"class.dealii::MGDoFCellAccessor"* @_ZN6dealii15TriaRawIteratorINS_17MGDoFCellAccessorILi3ELi3EEEEptEv(%"class.dealii::TriaRawIterator"* %93), !dbg !12372
  %94 = bitcast %"class.dealii::MGDoFCellAccessor"* %call108 to %"class.dealii::TriaAccessorBase"*, !dbg !12373
  %call109 = call i32 @_ZNK6dealii16TriaAccessorBaseILi3ELi3ELi3EE5levelEv(%"class.dealii::TriaAccessorBase"* %94), !dbg !12373
  %95 = load i32, i32* %d99, align 4, !dbg !12374
  %96 = load i32, i32* %next_free_dof.addr, align 4, !dbg !12375
  %inc110 = add i32 %96, 1, !dbg !12375
  store i32 %inc110, i32* %next_free_dof.addr, align 4, !dbg !12375
  call void @_ZNK6dealii13MGDoFAccessorILi3ELi3ELi3EE16set_mg_dof_indexEijj(%"class.dealii::MGDoFAccessor"* %91, i32 %call109, i32 %95, i32 %96), !dbg !12371
  br label %for.inc111, !dbg !12370

for.inc111:                                       ; preds = %for.body106
  %97 = load i32, i32* %d99, align 4, !dbg !12376
  %inc112 = add i32 %97, 1, !dbg !12376
  store i32 %inc112, i32* %d99, align 4, !dbg !12376
  br label %for.cond100, !dbg !12377, !llvm.loop !12378

for.end113:                                       ; preds = %for.cond100
  br label %if.end114, !dbg !12379

if.end114:                                        ; preds = %for.end113, %if.end93
  %98 = load %"class.dealii::TriaIterator"*, %"class.dealii::TriaIterator"** %cell.addr, align 8, !dbg !12380
  %99 = bitcast %"class.dealii::TriaIterator"* %98 to %"class.dealii::TriaRawIterator"*, !dbg !12380
  %call115 = call %"class.dealii::MGDoFCellAccessor"* @_ZN6dealii15TriaRawIteratorINS_17MGDoFCellAccessorILi3ELi3EEEEptEv(%"class.dealii::TriaRawIterator"* %99), !dbg !12380
  %100 = bitcast %"class.dealii::MGDoFCellAccessor"* %call115 to %"class.dealii::TriaAccessor"*, !dbg !12381
  call void @_ZNK6dealii12TriaAccessorILi3ELi3ELi3EE13set_user_flagEv(%"class.dealii::TriaAccessor"* %100), !dbg !12381
  %101 = load i32, i32* %next_free_dof.addr, align 4, !dbg !12382
  ret i32 %101, !dbg !12383
}

; Function Attrs: noinline uwtable
define linkonce_odr dso_local dereferenceable(32) %"class.dealii::TriaIterator"* @_ZN6dealii12TriaIteratorINS_17MGDoFCellAccessorILi3ELi3EEEEppEv(%"class.dealii::TriaIterator"* %this) #0 comdat align 2 !dbg !12384 {
entry:
  %retval = alloca %"class.dealii::TriaIterator"*, align 8
  %this.addr = alloca %"class.dealii::TriaIterator"*, align 8
  store %"class.dealii::TriaIterator"* %this, %"class.dealii::TriaIterator"** %this.addr, align 8
  call void @llvm.dbg.declare(metadata %"class.dealii::TriaIterator"** %this.addr, metadata !12385, metadata !DIExpression()), !dbg !12387
  %this1 = load %"class.dealii::TriaIterator"*, %"class.dealii::TriaIterator"** %this.addr, align 8
  br label %while.cond, !dbg !12388

while.cond:                                       ; preds = %if.end, %entry
  %0 = bitcast %"class.dealii::TriaIterator"* %this1 to %"class.dealii::TriaRawIterator"*, !dbg !12389
  %call = call dereferenceable(32) %"class.dealii::TriaRawIterator"* @_ZN6dealii15TriaRawIteratorINS_17MGDoFCellAccessorILi3ELi3EEEEppEv(%"class.dealii::TriaRawIterator"* %0), !dbg !12389
  %1 = bitcast %"class.dealii::TriaIterator"* %this1 to %"class.dealii::TriaRawIterator"*, !dbg !12390
  %call2 = call i32 @_ZNK6dealii15TriaRawIteratorINS_17MGDoFCellAccessorILi3ELi3EEEE5stateEv(%"class.dealii::TriaRawIterator"* %1), !dbg !12390
  %cmp = icmp eq i32 %call2, 0, !dbg !12391
  br i1 %cmp, label %while.body, label %while.end, !dbg !12388

while.body:                                       ; preds = %while.cond
  %2 = bitcast %"class.dealii::TriaIterator"* %this1 to %"class.dealii::TriaRawIterator"*, !dbg !12392
  %accessor = getelementptr inbounds %"class.dealii::TriaRawIterator", %"class.dealii::TriaRawIterator"* %2, i32 0, i32 0, !dbg !12392
  %3 = bitcast %"class.dealii::MGDoFCellAccessor"* %accessor to %"class.dealii::TriaAccessor"*, !dbg !12394
  %call3 = call zeroext i1 @_ZNK6dealii12TriaAccessorILi3ELi3ELi3EE4usedEv(%"class.dealii::TriaAccessor"* %3), !dbg !12395
  %conv = zext i1 %call3 to i32, !dbg !12394
  %cmp4 = icmp eq i32 %conv, 1, !dbg !12396
  br i1 %cmp4, label %if.then, label %if.end, !dbg !12397

if.then:                                          ; preds = %while.body
  store %"class.dealii::TriaIterator"* %this1, %"class.dealii::TriaIterator"** %retval, align 8, !dbg !12398
  br label %return, !dbg !12398

if.end:                                           ; preds = %while.body
  br label %while.cond, !dbg !12388, !llvm.loop !12399

while.end:                                        ; preds = %while.cond
  store %"class.dealii::TriaIterator"* %this1, %"class.dealii::TriaIterator"** %retval, align 8, !dbg !12401
  br label %return, !dbg !12401

return:                                           ; preds = %while.end, %if.then
  %4 = load %"class.dealii::TriaIterator"*, %"class.dealii::TriaIterator"** %retval, align 8, !dbg !12402
  ret %"class.dealii::TriaIterator"* %4, !dbg !12402
}

; Function Attrs: noinline nounwind uwtable
define linkonce_odr dso_local dereferenceable(4) i32* @_ZNSt6vectorIjSaIjEEixEm(%"class.std::vector.33"* %this, i64 %__n) #4 comdat align 2 !dbg !12403 {
entry:
  %this.addr = alloca %"class.std::vector.33"*, align 8
  %__n.addr = alloca i64, align 8
  store %"class.std::vector.33"* %this, %"class.std::vector.33"** %this.addr, align 8
  call void @llvm.dbg.declare(metadata %"class.std::vector.33"** %this.addr, metadata !12404, metadata !DIExpression()), !dbg !12405
  store i64 %__n, i64* %__n.addr, align 8
  call void @llvm.dbg.declare(metadata i64* %__n.addr, metadata !12406, metadata !DIExpression()), !dbg !12407
  %this1 = load %"class.std::vector.33"*, %"class.std::vector.33"** %this.addr, align 8
  %0 = bitcast %"class.std::vector.33"* %this1 to %"struct.std::_Vector_base.34"*, !dbg !12408
  %_M_impl = getelementptr inbounds %"struct.std::_Vector_base.34", %"struct.std::_Vector_base.34"* %0, i32 0, i32 0, !dbg !12408
  %1 = bitcast %"struct.std::_Vector_base<unsigned int, std::allocator<unsigned int> >::_Vector_impl"* %_M_impl to %"struct.std::_Vector_base<unsigned int, std::allocator<unsigned int> >::_Vector_impl_data"*, !dbg !12409
  %_M_start = getelementptr inbounds %"struct.std::_Vector_base<unsigned int, std::allocator<unsigned int> >::_Vector_impl_data", %"struct.std::_Vector_base<unsigned int, std::allocator<unsigned int> >::_Vector_impl_data"* %1, i32 0, i32 0, !dbg !12410
  %2 = load i32*, i32** %_M_start, align 8, !dbg !12410
  %3 = load i64, i64* %__n.addr, align 8, !dbg !12411
  %add.ptr = getelementptr inbounds i32, i32* %2, i64 %3, !dbg !12412
  ret i32* %add.ptr, !dbg !12413
}

declare dso_local void @_ZN6dealii13TriangulationILi3ELi3EE15load_user_flagsERKSt6vectorIbSaIbEE(%"class.dealii::Triangulation"*, %"class.std::vector.24"* dereferenceable(40)) #1

; Function Attrs: noinline nounwind uwtable
define linkonce_odr dso_local void @_ZNSt6vectorIbSaIbEED2Ev(%"class.std::vector.24"* %this) unnamed_addr #4 comdat align 2 !dbg !12414 {
entry:
  %this.addr = alloca %"class.std::vector.24"*, align 8
  store %"class.std::vector.24"* %this, %"class.std::vector.24"** %this.addr, align 8
  call void @llvm.dbg.declare(metadata %"class.std::vector.24"** %this.addr, metadata !12415, metadata !DIExpression()), !dbg !12416
  %this1 = load %"class.std::vector.24"*, %"class.std::vector.24"** %this.addr, align 8
  %0 = bitcast %"class.std::vector.24"* %this1 to %"struct.std::_Bvector_base"*, !dbg !12417
  call void @_ZNSt13_Bvector_baseISaIbEED2Ev(%"struct.std::_Bvector_base"* %0) #3, !dbg !12417
  ret void, !dbg !12419
}

; Function Attrs: noinline uwtable
define weak_odr dso_local void @_ZN6dealii12MGDoFHandlerILi3ELi3EE5clearEv(%"class.dealii::MGDoFHandler"* %this) unnamed_addr #0 comdat align 2 !dbg !12420 {
entry:
  %this.addr = alloca %"class.dealii::MGDoFHandler"*, align 8
  store %"class.dealii::MGDoFHandler"* %this, %"class.dealii::MGDoFHandler"** %this.addr, align 8
  call void @llvm.dbg.declare(metadata %"class.dealii::MGDoFHandler"** %this.addr, metadata !12421, metadata !DIExpression()), !dbg !12422
  %this1 = load %"class.dealii::MGDoFHandler"*, %"class.dealii::MGDoFHandler"** %this.addr, align 8
  call void @_ZN6dealii12MGDoFHandlerILi3ELi3EE11clear_spaceEv(%"class.dealii::MGDoFHandler"* %this1), !dbg !12423
  %0 = bitcast %"class.dealii::MGDoFHandler"* %this1 to %"class.dealii::DoFHandler"*, !dbg !12424
  call void @_ZN6dealii10DoFHandlerILi3ELi3EE5clearEv(%"class.dealii::DoFHandler"* %0), !dbg !12424
  ret void, !dbg !12425
}

; Function Attrs: noinline nounwind uwtable
define weak_odr dso_local void @_ZN6dealii12MGDoFHandlerILi3ELi3EE11clear_spaceEv(%"class.dealii::MGDoFHandler"* %this) #4 comdat align 2 !dbg !12426 {
entry:
  %this.addr = alloca %"class.dealii::MGDoFHandler"*, align 8
  %i = alloca i32, align 4
  %tmp = alloca %"class.std::vector.154", align 8
  store %"class.dealii::MGDoFHandler"* %this, %"class.dealii::MGDoFHandler"** %this.addr, align 8
  call void @llvm.dbg.declare(metadata %"class.dealii::MGDoFHandler"** %this.addr, metadata !12427, metadata !DIExpression()), !dbg !12428
  %this1 = load %"class.dealii::MGDoFHandler"*, %"class.dealii::MGDoFHandler"** %this.addr, align 8
  call void @llvm.dbg.declare(metadata i32* %i, metadata !12429, metadata !DIExpression()), !dbg !12431
  store i32 0, i32* %i, align 4, !dbg !12431
  br label %for.cond, !dbg !12432

for.cond:                                         ; preds = %for.inc, %entry
  %0 = load i32, i32* %i, align 4, !dbg !12433
  %conv = zext i32 %0 to i64, !dbg !12433
  %mg_levels = getelementptr inbounds %"class.dealii::MGDoFHandler", %"class.dealii::MGDoFHandler"* %this1, i32 0, i32 1, !dbg !12435
  %call = call i64 @_ZNKSt6vectorIPN6dealii8internal10DoFHandler8DoFLevelILi3EEESaIS5_EE4sizeEv(%"class.std::vector.146"* %mg_levels) #3, !dbg !12436
  %cmp = icmp ult i64 %conv, %call, !dbg !12437
  br i1 %cmp, label %for.body, label %for.end, !dbg !12438

for.body:                                         ; preds = %for.cond
  %mg_levels2 = getelementptr inbounds %"class.dealii::MGDoFHandler", %"class.dealii::MGDoFHandler"* %this1, i32 0, i32 1, !dbg !12439
  %1 = load i32, i32* %i, align 4, !dbg !12440
  %conv3 = zext i32 %1 to i64, !dbg !12440
  %call4 = call dereferenceable(8) %"class.dealii::internal::DoFHandler::DoFLevel"** @_ZNSt6vectorIPN6dealii8internal10DoFHandler8DoFLevelILi3EEESaIS5_EEixEm(%"class.std::vector.146"* %mg_levels2, i64 %conv3) #3, !dbg !12439
  %2 = load %"class.dealii::internal::DoFHandler::DoFLevel"*, %"class.dealii::internal::DoFHandler::DoFLevel"** %call4, align 8, !dbg !12439
  %isnull = icmp eq %"class.dealii::internal::DoFHandler::DoFLevel"* %2, null, !dbg !12441
  br i1 %isnull, label %delete.end, label %delete.notnull, !dbg !12441

delete.notnull:                                   ; preds = %for.body
  call void @_ZN6dealii8internal10DoFHandler8DoFLevelILi3EED2Ev(%"class.dealii::internal::DoFHandler::DoFLevel"* %2) #3, !dbg !12441
  %3 = bitcast %"class.dealii::internal::DoFHandler::DoFLevel"* %2 to i8*, !dbg !12441
  call void @_ZdlPv(i8* %3) #13, !dbg !12441
  br label %delete.end, !dbg !12441

delete.end:                                       ; preds = %delete.notnull, %for.body
  br label %for.inc, !dbg !12441

for.inc:                                          ; preds = %delete.end
  %4 = load i32, i32* %i, align 4, !dbg !12442
  %inc = add i32 %4, 1, !dbg !12442
  store i32 %inc, i32* %i, align 4, !dbg !12442
  br label %for.cond, !dbg !12443, !llvm.loop !12444

for.end:                                          ; preds = %for.cond
  %mg_levels5 = getelementptr inbounds %"class.dealii::MGDoFHandler", %"class.dealii::MGDoFHandler"* %this1, i32 0, i32 1, !dbg !12446
  call void @_ZNSt6vectorIPN6dealii8internal10DoFHandler8DoFLevelILi3EEESaIS5_EE5clearEv(%"class.std::vector.146"* %mg_levels5) #3, !dbg !12447
  %mg_faces = getelementptr inbounds %"class.dealii::MGDoFHandler", %"class.dealii::MGDoFHandler"* %this1, i32 0, i32 2, !dbg !12448
  %5 = load %"class.dealii::internal::DoFHandler::DoFFaces"*, %"class.dealii::internal::DoFHandler::DoFFaces"** %mg_faces, align 8, !dbg !12448
  %isnull6 = icmp eq %"class.dealii::internal::DoFHandler::DoFFaces"* %5, null, !dbg !12449
  br i1 %isnull6, label %delete.end8, label %delete.notnull7, !dbg !12449

delete.notnull7:                                  ; preds = %for.end
  call void @_ZN6dealii8internal10DoFHandler8DoFFacesILi3EED2Ev(%"class.dealii::internal::DoFHandler::DoFFaces"* %5) #3, !dbg !12449
  %6 = bitcast %"class.dealii::internal::DoFHandler::DoFFaces"* %5 to i8*, !dbg !12449
  call void @_ZdlPv(i8* %6) #13, !dbg !12449
  br label %delete.end8, !dbg !12449

delete.end8:                                      ; preds = %delete.notnull7, %for.end
  %mg_faces9 = getelementptr inbounds %"class.dealii::MGDoFHandler", %"class.dealii::MGDoFHandler"* %this1, i32 0, i32 2, !dbg !12450
  store %"class.dealii::internal::DoFHandler::DoFFaces"* null, %"class.dealii::internal::DoFHandler::DoFFaces"** %mg_faces9, align 8, !dbg !12451
  call void @llvm.dbg.declare(metadata %"class.std::vector.154"* %tmp, metadata !12452, metadata !DIExpression()), !dbg !12453
  call void @_ZNSt6vectorIN6dealii12MGDoFHandlerILi3ELi3EE12MGVertexDoFsESaIS3_EEC2Ev(%"class.std::vector.154"* %tmp) #3, !dbg !12453
  %mg_vertex_dofs = getelementptr inbounds %"class.dealii::MGDoFHandler", %"class.dealii::MGDoFHandler"* %this1, i32 0, i32 3, !dbg !12454
  call void @_ZSt4swapIN6dealii12MGDoFHandlerILi3ELi3EE12MGVertexDoFsESaIS3_EEvRSt6vectorIT_T0_ES9_(%"class.std::vector.154"* dereferenceable(24) %mg_vertex_dofs, %"class.std::vector.154"* dereferenceable(24) %tmp) #3, !dbg !12455
  call void @_ZNSt6vectorIN6dealii12MGDoFHandlerILi3ELi3EE12MGVertexDoFsESaIS3_EED2Ev(%"class.std::vector.154"* %tmp) #3, !dbg !12456
  ret void, !dbg !12456
}

declare dso_local void @_ZN6dealii10DoFHandlerILi3ELi3EE5clearEv(%"class.dealii::DoFHandler"*) unnamed_addr #1

; Function Attrs: noinline uwtable
define weak_odr dso_local void @_ZN6dealii12MGDoFHandlerILi3ELi3EE13renumber_dofsERKSt6vectorIjSaIjEE(%"class.dealii::MGDoFHandler"* %this, %"class.std::vector.33"* dereferenceable(24) %new_numbers) #0 comdat align 2 !dbg !12457 {
entry:
  %this.addr = alloca %"class.dealii::MGDoFHandler"*, align 8
  %new_numbers.addr = alloca %"class.std::vector.33"*, align 8
  store %"class.dealii::MGDoFHandler"* %this, %"class.dealii::MGDoFHandler"** %this.addr, align 8
  call void @llvm.dbg.declare(metadata %"class.dealii::MGDoFHandler"** %this.addr, metadata !12458, metadata !DIExpression()), !dbg !12459
  store %"class.std::vector.33"* %new_numbers, %"class.std::vector.33"** %new_numbers.addr, align 8
  call void @llvm.dbg.declare(metadata %"class.std::vector.33"** %new_numbers.addr, metadata !12460, metadata !DIExpression()), !dbg !12461
  %this1 = load %"class.dealii::MGDoFHandler"*, %"class.dealii::MGDoFHandler"** %this.addr, align 8
  %0 = bitcast %"class.dealii::MGDoFHandler"* %this1 to %"class.dealii::DoFHandler"*, !dbg !12462
  %1 = load %"class.std::vector.33"*, %"class.std::vector.33"** %new_numbers.addr, align 8, !dbg !12463
  call void @_ZN6dealii10DoFHandlerILi3ELi3EE13renumber_dofsERKSt6vectorIjSaIjEE(%"class.dealii::DoFHandler"* %0, %"class.std::vector.33"* dereferenceable(24) %1), !dbg !12462
  ret void, !dbg !12464
}

declare dso_local void @_ZN6dealii10DoFHandlerILi3ELi3EE13renumber_dofsERKSt6vectorIjSaIjEE(%"class.dealii::DoFHandler"*, %"class.std::vector.33"* dereferenceable(24)) #1

; Function Attrs: noinline uwtable
define weak_odr dso_local void @_ZNK6dealii12MGDoFHandlerILi3ELi3EE9begin_rawEj(%"class.dealii::TriaRawIterator"* noalias sret %agg.result, %"class.dealii::MGDoFHandler"* %this, i32 %level) #0 comdat align 2 !dbg !12465 {
entry:
  %result.ptr = alloca i8*, align 8
  %this.addr = alloca %"class.dealii::MGDoFHandler"*, align 8
  %level.addr = alloca i32, align 4
  %0 = bitcast %"class.dealii::TriaRawIterator"* %agg.result to i8*
  store i8* %0, i8** %result.ptr, align 8
  store %"class.dealii::MGDoFHandler"* %this, %"class.dealii::MGDoFHandler"** %this.addr, align 8
  call void @llvm.dbg.declare(metadata %"class.dealii::MGDoFHandler"** %this.addr, metadata !12466, metadata !DIExpression()), !dbg !12467
  store i32 %level, i32* %level.addr, align 4
  call void @llvm.dbg.declare(metadata i32* %level.addr, metadata !12468, metadata !DIExpression()), !dbg !12469
  %this1 = load %"class.dealii::MGDoFHandler"*, %"class.dealii::MGDoFHandler"** %this.addr, align 8
  %1 = load i32, i32* %level.addr, align 4, !dbg !12470
  call void @_ZNK6dealii12MGDoFHandlerILi3ELi3EE13begin_raw_hexEj(%"class.dealii::TriaRawIterator"* sret %agg.result, %"class.dealii::MGDoFHandler"* %this1, i32 %1), !dbg !12471
  ret void, !dbg !12472
}

; Function Attrs: noinline uwtable
define weak_odr dso_local void @_ZNK6dealii12MGDoFHandlerILi3ELi3EE13begin_raw_hexEj(%"class.dealii::TriaRawIterator"* noalias sret %agg.result, %"class.dealii::MGDoFHandler"* %this, i32 %level) #0 comdat align 2 !dbg !12473 {
entry:
  %result.ptr = alloca i8*, align 8
  %this.addr = alloca %"class.dealii::MGDoFHandler"*, align 8
  %level.addr = alloca i32, align 4
  %0 = bitcast %"class.dealii::TriaRawIterator"* %agg.result to i8*
  store i8* %0, i8** %result.ptr, align 8
  store %"class.dealii::MGDoFHandler"* %this, %"class.dealii::MGDoFHandler"** %this.addr, align 8
  call void @llvm.dbg.declare(metadata %"class.dealii::MGDoFHandler"** %this.addr, metadata !12474, metadata !DIExpression()), !dbg !12475
  store i32 %level, i32* %level.addr, align 4
  call void @llvm.dbg.declare(metadata i32* %level.addr, metadata !12476, metadata !DIExpression()), !dbg !12477
  %this1 = load %"class.dealii::MGDoFHandler"*, %"class.dealii::MGDoFHandler"** %this.addr, align 8
  %1 = bitcast %"class.dealii::MGDoFHandler"* %this1 to %"class.dealii::DoFHandler"*, !dbg !12478
  %tria = getelementptr inbounds %"class.dealii::DoFHandler", %"class.dealii::DoFHandler"* %1, i32 0, i32 1, !dbg !12478
  %call = call %"class.dealii::Triangulation"* @_ZNK6dealii12SmartPointerIKNS_13TriangulationILi3ELi3EEEEptEv(%"class.dealii::SmartPointer"* %tria), !dbg !12480
  %2 = load i32, i32* %level.addr, align 4, !dbg !12481
  %call2 = call i32 @_ZNK6dealii13TriangulationILi3ELi3EE10n_raw_hexsEj(%"class.dealii::Triangulation"* %call, i32 %2), !dbg !12482
  %cmp = icmp eq i32 %call2, 0, !dbg !12483
  br i1 %cmp, label %if.then, label %if.end, !dbg !12484

if.then:                                          ; preds = %entry
  call void @_ZNK6dealii12MGDoFHandlerILi3ELi3EE7end_hexEv(%"class.dealii::TriaRawIterator"* sret %agg.result, %"class.dealii::MGDoFHandler"* %this1), !dbg !12485
  br label %return, !dbg !12486

if.end:                                           ; preds = %entry
  %3 = bitcast %"class.dealii::MGDoFHandler"* %this1 to %"class.dealii::DoFHandler"*, !dbg !12487
  %tria3 = getelementptr inbounds %"class.dealii::DoFHandler", %"class.dealii::DoFHandler"* %3, i32 0, i32 1, !dbg !12487
  %call4 = call %"class.dealii::Triangulation"* @_ZNK6dealii12SmartPointerIKNS_13TriangulationILi3ELi3EEEEcvPS3_Ev(%"class.dealii::SmartPointer"* %tria3), !dbg !12488
  %4 = load i32, i32* %level.addr, align 4, !dbg !12489
  call void @_ZN6dealii15TriaRawIteratorINS_17MGDoFCellAccessorILi3ELi3EEEEC2EPKNS_13TriangulationILi3ELi3EEEiiPKNS_12MGDoFHandlerILi3ELi3EEE(%"class.dealii::TriaRawIterator"* %agg.result, %"class.dealii::Triangulation"* %call4, i32 %4, i32 0, %"class.dealii::MGDoFHandler"* %this1), !dbg !12490
  br label %return, !dbg !12491

return:                                           ; preds = %if.end, %if.then
  ret void, !dbg !12492
}

; Function Attrs: noinline uwtable
define weak_odr dso_local void @_ZNK6dealii12MGDoFHandlerILi3ELi3EE9begin_hexEj(%"class.dealii::TriaIterator"* noalias sret %agg.result, %"class.dealii::MGDoFHandler"* %this, i32 %level) #0 comdat align 2 !dbg !12493 {
entry:
  %result.ptr = alloca i8*, align 8
  %this.addr = alloca %"class.dealii::MGDoFHandler"*, align 8
  %level.addr = alloca i32, align 4
  %ri = alloca %"class.dealii::TriaRawIterator", align 8
  %0 = bitcast %"class.dealii::TriaIterator"* %agg.result to i8*
  store i8* %0, i8** %result.ptr, align 8
  store %"class.dealii::MGDoFHandler"* %this, %"class.dealii::MGDoFHandler"** %this.addr, align 8
  call void @llvm.dbg.declare(metadata %"class.dealii::MGDoFHandler"** %this.addr, metadata !12494, metadata !DIExpression()), !dbg !12495
  store i32 %level, i32* %level.addr, align 4
  call void @llvm.dbg.declare(metadata i32* %level.addr, metadata !12496, metadata !DIExpression()), !dbg !12497
  %this1 = load %"class.dealii::MGDoFHandler"*, %"class.dealii::MGDoFHandler"** %this.addr, align 8
  call void @llvm.dbg.declare(metadata %"class.dealii::TriaRawIterator"* %ri, metadata !12498, metadata !DIExpression()), !dbg !12499
  %1 = load i32, i32* %level.addr, align 4, !dbg !12500
  call void @_ZNK6dealii12MGDoFHandlerILi3ELi3EE13begin_raw_hexEj(%"class.dealii::TriaRawIterator"* sret %ri, %"class.dealii::MGDoFHandler"* %this1, i32 %1), !dbg !12501
  %call = call i32 @_ZNK6dealii15TriaRawIteratorINS_17MGDoFCellAccessorILi3ELi3EEEE5stateEv(%"class.dealii::TriaRawIterator"* %ri), !dbg !12502
  %cmp = icmp ne i32 %call, 0, !dbg !12504
  br i1 %cmp, label %if.then, label %if.end, !dbg !12505

if.then:                                          ; preds = %entry
  call void @_ZN6dealii12TriaIteratorINS_17MGDoFCellAccessorILi3ELi3EEEEC2ERKNS_15TriaRawIteratorIS2_EE(%"class.dealii::TriaIterator"* %agg.result, %"class.dealii::TriaRawIterator"* dereferenceable(32) %ri), !dbg !12506
  br label %return, !dbg !12507

if.end:                                           ; preds = %entry
  br label %while.cond, !dbg !12508

while.cond:                                       ; preds = %if.end9, %if.end
  %call2 = call %"class.dealii::MGDoFCellAccessor"* @_ZN6dealii15TriaRawIteratorINS_17MGDoFCellAccessorILi3ELi3EEEEptEv(%"class.dealii::TriaRawIterator"* %ri), !dbg !12509
  %2 = bitcast %"class.dealii::MGDoFCellAccessor"* %call2 to %"class.dealii::TriaAccessor"*, !dbg !12510
  %call3 = call zeroext i1 @_ZNK6dealii12TriaAccessorILi3ELi3ELi3EE4usedEv(%"class.dealii::TriaAccessor"* %2), !dbg !12510
  %conv = zext i1 %call3 to i32, !dbg !12509
  %cmp4 = icmp eq i32 %conv, 0, !dbg !12511
  br i1 %cmp4, label %while.body, label %while.end, !dbg !12508

while.body:                                       ; preds = %while.cond
  %call5 = call dereferenceable(32) %"class.dealii::TriaRawIterator"* @_ZN6dealii15TriaRawIteratorINS_17MGDoFCellAccessorILi3ELi3EEEEppEv(%"class.dealii::TriaRawIterator"* %ri), !dbg !12512
  %call6 = call i32 @_ZNK6dealii15TriaRawIteratorINS_17MGDoFCellAccessorILi3ELi3EEEE5stateEv(%"class.dealii::TriaRawIterator"* %call5), !dbg !12514
  %cmp7 = icmp ne i32 %call6, 0, !dbg !12515
  br i1 %cmp7, label %if.then8, label %if.end9, !dbg !12516

if.then8:                                         ; preds = %while.body
  call void @_ZN6dealii12TriaIteratorINS_17MGDoFCellAccessorILi3ELi3EEEEC2ERKNS_15TriaRawIteratorIS2_EE(%"class.dealii::TriaIterator"* %agg.result, %"class.dealii::TriaRawIterator"* dereferenceable(32) %ri), !dbg !12517
  br label %return, !dbg !12518

if.end9:                                          ; preds = %while.body
  br label %while.cond, !dbg !12508, !llvm.loop !12519

while.end:                                        ; preds = %while.cond
  call void @_ZN6dealii12TriaIteratorINS_17MGDoFCellAccessorILi3ELi3EEEEC2ERKNS_15TriaRawIteratorIS2_EE(%"class.dealii::TriaIterator"* %agg.result, %"class.dealii::TriaRawIterator"* dereferenceable(32) %ri), !dbg !12521
  br label %return, !dbg !12522

return:                                           ; preds = %while.end, %if.then8, %if.then
  ret void, !dbg !12523
}

; Function Attrs: noinline uwtable
define weak_odr dso_local void @_ZNK6dealii12MGDoFHandlerILi3ELi3EE12begin_activeEj(%"class.dealii::TriaActiveIterator"* noalias sret %agg.result, %"class.dealii::MGDoFHandler"* %this, i32 %level) #0 comdat align 2 !dbg !12524 {
entry:
  %result.ptr = alloca i8*, align 8
  %this.addr = alloca %"class.dealii::MGDoFHandler"*, align 8
  %level.addr = alloca i32, align 4
  %0 = bitcast %"class.dealii::TriaActiveIterator"* %agg.result to i8*
  store i8* %0, i8** %result.ptr, align 8
  store %"class.dealii::MGDoFHandler"* %this, %"class.dealii::MGDoFHandler"** %this.addr, align 8
  call void @llvm.dbg.declare(metadata %"class.dealii::MGDoFHandler"** %this.addr, metadata !12525, metadata !DIExpression()), !dbg !12526
  store i32 %level, i32* %level.addr, align 4
  call void @llvm.dbg.declare(metadata i32* %level.addr, metadata !12527, metadata !DIExpression()), !dbg !12528
  %this1 = load %"class.dealii::MGDoFHandler"*, %"class.dealii::MGDoFHandler"** %this.addr, align 8
  %1 = load i32, i32* %level.addr, align 4, !dbg !12529
  call void @_ZNK6dealii12MGDoFHandlerILi3ELi3EE16begin_active_hexEj(%"class.dealii::TriaActiveIterator"* sret %agg.result, %"class.dealii::MGDoFHandler"* %this1, i32 %1), !dbg !12530
  ret void, !dbg !12531
}

; Function Attrs: noinline uwtable
define weak_odr dso_local void @_ZNK6dealii12MGDoFHandlerILi3ELi3EE16begin_active_hexEj(%"class.dealii::TriaActiveIterator"* noalias sret %agg.result, %"class.dealii::MGDoFHandler"* %this, i32 %level) #0 comdat align 2 !dbg !12532 {
entry:
  %result.ptr = alloca i8*, align 8
  %this.addr = alloca %"class.dealii::MGDoFHandler"*, align 8
  %level.addr = alloca i32, align 4
  %i = alloca %"class.dealii::TriaIterator", align 8
  %0 = bitcast %"class.dealii::TriaActiveIterator"* %agg.result to i8*
  store i8* %0, i8** %result.ptr, align 8
  store %"class.dealii::MGDoFHandler"* %this, %"class.dealii::MGDoFHandler"** %this.addr, align 8
  call void @llvm.dbg.declare(metadata %"class.dealii::MGDoFHandler"** %this.addr, metadata !12533, metadata !DIExpression()), !dbg !12534
  store i32 %level, i32* %level.addr, align 4
  call void @llvm.dbg.declare(metadata i32* %level.addr, metadata !12535, metadata !DIExpression()), !dbg !12536
  %this1 = load %"class.dealii::MGDoFHandler"*, %"class.dealii::MGDoFHandler"** %this.addr, align 8
  call void @llvm.dbg.declare(metadata %"class.dealii::TriaIterator"* %i, metadata !12537, metadata !DIExpression()), !dbg !12538
  %1 = load i32, i32* %level.addr, align 4, !dbg !12539
  call void @_ZNK6dealii12MGDoFHandlerILi3ELi3EE9begin_hexEj(%"class.dealii::TriaIterator"* sret %i, %"class.dealii::MGDoFHandler"* %this1, i32 %1), !dbg !12540
  %2 = bitcast %"class.dealii::TriaIterator"* %i to %"class.dealii::TriaRawIterator"*, !dbg !12541
  %call = call i32 @_ZNK6dealii15TriaRawIteratorINS_17MGDoFCellAccessorILi3ELi3EEEE5stateEv(%"class.dealii::TriaRawIterator"* %2), !dbg !12543
  %cmp = icmp ne i32 %call, 0, !dbg !12544
  br i1 %cmp, label %if.then, label %if.end, !dbg !12545

if.then:                                          ; preds = %entry
  call void @_ZN6dealii18TriaActiveIteratorINS_17MGDoFCellAccessorILi3ELi3EEEEC2ERKNS_12TriaIteratorIS2_EE(%"class.dealii::TriaActiveIterator"* %agg.result, %"class.dealii::TriaIterator"* dereferenceable(32) %i), !dbg !12546
  br label %return, !dbg !12547

if.end:                                           ; preds = %entry
  br label %while.cond, !dbg !12548

while.cond:                                       ; preds = %if.end8, %if.end
  %3 = bitcast %"class.dealii::TriaIterator"* %i to %"class.dealii::TriaRawIterator"*, !dbg !12549
  %call2 = call %"class.dealii::MGDoFCellAccessor"* @_ZN6dealii15TriaRawIteratorINS_17MGDoFCellAccessorILi3ELi3EEEEptEv(%"class.dealii::TriaRawIterator"* %3), !dbg !12549
  %4 = bitcast %"class.dealii::MGDoFCellAccessor"* %call2 to %"class.dealii::TriaAccessor"*, !dbg !12550
  %call3 = call zeroext i1 @_ZNK6dealii12TriaAccessorILi3ELi3ELi3EE12has_childrenEv(%"class.dealii::TriaAccessor"* %4), !dbg !12550
  br i1 %call3, label %while.body, label %while.end, !dbg !12548

while.body:                                       ; preds = %while.cond
  %call4 = call dereferenceable(32) %"class.dealii::TriaIterator"* @_ZN6dealii12TriaIteratorINS_17MGDoFCellAccessorILi3ELi3EEEEppEv(%"class.dealii::TriaIterator"* %i), !dbg !12551
  %5 = bitcast %"class.dealii::TriaIterator"* %call4 to %"class.dealii::TriaRawIterator"*, !dbg !12553
  %call5 = call i32 @_ZNK6dealii15TriaRawIteratorINS_17MGDoFCellAccessorILi3ELi3EEEE5stateEv(%"class.dealii::TriaRawIterator"* %5), !dbg !12554
  %cmp6 = icmp ne i32 %call5, 0, !dbg !12555
  br i1 %cmp6, label %if.then7, label %if.end8, !dbg !12556

if.then7:                                         ; preds = %while.body
  call void @_ZN6dealii18TriaActiveIteratorINS_17MGDoFCellAccessorILi3ELi3EEEEC2ERKNS_12TriaIteratorIS2_EE(%"class.dealii::TriaActiveIterator"* %agg.result, %"class.dealii::TriaIterator"* dereferenceable(32) %i), !dbg !12557
  br label %return, !dbg !12558

if.end8:                                          ; preds = %while.body
  br label %while.cond, !dbg !12548, !llvm.loop !12559

while.end:                                        ; preds = %while.cond
  call void @_ZN6dealii18TriaActiveIteratorINS_17MGDoFCellAccessorILi3ELi3EEEEC2ERKNS_12TriaIteratorIS2_EE(%"class.dealii::TriaActiveIterator"* %agg.result, %"class.dealii::TriaIterator"* dereferenceable(32) %i), !dbg !12561
  br label %return, !dbg !12562

return:                                           ; preds = %while.end, %if.then7, %if.then
  ret void, !dbg !12563
}

; Function Attrs: noinline uwtable
define weak_odr dso_local void @_ZNK6dealii12MGDoFHandlerILi3ELi3EE3endEv(%"class.dealii::TriaRawIterator"* noalias sret %agg.result, %"class.dealii::MGDoFHandler"* %this) #0 comdat align 2 !dbg !12564 {
entry:
  %result.ptr = alloca i8*, align 8
  %this.addr = alloca %"class.dealii::MGDoFHandler"*, align 8
  %0 = bitcast %"class.dealii::TriaRawIterator"* %agg.result to i8*
  store i8* %0, i8** %result.ptr, align 8
  store %"class.dealii::MGDoFHandler"* %this, %"class.dealii::MGDoFHandler"** %this.addr, align 8
  call void @llvm.dbg.declare(metadata %"class.dealii::MGDoFHandler"** %this.addr, metadata !12565, metadata !DIExpression()), !dbg !12566
  %this1 = load %"class.dealii::MGDoFHandler"*, %"class.dealii::MGDoFHandler"** %this.addr, align 8
  call void @_ZNK6dealii12MGDoFHandlerILi3ELi3EE7end_hexEv(%"class.dealii::TriaRawIterator"* sret %agg.result, %"class.dealii::MGDoFHandler"* %this1), !dbg !12567
  ret void, !dbg !12568
}

; Function Attrs: noinline uwtable
define weak_odr dso_local void @_ZNK6dealii12MGDoFHandlerILi3ELi3EE7end_hexEv(%"class.dealii::TriaRawIterator"* noalias sret %agg.result, %"class.dealii::MGDoFHandler"* %this) #0 comdat align 2 !dbg !12569 {
entry:
  %result.ptr = alloca i8*, align 8
  %this.addr = alloca %"class.dealii::MGDoFHandler"*, align 8
  %0 = bitcast %"class.dealii::TriaRawIterator"* %agg.result to i8*
  store i8* %0, i8** %result.ptr, align 8
  store %"class.dealii::MGDoFHandler"* %this, %"class.dealii::MGDoFHandler"** %this.addr, align 8
  call void @llvm.dbg.declare(metadata %"class.dealii::MGDoFHandler"** %this.addr, metadata !12570, metadata !DIExpression()), !dbg !12571
  %this1 = load %"class.dealii::MGDoFHandler"*, %"class.dealii::MGDoFHandler"** %this.addr, align 8
  %1 = bitcast %"class.dealii::MGDoFHandler"* %this1 to %"class.dealii::DoFHandler"*, !dbg !12572
  %tria = getelementptr inbounds %"class.dealii::DoFHandler", %"class.dealii::DoFHandler"* %1, i32 0, i32 1, !dbg !12572
  %call = call %"class.dealii::Triangulation"* @_ZNK6dealii12SmartPointerIKNS_13TriangulationILi3ELi3EEEEcvPS3_Ev(%"class.dealii::SmartPointer"* %tria), !dbg !12573
  call void @_ZN6dealii15TriaRawIteratorINS_17MGDoFCellAccessorILi3ELi3EEEEC2EPKNS_13TriangulationILi3ELi3EEEiiPKNS_12MGDoFHandlerILi3ELi3EEE(%"class.dealii::TriaRawIterator"* %agg.result, %"class.dealii::Triangulation"* %call, i32 -1, i32 -1, %"class.dealii::MGDoFHandler"* %this1), !dbg !12574
  ret void, !dbg !12575
}

; Function Attrs: noinline uwtable
define linkonce_odr dso_local void @_ZN6dealii12TriaIteratorINS_17MGDoFCellAccessorILi3ELi3EEEEC2ERKNS_15TriaRawIteratorIS2_EE(%"class.dealii::TriaIterator"* %this, %"class.dealii::TriaRawIterator"* dereferenceable(32) %i) unnamed_addr #0 comdat align 2 !dbg !12576 {
entry:
  %this.addr = alloca %"class.dealii::TriaIterator"*, align 8
  %i.addr = alloca %"class.dealii::TriaRawIterator"*, align 8
  store %"class.dealii::TriaIterator"* %this, %"class.dealii::TriaIterator"** %this.addr, align 8
  call void @llvm.dbg.declare(metadata %"class.dealii::TriaIterator"** %this.addr, metadata !12577, metadata !DIExpression()), !dbg !12578
  store %"class.dealii::TriaRawIterator"* %i, %"class.dealii::TriaRawIterator"** %i.addr, align 8
  call void @llvm.dbg.declare(metadata %"class.dealii::TriaRawIterator"** %i.addr, metadata !12579, metadata !DIExpression()), !dbg !12580
  %this1 = load %"class.dealii::TriaIterator"*, %"class.dealii::TriaIterator"** %this.addr, align 8
  %0 = bitcast %"class.dealii::TriaIterator"* %this1 to %"class.dealii::TriaRawIterator"*, !dbg !12581
