; ModuleID = 'source/fe/fe_abf.cc'
source_filename = "source/fe/fe_abf.cc"
target datalayout = "e-m:e-p270:32:32-p271:32:32-p272:64:64-i64:64-f80:128-n8:16:32:64-S128"
target triple = "x86_64-unknown-linux-gnu"

%"struct.boost::arg" = type { i8 }
%"struct.boost::arg.0" = type { i8 }
%"struct.boost::arg.2" = type { i8 }
%"struct.boost::arg.4" = type { i8 }
%"struct.boost::arg.6" = type { i8 }
%"struct.boost::arg.8" = type { i8 }
%"struct.boost::arg.10" = type { i8 }
%"struct.boost::arg.12" = type { i8 }
%"struct.boost::arg.14" = type { i8 }
%"class.std::ios_base::Init" = type { i8 }
%"class.dealii::FE_ABF" = type { %"class.dealii::FE_PolyTensor", i32, [4 x i8], %"class.dealii::Table", %"class.dealii::Table.104", %"class.dealii::Table", %"class.dealii::Table.104" }
%"class.dealii::FE_PolyTensor" = type { %"class.dealii::FiniteElement", i32, %"class.dealii::PolynomialsABF", %"class.dealii::FullMatrix", %"class.dealii::Point", %"class.std::vector.87", %"class.std::vector.92", %"class.std::vector.98" }
%"class.dealii::FiniteElement" = type { %"class.dealii::Subscriptor", %"class.dealii::FiniteElementData", i8, %"class.std::vector", %"class.std::vector", %"class.dealii::FullMatrix", %"class.std::vector.24", %"class.std::vector.29", %"class.std::vector.24", %"class.std::vector.29", %"class.dealii::Table.36", %"class.std::vector.40", %"class.std::vector.45", %"class.std::vector.45", %"class.std::vector.50", %"class.std::vector.50", %"class.std::vector.58", %"class.std::vector.50", %"class.std::vector.63", %"class.std::vector.67", %"class.std::vector.58" }
%"class.dealii::Subscriptor" = type { i32 (...)**, i32, %"class.std::map", %"class.std::type_info"* }
%"class.std::map" = type { %"class.std::_Rb_tree" }
%"class.std::_Rb_tree" = type { %"struct.std::_Rb_tree<const char *, std::pair<const char *const, unsigned int>, std::_Select1st<std::pair<const char *const, unsigned int> >, std::less<const char *>, std::allocator<std::pair<const char *const, unsigned int> > >::_Rb_tree_impl" }
%"struct.std::_Rb_tree<const char *, std::pair<const char *const, unsigned int>, std::_Select1st<std::pair<const char *const, unsigned int> >, std::less<const char *>, std::allocator<std::pair<const char *const, unsigned int> > >::_Rb_tree_impl" = type { %"struct.std::_Rb_tree_key_compare", %"struct.std::_Rb_tree_header" }
%"struct.std::_Rb_tree_key_compare" = type { %"struct.std::less" }
%"struct.std::less" = type { i8 }
%"struct.std::_Rb_tree_header" = type { %"struct.std::_Rb_tree_node_base", i64 }
%"struct.std::_Rb_tree_node_base" = type { i32, %"struct.std::_Rb_tree_node_base"*, %"struct.std::_Rb_tree_node_base"*, %"struct.std::_Rb_tree_node_base"* }
%"class.std::type_info" = type { i32 (...)**, i8* }
%"class.dealii::FiniteElementData" = type { i32, i32, i32, i32, i32, i32, i32, i32, i32, i32, i32, i32, i32, i32, i32 }
%"class.std::vector" = type { %"struct.std::_Vector_base" }
%"struct.std::_Vector_base" = type { %"struct.std::_Vector_base<std::vector<dealii::FullMatrix<double>, std::allocator<dealii::FullMatrix<double> > >, std::allocator<std::vector<dealii::FullMatrix<double>, std::allocator<dealii::FullMatrix<double> > > > >::_Vector_impl" }
%"struct.std::_Vector_base<std::vector<dealii::FullMatrix<double>, std::allocator<dealii::FullMatrix<double> > >, std::allocator<std::vector<dealii::FullMatrix<double>, std::allocator<dealii::FullMatrix<double> > > > >::_Vector_impl" = type { %"struct.std::_Vector_base<std::vector<dealii::FullMatrix<double>, std::allocator<dealii::FullMatrix<double> > >, std::allocator<std::vector<dealii::FullMatrix<double>, std::allocator<dealii::FullMatrix<double> > > > >::_Vector_impl_data" }
%"struct.std::_Vector_base<std::vector<dealii::FullMatrix<double>, std::allocator<dealii::FullMatrix<double> > >, std::allocator<std::vector<dealii::FullMatrix<double>, std::allocator<dealii::FullMatrix<double> > > > >::_Vector_impl_data" = type { %"class.std::vector.19"*, %"class.std::vector.19"*, %"class.std::vector.19"* }
%"class.std::vector.19" = type { %"struct.std::_Vector_base.20" }
%"struct.std::_Vector_base.20" = type { %"struct.std::_Vector_base<dealii::FullMatrix<double>, std::allocator<dealii::FullMatrix<double> > >::_Vector_impl" }
%"struct.std::_Vector_base<dealii::FullMatrix<double>, std::allocator<dealii::FullMatrix<double> > >::_Vector_impl" = type { %"struct.std::_Vector_base<dealii::FullMatrix<double>, std::allocator<dealii::FullMatrix<double> > >::_Vector_impl_data" }
%"struct.std::_Vector_base<dealii::FullMatrix<double>, std::allocator<dealii::FullMatrix<double> > >::_Vector_impl_data" = type { %"class.dealii::FullMatrix"*, %"class.dealii::FullMatrix"*, %"class.dealii::FullMatrix"* }
%"class.std::vector.24" = type { %"struct.std::_Vector_base.25" }
%"struct.std::_Vector_base.25" = type { %"struct.std::_Vector_base<dealii::Point<3>, std::allocator<dealii::Point<3> > >::_Vector_impl" }
%"struct.std::_Vector_base<dealii::Point<3>, std::allocator<dealii::Point<3> > >::_Vector_impl" = type { %"struct.std::_Vector_base<dealii::Point<3>, std::allocator<dealii::Point<3> > >::_Vector_impl_data" }
%"struct.std::_Vector_base<dealii::Point<3>, std::allocator<dealii::Point<3> > >::_Vector_impl_data" = type { %"class.dealii::Point"*, %"class.dealii::Point"*, %"class.dealii::Point"* }
%"class.std::vector.29" = type { %"struct.std::_Vector_base.30" }
%"struct.std::_Vector_base.30" = type { %"struct.std::_Vector_base<dealii::Point<2>, std::allocator<dealii::Point<2> > >::_Vector_impl" }
%"struct.std::_Vector_base<dealii::Point<2>, std::allocator<dealii::Point<2> > >::_Vector_impl" = type { %"struct.std::_Vector_base<dealii::Point<2>, std::allocator<dealii::Point<2> > >::_Vector_impl_data" }
%"struct.std::_Vector_base<dealii::Point<2>, std::allocator<dealii::Point<2> > >::_Vector_impl_data" = type { %"class.dealii::Point.34"*, %"class.dealii::Point.34"*, %"class.dealii::Point.34"* }
%"class.dealii::Point.34" = type { %"class.dealii::Tensor.35" }
%"class.dealii::Tensor.35" = type { [2 x double] }
%"class.dealii::Table.36" = type { %"class.dealii::TableBase.base.38", [4 x i8] }
%"class.dealii::TableBase.base.38" = type <{ %"class.dealii::Subscriptor", i32*, i32, %"class.dealii::TableIndices" }>
%"class.dealii::TableIndices" = type { %"class.dealii::TableIndicesBase" }
%"class.dealii::TableIndicesBase" = type { [2 x i32] }
%"class.std::vector.40" = type { %"struct.std::_Vector_base.41" }
%"struct.std::_Vector_base.41" = type { %"struct.std::_Vector_base<int, std::allocator<int> >::_Vector_impl" }
%"struct.std::_Vector_base<int, std::allocator<int> >::_Vector_impl" = type { %"struct.std::_Vector_base<int, std::allocator<int> >::_Vector_impl_data" }
%"struct.std::_Vector_base<int, std::allocator<int> >::_Vector_impl_data" = type { i32*, i32*, i32* }
%"class.std::vector.45" = type { %"struct.std::_Vector_base.46" }
%"struct.std::_Vector_base.46" = type { %"struct.std::_Vector_base<std::pair<unsigned int, unsigned int>, std::allocator<std::pair<unsigned int, unsigned int> > >::_Vector_impl" }
%"struct.std::_Vector_base<std::pair<unsigned int, unsigned int>, std::allocator<std::pair<unsigned int, unsigned int> > >::_Vector_impl" = type { %"struct.std::_Vector_base<std::pair<unsigned int, unsigned int>, std::allocator<std::pair<unsigned int, unsigned int> > >::_Vector_impl_data" }
%"struct.std::_Vector_base<std::pair<unsigned int, unsigned int>, std::allocator<std::pair<unsigned int, unsigned int> > >::_Vector_impl_data" = type { %"struct.std::pair"*, %"struct.std::pair"*, %"struct.std::pair"* }
%"struct.std::pair" = type { i32, i32 }
%"class.std::vector.50" = type { %"struct.std::_Vector_base.51" }
%"struct.std::_Vector_base.51" = type { %"struct.std::_Vector_base<std::pair<std::pair<unsigned int, unsigned int>, unsigned int>, std::allocator<std::pair<std::pair<unsigned int, unsigned int>, unsigned int> > >::_Vector_impl" }
%"struct.std::_Vector_base<std::pair<std::pair<unsigned int, unsigned int>, unsigned int>, std::allocator<std::pair<std::pair<unsigned int, unsigned int>, unsigned int> > >::_Vector_impl" = type { %"struct.std::_Vector_base<std::pair<std::pair<unsigned int, unsigned int>, unsigned int>, std::allocator<std::pair<std::pair<unsigned int, unsigned int>, unsigned int> > >::_Vector_impl_data" }
%"struct.std::_Vector_base<std::pair<std::pair<unsigned int, unsigned int>, unsigned int>, std::allocator<std::pair<std::pair<unsigned int, unsigned int>, unsigned int> > >::_Vector_impl_data" = type { %"struct.std::pair.55"*, %"struct.std::pair.55"*, %"struct.std::pair.55"* }
%"struct.std::pair.55" = type { %"struct.std::pair", i32 }
%"class.std::vector.63" = type { %"struct.std::_Bvector_base" }
%"struct.std::_Bvector_base" = type { %"struct.std::_Bvector_base<std::allocator<bool> >::_Bvector_impl" }
%"struct.std::_Bvector_base<std::allocator<bool> >::_Bvector_impl" = type { %"struct.std::_Bvector_base<std::allocator<bool> >::_Bvector_impl_data" }
%"struct.std::_Bvector_base<std::allocator<bool> >::_Bvector_impl_data" = type { %"struct.std::_Bit_iterator", %"struct.std::_Bit_iterator", i64* }
%"struct.std::_Bit_iterator" = type { %"struct.std::_Bit_iterator_base.base", [4 x i8] }
%"struct.std::_Bit_iterator_base.base" = type <{ i64*, i32 }>
%"class.std::vector.67" = type { %"struct.std::_Vector_base.68" }
%"struct.std::_Vector_base.68" = type { %"struct.std::_Vector_base<std::vector<bool, std::allocator<bool> >, std::allocator<std::vector<bool, std::allocator<bool> > > >::_Vector_impl" }
%"struct.std::_Vector_base<std::vector<bool, std::allocator<bool> >, std::allocator<std::vector<bool, std::allocator<bool> > > >::_Vector_impl" = type { %"struct.std::_Vector_base<std::vector<bool, std::allocator<bool> >, std::allocator<std::vector<bool, std::allocator<bool> > > >::_Vector_impl_data" }
%"struct.std::_Vector_base<std::vector<bool, std::allocator<bool> >, std::allocator<std::vector<bool, std::allocator<bool> > > >::_Vector_impl_data" = type { %"class.std::vector.63"*, %"class.std::vector.63"*, %"class.std::vector.63"* }
%"class.std::vector.58" = type { %"struct.std::_Vector_base.59" }
%"struct.std::_Vector_base.59" = type { %"struct.std::_Vector_base<unsigned int, std::allocator<unsigned int> >::_Vector_impl" }
%"struct.std::_Vector_base<unsigned int, std::allocator<unsigned int> >::_Vector_impl" = type { %"struct.std::_Vector_base<unsigned int, std::allocator<unsigned int> >::_Vector_impl_data" }
%"struct.std::_Vector_base<unsigned int, std::allocator<unsigned int> >::_Vector_impl_data" = type { i32*, i32*, i32* }
%"class.dealii::PolynomialsABF" = type { i32, %"class.dealii::AnisotropicPolynomials"*, i32, %"class.std::vector.82", %"class.std::vector.87", %"class.std::vector.92" }
%"class.dealii::AnisotropicPolynomials" = type <{ %"class.std::vector.72", i32, [4 x i8] }>
%"class.std::vector.72" = type { %"struct.std::_Vector_base.73" }
%"struct.std::_Vector_base.73" = type { %"struct.std::_Vector_base<std::vector<dealii::Polynomials::Polynomial<double>, std::allocator<dealii::Polynomials::Polynomial<double> > >, std::allocator<std::vector<dealii::Polynomials::Polynomial<double>, std::allocator<dealii::Polynomials::Polynomial<double> > > > >::_Vector_impl" }
%"struct.std::_Vector_base<std::vector<dealii::Polynomials::Polynomial<double>, std::allocator<dealii::Polynomials::Polynomial<double> > >, std::allocator<std::vector<dealii::Polynomials::Polynomial<double>, std::allocator<dealii::Polynomials::Polynomial<double> > > > >::_Vector_impl" = type { %"struct.std::_Vector_base<std::vector<dealii::Polynomials::Polynomial<double>, std::allocator<dealii::Polynomials::Polynomial<double> > >, std::allocator<std::vector<dealii::Polynomials::Polynomial<double>, std::allocator<dealii::Polynomials::Polynomial<double> > > > >::_Vector_impl_data" }
%"struct.std::_Vector_base<std::vector<dealii::Polynomials::Polynomial<double>, std::allocator<dealii::Polynomials::Polynomial<double> > >, std::allocator<std::vector<dealii::Polynomials::Polynomial<double>, std::allocator<dealii::Polynomials::Polynomial<double> > > > >::_Vector_impl_data" = type { %"class.std::vector.77"*, %"class.std::vector.77"*, %"class.std::vector.77"* }
%"class.std::vector.77" = type { %"struct.std::_Vector_base.78" }
%"struct.std::_Vector_base.78" = type { %"struct.std::_Vector_base<dealii::Polynomials::Polynomial<double>, std::allocator<dealii::Polynomials::Polynomial<double> > >::_Vector_impl" }
%"struct.std::_Vector_base<dealii::Polynomials::Polynomial<double>, std::allocator<dealii::Polynomials::Polynomial<double> > >::_Vector_impl" = type { %"struct.std::_Vector_base<dealii::Polynomials::Polynomial<double>, std::allocator<dealii::Polynomials::Polynomial<double> > >::_Vector_impl_data" }
%"struct.std::_Vector_base<dealii::Polynomials::Polynomial<double>, std::allocator<dealii::Polynomials::Polynomial<double> > >::_Vector_impl_data" = type { %"class.dealii::Polynomials::Polynomial"*, %"class.dealii::Polynomials::Polynomial"*, %"class.dealii::Polynomials::Polynomial"* }
%"class.dealii::Polynomials::Polynomial" = type { %"class.dealii::Subscriptor", %"class.std::vector.82" }
%"class.std::vector.82" = type { %"struct.std::_Vector_base.83" }
%"struct.std::_Vector_base.83" = type { %"struct.std::_Vector_base<double, std::allocator<double> >::_Vector_impl" }
%"struct.std::_Vector_base<double, std::allocator<double> >::_Vector_impl" = type { %"struct.std::_Vector_base<double, std::allocator<double> >::_Vector_impl_data" }
%"struct.std::_Vector_base<double, std::allocator<double> >::_Vector_impl_data" = type { double*, double*, double* }
%"class.dealii::FullMatrix" = type { %"class.dealii::Table.base", [4 x i8] }
%"class.dealii::Table.base" = type { %"class.dealii::TableBase.base" }
%"class.dealii::TableBase.base" = type <{ %"class.dealii::Subscriptor", double*, i32, %"class.dealii::TableIndices" }>
%"class.dealii::Point" = type { %"class.dealii::Tensor" }
%"class.dealii::Tensor" = type { [3 x double] }
%"class.std::vector.87" = type { %"struct.std::_Vector_base.88" }
%"struct.std::_Vector_base.88" = type { %"struct.std::_Vector_base<dealii::Tensor<1, 3>, std::allocator<dealii::Tensor<1, 3> > >::_Vector_impl" }
%"struct.std::_Vector_base<dealii::Tensor<1, 3>, std::allocator<dealii::Tensor<1, 3> > >::_Vector_impl" = type { %"struct.std::_Vector_base<dealii::Tensor<1, 3>, std::allocator<dealii::Tensor<1, 3> > >::_Vector_impl_data" }
%"struct.std::_Vector_base<dealii::Tensor<1, 3>, std::allocator<dealii::Tensor<1, 3> > >::_Vector_impl_data" = type { %"class.dealii::Tensor"*, %"class.dealii::Tensor"*, %"class.dealii::Tensor"* }
%"class.std::vector.92" = type { %"struct.std::_Vector_base.93" }
%"struct.std::_Vector_base.93" = type { %"struct.std::_Vector_base<dealii::Tensor<2, 3>, std::allocator<dealii::Tensor<2, 3> > >::_Vector_impl" }
%"struct.std::_Vector_base<dealii::Tensor<2, 3>, std::allocator<dealii::Tensor<2, 3> > >::_Vector_impl" = type { %"struct.std::_Vector_base<dealii::Tensor<2, 3>, std::allocator<dealii::Tensor<2, 3> > >::_Vector_impl_data" }
%"struct.std::_Vector_base<dealii::Tensor<2, 3>, std::allocator<dealii::Tensor<2, 3> > >::_Vector_impl_data" = type { %"class.dealii::Tensor.97"*, %"class.dealii::Tensor.97"*, %"class.dealii::Tensor.97"* }
%"class.dealii::Tensor.97" = type { [3 x %"class.dealii::Tensor"] }
%"class.std::vector.98" = type { %"struct.std::_Vector_base.99" }
%"struct.std::_Vector_base.99" = type { %"struct.std::_Vector_base<dealii::Tensor<3, 3>, std::allocator<dealii::Tensor<3, 3> > >::_Vector_impl" }
%"struct.std::_Vector_base<dealii::Tensor<3, 3>, std::allocator<dealii::Tensor<3, 3> > >::_Vector_impl" = type { %"struct.std::_Vector_base<dealii::Tensor<3, 3>, std::allocator<dealii::Tensor<3, 3> > >::_Vector_impl_data" }
%"struct.std::_Vector_base<dealii::Tensor<3, 3>, std::allocator<dealii::Tensor<3, 3> > >::_Vector_impl_data" = type { %"class.dealii::Tensor.103"*, %"class.dealii::Tensor.103"*, %"class.dealii::Tensor.103"* }
%"class.dealii::Tensor.103" = type { [3 x %"class.dealii::Tensor.97"] }
%"class.dealii::Table" = type { %"class.dealii::TableBase.base", [4 x i8] }
%"class.dealii::Table.104" = type { %"class.dealii::TableBase.105" }
%"class.dealii::TableBase.105" = type { %"class.dealii::Subscriptor", double*, i32, %"class.dealii::TableIndices.106" }
%"class.dealii::TableIndices.106" = type { %"class.dealii::TableIndicesBase.107" }
%"class.dealii::TableIndicesBase.107" = type { [3 x i32] }
%"class.std::allocator.108" = type { i8 }
%"class.std::allocator.69" = type { i8 }
%"class.std::allocator.21" = type { i8 }
%"class.std::allocator.60" = type { i8 }
%"class.__gnu_cxx::new_allocator.109" = type { i8 }
%"class.__gnu_cxx::new_allocator.70" = type { i8 }
%"class.dealii::TableBase" = type <{ %"class.dealii::Subscriptor", double*, i32, %"class.dealii::TableIndices", [4 x i8] }>
%"class.dealii::QGauss" = type { %"class.dealii::Quadrature" }
%"class.dealii::Quadrature" = type { %"class.dealii::Subscriptor", i32, %"class.std::vector.24", %"class.std::vector.82" }
%"class.std::vector.128" = type { %"struct.std::_Vector_base.129" }
%"struct.std::_Vector_base.129" = type { %"struct.std::_Vector_base<dealii::AnisotropicPolynomials<3> *, std::allocator<dealii::AnisotropicPolynomials<3> *> >::_Vector_impl" }
%"struct.std::_Vector_base<dealii::AnisotropicPolynomials<3> *, std::allocator<dealii::AnisotropicPolynomials<3> *> >::_Vector_impl" = type { %"struct.std::_Vector_base<dealii::AnisotropicPolynomials<3> *, std::allocator<dealii::AnisotropicPolynomials<3> *> >::_Vector_impl_data" }
%"struct.std::_Vector_base<dealii::AnisotropicPolynomials<3> *, std::allocator<dealii::AnisotropicPolynomials<3> *> >::_Vector_impl_data" = type { %"class.dealii::AnisotropicPolynomials"**, %"class.dealii::AnisotropicPolynomials"**, %"class.dealii::AnisotropicPolynomials"** }
%"class.std::allocator.130" = type { i8 }
%"class.std::allocator.74" = type { i8 }
%"class.dealii::Polynomials::Monomial" = type { %"class.dealii::Polynomials::Polynomial" }
%"class.dealii::QGauss.133" = type { %"class.dealii::Quadrature.134" }
%"class.dealii::Quadrature.134" = type { %"class.dealii::Subscriptor", i32, %"class.std::vector.29", %"class.std::vector.82" }
%"class.dealii::TensorProductPolynomials" = type { %"class.std::vector.77", i32, %"class.std::vector.58", %"class.std::vector.58" }
%"class.dealii::RefinementCase.119" = type { i8 }
%"class.dealii::RefinementCase" = type { i8 }
%"class.__gnu_cxx::new_allocator.22" = type { i8 }
%"class.std::__cxx11::basic_string" = type { %"struct.std::__cxx11::basic_string<char, std::char_traits<char>, std::allocator<char> >::_Alloc_hider", i64, %union.anon }
%"struct.std::__cxx11::basic_string<char, std::char_traits<char>, std::allocator<char> >::_Alloc_hider" = type { i8* }
%union.anon = type { i64, [8 x i8] }
%"class.std::__cxx11::basic_ostringstream" = type { %"class.std::basic_ostream.base", %"class.std::__cxx11::basic_stringbuf", %"class.std::basic_ios" }
%"class.std::basic_ostream.base" = type { i32 (...)** }
%"class.std::__cxx11::basic_stringbuf" = type { %"class.std::basic_streambuf", i32, %"class.std::__cxx11::basic_string" }
%"class.std::basic_streambuf" = type { i32 (...)**, i8*, i8*, i8*, i8*, i8*, i8*, %"class.std::locale" }
%"class.std::locale" = type { %"class.std::locale::_Impl"* }
%"class.std::locale::_Impl" = type { i32, %"class.std::locale::facet"**, i64, %"class.std::locale::facet"**, i8** }
%"class.std::locale::facet" = type <{ i32 (...)**, i32, [4 x i8] }>
%"class.std::basic_ios" = type { %"class.std::ios_base", %"class.std::basic_ostream"*, i8, i8, %"class.std::basic_streambuf"*, %"class.std::ctype"*, %"class.std::num_put"*, %"class.std::num_get"* }
%"class.std::ios_base" = type { i32 (...)**, i64, i64, i32, i32, i32, %"struct.std::ios_base::_Callback_list"*, %"struct.std::ios_base::_Words", [8 x %"struct.std::ios_base::_Words"], i32, %"struct.std::ios_base::_Words"*, %"class.std::locale" }
%"struct.std::ios_base::_Callback_list" = type { %"struct.std::ios_base::_Callback_list"*, void (i32, %"class.std::ios_base"*, i32)*, i32, i32 }
%"struct.std::ios_base::_Words" = type { i8*, i64 }
%"class.std::basic_ostream" = type { i32 (...)**, %"class.std::basic_ios" }
%"class.std::ctype" = type <{ %"class.std::locale::facet.base", [4 x i8], %struct.__locale_struct*, i8, [7 x i8], i32*, i32*, i16*, i8, [256 x i8], [256 x i8], i8, [6 x i8] }>
%"class.std::locale::facet.base" = type <{ i32 (...)**, i32 }>
%struct.__locale_struct = type { [13 x %struct.__locale_data*], i16*, i32*, i32*, [13 x i8*] }
%struct.__locale_data = type opaque
%"class.std::num_put" = type { %"class.std::locale::facet.base", [4 x i8] }
%"class.std::num_get" = type { %"class.std::locale::facet.base", [4 x i8] }
%"class.std::vector.114" = type { %"struct.std::_Vector_base.115" }
%"struct.std::_Vector_base.115" = type { %"struct.std::_Vector_base<dealii::Vector<double>, std::allocator<dealii::Vector<double> > >::_Vector_impl" }
%"struct.std::_Vector_base<dealii::Vector<double>, std::allocator<dealii::Vector<double> > >::_Vector_impl" = type { %"struct.std::_Vector_base<dealii::Vector<double>, std::allocator<dealii::Vector<double> > >::_Vector_impl_data" }
%"struct.std::_Vector_base<dealii::Vector<double>, std::allocator<dealii::Vector<double> > >::_Vector_impl_data" = type { %"class.dealii::Vector"*, %"class.dealii::Vector"*, %"class.dealii::Vector"* }
%"class.dealii::Vector" = type { %"class.dealii::Subscriptor", i32, i32, double* }
%"class.__gnu_cxx::__normal_iterator" = type { double* }
%"class.dealii::QProjector<3>::DataSetDescriptor" = type { i32 }
%"class.dealii::VectorSlice" = type { %"class.std::vector.123"*, i32, i32 }
%"class.std::vector.123" = type { %"struct.std::_Vector_base.124" }
%"struct.std::_Vector_base.124" = type { %"struct.std::_Vector_base<std::vector<double, std::allocator<double> >, std::allocator<std::vector<double, std::allocator<double> > > >::_Vector_impl" }
%"struct.std::_Vector_base<std::vector<double, std::allocator<double> >, std::allocator<std::vector<double, std::allocator<double> > > >::_Vector_impl" = type { %"struct.std::_Vector_base<std::vector<double, std::allocator<double> >, std::allocator<std::vector<double, std::allocator<double> > > >::_Vector_impl_data" }
%"struct.std::_Vector_base<std::vector<double, std::allocator<double> >, std::allocator<std::vector<double, std::allocator<double> > > >::_Vector_impl_data" = type { %"class.std::vector.82"*, %"class.std::vector.82"*, %"class.std::vector.82"* }
%"class.__gnu_cxx::new_allocator.61" = type { i8 }
%"class.__gnu_cxx::new_allocator.131" = type { i8 }
%"class.__gnu_cxx::new_allocator.75" = type { i8 }
%"struct.std::integral_constant" = type { i8 }
%"class.std::allocator.79" = type { i8 }
%"class.__gnu_cxx::__normal_iterator.152" = type { %"class.dealii::Polynomials::Polynomial"* }
%"struct.dealii::RefinementPossibilities.120" = type { i8 }
%"struct.dealii::RefinementPossibilities" = type { i8 }
%"class.dealii::Mapping<3, 3>::InternalDataBase" = type <{ %"class.dealii::Subscriptor", i32, i32, i32, [4 x i8], %"class.std::vector.82", %"class.std::vector.24", %"class.std::vector.92", %"class.std::vector.92", i8, [7 x i8] }>
%"class.dealii::Mapping" = type { %"class.dealii::Subscriptor" }
%"class.dealii::TriaIterator" = type opaque
%"class.dealii::FEValuesData" = type opaque
%"class.dealii::FE_ABF<3>::InternalData" = type { %"class.dealii::FiniteElement<3, 3>::InternalDataBase", %"class.std::vector.140", %"class.std::vector.145" }
%"class.dealii::FiniteElement<3, 3>::InternalDataBase" = type { %"class.dealii::Mapping<3, 3>::InternalDataBase.base", %"class.std::vector.135" }
%"class.dealii::Mapping<3, 3>::InternalDataBase.base" = type <{ %"class.dealii::Subscriptor", i32, i32, i32, [4 x i8], %"class.std::vector.82", %"class.std::vector.24", %"class.std::vector.92", %"class.std::vector.92", i8 }>
%"class.std::vector.135" = type { %"struct.std::_Vector_base.136" }
%"struct.std::_Vector_base.136" = type { %"struct.std::_Vector_base<dealii::FEValues<3, 3> *, std::allocator<dealii::FEValues<3, 3> *> >::_Vector_impl" }
%"struct.std::_Vector_base<dealii::FEValues<3, 3> *, std::allocator<dealii::FEValues<3, 3> *> >::_Vector_impl" = type { %"struct.std::_Vector_base<dealii::FEValues<3, 3> *, std::allocator<dealii::FEValues<3, 3> *> >::_Vector_impl_data" }
%"struct.std::_Vector_base<dealii::FEValues<3, 3> *, std::allocator<dealii::FEValues<3, 3> *> >::_Vector_impl_data" = type { %"class.dealii::FEValues"**, %"class.dealii::FEValues"**, %"class.dealii::FEValues"** }
%"class.dealii::FEValues" = type opaque
%"class.std::vector.140" = type { %"struct.std::_Vector_base.141" }
%"struct.std::_Vector_base.141" = type { %"struct.std::_Vector_base<std::vector<dealii::Tensor<1, 3>, std::allocator<dealii::Tensor<1, 3> > >, std::allocator<std::vector<dealii::Tensor<1, 3>, std::allocator<dealii::Tensor<1, 3> > > > >::_Vector_impl" }
%"struct.std::_Vector_base<std::vector<dealii::Tensor<1, 3>, std::allocator<dealii::Tensor<1, 3> > >, std::allocator<std::vector<dealii::Tensor<1, 3>, std::allocator<dealii::Tensor<1, 3> > > > >::_Vector_impl" = type { %"struct.std::_Vector_base<std::vector<dealii::Tensor<1, 3>, std::allocator<dealii::Tensor<1, 3> > >, std::allocator<std::vector<dealii::Tensor<1, 3>, std::allocator<dealii::Tensor<1, 3> > > > >::_Vector_impl_data" }
%"struct.std::_Vector_base<std::vector<dealii::Tensor<1, 3>, std::allocator<dealii::Tensor<1, 3> > >, std::allocator<std::vector<dealii::Tensor<1, 3>, std::allocator<dealii::Tensor<1, 3> > > > >::_Vector_impl_data" = type { %"class.std::vector.87"*, %"class.std::vector.87"*, %"class.std::vector.87"* }
%"class.std::vector.145" = type { %"struct.std::_Vector_base.146" }
%"struct.std::_Vector_base.146" = type { %"struct.std::_Vector_base<std::vector<dealii::Tensor<2, 3>, std::allocator<dealii::Tensor<2, 3> > >, std::allocator<std::vector<dealii::Tensor<2, 3>, std::allocator<dealii::Tensor<2, 3> > > > >::_Vector_impl" }
%"struct.std::_Vector_base<std::vector<dealii::Tensor<2, 3>, std::allocator<dealii::Tensor<2, 3> > >, std::allocator<std::vector<dealii::Tensor<2, 3>, std::allocator<dealii::Tensor<2, 3> > > > >::_Vector_impl" = type { %"struct.std::_Vector_base<std::vector<dealii::Tensor<2, 3>, std::allocator<dealii::Tensor<2, 3> > >, std::allocator<std::vector<dealii::Tensor<2, 3>, std::allocator<dealii::Tensor<2, 3> > > > >::_Vector_impl_data" }
%"struct.std::_Vector_base<std::vector<dealii::Tensor<2, 3>, std::allocator<dealii::Tensor<2, 3> > >, std::allocator<std::vector<dealii::Tensor<2, 3>, std::allocator<dealii::Tensor<2, 3> > > > >::_Vector_impl_data" = type { %"class.std::vector.92"*, %"class.std::vector.92"*, %"class.std::vector.92"* }
%"class.std::allocator.100" = type { i8 }
%"class.std::allocator.94" = type { i8 }
%"class.std::allocator.89" = type { i8 }
%"class.__gnu_cxx::new_allocator.101" = type { i8 }
%"class.__gnu_cxx::new_allocator.95" = type { i8 }
%"class.__gnu_cxx::new_allocator.90" = type { i8 }
%"class.std::allocator.84" = type { i8 }
%"class.__gnu_cxx::new_allocator.85" = type { i8 }
%"class.std::allocator.147" = type { i8 }
%"class.std::allocator.142" = type { i8 }
%"class.__gnu_cxx::new_allocator.148" = type { i8 }
%"class.__gnu_cxx::new_allocator.143" = type { i8 }
%"struct.std::random_access_iterator_tag" = type { i8 }
%"class.std::allocator.64" = type { i8 }
%"struct.std::_Bit_iterator_base" = type <{ i64*, i32, [4 x i8] }>
%"class.__gnu_cxx::new_allocator.65" = type { i8 }
%"struct.std::iterator" = type { i8 }
%"struct.std::_Bit_const_iterator" = type { %"struct.std::_Bit_iterator_base.base", [4 x i8] }
%"struct.std::_Bit_reference" = type { i64*, i64 }
%"class.std::allocator.26" = type { i8 }
%"class.__gnu_cxx::new_allocator.27" = type { i8 }
%"class.std::allocator.31" = type { i8 }
%"class.__gnu_cxx::new_allocator.32" = type { i8 }
%"class.__gnu_cxx::new_allocator.80" = type { i8 }
%"class.__gnu_cxx::__normal_iterator.150" = type { %"class.dealii::Polynomials::Polynomial"* }
%"class.__gnu_cxx::__normal_iterator.151" = type { double* }
%"struct.std::forward_iterator_tag" = type { i8 }

$_ZN5boost3argILi1EEC2Ev = comdat any

$_ZN5boost3argILi2EEC2Ev = comdat any

$_ZN5boost3argILi3EEC2Ev = comdat any

$_ZN5boost3argILi4EEC2Ev = comdat any

$_ZN5boost3argILi5EEC2Ev = comdat any

$_ZN5boost3argILi6EEC2Ev = comdat any

$_ZN5boost3argILi7EEC2Ev = comdat any

$_ZN5boost3argILi8EEC2Ev = comdat any

$_ZN5boost3argILi9EEC2Ev = comdat any

$_ZN6dealii6FE_ABFILi3EEC5Ej = comdat any

$_ZN6dealii6FE_ABFILi3EE14get_dpo_vectorEj = comdat any

$_ZNSaIbEC2Ev = comdat any

$_ZNSt6vectorIbSaIbEEC2EmRKbRKS0_ = comdat any

$_ZNSaISt6vectorIbSaIbEEEC2Ev = comdat any

$_ZNSt6vectorIS_IbSaIbEESaIS1_EEC2EmRKS1_RKS2_ = comdat any

$_ZNSt6vectorIS_IbSaIbEESaIS1_EED2Ev = comdat any

$_ZNSaISt6vectorIbSaIbEEED2Ev = comdat any

$_ZNSt6vectorIbSaIbEED2Ev = comdat any

$_ZNSaIbED2Ev = comdat any

$_ZNSt6vectorIjSaIjEED2Ev = comdat any

$_ZN6dealii5TableILi2EdEC2Ev = comdat any

$_ZN6dealii5TableILi3EdEC2Ev = comdat any

$_ZN6dealii6FE_ABFILi3EE25initialize_support_pointsEj = comdat any

$_ZN6dealii5TableILi2EdE6reinitEjj = comdat any

$_ZN6dealii6FE_ABFILi3EE22initialize_restrictionEv = comdat any

$_ZNSaIN6dealii10FullMatrixIdEEEC2Ev = comdat any

$_ZNSt6vectorIN6dealii10FullMatrixIdEESaIS2_EEC2EmRKS2_RKS3_ = comdat any

$_ZNSaIN6dealii10FullMatrixIdEEED2Ev = comdat any

$_ZN6dealii10FullMatrixIdED2Ev = comdat any

$_ZNKSt6vectorIN6dealii10FullMatrixIdEESaIS2_EE4sizeEv = comdat any

$_ZNSt6vectorIN6dealii10FullMatrixIdEESaIS2_EEixEm = comdat any

$_ZNK6dealii10FullMatrixIdE1mEv = comdat any

$_ZNK6dealii10FullMatrixIdE1nEv = comdat any

$_ZN6dealii5TableILi2EdEclEjj = comdat any

$_ZNSt6vectorIN6dealii10FullMatrixIdEESaIS2_EED2Ev = comdat any

$_ZN6dealii5TableILi3EdED2Ev = comdat any

$_ZN6dealii5TableILi2EdED2Ev = comdat any

$_ZNK6dealii6FE_ABFILi3EE8get_nameB5cxx11Ev = comdat any

$_ZNK6dealii6FE_ABFILi3EE15n_base_elementsEv = comdat any

$_ZNK6dealii6FE_ABFILi3EE12base_elementEj = comdat any

$_ZNK6dealii6FE_ABFILi3EE20element_multiplicityEj = comdat any

$_ZNK6dealii6FE_ABFILi3EE19has_support_on_faceEjj = comdat any

$_ZNK6dealii6FE_ABFILi3EE11interpolateERSt6vectorIdSaIdEERKS4_ = comdat any

$_ZNK6dealii6FE_ABFILi3EE11interpolateERSt6vectorIdSaIdEERKS2_INS_6VectorIdEESaIS7_EEj = comdat any

$_ZSt4fillIN9__gnu_cxx17__normal_iteratorIPdSt6vectorIdSaIdEEEEdEvT_S7_RKT0_ = comdat any

$_ZNSt6vectorIdSaIdEE5beginEv = comdat any

$_ZNSt6vectorIdSaIdEE3endEv = comdat any

$_ZNK6dealii9TableBaseILi2EdE4sizeEj = comdat any

$_ZNK6dealii5TableILi2EdEclEjj = comdat any

$_ZNKSt6vectorIN6dealii6VectorIdEESaIS2_EEixEm = comdat any

$_ZNK6dealii6VectorIdEclEj = comdat any

$_ZNSt6vectorIdSaIdEEixEm = comdat any

$_ZNK6dealii9TableBaseILi3EdE4sizeEj = comdat any

$_ZNK6dealii5TableILi3EdEclEjjj = comdat any

$_ZNK6dealii6FE_ABFILi3EE11interpolateERSt6vectorIdSaIdEERKNS_11VectorSliceIKS2_IS4_SaIS4_EEEE = comdat any

$_ZNK6dealii11VectorSliceIKSt6vectorIS1_IdSaIdEESaIS3_EEEixEj = comdat any

$_ZNKSt6vectorIdSaIdEEixEm = comdat any

$_ZNK6dealii6FE_ABFILi3EE18memory_consumptionEv = comdat any

$_ZNK6dealii6FE_ABFILi3EE5cloneEv = comdat any

$_ZNSaIjEC2Ev = comdat any

$_ZNSt6vectorIjSaIjEEC2EmRKS0_ = comdat any

$_ZNSaIjED2Ev = comdat any

$_ZNSt6vectorIjSaIjEEixEm = comdat any

$_ZNK6dealii10QuadratureILi3EE4sizeEv = comdat any

$_ZNSt6vectorIN6dealii5PointILi3EEESaIS2_EE6resizeEm = comdat any

$_ZNSt6vectorIN6dealii5PointILi2EEESaIS2_EE6resizeEm = comdat any

$_ZNSaIPN6dealii22AnisotropicPolynomialsILi3EEEEC2Ev = comdat any

$_ZNSt6vectorIPN6dealii22AnisotropicPolynomialsILi3EEESaIS3_EEC2EmRKS4_ = comdat any

$_ZNSaIPN6dealii22AnisotropicPolynomialsILi3EEEED2Ev = comdat any

$_ZNSaISt6vectorIN6dealii11Polynomials10PolynomialIdEESaIS3_EEEC2Ev = comdat any

$_ZNSt6vectorIS_IN6dealii11Polynomials10PolynomialIdEESaIS3_EESaIS5_EEC2EmRKS6_ = comdat any

$_ZNSaISt6vectorIN6dealii11Polynomials10PolynomialIdEESaIS3_EEED2Ev = comdat any

$_ZNSt6vectorIS_IN6dealii11Polynomials10PolynomialIdEESaIS3_EESaIS5_EEixEm = comdat any

$_ZNSt6vectorIN6dealii11Polynomials10PolynomialIdEESaIS3_EE9push_backEOS3_ = comdat any

$_ZN6dealii11Polynomials8MonomialIdED2Ev = comdat any

$_ZNSt6vectorIN6dealii11Polynomials10PolynomialIdEESaIS3_EEaSEOS5_ = comdat any

$_ZNSt6vectorIN6dealii11Polynomials10PolynomialIdEESaIS3_EED2Ev = comdat any

$_ZNSt6vectorIPN6dealii22AnisotropicPolynomialsILi3EEESaIS3_EEixEm = comdat any

$_ZNSt6vectorIS_IN6dealii11Polynomials10PolynomialIdEESaIS3_EESaIS5_EED2Ev = comdat any

$_ZN6dealii24TensorProductPolynomialsILi2EEC2INS_11Polynomials10PolynomialIdEEEERKSt6vectorIT_SaIS7_EE = comdat any

$_ZNK6dealii10QuadratureILi2EE5pointEj = comdat any

$_ZNSt6vectorIN6dealii5PointILi2EEESaIS2_EEixEm = comdat any

$_ZN6dealii5PointILi2EEaSERKS1_ = comdat any

$_ZNK6dealii10QuadratureILi2EE6weightEj = comdat any

$_ZNK6dealii10QuadratureILi3EE5pointEj = comdat any

$_ZNSt6vectorIN6dealii5PointILi3EEESaIS2_EEixEm = comdat any

$_ZN6dealii5PointILi3EEaSERKS1_ = comdat any

$_ZNK6dealii10QuadratureILi3EE6weightEj = comdat any

$_ZN6dealii24TensorProductPolynomialsILi2EED2Ev = comdat any

$_ZN6dealii6QGaussILi2EED2Ev = comdat any

$_ZN6dealii9TableBaseILi3EdE6reinitERKNS_12TableIndicesILi3EEE = comdat any

$_ZN6dealii12TableIndicesILi3EEC2Ejjj = comdat any

$_ZN6dealii5TableILi3EdEclEjjj = comdat any

$_ZN6dealii22AnisotropicPolynomialsILi3EED2Ev = comdat any

$_ZNSt6vectorIPN6dealii22AnisotropicPolynomialsILi3EEESaIS3_EED2Ev = comdat any

$_ZN6dealii6TensorILi1ELi3EEC2Eb = comdat any

$_ZN6dealiimlILi3EEENS_6TensorILi1EXT_EEERKS2_d = comdat any

$_ZN6dealii6TensorILi1ELi3EEaSERKS1_ = comdat any

$_ZN6dealii6TensorILi1ELi3EEixEj = comdat any

$_ZN6dealii6QGaussILi3EED2Ev = comdat any

$_ZNK6dealii10QuadratureILi2EE4sizeEv = comdat any

$_ZN6dealii5TableILi2EdEC2Ejj = comdat any

$_ZN6dealii14RefinementCaseILi2EEC2ENS_23RefinementPossibilitiesILi2EE13PossibilitiesE = comdat any

$_ZN6dealii14RefinementCaseILi3EEC2ENS_23RefinementPossibilitiesILi3EE13PossibilitiesE = comdat any

$_ZN6dealii9Utilities11fixed_powerILi2EdEET0_S2_ = comdat any

$_ZNSt6vectorIS_IN6dealii10FullMatrixIdEESaIS2_EESaIS4_EEixEm = comdat any

$_ZN6dealii5TableILi3EdEC2Ejjj = comdat any

$_ZNK6dealii6FE_ABFILi3EE11update_onceENS_11UpdateFlagsE = comdat any

$_ZNK6dealii6FE_ABFILi3EE11update_eachENS_11UpdateFlagsE = comdat any

$_ZN6dealiianENS_11UpdateFlagsES0_ = comdat any

$_ZN6dealiioRERNS_11UpdateFlagsES0_ = comdat any

$_ZN6dealiiorENS_11UpdateFlagsES0_ = comdat any

$_ZN6dealii6FE_ABFILi3EED2Ev = comdat any

$_ZN6dealii6FE_ABFILi3EED0Ev = comdat any

$_ZN6dealii6FE_ABFILi3EE12InternalDataD2Ev = comdat any

$_ZN6dealii6FE_ABFILi3EE12InternalDataD0Ev = comdat any

$_ZN6dealii7MappingILi3ELi3EE16InternalDataBase16clear_first_cellEv = comdat any

$_ZN6dealii9TableBaseILi2EdED2Ev = comdat any

$_ZN6dealii9TableBaseILi2EdED0Ev = comdat any

$_ZN6dealii9TableBaseILi3EdED2Ev = comdat any

$_ZN6dealii9TableBaseILi3EdED0Ev = comdat any

$_ZNSt6vectorIN6dealii6TensorILi3ELi3EEESaIS2_EED2Ev = comdat any

$_ZNSt6vectorIN6dealii6TensorILi2ELi3EEESaIS2_EED2Ev = comdat any

$_ZNSt6vectorIN6dealii6TensorILi1ELi3EEESaIS2_EED2Ev = comdat any

$_ZN6dealii13FE_PolyTensorINS_14PolynomialsABFILi3EEELi3ELi3EED2Ev = comdat any

$_ZN6dealii13FE_PolyTensorINS_14PolynomialsABFILi3EEELi3ELi3EED0Ev = comdat any

$_ZSt8_DestroyIPN6dealii6TensorILi3ELi3EEES2_EvT_S4_RSaIT0_E = comdat any

$_ZNSt12_Vector_baseIN6dealii6TensorILi3ELi3EEESaIS2_EE19_M_get_Tp_allocatorEv = comdat any

$_ZNSt12_Vector_baseIN6dealii6TensorILi3ELi3EEESaIS2_EED2Ev = comdat any

$__clang_call_terminate = comdat any

$_ZSt8_DestroyIPN6dealii6TensorILi3ELi3EEEEvT_S4_ = comdat any

$_ZNSt12_Destroy_auxILb1EE9__destroyIPN6dealii6TensorILi3ELi3EEEEEvT_S6_ = comdat any

$_ZNSt12_Vector_baseIN6dealii6TensorILi3ELi3EEESaIS2_EE13_M_deallocateEPS2_m = comdat any

$_ZNSt12_Vector_baseIN6dealii6TensorILi3ELi3EEESaIS2_EE12_Vector_implD2Ev = comdat any

$_ZNSt16allocator_traitsISaIN6dealii6TensorILi3ELi3EEEEE10deallocateERS3_PS2_m = comdat any

$_ZN9__gnu_cxx13new_allocatorIN6dealii6TensorILi3ELi3EEEE10deallocateEPS3_m = comdat any

$_ZNSaIN6dealii6TensorILi3ELi3EEEED2Ev = comdat any

$_ZN9__gnu_cxx13new_allocatorIN6dealii6TensorILi3ELi3EEEED2Ev = comdat any

$_ZSt8_DestroyIPN6dealii6TensorILi2ELi3EEES2_EvT_S4_RSaIT0_E = comdat any

$_ZNSt12_Vector_baseIN6dealii6TensorILi2ELi3EEESaIS2_EE19_M_get_Tp_allocatorEv = comdat any

$_ZNSt12_Vector_baseIN6dealii6TensorILi2ELi3EEESaIS2_EED2Ev = comdat any

$_ZSt8_DestroyIPN6dealii6TensorILi2ELi3EEEEvT_S4_ = comdat any

$_ZNSt12_Destroy_auxILb1EE9__destroyIPN6dealii6TensorILi2ELi3EEEEEvT_S6_ = comdat any

$_ZNSt12_Vector_baseIN6dealii6TensorILi2ELi3EEESaIS2_EE13_M_deallocateEPS2_m = comdat any

$_ZNSt12_Vector_baseIN6dealii6TensorILi2ELi3EEESaIS2_EE12_Vector_implD2Ev = comdat any

$_ZNSt16allocator_traitsISaIN6dealii6TensorILi2ELi3EEEEE10deallocateERS3_PS2_m = comdat any

$_ZN9__gnu_cxx13new_allocatorIN6dealii6TensorILi2ELi3EEEE10deallocateEPS3_m = comdat any

$_ZNSaIN6dealii6TensorILi2ELi3EEEED2Ev = comdat any

$_ZN9__gnu_cxx13new_allocatorIN6dealii6TensorILi2ELi3EEEED2Ev = comdat any

$_ZSt8_DestroyIPN6dealii6TensorILi1ELi3EEES2_EvT_S4_RSaIT0_E = comdat any

$_ZNSt12_Vector_baseIN6dealii6TensorILi1ELi3EEESaIS2_EE19_M_get_Tp_allocatorEv = comdat any

$_ZNSt12_Vector_baseIN6dealii6TensorILi1ELi3EEESaIS2_EED2Ev = comdat any

$_ZSt8_DestroyIPN6dealii6TensorILi1ELi3EEEEvT_S4_ = comdat any

$_ZNSt12_Destroy_auxILb1EE9__destroyIPN6dealii6TensorILi1ELi3EEEEEvT_S6_ = comdat any

$_ZNSt12_Vector_baseIN6dealii6TensorILi1ELi3EEESaIS2_EE13_M_deallocateEPS2_m = comdat any

$_ZNSt12_Vector_baseIN6dealii6TensorILi1ELi3EEESaIS2_EE12_Vector_implD2Ev = comdat any

$_ZNSt16allocator_traitsISaIN6dealii6TensorILi1ELi3EEEEE10deallocateERS3_PS2_m = comdat any

$_ZN9__gnu_cxx13new_allocatorIN6dealii6TensorILi1ELi3EEEE10deallocateEPS3_m = comdat any

$_ZNSaIN6dealii6TensorILi1ELi3EEEED2Ev = comdat any

$_ZN9__gnu_cxx13new_allocatorIN6dealii6TensorILi1ELi3EEEED2Ev = comdat any

$_ZNSt6vectorIdSaIdEED2Ev = comdat any

$_ZN6dealii11Polynomials10PolynomialIdED2Ev = comdat any

$_ZN6dealii11Polynomials10PolynomialIdED0Ev = comdat any

$_ZSt8_DestroyIPddEvT_S1_RSaIT0_E = comdat any

$_ZNSt12_Vector_baseIdSaIdEE19_M_get_Tp_allocatorEv = comdat any

$_ZNSt12_Vector_baseIdSaIdEED2Ev = comdat any

$_ZSt8_DestroyIPdEvT_S1_ = comdat any

$_ZNSt12_Destroy_auxILb1EE9__destroyIPdEEvT_S3_ = comdat any

$_ZNSt12_Vector_baseIdSaIdEE13_M_deallocateEPdm = comdat any

$_ZNSt12_Vector_baseIdSaIdEE12_Vector_implD2Ev = comdat any

$_ZNSt16allocator_traitsISaIdEE10deallocateERS0_Pdm = comdat any

$_ZN9__gnu_cxx13new_allocatorIdE10deallocateEPdm = comdat any

$_ZN9__gnu_cxx13new_allocatorIdED2Ev = comdat any

$_ZN6dealii6TensorILi1ELi2EEaSERKS1_ = comdat any

$_ZNSt6vectorIS_IN6dealii6TensorILi2ELi3EEESaIS2_EESaIS4_EED2Ev = comdat any

$_ZNSt6vectorIS_IN6dealii6TensorILi1ELi3EEESaIS2_EESaIS4_EED2Ev = comdat any

$_ZSt8_DestroyIPSt6vectorIN6dealii6TensorILi2ELi3EEESaIS3_EES5_EvT_S7_RSaIT0_E = comdat any

$_ZNSt12_Vector_baseISt6vectorIN6dealii6TensorILi2ELi3EEESaIS3_EESaIS5_EE19_M_get_Tp_allocatorEv = comdat any

$_ZNSt12_Vector_baseISt6vectorIN6dealii6TensorILi2ELi3EEESaIS3_EESaIS5_EED2Ev = comdat any

$_ZSt8_DestroyIPSt6vectorIN6dealii6TensorILi2ELi3EEESaIS3_EEEvT_S7_ = comdat any

$_ZNSt12_Destroy_auxILb0EE9__destroyIPSt6vectorIN6dealii6TensorILi2ELi3EEESaIS5_EEEEvT_S9_ = comdat any

$_ZSt8_DestroyISt6vectorIN6dealii6TensorILi2ELi3EEESaIS3_EEEvPT_ = comdat any

$_ZSt11__addressofISt6vectorIN6dealii6TensorILi2ELi3EEESaIS3_EEEPT_RS6_ = comdat any

$_ZNSt12_Vector_baseISt6vectorIN6dealii6TensorILi2ELi3EEESaIS3_EESaIS5_EE13_M_deallocateEPS5_m = comdat any

$_ZNSt12_Vector_baseISt6vectorIN6dealii6TensorILi2ELi3EEESaIS3_EESaIS5_EE12_Vector_implD2Ev = comdat any

$_ZNSt16allocator_traitsISaISt6vectorIN6dealii6TensorILi2ELi3EEESaIS3_EEEE10deallocateERS6_PS5_m = comdat any

$_ZN9__gnu_cxx13new_allocatorISt6vectorIN6dealii6TensorILi2ELi3EEESaIS4_EEE10deallocateEPS6_m = comdat any

$_ZNSaISt6vectorIN6dealii6TensorILi2ELi3EEESaIS2_EEED2Ev = comdat any

$_ZN9__gnu_cxx13new_allocatorISt6vectorIN6dealii6TensorILi2ELi3EEESaIS4_EEED2Ev = comdat any

$_ZSt8_DestroyIPSt6vectorIN6dealii6TensorILi1ELi3EEESaIS3_EES5_EvT_S7_RSaIT0_E = comdat any

$_ZNSt12_Vector_baseISt6vectorIN6dealii6TensorILi1ELi3EEESaIS3_EESaIS5_EE19_M_get_Tp_allocatorEv = comdat any

$_ZNSt12_Vector_baseISt6vectorIN6dealii6TensorILi1ELi3EEESaIS3_EESaIS5_EED2Ev = comdat any

$_ZSt8_DestroyIPSt6vectorIN6dealii6TensorILi1ELi3EEESaIS3_EEEvT_S7_ = comdat any

$_ZNSt12_Destroy_auxILb0EE9__destroyIPSt6vectorIN6dealii6TensorILi1ELi3EEESaIS5_EEEEvT_S9_ = comdat any

$_ZSt8_DestroyISt6vectorIN6dealii6TensorILi1ELi3EEESaIS3_EEEvPT_ = comdat any

$_ZSt11__addressofISt6vectorIN6dealii6TensorILi1ELi3EEESaIS3_EEEPT_RS6_ = comdat any

$_ZNSt12_Vector_baseISt6vectorIN6dealii6TensorILi1ELi3EEESaIS3_EESaIS5_EE13_M_deallocateEPS5_m = comdat any

$_ZNSt12_Vector_baseISt6vectorIN6dealii6TensorILi1ELi3EEESaIS3_EESaIS5_EE12_Vector_implD2Ev = comdat any

$_ZNSt16allocator_traitsISaISt6vectorIN6dealii6TensorILi1ELi3EEESaIS3_EEEE10deallocateERS6_PS5_m = comdat any

$_ZN9__gnu_cxx13new_allocatorISt6vectorIN6dealii6TensorILi1ELi3EEESaIS4_EEE10deallocateEPS6_m = comdat any

$_ZNSaISt6vectorIN6dealii6TensorILi1ELi3EEESaIS2_EEED2Ev = comdat any

$_ZN9__gnu_cxx13new_allocatorISt6vectorIN6dealii6TensorILi1ELi3EEESaIS4_EEED2Ev = comdat any

$_ZN9__gnu_cxx13new_allocatorIjEC2Ev = comdat any

$_ZN9__gnu_cxx13new_allocatorIjED2Ev = comdat any

$_ZNSt6vectorIjSaIjEE17_S_check_init_lenEmRKS0_ = comdat any

$_ZNSt12_Vector_baseIjSaIjEEC2EmRKS0_ = comdat any

$_ZNSt6vectorIjSaIjEE21_M_default_initializeEm = comdat any

$_ZNSt12_Vector_baseIjSaIjEED2Ev = comdat any

$_ZNSt6vectorIjSaIjEE11_S_max_sizeERKS0_ = comdat any

$_ZNSaIjEC2ERKS_ = comdat any

$_ZNSt16allocator_traitsISaIjEE8max_sizeERKS0_ = comdat any

$_ZSt3minImERKT_S2_S2_ = comdat any

$_ZNK9__gnu_cxx13new_allocatorIjE8max_sizeEv = comdat any

$_ZNK9__gnu_cxx13new_allocatorIjE11_M_max_sizeEv = comdat any

$_ZN9__gnu_cxx13new_allocatorIjEC2ERKS1_ = comdat any

$_ZNSt12_Vector_baseIjSaIjEE12_Vector_implC2ERKS0_ = comdat any

$_ZNSt12_Vector_baseIjSaIjEE17_M_create_storageEm = comdat any

$_ZNSt12_Vector_baseIjSaIjEE12_Vector_implD2Ev = comdat any

$_ZNSt12_Vector_baseIjSaIjEE17_Vector_impl_dataC2Ev = comdat any

$_ZNSt12_Vector_baseIjSaIjEE11_M_allocateEm = comdat any

$_ZNSt16allocator_traitsISaIjEE8allocateERS0_m = comdat any

$_ZN9__gnu_cxx13new_allocatorIjE8allocateEmPKv = comdat any

$_ZSt27__uninitialized_default_n_aIPjmjET_S1_T0_RSaIT1_E = comdat any

$_ZNSt12_Vector_baseIjSaIjEE19_M_get_Tp_allocatorEv = comdat any

$_ZSt25__uninitialized_default_nIPjmET_S1_T0_ = comdat any

$_ZNSt27__uninitialized_default_n_1ILb1EE18__uninit_default_nIPjmEET_S3_T0_ = comdat any

$_ZSt6fill_nIPjmjET_S1_T0_RKT1_ = comdat any

$_ZSt10__fill_n_aIPjmjET_S1_T0_RKT1_St26random_access_iterator_tag = comdat any

$_ZSt17__size_to_integerm = comdat any

$_ZSt19__iterator_categoryIPjENSt15iterator_traitsIT_E17iterator_categoryERKS2_ = comdat any

$_ZSt8__fill_aIPjjEvT_S1_RKT0_ = comdat any

$_ZSt9__fill_a1IPjjEN9__gnu_cxx11__enable_ifIXsr11__is_scalarIT0_EE7__valueEvE6__typeET_S6_RKS3_ = comdat any

$_ZNSt12_Vector_baseIjSaIjEE13_M_deallocateEPjm = comdat any

$_ZNSt16allocator_traitsISaIjEE10deallocateERS0_Pjm = comdat any

$_ZN9__gnu_cxx13new_allocatorIjE10deallocateEPjm = comdat any

$_ZSt8_DestroyIPjjEvT_S1_RSaIT0_E = comdat any

$_ZSt8_DestroyIPjEvT_S1_ = comdat any

$_ZNSt12_Destroy_auxILb1EE9__destroyIPjEEvT_S3_ = comdat any

$_ZN9__gnu_cxx13new_allocatorIbEC2Ev = comdat any

$_ZN9__gnu_cxx13new_allocatorIbED2Ev = comdat any

$_ZN9__gnu_cxx13new_allocatorIN6dealii10FullMatrixIdEEEC2Ev = comdat any

$_ZN9__gnu_cxx13new_allocatorIN6dealii10FullMatrixIdEEED2Ev = comdat any

$_ZN9__gnu_cxx13new_allocatorISt6vectorIN6dealii11Polynomials10PolynomialIdEESaIS5_EEEC2Ev = comdat any

$_ZN9__gnu_cxx13new_allocatorISt6vectorIN6dealii11Polynomials10PolynomialIdEESaIS5_EEED2Ev = comdat any

$_ZNSt13_Bvector_baseISaIbEEC2ERKS0_ = comdat any

$_ZNSt6vectorIbSaIbEE13_M_initializeEm = comdat any

$_ZNSt6vectorIbSaIbEE19_M_initialize_valueEb = comdat any

$_ZNSt13_Bvector_baseISaIbEED2Ev = comdat any

$_ZNSaImEC2IbEERKSaIT_E = comdat any

$_ZNSt13_Bvector_baseISaIbEE13_Bvector_implC2ERKSaImE = comdat any

$_ZNSaImED2Ev = comdat any

$_ZN9__gnu_cxx13new_allocatorImEC2Ev = comdat any

$_ZNSt13_Bvector_baseISaIbEE18_Bvector_impl_dataC2Ev = comdat any

$_ZN9__gnu_cxx13new_allocatorImEC2ERKS1_ = comdat any

$_ZNSt13_Bit_iteratorC2Ev = comdat any

$_ZNSt18_Bit_iterator_baseC2EPmj = comdat any

$_ZN9__gnu_cxx13new_allocatorImED2Ev = comdat any

$_ZNSt13_Bvector_baseISaIbEE11_M_allocateEm = comdat any

$_ZNSt13_Bvector_baseISaIbEE8_S_nwordEm = comdat any

$_ZSt11__addressofImEPT_RS0_ = comdat any

$_ZNSt13_Bit_iteratorC2EPmj = comdat any

$_ZStplRKSt13_Bit_iteratorl = comdat any

$_ZNSt16allocator_traitsISaImEE8allocateERS0_m = comdat any

$_ZN9__gnu_cxx13new_allocatorImE8allocateEmPKv = comdat any

$_ZNK9__gnu_cxx13new_allocatorImE11_M_max_sizeEv = comdat any

$_ZNSt13_Bit_iteratorpLEl = comdat any

$_ZNSt18_Bit_iterator_base7_M_incrEl = comdat any

$_ZNKSt13_Bvector_baseISaIbEE13_Bvector_impl11_M_end_addrEv = comdat any

$_ZNSt13_Bvector_baseISaIbEE13_M_deallocateEv = comdat any

$_ZNSt13_Bvector_baseISaIbEE13_Bvector_implD2Ev = comdat any

$_ZNSt16allocator_traitsISaImEE10deallocateERS0_Pmm = comdat any

$_ZNSt13_Bvector_baseISaIbEE18_Bvector_impl_data8_M_resetEv = comdat any

$_ZN9__gnu_cxx13new_allocatorImE10deallocateEPmm = comdat any

$_ZN9__gnu_cxx13new_allocatorISt6vectorIbSaIbEEEC2Ev = comdat any

$_ZN9__gnu_cxx13new_allocatorISt6vectorIbSaIbEEED2Ev = comdat any

$_ZNSt6vectorIS_IbSaIbEESaIS1_EE17_S_check_init_lenEmRKS2_ = comdat any

$_ZNSt12_Vector_baseISt6vectorIbSaIbEESaIS2_EEC2EmRKS3_ = comdat any

$_ZNSt6vectorIS_IbSaIbEESaIS1_EE18_M_fill_initializeEmRKS1_ = comdat any

$_ZNSt12_Vector_baseISt6vectorIbSaIbEESaIS2_EED2Ev = comdat any

$_ZNSt6vectorIS_IbSaIbEESaIS1_EE11_S_max_sizeERKS2_ = comdat any

$_ZNSaISt6vectorIbSaIbEEEC2ERKS2_ = comdat any

$_ZNSt16allocator_traitsISaISt6vectorIbSaIbEEEE8max_sizeERKS3_ = comdat any

$_ZNK9__gnu_cxx13new_allocatorISt6vectorIbSaIbEEE8max_sizeEv = comdat any

$_ZNK9__gnu_cxx13new_allocatorISt6vectorIbSaIbEEE11_M_max_sizeEv = comdat any

$_ZN9__gnu_cxx13new_allocatorISt6vectorIbSaIbEEEC2ERKS4_ = comdat any

$_ZNSt12_Vector_baseISt6vectorIbSaIbEESaIS2_EE12_Vector_implC2ERKS3_ = comdat any

$_ZNSt12_Vector_baseISt6vectorIbSaIbEESaIS2_EE17_M_create_storageEm = comdat any

$_ZNSt12_Vector_baseISt6vectorIbSaIbEESaIS2_EE12_Vector_implD2Ev = comdat any

$_ZNSt12_Vector_baseISt6vectorIbSaIbEESaIS2_EE17_Vector_impl_dataC2Ev = comdat any

$_ZNSt12_Vector_baseISt6vectorIbSaIbEESaIS2_EE11_M_allocateEm = comdat any

$_ZNSt16allocator_traitsISaISt6vectorIbSaIbEEEE8allocateERS3_m = comdat any

$_ZN9__gnu_cxx13new_allocatorISt6vectorIbSaIbEEE8allocateEmPKv = comdat any

$_ZSt24__uninitialized_fill_n_aIPSt6vectorIbSaIbEEmS2_S2_ET_S4_T0_RKT1_RSaIT2_E = comdat any

$_ZNSt12_Vector_baseISt6vectorIbSaIbEESaIS2_EE19_M_get_Tp_allocatorEv = comdat any

$_ZSt20uninitialized_fill_nIPSt6vectorIbSaIbEEmS2_ET_S4_T0_RKT1_ = comdat any

$_ZNSt22__uninitialized_fill_nILb0EE15__uninit_fill_nIPSt6vectorIbSaIbEEmS4_EET_S6_T0_RKT1_ = comdat any

$_ZSt10_ConstructISt6vectorIbSaIbEEJRKS2_EEvPT_DpOT0_ = comdat any

$_ZSt11__addressofISt6vectorIbSaIbEEEPT_RS3_ = comdat any

$_ZSt8_DestroyIPSt6vectorIbSaIbEEEvT_S4_ = comdat any

$_ZSt7forwardIRKSt6vectorIbSaIbEEEOT_RNSt16remove_referenceIS5_E4typeE = comdat any

$_ZNSt6vectorIbSaIbEEC2ERKS1_ = comdat any

$_ZN9__gnu_cxx14__alloc_traitsISaImEmE17_S_select_on_copyERKS1_ = comdat any

$_ZNKSt13_Bvector_baseISaIbEE20_M_get_Bit_allocatorEv = comdat any

$_ZNSaIbEC2ImEERKSaIT_E = comdat any

$_ZNKSt6vectorIbSaIbEE4sizeEv = comdat any

$_ZNSt6vectorIbSaIbEE15_M_copy_alignedESt19_Bit_const_iteratorS2_St13_Bit_iterator = comdat any

$_ZNKSt6vectorIbSaIbEE5beginEv = comdat any

$_ZNKSt6vectorIbSaIbEE3endEv = comdat any

$_ZNSt16allocator_traitsISaImEE37select_on_container_copy_constructionERKS0_ = comdat any

$_ZNSaImEC2ERKS_ = comdat any

$_ZStmiRKSt18_Bit_iterator_baseS1_ = comdat any

$_ZSt4copyIPmS0_ET0_T_S2_S1_ = comdat any

$_ZSt4copyISt19_Bit_const_iteratorSt13_Bit_iteratorET0_T_S3_S2_ = comdat any

$_ZNSt19_Bit_const_iteratorC2EPmj = comdat any

$_ZSt13__copy_move_aILb0EPmS0_ET1_T0_S2_S1_ = comdat any

$_ZSt12__miter_baseIPmET_S1_ = comdat any

$_ZSt12__niter_wrapIPmET_RKS1_S1_ = comdat any

$_ZSt14__copy_move_a1ILb0EPmS0_ET1_T0_S2_S1_ = comdat any

$_ZSt12__niter_baseIPmET_S1_ = comdat any

$_ZSt14__copy_move_a2ILb0EPmS0_ET1_T0_S2_S1_ = comdat any

$_ZNSt11__copy_moveILb0ELb1ESt26random_access_iterator_tagE8__copy_mImEEPT_PKS3_S6_S4_ = comdat any

$_ZSt13__copy_move_aILb0ESt19_Bit_const_iteratorSt13_Bit_iteratorET1_T0_S3_S2_ = comdat any

$_ZSt12__miter_baseISt19_Bit_const_iteratorET_S1_ = comdat any

$_ZSt12__niter_wrapISt13_Bit_iteratorET_RKS1_S1_ = comdat any

$_ZSt14__copy_move_a1ILb0ESt19_Bit_const_iteratorSt13_Bit_iteratorET1_T0_S3_S2_ = comdat any

$_ZSt12__niter_baseISt19_Bit_const_iteratorET_S1_ = comdat any

$_ZSt12__niter_baseISt13_Bit_iteratorET_S1_ = comdat any

$_ZSt14__copy_move_a2ILb0ESt19_Bit_const_iteratorSt13_Bit_iteratorET1_T0_S3_S2_ = comdat any

$_ZNSt11__copy_moveILb0ELb0ESt26random_access_iterator_tagE8__copy_mISt19_Bit_const_iteratorSt13_Bit_iteratorEET0_T_S6_S5_ = comdat any

$_ZNKSt19_Bit_const_iteratordeEv = comdat any

$_ZNKSt13_Bit_iteratordeEv = comdat any

$_ZNSt14_Bit_referenceaSEb = comdat any

$_ZNSt19_Bit_const_iteratorppEv = comdat any

$_ZNSt13_Bit_iteratorppEv = comdat any

$_ZNSt14_Bit_referenceC2EPmm = comdat any

$_ZNKSt14_Bit_referencecvbEv = comdat any

$_ZNSt18_Bit_iterator_base10_M_bump_upEv = comdat any

$_ZNSt19_Bit_const_iteratorC2ERKSt13_Bit_iterator = comdat any

$_ZNSt12_Destroy_auxILb0EE9__destroyIPSt6vectorIbSaIbEEEEvT_S6_ = comdat any

$_ZSt8_DestroyISt6vectorIbSaIbEEEvPT_ = comdat any

$_ZNSt12_Vector_baseISt6vectorIbSaIbEESaIS2_EE13_M_deallocateEPS2_m = comdat any

$_ZNSt16allocator_traitsISaISt6vectorIbSaIbEEEE10deallocateERS3_PS2_m = comdat any

$_ZN9__gnu_cxx13new_allocatorISt6vectorIbSaIbEEE10deallocateEPS3_m = comdat any

$_ZSt8_DestroyIPSt6vectorIbSaIbEES2_EvT_S4_RSaIT0_E = comdat any

$_ZN6dealii9TableBaseILi2EdEC2Ev = comdat any

$_ZN6dealii5TableILi2EdED0Ev = comdat any

$_ZN6dealii12TableIndicesILi2EEC2Ev = comdat any

$_ZN6dealii9TableBaseILi3EdEC2Ev = comdat any

$_ZN6dealii5TableILi3EdED0Ev = comdat any

$_ZN6dealii12TableIndicesILi3EEC2Ev = comdat any

$_ZN6dealii9TableBaseILi2EdE6reinitERKNS_12TableIndicesILi2EEE = comdat any

$_ZN6dealii12TableIndicesILi2EEC2Ejj = comdat any

$_ZNK6dealii9TableBaseILi2EdE10n_elementsEv = comdat any

$_ZN6dealii9TableBaseILi2EdE12reset_valuesEv = comdat any

$_ZNK6dealii16TableIndicesBaseILi2EEixEj = comdat any

$_ZSt6fill_nIPdjdET_S1_T0_RKT1_ = comdat any

$_ZSt10__fill_n_aIPdjdET_S1_T0_RKT1_St26random_access_iterator_tag = comdat any

$_ZSt17__size_to_integerj = comdat any

$_ZSt19__iterator_categoryIPdENSt15iterator_traitsIT_E17iterator_categoryERKS2_ = comdat any

$_ZSt8__fill_aIPddEvT_S1_RKT0_ = comdat any

$_ZSt9__fill_a1IPddEN9__gnu_cxx11__enable_ifIXsr11__is_scalarIT0_EE7__valueEvE6__typeET_S6_RKS3_ = comdat any

$_ZNSt6vectorIN6dealii10FullMatrixIdEESaIS2_EE17_S_check_init_lenEmRKS3_ = comdat any

$_ZNSt12_Vector_baseIN6dealii10FullMatrixIdEESaIS2_EEC2EmRKS3_ = comdat any

$_ZNSt6vectorIN6dealii10FullMatrixIdEESaIS2_EE18_M_fill_initializeEmRKS2_ = comdat any

$_ZNSt12_Vector_baseIN6dealii10FullMatrixIdEESaIS2_EED2Ev = comdat any

$_ZNSt6vectorIN6dealii10FullMatrixIdEESaIS2_EE11_S_max_sizeERKS3_ = comdat any

$_ZNSaIN6dealii10FullMatrixIdEEEC2ERKS2_ = comdat any

$_ZNSt16allocator_traitsISaIN6dealii10FullMatrixIdEEEE8max_sizeERKS3_ = comdat any

$_ZNK9__gnu_cxx13new_allocatorIN6dealii10FullMatrixIdEEE8max_sizeEv = comdat any

$_ZNK9__gnu_cxx13new_allocatorIN6dealii10FullMatrixIdEEE11_M_max_sizeEv = comdat any

$_ZN9__gnu_cxx13new_allocatorIN6dealii10FullMatrixIdEEEC2ERKS4_ = comdat any

$_ZNSt12_Vector_baseIN6dealii10FullMatrixIdEESaIS2_EE12_Vector_implC2ERKS3_ = comdat any

$_ZNSt12_Vector_baseIN6dealii10FullMatrixIdEESaIS2_EE17_M_create_storageEm = comdat any

$_ZNSt12_Vector_baseIN6dealii10FullMatrixIdEESaIS2_EE12_Vector_implD2Ev = comdat any

$_ZNSt12_Vector_baseIN6dealii10FullMatrixIdEESaIS2_EE17_Vector_impl_dataC2Ev = comdat any

$_ZNSt12_Vector_baseIN6dealii10FullMatrixIdEESaIS2_EE11_M_allocateEm = comdat any

$_ZNSt16allocator_traitsISaIN6dealii10FullMatrixIdEEEE8allocateERS3_m = comdat any

$_ZN9__gnu_cxx13new_allocatorIN6dealii10FullMatrixIdEEE8allocateEmPKv = comdat any

$_ZSt24__uninitialized_fill_n_aIPN6dealii10FullMatrixIdEEmS2_S2_ET_S4_T0_RKT1_RSaIT2_E = comdat any

$_ZNSt12_Vector_baseIN6dealii10FullMatrixIdEESaIS2_EE19_M_get_Tp_allocatorEv = comdat any

$_ZSt20uninitialized_fill_nIPN6dealii10FullMatrixIdEEmS2_ET_S4_T0_RKT1_ = comdat any

$_ZNSt22__uninitialized_fill_nILb0EE15__uninit_fill_nIPN6dealii10FullMatrixIdEEmS4_EET_S6_T0_RKT1_ = comdat any

$_ZSt10_ConstructIN6dealii10FullMatrixIdEEJRKS2_EEvPT_DpOT0_ = comdat any

$_ZSt11__addressofIN6dealii10FullMatrixIdEEEPT_RS3_ = comdat any

$_ZSt8_DestroyIPN6dealii10FullMatrixIdEEEvT_S4_ = comdat any

$_ZSt7forwardIRKN6dealii10FullMatrixIdEEEOT_RNSt16remove_referenceIS5_E4typeE = comdat any

$_ZNSt12_Destroy_auxILb0EE9__destroyIPN6dealii10FullMatrixIdEEEEvT_S6_ = comdat any

$_ZSt8_DestroyIN6dealii10FullMatrixIdEEEvPT_ = comdat any

$_ZNSt12_Vector_baseIN6dealii10FullMatrixIdEESaIS2_EE13_M_deallocateEPS2_m = comdat any

$_ZNSt16allocator_traitsISaIN6dealii10FullMatrixIdEEEE10deallocateERS3_PS2_m = comdat any

$_ZN9__gnu_cxx13new_allocatorIN6dealii10FullMatrixIdEEE10deallocateEPS3_m = comdat any

$_ZSt8_DestroyIPN6dealii10FullMatrixIdEES2_EvT_S4_RSaIT0_E = comdat any

$_ZNK6dealii5TableILi2EdE6n_rowsEv = comdat any

$_ZNK6dealii5TableILi2EdE6n_colsEv = comdat any

$_ZSt8__fill_aIN9__gnu_cxx17__normal_iteratorIPdSt6vectorIdSaIdEEEEdEvT_S7_RKT0_ = comdat any

$_ZSt9__fill_a1IPdSt6vectorIdSaIdEEdEvN9__gnu_cxx17__normal_iteratorIT_T0_EES8_RKT1_ = comdat any

$_ZNK9__gnu_cxx17__normal_iteratorIPdSt6vectorIdSaIdEEE4baseEv = comdat any

$_ZN9__gnu_cxx17__normal_iteratorIPdSt6vectorIdSaIdEEEC2ERKS1_ = comdat any

$_ZNK6dealii16TableIndicesBaseILi3EEixEj = comdat any

$_ZNKSt6vectorIS_IdSaIdEESaIS1_EEixEm = comdat any

$_ZNKSt6vectorIdSaIdEE4sizeEv = comdat any

$_ZNKSt6vectorIN6dealii5PointILi3EEESaIS2_EE4sizeEv = comdat any

$_ZNSt6vectorIN6dealii5PointILi3EEESaIS2_EE17_M_default_appendEm = comdat any

$_ZNSt6vectorIN6dealii5PointILi3EEESaIS2_EE15_M_erase_at_endEPS2_ = comdat any

$_ZNKSt6vectorIN6dealii5PointILi3EEESaIS2_EE8max_sizeEv = comdat any

$_ZSt27__uninitialized_default_n_aIPN6dealii5PointILi3EEEmS2_ET_S4_T0_RSaIT1_E = comdat any

$_ZNSt12_Vector_baseIN6dealii5PointILi3EEESaIS2_EE19_M_get_Tp_allocatorEv = comdat any

$_ZNKSt6vectorIN6dealii5PointILi3EEESaIS2_EE12_M_check_lenEmPKc = comdat any

$_ZNSt12_Vector_baseIN6dealii5PointILi3EEESaIS2_EE11_M_allocateEm = comdat any

$_ZSt34__uninitialized_move_if_noexcept_aIPN6dealii5PointILi3EEES3_SaIS2_EET0_T_S6_S5_RT1_ = comdat any

$_ZSt8_DestroyIPN6dealii5PointILi3EEES2_EvT_S4_RSaIT0_E = comdat any

$_ZNSt12_Vector_baseIN6dealii5PointILi3EEESaIS2_EE13_M_deallocateEPS2_m = comdat any

$_ZNSt6vectorIN6dealii5PointILi3EEESaIS2_EE11_S_max_sizeERKS3_ = comdat any

$_ZNKSt12_Vector_baseIN6dealii5PointILi3EEESaIS2_EE19_M_get_Tp_allocatorEv = comdat any

$_ZNSt16allocator_traitsISaIN6dealii5PointILi3EEEEE8max_sizeERKS3_ = comdat any

$_ZNK9__gnu_cxx13new_allocatorIN6dealii5PointILi3EEEE8max_sizeEv = comdat any

$_ZNK9__gnu_cxx13new_allocatorIN6dealii5PointILi3EEEE11_M_max_sizeEv = comdat any

$_ZSt25__uninitialized_default_nIPN6dealii5PointILi3EEEmET_S4_T0_ = comdat any

$_ZNSt27__uninitialized_default_n_1ILb0EE18__uninit_default_nIPN6dealii5PointILi3EEEmEET_S6_T0_ = comdat any

$_ZSt10_ConstructIN6dealii5PointILi3EEEJEEvPT_DpOT0_ = comdat any

$_ZSt11__addressofIN6dealii5PointILi3EEEEPT_RS3_ = comdat any

$_ZSt8_DestroyIPN6dealii5PointILi3EEEEvT_S4_ = comdat any

$_ZN6dealii5PointILi3EEC2Ev = comdat any

$_ZNSt12_Destroy_auxILb1EE9__destroyIPN6dealii5PointILi3EEEEEvT_S6_ = comdat any

$_ZSt3maxImERKT_S2_S2_ = comdat any

$_ZNSt16allocator_traitsISaIN6dealii5PointILi3EEEEE8allocateERS3_m = comdat any

$_ZN9__gnu_cxx13new_allocatorIN6dealii5PointILi3EEEE8allocateEmPKv = comdat any

$_ZSt22__uninitialized_copy_aIPKN6dealii5PointILi3EEEPS2_S2_ET0_T_S7_S6_RSaIT1_E = comdat any

$_ZSt32__make_move_if_noexcept_iteratorIN6dealii5PointILi3EEEPKS2_ET0_PT_ = comdat any

$_ZSt18uninitialized_copyIPKN6dealii5PointILi3EEEPS2_ET0_T_S7_S6_ = comdat any

$_ZNSt20__uninitialized_copyILb0EE13__uninit_copyIPKN6dealii5PointILi3EEEPS4_EET0_T_S9_S8_ = comdat any

$_ZSt10_ConstructIN6dealii5PointILi3EEEJRKS2_EEvPT_DpOT0_ = comdat any

$_ZSt7forwardIRKN6dealii5PointILi3EEEEOT_RNSt16remove_referenceIS5_E4typeE = comdat any

$_ZN6dealii5PointILi3EEC2ERKS1_ = comdat any

$_ZN6dealii6TensorILi1ELi3EEC2ERKS1_ = comdat any

$_ZNSt16allocator_traitsISaIN6dealii5PointILi3EEEEE10deallocateERS3_PS2_m = comdat any

$_ZN9__gnu_cxx13new_allocatorIN6dealii5PointILi3EEEE10deallocateEPS3_m = comdat any

$_ZNKSt6vectorIN6dealii5PointILi2EEESaIS2_EE4sizeEv = comdat any

$_ZNSt6vectorIN6dealii5PointILi2EEESaIS2_EE17_M_default_appendEm = comdat any

$_ZNSt6vectorIN6dealii5PointILi2EEESaIS2_EE15_M_erase_at_endEPS2_ = comdat any

$_ZNKSt6vectorIN6dealii5PointILi2EEESaIS2_EE8max_sizeEv = comdat any

$_ZSt27__uninitialized_default_n_aIPN6dealii5PointILi2EEEmS2_ET_S4_T0_RSaIT1_E = comdat any

$_ZNSt12_Vector_baseIN6dealii5PointILi2EEESaIS2_EE19_M_get_Tp_allocatorEv = comdat any

$_ZNKSt6vectorIN6dealii5PointILi2EEESaIS2_EE12_M_check_lenEmPKc = comdat any

$_ZNSt12_Vector_baseIN6dealii5PointILi2EEESaIS2_EE11_M_allocateEm = comdat any

$_ZSt34__uninitialized_move_if_noexcept_aIPN6dealii5PointILi2EEES3_SaIS2_EET0_T_S6_S5_RT1_ = comdat any

$_ZSt8_DestroyIPN6dealii5PointILi2EEES2_EvT_S4_RSaIT0_E = comdat any

$_ZNSt12_Vector_baseIN6dealii5PointILi2EEESaIS2_EE13_M_deallocateEPS2_m = comdat any

$_ZNSt6vectorIN6dealii5PointILi2EEESaIS2_EE11_S_max_sizeERKS3_ = comdat any

$_ZNKSt12_Vector_baseIN6dealii5PointILi2EEESaIS2_EE19_M_get_Tp_allocatorEv = comdat any

$_ZNSt16allocator_traitsISaIN6dealii5PointILi2EEEEE8max_sizeERKS3_ = comdat any

$_ZNK9__gnu_cxx13new_allocatorIN6dealii5PointILi2EEEE8max_sizeEv = comdat any

$_ZNK9__gnu_cxx13new_allocatorIN6dealii5PointILi2EEEE11_M_max_sizeEv = comdat any

$_ZSt25__uninitialized_default_nIPN6dealii5PointILi2EEEmET_S4_T0_ = comdat any

$_ZNSt27__uninitialized_default_n_1ILb0EE18__uninit_default_nIPN6dealii5PointILi2EEEmEET_S6_T0_ = comdat any

$_ZSt10_ConstructIN6dealii5PointILi2EEEJEEvPT_DpOT0_ = comdat any

$_ZSt11__addressofIN6dealii5PointILi2EEEEPT_RS3_ = comdat any

$_ZSt8_DestroyIPN6dealii5PointILi2EEEEvT_S4_ = comdat any

$_ZN6dealii5PointILi2EEC2Ev = comdat any

$_ZN6dealii6TensorILi1ELi2EEC2Eb = comdat any

$_ZNSt12_Destroy_auxILb1EE9__destroyIPN6dealii5PointILi2EEEEEvT_S6_ = comdat any

$_ZNSt16allocator_traitsISaIN6dealii5PointILi2EEEEE8allocateERS3_m = comdat any

$_ZN9__gnu_cxx13new_allocatorIN6dealii5PointILi2EEEE8allocateEmPKv = comdat any

$_ZSt22__uninitialized_copy_aIPKN6dealii5PointILi2EEEPS2_S2_ET0_T_S7_S6_RSaIT1_E = comdat any

$_ZSt32__make_move_if_noexcept_iteratorIN6dealii5PointILi2EEEPKS2_ET0_PT_ = comdat any

$_ZSt18uninitialized_copyIPKN6dealii5PointILi2EEEPS2_ET0_T_S7_S6_ = comdat any

$_ZNSt20__uninitialized_copyILb0EE13__uninit_copyIPKN6dealii5PointILi2EEEPS4_EET0_T_S9_S8_ = comdat any

$_ZSt10_ConstructIN6dealii5PointILi2EEEJRKS2_EEvPT_DpOT0_ = comdat any

$_ZSt7forwardIRKN6dealii5PointILi2EEEEOT_RNSt16remove_referenceIS5_E4typeE = comdat any

$_ZN6dealii5PointILi2EEC2ERKS1_ = comdat any

$_ZN6dealii6TensorILi1ELi2EEC2ERKS1_ = comdat any

$_ZNSt16allocator_traitsISaIN6dealii5PointILi2EEEEE10deallocateERS3_PS2_m = comdat any

$_ZN9__gnu_cxx13new_allocatorIN6dealii5PointILi2EEEE10deallocateEPS3_m = comdat any

$_ZN9__gnu_cxx13new_allocatorIPN6dealii22AnisotropicPolynomialsILi3EEEEC2Ev = comdat any

$_ZN9__gnu_cxx13new_allocatorIPN6dealii22AnisotropicPolynomialsILi3EEEED2Ev = comdat any

$_ZNSt6vectorIPN6dealii22AnisotropicPolynomialsILi3EEESaIS3_EE17_S_check_init_lenEmRKS4_ = comdat any

$_ZNSt12_Vector_baseIPN6dealii22AnisotropicPolynomialsILi3EEESaIS3_EEC2EmRKS4_ = comdat any

$_ZNSt6vectorIPN6dealii22AnisotropicPolynomialsILi3EEESaIS3_EE21_M_default_initializeEm = comdat any

$_ZNSt12_Vector_baseIPN6dealii22AnisotropicPolynomialsILi3EEESaIS3_EED2Ev = comdat any

$_ZNSt6vectorIPN6dealii22AnisotropicPolynomialsILi3EEESaIS3_EE11_S_max_sizeERKS4_ = comdat any

$_ZNSaIPN6dealii22AnisotropicPolynomialsILi3EEEEC2ERKS3_ = comdat any

$_ZNSt16allocator_traitsISaIPN6dealii22AnisotropicPolynomialsILi3EEEEE8max_sizeERKS4_ = comdat any

$_ZNK9__gnu_cxx13new_allocatorIPN6dealii22AnisotropicPolynomialsILi3EEEE8max_sizeEv = comdat any

$_ZNK9__gnu_cxx13new_allocatorIPN6dealii22AnisotropicPolynomialsILi3EEEE11_M_max_sizeEv = comdat any

$_ZN9__gnu_cxx13new_allocatorIPN6dealii22AnisotropicPolynomialsILi3EEEEC2ERKS5_ = comdat any

$_ZNSt12_Vector_baseIPN6dealii22AnisotropicPolynomialsILi3EEESaIS3_EE12_Vector_implC2ERKS4_ = comdat any

$_ZNSt12_Vector_baseIPN6dealii22AnisotropicPolynomialsILi3EEESaIS3_EE17_M_create_storageEm = comdat any

$_ZNSt12_Vector_baseIPN6dealii22AnisotropicPolynomialsILi3EEESaIS3_EE12_Vector_implD2Ev = comdat any

$_ZNSt12_Vector_baseIPN6dealii22AnisotropicPolynomialsILi3EEESaIS3_EE17_Vector_impl_dataC2Ev = comdat any

$_ZNSt12_Vector_baseIPN6dealii22AnisotropicPolynomialsILi3EEESaIS3_EE11_M_allocateEm = comdat any

$_ZNSt16allocator_traitsISaIPN6dealii22AnisotropicPolynomialsILi3EEEEE8allocateERS4_m = comdat any

$_ZN9__gnu_cxx13new_allocatorIPN6dealii22AnisotropicPolynomialsILi3EEEE8allocateEmPKv = comdat any

$_ZSt27__uninitialized_default_n_aIPPN6dealii22AnisotropicPolynomialsILi3EEEmS3_ET_S5_T0_RSaIT1_E = comdat any

$_ZNSt12_Vector_baseIPN6dealii22AnisotropicPolynomialsILi3EEESaIS3_EE19_M_get_Tp_allocatorEv = comdat any

$_ZSt25__uninitialized_default_nIPPN6dealii22AnisotropicPolynomialsILi3EEEmET_S5_T0_ = comdat any

$_ZNSt27__uninitialized_default_n_1ILb1EE18__uninit_default_nIPPN6dealii22AnisotropicPolynomialsILi3EEEmEET_S7_T0_ = comdat any

$_ZSt6fill_nIPPN6dealii22AnisotropicPolynomialsILi3EEEmS3_ET_S5_T0_RKT1_ = comdat any

$_ZSt10__fill_n_aIPPN6dealii22AnisotropicPolynomialsILi3EEEmS3_ET_S5_T0_RKT1_St26random_access_iterator_tag = comdat any

$_ZSt19__iterator_categoryIPPN6dealii22AnisotropicPolynomialsILi3EEEENSt15iterator_traitsIT_E17iterator_categoryERKS6_ = comdat any

$_ZSt8__fill_aIPPN6dealii22AnisotropicPolynomialsILi3EEES3_EvT_S5_RKT0_ = comdat any

$_ZSt9__fill_a1IPPN6dealii22AnisotropicPolynomialsILi3EEES3_EN9__gnu_cxx11__enable_ifIXsr11__is_scalarIT0_EE7__valueEvE6__typeET_SA_RKS7_ = comdat any

$_ZNSt12_Vector_baseIPN6dealii22AnisotropicPolynomialsILi3EEESaIS3_EE13_M_deallocateEPS3_m = comdat any

$_ZNSt16allocator_traitsISaIPN6dealii22AnisotropicPolynomialsILi3EEEEE10deallocateERS4_PS3_m = comdat any

$_ZN9__gnu_cxx13new_allocatorIPN6dealii22AnisotropicPolynomialsILi3EEEE10deallocateEPS4_m = comdat any

$_ZSt8_DestroyIPPN6dealii22AnisotropicPolynomialsILi3EEES3_EvT_S5_RSaIT0_E = comdat any

$_ZSt8_DestroyIPPN6dealii22AnisotropicPolynomialsILi3EEEEvT_S5_ = comdat any

$_ZNSt12_Destroy_auxILb1EE9__destroyIPPN6dealii22AnisotropicPolynomialsILi3EEEEEvT_S7_ = comdat any

$_ZNSt6vectorIS_IN6dealii11Polynomials10PolynomialIdEESaIS3_EESaIS5_EE17_S_check_init_lenEmRKS6_ = comdat any

$_ZNSt12_Vector_baseISt6vectorIN6dealii11Polynomials10PolynomialIdEESaIS4_EESaIS6_EEC2EmRKS7_ = comdat any

$_ZNSt6vectorIS_IN6dealii11Polynomials10PolynomialIdEESaIS3_EESaIS5_EE21_M_default_initializeEm = comdat any

$_ZNSt12_Vector_baseISt6vectorIN6dealii11Polynomials10PolynomialIdEESaIS4_EESaIS6_EED2Ev = comdat any

$_ZNSt6vectorIS_IN6dealii11Polynomials10PolynomialIdEESaIS3_EESaIS5_EE11_S_max_sizeERKS6_ = comdat any

$_ZNSaISt6vectorIN6dealii11Polynomials10PolynomialIdEESaIS3_EEEC2ERKS6_ = comdat any

$_ZNSt16allocator_traitsISaISt6vectorIN6dealii11Polynomials10PolynomialIdEESaIS4_EEEE8max_sizeERKS7_ = comdat any

$_ZNK9__gnu_cxx13new_allocatorISt6vectorIN6dealii11Polynomials10PolynomialIdEESaIS5_EEE8max_sizeEv = comdat any

$_ZNK9__gnu_cxx13new_allocatorISt6vectorIN6dealii11Polynomials10PolynomialIdEESaIS5_EEE11_M_max_sizeEv = comdat any

$_ZN9__gnu_cxx13new_allocatorISt6vectorIN6dealii11Polynomials10PolynomialIdEESaIS5_EEEC2ERKS8_ = comdat any

$_ZNSt12_Vector_baseISt6vectorIN6dealii11Polynomials10PolynomialIdEESaIS4_EESaIS6_EE12_Vector_implC2ERKS7_ = comdat any

$_ZNSt12_Vector_baseISt6vectorIN6dealii11Polynomials10PolynomialIdEESaIS4_EESaIS6_EE17_M_create_storageEm = comdat any

$_ZNSt12_Vector_baseISt6vectorIN6dealii11Polynomials10PolynomialIdEESaIS4_EESaIS6_EE12_Vector_implD2Ev = comdat any

$_ZNSt12_Vector_baseISt6vectorIN6dealii11Polynomials10PolynomialIdEESaIS4_EESaIS6_EE17_Vector_impl_dataC2Ev = comdat any

$_ZNSt12_Vector_baseISt6vectorIN6dealii11Polynomials10PolynomialIdEESaIS4_EESaIS6_EE11_M_allocateEm = comdat any

$_ZNSt16allocator_traitsISaISt6vectorIN6dealii11Polynomials10PolynomialIdEESaIS4_EEEE8allocateERS7_m = comdat any

$_ZN9__gnu_cxx13new_allocatorISt6vectorIN6dealii11Polynomials10PolynomialIdEESaIS5_EEE8allocateEmPKv = comdat any

$_ZSt27__uninitialized_default_n_aIPSt6vectorIN6dealii11Polynomials10PolynomialIdEESaIS4_EEmS6_ET_S8_T0_RSaIT1_E = comdat any

$_ZNSt12_Vector_baseISt6vectorIN6dealii11Polynomials10PolynomialIdEESaIS4_EESaIS6_EE19_M_get_Tp_allocatorEv = comdat any

$_ZSt25__uninitialized_default_nIPSt6vectorIN6dealii11Polynomials10PolynomialIdEESaIS4_EEmET_S8_T0_ = comdat any

$_ZNSt27__uninitialized_default_n_1ILb0EE18__uninit_default_nIPSt6vectorIN6dealii11Polynomials10PolynomialIdEESaIS6_EEmEET_SA_T0_ = comdat any

$_ZSt10_ConstructISt6vectorIN6dealii11Polynomials10PolynomialIdEESaIS4_EEJEEvPT_DpOT0_ = comdat any

$_ZSt11__addressofISt6vectorIN6dealii11Polynomials10PolynomialIdEESaIS4_EEEPT_RS7_ = comdat any

$_ZSt8_DestroyIPSt6vectorIN6dealii11Polynomials10PolynomialIdEESaIS4_EEEvT_S8_ = comdat any

$_ZNSt6vectorIN6dealii11Polynomials10PolynomialIdEESaIS3_EEC2Ev = comdat any

$_ZNSt12_Vector_baseIN6dealii11Polynomials10PolynomialIdEESaIS3_EEC2Ev = comdat any

$_ZNSt12_Vector_baseIN6dealii11Polynomials10PolynomialIdEESaIS3_EE12_Vector_implC2Ev = comdat any

$_ZN9__gnu_cxx13new_allocatorIN6dealii11Polynomials10PolynomialIdEEEC2Ev = comdat any

$_ZNSt12_Destroy_auxILb0EE9__destroyIPSt6vectorIN6dealii11Polynomials10PolynomialIdEESaIS6_EEEEvT_SA_ = comdat any

$_ZSt8_DestroyISt6vectorIN6dealii11Polynomials10PolynomialIdEESaIS4_EEEvPT_ = comdat any

$_ZNSt12_Vector_baseISt6vectorIN6dealii11Polynomials10PolynomialIdEESaIS4_EESaIS6_EE13_M_deallocateEPS6_m = comdat any

$_ZNSt16allocator_traitsISaISt6vectorIN6dealii11Polynomials10PolynomialIdEESaIS4_EEEE10deallocateERS7_PS6_m = comdat any

$_ZN9__gnu_cxx13new_allocatorISt6vectorIN6dealii11Polynomials10PolynomialIdEESaIS5_EEE10deallocateEPS7_m = comdat any

$_ZSt8_DestroyIPSt6vectorIN6dealii11Polynomials10PolynomialIdEESaIS4_EES6_EvT_S8_RSaIT0_E = comdat any

$_ZNSt6vectorIN6dealii11Polynomials10PolynomialIdEESaIS3_EE12emplace_backIJS3_EEEvDpOT_ = comdat any

$_ZSt4moveIRN6dealii11Polynomials10PolynomialIdEEEONSt16remove_referenceIT_E4typeEOS6_ = comdat any

$_ZNSt16allocator_traitsISaIN6dealii11Polynomials10PolynomialIdEEEE9constructIS3_JS3_EEEvRS4_PT_DpOT0_ = comdat any

$_ZSt7forwardIN6dealii11Polynomials10PolynomialIdEEEOT_RNSt16remove_referenceIS4_E4typeE = comdat any

$_ZNSt6vectorIN6dealii11Polynomials10PolynomialIdEESaIS3_EE17_M_realloc_insertIJS3_EEEvN9__gnu_cxx17__normal_iteratorIPS3_S5_EEDpOT_ = comdat any

$_ZNSt6vectorIN6dealii11Polynomials10PolynomialIdEESaIS3_EE3endEv = comdat any

$_ZN9__gnu_cxx13new_allocatorIN6dealii11Polynomials10PolynomialIdEEE9constructIS4_JS4_EEEvPT_DpOT0_ = comdat any

$_ZN6dealii11Polynomials10PolynomialIdEC2EOS2_ = comdat any

$_ZNSt6vectorIdSaIdEEC2EOS1_ = comdat any

$_ZNSt12_Vector_baseIdSaIdEEC2EOS1_ = comdat any

$_ZNSt12_Vector_baseIdSaIdEE12_Vector_implC2EOS2_ = comdat any

$_ZSt4moveIRNSt12_Vector_baseIdSaIdEE12_Vector_implEEONSt16remove_referenceIT_E4typeEOS6_ = comdat any

$_ZNSt12_Vector_baseIdSaIdEE17_Vector_impl_dataC2EOS2_ = comdat any

$_ZN9__gnu_cxx13new_allocatorIdEC2ERKS1_ = comdat any

$_ZNKSt6vectorIN6dealii11Polynomials10PolynomialIdEESaIS3_EE12_M_check_lenEmPKc = comdat any

$_ZN9__gnu_cxxmiIPN6dealii11Polynomials10PolynomialIdEESt6vectorIS4_SaIS4_EEEENS_17__normal_iteratorIT_T0_E15difference_typeERKSC_SF_ = comdat any

$_ZNSt6vectorIN6dealii11Polynomials10PolynomialIdEESaIS3_EE5beginEv = comdat any

$_ZNSt12_Vector_baseIN6dealii11Polynomials10PolynomialIdEESaIS3_EE11_M_allocateEm = comdat any

$_ZSt34__uninitialized_move_if_noexcept_aIPN6dealii11Polynomials10PolynomialIdEES4_SaIS3_EET0_T_S7_S6_RT1_ = comdat any

$_ZNK9__gnu_cxx17__normal_iteratorIPN6dealii11Polynomials10PolynomialIdEESt6vectorIS4_SaIS4_EEE4baseEv = comdat any

$_ZNSt12_Vector_baseIN6dealii11Polynomials10PolynomialIdEESaIS3_EE19_M_get_Tp_allocatorEv = comdat any

$_ZNSt16allocator_traitsISaIN6dealii11Polynomials10PolynomialIdEEEE7destroyIS3_EEvRS4_PT_ = comdat any

$_ZSt8_DestroyIPN6dealii11Polynomials10PolynomialIdEES3_EvT_S5_RSaIT0_E = comdat any

$_ZNSt12_Vector_baseIN6dealii11Polynomials10PolynomialIdEESaIS3_EE13_M_deallocateEPS3_m = comdat any

$_ZNKSt6vectorIN6dealii11Polynomials10PolynomialIdEESaIS3_EE8max_sizeEv = comdat any

$_ZNKSt6vectorIN6dealii11Polynomials10PolynomialIdEESaIS3_EE4sizeEv = comdat any

$_ZNSt6vectorIN6dealii11Polynomials10PolynomialIdEESaIS3_EE11_S_max_sizeERKS4_ = comdat any

$_ZNKSt12_Vector_baseIN6dealii11Polynomials10PolynomialIdEESaIS3_EE19_M_get_Tp_allocatorEv = comdat any

$_ZNSt16allocator_traitsISaIN6dealii11Polynomials10PolynomialIdEEEE8max_sizeERKS4_ = comdat any

$_ZNK9__gnu_cxx13new_allocatorIN6dealii11Polynomials10PolynomialIdEEE8max_sizeEv = comdat any

$_ZNK9__gnu_cxx13new_allocatorIN6dealii11Polynomials10PolynomialIdEEE11_M_max_sizeEv = comdat any

$_ZN9__gnu_cxx17__normal_iteratorIPN6dealii11Polynomials10PolynomialIdEESt6vectorIS4_SaIS4_EEEC2ERKS5_ = comdat any

$_ZNSt16allocator_traitsISaIN6dealii11Polynomials10PolynomialIdEEEE8allocateERS4_m = comdat any

$_ZN9__gnu_cxx13new_allocatorIN6dealii11Polynomials10PolynomialIdEEE8allocateEmPKv = comdat any

$_ZSt22__uninitialized_copy_aIPKN6dealii11Polynomials10PolynomialIdEEPS3_S3_ET0_T_S8_S7_RSaIT1_E = comdat any

$_ZSt32__make_move_if_noexcept_iteratorIN6dealii11Polynomials10PolynomialIdEEPKS3_ET0_PT_ = comdat any

$_ZSt18uninitialized_copyIPKN6dealii11Polynomials10PolynomialIdEEPS3_ET0_T_S8_S7_ = comdat any

$_ZNSt20__uninitialized_copyILb0EE13__uninit_copyIPKN6dealii11Polynomials10PolynomialIdEEPS5_EET0_T_SA_S9_ = comdat any

$_ZSt10_ConstructIN6dealii11Polynomials10PolynomialIdEEJRKS3_EEvPT_DpOT0_ = comdat any

$_ZSt11__addressofIN6dealii11Polynomials10PolynomialIdEEEPT_RS4_ = comdat any

$_ZSt8_DestroyIPN6dealii11Polynomials10PolynomialIdEEEvT_S5_ = comdat any

$_ZSt7forwardIRKN6dealii11Polynomials10PolynomialIdEEEOT_RNSt16remove_referenceIS6_E4typeE = comdat any

$_ZN6dealii11Polynomials10PolynomialIdEC2ERKS2_ = comdat any

$_ZNSt6vectorIdSaIdEEC2ERKS1_ = comdat any

$_ZN9__gnu_cxx14__alloc_traitsISaIdEdE17_S_select_on_copyERKS1_ = comdat any

$_ZNKSt12_Vector_baseIdSaIdEE19_M_get_Tp_allocatorEv = comdat any

$_ZNSt12_Vector_baseIdSaIdEEC2EmRKS0_ = comdat any

$_ZNSaIdED2Ev = comdat any

$_ZSt22__uninitialized_copy_aIN9__gnu_cxx17__normal_iteratorIPKdSt6vectorIdSaIdEEEEPddET0_T_SA_S9_RSaIT1_E = comdat any

$_ZNKSt6vectorIdSaIdEE5beginEv = comdat any

$_ZNKSt6vectorIdSaIdEE3endEv = comdat any

$_ZNSt16allocator_traitsISaIdEE37select_on_container_copy_constructionERKS0_ = comdat any

$_ZNSaIdEC2ERKS_ = comdat any

$_ZNSt12_Vector_baseIdSaIdEE12_Vector_implC2ERKS0_ = comdat any

$_ZNSt12_Vector_baseIdSaIdEE17_M_create_storageEm = comdat any

$_ZNSt12_Vector_baseIdSaIdEE17_Vector_impl_dataC2Ev = comdat any

$_ZNSt12_Vector_baseIdSaIdEE11_M_allocateEm = comdat any

$_ZNSt16allocator_traitsISaIdEE8allocateERS0_m = comdat any

$_ZN9__gnu_cxx13new_allocatorIdE8allocateEmPKv = comdat any

$_ZNK9__gnu_cxx13new_allocatorIdE11_M_max_sizeEv = comdat any

$_ZSt18uninitialized_copyIN9__gnu_cxx17__normal_iteratorIPKdSt6vectorIdSaIdEEEEPdET0_T_SA_S9_ = comdat any

$_ZNSt20__uninitialized_copyILb1EE13__uninit_copyIN9__gnu_cxx17__normal_iteratorIPKdSt6vectorIdSaIdEEEEPdEET0_T_SC_SB_ = comdat any

$_ZSt4copyIN9__gnu_cxx17__normal_iteratorIPKdSt6vectorIdSaIdEEEEPdET0_T_SA_S9_ = comdat any

$_ZSt13__copy_move_aILb0EN9__gnu_cxx17__normal_iteratorIPKdSt6vectorIdSaIdEEEEPdET1_T0_SA_S9_ = comdat any

$_ZSt12__miter_baseIN9__gnu_cxx17__normal_iteratorIPKdSt6vectorIdSaIdEEEEET_S8_ = comdat any

$_ZSt12__niter_wrapIPdET_RKS1_S1_ = comdat any

$_ZSt14__copy_move_a1ILb0EPKdPdET1_T0_S4_S3_ = comdat any

$_ZSt12__niter_baseIPKdSt6vectorIdSaIdEEET_N9__gnu_cxx17__normal_iteratorIS5_T0_EE = comdat any

$_ZSt12__niter_baseIPdET_S1_ = comdat any

$_ZSt14__copy_move_a2ILb0EPKdPdET1_T0_S4_S3_ = comdat any

$_ZNSt11__copy_moveILb0ELb1ESt26random_access_iterator_tagE8__copy_mIdEEPT_PKS3_S6_S4_ = comdat any

$_ZNK9__gnu_cxx17__normal_iteratorIPKdSt6vectorIdSaIdEEE4baseEv = comdat any

$_ZN9__gnu_cxx17__normal_iteratorIPKdSt6vectorIdSaIdEEEC2ERKS2_ = comdat any

$_ZNSt12_Destroy_auxILb0EE9__destroyIPN6dealii11Polynomials10PolynomialIdEEEEvT_S7_ = comdat any

$_ZSt8_DestroyIN6dealii11Polynomials10PolynomialIdEEEvPT_ = comdat any

$_ZN9__gnu_cxx13new_allocatorIN6dealii11Polynomials10PolynomialIdEEE7destroyIS4_EEvPT_ = comdat any

$_ZNSt16allocator_traitsISaIN6dealii11Polynomials10PolynomialIdEEEE10deallocateERS4_PS3_m = comdat any

$_ZN9__gnu_cxx13new_allocatorIN6dealii11Polynomials10PolynomialIdEEE10deallocateEPS4_m = comdat any

$_ZNSt6vectorIN6dealii11Polynomials10PolynomialIdEESaIS3_EE14_M_move_assignEOS5_St17integral_constantIbLb1EE = comdat any

$_ZSt4moveIRSt6vectorIN6dealii11Polynomials10PolynomialIdEESaIS4_EEEONSt16remove_referenceIT_E4typeEOS9_ = comdat any

$_ZNKSt12_Vector_baseIN6dealii11Polynomials10PolynomialIdEESaIS3_EE13get_allocatorEv = comdat any

$_ZNSt6vectorIN6dealii11Polynomials10PolynomialIdEESaIS3_EEC2ERKS4_ = comdat any

$_ZNSaIN6dealii11Polynomials10PolynomialIdEEED2Ev = comdat any

$_ZNSt12_Vector_baseIN6dealii11Polynomials10PolynomialIdEESaIS3_EE17_Vector_impl_data12_M_swap_dataERS6_ = comdat any

$_ZSt15__alloc_on_moveISaIN6dealii11Polynomials10PolynomialIdEEEEvRT_S6_ = comdat any

$_ZNSaIN6dealii11Polynomials10PolynomialIdEEEC2ERKS3_ = comdat any

$_ZN9__gnu_cxx13new_allocatorIN6dealii11Polynomials10PolynomialIdEEEC2ERKS5_ = comdat any

$_ZNSt12_Vector_baseIN6dealii11Polynomials10PolynomialIdEESaIS3_EEC2ERKS4_ = comdat any

$_ZNSt12_Vector_baseIN6dealii11Polynomials10PolynomialIdEESaIS3_EE12_Vector_implC2ERKS4_ = comdat any

$_ZN9__gnu_cxx13new_allocatorIN6dealii11Polynomials10PolynomialIdEEED2Ev = comdat any

$_ZNSt12_Vector_baseIN6dealii11Polynomials10PolynomialIdEESaIS3_EE17_Vector_impl_dataC2Ev = comdat any

$_ZNSt12_Vector_baseIN6dealii11Polynomials10PolynomialIdEESaIS3_EE17_Vector_impl_data12_M_copy_dataERKS6_ = comdat any

$_ZSt18__do_alloc_on_moveISaIN6dealii11Polynomials10PolynomialIdEEEEvRT_S6_St17integral_constantIbLb1EE = comdat any

$_ZSt4moveIRSaIN6dealii11Polynomials10PolynomialIdEEEEONSt16remove_referenceIT_E4typeEOS7_ = comdat any

$_ZNSt12_Vector_baseIN6dealii11Polynomials10PolynomialIdEESaIS3_EED2Ev = comdat any

$_ZNSt12_Vector_baseIN6dealii11Polynomials10PolynomialIdEESaIS3_EE12_Vector_implD2Ev = comdat any

$_ZNKSt6vectorIN6dealii11Polynomials10PolynomialIdEESaIS3_EE5beginEv = comdat any

$_ZNKSt6vectorIN6dealii11Polynomials10PolynomialIdEESaIS3_EE3endEv = comdat any

$_ZNSaIN6dealii11Polynomials10PolynomialIdEEEC2Ev = comdat any

$_ZNSt6vectorIN6dealii11Polynomials10PolynomialIdEESaIS3_EEC2IN9__gnu_cxx17__normal_iteratorIPKS3_S5_EEvEET_SC_RKS4_ = comdat any

$_ZN6dealii24TensorProductPolynomialsILi2EE12x_to_the_dimEj = comdat any

$_ZN9__gnu_cxx17__normal_iteratorIPKN6dealii11Polynomials10PolynomialIdEESt6vectorIS4_SaIS4_EEEC2ERKS6_ = comdat any

$_ZNSt6vectorIN6dealii11Polynomials10PolynomialIdEESaIS3_EE19_M_range_initializeIN9__gnu_cxx17__normal_iteratorIPKS3_S5_EEEEvT_SC_St20forward_iterator_tag = comdat any

$_ZSt19__iterator_categoryIN9__gnu_cxx17__normal_iteratorIPKN6dealii11Polynomials10PolynomialIdEESt6vectorIS5_SaIS5_EEEEENSt15iterator_traitsIT_E17iterator_categoryERKSD_ = comdat any

$_ZSt8distanceIN9__gnu_cxx17__normal_iteratorIPKN6dealii11Polynomials10PolynomialIdEESt6vectorIS5_SaIS5_EEEEENSt15iterator_traitsIT_E15difference_typeESD_SD_ = comdat any

$_ZNSt6vectorIN6dealii11Polynomials10PolynomialIdEESaIS3_EE17_S_check_init_lenEmRKS4_ = comdat any

$_ZSt22__uninitialized_copy_aIN9__gnu_cxx17__normal_iteratorIPKN6dealii11Polynomials10PolynomialIdEESt6vectorIS5_SaIS5_EEEEPS5_S5_ET0_T_SE_SD_RSaIT1_E = comdat any

$_ZSt10__distanceIN9__gnu_cxx17__normal_iteratorIPKN6dealii11Polynomials10PolynomialIdEESt6vectorIS5_SaIS5_EEEEENSt15iterator_traitsIT_E15difference_typeESD_SD_St26random_access_iterator_tag = comdat any

$_ZN9__gnu_cxxmiIPKN6dealii11Polynomials10PolynomialIdEESt6vectorIS4_SaIS4_EEEENS_17__normal_iteratorIT_T0_E15difference_typeERKSD_SG_ = comdat any

$_ZNK9__gnu_cxx17__normal_iteratorIPKN6dealii11Polynomials10PolynomialIdEESt6vectorIS4_SaIS4_EEE4baseEv = comdat any

$_ZSt18uninitialized_copyIN9__gnu_cxx17__normal_iteratorIPKN6dealii11Polynomials10PolynomialIdEESt6vectorIS5_SaIS5_EEEEPS5_ET0_T_SE_SD_ = comdat any

$_ZNSt20__uninitialized_copyILb0EE13__uninit_copyIN9__gnu_cxx17__normal_iteratorIPKN6dealii11Polynomials10PolynomialIdEESt6vectorIS7_SaIS7_EEEEPS7_EET0_T_SG_SF_ = comdat any

$_ZN9__gnu_cxxneIPKN6dealii11Polynomials10PolynomialIdEESt6vectorIS4_SaIS4_EEEEbRKNS_17__normal_iteratorIT_T0_EESF_ = comdat any

$_ZNK9__gnu_cxx17__normal_iteratorIPKN6dealii11Polynomials10PolynomialIdEESt6vectorIS4_SaIS4_EEEdeEv = comdat any

$_ZN9__gnu_cxx17__normal_iteratorIPKN6dealii11Polynomials10PolynomialIdEESt6vectorIS4_SaIS4_EEEppEv = comdat any

$_ZNKSt6vectorIN6dealii5PointILi2EEESaIS2_EEixEm = comdat any

$_ZNKSt6vectorIN6dealii5PointILi3EEESaIS2_EEixEm = comdat any

$_ZNK6dealii9TableBaseILi3EdE10n_elementsEv = comdat any

$_ZN6dealii9TableBaseILi3EdE12reset_valuesEv = comdat any

$_ZNK6dealii6TensorILi1ELi3EEixEj = comdat any

$_ZN6dealii9TableBaseILi2EdEC2ERKNS_12TableIndicesILi2EEE = comdat any

$_ZN6dealii9TableBaseILi3EdEC2ERKNS_12TableIndicesILi3EEE = comdat any

$_ZTVN6dealii6FE_ABFILi3EEE = comdat any

$_ZTSN6dealii6FE_ABFILi3EEE = comdat any

$_ZTSN6dealii13FE_PolyTensorINS_14PolynomialsABFILi3EEELi3ELi3EEE = comdat any

$_ZTSN6dealii13FiniteElementILi3ELi3EEE = comdat any

$_ZTSN6dealii17FiniteElementDataILi3EEE = comdat any

$_ZTIN6dealii17FiniteElementDataILi3EEE = comdat any

$_ZTIN6dealii13FiniteElementILi3ELi3EEE = comdat any

$_ZTIN6dealii13FE_PolyTensorINS_14PolynomialsABFILi3EEELi3ELi3EEE = comdat any

$_ZTIN6dealii6FE_ABFILi3EEE = comdat any

$_ZTVN6dealii6FE_ABFILi3EE12InternalDataE = comdat any

$_ZTSN6dealii6FE_ABFILi3EE12InternalDataE = comdat any

$_ZTSN6dealii13FiniteElementILi3ELi3EE16InternalDataBaseE = comdat any

$_ZTSN6dealii7MappingILi3ELi3EE16InternalDataBaseE = comdat any

$_ZTIN6dealii7MappingILi3ELi3EE16InternalDataBaseE = comdat any

$_ZTIN6dealii13FiniteElementILi3ELi3EE16InternalDataBaseE = comdat any

$_ZTIN6dealii6FE_ABFILi3EE12InternalDataE = comdat any

$_ZTVN6dealii9TableBaseILi2EdEE = comdat any

$_ZTSN6dealii9TableBaseILi2EdEE = comdat any

$_ZTIN6dealii9TableBaseILi2EdEE = comdat any

$_ZTVN6dealii9TableBaseILi3EdEE = comdat any

$_ZTSN6dealii9TableBaseILi3EdEE = comdat any

$_ZTIN6dealii9TableBaseILi3EdEE = comdat any

$_ZTVN6dealii13FE_PolyTensorINS_14PolynomialsABFILi3EEELi3ELi3EEE = comdat any

$_ZTVN6dealii11Polynomials10PolynomialIdEE = comdat any

$_ZTSN6dealii11Polynomials10PolynomialIdEE = comdat any

$_ZTIN6dealii11Polynomials10PolynomialIdEE = comdat any

$_ZTVN6dealii5TableILi2EdEE = comdat any

$_ZTSN6dealii5TableILi2EdEE = comdat any

$_ZTIN6dealii5TableILi2EdEE = comdat any

$_ZTVN6dealii5TableILi3EdEE = comdat any

$_ZTSN6dealii5TableILi3EdEE = comdat any

$_ZTIN6dealii5TableILi3EdEE = comdat any

@_ZN12_GLOBAL__N_12_1E = internal global %"struct.boost::arg" zeroinitializer, align 1, !dbg !0
@_ZN12_GLOBAL__N_12_2E = internal global %"struct.boost::arg.0" zeroinitializer, align 1, !dbg !15
@_ZN12_GLOBAL__N_12_3E = internal global %"struct.boost::arg.2" zeroinitializer, align 1, !dbg !25
@_ZN12_GLOBAL__N_12_4E = internal global %"struct.boost::arg.4" zeroinitializer, align 1, !dbg !35
@_ZN12_GLOBAL__N_12_5E = internal global %"struct.boost::arg.6" zeroinitializer, align 1, !dbg !45
@_ZN12_GLOBAL__N_12_6E = internal global %"struct.boost::arg.8" zeroinitializer, align 1, !dbg !55
@_ZN12_GLOBAL__N_12_7E = internal global %"struct.boost::arg.10" zeroinitializer, align 1, !dbg !65
@_ZN12_GLOBAL__N_12_8E = internal global %"struct.boost::arg.12" zeroinitializer, align 1, !dbg !75
@_ZN12_GLOBAL__N_12_9E = internal global %"struct.boost::arg.14" zeroinitializer, align 1, !dbg !85
@_ZStL8__ioinit = internal global %"class.std::ios_base::Init" zeroinitializer, align 1, !dbg !95
@__dso_handle = external hidden global i8
@_ZTVN6dealii6FE_ABFILi3EEE = weak_odr dso_local unnamed_addr constant { [38 x i8*] } { [38 x i8*] [i8* null, i8* bitcast ({ i8*, i8*, i8* }* @_ZTIN6dealii6FE_ABFILi3EEE to i8*), i8* bitcast (void (%"class.dealii::FE_ABF"*)* @_ZN6dealii6FE_ABFILi3EED2Ev to i8*), i8* bitcast (void (%"class.dealii::FE_ABF"*)* @_ZN6dealii6FE_ABFILi3EED0Ev to i8*), i8* bitcast (void (%"class.std::__cxx11::basic_string"*, %"class.dealii::FE_ABF"*)* @_ZNK6dealii6FE_ABFILi3EE8get_nameB5cxx11Ev to i8*), i8* bitcast (double (%"class.dealii::FE_PolyTensor"*, i32, %"class.dealii::Point"*)* @_ZNK6dealii13FE_PolyTensorINS_14PolynomialsABFILi3EEELi3ELi3EE11shape_valueEjRKNS_5PointILi3EEE to i8*), i8* bitcast (double (%"class.dealii::FE_PolyTensor"*, i32, %"class.dealii::Point"*, i32)* @_ZNK6dealii13FE_PolyTensorINS_14PolynomialsABFILi3EEELi3ELi3EE21shape_value_componentEjRKNS_5PointILi3EEEj to i8*), i8* bitcast (void (%"class.dealii::Tensor"*, %"class.dealii::FE_PolyTensor"*, i32, %"class.dealii::Point"*)* @_ZNK6dealii13FE_PolyTensorINS_14PolynomialsABFILi3EEELi3ELi3EE10shape_gradEjRKNS_5PointILi3EEE to i8*), i8* bitcast (void (%"class.dealii::Tensor"*, %"class.dealii::FE_PolyTensor"*, i32, %"class.dealii::Point"*, i32)* @_ZNK6dealii13FE_PolyTensorINS_14PolynomialsABFILi3EEELi3ELi3EE20shape_grad_componentEjRKNS_5PointILi3EEEj to i8*), i8* bitcast (void (%"class.dealii::Tensor.97"*, %"class.dealii::FE_PolyTensor"*, i32, %"class.dealii::Point"*)* @_ZNK6dealii13FE_PolyTensorINS_14PolynomialsABFILi3EEELi3ELi3EE15shape_grad_gradEjRKNS_5PointILi3EEE to i8*), i8* bitcast (void (%"class.dealii::Tensor.97"*, %"class.dealii::FE_PolyTensor"*, i32, %"class.dealii::Point"*, i32)* @_ZNK6dealii13FE_PolyTensorINS_14PolynomialsABFILi3EEELi3ELi3EE25shape_grad_grad_componentEjRKNS_5PointILi3EEEj to i8*), i8* bitcast (i1 (%"class.dealii::FE_ABF"*, i32, i32)* @_ZNK6dealii6FE_ABFILi3EE19has_support_on_faceEjj to i8*), i8* bitcast (i1 (%"class.dealii::FiniteElement"*)* @_ZNK6dealii13FiniteElementILi3ELi3EE30hp_constraints_are_implementedEv to i8*), i8* bitcast (void (%"class.dealii::FiniteElement"*, %"class.dealii::FiniteElement"*, %"class.dealii::FullMatrix"*)* @_ZNK6dealii13FiniteElementILi3ELi3EE24get_interpolation_matrixERKS1_RNS_10FullMatrixIdEE to i8*), i8* bitcast (void (%"class.dealii::FiniteElement"*, %"class.dealii::FiniteElement"*, %"class.dealii::FullMatrix"*)* @_ZNK6dealii13FiniteElementILi3ELi3EE29get_face_interpolation_matrixERKS1_RNS_10FullMatrixIdEE to i8*), i8* bitcast (void (%"class.dealii::FiniteElement"*, %"class.dealii::FiniteElement"*, i32, %"class.dealii::FullMatrix"*)* @_ZNK6dealii13FiniteElementILi3ELi3EE32get_subface_interpolation_matrixERKS1_jRNS_10FullMatrixIdEE to i8*), i8* bitcast (void (%"class.std::vector.45"*, %"class.dealii::FiniteElement"*, %"class.dealii::FiniteElement"*)* @_ZNK6dealii13FiniteElementILi3ELi3EE24hp_vertex_dof_identitiesERKS1_ to i8*), i8* bitcast (void (%"class.std::vector.45"*, %"class.dealii::FiniteElement"*, %"class.dealii::FiniteElement"*)* @_ZNK6dealii13FiniteElementILi3ELi3EE22hp_line_dof_identitiesERKS1_ to i8*), i8* bitcast (void (%"class.std::vector.45"*, %"class.dealii::FiniteElement"*, %"class.dealii::FiniteElement"*)* @_ZNK6dealii13FiniteElementILi3ELi3EE22hp_quad_dof_identitiesERKS1_ to i8*), i8* bitcast (i32 (%"class.dealii::FiniteElement"*, %"class.dealii::FiniteElement"*)* @_ZNK6dealii13FiniteElementILi3ELi3EE27compare_for_face_dominationERKS1_ to i8*), i8* bitcast (i32 (%"class.dealii::FE_ABF"*)* @_ZNK6dealii6FE_ABFILi3EE15n_base_elementsEv to i8*), i8* bitcast (%"class.dealii::FiniteElement"* (%"class.dealii::FE_ABF"*, i32)* @_ZNK6dealii6FE_ABFILi3EE12base_elementEj to i8*), i8* bitcast (i32 (%"class.dealii::FE_ABF"*, i32)* @_ZNK6dealii6FE_ABFILi3EE20element_multiplicityEj to i8*), i8* bitcast (void (%"class.dealii::Point"*, %"class.dealii::FiniteElement"*, i32)* @_ZNK6dealii13FiniteElementILi3ELi3EE18unit_support_pointEj to i8*), i8* bitcast (void (%"class.dealii::Point.34"*, %"class.dealii::FiniteElement"*, i32)* @_ZNK6dealii13FiniteElementILi3ELi3EE23unit_face_support_pointEj to i8*), i8* bitcast (void (%"class.dealii::FE_ABF"*, %"class.std::vector.82"*, %"class.std::vector.82"*)* @_ZNK6dealii6FE_ABFILi3EE11interpolateERSt6vectorIdSaIdEERKS4_ to i8*), i8* bitcast (void (%"class.dealii::FE_ABF"*, %"class.std::vector.82"*, %"class.std::vector.114"*, i32)* @_ZNK6dealii6FE_ABFILi3EE11interpolateERSt6vectorIdSaIdEERKS2_INS_6VectorIdEESaIS7_EEj to i8*), i8* bitcast (void (%"class.dealii::FE_ABF"*, %"class.std::vector.82"*, %"class.dealii::VectorSlice"*)* @_ZNK6dealii6FE_ABFILi3EE11interpolateERSt6vectorIdSaIdEERKNS_11VectorSliceIKS2_IS4_SaIS4_EEEE to i8*), i8* bitcast (i32 (%"class.dealii::FE_ABF"*)* @_ZNK6dealii6FE_ABFILi3EE18memory_consumptionEv to i8*), i8* bitcast (i32 (%"class.dealii::FE_ABF"*, i32)* @_ZNK6dealii6FE_ABFILi3EE11update_onceENS_11UpdateFlagsE to i8*), i8* bitcast (i32 (%"class.dealii::FE_ABF"*, i32)* @_ZNK6dealii6FE_ABFILi3EE11update_eachENS_11UpdateFlagsE to i8*), i8* bitcast (%"class.dealii::FiniteElement"* (%"class.dealii::FE_ABF"*)* @_ZNK6dealii6FE_ABFILi3EE5cloneEv to i8*), i8* bitcast (%"class.dealii::Mapping<3, 3>::InternalDataBase"* (%"class.dealii::FE_PolyTensor"*, i32, %"class.dealii::Mapping"*, %"class.dealii::Quadrature"*)* @_ZNK6dealii13FE_PolyTensorINS_14PolynomialsABFILi3EEELi3ELi3EE8get_dataENS_11UpdateFlagsERKNS_7MappingILi3ELi3EEERKNS_10QuadratureILi3EEE to i8*), i8* bitcast (%"class.dealii::Mapping<3, 3>::InternalDataBase"* (%"class.dealii::FiniteElement"*, i32, %"class.dealii::Mapping"*, %"class.dealii::Quadrature.134"*)* @_ZNK6dealii13FiniteElementILi3ELi3EE13get_face_dataENS_11UpdateFlagsERKNS_7MappingILi3ELi3EEERKNS_10QuadratureILi2EEE to i8*), i8* bitcast (%"class.dealii::Mapping<3, 3>::InternalDataBase"* (%"class.dealii::FiniteElement"*, i32, %"class.dealii::Mapping"*, %"class.dealii::Quadrature.134"*)* @_ZNK6dealii13FiniteElementILi3ELi3EE16get_subface_dataENS_11UpdateFlagsERKNS_7MappingILi3ELi3EEERKNS_10QuadratureILi2EEE to i8*), i8* bitcast (void (%"class.dealii::FE_PolyTensor"*, %"class.dealii::Mapping"*, %"class.dealii::TriaIterator"*, %"class.dealii::Quadrature"*, %"class.dealii::Mapping<3, 3>::InternalDataBase"*, %"class.dealii::Mapping<3, 3>::InternalDataBase"*, %"class.dealii::FEValuesData"*, i32*)* @_ZNK6dealii13FE_PolyTensorINS_14PolynomialsABFILi3EEELi3ELi3EE14fill_fe_valuesERKNS_7MappingILi3ELi3EEERKNS_12TriaIteratorINS_12CellAccessorILi3ELi3EEEEERKNS_10QuadratureILi3EEERNS5_16InternalDataBaseESJ_RNS_12FEValuesDataILi3ELi3EEERNS_14CellSimilarity10SimilarityE to i8*), i8* bitcast (void (%"class.dealii::FE_PolyTensor"*, %"class.dealii::Mapping"*, %"class.dealii::TriaIterator"*, i32, %"class.dealii::Quadrature.134"*, %"class.dealii::Mapping<3, 3>::InternalDataBase"*, %"class.dealii::Mapping<3, 3>::InternalDataBase"*, %"class.dealii::FEValuesData"*)* @_ZNK6dealii13FE_PolyTensorINS_14PolynomialsABFILi3EEELi3ELi3EE19fill_fe_face_valuesERKNS_7MappingILi3ELi3EEERKNS_12TriaIteratorINS_12CellAccessorILi3ELi3EEEEEjRKNS_10QuadratureILi2EEERNS5_16InternalDataBaseESJ_RNS_12FEValuesDataILi3ELi3EEE to i8*), i8* bitcast (void (%"class.dealii::FE_PolyTensor"*, %"class.dealii::Mapping"*, %"class.dealii::TriaIterator"*, i32, i32, %"class.dealii::Quadrature.134"*, %"class.dealii::Mapping<3, 3>::InternalDataBase"*, %"class.dealii::Mapping<3, 3>::InternalDataBase"*, %"class.dealii::FEValuesData"*)* @_ZNK6dealii13FE_PolyTensorINS_14PolynomialsABFILi3EEELi3ELi3EE22fill_fe_subface_valuesERKNS_7MappingILi3ELi3EEERKNS_12TriaIteratorINS_12CellAccessorILi3ELi3EEEEEjjRKNS_10QuadratureILi2EEERNS5_16InternalDataBaseESJ_RNS_12FEValuesDataILi3ELi3EEE to i8*)] }, comdat, align 8
@.str = private unnamed_addr constant [8 x i8] c"FE_ABF<\00", align 1
@.str.10 = private unnamed_addr constant [3 x i8] c">(\00", align 1
@.str.11 = private unnamed_addr constant [2 x i8] c")\00", align 1
@_ZN6dealii12GeometryInfoILi3EE21unit_normal_directionE = external dso_local constant [6 x i32], align 16
@_ZN6dealii12GeometryInfoILi3EE23unit_normal_orientationE = external dso_local constant [6 x i32], align 16
@_ZTVN10__cxxabiv120__si_class_type_infoE = external dso_local global i8*
@_ZTSN6dealii6FE_ABFILi3EEE = weak_odr dso_local constant [23 x i8] c"N6dealii6FE_ABFILi3EEE\00", comdat, align 1
@_ZTSN6dealii13FE_PolyTensorINS_14PolynomialsABFILi3EEELi3ELi3EEE = linkonce_odr dso_local constant [61 x i8] c"N6dealii13FE_PolyTensorINS_14PolynomialsABFILi3EEELi3ELi3EEE\00", comdat, align 1
@_ZTVN10__cxxabiv121__vmi_class_type_infoE = external dso_local global i8*
@_ZTSN6dealii13FiniteElementILi3ELi3EEE = linkonce_odr dso_local constant [35 x i8] c"N6dealii13FiniteElementILi3ELi3EEE\00", comdat, align 1
@_ZTIN6dealii11SubscriptorE = external dso_local constant i8*
@_ZTVN10__cxxabiv117__class_type_infoE = external dso_local global i8*
@_ZTSN6dealii17FiniteElementDataILi3EEE = linkonce_odr dso_local constant [35 x i8] c"N6dealii17FiniteElementDataILi3EEE\00", comdat, align 1
@_ZTIN6dealii17FiniteElementDataILi3EEE = linkonce_odr dso_local constant { i8*, i8* } { i8* bitcast (i8** getelementptr inbounds (i8*, i8** @_ZTVN10__cxxabiv117__class_type_infoE, i64 2) to i8*), i8* getelementptr inbounds ([35 x i8], [35 x i8]* @_ZTSN6dealii17FiniteElementDataILi3EEE, i32 0, i32 0) }, comdat, align 8
@_ZTIN6dealii13FiniteElementILi3ELi3EEE = linkonce_odr dso_local constant { i8*, i8*, i32, i32, i8*, i64, i8*, i64 } { i8* bitcast (i8** getelementptr inbounds (i8*, i8** @_ZTVN10__cxxabiv121__vmi_class_type_infoE, i64 2) to i8*), i8* getelementptr inbounds ([35 x i8], [35 x i8]* @_ZTSN6dealii13FiniteElementILi3ELi3EEE, i32 0, i32 0), i32 0, i32 2, i8* bitcast (i8** @_ZTIN6dealii11SubscriptorE to i8*), i64 2, i8* bitcast ({ i8*, i8* }* @_ZTIN6dealii17FiniteElementDataILi3EEE to i8*), i64 18434 }, comdat, align 8
@_ZTIN6dealii13FE_PolyTensorINS_14PolynomialsABFILi3EEELi3ELi3EEE = linkonce_odr dso_local constant { i8*, i8*, i8* } { i8* bitcast (i8** getelementptr inbounds (i8*, i8** @_ZTVN10__cxxabiv120__si_class_type_infoE, i64 2) to i8*), i8* getelementptr inbounds ([61 x i8], [61 x i8]* @_ZTSN6dealii13FE_PolyTensorINS_14PolynomialsABFILi3EEELi3ELi3EEE, i32 0, i32 0), i8* bitcast ({ i8*, i8*, i32, i32, i8*, i64, i8*, i64 }* @_ZTIN6dealii13FiniteElementILi3ELi3EEE to i8*) }, comdat, align 8
@_ZTIN6dealii6FE_ABFILi3EEE = weak_odr dso_local constant { i8*, i8*, i8* } { i8* bitcast (i8** getelementptr inbounds (i8*, i8** @_ZTVN10__cxxabiv120__si_class_type_infoE, i64 2) to i8*), i8* getelementptr inbounds ([23 x i8], [23 x i8]* @_ZTSN6dealii6FE_ABFILi3EEE, i32 0, i32 0), i8* bitcast ({ i8*, i8*, i8* }* @_ZTIN6dealii13FE_PolyTensorINS_14PolynomialsABFILi3EEELi3ELi3EEE to i8*) }, comdat, align 8
@_ZTVN6dealii6FE_ABFILi3EE12InternalDataE = weak_odr dso_local unnamed_addr constant { [6 x i8*] } { [6 x i8*] [i8* null, i8* bitcast ({ i8*, i8*, i8* }* @_ZTIN6dealii6FE_ABFILi3EE12InternalDataE to i8*), i8* bitcast (void (%"class.dealii::FE_ABF<3>::InternalData"*)* @_ZN6dealii6FE_ABFILi3EE12InternalDataD2Ev to i8*), i8* bitcast (void (%"class.dealii::FE_ABF<3>::InternalData"*)* @_ZN6dealii6FE_ABFILi3EE12InternalDataD0Ev to i8*), i8* bitcast (void (%"class.dealii::Mapping<3, 3>::InternalDataBase"*)* @_ZN6dealii7MappingILi3ELi3EE16InternalDataBase16clear_first_cellEv to i8*), i8* bitcast (i32 (%"class.dealii::Mapping<3, 3>::InternalDataBase"*)* @_ZNK6dealii7MappingILi3ELi3EE16InternalDataBase18memory_consumptionEv to i8*)] }, comdat, align 8
@_ZTSN6dealii6FE_ABFILi3EE12InternalDataE = weak_odr dso_local constant [37 x i8] c"N6dealii6FE_ABFILi3EE12InternalDataE\00", comdat, align 1
@_ZTSN6dealii13FiniteElementILi3ELi3EE16InternalDataBaseE = linkonce_odr dso_local constant [53 x i8] c"N6dealii13FiniteElementILi3ELi3EE16InternalDataBaseE\00", comdat, align 1
@_ZTSN6dealii7MappingILi3ELi3EE16InternalDataBaseE = linkonce_odr dso_local constant [46 x i8] c"N6dealii7MappingILi3ELi3EE16InternalDataBaseE\00", comdat, align 1
@_ZTIN6dealii7MappingILi3ELi3EE16InternalDataBaseE = linkonce_odr dso_local constant { i8*, i8*, i8* } { i8* bitcast (i8** getelementptr inbounds (i8*, i8** @_ZTVN10__cxxabiv120__si_class_type_infoE, i64 2) to i8*), i8* getelementptr inbounds ([46 x i8], [46 x i8]* @_ZTSN6dealii7MappingILi3ELi3EE16InternalDataBaseE, i32 0, i32 0), i8* bitcast (i8** @_ZTIN6dealii11SubscriptorE to i8*) }, comdat, align 8
@_ZTIN6dealii13FiniteElementILi3ELi3EE16InternalDataBaseE = linkonce_odr dso_local constant { i8*, i8*, i8* } { i8* bitcast (i8** getelementptr inbounds (i8*, i8** @_ZTVN10__cxxabiv120__si_class_type_infoE, i64 2) to i8*), i8* getelementptr inbounds ([53 x i8], [53 x i8]* @_ZTSN6dealii13FiniteElementILi3ELi3EE16InternalDataBaseE, i32 0, i32 0), i8* bitcast ({ i8*, i8*, i8* }* @_ZTIN6dealii7MappingILi3ELi3EE16InternalDataBaseE to i8*) }, comdat, align 8
@_ZTIN6dealii6FE_ABFILi3EE12InternalDataE = weak_odr dso_local constant { i8*, i8*, i8* } { i8* bitcast (i8** getelementptr inbounds (i8*, i8** @_ZTVN10__cxxabiv120__si_class_type_infoE, i64 2) to i8*), i8* getelementptr inbounds ([37 x i8], [37 x i8]* @_ZTSN6dealii6FE_ABFILi3EE12InternalDataE, i32 0, i32 0), i8* bitcast ({ i8*, i8*, i8* }* @_ZTIN6dealii13FiniteElementILi3ELi3EE16InternalDataBaseE to i8*) }, comdat, align 8
@_ZTVN6dealii9TableBaseILi2EdEE = linkonce_odr dso_local unnamed_addr constant { [4 x i8*] } { [4 x i8*] [i8* null, i8* bitcast ({ i8*, i8*, i8* }* @_ZTIN6dealii9TableBaseILi2EdEE to i8*), i8* bitcast (void (%"class.dealii::TableBase"*)* @_ZN6dealii9TableBaseILi2EdED2Ev to i8*), i8* bitcast (void (%"class.dealii::TableBase"*)* @_ZN6dealii9TableBaseILi2EdED0Ev to i8*)] }, comdat, align 8
@_ZTSN6dealii9TableBaseILi2EdEE = linkonce_odr dso_local constant [27 x i8] c"N6dealii9TableBaseILi2EdEE\00", comdat, align 1
@_ZTIN6dealii9TableBaseILi2EdEE = linkonce_odr dso_local constant { i8*, i8*, i8* } { i8* bitcast (i8** getelementptr inbounds (i8*, i8** @_ZTVN10__cxxabiv120__si_class_type_infoE, i64 2) to i8*), i8* getelementptr inbounds ([27 x i8], [27 x i8]* @_ZTSN6dealii9TableBaseILi2EdEE, i32 0, i32 0), i8* bitcast (i8** @_ZTIN6dealii11SubscriptorE to i8*) }, comdat, align 8
@_ZTVN6dealii9TableBaseILi3EdEE = linkonce_odr dso_local unnamed_addr constant { [4 x i8*] } { [4 x i8*] [i8* null, i8* bitcast ({ i8*, i8*, i8* }* @_ZTIN6dealii9TableBaseILi3EdEE to i8*), i8* bitcast (void (%"class.dealii::TableBase.105"*)* @_ZN6dealii9TableBaseILi3EdED2Ev to i8*), i8* bitcast (void (%"class.dealii::TableBase.105"*)* @_ZN6dealii9TableBaseILi3EdED0Ev to i8*)] }, comdat, align 8
@_ZTSN6dealii9TableBaseILi3EdEE = linkonce_odr dso_local constant [27 x i8] c"N6dealii9TableBaseILi3EdEE\00", comdat, align 1
@_ZTIN6dealii9TableBaseILi3EdEE = linkonce_odr dso_local constant { i8*, i8*, i8* } { i8* bitcast (i8** getelementptr inbounds (i8*, i8** @_ZTVN10__cxxabiv120__si_class_type_infoE, i64 2) to i8*), i8* getelementptr inbounds ([27 x i8], [27 x i8]* @_ZTSN6dealii9TableBaseILi3EdEE, i32 0, i32 0), i8* bitcast (i8** @_ZTIN6dealii11SubscriptorE to i8*) }, comdat, align 8
@_ZTVN6dealii13FE_PolyTensorINS_14PolynomialsABFILi3EEELi3ELi3EEE = linkonce_odr dso_local unnamed_addr constant { [38 x i8*] } { [38 x i8*] [i8* null, i8* bitcast ({ i8*, i8*, i8* }* @_ZTIN6dealii13FE_PolyTensorINS_14PolynomialsABFILi3EEELi3ELi3EEE to i8*), i8* bitcast (void (%"class.dealii::FE_PolyTensor"*)* @_ZN6dealii13FE_PolyTensorINS_14PolynomialsABFILi3EEELi3ELi3EED2Ev to i8*), i8* bitcast (void (%"class.dealii::FE_PolyTensor"*)* @_ZN6dealii13FE_PolyTensorINS_14PolynomialsABFILi3EEELi3ELi3EED0Ev to i8*), i8* bitcast (void ()* @__cxa_pure_virtual to i8*), i8* bitcast (double (%"class.dealii::FE_PolyTensor"*, i32, %"class.dealii::Point"*)* @_ZNK6dealii13FE_PolyTensorINS_14PolynomialsABFILi3EEELi3ELi3EE11shape_valueEjRKNS_5PointILi3EEE to i8*), i8* bitcast (double (%"class.dealii::FE_PolyTensor"*, i32, %"class.dealii::Point"*, i32)* @_ZNK6dealii13FE_PolyTensorINS_14PolynomialsABFILi3EEELi3ELi3EE21shape_value_componentEjRKNS_5PointILi3EEEj to i8*), i8* bitcast (void (%"class.dealii::Tensor"*, %"class.dealii::FE_PolyTensor"*, i32, %"class.dealii::Point"*)* @_ZNK6dealii13FE_PolyTensorINS_14PolynomialsABFILi3EEELi3ELi3EE10shape_gradEjRKNS_5PointILi3EEE to i8*), i8* bitcast (void (%"class.dealii::Tensor"*, %"class.dealii::FE_PolyTensor"*, i32, %"class.dealii::Point"*, i32)* @_ZNK6dealii13FE_PolyTensorINS_14PolynomialsABFILi3EEELi3ELi3EE20shape_grad_componentEjRKNS_5PointILi3EEEj to i8*), i8* bitcast (void (%"class.dealii::Tensor.97"*, %"class.dealii::FE_PolyTensor"*, i32, %"class.dealii::Point"*)* @_ZNK6dealii13FE_PolyTensorINS_14PolynomialsABFILi3EEELi3ELi3EE15shape_grad_gradEjRKNS_5PointILi3EEE to i8*), i8* bitcast (void (%"class.dealii::Tensor.97"*, %"class.dealii::FE_PolyTensor"*, i32, %"class.dealii::Point"*, i32)* @_ZNK6dealii13FE_PolyTensorINS_14PolynomialsABFILi3EEELi3ELi3EE25shape_grad_grad_componentEjRKNS_5PointILi3EEEj to i8*), i8* bitcast (i1 (%"class.dealii::FiniteElement"*, i32, i32)* @_ZNK6dealii13FiniteElementILi3ELi3EE19has_support_on_faceEjj to i8*), i8* bitcast (i1 (%"class.dealii::FiniteElement"*)* @_ZNK6dealii13FiniteElementILi3ELi3EE30hp_constraints_are_implementedEv to i8*), i8* bitcast (void (%"class.dealii::FiniteElement"*, %"class.dealii::FiniteElement"*, %"class.dealii::FullMatrix"*)* @_ZNK6dealii13FiniteElementILi3ELi3EE24get_interpolation_matrixERKS1_RNS_10FullMatrixIdEE to i8*), i8* bitcast (void (%"class.dealii::FiniteElement"*, %"class.dealii::FiniteElement"*, %"class.dealii::FullMatrix"*)* @_ZNK6dealii13FiniteElementILi3ELi3EE29get_face_interpolation_matrixERKS1_RNS_10FullMatrixIdEE to i8*), i8* bitcast (void (%"class.dealii::FiniteElement"*, %"class.dealii::FiniteElement"*, i32, %"class.dealii::FullMatrix"*)* @_ZNK6dealii13FiniteElementILi3ELi3EE32get_subface_interpolation_matrixERKS1_jRNS_10FullMatrixIdEE to i8*), i8* bitcast (void (%"class.std::vector.45"*, %"class.dealii::FiniteElement"*, %"class.dealii::FiniteElement"*)* @_ZNK6dealii13FiniteElementILi3ELi3EE24hp_vertex_dof_identitiesERKS1_ to i8*), i8* bitcast (void (%"class.std::vector.45"*, %"class.dealii::FiniteElement"*, %"class.dealii::FiniteElement"*)* @_ZNK6dealii13FiniteElementILi3ELi3EE22hp_line_dof_identitiesERKS1_ to i8*), i8* bitcast (void (%"class.std::vector.45"*, %"class.dealii::FiniteElement"*, %"class.dealii::FiniteElement"*)* @_ZNK6dealii13FiniteElementILi3ELi3EE22hp_quad_dof_identitiesERKS1_ to i8*), i8* bitcast (i32 (%"class.dealii::FiniteElement"*, %"class.dealii::FiniteElement"*)* @_ZNK6dealii13FiniteElementILi3ELi3EE27compare_for_face_dominationERKS1_ to i8*), i8* bitcast (i32 (%"class.dealii::FE_PolyTensor"*)* @_ZNK6dealii13FE_PolyTensorINS_14PolynomialsABFILi3EEELi3ELi3EE15n_base_elementsEv to i8*), i8* bitcast (%"class.dealii::FiniteElement"* (%"class.dealii::FE_PolyTensor"*, i32)* @_ZNK6dealii13FE_PolyTensorINS_14PolynomialsABFILi3EEELi3ELi3EE12base_elementEj to i8*), i8* bitcast (i32 (%"class.dealii::FE_PolyTensor"*, i32)* @_ZNK6dealii13FE_PolyTensorINS_14PolynomialsABFILi3EEELi3ELi3EE20element_multiplicityEj to i8*), i8* bitcast (void (%"class.dealii::Point"*, %"class.dealii::FiniteElement"*, i32)* @_ZNK6dealii13FiniteElementILi3ELi3EE18unit_support_pointEj to i8*), i8* bitcast (void (%"class.dealii::Point.34"*, %"class.dealii::FiniteElement"*, i32)* @_ZNK6dealii13FiniteElementILi3ELi3EE23unit_face_support_pointEj to i8*), i8* bitcast (void (%"class.dealii::FiniteElement"*, %"class.std::vector.82"*, %"class.std::vector.82"*)* @_ZNK6dealii13FiniteElementILi3ELi3EE11interpolateERSt6vectorIdSaIdEERKS4_ to i8*), i8* bitcast (void (%"class.dealii::FiniteElement"*, %"class.std::vector.82"*, %"class.std::vector.114"*, i32)* @_ZNK6dealii13FiniteElementILi3ELi3EE11interpolateERSt6vectorIdSaIdEERKS2_INS_6VectorIdEESaIS7_EEj to i8*), i8* bitcast (void (%"class.dealii::FiniteElement"*, %"class.std::vector.82"*, %"class.dealii::VectorSlice"*)* @_ZNK6dealii13FiniteElementILi3ELi3EE11interpolateERSt6vectorIdSaIdEERKNS_11VectorSliceIKS2_IS4_SaIS4_EEEE to i8*), i8* bitcast (i32 (%"class.dealii::FiniteElement"*)* @_ZNK6dealii13FiniteElementILi3ELi3EE18memory_consumptionEv to i8*), i8* bitcast (i32 (%"class.dealii::FE_PolyTensor"*, i32)* @_ZNK6dealii13FE_PolyTensorINS_14PolynomialsABFILi3EEELi3ELi3EE11update_onceENS_11UpdateFlagsE to i8*), i8* bitcast (i32 (%"class.dealii::FE_PolyTensor"*, i32)* @_ZNK6dealii13FE_PolyTensorINS_14PolynomialsABFILi3EEELi3ELi3EE11update_eachENS_11UpdateFlagsE to i8*), i8* bitcast (void ()* @__cxa_pure_virtual to i8*), i8* bitcast (%"class.dealii::Mapping<3, 3>::InternalDataBase"* (%"class.dealii::FE_PolyTensor"*, i32, %"class.dealii::Mapping"*, %"class.dealii::Quadrature"*)* @_ZNK6dealii13FE_PolyTensorINS_14PolynomialsABFILi3EEELi3ELi3EE8get_dataENS_11UpdateFlagsERKNS_7MappingILi3ELi3EEERKNS_10QuadratureILi3EEE to i8*), i8* bitcast (%"class.dealii::Mapping<3, 3>::InternalDataBase"* (%"class.dealii::FiniteElement"*, i32, %"class.dealii::Mapping"*, %"class.dealii::Quadrature.134"*)* @_ZNK6dealii13FiniteElementILi3ELi3EE13get_face_dataENS_11UpdateFlagsERKNS_7MappingILi3ELi3EEERKNS_10QuadratureILi2EEE to i8*), i8* bitcast (%"class.dealii::Mapping<3, 3>::InternalDataBase"* (%"class.dealii::FiniteElement"*, i32, %"class.dealii::Mapping"*, %"class.dealii::Quadrature.134"*)* @_ZNK6dealii13FiniteElementILi3ELi3EE16get_subface_dataENS_11UpdateFlagsERKNS_7MappingILi3ELi3EEERKNS_10QuadratureILi2EEE to i8*), i8* bitcast (void (%"class.dealii::FE_PolyTensor"*, %"class.dealii::Mapping"*, %"class.dealii::TriaIterator"*, %"class.dealii::Quadrature"*, %"class.dealii::Mapping<3, 3>::InternalDataBase"*, %"class.dealii::Mapping<3, 3>::InternalDataBase"*, %"class.dealii::FEValuesData"*, i32*)* @_ZNK6dealii13FE_PolyTensorINS_14PolynomialsABFILi3EEELi3ELi3EE14fill_fe_valuesERKNS_7MappingILi3ELi3EEERKNS_12TriaIteratorINS_12CellAccessorILi3ELi3EEEEERKNS_10QuadratureILi3EEERNS5_16InternalDataBaseESJ_RNS_12FEValuesDataILi3ELi3EEERNS_14CellSimilarity10SimilarityE to i8*), i8* bitcast (void (%"class.dealii::FE_PolyTensor"*, %"class.dealii::Mapping"*, %"class.dealii::TriaIterator"*, i32, %"class.dealii::Quadrature.134"*, %"class.dealii::Mapping<3, 3>::InternalDataBase"*, %"class.dealii::Mapping<3, 3>::InternalDataBase"*, %"class.dealii::FEValuesData"*)* @_ZNK6dealii13FE_PolyTensorINS_14PolynomialsABFILi3EEELi3ELi3EE19fill_fe_face_valuesERKNS_7MappingILi3ELi3EEERKNS_12TriaIteratorINS_12CellAccessorILi3ELi3EEEEEjRKNS_10QuadratureILi2EEERNS5_16InternalDataBaseESJ_RNS_12FEValuesDataILi3ELi3EEE to i8*), i8* bitcast (void (%"class.dealii::FE_PolyTensor"*, %"class.dealii::Mapping"*, %"class.dealii::TriaIterator"*, i32, i32, %"class.dealii::Quadrature.134"*, %"class.dealii::Mapping<3, 3>::InternalDataBase"*, %"class.dealii::Mapping<3, 3>::InternalDataBase"*, %"class.dealii::FEValuesData"*)* @_ZNK6dealii13FE_PolyTensorINS_14PolynomialsABFILi3EEELi3ELi3EE22fill_fe_subface_valuesERKNS_7MappingILi3ELi3EEERKNS_12TriaIteratorINS_12CellAccessorILi3ELi3EEEEEjjRKNS_10QuadratureILi2EEERNS5_16InternalDataBaseESJ_RNS_12FEValuesDataILi3ELi3EEE to i8*)] }, comdat, align 8
@_ZTVN6dealii11Polynomials10PolynomialIdEE = linkonce_odr dso_local unnamed_addr constant { [4 x i8*] } { [4 x i8*] [i8* null, i8* bitcast ({ i8*, i8*, i8* }* @_ZTIN6dealii11Polynomials10PolynomialIdEE to i8*), i8* bitcast (void (%"class.dealii::Polynomials::Polynomial"*)* @_ZN6dealii11Polynomials10PolynomialIdED2Ev to i8*), i8* bitcast (void (%"class.dealii::Polynomials::Polynomial"*)* @_ZN6dealii11Polynomials10PolynomialIdED0Ev to i8*)] }, comdat, align 8
@_ZTSN6dealii11Polynomials10PolynomialIdEE = linkonce_odr dso_local constant [38 x i8] c"N6dealii11Polynomials10PolynomialIdEE\00", comdat, align 1
@_ZTIN6dealii11Polynomials10PolynomialIdEE = linkonce_odr dso_local constant { i8*, i8*, i8* } { i8* bitcast (i8** getelementptr inbounds (i8*, i8** @_ZTVN10__cxxabiv120__si_class_type_infoE, i64 2) to i8*), i8* getelementptr inbounds ([38 x i8], [38 x i8]* @_ZTSN6dealii11Polynomials10PolynomialIdEE, i32 0, i32 0), i8* bitcast (i8** @_ZTIN6dealii11SubscriptorE to i8*) }, comdat, align 8
@.str.12 = private unnamed_addr constant [49 x i8] c"cannot create std::vector larger than max_size()\00", align 1
@_ZTVN6dealii5TableILi2EdEE = linkonce_odr dso_local unnamed_addr constant { [4 x i8*] } { [4 x i8*] [i8* null, i8* bitcast ({ i8*, i8*, i8* }* @_ZTIN6dealii5TableILi2EdEE to i8*), i8* bitcast (void (%"class.dealii::Table"*)* @_ZN6dealii5TableILi2EdED2Ev to i8*), i8* bitcast (void (%"class.dealii::Table"*)* @_ZN6dealii5TableILi2EdED0Ev to i8*)] }, comdat, align 8
@_ZTSN6dealii5TableILi2EdEE = linkonce_odr dso_local constant [23 x i8] c"N6dealii5TableILi2EdEE\00", comdat, align 1
@_ZTIN6dealii5TableILi2EdEE = linkonce_odr dso_local constant { i8*, i8*, i8* } { i8* bitcast (i8** getelementptr inbounds (i8*, i8** @_ZTVN10__cxxabiv120__si_class_type_infoE, i64 2) to i8*), i8* getelementptr inbounds ([23 x i8], [23 x i8]* @_ZTSN6dealii5TableILi2EdEE, i32 0, i32 0), i8* bitcast ({ i8*, i8*, i8* }* @_ZTIN6dealii9TableBaseILi2EdEE to i8*) }, comdat, align 8
@_ZTVN6dealii5TableILi3EdEE = linkonce_odr dso_local unnamed_addr constant { [4 x i8*] } { [4 x i8*] [i8* null, i8* bitcast ({ i8*, i8*, i8* }* @_ZTIN6dealii5TableILi3EdEE to i8*), i8* bitcast (void (%"class.dealii::Table.104"*)* @_ZN6dealii5TableILi3EdED2Ev to i8*), i8* bitcast (void (%"class.dealii::Table.104"*)* @_ZN6dealii5TableILi3EdED0Ev to i8*)] }, comdat, align 8
@_ZTSN6dealii5TableILi3EdEE = linkonce_odr dso_local constant [23 x i8] c"N6dealii5TableILi3EdEE\00", comdat, align 1
@_ZTIN6dealii5TableILi3EdEE = linkonce_odr dso_local constant { i8*, i8*, i8* } { i8* bitcast (i8** getelementptr inbounds (i8*, i8** @_ZTVN10__cxxabiv120__si_class_type_infoE, i64 2) to i8*), i8* getelementptr inbounds ([23 x i8], [23 x i8]* @_ZTSN6dealii5TableILi3EdEE, i32 0, i32 0), i8* bitcast ({ i8*, i8*, i8* }* @_ZTIN6dealii9TableBaseILi3EdEE to i8*) }, comdat, align 8
@.str.13 = private unnamed_addr constant [26 x i8] c"vector::_M_default_append\00", align 1
@.str.14 = private unnamed_addr constant [26 x i8] c"vector::_M_realloc_insert\00", align 1
@llvm.global_ctors = appending global [1 x { i32, void ()*, i8* }] [{ i32, void ()*, i8* } { i32 65535, void ()* @_GLOBAL__sub_I_fe_abf.cc, i8* null }]

@_ZN6dealii6FE_ABFILi3EEC1Ej = weak_odr dso_local unnamed_addr alias void (%"class.dealii::FE_ABF"*, i32), void (%"class.dealii::FE_ABF"*, i32)* @_ZN6dealii6FE_ABFILi3EEC2Ej

; Function Attrs: noinline uwtable
define internal void @__cxx_global_var_init() #0 section ".text.startup" !dbg !9090 {
entry:
  call void @_ZN5boost3argILi1EEC2Ev(%"struct.boost::arg"* @_ZN12_GLOBAL__N_12_1E), !dbg !9091
  ret void, !dbg !9091
}

; Function Attrs: noinline nounwind uwtable
define linkonce_odr dso_local void @_ZN5boost3argILi1EEC2Ev(%"struct.boost::arg"* %this) unnamed_addr #1 comdat align 2 !dbg !9092 {
entry:
  %this.addr = alloca %"struct.boost::arg"*, align 8
  store %"struct.boost::arg"* %this, %"struct.boost::arg"** %this.addr, align 8
  call void @llvm.dbg.declare(metadata %"struct.boost::arg"** %this.addr, metadata !9093, metadata !DIExpression()), !dbg !9095
  %this1 = load %"struct.boost::arg"*, %"struct.boost::arg"** %this.addr, align 8
  ret void, !dbg !9096
}

; Function Attrs: noinline uwtable
define internal void @__cxx_global_var_init.1() #0 section ".text.startup" !dbg !9097 {
entry:
  call void @_ZN5boost3argILi2EEC2Ev(%"struct.boost::arg.0"* @_ZN12_GLOBAL__N_12_2E), !dbg !9098
  ret void, !dbg !9098
}

; Function Attrs: noinline nounwind uwtable
define linkonce_odr dso_local void @_ZN5boost3argILi2EEC2Ev(%"struct.boost::arg.0"* %this) unnamed_addr #1 comdat align 2 !dbg !9099 {
entry:
  %this.addr = alloca %"struct.boost::arg.0"*, align 8
  store %"struct.boost::arg.0"* %this, %"struct.boost::arg.0"** %this.addr, align 8
  call void @llvm.dbg.declare(metadata %"struct.boost::arg.0"** %this.addr, metadata !9100, metadata !DIExpression()), !dbg !9102
  %this1 = load %"struct.boost::arg.0"*, %"struct.boost::arg.0"** %this.addr, align 8
  ret void, !dbg !9103
}

; Function Attrs: noinline uwtable
define internal void @__cxx_global_var_init.2() #0 section ".text.startup" !dbg !9104 {
entry:
  call void @_ZN5boost3argILi3EEC2Ev(%"struct.boost::arg.2"* @_ZN12_GLOBAL__N_12_3E), !dbg !9105
  ret void, !dbg !9105
}

; Function Attrs: noinline nounwind uwtable
define linkonce_odr dso_local void @_ZN5boost3argILi3EEC2Ev(%"struct.boost::arg.2"* %this) unnamed_addr #1 comdat align 2 !dbg !9106 {
entry:
  %this.addr = alloca %"struct.boost::arg.2"*, align 8
  store %"struct.boost::arg.2"* %this, %"struct.boost::arg.2"** %this.addr, align 8
  call void @llvm.dbg.declare(metadata %"struct.boost::arg.2"** %this.addr, metadata !9107, metadata !DIExpression()), !dbg !9109
  %this1 = load %"struct.boost::arg.2"*, %"struct.boost::arg.2"** %this.addr, align 8
  ret void, !dbg !9110
}

; Function Attrs: noinline uwtable
define internal void @__cxx_global_var_init.3() #0 section ".text.startup" !dbg !9111 {
entry:
  call void @_ZN5boost3argILi4EEC2Ev(%"struct.boost::arg.4"* @_ZN12_GLOBAL__N_12_4E), !dbg !9112
  ret void, !dbg !9112
}

; Function Attrs: noinline nounwind uwtable
define linkonce_odr dso_local void @_ZN5boost3argILi4EEC2Ev(%"struct.boost::arg.4"* %this) unnamed_addr #1 comdat align 2 !dbg !9113 {
entry:
  %this.addr = alloca %"struct.boost::arg.4"*, align 8
  store %"struct.boost::arg.4"* %this, %"struct.boost::arg.4"** %this.addr, align 8
  call void @llvm.dbg.declare(metadata %"struct.boost::arg.4"** %this.addr, metadata !9114, metadata !DIExpression()), !dbg !9116
  %this1 = load %"struct.boost::arg.4"*, %"struct.boost::arg.4"** %this.addr, align 8
  ret void, !dbg !9117
}

; Function Attrs: noinline uwtable
define internal void @__cxx_global_var_init.4() #0 section ".text.startup" !dbg !9118 {
entry:
  call void @_ZN5boost3argILi5EEC2Ev(%"struct.boost::arg.6"* @_ZN12_GLOBAL__N_12_5E), !dbg !9119
  ret void, !dbg !9119
}

; Function Attrs: noinline nounwind uwtable
define linkonce_odr dso_local void @_ZN5boost3argILi5EEC2Ev(%"struct.boost::arg.6"* %this) unnamed_addr #1 comdat align 2 !dbg !9120 {
entry:
  %this.addr = alloca %"struct.boost::arg.6"*, align 8
  store %"struct.boost::arg.6"* %this, %"struct.boost::arg.6"** %this.addr, align 8
  call void @llvm.dbg.declare(metadata %"struct.boost::arg.6"** %this.addr, metadata !9121, metadata !DIExpression()), !dbg !9123
  %this1 = load %"struct.boost::arg.6"*, %"struct.boost::arg.6"** %this.addr, align 8
  ret void, !dbg !9124
}

; Function Attrs: noinline uwtable
define internal void @__cxx_global_var_init.5() #0 section ".text.startup" !dbg !9125 {
entry:
  call void @_ZN5boost3argILi6EEC2Ev(%"struct.boost::arg.8"* @_ZN12_GLOBAL__N_12_6E), !dbg !9126
  ret void, !dbg !9126
}

; Function Attrs: noinline nounwind uwtable
define linkonce_odr dso_local void @_ZN5boost3argILi6EEC2Ev(%"struct.boost::arg.8"* %this) unnamed_addr #1 comdat align 2 !dbg !9127 {
entry:
  %this.addr = alloca %"struct.boost::arg.8"*, align 8
  store %"struct.boost::arg.8"* %this, %"struct.boost::arg.8"** %this.addr, align 8
  call void @llvm.dbg.declare(metadata %"struct.boost::arg.8"** %this.addr, metadata !9128, metadata !DIExpression()), !dbg !9130
  %this1 = load %"struct.boost::arg.8"*, %"struct.boost::arg.8"** %this.addr, align 8
  ret void, !dbg !9131
}

; Function Attrs: noinline uwtable
define internal void @__cxx_global_var_init.6() #0 section ".text.startup" !dbg !9132 {
entry:
  call void @_ZN5boost3argILi7EEC2Ev(%"struct.boost::arg.10"* @_ZN12_GLOBAL__N_12_7E), !dbg !9133
  ret void, !dbg !9133
}

; Function Attrs: noinline nounwind uwtable
define linkonce_odr dso_local void @_ZN5boost3argILi7EEC2Ev(%"struct.boost::arg.10"* %this) unnamed_addr #1 comdat align 2 !dbg !9134 {
entry:
  %this.addr = alloca %"struct.boost::arg.10"*, align 8
  store %"struct.boost::arg.10"* %this, %"struct.boost::arg.10"** %this.addr, align 8
  call void @llvm.dbg.declare(metadata %"struct.boost::arg.10"** %this.addr, metadata !9135, metadata !DIExpression()), !dbg !9137
  %this1 = load %"struct.boost::arg.10"*, %"struct.boost::arg.10"** %this.addr, align 8
  ret void, !dbg !9138
}

; Function Attrs: noinline uwtable
define internal void @__cxx_global_var_init.7() #0 section ".text.startup" !dbg !9139 {
entry:
  call void @_ZN5boost3argILi8EEC2Ev(%"struct.boost::arg.12"* @_ZN12_GLOBAL__N_12_8E), !dbg !9140
  ret void, !dbg !9140
}

; Function Attrs: noinline nounwind uwtable
define linkonce_odr dso_local void @_ZN5boost3argILi8EEC2Ev(%"struct.boost::arg.12"* %this) unnamed_addr #1 comdat align 2 !dbg !9141 {
entry:
  %this.addr = alloca %"struct.boost::arg.12"*, align 8
  store %"struct.boost::arg.12"* %this, %"struct.boost::arg.12"** %this.addr, align 8
  call void @llvm.dbg.declare(metadata %"struct.boost::arg.12"** %this.addr, metadata !9142, metadata !DIExpression()), !dbg !9144
  %this1 = load %"struct.boost::arg.12"*, %"struct.boost::arg.12"** %this.addr, align 8
  ret void, !dbg !9145
}

; Function Attrs: noinline uwtable
define internal void @__cxx_global_var_init.8() #0 section ".text.startup" !dbg !9146 {
entry:
  call void @_ZN5boost3argILi9EEC2Ev(%"struct.boost::arg.14"* @_ZN12_GLOBAL__N_12_9E), !dbg !9147
  ret void, !dbg !9147
}

; Function Attrs: noinline nounwind uwtable
define linkonce_odr dso_local void @_ZN5boost3argILi9EEC2Ev(%"struct.boost::arg.14"* %this) unnamed_addr #1 comdat align 2 !dbg !9148 {
entry:
  %this.addr = alloca %"struct.boost::arg.14"*, align 8
  store %"struct.boost::arg.14"* %this, %"struct.boost::arg.14"** %this.addr, align 8
  call void @llvm.dbg.declare(metadata %"struct.boost::arg.14"** %this.addr, metadata !9149, metadata !DIExpression()), !dbg !9151
  %this1 = load %"struct.boost::arg.14"*, %"struct.boost::arg.14"** %this.addr, align 8
  ret void, !dbg !9152
}

; Function Attrs: noinline uwtable
define internal void @__cxx_global_var_init.9() #0 section ".text.startup" !dbg !9153 {
entry:
  call void @_ZNSt8ios_base4InitC1Ev(%"class.std::ios_base::Init"* @_ZStL8__ioinit), !dbg !9154
  %0 = call i32 @__cxa_atexit(void (i8*)* bitcast (void (%"class.std::ios_base::Init"*)* @_ZNSt8ios_base4InitD1Ev to void (i8*)*), i8* getelementptr inbounds (%"class.std::ios_base::Init", %"class.std::ios_base::Init"* @_ZStL8__ioinit, i32 0, i32 0), i8* @__dso_handle) #4, !dbg !9154
  ret void, !dbg !9154
}

declare dso_local void @_ZNSt8ios_base4InitC1Ev(%"class.std::ios_base::Init"*) unnamed_addr #2

; Function Attrs: nounwind
declare dso_local void @_ZNSt8ios_base4InitD1Ev(%"class.std::ios_base::Init"*) unnamed_addr #3

; Function Attrs: nounwind
declare dso_local i32 @__cxa_atexit(void (i8*)*, i8*, i8*) #4

; Function Attrs: noinline uwtable
define weak_odr dso_local void @_ZN6dealii6FE_ABFILi3EEC2Ej(%"class.dealii::FE_ABF"* %this, i32 %deg) unnamed_addr #0 comdat($_ZN6dealii6FE_ABFILi3EEC5Ej) align 2 personality i8* bitcast (i32 (...)* @__gxx_personality_v0 to i8*) !dbg !9155 {
entry:
  %this.addr = alloca %"class.dealii::FE_ABF"*, align 8
  %deg.addr = alloca i32, align 4
  %ref.tmp = alloca %"class.dealii::FiniteElementData", align 4
  %ref.tmp2 = alloca %"class.std::vector.58", align 8
  %exn.slot = alloca i8*
  %ehselector.slot = alloca i32
  %ref.tmp3 = alloca %"class.std::vector.63", align 8
  %ref.tmp5 = alloca i8, align 1
  %ref.tmp6 = alloca %"class.std::allocator.108", align 1
  %ref.tmp9 = alloca %"class.std::vector.67", align 8
  %ref.tmp14 = alloca %"class.std::vector.63", align 8
  %ref.tmp15 = alloca i8, align 1
  %ref.tmp16 = alloca %"class.std::allocator.108", align 1
  %ref.tmp19 = alloca %"class.std::allocator.69", align 1
  %n_dofs = alloca i32, align 4
  %M = alloca %"class.dealii::FullMatrix", align 8
  %face_embeddings = alloca %"class.std::vector.19", align 8
  %ref.tmp48 = alloca %"class.dealii::FullMatrix", align 8
  %ref.tmp53 = alloca %"class.std::allocator.21", align 1
  %target_row = alloca i32, align 4
  %d = alloca i32, align 4
  %i = alloca i32, align 4
  %j = alloca i32, align 4
  store %"class.dealii::FE_ABF"* %this, %"class.dealii::FE_ABF"** %this.addr, align 8
  call void @llvm.dbg.declare(metadata %"class.dealii::FE_ABF"** %this.addr, metadata !9156, metadata !DIExpression()), !dbg !9158
  store i32 %deg, i32* %deg.addr, align 4
  call void @llvm.dbg.declare(metadata i32* %deg.addr, metadata !9159, metadata !DIExpression()), !dbg !9160
  %this1 = load %"class.dealii::FE_ABF"*, %"class.dealii::FE_ABF"** %this.addr, align 8
  %0 = bitcast %"class.dealii::FE_ABF"* %this1 to %"class.dealii::FE_PolyTensor"*, !dbg !9161
  %1 = load i32, i32* %deg.addr, align 4, !dbg !9162
  %2 = load i32, i32* %deg.addr, align 4, !dbg !9163
  call void @_ZN6dealii6FE_ABFILi3EE14get_dpo_vectorEj(%"class.std::vector.58"* sret %ref.tmp2, i32 %2), !dbg !9164
  %3 = load i32, i32* %deg.addr, align 4, !dbg !9165
  %add = add i32 %3, 1, !dbg !9166
  invoke void @_ZN6dealii17FiniteElementDataILi3EEC1ERKSt6vectorIjSaIjEEjjNS1_10ConformityEj(%"class.dealii::FiniteElementData"* %ref.tmp, %"class.std::vector.58"* dereferenceable(24) %ref.tmp2, i32 3, i32 %add, i32 4, i32 1)
          to label %invoke.cont unwind label %lpad, !dbg !9167

invoke.cont:                                      ; preds = %entry
  %4 = load i32, i32* %deg.addr, align 4, !dbg !9168
  %call = invoke i32 @_ZN6dealii14PolynomialsABFILi3EE14compute_n_polsEj(i32 %4)
          to label %invoke.cont4 unwind label %lpad, !dbg !9169

invoke.cont4:                                     ; preds = %invoke.cont
  %conv = zext i32 %call to i64, !dbg !9169
  store i8 1, i8* %ref.tmp5, align 1, !dbg !9170
  call void @_ZNSaIbEC2Ev(%"class.std::allocator.108"* %ref.tmp6) #4, !dbg !9171
  invoke void @_ZNSt6vectorIbSaIbEEC2EmRKbRKS0_(%"class.std::vector.63"* %ref.tmp3, i64 %conv, i8* dereferenceable(1) %ref.tmp5, %"class.std::allocator.108"* dereferenceable(1) %ref.tmp6)
          to label %invoke.cont8 unwind label %lpad7, !dbg !9171

invoke.cont8:                                     ; preds = %invoke.cont4
  %5 = load i32, i32* %deg.addr, align 4, !dbg !9172
  %call12 = invoke i32 @_ZN6dealii14PolynomialsABFILi3EE14compute_n_polsEj(i32 %5)
          to label %invoke.cont11 unwind label %lpad10, !dbg !9173

invoke.cont11:                                    ; preds = %invoke.cont8
  %conv13 = zext i32 %call12 to i64, !dbg !9173
  store i8 1, i8* %ref.tmp15, align 1, !dbg !9174
  call void @_ZNSaIbEC2Ev(%"class.std::allocator.108"* %ref.tmp16) #4, !dbg !9175
  invoke void @_ZNSt6vectorIbSaIbEEC2EmRKbRKS0_(%"class.std::vector.63"* %ref.tmp14, i64 3, i8* dereferenceable(1) %ref.tmp15, %"class.std::allocator.108"* dereferenceable(1) %ref.tmp16)
          to label %invoke.cont18 unwind label %lpad17, !dbg !9175

invoke.cont18:                                    ; preds = %invoke.cont11
  call void @_ZNSaISt6vectorIbSaIbEEEC2Ev(%"class.std::allocator.69"* %ref.tmp19) #4, !dbg !9176
  invoke void @_ZNSt6vectorIS_IbSaIbEESaIS1_EEC2EmRKS1_RKS2_(%"class.std::vector.67"* %ref.tmp9, i64 %conv13, %"class.std::vector.63"* dereferenceable(40) %ref.tmp14, %"class.std::allocator.69"* dereferenceable(1) %ref.tmp19)
          to label %invoke.cont21 unwind label %lpad20, !dbg !9176

invoke.cont21:                                    ; preds = %invoke.cont18
  invoke void @_ZN6dealii13FE_PolyTensorINS_14PolynomialsABFILi3EEELi3ELi3EEC2EjRKNS_17FiniteElementDataILi3EEERKSt6vectorIbSaIbEERKS8_ISA_SaISA_EE(%"class.dealii::FE_PolyTensor"* %0, i32 %1, %"class.dealii::FiniteElementData"* dereferenceable(60) %ref.tmp, %"class.std::vector.63"* dereferenceable(40) %ref.tmp3, %"class.std::vector.67"* dereferenceable(24) %ref.tmp9)
          to label %invoke.cont23 unwind label %lpad22, !dbg !9177

invoke.cont23:                                    ; preds = %invoke.cont21
  call void @_ZNSt6vectorIS_IbSaIbEESaIS1_EED2Ev(%"class.std::vector.67"* %ref.tmp9) #4, !dbg !9177
  call void @_ZNSaISt6vectorIbSaIbEEED2Ev(%"class.std::allocator.69"* %ref.tmp19) #4, !dbg !9177
  call void @_ZNSt6vectorIbSaIbEED2Ev(%"class.std::vector.63"* %ref.tmp14) #4, !dbg !9177
  call void @_ZNSaIbED2Ev(%"class.std::allocator.108"* %ref.tmp16) #4, !dbg !9177
  call void @_ZNSt6vectorIbSaIbEED2Ev(%"class.std::vector.63"* %ref.tmp3) #4, !dbg !9177
  call void @_ZNSaIbED2Ev(%"class.std::allocator.108"* %ref.tmp6) #4, !dbg !9177
  call void @_ZNSt6vectorIjSaIjEED2Ev(%"class.std::vector.58"* %ref.tmp2) #4, !dbg !9177
  %6 = bitcast %"class.dealii::FE_ABF"* %this1 to i32 (...)***, !dbg !9161
  store i32 (...)** bitcast (i8** getelementptr inbounds ({ [38 x i8*] }, { [38 x i8*] }* @_ZTVN6dealii6FE_ABFILi3EEE, i32 0, inrange i32 0, i32 2) to i32 (...)**), i32 (...)*** %6, align 8, !dbg !9161
  %rt_order = getelementptr inbounds %"class.dealii::FE_ABF", %"class.dealii::FE_ABF"* %this1, i32 0, i32 1, !dbg !9178
  %7 = load i32, i32* %deg.addr, align 4, !dbg !9179
  store i32 %7, i32* %rt_order, align 8, !dbg !9178
  %boundary_weights = getelementptr inbounds %"class.dealii::FE_ABF", %"class.dealii::FE_ABF"* %this1, i32 0, i32 3, !dbg !9180
  invoke void @_ZN6dealii5TableILi2EdEC2Ev(%"class.dealii::Table"* %boundary_weights)
          to label %invoke.cont30 unwind label %lpad29, !dbg !9180

invoke.cont30:                                    ; preds = %invoke.cont23
  %interior_weights = getelementptr inbounds %"class.dealii::FE_ABF", %"class.dealii::FE_ABF"* %this1, i32 0, i32 4, !dbg !9180
  invoke void @_ZN6dealii5TableILi3EdEC2Ev(%"class.dealii::Table.104"* %interior_weights)
          to label %invoke.cont32 unwind label %lpad31, !dbg !9180

invoke.cont32:                                    ; preds = %invoke.cont30
  %boundary_weights_abf = getelementptr inbounds %"class.dealii::FE_ABF", %"class.dealii::FE_ABF"* %this1, i32 0, i32 5, !dbg !9180
  invoke void @_ZN6dealii5TableILi2EdEC2Ev(%"class.dealii::Table"* %boundary_weights_abf)
          to label %invoke.cont34 unwind label %lpad33, !dbg !9180

invoke.cont34:                                    ; preds = %invoke.cont32
  %interior_weights_abf = getelementptr inbounds %"class.dealii::FE_ABF", %"class.dealii::FE_ABF"* %this1, i32 0, i32 6, !dbg !9180
  invoke void @_ZN6dealii5TableILi3EdEC2Ev(%"class.dealii::Table.104"* %interior_weights_abf)
          to label %invoke.cont36 unwind label %lpad35, !dbg !9180

invoke.cont36:                                    ; preds = %invoke.cont34
  call void @llvm.dbg.declare(metadata i32* %n_dofs, metadata !9182, metadata !DIExpression()), !dbg !9185
  %8 = bitcast %"class.dealii::FE_ABF"* %this1 to i8*, !dbg !9186
  %add.ptr = getelementptr inbounds i8, i8* %8, i64 72, !dbg !9186
  %9 = bitcast i8* %add.ptr to %"class.dealii::FiniteElementData"*, !dbg !9186
  %dofs_per_cell = getelementptr inbounds %"class.dealii::FiniteElementData", %"class.dealii::FiniteElementData"* %9, i32 0, i32 10, !dbg !9186
  %10 = load i32, i32* %dofs_per_cell, align 8, !dbg !9186
  store i32 %10, i32* %n_dofs, align 4, !dbg !9185
  %11 = bitcast %"class.dealii::FE_ABF"* %this1 to %"class.dealii::FE_PolyTensor"*, !dbg !9187
  %mapping_type = getelementptr inbounds %"class.dealii::FE_PolyTensor", %"class.dealii::FE_PolyTensor"* %11, i32 0, i32 1, !dbg !9187
  store i32 256, i32* %mapping_type, align 8, !dbg !9188
  %12 = load i32, i32* %deg.addr, align 4, !dbg !9189
  invoke void @_ZN6dealii6FE_ABFILi3EE25initialize_support_pointsEj(%"class.dealii::FE_ABF"* %this1, i32 %12)
          to label %invoke.cont38 unwind label %lpad37, !dbg !9190

invoke.cont38:                                    ; preds = %invoke.cont36
  call void @llvm.dbg.declare(metadata %"class.dealii::FullMatrix"* %M, metadata !9191, metadata !DIExpression()), !dbg !9192
  %13 = load i32, i32* %n_dofs, align 4, !dbg !9193
  %14 = load i32, i32* %n_dofs, align 4, !dbg !9194
  invoke void @_ZN6dealii10FullMatrixIdEC1Ejj(%"class.dealii::FullMatrix"* %M, i32 %13, i32 %14)
          to label %invoke.cont39 unwind label %lpad37, !dbg !9192

invoke.cont39:                                    ; preds = %invoke.cont38
  %15 = bitcast %"class.dealii::FE_ABF"* %this1 to %"class.dealii::FiniteElement"*, !dbg !9195
  invoke void @_ZN6dealii7FETools19compute_node_matrixILi3ELi3EEEvRNS_10FullMatrixIdEERKNS_13FiniteElementIXT_EXT0_EEE(%"class.dealii::FullMatrix"* dereferenceable(96) %M, %"class.dealii::FiniteElement"* dereferenceable(728) %15)
          to label %invoke.cont41 unwind label %lpad40, !dbg !9196

invoke.cont41:                                    ; preds = %invoke.cont39
  %16 = bitcast %"class.dealii::FE_ABF"* %this1 to %"class.dealii::FE_PolyTensor"*, !dbg !9197
  %inverse_node_matrix = getelementptr inbounds %"class.dealii::FE_PolyTensor", %"class.dealii::FE_PolyTensor"* %16, i32 0, i32 3, !dbg !9197
  %17 = bitcast %"class.dealii::FullMatrix"* %inverse_node_matrix to %"class.dealii::Table"*, !dbg !9198
  %18 = load i32, i32* %n_dofs, align 4, !dbg !9199
  %19 = load i32, i32* %n_dofs, align 4, !dbg !9200
  invoke void @_ZN6dealii5TableILi2EdE6reinitEjj(%"class.dealii::Table"* %17, i32 %18, i32 %19)
          to label %invoke.cont42 unwind label %lpad40, !dbg !9201

invoke.cont42:                                    ; preds = %invoke.cont41
  %20 = bitcast %"class.dealii::FE_ABF"* %this1 to %"class.dealii::FE_PolyTensor"*, !dbg !9202
  %inverse_node_matrix43 = getelementptr inbounds %"class.dealii::FE_PolyTensor", %"class.dealii::FE_PolyTensor"* %20, i32 0, i32 3, !dbg !9202
  invoke void @_ZN6dealii10FullMatrixIdE6invertIdEEvRKNS0_IT_EE(%"class.dealii::FullMatrix"* %inverse_node_matrix43, %"class.dealii::FullMatrix"* dereferenceable(96) %M)
          to label %invoke.cont44 unwind label %lpad40, !dbg !9203

invoke.cont44:                                    ; preds = %invoke.cont42
  %21 = bitcast %"class.dealii::FE_ABF"* %this1 to %"class.dealii::FiniteElement"*, !dbg !9204
  invoke void @_ZN6dealii13FiniteElementILi3ELi3EE44reinit_restriction_and_prolongation_matricesEbb(%"class.dealii::FiniteElement"* %21, i1 zeroext true, i1 zeroext false)
          to label %invoke.cont45 unwind label %lpad40, !dbg !9204

invoke.cont45:                                    ; preds = %invoke.cont44
  %22 = bitcast %"class.dealii::FE_ABF"* %this1 to %"class.dealii::FiniteElement"*, !dbg !9205
  %23 = bitcast %"class.dealii::FE_ABF"* %this1 to %"class.dealii::FiniteElement"*, !dbg !9206
  %prolongation = getelementptr inbounds %"class.dealii::FiniteElement", %"class.dealii::FiniteElement"* %23, i32 0, i32 4, !dbg !9206
  invoke void @_ZN6dealii7FETools26compute_embedding_matricesILi3EdLi3EEEvRKNS_13FiniteElementIXT_EXT1_EEERSt6vectorIS6_INS_10FullMatrixIT0_EESaIS9_EESaISB_EEb(%"class.dealii::FiniteElement"* dereferenceable(728) %22, %"class.std::vector"* dereferenceable(24) %prolongation, i1 zeroext false)
          to label %invoke.cont46 unwind label %lpad40, !dbg !9207

invoke.cont46:                                    ; preds = %invoke.cont45
  invoke void @_ZN6dealii6FE_ABFILi3EE22initialize_restrictionEv(%"class.dealii::FE_ABF"* %this1)
          to label %invoke.cont47 unwind label %lpad40, !dbg !9208

invoke.cont47:                                    ; preds = %invoke.cont46
  call void @llvm.dbg.declare(metadata %"class.std::vector.19"* %face_embeddings, metadata !9209, metadata !DIExpression()), !dbg !9210
  %24 = bitcast %"class.dealii::FE_ABF"* %this1 to i8*, !dbg !9211
  %add.ptr49 = getelementptr inbounds i8, i8* %24, i64 72, !dbg !9211
  %25 = bitcast i8* %add.ptr49 to %"class.dealii::FiniteElementData"*, !dbg !9211
  %dofs_per_face = getelementptr inbounds %"class.dealii::FiniteElementData", %"class.dealii::FiniteElementData"* %25, i32 0, i32 9, !dbg !9211
  %26 = load i32, i32* %dofs_per_face, align 4, !dbg !9211
  %27 = bitcast %"class.dealii::FE_ABF"* %this1 to i8*, !dbg !9212
  %add.ptr50 = getelementptr inbounds i8, i8* %27, i64 72, !dbg !9212
  %28 = bitcast i8* %add.ptr50 to %"class.dealii::FiniteElementData"*, !dbg !9212
  %dofs_per_face51 = getelementptr inbounds %"class.dealii::FiniteElementData", %"class.dealii::FiniteElementData"* %28, i32 0, i32 9, !dbg !9212
  %29 = load i32, i32* %dofs_per_face51, align 4, !dbg !9212
  invoke void @_ZN6dealii10FullMatrixIdEC1Ejj(%"class.dealii::FullMatrix"* %ref.tmp48, i32 %26, i32 %29)
          to label %invoke.cont52 unwind label %lpad40, !dbg !9213

invoke.cont52:                                    ; preds = %invoke.cont47
  call void @_ZNSaIN6dealii10FullMatrixIdEEEC2Ev(%"class.std::allocator.21"* %ref.tmp53) #4, !dbg !9210
  invoke void @_ZNSt6vectorIN6dealii10FullMatrixIdEESaIS2_EEC2EmRKS2_RKS3_(%"class.std::vector.19"* %face_embeddings, i64 4, %"class.dealii::FullMatrix"* dereferenceable(96) %ref.tmp48, %"class.std::allocator.21"* dereferenceable(1) %ref.tmp53)
          to label %invoke.cont55 unwind label %lpad54, !dbg !9210

invoke.cont55:                                    ; preds = %invoke.cont52
  call void @_ZNSaIN6dealii10FullMatrixIdEEED2Ev(%"class.std::allocator.21"* %ref.tmp53) #4, !dbg !9210
  call void @_ZN6dealii10FullMatrixIdED2Ev(%"class.dealii::FullMatrix"* %ref.tmp48) #4, !dbg !9210
  %30 = bitcast %"class.dealii::FE_ABF"* %this1 to %"class.dealii::FiniteElement"*, !dbg !9214
  %interface_constraints = getelementptr inbounds %"class.dealii::FiniteElement", %"class.dealii::FiniteElement"* %30, i32 0, i32 5, !dbg !9214
  %31 = bitcast %"class.dealii::FullMatrix"* %interface_constraints to %"class.dealii::Table"*, !dbg !9215
  %32 = bitcast %"class.dealii::FE_ABF"* %this1 to i8*, !dbg !9216
  %add.ptr58 = getelementptr inbounds i8, i8* %32, i64 72, !dbg !9216
  %33 = bitcast i8* %add.ptr58 to %"class.dealii::FiniteElementData"*, !dbg !9216
  %dofs_per_face59 = getelementptr inbounds %"class.dealii::FiniteElementData", %"class.dealii::FiniteElementData"* %33, i32 0, i32 9, !dbg !9216
  %34 = load i32, i32* %dofs_per_face59, align 4, !dbg !9216
  %mul = mul i32 4, %34, !dbg !9217
  %35 = bitcast %"class.dealii::FE_ABF"* %this1 to i8*, !dbg !9218
  %add.ptr60 = getelementptr inbounds i8, i8* %35, i64 72, !dbg !9218
  %36 = bitcast i8* %add.ptr60 to %"class.dealii::FiniteElementData"*, !dbg !9218
  %dofs_per_face61 = getelementptr inbounds %"class.dealii::FiniteElementData", %"class.dealii::FiniteElementData"* %36, i32 0, i32 9, !dbg !9218
  %37 = load i32, i32* %dofs_per_face61, align 4, !dbg !9218
  invoke void @_ZN6dealii5TableILi2EdE6reinitEjj(%"class.dealii::Table"* %31, i32 %mul, i32 %37)
          to label %invoke.cont63 unwind label %lpad62, !dbg !9219

invoke.cont63:                                    ; preds = %invoke.cont55
  call void @llvm.dbg.declare(metadata i32* %target_row, metadata !9220, metadata !DIExpression()), !dbg !9221
  store i32 0, i32* %target_row, align 4, !dbg !9221
  call void @llvm.dbg.declare(metadata i32* %d, metadata !9222, metadata !DIExpression()), !dbg !9224
  store i32 0, i32* %d, align 4, !dbg !9224
  br label %for.cond, !dbg !9225

for.cond:                                         ; preds = %for.inc91, %invoke.cont63
  %38 = load i32, i32* %d, align 4, !dbg !9226
  %conv64 = zext i32 %38 to i64, !dbg !9226
  %call65 = call i64 @_ZNKSt6vectorIN6dealii10FullMatrixIdEESaIS2_EE4sizeEv(%"class.std::vector.19"* %face_embeddings) #4, !dbg !9228
  %cmp = icmp ult i64 %conv64, %call65, !dbg !9229
  br i1 %cmp, label %for.body, label %for.end93, !dbg !9230

for.body:                                         ; preds = %for.cond
  call void @llvm.dbg.declare(metadata i32* %i, metadata !9231, metadata !DIExpression()), !dbg !9233
  store i32 0, i32* %i, align 4, !dbg !9233
  br label %for.cond66, !dbg !9234

for.cond66:                                       ; preds = %for.inc88, %for.body
  %39 = load i32, i32* %i, align 4, !dbg !9235
  %40 = load i32, i32* %d, align 4, !dbg !9237
  %conv67 = zext i32 %40 to i64, !dbg !9237
  %call68 = call dereferenceable(96) %"class.dealii::FullMatrix"* @_ZNSt6vectorIN6dealii10FullMatrixIdEESaIS2_EEixEm(%"class.std::vector.19"* %face_embeddings, i64 %conv67) #4, !dbg !9238
  %call70 = invoke i32 @_ZNK6dealii10FullMatrixIdE1mEv(%"class.dealii::FullMatrix"* %call68)
          to label %invoke.cont69 unwind label %lpad62, !dbg !9239

invoke.cont69:                                    ; preds = %for.cond66
  %cmp71 = icmp ult i32 %39, %call70, !dbg !9240
  br i1 %cmp71, label %for.body72, label %for.end90, !dbg !9241

for.body72:                                       ; preds = %invoke.cont69
  call void @llvm.dbg.declare(metadata i32* %j, metadata !9242, metadata !DIExpression()), !dbg !9245
  store i32 0, i32* %j, align 4, !dbg !9245
  br label %for.cond73, !dbg !9246

for.cond73:                                       ; preds = %for.inc, %for.body72
  %41 = load i32, i32* %j, align 4, !dbg !9247
  %42 = load i32, i32* %d, align 4, !dbg !9249
  %conv74 = zext i32 %42 to i64, !dbg !9249
  %call75 = call dereferenceable(96) %"class.dealii::FullMatrix"* @_ZNSt6vectorIN6dealii10FullMatrixIdEESaIS2_EEixEm(%"class.std::vector.19"* %face_embeddings, i64 %conv74) #4, !dbg !9250
  %call77 = invoke i32 @_ZNK6dealii10FullMatrixIdE1nEv(%"class.dealii::FullMatrix"* %call75)
          to label %invoke.cont76 unwind label %lpad62, !dbg !9251

invoke.cont76:                                    ; preds = %for.cond73
  %cmp78 = icmp ult i32 %41, %call77, !dbg !9252
  br i1 %cmp78, label %for.body79, label %for.end, !dbg !9253

for.body79:                                       ; preds = %invoke.cont76
  %43 = load i32, i32* %d, align 4, !dbg !9254
  %conv80 = zext i32 %43 to i64, !dbg !9254
  %call81 = call dereferenceable(96) %"class.dealii::FullMatrix"* @_ZNSt6vectorIN6dealii10FullMatrixIdEESaIS2_EEixEm(%"class.std::vector.19"* %face_embeddings, i64 %conv80) #4, !dbg !9255
  %44 = bitcast %"class.dealii::FullMatrix"* %call81 to %"class.dealii::Table"*, !dbg !9255
  %45 = load i32, i32* %i, align 4, !dbg !9256
  %46 = load i32, i32* %j, align 4, !dbg !9257
  %call83 = invoke dereferenceable(8) double* @_ZN6dealii5TableILi2EdEclEjj(%"class.dealii::Table"* %44, i32 %45, i32 %46)
          to label %invoke.cont82 unwind label %lpad62, !dbg !9255

invoke.cont82:                                    ; preds = %for.body79
  %47 = load double, double* %call83, align 8, !dbg !9255
  %48 = bitcast %"class.dealii::FE_ABF"* %this1 to %"class.dealii::FiniteElement"*, !dbg !9258
  %interface_constraints84 = getelementptr inbounds %"class.dealii::FiniteElement", %"class.dealii::FiniteElement"* %48, i32 0, i32 5, !dbg !9258
  %49 = bitcast %"class.dealii::FullMatrix"* %interface_constraints84 to %"class.dealii::Table"*, !dbg !9259
  %50 = load i32, i32* %target_row, align 4, !dbg !9260
  %51 = load i32, i32* %j, align 4, !dbg !9261
  %call86 = invoke dereferenceable(8) double* @_ZN6dealii5TableILi2EdEclEjj(%"class.dealii::Table"* %49, i32 %50, i32 %51)
          to label %invoke.cont85 unwind label %lpad62, !dbg !9259

invoke.cont85:                                    ; preds = %invoke.cont82
  store double %47, double* %call86, align 8, !dbg !9262
  br label %for.inc, !dbg !9259

for.inc:                                          ; preds = %invoke.cont85
  %52 = load i32, i32* %j, align 4, !dbg !9263
  %inc = add i32 %52, 1, !dbg !9263
  store i32 %inc, i32* %j, align 4, !dbg !9263
  br label %for.cond73, !dbg !9264, !llvm.loop !9265

lpad:                                             ; preds = %invoke.cont, %entry
  %53 = landingpad { i8*, i32 }
          cleanup, !dbg !9267
  %54 = extractvalue { i8*, i32 } %53, 0, !dbg !9267
  store i8* %54, i8** %exn.slot, align 8, !dbg !9267
  %55 = extractvalue { i8*, i32 } %53, 1, !dbg !9267
  store i32 %55, i32* %ehselector.slot, align 4, !dbg !9267
  br label %ehcleanup28, !dbg !9267

lpad7:                                            ; preds = %invoke.cont4
  %56 = landingpad { i8*, i32 }
          cleanup, !dbg !9267
  %57 = extractvalue { i8*, i32 } %56, 0, !dbg !9267
  store i8* %57, i8** %exn.slot, align 8, !dbg !9267
  %58 = extractvalue { i8*, i32 } %56, 1, !dbg !9267
  store i32 %58, i32* %ehselector.slot, align 4, !dbg !9267
  br label %ehcleanup27, !dbg !9267

lpad10:                                           ; preds = %invoke.cont8
  %59 = landingpad { i8*, i32 }
          cleanup, !dbg !9267
  %60 = extractvalue { i8*, i32 } %59, 0, !dbg !9267
  store i8* %60, i8** %exn.slot, align 8, !dbg !9267
  %61 = extractvalue { i8*, i32 } %59, 1, !dbg !9267
  store i32 %61, i32* %ehselector.slot, align 4, !dbg !9267
  br label %ehcleanup26, !dbg !9267

lpad17:                                           ; preds = %invoke.cont11
  %62 = landingpad { i8*, i32 }
          cleanup, !dbg !9267
  %63 = extractvalue { i8*, i32 } %62, 0, !dbg !9267
  store i8* %63, i8** %exn.slot, align 8, !dbg !9267
  %64 = extractvalue { i8*, i32 } %62, 1, !dbg !9267
  store i32 %64, i32* %ehselector.slot, align 4, !dbg !9267
  br label %ehcleanup25, !dbg !9267

lpad20:                                           ; preds = %invoke.cont18
  %65 = landingpad { i8*, i32 }
          cleanup, !dbg !9267
  %66 = extractvalue { i8*, i32 } %65, 0, !dbg !9267
  store i8* %66, i8** %exn.slot, align 8, !dbg !9267
  %67 = extractvalue { i8*, i32 } %65, 1, !dbg !9267
  store i32 %67, i32* %ehselector.slot, align 4, !dbg !9267
  br label %ehcleanup, !dbg !9267

lpad22:                                           ; preds = %invoke.cont21
  %68 = landingpad { i8*, i32 }
          cleanup, !dbg !9267
  %69 = extractvalue { i8*, i32 } %68, 0, !dbg !9267
  store i8* %69, i8** %exn.slot, align 8, !dbg !9267
  %70 = extractvalue { i8*, i32 } %68, 1, !dbg !9267
  store i32 %70, i32* %ehselector.slot, align 4, !dbg !9267
  call void @_ZNSt6vectorIS_IbSaIbEESaIS1_EED2Ev(%"class.std::vector.67"* %ref.tmp9) #4, !dbg !9177
  br label %ehcleanup, !dbg !9177

ehcleanup:                                        ; preds = %lpad22, %lpad20
  call void @_ZNSaISt6vectorIbSaIbEEED2Ev(%"class.std::allocator.69"* %ref.tmp19) #4, !dbg !9177
  call void @_ZNSt6vectorIbSaIbEED2Ev(%"class.std::vector.63"* %ref.tmp14) #4, !dbg !9177
  br label %ehcleanup25, !dbg !9177

ehcleanup25:                                      ; preds = %ehcleanup, %lpad17
  call void @_ZNSaIbED2Ev(%"class.std::allocator.108"* %ref.tmp16) #4, !dbg !9177
  br label %ehcleanup26, !dbg !9177

ehcleanup26:                                      ; preds = %ehcleanup25, %lpad10
  call void @_ZNSt6vectorIbSaIbEED2Ev(%"class.std::vector.63"* %ref.tmp3) #4, !dbg !9177
  br label %ehcleanup27, !dbg !9177

ehcleanup27:                                      ; preds = %ehcleanup26, %lpad7
  call void @_ZNSaIbED2Ev(%"class.std::allocator.108"* %ref.tmp6) #4, !dbg !9177
  br label %ehcleanup28, !dbg !9177

ehcleanup28:                                      ; preds = %ehcleanup27, %lpad
  call void @_ZNSt6vectorIjSaIjEED2Ev(%"class.std::vector.58"* %ref.tmp2) #4, !dbg !9177
  br label %eh.resume, !dbg !9177

lpad29:                                           ; preds = %invoke.cont23
  %71 = landingpad { i8*, i32 }
          cleanup, !dbg !9268
  %72 = extractvalue { i8*, i32 } %71, 0, !dbg !9268
  store i8* %72, i8** %exn.slot, align 8, !dbg !9268
  %73 = extractvalue { i8*, i32 } %71, 1, !dbg !9268
  store i32 %73, i32* %ehselector.slot, align 4, !dbg !9268
  br label %ehcleanup100, !dbg !9268

lpad31:                                           ; preds = %invoke.cont30
  %74 = landingpad { i8*, i32 }
          cleanup, !dbg !9268
  %75 = extractvalue { i8*, i32 } %74, 0, !dbg !9268
  store i8* %75, i8** %exn.slot, align 8, !dbg !9268
  %76 = extractvalue { i8*, i32 } %74, 1, !dbg !9268
  store i32 %76, i32* %ehselector.slot, align 4, !dbg !9268
  br label %ehcleanup99, !dbg !9268

lpad33:                                           ; preds = %invoke.cont32
  %77 = landingpad { i8*, i32 }
          cleanup, !dbg !9268
  %78 = extractvalue { i8*, i32 } %77, 0, !dbg !9268
  store i8* %78, i8** %exn.slot, align 8, !dbg !9268
  %79 = extractvalue { i8*, i32 } %77, 1, !dbg !9268
  store i32 %79, i32* %ehselector.slot, align 4, !dbg !9268
  br label %ehcleanup98, !dbg !9268

lpad35:                                           ; preds = %invoke.cont34
  %80 = landingpad { i8*, i32 }
          cleanup, !dbg !9268
  %81 = extractvalue { i8*, i32 } %80, 0, !dbg !9268
  store i8* %81, i8** %exn.slot, align 8, !dbg !9268
  %82 = extractvalue { i8*, i32 } %80, 1, !dbg !9268
  store i32 %82, i32* %ehselector.slot, align 4, !dbg !9268
  br label %ehcleanup97, !dbg !9268

lpad37:                                           ; preds = %invoke.cont38, %invoke.cont36
  %83 = landingpad { i8*, i32 }
          cleanup, !dbg !9269
  %84 = extractvalue { i8*, i32 } %83, 0, !dbg !9269
  store i8* %84, i8** %exn.slot, align 8, !dbg !9269
  %85 = extractvalue { i8*, i32 } %83, 1, !dbg !9269
  store i32 %85, i32* %ehselector.slot, align 4, !dbg !9269
  br label %ehcleanup96, !dbg !9269

lpad40:                                           ; preds = %invoke.cont47, %invoke.cont46, %invoke.cont45, %invoke.cont44, %invoke.cont42, %invoke.cont41, %invoke.cont39
  %86 = landingpad { i8*, i32 }
          cleanup, !dbg !9269
  %87 = extractvalue { i8*, i32 } %86, 0, !dbg !9269
  store i8* %87, i8** %exn.slot, align 8, !dbg !9269
  %88 = extractvalue { i8*, i32 } %86, 1, !dbg !9269
  store i32 %88, i32* %ehselector.slot, align 4, !dbg !9269
  br label %ehcleanup95, !dbg !9269

lpad54:                                           ; preds = %invoke.cont52
  %89 = landingpad { i8*, i32 }
          cleanup, !dbg !9269
  %90 = extractvalue { i8*, i32 } %89, 0, !dbg !9269
  store i8* %90, i8** %exn.slot, align 8, !dbg !9269
  %91 = extractvalue { i8*, i32 } %89, 1, !dbg !9269
  store i32 %91, i32* %ehselector.slot, align 4, !dbg !9269
  call void @_ZNSaIN6dealii10FullMatrixIdEEED2Ev(%"class.std::allocator.21"* %ref.tmp53) #4, !dbg !9210
  call void @_ZN6dealii10FullMatrixIdED2Ev(%"class.dealii::FullMatrix"* %ref.tmp48) #4, !dbg !9210
  br label %ehcleanup95, !dbg !9210

lpad62:                                           ; preds = %invoke.cont82, %for.body79, %for.cond73, %for.cond66, %invoke.cont55
  %92 = landingpad { i8*, i32 }
          cleanup, !dbg !9269
  %93 = extractvalue { i8*, i32 } %92, 0, !dbg !9269
  store i8* %93, i8** %exn.slot, align 8, !dbg !9269
  %94 = extractvalue { i8*, i32 } %92, 1, !dbg !9269
  store i32 %94, i32* %ehselector.slot, align 4, !dbg !9269
  call void @_ZNSt6vectorIN6dealii10FullMatrixIdEESaIS2_EED2Ev(%"class.std::vector.19"* %face_embeddings) #4, !dbg !9268
  br label %ehcleanup95, !dbg !9268

for.end:                                          ; preds = %invoke.cont76
  %95 = load i32, i32* %target_row, align 4, !dbg !9270
  %inc87 = add i32 %95, 1, !dbg !9270
  store i32 %inc87, i32* %target_row, align 4, !dbg !9270
  br label %for.inc88, !dbg !9271

for.inc88:                                        ; preds = %for.end
  %96 = load i32, i32* %i, align 4, !dbg !9272
  %inc89 = add i32 %96, 1, !dbg !9272
  store i32 %inc89, i32* %i, align 4, !dbg !9272
  br label %for.cond66, !dbg !9273, !llvm.loop !9274

for.end90:                                        ; preds = %invoke.cont69
  br label %for.inc91, !dbg !9275

for.inc91:                                        ; preds = %for.end90
  %97 = load i32, i32* %d, align 4, !dbg !9276
  %inc92 = add i32 %97, 1, !dbg !9276
  store i32 %inc92, i32* %d, align 4, !dbg !9276
  br label %for.cond, !dbg !9277, !llvm.loop !9278

for.end93:                                        ; preds = %for.cond
  call void @_ZNSt6vectorIN6dealii10FullMatrixIdEESaIS2_EED2Ev(%"class.std::vector.19"* %face_embeddings) #4, !dbg !9268
  call void @_ZN6dealii10FullMatrixIdED2Ev(%"class.dealii::FullMatrix"* %M) #4, !dbg !9268
  ret void, !dbg !9268

ehcleanup95:                                      ; preds = %lpad62, %lpad54, %lpad40
  call void @_ZN6dealii10FullMatrixIdED2Ev(%"class.dealii::FullMatrix"* %M) #4, !dbg !9268
  br label %ehcleanup96, !dbg !9268

ehcleanup96:                                      ; preds = %ehcleanup95, %lpad37
  call void @_ZN6dealii5TableILi3EdED2Ev(%"class.dealii::Table.104"* %interior_weights_abf) #4, !dbg !9269
  br label %ehcleanup97, !dbg !9269

ehcleanup97:                                      ; preds = %ehcleanup96, %lpad35
  call void @_ZN6dealii5TableILi2EdED2Ev(%"class.dealii::Table"* %boundary_weights_abf) #4, !dbg !9269
  br label %ehcleanup98, !dbg !9269

ehcleanup98:                                      ; preds = %ehcleanup97, %lpad33
  call void @_ZN6dealii5TableILi3EdED2Ev(%"class.dealii::Table.104"* %interior_weights) #4, !dbg !9269
  br label %ehcleanup99, !dbg !9269

ehcleanup99:                                      ; preds = %ehcleanup98, %lpad31
  call void @_ZN6dealii5TableILi2EdED2Ev(%"class.dealii::Table"* %boundary_weights) #4, !dbg !9269
  br label %ehcleanup100, !dbg !9269

ehcleanup100:                                     ; preds = %ehcleanup99, %lpad29
  %98 = bitcast %"class.dealii::FE_ABF"* %this1 to %"class.dealii::FE_PolyTensor"*, !dbg !9269
  call void @_ZN6dealii13FE_PolyTensorINS_14PolynomialsABFILi3EEELi3ELi3EED2Ev(%"class.dealii::FE_PolyTensor"* %98) #4, !dbg !9269
  br label %eh.resume, !dbg !9269

eh.resume:                                        ; preds = %ehcleanup100, %ehcleanup28
  %exn = load i8*, i8** %exn.slot, align 8, !dbg !9177
  %sel = load i32, i32* %ehselector.slot, align 4, !dbg !9177
  %lpad.val = insertvalue { i8*, i32 } undef, i8* %exn, 0, !dbg !9177
  %lpad.val101 = insertvalue { i8*, i32 } %lpad.val, i32 %sel, 1, !dbg !9177
  resume { i8*, i32 } %lpad.val101, !dbg !9177
}

; Function Attrs: nounwind readnone speculatable willreturn
declare void @llvm.dbg.declare(metadata, metadata, metadata) #5

; Function Attrs: noinline uwtable
define weak_odr dso_local void @_ZN6dealii6FE_ABFILi3EE14get_dpo_vectorEj(%"class.std::vector.58"* noalias sret %agg.result, i32 %rt_order) #0 comdat align 2 personality i8* bitcast (i32 (...)* @__gxx_personality_v0 to i8*) !dbg !9280 {
entry:
  %result.ptr = alloca i8*, align 8
  %rt_order.addr = alloca i32, align 4
  %dofs_per_face = alloca i32, align 4
  %d = alloca i32, align 4
  %interior_dofs = alloca i32, align 4
  %nrvo = alloca i1, align 1
  %ref.tmp = alloca %"class.std::allocator.60", align 1
  %exn.slot = alloca i8*
  %ehselector.slot = alloca i32
  %0 = bitcast %"class.std::vector.58"* %agg.result to i8*
  store i8* %0, i8** %result.ptr, align 8
  store i32 %rt_order, i32* %rt_order.addr, align 4
  call void @llvm.dbg.declare(metadata i32* %rt_order.addr, metadata !9281, metadata !DIExpression()), !dbg !9282
  call void @llvm.dbg.declare(metadata i32* %dofs_per_face, metadata !9283, metadata !DIExpression()), !dbg !9284
  store i32 1, i32* %dofs_per_face, align 4, !dbg !9284
  call void @llvm.dbg.declare(metadata i32* %d, metadata !9285, metadata !DIExpression()), !dbg !9287
  store i32 0, i32* %d, align 4, !dbg !9287
  br label %for.cond, !dbg !9288

for.cond:                                         ; preds = %for.inc, %entry
  %1 = load i32, i32* %d, align 4, !dbg !9289
  %cmp = icmp ult i32 %1, 2, !dbg !9291
  br i1 %cmp, label %for.body, label %for.end, !dbg !9292

for.body:                                         ; preds = %for.cond
  %2 = load i32, i32* %rt_order.addr, align 4, !dbg !9293
  %add = add i32 %2, 1, !dbg !9294
  %3 = load i32, i32* %dofs_per_face, align 4, !dbg !9295
  %mul = mul i32 %3, %add, !dbg !9295
  store i32 %mul, i32* %dofs_per_face, align 4, !dbg !9295
  br label %for.inc, !dbg !9296

for.inc:                                          ; preds = %for.body
  %4 = load i32, i32* %d, align 4, !dbg !9297
  %inc = add i32 %4, 1, !dbg !9297
  store i32 %inc, i32* %d, align 4, !dbg !9297
  br label %for.cond, !dbg !9298, !llvm.loop !9299

for.end:                                          ; preds = %for.cond
  call void @llvm.dbg.declare(metadata i32* %interior_dofs, metadata !9301, metadata !DIExpression()), !dbg !9302
  %5 = load i32, i32* %rt_order.addr, align 4, !dbg !9303
  %add1 = add i32 %5, 1, !dbg !9304
  %mul2 = mul i32 3, %add1, !dbg !9305
  %6 = load i32, i32* %dofs_per_face, align 4, !dbg !9306
  %mul3 = mul i32 %mul2, %6, !dbg !9307
  store i32 %mul3, i32* %interior_dofs, align 4, !dbg !9302
  store i1 false, i1* %nrvo, align 1, !dbg !9308
  call void @llvm.dbg.declare(metadata i8** %result.ptr, metadata !9309, metadata !DIExpression(DW_OP_deref)), !dbg !9310
  call void @_ZNSaIjEC2Ev(%"class.std::allocator.60"* %ref.tmp) #4, !dbg !9310
  invoke void @_ZNSt6vectorIjSaIjEEC2EmRKS0_(%"class.std::vector.58"* %agg.result, i64 4, %"class.std::allocator.60"* dereferenceable(1) %ref.tmp)
          to label %invoke.cont unwind label %lpad, !dbg !9310

invoke.cont:                                      ; preds = %for.end
  call void @_ZNSaIjED2Ev(%"class.std::allocator.60"* %ref.tmp) #4, !dbg !9310
  %7 = load i32, i32* %dofs_per_face, align 4, !dbg !9311
  %call = call dereferenceable(4) i32* @_ZNSt6vectorIjSaIjEEixEm(%"class.std::vector.58"* %agg.result, i64 2) #4, !dbg !9312
  store i32 %7, i32* %call, align 4, !dbg !9313
  %8 = load i32, i32* %interior_dofs, align 4, !dbg !9314
  %call4 = call dereferenceable(4) i32* @_ZNSt6vectorIjSaIjEEixEm(%"class.std::vector.58"* %agg.result, i64 3) #4, !dbg !9315
  store i32 %8, i32* %call4, align 4, !dbg !9316
  store i1 true, i1* %nrvo, align 1, !dbg !9317
  %nrvo.val = load i1, i1* %nrvo, align 1, !dbg !9318
  br i1 %nrvo.val, label %nrvo.skipdtor, label %nrvo.unused, !dbg !9318

lpad:                                             ; preds = %for.end
  %9 = landingpad { i8*, i32 }
          cleanup, !dbg !9318
  %10 = extractvalue { i8*, i32 } %9, 0, !dbg !9318
  store i8* %10, i8** %exn.slot, align 8, !dbg !9318
  %11 = extractvalue { i8*, i32 } %9, 1, !dbg !9318
  store i32 %11, i32* %ehselector.slot, align 4, !dbg !9318
  call void @_ZNSaIjED2Ev(%"class.std::allocator.60"* %ref.tmp) #4, !dbg !9310
  br label %eh.resume, !dbg !9310

nrvo.unused:                                      ; preds = %invoke.cont
  call void @_ZNSt6vectorIjSaIjEED2Ev(%"class.std::vector.58"* %agg.result) #4, !dbg !9318
  br label %nrvo.skipdtor, !dbg !9318

nrvo.skipdtor:                                    ; preds = %nrvo.unused, %invoke.cont
  ret void, !dbg !9318

eh.resume:                                        ; preds = %lpad
  %exn = load i8*, i8** %exn.slot, align 8, !dbg !9310
  %sel = load i32, i32* %ehselector.slot, align 4, !dbg !9310
  %lpad.val = insertvalue { i8*, i32 } undef, i8* %exn, 0, !dbg !9310
  %lpad.val5 = insertvalue { i8*, i32 } %lpad.val, i32 %sel, 1, !dbg !9310
  resume { i8*, i32 } %lpad.val5, !dbg !9310
}

declare dso_local void @_ZN6dealii17FiniteElementDataILi3EEC1ERKSt6vectorIjSaIjEEjjNS1_10ConformityEj(%"class.dealii::FiniteElementData"*, %"class.std::vector.58"* dereferenceable(24), i32, i32, i32, i32) unnamed_addr #2

declare dso_local i32 @__gxx_personality_v0(...)

declare dso_local i32 @_ZN6dealii14PolynomialsABFILi3EE14compute_n_polsEj(i32) #2

; Function Attrs: noinline nounwind uwtable
define linkonce_odr dso_local void @_ZNSaIbEC2Ev(%"class.std::allocator.108"* %this) unnamed_addr #1 comdat align 2 !dbg !9319 {
entry:
  %this.addr = alloca %"class.std::allocator.108"*, align 8
  store %"class.std::allocator.108"* %this, %"class.std::allocator.108"** %this.addr, align 8
  call void @llvm.dbg.declare(metadata %"class.std::allocator.108"** %this.addr, metadata !9320, metadata !DIExpression()), !dbg !9322
  %this1 = load %"class.std::allocator.108"*, %"class.std::allocator.108"** %this.addr, align 8
  %0 = bitcast %"class.std::allocator.108"* %this1 to %"class.__gnu_cxx::new_allocator.109"*, !dbg !9323
  call void @_ZN9__gnu_cxx13new_allocatorIbEC2Ev(%"class.__gnu_cxx::new_allocator.109"* %0) #4, !dbg !9324
  ret void, !dbg !9325
}

; Function Attrs: noinline uwtable
define linkonce_odr dso_local void @_ZNSt6vectorIbSaIbEEC2EmRKbRKS0_(%"class.std::vector.63"* %this, i64 %__n, i8* dereferenceable(1) %__value, %"class.std::allocator.108"* dereferenceable(1) %__a) unnamed_addr #0 comdat align 2 personality i8* bitcast (i32 (...)* @__gxx_personality_v0 to i8*) !dbg !9326 {
entry:
  %this.addr = alloca %"class.std::vector.63"*, align 8
  %__n.addr = alloca i64, align 8
  %__value.addr = alloca i8*, align 8
  %__a.addr = alloca %"class.std::allocator.108"*, align 8
  %exn.slot = alloca i8*
  %ehselector.slot = alloca i32
  store %"class.std::vector.63"* %this, %"class.std::vector.63"** %this.addr, align 8
  call void @llvm.dbg.declare(metadata %"class.std::vector.63"** %this.addr, metadata !9327, metadata !DIExpression()), !dbg !9328
  store i64 %__n, i64* %__n.addr, align 8
  call void @llvm.dbg.declare(metadata i64* %__n.addr, metadata !9329, metadata !DIExpression()), !dbg !9330
  store i8* %__value, i8** %__value.addr, align 8
  call void @llvm.dbg.declare(metadata i8** %__value.addr, metadata !9331, metadata !DIExpression()), !dbg !9332
  store %"class.std::allocator.108"* %__a, %"class.std::allocator.108"** %__a.addr, align 8
  call void @llvm.dbg.declare(metadata %"class.std::allocator.108"** %__a.addr, metadata !9333, metadata !DIExpression()), !dbg !9334
  %this1 = load %"class.std::vector.63"*, %"class.std::vector.63"** %this.addr, align 8
  %0 = bitcast %"class.std::vector.63"* %this1 to %"struct.std::_Bvector_base"*, !dbg !9335
  %1 = load %"class.std::allocator.108"*, %"class.std::allocator.108"** %__a.addr, align 8, !dbg !9336
  call void @_ZNSt13_Bvector_baseISaIbEEC2ERKS0_(%"struct.std::_Bvector_base"* %0, %"class.std::allocator.108"* dereferenceable(1) %1), !dbg !9337
  %2 = load i64, i64* %__n.addr, align 8, !dbg !9338
  invoke void @_ZNSt6vectorIbSaIbEE13_M_initializeEm(%"class.std::vector.63"* %this1, i64 %2)
          to label %invoke.cont unwind label %lpad, !dbg !9340

invoke.cont:                                      ; preds = %entry
  %3 = load i8*, i8** %__value.addr, align 8, !dbg !9341
  %4 = load i8, i8* %3, align 1, !dbg !9341
  %tobool = trunc i8 %4 to i1, !dbg !9341
  invoke void @_ZNSt6vectorIbSaIbEE19_M_initialize_valueEb(%"class.std::vector.63"* %this1, i1 zeroext %tobool)
          to label %invoke.cont2 unwind label %lpad, !dbg !9342

invoke.cont2:                                     ; preds = %invoke.cont
  ret void, !dbg !9343

lpad:                                             ; preds = %invoke.cont, %entry
  %5 = landingpad { i8*, i32 }
          cleanup, !dbg !9344
  %6 = extractvalue { i8*, i32 } %5, 0, !dbg !9344
  store i8* %6, i8** %exn.slot, align 8, !dbg !9344
  %7 = extractvalue { i8*, i32 } %5, 1, !dbg !9344
  store i32 %7, i32* %ehselector.slot, align 4, !dbg !9344
  %8 = bitcast %"class.std::vector.63"* %this1 to %"struct.std::_Bvector_base"*, !dbg !9344
  call void @_ZNSt13_Bvector_baseISaIbEED2Ev(%"struct.std::_Bvector_base"* %8) #4, !dbg !9344
  br label %eh.resume, !dbg !9344

eh.resume:                                        ; preds = %lpad
  %exn = load i8*, i8** %exn.slot, align 8, !dbg !9344
  %sel = load i32, i32* %ehselector.slot, align 4, !dbg !9344
  %lpad.val = insertvalue { i8*, i32 } undef, i8* %exn, 0, !dbg !9344
  %lpad.val3 = insertvalue { i8*, i32 } %lpad.val, i32 %sel, 1, !dbg !9344
  resume { i8*, i32 } %lpad.val3, !dbg !9344
}

; Function Attrs: noinline nounwind uwtable
define linkonce_odr dso_local void @_ZNSaISt6vectorIbSaIbEEEC2Ev(%"class.std::allocator.69"* %this) unnamed_addr #1 comdat align 2 !dbg !9345 {
entry:
  %this.addr = alloca %"class.std::allocator.69"*, align 8
  store %"class.std::allocator.69"* %this, %"class.std::allocator.69"** %this.addr, align 8
  call void @llvm.dbg.declare(metadata %"class.std::allocator.69"** %this.addr, metadata !9346, metadata !DIExpression()), !dbg !9348
  %this1 = load %"class.std::allocator.69"*, %"class.std::allocator.69"** %this.addr, align 8
  %0 = bitcast %"class.std::allocator.69"* %this1 to %"class.__gnu_cxx::new_allocator.70"*, !dbg !9349
  call void @_ZN9__gnu_cxx13new_allocatorISt6vectorIbSaIbEEEC2Ev(%"class.__gnu_cxx::new_allocator.70"* %0) #4, !dbg !9350
  ret void, !dbg !9351
}

; Function Attrs: noinline uwtable
define linkonce_odr dso_local void @_ZNSt6vectorIS_IbSaIbEESaIS1_EEC2EmRKS1_RKS2_(%"class.std::vector.67"* %this, i64 %__n, %"class.std::vector.63"* dereferenceable(40) %__value, %"class.std::allocator.69"* dereferenceable(1) %__a) unnamed_addr #0 comdat align 2 personality i8* bitcast (i32 (...)* @__gxx_personality_v0 to i8*) !dbg !9352 {
entry:
  %this.addr = alloca %"class.std::vector.67"*, align 8
  %__n.addr = alloca i64, align 8
  %__value.addr = alloca %"class.std::vector.63"*, align 8
  %__a.addr = alloca %"class.std::allocator.69"*, align 8
  %exn.slot = alloca i8*
  %ehselector.slot = alloca i32
  store %"class.std::vector.67"* %this, %"class.std::vector.67"** %this.addr, align 8
  call void @llvm.dbg.declare(metadata %"class.std::vector.67"** %this.addr, metadata !9353, metadata !DIExpression()), !dbg !9355
  store i64 %__n, i64* %__n.addr, align 8
  call void @llvm.dbg.declare(metadata i64* %__n.addr, metadata !9356, metadata !DIExpression()), !dbg !9357
  store %"class.std::vector.63"* %__value, %"class.std::vector.63"** %__value.addr, align 8
  call void @llvm.dbg.declare(metadata %"class.std::vector.63"** %__value.addr, metadata !9358, metadata !DIExpression()), !dbg !9359
  store %"class.std::allocator.69"* %__a, %"class.std::allocator.69"** %__a.addr, align 8
  call void @llvm.dbg.declare(metadata %"class.std::allocator.69"** %__a.addr, metadata !9360, metadata !DIExpression()), !dbg !9361
  %this1 = load %"class.std::vector.67"*, %"class.std::vector.67"** %this.addr, align 8
  %0 = bitcast %"class.std::vector.67"* %this1 to %"struct.std::_Vector_base.68"*, !dbg !9362
  %1 = load i64, i64* %__n.addr, align 8, !dbg !9363
  %2 = load %"class.std::allocator.69"*, %"class.std::allocator.69"** %__a.addr, align 8, !dbg !9364
  %call = call i64 @_ZNSt6vectorIS_IbSaIbEESaIS1_EE17_S_check_init_lenEmRKS2_(i64 %1, %"class.std::allocator.69"* dereferenceable(1) %2), !dbg !9365
  %3 = load %"class.std::allocator.69"*, %"class.std::allocator.69"** %__a.addr, align 8, !dbg !9366
  call void @_ZNSt12_Vector_baseISt6vectorIbSaIbEESaIS2_EEC2EmRKS3_(%"struct.std::_Vector_base.68"* %0, i64 %call, %"class.std::allocator.69"* dereferenceable(1) %3), !dbg !9367
  %4 = load i64, i64* %__n.addr, align 8, !dbg !9368
  %5 = load %"class.std::vector.63"*, %"class.std::vector.63"** %__value.addr, align 8, !dbg !9370
  invoke void @_ZNSt6vectorIS_IbSaIbEESaIS1_EE18_M_fill_initializeEmRKS1_(%"class.std::vector.67"* %this1, i64 %4, %"class.std::vector.63"* dereferenceable(40) %5)
          to label %invoke.cont unwind label %lpad, !dbg !9371

invoke.cont:                                      ; preds = %entry
  ret void, !dbg !9372

lpad:                                             ; preds = %entry
  %6 = landingpad { i8*, i32 }
          cleanup, !dbg !9373
  %7 = extractvalue { i8*, i32 } %6, 0, !dbg !9373
  store i8* %7, i8** %exn.slot, align 8, !dbg !9373
  %8 = extractvalue { i8*, i32 } %6, 1, !dbg !9373
  store i32 %8, i32* %ehselector.slot, align 4, !dbg !9373
  %9 = bitcast %"class.std::vector.67"* %this1 to %"struct.std::_Vector_base.68"*, !dbg !9373
  call void @_ZNSt12_Vector_baseISt6vectorIbSaIbEESaIS2_EED2Ev(%"struct.std::_Vector_base.68"* %9) #4, !dbg !9373
  br label %eh.resume, !dbg !9373

eh.resume:                                        ; preds = %lpad
  %exn = load i8*, i8** %exn.slot, align 8, !dbg !9373
  %sel = load i32, i32* %ehselector.slot, align 4, !dbg !9373
  %lpad.val = insertvalue { i8*, i32 } undef, i8* %exn, 0, !dbg !9373
  %lpad.val2 = insertvalue { i8*, i32 } %lpad.val, i32 %sel, 1, !dbg !9373
  resume { i8*, i32 } %lpad.val2, !dbg !9373
}

declare dso_local void @_ZN6dealii13FE_PolyTensorINS_14PolynomialsABFILi3EEELi3ELi3EEC2EjRKNS_17FiniteElementDataILi3EEERKSt6vectorIbSaIbEERKS8_ISA_SaISA_EE(%"class.dealii::FE_PolyTensor"*, i32, %"class.dealii::FiniteElementData"* dereferenceable(60), %"class.std::vector.63"* dereferenceable(40), %"class.std::vector.67"* dereferenceable(24)) unnamed_addr #2

; Function Attrs: noinline nounwind uwtable
define linkonce_odr dso_local void @_ZNSt6vectorIS_IbSaIbEESaIS1_EED2Ev(%"class.std::vector.67"* %this) unnamed_addr #1 comdat align 2 personality i8* bitcast (i32 (...)* @__gxx_personality_v0 to i8*) !dbg !9374 {
entry:
  %this.addr = alloca %"class.std::vector.67"*, align 8
  %exn.slot = alloca i8*
  %ehselector.slot = alloca i32
  store %"class.std::vector.67"* %this, %"class.std::vector.67"** %this.addr, align 8
  call void @llvm.dbg.declare(metadata %"class.std::vector.67"** %this.addr, metadata !9375, metadata !DIExpression()), !dbg !9376
  %this1 = load %"class.std::vector.67"*, %"class.std::vector.67"** %this.addr, align 8
  %0 = bitcast %"class.std::vector.67"* %this1 to %"struct.std::_Vector_base.68"*, !dbg !9377
  %_M_impl = getelementptr inbounds %"struct.std::_Vector_base.68", %"struct.std::_Vector_base.68"* %0, i32 0, i32 0, !dbg !9377
  %1 = bitcast %"struct.std::_Vector_base<std::vector<bool, std::allocator<bool> >, std::allocator<std::vector<bool, std::allocator<bool> > > >::_Vector_impl"* %_M_impl to %"struct.std::_Vector_base<std::vector<bool, std::allocator<bool> >, std::allocator<std::vector<bool, std::allocator<bool> > > >::_Vector_impl_data"*, !dbg !9379
  %_M_start = getelementptr inbounds %"struct.std::_Vector_base<std::vector<bool, std::allocator<bool> >, std::allocator<std::vector<bool, std::allocator<bool> > > >::_Vector_impl_data", %"struct.std::_Vector_base<std::vector<bool, std::allocator<bool> >, std::allocator<std::vector<bool, std::allocator<bool> > > >::_Vector_impl_data"* %1, i32 0, i32 0, !dbg !9380
  %2 = load %"class.std::vector.63"*, %"class.std::vector.63"** %_M_start, align 8, !dbg !9380
  %3 = bitcast %"class.std::vector.67"* %this1 to %"struct.std::_Vector_base.68"*, !dbg !9381
  %_M_impl2 = getelementptr inbounds %"struct.std::_Vector_base.68", %"struct.std::_Vector_base.68"* %3, i32 0, i32 0, !dbg !9381
  %4 = bitcast %"struct.std::_Vector_base<std::vector<bool, std::allocator<bool> >, std::allocator<std::vector<bool, std::allocator<bool> > > >::_Vector_impl"* %_M_impl2 to %"struct.std::_Vector_base<std::vector<bool, std::allocator<bool> >, std::allocator<std::vector<bool, std::allocator<bool> > > >::_Vector_impl_data"*, !dbg !9382
  %_M_finish = getelementptr inbounds %"struct.std::_Vector_base<std::vector<bool, std::allocator<bool> >, std::allocator<std::vector<bool, std::allocator<bool> > > >::_Vector_impl_data", %"struct.std::_Vector_base<std::vector<bool, std::allocator<bool> >, std::allocator<std::vector<bool, std::allocator<bool> > > >::_Vector_impl_data"* %4, i32 0, i32 1, !dbg !9383
  %5 = load %"class.std::vector.63"*, %"class.std::vector.63"** %_M_finish, align 8, !dbg !9383
  %6 = bitcast %"class.std::vector.67"* %this1 to %"struct.std::_Vector_base.68"*, !dbg !9384
  %call = call dereferenceable(1) %"class.std::allocator.69"* @_ZNSt12_Vector_baseISt6vectorIbSaIbEESaIS2_EE19_M_get_Tp_allocatorEv(%"struct.std::_Vector_base.68"* %6) #4, !dbg !9384
  invoke void @_ZSt8_DestroyIPSt6vectorIbSaIbEES2_EvT_S4_RSaIT0_E(%"class.std::vector.63"* %2, %"class.std::vector.63"* %5, %"class.std::allocator.69"* dereferenceable(1) %call)
          to label %invoke.cont unwind label %lpad, !dbg !9385

invoke.cont:                                      ; preds = %entry
  %7 = bitcast %"class.std::vector.67"* %this1 to %"struct.std::_Vector_base.68"*, !dbg !9386
  call void @_ZNSt12_Vector_baseISt6vectorIbSaIbEESaIS2_EED2Ev(%"struct.std::_Vector_base.68"* %7) #4, !dbg !9386
  ret void, !dbg !9387

lpad:                                             ; preds = %entry
  %8 = landingpad { i8*, i32 }
          catch i8* null, !dbg !9386
  %9 = extractvalue { i8*, i32 } %8, 0, !dbg !9386
  store i8* %9, i8** %exn.slot, align 8, !dbg !9386
  %10 = extractvalue { i8*, i32 } %8, 1, !dbg !9386
  store i32 %10, i32* %ehselector.slot, align 4, !dbg !9386
  %11 = bitcast %"class.std::vector.67"* %this1 to %"struct.std::_Vector_base.68"*, !dbg !9386
  call void @_ZNSt12_Vector_baseISt6vectorIbSaIbEESaIS2_EED2Ev(%"struct.std::_Vector_base.68"* %11) #4, !dbg !9386
  br label %terminate.handler, !dbg !9386

terminate.handler:                                ; preds = %lpad
  %exn = load i8*, i8** %exn.slot, align 8, !dbg !9386
  call void @__clang_call_terminate(i8* %exn) #12, !dbg !9386
  unreachable, !dbg !9386
}

; Function Attrs: noinline nounwind uwtable
define linkonce_odr dso_local void @_ZNSaISt6vectorIbSaIbEEED2Ev(%"class.std::allocator.69"* %this) unnamed_addr #1 comdat align 2 !dbg !9388 {
entry:
  %this.addr = alloca %"class.std::allocator.69"*, align 8
  store %"class.std::allocator.69"* %this, %"class.std::allocator.69"** %this.addr, align 8
  call void @llvm.dbg.declare(metadata %"class.std::allocator.69"** %this.addr, metadata !9389, metadata !DIExpression()), !dbg !9390
  %this1 = load %"class.std::allocator.69"*, %"class.std::allocator.69"** %this.addr, align 8
  %0 = bitcast %"class.std::allocator.69"* %this1 to %"class.__gnu_cxx::new_allocator.70"*, !dbg !9391
  call void @_ZN9__gnu_cxx13new_allocatorISt6vectorIbSaIbEEED2Ev(%"class.__gnu_cxx::new_allocator.70"* %0) #4, !dbg !9391
  ret void, !dbg !9393
}

; Function Attrs: noinline nounwind uwtable
define linkonce_odr dso_local void @_ZNSt6vectorIbSaIbEED2Ev(%"class.std::vector.63"* %this) unnamed_addr #1 comdat align 2 !dbg !9394 {
entry:
  %this.addr = alloca %"class.std::vector.63"*, align 8
  store %"class.std::vector.63"* %this, %"class.std::vector.63"** %this.addr, align 8
  call void @llvm.dbg.declare(metadata %"class.std::vector.63"** %this.addr, metadata !9395, metadata !DIExpression()), !dbg !9396
  %this1 = load %"class.std::vector.63"*, %"class.std::vector.63"** %this.addr, align 8
  %0 = bitcast %"class.std::vector.63"* %this1 to %"struct.std::_Bvector_base"*, !dbg !9397
  call void @_ZNSt13_Bvector_baseISaIbEED2Ev(%"struct.std::_Bvector_base"* %0) #4, !dbg !9397
  ret void, !dbg !9399
}

; Function Attrs: noinline nounwind uwtable
define linkonce_odr dso_local void @_ZNSaIbED2Ev(%"class.std::allocator.108"* %this) unnamed_addr #1 comdat align 2 !dbg !9400 {
entry:
  %this.addr = alloca %"class.std::allocator.108"*, align 8
  store %"class.std::allocator.108"* %this, %"class.std::allocator.108"** %this.addr, align 8
  call void @llvm.dbg.declare(metadata %"class.std::allocator.108"** %this.addr, metadata !9401, metadata !DIExpression()), !dbg !9402
  %this1 = load %"class.std::allocator.108"*, %"class.std::allocator.108"** %this.addr, align 8
  %0 = bitcast %"class.std::allocator.108"* %this1 to %"class.__gnu_cxx::new_allocator.109"*, !dbg !9403
  call void @_ZN9__gnu_cxx13new_allocatorIbED2Ev(%"class.__gnu_cxx::new_allocator.109"* %0) #4, !dbg !9403
  ret void, !dbg !9405
}

; Function Attrs: noinline nounwind uwtable
define linkonce_odr dso_local void @_ZNSt6vectorIjSaIjEED2Ev(%"class.std::vector.58"* %this) unnamed_addr #1 comdat align 2 personality i8* bitcast (i32 (...)* @__gxx_personality_v0 to i8*) !dbg !9406 {
entry:
  %this.addr = alloca %"class.std::vector.58"*, align 8
  %exn.slot = alloca i8*
  %ehselector.slot = alloca i32
  store %"class.std::vector.58"* %this, %"class.std::vector.58"** %this.addr, align 8
  call void @llvm.dbg.declare(metadata %"class.std::vector.58"** %this.addr, metadata !9407, metadata !DIExpression()), !dbg !9409
  %this1 = load %"class.std::vector.58"*, %"class.std::vector.58"** %this.addr, align 8
  %0 = bitcast %"class.std::vector.58"* %this1 to %"struct.std::_Vector_base.59"*, !dbg !9410
  %_M_impl = getelementptr inbounds %"struct.std::_Vector_base.59", %"struct.std::_Vector_base.59"* %0, i32 0, i32 0, !dbg !9410
  %1 = bitcast %"struct.std::_Vector_base<unsigned int, std::allocator<unsigned int> >::_Vector_impl"* %_M_impl to %"struct.std::_Vector_base<unsigned int, std::allocator<unsigned int> >::_Vector_impl_data"*, !dbg !9412
  %_M_start = getelementptr inbounds %"struct.std::_Vector_base<unsigned int, std::allocator<unsigned int> >::_Vector_impl_data", %"struct.std::_Vector_base<unsigned int, std::allocator<unsigned int> >::_Vector_impl_data"* %1, i32 0, i32 0, !dbg !9413
  %2 = load i32*, i32** %_M_start, align 8, !dbg !9413
  %3 = bitcast %"class.std::vector.58"* %this1 to %"struct.std::_Vector_base.59"*, !dbg !9414
  %_M_impl2 = getelementptr inbounds %"struct.std::_Vector_base.59", %"struct.std::_Vector_base.59"* %3, i32 0, i32 0, !dbg !9414
  %4 = bitcast %"struct.std::_Vector_base<unsigned int, std::allocator<unsigned int> >::_Vector_impl"* %_M_impl2 to %"struct.std::_Vector_base<unsigned int, std::allocator<unsigned int> >::_Vector_impl_data"*, !dbg !9415
  %_M_finish = getelementptr inbounds %"struct.std::_Vector_base<unsigned int, std::allocator<unsigned int> >::_Vector_impl_data", %"struct.std::_Vector_base<unsigned int, std::allocator<unsigned int> >::_Vector_impl_data"* %4, i32 0, i32 1, !dbg !9416
  %5 = load i32*, i32** %_M_finish, align 8, !dbg !9416
  %6 = bitcast %"class.std::vector.58"* %this1 to %"struct.std::_Vector_base.59"*, !dbg !9417
  %call = call dereferenceable(1) %"class.std::allocator.60"* @_ZNSt12_Vector_baseIjSaIjEE19_M_get_Tp_allocatorEv(%"struct.std::_Vector_base.59"* %6) #4, !dbg !9417
  invoke void @_ZSt8_DestroyIPjjEvT_S1_RSaIT0_E(i32* %2, i32* %5, %"class.std::allocator.60"* dereferenceable(1) %call)
          to label %invoke.cont unwind label %lpad, !dbg !9418

invoke.cont:                                      ; preds = %entry
  %7 = bitcast %"class.std::vector.58"* %this1 to %"struct.std::_Vector_base.59"*, !dbg !9419
  call void @_ZNSt12_Vector_baseIjSaIjEED2Ev(%"struct.std::_Vector_base.59"* %7) #4, !dbg !9419
  ret void, !dbg !9420

lpad:                                             ; preds = %entry
  %8 = landingpad { i8*, i32 }
          catch i8* null, !dbg !9419
  %9 = extractvalue { i8*, i32 } %8, 0, !dbg !9419
  store i8* %9, i8** %exn.slot, align 8, !dbg !9419
  %10 = extractvalue { i8*, i32 } %8, 1, !dbg !9419
  store i32 %10, i32* %ehselector.slot, align 4, !dbg !9419
  %11 = bitcast %"class.std::vector.58"* %this1 to %"struct.std::_Vector_base.59"*, !dbg !9419
  call void @_ZNSt12_Vector_baseIjSaIjEED2Ev(%"struct.std::_Vector_base.59"* %11) #4, !dbg !9419
  br label %terminate.handler, !dbg !9419

terminate.handler:                                ; preds = %lpad
  %exn = load i8*, i8** %exn.slot, align 8, !dbg !9419
  call void @__clang_call_terminate(i8* %exn) #12, !dbg !9419
  unreachable, !dbg !9419
}

; Function Attrs: noinline uwtable
define linkonce_odr dso_local void @_ZN6dealii5TableILi2EdEC2Ev(%"class.dealii::Table"* %this) unnamed_addr #0 comdat align 2 !dbg !9421 {
entry:
  %this.addr = alloca %"class.dealii::Table"*, align 8
  store %"class.dealii::Table"* %this, %"class.dealii::Table"** %this.addr, align 8
  call void @llvm.dbg.declare(metadata %"class.dealii::Table"** %this.addr, metadata !9422, metadata !DIExpression()), !dbg !9424
  %this1 = load %"class.dealii::Table"*, %"class.dealii::Table"** %this.addr, align 8
  %0 = bitcast %"class.dealii::Table"* %this1 to %"class.dealii::TableBase"*, !dbg !9425
  call void @_ZN6dealii9TableBaseILi2EdEC2Ev(%"class.dealii::TableBase"* %0), !dbg !9426
  %1 = bitcast %"class.dealii::Table"* %this1 to i32 (...)***, !dbg !9425
  store i32 (...)** bitcast (i8** getelementptr inbounds ({ [4 x i8*] }, { [4 x i8*] }* @_ZTVN6dealii5TableILi2EdEE, i32 0, inrange i32 0, i32 2) to i32 (...)**), i32 (...)*** %1, align 8, !dbg !9425
  ret void, !dbg !9427
}

; Function Attrs: noinline uwtable
define linkonce_odr dso_local void @_ZN6dealii5TableILi3EdEC2Ev(%"class.dealii::Table.104"* %this) unnamed_addr #0 comdat align 2 !dbg !9428 {
entry:
  %this.addr = alloca %"class.dealii::Table.104"*, align 8
  store %"class.dealii::Table.104"* %this, %"class.dealii::Table.104"** %this.addr, align 8
  call void @llvm.dbg.declare(metadata %"class.dealii::Table.104"** %this.addr, metadata !9429, metadata !DIExpression()), !dbg !9431
  %this1 = load %"class.dealii::Table.104"*, %"class.dealii::Table.104"** %this.addr, align 8
  %0 = bitcast %"class.dealii::Table.104"* %this1 to %"class.dealii::TableBase.105"*, !dbg !9432
  call void @_ZN6dealii9TableBaseILi3EdEC2Ev(%"class.dealii::TableBase.105"* %0), !dbg !9433
  %1 = bitcast %"class.dealii::Table.104"* %this1 to i32 (...)***, !dbg !9432
  store i32 (...)** bitcast (i8** getelementptr inbounds ({ [4 x i8*] }, { [4 x i8*] }* @_ZTVN6dealii5TableILi3EdEE, i32 0, inrange i32 0, i32 2) to i32 (...)**), i32 (...)*** %1, align 8, !dbg !9432
  ret void, !dbg !9434
}

; Function Attrs: noinline uwtable
define weak_odr dso_local void @_ZN6dealii6FE_ABFILi3EE25initialize_support_pointsEj(%"class.dealii::FE_ABF"* %this, i32 %deg) #0 comdat align 2 personality i8* bitcast (i32 (...)* @__gxx_personality_v0 to i8*) !dbg !9435 {
entry:
  %this.addr = alloca %"class.dealii::FE_ABF"*, align 8
  %deg.addr = alloca i32, align 4
  %cell_quadrature = alloca %"class.dealii::QGauss", align 8
  %n_interior_points = alloca i32, align 4
  %exn.slot = alloca i8*
  %ehselector.slot = alloca i32
  %n_face_points = alloca i32, align 4
  %d = alloca i32, align 4
  %polynomials_abf = alloca %"class.std::vector.128", align 8
  %ref.tmp = alloca %"class.std::allocator.130", align 1
  %dd = alloca i32, align 4
  %poly = alloca %"class.std::vector.72", align 8
  %ref.tmp13 = alloca %"class.std::allocator.74", align 1
  %d16 = alloca i32, align 4
  %ref.tmp22 = alloca %"class.dealii::Polynomials::Monomial", align 8
  %ref.tmp31 = alloca %"class.std::vector.77", align 8
  %current = alloca i32, align 4
  %face_points = alloca %"class.dealii::QGauss.133", align 8
  %legendre = alloca %"class.dealii::TensorProductPolynomials", align 8
  %ref.tmp48 = alloca %"class.std::vector.77", align 8
  %k = alloca i32, align 4
  %i = alloca i32, align 4
  %faces = alloca %"class.dealii::Quadrature", align 8
  %k112 = alloca i32, align 4
  %i118 = alloca i32, align 4
  %polynomials = alloca %"class.std::vector.128", align 8
  %ref.tmp148 = alloca %"class.std::allocator.130", align 1
  %dd152 = alloca i32, align 4
  %poly156 = alloca %"class.std::vector.72", align 8
  %ref.tmp157 = alloca %"class.std::allocator.74", align 1
  %d161 = alloca i32, align 4
  %ref.tmp165 = alloca %"class.std::vector.77", align 8
  %ref.tmp174 = alloca %"class.std::vector.77", align 8
  %ref.tmp190 = alloca %"class.dealii::TableIndices.106", align 4
  %k197 = alloca i32, align 4
  %i203 = alloca i32, align 4
  %d210 = alloca i32, align 4
  %d235 = alloca i32, align 4
  %k245 = alloca i32, align 4
  %ref.tmp262 = alloca %"class.dealii::TableIndices.106", align 4
  %poly_grad = alloca %"class.dealii::Tensor", align 8
  %k272 = alloca i32, align 4
  %i278 = alloca i32, align 4
  %ref.tmp286 = alloca %"class.dealii::Tensor", align 8
  %ref.tmp287 = alloca %"class.dealii::Tensor", align 8
  %d300 = alloca i32, align 4
  %d318 = alloca i32, align 4
  store %"class.dealii::FE_ABF"* %this, %"class.dealii::FE_ABF"** %this.addr, align 8
  call void @llvm.dbg.declare(metadata %"class.dealii::FE_ABF"** %this.addr, metadata !9436, metadata !DIExpression()), !dbg !9437
  store i32 %deg, i32* %deg.addr, align 4
  call void @llvm.dbg.declare(metadata i32* %deg.addr, metadata !9438, metadata !DIExpression()), !dbg !9439
  %this1 = load %"class.dealii::FE_ABF"*, %"class.dealii::FE_ABF"** %this.addr, align 8
  call void @llvm.dbg.declare(metadata %"class.dealii::QGauss"* %cell_quadrature, metadata !9440, metadata !DIExpression()), !dbg !9443
  %0 = load i32, i32* %deg.addr, align 4, !dbg !9444
  %add = add i32 %0, 2, !dbg !9445
  call void @_ZN6dealii6QGaussILi3EEC1Ej(%"class.dealii::QGauss"* %cell_quadrature, i32 %add), !dbg !9443
  call void @llvm.dbg.declare(metadata i32* %n_interior_points, metadata !9446, metadata !DIExpression()), !dbg !9447
  %1 = bitcast %"class.dealii::QGauss"* %cell_quadrature to %"class.dealii::Quadrature"*, !dbg !9448
  %call = invoke i32 @_ZNK6dealii10QuadratureILi3EE4sizeEv(%"class.dealii::Quadrature"* %1)
          to label %invoke.cont unwind label %lpad, !dbg !9449

invoke.cont:                                      ; preds = %entry
  store i32 %call, i32* %n_interior_points, align 4, !dbg !9447
  call void @llvm.dbg.declare(metadata i32* %n_face_points, metadata !9450, metadata !DIExpression()), !dbg !9451
  store i32 1, i32* %n_face_points, align 4, !dbg !9451
  call void @llvm.dbg.declare(metadata i32* %d, metadata !9452, metadata !DIExpression()), !dbg !9454
  store i32 1, i32* %d, align 4, !dbg !9454
  br label %for.cond, !dbg !9455

for.cond:                                         ; preds = %for.inc, %invoke.cont
  %2 = load i32, i32* %d, align 4, !dbg !9456
  %cmp = icmp ult i32 %2, 3, !dbg !9458
  br i1 %cmp, label %for.body, label %for.end, !dbg !9459

for.body:                                         ; preds = %for.cond
  %3 = load i32, i32* %deg.addr, align 4, !dbg !9460
  %add2 = add i32 %3, 1, !dbg !9461
  %4 = load i32, i32* %n_face_points, align 4, !dbg !9462
  %mul = mul i32 %4, %add2, !dbg !9462
  store i32 %mul, i32* %n_face_points, align 4, !dbg !9462
  br label %for.inc, !dbg !9463

for.inc:                                          ; preds = %for.body
  %5 = load i32, i32* %d, align 4, !dbg !9464
  %inc = add i32 %5, 1, !dbg !9464
  store i32 %inc, i32* %d, align 4, !dbg !9464
  br label %for.cond, !dbg !9465, !llvm.loop !9466

lpad:                                             ; preds = %invoke.cont5, %for.end, %entry
  %6 = landingpad { i8*, i32 }
          cleanup, !dbg !9468
  %7 = extractvalue { i8*, i32 } %6, 0, !dbg !9468
  store i8* %7, i8** %exn.slot, align 8, !dbg !9468
  %8 = extractvalue { i8*, i32 } %6, 1, !dbg !9468
  store i32 %8, i32* %ehselector.slot, align 4, !dbg !9468
  br label %ehcleanup331, !dbg !9468

for.end:                                          ; preds = %for.cond
  %9 = bitcast %"class.dealii::FE_ABF"* %this1 to %"class.dealii::FiniteElement"*, !dbg !9469
  %generalized_support_points = getelementptr inbounds %"class.dealii::FiniteElement", %"class.dealii::FiniteElement"* %9, i32 0, i32 8, !dbg !9469
  %10 = load i32, i32* %n_face_points, align 4, !dbg !9470
  %mul3 = mul i32 6, %10, !dbg !9471
  %11 = load i32, i32* %n_interior_points, align 4, !dbg !9472
  %add4 = add i32 %mul3, %11, !dbg !9473
  %conv = zext i32 %add4 to i64, !dbg !9474
  invoke void @_ZNSt6vectorIN6dealii5PointILi3EEESaIS2_EE6resizeEm(%"class.std::vector.24"* %generalized_support_points, i64 %conv)
          to label %invoke.cont5 unwind label %lpad, !dbg !9475

invoke.cont5:                                     ; preds = %for.end
  %12 = bitcast %"class.dealii::FE_ABF"* %this1 to %"class.dealii::FiniteElement"*, !dbg !9476
  %generalized_face_support_points = getelementptr inbounds %"class.dealii::FiniteElement", %"class.dealii::FiniteElement"* %12, i32 0, i32 9, !dbg !9476
  %13 = load i32, i32* %n_face_points, align 4, !dbg !9477
  %conv6 = zext i32 %13 to i64, !dbg !9477
  invoke void @_ZNSt6vectorIN6dealii5PointILi2EEESaIS2_EE6resizeEm(%"class.std::vector.29"* %generalized_face_support_points, i64 %conv6)
          to label %invoke.cont7 unwind label %lpad, !dbg !9478

invoke.cont7:                                     ; preds = %invoke.cont5
  call void @llvm.dbg.declare(metadata %"class.std::vector.128"* %polynomials_abf, metadata !9479, metadata !DIExpression()), !dbg !9480
  call void @_ZNSaIPN6dealii22AnisotropicPolynomialsILi3EEEEC2Ev(%"class.std::allocator.130"* %ref.tmp) #4, !dbg !9480
  invoke void @_ZNSt6vectorIPN6dealii22AnisotropicPolynomialsILi3EEESaIS3_EEC2EmRKS4_(%"class.std::vector.128"* %polynomials_abf, i64 3, %"class.std::allocator.130"* dereferenceable(1) %ref.tmp)
          to label %invoke.cont9 unwind label %lpad8, !dbg !9480

invoke.cont9:                                     ; preds = %invoke.cont7
  call void @_ZNSaIPN6dealii22AnisotropicPolynomialsILi3EEEED2Ev(%"class.std::allocator.130"* %ref.tmp) #4, !dbg !9480
  call void @llvm.dbg.declare(metadata i32* %dd, metadata !9481, metadata !DIExpression()), !dbg !9483
  store i32 0, i32* %dd, align 4, !dbg !9483
  br label %for.cond10, !dbg !9484

for.cond10:                                       ; preds = %for.inc42, %invoke.cont9
  %14 = load i32, i32* %dd, align 4, !dbg !9485
  %cmp11 = icmp ult i32 %14, 3, !dbg !9487
  br i1 %cmp11, label %for.body12, label %for.end44, !dbg !9488

for.body12:                                       ; preds = %for.cond10
  call void @llvm.dbg.declare(metadata %"class.std::vector.72"* %poly, metadata !9489, metadata !DIExpression()), !dbg !9491
  call void @_ZNSaISt6vectorIN6dealii11Polynomials10PolynomialIdEESaIS3_EEEC2Ev(%"class.std::allocator.74"* %ref.tmp13) #4, !dbg !9491
  invoke void @_ZNSt6vectorIS_IN6dealii11Polynomials10PolynomialIdEESaIS3_EESaIS5_EEC2EmRKS6_(%"class.std::vector.72"* %poly, i64 3, %"class.std::allocator.74"* dereferenceable(1) %ref.tmp13)
          to label %invoke.cont15 unwind label %lpad14, !dbg !9491

invoke.cont15:                                    ; preds = %for.body12
  call void @_ZNSaISt6vectorIN6dealii11Polynomials10PolynomialIdEESaIS3_EEED2Ev(%"class.std::allocator.74"* %ref.tmp13) #4, !dbg !9491
  call void @llvm.dbg.declare(metadata i32* %d16, metadata !9492, metadata !DIExpression()), !dbg !9494
  store i32 0, i32* %d16, align 4, !dbg !9494
  br label %for.cond17, !dbg !9495

for.cond17:                                       ; preds = %for.inc28, %invoke.cont15
  %15 = load i32, i32* %d16, align 4, !dbg !9496
  %cmp18 = icmp ult i32 %15, 3, !dbg !9498
  br i1 %cmp18, label %for.body19, label %for.end30, !dbg !9499

for.body19:                                       ; preds = %for.cond17
  %16 = load i32, i32* %d16, align 4, !dbg !9500
  %conv20 = zext i32 %16 to i64, !dbg !9500
  %call21 = call dereferenceable(24) %"class.std::vector.77"* @_ZNSt6vectorIS_IN6dealii11Polynomials10PolynomialIdEESaIS3_EESaIS5_EEixEm(%"class.std::vector.72"* %poly, i64 %conv20) #4, !dbg !9501
  %17 = load i32, i32* %deg.addr, align 4, !dbg !9502
  %add23 = add i32 %17, 1, !dbg !9503
  invoke void @_ZN6dealii11Polynomials8MonomialIdEC1Ejd(%"class.dealii::Polynomials::Monomial"* %ref.tmp22, i32 %add23, double 1.000000e+00)
          to label %invoke.cont25 unwind label %lpad24, !dbg !9504

invoke.cont25:                                    ; preds = %for.body19
  %18 = bitcast %"class.dealii::Polynomials::Monomial"* %ref.tmp22 to %"class.dealii::Polynomials::Polynomial"*, !dbg !9504
  invoke void @_ZNSt6vectorIN6dealii11Polynomials10PolynomialIdEESaIS3_EE9push_backEOS3_(%"class.std::vector.77"* %call21, %"class.dealii::Polynomials::Polynomial"* dereferenceable(96) %18)
          to label %invoke.cont27 unwind label %lpad26, !dbg !9505

invoke.cont27:                                    ; preds = %invoke.cont25
  call void @_ZN6dealii11Polynomials8MonomialIdED2Ev(%"class.dealii::Polynomials::Monomial"* %ref.tmp22) #4, !dbg !9501
  br label %for.inc28, !dbg !9501

for.inc28:                                        ; preds = %invoke.cont27
  %19 = load i32, i32* %d16, align 4, !dbg !9506
  %inc29 = add i32 %19, 1, !dbg !9506
  store i32 %inc29, i32* %d16, align 4, !dbg !9506
  br label %for.cond17, !dbg !9507, !llvm.loop !9508

lpad8:                                            ; preds = %invoke.cont7
  %20 = landingpad { i8*, i32 }
          cleanup, !dbg !9468
  %21 = extractvalue { i8*, i32 } %20, 0, !dbg !9468
  store i8* %21, i8** %exn.slot, align 8, !dbg !9468
  %22 = extractvalue { i8*, i32 } %20, 1, !dbg !9468
  store i32 %22, i32* %ehselector.slot, align 4, !dbg !9468
  call void @_ZNSaIPN6dealii22AnisotropicPolynomialsILi3EEEED2Ev(%"class.std::allocator.130"* %ref.tmp) #4, !dbg !9480
  br label %ehcleanup331, !dbg !9480

lpad14:                                           ; preds = %for.body12
  %23 = landingpad { i8*, i32 }
          cleanup, !dbg !9510
  %24 = extractvalue { i8*, i32 } %23, 0, !dbg !9510
  store i8* %24, i8** %exn.slot, align 8, !dbg !9510
  %25 = extractvalue { i8*, i32 } %23, 1, !dbg !9510
  store i32 %25, i32* %ehselector.slot, align 4, !dbg !9510
  call void @_ZNSaISt6vectorIN6dealii11Polynomials10PolynomialIdEESaIS3_EEED2Ev(%"class.std::allocator.74"* %ref.tmp13) #4, !dbg !9491
  br label %ehcleanup330, !dbg !9491

lpad24:                                           ; preds = %invoke.cont32, %for.end30, %for.body19
  %26 = landingpad { i8*, i32 }
          cleanup, !dbg !9511
  %27 = extractvalue { i8*, i32 } %26, 0, !dbg !9511
  store i8* %27, i8** %exn.slot, align 8, !dbg !9511
  %28 = extractvalue { i8*, i32 } %26, 1, !dbg !9511
  store i32 %28, i32* %ehselector.slot, align 4, !dbg !9511
  br label %ehcleanup, !dbg !9511

lpad26:                                           ; preds = %invoke.cont25
  %29 = landingpad { i8*, i32 }
          cleanup, !dbg !9511
  %30 = extractvalue { i8*, i32 } %29, 0, !dbg !9511
  store i8* %30, i8** %exn.slot, align 8, !dbg !9511
  %31 = extractvalue { i8*, i32 } %29, 1, !dbg !9511
  store i32 %31, i32* %ehselector.slot, align 4, !dbg !9511
  call void @_ZN6dealii11Polynomials8MonomialIdED2Ev(%"class.dealii::Polynomials::Monomial"* %ref.tmp22) #4, !dbg !9501
  br label %ehcleanup, !dbg !9501

for.end30:                                        ; preds = %for.cond17
  %32 = load i32, i32* %deg.addr, align 4, !dbg !9512
  invoke void @_ZN6dealii11Polynomials8MonomialIdE23generate_complete_basisEj(%"class.std::vector.77"* sret %ref.tmp31, i32 %32)
          to label %invoke.cont32 unwind label %lpad24, !dbg !9513

invoke.cont32:                                    ; preds = %for.end30
  %33 = load i32, i32* %dd, align 4, !dbg !9514
  %conv33 = zext i32 %33 to i64, !dbg !9514
  %call34 = call dereferenceable(24) %"class.std::vector.77"* @_ZNSt6vectorIS_IN6dealii11Polynomials10PolynomialIdEESaIS3_EESaIS5_EEixEm(%"class.std::vector.72"* %poly, i64 %conv33) #4, !dbg !9515
  %call35 = call dereferenceable(24) %"class.std::vector.77"* @_ZNSt6vectorIN6dealii11Polynomials10PolynomialIdEESaIS3_EEaSEOS5_(%"class.std::vector.77"* %call34, %"class.std::vector.77"* dereferenceable(24) %ref.tmp31) #4, !dbg !9516
  call void @_ZNSt6vectorIN6dealii11Polynomials10PolynomialIdEESaIS3_EED2Ev(%"class.std::vector.77"* %ref.tmp31) #4, !dbg !9515
  %call37 = invoke i8* @_Znwm(i64 32) #13
          to label %invoke.cont36 unwind label %lpad24, !dbg !9517

invoke.cont36:                                    ; preds = %invoke.cont32
  %34 = bitcast i8* %call37 to %"class.dealii::AnisotropicPolynomials"*, !dbg !9517
  invoke void @_ZN6dealii22AnisotropicPolynomialsILi3EEC1ERKSt6vectorIS2_INS_11Polynomials10PolynomialIdEESaIS5_EESaIS7_EE(%"class.dealii::AnisotropicPolynomials"* %34, %"class.std::vector.72"* dereferenceable(24) %poly)
          to label %invoke.cont39 unwind label %lpad38, !dbg !9518

invoke.cont39:                                    ; preds = %invoke.cont36
  %35 = load i32, i32* %dd, align 4, !dbg !9519
  %conv40 = zext i32 %35 to i64, !dbg !9519
  %call41 = call dereferenceable(8) %"class.dealii::AnisotropicPolynomials"** @_ZNSt6vectorIPN6dealii22AnisotropicPolynomialsILi3EEESaIS3_EEixEm(%"class.std::vector.128"* %polynomials_abf, i64 %conv40) #4, !dbg !9520
  store %"class.dealii::AnisotropicPolynomials"* %34, %"class.dealii::AnisotropicPolynomials"** %call41, align 8, !dbg !9521
  call void @_ZNSt6vectorIS_IN6dealii11Polynomials10PolynomialIdEESaIS3_EESaIS5_EED2Ev(%"class.std::vector.72"* %poly) #4, !dbg !9522
  br label %for.inc42, !dbg !9523

for.inc42:                                        ; preds = %invoke.cont39
  %36 = load i32, i32* %dd, align 4, !dbg !9524
  %inc43 = add i32 %36, 1, !dbg !9524
  store i32 %inc43, i32* %dd, align 4, !dbg !9524
  br label %for.cond10, !dbg !9525, !llvm.loop !9526

lpad38:                                           ; preds = %invoke.cont36
  %37 = landingpad { i8*, i32 }
          cleanup, !dbg !9510
  %38 = extractvalue { i8*, i32 } %37, 0, !dbg !9510
  store i8* %38, i8** %exn.slot, align 8, !dbg !9510
  %39 = extractvalue { i8*, i32 } %37, 1, !dbg !9510
  store i32 %39, i32* %ehselector.slot, align 4, !dbg !9510
  call void @_ZdlPv(i8* %call37) #14, !dbg !9517
  br label %ehcleanup, !dbg !9517

ehcleanup:                                        ; preds = %lpad38, %lpad26, %lpad24
  call void @_ZNSt6vectorIS_IN6dealii11Polynomials10PolynomialIdEESaIS3_EESaIS5_EED2Ev(%"class.std::vector.72"* %poly) #4, !dbg !9522
  br label %ehcleanup330, !dbg !9522

for.end44:                                        ; preds = %for.cond10
  call void @llvm.dbg.declare(metadata i32* %current, metadata !9528, metadata !DIExpression()), !dbg !9529
  store i32 0, i32* %current, align 4, !dbg !9529
  call void @llvm.dbg.declare(metadata %"class.dealii::QGauss.133"* %face_points, metadata !9530, metadata !DIExpression()), !dbg !9534
  %40 = load i32, i32* %deg.addr, align 4, !dbg !9535
  %add45 = add i32 %40, 1, !dbg !9536
  invoke void @_ZN6dealii6QGaussILi2EEC1Ej(%"class.dealii::QGauss.133"* %face_points, i32 %add45)
          to label %invoke.cont47 unwind label %lpad46, !dbg !9534

invoke.cont47:                                    ; preds = %for.end44
  call void @llvm.dbg.declare(metadata %"class.dealii::TensorProductPolynomials"* %legendre, metadata !9537, metadata !DIExpression()), !dbg !9644
  %41 = load i32, i32* %deg.addr, align 4, !dbg !9645
  invoke void @_ZN6dealii11Polynomials8Legendre23generate_complete_basisEj(%"class.std::vector.77"* sret %ref.tmp48, i32 %41)
          to label %invoke.cont50 unwind label %lpad49, !dbg !9646

invoke.cont50:                                    ; preds = %invoke.cont47
  invoke void @_ZN6dealii24TensorProductPolynomialsILi2EEC2INS_11Polynomials10PolynomialIdEEEERKSt6vectorIT_SaIS7_EE(%"class.dealii::TensorProductPolynomials"* %legendre, %"class.std::vector.77"* dereferenceable(24) %ref.tmp48)
          to label %invoke.cont52 unwind label %lpad51, !dbg !9646

invoke.cont52:                                    ; preds = %invoke.cont50
  call void @_ZNSt6vectorIN6dealii11Polynomials10PolynomialIdEESaIS3_EED2Ev(%"class.std::vector.77"* %ref.tmp48) #4, !dbg !9644
  %boundary_weights = getelementptr inbounds %"class.dealii::FE_ABF", %"class.dealii::FE_ABF"* %this1, i32 0, i32 3, !dbg !9647
  %42 = load i32, i32* %n_face_points, align 4, !dbg !9648
  %call56 = invoke i32 @_ZNK6dealii24TensorProductPolynomialsILi2EE1nEv(%"class.dealii::TensorProductPolynomials"* %legendre)
          to label %invoke.cont55 unwind label %lpad54, !dbg !9649

invoke.cont55:                                    ; preds = %invoke.cont52
  invoke void @_ZN6dealii5TableILi2EdE6reinitEjj(%"class.dealii::Table"* %boundary_weights, i32 %42, i32 %call56)
          to label %invoke.cont57 unwind label %lpad54, !dbg !9650

invoke.cont57:                                    ; preds = %invoke.cont55
  call void @llvm.dbg.declare(metadata i32* %k, metadata !9651, metadata !DIExpression()), !dbg !9653
  store i32 0, i32* %k, align 4, !dbg !9653
  br label %for.cond58, !dbg !9654

for.cond58:                                       ; preds = %for.inc86, %invoke.cont57
  %43 = load i32, i32* %k, align 4, !dbg !9655
  %44 = load i32, i32* %n_face_points, align 4, !dbg !9657
  %cmp59 = icmp ult i32 %43, %44, !dbg !9658
  br i1 %cmp59, label %for.body60, label %for.end88, !dbg !9659

for.body60:                                       ; preds = %for.cond58
  %45 = bitcast %"class.dealii::QGauss.133"* %face_points to %"class.dealii::Quadrature.134"*, !dbg !9660
  %46 = load i32, i32* %k, align 4, !dbg !9662
  %call62 = invoke dereferenceable(16) %"class.dealii::Point.34"* @_ZNK6dealii10QuadratureILi2EE5pointEj(%"class.dealii::Quadrature.134"* %45, i32 %46)
          to label %invoke.cont61 unwind label %lpad54, !dbg !9663

invoke.cont61:                                    ; preds = %for.body60
  %47 = bitcast %"class.dealii::FE_ABF"* %this1 to %"class.dealii::FiniteElement"*, !dbg !9664
  %generalized_face_support_points63 = getelementptr inbounds %"class.dealii::FiniteElement", %"class.dealii::FiniteElement"* %47, i32 0, i32 9, !dbg !9664
  %48 = load i32, i32* %k, align 4, !dbg !9665
  %conv64 = zext i32 %48 to i64, !dbg !9665
  %call65 = call dereferenceable(16) %"class.dealii::Point.34"* @_ZNSt6vectorIN6dealii5PointILi2EEESaIS2_EEixEm(%"class.std::vector.29"* %generalized_face_support_points63, i64 %conv64) #4, !dbg !9666
  %call67 = invoke dereferenceable(16) %"class.dealii::Point.34"* @_ZN6dealii5PointILi2EEaSERKS1_(%"class.dealii::Point.34"* %call65, %"class.dealii::Point.34"* dereferenceable(16) %call62)
          to label %invoke.cont66 unwind label %lpad54, !dbg !9667

invoke.cont66:                                    ; preds = %invoke.cont61
  call void @llvm.dbg.declare(metadata i32* %i, metadata !9668, metadata !DIExpression()), !dbg !9670
  store i32 0, i32* %i, align 4, !dbg !9670
  br label %for.cond68, !dbg !9671

for.cond68:                                       ; preds = %for.inc83, %invoke.cont66
  %49 = load i32, i32* %i, align 4, !dbg !9672
  %call70 = invoke i32 @_ZNK6dealii24TensorProductPolynomialsILi2EE1nEv(%"class.dealii::TensorProductPolynomials"* %legendre)
          to label %invoke.cont69 unwind label %lpad54, !dbg !9674

invoke.cont69:                                    ; preds = %for.cond68
  %cmp71 = icmp ult i32 %49, %call70, !dbg !9675
  br i1 %cmp71, label %for.body72, label %for.end85, !dbg !9676

for.body72:                                       ; preds = %invoke.cont69
  %50 = bitcast %"class.dealii::QGauss.133"* %face_points to %"class.dealii::Quadrature.134"*, !dbg !9677
  %51 = load i32, i32* %k, align 4, !dbg !9679
  %call74 = invoke double @_ZNK6dealii10QuadratureILi2EE6weightEj(%"class.dealii::Quadrature.134"* %50, i32 %51)
          to label %invoke.cont73 unwind label %lpad54, !dbg !9680

invoke.cont73:                                    ; preds = %for.body72
  %52 = load i32, i32* %i, align 4, !dbg !9681
  %53 = bitcast %"class.dealii::QGauss.133"* %face_points to %"class.dealii::Quadrature.134"*, !dbg !9682
  %54 = load i32, i32* %k, align 4, !dbg !9683
  %call76 = invoke dereferenceable(16) %"class.dealii::Point.34"* @_ZNK6dealii10QuadratureILi2EE5pointEj(%"class.dealii::Quadrature.134"* %53, i32 %54)
          to label %invoke.cont75 unwind label %lpad54, !dbg !9684

invoke.cont75:                                    ; preds = %invoke.cont73
  %call78 = invoke double @_ZNK6dealii24TensorProductPolynomialsILi2EE13compute_valueEjRKNS_5PointILi2EEE(%"class.dealii::TensorProductPolynomials"* %legendre, i32 %52, %"class.dealii::Point.34"* dereferenceable(16) %call76)
          to label %invoke.cont77 unwind label %lpad54, !dbg !9685

invoke.cont77:                                    ; preds = %invoke.cont75
  %mul79 = fmul double %call74, %call78, !dbg !9686
  %boundary_weights80 = getelementptr inbounds %"class.dealii::FE_ABF", %"class.dealii::FE_ABF"* %this1, i32 0, i32 3, !dbg !9687
  %55 = load i32, i32* %k, align 4, !dbg !9688
  %56 = load i32, i32* %i, align 4, !dbg !9689
  %call82 = invoke dereferenceable(8) double* @_ZN6dealii5TableILi2EdEclEjj(%"class.dealii::Table"* %boundary_weights80, i32 %55, i32 %56)
          to label %invoke.cont81 unwind label %lpad54, !dbg !9687

invoke.cont81:                                    ; preds = %invoke.cont77
  store double %mul79, double* %call82, align 8, !dbg !9690
  br label %for.inc83, !dbg !9691

for.inc83:                                        ; preds = %invoke.cont81
  %57 = load i32, i32* %i, align 4, !dbg !9692
  %inc84 = add i32 %57, 1, !dbg !9692
  store i32 %inc84, i32* %i, align 4, !dbg !9692
  br label %for.cond68, !dbg !9693, !llvm.loop !9694

lpad46:                                           ; preds = %invoke.cont304, %for.body303, %invoke.cont297, %invoke.cont295, %invoke.cont294, %invoke.cont292, %for.body285, %for.cond279, %for.cond273, %invoke.cont270, %invoke.cont269, %invoke.cont266, %invoke.cont263, %for.end261, %invoke.cont251, %for.body250, %for.cond246, %for.end44
  %58 = landingpad { i8*, i32 }
          cleanup, !dbg !9696
  %59 = extractvalue { i8*, i32 } %58, 0, !dbg !9696
  store i8* %59, i8** %exn.slot, align 8, !dbg !9696
  %60 = extractvalue { i8*, i32 } %58, 1, !dbg !9696
  store i32 %60, i32* %ehselector.slot, align 4, !dbg !9696
  br label %ehcleanup330, !dbg !9696

lpad49:                                           ; preds = %invoke.cont47
  %61 = landingpad { i8*, i32 }
          cleanup, !dbg !9696
  %62 = extractvalue { i8*, i32 } %61, 0, !dbg !9696
  store i8* %62, i8** %exn.slot, align 8, !dbg !9696
  %63 = extractvalue { i8*, i32 } %61, 1, !dbg !9696
  store i32 %63, i32* %ehselector.slot, align 4, !dbg !9696
  br label %ehcleanup146, !dbg !9696

lpad51:                                           ; preds = %invoke.cont50
  %64 = landingpad { i8*, i32 }
          cleanup, !dbg !9696
  %65 = extractvalue { i8*, i32 } %64, 0, !dbg !9696
  store i8* %65, i8** %exn.slot, align 8, !dbg !9696
  %66 = extractvalue { i8*, i32 } %64, 1, !dbg !9696
  store i32 %66, i32* %ehselector.slot, align 4, !dbg !9696
  call void @_ZNSt6vectorIN6dealii11Polynomials10PolynomialIdEESaIS3_EED2Ev(%"class.std::vector.77"* %ref.tmp48) #4, !dbg !9644
  br label %ehcleanup146, !dbg !9644

lpad54:                                           ; preds = %for.end88, %invoke.cont77, %invoke.cont75, %invoke.cont73, %for.body72, %for.cond68, %invoke.cont61, %for.body60, %invoke.cont55, %invoke.cont52
  %67 = landingpad { i8*, i32 }
          cleanup, !dbg !9696
  %68 = extractvalue { i8*, i32 } %67, 0, !dbg !9696
  store i8* %68, i8** %exn.slot, align 8, !dbg !9696
  %69 = extractvalue { i8*, i32 } %67, 1, !dbg !9696
  store i32 %69, i32* %ehselector.slot, align 4, !dbg !9696
  br label %ehcleanup145, !dbg !9696

for.end85:                                        ; preds = %invoke.cont69
  br label %for.inc86, !dbg !9697

for.inc86:                                        ; preds = %for.end85
  %70 = load i32, i32* %k, align 4, !dbg !9698
  %inc87 = add i32 %70, 1, !dbg !9698
  store i32 %inc87, i32* %k, align 4, !dbg !9698
  br label %for.cond58, !dbg !9699, !llvm.loop !9700

for.end88:                                        ; preds = %for.cond58
  call void @llvm.dbg.declare(metadata %"class.dealii::Quadrature"* %faces, metadata !9702, metadata !DIExpression()), !dbg !9703
  %71 = bitcast %"class.dealii::QGauss.133"* %face_points to %"class.dealii::Quadrature.134"*, !dbg !9704
  invoke void @_ZN6dealii10QProjectorILi3EE20project_to_all_facesERKNS_10QuadratureILi2EEE(%"class.dealii::Quadrature"* sret %faces, %"class.dealii::Quadrature.134"* dereferenceable(128) %71)
          to label %invoke.cont89 unwind label %lpad54, !dbg !9705

invoke.cont89:                                    ; preds = %for.end88
  br label %for.cond90, !dbg !9706

for.cond90:                                       ; preds = %for.inc102, %invoke.cont89
  %72 = load i32, i32* %current, align 4, !dbg !9707
  %73 = load i32, i32* %n_face_points, align 4, !dbg !9710
  %mul91 = mul i32 6, %73, !dbg !9711
  %cmp92 = icmp ult i32 %72, %mul91, !dbg !9712
  br i1 %cmp92, label %for.body93, label %for.end104, !dbg !9713

for.body93:                                       ; preds = %for.cond90
  %74 = load i32, i32* %current, align 4, !dbg !9714
  %call96 = invoke dereferenceable(24) %"class.dealii::Point"* @_ZNK6dealii10QuadratureILi3EE5pointEj(%"class.dealii::Quadrature"* %faces, i32 %74)
          to label %invoke.cont95 unwind label %lpad94, !dbg !9716

invoke.cont95:                                    ; preds = %for.body93
  %75 = bitcast %"class.dealii::FE_ABF"* %this1 to %"class.dealii::FiniteElement"*, !dbg !9717
  %generalized_support_points97 = getelementptr inbounds %"class.dealii::FiniteElement", %"class.dealii::FiniteElement"* %75, i32 0, i32 8, !dbg !9717
  %76 = load i32, i32* %current, align 4, !dbg !9718
  %conv98 = zext i32 %76 to i64, !dbg !9718
  %call99 = call dereferenceable(24) %"class.dealii::Point"* @_ZNSt6vectorIN6dealii5PointILi3EEESaIS2_EEixEm(%"class.std::vector.24"* %generalized_support_points97, i64 %conv98) #4, !dbg !9719
  %call101 = invoke dereferenceable(24) %"class.dealii::Point"* @_ZN6dealii5PointILi3EEaSERKS1_(%"class.dealii::Point"* %call99, %"class.dealii::Point"* dereferenceable(24) %call96)
          to label %invoke.cont100 unwind label %lpad94, !dbg !9720

invoke.cont100:                                   ; preds = %invoke.cont95
  br label %for.inc102, !dbg !9721

for.inc102:                                       ; preds = %invoke.cont100
  %77 = load i32, i32* %current, align 4, !dbg !9722
  %inc103 = add i32 %77, 1, !dbg !9722
  store i32 %inc103, i32* %current, align 4, !dbg !9722
  br label %for.cond90, !dbg !9723, !llvm.loop !9724

lpad94:                                           ; preds = %invoke.cont132, %invoke.cont130, %invoke.cont128, %for.body125, %for.cond119, %for.cond113, %invoke.cont108, %invoke.cont105, %for.end104, %invoke.cont95, %for.body93
  %78 = landingpad { i8*, i32 }
          cleanup, !dbg !9726
  %79 = extractvalue { i8*, i32 } %78, 0, !dbg !9726
  store i8* %79, i8** %exn.slot, align 8, !dbg !9726
  %80 = extractvalue { i8*, i32 } %78, 1, !dbg !9726
  store i32 %80, i32* %ehselector.slot, align 4, !dbg !9726
  call void @_ZN6dealii10QuadratureILi3EED1Ev(%"class.dealii::Quadrature"* %faces) #4, !dbg !9727
  br label %ehcleanup145, !dbg !9727

for.end104:                                       ; preds = %for.cond90
  %boundary_weights_abf = getelementptr inbounds %"class.dealii::FE_ABF", %"class.dealii::FE_ABF"* %this1, i32 0, i32 5, !dbg !9728
  %call106 = invoke i32 @_ZNK6dealii10QuadratureILi3EE4sizeEv(%"class.dealii::Quadrature"* %faces)
          to label %invoke.cont105 unwind label %lpad94, !dbg !9729

invoke.cont105:                                   ; preds = %for.end104
  %call107 = call dereferenceable(8) %"class.dealii::AnisotropicPolynomials"** @_ZNSt6vectorIPN6dealii22AnisotropicPolynomialsILi3EEESaIS3_EEixEm(%"class.std::vector.128"* %polynomials_abf, i64 0) #4, !dbg !9730
  %81 = load %"class.dealii::AnisotropicPolynomials"*, %"class.dealii::AnisotropicPolynomials"** %call107, align 8, !dbg !9730
  %call109 = invoke i32 @_ZNK6dealii22AnisotropicPolynomialsILi3EE1nEv(%"class.dealii::AnisotropicPolynomials"* %81)
          to label %invoke.cont108 unwind label %lpad94, !dbg !9731

invoke.cont108:                                   ; preds = %invoke.cont105
  %mul110 = mul i32 %call109, 3, !dbg !9732
  invoke void @_ZN6dealii5TableILi2EdE6reinitEjj(%"class.dealii::Table"* %boundary_weights_abf, i32 %call106, i32 %mul110)
          to label %invoke.cont111 unwind label %lpad94, !dbg !9733

invoke.cont111:                                   ; preds = %invoke.cont108
  call void @llvm.dbg.declare(metadata i32* %k112, metadata !9734, metadata !DIExpression()), !dbg !9736
  store i32 0, i32* %k112, align 4, !dbg !9736
  br label %for.cond113, !dbg !9737

for.cond113:                                      ; preds = %for.inc141, %invoke.cont111
  %82 = load i32, i32* %k112, align 4, !dbg !9738
  %call115 = invoke i32 @_ZNK6dealii10QuadratureILi3EE4sizeEv(%"class.dealii::Quadrature"* %faces)
          to label %invoke.cont114 unwind label %lpad94, !dbg !9740

invoke.cont114:                                   ; preds = %for.cond113
  %cmp116 = icmp ult i32 %82, %call115, !dbg !9741
  br i1 %cmp116, label %for.body117, label %for.end143, !dbg !9742

for.body117:                                      ; preds = %invoke.cont114
  call void @llvm.dbg.declare(metadata i32* %i118, metadata !9743, metadata !DIExpression()), !dbg !9746
  store i32 0, i32* %i118, align 4, !dbg !9746
  br label %for.cond119, !dbg !9747

for.cond119:                                      ; preds = %for.inc138, %for.body117
  %83 = load i32, i32* %i118, align 4, !dbg !9748
  %call120 = call dereferenceable(8) %"class.dealii::AnisotropicPolynomials"** @_ZNSt6vectorIPN6dealii22AnisotropicPolynomialsILi3EEESaIS3_EEixEm(%"class.std::vector.128"* %polynomials_abf, i64 0) #4, !dbg !9750
  %84 = load %"class.dealii::AnisotropicPolynomials"*, %"class.dealii::AnisotropicPolynomials"** %call120, align 8, !dbg !9750
  %call122 = invoke i32 @_ZNK6dealii22AnisotropicPolynomialsILi3EE1nEv(%"class.dealii::AnisotropicPolynomials"* %84)
          to label %invoke.cont121 unwind label %lpad94, !dbg !9751

invoke.cont121:                                   ; preds = %for.cond119
  %mul123 = mul i32 %call122, 3, !dbg !9752
  %cmp124 = icmp ult i32 %83, %mul123, !dbg !9753
  br i1 %cmp124, label %for.body125, label %for.end140, !dbg !9754

for.body125:                                      ; preds = %invoke.cont121
  %85 = load i32, i32* %i118, align 4, !dbg !9755
  %rem = urem i32 %85, 3, !dbg !9757
  %conv126 = zext i32 %rem to i64, !dbg !9755
  %call127 = call dereferenceable(8) %"class.dealii::AnisotropicPolynomials"** @_ZNSt6vectorIPN6dealii22AnisotropicPolynomialsILi3EEESaIS3_EEixEm(%"class.std::vector.128"* %polynomials_abf, i64 %conv126) #4, !dbg !9758
  %86 = load %"class.dealii::AnisotropicPolynomials"*, %"class.dealii::AnisotropicPolynomials"** %call127, align 8, !dbg !9758
  %87 = load i32, i32* %i118, align 4, !dbg !9759
  %div = udiv i32 %87, 3, !dbg !9760
  %88 = load i32, i32* %k112, align 4, !dbg !9761
  %call129 = invoke dereferenceable(24) %"class.dealii::Point"* @_ZNK6dealii10QuadratureILi3EE5pointEj(%"class.dealii::Quadrature"* %faces, i32 %88)
          to label %invoke.cont128 unwind label %lpad94, !dbg !9762

invoke.cont128:                                   ; preds = %for.body125
  %call131 = invoke double @_ZNK6dealii22AnisotropicPolynomialsILi3EE13compute_valueEjRKNS_5PointILi3EEE(%"class.dealii::AnisotropicPolynomials"* %86, i32 %div, %"class.dealii::Point"* dereferenceable(24) %call129)
          to label %invoke.cont130 unwind label %lpad94, !dbg !9763

invoke.cont130:                                   ; preds = %invoke.cont128
  %89 = load i32, i32* %k112, align 4, !dbg !9764
  %call133 = invoke double @_ZNK6dealii10QuadratureILi3EE6weightEj(%"class.dealii::Quadrature"* %faces, i32 %89)
          to label %invoke.cont132 unwind label %lpad94, !dbg !9765

invoke.cont132:                                   ; preds = %invoke.cont130
  %mul134 = fmul double %call131, %call133, !dbg !9766
  %boundary_weights_abf135 = getelementptr inbounds %"class.dealii::FE_ABF", %"class.dealii::FE_ABF"* %this1, i32 0, i32 5, !dbg !9767
  %90 = load i32, i32* %k112, align 4, !dbg !9768
  %91 = load i32, i32* %i118, align 4, !dbg !9769
  %call137 = invoke dereferenceable(8) double* @_ZN6dealii5TableILi2EdEclEjj(%"class.dealii::Table"* %boundary_weights_abf135, i32 %90, i32 %91)
          to label %invoke.cont136 unwind label %lpad94, !dbg !9767

invoke.cont136:                                   ; preds = %invoke.cont132
  store double %mul134, double* %call137, align 8, !dbg !9770
  br label %for.inc138, !dbg !9771

for.inc138:                                       ; preds = %invoke.cont136
  %92 = load i32, i32* %i118, align 4, !dbg !9772
  %inc139 = add i32 %92, 1, !dbg !9772
  store i32 %inc139, i32* %i118, align 4, !dbg !9772
  br label %for.cond119, !dbg !9773, !llvm.loop !9774

for.end140:                                       ; preds = %invoke.cont121
  br label %for.inc141, !dbg !9776

for.inc141:                                       ; preds = %for.end140
  %93 = load i32, i32* %k112, align 4, !dbg !9777
  %inc142 = add i32 %93, 1, !dbg !9777
  store i32 %inc142, i32* %k112, align 4, !dbg !9777
  br label %for.cond113, !dbg !9778, !llvm.loop !9779

for.end143:                                       ; preds = %invoke.cont114
  call void @_ZN6dealii10QuadratureILi3EED1Ev(%"class.dealii::Quadrature"* %faces) #4, !dbg !9727
  call void @_ZN6dealii24TensorProductPolynomialsILi2EED2Ev(%"class.dealii::TensorProductPolynomials"* %legendre) #4, !dbg !9727
  call void @_ZN6dealii6QGaussILi2EED2Ev(%"class.dealii::QGauss.133"* %face_points) #4, !dbg !9727
  %94 = load i32, i32* %deg.addr, align 4, !dbg !9781
  %cmp147 = icmp ugt i32 %94, 0, !dbg !9783
  br i1 %cmp147, label %if.then, label %if.end, !dbg !9784

if.then:                                          ; preds = %for.end143
  call void @llvm.dbg.declare(metadata %"class.std::vector.128"* %polynomials, metadata !9785, metadata !DIExpression()), !dbg !9787
  call void @_ZNSaIPN6dealii22AnisotropicPolynomialsILi3EEEEC2Ev(%"class.std::allocator.130"* %ref.tmp148) #4, !dbg !9787
  invoke void @_ZNSt6vectorIPN6dealii22AnisotropicPolynomialsILi3EEESaIS3_EEC2EmRKS4_(%"class.std::vector.128"* %polynomials, i64 3, %"class.std::allocator.130"* dereferenceable(1) %ref.tmp148)
          to label %invoke.cont150 unwind label %lpad149, !dbg !9787

invoke.cont150:                                   ; preds = %if.then
  call void @_ZNSaIPN6dealii22AnisotropicPolynomialsILi3EEEED2Ev(%"class.std::allocator.130"* %ref.tmp148) #4, !dbg !9787
  call void @llvm.dbg.declare(metadata i32* %dd152, metadata !9788, metadata !DIExpression()), !dbg !9790
  store i32 0, i32* %dd152, align 4, !dbg !9790
  br label %for.cond153, !dbg !9791

for.cond153:                                      ; preds = %for.inc187, %invoke.cont150
  %95 = load i32, i32* %dd152, align 4, !dbg !9792
  %cmp154 = icmp ult i32 %95, 3, !dbg !9794
  br i1 %cmp154, label %for.body155, label %for.end189, !dbg !9795

for.body155:                                      ; preds = %for.cond153
  call void @llvm.dbg.declare(metadata %"class.std::vector.72"* %poly156, metadata !9796, metadata !DIExpression()), !dbg !9798
  call void @_ZNSaISt6vectorIN6dealii11Polynomials10PolynomialIdEESaIS3_EEEC2Ev(%"class.std::allocator.74"* %ref.tmp157) #4, !dbg !9798
  invoke void @_ZNSt6vectorIS_IN6dealii11Polynomials10PolynomialIdEESaIS3_EESaIS5_EEC2EmRKS6_(%"class.std::vector.72"* %poly156, i64 3, %"class.std::allocator.74"* dereferenceable(1) %ref.tmp157)
          to label %invoke.cont159 unwind label %lpad158, !dbg !9798

invoke.cont159:                                   ; preds = %for.body155
  call void @_ZNSaISt6vectorIN6dealii11Polynomials10PolynomialIdEESaIS3_EEED2Ev(%"class.std::allocator.74"* %ref.tmp157) #4, !dbg !9798
  call void @llvm.dbg.declare(metadata i32* %d161, metadata !9799, metadata !DIExpression()), !dbg !9801
  store i32 0, i32* %d161, align 4, !dbg !9801
  br label %for.cond162, !dbg !9802

for.cond162:                                      ; preds = %for.inc171, %invoke.cont159
  %96 = load i32, i32* %d161, align 4, !dbg !9803
  %cmp163 = icmp ult i32 %96, 3, !dbg !9805
  br i1 %cmp163, label %for.body164, label %for.end173, !dbg !9806

for.body164:                                      ; preds = %for.cond162
  %97 = load i32, i32* %deg.addr, align 4, !dbg !9807
  invoke void @_ZN6dealii11Polynomials8Legendre23generate_complete_basisEj(%"class.std::vector.77"* sret %ref.tmp165, i32 %97)
          to label %invoke.cont167 unwind label %lpad166, !dbg !9808

invoke.cont167:                                   ; preds = %for.body164
  %98 = load i32, i32* %d161, align 4, !dbg !9809
  %conv168 = zext i32 %98 to i64, !dbg !9809
  %call169 = call dereferenceable(24) %"class.std::vector.77"* @_ZNSt6vectorIS_IN6dealii11Polynomials10PolynomialIdEESaIS3_EESaIS5_EEixEm(%"class.std::vector.72"* %poly156, i64 %conv168) #4, !dbg !9810
  %call170 = call dereferenceable(24) %"class.std::vector.77"* @_ZNSt6vectorIN6dealii11Polynomials10PolynomialIdEESaIS3_EEaSEOS5_(%"class.std::vector.77"* %call169, %"class.std::vector.77"* dereferenceable(24) %ref.tmp165) #4, !dbg !9811
  call void @_ZNSt6vectorIN6dealii11Polynomials10PolynomialIdEESaIS3_EED2Ev(%"class.std::vector.77"* %ref.tmp165) #4, !dbg !9810
  br label %for.inc171, !dbg !9810

for.inc171:                                       ; preds = %invoke.cont167
  %99 = load i32, i32* %d161, align 4, !dbg !9812
  %inc172 = add i32 %99, 1, !dbg !9812
  store i32 %inc172, i32* %d161, align 4, !dbg !9812
  br label %for.cond162, !dbg !9813, !llvm.loop !9814

ehcleanup145:                                     ; preds = %lpad94, %lpad54
  call void @_ZN6dealii24TensorProductPolynomialsILi2EED2Ev(%"class.dealii::TensorProductPolynomials"* %legendre) #4, !dbg !9727
  br label %ehcleanup146, !dbg !9727

ehcleanup146:                                     ; preds = %ehcleanup145, %lpad51, %lpad49
  call void @_ZN6dealii6QGaussILi2EED2Ev(%"class.dealii::QGauss.133"* %face_points) #4, !dbg !9727
  br label %ehcleanup330, !dbg !9727

lpad149:                                          ; preds = %if.then
  %100 = landingpad { i8*, i32 }
          cleanup, !dbg !9816
  %101 = extractvalue { i8*, i32 } %100, 0, !dbg !9816
  store i8* %101, i8** %exn.slot, align 8, !dbg !9816
  %102 = extractvalue { i8*, i32 } %100, 1, !dbg !9816
  store i32 %102, i32* %ehselector.slot, align 4, !dbg !9816
  call void @_ZNSaIPN6dealii22AnisotropicPolynomialsILi3EEEED2Ev(%"class.std::allocator.130"* %ref.tmp148) #4, !dbg !9787
  br label %ehcleanup330, !dbg !9787

lpad158:                                          ; preds = %for.body155
  %103 = landingpad { i8*, i32 }
          cleanup, !dbg !9817
  %104 = extractvalue { i8*, i32 } %103, 0, !dbg !9817
  store i8* %104, i8** %exn.slot, align 8, !dbg !9817
  %105 = extractvalue { i8*, i32 } %103, 1, !dbg !9817
  store i32 %105, i32* %ehselector.slot, align 4, !dbg !9817
  call void @_ZNSaISt6vectorIN6dealii11Polynomials10PolynomialIdEESaIS3_EEED2Ev(%"class.std::allocator.74"* %ref.tmp157) #4, !dbg !9798
  br label %ehcleanup244, !dbg !9798

lpad166:                                          ; preds = %invoke.cont175, %for.end173, %for.body164
  %106 = landingpad { i8*, i32 }
          cleanup, !dbg !9818
  %107 = extractvalue { i8*, i32 } %106, 0, !dbg !9818
  store i8* %107, i8** %exn.slot, align 8, !dbg !9818
  %108 = extractvalue { i8*, i32 } %106, 1, !dbg !9818
  store i32 %108, i32* %ehselector.slot, align 4, !dbg !9818
  br label %ehcleanup186, !dbg !9818

for.end173:                                       ; preds = %for.cond162
  %109 = load i32, i32* %deg.addr, align 4, !dbg !9819
  %sub = sub i32 %109, 1, !dbg !9820
  invoke void @_ZN6dealii11Polynomials8Legendre23generate_complete_basisEj(%"class.std::vector.77"* sret %ref.tmp174, i32 %sub)
          to label %invoke.cont175 unwind label %lpad166, !dbg !9821

invoke.cont175:                                   ; preds = %for.end173
  %110 = load i32, i32* %dd152, align 4, !dbg !9822
  %conv176 = zext i32 %110 to i64, !dbg !9822
  %call177 = call dereferenceable(24) %"class.std::vector.77"* @_ZNSt6vectorIS_IN6dealii11Polynomials10PolynomialIdEESaIS3_EESaIS5_EEixEm(%"class.std::vector.72"* %poly156, i64 %conv176) #4, !dbg !9823
  %call178 = call dereferenceable(24) %"class.std::vector.77"* @_ZNSt6vectorIN6dealii11Polynomials10PolynomialIdEESaIS3_EEaSEOS5_(%"class.std::vector.77"* %call177, %"class.std::vector.77"* dereferenceable(24) %ref.tmp174) #4, !dbg !9824
  call void @_ZNSt6vectorIN6dealii11Polynomials10PolynomialIdEESaIS3_EED2Ev(%"class.std::vector.77"* %ref.tmp174) #4, !dbg !9823
  %call180 = invoke i8* @_Znwm(i64 32) #13
          to label %invoke.cont179 unwind label %lpad166, !dbg !9825

invoke.cont179:                                   ; preds = %invoke.cont175
  %111 = bitcast i8* %call180 to %"class.dealii::AnisotropicPolynomials"*, !dbg !9825
  invoke void @_ZN6dealii22AnisotropicPolynomialsILi3EEC1ERKSt6vectorIS2_INS_11Polynomials10PolynomialIdEESaIS5_EESaIS7_EE(%"class.dealii::AnisotropicPolynomials"* %111, %"class.std::vector.72"* dereferenceable(24) %poly156)
          to label %invoke.cont182 unwind label %lpad181, !dbg !9826

invoke.cont182:                                   ; preds = %invoke.cont179
  %112 = load i32, i32* %dd152, align 4, !dbg !9827
  %conv184 = zext i32 %112 to i64, !dbg !9827
  %call185 = call dereferenceable(8) %"class.dealii::AnisotropicPolynomials"** @_ZNSt6vectorIPN6dealii22AnisotropicPolynomialsILi3EEESaIS3_EEixEm(%"class.std::vector.128"* %polynomials, i64 %conv184) #4, !dbg !9828
  store %"class.dealii::AnisotropicPolynomials"* %111, %"class.dealii::AnisotropicPolynomials"** %call185, align 8, !dbg !9829
  call void @_ZNSt6vectorIS_IN6dealii11Polynomials10PolynomialIdEESaIS3_EESaIS5_EED2Ev(%"class.std::vector.72"* %poly156) #4, !dbg !9830
  br label %for.inc187, !dbg !9831

for.inc187:                                       ; preds = %invoke.cont182
  %113 = load i32, i32* %dd152, align 4, !dbg !9832
  %inc188 = add i32 %113, 1, !dbg !9832
  store i32 %inc188, i32* %dd152, align 4, !dbg !9832
  br label %for.cond153, !dbg !9833, !llvm.loop !9834

lpad181:                                          ; preds = %invoke.cont179
  %114 = landingpad { i8*, i32 }
          cleanup, !dbg !9817
  %115 = extractvalue { i8*, i32 } %114, 0, !dbg !9817
  store i8* %115, i8** %exn.slot, align 8, !dbg !9817
  %116 = extractvalue { i8*, i32 } %114, 1, !dbg !9817
  store i32 %116, i32* %ehselector.slot, align 4, !dbg !9817
  call void @_ZdlPv(i8* %call180) #14, !dbg !9825
  br label %ehcleanup186, !dbg !9825

ehcleanup186:                                     ; preds = %lpad181, %lpad166
  call void @_ZNSt6vectorIS_IN6dealii11Polynomials10PolynomialIdEESaIS3_EESaIS5_EED2Ev(%"class.std::vector.72"* %poly156) #4, !dbg !9830
  br label %ehcleanup244, !dbg !9830

for.end189:                                       ; preds = %for.cond153
  %interior_weights = getelementptr inbounds %"class.dealii::FE_ABF", %"class.dealii::FE_ABF"* %this1, i32 0, i32 4, !dbg !9836
  %117 = bitcast %"class.dealii::Table.104"* %interior_weights to %"class.dealii::TableBase.105"*, !dbg !9836
  %118 = load i32, i32* %n_interior_points, align 4, !dbg !9837
  %call191 = call dereferenceable(8) %"class.dealii::AnisotropicPolynomials"** @_ZNSt6vectorIPN6dealii22AnisotropicPolynomialsILi3EEESaIS3_EEixEm(%"class.std::vector.128"* %polynomials, i64 0) #4, !dbg !9838
  %119 = load %"class.dealii::AnisotropicPolynomials"*, %"class.dealii::AnisotropicPolynomials"** %call191, align 8, !dbg !9838
  %call194 = invoke i32 @_ZNK6dealii22AnisotropicPolynomialsILi3EE1nEv(%"class.dealii::AnisotropicPolynomials"* %119)
          to label %invoke.cont193 unwind label %lpad192, !dbg !9839

invoke.cont193:                                   ; preds = %for.end189
  invoke void @_ZN6dealii12TableIndicesILi3EEC2Ejjj(%"class.dealii::TableIndices.106"* %ref.tmp190, i32 %118, i32 %call194, i32 3)
          to label %invoke.cont195 unwind label %lpad192, !dbg !9840

invoke.cont195:                                   ; preds = %invoke.cont193
  invoke void @_ZN6dealii9TableBaseILi3EdE6reinitERKNS_12TableIndicesILi3EEE(%"class.dealii::TableBase.105"* %117, %"class.dealii::TableIndices.106"* dereferenceable(12) %ref.tmp190)
          to label %invoke.cont196 unwind label %lpad192, !dbg !9841

invoke.cont196:                                   ; preds = %invoke.cont195
  call void @llvm.dbg.declare(metadata i32* %k197, metadata !9842, metadata !DIExpression()), !dbg !9844
  store i32 0, i32* %k197, align 4, !dbg !9844
  br label %for.cond198, !dbg !9845

for.cond198:                                      ; preds = %for.inc232, %invoke.cont196
  %120 = load i32, i32* %k197, align 4, !dbg !9846
  %121 = bitcast %"class.dealii::QGauss"* %cell_quadrature to %"class.dealii::Quadrature"*, !dbg !9848
  %call200 = invoke i32 @_ZNK6dealii10QuadratureILi3EE4sizeEv(%"class.dealii::Quadrature"* %121)
          to label %invoke.cont199 unwind label %lpad192, !dbg !9849

invoke.cont199:                                   ; preds = %for.cond198
  %cmp201 = icmp ult i32 %120, %call200, !dbg !9850
  br i1 %cmp201, label %for.body202, label %for.end234, !dbg !9851

for.body202:                                      ; preds = %invoke.cont199
  call void @llvm.dbg.declare(metadata i32* %i203, metadata !9852, metadata !DIExpression()), !dbg !9855
  store i32 0, i32* %i203, align 4, !dbg !9855
  br label %for.cond204, !dbg !9856

for.cond204:                                      ; preds = %for.inc229, %for.body202
  %122 = load i32, i32* %i203, align 4, !dbg !9857
  %call205 = call dereferenceable(8) %"class.dealii::AnisotropicPolynomials"** @_ZNSt6vectorIPN6dealii22AnisotropicPolynomialsILi3EEESaIS3_EEixEm(%"class.std::vector.128"* %polynomials, i64 0) #4, !dbg !9859
  %123 = load %"class.dealii::AnisotropicPolynomials"*, %"class.dealii::AnisotropicPolynomials"** %call205, align 8, !dbg !9859
  %call207 = invoke i32 @_ZNK6dealii22AnisotropicPolynomialsILi3EE1nEv(%"class.dealii::AnisotropicPolynomials"* %123)
          to label %invoke.cont206 unwind label %lpad192, !dbg !9860

invoke.cont206:                                   ; preds = %for.cond204
  %cmp208 = icmp ult i32 %122, %call207, !dbg !9861
  br i1 %cmp208, label %for.body209, label %for.end231, !dbg !9862

for.body209:                                      ; preds = %invoke.cont206
  call void @llvm.dbg.declare(metadata i32* %d210, metadata !9863, metadata !DIExpression()), !dbg !9865
  store i32 0, i32* %d210, align 4, !dbg !9865
  br label %for.cond211, !dbg !9866

for.cond211:                                      ; preds = %for.inc226, %for.body209
  %124 = load i32, i32* %d210, align 4, !dbg !9867
  %cmp212 = icmp ult i32 %124, 3, !dbg !9869
  br i1 %cmp212, label %for.body213, label %for.end228, !dbg !9870

for.body213:                                      ; preds = %for.cond211
  %125 = bitcast %"class.dealii::QGauss"* %cell_quadrature to %"class.dealii::Quadrature"*, !dbg !9871
  %126 = load i32, i32* %k197, align 4, !dbg !9872
  %call215 = invoke double @_ZNK6dealii10QuadratureILi3EE6weightEj(%"class.dealii::Quadrature"* %125, i32 %126)
          to label %invoke.cont214 unwind label %lpad192, !dbg !9873

invoke.cont214:                                   ; preds = %for.body213
  %127 = load i32, i32* %d210, align 4, !dbg !9874
  %conv216 = zext i32 %127 to i64, !dbg !9874
  %call217 = call dereferenceable(8) %"class.dealii::AnisotropicPolynomials"** @_ZNSt6vectorIPN6dealii22AnisotropicPolynomialsILi3EEESaIS3_EEixEm(%"class.std::vector.128"* %polynomials, i64 %conv216) #4, !dbg !9875
  %128 = load %"class.dealii::AnisotropicPolynomials"*, %"class.dealii::AnisotropicPolynomials"** %call217, align 8, !dbg !9875
  %129 = load i32, i32* %i203, align 4, !dbg !9876
  %130 = bitcast %"class.dealii::QGauss"* %cell_quadrature to %"class.dealii::Quadrature"*, !dbg !9877
  %131 = load i32, i32* %k197, align 4, !dbg !9878
  %call219 = invoke dereferenceable(24) %"class.dealii::Point"* @_ZNK6dealii10QuadratureILi3EE5pointEj(%"class.dealii::Quadrature"* %130, i32 %131)
          to label %invoke.cont218 unwind label %lpad192, !dbg !9879

invoke.cont218:                                   ; preds = %invoke.cont214
  %call221 = invoke double @_ZNK6dealii22AnisotropicPolynomialsILi3EE13compute_valueEjRKNS_5PointILi3EEE(%"class.dealii::AnisotropicPolynomials"* %128, i32 %129, %"class.dealii::Point"* dereferenceable(24) %call219)
          to label %invoke.cont220 unwind label %lpad192, !dbg !9880

invoke.cont220:                                   ; preds = %invoke.cont218
  %mul222 = fmul double %call215, %call221, !dbg !9881
  %interior_weights223 = getelementptr inbounds %"class.dealii::FE_ABF", %"class.dealii::FE_ABF"* %this1, i32 0, i32 4, !dbg !9882
  %132 = load i32, i32* %k197, align 4, !dbg !9883
  %133 = load i32, i32* %i203, align 4, !dbg !9884
  %134 = load i32, i32* %d210, align 4, !dbg !9885
  %call225 = invoke dereferenceable(8) double* @_ZN6dealii5TableILi3EdEclEjjj(%"class.dealii::Table.104"* %interior_weights223, i32 %132, i32 %133, i32 %134)
          to label %invoke.cont224 unwind label %lpad192, !dbg !9882

invoke.cont224:                                   ; preds = %invoke.cont220
  store double %mul222, double* %call225, align 8, !dbg !9886
  br label %for.inc226, !dbg !9882

for.inc226:                                       ; preds = %invoke.cont224
  %135 = load i32, i32* %d210, align 4, !dbg !9887
  %inc227 = add i32 %135, 1, !dbg !9887
  store i32 %inc227, i32* %d210, align 4, !dbg !9887
  br label %for.cond211, !dbg !9888, !llvm.loop !9889

lpad192:                                          ; preds = %invoke.cont220, %invoke.cont218, %invoke.cont214, %for.body213, %for.cond204, %for.cond198, %invoke.cont195, %invoke.cont193, %for.end189
  %136 = landingpad { i8*, i32 }
          cleanup, !dbg !9816
  %137 = extractvalue { i8*, i32 } %136, 0, !dbg !9816
  store i8* %137, i8** %exn.slot, align 8, !dbg !9816
  %138 = extractvalue { i8*, i32 } %136, 1, !dbg !9816
  store i32 %138, i32* %ehselector.slot, align 4, !dbg !9816
  br label %ehcleanup244, !dbg !9816

for.end228:                                       ; preds = %for.cond211
  br label %for.inc229, !dbg !9890

for.inc229:                                       ; preds = %for.end228
  %139 = load i32, i32* %i203, align 4, !dbg !9891
  %inc230 = add i32 %139, 1, !dbg !9891
  store i32 %inc230, i32* %i203, align 4, !dbg !9891
  br label %for.cond204, !dbg !9892, !llvm.loop !9893

for.end231:                                       ; preds = %invoke.cont206
  br label %for.inc232, !dbg !9895

for.inc232:                                       ; preds = %for.end231
  %140 = load i32, i32* %k197, align 4, !dbg !9896
  %inc233 = add i32 %140, 1, !dbg !9896
  store i32 %inc233, i32* %k197, align 4, !dbg !9896
  br label %for.cond198, !dbg !9897, !llvm.loop !9898

for.end234:                                       ; preds = %invoke.cont199
  call void @llvm.dbg.declare(metadata i32* %d235, metadata !9900, metadata !DIExpression()), !dbg !9902
  store i32 0, i32* %d235, align 4, !dbg !9902
  br label %for.cond236, !dbg !9903

for.cond236:                                      ; preds = %for.inc241, %for.end234
  %141 = load i32, i32* %d235, align 4, !dbg !9904
  %cmp237 = icmp ult i32 %141, 3, !dbg !9906
  br i1 %cmp237, label %for.body238, label %for.end243, !dbg !9907

for.body238:                                      ; preds = %for.cond236
  %142 = load i32, i32* %d235, align 4, !dbg !9908
  %conv239 = zext i32 %142 to i64, !dbg !9908
  %call240 = call dereferenceable(8) %"class.dealii::AnisotropicPolynomials"** @_ZNSt6vectorIPN6dealii22AnisotropicPolynomialsILi3EEESaIS3_EEixEm(%"class.std::vector.128"* %polynomials, i64 %conv239) #4, !dbg !9909
  %143 = load %"class.dealii::AnisotropicPolynomials"*, %"class.dealii::AnisotropicPolynomials"** %call240, align 8, !dbg !9909
  %isnull = icmp eq %"class.dealii::AnisotropicPolynomials"* %143, null, !dbg !9910
  br i1 %isnull, label %delete.end, label %delete.notnull, !dbg !9910

delete.notnull:                                   ; preds = %for.body238
  call void @_ZN6dealii22AnisotropicPolynomialsILi3EED2Ev(%"class.dealii::AnisotropicPolynomials"* %143) #4, !dbg !9910
  %144 = bitcast %"class.dealii::AnisotropicPolynomials"* %143 to i8*, !dbg !9910
  call void @_ZdlPv(i8* %144) #14, !dbg !9910
  br label %delete.end, !dbg !9910

delete.end:                                       ; preds = %delete.notnull, %for.body238
  br label %for.inc241, !dbg !9910

for.inc241:                                       ; preds = %delete.end
  %145 = load i32, i32* %d235, align 4, !dbg !9911
  %inc242 = add i32 %145, 1, !dbg !9911
  store i32 %inc242, i32* %d235, align 4, !dbg !9911
  br label %for.cond236, !dbg !9912, !llvm.loop !9913

for.end243:                                       ; preds = %for.cond236
  call void @_ZNSt6vectorIPN6dealii22AnisotropicPolynomialsILi3EEESaIS3_EED2Ev(%"class.std::vector.128"* %polynomials) #4, !dbg !9915
  br label %if.end, !dbg !9916

ehcleanup244:                                     ; preds = %lpad192, %ehcleanup186, %lpad158
  call void @_ZNSt6vectorIPN6dealii22AnisotropicPolynomialsILi3EEESaIS3_EED2Ev(%"class.std::vector.128"* %polynomials) #4, !dbg !9915
  br label %ehcleanup330, !dbg !9915

if.end:                                           ; preds = %for.end243, %for.end143
  call void @llvm.dbg.declare(metadata i32* %k245, metadata !9917, metadata !DIExpression()), !dbg !9919
  store i32 0, i32* %k245, align 4, !dbg !9919
  br label %for.cond246, !dbg !9920

for.cond246:                                      ; preds = %for.inc259, %if.end
  %146 = load i32, i32* %k245, align 4, !dbg !9921
  %147 = bitcast %"class.dealii::QGauss"* %cell_quadrature to %"class.dealii::Quadrature"*, !dbg !9923
  %call248 = invoke i32 @_ZNK6dealii10QuadratureILi3EE4sizeEv(%"class.dealii::Quadrature"* %147)
          to label %invoke.cont247 unwind label %lpad46, !dbg !9924

invoke.cont247:                                   ; preds = %for.cond246
  %cmp249 = icmp ult i32 %146, %call248, !dbg !9925
  br i1 %cmp249, label %for.body250, label %for.end261, !dbg !9926

for.body250:                                      ; preds = %invoke.cont247
  %148 = bitcast %"class.dealii::QGauss"* %cell_quadrature to %"class.dealii::Quadrature"*, !dbg !9927
  %149 = load i32, i32* %k245, align 4, !dbg !9928
  %call252 = invoke dereferenceable(24) %"class.dealii::Point"* @_ZNK6dealii10QuadratureILi3EE5pointEj(%"class.dealii::Quadrature"* %148, i32 %149)
          to label %invoke.cont251 unwind label %lpad46, !dbg !9929

invoke.cont251:                                   ; preds = %for.body250
  %150 = bitcast %"class.dealii::FE_ABF"* %this1 to %"class.dealii::FiniteElement"*, !dbg !9930
  %generalized_support_points253 = getelementptr inbounds %"class.dealii::FiniteElement", %"class.dealii::FiniteElement"* %150, i32 0, i32 8, !dbg !9930
  %151 = load i32, i32* %current, align 4, !dbg !9931
  %inc254 = add i32 %151, 1, !dbg !9931
  store i32 %inc254, i32* %current, align 4, !dbg !9931
  %conv255 = zext i32 %151 to i64, !dbg !9932
  %call256 = call dereferenceable(24) %"class.dealii::Point"* @_ZNSt6vectorIN6dealii5PointILi3EEESaIS2_EEixEm(%"class.std::vector.24"* %generalized_support_points253, i64 %conv255) #4, !dbg !9933
  %call258 = invoke dereferenceable(24) %"class.dealii::Point"* @_ZN6dealii5PointILi3EEaSERKS1_(%"class.dealii::Point"* %call256, %"class.dealii::Point"* dereferenceable(24) %call252)
          to label %invoke.cont257 unwind label %lpad46, !dbg !9934

invoke.cont257:                                   ; preds = %invoke.cont251
  br label %for.inc259, !dbg !9933

for.inc259:                                       ; preds = %invoke.cont257
  %152 = load i32, i32* %k245, align 4, !dbg !9935
  %inc260 = add i32 %152, 1, !dbg !9935
  store i32 %inc260, i32* %k245, align 4, !dbg !9935
  br label %for.cond246, !dbg !9936, !llvm.loop !9937

for.end261:                                       ; preds = %invoke.cont247
  %interior_weights_abf = getelementptr inbounds %"class.dealii::FE_ABF", %"class.dealii::FE_ABF"* %this1, i32 0, i32 6, !dbg !9939
  %153 = bitcast %"class.dealii::Table.104"* %interior_weights_abf to %"class.dealii::TableBase.105"*, !dbg !9939
  %154 = bitcast %"class.dealii::QGauss"* %cell_quadrature to %"class.dealii::Quadrature"*, !dbg !9940
  %call264 = invoke i32 @_ZNK6dealii10QuadratureILi3EE4sizeEv(%"class.dealii::Quadrature"* %154)
          to label %invoke.cont263 unwind label %lpad46, !dbg !9941

invoke.cont263:                                   ; preds = %for.end261
  %call265 = call dereferenceable(8) %"class.dealii::AnisotropicPolynomials"** @_ZNSt6vectorIPN6dealii22AnisotropicPolynomialsILi3EEESaIS3_EEixEm(%"class.std::vector.128"* %polynomials_abf, i64 0) #4, !dbg !9942
  %155 = load %"class.dealii::AnisotropicPolynomials"*, %"class.dealii::AnisotropicPolynomials"** %call265, align 8, !dbg !9942
  %call267 = invoke i32 @_ZNK6dealii22AnisotropicPolynomialsILi3EE1nEv(%"class.dealii::AnisotropicPolynomials"* %155)
          to label %invoke.cont266 unwind label %lpad46, !dbg !9943

invoke.cont266:                                   ; preds = %invoke.cont263
  %mul268 = mul i32 %call267, 3, !dbg !9944
  invoke void @_ZN6dealii12TableIndicesILi3EEC2Ejjj(%"class.dealii::TableIndices.106"* %ref.tmp262, i32 %call264, i32 %mul268, i32 3)
          to label %invoke.cont269 unwind label %lpad46, !dbg !9945

invoke.cont269:                                   ; preds = %invoke.cont266
  invoke void @_ZN6dealii9TableBaseILi3EdE6reinitERKNS_12TableIndicesILi3EEE(%"class.dealii::TableBase.105"* %153, %"class.dealii::TableIndices.106"* dereferenceable(12) %ref.tmp262)
          to label %invoke.cont270 unwind label %lpad46, !dbg !9946

invoke.cont270:                                   ; preds = %invoke.cont269
  call void @llvm.dbg.declare(metadata %"class.dealii::Tensor"* %poly_grad, metadata !9947, metadata !DIExpression()), !dbg !9948
  invoke void @_ZN6dealii6TensorILi1ELi3EEC2Eb(%"class.dealii::Tensor"* %poly_grad, i1 zeroext true)
          to label %invoke.cont271 unwind label %lpad46, !dbg !9948

invoke.cont271:                                   ; preds = %invoke.cont270
  call void @llvm.dbg.declare(metadata i32* %k272, metadata !9949, metadata !DIExpression()), !dbg !9951
  store i32 0, i32* %k272, align 4, !dbg !9951
  br label %for.cond273, !dbg !9952

for.cond273:                                      ; preds = %for.inc315, %invoke.cont271
  %156 = load i32, i32* %k272, align 4, !dbg !9953
  %157 = bitcast %"class.dealii::QGauss"* %cell_quadrature to %"class.dealii::Quadrature"*, !dbg !9955
  %call275 = invoke i32 @_ZNK6dealii10QuadratureILi3EE4sizeEv(%"class.dealii::Quadrature"* %157)
          to label %invoke.cont274 unwind label %lpad46, !dbg !9956

invoke.cont274:                                   ; preds = %for.cond273
  %cmp276 = icmp ult i32 %156, %call275, !dbg !9957
  br i1 %cmp276, label %for.body277, label %for.end317, !dbg !9958

for.body277:                                      ; preds = %invoke.cont274
  call void @llvm.dbg.declare(metadata i32* %i278, metadata !9959, metadata !DIExpression()), !dbg !9962
  store i32 0, i32* %i278, align 4, !dbg !9962
  br label %for.cond279, !dbg !9963

for.cond279:                                      ; preds = %for.inc312, %for.body277
  %158 = load i32, i32* %i278, align 4, !dbg !9964
  %call280 = call dereferenceable(8) %"class.dealii::AnisotropicPolynomials"** @_ZNSt6vectorIPN6dealii22AnisotropicPolynomialsILi3EEESaIS3_EEixEm(%"class.std::vector.128"* %polynomials_abf, i64 0) #4, !dbg !9966
  %159 = load %"class.dealii::AnisotropicPolynomials"*, %"class.dealii::AnisotropicPolynomials"** %call280, align 8, !dbg !9966
  %call282 = invoke i32 @_ZNK6dealii22AnisotropicPolynomialsILi3EE1nEv(%"class.dealii::AnisotropicPolynomials"* %159)
          to label %invoke.cont281 unwind label %lpad46, !dbg !9967

invoke.cont281:                                   ; preds = %for.cond279
  %mul283 = mul i32 %call282, 3, !dbg !9968
  %cmp284 = icmp ult i32 %158, %mul283, !dbg !9969
  br i1 %cmp284, label %for.body285, label %for.end314, !dbg !9970

for.body285:                                      ; preds = %invoke.cont281
  %160 = load i32, i32* %i278, align 4, !dbg !9971
  %rem288 = urem i32 %160, 3, !dbg !9973
  %conv289 = zext i32 %rem288 to i64, !dbg !9971
  %call290 = call dereferenceable(8) %"class.dealii::AnisotropicPolynomials"** @_ZNSt6vectorIPN6dealii22AnisotropicPolynomialsILi3EEESaIS3_EEixEm(%"class.std::vector.128"* %polynomials_abf, i64 %conv289) #4, !dbg !9974
  %161 = load %"class.dealii::AnisotropicPolynomials"*, %"class.dealii::AnisotropicPolynomials"** %call290, align 8, !dbg !9974
  %162 = load i32, i32* %i278, align 4, !dbg !9975
  %div291 = udiv i32 %162, 3, !dbg !9976
  %163 = bitcast %"class.dealii::QGauss"* %cell_quadrature to %"class.dealii::Quadrature"*, !dbg !9977
  %164 = load i32, i32* %k272, align 4, !dbg !9978
  %call293 = invoke dereferenceable(24) %"class.dealii::Point"* @_ZNK6dealii10QuadratureILi3EE5pointEj(%"class.dealii::Quadrature"* %163, i32 %164)
          to label %invoke.cont292 unwind label %lpad46, !dbg !9979

invoke.cont292:                                   ; preds = %for.body285
  invoke void @_ZNK6dealii22AnisotropicPolynomialsILi3EE12compute_gradEjRKNS_5PointILi3EEE(%"class.dealii::Tensor"* sret %ref.tmp287, %"class.dealii::AnisotropicPolynomials"* %161, i32 %div291, %"class.dealii::Point"* dereferenceable(24) %call293)
          to label %invoke.cont294 unwind label %lpad46, !dbg !9980

invoke.cont294:                                   ; preds = %invoke.cont292
  %165 = bitcast %"class.dealii::QGauss"* %cell_quadrature to %"class.dealii::Quadrature"*, !dbg !9981
  %166 = load i32, i32* %k272, align 4, !dbg !9982
  %call296 = invoke double @_ZNK6dealii10QuadratureILi3EE6weightEj(%"class.dealii::Quadrature"* %165, i32 %166)
          to label %invoke.cont295 unwind label %lpad46, !dbg !9983

invoke.cont295:                                   ; preds = %invoke.cont294
  invoke void @_ZN6dealiimlILi3EEENS_6TensorILi1EXT_EEERKS2_d(%"class.dealii::Tensor"* sret %ref.tmp286, %"class.dealii::Tensor"* dereferenceable(24) %ref.tmp287, double %call296)
          to label %invoke.cont297 unwind label %lpad46, !dbg !9984

invoke.cont297:                                   ; preds = %invoke.cont295
  %call299 = invoke dereferenceable(24) %"class.dealii::Tensor"* @_ZN6dealii6TensorILi1ELi3EEaSERKS1_(%"class.dealii::Tensor"* %poly_grad, %"class.dealii::Tensor"* dereferenceable(24) %ref.tmp286)
          to label %invoke.cont298 unwind label %lpad46, !dbg !9985

invoke.cont298:                                   ; preds = %invoke.cont297
  call void @llvm.dbg.declare(metadata i32* %d300, metadata !9986, metadata !DIExpression()), !dbg !9988
  store i32 0, i32* %d300, align 4, !dbg !9988
  br label %for.cond301, !dbg !9989

for.cond301:                                      ; preds = %for.inc309, %invoke.cont298
  %167 = load i32, i32* %d300, align 4, !dbg !9990
  %cmp302 = icmp ult i32 %167, 3, !dbg !9992
  br i1 %cmp302, label %for.body303, label %for.end311, !dbg !9993

for.body303:                                      ; preds = %for.cond301
  %168 = load i32, i32* %d300, align 4, !dbg !9994
  %call305 = invoke dereferenceable(8) double* @_ZN6dealii6TensorILi1ELi3EEixEj(%"class.dealii::Tensor"* %poly_grad, i32 %168)
          to label %invoke.cont304 unwind label %lpad46, !dbg !9995

invoke.cont304:                                   ; preds = %for.body303
  %169 = load double, double* %call305, align 8, !dbg !9995
  %fneg = fneg double %169, !dbg !9996
  %interior_weights_abf306 = getelementptr inbounds %"class.dealii::FE_ABF", %"class.dealii::FE_ABF"* %this1, i32 0, i32 6, !dbg !9997
  %170 = load i32, i32* %k272, align 4, !dbg !9998
  %171 = load i32, i32* %i278, align 4, !dbg !9999
  %172 = load i32, i32* %d300, align 4, !dbg !10000
  %call308 = invoke dereferenceable(8) double* @_ZN6dealii5TableILi3EdEclEjjj(%"class.dealii::Table.104"* %interior_weights_abf306, i32 %170, i32 %171, i32 %172)
          to label %invoke.cont307 unwind label %lpad46, !dbg !9997

invoke.cont307:                                   ; preds = %invoke.cont304
  store double %fneg, double* %call308, align 8, !dbg !10001
  br label %for.inc309, !dbg !9997

for.inc309:                                       ; preds = %invoke.cont307
  %173 = load i32, i32* %d300, align 4, !dbg !10002
  %inc310 = add i32 %173, 1, !dbg !10002
  store i32 %inc310, i32* %d300, align 4, !dbg !10002
  br label %for.cond301, !dbg !10003, !llvm.loop !10004

for.end311:                                       ; preds = %for.cond301
  br label %for.inc312, !dbg !10006

for.inc312:                                       ; preds = %for.end311
  %174 = load i32, i32* %i278, align 4, !dbg !10007
  %inc313 = add i32 %174, 1, !dbg !10007
  store i32 %inc313, i32* %i278, align 4, !dbg !10007
  br label %for.cond279, !dbg !10008, !llvm.loop !10009

for.end314:                                       ; preds = %invoke.cont281
  br label %for.inc315, !dbg !10011

for.inc315:                                       ; preds = %for.end314
  %175 = load i32, i32* %k272, align 4, !dbg !10012
  %inc316 = add i32 %175, 1, !dbg !10012
  store i32 %inc316, i32* %k272, align 4, !dbg !10012
  br label %for.cond273, !dbg !10013, !llvm.loop !10014

for.end317:                                       ; preds = %invoke.cont274
  call void @llvm.dbg.declare(metadata i32* %d318, metadata !10016, metadata !DIExpression()), !dbg !10018
  store i32 0, i32* %d318, align 4, !dbg !10018
  br label %for.cond319, !dbg !10019

for.cond319:                                      ; preds = %for.inc327, %for.end317
  %176 = load i32, i32* %d318, align 4, !dbg !10020
  %cmp320 = icmp ult i32 %176, 3, !dbg !10022
  br i1 %cmp320, label %for.body321, label %for.end329, !dbg !10023

for.body321:                                      ; preds = %for.cond319
  %177 = load i32, i32* %d318, align 4, !dbg !10024
  %conv322 = zext i32 %177 to i64, !dbg !10024
  %call323 = call dereferenceable(8) %"class.dealii::AnisotropicPolynomials"** @_ZNSt6vectorIPN6dealii22AnisotropicPolynomialsILi3EEESaIS3_EEixEm(%"class.std::vector.128"* %polynomials_abf, i64 %conv322) #4, !dbg !10025
  %178 = load %"class.dealii::AnisotropicPolynomials"*, %"class.dealii::AnisotropicPolynomials"** %call323, align 8, !dbg !10025
  %isnull324 = icmp eq %"class.dealii::AnisotropicPolynomials"* %178, null, !dbg !10026
  br i1 %isnull324, label %delete.end326, label %delete.notnull325, !dbg !10026

delete.notnull325:                                ; preds = %for.body321
  call void @_ZN6dealii22AnisotropicPolynomialsILi3EED2Ev(%"class.dealii::AnisotropicPolynomials"* %178) #4, !dbg !10026
  %179 = bitcast %"class.dealii::AnisotropicPolynomials"* %178 to i8*, !dbg !10026
  call void @_ZdlPv(i8* %179) #14, !dbg !10026
  br label %delete.end326, !dbg !10026

delete.end326:                                    ; preds = %delete.notnull325, %for.body321
  br label %for.inc327, !dbg !10026

for.inc327:                                       ; preds = %delete.end326
  %180 = load i32, i32* %d318, align 4, !dbg !10027
  %inc328 = add i32 %180, 1, !dbg !10027
  store i32 %inc328, i32* %d318, align 4, !dbg !10027
  br label %for.cond319, !dbg !10028, !llvm.loop !10029

for.end329:                                       ; preds = %for.cond319
  call void @_ZNSt6vectorIPN6dealii22AnisotropicPolynomialsILi3EEESaIS3_EED2Ev(%"class.std::vector.128"* %polynomials_abf) #4, !dbg !9468
  call void @_ZN6dealii6QGaussILi3EED2Ev(%"class.dealii::QGauss"* %cell_quadrature) #4, !dbg !9468
  ret void, !dbg !9468

ehcleanup330:                                     ; preds = %ehcleanup244, %lpad149, %ehcleanup146, %lpad46, %ehcleanup, %lpad14
  call void @_ZNSt6vectorIPN6dealii22AnisotropicPolynomialsILi3EEESaIS3_EED2Ev(%"class.std::vector.128"* %polynomials_abf) #4, !dbg !9468
  br label %ehcleanup331, !dbg !9468

ehcleanup331:                                     ; preds = %ehcleanup330, %lpad8, %lpad
  call void @_ZN6dealii6QGaussILi3EED2Ev(%"class.dealii::QGauss"* %cell_quadrature) #4, !dbg !9468
  br label %eh.resume, !dbg !9468

eh.resume:                                        ; preds = %ehcleanup331
  %exn = load i8*, i8** %exn.slot, align 8, !dbg !9468
  %sel = load i32, i32* %ehselector.slot, align 4, !dbg !9468
  %lpad.val = insertvalue { i8*, i32 } undef, i8* %exn, 0, !dbg !9468
  %lpad.val332 = insertvalue { i8*, i32 } %lpad.val, i32 %sel, 1, !dbg !9468
  resume { i8*, i32 } %lpad.val332, !dbg !9468
}

declare dso_local void @_ZN6dealii10FullMatrixIdEC1Ejj(%"class.dealii::FullMatrix"*, i32, i32) unnamed_addr #2

declare dso_local void @_ZN6dealii7FETools19compute_node_matrixILi3ELi3EEEvRNS_10FullMatrixIdEERKNS_13FiniteElementIXT_EXT0_EEE(%"class.dealii::FullMatrix"* dereferenceable(96), %"class.dealii::FiniteElement"* dereferenceable(728)) #2

; Function Attrs: noinline uwtable
define linkonce_odr dso_local void @_ZN6dealii5TableILi2EdE6reinitEjj(%"class.dealii::Table"* %this, i32 %size1, i32 %size2) #0 comdat align 2 !dbg !10031 {
entry:
  %this.addr = alloca %"class.dealii::Table"*, align 8
  %size1.addr = alloca i32, align 4
  %size2.addr = alloca i32, align 4
  %ref.tmp = alloca %"class.dealii::TableIndices", align 4
  store %"class.dealii::Table"* %this, %"class.dealii::Table"** %this.addr, align 8
  call void @llvm.dbg.declare(metadata %"class.dealii::Table"** %this.addr, metadata !10032, metadata !DIExpression()), !dbg !10033
  store i32 %size1, i32* %size1.addr, align 4
  call void @llvm.dbg.declare(metadata i32* %size1.addr, metadata !10034, metadata !DIExpression()), !dbg !10035
  store i32 %size2, i32* %size2.addr, align 4
  call void @llvm.dbg.declare(metadata i32* %size2.addr, metadata !10036, metadata !DIExpression()), !dbg !10037
  %this1 = load %"class.dealii::Table"*, %"class.dealii::Table"** %this.addr, align 8
  %0 = bitcast %"class.dealii::Table"* %this1 to %"class.dealii::TableBase"*, !dbg !10038
  %1 = load i32, i32* %size1.addr, align 4, !dbg !10039
  %2 = load i32, i32* %size2.addr, align 4, !dbg !10040
  call void @_ZN6dealii12TableIndicesILi2EEC2Ejj(%"class.dealii::TableIndices"* %ref.tmp, i32 %1, i32 %2), !dbg !10041
  call void @_ZN6dealii9TableBaseILi2EdE6reinitERKNS_12TableIndicesILi2EEE(%"class.dealii::TableBase"* %0, %"class.dealii::TableIndices"* dereferenceable(8) %ref.tmp), !dbg !10038
  ret void, !dbg !10042
}

declare dso_local void @_ZN6dealii10FullMatrixIdE6invertIdEEvRKNS0_IT_EE(%"class.dealii::FullMatrix"*, %"class.dealii::FullMatrix"* dereferenceable(96)) #2

declare dso_local void @_ZN6dealii13FiniteElementILi3ELi3EE44reinit_restriction_and_prolongation_matricesEbb(%"class.dealii::FiniteElement"*, i1 zeroext, i1 zeroext) #2

declare dso_local void @_ZN6dealii7FETools26compute_embedding_matricesILi3EdLi3EEEvRKNS_13FiniteElementIXT_EXT1_EEERSt6vectorIS6_INS_10FullMatrixIT0_EESaIS9_EESaISB_EEb(%"class.dealii::FiniteElement"* dereferenceable(728), %"class.std::vector"* dereferenceable(24), i1 zeroext) #2

; Function Attrs: noinline uwtable
define weak_odr dso_local void @_ZN6dealii6FE_ABFILi3EE22initialize_restrictionEv(%"class.dealii::FE_ABF"* %this) #0 comdat align 2 personality i8* bitcast (i32 (...)* @__gxx_personality_v0 to i8*) !dbg !10043 {
entry:
  %this.addr = alloca %"class.dealii::FE_ABF"*, align 8
  %iso = alloca i32, align 4
  %q_base = alloca %"class.dealii::QGauss.133", align 8
  %n_face_points = alloca i32, align 4
  %exn.slot = alloca i8*
  %ehselector.slot = alloca i32
  %face = alloca i32, align 4
  %q_face = alloca %"class.dealii::Quadrature", align 8
  %cached_values = alloca %"class.dealii::Table", align 8
  %k = alloca i32, align 4
  %i = alloca i32, align 4
  %sub = alloca i32, align 4
  %q_sub = alloca %"class.dealii::Quadrature", align 8
  %ref.tmp = alloca %"class.dealii::RefinementCase.119", align 1
  %child = alloca i32, align 4
  %ref.tmp32 = alloca %"class.dealii::RefinementCase", align 1
  %ref.tmp35 = alloca %"class.dealii::RefinementCase.119", align 1
  %k39 = alloca i32, align 4
  %i_child = alloca i32, align 4
  %i_face = alloca i32, align 4
  %cleanup.dest.slot = alloca i32, align 4
  %polynomials = alloca %"class.std::vector.128", align 8
  %ref.tmp100 = alloca %"class.std::allocator.130", align 1
  %dd = alloca i32, align 4
  %poly = alloca %"class.std::vector.72", align 8
  %ref.tmp107 = alloca %"class.std::allocator.74", align 1
  %d = alloca i32, align 4
  %ref.tmp114 = alloca %"class.std::vector.77", align 8
  %ref.tmp124 = alloca %"class.std::vector.77", align 8
  %q_cell = alloca %"class.dealii::QGauss", align 8
  %start_cell_dofs = alloca i32, align 4
  %cached_values149 = alloca %"class.dealii::Table.104", align 8
  %k156 = alloca i32, align 4
  %i163 = alloca i32, align 4
  %d169 = alloca i32, align 4
  %child190 = alloca i32, align 4
  %q_sub194 = alloca %"class.dealii::Quadrature", align 8
  %k196 = alloca i32, align 4
  %i_child203 = alloca i32, align 4
  %d209 = alloca i32, align 4
  %i_weight = alloca i32, align 4
  %d259 = alloca i32, align 4
  store %"class.dealii::FE_ABF"* %this, %"class.dealii::FE_ABF"** %this.addr, align 8
  call void @llvm.dbg.declare(metadata %"class.dealii::FE_ABF"** %this.addr, metadata !10044, metadata !DIExpression()), !dbg !10045
  %this1 = load %"class.dealii::FE_ABF"*, %"class.dealii::FE_ABF"** %this.addr, align 8
  call void @llvm.dbg.declare(metadata i32* %iso, metadata !10046, metadata !DIExpression()), !dbg !10047
  store i32 6, i32* %iso, align 4, !dbg !10047
  call void @llvm.dbg.declare(metadata %"class.dealii::QGauss.133"* %q_base, metadata !10048, metadata !DIExpression()), !dbg !10049
  %rt_order = getelementptr inbounds %"class.dealii::FE_ABF", %"class.dealii::FE_ABF"* %this1, i32 0, i32 1, !dbg !10050
  %0 = load i32, i32* %rt_order, align 8, !dbg !10050
  %add = add i32 %0, 1, !dbg !10051
  call void @_ZN6dealii6QGaussILi2EEC1Ej(%"class.dealii::QGauss.133"* %q_base, i32 %add), !dbg !10049
  call void @llvm.dbg.declare(metadata i32* %n_face_points, metadata !10052, metadata !DIExpression()), !dbg !10053
  %1 = bitcast %"class.dealii::QGauss.133"* %q_base to %"class.dealii::Quadrature.134"*, !dbg !10054
  %call = invoke i32 @_ZNK6dealii10QuadratureILi2EE4sizeEv(%"class.dealii::Quadrature.134"* %1)
          to label %invoke.cont unwind label %lpad, !dbg !10055

invoke.cont:                                      ; preds = %entry
  store i32 %call, i32* %n_face_points, align 4, !dbg !10053
  call void @llvm.dbg.declare(metadata i32* %face, metadata !10056, metadata !DIExpression()), !dbg !10058
  store i32 0, i32* %face, align 4, !dbg !10058
  br label %for.cond, !dbg !10059

for.cond:                                         ; preds = %for.inc95, %invoke.cont
  %2 = load i32, i32* %face, align 4, !dbg !10060
  %cmp = icmp ult i32 %2, 6, !dbg !10062
  br i1 %cmp, label %for.body, label %for.end97, !dbg !10063

for.body:                                         ; preds = %for.cond
  call void @llvm.dbg.declare(metadata %"class.dealii::Quadrature"* %q_face, metadata !10064, metadata !DIExpression()), !dbg !10066
  %3 = bitcast %"class.dealii::QGauss.133"* %q_base to %"class.dealii::Quadrature.134"*, !dbg !10067
  %4 = load i32, i32* %face, align 4, !dbg !10068
  invoke void @_ZN6dealii10QProjectorILi3EE15project_to_faceERKNS_10QuadratureILi2EEEj(%"class.dealii::Quadrature"* sret %q_face, %"class.dealii::Quadrature.134"* dereferenceable(128) %3, i32 %4)
          to label %invoke.cont2 unwind label %lpad, !dbg !10069

invoke.cont2:                                     ; preds = %for.body
  call void @llvm.dbg.declare(metadata %"class.dealii::Table"* %cached_values, metadata !10070, metadata !DIExpression()), !dbg !10071
  %5 = bitcast %"class.dealii::FE_ABF"* %this1 to i8*, !dbg !10072
  %add.ptr = getelementptr inbounds i8, i8* %5, i64 72, !dbg !10072
  %6 = bitcast i8* %add.ptr to %"class.dealii::FiniteElementData"*, !dbg !10072
  %dofs_per_cell = getelementptr inbounds %"class.dealii::FiniteElementData", %"class.dealii::FiniteElementData"* %6, i32 0, i32 10, !dbg !10072
  %7 = load i32, i32* %dofs_per_cell, align 8, !dbg !10072
  %call5 = invoke i32 @_ZNK6dealii10QuadratureILi3EE4sizeEv(%"class.dealii::Quadrature"* %q_face)
          to label %invoke.cont4 unwind label %lpad3, !dbg !10073

invoke.cont4:                                     ; preds = %invoke.cont2
  invoke void @_ZN6dealii5TableILi2EdEC2Ejj(%"class.dealii::Table"* %cached_values, i32 %7, i32 %call5)
          to label %invoke.cont6 unwind label %lpad3, !dbg !10071

invoke.cont6:                                     ; preds = %invoke.cont4
  call void @llvm.dbg.declare(metadata i32* %k, metadata !10074, metadata !DIExpression()), !dbg !10076
  store i32 0, i32* %k, align 4, !dbg !10076
  br label %for.cond7, !dbg !10077

for.cond7:                                        ; preds = %for.inc24, %invoke.cont6
  %8 = load i32, i32* %k, align 4, !dbg !10078
  %call10 = invoke i32 @_ZNK6dealii10QuadratureILi3EE4sizeEv(%"class.dealii::Quadrature"* %q_face)
          to label %invoke.cont9 unwind label %lpad8, !dbg !10080

invoke.cont9:                                     ; preds = %for.cond7
  %cmp11 = icmp ult i32 %8, %call10, !dbg !10081
  br i1 %cmp11, label %for.body12, label %for.end26, !dbg !10082

for.body12:                                       ; preds = %invoke.cont9
  call void @llvm.dbg.declare(metadata i32* %i, metadata !10083, metadata !DIExpression()), !dbg !10085
  store i32 0, i32* %i, align 4, !dbg !10085
  br label %for.cond13, !dbg !10086

for.cond13:                                       ; preds = %for.inc, %for.body12
  %9 = load i32, i32* %i, align 4, !dbg !10087
  %10 = bitcast %"class.dealii::FE_ABF"* %this1 to i8*, !dbg !10089
  %add.ptr14 = getelementptr inbounds i8, i8* %10, i64 72, !dbg !10089
  %11 = bitcast i8* %add.ptr14 to %"class.dealii::FiniteElementData"*, !dbg !10089
  %dofs_per_cell15 = getelementptr inbounds %"class.dealii::FiniteElementData", %"class.dealii::FiniteElementData"* %11, i32 0, i32 10, !dbg !10089
  %12 = load i32, i32* %dofs_per_cell15, align 8, !dbg !10089
  %cmp16 = icmp ult i32 %9, %12, !dbg !10090
  br i1 %cmp16, label %for.body17, label %for.end, !dbg !10091

for.body17:                                       ; preds = %for.cond13
  %13 = bitcast %"class.dealii::FE_ABF"* %this1 to %"class.dealii::FE_PolyTensor"*, !dbg !10092
  %14 = load i32, i32* %i, align 4, !dbg !10093
  %15 = load i32, i32* %k, align 4, !dbg !10094
  %call19 = invoke dereferenceable(24) %"class.dealii::Point"* @_ZNK6dealii10QuadratureILi3EE5pointEj(%"class.dealii::Quadrature"* %q_face, i32 %15)
          to label %invoke.cont18 unwind label %lpad8, !dbg !10095

invoke.cont18:                                    ; preds = %for.body17
  %16 = load i32, i32* %face, align 4, !dbg !10096
  %idxprom = zext i32 %16 to i64, !dbg !10097
  %arrayidx = getelementptr inbounds [6 x i32], [6 x i32]* @_ZN6dealii12GeometryInfoILi3EE21unit_normal_directionE, i64 0, i64 %idxprom, !dbg !10097
  %17 = load i32, i32* %arrayidx, align 4, !dbg !10097
  %18 = bitcast %"class.dealii::FE_PolyTensor"* %13 to double (%"class.dealii::FE_PolyTensor"*, i32, %"class.dealii::Point"*, i32)***, !dbg !10092
  %vtable = load double (%"class.dealii::FE_PolyTensor"*, i32, %"class.dealii::Point"*, i32)**, double (%"class.dealii::FE_PolyTensor"*, i32, %"class.dealii::Point"*, i32)*** %18, align 8, !dbg !10092
  %vfn = getelementptr inbounds double (%"class.dealii::FE_PolyTensor"*, i32, %"class.dealii::Point"*, i32)*, double (%"class.dealii::FE_PolyTensor"*, i32, %"class.dealii::Point"*, i32)** %vtable, i64 4, !dbg !10092
  %19 = load double (%"class.dealii::FE_PolyTensor"*, i32, %"class.dealii::Point"*, i32)*, double (%"class.dealii::FE_PolyTensor"*, i32, %"class.dealii::Point"*, i32)** %vfn, align 8, !dbg !10092
  %call21 = invoke double %19(%"class.dealii::FE_PolyTensor"* %13, i32 %14, %"class.dealii::Point"* dereferenceable(24) %call19, i32 %17)
          to label %invoke.cont20 unwind label %lpad8, !dbg !10092

invoke.cont20:                                    ; preds = %invoke.cont18
  %20 = load i32, i32* %i, align 4, !dbg !10098
  %21 = load i32, i32* %k, align 4, !dbg !10099
  %call23 = invoke dereferenceable(8) double* @_ZN6dealii5TableILi2EdEclEjj(%"class.dealii::Table"* %cached_values, i32 %20, i32 %21)
          to label %invoke.cont22 unwind label %lpad8, !dbg !10100

invoke.cont22:                                    ; preds = %invoke.cont20
  store double %call21, double* %call23, align 8, !dbg !10101
  br label %for.inc, !dbg !10100

for.inc:                                          ; preds = %invoke.cont22
  %22 = load i32, i32* %i, align 4, !dbg !10102
  %inc = add i32 %22, 1, !dbg !10102
  store i32 %inc, i32* %i, align 4, !dbg !10102
  br label %for.cond13, !dbg !10103, !llvm.loop !10104

lpad:                                             ; preds = %for.body, %entry
  %23 = landingpad { i8*, i32 }
          cleanup, !dbg !10106
  %24 = extractvalue { i8*, i32 } %23, 0, !dbg !10106
  store i8* %24, i8** %exn.slot, align 8, !dbg !10106
  %25 = extractvalue { i8*, i32 } %23, 1, !dbg !10106
  store i32 %25, i32* %ehselector.slot, align 4, !dbg !10106
  br label %ehcleanup271, !dbg !10106

lpad3:                                            ; preds = %invoke.cont4, %invoke.cont2
  %26 = landingpad { i8*, i32 }
          cleanup, !dbg !10107
  %27 = extractvalue { i8*, i32 } %26, 0, !dbg !10107
  store i8* %27, i8** %exn.slot, align 8, !dbg !10107
  %28 = extractvalue { i8*, i32 } %26, 1, !dbg !10107
  store i32 %28, i32* %ehselector.slot, align 4, !dbg !10107
  br label %ehcleanup94, !dbg !10107

lpad8:                                            ; preds = %invoke.cont30, %for.body29, %invoke.cont20, %invoke.cont18, %for.body17, %for.cond7
  %29 = landingpad { i8*, i32 }
          cleanup, !dbg !10108
  %30 = extractvalue { i8*, i32 } %29, 0, !dbg !10108
  store i8* %30, i8** %exn.slot, align 8, !dbg !10108
  %31 = extractvalue { i8*, i32 } %29, 1, !dbg !10108
  store i32 %31, i32* %ehselector.slot, align 4, !dbg !10108
  br label %ehcleanup, !dbg !10108

for.end:                                          ; preds = %for.cond13
  br label %for.inc24, !dbg !10105

for.inc24:                                        ; preds = %for.end
  %32 = load i32, i32* %k, align 4, !dbg !10109
  %inc25 = add i32 %32, 1, !dbg !10109
  store i32 %inc25, i32* %k, align 4, !dbg !10109
  br label %for.cond7, !dbg !10110, !llvm.loop !10111

for.end26:                                        ; preds = %invoke.cont9
  call void @llvm.dbg.declare(metadata i32* %sub, metadata !10113, metadata !DIExpression()), !dbg !10115
  store i32 0, i32* %sub, align 4, !dbg !10115
  br label %for.cond27, !dbg !10116

for.cond27:                                       ; preds = %for.inc91, %for.end26
  %33 = load i32, i32* %sub, align 4, !dbg !10117
  %cmp28 = icmp ult i32 %33, 4, !dbg !10119
  br i1 %cmp28, label %for.body29, label %for.end93, !dbg !10120

for.body29:                                       ; preds = %for.cond27
  call void @llvm.dbg.declare(metadata %"class.dealii::Quadrature"* %q_sub, metadata !10121, metadata !DIExpression()), !dbg !10123
  %34 = bitcast %"class.dealii::QGauss.133"* %q_base to %"class.dealii::Quadrature.134"*, !dbg !10124
  %35 = load i32, i32* %face, align 4, !dbg !10125
  %36 = load i32, i32* %sub, align 4, !dbg !10126
  invoke void @_ZN6dealii14RefinementCaseILi2EEC2ENS_23RefinementPossibilitiesILi2EE13PossibilitiesE(%"class.dealii::RefinementCase.119"* %ref.tmp, i32 3)
          to label %invoke.cont30 unwind label %lpad8, !dbg !10127

invoke.cont30:                                    ; preds = %for.body29
  invoke void @_ZN6dealii10QProjectorILi3EE18project_to_subfaceERKNS_10QuadratureILi2EEEjjRKNS_14RefinementCaseILi2EEE(%"class.dealii::Quadrature"* sret %q_sub, %"class.dealii::Quadrature.134"* dereferenceable(128) %34, i32 %35, i32 %36, %"class.dealii::RefinementCase.119"* dereferenceable(1) %ref.tmp)
          to label %invoke.cont31 unwind label %lpad8, !dbg !10127

invoke.cont31:                                    ; preds = %invoke.cont30
  call void @llvm.dbg.declare(metadata i32* %child, metadata !10128, metadata !DIExpression()), !dbg !10129
  invoke void @_ZN6dealii14RefinementCaseILi3EEC2ENS_23RefinementPossibilitiesILi3EE13PossibilitiesE(%"class.dealii::RefinementCase"* %ref.tmp32, i32 7)
          to label %invoke.cont34 unwind label %lpad33, !dbg !10130

invoke.cont34:                                    ; preds = %invoke.cont31
  %37 = load i32, i32* %face, align 4, !dbg !10131
  %38 = load i32, i32* %sub, align 4, !dbg !10132
  invoke void @_ZN6dealii14RefinementCaseILi2EEC2ENS_23RefinementPossibilitiesILi2EE13PossibilitiesE(%"class.dealii::RefinementCase.119"* %ref.tmp35, i32 3)
          to label %invoke.cont36 unwind label %lpad33, !dbg !10133

invoke.cont36:                                    ; preds = %invoke.cont34
  %call38 = invoke i32 @_ZN6dealii12GeometryInfoILi3EE18child_cell_on_faceERKNS_14RefinementCaseILi3EEEjjbbbRKNS2_ILi2EEE(%"class.dealii::RefinementCase"* dereferenceable(1) %ref.tmp32, i32 %37, i32 %38, i1 zeroext true, i1 zeroext false, i1 zeroext false, %"class.dealii::RefinementCase.119"* dereferenceable(1) %ref.tmp35)
          to label %invoke.cont37 unwind label %lpad33, !dbg !10133

invoke.cont37:                                    ; preds = %invoke.cont36
  store i32 %call38, i32* %child, align 4, !dbg !10129
  call void @llvm.dbg.declare(metadata i32* %k39, metadata !10134, metadata !DIExpression()), !dbg !10136
  store i32 0, i32* %k39, align 4, !dbg !10136
  br label %for.cond40, !dbg !10137

for.cond40:                                       ; preds = %for.inc88, %invoke.cont37
  %39 = load i32, i32* %k39, align 4, !dbg !10138
  %40 = load i32, i32* %n_face_points, align 4, !dbg !10140
  %cmp41 = icmp ult i32 %39, %40, !dbg !10141
  br i1 %cmp41, label %for.body42, label %for.end90, !dbg !10142

for.body42:                                       ; preds = %for.cond40
  call void @llvm.dbg.declare(metadata i32* %i_child, metadata !10143, metadata !DIExpression()), !dbg !10145
  store i32 0, i32* %i_child, align 4, !dbg !10145
  br label %for.cond43, !dbg !10146

for.cond43:                                       ; preds = %for.inc85, %for.body42
  %41 = load i32, i32* %i_child, align 4, !dbg !10147
  %42 = bitcast %"class.dealii::FE_ABF"* %this1 to i8*, !dbg !10149
  %add.ptr44 = getelementptr inbounds i8, i8* %42, i64 72, !dbg !10149
  %43 = bitcast i8* %add.ptr44 to %"class.dealii::FiniteElementData"*, !dbg !10149
  %dofs_per_cell45 = getelementptr inbounds %"class.dealii::FiniteElementData", %"class.dealii::FiniteElementData"* %43, i32 0, i32 10, !dbg !10149
  %44 = load i32, i32* %dofs_per_cell45, align 8, !dbg !10149
  %cmp46 = icmp ult i32 %41, %44, !dbg !10150
  br i1 %cmp46, label %for.body47, label %for.end87, !dbg !10151

for.body47:                                       ; preds = %for.cond43
  call void @llvm.dbg.declare(metadata i32* %i_face, metadata !10152, metadata !DIExpression()), !dbg !10154
  store i32 0, i32* %i_face, align 4, !dbg !10154
  br label %for.cond48, !dbg !10155

for.cond48:                                       ; preds = %for.inc82, %for.body47
  %45 = load i32, i32* %i_face, align 4, !dbg !10156
  %46 = bitcast %"class.dealii::FE_ABF"* %this1 to i8*, !dbg !10158
  %add.ptr49 = getelementptr inbounds i8, i8* %46, i64 72, !dbg !10158
  %47 = bitcast i8* %add.ptr49 to %"class.dealii::FiniteElementData"*, !dbg !10158
  %dofs_per_face = getelementptr inbounds %"class.dealii::FiniteElementData", %"class.dealii::FiniteElementData"* %47, i32 0, i32 9, !dbg !10158
  %48 = load i32, i32* %dofs_per_face, align 4, !dbg !10158
  %cmp50 = icmp ult i32 %45, %48, !dbg !10159
  br i1 %cmp50, label %for.body51, label %for.end84, !dbg !10160

for.body51:                                       ; preds = %for.cond48
  %call53 = invoke double @_ZN6dealii9Utilities11fixed_powerILi2EdEET0_S2_(double 5.000000e-01)
          to label %invoke.cont52 unwind label %lpad33, !dbg !10161

invoke.cont52:                                    ; preds = %for.body51
  %49 = load i32, i32* %k39, align 4, !dbg !10163
  %call55 = invoke double @_ZNK6dealii10QuadratureILi3EE6weightEj(%"class.dealii::Quadrature"* %q_sub, i32 %49)
          to label %invoke.cont54 unwind label %lpad33, !dbg !10164

invoke.cont54:                                    ; preds = %invoke.cont52
  %mul = fmul double %call53, %call55, !dbg !10165
  %50 = load i32, i32* %i_child, align 4, !dbg !10166
  %51 = load i32, i32* %k39, align 4, !dbg !10167
  %call57 = invoke dereferenceable(8) double* @_ZN6dealii5TableILi2EdEclEjj(%"class.dealii::Table"* %cached_values, i32 %50, i32 %51)
          to label %invoke.cont56 unwind label %lpad33, !dbg !10168

invoke.cont56:                                    ; preds = %invoke.cont54
  %52 = load double, double* %call57, align 8, !dbg !10168
  %mul58 = fmul double %mul, %52, !dbg !10169
  %53 = bitcast %"class.dealii::FE_ABF"* %this1 to %"class.dealii::FE_PolyTensor"*, !dbg !10170
  %54 = load i32, i32* %face, align 4, !dbg !10171
  %55 = bitcast %"class.dealii::FE_ABF"* %this1 to i8*, !dbg !10172
  %add.ptr59 = getelementptr inbounds i8, i8* %55, i64 72, !dbg !10172
  %56 = bitcast i8* %add.ptr59 to %"class.dealii::FiniteElementData"*, !dbg !10172
  %dofs_per_face60 = getelementptr inbounds %"class.dealii::FiniteElementData", %"class.dealii::FiniteElementData"* %56, i32 0, i32 9, !dbg !10172
  %57 = load i32, i32* %dofs_per_face60, align 4, !dbg !10172
  %mul61 = mul i32 %54, %57, !dbg !10173
  %58 = load i32, i32* %i_face, align 4, !dbg !10174
  %add62 = add i32 %mul61, %58, !dbg !10175
  %59 = load i32, i32* %k39, align 4, !dbg !10176
  %call64 = invoke dereferenceable(24) %"class.dealii::Point"* @_ZNK6dealii10QuadratureILi3EE5pointEj(%"class.dealii::Quadrature"* %q_sub, i32 %59)
          to label %invoke.cont63 unwind label %lpad33, !dbg !10177

invoke.cont63:                                    ; preds = %invoke.cont56
  %60 = load i32, i32* %face, align 4, !dbg !10178
  %idxprom65 = zext i32 %60 to i64, !dbg !10179
  %arrayidx66 = getelementptr inbounds [6 x i32], [6 x i32]* @_ZN6dealii12GeometryInfoILi3EE21unit_normal_directionE, i64 0, i64 %idxprom65, !dbg !10179
  %61 = load i32, i32* %arrayidx66, align 4, !dbg !10179
  %62 = bitcast %"class.dealii::FE_PolyTensor"* %53 to double (%"class.dealii::FE_PolyTensor"*, i32, %"class.dealii::Point"*, i32)***, !dbg !10170
  %vtable67 = load double (%"class.dealii::FE_PolyTensor"*, i32, %"class.dealii::Point"*, i32)**, double (%"class.dealii::FE_PolyTensor"*, i32, %"class.dealii::Point"*, i32)*** %62, align 8, !dbg !10170
  %vfn68 = getelementptr inbounds double (%"class.dealii::FE_PolyTensor"*, i32, %"class.dealii::Point"*, i32)*, double (%"class.dealii::FE_PolyTensor"*, i32, %"class.dealii::Point"*, i32)** %vtable67, i64 4, !dbg !10170
  %63 = load double (%"class.dealii::FE_PolyTensor"*, i32, %"class.dealii::Point"*, i32)*, double (%"class.dealii::FE_PolyTensor"*, i32, %"class.dealii::Point"*, i32)** %vfn68, align 8, !dbg !10170
  %call70 = invoke double %63(%"class.dealii::FE_PolyTensor"* %53, i32 %add62, %"class.dealii::Point"* dereferenceable(24) %call64, i32 %61)
          to label %invoke.cont69 unwind label %lpad33, !dbg !10170

invoke.cont69:                                    ; preds = %invoke.cont63
  %mul71 = fmul double %mul58, %call70, !dbg !10180
  %64 = bitcast %"class.dealii::FE_ABF"* %this1 to %"class.dealii::FiniteElement"*, !dbg !10181
  %restriction = getelementptr inbounds %"class.dealii::FiniteElement", %"class.dealii::FiniteElement"* %64, i32 0, i32 3, !dbg !10181
  %65 = load i32, i32* %iso, align 4, !dbg !10182
  %conv = zext i32 %65 to i64, !dbg !10182
  %call72 = call dereferenceable(24) %"class.std::vector.19"* @_ZNSt6vectorIS_IN6dealii10FullMatrixIdEESaIS2_EESaIS4_EEixEm(%"class.std::vector"* %restriction, i64 %conv) #4, !dbg !10183
  %66 = load i32, i32* %child, align 4, !dbg !10184
  %conv73 = zext i32 %66 to i64, !dbg !10184
  %call74 = call dereferenceable(96) %"class.dealii::FullMatrix"* @_ZNSt6vectorIN6dealii10FullMatrixIdEESaIS2_EEixEm(%"class.std::vector.19"* %call72, i64 %conv73) #4, !dbg !10183
  %67 = bitcast %"class.dealii::FullMatrix"* %call74 to %"class.dealii::Table"*, !dbg !10183
  %68 = load i32, i32* %face, align 4, !dbg !10185
  %69 = bitcast %"class.dealii::FE_ABF"* %this1 to i8*, !dbg !10186
  %add.ptr75 = getelementptr inbounds i8, i8* %69, i64 72, !dbg !10186
  %70 = bitcast i8* %add.ptr75 to %"class.dealii::FiniteElementData"*, !dbg !10186
  %dofs_per_face76 = getelementptr inbounds %"class.dealii::FiniteElementData", %"class.dealii::FiniteElementData"* %70, i32 0, i32 9, !dbg !10186
  %71 = load i32, i32* %dofs_per_face76, align 4, !dbg !10186
  %mul77 = mul i32 %68, %71, !dbg !10187
  %72 = load i32, i32* %i_face, align 4, !dbg !10188
  %add78 = add i32 %mul77, %72, !dbg !10189
  %73 = load i32, i32* %i_child, align 4, !dbg !10190
  %call80 = invoke dereferenceable(8) double* @_ZN6dealii5TableILi2EdEclEjj(%"class.dealii::Table"* %67, i32 %add78, i32 %73)
          to label %invoke.cont79 unwind label %lpad33, !dbg !10183

invoke.cont79:                                    ; preds = %invoke.cont69
  %74 = load double, double* %call80, align 8, !dbg !10191
  %add81 = fadd double %74, %mul71, !dbg !10191
  store double %add81, double* %call80, align 8, !dbg !10191
  br label %for.inc82, !dbg !10192

for.inc82:                                        ; preds = %invoke.cont79
  %75 = load i32, i32* %i_face, align 4, !dbg !10193
  %inc83 = add i32 %75, 1, !dbg !10193
  store i32 %inc83, i32* %i_face, align 4, !dbg !10193
  br label %for.cond48, !dbg !10194, !llvm.loop !10195

lpad33:                                           ; preds = %invoke.cont69, %invoke.cont63, %invoke.cont56, %invoke.cont54, %invoke.cont52, %for.body51, %invoke.cont36, %invoke.cont34, %invoke.cont31
  %76 = landingpad { i8*, i32 }
          cleanup, !dbg !10197
  %77 = extractvalue { i8*, i32 } %76, 0, !dbg !10197
  store i8* %77, i8** %exn.slot, align 8, !dbg !10197
  %78 = extractvalue { i8*, i32 } %76, 1, !dbg !10197
  store i32 %78, i32* %ehselector.slot, align 4, !dbg !10197
  call void @_ZN6dealii10QuadratureILi3EED1Ev(%"class.dealii::Quadrature"* %q_sub) #4, !dbg !10198
  br label %ehcleanup, !dbg !10198

for.end84:                                        ; preds = %for.cond48
  br label %for.inc85, !dbg !10196

for.inc85:                                        ; preds = %for.end84
  %79 = load i32, i32* %i_child, align 4, !dbg !10199
  %inc86 = add i32 %79, 1, !dbg !10199
  store i32 %inc86, i32* %i_child, align 4, !dbg !10199
  br label %for.cond43, !dbg !10200, !llvm.loop !10201

for.end87:                                        ; preds = %for.cond43
  br label %for.inc88, !dbg !10202

for.inc88:                                        ; preds = %for.end87
  %80 = load i32, i32* %k39, align 4, !dbg !10203
  %inc89 = add i32 %80, 1, !dbg !10203
  store i32 %inc89, i32* %k39, align 4, !dbg !10203
  br label %for.cond40, !dbg !10204, !llvm.loop !10205

for.end90:                                        ; preds = %for.cond40
  call void @_ZN6dealii10QuadratureILi3EED1Ev(%"class.dealii::Quadrature"* %q_sub) #4, !dbg !10198
  br label %for.inc91, !dbg !10207

for.inc91:                                        ; preds = %for.end90
  %81 = load i32, i32* %sub, align 4, !dbg !10208
  %inc92 = add i32 %81, 1, !dbg !10208
  store i32 %inc92, i32* %sub, align 4, !dbg !10208
  br label %for.cond27, !dbg !10209, !llvm.loop !10210

for.end93:                                        ; preds = %for.cond27
  call void @_ZN6dealii5TableILi2EdED2Ev(%"class.dealii::Table"* %cached_values) #4, !dbg !10212
  call void @_ZN6dealii10QuadratureILi3EED1Ev(%"class.dealii::Quadrature"* %q_face) #4, !dbg !10212
  br label %for.inc95, !dbg !10213

for.inc95:                                        ; preds = %for.end93
  %82 = load i32, i32* %face, align 4, !dbg !10214
  %inc96 = add i32 %82, 1, !dbg !10214
  store i32 %inc96, i32* %face, align 4, !dbg !10214
  br label %for.cond, !dbg !10215, !llvm.loop !10216

ehcleanup:                                        ; preds = %lpad33, %lpad8
  call void @_ZN6dealii5TableILi2EdED2Ev(%"class.dealii::Table"* %cached_values) #4, !dbg !10212
  br label %ehcleanup94, !dbg !10212

ehcleanup94:                                      ; preds = %ehcleanup, %lpad3
  call void @_ZN6dealii10QuadratureILi3EED1Ev(%"class.dealii::Quadrature"* %q_face) #4, !dbg !10212
  br label %ehcleanup271, !dbg !10212

for.end97:                                        ; preds = %for.cond
  %rt_order98 = getelementptr inbounds %"class.dealii::FE_ABF", %"class.dealii::FE_ABF"* %this1, i32 0, i32 1, !dbg !10218
  %83 = load i32, i32* %rt_order98, align 8, !dbg !10218
  %cmp99 = icmp eq i32 %83, 0, !dbg !10220
  br i1 %cmp99, label %if.then, label %if.end, !dbg !10221

if.then:                                          ; preds = %for.end97
  store i32 1, i32* %cleanup.dest.slot, align 4
  br label %cleanup, !dbg !10222

if.end:                                           ; preds = %for.end97
  call void @llvm.dbg.declare(metadata %"class.std::vector.128"* %polynomials, metadata !10223, metadata !DIExpression()), !dbg !10224
  call void @_ZNSaIPN6dealii22AnisotropicPolynomialsILi3EEEEC2Ev(%"class.std::allocator.130"* %ref.tmp100) #4, !dbg !10224
  invoke void @_ZNSt6vectorIPN6dealii22AnisotropicPolynomialsILi3EEESaIS3_EEC2EmRKS4_(%"class.std::vector.128"* %polynomials, i64 3, %"class.std::allocator.130"* dereferenceable(1) %ref.tmp100)
          to label %invoke.cont102 unwind label %lpad101, !dbg !10224

invoke.cont102:                                   ; preds = %if.end
  call void @_ZNSaIPN6dealii22AnisotropicPolynomialsILi3EEEED2Ev(%"class.std::allocator.130"* %ref.tmp100) #4, !dbg !10224
  call void @llvm.dbg.declare(metadata i32* %dd, metadata !10225, metadata !DIExpression()), !dbg !10227
  store i32 0, i32* %dd, align 4, !dbg !10227
  br label %for.cond104, !dbg !10228

for.cond104:                                      ; preds = %for.inc139, %invoke.cont102
  %84 = load i32, i32* %dd, align 4, !dbg !10229
  %cmp105 = icmp ult i32 %84, 3, !dbg !10231
  br i1 %cmp105, label %for.body106, label %for.end141, !dbg !10232

for.body106:                                      ; preds = %for.cond104
  call void @llvm.dbg.declare(metadata %"class.std::vector.72"* %poly, metadata !10233, metadata !DIExpression()), !dbg !10235
  call void @_ZNSaISt6vectorIN6dealii11Polynomials10PolynomialIdEESaIS3_EEEC2Ev(%"class.std::allocator.74"* %ref.tmp107) #4, !dbg !10235
  invoke void @_ZNSt6vectorIS_IN6dealii11Polynomials10PolynomialIdEESaIS3_EESaIS5_EEC2EmRKS6_(%"class.std::vector.72"* %poly, i64 3, %"class.std::allocator.74"* dereferenceable(1) %ref.tmp107)
          to label %invoke.cont109 unwind label %lpad108, !dbg !10235

invoke.cont109:                                   ; preds = %for.body106
  call void @_ZNSaISt6vectorIN6dealii11Polynomials10PolynomialIdEESaIS3_EEED2Ev(%"class.std::allocator.74"* %ref.tmp107) #4, !dbg !10235
  call void @llvm.dbg.declare(metadata i32* %d, metadata !10236, metadata !DIExpression()), !dbg !10238
  store i32 0, i32* %d, align 4, !dbg !10238
  br label %for.cond111, !dbg !10239

for.cond111:                                      ; preds = %for.inc121, %invoke.cont109
  %85 = load i32, i32* %d, align 4, !dbg !10240
  %cmp112 = icmp ult i32 %85, 3, !dbg !10242
  br i1 %cmp112, label %for.body113, label %for.end123, !dbg !10243

for.body113:                                      ; preds = %for.cond111
  %rt_order115 = getelementptr inbounds %"class.dealii::FE_ABF", %"class.dealii::FE_ABF"* %this1, i32 0, i32 1, !dbg !10244
  %86 = load i32, i32* %rt_order115, align 8, !dbg !10244
  invoke void @_ZN6dealii11Polynomials8Legendre23generate_complete_basisEj(%"class.std::vector.77"* sret %ref.tmp114, i32 %86)
          to label %invoke.cont117 unwind label %lpad116, !dbg !10245

invoke.cont117:                                   ; preds = %for.body113
  %87 = load i32, i32* %d, align 4, !dbg !10246
  %conv118 = zext i32 %87 to i64, !dbg !10246
  %call119 = call dereferenceable(24) %"class.std::vector.77"* @_ZNSt6vectorIS_IN6dealii11Polynomials10PolynomialIdEESaIS3_EESaIS5_EEixEm(%"class.std::vector.72"* %poly, i64 %conv118) #4, !dbg !10247
  %call120 = call dereferenceable(24) %"class.std::vector.77"* @_ZNSt6vectorIN6dealii11Polynomials10PolynomialIdEESaIS3_EEaSEOS5_(%"class.std::vector.77"* %call119, %"class.std::vector.77"* dereferenceable(24) %ref.tmp114) #4, !dbg !10248
  call void @_ZNSt6vectorIN6dealii11Polynomials10PolynomialIdEESaIS3_EED2Ev(%"class.std::vector.77"* %ref.tmp114) #4, !dbg !10247
  br label %for.inc121, !dbg !10247

for.inc121:                                       ; preds = %invoke.cont117
  %88 = load i32, i32* %d, align 4, !dbg !10249
  %inc122 = add i32 %88, 1, !dbg !10249
  store i32 %inc122, i32* %d, align 4, !dbg !10249
  br label %for.cond111, !dbg !10250, !llvm.loop !10251

lpad101:                                          ; preds = %if.end
  %89 = landingpad { i8*, i32 }
          cleanup, !dbg !10106
  %90 = extractvalue { i8*, i32 } %89, 0, !dbg !10106
  store i8* %90, i8** %exn.slot, align 8, !dbg !10106
  %91 = extractvalue { i8*, i32 } %89, 1, !dbg !10106
  store i32 %91, i32* %ehselector.slot, align 4, !dbg !10106
  call void @_ZNSaIPN6dealii22AnisotropicPolynomialsILi3EEEED2Ev(%"class.std::allocator.130"* %ref.tmp100) #4, !dbg !10224
  br label %ehcleanup271, !dbg !10224

lpad108:                                          ; preds = %for.body106
  %92 = landingpad { i8*, i32 }
          cleanup, !dbg !10253
  %93 = extractvalue { i8*, i32 } %92, 0, !dbg !10253
  store i8* %93, i8** %exn.slot, align 8, !dbg !10253
  %94 = extractvalue { i8*, i32 } %92, 1, !dbg !10253
  store i32 %94, i32* %ehselector.slot, align 4, !dbg !10253
  call void @_ZNSaISt6vectorIN6dealii11Polynomials10PolynomialIdEESaIS3_EEED2Ev(%"class.std::allocator.74"* %ref.tmp107) #4, !dbg !10235
  br label %ehcleanup270, !dbg !10235

lpad116:                                          ; preds = %invoke.cont127, %for.end123, %for.body113
  %95 = landingpad { i8*, i32 }
          cleanup, !dbg !10254
  %96 = extractvalue { i8*, i32 } %95, 0, !dbg !10254
  store i8* %96, i8** %exn.slot, align 8, !dbg !10254
  %97 = extractvalue { i8*, i32 } %95, 1, !dbg !10254
  store i32 %97, i32* %ehselector.slot, align 4, !dbg !10254
  br label %ehcleanup138, !dbg !10254

for.end123:                                       ; preds = %for.cond111
  %rt_order125 = getelementptr inbounds %"class.dealii::FE_ABF", %"class.dealii::FE_ABF"* %this1, i32 0, i32 1, !dbg !10255
  %98 = load i32, i32* %rt_order125, align 8, !dbg !10255
  %sub126 = sub i32 %98, 1, !dbg !10256
  invoke void @_ZN6dealii11Polynomials8Legendre23generate_complete_basisEj(%"class.std::vector.77"* sret %ref.tmp124, i32 %sub126)
          to label %invoke.cont127 unwind label %lpad116, !dbg !10257

invoke.cont127:                                   ; preds = %for.end123
  %99 = load i32, i32* %dd, align 4, !dbg !10258
  %conv128 = zext i32 %99 to i64, !dbg !10258
  %call129 = call dereferenceable(24) %"class.std::vector.77"* @_ZNSt6vectorIS_IN6dealii11Polynomials10PolynomialIdEESaIS3_EESaIS5_EEixEm(%"class.std::vector.72"* %poly, i64 %conv128) #4, !dbg !10259
  %call130 = call dereferenceable(24) %"class.std::vector.77"* @_ZNSt6vectorIN6dealii11Polynomials10PolynomialIdEESaIS3_EEaSEOS5_(%"class.std::vector.77"* %call129, %"class.std::vector.77"* dereferenceable(24) %ref.tmp124) #4, !dbg !10260
  call void @_ZNSt6vectorIN6dealii11Polynomials10PolynomialIdEESaIS3_EED2Ev(%"class.std::vector.77"* %ref.tmp124) #4, !dbg !10259
  %call132 = invoke i8* @_Znwm(i64 32) #13
          to label %invoke.cont131 unwind label %lpad116, !dbg !10261

invoke.cont131:                                   ; preds = %invoke.cont127
  %100 = bitcast i8* %call132 to %"class.dealii::AnisotropicPolynomials"*, !dbg !10261
  invoke void @_ZN6dealii22AnisotropicPolynomialsILi3EEC1ERKSt6vectorIS2_INS_11Polynomials10PolynomialIdEESaIS5_EESaIS7_EE(%"class.dealii::AnisotropicPolynomials"* %100, %"class.std::vector.72"* dereferenceable(24) %poly)
          to label %invoke.cont134 unwind label %lpad133, !dbg !10262

invoke.cont134:                                   ; preds = %invoke.cont131
  %101 = load i32, i32* %dd, align 4, !dbg !10263
  %conv136 = zext i32 %101 to i64, !dbg !10263
  %call137 = call dereferenceable(8) %"class.dealii::AnisotropicPolynomials"** @_ZNSt6vectorIPN6dealii22AnisotropicPolynomialsILi3EEESaIS3_EEixEm(%"class.std::vector.128"* %polynomials, i64 %conv136) #4, !dbg !10264
  store %"class.dealii::AnisotropicPolynomials"* %100, %"class.dealii::AnisotropicPolynomials"** %call137, align 8, !dbg !10265
  call void @_ZNSt6vectorIS_IN6dealii11Polynomials10PolynomialIdEESaIS3_EESaIS5_EED2Ev(%"class.std::vector.72"* %poly) #4, !dbg !10266
  br label %for.inc139, !dbg !10267

for.inc139:                                       ; preds = %invoke.cont134
  %102 = load i32, i32* %dd, align 4, !dbg !10268
  %inc140 = add i32 %102, 1, !dbg !10268
  store i32 %inc140, i32* %dd, align 4, !dbg !10268
  br label %for.cond104, !dbg !10269, !llvm.loop !10270

lpad133:                                          ; preds = %invoke.cont131
  %103 = landingpad { i8*, i32 }
          cleanup, !dbg !10253
  %104 = extractvalue { i8*, i32 } %103, 0, !dbg !10253
  store i8* %104, i8** %exn.slot, align 8, !dbg !10253
  %105 = extractvalue { i8*, i32 } %103, 1, !dbg !10253
  store i32 %105, i32* %ehselector.slot, align 4, !dbg !10253
  call void @_ZdlPv(i8* %call132) #14, !dbg !10261
  br label %ehcleanup138, !dbg !10261

ehcleanup138:                                     ; preds = %lpad133, %lpad116
  call void @_ZNSt6vectorIS_IN6dealii11Polynomials10PolynomialIdEESaIS3_EESaIS5_EED2Ev(%"class.std::vector.72"* %poly) #4, !dbg !10266
  br label %ehcleanup270, !dbg !10266

for.end141:                                       ; preds = %for.cond104
  call void @llvm.dbg.declare(metadata %"class.dealii::QGauss"* %q_cell, metadata !10272, metadata !DIExpression()), !dbg !10273
  %rt_order142 = getelementptr inbounds %"class.dealii::FE_ABF", %"class.dealii::FE_ABF"* %this1, i32 0, i32 1, !dbg !10274
  %106 = load i32, i32* %rt_order142, align 8, !dbg !10274
  %add143 = add i32 %106, 1, !dbg !10275
  invoke void @_ZN6dealii6QGaussILi3EEC1Ej(%"class.dealii::QGauss"* %q_cell, i32 %add143)
          to label %invoke.cont145 unwind label %lpad144, !dbg !10273

invoke.cont145:                                   ; preds = %for.end141
  call void @llvm.dbg.declare(metadata i32* %start_cell_dofs, metadata !10276, metadata !DIExpression()), !dbg !10277
  %107 = bitcast %"class.dealii::FE_ABF"* %this1 to i8*, !dbg !10278
  %add.ptr146 = getelementptr inbounds i8, i8* %107, i64 72, !dbg !10278
  %108 = bitcast i8* %add.ptr146 to %"class.dealii::FiniteElementData"*, !dbg !10278
  %dofs_per_face147 = getelementptr inbounds %"class.dealii::FiniteElementData", %"class.dealii::FiniteElementData"* %108, i32 0, i32 9, !dbg !10278
  %109 = load i32, i32* %dofs_per_face147, align 4, !dbg !10278
  %mul148 = mul i32 6, %109, !dbg !10279
  store i32 %mul148, i32* %start_cell_dofs, align 4, !dbg !10277
  call void @llvm.dbg.declare(metadata %"class.dealii::Table.104"* %cached_values149, metadata !10280, metadata !DIExpression()), !dbg !10281
  %110 = bitcast %"class.dealii::FE_ABF"* %this1 to i8*, !dbg !10282
  %add.ptr150 = getelementptr inbounds i8, i8* %110, i64 72, !dbg !10282
  %111 = bitcast i8* %add.ptr150 to %"class.dealii::FiniteElementData"*, !dbg !10282
  %dofs_per_cell151 = getelementptr inbounds %"class.dealii::FiniteElementData", %"class.dealii::FiniteElementData"* %111, i32 0, i32 10, !dbg !10282
  %112 = load i32, i32* %dofs_per_cell151, align 8, !dbg !10282
  %113 = bitcast %"class.dealii::QGauss"* %q_cell to %"class.dealii::Quadrature"*, !dbg !10283
  %call154 = invoke i32 @_ZNK6dealii10QuadratureILi3EE4sizeEv(%"class.dealii::Quadrature"* %113)
          to label %invoke.cont153 unwind label %lpad152, !dbg !10284

invoke.cont153:                                   ; preds = %invoke.cont145
  invoke void @_ZN6dealii5TableILi3EdEC2Ejjj(%"class.dealii::Table.104"* %cached_values149, i32 %112, i32 %call154, i32 3)
          to label %invoke.cont155 unwind label %lpad152, !dbg !10281

invoke.cont155:                                   ; preds = %invoke.cont153
  call void @llvm.dbg.declare(metadata i32* %k156, metadata !10285, metadata !DIExpression()), !dbg !10287
  store i32 0, i32* %k156, align 4, !dbg !10287
  br label %for.cond157, !dbg !10288

for.cond157:                                      ; preds = %for.inc187, %invoke.cont155
  %114 = load i32, i32* %k156, align 4, !dbg !10289
  %115 = bitcast %"class.dealii::QGauss"* %q_cell to %"class.dealii::Quadrature"*, !dbg !10291
  %call160 = invoke i32 @_ZNK6dealii10QuadratureILi3EE4sizeEv(%"class.dealii::Quadrature"* %115)
          to label %invoke.cont159 unwind label %lpad158, !dbg !10292

invoke.cont159:                                   ; preds = %for.cond157
  %cmp161 = icmp ult i32 %114, %call160, !dbg !10293
  br i1 %cmp161, label %for.body162, label %for.end189, !dbg !10294

for.body162:                                      ; preds = %invoke.cont159
  call void @llvm.dbg.declare(metadata i32* %i163, metadata !10295, metadata !DIExpression()), !dbg !10297
  store i32 0, i32* %i163, align 4, !dbg !10297
  br label %for.cond164, !dbg !10298

for.cond164:                                      ; preds = %for.inc184, %for.body162
  %116 = load i32, i32* %i163, align 4, !dbg !10299
  %117 = bitcast %"class.dealii::FE_ABF"* %this1 to i8*, !dbg !10301
  %add.ptr165 = getelementptr inbounds i8, i8* %117, i64 72, !dbg !10301
  %118 = bitcast i8* %add.ptr165 to %"class.dealii::FiniteElementData"*, !dbg !10301
  %dofs_per_cell166 = getelementptr inbounds %"class.dealii::FiniteElementData", %"class.dealii::FiniteElementData"* %118, i32 0, i32 10, !dbg !10301
  %119 = load i32, i32* %dofs_per_cell166, align 8, !dbg !10301
  %cmp167 = icmp ult i32 %116, %119, !dbg !10302
  br i1 %cmp167, label %for.body168, label %for.end186, !dbg !10303

for.body168:                                      ; preds = %for.cond164
  call void @llvm.dbg.declare(metadata i32* %d169, metadata !10304, metadata !DIExpression()), !dbg !10306
  store i32 0, i32* %d169, align 4, !dbg !10306
  br label %for.cond170, !dbg !10307

for.cond170:                                      ; preds = %for.inc181, %for.body168
  %120 = load i32, i32* %d169, align 4, !dbg !10308
  %cmp171 = icmp ult i32 %120, 3, !dbg !10310
  br i1 %cmp171, label %for.body172, label %for.end183, !dbg !10311

for.body172:                                      ; preds = %for.cond170
  %121 = bitcast %"class.dealii::FE_ABF"* %this1 to %"class.dealii::FE_PolyTensor"*, !dbg !10312
  %122 = load i32, i32* %i163, align 4, !dbg !10313
  %123 = bitcast %"class.dealii::QGauss"* %q_cell to %"class.dealii::Quadrature"*, !dbg !10314
  %124 = load i32, i32* %k156, align 4, !dbg !10315
  %call174 = invoke dereferenceable(24) %"class.dealii::Point"* @_ZNK6dealii10QuadratureILi3EE5pointEj(%"class.dealii::Quadrature"* %123, i32 %124)
          to label %invoke.cont173 unwind label %lpad158, !dbg !10316

invoke.cont173:                                   ; preds = %for.body172
  %125 = load i32, i32* %d169, align 4, !dbg !10317
  %126 = bitcast %"class.dealii::FE_PolyTensor"* %121 to double (%"class.dealii::FE_PolyTensor"*, i32, %"class.dealii::Point"*, i32)***, !dbg !10312
  %vtable175 = load double (%"class.dealii::FE_PolyTensor"*, i32, %"class.dealii::Point"*, i32)**, double (%"class.dealii::FE_PolyTensor"*, i32, %"class.dealii::Point"*, i32)*** %126, align 8, !dbg !10312
  %vfn176 = getelementptr inbounds double (%"class.dealii::FE_PolyTensor"*, i32, %"class.dealii::Point"*, i32)*, double (%"class.dealii::FE_PolyTensor"*, i32, %"class.dealii::Point"*, i32)** %vtable175, i64 4, !dbg !10312
  %127 = load double (%"class.dealii::FE_PolyTensor"*, i32, %"class.dealii::Point"*, i32)*, double (%"class.dealii::FE_PolyTensor"*, i32, %"class.dealii::Point"*, i32)** %vfn176, align 8, !dbg !10312
  %call178 = invoke double %127(%"class.dealii::FE_PolyTensor"* %121, i32 %122, %"class.dealii::Point"* dereferenceable(24) %call174, i32 %125)
          to label %invoke.cont177 unwind label %lpad158, !dbg !10312

invoke.cont177:                                   ; preds = %invoke.cont173
  %128 = load i32, i32* %i163, align 4, !dbg !10318
  %129 = load i32, i32* %k156, align 4, !dbg !10319
  %130 = load i32, i32* %d169, align 4, !dbg !10320
  %call180 = invoke dereferenceable(8) double* @_ZN6dealii5TableILi3EdEclEjjj(%"class.dealii::Table.104"* %cached_values149, i32 %128, i32 %129, i32 %130)
          to label %invoke.cont179 unwind label %lpad158, !dbg !10321

invoke.cont179:                                   ; preds = %invoke.cont177
  store double %call178, double* %call180, align 8, !dbg !10322
  br label %for.inc181, !dbg !10321

for.inc181:                                       ; preds = %invoke.cont179
  %131 = load i32, i32* %d169, align 4, !dbg !10323
  %inc182 = add i32 %131, 1, !dbg !10323
  store i32 %inc182, i32* %d169, align 4, !dbg !10323
  br label %for.cond170, !dbg !10324, !llvm.loop !10325

lpad144:                                          ; preds = %for.end141
  %132 = landingpad { i8*, i32 }
          cleanup, !dbg !10106
  %133 = extractvalue { i8*, i32 } %132, 0, !dbg !10106
  store i8* %133, i8** %exn.slot, align 8, !dbg !10106
  %134 = extractvalue { i8*, i32 } %132, 1, !dbg !10106
  store i32 %134, i32* %ehselector.slot, align 4, !dbg !10106
  br label %ehcleanup270, !dbg !10106

lpad152:                                          ; preds = %invoke.cont153, %invoke.cont145
  %135 = landingpad { i8*, i32 }
          cleanup, !dbg !10106
  %136 = extractvalue { i8*, i32 } %135, 0, !dbg !10106
  store i8* %136, i8** %exn.slot, align 8, !dbg !10106
  %137 = extractvalue { i8*, i32 } %135, 1, !dbg !10106
  store i32 %137, i32* %ehselector.slot, align 4, !dbg !10106
  br label %ehcleanup269, !dbg !10106

lpad158:                                          ; preds = %for.body193, %invoke.cont177, %invoke.cont173, %for.body172, %for.cond157
  %138 = landingpad { i8*, i32 }
          cleanup, !dbg !10327
  %139 = extractvalue { i8*, i32 } %138, 0, !dbg !10327
  store i8* %139, i8** %exn.slot, align 8, !dbg !10327
  %140 = extractvalue { i8*, i32 } %138, 1, !dbg !10327
  store i32 %140, i32* %ehselector.slot, align 4, !dbg !10327
  br label %ehcleanup268, !dbg !10327

for.end183:                                       ; preds = %for.cond170
  br label %for.inc184, !dbg !10326

for.inc184:                                       ; preds = %for.end183
  %141 = load i32, i32* %i163, align 4, !dbg !10328
  %inc185 = add i32 %141, 1, !dbg !10328
  store i32 %inc185, i32* %i163, align 4, !dbg !10328
  br label %for.cond164, !dbg !10329, !llvm.loop !10330

for.end186:                                       ; preds = %for.cond164
  br label %for.inc187, !dbg !10331

for.inc187:                                       ; preds = %for.end186
  %142 = load i32, i32* %k156, align 4, !dbg !10332
  %inc188 = add i32 %142, 1, !dbg !10332
  store i32 %inc188, i32* %k156, align 4, !dbg !10332
  br label %for.cond157, !dbg !10333, !llvm.loop !10334

for.end189:                                       ; preds = %invoke.cont159
  call void @llvm.dbg.declare(metadata i32* %child190, metadata !10336, metadata !DIExpression()), !dbg !10338
  store i32 0, i32* %child190, align 4, !dbg !10338
  br label %for.cond191, !dbg !10339

for.cond191:                                      ; preds = %for.inc256, %for.end189
  %143 = load i32, i32* %child190, align 4, !dbg !10340
  %cmp192 = icmp ult i32 %143, 8, !dbg !10342
  br i1 %cmp192, label %for.body193, label %for.end258, !dbg !10343

for.body193:                                      ; preds = %for.cond191
  call void @llvm.dbg.declare(metadata %"class.dealii::Quadrature"* %q_sub194, metadata !10344, metadata !DIExpression()), !dbg !10346
  %144 = bitcast %"class.dealii::QGauss"* %q_cell to %"class.dealii::Quadrature"*, !dbg !10347
  %145 = load i32, i32* %child190, align 4, !dbg !10348
  invoke void @_ZN6dealii10QProjectorILi3EE16project_to_childERKNS_10QuadratureILi3EEEj(%"class.dealii::Quadrature"* sret %q_sub194, %"class.dealii::Quadrature"* dereferenceable(128) %144, i32 %145)
          to label %invoke.cont195 unwind label %lpad158, !dbg !10349

invoke.cont195:                                   ; preds = %for.body193
  call void @llvm.dbg.declare(metadata i32* %k196, metadata !10350, metadata !DIExpression()), !dbg !10352
  store i32 0, i32* %k196, align 4, !dbg !10352
  br label %for.cond197, !dbg !10353

for.cond197:                                      ; preds = %for.inc252, %invoke.cont195
  %146 = load i32, i32* %k196, align 4, !dbg !10354
  %call200 = invoke i32 @_ZNK6dealii10QuadratureILi3EE4sizeEv(%"class.dealii::Quadrature"* %q_sub194)
          to label %invoke.cont199 unwind label %lpad198, !dbg !10356

invoke.cont199:                                   ; preds = %for.cond197
  %cmp201 = icmp ult i32 %146, %call200, !dbg !10357
  br i1 %cmp201, label %for.body202, label %for.end254, !dbg !10358

for.body202:                                      ; preds = %invoke.cont199
  call void @llvm.dbg.declare(metadata i32* %i_child203, metadata !10359, metadata !DIExpression()), !dbg !10361
  store i32 0, i32* %i_child203, align 4, !dbg !10361
  br label %for.cond204, !dbg !10362

for.cond204:                                      ; preds = %for.inc249, %for.body202
  %147 = load i32, i32* %i_child203, align 4, !dbg !10363
  %148 = bitcast %"class.dealii::FE_ABF"* %this1 to i8*, !dbg !10365
  %add.ptr205 = getelementptr inbounds i8, i8* %148, i64 72, !dbg !10365
  %149 = bitcast i8* %add.ptr205 to %"class.dealii::FiniteElementData"*, !dbg !10365
  %dofs_per_cell206 = getelementptr inbounds %"class.dealii::FiniteElementData", %"class.dealii::FiniteElementData"* %149, i32 0, i32 10, !dbg !10365
  %150 = load i32, i32* %dofs_per_cell206, align 8, !dbg !10365
  %cmp207 = icmp ult i32 %147, %150, !dbg !10366
  br i1 %cmp207, label %for.body208, label %for.end251, !dbg !10367

for.body208:                                      ; preds = %for.cond204
  call void @llvm.dbg.declare(metadata i32* %d209, metadata !10368, metadata !DIExpression()), !dbg !10370
  store i32 0, i32* %d209, align 4, !dbg !10370
  br label %for.cond210, !dbg !10371

for.cond210:                                      ; preds = %for.inc246, %for.body208
  %151 = load i32, i32* %d209, align 4, !dbg !10372
  %cmp211 = icmp ult i32 %151, 3, !dbg !10374
  br i1 %cmp211, label %for.body212, label %for.end248, !dbg !10375

for.body212:                                      ; preds = %for.cond210
  call void @llvm.dbg.declare(metadata i32* %i_weight, metadata !10376, metadata !DIExpression()), !dbg !10378
  store i32 0, i32* %i_weight, align 4, !dbg !10378
  br label %for.cond213, !dbg !10379

for.cond213:                                      ; preds = %for.inc243, %for.body212
  %152 = load i32, i32* %i_weight, align 4, !dbg !10380
  %153 = load i32, i32* %d209, align 4, !dbg !10382
  %conv214 = zext i32 %153 to i64, !dbg !10382
  %call215 = call dereferenceable(8) %"class.dealii::AnisotropicPolynomials"** @_ZNSt6vectorIPN6dealii22AnisotropicPolynomialsILi3EEESaIS3_EEixEm(%"class.std::vector.128"* %polynomials, i64 %conv214) #4, !dbg !10383
  %154 = load %"class.dealii::AnisotropicPolynomials"*, %"class.dealii::AnisotropicPolynomials"** %call215, align 8, !dbg !10383
  %call217 = invoke i32 @_ZNK6dealii22AnisotropicPolynomialsILi3EE1nEv(%"class.dealii::AnisotropicPolynomials"* %154)
          to label %invoke.cont216 unwind label %lpad198, !dbg !10384

invoke.cont216:                                   ; preds = %for.cond213
  %cmp218 = icmp ult i32 %152, %call217, !dbg !10385
  br i1 %cmp218, label %for.body219, label %for.end245, !dbg !10386

for.body219:                                      ; preds = %invoke.cont216
  %155 = load i32, i32* %k196, align 4, !dbg !10387
  %call221 = invoke double @_ZNK6dealii10QuadratureILi3EE6weightEj(%"class.dealii::Quadrature"* %q_sub194, i32 %155)
          to label %invoke.cont220 unwind label %lpad198, !dbg !10389

invoke.cont220:                                   ; preds = %for.body219
  %156 = load i32, i32* %i_child203, align 4, !dbg !10390
  %157 = load i32, i32* %k196, align 4, !dbg !10391
  %158 = load i32, i32* %d209, align 4, !dbg !10392
  %call223 = invoke dereferenceable(8) double* @_ZN6dealii5TableILi3EdEclEjjj(%"class.dealii::Table.104"* %cached_values149, i32 %156, i32 %157, i32 %158)
          to label %invoke.cont222 unwind label %lpad198, !dbg !10393

invoke.cont222:                                   ; preds = %invoke.cont220
  %159 = load double, double* %call223, align 8, !dbg !10393
  %mul224 = fmul double %call221, %159, !dbg !10394
  %160 = load i32, i32* %d209, align 4, !dbg !10395
  %conv225 = zext i32 %160 to i64, !dbg !10395
  %call226 = call dereferenceable(8) %"class.dealii::AnisotropicPolynomials"** @_ZNSt6vectorIPN6dealii22AnisotropicPolynomialsILi3EEESaIS3_EEixEm(%"class.std::vector.128"* %polynomials, i64 %conv225) #4, !dbg !10396
  %161 = load %"class.dealii::AnisotropicPolynomials"*, %"class.dealii::AnisotropicPolynomials"** %call226, align 8, !dbg !10396
  %162 = load i32, i32* %i_weight, align 4, !dbg !10397
  %163 = load i32, i32* %k196, align 4, !dbg !10398
  %call228 = invoke dereferenceable(24) %"class.dealii::Point"* @_ZNK6dealii10QuadratureILi3EE5pointEj(%"class.dealii::Quadrature"* %q_sub194, i32 %163)
          to label %invoke.cont227 unwind label %lpad198, !dbg !10399

invoke.cont227:                                   ; preds = %invoke.cont222
  %call230 = invoke double @_ZNK6dealii22AnisotropicPolynomialsILi3EE13compute_valueEjRKNS_5PointILi3EEE(%"class.dealii::AnisotropicPolynomials"* %161, i32 %162, %"class.dealii::Point"* dereferenceable(24) %call228)
          to label %invoke.cont229 unwind label %lpad198, !dbg !10400

invoke.cont229:                                   ; preds = %invoke.cont227
  %mul231 = fmul double %mul224, %call230, !dbg !10401
  %164 = bitcast %"class.dealii::FE_ABF"* %this1 to %"class.dealii::FiniteElement"*, !dbg !10402
  %restriction232 = getelementptr inbounds %"class.dealii::FiniteElement", %"class.dealii::FiniteElement"* %164, i32 0, i32 3, !dbg !10402
  %165 = load i32, i32* %iso, align 4, !dbg !10403
  %conv233 = zext i32 %165 to i64, !dbg !10403
  %call234 = call dereferenceable(24) %"class.std::vector.19"* @_ZNSt6vectorIS_IN6dealii10FullMatrixIdEESaIS2_EESaIS4_EEixEm(%"class.std::vector"* %restriction232, i64 %conv233) #4, !dbg !10404
  %166 = load i32, i32* %child190, align 4, !dbg !10405
  %conv235 = zext i32 %166 to i64, !dbg !10405
  %call236 = call dereferenceable(96) %"class.dealii::FullMatrix"* @_ZNSt6vectorIN6dealii10FullMatrixIdEESaIS2_EEixEm(%"class.std::vector.19"* %call234, i64 %conv235) #4, !dbg !10404
  %167 = bitcast %"class.dealii::FullMatrix"* %call236 to %"class.dealii::Table"*, !dbg !10404
  %168 = load i32, i32* %start_cell_dofs, align 4, !dbg !10406
  %169 = load i32, i32* %i_weight, align 4, !dbg !10407
  %mul237 = mul i32 %169, 3, !dbg !10408
  %add238 = add i32 %168, %mul237, !dbg !10409
  %170 = load i32, i32* %d209, align 4, !dbg !10410
  %add239 = add i32 %add238, %170, !dbg !10411
  %171 = load i32, i32* %i_child203, align 4, !dbg !10412
  %call241 = invoke dereferenceable(8) double* @_ZN6dealii5TableILi2EdEclEjj(%"class.dealii::Table"* %167, i32 %add239, i32 %171)
          to label %invoke.cont240 unwind label %lpad198, !dbg !10404

invoke.cont240:                                   ; preds = %invoke.cont229
  %172 = load double, double* %call241, align 8, !dbg !10413
  %add242 = fadd double %172, %mul231, !dbg !10413
  store double %add242, double* %call241, align 8, !dbg !10413
  br label %for.inc243, !dbg !10414

for.inc243:                                       ; preds = %invoke.cont240
  %173 = load i32, i32* %i_weight, align 4, !dbg !10415
  %inc244 = add i32 %173, 1, !dbg !10415
  store i32 %inc244, i32* %i_weight, align 4, !dbg !10415
  br label %for.cond213, !dbg !10416, !llvm.loop !10417

lpad198:                                          ; preds = %invoke.cont229, %invoke.cont227, %invoke.cont222, %invoke.cont220, %for.body219, %for.cond213, %for.cond197
  %174 = landingpad { i8*, i32 }
          cleanup, !dbg !10419
  %175 = extractvalue { i8*, i32 } %174, 0, !dbg !10419
  store i8* %175, i8** %exn.slot, align 8, !dbg !10419
  %176 = extractvalue { i8*, i32 } %174, 1, !dbg !10419
  store i32 %176, i32* %ehselector.slot, align 4, !dbg !10419
  call void @_ZN6dealii10QuadratureILi3EED1Ev(%"class.dealii::Quadrature"* %q_sub194) #4, !dbg !10420
  br label %ehcleanup268, !dbg !10420

for.end245:                                       ; preds = %invoke.cont216
  br label %for.inc246, !dbg !10418

for.inc246:                                       ; preds = %for.end245
  %177 = load i32, i32* %d209, align 4, !dbg !10421
  %inc247 = add i32 %177, 1, !dbg !10421
  store i32 %inc247, i32* %d209, align 4, !dbg !10421
  br label %for.cond210, !dbg !10422, !llvm.loop !10423

for.end248:                                       ; preds = %for.cond210
  br label %for.inc249, !dbg !10424

for.inc249:                                       ; preds = %for.end248
  %178 = load i32, i32* %i_child203, align 4, !dbg !10425
  %inc250 = add i32 %178, 1, !dbg !10425
  store i32 %inc250, i32* %i_child203, align 4, !dbg !10425
  br label %for.cond204, !dbg !10426, !llvm.loop !10427

for.end251:                                       ; preds = %for.cond204
  br label %for.inc252, !dbg !10428

for.inc252:                                       ; preds = %for.end251
  %179 = load i32, i32* %k196, align 4, !dbg !10429
  %inc253 = add i32 %179, 1, !dbg !10429
  store i32 %inc253, i32* %k196, align 4, !dbg !10429
  br label %for.cond197, !dbg !10430, !llvm.loop !10431

for.end254:                                       ; preds = %invoke.cont199
  call void @_ZN6dealii10QuadratureILi3EED1Ev(%"class.dealii::Quadrature"* %q_sub194) #4, !dbg !10420
  br label %for.inc256, !dbg !10433

for.inc256:                                       ; preds = %for.end254
  %180 = load i32, i32* %child190, align 4, !dbg !10434
  %inc257 = add i32 %180, 1, !dbg !10434
  store i32 %inc257, i32* %child190, align 4, !dbg !10434
  br label %for.cond191, !dbg !10435, !llvm.loop !10436

for.end258:                                       ; preds = %for.cond191
  call void @llvm.dbg.declare(metadata i32* %d259, metadata !10438, metadata !DIExpression()), !dbg !10440
  store i32 0, i32* %d259, align 4, !dbg !10440
  br label %for.cond260, !dbg !10441

for.cond260:                                      ; preds = %for.inc265, %for.end258
  %181 = load i32, i32* %d259, align 4, !dbg !10442
  %cmp261 = icmp ult i32 %181, 3, !dbg !10444
  br i1 %cmp261, label %for.body262, label %for.end267, !dbg !10445

for.body262:                                      ; preds = %for.cond260
  %182 = load i32, i32* %d259, align 4, !dbg !10446
  %conv263 = zext i32 %182 to i64, !dbg !10446
  %call264 = call dereferenceable(8) %"class.dealii::AnisotropicPolynomials"** @_ZNSt6vectorIPN6dealii22AnisotropicPolynomialsILi3EEESaIS3_EEixEm(%"class.std::vector.128"* %polynomials, i64 %conv263) #4, !dbg !10447
  %183 = load %"class.dealii::AnisotropicPolynomials"*, %"class.dealii::AnisotropicPolynomials"** %call264, align 8, !dbg !10447
  %isnull = icmp eq %"class.dealii::AnisotropicPolynomials"* %183, null, !dbg !10448
  br i1 %isnull, label %delete.end, label %delete.notnull, !dbg !10448

delete.notnull:                                   ; preds = %for.body262
  call void @_ZN6dealii22AnisotropicPolynomialsILi3EED2Ev(%"class.dealii::AnisotropicPolynomials"* %183) #4, !dbg !10448
  %184 = bitcast %"class.dealii::AnisotropicPolynomials"* %183 to i8*, !dbg !10448
  call void @_ZdlPv(i8* %184) #14, !dbg !10448
  br label %delete.end, !dbg !10448

delete.end:                                       ; preds = %delete.notnull, %for.body262
  br label %for.inc265, !dbg !10448

for.inc265:                                       ; preds = %delete.end
  %185 = load i32, i32* %d259, align 4, !dbg !10449
  %inc266 = add i32 %185, 1, !dbg !10449
  store i32 %inc266, i32* %d259, align 4, !dbg !10449
  br label %for.cond260, !dbg !10450, !llvm.loop !10451

for.end267:                                       ; preds = %for.cond260
  call void @_ZN6dealii5TableILi3EdED2Ev(%"class.dealii::Table.104"* %cached_values149) #4, !dbg !10106
  call void @_ZN6dealii6QGaussILi3EED2Ev(%"class.dealii::QGauss"* %q_cell) #4, !dbg !10106
  call void @_ZNSt6vectorIPN6dealii22AnisotropicPolynomialsILi3EEESaIS3_EED2Ev(%"class.std::vector.128"* %polynomials) #4, !dbg !10106
  store i32 0, i32* %cleanup.dest.slot, align 4, !dbg !10106
  br label %cleanup, !dbg !10106

cleanup:                                          ; preds = %for.end267, %if.then
  call void @_ZN6dealii6QGaussILi2EED2Ev(%"class.dealii::QGauss.133"* %q_base) #4, !dbg !10106
  %cleanup.dest = load i32, i32* %cleanup.dest.slot, align 4
  switch i32 %cleanup.dest, label %unreachable [
    i32 0, label %cleanup.cont
    i32 1, label %cleanup.cont
  ]

cleanup.cont:                                     ; preds = %cleanup, %cleanup
  ret void, !dbg !10106

ehcleanup268:                                     ; preds = %lpad198, %lpad158
  call void @_ZN6dealii5TableILi3EdED2Ev(%"class.dealii::Table.104"* %cached_values149) #4, !dbg !10106
  br label %ehcleanup269, !dbg !10106

ehcleanup269:                                     ; preds = %ehcleanup268, %lpad152
  call void @_ZN6dealii6QGaussILi3EED2Ev(%"class.dealii::QGauss"* %q_cell) #4, !dbg !10106
  br label %ehcleanup270, !dbg !10106

ehcleanup270:                                     ; preds = %ehcleanup269, %lpad144, %ehcleanup138, %lpad108
  call void @_ZNSt6vectorIPN6dealii22AnisotropicPolynomialsILi3EEESaIS3_EED2Ev(%"class.std::vector.128"* %polynomials) #4, !dbg !10106
  br label %ehcleanup271, !dbg !10106

ehcleanup271:                                     ; preds = %ehcleanup270, %lpad101, %ehcleanup94, %lpad
  call void @_ZN6dealii6QGaussILi2EED2Ev(%"class.dealii::QGauss.133"* %q_base) #4, !dbg !10106
  br label %eh.resume, !dbg !10106

eh.resume:                                        ; preds = %ehcleanup271
  %exn = load i8*, i8** %exn.slot, align 8, !dbg !10106
  %sel = load i32, i32* %ehselector.slot, align 4, !dbg !10106
  %lpad.val = insertvalue { i8*, i32 } undef, i8* %exn, 0, !dbg !10106
  %lpad.val272 = insertvalue { i8*, i32 } %lpad.val, i32 %sel, 1, !dbg !10106
  resume { i8*, i32 } %lpad.val272, !dbg !10106

unreachable:                                      ; preds = %cleanup
  unreachable
}

; Function Attrs: noinline nounwind uwtable
define linkonce_odr dso_local void @_ZNSaIN6dealii10FullMatrixIdEEEC2Ev(%"class.std::allocator.21"* %this) unnamed_addr #1 comdat align 2 !dbg !10453 {
entry:
  %this.addr = alloca %"class.std::allocator.21"*, align 8
  store %"class.std::allocator.21"* %this, %"class.std::allocator.21"** %this.addr, align 8
  call void @llvm.dbg.declare(metadata %"class.std::allocator.21"** %this.addr, metadata !10454, metadata !DIExpression()), !dbg !10456
  %this1 = load %"class.std::allocator.21"*, %"class.std::allocator.21"** %this.addr, align 8
  %0 = bitcast %"class.std::allocator.21"* %this1 to %"class.__gnu_cxx::new_allocator.22"*, !dbg !10457
  call void @_ZN9__gnu_cxx13new_allocatorIN6dealii10FullMatrixIdEEEC2Ev(%"class.__gnu_cxx::new_allocator.22"* %0) #4, !dbg !10458
  ret void, !dbg !10459
}

; Function Attrs: noinline uwtable
define linkonce_odr dso_local void @_ZNSt6vectorIN6dealii10FullMatrixIdEESaIS2_EEC2EmRKS2_RKS3_(%"class.std::vector.19"* %this, i64 %__n, %"class.dealii::FullMatrix"* dereferenceable(96) %__value, %"class.std::allocator.21"* dereferenceable(1) %__a) unnamed_addr #0 comdat align 2 personality i8* bitcast (i32 (...)* @__gxx_personality_v0 to i8*) !dbg !10460 {
entry:
  %this.addr = alloca %"class.std::vector.19"*, align 8
  %__n.addr = alloca i64, align 8
  %__value.addr = alloca %"class.dealii::FullMatrix"*, align 8
  %__a.addr = alloca %"class.std::allocator.21"*, align 8
  %exn.slot = alloca i8*
  %ehselector.slot = alloca i32
  store %"class.std::vector.19"* %this, %"class.std::vector.19"** %this.addr, align 8
  call void @llvm.dbg.declare(metadata %"class.std::vector.19"** %this.addr, metadata !10461, metadata !DIExpression()), !dbg !10463
  store i64 %__n, i64* %__n.addr, align 8
  call void @llvm.dbg.declare(metadata i64* %__n.addr, metadata !10464, metadata !DIExpression()), !dbg !10465
  store %"class.dealii::FullMatrix"* %__value, %"class.dealii::FullMatrix"** %__value.addr, align 8
  call void @llvm.dbg.declare(metadata %"class.dealii::FullMatrix"** %__value.addr, metadata !10466, metadata !DIExpression()), !dbg !10467
  store %"class.std::allocator.21"* %__a, %"class.std::allocator.21"** %__a.addr, align 8
  call void @llvm.dbg.declare(metadata %"class.std::allocator.21"** %__a.addr, metadata !10468, metadata !DIExpression()), !dbg !10469
  %this1 = load %"class.std::vector.19"*, %"class.std::vector.19"** %this.addr, align 8
  %0 = bitcast %"class.std::vector.19"* %this1 to %"struct.std::_Vector_base.20"*, !dbg !10470
  %1 = load i64, i64* %__n.addr, align 8, !dbg !10471
  %2 = load %"class.std::allocator.21"*, %"class.std::allocator.21"** %__a.addr, align 8, !dbg !10472
  %call = call i64 @_ZNSt6vectorIN6dealii10FullMatrixIdEESaIS2_EE17_S_check_init_lenEmRKS3_(i64 %1, %"class.std::allocator.21"* dereferenceable(1) %2), !dbg !10473
  %3 = load %"class.std::allocator.21"*, %"class.std::allocator.21"** %__a.addr, align 8, !dbg !10474
  call void @_ZNSt12_Vector_baseIN6dealii10FullMatrixIdEESaIS2_EEC2EmRKS3_(%"struct.std::_Vector_base.20"* %0, i64 %call, %"class.std::allocator.21"* dereferenceable(1) %3), !dbg !10475
  %4 = load i64, i64* %__n.addr, align 8, !dbg !10476
  %5 = load %"class.dealii::FullMatrix"*, %"class.dealii::FullMatrix"** %__value.addr, align 8, !dbg !10478
  invoke void @_ZNSt6vectorIN6dealii10FullMatrixIdEESaIS2_EE18_M_fill_initializeEmRKS2_(%"class.std::vector.19"* %this1, i64 %4, %"class.dealii::FullMatrix"* dereferenceable(96) %5)
          to label %invoke.cont unwind label %lpad, !dbg !10479

invoke.cont:                                      ; preds = %entry
  ret void, !dbg !10480

lpad:                                             ; preds = %entry
  %6 = landingpad { i8*, i32 }
          cleanup, !dbg !10481
  %7 = extractvalue { i8*, i32 } %6, 0, !dbg !10481
  store i8* %7, i8** %exn.slot, align 8, !dbg !10481
  %8 = extractvalue { i8*, i32 } %6, 1, !dbg !10481
  store i32 %8, i32* %ehselector.slot, align 4, !dbg !10481
  %9 = bitcast %"class.std::vector.19"* %this1 to %"struct.std::_Vector_base.20"*, !dbg !10481
  call void @_ZNSt12_Vector_baseIN6dealii10FullMatrixIdEESaIS2_EED2Ev(%"struct.std::_Vector_base.20"* %9) #4, !dbg !10481
  br label %eh.resume, !dbg !10481

eh.resume:                                        ; preds = %lpad
  %exn = load i8*, i8** %exn.slot, align 8, !dbg !10481
  %sel = load i32, i32* %ehselector.slot, align 4, !dbg !10481
  %lpad.val = insertvalue { i8*, i32 } undef, i8* %exn, 0, !dbg !10481
  %lpad.val2 = insertvalue { i8*, i32 } %lpad.val, i32 %sel, 1, !dbg !10481
  resume { i8*, i32 } %lpad.val2, !dbg !10481
}

; Function Attrs: noinline nounwind uwtable
define linkonce_odr dso_local void @_ZNSaIN6dealii10FullMatrixIdEEED2Ev(%"class.std::allocator.21"* %this) unnamed_addr #1 comdat align 2 !dbg !10482 {
entry:
  %this.addr = alloca %"class.std::allocator.21"*, align 8
  store %"class.std::allocator.21"* %this, %"class.std::allocator.21"** %this.addr, align 8
  call void @llvm.dbg.declare(metadata %"class.std::allocator.21"** %this.addr, metadata !10483, metadata !DIExpression()), !dbg !10484
  %this1 = load %"class.std::allocator.21"*, %"class.std::allocator.21"** %this.addr, align 8
  %0 = bitcast %"class.std::allocator.21"* %this1 to %"class.__gnu_cxx::new_allocator.22"*, !dbg !10485
  call void @_ZN9__gnu_cxx13new_allocatorIN6dealii10FullMatrixIdEEED2Ev(%"class.__gnu_cxx::new_allocator.22"* %0) #4, !dbg !10485
  ret void, !dbg !10487
}

; Function Attrs: noinline nounwind uwtable
define linkonce_odr dso_local void @_ZN6dealii10FullMatrixIdED2Ev(%"class.dealii::FullMatrix"* %this) unnamed_addr #1 comdat align 2 !dbg !10488 {
entry:
  %this.addr = alloca %"class.dealii::FullMatrix"*, align 8
  store %"class.dealii::FullMatrix"* %this, %"class.dealii::FullMatrix"** %this.addr, align 8
  call void @llvm.dbg.declare(metadata %"class.dealii::FullMatrix"** %this.addr, metadata !10493, metadata !DIExpression()), !dbg !10494
  %this1 = load %"class.dealii::FullMatrix"*, %"class.dealii::FullMatrix"** %this.addr, align 8
  %0 = bitcast %"class.dealii::FullMatrix"* %this1 to %"class.dealii::Table"*, !dbg !10495
  call void @_ZN6dealii5TableILi2EdED2Ev(%"class.dealii::Table"* %0) #4, !dbg !10495
  ret void, !dbg !10497
}

; Function Attrs: noinline nounwind uwtable
define linkonce_odr dso_local i64 @_ZNKSt6vectorIN6dealii10FullMatrixIdEESaIS2_EE4sizeEv(%"class.std::vector.19"* %this) #1 comdat align 2 !dbg !10498 {
entry:
  %this.addr = alloca %"class.std::vector.19"*, align 8
  store %"class.std::vector.19"* %this, %"class.std::vector.19"** %this.addr, align 8
  call void @llvm.dbg.declare(metadata %"class.std::vector.19"** %this.addr, metadata !10499, metadata !DIExpression()), !dbg !10501
  %this1 = load %"class.std::vector.19"*, %"class.std::vector.19"** %this.addr, align 8
  %0 = bitcast %"class.std::vector.19"* %this1 to %"struct.std::_Vector_base.20"*, !dbg !10502
  %_M_impl = getelementptr inbounds %"struct.std::_Vector_base.20", %"struct.std::_Vector_base.20"* %0, i32 0, i32 0, !dbg !10502
  %1 = bitcast %"struct.std::_Vector_base<dealii::FullMatrix<double>, std::allocator<dealii::FullMatrix<double> > >::_Vector_impl"* %_M_impl to %"struct.std::_Vector_base<dealii::FullMatrix<double>, std::allocator<dealii::FullMatrix<double> > >::_Vector_impl_data"*, !dbg !10503
  %_M_finish = getelementptr inbounds %"struct.std::_Vector_base<dealii::FullMatrix<double>, std::allocator<dealii::FullMatrix<double> > >::_Vector_impl_data", %"struct.std::_Vector_base<dealii::FullMatrix<double>, std::allocator<dealii::FullMatrix<double> > >::_Vector_impl_data"* %1, i32 0, i32 1, !dbg !10504
  %2 = load %"class.dealii::FullMatrix"*, %"class.dealii::FullMatrix"** %_M_finish, align 8, !dbg !10504
  %3 = bitcast %"class.std::vector.19"* %this1 to %"struct.std::_Vector_base.20"*, !dbg !10505
  %_M_impl2 = getelementptr inbounds %"struct.std::_Vector_base.20", %"struct.std::_Vector_base.20"* %3, i32 0, i32 0, !dbg !10505
  %4 = bitcast %"struct.std::_Vector_base<dealii::FullMatrix<double>, std::allocator<dealii::FullMatrix<double> > >::_Vector_impl"* %_M_impl2 to %"struct.std::_Vector_base<dealii::FullMatrix<double>, std::allocator<dealii::FullMatrix<double> > >::_Vector_impl_data"*, !dbg !10506
  %_M_start = getelementptr inbounds %"struct.std::_Vector_base<dealii::FullMatrix<double>, std::allocator<dealii::FullMatrix<double> > >::_Vector_impl_data", %"struct.std::_Vector_base<dealii::FullMatrix<double>, std::allocator<dealii::FullMatrix<double> > >::_Vector_impl_data"* %4, i32 0, i32 0, !dbg !10507
  %5 = load %"class.dealii::FullMatrix"*, %"class.dealii::FullMatrix"** %_M_start, align 8, !dbg !10507
  %sub.ptr.lhs.cast = ptrtoint %"class.dealii::FullMatrix"* %2 to i64, !dbg !10508
  %sub.ptr.rhs.cast = ptrtoint %"class.dealii::FullMatrix"* %5 to i64, !dbg !10508
  %sub.ptr.sub = sub i64 %sub.ptr.lhs.cast, %sub.ptr.rhs.cast, !dbg !10508
  %sub.ptr.div = sdiv exact i64 %sub.ptr.sub, 96, !dbg !10508
  ret i64 %sub.ptr.div, !dbg !10509
}

; Function Attrs: noinline nounwind uwtable
define linkonce_odr dso_local dereferenceable(96) %"class.dealii::FullMatrix"* @_ZNSt6vectorIN6dealii10FullMatrixIdEESaIS2_EEixEm(%"class.std::vector.19"* %this, i64 %__n) #1 comdat align 2 !dbg !10510 {
entry:
  %this.addr = alloca %"class.std::vector.19"*, align 8
  %__n.addr = alloca i64, align 8
  store %"class.std::vector.19"* %this, %"class.std::vector.19"** %this.addr, align 8
  call void @llvm.dbg.declare(metadata %"class.std::vector.19"** %this.addr, metadata !10511, metadata !DIExpression()), !dbg !10512
  store i64 %__n, i64* %__n.addr, align 8
  call void @llvm.dbg.declare(metadata i64* %__n.addr, metadata !10513, metadata !DIExpression()), !dbg !10514
  %this1 = load %"class.std::vector.19"*, %"class.std::vector.19"** %this.addr, align 8
  %0 = bitcast %"class.std::vector.19"* %this1 to %"struct.std::_Vector_base.20"*, !dbg !10515
  %_M_impl = getelementptr inbounds %"struct.std::_Vector_base.20", %"struct.std::_Vector_base.20"* %0, i32 0, i32 0, !dbg !10515
  %1 = bitcast %"struct.std::_Vector_base<dealii::FullMatrix<double>, std::allocator<dealii::FullMatrix<double> > >::_Vector_impl"* %_M_impl to %"struct.std::_Vector_base<dealii::FullMatrix<double>, std::allocator<dealii::FullMatrix<double> > >::_Vector_impl_data"*, !dbg !10516
  %_M_start = getelementptr inbounds %"struct.std::_Vector_base<dealii::FullMatrix<double>, std::allocator<dealii::FullMatrix<double> > >::_Vector_impl_data", %"struct.std::_Vector_base<dealii::FullMatrix<double>, std::allocator<dealii::FullMatrix<double> > >::_Vector_impl_data"* %1, i32 0, i32 0, !dbg !10517
  %2 = load %"class.dealii::FullMatrix"*, %"class.dealii::FullMatrix"** %_M_start, align 8, !dbg !10517
  %3 = load i64, i64* %__n.addr, align 8, !dbg !10518
  %add.ptr = getelementptr inbounds %"class.dealii::FullMatrix", %"class.dealii::FullMatrix"* %2, i64 %3, !dbg !10519
  ret %"class.dealii::FullMatrix"* %add.ptr, !dbg !10520
}

; Function Attrs: noinline uwtable
define linkonce_odr dso_local i32 @_ZNK6dealii10FullMatrixIdE1mEv(%"class.dealii::FullMatrix"* %this) #0 comdat align 2 !dbg !10521 {
entry:
  %this.addr = alloca %"class.dealii::FullMatrix"*, align 8
  store %"class.dealii::FullMatrix"* %this, %"class.dealii::FullMatrix"** %this.addr, align 8
  call void @llvm.dbg.declare(metadata %"class.dealii::FullMatrix"** %this.addr, metadata !10526, metadata !DIExpression()), !dbg !10527
  %this1 = load %"class.dealii::FullMatrix"*, %"class.dealii::FullMatrix"** %this.addr, align 8
  %0 = bitcast %"class.dealii::FullMatrix"* %this1 to %"class.dealii::Table"*, !dbg !10528
  %call = call i32 @_ZNK6dealii5TableILi2EdE6n_rowsEv(%"class.dealii::Table"* %0), !dbg !10528
  ret i32 %call, !dbg !10529
}

; Function Attrs: noinline uwtable
define linkonce_odr dso_local i32 @_ZNK6dealii10FullMatrixIdE1nEv(%"class.dealii::FullMatrix"* %this) #0 comdat align 2 !dbg !10530 {
entry:
  %this.addr = alloca %"class.dealii::FullMatrix"*, align 8
  store %"class.dealii::FullMatrix"* %this, %"class.dealii::FullMatrix"** %this.addr, align 8
  call void @llvm.dbg.declare(metadata %"class.dealii::FullMatrix"** %this.addr, metadata !10532, metadata !DIExpression()), !dbg !10533
  %this1 = load %"class.dealii::FullMatrix"*, %"class.dealii::FullMatrix"** %this.addr, align 8
  %0 = bitcast %"class.dealii::FullMatrix"* %this1 to %"class.dealii::Table"*, !dbg !10534
  %call = call i32 @_ZNK6dealii5TableILi2EdE6n_colsEv(%"class.dealii::Table"* %0), !dbg !10534
  ret i32 %call, !dbg !10535
}

; Function Attrs: noinline nounwind uwtable
define linkonce_odr dso_local dereferenceable(8) double* @_ZN6dealii5TableILi2EdEclEjj(%"class.dealii::Table"* %this, i32 %i, i32 %j) #1 comdat align 2 !dbg !10536 {
entry:
  %this.addr = alloca %"class.dealii::Table"*, align 8
  %i.addr = alloca i32, align 4
  %j.addr = alloca i32, align 4
  store %"class.dealii::Table"* %this, %"class.dealii::Table"** %this.addr, align 8
  call void @llvm.dbg.declare(metadata %"class.dealii::Table"** %this.addr, metadata !10537, metadata !DIExpression()), !dbg !10538
  store i32 %i, i32* %i.addr, align 4
  call void @llvm.dbg.declare(metadata i32* %i.addr, metadata !10539, metadata !DIExpression()), !dbg !10540
  store i32 %j, i32* %j.addr, align 4
  call void @llvm.dbg.declare(metadata i32* %j.addr, metadata !10541, metadata !DIExpression()), !dbg !10542
  %this1 = load %"class.dealii::Table"*, %"class.dealii::Table"** %this.addr, align 8
  %0 = bitcast %"class.dealii::Table"* %this1 to %"class.dealii::TableBase"*, !dbg !10543
  %val = getelementptr inbounds %"class.dealii::TableBase", %"class.dealii::TableBase"* %0, i32 0, i32 1, !dbg !10543
  %1 = load double*, double** %val, align 8, !dbg !10543
  %2 = load i32, i32* %i.addr, align 4, !dbg !10544
  %3 = bitcast %"class.dealii::Table"* %this1 to %"class.dealii::TableBase"*, !dbg !10545
  %table_size = getelementptr inbounds %"class.dealii::TableBase", %"class.dealii::TableBase"* %3, i32 0, i32 3, !dbg !10545
  %4 = bitcast %"class.dealii::TableIndices"* %table_size to %"class.dealii::TableIndicesBase"*, !dbg !10546
  %call = call i32 @_ZNK6dealii16TableIndicesBaseILi2EEixEj(%"class.dealii::TableIndicesBase"* %4, i32 1), !dbg !10546
  %mul = mul i32 %2, %call, !dbg !10547
  %5 = load i32, i32* %j.addr, align 4, !dbg !10548
  %add = add i32 %mul, %5, !dbg !10549
  %idxprom = zext i32 %add to i64, !dbg !10550
  %arrayidx = getelementptr inbounds double, double* %1, i64 %idxprom, !dbg !10550
  ret double* %arrayidx, !dbg !10551
}

; Function Attrs: noinline nounwind uwtable
define linkonce_odr dso_local void @_ZNSt6vectorIN6dealii10FullMatrixIdEESaIS2_EED2Ev(%"class.std::vector.19"* %this) unnamed_addr #1 comdat align 2 personality i8* bitcast (i32 (...)* @__gxx_personality_v0 to i8*) !dbg !10552 {
entry:
  %this.addr = alloca %"class.std::vector.19"*, align 8
  %exn.slot = alloca i8*
  %ehselector.slot = alloca i32
  store %"class.std::vector.19"* %this, %"class.std::vector.19"** %this.addr, align 8
  call void @llvm.dbg.declare(metadata %"class.std::vector.19"** %this.addr, metadata !10553, metadata !DIExpression()), !dbg !10554
  %this1 = load %"class.std::vector.19"*, %"class.std::vector.19"** %this.addr, align 8
  %0 = bitcast %"class.std::vector.19"* %this1 to %"struct.std::_Vector_base.20"*, !dbg !10555
  %_M_impl = getelementptr inbounds %"struct.std::_Vector_base.20", %"struct.std::_Vector_base.20"* %0, i32 0, i32 0, !dbg !10555
  %1 = bitcast %"struct.std::_Vector_base<dealii::FullMatrix<double>, std::allocator<dealii::FullMatrix<double> > >::_Vector_impl"* %_M_impl to %"struct.std::_Vector_base<dealii::FullMatrix<double>, std::allocator<dealii::FullMatrix<double> > >::_Vector_impl_data"*, !dbg !10557
  %_M_start = getelementptr inbounds %"struct.std::_Vector_base<dealii::FullMatrix<double>, std::allocator<dealii::FullMatrix<double> > >::_Vector_impl_data", %"struct.std::_Vector_base<dealii::FullMatrix<double>, std::allocator<dealii::FullMatrix<double> > >::_Vector_impl_data"* %1, i32 0, i32 0, !dbg !10558
  %2 = load %"class.dealii::FullMatrix"*, %"class.dealii::FullMatrix"** %_M_start, align 8, !dbg !10558
  %3 = bitcast %"class.std::vector.19"* %this1 to %"struct.std::_Vector_base.20"*, !dbg !10559
  %_M_impl2 = getelementptr inbounds %"struct.std::_Vector_base.20", %"struct.std::_Vector_base.20"* %3, i32 0, i32 0, !dbg !10559
  %4 = bitcast %"struct.std::_Vector_base<dealii::FullMatrix<double>, std::allocator<dealii::FullMatrix<double> > >::_Vector_impl"* %_M_impl2 to %"struct.std::_Vector_base<dealii::FullMatrix<double>, std::allocator<dealii::FullMatrix<double> > >::_Vector_impl_data"*, !dbg !10560
  %_M_finish = getelementptr inbounds %"struct.std::_Vector_base<dealii::FullMatrix<double>, std::allocator<dealii::FullMatrix<double> > >::_Vector_impl_data", %"struct.std::_Vector_base<dealii::FullMatrix<double>, std::allocator<dealii::FullMatrix<double> > >::_Vector_impl_data"* %4, i32 0, i32 1, !dbg !10561
  %5 = load %"class.dealii::FullMatrix"*, %"class.dealii::FullMatrix"** %_M_finish, align 8, !dbg !10561
  %6 = bitcast %"class.std::vector.19"* %this1 to %"struct.std::_Vector_base.20"*, !dbg !10562
  %call = call dereferenceable(1) %"class.std::allocator.21"* @_ZNSt12_Vector_baseIN6dealii10FullMatrixIdEESaIS2_EE19_M_get_Tp_allocatorEv(%"struct.std::_Vector_base.20"* %6) #4, !dbg !10562
  invoke void @_ZSt8_DestroyIPN6dealii10FullMatrixIdEES2_EvT_S4_RSaIT0_E(%"class.dealii::FullMatrix"* %2, %"class.dealii::FullMatrix"* %5, %"class.std::allocator.21"* dereferenceable(1) %call)
          to label %invoke.cont unwind label %lpad, !dbg !10563

invoke.cont:                                      ; preds = %entry
  %7 = bitcast %"class.std::vector.19"* %this1 to %"struct.std::_Vector_base.20"*, !dbg !10564
  call void @_ZNSt12_Vector_baseIN6dealii10FullMatrixIdEESaIS2_EED2Ev(%"struct.std::_Vector_base.20"* %7) #4, !dbg !10564
  ret void, !dbg !10565

lpad:                                             ; preds = %entry
  %8 = landingpad { i8*, i32 }
          catch i8* null, !dbg !10564
  %9 = extractvalue { i8*, i32 } %8, 0, !dbg !10564
  store i8* %9, i8** %exn.slot, align 8, !dbg !10564
  %10 = extractvalue { i8*, i32 } %8, 1, !dbg !10564
  store i32 %10, i32* %ehselector.slot, align 4, !dbg !10564
  %11 = bitcast %"class.std::vector.19"* %this1 to %"struct.std::_Vector_base.20"*, !dbg !10564
  call void @_ZNSt12_Vector_baseIN6dealii10FullMatrixIdEESaIS2_EED2Ev(%"struct.std::_Vector_base.20"* %11) #4, !dbg !10564
  br label %terminate.handler, !dbg !10564

terminate.handler:                                ; preds = %lpad
  %exn = load i8*, i8** %exn.slot, align 8, !dbg !10564
  call void @__clang_call_terminate(i8* %exn) #12, !dbg !10564
  unreachable, !dbg !10564
}

; Function Attrs: noinline nounwind uwtable
define linkonce_odr dso_local void @_ZN6dealii5TableILi3EdED2Ev(%"class.dealii::Table.104"* %this) unnamed_addr #1 comdat align 2 !dbg !10566 {
entry:
  %this.addr = alloca %"class.dealii::Table.104"*, align 8
  store %"class.dealii::Table.104"* %this, %"class.dealii::Table.104"** %this.addr, align 8
  call void @llvm.dbg.declare(metadata %"class.dealii::Table.104"** %this.addr, metadata !10568, metadata !DIExpression()), !dbg !10569
  %this1 = load %"class.dealii::Table.104"*, %"class.dealii::Table.104"** %this.addr, align 8
  %0 = bitcast %"class.dealii::Table.104"* %this1 to %"class.dealii::TableBase.105"*, !dbg !10570
  call void @_ZN6dealii9TableBaseILi3EdED2Ev(%"class.dealii::TableBase.105"* %0) #4, !dbg !10570
  ret void, !dbg !10572
}

; Function Attrs: noinline nounwind uwtable
define linkonce_odr dso_local void @_ZN6dealii5TableILi2EdED2Ev(%"class.dealii::Table"* %this) unnamed_addr #1 comdat align 2 !dbg !10573 {
entry:
  %this.addr = alloca %"class.dealii::Table"*, align 8
  store %"class.dealii::Table"* %this, %"class.dealii::Table"** %this.addr, align 8
  call void @llvm.dbg.declare(metadata %"class.dealii::Table"** %this.addr, metadata !10575, metadata !DIExpression()), !dbg !10576
  %this1 = load %"class.dealii::Table"*, %"class.dealii::Table"** %this.addr, align 8
  %0 = bitcast %"class.dealii::Table"* %this1 to %"class.dealii::TableBase"*, !dbg !10577
  call void @_ZN6dealii9TableBaseILi2EdED2Ev(%"class.dealii::TableBase"* %0) #4, !dbg !10577
  ret void, !dbg !10579
}

; Function Attrs: noinline uwtable
define weak_odr dso_local void @_ZNK6dealii6FE_ABFILi3EE8get_nameB5cxx11Ev(%"class.std::__cxx11::basic_string"* noalias sret %agg.result, %"class.dealii::FE_ABF"* %this) unnamed_addr #0 comdat align 2 personality i8* bitcast (i32 (...)* @__gxx_personality_v0 to i8*) !dbg !10580 {
entry:
  %result.ptr = alloca i8*, align 8
  %this.addr = alloca %"class.dealii::FE_ABF"*, align 8
  %namebuf = alloca %"class.std::__cxx11::basic_ostringstream", align 8
  %exn.slot = alloca i8*
  %ehselector.slot = alloca i32
  %0 = bitcast %"class.std::__cxx11::basic_string"* %agg.result to i8*
  store i8* %0, i8** %result.ptr, align 8
  store %"class.dealii::FE_ABF"* %this, %"class.dealii::FE_ABF"** %this.addr, align 8
  call void @llvm.dbg.declare(metadata %"class.dealii::FE_ABF"** %this.addr, metadata !10581, metadata !DIExpression()), !dbg !10583
  %this1 = load %"class.dealii::FE_ABF"*, %"class.dealii::FE_ABF"** %this.addr, align 8
  call void @llvm.dbg.declare(metadata %"class.std::__cxx11::basic_ostringstream"* %namebuf, metadata !10584, metadata !DIExpression()), !dbg !10588
  call void @_ZNSt7__cxx1119basic_ostringstreamIcSt11char_traitsIcESaIcEEC1Ev(%"class.std::__cxx11::basic_ostringstream"* %namebuf), !dbg !10588
  %1 = bitcast %"class.std::__cxx11::basic_ostringstream"* %namebuf to %"class.std::basic_ostream"*, !dbg !10589
  %call = invoke dereferenceable(272) %"class.std::basic_ostream"* @_ZStlsISt11char_traitsIcEERSt13basic_ostreamIcT_ES5_PKc(%"class.std::basic_ostream"* dereferenceable(272) %1, i8* getelementptr inbounds ([8 x i8], [8 x i8]* @.str, i64 0, i64 0))
          to label %invoke.cont unwind label %lpad, !dbg !10590

invoke.cont:                                      ; preds = %entry
  %call3 = invoke dereferenceable(272) %"class.std::basic_ostream"* @_ZNSolsEi(%"class.std::basic_ostream"* %call, i32 3)
          to label %invoke.cont2 unwind label %lpad, !dbg !10591

invoke.cont2:                                     ; preds = %invoke.cont
  %call5 = invoke dereferenceable(272) %"class.std::basic_ostream"* @_ZStlsISt11char_traitsIcEERSt13basic_ostreamIcT_ES5_PKc(%"class.std::basic_ostream"* dereferenceable(272) %call3, i8* getelementptr inbounds ([3 x i8], [3 x i8]* @.str.10, i64 0, i64 0))
          to label %invoke.cont4 unwind label %lpad, !dbg !10592

invoke.cont4:                                     ; preds = %invoke.cont2
  %rt_order = getelementptr inbounds %"class.dealii::FE_ABF", %"class.dealii::FE_ABF"* %this1, i32 0, i32 1, !dbg !10593
  %2 = load i32, i32* %rt_order, align 8, !dbg !10593
  %call7 = invoke dereferenceable(272) %"class.std::basic_ostream"* @_ZNSolsEj(%"class.std::basic_ostream"* %call5, i32 %2)
          to label %invoke.cont6 unwind label %lpad, !dbg !10594

invoke.cont6:                                     ; preds = %invoke.cont4
  %call9 = invoke dereferenceable(272) %"class.std::basic_ostream"* @_ZStlsISt11char_traitsIcEERSt13basic_ostreamIcT_ES5_PKc(%"class.std::basic_ostream"* dereferenceable(272) %call7, i8* getelementptr inbounds ([2 x i8], [2 x i8]* @.str.11, i64 0, i64 0))
          to label %invoke.cont8 unwind label %lpad, !dbg !10595

invoke.cont8:                                     ; preds = %invoke.cont6
  invoke void @_ZNKSt7__cxx1119basic_ostringstreamIcSt11char_traitsIcESaIcEE3strEv(%"class.std::__cxx11::basic_string"* sret %agg.result, %"class.std::__cxx11::basic_ostringstream"* %namebuf)
          to label %invoke.cont10 unwind label %lpad, !dbg !10596

invoke.cont10:                                    ; preds = %invoke.cont8
  call void @_ZNSt7__cxx1119basic_ostringstreamIcSt11char_traitsIcESaIcEED1Ev(%"class.std::__cxx11::basic_ostringstream"* %namebuf) #4, !dbg !10597
  ret void, !dbg !10597

lpad:                                             ; preds = %invoke.cont8, %invoke.cont6, %invoke.cont4, %invoke.cont2, %invoke.cont, %entry
  %3 = landingpad { i8*, i32 }
          cleanup, !dbg !10597
  %4 = extractvalue { i8*, i32 } %3, 0, !dbg !10597
  store i8* %4, i8** %exn.slot, align 8, !dbg !10597
  %5 = extractvalue { i8*, i32 } %3, 1, !dbg !10597
  store i32 %5, i32* %ehselector.slot, align 4, !dbg !10597
  call void @_ZNSt7__cxx1119basic_ostringstreamIcSt11char_traitsIcESaIcEED1Ev(%"class.std::__cxx11::basic_ostringstream"* %namebuf) #4, !dbg !10597
  br label %eh.resume, !dbg !10597

eh.resume:                                        ; preds = %lpad
  %exn = load i8*, i8** %exn.slot, align 8, !dbg !10597
  %sel = load i32, i32* %ehselector.slot, align 4, !dbg !10597
  %lpad.val = insertvalue { i8*, i32 } undef, i8* %exn, 0, !dbg !10597
  %lpad.val11 = insertvalue { i8*, i32 } %lpad.val, i32 %sel, 1, !dbg !10597
  resume { i8*, i32 } %lpad.val11, !dbg !10597
}

declare dso_local void @_ZNSt7__cxx1119basic_ostringstreamIcSt11char_traitsIcESaIcEEC1Ev(%"class.std::__cxx11::basic_ostringstream"*) unnamed_addr #2

declare dso_local dereferenceable(272) %"class.std::basic_ostream"* @_ZStlsISt11char_traitsIcEERSt13basic_ostreamIcT_ES5_PKc(%"class.std::basic_ostream"* dereferenceable(272), i8*) #2

declare dso_local dereferenceable(272) %"class.std::basic_ostream"* @_ZNSolsEi(%"class.std::basic_ostream"*, i32) #2

declare dso_local dereferenceable(272) %"class.std::basic_ostream"* @_ZNSolsEj(%"class.std::basic_ostream"*, i32) #2

declare dso_local void @_ZNKSt7__cxx1119basic_ostringstreamIcSt11char_traitsIcESaIcEE3strEv(%"class.std::__cxx11::basic_string"* sret, %"class.std::__cxx11::basic_ostringstream"*) #2

; Function Attrs: nounwind
declare dso_local void @_ZNSt7__cxx1119basic_ostringstreamIcSt11char_traitsIcESaIcEED1Ev(%"class.std::__cxx11::basic_ostringstream"*) unnamed_addr #3

; Function Attrs: noinline nounwind uwtable
define weak_odr dso_local i32 @_ZNK6dealii6FE_ABFILi3EE15n_base_elementsEv(%"class.dealii::FE_ABF"* %this) unnamed_addr #1 comdat align 2 !dbg !10598 {
entry:
  %this.addr = alloca %"class.dealii::FE_ABF"*, align 8
  store %"class.dealii::FE_ABF"* %this, %"class.dealii::FE_ABF"** %this.addr, align 8
  call void @llvm.dbg.declare(metadata %"class.dealii::FE_ABF"** %this.addr, metadata !10599, metadata !DIExpression()), !dbg !10600
  %this1 = load %"class.dealii::FE_ABF"*, %"class.dealii::FE_ABF"** %this.addr, align 8
  ret i32 1, !dbg !10601
}

; Function Attrs: noinline nounwind uwtable
define weak_odr dso_local dereferenceable(728) %"class.dealii::FiniteElement"* @_ZNK6dealii6FE_ABFILi3EE12base_elementEj(%"class.dealii::FE_ABF"* %this, i32 %index) unnamed_addr #1 comdat align 2 !dbg !10602 {
entry:
  %this.addr = alloca %"class.dealii::FE_ABF"*, align 8
  %index.addr = alloca i32, align 4
  store %"class.dealii::FE_ABF"* %this, %"class.dealii::FE_ABF"** %this.addr, align 8
  call void @llvm.dbg.declare(metadata %"class.dealii::FE_ABF"** %this.addr, metadata !10603, metadata !DIExpression()), !dbg !10604
  store i32 %index, i32* %index.addr, align 4
  call void @llvm.dbg.declare(metadata i32* %index.addr, metadata !10605, metadata !DIExpression()), !dbg !10606
  %this1 = load %"class.dealii::FE_ABF"*, %"class.dealii::FE_ABF"** %this.addr, align 8
  %0 = bitcast %"class.dealii::FE_ABF"* %this1 to %"class.dealii::FiniteElement"*, !dbg !10607
  ret %"class.dealii::FiniteElement"* %0, !dbg !10608
}

; Function Attrs: noinline nounwind uwtable
define weak_odr dso_local i32 @_ZNK6dealii6FE_ABFILi3EE20element_multiplicityEj(%"class.dealii::FE_ABF"* %this, i32 %index) unnamed_addr #1 comdat align 2 !dbg !10609 {
entry:
  %this.addr = alloca %"class.dealii::FE_ABF"*, align 8
  %index.addr = alloca i32, align 4
  store %"class.dealii::FE_ABF"* %this, %"class.dealii::FE_ABF"** %this.addr, align 8
  call void @llvm.dbg.declare(metadata %"class.dealii::FE_ABF"** %this.addr, metadata !10610, metadata !DIExpression()), !dbg !10611
  store i32 %index, i32* %index.addr, align 4
  call void @llvm.dbg.declare(metadata i32* %index.addr, metadata !10612, metadata !DIExpression()), !dbg !10613
  %this1 = load %"class.dealii::FE_ABF"*, %"class.dealii::FE_ABF"** %this.addr, align 8
  ret i32 1, !dbg !10614
}

; Function Attrs: noinline nounwind uwtable
define weak_odr dso_local zeroext i1 @_ZNK6dealii6FE_ABFILi3EE19has_support_on_faceEjj(%"class.dealii::FE_ABF"* %this, i32 %shape_index, i32 %face_index) unnamed_addr #1 comdat align 2 !dbg !10615 {
entry:
  %retval = alloca i1, align 1
  %this.addr = alloca %"class.dealii::FE_ABF"*, align 8
  %shape_index.addr = alloca i32, align 4
  %face_index.addr = alloca i32, align 4
  store %"class.dealii::FE_ABF"* %this, %"class.dealii::FE_ABF"** %this.addr, align 8
  call void @llvm.dbg.declare(metadata %"class.dealii::FE_ABF"** %this.addr, metadata !10616, metadata !DIExpression()), !dbg !10617
  store i32 %shape_index, i32* %shape_index.addr, align 4
  call void @llvm.dbg.declare(metadata i32* %shape_index.addr, metadata !10618, metadata !DIExpression()), !dbg !10619
  store i32 %face_index, i32* %face_index.addr, align 4
  call void @llvm.dbg.declare(metadata i32* %face_index.addr, metadata !10620, metadata !DIExpression()), !dbg !10621
  %this1 = load %"class.dealii::FE_ABF"*, %"class.dealii::FE_ABF"** %this.addr, align 8
  %rt_order = getelementptr inbounds %"class.dealii::FE_ABF", %"class.dealii::FE_ABF"* %this1, i32 0, i32 1, !dbg !10622
  %0 = load i32, i32* %rt_order, align 8, !dbg !10622
  switch i32 %0, label %sw.default [
    i32 0, label %sw.bb
  ], !dbg !10623

sw.bb:                                            ; preds = %entry
  store i1 true, i1* %retval, align 1, !dbg !10624
  br label %return, !dbg !10624

sw.default:                                       ; preds = %entry
  store i1 true, i1* %retval, align 1, !dbg !10627
  br label %return, !dbg !10627

return:                                           ; preds = %sw.default, %sw.bb
  %1 = load i1, i1* %retval, align 1, !dbg !10628
  ret i1 %1, !dbg !10628
}

; Function Attrs: noinline nounwind uwtable
define weak_odr dso_local void @_ZNK6dealii6FE_ABFILi3EE11interpolateERSt6vectorIdSaIdEERKS4_(%"class.dealii::FE_ABF"* %this, %"class.std::vector.82"* dereferenceable(24) %0, %"class.std::vector.82"* dereferenceable(24) %1) unnamed_addr #1 comdat align 2 !dbg !10629 {
entry:
  %this.addr = alloca %"class.dealii::FE_ABF"*, align 8
  %.addr = alloca %"class.std::vector.82"*, align 8
  %.addr1 = alloca %"class.std::vector.82"*, align 8
  store %"class.dealii::FE_ABF"* %this, %"class.dealii::FE_ABF"** %this.addr, align 8
  call void @llvm.dbg.declare(metadata %"class.dealii::FE_ABF"** %this.addr, metadata !10630, metadata !DIExpression()), !dbg !10631
  store %"class.std::vector.82"* %0, %"class.std::vector.82"** %.addr, align 8
  call void @llvm.dbg.declare(metadata %"class.std::vector.82"** %.addr, metadata !10632, metadata !DIExpression()), !dbg !10633
  store %"class.std::vector.82"* %1, %"class.std::vector.82"** %.addr1, align 8
  call void @llvm.dbg.declare(metadata %"class.std::vector.82"** %.addr1, metadata !10634, metadata !DIExpression()), !dbg !10635
  %this2 = load %"class.dealii::FE_ABF"*, %"class.dealii::FE_ABF"** %this.addr, align 8
  ret void, !dbg !10636
}

; Function Attrs: noinline uwtable
define weak_odr dso_local void @_ZNK6dealii6FE_ABFILi3EE11interpolateERSt6vectorIdSaIdEERKS2_INS_6VectorIdEESaIS7_EEj(%"class.dealii::FE_ABF"* %this, %"class.std::vector.82"* dereferenceable(24) %local_dofs, %"class.std::vector.114"* dereferenceable(24) %values, i32 %offset) unnamed_addr #0 comdat align 2 !dbg !10637 {
entry:
  %this.addr = alloca %"class.dealii::FE_ABF"*, align 8
  %local_dofs.addr = alloca %"class.std::vector.82"*, align 8
  %values.addr = alloca %"class.std::vector.114"*, align 8
  %offset.addr = alloca i32, align 4
  %agg.tmp = alloca %"class.__gnu_cxx::__normal_iterator", align 8
  %agg.tmp2 = alloca %"class.__gnu_cxx::__normal_iterator", align 8
  %ref.tmp = alloca double, align 8
  %n_face_points = alloca i32, align 4
  %face = alloca i32, align 4
  %k = alloca i32, align 4
  %i = alloca i32, align 4
  %start_cell_dofs = alloca i32, align 4
  %start_cell_points = alloca i32, align 4
  %k37 = alloca i32, align 4
  %i42 = alloca i32, align 4
  %d = alloca i32, align 4
  %start_abf_dofs = alloca i32, align 4
  %k78 = alloca i32, align 4
  %i83 = alloca i32, align 4
  %d89 = alloca i32, align 4
  %face114 = alloca i32, align 4
  %n_orient = alloca double, align 8
  %fp = alloca i32, align 4
  %k124 = alloca i32, align 4
  %ref.tmp125 = alloca %"class.dealii::QProjector<3>::DataSetDescriptor", align 4
  %i129 = alloca i32, align 4
  %i159 = alloca i32, align 4
  store %"class.dealii::FE_ABF"* %this, %"class.dealii::FE_ABF"** %this.addr, align 8
  call void @llvm.dbg.declare(metadata %"class.dealii::FE_ABF"** %this.addr, metadata !10638, metadata !DIExpression()), !dbg !10639
  store %"class.std::vector.82"* %local_dofs, %"class.std::vector.82"** %local_dofs.addr, align 8
  call void @llvm.dbg.declare(metadata %"class.std::vector.82"** %local_dofs.addr, metadata !10640, metadata !DIExpression()), !dbg !10641
  store %"class.std::vector.114"* %values, %"class.std::vector.114"** %values.addr, align 8
  call void @llvm.dbg.declare(metadata %"class.std::vector.114"** %values.addr, metadata !10642, metadata !DIExpression()), !dbg !10643
  store i32 %offset, i32* %offset.addr, align 4
  call void @llvm.dbg.declare(metadata i32* %offset.addr, metadata !10644, metadata !DIExpression()), !dbg !10645
  %this1 = load %"class.dealii::FE_ABF"*, %"class.dealii::FE_ABF"** %this.addr, align 8
  %0 = load %"class.std::vector.82"*, %"class.std::vector.82"** %local_dofs.addr, align 8, !dbg !10646
  %call = call double* @_ZNSt6vectorIdSaIdEE5beginEv(%"class.std::vector.82"* %0) #4, !dbg !10647
  %coerce.dive = getelementptr inbounds %"class.__gnu_cxx::__normal_iterator", %"class.__gnu_cxx::__normal_iterator"* %agg.tmp, i32 0, i32 0, !dbg !10647
  store double* %call, double** %coerce.dive, align 8, !dbg !10647
  %1 = load %"class.std::vector.82"*, %"class.std::vector.82"** %local_dofs.addr, align 8, !dbg !10648
  %call3 = call double* @_ZNSt6vectorIdSaIdEE3endEv(%"class.std::vector.82"* %1) #4, !dbg !10649
  %coerce.dive4 = getelementptr inbounds %"class.__gnu_cxx::__normal_iterator", %"class.__gnu_cxx::__normal_iterator"* %agg.tmp2, i32 0, i32 0, !dbg !10649
  store double* %call3, double** %coerce.dive4, align 8, !dbg !10649
  store double 0.000000e+00, double* %ref.tmp, align 8, !dbg !10650
  %coerce.dive5 = getelementptr inbounds %"class.__gnu_cxx::__normal_iterator", %"class.__gnu_cxx::__normal_iterator"* %agg.tmp, i32 0, i32 0, !dbg !10651
  %2 = load double*, double** %coerce.dive5, align 8, !dbg !10651
  %coerce.dive6 = getelementptr inbounds %"class.__gnu_cxx::__normal_iterator", %"class.__gnu_cxx::__normal_iterator"* %agg.tmp2, i32 0, i32 0, !dbg !10651
  %3 = load double*, double** %coerce.dive6, align 8, !dbg !10651
  call void @_ZSt4fillIN9__gnu_cxx17__normal_iteratorIPdSt6vectorIdSaIdEEEEdEvT_S7_RKT0_(double* %2, double* %3, double* dereferenceable(8) %ref.tmp), !dbg !10651
  call void @llvm.dbg.declare(metadata i32* %n_face_points, metadata !10652, metadata !DIExpression()), !dbg !10653
  %boundary_weights = getelementptr inbounds %"class.dealii::FE_ABF", %"class.dealii::FE_ABF"* %this1, i32 0, i32 3, !dbg !10654
  %4 = bitcast %"class.dealii::Table"* %boundary_weights to %"class.dealii::TableBase"*, !dbg !10654
  %call7 = call i32 @_ZNK6dealii9TableBaseILi2EdE4sizeEj(%"class.dealii::TableBase"* %4, i32 0), !dbg !10655
  store i32 %call7, i32* %n_face_points, align 4, !dbg !10653
  call void @llvm.dbg.declare(metadata i32* %face, metadata !10656, metadata !DIExpression()), !dbg !10658
  store i32 0, i32* %face, align 4, !dbg !10658
  br label %for.cond, !dbg !10659

for.cond:                                         ; preds = %for.inc30, %entry
  %5 = load i32, i32* %face, align 4, !dbg !10660
  %cmp = icmp ult i32 %5, 6, !dbg !10662
  br i1 %cmp, label %for.body, label %for.end32, !dbg !10663

for.body:                                         ; preds = %for.cond
  call void @llvm.dbg.declare(metadata i32* %k, metadata !10664, metadata !DIExpression()), !dbg !10666
  store i32 0, i32* %k, align 4, !dbg !10666
  br label %for.cond8, !dbg !10667

for.cond8:                                        ; preds = %for.inc27, %for.body
  %6 = load i32, i32* %k, align 4, !dbg !10668
  %7 = load i32, i32* %n_face_points, align 4, !dbg !10670
  %cmp9 = icmp ult i32 %6, %7, !dbg !10671
  br i1 %cmp9, label %for.body10, label %for.end29, !dbg !10672

for.body10:                                       ; preds = %for.cond8
  call void @llvm.dbg.declare(metadata i32* %i, metadata !10673, metadata !DIExpression()), !dbg !10675
  store i32 0, i32* %i, align 4, !dbg !10675
  br label %for.cond11, !dbg !10676

for.cond11:                                       ; preds = %for.inc, %for.body10
  %8 = load i32, i32* %i, align 4, !dbg !10677
  %boundary_weights12 = getelementptr inbounds %"class.dealii::FE_ABF", %"class.dealii::FE_ABF"* %this1, i32 0, i32 3, !dbg !10679
  %9 = bitcast %"class.dealii::Table"* %boundary_weights12 to %"class.dealii::TableBase"*, !dbg !10679
  %call13 = call i32 @_ZNK6dealii9TableBaseILi2EdE4sizeEj(%"class.dealii::TableBase"* %9, i32 1), !dbg !10680
  %cmp14 = icmp ult i32 %8, %call13, !dbg !10681
  br i1 %cmp14, label %for.body15, label %for.end, !dbg !10682

for.body15:                                       ; preds = %for.cond11
  %boundary_weights16 = getelementptr inbounds %"class.dealii::FE_ABF", %"class.dealii::FE_ABF"* %this1, i32 0, i32 3, !dbg !10683
  %10 = load i32, i32* %k, align 4, !dbg !10685
  %11 = load i32, i32* %i, align 4, !dbg !10686
  %call17 = call dereferenceable(8) double* @_ZNK6dealii5TableILi2EdEclEjj(%"class.dealii::Table"* %boundary_weights16, i32 %10, i32 %11), !dbg !10683
  %12 = load double, double* %call17, align 8, !dbg !10683
  %13 = load %"class.std::vector.114"*, %"class.std::vector.114"** %values.addr, align 8, !dbg !10687
  %14 = load i32, i32* %face, align 4, !dbg !10688
  %15 = load i32, i32* %n_face_points, align 4, !dbg !10689
  %mul = mul i32 %14, %15, !dbg !10690
  %16 = load i32, i32* %k, align 4, !dbg !10691
  %add = add i32 %mul, %16, !dbg !10692
  %conv = zext i32 %add to i64, !dbg !10688
  %call18 = call dereferenceable(88) %"class.dealii::Vector"* @_ZNKSt6vectorIN6dealii6VectorIdEESaIS2_EEixEm(%"class.std::vector.114"* %13, i64 %conv) #4, !dbg !10687
  %17 = load i32, i32* %face, align 4, !dbg !10693
  %idxprom = zext i32 %17 to i64, !dbg !10694
  %arrayidx = getelementptr inbounds [6 x i32], [6 x i32]* @_ZN6dealii12GeometryInfoILi3EE21unit_normal_directionE, i64 0, i64 %idxprom, !dbg !10694
  %18 = load i32, i32* %arrayidx, align 4, !dbg !10694
  %19 = load i32, i32* %offset.addr, align 4, !dbg !10695
  %add19 = add i32 %18, %19, !dbg !10696
  %call20 = call double @_ZNK6dealii6VectorIdEclEj(%"class.dealii::Vector"* %call18, i32 %add19), !dbg !10687
  %mul21 = fmul double %12, %call20, !dbg !10697
  %20 = load %"class.std::vector.82"*, %"class.std::vector.82"** %local_dofs.addr, align 8, !dbg !10698
  %21 = load i32, i32* %i, align 4, !dbg !10699
  %22 = load i32, i32* %face, align 4, !dbg !10700
  %23 = bitcast %"class.dealii::FE_ABF"* %this1 to i8*, !dbg !10701
  %add.ptr = getelementptr inbounds i8, i8* %23, i64 72, !dbg !10701
  %24 = bitcast i8* %add.ptr to %"class.dealii::FiniteElementData"*, !dbg !10701
  %dofs_per_face = getelementptr inbounds %"class.dealii::FiniteElementData", %"class.dealii::FiniteElementData"* %24, i32 0, i32 9, !dbg !10701
  %25 = load i32, i32* %dofs_per_face, align 4, !dbg !10701
  %mul22 = mul i32 %22, %25, !dbg !10702
  %add23 = add i32 %21, %mul22, !dbg !10703
  %conv24 = zext i32 %add23 to i64, !dbg !10699
  %call25 = call dereferenceable(8) double* @_ZNSt6vectorIdSaIdEEixEm(%"class.std::vector.82"* %20, i64 %conv24) #4, !dbg !10698
  %26 = load double, double* %call25, align 8, !dbg !10704
  %add26 = fadd double %26, %mul21, !dbg !10704
  store double %add26, double* %call25, align 8, !dbg !10704
  br label %for.inc, !dbg !10705

for.inc:                                          ; preds = %for.body15
  %27 = load i32, i32* %i, align 4, !dbg !10706
  %inc = add i32 %27, 1, !dbg !10706
  store i32 %inc, i32* %i, align 4, !dbg !10706
  br label %for.cond11, !dbg !10707, !llvm.loop !10708

for.end:                                          ; preds = %for.cond11
  br label %for.inc27, !dbg !10709

for.inc27:                                        ; preds = %for.end
  %28 = load i32, i32* %k, align 4, !dbg !10710
  %inc28 = add i32 %28, 1, !dbg !10710
  store i32 %inc28, i32* %k, align 4, !dbg !10710
  br label %for.cond8, !dbg !10711, !llvm.loop !10712

for.end29:                                        ; preds = %for.cond8
  br label %for.inc30, !dbg !10713

for.inc30:                                        ; preds = %for.end29
  %29 = load i32, i32* %face, align 4, !dbg !10714
  %inc31 = add i32 %29, 1, !dbg !10714
  store i32 %inc31, i32* %face, align 4, !dbg !10714
  br label %for.cond, !dbg !10715, !llvm.loop !10716

for.end32:                                        ; preds = %for.cond
  call void @llvm.dbg.declare(metadata i32* %start_cell_dofs, metadata !10718, metadata !DIExpression()), !dbg !10719
  %30 = bitcast %"class.dealii::FE_ABF"* %this1 to i8*, !dbg !10720
  %add.ptr33 = getelementptr inbounds i8, i8* %30, i64 72, !dbg !10720
  %31 = bitcast i8* %add.ptr33 to %"class.dealii::FiniteElementData"*, !dbg !10720
  %dofs_per_face34 = getelementptr inbounds %"class.dealii::FiniteElementData", %"class.dealii::FiniteElementData"* %31, i32 0, i32 9, !dbg !10720
  %32 = load i32, i32* %dofs_per_face34, align 4, !dbg !10720
  %mul35 = mul i32 6, %32, !dbg !10721
  store i32 %mul35, i32* %start_cell_dofs, align 4, !dbg !10719
  call void @llvm.dbg.declare(metadata i32* %start_cell_points, metadata !10722, metadata !DIExpression()), !dbg !10723
  %33 = load i32, i32* %n_face_points, align 4, !dbg !10724
  %mul36 = mul i32 6, %33, !dbg !10725
  store i32 %mul36, i32* %start_cell_points, align 4, !dbg !10723
  call void @llvm.dbg.declare(metadata i32* %k37, metadata !10726, metadata !DIExpression()), !dbg !10728
  store i32 0, i32* %k37, align 4, !dbg !10728
  br label %for.cond38, !dbg !10729

for.cond38:                                       ; preds = %for.inc71, %for.end32
  %34 = load i32, i32* %k37, align 4, !dbg !10730
  %interior_weights = getelementptr inbounds %"class.dealii::FE_ABF", %"class.dealii::FE_ABF"* %this1, i32 0, i32 4, !dbg !10732
  %35 = bitcast %"class.dealii::Table.104"* %interior_weights to %"class.dealii::TableBase.105"*, !dbg !10732
  %call39 = call i32 @_ZNK6dealii9TableBaseILi3EdE4sizeEj(%"class.dealii::TableBase.105"* %35, i32 0), !dbg !10733
  %cmp40 = icmp ult i32 %34, %call39, !dbg !10734
  br i1 %cmp40, label %for.body41, label %for.end73, !dbg !10735

for.body41:                                       ; preds = %for.cond38
  call void @llvm.dbg.declare(metadata i32* %i42, metadata !10736, metadata !DIExpression()), !dbg !10738
  store i32 0, i32* %i42, align 4, !dbg !10738
  br label %for.cond43, !dbg !10739

for.cond43:                                       ; preds = %for.inc68, %for.body41
  %36 = load i32, i32* %i42, align 4, !dbg !10740
  %interior_weights44 = getelementptr inbounds %"class.dealii::FE_ABF", %"class.dealii::FE_ABF"* %this1, i32 0, i32 4, !dbg !10742
  %37 = bitcast %"class.dealii::Table.104"* %interior_weights44 to %"class.dealii::TableBase.105"*, !dbg !10742
  %call45 = call i32 @_ZNK6dealii9TableBaseILi3EdE4sizeEj(%"class.dealii::TableBase.105"* %37, i32 1), !dbg !10743
  %cmp46 = icmp ult i32 %36, %call45, !dbg !10744
  br i1 %cmp46, label %for.body47, label %for.end70, !dbg !10745

for.body47:                                       ; preds = %for.cond43
  call void @llvm.dbg.declare(metadata i32* %d, metadata !10746, metadata !DIExpression()), !dbg !10748
  store i32 0, i32* %d, align 4, !dbg !10748
  br label %for.cond48, !dbg !10749

for.cond48:                                       ; preds = %for.inc65, %for.body47
  %38 = load i32, i32* %d, align 4, !dbg !10750
  %cmp49 = icmp ult i32 %38, 3, !dbg !10752
  br i1 %cmp49, label %for.body50, label %for.end67, !dbg !10753

for.body50:                                       ; preds = %for.cond48
  %interior_weights51 = getelementptr inbounds %"class.dealii::FE_ABF", %"class.dealii::FE_ABF"* %this1, i32 0, i32 4, !dbg !10754
  %39 = load i32, i32* %k37, align 4, !dbg !10755
  %40 = load i32, i32* %i42, align 4, !dbg !10756
  %41 = load i32, i32* %d, align 4, !dbg !10757
  %call52 = call dereferenceable(8) double* @_ZNK6dealii5TableILi3EdEclEjjj(%"class.dealii::Table.104"* %interior_weights51, i32 %39, i32 %40, i32 %41), !dbg !10754
  %42 = load double, double* %call52, align 8, !dbg !10754
  %43 = load %"class.std::vector.114"*, %"class.std::vector.114"** %values.addr, align 8, !dbg !10758
  %44 = load i32, i32* %k37, align 4, !dbg !10759
  %45 = load i32, i32* %start_cell_points, align 4, !dbg !10760
  %add53 = add i32 %44, %45, !dbg !10761
  %conv54 = zext i32 %add53 to i64, !dbg !10759
  %call55 = call dereferenceable(88) %"class.dealii::Vector"* @_ZNKSt6vectorIN6dealii6VectorIdEESaIS2_EEixEm(%"class.std::vector.114"* %43, i64 %conv54) #4, !dbg !10758
  %46 = load i32, i32* %d, align 4, !dbg !10762
  %47 = load i32, i32* %offset.addr, align 4, !dbg !10763
  %add56 = add i32 %46, %47, !dbg !10764
  %call57 = call double @_ZNK6dealii6VectorIdEclEj(%"class.dealii::Vector"* %call55, i32 %add56), !dbg !10758
  %mul58 = fmul double %42, %call57, !dbg !10765
  %48 = load %"class.std::vector.82"*, %"class.std::vector.82"** %local_dofs.addr, align 8, !dbg !10766
  %49 = load i32, i32* %start_cell_dofs, align 4, !dbg !10767
  %50 = load i32, i32* %i42, align 4, !dbg !10768
  %mul59 = mul i32 %50, 3, !dbg !10769
  %add60 = add i32 %49, %mul59, !dbg !10770
  %51 = load i32, i32* %d, align 4, !dbg !10771
  %add61 = add i32 %add60, %51, !dbg !10772
  %conv62 = zext i32 %add61 to i64, !dbg !10767
  %call63 = call dereferenceable(8) double* @_ZNSt6vectorIdSaIdEEixEm(%"class.std::vector.82"* %48, i64 %conv62) #4, !dbg !10766
  %52 = load double, double* %call63, align 8, !dbg !10773
  %add64 = fadd double %52, %mul58, !dbg !10773
  store double %add64, double* %call63, align 8, !dbg !10773
  br label %for.inc65, !dbg !10766

for.inc65:                                        ; preds = %for.body50
  %53 = load i32, i32* %d, align 4, !dbg !10774
  %inc66 = add i32 %53, 1, !dbg !10774
  store i32 %inc66, i32* %d, align 4, !dbg !10774
  br label %for.cond48, !dbg !10775, !llvm.loop !10776

for.end67:                                        ; preds = %for.cond48
  br label %for.inc68, !dbg !10777

for.inc68:                                        ; preds = %for.end67
  %54 = load i32, i32* %i42, align 4, !dbg !10778
  %inc69 = add i32 %54, 1, !dbg !10778
  store i32 %inc69, i32* %i42, align 4, !dbg !10778
  br label %for.cond43, !dbg !10779, !llvm.loop !10780

for.end70:                                        ; preds = %for.cond43
  br label %for.inc71, !dbg !10781

for.inc71:                                        ; preds = %for.end70
  %55 = load i32, i32* %k37, align 4, !dbg !10782
  %inc72 = add i32 %55, 1, !dbg !10782
  store i32 %inc72, i32* %k37, align 4, !dbg !10782
  br label %for.cond38, !dbg !10783, !llvm.loop !10784

for.end73:                                        ; preds = %for.cond38
  call void @llvm.dbg.declare(metadata i32* %start_abf_dofs, metadata !10786, metadata !DIExpression()), !dbg !10787
  %56 = load i32, i32* %start_cell_dofs, align 4, !dbg !10788
  %interior_weights74 = getelementptr inbounds %"class.dealii::FE_ABF", %"class.dealii::FE_ABF"* %this1, i32 0, i32 4, !dbg !10789
  %57 = bitcast %"class.dealii::Table.104"* %interior_weights74 to %"class.dealii::TableBase.105"*, !dbg !10789
  %call75 = call i32 @_ZNK6dealii9TableBaseILi3EdE4sizeEj(%"class.dealii::TableBase.105"* %57, i32 1), !dbg !10790
  %mul76 = mul i32 %call75, 3, !dbg !10791
  %add77 = add i32 %56, %mul76, !dbg !10792
  store i32 %add77, i32* %start_abf_dofs, align 4, !dbg !10787
  call void @llvm.dbg.declare(metadata i32* %k78, metadata !10793, metadata !DIExpression()), !dbg !10795
  store i32 0, i32* %k78, align 4, !dbg !10795
  br label %for.cond79, !dbg !10796

for.cond79:                                       ; preds = %for.inc111, %for.end73
  %58 = load i32, i32* %k78, align 4, !dbg !10797
  %interior_weights_abf = getelementptr inbounds %"class.dealii::FE_ABF", %"class.dealii::FE_ABF"* %this1, i32 0, i32 6, !dbg !10799
  %59 = bitcast %"class.dealii::Table.104"* %interior_weights_abf to %"class.dealii::TableBase.105"*, !dbg !10799
  %call80 = call i32 @_ZNK6dealii9TableBaseILi3EdE4sizeEj(%"class.dealii::TableBase.105"* %59, i32 0), !dbg !10800
  %cmp81 = icmp ult i32 %58, %call80, !dbg !10801
  br i1 %cmp81, label %for.body82, label %for.end113, !dbg !10802

for.body82:                                       ; preds = %for.cond79
  call void @llvm.dbg.declare(metadata i32* %i83, metadata !10803, metadata !DIExpression()), !dbg !10805
  store i32 0, i32* %i83, align 4, !dbg !10805
  br label %for.cond84, !dbg !10806

for.cond84:                                       ; preds = %for.inc108, %for.body82
  %60 = load i32, i32* %i83, align 4, !dbg !10807
  %interior_weights_abf85 = getelementptr inbounds %"class.dealii::FE_ABF", %"class.dealii::FE_ABF"* %this1, i32 0, i32 6, !dbg !10809
  %61 = bitcast %"class.dealii::Table.104"* %interior_weights_abf85 to %"class.dealii::TableBase.105"*, !dbg !10809
  %call86 = call i32 @_ZNK6dealii9TableBaseILi3EdE4sizeEj(%"class.dealii::TableBase.105"* %61, i32 1), !dbg !10810
  %cmp87 = icmp ult i32 %60, %call86, !dbg !10811
  br i1 %cmp87, label %for.body88, label %for.end110, !dbg !10812

for.body88:                                       ; preds = %for.cond84
  call void @llvm.dbg.declare(metadata i32* %d89, metadata !10813, metadata !DIExpression()), !dbg !10815
  store i32 0, i32* %d89, align 4, !dbg !10815
  br label %for.cond90, !dbg !10816

for.cond90:                                       ; preds = %for.inc105, %for.body88
  %62 = load i32, i32* %d89, align 4, !dbg !10817
  %cmp91 = icmp ult i32 %62, 3, !dbg !10819
  br i1 %cmp91, label %for.body92, label %for.end107, !dbg !10820

for.body92:                                       ; preds = %for.cond90
  %interior_weights_abf93 = getelementptr inbounds %"class.dealii::FE_ABF", %"class.dealii::FE_ABF"* %this1, i32 0, i32 6, !dbg !10821
  %63 = load i32, i32* %k78, align 4, !dbg !10822
  %64 = load i32, i32* %i83, align 4, !dbg !10823
  %65 = load i32, i32* %d89, align 4, !dbg !10824
  %call94 = call dereferenceable(8) double* @_ZNK6dealii5TableILi3EdEclEjjj(%"class.dealii::Table.104"* %interior_weights_abf93, i32 %63, i32 %64, i32 %65), !dbg !10821
  %66 = load double, double* %call94, align 8, !dbg !10821
  %67 = load %"class.std::vector.114"*, %"class.std::vector.114"** %values.addr, align 8, !dbg !10825
  %68 = load i32, i32* %k78, align 4, !dbg !10826
  %69 = load i32, i32* %start_cell_points, align 4, !dbg !10827
  %add95 = add i32 %68, %69, !dbg !10828
  %conv96 = zext i32 %add95 to i64, !dbg !10826
  %call97 = call dereferenceable(88) %"class.dealii::Vector"* @_ZNKSt6vectorIN6dealii6VectorIdEESaIS2_EEixEm(%"class.std::vector.114"* %67, i64 %conv96) #4, !dbg !10825
  %70 = load i32, i32* %d89, align 4, !dbg !10829
  %71 = load i32, i32* %offset.addr, align 4, !dbg !10830
  %add98 = add i32 %70, %71, !dbg !10831
  %call99 = call double @_ZNK6dealii6VectorIdEclEj(%"class.dealii::Vector"* %call97, i32 %add98), !dbg !10825
  %mul100 = fmul double %66, %call99, !dbg !10832
  %72 = load %"class.std::vector.82"*, %"class.std::vector.82"** %local_dofs.addr, align 8, !dbg !10833
  %73 = load i32, i32* %start_abf_dofs, align 4, !dbg !10834
  %74 = load i32, i32* %i83, align 4, !dbg !10835
  %add101 = add i32 %73, %74, !dbg !10836
  %conv102 = zext i32 %add101 to i64, !dbg !10834
  %call103 = call dereferenceable(8) double* @_ZNSt6vectorIdSaIdEEixEm(%"class.std::vector.82"* %72, i64 %conv102) #4, !dbg !10833
  %75 = load double, double* %call103, align 8, !dbg !10837
  %add104 = fadd double %75, %mul100, !dbg !10837
  store double %add104, double* %call103, align 8, !dbg !10837
  br label %for.inc105, !dbg !10833

for.inc105:                                       ; preds = %for.body92
  %76 = load i32, i32* %d89, align 4, !dbg !10838
  %inc106 = add i32 %76, 1, !dbg !10838
  store i32 %inc106, i32* %d89, align 4, !dbg !10838
  br label %for.cond90, !dbg !10839, !llvm.loop !10840

for.end107:                                       ; preds = %for.cond90
  br label %for.inc108, !dbg !10841

for.inc108:                                       ; preds = %for.end107
  %77 = load i32, i32* %i83, align 4, !dbg !10842
  %inc109 = add i32 %77, 1, !dbg !10842
  store i32 %inc109, i32* %i83, align 4, !dbg !10842
  br label %for.cond84, !dbg !10843, !llvm.loop !10844

for.end110:                                       ; preds = %for.cond84
  br label %for.inc111, !dbg !10845

for.inc111:                                       ; preds = %for.end110
  %78 = load i32, i32* %k78, align 4, !dbg !10846
  %inc112 = add i32 %78, 1, !dbg !10846
  store i32 %inc112, i32* %k78, align 4, !dbg !10846
  br label %for.cond79, !dbg !10847, !llvm.loop !10848

for.end113:                                       ; preds = %for.cond79
  call void @llvm.dbg.declare(metadata i32* %face114, metadata !10850, metadata !DIExpression()), !dbg !10852
  store i32 0, i32* %face114, align 4, !dbg !10852
  br label %for.cond115, !dbg !10853

for.cond115:                                      ; preds = %for.inc156, %for.end113
  %79 = load i32, i32* %face114, align 4, !dbg !10854
  %cmp116 = icmp ult i32 %79, 6, !dbg !10856
  br i1 %cmp116, label %for.body117, label %for.end158, !dbg !10857

for.body117:                                      ; preds = %for.cond115
  call void @llvm.dbg.declare(metadata double* %n_orient, metadata !10858, metadata !DIExpression()), !dbg !10860
  %80 = load i32, i32* %face114, align 4, !dbg !10861
  %idxprom118 = zext i32 %80 to i64, !dbg !10862
  %arrayidx119 = getelementptr inbounds [6 x i32], [6 x i32]* @_ZN6dealii12GeometryInfoILi3EE23unit_normal_orientationE, i64 0, i64 %idxprom118, !dbg !10862
  %81 = load i32, i32* %arrayidx119, align 4, !dbg !10862
  %conv120 = sitofp i32 %81 to double, !dbg !10862
  store double %conv120, double* %n_orient, align 8, !dbg !10860
  call void @llvm.dbg.declare(metadata i32* %fp, metadata !10863, metadata !DIExpression()), !dbg !10865
  store i32 0, i32* %fp, align 4, !dbg !10865
  br label %for.cond121, !dbg !10866

for.cond121:                                      ; preds = %for.inc153, %for.body117
  %82 = load i32, i32* %fp, align 4, !dbg !10867
  %83 = load i32, i32* %n_face_points, align 4, !dbg !10869
  %cmp122 = icmp ult i32 %82, %83, !dbg !10870
  br i1 %cmp122, label %for.body123, label %for.end155, !dbg !10871

for.body123:                                      ; preds = %for.cond121
  call void @llvm.dbg.declare(metadata i32* %k124, metadata !10872, metadata !DIExpression()), !dbg !10874
  %84 = load i32, i32* %face114, align 4, !dbg !10875
  %85 = load i32, i32* %n_face_points, align 4, !dbg !10876
  %call126 = call i32 @_ZN6dealii10QProjectorILi3EE17DataSetDescriptor4faceEjbbbj(i32 %84, i1 zeroext false, i1 zeroext false, i1 zeroext false, i32 %85), !dbg !10877
  %coerce.dive127 = getelementptr inbounds %"class.dealii::QProjector<3>::DataSetDescriptor", %"class.dealii::QProjector<3>::DataSetDescriptor"* %ref.tmp125, i32 0, i32 0, !dbg !10877
  store i32 %call126, i32* %coerce.dive127, align 4, !dbg !10877
  %call128 = call i32 @_ZNK6dealii10QProjectorILi3EE17DataSetDescriptorcvjEv(%"class.dealii::QProjector<3>::DataSetDescriptor"* %ref.tmp125), !dbg !10877
  store i32 %call128, i32* %k124, align 4, !dbg !10874
  call void @llvm.dbg.declare(metadata i32* %i129, metadata !10878, metadata !DIExpression()), !dbg !10880
  store i32 0, i32* %i129, align 4, !dbg !10880
  br label %for.cond130, !dbg !10881

for.cond130:                                      ; preds = %for.inc150, %for.body123
  %86 = load i32, i32* %i129, align 4, !dbg !10882
  %boundary_weights_abf = getelementptr inbounds %"class.dealii::FE_ABF", %"class.dealii::FE_ABF"* %this1, i32 0, i32 5, !dbg !10884
  %87 = bitcast %"class.dealii::Table"* %boundary_weights_abf to %"class.dealii::TableBase"*, !dbg !10884
  %call131 = call i32 @_ZNK6dealii9TableBaseILi2EdE4sizeEj(%"class.dealii::TableBase"* %87, i32 1), !dbg !10885
  %cmp132 = icmp ult i32 %86, %call131, !dbg !10886
  br i1 %cmp132, label %for.body133, label %for.end152, !dbg !10887

for.body133:                                      ; preds = %for.cond130
  %88 = load double, double* %n_orient, align 8, !dbg !10888
  %boundary_weights_abf134 = getelementptr inbounds %"class.dealii::FE_ABF", %"class.dealii::FE_ABF"* %this1, i32 0, i32 5, !dbg !10889
  %89 = load i32, i32* %k124, align 4, !dbg !10890
  %90 = load i32, i32* %fp, align 4, !dbg !10891
  %add135 = add i32 %89, %90, !dbg !10892
  %91 = load i32, i32* %i129, align 4, !dbg !10893
  %call136 = call dereferenceable(8) double* @_ZNK6dealii5TableILi2EdEclEjj(%"class.dealii::Table"* %boundary_weights_abf134, i32 %add135, i32 %91), !dbg !10889
  %92 = load double, double* %call136, align 8, !dbg !10889
  %mul137 = fmul double %88, %92, !dbg !10894
  %93 = load %"class.std::vector.114"*, %"class.std::vector.114"** %values.addr, align 8, !dbg !10895
  %94 = load i32, i32* %k124, align 4, !dbg !10896
  %95 = load i32, i32* %fp, align 4, !dbg !10897
  %add138 = add i32 %94, %95, !dbg !10898
  %conv139 = zext i32 %add138 to i64, !dbg !10896
  %call140 = call dereferenceable(88) %"class.dealii::Vector"* @_ZNKSt6vectorIN6dealii6VectorIdEESaIS2_EEixEm(%"class.std::vector.114"* %93, i64 %conv139) #4, !dbg !10895
  %96 = load i32, i32* %face114, align 4, !dbg !10899
  %idxprom141 = zext i32 %96 to i64, !dbg !10900
  %arrayidx142 = getelementptr inbounds [6 x i32], [6 x i32]* @_ZN6dealii12GeometryInfoILi3EE21unit_normal_directionE, i64 0, i64 %idxprom141, !dbg !10900
  %97 = load i32, i32* %arrayidx142, align 4, !dbg !10900
  %98 = load i32, i32* %offset.addr, align 4, !dbg !10901
  %add143 = add i32 %97, %98, !dbg !10902
  %call144 = call double @_ZNK6dealii6VectorIdEclEj(%"class.dealii::Vector"* %call140, i32 %add143), !dbg !10895
  %mul145 = fmul double %mul137, %call144, !dbg !10903
  %99 = load %"class.std::vector.82"*, %"class.std::vector.82"** %local_dofs.addr, align 8, !dbg !10904
  %100 = load i32, i32* %start_abf_dofs, align 4, !dbg !10905
  %101 = load i32, i32* %i129, align 4, !dbg !10906
  %add146 = add i32 %100, %101, !dbg !10907
  %conv147 = zext i32 %add146 to i64, !dbg !10905
  %call148 = call dereferenceable(8) double* @_ZNSt6vectorIdSaIdEEixEm(%"class.std::vector.82"* %99, i64 %conv147) #4, !dbg !10904
  %102 = load double, double* %call148, align 8, !dbg !10908
  %add149 = fadd double %102, %mul145, !dbg !10908
  store double %add149, double* %call148, align 8, !dbg !10908
  br label %for.inc150, !dbg !10904

for.inc150:                                       ; preds = %for.body133
  %103 = load i32, i32* %i129, align 4, !dbg !10909
  %inc151 = add i32 %103, 1, !dbg !10909
  store i32 %inc151, i32* %i129, align 4, !dbg !10909
  br label %for.cond130, !dbg !10910, !llvm.loop !10911

for.end152:                                       ; preds = %for.cond130
  br label %for.inc153, !dbg !10913

for.inc153:                                       ; preds = %for.end152
  %104 = load i32, i32* %fp, align 4, !dbg !10914
  %inc154 = add i32 %104, 1, !dbg !10914
  store i32 %inc154, i32* %fp, align 4, !dbg !10914
  br label %for.cond121, !dbg !10915, !llvm.loop !10916

for.end155:                                       ; preds = %for.cond121
  br label %for.inc156, !dbg !10918

for.inc156:                                       ; preds = %for.end155
  %105 = load i32, i32* %face114, align 4, !dbg !10919
  %inc157 = add i32 %105, 1, !dbg !10919
  store i32 %inc157, i32* %face114, align 4, !dbg !10919
  br label %for.cond115, !dbg !10920, !llvm.loop !10921

for.end158:                                       ; preds = %for.cond115
  call void @llvm.dbg.declare(metadata i32* %i159, metadata !10923, metadata !DIExpression()), !dbg !10925
  store i32 0, i32* %i159, align 4, !dbg !10925
  br label %for.cond160, !dbg !10926

for.cond160:                                      ; preds = %for.inc172, %for.end158
  %106 = load i32, i32* %i159, align 4, !dbg !10927
  %boundary_weights_abf161 = getelementptr inbounds %"class.dealii::FE_ABF", %"class.dealii::FE_ABF"* %this1, i32 0, i32 5, !dbg !10929
  %107 = bitcast %"class.dealii::Table"* %boundary_weights_abf161 to %"class.dealii::TableBase"*, !dbg !10929
  %call162 = call i32 @_ZNK6dealii9TableBaseILi2EdE4sizeEj(%"class.dealii::TableBase"* %107, i32 1), !dbg !10930
  %cmp163 = icmp ult i32 %106, %call162, !dbg !10931
  br i1 %cmp163, label %for.body164, label %for.end174, !dbg !10932

for.body164:                                      ; preds = %for.cond160
  %108 = load %"class.std::vector.82"*, %"class.std::vector.82"** %local_dofs.addr, align 8, !dbg !10933
  %109 = load i32, i32* %start_abf_dofs, align 4, !dbg !10935
  %110 = load i32, i32* %i159, align 4, !dbg !10936
  %add165 = add i32 %109, %110, !dbg !10937
  %conv166 = zext i32 %add165 to i64, !dbg !10935
  %call167 = call dereferenceable(8) double* @_ZNSt6vectorIdSaIdEEixEm(%"class.std::vector.82"* %108, i64 %conv166) #4, !dbg !10933
  %111 = load double, double* %call167, align 8, !dbg !10933
  %112 = call double @llvm.fabs.f64(double %111), !dbg !10938
  %cmp168 = fcmp olt double %112, 0x3C9CD2B297D889BC, !dbg !10939
  br i1 %cmp168, label %if.then, label %if.end, !dbg !10940

if.then:                                          ; preds = %for.body164
  %113 = load %"class.std::vector.82"*, %"class.std::vector.82"** %local_dofs.addr, align 8, !dbg !10941
  %114 = load i32, i32* %start_abf_dofs, align 4, !dbg !10942
  %115 = load i32, i32* %i159, align 4, !dbg !10943
  %add169 = add i32 %114, %115, !dbg !10944
  %conv170 = zext i32 %add169 to i64, !dbg !10942
  %call171 = call dereferenceable(8) double* @_ZNSt6vectorIdSaIdEEixEm(%"class.std::vector.82"* %113, i64 %conv170) #4, !dbg !10941
  store double 0.000000e+00, double* %call171, align 8, !dbg !10945
  br label %if.end, !dbg !10941

if.end:                                           ; preds = %if.then, %for.body164
  br label %for.inc172, !dbg !10946

for.inc172:                                       ; preds = %if.end
  %116 = load i32, i32* %i159, align 4, !dbg !10947
  %inc173 = add i32 %116, 1, !dbg !10947
  store i32 %inc173, i32* %i159, align 4, !dbg !10947
  br label %for.cond160, !dbg !10948, !llvm.loop !10949

for.end174:                                       ; preds = %for.cond160
  ret void, !dbg !10951
}

; Function Attrs: noinline uwtable
define linkonce_odr dso_local void @_ZSt4fillIN9__gnu_cxx17__normal_iteratorIPdSt6vectorIdSaIdEEEEdEvT_S7_RKT0_(double* %__first.coerce, double* %__last.coerce, double* dereferenceable(8) %__value) #0 comdat !dbg !10952 {
entry:
  %__first = alloca %"class.__gnu_cxx::__normal_iterator", align 8
  %__last = alloca %"class.__gnu_cxx::__normal_iterator", align 8
  %__value.addr = alloca double*, align 8
  %agg.tmp = alloca %"class.__gnu_cxx::__normal_iterator", align 8
  %agg.tmp2 = alloca %"class.__gnu_cxx::__normal_iterator", align 8
  %coerce.dive = getelementptr inbounds %"class.__gnu_cxx::__normal_iterator", %"class.__gnu_cxx::__normal_iterator"* %__first, i32 0, i32 0
  store double* %__first.coerce, double** %coerce.dive, align 8
  %coerce.dive1 = getelementptr inbounds %"class.__gnu_cxx::__normal_iterator", %"class.__gnu_cxx::__normal_iterator"* %__last, i32 0, i32 0
  store double* %__last.coerce, double** %coerce.dive1, align 8
  call void @llvm.dbg.declare(metadata %"class.__gnu_cxx::__normal_iterator"* %__first, metadata !10958, metadata !DIExpression()), !dbg !10960
  call void @llvm.dbg.declare(metadata %"class.__gnu_cxx::__normal_iterator"* %__last, metadata !10961, metadata !DIExpression()), !dbg !10962
  store double* %__value, double** %__value.addr, align 8
  call void @llvm.dbg.declare(metadata double** %__value.addr, metadata !10963, metadata !DIExpression()), !dbg !10964
  %0 = bitcast %"class.__gnu_cxx::__normal_iterator"* %agg.tmp to i8*, !dbg !10965
  %1 = bitcast %"class.__gnu_cxx::__normal_iterator"* %__first to i8*, !dbg !10965
  call void @llvm.memcpy.p0i8.p0i8.i64(i8* align 8 %0, i8* align 8 %1, i64 8, i1 false), !dbg !10965
  %2 = bitcast %"class.__gnu_cxx::__normal_iterator"* %agg.tmp2 to i8*, !dbg !10966
  %3 = bitcast %"class.__gnu_cxx::__normal_iterator"* %__last to i8*, !dbg !10966
  call void @llvm.memcpy.p0i8.p0i8.i64(i8* align 8 %2, i8* align 8 %3, i64 8, i1 false), !dbg !10966
  %4 = load double*, double** %__value.addr, align 8, !dbg !10967
  %coerce.dive3 = getelementptr inbounds %"class.__gnu_cxx::__normal_iterator", %"class.__gnu_cxx::__normal_iterator"* %agg.tmp, i32 0, i32 0, !dbg !10968
  %5 = load double*, double** %coerce.dive3, align 8, !dbg !10968
  %coerce.dive4 = getelementptr inbounds %"class.__gnu_cxx::__normal_iterator", %"class.__gnu_cxx::__normal_iterator"* %agg.tmp2, i32 0, i32 0, !dbg !10968
  %6 = load double*, double** %coerce.dive4, align 8, !dbg !10968
  call void @_ZSt8__fill_aIN9__gnu_cxx17__normal_iteratorIPdSt6vectorIdSaIdEEEEdEvT_S7_RKT0_(double* %5, double* %6, double* dereferenceable(8) %4), !dbg !10968
  ret void, !dbg !10969
}

; Function Attrs: noinline nounwind uwtable
define linkonce_odr dso_local double* @_ZNSt6vectorIdSaIdEE5beginEv(%"class.std::vector.82"* %this) #1 comdat align 2 !dbg !10970 {
entry:
  %retval = alloca %"class.__gnu_cxx::__normal_iterator", align 8
  %this.addr = alloca %"class.std::vector.82"*, align 8
  store %"class.std::vector.82"* %this, %"class.std::vector.82"** %this.addr, align 8
  call void @llvm.dbg.declare(metadata %"class.std::vector.82"** %this.addr, metadata !10971, metadata !DIExpression()), !dbg !10972
  %this1 = load %"class.std::vector.82"*, %"class.std::vector.82"** %this.addr, align 8
  %0 = bitcast %"class.std::vector.82"* %this1 to %"struct.std::_Vector_base.83"*, !dbg !10973
  %_M_impl = getelementptr inbounds %"struct.std::_Vector_base.83", %"struct.std::_Vector_base.83"* %0, i32 0, i32 0, !dbg !10973
  %1 = bitcast %"struct.std::_Vector_base<double, std::allocator<double> >::_Vector_impl"* %_M_impl to %"struct.std::_Vector_base<double, std::allocator<double> >::_Vector_impl_data"*, !dbg !10974
  %_M_start = getelementptr inbounds %"struct.std::_Vector_base<double, std::allocator<double> >::_Vector_impl_data", %"struct.std::_Vector_base<double, std::allocator<double> >::_Vector_impl_data"* %1, i32 0, i32 0, !dbg !10975
  call void @_ZN9__gnu_cxx17__normal_iteratorIPdSt6vectorIdSaIdEEEC2ERKS1_(%"class.__gnu_cxx::__normal_iterator"* %retval, double** dereferenceable(8) %_M_start) #4, !dbg !10976
  %coerce.dive = getelementptr inbounds %"class.__gnu_cxx::__normal_iterator", %"class.__gnu_cxx::__normal_iterator"* %retval, i32 0, i32 0, !dbg !10977
  %2 = load double*, double** %coerce.dive, align 8, !dbg !10977
  ret double* %2, !dbg !10977
}

; Function Attrs: noinline nounwind uwtable
define linkonce_odr dso_local double* @_ZNSt6vectorIdSaIdEE3endEv(%"class.std::vector.82"* %this) #1 comdat align 2 !dbg !10978 {
entry:
  %retval = alloca %"class.__gnu_cxx::__normal_iterator", align 8
  %this.addr = alloca %"class.std::vector.82"*, align 8
  store %"class.std::vector.82"* %this, %"class.std::vector.82"** %this.addr, align 8
  call void @llvm.dbg.declare(metadata %"class.std::vector.82"** %this.addr, metadata !10979, metadata !DIExpression()), !dbg !10980
  %this1 = load %"class.std::vector.82"*, %"class.std::vector.82"** %this.addr, align 8
  %0 = bitcast %"class.std::vector.82"* %this1 to %"struct.std::_Vector_base.83"*, !dbg !10981
  %_M_impl = getelementptr inbounds %"struct.std::_Vector_base.83", %"struct.std::_Vector_base.83"* %0, i32 0, i32 0, !dbg !10981
  %1 = bitcast %"struct.std::_Vector_base<double, std::allocator<double> >::_Vector_impl"* %_M_impl to %"struct.std::_Vector_base<double, std::allocator<double> >::_Vector_impl_data"*, !dbg !10982
  %_M_finish = getelementptr inbounds %"struct.std::_Vector_base<double, std::allocator<double> >::_Vector_impl_data", %"struct.std::_Vector_base<double, std::allocator<double> >::_Vector_impl_data"* %1, i32 0, i32 1, !dbg !10983
  call void @_ZN9__gnu_cxx17__normal_iteratorIPdSt6vectorIdSaIdEEEC2ERKS1_(%"class.__gnu_cxx::__normal_iterator"* %retval, double** dereferenceable(8) %_M_finish) #4, !dbg !10984
  %coerce.dive = getelementptr inbounds %"class.__gnu_cxx::__normal_iterator", %"class.__gnu_cxx::__normal_iterator"* %retval, i32 0, i32 0, !dbg !10985
  %2 = load double*, double** %coerce.dive, align 8, !dbg !10985
  ret double* %2, !dbg !10985
}

; Function Attrs: noinline nounwind uwtable
define linkonce_odr dso_local i32 @_ZNK6dealii9TableBaseILi2EdE4sizeEj(%"class.dealii::TableBase"* %this, i32 %i) #1 comdat align 2 !dbg !10986 {
entry:
  %this.addr = alloca %"class.dealii::TableBase"*, align 8
  %i.addr = alloca i32, align 4
  store %"class.dealii::TableBase"* %this, %"class.dealii::TableBase"** %this.addr, align 8
  call void @llvm.dbg.declare(metadata %"class.dealii::TableBase"** %this.addr, metadata !10987, metadata !DIExpression()), !dbg !10989
  store i32 %i, i32* %i.addr, align 4
  call void @llvm.dbg.declare(metadata i32* %i.addr, metadata !10990, metadata !DIExpression()), !dbg !10991
  %this1 = load %"class.dealii::TableBase"*, %"class.dealii::TableBase"** %this.addr, align 8
  %table_size = getelementptr inbounds %"class.dealii::TableBase", %"class.dealii::TableBase"* %this1, i32 0, i32 3, !dbg !10992
  %0 = bitcast %"class.dealii::TableIndices"* %table_size to %"class.dealii::TableIndicesBase"*, !dbg !10992
  %1 = load i32, i32* %i.addr, align 4, !dbg !10993
  %call = call i32 @_ZNK6dealii16TableIndicesBaseILi2EEixEj(%"class.dealii::TableIndicesBase"* %0, i32 %1), !dbg !10992
  ret i32 %call, !dbg !10994
}

; Function Attrs: noinline nounwind uwtable
define linkonce_odr dso_local dereferenceable(8) double* @_ZNK6dealii5TableILi2EdEclEjj(%"class.dealii::Table"* %this, i32 %i, i32 %j) #1 comdat align 2 !dbg !10995 {
entry:
  %this.addr = alloca %"class.dealii::Table"*, align 8
  %i.addr = alloca i32, align 4
  %j.addr = alloca i32, align 4
  store %"class.dealii::Table"* %this, %"class.dealii::Table"** %this.addr, align 8
  call void @llvm.dbg.declare(metadata %"class.dealii::Table"** %this.addr, metadata !10996, metadata !DIExpression()), !dbg !10998
  store i32 %i, i32* %i.addr, align 4
  call void @llvm.dbg.declare(metadata i32* %i.addr, metadata !10999, metadata !DIExpression()), !dbg !11000
  store i32 %j, i32* %j.addr, align 4
  call void @llvm.dbg.declare(metadata i32* %j.addr, metadata !11001, metadata !DIExpression()), !dbg !11002
  %this1 = load %"class.dealii::Table"*, %"class.dealii::Table"** %this.addr, align 8
  %0 = bitcast %"class.dealii::Table"* %this1 to %"class.dealii::TableBase"*, !dbg !11003
  %val = getelementptr inbounds %"class.dealii::TableBase", %"class.dealii::TableBase"* %0, i32 0, i32 1, !dbg !11003
  %1 = load double*, double** %val, align 8, !dbg !11003
  %2 = load i32, i32* %i.addr, align 4, !dbg !11004
  %3 = bitcast %"class.dealii::Table"* %this1 to %"class.dealii::TableBase"*, !dbg !11005
  %table_size = getelementptr inbounds %"class.dealii::TableBase", %"class.dealii::TableBase"* %3, i32 0, i32 3, !dbg !11005
  %4 = bitcast %"class.dealii::TableIndices"* %table_size to %"class.dealii::TableIndicesBase"*, !dbg !11006
  %call = call i32 @_ZNK6dealii16TableIndicesBaseILi2EEixEj(%"class.dealii::TableIndicesBase"* %4, i32 1), !dbg !11006
  %mul = mul i32 %2, %call, !dbg !11007
  %5 = load i32, i32* %j.addr, align 4, !dbg !11008
  %add = add i32 %mul, %5, !dbg !11009
  %idxprom = zext i32 %add to i64, !dbg !11010
  %arrayidx = getelementptr inbounds double, double* %1, i64 %idxprom, !dbg !11010
  ret double* %arrayidx, !dbg !11011
}

; Function Attrs: noinline nounwind uwtable
define linkonce_odr dso_local dereferenceable(88) %"class.dealii::Vector"* @_ZNKSt6vectorIN6dealii6VectorIdEESaIS2_EEixEm(%"class.std::vector.114"* %this, i64 %__n) #1 comdat align 2 !dbg !11012 {
entry:
  %this.addr = alloca %"class.std::vector.114"*, align 8
  %__n.addr = alloca i64, align 8
  store %"class.std::vector.114"* %this, %"class.std::vector.114"** %this.addr, align 8
  call void @llvm.dbg.declare(metadata %"class.std::vector.114"** %this.addr, metadata !11013, metadata !DIExpression()), !dbg !11015
  store i64 %__n, i64* %__n.addr, align 8
  call void @llvm.dbg.declare(metadata i64* %__n.addr, metadata !11016, metadata !DIExpression()), !dbg !11017
  %this1 = load %"class.std::vector.114"*, %"class.std::vector.114"** %this.addr, align 8
  %0 = bitcast %"class.std::vector.114"* %this1 to %"struct.std::_Vector_base.115"*, !dbg !11018
  %_M_impl = getelementptr inbounds %"struct.std::_Vector_base.115", %"struct.std::_Vector_base.115"* %0, i32 0, i32 0, !dbg !11018
  %1 = bitcast %"struct.std::_Vector_base<dealii::Vector<double>, std::allocator<dealii::Vector<double> > >::_Vector_impl"* %_M_impl to %"struct.std::_Vector_base<dealii::Vector<double>, std::allocator<dealii::Vector<double> > >::_Vector_impl_data"*, !dbg !11019
  %_M_start = getelementptr inbounds %"struct.std::_Vector_base<dealii::Vector<double>, std::allocator<dealii::Vector<double> > >::_Vector_impl_data", %"struct.std::_Vector_base<dealii::Vector<double>, std::allocator<dealii::Vector<double> > >::_Vector_impl_data"* %1, i32 0, i32 0, !dbg !11020
  %2 = load %"class.dealii::Vector"*, %"class.dealii::Vector"** %_M_start, align 8, !dbg !11020
  %3 = load i64, i64* %__n.addr, align 8, !dbg !11021
  %add.ptr = getelementptr inbounds %"class.dealii::Vector", %"class.dealii::Vector"* %2, i64 %3, !dbg !11022
  ret %"class.dealii::Vector"* %add.ptr, !dbg !11023
}

; Function Attrs: noinline nounwind uwtable
define linkonce_odr dso_local double @_ZNK6dealii6VectorIdEclEj(%"class.dealii::Vector"* %this, i32 %i) #1 comdat align 2 !dbg !11024 {
entry:
  %this.addr = alloca %"class.dealii::Vector"*, align 8
  %i.addr = alloca i32, align 4
  store %"class.dealii::Vector"* %this, %"class.dealii::Vector"** %this.addr, align 8
  call void @llvm.dbg.declare(metadata %"class.dealii::Vector"** %this.addr, metadata !11029, metadata !DIExpression()), !dbg !11030
  store i32 %i, i32* %i.addr, align 4
  call void @llvm.dbg.declare(metadata i32* %i.addr, metadata !11031, metadata !DIExpression()), !dbg !11032
  %this1 = load %"class.dealii::Vector"*, %"class.dealii::Vector"** %this.addr, align 8
  %val = getelementptr inbounds %"class.dealii::Vector", %"class.dealii::Vector"* %this1, i32 0, i32 3, !dbg !11033
  %0 = load double*, double** %val, align 8, !dbg !11033
  %1 = load i32, i32* %i.addr, align 4, !dbg !11034
  %idxprom = zext i32 %1 to i64, !dbg !11033
  %arrayidx = getelementptr inbounds double, double* %0, i64 %idxprom, !dbg !11033
  %2 = load double, double* %arrayidx, align 8, !dbg !11033
  ret double %2, !dbg !11035
}

; Function Attrs: noinline nounwind uwtable
define linkonce_odr dso_local dereferenceable(8) double* @_ZNSt6vectorIdSaIdEEixEm(%"class.std::vector.82"* %this, i64 %__n) #1 comdat align 2 !dbg !11036 {
entry:
  %this.addr = alloca %"class.std::vector.82"*, align 8
  %__n.addr = alloca i64, align 8
  store %"class.std::vector.82"* %this, %"class.std::vector.82"** %this.addr, align 8
  call void @llvm.dbg.declare(metadata %"class.std::vector.82"** %this.addr, metadata !11037, metadata !DIExpression()), !dbg !11038
  store i64 %__n, i64* %__n.addr, align 8
  call void @llvm.dbg.declare(metadata i64* %__n.addr, metadata !11039, metadata !DIExpression()), !dbg !11040
  %this1 = load %"class.std::vector.82"*, %"class.std::vector.82"** %this.addr, align 8
  %0 = bitcast %"class.std::vector.82"* %this1 to %"struct.std::_Vector_base.83"*, !dbg !11041
  %_M_impl = getelementptr inbounds %"struct.std::_Vector_base.83", %"struct.std::_Vector_base.83"* %0, i32 0, i32 0, !dbg !11041
  %1 = bitcast %"struct.std::_Vector_base<double, std::allocator<double> >::_Vector_impl"* %_M_impl to %"struct.std::_Vector_base<double, std::allocator<double> >::_Vector_impl_data"*, !dbg !11042
  %_M_start = getelementptr inbounds %"struct.std::_Vector_base<double, std::allocator<double> >::_Vector_impl_data", %"struct.std::_Vector_base<double, std::allocator<double> >::_Vector_impl_data"* %1, i32 0, i32 0, !dbg !11043
  %2 = load double*, double** %_M_start, align 8, !dbg !11043
  %3 = load i64, i64* %__n.addr, align 8, !dbg !11044
  %add.ptr = getelementptr inbounds double, double* %2, i64 %3, !dbg !11045
  ret double* %add.ptr, !dbg !11046
}

; Function Attrs: noinline uwtable
define linkonce_odr dso_local i32 @_ZNK6dealii9TableBaseILi3EdE4sizeEj(%"class.dealii::TableBase.105"* %this, i32 %i) #0 comdat align 2 !dbg !11047 {
entry:
  %this.addr = alloca %"class.dealii::TableBase.105"*, align 8
  %i.addr = alloca i32, align 4
  store %"class.dealii::TableBase.105"* %this, %"class.dealii::TableBase.105"** %this.addr, align 8
  call void @llvm.dbg.declare(metadata %"class.dealii::TableBase.105"** %this.addr, metadata !11048, metadata !DIExpression()), !dbg !11050
  store i32 %i, i32* %i.addr, align 4
  call void @llvm.dbg.declare(metadata i32* %i.addr, metadata !11051, metadata !DIExpression()), !dbg !11052
  %this1 = load %"class.dealii::TableBase.105"*, %"class.dealii::TableBase.105"** %this.addr, align 8
  %table_size = getelementptr inbounds %"class.dealii::TableBase.105", %"class.dealii::TableBase.105"* %this1, i32 0, i32 3, !dbg !11053
  %0 = bitcast %"class.dealii::TableIndices.106"* %table_size to %"class.dealii::TableIndicesBase.107"*, !dbg !11053
  %1 = load i32, i32* %i.addr, align 4, !dbg !11054
  %call = call i32 @_ZNK6dealii16TableIndicesBaseILi3EEixEj(%"class.dealii::TableIndicesBase.107"* %0, i32 %1), !dbg !11053
  ret i32 %call, !dbg !11055
}

; Function Attrs: noinline nounwind uwtable
define linkonce_odr dso_local dereferenceable(8) double* @_ZNK6dealii5TableILi3EdEclEjjj(%"class.dealii::Table.104"* %this, i32 %i, i32 %j, i32 %k) #1 comdat align 2 !dbg !11056 {
entry:
  %this.addr = alloca %"class.dealii::Table.104"*, align 8
  %i.addr = alloca i32, align 4
  %j.addr = alloca i32, align 4
  %k.addr = alloca i32, align 4
  store %"class.dealii::Table.104"* %this, %"class.dealii::Table.104"** %this.addr, align 8
  call void @llvm.dbg.declare(metadata %"class.dealii::Table.104"** %this.addr, metadata !11057, metadata !DIExpression()), !dbg !11059
  store i32 %i, i32* %i.addr, align 4
  call void @llvm.dbg.declare(metadata i32* %i.addr, metadata !11060, metadata !DIExpression()), !dbg !11061
  store i32 %j, i32* %j.addr, align 4
  call void @llvm.dbg.declare(metadata i32* %j.addr, metadata !11062, metadata !DIExpression()), !dbg !11063
  store i32 %k, i32* %k.addr, align 4
  call void @llvm.dbg.declare(metadata i32* %k.addr, metadata !11064, metadata !DIExpression()), !dbg !11065
  %this1 = load %"class.dealii::Table.104"*, %"class.dealii::Table.104"** %this.addr, align 8
  %0 = bitcast %"class.dealii::Table.104"* %this1 to %"class.dealii::TableBase.105"*, !dbg !11066
  %val = getelementptr inbounds %"class.dealii::TableBase.105", %"class.dealii::TableBase.105"* %0, i32 0, i32 1, !dbg !11066
  %1 = load double*, double** %val, align 8, !dbg !11066
  %2 = load i32, i32* %i.addr, align 4, !dbg !11067
  %3 = bitcast %"class.dealii::Table.104"* %this1 to %"class.dealii::TableBase.105"*, !dbg !11068
  %table_size = getelementptr inbounds %"class.dealii::TableBase.105", %"class.dealii::TableBase.105"* %3, i32 0, i32 3, !dbg !11068
  %4 = bitcast %"class.dealii::TableIndices.106"* %table_size to %"class.dealii::TableIndicesBase.107"*, !dbg !11069
  %call = call i32 @_ZNK6dealii16TableIndicesBaseILi3EEixEj(%"class.dealii::TableIndicesBase.107"* %4, i32 1), !dbg !11069
  %mul = mul i32 %2, %call, !dbg !11070
  %5 = load i32, i32* %j.addr, align 4, !dbg !11071
  %add = add i32 %mul, %5, !dbg !11072
  %6 = bitcast %"class.dealii::Table.104"* %this1 to %"class.dealii::TableBase.105"*, !dbg !11073
  %table_size2 = getelementptr inbounds %"class.dealii::TableBase.105", %"class.dealii::TableBase.105"* %6, i32 0, i32 3, !dbg !11073
  %7 = bitcast %"class.dealii::TableIndices.106"* %table_size2 to %"class.dealii::TableIndicesBase.107"*, !dbg !11074
  %call3 = call i32 @_ZNK6dealii16TableIndicesBaseILi3EEixEj(%"class.dealii::TableIndicesBase.107"* %7, i32 2), !dbg !11074
  %mul4 = mul i32 %add, %call3, !dbg !11075
  %8 = load i32, i32* %k.addr, align 4, !dbg !11076
  %add5 = add i32 %mul4, %8, !dbg !11077
  %idxprom = zext i32 %add5 to i64, !dbg !11078
  %arrayidx = getelementptr inbounds double, double* %1, i64 %idxprom, !dbg !11078
  ret double* %arrayidx, !dbg !11079
}

declare dso_local i32 @_ZN6dealii10QProjectorILi3EE17DataSetDescriptor4faceEjbbbj(i32, i1 zeroext, i1 zeroext, i1 zeroext, i32) #2

declare dso_local i32 @_ZNK6dealii10QProjectorILi3EE17DataSetDescriptorcvjEv(%"class.dealii::QProjector<3>::DataSetDescriptor"*) #2

; Function Attrs: nounwind readnone speculatable willreturn
declare double @llvm.fabs.f64(double) #5

; Function Attrs: noinline uwtable
define weak_odr dso_local void @_ZNK6dealii6FE_ABFILi3EE11interpolateERSt6vectorIdSaIdEERKNS_11VectorSliceIKS2_IS4_SaIS4_EEEE(%"class.dealii::FE_ABF"* %this, %"class.std::vector.82"* dereferenceable(24) %local_dofs, %"class.dealii::VectorSlice"* dereferenceable(16) %values) unnamed_addr #0 comdat align 2 !dbg !11080 {
entry:
  %this.addr = alloca %"class.dealii::FE_ABF"*, align 8
  %local_dofs.addr = alloca %"class.std::vector.82"*, align 8
  %values.addr = alloca %"class.dealii::VectorSlice"*, align 8
  %agg.tmp = alloca %"class.__gnu_cxx::__normal_iterator", align 8
  %agg.tmp2 = alloca %"class.__gnu_cxx::__normal_iterator", align 8
  %ref.tmp = alloca double, align 8
  %n_face_points = alloca i32, align 4
  %face = alloca i32, align 4
  %k = alloca i32, align 4
  %i = alloca i32, align 4
  %start_cell_dofs = alloca i32, align 4
  %start_cell_points = alloca i32, align 4
  %k36 = alloca i32, align 4
  %i41 = alloca i32, align 4
  %d = alloca i32, align 4
  %start_abf_dofs = alloca i32, align 4
  %k76 = alloca i32, align 4
  %i81 = alloca i32, align 4
  %d87 = alloca i32, align 4
  %face111 = alloca i32, align 4
  %n_orient = alloca double, align 8
  %fp = alloca i32, align 4
  %k121 = alloca i32, align 4
  %ref.tmp122 = alloca %"class.dealii::QProjector<3>::DataSetDescriptor", align 4
  %i126 = alloca i32, align 4
  %i155 = alloca i32, align 4
  store %"class.dealii::FE_ABF"* %this, %"class.dealii::FE_ABF"** %this.addr, align 8
  call void @llvm.dbg.declare(metadata %"class.dealii::FE_ABF"** %this.addr, metadata !11081, metadata !DIExpression()), !dbg !11082
  store %"class.std::vector.82"* %local_dofs, %"class.std::vector.82"** %local_dofs.addr, align 8
  call void @llvm.dbg.declare(metadata %"class.std::vector.82"** %local_dofs.addr, metadata !11083, metadata !DIExpression()), !dbg !11084
  store %"class.dealii::VectorSlice"* %values, %"class.dealii::VectorSlice"** %values.addr, align 8
  call void @llvm.dbg.declare(metadata %"class.dealii::VectorSlice"** %values.addr, metadata !11085, metadata !DIExpression()), !dbg !11086
  %this1 = load %"class.dealii::FE_ABF"*, %"class.dealii::FE_ABF"** %this.addr, align 8
  %0 = load %"class.std::vector.82"*, %"class.std::vector.82"** %local_dofs.addr, align 8, !dbg !11087
  %call = call double* @_ZNSt6vectorIdSaIdEE5beginEv(%"class.std::vector.82"* %0) #4, !dbg !11088
  %coerce.dive = getelementptr inbounds %"class.__gnu_cxx::__normal_iterator", %"class.__gnu_cxx::__normal_iterator"* %agg.tmp, i32 0, i32 0, !dbg !11088
  store double* %call, double** %coerce.dive, align 8, !dbg !11088
  %1 = load %"class.std::vector.82"*, %"class.std::vector.82"** %local_dofs.addr, align 8, !dbg !11089
  %call3 = call double* @_ZNSt6vectorIdSaIdEE3endEv(%"class.std::vector.82"* %1) #4, !dbg !11090
  %coerce.dive4 = getelementptr inbounds %"class.__gnu_cxx::__normal_iterator", %"class.__gnu_cxx::__normal_iterator"* %agg.tmp2, i32 0, i32 0, !dbg !11090
  store double* %call3, double** %coerce.dive4, align 8, !dbg !11090
  store double 0.000000e+00, double* %ref.tmp, align 8, !dbg !11091
  %coerce.dive5 = getelementptr inbounds %"class.__gnu_cxx::__normal_iterator", %"class.__gnu_cxx::__normal_iterator"* %agg.tmp, i32 0, i32 0, !dbg !11092
  %2 = load double*, double** %coerce.dive5, align 8, !dbg !11092
  %coerce.dive6 = getelementptr inbounds %"class.__gnu_cxx::__normal_iterator", %"class.__gnu_cxx::__normal_iterator"* %agg.tmp2, i32 0, i32 0, !dbg !11092
  %3 = load double*, double** %coerce.dive6, align 8, !dbg !11092
  call void @_ZSt4fillIN9__gnu_cxx17__normal_iteratorIPdSt6vectorIdSaIdEEEEdEvT_S7_RKT0_(double* %2, double* %3, double* dereferenceable(8) %ref.tmp), !dbg !11092
  call void @llvm.dbg.declare(metadata i32* %n_face_points, metadata !11093, metadata !DIExpression()), !dbg !11094
  %boundary_weights = getelementptr inbounds %"class.dealii::FE_ABF", %"class.dealii::FE_ABF"* %this1, i32 0, i32 3, !dbg !11095
  %4 = bitcast %"class.dealii::Table"* %boundary_weights to %"class.dealii::TableBase"*, !dbg !11095
  %call7 = call i32 @_ZNK6dealii9TableBaseILi2EdE4sizeEj(%"class.dealii::TableBase"* %4, i32 0), !dbg !11096
  store i32 %call7, i32* %n_face_points, align 4, !dbg !11094
  call void @llvm.dbg.declare(metadata i32* %face, metadata !11097, metadata !DIExpression()), !dbg !11099
  store i32 0, i32* %face, align 4, !dbg !11099
  br label %for.cond, !dbg !11100

for.cond:                                         ; preds = %for.inc29, %entry
  %5 = load i32, i32* %face, align 4, !dbg !11101
  %cmp = icmp ult i32 %5, 6, !dbg !11103
  br i1 %cmp, label %for.body, label %for.end31, !dbg !11104

for.body:                                         ; preds = %for.cond
  call void @llvm.dbg.declare(metadata i32* %k, metadata !11105, metadata !DIExpression()), !dbg !11107
  store i32 0, i32* %k, align 4, !dbg !11107
  br label %for.cond8, !dbg !11108

for.cond8:                                        ; preds = %for.inc26, %for.body
  %6 = load i32, i32* %k, align 4, !dbg !11109
  %7 = load i32, i32* %n_face_points, align 4, !dbg !11111
  %cmp9 = icmp ult i32 %6, %7, !dbg !11112
  br i1 %cmp9, label %for.body10, label %for.end28, !dbg !11113

for.body10:                                       ; preds = %for.cond8
  call void @llvm.dbg.declare(metadata i32* %i, metadata !11114, metadata !DIExpression()), !dbg !11116
  store i32 0, i32* %i, align 4, !dbg !11116
  br label %for.cond11, !dbg !11117

for.cond11:                                       ; preds = %for.inc, %for.body10
  %8 = load i32, i32* %i, align 4, !dbg !11118
  %boundary_weights12 = getelementptr inbounds %"class.dealii::FE_ABF", %"class.dealii::FE_ABF"* %this1, i32 0, i32 3, !dbg !11120
  %9 = bitcast %"class.dealii::Table"* %boundary_weights12 to %"class.dealii::TableBase"*, !dbg !11120
  %call13 = call i32 @_ZNK6dealii9TableBaseILi2EdE4sizeEj(%"class.dealii::TableBase"* %9, i32 1), !dbg !11121
  %cmp14 = icmp ult i32 %8, %call13, !dbg !11122
  br i1 %cmp14, label %for.body15, label %for.end, !dbg !11123

for.body15:                                       ; preds = %for.cond11
  %boundary_weights16 = getelementptr inbounds %"class.dealii::FE_ABF", %"class.dealii::FE_ABF"* %this1, i32 0, i32 3, !dbg !11124
  %10 = load i32, i32* %k, align 4, !dbg !11126
  %11 = load i32, i32* %i, align 4, !dbg !11127
  %call17 = call dereferenceable(8) double* @_ZNK6dealii5TableILi2EdEclEjj(%"class.dealii::Table"* %boundary_weights16, i32 %10, i32 %11), !dbg !11124
  %12 = load double, double* %call17, align 8, !dbg !11124
  %13 = load %"class.dealii::VectorSlice"*, %"class.dealii::VectorSlice"** %values.addr, align 8, !dbg !11128
  %14 = load i32, i32* %face, align 4, !dbg !11129
  %idxprom = zext i32 %14 to i64, !dbg !11130
  %arrayidx = getelementptr inbounds [6 x i32], [6 x i32]* @_ZN6dealii12GeometryInfoILi3EE21unit_normal_directionE, i64 0, i64 %idxprom, !dbg !11130
  %15 = load i32, i32* %arrayidx, align 4, !dbg !11130
  %call18 = call dereferenceable(24) %"class.std::vector.82"* @_ZNK6dealii11VectorSliceIKSt6vectorIS1_IdSaIdEESaIS3_EEEixEj(%"class.dealii::VectorSlice"* %13, i32 %15), !dbg !11128
  %16 = load i32, i32* %face, align 4, !dbg !11131
  %17 = load i32, i32* %n_face_points, align 4, !dbg !11132
  %mul = mul i32 %16, %17, !dbg !11133
  %18 = load i32, i32* %k, align 4, !dbg !11134
  %add = add i32 %mul, %18, !dbg !11135
  %conv = zext i32 %add to i64, !dbg !11131
  %call19 = call dereferenceable(8) double* @_ZNKSt6vectorIdSaIdEEixEm(%"class.std::vector.82"* %call18, i64 %conv) #4, !dbg !11128
  %19 = load double, double* %call19, align 8, !dbg !11128
  %mul20 = fmul double %12, %19, !dbg !11136
  %20 = load %"class.std::vector.82"*, %"class.std::vector.82"** %local_dofs.addr, align 8, !dbg !11137
  %21 = load i32, i32* %i, align 4, !dbg !11138
  %22 = load i32, i32* %face, align 4, !dbg !11139
  %23 = bitcast %"class.dealii::FE_ABF"* %this1 to i8*, !dbg !11140
  %add.ptr = getelementptr inbounds i8, i8* %23, i64 72, !dbg !11140
  %24 = bitcast i8* %add.ptr to %"class.dealii::FiniteElementData"*, !dbg !11140
  %dofs_per_face = getelementptr inbounds %"class.dealii::FiniteElementData", %"class.dealii::FiniteElementData"* %24, i32 0, i32 9, !dbg !11140
  %25 = load i32, i32* %dofs_per_face, align 4, !dbg !11140
  %mul21 = mul i32 %22, %25, !dbg !11141
  %add22 = add i32 %21, %mul21, !dbg !11142
  %conv23 = zext i32 %add22 to i64, !dbg !11138
  %call24 = call dereferenceable(8) double* @_ZNSt6vectorIdSaIdEEixEm(%"class.std::vector.82"* %20, i64 %conv23) #4, !dbg !11137
  %26 = load double, double* %call24, align 8, !dbg !11143
  %add25 = fadd double %26, %mul20, !dbg !11143
  store double %add25, double* %call24, align 8, !dbg !11143
  br label %for.inc, !dbg !11144

for.inc:                                          ; preds = %for.body15
  %27 = load i32, i32* %i, align 4, !dbg !11145
  %inc = add i32 %27, 1, !dbg !11145
  store i32 %inc, i32* %i, align 4, !dbg !11145
  br label %for.cond11, !dbg !11146, !llvm.loop !11147

for.end:                                          ; preds = %for.cond11
  br label %for.inc26, !dbg !11148

for.inc26:                                        ; preds = %for.end
  %28 = load i32, i32* %k, align 4, !dbg !11149
  %inc27 = add i32 %28, 1, !dbg !11149
  store i32 %inc27, i32* %k, align 4, !dbg !11149
  br label %for.cond8, !dbg !11150, !llvm.loop !11151

for.end28:                                        ; preds = %for.cond8
  br label %for.inc29, !dbg !11152

for.inc29:                                        ; preds = %for.end28
  %29 = load i32, i32* %face, align 4, !dbg !11153
  %inc30 = add i32 %29, 1, !dbg !11153
  store i32 %inc30, i32* %face, align 4, !dbg !11153
  br label %for.cond, !dbg !11154, !llvm.loop !11155

for.end31:                                        ; preds = %for.cond
  call void @llvm.dbg.declare(metadata i32* %start_cell_dofs, metadata !11157, metadata !DIExpression()), !dbg !11158
  %30 = bitcast %"class.dealii::FE_ABF"* %this1 to i8*, !dbg !11159
  %add.ptr32 = getelementptr inbounds i8, i8* %30, i64 72, !dbg !11159
  %31 = bitcast i8* %add.ptr32 to %"class.dealii::FiniteElementData"*, !dbg !11159
  %dofs_per_face33 = getelementptr inbounds %"class.dealii::FiniteElementData", %"class.dealii::FiniteElementData"* %31, i32 0, i32 9, !dbg !11159
  %32 = load i32, i32* %dofs_per_face33, align 4, !dbg !11159
  %mul34 = mul i32 6, %32, !dbg !11160
  store i32 %mul34, i32* %start_cell_dofs, align 4, !dbg !11158
  call void @llvm.dbg.declare(metadata i32* %start_cell_points, metadata !11161, metadata !DIExpression()), !dbg !11162
  %33 = load i32, i32* %n_face_points, align 4, !dbg !11163
  %mul35 = mul i32 6, %33, !dbg !11164
  store i32 %mul35, i32* %start_cell_points, align 4, !dbg !11162
  call void @llvm.dbg.declare(metadata i32* %k36, metadata !11165, metadata !DIExpression()), !dbg !11167
  store i32 0, i32* %k36, align 4, !dbg !11167
  br label %for.cond37, !dbg !11168

for.cond37:                                       ; preds = %for.inc69, %for.end31
  %34 = load i32, i32* %k36, align 4, !dbg !11169
  %interior_weights = getelementptr inbounds %"class.dealii::FE_ABF", %"class.dealii::FE_ABF"* %this1, i32 0, i32 4, !dbg !11171
  %35 = bitcast %"class.dealii::Table.104"* %interior_weights to %"class.dealii::TableBase.105"*, !dbg !11171
  %call38 = call i32 @_ZNK6dealii9TableBaseILi3EdE4sizeEj(%"class.dealii::TableBase.105"* %35, i32 0), !dbg !11172
  %cmp39 = icmp ult i32 %34, %call38, !dbg !11173
  br i1 %cmp39, label %for.body40, label %for.end71, !dbg !11174

for.body40:                                       ; preds = %for.cond37
  call void @llvm.dbg.declare(metadata i32* %i41, metadata !11175, metadata !DIExpression()), !dbg !11177
  store i32 0, i32* %i41, align 4, !dbg !11177
  br label %for.cond42, !dbg !11178

for.cond42:                                       ; preds = %for.inc66, %for.body40
  %36 = load i32, i32* %i41, align 4, !dbg !11179
  %interior_weights43 = getelementptr inbounds %"class.dealii::FE_ABF", %"class.dealii::FE_ABF"* %this1, i32 0, i32 4, !dbg !11181
  %37 = bitcast %"class.dealii::Table.104"* %interior_weights43 to %"class.dealii::TableBase.105"*, !dbg !11181
  %call44 = call i32 @_ZNK6dealii9TableBaseILi3EdE4sizeEj(%"class.dealii::TableBase.105"* %37, i32 1), !dbg !11182
  %cmp45 = icmp ult i32 %36, %call44, !dbg !11183
  br i1 %cmp45, label %for.body46, label %for.end68, !dbg !11184

for.body46:                                       ; preds = %for.cond42
  call void @llvm.dbg.declare(metadata i32* %d, metadata !11185, metadata !DIExpression()), !dbg !11187
  store i32 0, i32* %d, align 4, !dbg !11187
  br label %for.cond47, !dbg !11188

for.cond47:                                       ; preds = %for.inc63, %for.body46
  %38 = load i32, i32* %d, align 4, !dbg !11189
  %cmp48 = icmp ult i32 %38, 3, !dbg !11191
  br i1 %cmp48, label %for.body49, label %for.end65, !dbg !11192

for.body49:                                       ; preds = %for.cond47
  %interior_weights50 = getelementptr inbounds %"class.dealii::FE_ABF", %"class.dealii::FE_ABF"* %this1, i32 0, i32 4, !dbg !11193
  %39 = load i32, i32* %k36, align 4, !dbg !11194
  %40 = load i32, i32* %i41, align 4, !dbg !11195
  %41 = load i32, i32* %d, align 4, !dbg !11196
  %call51 = call dereferenceable(8) double* @_ZNK6dealii5TableILi3EdEclEjjj(%"class.dealii::Table.104"* %interior_weights50, i32 %39, i32 %40, i32 %41), !dbg !11193
  %42 = load double, double* %call51, align 8, !dbg !11193
  %43 = load %"class.dealii::VectorSlice"*, %"class.dealii::VectorSlice"** %values.addr, align 8, !dbg !11197
  %44 = load i32, i32* %d, align 4, !dbg !11198
  %call52 = call dereferenceable(24) %"class.std::vector.82"* @_ZNK6dealii11VectorSliceIKSt6vectorIS1_IdSaIdEESaIS3_EEEixEj(%"class.dealii::VectorSlice"* %43, i32 %44), !dbg !11197
  %45 = load i32, i32* %k36, align 4, !dbg !11199
  %46 = load i32, i32* %start_cell_points, align 4, !dbg !11200
  %add53 = add i32 %45, %46, !dbg !11201
  %conv54 = zext i32 %add53 to i64, !dbg !11199
  %call55 = call dereferenceable(8) double* @_ZNKSt6vectorIdSaIdEEixEm(%"class.std::vector.82"* %call52, i64 %conv54) #4, !dbg !11197
  %47 = load double, double* %call55, align 8, !dbg !11197
  %mul56 = fmul double %42, %47, !dbg !11202
  %48 = load %"class.std::vector.82"*, %"class.std::vector.82"** %local_dofs.addr, align 8, !dbg !11203
  %49 = load i32, i32* %start_cell_dofs, align 4, !dbg !11204
  %50 = load i32, i32* %i41, align 4, !dbg !11205
  %mul57 = mul i32 %50, 3, !dbg !11206
  %add58 = add i32 %49, %mul57, !dbg !11207
  %51 = load i32, i32* %d, align 4, !dbg !11208
  %add59 = add i32 %add58, %51, !dbg !11209
  %conv60 = zext i32 %add59 to i64, !dbg !11204
  %call61 = call dereferenceable(8) double* @_ZNSt6vectorIdSaIdEEixEm(%"class.std::vector.82"* %48, i64 %conv60) #4, !dbg !11203
  %52 = load double, double* %call61, align 8, !dbg !11210
  %add62 = fadd double %52, %mul56, !dbg !11210
  store double %add62, double* %call61, align 8, !dbg !11210
  br label %for.inc63, !dbg !11203

for.inc63:                                        ; preds = %for.body49
  %53 = load i32, i32* %d, align 4, !dbg !11211
  %inc64 = add i32 %53, 1, !dbg !11211
  store i32 %inc64, i32* %d, align 4, !dbg !11211
  br label %for.cond47, !dbg !11212, !llvm.loop !11213

for.end65:                                        ; preds = %for.cond47
  br label %for.inc66, !dbg !11214

for.inc66:                                        ; preds = %for.end65
  %54 = load i32, i32* %i41, align 4, !dbg !11215
  %inc67 = add i32 %54, 1, !dbg !11215
  store i32 %inc67, i32* %i41, align 4, !dbg !11215
  br label %for.cond42, !dbg !11216, !llvm.loop !11217

for.end68:                                        ; preds = %for.cond42
  br label %for.inc69, !dbg !11218

for.inc69:                                        ; preds = %for.end68
  %55 = load i32, i32* %k36, align 4, !dbg !11219
  %inc70 = add i32 %55, 1, !dbg !11219
  store i32 %inc70, i32* %k36, align 4, !dbg !11219
  br label %for.cond37, !dbg !11220, !llvm.loop !11221

for.end71:                                        ; preds = %for.cond37
  call void @llvm.dbg.declare(metadata i32* %start_abf_dofs, metadata !11223, metadata !DIExpression()), !dbg !11224
  %56 = load i32, i32* %start_cell_dofs, align 4, !dbg !11225
  %interior_weights72 = getelementptr inbounds %"class.dealii::FE_ABF", %"class.dealii::FE_ABF"* %this1, i32 0, i32 4, !dbg !11226
  %57 = bitcast %"class.dealii::Table.104"* %interior_weights72 to %"class.dealii::TableBase.105"*, !dbg !11226
  %call73 = call i32 @_ZNK6dealii9TableBaseILi3EdE4sizeEj(%"class.dealii::TableBase.105"* %57, i32 1), !dbg !11227
  %mul74 = mul i32 %call73, 3, !dbg !11228
  %add75 = add i32 %56, %mul74, !dbg !11229
  store i32 %add75, i32* %start_abf_dofs, align 4, !dbg !11224
  call void @llvm.dbg.declare(metadata i32* %k76, metadata !11230, metadata !DIExpression()), !dbg !11232
  store i32 0, i32* %k76, align 4, !dbg !11232
  br label %for.cond77, !dbg !11233

for.cond77:                                       ; preds = %for.inc108, %for.end71
  %58 = load i32, i32* %k76, align 4, !dbg !11234
  %interior_weights_abf = getelementptr inbounds %"class.dealii::FE_ABF", %"class.dealii::FE_ABF"* %this1, i32 0, i32 6, !dbg !11236
  %59 = bitcast %"class.dealii::Table.104"* %interior_weights_abf to %"class.dealii::TableBase.105"*, !dbg !11236
  %call78 = call i32 @_ZNK6dealii9TableBaseILi3EdE4sizeEj(%"class.dealii::TableBase.105"* %59, i32 0), !dbg !11237
  %cmp79 = icmp ult i32 %58, %call78, !dbg !11238
  br i1 %cmp79, label %for.body80, label %for.end110, !dbg !11239

for.body80:                                       ; preds = %for.cond77
  call void @llvm.dbg.declare(metadata i32* %i81, metadata !11240, metadata !DIExpression()), !dbg !11242
  store i32 0, i32* %i81, align 4, !dbg !11242
  br label %for.cond82, !dbg !11243

for.cond82:                                       ; preds = %for.inc105, %for.body80
  %60 = load i32, i32* %i81, align 4, !dbg !11244
  %interior_weights_abf83 = getelementptr inbounds %"class.dealii::FE_ABF", %"class.dealii::FE_ABF"* %this1, i32 0, i32 6, !dbg !11246
  %61 = bitcast %"class.dealii::Table.104"* %interior_weights_abf83 to %"class.dealii::TableBase.105"*, !dbg !11246
  %call84 = call i32 @_ZNK6dealii9TableBaseILi3EdE4sizeEj(%"class.dealii::TableBase.105"* %61, i32 1), !dbg !11247
  %cmp85 = icmp ult i32 %60, %call84, !dbg !11248
  br i1 %cmp85, label %for.body86, label %for.end107, !dbg !11249

for.body86:                                       ; preds = %for.cond82
  call void @llvm.dbg.declare(metadata i32* %d87, metadata !11250, metadata !DIExpression()), !dbg !11252
  store i32 0, i32* %d87, align 4, !dbg !11252
  br label %for.cond88, !dbg !11253

for.cond88:                                       ; preds = %for.inc102, %for.body86
  %62 = load i32, i32* %d87, align 4, !dbg !11254
  %cmp89 = icmp ult i32 %62, 3, !dbg !11256
  br i1 %cmp89, label %for.body90, label %for.end104, !dbg !11257

for.body90:                                       ; preds = %for.cond88
  %interior_weights_abf91 = getelementptr inbounds %"class.dealii::FE_ABF", %"class.dealii::FE_ABF"* %this1, i32 0, i32 6, !dbg !11258
  %63 = load i32, i32* %k76, align 4, !dbg !11259
  %64 = load i32, i32* %i81, align 4, !dbg !11260
  %65 = load i32, i32* %d87, align 4, !dbg !11261
  %call92 = call dereferenceable(8) double* @_ZNK6dealii5TableILi3EdEclEjjj(%"class.dealii::Table.104"* %interior_weights_abf91, i32 %63, i32 %64, i32 %65), !dbg !11258
  %66 = load double, double* %call92, align 8, !dbg !11258
  %67 = load %"class.dealii::VectorSlice"*, %"class.dealii::VectorSlice"** %values.addr, align 8, !dbg !11262
  %68 = load i32, i32* %d87, align 4, !dbg !11263
  %call93 = call dereferenceable(24) %"class.std::vector.82"* @_ZNK6dealii11VectorSliceIKSt6vectorIS1_IdSaIdEESaIS3_EEEixEj(%"class.dealii::VectorSlice"* %67, i32 %68), !dbg !11262
  %69 = load i32, i32* %k76, align 4, !dbg !11264
  %70 = load i32, i32* %start_cell_points, align 4, !dbg !11265
  %add94 = add i32 %69, %70, !dbg !11266
  %conv95 = zext i32 %add94 to i64, !dbg !11264
  %call96 = call dereferenceable(8) double* @_ZNKSt6vectorIdSaIdEEixEm(%"class.std::vector.82"* %call93, i64 %conv95) #4, !dbg !11262
  %71 = load double, double* %call96, align 8, !dbg !11262
  %mul97 = fmul double %66, %71, !dbg !11267
  %72 = load %"class.std::vector.82"*, %"class.std::vector.82"** %local_dofs.addr, align 8, !dbg !11268
  %73 = load i32, i32* %start_abf_dofs, align 4, !dbg !11269
  %74 = load i32, i32* %i81, align 4, !dbg !11270
  %add98 = add i32 %73, %74, !dbg !11271
  %conv99 = zext i32 %add98 to i64, !dbg !11269
  %call100 = call dereferenceable(8) double* @_ZNSt6vectorIdSaIdEEixEm(%"class.std::vector.82"* %72, i64 %conv99) #4, !dbg !11268
  %75 = load double, double* %call100, align 8, !dbg !11272
  %add101 = fadd double %75, %mul97, !dbg !11272
  store double %add101, double* %call100, align 8, !dbg !11272
  br label %for.inc102, !dbg !11268

for.inc102:                                       ; preds = %for.body90
  %76 = load i32, i32* %d87, align 4, !dbg !11273
  %inc103 = add i32 %76, 1, !dbg !11273
  store i32 %inc103, i32* %d87, align 4, !dbg !11273
  br label %for.cond88, !dbg !11274, !llvm.loop !11275

for.end104:                                       ; preds = %for.cond88
  br label %for.inc105, !dbg !11276

for.inc105:                                       ; preds = %for.end104
  %77 = load i32, i32* %i81, align 4, !dbg !11277
  %inc106 = add i32 %77, 1, !dbg !11277
  store i32 %inc106, i32* %i81, align 4, !dbg !11277
  br label %for.cond82, !dbg !11278, !llvm.loop !11279

for.end107:                                       ; preds = %for.cond82
  br label %for.inc108, !dbg !11280

for.inc108:                                       ; preds = %for.end107
  %78 = load i32, i32* %k76, align 4, !dbg !11281
  %inc109 = add i32 %78, 1, !dbg !11281
  store i32 %inc109, i32* %k76, align 4, !dbg !11281
  br label %for.cond77, !dbg !11282, !llvm.loop !11283

for.end110:                                       ; preds = %for.cond77
  call void @llvm.dbg.declare(metadata i32* %face111, metadata !11285, metadata !DIExpression()), !dbg !11287
  store i32 0, i32* %face111, align 4, !dbg !11287
  br label %for.cond112, !dbg !11288

for.cond112:                                      ; preds = %for.inc152, %for.end110
  %79 = load i32, i32* %face111, align 4, !dbg !11289
  %cmp113 = icmp ult i32 %79, 6, !dbg !11291
  br i1 %cmp113, label %for.body114, label %for.end154, !dbg !11292

for.body114:                                      ; preds = %for.cond112
  call void @llvm.dbg.declare(metadata double* %n_orient, metadata !11293, metadata !DIExpression()), !dbg !11295
  %80 = load i32, i32* %face111, align 4, !dbg !11296
  %idxprom115 = zext i32 %80 to i64, !dbg !11297
  %arrayidx116 = getelementptr inbounds [6 x i32], [6 x i32]* @_ZN6dealii12GeometryInfoILi3EE23unit_normal_orientationE, i64 0, i64 %idxprom115, !dbg !11297
  %81 = load i32, i32* %arrayidx116, align 4, !dbg !11297
  %conv117 = sitofp i32 %81 to double, !dbg !11297
  store double %conv117, double* %n_orient, align 8, !dbg !11295
  call void @llvm.dbg.declare(metadata i32* %fp, metadata !11298, metadata !DIExpression()), !dbg !11300
  store i32 0, i32* %fp, align 4, !dbg !11300
  br label %for.cond118, !dbg !11301

for.cond118:                                      ; preds = %for.inc149, %for.body114
  %82 = load i32, i32* %fp, align 4, !dbg !11302
  %83 = load i32, i32* %n_face_points, align 4, !dbg !11304
  %cmp119 = icmp ult i32 %82, %83, !dbg !11305
  br i1 %cmp119, label %for.body120, label %for.end151, !dbg !11306

for.body120:                                      ; preds = %for.cond118
  call void @llvm.dbg.declare(metadata i32* %k121, metadata !11307, metadata !DIExpression()), !dbg !11309
  %84 = load i32, i32* %face111, align 4, !dbg !11310
  %85 = load i32, i32* %n_face_points, align 4, !dbg !11311
  %call123 = call i32 @_ZN6dealii10QProjectorILi3EE17DataSetDescriptor4faceEjbbbj(i32 %84, i1 zeroext false, i1 zeroext false, i1 zeroext false, i32 %85), !dbg !11312
  %coerce.dive124 = getelementptr inbounds %"class.dealii::QProjector<3>::DataSetDescriptor", %"class.dealii::QProjector<3>::DataSetDescriptor"* %ref.tmp122, i32 0, i32 0, !dbg !11312
  store i32 %call123, i32* %coerce.dive124, align 4, !dbg !11312
  %call125 = call i32 @_ZNK6dealii10QProjectorILi3EE17DataSetDescriptorcvjEv(%"class.dealii::QProjector<3>::DataSetDescriptor"* %ref.tmp122), !dbg !11312
  store i32 %call125, i32* %k121, align 4, !dbg !11309
  call void @llvm.dbg.declare(metadata i32* %i126, metadata !11313, metadata !DIExpression()), !dbg !11315
  store i32 0, i32* %i126, align 4, !dbg !11315
  br label %for.cond127, !dbg !11316

for.cond127:                                      ; preds = %for.inc146, %for.body120
  %86 = load i32, i32* %i126, align 4, !dbg !11317
  %boundary_weights_abf = getelementptr inbounds %"class.dealii::FE_ABF", %"class.dealii::FE_ABF"* %this1, i32 0, i32 5, !dbg !11319
  %87 = bitcast %"class.dealii::Table"* %boundary_weights_abf to %"class.dealii::TableBase"*, !dbg !11319
  %call128 = call i32 @_ZNK6dealii9TableBaseILi2EdE4sizeEj(%"class.dealii::TableBase"* %87, i32 1), !dbg !11320
  %cmp129 = icmp ult i32 %86, %call128, !dbg !11321
  br i1 %cmp129, label %for.body130, label %for.end148, !dbg !11322

for.body130:                                      ; preds = %for.cond127
  %88 = load double, double* %n_orient, align 8, !dbg !11323
  %boundary_weights_abf131 = getelementptr inbounds %"class.dealii::FE_ABF", %"class.dealii::FE_ABF"* %this1, i32 0, i32 5, !dbg !11324
  %89 = load i32, i32* %k121, align 4, !dbg !11325
  %90 = load i32, i32* %fp, align 4, !dbg !11326
  %add132 = add i32 %89, %90, !dbg !11327
  %91 = load i32, i32* %i126, align 4, !dbg !11328
  %call133 = call dereferenceable(8) double* @_ZNK6dealii5TableILi2EdEclEjj(%"class.dealii::Table"* %boundary_weights_abf131, i32 %add132, i32 %91), !dbg !11324
  %92 = load double, double* %call133, align 8, !dbg !11324
  %mul134 = fmul double %88, %92, !dbg !11329
  %93 = load %"class.dealii::VectorSlice"*, %"class.dealii::VectorSlice"** %values.addr, align 8, !dbg !11330
  %94 = load i32, i32* %face111, align 4, !dbg !11331
  %idxprom135 = zext i32 %94 to i64, !dbg !11332
  %arrayidx136 = getelementptr inbounds [6 x i32], [6 x i32]* @_ZN6dealii12GeometryInfoILi3EE21unit_normal_directionE, i64 0, i64 %idxprom135, !dbg !11332
  %95 = load i32, i32* %arrayidx136, align 4, !dbg !11332
  %call137 = call dereferenceable(24) %"class.std::vector.82"* @_ZNK6dealii11VectorSliceIKSt6vectorIS1_IdSaIdEESaIS3_EEEixEj(%"class.dealii::VectorSlice"* %93, i32 %95), !dbg !11330
  %96 = load i32, i32* %k121, align 4, !dbg !11333
  %97 = load i32, i32* %fp, align 4, !dbg !11334
  %add138 = add i32 %96, %97, !dbg !11335
  %conv139 = zext i32 %add138 to i64, !dbg !11333
  %call140 = call dereferenceable(8) double* @_ZNKSt6vectorIdSaIdEEixEm(%"class.std::vector.82"* %call137, i64 %conv139) #4, !dbg !11330
  %98 = load double, double* %call140, align 8, !dbg !11330
  %mul141 = fmul double %mul134, %98, !dbg !11336
  %99 = load %"class.std::vector.82"*, %"class.std::vector.82"** %local_dofs.addr, align 8, !dbg !11337
  %100 = load i32, i32* %start_abf_dofs, align 4, !dbg !11338
  %101 = load i32, i32* %i126, align 4, !dbg !11339
  %add142 = add i32 %100, %101, !dbg !11340
  %conv143 = zext i32 %add142 to i64, !dbg !11338
  %call144 = call dereferenceable(8) double* @_ZNSt6vectorIdSaIdEEixEm(%"class.std::vector.82"* %99, i64 %conv143) #4, !dbg !11337
  %102 = load double, double* %call144, align 8, !dbg !11341
  %add145 = fadd double %102, %mul141, !dbg !11341
  store double %add145, double* %call144, align 8, !dbg !11341
  br label %for.inc146, !dbg !11337

for.inc146:                                       ; preds = %for.body130
  %103 = load i32, i32* %i126, align 4, !dbg !11342
  %inc147 = add i32 %103, 1, !dbg !11342
  store i32 %inc147, i32* %i126, align 4, !dbg !11342
  br label %for.cond127, !dbg !11343, !llvm.loop !11344

for.end148:                                       ; preds = %for.cond127
  br label %for.inc149, !dbg !11346

for.inc149:                                       ; preds = %for.end148
  %104 = load i32, i32* %fp, align 4, !dbg !11347
  %inc150 = add i32 %104, 1, !dbg !11347
  store i32 %inc150, i32* %fp, align 4, !dbg !11347
  br label %for.cond118, !dbg !11348, !llvm.loop !11349

for.end151:                                       ; preds = %for.cond118
  br label %for.inc152, !dbg !11351

for.inc152:                                       ; preds = %for.end151
  %105 = load i32, i32* %face111, align 4, !dbg !11352
  %inc153 = add i32 %105, 1, !dbg !11352
  store i32 %inc153, i32* %face111, align 4, !dbg !11352
  br label %for.cond112, !dbg !11353, !llvm.loop !11354

for.end154:                                       ; preds = %for.cond112
  call void @llvm.dbg.declare(metadata i32* %i155, metadata !11356, metadata !DIExpression()), !dbg !11358
  store i32 0, i32* %i155, align 4, !dbg !11358
  br label %for.cond156, !dbg !11359

for.cond156:                                      ; preds = %for.inc168, %for.end154
  %106 = load i32, i32* %i155, align 4, !dbg !11360
  %boundary_weights_abf157 = getelementptr inbounds %"class.dealii::FE_ABF", %"class.dealii::FE_ABF"* %this1, i32 0, i32 5, !dbg !11362
  %107 = bitcast %"class.dealii::Table"* %boundary_weights_abf157 to %"class.dealii::TableBase"*, !dbg !11362
  %call158 = call i32 @_ZNK6dealii9TableBaseILi2EdE4sizeEj(%"class.dealii::TableBase"* %107, i32 1), !dbg !11363
  %cmp159 = icmp ult i32 %106, %call158, !dbg !11364
  br i1 %cmp159, label %for.body160, label %for.end170, !dbg !11365

for.body160:                                      ; preds = %for.cond156
  %108 = load %"class.std::vector.82"*, %"class.std::vector.82"** %local_dofs.addr, align 8, !dbg !11366
  %109 = load i32, i32* %start_abf_dofs, align 4, !dbg !11368
  %110 = load i32, i32* %i155, align 4, !dbg !11369
  %add161 = add i32 %109, %110, !dbg !11370
  %conv162 = zext i32 %add161 to i64, !dbg !11368
  %call163 = call dereferenceable(8) double* @_ZNSt6vectorIdSaIdEEixEm(%"class.std::vector.82"* %108, i64 %conv162) #4, !dbg !11366
  %111 = load double, double* %call163, align 8, !dbg !11366
  %112 = call double @llvm.fabs.f64(double %111), !dbg !11371
  %cmp164 = fcmp olt double %112, 0x3C9CD2B297D889BC, !dbg !11372
  br i1 %cmp164, label %if.then, label %if.end, !dbg !11373

if.then:                                          ; preds = %for.body160
  %113 = load %"class.std::vector.82"*, %"class.std::vector.82"** %local_dofs.addr, align 8, !dbg !11374
  %114 = load i32, i32* %start_abf_dofs, align 4, !dbg !11375
  %115 = load i32, i32* %i155, align 4, !dbg !11376
  %add165 = add i32 %114, %115, !dbg !11377
  %conv166 = zext i32 %add165 to i64, !dbg !11375
  %call167 = call dereferenceable(8) double* @_ZNSt6vectorIdSaIdEEixEm(%"class.std::vector.82"* %113, i64 %conv166) #4, !dbg !11374
  store double 0.000000e+00, double* %call167, align 8, !dbg !11378
  br label %if.end, !dbg !11374

if.end:                                           ; preds = %if.then, %for.body160
  br label %for.inc168, !dbg !11379

for.inc168:                                       ; preds = %if.end
  %116 = load i32, i32* %i155, align 4, !dbg !11380
  %inc169 = add i32 %116, 1, !dbg !11380
  store i32 %inc169, i32* %i155, align 4, !dbg !11380
  br label %for.cond156, !dbg !11381, !llvm.loop !11382

for.end170:                                       ; preds = %for.cond156
  ret void, !dbg !11384
}

; Function Attrs: noinline nounwind uwtable
define linkonce_odr dso_local dereferenceable(24) %"class.std::vector.82"* @_ZNK6dealii11VectorSliceIKSt6vectorIS1_IdSaIdEESaIS3_EEEixEj(%"class.dealii::VectorSlice"* %this, i32 %i) #1 comdat align 2 !dbg !11385 {
entry:
  %this.addr = alloca %"class.dealii::VectorSlice"*, align 8
  %i.addr = alloca i32, align 4
  store %"class.dealii::VectorSlice"* %this, %"class.dealii::VectorSlice"** %this.addr, align 8
  call void @llvm.dbg.declare(metadata %"class.dealii::VectorSlice"** %this.addr, metadata !11386, metadata !DIExpression()), !dbg !11388
  store i32 %i, i32* %i.addr, align 4
  call void @llvm.dbg.declare(metadata i32* %i.addr, metadata !11389, metadata !DIExpression()), !dbg !11390
  %this1 = load %"class.dealii::VectorSlice"*, %"class.dealii::VectorSlice"** %this.addr, align 8
  %v = getelementptr inbounds %"class.dealii::VectorSlice", %"class.dealii::VectorSlice"* %this1, i32 0, i32 0, !dbg !11391
  %0 = load %"class.std::vector.123"*, %"class.std::vector.123"** %v, align 8, !dbg !11391
  %start = getelementptr inbounds %"class.dealii::VectorSlice", %"class.dealii::VectorSlice"* %this1, i32 0, i32 1, !dbg !11392
  %1 = load i32, i32* %start, align 8, !dbg !11392
  %2 = load i32, i32* %i.addr, align 4, !dbg !11393
  %add = add i32 %1, %2, !dbg !11394
  %conv = zext i32 %add to i64, !dbg !11392
  %call = call dereferenceable(24) %"class.std::vector.82"* @_ZNKSt6vectorIS_IdSaIdEESaIS1_EEixEm(%"class.std::vector.123"* %0, i64 %conv) #4, !dbg !11391
  ret %"class.std::vector.82"* %call, !dbg !11395
}

; Function Attrs: noinline nounwind uwtable
define linkonce_odr dso_local dereferenceable(8) double* @_ZNKSt6vectorIdSaIdEEixEm(%"class.std::vector.82"* %this, i64 %__n) #1 comdat align 2 !dbg !11396 {
entry:
  %this.addr = alloca %"class.std::vector.82"*, align 8
  %__n.addr = alloca i64, align 8
  store %"class.std::vector.82"* %this, %"class.std::vector.82"** %this.addr, align 8
  call void @llvm.dbg.declare(metadata %"class.std::vector.82"** %this.addr, metadata !11397, metadata !DIExpression()), !dbg !11398
  store i64 %__n, i64* %__n.addr, align 8
  call void @llvm.dbg.declare(metadata i64* %__n.addr, metadata !11399, metadata !DIExpression()), !dbg !11400
  %this1 = load %"class.std::vector.82"*, %"class.std::vector.82"** %this.addr, align 8
  %0 = bitcast %"class.std::vector.82"* %this1 to %"struct.std::_Vector_base.83"*, !dbg !11401
  %_M_impl = getelementptr inbounds %"struct.std::_Vector_base.83", %"struct.std::_Vector_base.83"* %0, i32 0, i32 0, !dbg !11401
  %1 = bitcast %"struct.std::_Vector_base<double, std::allocator<double> >::_Vector_impl"* %_M_impl to %"struct.std::_Vector_base<double, std::allocator<double> >::_Vector_impl_data"*, !dbg !11402
  %_M_start = getelementptr inbounds %"struct.std::_Vector_base<double, std::allocator<double> >::_Vector_impl_data", %"struct.std::_Vector_base<double, std::allocator<double> >::_Vector_impl_data"* %1, i32 0, i32 0, !dbg !11403
  %2 = load double*, double** %_M_start, align 8, !dbg !11403
  %3 = load i64, i64* %__n.addr, align 8, !dbg !11404
  %add.ptr = getelementptr inbounds double, double* %2, i64 %3, !dbg !11405
  ret double* %add.ptr, !dbg !11406
}

; Function Attrs: noinline nounwind uwtable
define weak_odr dso_local i32 @_ZNK6dealii6FE_ABFILi3EE18memory_consumptionEv(%"class.dealii::FE_ABF"* %this) unnamed_addr #1 comdat align 2 !dbg !11407 {
entry:
  %this.addr = alloca %"class.dealii::FE_ABF"*, align 8
  store %"class.dealii::FE_ABF"* %this, %"class.dealii::FE_ABF"** %this.addr, align 8
  call void @llvm.dbg.declare(metadata %"class.dealii::FE_ABF"** %this.addr, metadata !11408, metadata !DIExpression()), !dbg !11409
  %this1 = load %"class.dealii::FE_ABF"*, %"class.dealii::FE_ABF"** %this.addr, align 8
  ret i32 0, !dbg !11410
}

; Function Attrs: noinline uwtable
define weak_odr dso_local %"class.dealii::FiniteElement"* @_ZNK6dealii6FE_ABFILi3EE5cloneEv(%"class.dealii::FE_ABF"* %this) unnamed_addr #0 comdat align 2 personality i8* bitcast (i32 (...)* @__gxx_personality_v0 to i8*) !dbg !11411 {
entry:
  %this.addr = alloca %"class.dealii::FE_ABF"*, align 8
  %exn.slot = alloca i8*
  %ehselector.slot = alloca i32
  store %"class.dealii::FE_ABF"* %this, %"class.dealii::FE_ABF"** %this.addr, align 8
  call void @llvm.dbg.declare(metadata %"class.dealii::FE_ABF"** %this.addr, metadata !11412, metadata !DIExpression()), !dbg !11413
  %this1 = load %"class.dealii::FE_ABF"*, %"class.dealii::FE_ABF"** %this.addr, align 8
  %call = call i8* @_Znwm(i64 1416) #13, !dbg !11414
  %0 = bitcast i8* %call to %"class.dealii::FE_ABF"*, !dbg !11414
  %rt_order = getelementptr inbounds %"class.dealii::FE_ABF", %"class.dealii::FE_ABF"* %this1, i32 0, i32 1, !dbg !11415
  %1 = load i32, i32* %rt_order, align 8, !dbg !11415
  invoke void @_ZN6dealii6FE_ABFILi3EEC1Ej(%"class.dealii::FE_ABF"* %0, i32 %1)
          to label %invoke.cont unwind label %lpad, !dbg !11416

invoke.cont:                                      ; preds = %entry
  %2 = bitcast %"class.dealii::FE_ABF"* %0 to %"class.dealii::FiniteElement"*, !dbg !11414
  ret %"class.dealii::FiniteElement"* %2, !dbg !11417

lpad:                                             ; preds = %entry
  %3 = landingpad { i8*, i32 }
          cleanup, !dbg !11418
  %4 = extractvalue { i8*, i32 } %3, 0, !dbg !11418
  store i8* %4, i8** %exn.slot, align 8, !dbg !11418
  %5 = extractvalue { i8*, i32 } %3, 1, !dbg !11418
  store i32 %5, i32* %ehselector.slot, align 4, !dbg !11418
  call void @_ZdlPv(i8* %call) #14, !dbg !11414
  br label %eh.resume, !dbg !11414

eh.resume:                                        ; preds = %lpad
  %exn = load i8*, i8** %exn.slot, align 8, !dbg !11414
  %sel = load i32, i32* %ehselector.slot, align 4, !dbg !11414
  %lpad.val = insertvalue { i8*, i32 } undef, i8* %exn, 0, !dbg !11414
  %lpad.val2 = insertvalue { i8*, i32 } %lpad.val, i32 %sel, 1, !dbg !11414
  resume { i8*, i32 } %lpad.val2, !dbg !11414
}

; Function Attrs: nobuiltin
declare dso_local noalias i8* @_Znwm(i64) #6

; Function Attrs: nobuiltin nounwind
declare dso_local void @_ZdlPv(i8*) #7

; Function Attrs: noinline nounwind uwtable
define linkonce_odr dso_local void @_ZNSaIjEC2Ev(%"class.std::allocator.60"* %this) unnamed_addr #1 comdat align 2 !dbg !11419 {
entry:
  %this.addr = alloca %"class.std::allocator.60"*, align 8
  store %"class.std::allocator.60"* %this, %"class.std::allocator.60"** %this.addr, align 8
  call void @llvm.dbg.declare(metadata %"class.std::allocator.60"** %this.addr, metadata !11420, metadata !DIExpression()), !dbg !11422
  %this1 = load %"class.std::allocator.60"*, %"class.std::allocator.60"** %this.addr, align 8
  %0 = bitcast %"class.std::allocator.60"* %this1 to %"class.__gnu_cxx::new_allocator.61"*, !dbg !11423
  call void @_ZN9__gnu_cxx13new_allocatorIjEC2Ev(%"class.__gnu_cxx::new_allocator.61"* %0) #4, !dbg !11424
  ret void, !dbg !11425
}

; Function Attrs: noinline uwtable
define linkonce_odr dso_local void @_ZNSt6vectorIjSaIjEEC2EmRKS0_(%"class.std::vector.58"* %this, i64 %__n, %"class.std::allocator.60"* dereferenceable(1) %__a) unnamed_addr #0 comdat align 2 personality i8* bitcast (i32 (...)* @__gxx_personality_v0 to i8*) !dbg !11426 {
entry:
  %this.addr = alloca %"class.std::vector.58"*, align 8
  %__n.addr = alloca i64, align 8
  %__a.addr = alloca %"class.std::allocator.60"*, align 8
  %exn.slot = alloca i8*
  %ehselector.slot = alloca i32
  store %"class.std::vector.58"* %this, %"class.std::vector.58"** %this.addr, align 8
  call void @llvm.dbg.declare(metadata %"class.std::vector.58"** %this.addr, metadata !11427, metadata !DIExpression()), !dbg !11428
  store i64 %__n, i64* %__n.addr, align 8
  call void @llvm.dbg.declare(metadata i64* %__n.addr, metadata !11429, metadata !DIExpression()), !dbg !11430
  store %"class.std::allocator.60"* %__a, %"class.std::allocator.60"** %__a.addr, align 8
  call void @llvm.dbg.declare(metadata %"class.std::allocator.60"** %__a.addr, metadata !11431, metadata !DIExpression()), !dbg !11432
  %this1 = load %"class.std::vector.58"*, %"class.std::vector.58"** %this.addr, align 8
  %0 = bitcast %"class.std::vector.58"* %this1 to %"struct.std::_Vector_base.59"*, !dbg !11433
  %1 = load i64, i64* %__n.addr, align 8, !dbg !11434
  %2 = load %"class.std::allocator.60"*, %"class.std::allocator.60"** %__a.addr, align 8, !dbg !11435
  %call = call i64 @_ZNSt6vectorIjSaIjEE17_S_check_init_lenEmRKS0_(i64 %1, %"class.std::allocator.60"* dereferenceable(1) %2), !dbg !11436
  %3 = load %"class.std::allocator.60"*, %"class.std::allocator.60"** %__a.addr, align 8, !dbg !11437
  call void @_ZNSt12_Vector_baseIjSaIjEEC2EmRKS0_(%"struct.std::_Vector_base.59"* %0, i64 %call, %"class.std::allocator.60"* dereferenceable(1) %3), !dbg !11438
  %4 = load i64, i64* %__n.addr, align 8, !dbg !11439
  invoke void @_ZNSt6vectorIjSaIjEE21_M_default_initializeEm(%"class.std::vector.58"* %this1, i64 %4)
          to label %invoke.cont unwind label %lpad, !dbg !11441

invoke.cont:                                      ; preds = %entry
  ret void, !dbg !11442

lpad:                                             ; preds = %entry
  %5 = landingpad { i8*, i32 }
          cleanup, !dbg !11443
  %6 = extractvalue { i8*, i32 } %5, 0, !dbg !11443
  store i8* %6, i8** %exn.slot, align 8, !dbg !11443
  %7 = extractvalue { i8*, i32 } %5, 1, !dbg !11443
  store i32 %7, i32* %ehselector.slot, align 4, !dbg !11443
  %8 = bitcast %"class.std::vector.58"* %this1 to %"struct.std::_Vector_base.59"*, !dbg !11443
  call void @_ZNSt12_Vector_baseIjSaIjEED2Ev(%"struct.std::_Vector_base.59"* %8) #4, !dbg !11443
  br label %eh.resume, !dbg !11443

eh.resume:                                        ; preds = %lpad
  %exn = load i8*, i8** %exn.slot, align 8, !dbg !11443
  %sel = load i32, i32* %ehselector.slot, align 4, !dbg !11443
  %lpad.val = insertvalue { i8*, i32 } undef, i8* %exn, 0, !dbg !11443
  %lpad.val2 = insertvalue { i8*, i32 } %lpad.val, i32 %sel, 1, !dbg !11443
  resume { i8*, i32 } %lpad.val2, !dbg !11443
}

; Function Attrs: noinline nounwind uwtable
define linkonce_odr dso_local void @_ZNSaIjED2Ev(%"class.std::allocator.60"* %this) unnamed_addr #1 comdat align 2 !dbg !11444 {
entry:
  %this.addr = alloca %"class.std::allocator.60"*, align 8
  store %"class.std::allocator.60"* %this, %"class.std::allocator.60"** %this.addr, align 8
  call void @llvm.dbg.declare(metadata %"class.std::allocator.60"** %this.addr, metadata !11445, metadata !DIExpression()), !dbg !11446
  %this1 = load %"class.std::allocator.60"*, %"class.std::allocator.60"** %this.addr, align 8
  %0 = bitcast %"class.std::allocator.60"* %this1 to %"class.__gnu_cxx::new_allocator.61"*, !dbg !11447
  call void @_ZN9__gnu_cxx13new_allocatorIjED2Ev(%"class.__gnu_cxx::new_allocator.61"* %0) #4, !dbg !11447
  ret void, !dbg !11449
}

; Function Attrs: noinline nounwind uwtable
define linkonce_odr dso_local dereferenceable(4) i32* @_ZNSt6vectorIjSaIjEEixEm(%"class.std::vector.58"* %this, i64 %__n) #1 comdat align 2 !dbg !11450 {
entry:
  %this.addr = alloca %"class.std::vector.58"*, align 8
  %__n.addr = alloca i64, align 8
  store %"class.std::vector.58"* %this, %"class.std::vector.58"** %this.addr, align 8
  call void @llvm.dbg.declare(metadata %"class.std::vector.58"** %this.addr, metadata !11451, metadata !DIExpression()), !dbg !11452
  store i64 %__n, i64* %__n.addr, align 8
  call void @llvm.dbg.declare(metadata i64* %__n.addr, metadata !11453, metadata !DIExpression()), !dbg !11454
  %this1 = load %"class.std::vector.58"*, %"class.std::vector.58"** %this.addr, align 8
  %0 = bitcast %"class.std::vector.58"* %this1 to %"struct.std::_Vector_base.59"*, !dbg !11455
  %_M_impl = getelementptr inbounds %"struct.std::_Vector_base.59", %"struct.std::_Vector_base.59"* %0, i32 0, i32 0, !dbg !11455
  %1 = bitcast %"struct.std::_Vector_base<unsigned int, std::allocator<unsigned int> >::_Vector_impl"* %_M_impl to %"struct.std::_Vector_base<unsigned int, std::allocator<unsigned int> >::_Vector_impl_data"*, !dbg !11456
  %_M_start = getelementptr inbounds %"struct.std::_Vector_base<unsigned int, std::allocator<unsigned int> >::_Vector_impl_data", %"struct.std::_Vector_base<unsigned int, std::allocator<unsigned int> >::_Vector_impl_data"* %1, i32 0, i32 0, !dbg !11457
  %2 = load i32*, i32** %_M_start, align 8, !dbg !11457
  %3 = load i64, i64* %__n.addr, align 8, !dbg !11458
  %add.ptr = getelementptr inbounds i32, i32* %2, i64 %3, !dbg !11459
  ret i32* %add.ptr, !dbg !11460
}

declare dso_local void @_ZN6dealii6QGaussILi3EEC1Ej(%"class.dealii::QGauss"*, i32) unnamed_addr #2

; Function Attrs: noinline nounwind uwtable
define linkonce_odr dso_local i32 @_ZNK6dealii10QuadratureILi3EE4sizeEv(%"class.dealii::Quadrature"* %this) #1 comdat align 2 !dbg !11461 {
entry:
  %this.addr = alloca %"class.dealii::Quadrature"*, align 8
  store %"class.dealii::Quadrature"* %this, %"class.dealii::Quadrature"** %this.addr, align 8
  call void @llvm.dbg.declare(metadata %"class.dealii::Quadrature"** %this.addr, metadata !11466, metadata !DIExpression()), !dbg !11468
  %this1 = load %"class.dealii::Quadrature"*, %"class.dealii::Quadrature"** %this.addr, align 8
  %weights = getelementptr inbounds %"class.dealii::Quadrature", %"class.dealii::Quadrature"* %this1, i32 0, i32 3, !dbg !11469
  %call = call i64 @_ZNKSt6vectorIdSaIdEE4sizeEv(%"class.std::vector.82"* %weights) #4, !dbg !11470
  %conv = trunc i64 %call to i32, !dbg !11469
  ret i32 %conv, !dbg !11471
}

; Function Attrs: noinline uwtable
define linkonce_odr dso_local void @_ZNSt6vectorIN6dealii5PointILi3EEESaIS2_EE6resizeEm(%"class.std::vector.24"* %this, i64 %__new_size) #0 comdat align 2 !dbg !11472 {
entry:
  %this.addr = alloca %"class.std::vector.24"*, align 8
  %__new_size.addr = alloca i64, align 8
  store %"class.std::vector.24"* %this, %"class.std::vector.24"** %this.addr, align 8
  call void @llvm.dbg.declare(metadata %"class.std::vector.24"** %this.addr, metadata !11898, metadata !DIExpression()), !dbg !11900
  store i64 %__new_size, i64* %__new_size.addr, align 8
  call void @llvm.dbg.declare(metadata i64* %__new_size.addr, metadata !11901, metadata !DIExpression()), !dbg !11902
  %this1 = load %"class.std::vector.24"*, %"class.std::vector.24"** %this.addr, align 8
  %0 = load i64, i64* %__new_size.addr, align 8, !dbg !11903
  %call = call i64 @_ZNKSt6vectorIN6dealii5PointILi3EEESaIS2_EE4sizeEv(%"class.std::vector.24"* %this1) #4, !dbg !11905
  %cmp = icmp ugt i64 %0, %call, !dbg !11906
  br i1 %cmp, label %if.then, label %if.else, !dbg !11907

if.then:                                          ; preds = %entry
  %1 = load i64, i64* %__new_size.addr, align 8, !dbg !11908
  %call2 = call i64 @_ZNKSt6vectorIN6dealii5PointILi3EEESaIS2_EE4sizeEv(%"class.std::vector.24"* %this1) #4, !dbg !11909
  %sub = sub i64 %1, %call2, !dbg !11910
  call void @_ZNSt6vectorIN6dealii5PointILi3EEESaIS2_EE17_M_default_appendEm(%"class.std::vector.24"* %this1, i64 %sub), !dbg !11911
  br label %if.end6, !dbg !11911

if.else:                                          ; preds = %entry
  %2 = load i64, i64* %__new_size.addr, align 8, !dbg !11912
  %call3 = call i64 @_ZNKSt6vectorIN6dealii5PointILi3EEESaIS2_EE4sizeEv(%"class.std::vector.24"* %this1) #4, !dbg !11914
  %cmp4 = icmp ult i64 %2, %call3, !dbg !11915
  br i1 %cmp4, label %if.then5, label %if.end, !dbg !11916

if.then5:                                         ; preds = %if.else
  %3 = bitcast %"class.std::vector.24"* %this1 to %"struct.std::_Vector_base.25"*, !dbg !11917
  %_M_impl = getelementptr inbounds %"struct.std::_Vector_base.25", %"struct.std::_Vector_base.25"* %3, i32 0, i32 0, !dbg !11917
  %4 = bitcast %"struct.std::_Vector_base<dealii::Point<3>, std::allocator<dealii::Point<3> > >::_Vector_impl"* %_M_impl to %"struct.std::_Vector_base<dealii::Point<3>, std::allocator<dealii::Point<3> > >::_Vector_impl_data"*, !dbg !11918
  %_M_start = getelementptr inbounds %"struct.std::_Vector_base<dealii::Point<3>, std::allocator<dealii::Point<3> > >::_Vector_impl_data", %"struct.std::_Vector_base<dealii::Point<3>, std::allocator<dealii::Point<3> > >::_Vector_impl_data"* %4, i32 0, i32 0, !dbg !11919
  %5 = load %"class.dealii::Point"*, %"class.dealii::Point"** %_M_start, align 8, !dbg !11919
  %6 = load i64, i64* %__new_size.addr, align 8, !dbg !11920
  %add.ptr = getelementptr inbounds %"class.dealii::Point", %"class.dealii::Point"* %5, i64 %6, !dbg !11921
  call void @_ZNSt6vectorIN6dealii5PointILi3EEESaIS2_EE15_M_erase_at_endEPS2_(%"class.std::vector.24"* %this1, %"class.dealii::Point"* %add.ptr) #4, !dbg !11922
  br label %if.end, !dbg !11922

if.end:                                           ; preds = %if.then5, %if.else
  br label %if.end6

if.end6:                                          ; preds = %if.end, %if.then
  ret void, !dbg !11923
}

; Function Attrs: noinline uwtable
define linkonce_odr dso_local void @_ZNSt6vectorIN6dealii5PointILi2EEESaIS2_EE6resizeEm(%"class.std::vector.29"* %this, i64 %__new_size) #0 comdat align 2 !dbg !11924 {
entry:
  %this.addr = alloca %"class.std::vector.29"*, align 8
  %__new_size.addr = alloca i64, align 8
  store %"class.std::vector.29"* %this, %"class.std::vector.29"** %this.addr, align 8
  call void @llvm.dbg.declare(metadata %"class.std::vector.29"** %this.addr, metadata !12350, metadata !DIExpression()), !dbg !12352
  store i64 %__new_size, i64* %__new_size.addr, align 8
  call void @llvm.dbg.declare(metadata i64* %__new_size.addr, metadata !12353, metadata !DIExpression()), !dbg !12354
  %this1 = load %"class.std::vector.29"*, %"class.std::vector.29"** %this.addr, align 8
  %0 = load i64, i64* %__new_size.addr, align 8, !dbg !12355
  %call = call i64 @_ZNKSt6vectorIN6dealii5PointILi2EEESaIS2_EE4sizeEv(%"class.std::vector.29"* %this1) #4, !dbg !12357
  %cmp = icmp ugt i64 %0, %call, !dbg !12358
  br i1 %cmp, label %if.then, label %if.else, !dbg !12359

if.then:                                          ; preds = %entry
  %1 = load i64, i64* %__new_size.addr, align 8, !dbg !12360
  %call2 = call i64 @_ZNKSt6vectorIN6dealii5PointILi2EEESaIS2_EE4sizeEv(%"class.std::vector.29"* %this1) #4, !dbg !12361
  %sub = sub i64 %1, %call2, !dbg !12362
  call void @_ZNSt6vectorIN6dealii5PointILi2EEESaIS2_EE17_M_default_appendEm(%"class.std::vector.29"* %this1, i64 %sub), !dbg !12363
  br label %if.end6, !dbg !12363

if.else:                                          ; preds = %entry
  %2 = load i64, i64* %__new_size.addr, align 8, !dbg !12364
  %call3 = call i64 @_ZNKSt6vectorIN6dealii5PointILi2EEESaIS2_EE4sizeEv(%"class.std::vector.29"* %this1) #4, !dbg !12366
  %cmp4 = icmp ult i64 %2, %call3, !dbg !12367
  br i1 %cmp4, label %if.then5, label %if.end, !dbg !12368

if.then5:                                         ; preds = %if.else
  %3 = bitcast %"class.std::vector.29"* %this1 to %"struct.std::_Vector_base.30"*, !dbg !12369
  %_M_impl = getelementptr inbounds %"struct.std::_Vector_base.30", %"struct.std::_Vector_base.30"* %3, i32 0, i32 0, !dbg !12369
  %4 = bitcast %"struct.std::_Vector_base<dealii::Point<2>, std::allocator<dealii::Point<2> > >::_Vector_impl"* %_M_impl to %"struct.std::_Vector_base<dealii::Point<2>, std::allocator<dealii::Point<2> > >::_Vector_impl_data"*, !dbg !12370
  %_M_start = getelementptr inbounds %"struct.std::_Vector_base<dealii::Point<2>, std::allocator<dealii::Point<2> > >::_Vector_impl_data", %"struct.std::_Vector_base<dealii::Point<2>, std::allocator<dealii::Point<2> > >::_Vector_impl_data"* %4, i32 0, i32 0, !dbg !12371
  %5 = load %"class.dealii::Point.34"*, %"class.dealii::Point.34"** %_M_start, align 8, !dbg !12371
  %6 = load i64, i64* %__new_size.addr, align 8, !dbg !12372
  %add.ptr = getelementptr inbounds %"class.dealii::Point.34", %"class.dealii::Point.34"* %5, i64 %6, !dbg !12373
  call void @_ZNSt6vectorIN6dealii5PointILi2EEESaIS2_EE15_M_erase_at_endEPS2_(%"class.std::vector.29"* %this1, %"class.dealii::Point.34"* %add.ptr) #4, !dbg !12374
  br label %if.end, !dbg !12374

if.end:                                           ; preds = %if.then5, %if.else
  br label %if.end6

if.end6:                                          ; preds = %if.end, %if.then
  ret void, !dbg !12375
}

; Function Attrs: noinline nounwind uwtable
define linkonce_odr dso_local void @_ZNSaIPN6dealii22AnisotropicPolynomialsILi3EEEEC2Ev(%"class.std::allocator.130"* %this) unnamed_addr #1 comdat align 2 !dbg !12376 {
entry:
  %this.addr = alloca %"class.std::allocator.130"*, align 8
  store %"class.std::allocator.130"* %this, %"class.std::allocator.130"** %this.addr, align 8
  call void @llvm.dbg.declare(metadata %"class.std::allocator.130"** %this.addr, metadata !12377, metadata !DIExpression()), !dbg !12379
  %this1 = load %"class.std::allocator.130"*, %"class.std::allocator.130"** %this.addr, align 8
  %0 = bitcast %"class.std::allocator.130"* %this1 to %"class.__gnu_cxx::new_allocator.131"*, !dbg !12380
  call void @_ZN9__gnu_cxx13new_allocatorIPN6dealii22AnisotropicPolynomialsILi3EEEEC2Ev(%"class.__gnu_cxx::new_allocator.131"* %0) #4, !dbg !12381
  ret void, !dbg !12382
}

; Function Attrs: noinline uwtable
define linkonce_odr dso_local void @_ZNSt6vectorIPN6dealii22AnisotropicPolynomialsILi3EEESaIS3_EEC2EmRKS4_(%"class.std::vector.128"* %this, i64 %__n, %"class.std::allocator.130"* dereferenceable(1) %__a) unnamed_addr #0 comdat align 2 personality i8* bitcast (i32 (...)* @__gxx_personality_v0 to i8*) !dbg !12383 {
entry:
  %this.addr = alloca %"class.std::vector.128"*, align 8
  %__n.addr = alloca i64, align 8
  %__a.addr = alloca %"class.std::allocator.130"*, align 8
  %exn.slot = alloca i8*
  %ehselector.slot = alloca i32
  store %"class.std::vector.128"* %this, %"class.std::vector.128"** %this.addr, align 8
  call void @llvm.dbg.declare(metadata %"class.std::vector.128"** %this.addr, metadata !12384, metadata !DIExpression()), !dbg !12386
  store i64 %__n, i64* %__n.addr, align 8
  call void @llvm.dbg.declare(metadata i64* %__n.addr, metadata !12387, metadata !DIExpression()), !dbg !12388
  store %"class.std::allocator.130"* %__a, %"class.std::allocator.130"** %__a.addr, align 8
  call void @llvm.dbg.declare(metadata %"class.std::allocator.130"** %__a.addr, metadata !12389, metadata !DIExpression()), !dbg !12390
  %this1 = load %"class.std::vector.128"*, %"class.std::vector.128"** %this.addr, align 8
  %0 = bitcast %"class.std::vector.128"* %this1 to %"struct.std::_Vector_base.129"*, !dbg !12391
  %1 = load i64, i64* %__n.addr, align 8, !dbg !12392
  %2 = load %"class.std::allocator.130"*, %"class.std::allocator.130"** %__a.addr, align 8, !dbg !12393
  %call = call i64 @_ZNSt6vectorIPN6dealii22AnisotropicPolynomialsILi3EEESaIS3_EE17_S_check_init_lenEmRKS4_(i64 %1, %"class.std::allocator.130"* dereferenceable(1) %2), !dbg !12394
  %3 = load %"class.std::allocator.130"*, %"class.std::allocator.130"** %__a.addr, align 8, !dbg !12395
  call void @_ZNSt12_Vector_baseIPN6dealii22AnisotropicPolynomialsILi3EEESaIS3_EEC2EmRKS4_(%"struct.std::_Vector_base.129"* %0, i64 %call, %"class.std::allocator.130"* dereferenceable(1) %3), !dbg !12396
  %4 = load i64, i64* %__n.addr, align 8, !dbg !12397
  invoke void @_ZNSt6vectorIPN6dealii22AnisotropicPolynomialsILi3EEESaIS3_EE21_M_default_initializeEm(%"class.std::vector.128"* %this1, i64 %4)
          to label %invoke.cont unwind label %lpad, !dbg !12399

invoke.cont:                                      ; preds = %entry
  ret void, !dbg !12400

lpad:                                             ; preds = %entry
  %5 = landingpad { i8*, i32 }
          cleanup, !dbg !12401
  %6 = extractvalue { i8*, i32 } %5, 0, !dbg !12401
  store i8* %6, i8** %exn.slot, align 8, !dbg !12401
  %7 = extractvalue { i8*, i32 } %5, 1, !dbg !12401
  store i32 %7, i32* %ehselector.slot, align 4, !dbg !12401
  %8 = bitcast %"class.std::vector.128"* %this1 to %"struct.std::_Vector_base.129"*, !dbg !12401
  call void @_ZNSt12_Vector_baseIPN6dealii22AnisotropicPolynomialsILi3EEESaIS3_EED2Ev(%"struct.std::_Vector_base.129"* %8) #4, !dbg !12401
  br label %eh.resume, !dbg !12401

eh.resume:                                        ; preds = %lpad
  %exn = load i8*, i8** %exn.slot, align 8, !dbg !12401
  %sel = load i32, i32* %ehselector.slot, align 4, !dbg !12401
  %lpad.val = insertvalue { i8*, i32 } undef, i8* %exn, 0, !dbg !12401
  %lpad.val2 = insertvalue { i8*, i32 } %lpad.val, i32 %sel, 1, !dbg !12401
  resume { i8*, i32 } %lpad.val2, !dbg !12401
}

; Function Attrs: noinline nounwind uwtable
define linkonce_odr dso_local void @_ZNSaIPN6dealii22AnisotropicPolynomialsILi3EEEED2Ev(%"class.std::allocator.130"* %this) unnamed_addr #1 comdat align 2 !dbg !12402 {
entry:
  %this.addr = alloca %"class.std::allocator.130"*, align 8
  store %"class.std::allocator.130"* %this, %"class.std::allocator.130"** %this.addr, align 8
  call void @llvm.dbg.declare(metadata %"class.std::allocator.130"** %this.addr, metadata !12403, metadata !DIExpression()), !dbg !12404
  %this1 = load %"class.std::allocator.130"*, %"class.std::allocator.130"** %this.addr, align 8
  %0 = bitcast %"class.std::allocator.130"* %this1 to %"class.__gnu_cxx::new_allocator.131"*, !dbg !12405
  call void @_ZN9__gnu_cxx13new_allocatorIPN6dealii22AnisotropicPolynomialsILi3EEEED2Ev(%"class.__gnu_cxx::new_allocator.131"* %0) #4, !dbg !12405
  ret void, !dbg !12407
}

; Function Attrs: noinline nounwind uwtable
define linkonce_odr dso_local void @_ZNSaISt6vectorIN6dealii11Polynomials10PolynomialIdEESaIS3_EEEC2Ev(%"class.std::allocator.74"* %this) unnamed_addr #1 comdat align 2 !dbg !12408 {
entry:
  %this.addr = alloca %"class.std::allocator.74"*, align 8
  store %"class.std::allocator.74"* %this, %"class.std::allocator.74"** %this.addr, align 8
  call void @llvm.dbg.declare(metadata %"class.std::allocator.74"** %this.addr, metadata !12409, metadata !DIExpression()), !dbg !12411
  %this1 = load %"class.std::allocator.74"*, %"class.std::allocator.74"** %this.addr, align 8
  %0 = bitcast %"class.std::allocator.74"* %this1 to %"class.__gnu_cxx::new_allocator.75"*, !dbg !12412
  call void @_ZN9__gnu_cxx13new_allocatorISt6vectorIN6dealii11Polynomials10PolynomialIdEESaIS5_EEEC2Ev(%"class.__gnu_cxx::new_allocator.75"* %0) #4, !dbg !12413
  ret void, !dbg !12414
}

; Function Attrs: noinline uwtable
define linkonce_odr dso_local void @_ZNSt6vectorIS_IN6dealii11Polynomials10PolynomialIdEESaIS3_EESaIS5_EEC2EmRKS6_(%"class.std::vector.72"* %this, i64 %__n, %"class.std::allocator.74"* dereferenceable(1) %__a) unnamed_addr #0 comdat align 2 personality i8* bitcast (i32 (...)* @__gxx_personality_v0 to i8*) !dbg !12415 {
entry:
  %this.addr = alloca %"class.std::vector.72"*, align 8
  %__n.addr = alloca i64, align 8
  %__a.addr = alloca %"class.std::allocator.74"*, align 8
  %exn.slot = alloca i8*
  %ehselector.slot = alloca i32
  store %"class.std::vector.72"* %this, %"class.std::vector.72"** %this.addr, align 8
  call void @llvm.dbg.declare(metadata %"class.std::vector.72"** %this.addr, metadata !12416, metadata !DIExpression()), !dbg !12418
  store i64 %__n, i64* %__n.addr, align 8
  call void @llvm.dbg.declare(metadata i64* %__n.addr, metadata !12419, metadata !DIExpression()), !dbg !12420
  store %"class.std::allocator.74"* %__a, %"class.std::allocator.74"** %__a.addr, align 8
  call void @llvm.dbg.declare(metadata %"class.std::allocator.74"** %__a.addr, metadata !12421, metadata !DIExpression()), !dbg !12422
  %this1 = load %"class.std::vector.72"*, %"class.std::vector.72"** %this.addr, align 8
  %0 = bitcast %"class.std::vector.72"* %this1 to %"struct.std::_Vector_base.73"*, !dbg !12423
  %1 = load i64, i64* %__n.addr, align 8, !dbg !12424
  %2 = load %"class.std::allocator.74"*, %"class.std::allocator.74"** %__a.addr, align 8, !dbg !12425
  %call = call i64 @_ZNSt6vectorIS_IN6dealii11Polynomials10PolynomialIdEESaIS3_EESaIS5_EE17_S_check_init_lenEmRKS6_(i64 %1, %"class.std::allocator.74"* dereferenceable(1) %2), !dbg !12426
  %3 = load %"class.std::allocator.74"*, %"class.std::allocator.74"** %__a.addr, align 8, !dbg !12427
  call void @_ZNSt12_Vector_baseISt6vectorIN6dealii11Polynomials10PolynomialIdEESaIS4_EESaIS6_EEC2EmRKS7_(%"struct.std::_Vector_base.73"* %0, i64 %call, %"class.std::allocator.74"* dereferenceable(1) %3), !dbg !12428
  %4 = load i64, i64* %__n.addr, align 8, !dbg !12429
  invoke void @_ZNSt6vectorIS_IN6dealii11Polynomials10PolynomialIdEESaIS3_EESaIS5_EE21_M_default_initializeEm(%"class.std::vector.72"* %this1, i64 %4)
          to label %invoke.cont unwind label %lpad, !dbg !12431

invoke.cont:                                      ; preds = %entry
  ret void, !dbg !12432

lpad:                                             ; preds = %entry
  %5 = landingpad { i8*, i32 }
          cleanup, !dbg !12433
  %6 = extractvalue { i8*, i32 } %5, 0, !dbg !12433
  store i8* %6, i8** %exn.slot, align 8, !dbg !12433
  %7 = extractvalue { i8*, i32 } %5, 1, !dbg !12433
  store i32 %7, i32* %ehselector.slot, align 4, !dbg !12433
  %8 = bitcast %"class.std::vector.72"* %this1 to %"struct.std::_Vector_base.73"*, !dbg !12433
  call void @_ZNSt12_Vector_baseISt6vectorIN6dealii11Polynomials10PolynomialIdEESaIS4_EESaIS6_EED2Ev(%"struct.std::_Vector_base.73"* %8) #4, !dbg !12433
  br label %eh.resume, !dbg !12433

eh.resume:                                        ; preds = %lpad
  %exn = load i8*, i8** %exn.slot, align 8, !dbg !12433
  %sel = load i32, i32* %ehselector.slot, align 4, !dbg !12433
  %lpad.val = insertvalue { i8*, i32 } undef, i8* %exn, 0, !dbg !12433
  %lpad.val2 = insertvalue { i8*, i32 } %lpad.val, i32 %sel, 1, !dbg !12433
  resume { i8*, i32 } %lpad.val2, !dbg !12433
}

; Function Attrs: noinline nounwind uwtable
define linkonce_odr dso_local void @_ZNSaISt6vectorIN6dealii11Polynomials10PolynomialIdEESaIS3_EEED2Ev(%"class.std::allocator.74"* %this) unnamed_addr #1 comdat align 2 !dbg !12434 {
entry:
  %this.addr = alloca %"class.std::allocator.74"*, align 8
  store %"class.std::allocator.74"* %this, %"class.std::allocator.74"** %this.addr, align 8
  call void @llvm.dbg.declare(metadata %"class.std::allocator.74"** %this.addr, metadata !12435, metadata !DIExpression()), !dbg !12436
  %this1 = load %"class.std::allocator.74"*, %"class.std::allocator.74"** %this.addr, align 8
  %0 = bitcast %"class.std::allocator.74"* %this1 to %"class.__gnu_cxx::new_allocator.75"*, !dbg !12437
  call void @_ZN9__gnu_cxx13new_allocatorISt6vectorIN6dealii11Polynomials10PolynomialIdEESaIS5_EEED2Ev(%"class.__gnu_cxx::new_allocator.75"* %0) #4, !dbg !12437
  ret void, !dbg !12439
}

; Function Attrs: noinline nounwind uwtable
define linkonce_odr dso_local dereferenceable(24) %"class.std::vector.77"* @_ZNSt6vectorIS_IN6dealii11Polynomials10PolynomialIdEESaIS3_EESaIS5_EEixEm(%"class.std::vector.72"* %this, i64 %__n) #1 comdat align 2 !dbg !12440 {
entry:
  %this.addr = alloca %"class.std::vector.72"*, align 8
  %__n.addr = alloca i64, align 8
  store %"class.std::vector.72"* %this, %"class.std::vector.72"** %this.addr, align 8
  call void @llvm.dbg.declare(metadata %"class.std::vector.72"** %this.addr, metadata !12441, metadata !DIExpression()), !dbg !12442
  store i64 %__n, i64* %__n.addr, align 8
  call void @llvm.dbg.declare(metadata i64* %__n.addr, metadata !12443, metadata !DIExpression()), !dbg !12444
  %this1 = load %"class.std::vector.72"*, %"class.std::vector.72"** %this.addr, align 8
  %0 = bitcast %"class.std::vector.72"* %this1 to %"struct.std::_Vector_base.73"*, !dbg !12445
  %_M_impl = getelementptr inbounds %"struct.std::_Vector_base.73", %"struct.std::_Vector_base.73"* %0, i32 0, i32 0, !dbg !12445
  %1 = bitcast %"struct.std::_Vector_base<std::vector<dealii::Polynomials::Polynomial<double>, std::allocator<dealii::Polynomials::Polynomial<double> > >, std::allocator<std::vector<dealii::Polynomials::Polynomial<double>, std::allocator<dealii::Polynomials::Polynomial<double> > > > >::_Vector_impl"* %_M_impl to %"struct.std::_Vector_base<std::vector<dealii::Polynomials::Polynomial<double>, std::allocator<dealii::Polynomials::Polynomial<double> > >, std::allocator<std::vector<dealii::Polynomials::Polynomial<double>, std::allocator<dealii::Polynomials::Polynomial<double> > > > >::_Vector_impl_data"*, !dbg !12446
  %_M_start = getelementptr inbounds %"struct.std::_Vector_base<std::vector<dealii::Polynomials::Polynomial<double>, std::allocator<dealii::Polynomials::Polynomial<double> > >, std::allocator<std::vector<dealii::Polynomials::Polynomial<double>, std::allocator<dealii::Polynomials::Polynomial<double> > > > >::_Vector_impl_data", %"struct.std::_Vector_base<std::vector<dealii::Polynomials::Polynomial<double>, std::allocator<dealii::Polynomials::Polynomial<double> > >, std::allocator<std::vector<dealii::Polynomials::Polynomial<double>, std::allocator<dealii::Polynomials::Polynomial<double> > > > >::_Vector_impl_data"* %1, i32 0, i32 0, !dbg !12447
  %2 = load %"class.std::vector.77"*, %"class.std::vector.77"** %_M_start, align 8, !dbg !12447
  %3 = load i64, i64* %__n.addr, align 8, !dbg !12448
  %add.ptr = getelementptr inbounds %"class.std::vector.77", %"class.std::vector.77"* %2, i64 %3, !dbg !12449
  ret %"class.std::vector.77"* %add.ptr, !dbg !12450
}

; Function Attrs: noinline uwtable
define linkonce_odr dso_local void @_ZNSt6vectorIN6dealii11Polynomials10PolynomialIdEESaIS3_EE9push_backEOS3_(%"class.std::vector.77"* %this, %"class.dealii::Polynomials::Polynomial"* dereferenceable(96) %__x) #0 comdat align 2 !dbg !12451 {
entry:
  %this.addr = alloca %"class.std::vector.77"*, align 8
  %__x.addr = alloca %"class.dealii::Polynomials::Polynomial"*, align 8
  store %"class.std::vector.77"* %this, %"class.std::vector.77"** %this.addr, align 8
  call void @llvm.dbg.declare(metadata %"class.std::vector.77"** %this.addr, metadata !12452, metadata !DIExpression()), !dbg !12453
  store %"class.dealii::Polynomials::Polynomial"* %__x, %"class.dealii::Polynomials::Polynomial"** %__x.addr, align 8
  call void @llvm.dbg.declare(metadata %"class.dealii::Polynomials::Polynomial"** %__x.addr, metadata !12454, metadata !DIExpression()), !dbg !12455
  %this1 = load %"class.std::vector.77"*, %"class.std::vector.77"** %this.addr, align 8
  %0 = load %"class.dealii::Polynomials::Polynomial"*, %"class.dealii::Polynomials::Polynomial"** %__x.addr, align 8, !dbg !12456
  %call = call dereferenceable(96) %"class.dealii::Polynomials::Polynomial"* @_ZSt4moveIRN6dealii11Polynomials10PolynomialIdEEEONSt16remove_referenceIT_E4typeEOS6_(%"class.dealii::Polynomials::Polynomial"* dereferenceable(96) %0) #4, !dbg !12457
  call void @_ZNSt6vectorIN6dealii11Polynomials10PolynomialIdEESaIS3_EE12emplace_backIJS3_EEEvDpOT_(%"class.std::vector.77"* %this1, %"class.dealii::Polynomials::Polynomial"* dereferenceable(96) %call), !dbg !12458
  ret void, !dbg !12459
}

declare dso_local void @_ZN6dealii11Polynomials8MonomialIdEC1Ejd(%"class.dealii::Polynomials::Monomial"*, i32, double) unnamed_addr #2

; Function Attrs: noinline nounwind uwtable
define linkonce_odr dso_local void @_ZN6dealii11Polynomials8MonomialIdED2Ev(%"class.dealii::Polynomials::Monomial"* %this) unnamed_addr #1 comdat align 2 !dbg !12460 {
entry:
  %this.addr = alloca %"class.dealii::Polynomials::Monomial"*, align 8
  store %"class.dealii::Polynomials::Monomial"* %this, %"class.dealii::Polynomials::Monomial"** %this.addr, align 8
  call void @llvm.dbg.declare(metadata %"class.dealii::Polynomials::Monomial"** %this.addr, metadata !12465, metadata !DIExpression()), !dbg !12467
  %this1 = load %"class.dealii::Polynomials::Monomial"*, %"class.dealii::Polynomials::Monomial"** %this.addr, align 8
  %0 = bitcast %"class.dealii::Polynomials::Monomial"* %this1 to %"class.dealii::Polynomials::Polynomial"*, !dbg !12468
  call void @_ZN6dealii11Polynomials10PolynomialIdED2Ev(%"class.dealii::Polynomials::Polynomial"* %0) #4, !dbg !12468
  ret void, !dbg !12470
}

declare dso_local void @_ZN6dealii11Polynomials8MonomialIdE23generate_complete_basisEj(%"class.std::vector.77"* sret, i32) #2

; Function Attrs: noinline nounwind uwtable
define linkonce_odr dso_local dereferenceable(24) %"class.std::vector.77"* @_ZNSt6vectorIN6dealii11Polynomials10PolynomialIdEESaIS3_EEaSEOS5_(%"class.std::vector.77"* %this, %"class.std::vector.77"* dereferenceable(24) %__x) #1 comdat align 2 !dbg !12471 {
entry:
  %this.addr = alloca %"class.std::vector.77"*, align 8
  %__x.addr = alloca %"class.std::vector.77"*, align 8
  %__move_storage = alloca i8, align 1
  %agg.tmp = alloca %"struct.std::integral_constant", align 1
  store %"class.std::vector.77"* %this, %"class.std::vector.77"** %this.addr, align 8
  call void @llvm.dbg.declare(metadata %"class.std::vector.77"** %this.addr, metadata !12472, metadata !DIExpression()), !dbg !12473
  store %"class.std::vector.77"* %__x, %"class.std::vector.77"** %__x.addr, align 8
  call void @llvm.dbg.declare(metadata %"class.std::vector.77"** %__x.addr, metadata !12474, metadata !DIExpression()), !dbg !12475
  %this1 = load %"class.std::vector.77"*, %"class.std::vector.77"** %this.addr, align 8
  call void @llvm.dbg.declare(metadata i8* %__move_storage, metadata !12476, metadata !DIExpression()), !dbg !12477
  store i8 1, i8* %__move_storage, align 1, !dbg !12477
  %0 = load %"class.std::vector.77"*, %"class.std::vector.77"** %__x.addr, align 8, !dbg !12478
  %call = call dereferenceable(24) %"class.std::vector.77"* @_ZSt4moveIRSt6vectorIN6dealii11Polynomials10PolynomialIdEESaIS4_EEEONSt16remove_referenceIT_E4typeEOS9_(%"class.std::vector.77"* dereferenceable(24) %0) #4, !dbg !12479
  call void @_ZNSt6vectorIN6dealii11Polynomials10PolynomialIdEESaIS3_EE14_M_move_assignEOS5_St17integral_constantIbLb1EE(%"class.std::vector.77"* %this1, %"class.std::vector.77"* dereferenceable(24) %call) #4, !dbg !12480
  ret %"class.std::vector.77"* %this1, !dbg !12481
}

; Function Attrs: noinline nounwind uwtable
define linkonce_odr dso_local void @_ZNSt6vectorIN6dealii11Polynomials10PolynomialIdEESaIS3_EED2Ev(%"class.std::vector.77"* %this) unnamed_addr #1 comdat align 2 personality i8* bitcast (i32 (...)* @__gxx_personality_v0 to i8*) !dbg !12482 {
entry:
  %this.addr = alloca %"class.std::vector.77"*, align 8
  %exn.slot = alloca i8*
  %ehselector.slot = alloca i32
  store %"class.std::vector.77"* %this, %"class.std::vector.77"** %this.addr, align 8
  call void @llvm.dbg.declare(metadata %"class.std::vector.77"** %this.addr, metadata !12483, metadata !DIExpression()), !dbg !12484
  %this1 = load %"class.std::vector.77"*, %"class.std::vector.77"** %this.addr, align 8
  %0 = bitcast %"class.std::vector.77"* %this1 to %"struct.std::_Vector_base.78"*, !dbg !12485
  %_M_impl = getelementptr inbounds %"struct.std::_Vector_base.78", %"struct.std::_Vector_base.78"* %0, i32 0, i32 0, !dbg !12485
  %1 = bitcast %"struct.std::_Vector_base<dealii::Polynomials::Polynomial<double>, std::allocator<dealii::Polynomials::Polynomial<double> > >::_Vector_impl"* %_M_impl to %"struct.std::_Vector_base<dealii::Polynomials::Polynomial<double>, std::allocator<dealii::Polynomials::Polynomial<double> > >::_Vector_impl_data"*, !dbg !12487
  %_M_start = getelementptr inbounds %"struct.std::_Vector_base<dealii::Polynomials::Polynomial<double>, std::allocator<dealii::Polynomials::Polynomial<double> > >::_Vector_impl_data", %"struct.std::_Vector_base<dealii::Polynomials::Polynomial<double>, std::allocator<dealii::Polynomials::Polynomial<double> > >::_Vector_impl_data"* %1, i32 0, i32 0, !dbg !12488
  %2 = load %"class.dealii::Polynomials::Polynomial"*, %"class.dealii::Polynomials::Polynomial"** %_M_start, align 8, !dbg !12488
  %3 = bitcast %"class.std::vector.77"* %this1 to %"struct.std::_Vector_base.78"*, !dbg !12489
  %_M_impl2 = getelementptr inbounds %"struct.std::_Vector_base.78", %"struct.std::_Vector_base.78"* %3, i32 0, i32 0, !dbg !12489
  %4 = bitcast %"struct.std::_Vector_base<dealii::Polynomials::Polynomial<double>, std::allocator<dealii::Polynomials::Polynomial<double> > >::_Vector_impl"* %_M_impl2 to %"struct.std::_Vector_base<dealii::Polynomials::Polynomial<double>, std::allocator<dealii::Polynomials::Polynomial<double> > >::_Vector_impl_data"*, !dbg !12490
  %_M_finish = getelementptr inbounds %"struct.std::_Vector_base<dealii::Polynomials::Polynomial<double>, std::allocator<dealii::Polynomials::Polynomial<double> > >::_Vector_impl_data", %"struct.std::_Vector_base<dealii::Polynomials::Polynomial<double>, std::allocator<dealii::Polynomials::Polynomial<double> > >::_Vector_impl_data"* %4, i32 0, i32 1, !dbg !12491
  %5 = load %"class.dealii::Polynomials::Polynomial"*, %"class.dealii::Polynomials::Polynomial"** %_M_finish, align 8, !dbg !12491
  %6 = bitcast %"class.std::vector.77"* %this1 to %"struct.std::_Vector_base.78"*, !dbg !12492
  %call = call dereferenceable(1) %"class.std::allocator.79"* @_ZNSt12_Vector_baseIN6dealii11Polynomials10PolynomialIdEESaIS3_EE19_M_get_Tp_allocatorEv(%"struct.std::_Vector_base.78"* %6) #4, !dbg !12492
  invoke void @_ZSt8_DestroyIPN6dealii11Polynomials10PolynomialIdEES3_EvT_S5_RSaIT0_E(%"class.dealii::Polynomials::Polynomial"* %2, %"class.dealii::Polynomials::Polynomial"* %5, %"class.std::allocator.79"* dereferenceable(1) %call)
          to label %invoke.cont unwind label %lpad, !dbg !12493

invoke.cont:                                      ; preds = %entry
  %7 = bitcast %"class.std::vector.77"* %this1 to %"struct.std::_Vector_base.78"*, !dbg !12494
  call void @_ZNSt12_Vector_baseIN6dealii11Polynomials10PolynomialIdEESaIS3_EED2Ev(%"struct.std::_Vector_base.78"* %7) #4, !dbg !12494
  ret void, !dbg !12495

lpad:                                             ; preds = %entry
  %8 = landingpad { i8*, i32 }
          catch i8* null, !dbg !12494
  %9 = extractvalue { i8*, i32 } %8, 0, !dbg !12494
  store i8* %9, i8** %exn.slot, align 8, !dbg !12494
  %10 = extractvalue { i8*, i32 } %8, 1, !dbg !12494
  store i32 %10, i32* %ehselector.slot, align 4, !dbg !12494
  %11 = bitcast %"class.std::vector.77"* %this1 to %"struct.std::_Vector_base.78"*, !dbg !12494
  call void @_ZNSt12_Vector_baseIN6dealii11Polynomials10PolynomialIdEESaIS3_EED2Ev(%"struct.std::_Vector_base.78"* %11) #4, !dbg !12494
  br label %terminate.handler, !dbg !12494

terminate.handler:                                ; preds = %lpad
  %exn = load i8*, i8** %exn.slot, align 8, !dbg !12494
  call void @__clang_call_terminate(i8* %exn) #12, !dbg !12494
  unreachable, !dbg !12494
}

declare dso_local void @_ZN6dealii22AnisotropicPolynomialsILi3EEC1ERKSt6vectorIS2_INS_11Polynomials10PolynomialIdEESaIS5_EESaIS7_EE(%"class.dealii::AnisotropicPolynomials"*, %"class.std::vector.72"* dereferenceable(24)) unnamed_addr #2

; Function Attrs: noinline nounwind uwtable
define linkonce_odr dso_local dereferenceable(8) %"class.dealii::AnisotropicPolynomials"** @_ZNSt6vectorIPN6dealii22AnisotropicPolynomialsILi3EEESaIS3_EEixEm(%"class.std::vector.128"* %this, i64 %__n) #1 comdat align 2 !dbg !12496 {
entry:
  %this.addr = alloca %"class.std::vector.128"*, align 8
  %__n.addr = alloca i64, align 8
  store %"class.std::vector.128"* %this, %"class.std::vector.128"** %this.addr, align 8
  call void @llvm.dbg.declare(metadata %"class.std::vector.128"** %this.addr, metadata !12497, metadata !DIExpression()), !dbg !12498
  store i64 %__n, i64* %__n.addr, align 8
  call void @llvm.dbg.declare(metadata i64* %__n.addr, metadata !12499, metadata !DIExpression()), !dbg !12500
  %this1 = load %"class.std::vector.128"*, %"class.std::vector.128"** %this.addr, align 8
  %0 = bitcast %"class.std::vector.128"* %this1 to %"struct.std::_Vector_base.129"*, !dbg !12501
  %_M_impl = getelementptr inbounds %"struct.std::_Vector_base.129", %"struct.std::_Vector_base.129"* %0, i32 0, i32 0, !dbg !12501
  %1 = bitcast %"struct.std::_Vector_base<dealii::AnisotropicPolynomials<3> *, std::allocator<dealii::AnisotropicPolynomials<3> *> >::_Vector_impl"* %_M_impl to %"struct.std::_Vector_base<dealii::AnisotropicPolynomials<3> *, std::allocator<dealii::AnisotropicPolynomials<3> *> >::_Vector_impl_data"*, !dbg !12502
  %_M_start = getelementptr inbounds %"struct.std::_Vector_base<dealii::AnisotropicPolynomials<3> *, std::allocator<dealii::AnisotropicPolynomials<3> *> >::_Vector_impl_data", %"struct.std::_Vector_base<dealii::AnisotropicPolynomials<3> *, std::allocator<dealii::AnisotropicPolynomials<3> *> >::_Vector_impl_data"* %1, i32 0, i32 0, !dbg !12503
  %2 = load %"class.dealii::AnisotropicPolynomials"**, %"class.dealii::AnisotropicPolynomials"*** %_M_start, align 8, !dbg !12503
  %3 = load i64, i64* %__n.addr, align 8, !dbg !12504
  %add.ptr = getelementptr inbounds %"class.dealii::AnisotropicPolynomials"*, %"class.dealii::AnisotropicPolynomials"** %2, i64 %3, !dbg !12505
  ret %"class.dealii::AnisotropicPolynomials"** %add.ptr, !dbg !12506
}

; Function Attrs: noinline nounwind uwtable
define linkonce_odr dso_local void @_ZNSt6vectorIS_IN6dealii11Polynomials10PolynomialIdEESaIS3_EESaIS5_EED2Ev(%"class.std::vector.72"* %this) unnamed_addr #1 comdat align 2 personality i8* bitcast (i32 (...)* @__gxx_personality_v0 to i8*) !dbg !12507 {
entry:
  %this.addr = alloca %"class.std::vector.72"*, align 8
  %exn.slot = alloca i8*
  %ehselector.slot = alloca i32
  store %"class.std::vector.72"* %this, %"class.std::vector.72"** %this.addr, align 8
  call void @llvm.dbg.declare(metadata %"class.std::vector.72"** %this.addr, metadata !12508, metadata !DIExpression()), !dbg !12509
  %this1 = load %"class.std::vector.72"*, %"class.std::vector.72"** %this.addr, align 8
  %0 = bitcast %"class.std::vector.72"* %this1 to %"struct.std::_Vector_base.73"*, !dbg !12510
  %_M_impl = getelementptr inbounds %"struct.std::_Vector_base.73", %"struct.std::_Vector_base.73"* %0, i32 0, i32 0, !dbg !12510
  %1 = bitcast %"struct.std::_Vector_base<std::vector<dealii::Polynomials::Polynomial<double>, std::allocator<dealii::Polynomials::Polynomial<double> > >, std::allocator<std::vector<dealii::Polynomials::Polynomial<double>, std::allocator<dealii::Polynomials::Polynomial<double> > > > >::_Vector_impl"* %_M_impl to %"struct.std::_Vector_base<std::vector<dealii::Polynomials::Polynomial<double>, std::allocator<dealii::Polynomials::Polynomial<double> > >, std::allocator<std::vector<dealii::Polynomials::Polynomial<double>, std::allocator<dealii::Polynomials::Polynomial<double> > > > >::_Vector_impl_data"*, !dbg !12512
  %_M_start = getelementptr inbounds %"struct.std::_Vector_base<std::vector<dealii::Polynomials::Polynomial<double>, std::allocator<dealii::Polynomials::Polynomial<double> > >, std::allocator<std::vector<dealii::Polynomials::Polynomial<double>, std::allocator<dealii::Polynomials::Polynomial<double> > > > >::_Vector_impl_data", %"struct.std::_Vector_base<std::vector<dealii::Polynomials::Polynomial<double>, std::allocator<dealii::Polynomials::Polynomial<double> > >, std::allocator<std::vector<dealii::Polynomials::Polynomial<double>, std::allocator<dealii::Polynomials::Polynomial<double> > > > >::_Vector_impl_data"* %1, i32 0, i32 0, !dbg !12513
  %2 = load %"class.std::vector.77"*, %"class.std::vector.77"** %_M_start, align 8, !dbg !12513
  %3 = bitcast %"class.std::vector.72"* %this1 to %"struct.std::_Vector_base.73"*, !dbg !12514
  %_M_impl2 = getelementptr inbounds %"struct.std::_Vector_base.73", %"struct.std::_Vector_base.73"* %3, i32 0, i32 0, !dbg !12514
  %4 = bitcast %"struct.std::_Vector_base<std::vector<dealii::Polynomials::Polynomial<double>, std::allocator<dealii::Polynomials::Polynomial<double> > >, std::allocator<std::vector<dealii::Polynomials::Polynomial<double>, std::allocator<dealii::Polynomials::Polynomial<double> > > > >::_Vector_impl"* %_M_impl2 to %"struct.std::_Vector_base<std::vector<dealii::Polynomials::Polynomial<double>, std::allocator<dealii::Polynomials::Polynomial<double> > >, std::allocator<std::vector<dealii::Polynomials::Polynomial<double>, std::allocator<dealii::Polynomials::Polynomial<double> > > > >::_Vector_impl_data"*, !dbg !12515
  %_M_finish = getelementptr inbounds %"struct.std::_Vector_base<std::vector<dealii::Polynomials::Polynomial<double>, std::allocator<dealii::Polynomials::Polynomial<double> > >, std::allocator<std::vector<dealii::Polynomials::Polynomial<double>, std::allocator<dealii::Polynomials::Polynomial<double> > > > >::_Vector_impl_data", %"struct.std::_Vector_base<std::vector<dealii::Polynomials::Polynomial<double>, std::allocator<dealii::Polynomials::Polynomial<double> > >, std::allocator<std::vector<dealii::Polynomials::Polynomial<double>, std::allocator<dealii::Polynomials::Polynomial<double> > > > >::_Vector_impl_data"* %4, i32 0, i32 1, !dbg !12516
  %5 = load %"class.std::vector.77"*, %"class.std::vector.77"** %_M_finish, align 8, !dbg !12516
  %6 = bitcast %"class.std::vector.72"* %this1 to %"struct.std::_Vector_base.73"*, !dbg !12517
  %call = call dereferenceable(1) %"class.std::allocator.74"* @_ZNSt12_Vector_baseISt6vectorIN6dealii11Polynomials10PolynomialIdEESaIS4_EESaIS6_EE19_M_get_Tp_allocatorEv(%"struct.std::_Vector_base.73"* %6) #4, !dbg !12517
  invoke void @_ZSt8_DestroyIPSt6vectorIN6dealii11Polynomials10PolynomialIdEESaIS4_EES6_EvT_S8_RSaIT0_E(%"class.std::vector.77"* %2, %"class.std::vector.77"* %5, %"class.std::allocator.74"* dereferenceable(1) %call)
          to label %invoke.cont unwind label %lpad, !dbg !12518

invoke.cont:                                      ; preds = %entry
  %7 = bitcast %"class.std::vector.72"* %this1 to %"struct.std::_Vector_base.73"*, !dbg !12519
  call void @_ZNSt12_Vector_baseISt6vectorIN6dealii11Polynomials10PolynomialIdEESaIS4_EESaIS6_EED2Ev(%"struct.std::_Vector_base.73"* %7) #4, !dbg !12519
  ret void, !dbg !12520

lpad:                                             ; preds = %entry
  %8 = landingpad { i8*, i32 }
          catch i8* null, !dbg !12519
  %9 = extractvalue { i8*, i32 } %8, 0, !dbg !12519
  store i8* %9, i8** %exn.slot, align 8, !dbg !12519
  %10 = extractvalue { i8*, i32 } %8, 1, !dbg !12519
  store i32 %10, i32* %ehselector.slot, align 4, !dbg !12519
  %11 = bitcast %"class.std::vector.72"* %this1 to %"struct.std::_Vector_base.73"*, !dbg !12519
  call void @_ZNSt12_Vector_baseISt6vectorIN6dealii11Polynomials10PolynomialIdEESaIS4_EESaIS6_EED2Ev(%"struct.std::_Vector_base.73"* %11) #4, !dbg !12519
  br label %terminate.handler, !dbg !12519

terminate.handler:                                ; preds = %lpad
  %exn = load i8*, i8** %exn.slot, align 8, !dbg !12519
  call void @__clang_call_terminate(i8* %exn) #12, !dbg !12519
  unreachable, !dbg !12519
}

declare dso_local void @_ZN6dealii6QGaussILi2EEC1Ej(%"class.dealii::QGauss.133"*, i32) unnamed_addr #2

declare dso_local void @_ZN6dealii11Polynomials8Legendre23generate_complete_basisEj(%"class.std::vector.77"* sret, i32) #2

; Function Attrs: noinline uwtable
define linkonce_odr dso_local void @_ZN6dealii24TensorProductPolynomialsILi2EEC2INS_11Polynomials10PolynomialIdEEEERKSt6vectorIT_SaIS7_EE(%"class.dealii::TensorProductPolynomials"* %this, %"class.std::vector.77"* dereferenceable(24) %pols) unnamed_addr #0 comdat align 2 personality i8* bitcast (i32 (...)* @__gxx_personality_v0 to i8*) !dbg !12521 {
entry:
  %this.addr = alloca %"class.dealii::TensorProductPolynomials"*, align 8
  %pols.addr = alloca %"class.std::vector.77"*, align 8
  %agg.tmp = alloca %"class.__gnu_cxx::__normal_iterator.152", align 8
  %agg.tmp2 = alloca %"class.__gnu_cxx::__normal_iterator.152", align 8
  %ref.tmp = alloca %"class.std::allocator.79", align 1
  %exn.slot = alloca i8*
  %ehselector.slot = alloca i32
  %ref.tmp13 = alloca %"class.std::allocator.60", align 1
  %ref.tmp18 = alloca %"class.std::allocator.60", align 1
  %i = alloca i32, align 4
  store %"class.dealii::TensorProductPolynomials"* %this, %"class.dealii::TensorProductPolynomials"** %this.addr, align 8
  call void @llvm.dbg.declare(metadata %"class.dealii::TensorProductPolynomials"** %this.addr, metadata !12527, metadata !DIExpression()), !dbg !12529
  store %"class.std::vector.77"* %pols, %"class.std::vector.77"** %pols.addr, align 8
  call void @llvm.dbg.declare(metadata %"class.std::vector.77"** %pols.addr, metadata !12530, metadata !DIExpression()), !dbg !12531
  %this1 = load %"class.dealii::TensorProductPolynomials"*, %"class.dealii::TensorProductPolynomials"** %this.addr, align 8
  %polynomials = getelementptr inbounds %"class.dealii::TensorProductPolynomials", %"class.dealii::TensorProductPolynomials"* %this1, i32 0, i32 0, !dbg !12532
  %0 = load %"class.std::vector.77"*, %"class.std::vector.77"** %pols.addr, align 8, !dbg !12533
  %call = call %"class.dealii::Polynomials::Polynomial"* @_ZNKSt6vectorIN6dealii11Polynomials10PolynomialIdEESaIS3_EE5beginEv(%"class.std::vector.77"* %0) #4, !dbg !12534
  %coerce.dive = getelementptr inbounds %"class.__gnu_cxx::__normal_iterator.152", %"class.__gnu_cxx::__normal_iterator.152"* %agg.tmp, i32 0, i32 0, !dbg !12534
  store %"class.dealii::Polynomials::Polynomial"* %call, %"class.dealii::Polynomials::Polynomial"** %coerce.dive, align 8, !dbg !12534
  %1 = load %"class.std::vector.77"*, %"class.std::vector.77"** %pols.addr, align 8, !dbg !12535
  %call3 = call %"class.dealii::Polynomials::Polynomial"* @_ZNKSt6vectorIN6dealii11Polynomials10PolynomialIdEESaIS3_EE3endEv(%"class.std::vector.77"* %1) #4, !dbg !12536
  %coerce.dive4 = getelementptr inbounds %"class.__gnu_cxx::__normal_iterator.152", %"class.__gnu_cxx::__normal_iterator.152"* %agg.tmp2, i32 0, i32 0, !dbg !12536
  store %"class.dealii::Polynomials::Polynomial"* %call3, %"class.dealii::Polynomials::Polynomial"** %coerce.dive4, align 8, !dbg !12536
  call void @_ZNSaIN6dealii11Polynomials10PolynomialIdEEEC2Ev(%"class.std::allocator.79"* %ref.tmp) #4, !dbg !12532
  %coerce.dive5 = getelementptr inbounds %"class.__gnu_cxx::__normal_iterator.152", %"class.__gnu_cxx::__normal_iterator.152"* %agg.tmp, i32 0, i32 0, !dbg !12532
  %2 = load %"class.dealii::Polynomials::Polynomial"*, %"class.dealii::Polynomials::Polynomial"** %coerce.dive5, align 8, !dbg !12532
  %coerce.dive6 = getelementptr inbounds %"class.__gnu_cxx::__normal_iterator.152", %"class.__gnu_cxx::__normal_iterator.152"* %agg.tmp2, i32 0, i32 0, !dbg !12532
  %3 = load %"class.dealii::Polynomials::Polynomial"*, %"class.dealii::Polynomials::Polynomial"** %coerce.dive6, align 8, !dbg !12532
  invoke void @_ZNSt6vectorIN6dealii11Polynomials10PolynomialIdEESaIS3_EEC2IN9__gnu_cxx17__normal_iteratorIPKS3_S5_EEvEET_SC_RKS4_(%"class.std::vector.77"* %polynomials, %"class.dealii::Polynomials::Polynomial"* %2, %"class.dealii::Polynomials::Polynomial"* %3, %"class.std::allocator.79"* dereferenceable(1) %ref.tmp)
          to label %invoke.cont unwind label %lpad, !dbg !12532

invoke.cont:                                      ; preds = %entry
  call void @_ZNSaIN6dealii11Polynomials10PolynomialIdEEED2Ev(%"class.std::allocator.79"* %ref.tmp) #4, !dbg !12532
  %n_tensor_pols = getelementptr inbounds %"class.dealii::TensorProductPolynomials", %"class.dealii::TensorProductPolynomials"* %this1, i32 0, i32 1, !dbg !12537
  %4 = load %"class.std::vector.77"*, %"class.std::vector.77"** %pols.addr, align 8, !dbg !12538
  %call7 = call i64 @_ZNKSt6vectorIN6dealii11Polynomials10PolynomialIdEESaIS3_EE4sizeEv(%"class.std::vector.77"* %4) #4, !dbg !12539
  %conv = trunc i64 %call7 to i32, !dbg !12538
  %call10 = invoke i32 @_ZN6dealii24TensorProductPolynomialsILi2EE12x_to_the_dimEj(i32 %conv)
          to label %invoke.cont9 unwind label %lpad8, !dbg !12540

invoke.cont9:                                     ; preds = %invoke.cont
  store i32 %call10, i32* %n_tensor_pols, align 8, !dbg !12537
  %index_map = getelementptr inbounds %"class.dealii::TensorProductPolynomials", %"class.dealii::TensorProductPolynomials"* %this1, i32 0, i32 2, !dbg !12541
  %n_tensor_pols11 = getelementptr inbounds %"class.dealii::TensorProductPolynomials", %"class.dealii::TensorProductPolynomials"* %this1, i32 0, i32 1, !dbg !12542
  %5 = load i32, i32* %n_tensor_pols11, align 8, !dbg !12542
  %conv12 = zext i32 %5 to i64, !dbg !12542
  call void @_ZNSaIjEC2Ev(%"class.std::allocator.60"* %ref.tmp13) #4, !dbg !12541
  invoke void @_ZNSt6vectorIjSaIjEEC2EmRKS0_(%"class.std::vector.58"* %index_map, i64 %conv12, %"class.std::allocator.60"* dereferenceable(1) %ref.tmp13)
          to label %invoke.cont15 unwind label %lpad14, !dbg !12541

invoke.cont15:                                    ; preds = %invoke.cont9
  call void @_ZNSaIjED2Ev(%"class.std::allocator.60"* %ref.tmp13) #4, !dbg !12541
  %index_map_inverse = getelementptr inbounds %"class.dealii::TensorProductPolynomials", %"class.dealii::TensorProductPolynomials"* %this1, i32 0, i32 3, !dbg !12543
  %n_tensor_pols16 = getelementptr inbounds %"class.dealii::TensorProductPolynomials", %"class.dealii::TensorProductPolynomials"* %this1, i32 0, i32 1, !dbg !12544
  %6 = load i32, i32* %n_tensor_pols16, align 8, !dbg !12544
  %conv17 = zext i32 %6 to i64, !dbg !12544
  call void @_ZNSaIjEC2Ev(%"class.std::allocator.60"* %ref.tmp18) #4, !dbg !12543
  invoke void @_ZNSt6vectorIjSaIjEEC2EmRKS0_(%"class.std::vector.58"* %index_map_inverse, i64 %conv17, %"class.std::allocator.60"* dereferenceable(1) %ref.tmp18)
          to label %invoke.cont20 unwind label %lpad19, !dbg !12543

invoke.cont20:                                    ; preds = %invoke.cont15
  call void @_ZNSaIjED2Ev(%"class.std::allocator.60"* %ref.tmp18) #4, !dbg !12543
  call void @llvm.dbg.declare(metadata i32* %i, metadata !12545, metadata !DIExpression()), !dbg !12548
  store i32 0, i32* %i, align 4, !dbg !12548
  br label %for.cond, !dbg !12549

for.cond:                                         ; preds = %for.inc, %invoke.cont20
  %7 = load i32, i32* %i, align 4, !dbg !12550
  %n_tensor_pols21 = getelementptr inbounds %"class.dealii::TensorProductPolynomials", %"class.dealii::TensorProductPolynomials"* %this1, i32 0, i32 1, !dbg !12552
  %8 = load i32, i32* %n_tensor_pols21, align 8, !dbg !12552
  %cmp = icmp ult i32 %7, %8, !dbg !12553
  br i1 %cmp, label %for.body, label %for.end, !dbg !12554

for.body:                                         ; preds = %for.cond
  %9 = load i32, i32* %i, align 4, !dbg !12555
  %index_map22 = getelementptr inbounds %"class.dealii::TensorProductPolynomials", %"class.dealii::TensorProductPolynomials"* %this1, i32 0, i32 2, !dbg !12557
  %10 = load i32, i32* %i, align 4, !dbg !12558
  %conv23 = zext i32 %10 to i64, !dbg !12558
  %call24 = call dereferenceable(4) i32* @_ZNSt6vectorIjSaIjEEixEm(%"class.std::vector.58"* %index_map22, i64 %conv23) #4, !dbg !12557
  store i32 %9, i32* %call24, align 4, !dbg !12559
  %11 = load i32, i32* %i, align 4, !dbg !12560
  %index_map_inverse25 = getelementptr inbounds %"class.dealii::TensorProductPolynomials", %"class.dealii::TensorProductPolynomials"* %this1, i32 0, i32 3, !dbg !12561
  %12 = load i32, i32* %i, align 4, !dbg !12562
  %conv26 = zext i32 %12 to i64, !dbg !12562
  %call27 = call dereferenceable(4) i32* @_ZNSt6vectorIjSaIjEEixEm(%"class.std::vector.58"* %index_map_inverse25, i64 %conv26) #4, !dbg !12561
  store i32 %11, i32* %call27, align 4, !dbg !12563
  br label %for.inc, !dbg !12564

for.inc:                                          ; preds = %for.body
  %13 = load i32, i32* %i, align 4, !dbg !12565
  %inc = add i32 %13, 1, !dbg !12565
  store i32 %inc, i32* %i, align 4, !dbg !12565
  br label %for.cond, !dbg !12566, !llvm.loop !12567

lpad:                                             ; preds = %entry
  %14 = landingpad { i8*, i32 }
          cleanup, !dbg !12569
  %15 = extractvalue { i8*, i32 } %14, 0, !dbg !12569
  store i8* %15, i8** %exn.slot, align 8, !dbg !12569
  %16 = extractvalue { i8*, i32 } %14, 1, !dbg !12569
  store i32 %16, i32* %ehselector.slot, align 4, !dbg !12569
  call void @_ZNSaIN6dealii11Polynomials10PolynomialIdEEED2Ev(%"class.std::allocator.79"* %ref.tmp) #4, !dbg !12532
  br label %eh.resume, !dbg !12532

lpad8:                                            ; preds = %invoke.cont
  %17 = landingpad { i8*, i32 }
          cleanup, !dbg !12569
  %18 = extractvalue { i8*, i32 } %17, 0, !dbg !12569
  store i8* %18, i8** %exn.slot, align 8, !dbg !12569
  %19 = extractvalue { i8*, i32 } %17, 1, !dbg !12569
  store i32 %19, i32* %ehselector.slot, align 4, !dbg !12569
  br label %ehcleanup, !dbg !12569

lpad14:                                           ; preds = %invoke.cont9
  %20 = landingpad { i8*, i32 }
          cleanup, !dbg !12569
  %21 = extractvalue { i8*, i32 } %20, 0, !dbg !12569
  store i8* %21, i8** %exn.slot, align 8, !dbg !12569
  %22 = extractvalue { i8*, i32 } %20, 1, !dbg !12569
  store i32 %22, i32* %ehselector.slot, align 4, !dbg !12569
  call void @_ZNSaIjED2Ev(%"class.std::allocator.60"* %ref.tmp13) #4, !dbg !12541
  br label %ehcleanup, !dbg !12541

lpad19:                                           ; preds = %invoke.cont15
  %23 = landingpad { i8*, i32 }
          cleanup, !dbg !12569
  %24 = extractvalue { i8*, i32 } %23, 0, !dbg !12569
  store i8* %24, i8** %exn.slot, align 8, !dbg !12569
  %25 = extractvalue { i8*, i32 } %23, 1, !dbg !12569
  store i32 %25, i32* %ehselector.slot, align 4, !dbg !12569
  call void @_ZNSaIjED2Ev(%"class.std::allocator.60"* %ref.tmp18) #4, !dbg !12543
  call void @_ZNSt6vectorIjSaIjEED2Ev(%"class.std::vector.58"* %index_map) #4, !dbg !12570
  br label %ehcleanup, !dbg !12570

for.end:                                          ; preds = %for.cond
  ret void, !dbg !12569

ehcleanup:                                        ; preds = %lpad19, %lpad14, %lpad8
  call void @_ZNSt6vectorIN6dealii11Polynomials10PolynomialIdEESaIS3_EED2Ev(%"class.std::vector.77"* %polynomials) #4, !dbg !12570
  br label %eh.resume, !dbg !12570

eh.resume:                                        ; preds = %ehcleanup, %lpad
  %exn = load i8*, i8** %exn.slot, align 8, !dbg !12532
  %sel = load i32, i32* %ehselector.slot, align 4, !dbg !12532
  %lpad.val = insertvalue { i8*, i32 } undef, i8* %exn, 0, !dbg !12532
  %lpad.val28 = insertvalue { i8*, i32 } %lpad.val, i32 %sel, 1, !dbg !12532
  resume { i8*, i32 } %lpad.val28, !dbg !12532
}

declare dso_local i32 @_ZNK6dealii24TensorProductPolynomialsILi2EE1nEv(%"class.dealii::TensorProductPolynomials"*) #2

; Function Attrs: noinline nounwind uwtable
define linkonce_odr dso_local dereferenceable(16) %"class.dealii::Point.34"* @_ZNK6dealii10QuadratureILi2EE5pointEj(%"class.dealii::Quadrature.134"* %this, i32 %i) #1 comdat align 2 !dbg !12571 {
entry:
  %this.addr = alloca %"class.dealii::Quadrature.134"*, align 8
  %i.addr = alloca i32, align 4
  store %"class.dealii::Quadrature.134"* %this, %"class.dealii::Quadrature.134"** %this.addr, align 8
  call void @llvm.dbg.declare(metadata %"class.dealii::Quadrature.134"** %this.addr, metadata !12576, metadata !DIExpression()), !dbg !12578
  store i32 %i, i32* %i.addr, align 4
  call void @llvm.dbg.declare(metadata i32* %i.addr, metadata !12579, metadata !DIExpression()), !dbg !12580
  %this1 = load %"class.dealii::Quadrature.134"*, %"class.dealii::Quadrature.134"** %this.addr, align 8
  %quadrature_points = getelementptr inbounds %"class.dealii::Quadrature.134", %"class.dealii::Quadrature.134"* %this1, i32 0, i32 2, !dbg !12581
  %0 = load i32, i32* %i.addr, align 4, !dbg !12582
  %conv = zext i32 %0 to i64, !dbg !12582
  %call = call dereferenceable(16) %"class.dealii::Point.34"* @_ZNKSt6vectorIN6dealii5PointILi2EEESaIS2_EEixEm(%"class.std::vector.29"* %quadrature_points, i64 %conv) #4, !dbg !12581
  ret %"class.dealii::Point.34"* %call, !dbg !12583
}

; Function Attrs: noinline nounwind uwtable
define linkonce_odr dso_local dereferenceable(16) %"class.dealii::Point.34"* @_ZNSt6vectorIN6dealii5PointILi2EEESaIS2_EEixEm(%"class.std::vector.29"* %this, i64 %__n) #1 comdat align 2 !dbg !12584 {
entry:
  %this.addr = alloca %"class.std::vector.29"*, align 8
  %__n.addr = alloca i64, align 8
  store %"class.std::vector.29"* %this, %"class.std::vector.29"** %this.addr, align 8
  call void @llvm.dbg.declare(metadata %"class.std::vector.29"** %this.addr, metadata !12585, metadata !DIExpression()), !dbg !12586
  store i64 %__n, i64* %__n.addr, align 8
  call void @llvm.dbg.declare(metadata i64* %__n.addr, metadata !12587, metadata !DIExpression()), !dbg !12588
  %this1 = load %"class.std::vector.29"*, %"class.std::vector.29"** %this.addr, align 8
  %0 = bitcast %"class.std::vector.29"* %this1 to %"struct.std::_Vector_base.30"*, !dbg !12589
  %_M_impl = getelementptr inbounds %"struct.std::_Vector_base.30", %"struct.std::_Vector_base.30"* %0, i32 0, i32 0, !dbg !12589
  %1 = bitcast %"struct.std::_Vector_base<dealii::Point<2>, std::allocator<dealii::Point<2> > >::_Vector_impl"* %_M_impl to %"struct.std::_Vector_base<dealii::Point<2>, std::allocator<dealii::Point<2> > >::_Vector_impl_data"*, !dbg !12590
  %_M_start = getelementptr inbounds %"struct.std::_Vector_base<dealii::Point<2>, std::allocator<dealii::Point<2> > >::_Vector_impl_data", %"struct.std::_Vector_base<dealii::Point<2>, std::allocator<dealii::Point<2> > >::_Vector_impl_data"* %1, i32 0, i32 0, !dbg !12591
  %2 = load %"class.dealii::Point.34"*, %"class.dealii::Point.34"** %_M_start, align 8, !dbg !12591
  %3 = load i64, i64* %__n.addr, align 8, !dbg !12592
  %add.ptr = getelementptr inbounds %"class.dealii::Point.34", %"class.dealii::Point.34"* %2, i64 %3, !dbg !12593
  ret %"class.dealii::Point.34"* %add.ptr, !dbg !12594
}

; Function Attrs: noinline uwtable
define linkonce_odr dso_local dereferenceable(16) %"class.dealii::Point.34"* @_ZN6dealii5PointILi2EEaSERKS1_(%"class.dealii::Point.34"* %this, %"class.dealii::Point.34"* dereferenceable(16) %0) #0 comdat align 2 !dbg !12595 {
entry:
  %this.addr = alloca %"class.dealii::Point.34"*, align 8
  %.addr = alloca %"class.dealii::Point.34"*, align 8
  store %"class.dealii::Point.34"* %this, %"class.dealii::Point.34"** %this.addr, align 8
  call void @llvm.dbg.declare(metadata %"class.dealii::Point.34"** %this.addr, metadata !12599, metadata !DIExpression()), !dbg !12600
  store %"class.dealii::Point.34"* %0, %"class.dealii::Point.34"** %.addr, align 8
  call void @llvm.dbg.declare(metadata %"class.dealii::Point.34"** %.addr, metadata !12601, metadata !DIExpression()), !dbg !12600
  %this1 = load %"class.dealii::Point.34"*, %"class.dealii::Point.34"** %this.addr, align 8
  %1 = bitcast %"class.dealii::Point.34"* %this1 to %"class.dealii::Tensor.35"*, !dbg !12602
  %2 = load %"class.dealii::Point.34"*, %"class.dealii::Point.34"** %.addr, align 8, !dbg !12602
  %3 = bitcast %"class.dealii::Point.34"* %2 to %"class.dealii::Tensor.35"*, !dbg !12602
  %call = call dereferenceable(16) %"class.dealii::Tensor.35"* @_ZN6dealii6TensorILi1ELi2EEaSERKS1_(%"class.dealii::Tensor.35"* %1, %"class.dealii::Tensor.35"* dereferenceable(16) %3), !dbg !12602
  ret %"class.dealii::Point.34"* %this1, !dbg !12602
}

; Function Attrs: noinline nounwind uwtable
define linkonce_odr dso_local double @_ZNK6dealii10QuadratureILi2EE6weightEj(%"class.dealii::Quadrature.134"* %this, i32 %i) #1 comdat align 2 !dbg !12604 {
entry:
  %this.addr = alloca %"class.dealii::Quadrature.134"*, align 8
  %i.addr = alloca i32, align 4
  store %"class.dealii::Quadrature.134"* %this, %"class.dealii::Quadrature.134"** %this.addr, align 8
  call void @llvm.dbg.declare(metadata %"class.dealii::Quadrature.134"** %this.addr, metadata !12608, metadata !DIExpression()), !dbg !12609
  store i32 %i, i32* %i.addr, align 4
  call void @llvm.dbg.declare(metadata i32* %i.addr, metadata !12610, metadata !DIExpression()), !dbg !12611
  %this1 = load %"class.dealii::Quadrature.134"*, %"class.dealii::Quadrature.134"** %this.addr, align 8
  %weights = getelementptr inbounds %"class.dealii::Quadrature.134", %"class.dealii::Quadrature.134"* %this1, i32 0, i32 3, !dbg !12612
  %0 = load i32, i32* %i.addr, align 4, !dbg !12613
  %conv = zext i32 %0 to i64, !dbg !12613
  %call = call dereferenceable(8) double* @_ZNKSt6vectorIdSaIdEEixEm(%"class.std::vector.82"* %weights, i64 %conv) #4, !dbg !12612
  %1 = load double, double* %call, align 8, !dbg !12612
  ret double %1, !dbg !12614
}

declare dso_local double @_ZNK6dealii24TensorProductPolynomialsILi2EE13compute_valueEjRKNS_5PointILi2EEE(%"class.dealii::TensorProductPolynomials"*, i32, %"class.dealii::Point.34"* dereferenceable(16)) #2

declare dso_local void @_ZN6dealii10QProjectorILi3EE20project_to_all_facesERKNS_10QuadratureILi2EEE(%"class.dealii::Quadrature"* sret, %"class.dealii::Quadrature.134"* dereferenceable(128)) #2

; Function Attrs: noinline nounwind uwtable
define linkonce_odr dso_local dereferenceable(24) %"class.dealii::Point"* @_ZNK6dealii10QuadratureILi3EE5pointEj(%"class.dealii::Quadrature"* %this, i32 %i) #1 comdat align 2 !dbg !12615 {
entry:
  %this.addr = alloca %"class.dealii::Quadrature"*, align 8
  %i.addr = alloca i32, align 4
  store %"class.dealii::Quadrature"* %this, %"class.dealii::Quadrature"** %this.addr, align 8
  call void @llvm.dbg.declare(metadata %"class.dealii::Quadrature"** %this.addr, metadata !12619, metadata !DIExpression()), !dbg !12620
  store i32 %i, i32* %i.addr, align 4
  call void @llvm.dbg.declare(metadata i32* %i.addr, metadata !12621, metadata !DIExpression()), !dbg !12622
  %this1 = load %"class.dealii::Quadrature"*, %"class.dealii::Quadrature"** %this.addr, align 8
  %quadrature_points = getelementptr inbounds %"class.dealii::Quadrature", %"class.dealii::Quadrature"* %this1, i32 0, i32 2, !dbg !12623
  %0 = load i32, i32* %i.addr, align 4, !dbg !12624
  %conv = zext i32 %0 to i64, !dbg !12624
  %call = call dereferenceable(24) %"class.dealii::Point"* @_ZNKSt6vectorIN6dealii5PointILi3EEESaIS2_EEixEm(%"class.std::vector.24"* %quadrature_points, i64 %conv) #4, !dbg !12623
  ret %"class.dealii::Point"* %call, !dbg !12625
}

; Function Attrs: noinline nounwind uwtable
define linkonce_odr dso_local dereferenceable(24) %"class.dealii::Point"* @_ZNSt6vectorIN6dealii5PointILi3EEESaIS2_EEixEm(%"class.std::vector.24"* %this, i64 %__n) #1 comdat align 2 !dbg !12626 {
entry:
  %this.addr = alloca %"class.std::vector.24"*, align 8
  %__n.addr = alloca i64, align 8
  store %"class.std::vector.24"* %this, %"class.std::vector.24"** %this.addr, align 8
  call void @llvm.dbg.declare(metadata %"class.std::vector.24"** %this.addr, metadata !12627, metadata !DIExpression()), !dbg !12628
  store i64 %__n, i64* %__n.addr, align 8
  call void @llvm.dbg.declare(metadata i64* %__n.addr, metadata !12629, metadata !DIExpression()), !dbg !12630
  %this1 = load %"class.std::vector.24"*, %"class.std::vector.24"** %this.addr, align 8
  %0 = bitcast %"class.std::vector.24"* %this1 to %"struct.std::_Vector_base.25"*, !dbg !12631
  %_M_impl = getelementptr inbounds %"struct.std::_Vector_base.25", %"struct.std::_Vector_base.25"* %0, i32 0, i32 0, !dbg !12631
  %1 = bitcast %"struct.std::_Vector_base<dealii::Point<3>, std::allocator<dealii::Point<3> > >::_Vector_impl"* %_M_impl to %"struct.std::_Vector_base<dealii::Point<3>, std::allocator<dealii::Point<3> > >::_Vector_impl_data"*, !dbg !12632
  %_M_start = getelementptr inbounds %"struct.std::_Vector_base<dealii::Point<3>, std::allocator<dealii::Point<3> > >::_Vector_impl_data", %"struct.std::_Vector_base<dealii::Point<3>, std::allocator<dealii::Point<3> > >::_Vector_impl_data"* %1, i32 0, i32 0, !dbg !12633
  %2 = load %"class.dealii::Point"*, %"class.dealii::Point"** %_M_start, align 8, !dbg !12633
  %3 = load i64, i64* %__n.addr, align 8, !dbg !12634
  %add.ptr = getelementptr inbounds %"class.dealii::Point", %"class.dealii::Point"* %2, i64 %3, !dbg !12635
  ret %"class.dealii::Point"* %add.ptr, !dbg !12636
}

; Function Attrs: noinline uwtable
define linkonce_odr dso_local dereferenceable(24) %"class.dealii::Point"* @_ZN6dealii5PointILi3EEaSERKS1_(%"class.dealii::Point"* %this, %"class.dealii::Point"* dereferenceable(24) %0) #0 comdat align 2 !dbg !12637 {
entry:
  %this.addr = alloca %"class.dealii::Point"*, align 8
  %.addr = alloca %"class.dealii::Point"*, align 8
  store %"class.dealii::Point"* %this, %"class.dealii::Point"** %this.addr, align 8
  call void @llvm.dbg.declare(metadata %"class.dealii::Point"** %this.addr, metadata !12641, metadata !DIExpression()), !dbg !12642
  store %"class.dealii::Point"* %0, %"class.dealii::Point"** %.addr, align 8
  call void @llvm.dbg.declare(metadata %"class.dealii::Point"** %.addr, metadata !12643, metadata !DIExpression()), !dbg !12642
  %this1 = load %"class.dealii::Point"*, %"class.dealii::Point"** %this.addr, align 8
  %1 = bitcast %"class.dealii::Point"* %this1 to %"class.dealii::Tensor"*, !dbg !12644
  %2 = load %"class.dealii::Point"*, %"class.dealii::Point"** %.addr, align 8, !dbg !12644
  %3 = bitcast %"class.dealii::Point"* %2 to %"class.dealii::Tensor"*, !dbg !12644
  %call = call dereferenceable(24) %"class.dealii::Tensor"* @_ZN6dealii6TensorILi1ELi3EEaSERKS1_(%"class.dealii::Tensor"* %1, %"class.dealii::Tensor"* dereferenceable(24) %3), !dbg !12644
  ret %"class.dealii::Point"* %this1, !dbg !12644
}

declare dso_local i32 @_ZNK6dealii22AnisotropicPolynomialsILi3EE1nEv(%"class.dealii::AnisotropicPolynomials"*) #2

declare dso_local double @_ZNK6dealii22AnisotropicPolynomialsILi3EE13compute_valueEjRKNS_5PointILi3EEE(%"class.dealii::AnisotropicPolynomials"*, i32, %"class.dealii::Point"* dereferenceable(24)) #2

; Function Attrs: noinline nounwind uwtable
define linkonce_odr dso_local double @_ZNK6dealii10QuadratureILi3EE6weightEj(%"class.dealii::Quadrature"* %this, i32 %i) #1 comdat align 2 !dbg !12646 {
entry:
  %this.addr = alloca %"class.dealii::Quadrature"*, align 8
  %i.addr = alloca i32, align 4
  store %"class.dealii::Quadrature"* %this, %"class.dealii::Quadrature"** %this.addr, align 8
  call void @llvm.dbg.declare(metadata %"class.dealii::Quadrature"** %this.addr, metadata !12650, metadata !DIExpression()), !dbg !12651
  store i32 %i, i32* %i.addr, align 4
  call void @llvm.dbg.declare(metadata i32* %i.addr, metadata !12652, metadata !DIExpression()), !dbg !12653
  %this1 = load %"class.dealii::Quadrature"*, %"class.dealii::Quadrature"** %this.addr, align 8
  %weights = getelementptr inbounds %"class.dealii::Quadrature", %"class.dealii::Quadrature"* %this1, i32 0, i32 3, !dbg !12654
  %0 = load i32, i32* %i.addr, align 4, !dbg !12655
  %conv = zext i32 %0 to i64, !dbg !12655
  %call = call dereferenceable(8) double* @_ZNKSt6vectorIdSaIdEEixEm(%"class.std::vector.82"* %weights, i64 %conv) #4, !dbg !12654
  %1 = load double, double* %call, align 8, !dbg !12654
  ret double %1, !dbg !12656
}

; Function Attrs: nounwind
declare dso_local void @_ZN6dealii10QuadratureILi3EED1Ev(%"class.dealii::Quadrature"*) unnamed_addr #3

; Function Attrs: noinline nounwind uwtable
define linkonce_odr dso_local void @_ZN6dealii24TensorProductPolynomialsILi2EED2Ev(%"class.dealii::TensorProductPolynomials"* %this) unnamed_addr #1 comdat align 2 !dbg !12657 {
entry:
  %this.addr = alloca %"class.dealii::TensorProductPolynomials"*, align 8
  store %"class.dealii::TensorProductPolynomials"* %this, %"class.dealii::TensorProductPolynomials"** %this.addr, align 8
  call void @llvm.dbg.declare(metadata %"class.dealii::TensorProductPolynomials"** %this.addr, metadata !12661, metadata !DIExpression()), !dbg !12662
  %this1 = load %"class.dealii::TensorProductPolynomials"*, %"class.dealii::TensorProductPolynomials"** %this.addr, align 8
  %index_map_inverse = getelementptr inbounds %"class.dealii::TensorProductPolynomials", %"class.dealii::TensorProductPolynomials"* %this1, i32 0, i32 3, !dbg !12663
  call void @_ZNSt6vectorIjSaIjEED2Ev(%"class.std::vector.58"* %index_map_inverse) #4, !dbg !12663
  %index_map = getelementptr inbounds %"class.dealii::TensorProductPolynomials", %"class.dealii::TensorProductPolynomials"* %this1, i32 0, i32 2, !dbg !12663
  call void @_ZNSt6vectorIjSaIjEED2Ev(%"class.std::vector.58"* %index_map) #4, !dbg !12663
  %polynomials = getelementptr inbounds %"class.dealii::TensorProductPolynomials", %"class.dealii::TensorProductPolynomials"* %this1, i32 0, i32 0, !dbg !12663
  call void @_ZNSt6vectorIN6dealii11Polynomials10PolynomialIdEESaIS3_EED2Ev(%"class.std::vector.77"* %polynomials) #4, !dbg !12663
  ret void, !dbg !12665
}

; Function Attrs: noinline nounwind uwtable
define linkonce_odr dso_local void @_ZN6dealii6QGaussILi2EED2Ev(%"class.dealii::QGauss.133"* %this) unnamed_addr #1 comdat align 2 !dbg !12666 {
entry:
  %this.addr = alloca %"class.dealii::QGauss.133"*, align 8
  store %"class.dealii::QGauss.133"* %this, %"class.dealii::QGauss.133"** %this.addr, align 8
  call void @llvm.dbg.declare(metadata %"class.dealii::QGauss.133"** %this.addr, metadata !12671, metadata !DIExpression()), !dbg !12673
  %this1 = load %"class.dealii::QGauss.133"*, %"class.dealii::QGauss.133"** %this.addr, align 8
  %0 = bitcast %"class.dealii::QGauss.133"* %this1 to %"class.dealii::Quadrature.134"*, !dbg !12674
  call void @_ZN6dealii10QuadratureILi2EED2Ev(%"class.dealii::Quadrature.134"* %0) #4, !dbg !12674
  ret void, !dbg !12676
}

; Function Attrs: noinline uwtable
define linkonce_odr dso_local void @_ZN6dealii9TableBaseILi3EdE6reinitERKNS_12TableIndicesILi3EEE(%"class.dealii::TableBase.105"* %this, %"class.dealii::TableIndices.106"* dereferenceable(12) %new_sizes) #0 comdat align 2 !dbg !12677 {
entry:
  %this.addr = alloca %"class.dealii::TableBase.105"*, align 8
  %new_sizes.addr = alloca %"class.dealii::TableIndices.106"*, align 8
  %new_size = alloca i32, align 4
  %ref.tmp = alloca %"class.dealii::TableIndices.106", align 4
  store %"class.dealii::TableBase.105"* %this, %"class.dealii::TableBase.105"** %this.addr, align 8
  call void @llvm.dbg.declare(metadata %"class.dealii::TableBase.105"** %this.addr, metadata !12678, metadata !DIExpression()), !dbg !12680
  store %"class.dealii::TableIndices.106"* %new_sizes, %"class.dealii::TableIndices.106"** %new_sizes.addr, align 8
  call void @llvm.dbg.declare(metadata %"class.dealii::TableIndices.106"** %new_sizes.addr, metadata !12681, metadata !DIExpression()), !dbg !12682
  %this1 = load %"class.dealii::TableBase.105"*, %"class.dealii::TableBase.105"** %this.addr, align 8
  %0 = load %"class.dealii::TableIndices.106"*, %"class.dealii::TableIndices.106"** %new_sizes.addr, align 8, !dbg !12683
  %table_size = getelementptr inbounds %"class.dealii::TableBase.105", %"class.dealii::TableBase.105"* %this1, i32 0, i32 3, !dbg !12684
  %1 = bitcast %"class.dealii::TableIndices.106"* %table_size to i8*, !dbg !12685
  %2 = bitcast %"class.dealii::TableIndices.106"* %0 to i8*, !dbg !12685
  call void @llvm.memcpy.p0i8.p0i8.i64(i8* align 4 %1, i8* align 4 %2, i64 12, i1 false), !dbg !12685
  call void @llvm.dbg.declare(metadata i32* %new_size, metadata !12686, metadata !DIExpression()), !dbg !12687
  %call = call i32 @_ZNK6dealii9TableBaseILi3EdE10n_elementsEv(%"class.dealii::TableBase.105"* %this1), !dbg !12688
  store i32 %call, i32* %new_size, align 4, !dbg !12687
  %3 = load i32, i32* %new_size, align 4, !dbg !12689
  %cmp = icmp eq i32 %3, 0, !dbg !12691
  br i1 %cmp, label %if.then, label %if.end7, !dbg !12692

if.then:                                          ; preds = %entry
  %val = getelementptr inbounds %"class.dealii::TableBase.105", %"class.dealii::TableBase.105"* %this1, i32 0, i32 1, !dbg !12693
  %4 = load double*, double** %val, align 8, !dbg !12693
  %cmp2 = icmp ne double* %4, null, !dbg !12696
  br i1 %cmp2, label %if.then3, label %if.end, !dbg !12697

if.then3:                                         ; preds = %if.then
  %val4 = getelementptr inbounds %"class.dealii::TableBase.105", %"class.dealii::TableBase.105"* %this1, i32 0, i32 1, !dbg !12698
  %5 = load double*, double** %val4, align 8, !dbg !12698
