; ModuleID = 'source/base/function.cc'
source_filename = "source/base/function.cc"
target datalayout = "e-m:e-p270:32:32-p271:32:32-p272:64:64-i64:64-f80:128-n8:16:32:64-S128"
target triple = "x86_64-unknown-linux-gnu"

%"class.dealii::Function" = type <{ %"class.dealii::FunctionTime", %"class.dealii::Subscriptor", i32, [4 x i8] }>
%"class.dealii::FunctionTime" = type { i32 (...)**, double }
%"class.dealii::Subscriptor" = type { i32 (...)**, i32, %"class.std::map", %"class.std::type_info"* }
%"class.std::map" = type { %"class.std::_Rb_tree" }
%"class.std::_Rb_tree" = type { %"struct.std::_Rb_tree<const char *, std::pair<const char *const, unsigned int>, std::_Select1st<std::pair<const char *const, unsigned int> >, std::less<const char *>, std::allocator<std::pair<const char *const, unsigned int> > >::_Rb_tree_impl" }
%"struct.std::_Rb_tree<const char *, std::pair<const char *const, unsigned int>, std::_Select1st<std::pair<const char *const, unsigned int> >, std::less<const char *>, std::allocator<std::pair<const char *const, unsigned int> > >::_Rb_tree_impl" = type { %"struct.std::_Rb_tree_key_compare", %"struct.std::_Rb_tree_header" }
%"struct.std::_Rb_tree_key_compare" = type { %"struct.std::less" }
%"struct.std::less" = type { i8 }
%"struct.std::_Rb_tree_header" = type { %"struct.std::_Rb_tree_node_base", i64 }
%"struct.std::_Rb_tree_node_base" = type { i32, %"struct.std::_Rb_tree_node_base"*, %"struct.std::_Rb_tree_node_base"*, %"struct.std::_Rb_tree_node_base"* }
%"class.std::type_info" = type { i32 (...)**, i8* }
%"class.dealii::Function<1>::ExcNumberOfComponents" = type { %"class.dealii::ExceptionBase.base", i32, i32, [4 x i8] }
%"class.dealii::ExceptionBase.base" = type <{ %"class.std::exception", i8*, i32, [4 x i8], i8*, i8*, i8*, i8**, i32 }>
%"class.std::exception" = type { i32 (...)** }
%"class.dealii::ZeroFunction" = type { %"class.dealii::Function.base", [4 x i8] }
%"class.dealii::Function.base" = type <{ %"class.dealii::FunctionTime", %"class.dealii::Subscriptor", i32 }>
%"class.dealii::ConstantFunction" = type { %"class.dealii::ZeroFunction.base", double }
%"class.dealii::ZeroFunction.base" = type { %"class.dealii::Function.base" }
%"class.dealii::ComponentSelectFunction" = type { %"class.dealii::ConstantFunction", %"struct.std::pair" }
%"struct.std::pair" = type { i32, i32 }
%"class.dealii::Function.23" = type <{ %"class.dealii::FunctionTime", %"class.dealii::Subscriptor", i32, [4 x i8] }>
%"class.dealii::Function<2>::ExcNumberOfComponents" = type { %"class.dealii::ExceptionBase.base", i32, i32, [4 x i8] }
%"class.dealii::ZeroFunction.42" = type { %"class.dealii::Function.base.24", [4 x i8] }
%"class.dealii::Function.base.24" = type <{ %"class.dealii::FunctionTime", %"class.dealii::Subscriptor", i32 }>
%"class.dealii::ConstantFunction.44" = type { %"class.dealii::ZeroFunction.base.43", double }
%"class.dealii::ZeroFunction.base.43" = type { %"class.dealii::Function.base.24" }
%"class.dealii::ComponentSelectFunction.45" = type { %"class.dealii::ConstantFunction.44", %"struct.std::pair" }
%"class.dealii::Function.46" = type <{ %"class.dealii::FunctionTime", %"class.dealii::Subscriptor", i32, [4 x i8] }>
%"class.dealii::Function<3>::ExcNumberOfComponents" = type { %"class.dealii::ExceptionBase.base", i32, i32, [4 x i8] }
%"class.dealii::ZeroFunction.65" = type { %"class.dealii::Function.base.47", [4 x i8] }
%"class.dealii::Function.base.47" = type <{ %"class.dealii::FunctionTime", %"class.dealii::Subscriptor", i32 }>
%"class.dealii::ConstantFunction.67" = type { %"class.dealii::ZeroFunction.base.66", double }
%"class.dealii::ZeroFunction.base.66" = type { %"class.dealii::Function.base.47" }
%"class.dealii::ComponentSelectFunction.68" = type { %"class.dealii::ConstantFunction.67", %"struct.std::pair" }
%"class.dealii::Point" = type { %"class.dealii::Tensor" }
%"class.dealii::Tensor" = type { [1 x double] }
%"class.dealii::Vector" = type { %"class.dealii::Subscriptor", i32, i32, double* }
%"class.std::vector" = type { %"struct.std::_Vector_base" }
%"struct.std::_Vector_base" = type { %"struct.std::_Vector_base<dealii::Point<1>, std::allocator<dealii::Point<1> > >::_Vector_impl" }
%"struct.std::_Vector_base<dealii::Point<1>, std::allocator<dealii::Point<1> > >::_Vector_impl" = type { %"struct.std::_Vector_base<dealii::Point<1>, std::allocator<dealii::Point<1> > >::_Vector_impl_data" }
%"struct.std::_Vector_base<dealii::Point<1>, std::allocator<dealii::Point<1> > >::_Vector_impl_data" = type { %"class.dealii::Point"*, %"class.dealii::Point"*, %"class.dealii::Point"* }
%"class.std::vector.3" = type { %"struct.std::_Vector_base.4" }
%"struct.std::_Vector_base.4" = type { %"struct.std::_Vector_base<double, std::allocator<double> >::_Vector_impl" }
%"struct.std::_Vector_base<double, std::allocator<double> >::_Vector_impl" = type { %"struct.std::_Vector_base<double, std::allocator<double> >::_Vector_impl_data" }
%"struct.std::_Vector_base<double, std::allocator<double> >::_Vector_impl_data" = type { double*, double*, double* }
%"class.std::vector.8" = type { %"struct.std::_Vector_base.9" }
%"struct.std::_Vector_base.9" = type { %"struct.std::_Vector_base<dealii::Vector<double>, std::allocator<dealii::Vector<double> > >::_Vector_impl" }
%"struct.std::_Vector_base<dealii::Vector<double>, std::allocator<dealii::Vector<double> > >::_Vector_impl" = type { %"struct.std::_Vector_base<dealii::Vector<double>, std::allocator<dealii::Vector<double> > >::_Vector_impl_data" }
%"struct.std::_Vector_base<dealii::Vector<double>, std::allocator<dealii::Vector<double> > >::_Vector_impl_data" = type { %"class.dealii::Vector"*, %"class.dealii::Vector"*, %"class.dealii::Vector"* }
%"class.std::vector.13" = type { %"struct.std::_Vector_base.14" }
%"struct.std::_Vector_base.14" = type { %"struct.std::_Vector_base<dealii::Tensor<1, 1>, std::allocator<dealii::Tensor<1, 1> > >::_Vector_impl" }
%"struct.std::_Vector_base<dealii::Tensor<1, 1>, std::allocator<dealii::Tensor<1, 1> > >::_Vector_impl" = type { %"struct.std::_Vector_base<dealii::Tensor<1, 1>, std::allocator<dealii::Tensor<1, 1> > >::_Vector_impl_data" }
%"struct.std::_Vector_base<dealii::Tensor<1, 1>, std::allocator<dealii::Tensor<1, 1> > >::_Vector_impl_data" = type { %"class.dealii::Tensor"*, %"class.dealii::Tensor"*, %"class.dealii::Tensor"* }
%"class.std::vector.18" = type { %"struct.std::_Vector_base.19" }
%"struct.std::_Vector_base.19" = type { %"struct.std::_Vector_base<std::vector<dealii::Tensor<1, 1>, std::allocator<dealii::Tensor<1, 1> > >, std::allocator<std::vector<dealii::Tensor<1, 1>, std::allocator<dealii::Tensor<1, 1> > > > >::_Vector_impl" }
%"struct.std::_Vector_base<std::vector<dealii::Tensor<1, 1>, std::allocator<dealii::Tensor<1, 1> > >, std::allocator<std::vector<dealii::Tensor<1, 1>, std::allocator<dealii::Tensor<1, 1> > > > >::_Vector_impl" = type { %"struct.std::_Vector_base<std::vector<dealii::Tensor<1, 1>, std::allocator<dealii::Tensor<1, 1> > >, std::allocator<std::vector<dealii::Tensor<1, 1>, std::allocator<dealii::Tensor<1, 1> > > > >::_Vector_impl_data" }
%"struct.std::_Vector_base<std::vector<dealii::Tensor<1, 1>, std::allocator<dealii::Tensor<1, 1> > >, std::allocator<std::vector<dealii::Tensor<1, 1>, std::allocator<dealii::Tensor<1, 1> > > > >::_Vector_impl_data" = type { %"class.std::vector.13"*, %"class.std::vector.13"*, %"class.std::vector.13"* }
%"class.dealii::ExceptionBase" = type <{ %"class.std::exception", i8*, i32, [4 x i8], i8*, i8*, i8*, i8**, i32, [4 x i8] }>
%"class.std::basic_ostream" = type { i32 (...)**, %"class.std::basic_ios" }
%"class.std::basic_ios" = type { %"class.std::ios_base", %"class.std::basic_ostream"*, i8, i8, %"class.std::basic_streambuf"*, %"class.std::ctype"*, %"class.std::num_put"*, %"class.std::num_get"* }
%"class.std::ios_base" = type { i32 (...)**, i64, i64, i32, i32, i32, %"struct.std::ios_base::_Callback_list"*, %"struct.std::ios_base::_Words", [8 x %"struct.std::ios_base::_Words"], i32, %"struct.std::ios_base::_Words"*, %"class.std::locale" }
%"struct.std::ios_base::_Callback_list" = type { %"struct.std::ios_base::_Callback_list"*, void (i32, %"class.std::ios_base"*, i32)*, i32, i32 }
%"struct.std::ios_base::_Words" = type { i8*, i64 }
%"class.std::locale" = type { %"class.std::locale::_Impl"* }
%"class.std::locale::_Impl" = type { i32, %"class.std::locale::facet"**, i64, %"class.std::locale::facet"**, i8** }
%"class.std::locale::facet" = type <{ i32 (...)**, i32, [4 x i8] }>
%"class.std::basic_streambuf" = type { i32 (...)**, i8*, i8*, i8*, i8*, i8*, i8*, %"class.std::locale" }
%"class.std::ctype" = type <{ %"class.std::locale::facet.base", [4 x i8], %struct.__locale_struct*, i8, [7 x i8], i32*, i32*, i16*, i8, [256 x i8], [256 x i8], i8, [6 x i8] }>
%"class.std::locale::facet.base" = type <{ i32 (...)**, i32 }>
%struct.__locale_struct = type { [13 x %struct.__locale_data*], i16*, i32*, i32*, [13 x i8*] }
%struct.__locale_data = type opaque
%"class.std::num_put" = type { %"class.std::locale::facet.base", [4 x i8] }
%"class.std::num_get" = type { %"class.std::locale::facet.base", [4 x i8] }
%"class.__gnu_cxx::__normal_iterator" = type { double* }
%"class.dealii::Point.25" = type { %"class.dealii::Tensor.31" }
%"class.dealii::Tensor.31" = type { [2 x double] }
%"class.std::vector.26" = type { %"struct.std::_Vector_base.27" }
%"struct.std::_Vector_base.27" = type { %"struct.std::_Vector_base<dealii::Point<2>, std::allocator<dealii::Point<2> > >::_Vector_impl" }
%"struct.std::_Vector_base<dealii::Point<2>, std::allocator<dealii::Point<2> > >::_Vector_impl" = type { %"struct.std::_Vector_base<dealii::Point<2>, std::allocator<dealii::Point<2> > >::_Vector_impl_data" }
%"struct.std::_Vector_base<dealii::Point<2>, std::allocator<dealii::Point<2> > >::_Vector_impl_data" = type { %"class.dealii::Point.25"*, %"class.dealii::Point.25"*, %"class.dealii::Point.25"* }
%"class.std::vector.32" = type { %"struct.std::_Vector_base.33" }
%"struct.std::_Vector_base.33" = type { %"struct.std::_Vector_base<dealii::Tensor<1, 2>, std::allocator<dealii::Tensor<1, 2> > >::_Vector_impl" }
%"struct.std::_Vector_base<dealii::Tensor<1, 2>, std::allocator<dealii::Tensor<1, 2> > >::_Vector_impl" = type { %"struct.std::_Vector_base<dealii::Tensor<1, 2>, std::allocator<dealii::Tensor<1, 2> > >::_Vector_impl_data" }
%"struct.std::_Vector_base<dealii::Tensor<1, 2>, std::allocator<dealii::Tensor<1, 2> > >::_Vector_impl_data" = type { %"class.dealii::Tensor.31"*, %"class.dealii::Tensor.31"*, %"class.dealii::Tensor.31"* }
%"class.std::vector.37" = type { %"struct.std::_Vector_base.38" }
%"struct.std::_Vector_base.38" = type { %"struct.std::_Vector_base<std::vector<dealii::Tensor<1, 2>, std::allocator<dealii::Tensor<1, 2> > >, std::allocator<std::vector<dealii::Tensor<1, 2>, std::allocator<dealii::Tensor<1, 2> > > > >::_Vector_impl" }
%"struct.std::_Vector_base<std::vector<dealii::Tensor<1, 2>, std::allocator<dealii::Tensor<1, 2> > >, std::allocator<std::vector<dealii::Tensor<1, 2>, std::allocator<dealii::Tensor<1, 2> > > > >::_Vector_impl" = type { %"struct.std::_Vector_base<std::vector<dealii::Tensor<1, 2>, std::allocator<dealii::Tensor<1, 2> > >, std::allocator<std::vector<dealii::Tensor<1, 2>, std::allocator<dealii::Tensor<1, 2> > > > >::_Vector_impl_data" }
%"struct.std::_Vector_base<std::vector<dealii::Tensor<1, 2>, std::allocator<dealii::Tensor<1, 2> > >, std::allocator<std::vector<dealii::Tensor<1, 2>, std::allocator<dealii::Tensor<1, 2> > > > >::_Vector_impl_data" = type { %"class.std::vector.32"*, %"class.std::vector.32"*, %"class.std::vector.32"* }
%"class.dealii::Point.48" = type { %"class.dealii::Tensor.54" }
%"class.dealii::Tensor.54" = type { [3 x double] }
%"class.std::vector.49" = type { %"struct.std::_Vector_base.50" }
%"struct.std::_Vector_base.50" = type { %"struct.std::_Vector_base<dealii::Point<3>, std::allocator<dealii::Point<3> > >::_Vector_impl" }
%"struct.std::_Vector_base<dealii::Point<3>, std::allocator<dealii::Point<3> > >::_Vector_impl" = type { %"struct.std::_Vector_base<dealii::Point<3>, std::allocator<dealii::Point<3> > >::_Vector_impl_data" }
%"struct.std::_Vector_base<dealii::Point<3>, std::allocator<dealii::Point<3> > >::_Vector_impl_data" = type { %"class.dealii::Point.48"*, %"class.dealii::Point.48"*, %"class.dealii::Point.48"* }
%"class.std::vector.55" = type { %"struct.std::_Vector_base.56" }
%"struct.std::_Vector_base.56" = type { %"struct.std::_Vector_base<dealii::Tensor<1, 3>, std::allocator<dealii::Tensor<1, 3> > >::_Vector_impl" }
%"struct.std::_Vector_base<dealii::Tensor<1, 3>, std::allocator<dealii::Tensor<1, 3> > >::_Vector_impl" = type { %"struct.std::_Vector_base<dealii::Tensor<1, 3>, std::allocator<dealii::Tensor<1, 3> > >::_Vector_impl_data" }
%"struct.std::_Vector_base<dealii::Tensor<1, 3>, std::allocator<dealii::Tensor<1, 3> > >::_Vector_impl_data" = type { %"class.dealii::Tensor.54"*, %"class.dealii::Tensor.54"*, %"class.dealii::Tensor.54"* }
%"class.std::vector.60" = type { %"struct.std::_Vector_base.61" }
%"struct.std::_Vector_base.61" = type { %"struct.std::_Vector_base<std::vector<dealii::Tensor<1, 3>, std::allocator<dealii::Tensor<1, 3> > >, std::allocator<std::vector<dealii::Tensor<1, 3>, std::allocator<dealii::Tensor<1, 3> > > > >::_Vector_impl" }
%"struct.std::_Vector_base<std::vector<dealii::Tensor<1, 3>, std::allocator<dealii::Tensor<1, 3> > >, std::allocator<std::vector<dealii::Tensor<1, 3>, std::allocator<dealii::Tensor<1, 3> > > > >::_Vector_impl" = type { %"struct.std::_Vector_base<std::vector<dealii::Tensor<1, 3>, std::allocator<dealii::Tensor<1, 3> > >, std::allocator<std::vector<dealii::Tensor<1, 3>, std::allocator<dealii::Tensor<1, 3> > > > >::_Vector_impl_data" }
%"struct.std::_Vector_base<std::vector<dealii::Tensor<1, 3>, std::allocator<dealii::Tensor<1, 3> > >, std::allocator<std::vector<dealii::Tensor<1, 3>, std::allocator<dealii::Tensor<1, 3> > > > >::_Vector_impl_data" = type { %"class.std::vector.55"*, %"class.std::vector.55"*, %"class.std::vector.55"* }
%"class.std::__pair_base" = type { i8 }

$_ZN6dealii8FunctionILi1EEC5Ejd = comdat any

$_ZN6dealii8FunctionILi1EED5Ev = comdat any

$_ZThn16_N6dealii8FunctionILi1EED1Ev = comdat any

$_ZThn16_N6dealii8FunctionILi1EED0Ev = comdat any

$_ZN6dealii8FunctionILi1EEaSERKS1_ = comdat any

$_ZNK6dealii8FunctionILi1EE5valueERKNS_5PointILi1EEEj = comdat any

$_ZNK6dealii8FunctionILi1EE12vector_valueERKNS_5PointILi1EEERNS_6VectorIdEE = comdat any

$_ZNK6dealii8FunctionILi1EE10value_listERKSt6vectorINS_5PointILi1EEESaIS4_EERS2_IdSaIdEEj = comdat any

$_ZNKSt6vectorIN6dealii5PointILi1EEESaIS2_EE4sizeEv = comdat any

$_ZNKSt6vectorIN6dealii5PointILi1EEESaIS2_EEixEm = comdat any

$_ZNSt6vectorIdSaIdEEixEm = comdat any

$_ZNK6dealii8FunctionILi1EE17vector_value_listERKSt6vectorINS_5PointILi1EEESaIS4_EERS2_INS_6VectorIdEESaISA_EE = comdat any

$_ZNSt6vectorIN6dealii6VectorIdEESaIS2_EEixEm = comdat any

$_ZNK6dealii8FunctionILi1EE8gradientERKNS_5PointILi1EEEj = comdat any

$_ZN6dealii5PointILi1EEC2Ev = comdat any

$_ZN6dealii6TensorILi1ELi1EEC2ERKS1_ = comdat any

$_ZNK6dealii8FunctionILi1EE15vector_gradientERKNS_5PointILi1EEERSt6vectorINS_6TensorILi1ELi1EEESaIS8_EE = comdat any

$_ZNK6dealii8FunctionILi1EE13gradient_listERKSt6vectorINS_5PointILi1EEESaIS4_EERS2_INS_6TensorILi1ELi1EEESaISA_EEj = comdat any

$_ZNSt6vectorIN6dealii6TensorILi1ELi1EEESaIS2_EEixEm = comdat any

$_ZN6dealii6TensorILi1ELi1EEaSERKS1_ = comdat any

$_ZNK6dealii8FunctionILi1EE20vector_gradient_listERKSt6vectorINS_5PointILi1EEESaIS4_EERS2_IS2_INS_6TensorILi1ELi1EEESaISA_EESaISC_EE = comdat any

$_ZNSt6vectorIS_IN6dealii6TensorILi1ELi1EEESaIS2_EESaIS4_EEixEm = comdat any

$_ZNK6dealii8FunctionILi1EE9laplacianERKNS_5PointILi1EEEj = comdat any

$_ZNK6dealii8FunctionILi1EE16vector_laplacianERKNS_5PointILi1EEERNS_6VectorIdEE = comdat any

$_ZNK6dealii8FunctionILi1EE14laplacian_listERKSt6vectorINS_5PointILi1EEESaIS4_EERS2_IdSaIdEEj = comdat any

$_ZNK6dealii8FunctionILi1EE21vector_laplacian_listERKSt6vectorINS_5PointILi1EEESaIS4_EERS2_INS_6VectorIdEESaISA_EE = comdat any

$_ZNK6dealii8FunctionILi1EE18memory_consumptionEv = comdat any

$_ZN6dealii8FunctionILi1EE21ExcNumberOfComponentsC5Eii = comdat any

$_ZN6dealii8FunctionILi1EE21ExcNumberOfComponentsD5Ev = comdat any

$_ZNK6dealii8FunctionILi1EE21ExcNumberOfComponents10print_infoERSo = comdat any

$_ZN6dealii12ZeroFunctionILi1EEC5Ej = comdat any

$_ZN6dealii12ZeroFunctionILi1EED5Ev = comdat any

$_ZThn16_N6dealii12ZeroFunctionILi1EED1Ev = comdat any

$_ZThn16_N6dealii12ZeroFunctionILi1EED0Ev = comdat any

$_ZNK6dealii12ZeroFunctionILi1EE5valueERKNS_5PointILi1EEEj = comdat any

$_ZNK6dealii12ZeroFunctionILi1EE12vector_valueERKNS_5PointILi1EEERNS_6VectorIdEE = comdat any

$_ZSt4fillIPddEvT_S1_RKT0_ = comdat any

$_ZN6dealii6VectorIdE5beginEv = comdat any

$_ZN6dealii6VectorIdE3endEv = comdat any

$_ZNK6dealii12ZeroFunctionILi1EE10value_listERKSt6vectorINS_5PointILi1EEESaIS4_EERS2_IdSaIdEEj = comdat any

$_ZSt4fillIN9__gnu_cxx17__normal_iteratorIPdSt6vectorIdSaIdEEEEdEvT_S7_RKT0_ = comdat any

$_ZNSt6vectorIdSaIdEE5beginEv = comdat any

$_ZNSt6vectorIdSaIdEE3endEv = comdat any

$_ZNK6dealii12ZeroFunctionILi1EE17vector_value_listERKSt6vectorINS_5PointILi1EEESaIS4_EERS2_INS_6VectorIdEESaISA_EE = comdat any

$_ZNK6dealii12ZeroFunctionILi1EE8gradientERKNS_5PointILi1EEEj = comdat any

$_ZN6dealii6TensorILi1ELi1EEC2Eb = comdat any

$_ZNK6dealii12ZeroFunctionILi1EE15vector_gradientERKNS_5PointILi1EEERSt6vectorINS_6TensorILi1ELi1EEESaIS8_EE = comdat any

$_ZN6dealii6TensorILi1ELi1EE5clearEv = comdat any

$_ZNK6dealii12ZeroFunctionILi1EE13gradient_listERKSt6vectorINS_5PointILi1EEESaIS4_EERS2_INS_6TensorILi1ELi1EEESaISA_EEj = comdat any

$_ZNK6dealii12ZeroFunctionILi1EE20vector_gradient_listERKSt6vectorINS_5PointILi1EEESaIS4_EERS2_IS2_INS_6TensorILi1ELi1EEESaISA_EESaISC_EE = comdat any

$_ZN6dealii16ConstantFunctionILi1EEC5Edj = comdat any

$_ZN6dealii16ConstantFunctionILi1EED5Ev = comdat any

$_ZThn16_N6dealii16ConstantFunctionILi1EED1Ev = comdat any

$_ZThn16_N6dealii16ConstantFunctionILi1EED0Ev = comdat any

$_ZNK6dealii16ConstantFunctionILi1EE5valueERKNS_5PointILi1EEEj = comdat any

$_ZNK6dealii16ConstantFunctionILi1EE12vector_valueERKNS_5PointILi1EEERNS_6VectorIdEE = comdat any

$_ZNK6dealii16ConstantFunctionILi1EE10value_listERKSt6vectorINS_5PointILi1EEESaIS4_EERS2_IdSaIdEEj = comdat any

$_ZNK6dealii16ConstantFunctionILi1EE17vector_value_listERKSt6vectorINS_5PointILi1EEESaIS4_EERS2_INS_6VectorIdEESaISA_EE = comdat any

$_ZNK6dealii16ConstantFunctionILi1EE18memory_consumptionEv = comdat any

$_ZN6dealii23ComponentSelectFunctionILi1EEC5Ejdj = comdat any

$_ZSt9make_pairIRKjjESt4pairINSt25__strip_reference_wrapperINSt5decayIT_E4typeEE6__typeENS3_INS4_IT0_E4typeEE6__typeEEOS5_OSA_ = comdat any

$_ZN6dealii23ComponentSelectFunctionILi1EEC5Ejj = comdat any

$_ZN6dealii23ComponentSelectFunctionILi1EEC5ERKSt4pairIjjEj = comdat any

$_ZNK6dealii23ComponentSelectFunctionILi1EE12vector_valueERKNS_5PointILi1EEERNS_6VectorIdEE = comdat any

$_ZN6dealii6VectorIdEaSEd = comdat any

$_ZNK6dealii23ComponentSelectFunctionILi1EE17vector_value_listERKSt6vectorINS_5PointILi1EEESaIS4_EERS2_INS_6VectorIdEESaISA_EE = comdat any

$_ZNK6dealii23ComponentSelectFunctionILi1EE18memory_consumptionEv = comdat any

$_ZN6dealii8FunctionILi2EEC5Ejd = comdat any

$_ZN6dealii8FunctionILi2EED5Ev = comdat any

$_ZThn16_N6dealii8FunctionILi2EED1Ev = comdat any

$_ZThn16_N6dealii8FunctionILi2EED0Ev = comdat any

$_ZN6dealii8FunctionILi2EEaSERKS1_ = comdat any

$_ZNK6dealii8FunctionILi2EE5valueERKNS_5PointILi2EEEj = comdat any

$_ZNK6dealii8FunctionILi2EE12vector_valueERKNS_5PointILi2EEERNS_6VectorIdEE = comdat any

$_ZNK6dealii8FunctionILi2EE10value_listERKSt6vectorINS_5PointILi2EEESaIS4_EERS2_IdSaIdEEj = comdat any

$_ZNKSt6vectorIN6dealii5PointILi2EEESaIS2_EE4sizeEv = comdat any

$_ZNKSt6vectorIN6dealii5PointILi2EEESaIS2_EEixEm = comdat any

$_ZNK6dealii8FunctionILi2EE17vector_value_listERKSt6vectorINS_5PointILi2EEESaIS4_EERS2_INS_6VectorIdEESaISA_EE = comdat any

$_ZNK6dealii8FunctionILi2EE8gradientERKNS_5PointILi2EEEj = comdat any

$_ZN6dealii5PointILi2EEC2Ev = comdat any

$_ZN6dealii6TensorILi1ELi2EEC2ERKS1_ = comdat any

$_ZNK6dealii8FunctionILi2EE15vector_gradientERKNS_5PointILi2EEERSt6vectorINS_6TensorILi1ELi2EEESaIS8_EE = comdat any

$_ZNK6dealii8FunctionILi2EE13gradient_listERKSt6vectorINS_5PointILi2EEESaIS4_EERS2_INS_6TensorILi1ELi2EEESaISA_EEj = comdat any

$_ZNSt6vectorIN6dealii6TensorILi1ELi2EEESaIS2_EEixEm = comdat any

$_ZN6dealii6TensorILi1ELi2EEaSERKS1_ = comdat any

$_ZNK6dealii8FunctionILi2EE20vector_gradient_listERKSt6vectorINS_5PointILi2EEESaIS4_EERS2_IS2_INS_6TensorILi1ELi2EEESaISA_EESaISC_EE = comdat any

$_ZNSt6vectorIS_IN6dealii6TensorILi1ELi2EEESaIS2_EESaIS4_EEixEm = comdat any

$_ZNK6dealii8FunctionILi2EE9laplacianERKNS_5PointILi2EEEj = comdat any

$_ZNK6dealii8FunctionILi2EE16vector_laplacianERKNS_5PointILi2EEERNS_6VectorIdEE = comdat any

$_ZNK6dealii8FunctionILi2EE14laplacian_listERKSt6vectorINS_5PointILi2EEESaIS4_EERS2_IdSaIdEEj = comdat any

$_ZNK6dealii8FunctionILi2EE21vector_laplacian_listERKSt6vectorINS_5PointILi2EEESaIS4_EERS2_INS_6VectorIdEESaISA_EE = comdat any

$_ZNK6dealii8FunctionILi2EE18memory_consumptionEv = comdat any

$_ZN6dealii8FunctionILi2EE21ExcNumberOfComponentsC5Eii = comdat any

$_ZN6dealii8FunctionILi2EE21ExcNumberOfComponentsD5Ev = comdat any

$_ZNK6dealii8FunctionILi2EE21ExcNumberOfComponents10print_infoERSo = comdat any

$_ZN6dealii12ZeroFunctionILi2EEC5Ej = comdat any

$_ZN6dealii12ZeroFunctionILi2EED5Ev = comdat any

$_ZThn16_N6dealii12ZeroFunctionILi2EED1Ev = comdat any

$_ZThn16_N6dealii12ZeroFunctionILi2EED0Ev = comdat any

$_ZNK6dealii12ZeroFunctionILi2EE5valueERKNS_5PointILi2EEEj = comdat any

$_ZNK6dealii12ZeroFunctionILi2EE12vector_valueERKNS_5PointILi2EEERNS_6VectorIdEE = comdat any

$_ZNK6dealii12ZeroFunctionILi2EE10value_listERKSt6vectorINS_5PointILi2EEESaIS4_EERS2_IdSaIdEEj = comdat any

$_ZNK6dealii12ZeroFunctionILi2EE17vector_value_listERKSt6vectorINS_5PointILi2EEESaIS4_EERS2_INS_6VectorIdEESaISA_EE = comdat any

$_ZNK6dealii12ZeroFunctionILi2EE8gradientERKNS_5PointILi2EEEj = comdat any

$_ZN6dealii6TensorILi1ELi2EEC2Eb = comdat any

$_ZNK6dealii12ZeroFunctionILi2EE15vector_gradientERKNS_5PointILi2EEERSt6vectorINS_6TensorILi1ELi2EEESaIS8_EE = comdat any

$_ZN6dealii6TensorILi1ELi2EE5clearEv = comdat any

$_ZNK6dealii12ZeroFunctionILi2EE13gradient_listERKSt6vectorINS_5PointILi2EEESaIS4_EERS2_INS_6TensorILi1ELi2EEESaISA_EEj = comdat any

$_ZNK6dealii12ZeroFunctionILi2EE20vector_gradient_listERKSt6vectorINS_5PointILi2EEESaIS4_EERS2_IS2_INS_6TensorILi1ELi2EEESaISA_EESaISC_EE = comdat any

$_ZN6dealii16ConstantFunctionILi2EEC5Edj = comdat any

$_ZN6dealii16ConstantFunctionILi2EED5Ev = comdat any

$_ZThn16_N6dealii16ConstantFunctionILi2EED1Ev = comdat any

$_ZThn16_N6dealii16ConstantFunctionILi2EED0Ev = comdat any

$_ZNK6dealii16ConstantFunctionILi2EE5valueERKNS_5PointILi2EEEj = comdat any

$_ZNK6dealii16ConstantFunctionILi2EE12vector_valueERKNS_5PointILi2EEERNS_6VectorIdEE = comdat any

$_ZNK6dealii16ConstantFunctionILi2EE10value_listERKSt6vectorINS_5PointILi2EEESaIS4_EERS2_IdSaIdEEj = comdat any

$_ZNK6dealii16ConstantFunctionILi2EE17vector_value_listERKSt6vectorINS_5PointILi2EEESaIS4_EERS2_INS_6VectorIdEESaISA_EE = comdat any

$_ZNK6dealii16ConstantFunctionILi2EE18memory_consumptionEv = comdat any

$_ZN6dealii23ComponentSelectFunctionILi2EEC5Ejdj = comdat any

$_ZN6dealii23ComponentSelectFunctionILi2EEC5Ejj = comdat any

$_ZN6dealii23ComponentSelectFunctionILi2EEC5ERKSt4pairIjjEj = comdat any

$_ZNK6dealii23ComponentSelectFunctionILi2EE12vector_valueERKNS_5PointILi2EEERNS_6VectorIdEE = comdat any

$_ZNK6dealii23ComponentSelectFunctionILi2EE17vector_value_listERKSt6vectorINS_5PointILi2EEESaIS4_EERS2_INS_6VectorIdEESaISA_EE = comdat any

$_ZNK6dealii23ComponentSelectFunctionILi2EE18memory_consumptionEv = comdat any

$_ZN6dealii8FunctionILi3EEC5Ejd = comdat any

$_ZN6dealii8FunctionILi3EED5Ev = comdat any

$_ZThn16_N6dealii8FunctionILi3EED1Ev = comdat any

$_ZThn16_N6dealii8FunctionILi3EED0Ev = comdat any

$_ZN6dealii8FunctionILi3EEaSERKS1_ = comdat any

$_ZNK6dealii8FunctionILi3EE5valueERKNS_5PointILi3EEEj = comdat any

$_ZNK6dealii8FunctionILi3EE12vector_valueERKNS_5PointILi3EEERNS_6VectorIdEE = comdat any

$_ZNK6dealii8FunctionILi3EE10value_listERKSt6vectorINS_5PointILi3EEESaIS4_EERS2_IdSaIdEEj = comdat any

$_ZNKSt6vectorIN6dealii5PointILi3EEESaIS2_EE4sizeEv = comdat any

$_ZNKSt6vectorIN6dealii5PointILi3EEESaIS2_EEixEm = comdat any

$_ZNK6dealii8FunctionILi3EE17vector_value_listERKSt6vectorINS_5PointILi3EEESaIS4_EERS2_INS_6VectorIdEESaISA_EE = comdat any

$_ZNK6dealii8FunctionILi3EE8gradientERKNS_5PointILi3EEEj = comdat any

$_ZN6dealii5PointILi3EEC2Ev = comdat any

$_ZN6dealii6TensorILi1ELi3EEC2ERKS1_ = comdat any

$_ZNK6dealii8FunctionILi3EE15vector_gradientERKNS_5PointILi3EEERSt6vectorINS_6TensorILi1ELi3EEESaIS8_EE = comdat any

$_ZNK6dealii8FunctionILi3EE13gradient_listERKSt6vectorINS_5PointILi3EEESaIS4_EERS2_INS_6TensorILi1ELi3EEESaISA_EEj = comdat any

$_ZNSt6vectorIN6dealii6TensorILi1ELi3EEESaIS2_EEixEm = comdat any

$_ZN6dealii6TensorILi1ELi3EEaSERKS1_ = comdat any

$_ZNK6dealii8FunctionILi3EE20vector_gradient_listERKSt6vectorINS_5PointILi3EEESaIS4_EERS2_IS2_INS_6TensorILi1ELi3EEESaISA_EESaISC_EE = comdat any

$_ZNSt6vectorIS_IN6dealii6TensorILi1ELi3EEESaIS2_EESaIS4_EEixEm = comdat any

$_ZNK6dealii8FunctionILi3EE9laplacianERKNS_5PointILi3EEEj = comdat any

$_ZNK6dealii8FunctionILi3EE16vector_laplacianERKNS_5PointILi3EEERNS_6VectorIdEE = comdat any

$_ZNK6dealii8FunctionILi3EE14laplacian_listERKSt6vectorINS_5PointILi3EEESaIS4_EERS2_IdSaIdEEj = comdat any

$_ZNK6dealii8FunctionILi3EE21vector_laplacian_listERKSt6vectorINS_5PointILi3EEESaIS4_EERS2_INS_6VectorIdEESaISA_EE = comdat any

$_ZNK6dealii8FunctionILi3EE18memory_consumptionEv = comdat any

$_ZN6dealii8FunctionILi3EE21ExcNumberOfComponentsC5Eii = comdat any

$_ZN6dealii8FunctionILi3EE21ExcNumberOfComponentsD5Ev = comdat any

$_ZNK6dealii8FunctionILi3EE21ExcNumberOfComponents10print_infoERSo = comdat any

$_ZN6dealii12ZeroFunctionILi3EEC5Ej = comdat any

$_ZN6dealii12ZeroFunctionILi3EED5Ev = comdat any

$_ZThn16_N6dealii12ZeroFunctionILi3EED1Ev = comdat any

$_ZThn16_N6dealii12ZeroFunctionILi3EED0Ev = comdat any

$_ZNK6dealii12ZeroFunctionILi3EE5valueERKNS_5PointILi3EEEj = comdat any

$_ZNK6dealii12ZeroFunctionILi3EE12vector_valueERKNS_5PointILi3EEERNS_6VectorIdEE = comdat any

$_ZNK6dealii12ZeroFunctionILi3EE10value_listERKSt6vectorINS_5PointILi3EEESaIS4_EERS2_IdSaIdEEj = comdat any

$_ZNK6dealii12ZeroFunctionILi3EE17vector_value_listERKSt6vectorINS_5PointILi3EEESaIS4_EERS2_INS_6VectorIdEESaISA_EE = comdat any

$_ZNK6dealii12ZeroFunctionILi3EE8gradientERKNS_5PointILi3EEEj = comdat any

$_ZN6dealii6TensorILi1ELi3EEC2Eb = comdat any

$_ZNK6dealii12ZeroFunctionILi3EE15vector_gradientERKNS_5PointILi3EEERSt6vectorINS_6TensorILi1ELi3EEESaIS8_EE = comdat any

$_ZN6dealii6TensorILi1ELi3EE5clearEv = comdat any

$_ZNK6dealii12ZeroFunctionILi3EE13gradient_listERKSt6vectorINS_5PointILi3EEESaIS4_EERS2_INS_6TensorILi1ELi3EEESaISA_EEj = comdat any

$_ZNK6dealii12ZeroFunctionILi3EE20vector_gradient_listERKSt6vectorINS_5PointILi3EEESaIS4_EERS2_IS2_INS_6TensorILi1ELi3EEESaISA_EESaISC_EE = comdat any

$_ZN6dealii16ConstantFunctionILi3EEC5Edj = comdat any

$_ZN6dealii16ConstantFunctionILi3EED5Ev = comdat any

$_ZThn16_N6dealii16ConstantFunctionILi3EED1Ev = comdat any

$_ZThn16_N6dealii16ConstantFunctionILi3EED0Ev = comdat any

$_ZNK6dealii16ConstantFunctionILi3EE5valueERKNS_5PointILi3EEEj = comdat any

$_ZNK6dealii16ConstantFunctionILi3EE12vector_valueERKNS_5PointILi3EEERNS_6VectorIdEE = comdat any

$_ZNK6dealii16ConstantFunctionILi3EE10value_listERKSt6vectorINS_5PointILi3EEESaIS4_EERS2_IdSaIdEEj = comdat any

$_ZNK6dealii16ConstantFunctionILi3EE17vector_value_listERKSt6vectorINS_5PointILi3EEESaIS4_EERS2_INS_6VectorIdEESaISA_EE = comdat any

$_ZNK6dealii16ConstantFunctionILi3EE18memory_consumptionEv = comdat any

$_ZN6dealii23ComponentSelectFunctionILi3EEC5Ejdj = comdat any

$_ZN6dealii23ComponentSelectFunctionILi3EEC5Ejj = comdat any

$_ZN6dealii23ComponentSelectFunctionILi3EEC5ERKSt4pairIjjEj = comdat any

$_ZNK6dealii23ComponentSelectFunctionILi3EE12vector_valueERKNS_5PointILi3EEERNS_6VectorIdEE = comdat any

$_ZNK6dealii23ComponentSelectFunctionILi3EE17vector_value_listERKSt6vectorINS_5PointILi3EEESaIS4_EERS2_INS_6VectorIdEESaISA_EE = comdat any

$_ZNK6dealii23ComponentSelectFunctionILi3EE18memory_consumptionEv = comdat any

$_ZN6dealii23ComponentSelectFunctionILi1EED2Ev = comdat any

$_ZN6dealii23ComponentSelectFunctionILi1EED0Ev = comdat any

$_ZThn16_N6dealii23ComponentSelectFunctionILi1EED1Ev = comdat any

$_ZThn16_N6dealii23ComponentSelectFunctionILi1EED0Ev = comdat any

$_ZN6dealii23ComponentSelectFunctionILi2EED2Ev = comdat any

$_ZN6dealii23ComponentSelectFunctionILi2EED0Ev = comdat any

$_ZThn16_N6dealii23ComponentSelectFunctionILi2EED1Ev = comdat any

$_ZThn16_N6dealii23ComponentSelectFunctionILi2EED0Ev = comdat any

$_ZN6dealii23ComponentSelectFunctionILi3EED2Ev = comdat any

$_ZN6dealii23ComponentSelectFunctionILi3EED0Ev = comdat any

$_ZThn16_N6dealii23ComponentSelectFunctionILi3EED1Ev = comdat any

$_ZThn16_N6dealii23ComponentSelectFunctionILi3EED0Ev = comdat any

$_ZSt7forwardIRKjEOT_RNSt16remove_referenceIS2_E4typeE = comdat any

$_ZSt7forwardIjEOT_RNSt16remove_referenceIS0_E4typeE = comdat any

$_ZNSt4pairIjjEC2IjLb1EEERKjOT_ = comdat any

$_ZSt8__fill_aIPddEvT_S1_RKT0_ = comdat any

$_ZSt9__fill_a1IPddEN9__gnu_cxx11__enable_ifIXsr11__is_scalarIT0_EE7__valueEvE6__typeET_S6_RKS3_ = comdat any

$_ZSt8__fill_aIN9__gnu_cxx17__normal_iteratorIPdSt6vectorIdSaIdEEEEdEvT_S7_RKT0_ = comdat any

$_ZSt9__fill_a1IPdSt6vectorIdSaIdEEdEvN9__gnu_cxx17__normal_iteratorIT_T0_EES8_RKT1_ = comdat any

$_ZNK9__gnu_cxx17__normal_iteratorIPdSt6vectorIdSaIdEEE4baseEv = comdat any

$_ZN9__gnu_cxx17__normal_iteratorIPdSt6vectorIdSaIdEEEC2ERKS1_ = comdat any

$_ZN6dealii8FunctionILi1EE9dimensionE = comdat any

$_ZTVN6dealii8FunctionILi1EEE = comdat any

$_ZTVN6dealii8FunctionILi1EE21ExcNumberOfComponentsE = comdat any

$_ZTVN6dealii12ZeroFunctionILi1EEE = comdat any

$_ZTVN6dealii16ConstantFunctionILi1EEE = comdat any

$_ZTVN6dealii23ComponentSelectFunctionILi1EEE = comdat any

$_ZN6dealii8FunctionILi2EE9dimensionE = comdat any

$_ZTVN6dealii8FunctionILi2EEE = comdat any

$_ZTVN6dealii8FunctionILi2EE21ExcNumberOfComponentsE = comdat any

$_ZTVN6dealii12ZeroFunctionILi2EEE = comdat any

$_ZTVN6dealii16ConstantFunctionILi2EEE = comdat any

$_ZTVN6dealii23ComponentSelectFunctionILi2EEE = comdat any

$_ZN6dealii8FunctionILi3EE9dimensionE = comdat any

$_ZTVN6dealii8FunctionILi3EEE = comdat any

$_ZTVN6dealii8FunctionILi3EE21ExcNumberOfComponentsE = comdat any

$_ZTVN6dealii12ZeroFunctionILi3EEE = comdat any

$_ZTVN6dealii16ConstantFunctionILi3EEE = comdat any

$_ZTVN6dealii23ComponentSelectFunctionILi3EEE = comdat any

$_ZTSN6dealii8FunctionILi1EEE = comdat any

$_ZTIN6dealii8FunctionILi1EEE = comdat any

$_ZTSN6dealii8FunctionILi1EE21ExcNumberOfComponentsE = comdat any

$_ZTIN6dealii8FunctionILi1EE21ExcNumberOfComponentsE = comdat any

$_ZTSN6dealii12ZeroFunctionILi1EEE = comdat any

$_ZTIN6dealii12ZeroFunctionILi1EEE = comdat any

$_ZTSN6dealii16ConstantFunctionILi1EEE = comdat any

$_ZTIN6dealii16ConstantFunctionILi1EEE = comdat any

$_ZTSN6dealii23ComponentSelectFunctionILi1EEE = comdat any

$_ZTIN6dealii23ComponentSelectFunctionILi1EEE = comdat any

$_ZTSN6dealii8FunctionILi2EEE = comdat any

$_ZTIN6dealii8FunctionILi2EEE = comdat any

$_ZTSN6dealii8FunctionILi2EE21ExcNumberOfComponentsE = comdat any

$_ZTIN6dealii8FunctionILi2EE21ExcNumberOfComponentsE = comdat any

$_ZTSN6dealii12ZeroFunctionILi2EEE = comdat any

$_ZTIN6dealii12ZeroFunctionILi2EEE = comdat any

$_ZTSN6dealii16ConstantFunctionILi2EEE = comdat any

$_ZTIN6dealii16ConstantFunctionILi2EEE = comdat any

$_ZTSN6dealii23ComponentSelectFunctionILi2EEE = comdat any

$_ZTIN6dealii23ComponentSelectFunctionILi2EEE = comdat any

$_ZTSN6dealii8FunctionILi3EEE = comdat any

$_ZTIN6dealii8FunctionILi3EEE = comdat any

$_ZTSN6dealii8FunctionILi3EE21ExcNumberOfComponentsE = comdat any

$_ZTIN6dealii8FunctionILi3EE21ExcNumberOfComponentsE = comdat any

$_ZTSN6dealii12ZeroFunctionILi3EEE = comdat any

$_ZTIN6dealii12ZeroFunctionILi3EEE = comdat any

$_ZTSN6dealii16ConstantFunctionILi3EEE = comdat any

$_ZTIN6dealii16ConstantFunctionILi3EEE = comdat any

$_ZTSN6dealii23ComponentSelectFunctionILi3EEE = comdat any

$_ZTIN6dealii23ComponentSelectFunctionILi3EEE = comdat any

@_ZN6dealii8FunctionILi1EE9dimensionE = weak_odr dso_local constant i32 1, comdat, align 4, !dbg !0, !dbg !0
@_ZTVN6dealii8FunctionILi1EEE = weak_odr dso_local unnamed_addr constant { [18 x i8*], [4 x i8*] } { [18 x i8*] [i8* null, i8* bitcast ({ i8*, i8*, i32, i32, i8*, i64, i8*, i64 }* @_ZTIN6dealii8FunctionILi1EEE to i8*), i8* bitcast (void (%"class.dealii::Function"*)* @_ZN6dealii8FunctionILi1EED1Ev to i8*), i8* bitcast (void (%"class.dealii::Function"*)* @_ZN6dealii8FunctionILi1EED0Ev to i8*), i8* bitcast (void (%"class.dealii::FunctionTime"*, double)* @_ZN6dealii12FunctionTime8set_timeEd to i8*), i8* bitcast (void (%"class.dealii::FunctionTime"*, double)* @_ZN6dealii12FunctionTime12advance_timeEd to i8*), i8* bitcast (double (%"class.dealii::Function"*, %"class.dealii::Point"*, i32)* @_ZNK6dealii8FunctionILi1EE5valueERKNS_5PointILi1EEEj to i8*), i8* bitcast (void (%"class.dealii::Function"*, %"class.dealii::Point"*, %"class.dealii::Vector"*)* @_ZNK6dealii8FunctionILi1EE12vector_valueERKNS_5PointILi1EEERNS_6VectorIdEE to i8*), i8* bitcast (void (%"class.dealii::Function"*, %"class.std::vector"*, %"class.std::vector.3"*, i32)* @_ZNK6dealii8FunctionILi1EE10value_listERKSt6vectorINS_5PointILi1EEESaIS4_EERS2_IdSaIdEEj to i8*), i8* bitcast (void (%"class.dealii::Function"*, %"class.std::vector"*, %"class.std::vector.8"*)* @_ZNK6dealii8FunctionILi1EE17vector_value_listERKSt6vectorINS_5PointILi1EEESaIS4_EERS2_INS_6VectorIdEESaISA_EE to i8*), i8* bitcast (void (%"class.dealii::Tensor"*, %"class.dealii::Function"*, %"class.dealii::Point"*, i32)* @_ZNK6dealii8FunctionILi1EE8gradientERKNS_5PointILi1EEEj to i8*), i8* bitcast (void (%"class.dealii::Function"*, %"class.dealii::Point"*, %"class.std::vector.13"*)* @_ZNK6dealii8FunctionILi1EE15vector_gradientERKNS_5PointILi1EEERSt6vectorINS_6TensorILi1ELi1EEESaIS8_EE to i8*), i8* bitcast (void (%"class.dealii::Function"*, %"class.std::vector"*, %"class.std::vector.13"*, i32)* @_ZNK6dealii8FunctionILi1EE13gradient_listERKSt6vectorINS_5PointILi1EEESaIS4_EERS2_INS_6TensorILi1ELi1EEESaISA_EEj to i8*), i8* bitcast (void (%"class.dealii::Function"*, %"class.std::vector"*, %"class.std::vector.18"*)* @_ZNK6dealii8FunctionILi1EE20vector_gradient_listERKSt6vectorINS_5PointILi1EEESaIS4_EERS2_IS2_INS_6TensorILi1ELi1EEESaISA_EESaISC_EE to i8*), i8* bitcast (double (%"class.dealii::Function"*, %"class.dealii::Point"*, i32)* @_ZNK6dealii8FunctionILi1EE9laplacianERKNS_5PointILi1EEEj to i8*), i8* bitcast (void (%"class.dealii::Function"*, %"class.dealii::Point"*, %"class.dealii::Vector"*)* @_ZNK6dealii8FunctionILi1EE16vector_laplacianERKNS_5PointILi1EEERNS_6VectorIdEE to i8*), i8* bitcast (void (%"class.dealii::Function"*, %"class.std::vector"*, %"class.std::vector.3"*, i32)* @_ZNK6dealii8FunctionILi1EE14laplacian_listERKSt6vectorINS_5PointILi1EEESaIS4_EERS2_IdSaIdEEj to i8*), i8* bitcast (void (%"class.dealii::Function"*, %"class.std::vector"*, %"class.std::vector.8"*)* @_ZNK6dealii8FunctionILi1EE21vector_laplacian_listERKSt6vectorINS_5PointILi1EEESaIS4_EERS2_INS_6VectorIdEESaISA_EE to i8*)], [4 x i8*] [i8* inttoptr (i64 -16 to i8*), i8* bitcast ({ i8*, i8*, i32, i32, i8*, i64, i8*, i64 }* @_ZTIN6dealii8FunctionILi1EEE to i8*), i8* bitcast (void (%"class.dealii::Function"*)* @_ZThn16_N6dealii8FunctionILi1EED1Ev to i8*), i8* bitcast (void (%"class.dealii::Function"*)* @_ZThn16_N6dealii8FunctionILi1EED0Ev to i8*)] }, comdat, align 8
@_ZTVN6dealii8FunctionILi1EE21ExcNumberOfComponentsE = weak_odr dso_local unnamed_addr constant { [6 x i8*] } { [6 x i8*] [i8* null, i8* bitcast ({ i8*, i8*, i8* }* @_ZTIN6dealii8FunctionILi1EE21ExcNumberOfComponentsE to i8*), i8* bitcast (void (%"class.dealii::Function<1>::ExcNumberOfComponents"*)* @_ZN6dealii8FunctionILi1EE21ExcNumberOfComponentsD1Ev to i8*), i8* bitcast (void (%"class.dealii::Function<1>::ExcNumberOfComponents"*)* @_ZN6dealii8FunctionILi1EE21ExcNumberOfComponentsD0Ev to i8*), i8* bitcast (i8* (%"class.dealii::ExceptionBase"*)* @_ZNK6dealii13ExceptionBase4whatEv to i8*), i8* bitcast (void (%"class.dealii::Function<1>::ExcNumberOfComponents"*, %"class.std::basic_ostream"*)* @_ZNK6dealii8FunctionILi1EE21ExcNumberOfComponents10print_infoERSo to i8*)] }, comdat, align 8
@.str = private unnamed_addr constant [52 x i8] c"You can only assign function objects with the same \00", align 1
@.str.1 = private unnamed_addr constant [54 x i8] c"number of components. However, here the left operand \00", align 1
@.str.2 = private unnamed_addr constant [5 x i8] c"has \00", align 1
@.str.3 = private unnamed_addr constant [36 x i8] c" components, and the right operand \00", align 1
@.str.4 = private unnamed_addr constant [13 x i8] c" components.\00", align 1
@_ZTVN6dealii12ZeroFunctionILi1EEE = weak_odr dso_local unnamed_addr constant { [18 x i8*], [4 x i8*] } { [18 x i8*] [i8* null, i8* bitcast ({ i8*, i8*, i8* }* @_ZTIN6dealii12ZeroFunctionILi1EEE to i8*), i8* bitcast (void (%"class.dealii::ZeroFunction"*)* @_ZN6dealii12ZeroFunctionILi1EED1Ev to i8*), i8* bitcast (void (%"class.dealii::ZeroFunction"*)* @_ZN6dealii12ZeroFunctionILi1EED0Ev to i8*), i8* bitcast (void (%"class.dealii::FunctionTime"*, double)* @_ZN6dealii12FunctionTime8set_timeEd to i8*), i8* bitcast (void (%"class.dealii::FunctionTime"*, double)* @_ZN6dealii12FunctionTime12advance_timeEd to i8*), i8* bitcast (double (%"class.dealii::ZeroFunction"*, %"class.dealii::Point"*, i32)* @_ZNK6dealii12ZeroFunctionILi1EE5valueERKNS_5PointILi1EEEj to i8*), i8* bitcast (void (%"class.dealii::ZeroFunction"*, %"class.dealii::Point"*, %"class.dealii::Vector"*)* @_ZNK6dealii12ZeroFunctionILi1EE12vector_valueERKNS_5PointILi1EEERNS_6VectorIdEE to i8*), i8* bitcast (void (%"class.dealii::ZeroFunction"*, %"class.std::vector"*, %"class.std::vector.3"*, i32)* @_ZNK6dealii12ZeroFunctionILi1EE10value_listERKSt6vectorINS_5PointILi1EEESaIS4_EERS2_IdSaIdEEj to i8*), i8* bitcast (void (%"class.dealii::ZeroFunction"*, %"class.std::vector"*, %"class.std::vector.8"*)* @_ZNK6dealii12ZeroFunctionILi1EE17vector_value_listERKSt6vectorINS_5PointILi1EEESaIS4_EERS2_INS_6VectorIdEESaISA_EE to i8*), i8* bitcast (void (%"class.dealii::Tensor"*, %"class.dealii::ZeroFunction"*, %"class.dealii::Point"*, i32)* @_ZNK6dealii12ZeroFunctionILi1EE8gradientERKNS_5PointILi1EEEj to i8*), i8* bitcast (void (%"class.dealii::ZeroFunction"*, %"class.dealii::Point"*, %"class.std::vector.13"*)* @_ZNK6dealii12ZeroFunctionILi1EE15vector_gradientERKNS_5PointILi1EEERSt6vectorINS_6TensorILi1ELi1EEESaIS8_EE to i8*), i8* bitcast (void (%"class.dealii::ZeroFunction"*, %"class.std::vector"*, %"class.std::vector.13"*, i32)* @_ZNK6dealii12ZeroFunctionILi1EE13gradient_listERKSt6vectorINS_5PointILi1EEESaIS4_EERS2_INS_6TensorILi1ELi1EEESaISA_EEj to i8*), i8* bitcast (void (%"class.dealii::ZeroFunction"*, %"class.std::vector"*, %"class.std::vector.18"*)* @_ZNK6dealii12ZeroFunctionILi1EE20vector_gradient_listERKSt6vectorINS_5PointILi1EEESaIS4_EERS2_IS2_INS_6TensorILi1ELi1EEESaISA_EESaISC_EE to i8*), i8* bitcast (double (%"class.dealii::Function"*, %"class.dealii::Point"*, i32)* @_ZNK6dealii8FunctionILi1EE9laplacianERKNS_5PointILi1EEEj to i8*), i8* bitcast (void (%"class.dealii::Function"*, %"class.dealii::Point"*, %"class.dealii::Vector"*)* @_ZNK6dealii8FunctionILi1EE16vector_laplacianERKNS_5PointILi1EEERNS_6VectorIdEE to i8*), i8* bitcast (void (%"class.dealii::Function"*, %"class.std::vector"*, %"class.std::vector.3"*, i32)* @_ZNK6dealii8FunctionILi1EE14laplacian_listERKSt6vectorINS_5PointILi1EEESaIS4_EERS2_IdSaIdEEj to i8*), i8* bitcast (void (%"class.dealii::Function"*, %"class.std::vector"*, %"class.std::vector.8"*)* @_ZNK6dealii8FunctionILi1EE21vector_laplacian_listERKSt6vectorINS_5PointILi1EEESaIS4_EERS2_INS_6VectorIdEESaISA_EE to i8*)], [4 x i8*] [i8* inttoptr (i64 -16 to i8*), i8* bitcast ({ i8*, i8*, i8* }* @_ZTIN6dealii12ZeroFunctionILi1EEE to i8*), i8* bitcast (void (%"class.dealii::ZeroFunction"*)* @_ZThn16_N6dealii12ZeroFunctionILi1EED1Ev to i8*), i8* bitcast (void (%"class.dealii::ZeroFunction"*)* @_ZThn16_N6dealii12ZeroFunctionILi1EED0Ev to i8*)] }, comdat, align 8
@_ZTVN6dealii16ConstantFunctionILi1EEE = weak_odr dso_local unnamed_addr constant { [18 x i8*], [4 x i8*] } { [18 x i8*] [i8* null, i8* bitcast ({ i8*, i8*, i8* }* @_ZTIN6dealii16ConstantFunctionILi1EEE to i8*), i8* bitcast (void (%"class.dealii::ConstantFunction"*)* @_ZN6dealii16ConstantFunctionILi1EED1Ev to i8*), i8* bitcast (void (%"class.dealii::ConstantFunction"*)* @_ZN6dealii16ConstantFunctionILi1EED0Ev to i8*), i8* bitcast (void (%"class.dealii::FunctionTime"*, double)* @_ZN6dealii12FunctionTime8set_timeEd to i8*), i8* bitcast (void (%"class.dealii::FunctionTime"*, double)* @_ZN6dealii12FunctionTime12advance_timeEd to i8*), i8* bitcast (double (%"class.dealii::ConstantFunction"*, %"class.dealii::Point"*, i32)* @_ZNK6dealii16ConstantFunctionILi1EE5valueERKNS_5PointILi1EEEj to i8*), i8* bitcast (void (%"class.dealii::ConstantFunction"*, %"class.dealii::Point"*, %"class.dealii::Vector"*)* @_ZNK6dealii16ConstantFunctionILi1EE12vector_valueERKNS_5PointILi1EEERNS_6VectorIdEE to i8*), i8* bitcast (void (%"class.dealii::ConstantFunction"*, %"class.std::vector"*, %"class.std::vector.3"*, i32)* @_ZNK6dealii16ConstantFunctionILi1EE10value_listERKSt6vectorINS_5PointILi1EEESaIS4_EERS2_IdSaIdEEj to i8*), i8* bitcast (void (%"class.dealii::ConstantFunction"*, %"class.std::vector"*, %"class.std::vector.8"*)* @_ZNK6dealii16ConstantFunctionILi1EE17vector_value_listERKSt6vectorINS_5PointILi1EEESaIS4_EERS2_INS_6VectorIdEESaISA_EE to i8*), i8* bitcast (void (%"class.dealii::Tensor"*, %"class.dealii::ZeroFunction"*, %"class.dealii::Point"*, i32)* @_ZNK6dealii12ZeroFunctionILi1EE8gradientERKNS_5PointILi1EEEj to i8*), i8* bitcast (void (%"class.dealii::ZeroFunction"*, %"class.dealii::Point"*, %"class.std::vector.13"*)* @_ZNK6dealii12ZeroFunctionILi1EE15vector_gradientERKNS_5PointILi1EEERSt6vectorINS_6TensorILi1ELi1EEESaIS8_EE to i8*), i8* bitcast (void (%"class.dealii::ZeroFunction"*, %"class.std::vector"*, %"class.std::vector.13"*, i32)* @_ZNK6dealii12ZeroFunctionILi1EE13gradient_listERKSt6vectorINS_5PointILi1EEESaIS4_EERS2_INS_6TensorILi1ELi1EEESaISA_EEj to i8*), i8* bitcast (void (%"class.dealii::ZeroFunction"*, %"class.std::vector"*, %"class.std::vector.18"*)* @_ZNK6dealii12ZeroFunctionILi1EE20vector_gradient_listERKSt6vectorINS_5PointILi1EEESaIS4_EERS2_IS2_INS_6TensorILi1ELi1EEESaISA_EESaISC_EE to i8*), i8* bitcast (double (%"class.dealii::Function"*, %"class.dealii::Point"*, i32)* @_ZNK6dealii8FunctionILi1EE9laplacianERKNS_5PointILi1EEEj to i8*), i8* bitcast (void (%"class.dealii::Function"*, %"class.dealii::Point"*, %"class.dealii::Vector"*)* @_ZNK6dealii8FunctionILi1EE16vector_laplacianERKNS_5PointILi1EEERNS_6VectorIdEE to i8*), i8* bitcast (void (%"class.dealii::Function"*, %"class.std::vector"*, %"class.std::vector.3"*, i32)* @_ZNK6dealii8FunctionILi1EE14laplacian_listERKSt6vectorINS_5PointILi1EEESaIS4_EERS2_IdSaIdEEj to i8*), i8* bitcast (void (%"class.dealii::Function"*, %"class.std::vector"*, %"class.std::vector.8"*)* @_ZNK6dealii8FunctionILi1EE21vector_laplacian_listERKSt6vectorINS_5PointILi1EEESaIS4_EERS2_INS_6VectorIdEESaISA_EE to i8*)], [4 x i8*] [i8* inttoptr (i64 -16 to i8*), i8* bitcast ({ i8*, i8*, i8* }* @_ZTIN6dealii16ConstantFunctionILi1EEE to i8*), i8* bitcast (void (%"class.dealii::ConstantFunction"*)* @_ZThn16_N6dealii16ConstantFunctionILi1EED1Ev to i8*), i8* bitcast (void (%"class.dealii::ConstantFunction"*)* @_ZThn16_N6dealii16ConstantFunctionILi1EED0Ev to i8*)] }, comdat, align 8
@_ZTVN6dealii23ComponentSelectFunctionILi1EEE = weak_odr dso_local unnamed_addr constant { [18 x i8*], [4 x i8*] } { [18 x i8*] [i8* null, i8* bitcast ({ i8*, i8*, i8* }* @_ZTIN6dealii23ComponentSelectFunctionILi1EEE to i8*), i8* bitcast (void (%"class.dealii::ComponentSelectFunction"*)* @_ZN6dealii23ComponentSelectFunctionILi1EED2Ev to i8*), i8* bitcast (void (%"class.dealii::ComponentSelectFunction"*)* @_ZN6dealii23ComponentSelectFunctionILi1EED0Ev to i8*), i8* bitcast (void (%"class.dealii::FunctionTime"*, double)* @_ZN6dealii12FunctionTime8set_timeEd to i8*), i8* bitcast (void (%"class.dealii::FunctionTime"*, double)* @_ZN6dealii12FunctionTime12advance_timeEd to i8*), i8* bitcast (double (%"class.dealii::ConstantFunction"*, %"class.dealii::Point"*, i32)* @_ZNK6dealii16ConstantFunctionILi1EE5valueERKNS_5PointILi1EEEj to i8*), i8* bitcast (void (%"class.dealii::ComponentSelectFunction"*, %"class.dealii::Point"*, %"class.dealii::Vector"*)* @_ZNK6dealii23ComponentSelectFunctionILi1EE12vector_valueERKNS_5PointILi1EEERNS_6VectorIdEE to i8*), i8* bitcast (void (%"class.dealii::ConstantFunction"*, %"class.std::vector"*, %"class.std::vector.3"*, i32)* @_ZNK6dealii16ConstantFunctionILi1EE10value_listERKSt6vectorINS_5PointILi1EEESaIS4_EERS2_IdSaIdEEj to i8*), i8* bitcast (void (%"class.dealii::ComponentSelectFunction"*, %"class.std::vector"*, %"class.std::vector.8"*)* @_ZNK6dealii23ComponentSelectFunctionILi1EE17vector_value_listERKSt6vectorINS_5PointILi1EEESaIS4_EERS2_INS_6VectorIdEESaISA_EE to i8*), i8* bitcast (void (%"class.dealii::Tensor"*, %"class.dealii::ZeroFunction"*, %"class.dealii::Point"*, i32)* @_ZNK6dealii12ZeroFunctionILi1EE8gradientERKNS_5PointILi1EEEj to i8*), i8* bitcast (void (%"class.dealii::ZeroFunction"*, %"class.dealii::Point"*, %"class.std::vector.13"*)* @_ZNK6dealii12ZeroFunctionILi1EE15vector_gradientERKNS_5PointILi1EEERSt6vectorINS_6TensorILi1ELi1EEESaIS8_EE to i8*), i8* bitcast (void (%"class.dealii::ZeroFunction"*, %"class.std::vector"*, %"class.std::vector.13"*, i32)* @_ZNK6dealii12ZeroFunctionILi1EE13gradient_listERKSt6vectorINS_5PointILi1EEESaIS4_EERS2_INS_6TensorILi1ELi1EEESaISA_EEj to i8*), i8* bitcast (void (%"class.dealii::ZeroFunction"*, %"class.std::vector"*, %"class.std::vector.18"*)* @_ZNK6dealii12ZeroFunctionILi1EE20vector_gradient_listERKSt6vectorINS_5PointILi1EEESaIS4_EERS2_IS2_INS_6TensorILi1ELi1EEESaISA_EESaISC_EE to i8*), i8* bitcast (double (%"class.dealii::Function"*, %"class.dealii::Point"*, i32)* @_ZNK6dealii8FunctionILi1EE9laplacianERKNS_5PointILi1EEEj to i8*), i8* bitcast (void (%"class.dealii::Function"*, %"class.dealii::Point"*, %"class.dealii::Vector"*)* @_ZNK6dealii8FunctionILi1EE16vector_laplacianERKNS_5PointILi1EEERNS_6VectorIdEE to i8*), i8* bitcast (void (%"class.dealii::Function"*, %"class.std::vector"*, %"class.std::vector.3"*, i32)* @_ZNK6dealii8FunctionILi1EE14laplacian_listERKSt6vectorINS_5PointILi1EEESaIS4_EERS2_IdSaIdEEj to i8*), i8* bitcast (void (%"class.dealii::Function"*, %"class.std::vector"*, %"class.std::vector.8"*)* @_ZNK6dealii8FunctionILi1EE21vector_laplacian_listERKSt6vectorINS_5PointILi1EEESaIS4_EERS2_INS_6VectorIdEESaISA_EE to i8*)], [4 x i8*] [i8* inttoptr (i64 -16 to i8*), i8* bitcast ({ i8*, i8*, i8* }* @_ZTIN6dealii23ComponentSelectFunctionILi1EEE to i8*), i8* bitcast (void (%"class.dealii::ComponentSelectFunction"*)* @_ZThn16_N6dealii23ComponentSelectFunctionILi1EED1Ev to i8*), i8* bitcast (void (%"class.dealii::ComponentSelectFunction"*)* @_ZThn16_N6dealii23ComponentSelectFunctionILi1EED0Ev to i8*)] }, comdat, align 8
@_ZN6dealii8FunctionILi2EE9dimensionE = weak_odr dso_local constant i32 2, comdat, align 4, !dbg !2447, !dbg !2447
@_ZTVN6dealii8FunctionILi2EEE = weak_odr dso_local unnamed_addr constant { [18 x i8*], [4 x i8*] } { [18 x i8*] [i8* null, i8* bitcast ({ i8*, i8*, i32, i32, i8*, i64, i8*, i64 }* @_ZTIN6dealii8FunctionILi2EEE to i8*), i8* bitcast (void (%"class.dealii::Function.23"*)* @_ZN6dealii8FunctionILi2EED1Ev to i8*), i8* bitcast (void (%"class.dealii::Function.23"*)* @_ZN6dealii8FunctionILi2EED0Ev to i8*), i8* bitcast (void (%"class.dealii::FunctionTime"*, double)* @_ZN6dealii12FunctionTime8set_timeEd to i8*), i8* bitcast (void (%"class.dealii::FunctionTime"*, double)* @_ZN6dealii12FunctionTime12advance_timeEd to i8*), i8* bitcast (double (%"class.dealii::Function.23"*, %"class.dealii::Point.25"*, i32)* @_ZNK6dealii8FunctionILi2EE5valueERKNS_5PointILi2EEEj to i8*), i8* bitcast (void (%"class.dealii::Function.23"*, %"class.dealii::Point.25"*, %"class.dealii::Vector"*)* @_ZNK6dealii8FunctionILi2EE12vector_valueERKNS_5PointILi2EEERNS_6VectorIdEE to i8*), i8* bitcast (void (%"class.dealii::Function.23"*, %"class.std::vector.26"*, %"class.std::vector.3"*, i32)* @_ZNK6dealii8FunctionILi2EE10value_listERKSt6vectorINS_5PointILi2EEESaIS4_EERS2_IdSaIdEEj to i8*), i8* bitcast (void (%"class.dealii::Function.23"*, %"class.std::vector.26"*, %"class.std::vector.8"*)* @_ZNK6dealii8FunctionILi2EE17vector_value_listERKSt6vectorINS_5PointILi2EEESaIS4_EERS2_INS_6VectorIdEESaISA_EE to i8*), i8* bitcast (void (%"class.dealii::Tensor.31"*, %"class.dealii::Function.23"*, %"class.dealii::Point.25"*, i32)* @_ZNK6dealii8FunctionILi2EE8gradientERKNS_5PointILi2EEEj to i8*), i8* bitcast (void (%"class.dealii::Function.23"*, %"class.dealii::Point.25"*, %"class.std::vector.32"*)* @_ZNK6dealii8FunctionILi2EE15vector_gradientERKNS_5PointILi2EEERSt6vectorINS_6TensorILi1ELi2EEESaIS8_EE to i8*), i8* bitcast (void (%"class.dealii::Function.23"*, %"class.std::vector.26"*, %"class.std::vector.32"*, i32)* @_ZNK6dealii8FunctionILi2EE13gradient_listERKSt6vectorINS_5PointILi2EEESaIS4_EERS2_INS_6TensorILi1ELi2EEESaISA_EEj to i8*), i8* bitcast (void (%"class.dealii::Function.23"*, %"class.std::vector.26"*, %"class.std::vector.37"*)* @_ZNK6dealii8FunctionILi2EE20vector_gradient_listERKSt6vectorINS_5PointILi2EEESaIS4_EERS2_IS2_INS_6TensorILi1ELi2EEESaISA_EESaISC_EE to i8*), i8* bitcast (double (%"class.dealii::Function.23"*, %"class.dealii::Point.25"*, i32)* @_ZNK6dealii8FunctionILi2EE9laplacianERKNS_5PointILi2EEEj to i8*), i8* bitcast (void (%"class.dealii::Function.23"*, %"class.dealii::Point.25"*, %"class.dealii::Vector"*)* @_ZNK6dealii8FunctionILi2EE16vector_laplacianERKNS_5PointILi2EEERNS_6VectorIdEE to i8*), i8* bitcast (void (%"class.dealii::Function.23"*, %"class.std::vector.26"*, %"class.std::vector.3"*, i32)* @_ZNK6dealii8FunctionILi2EE14laplacian_listERKSt6vectorINS_5PointILi2EEESaIS4_EERS2_IdSaIdEEj to i8*), i8* bitcast (void (%"class.dealii::Function.23"*, %"class.std::vector.26"*, %"class.std::vector.8"*)* @_ZNK6dealii8FunctionILi2EE21vector_laplacian_listERKSt6vectorINS_5PointILi2EEESaIS4_EERS2_INS_6VectorIdEESaISA_EE to i8*)], [4 x i8*] [i8* inttoptr (i64 -16 to i8*), i8* bitcast ({ i8*, i8*, i32, i32, i8*, i64, i8*, i64 }* @_ZTIN6dealii8FunctionILi2EEE to i8*), i8* bitcast (void (%"class.dealii::Function.23"*)* @_ZThn16_N6dealii8FunctionILi2EED1Ev to i8*), i8* bitcast (void (%"class.dealii::Function.23"*)* @_ZThn16_N6dealii8FunctionILi2EED0Ev to i8*)] }, comdat, align 8
@_ZTVN6dealii8FunctionILi2EE21ExcNumberOfComponentsE = weak_odr dso_local unnamed_addr constant { [6 x i8*] } { [6 x i8*] [i8* null, i8* bitcast ({ i8*, i8*, i8* }* @_ZTIN6dealii8FunctionILi2EE21ExcNumberOfComponentsE to i8*), i8* bitcast (void (%"class.dealii::Function<2>::ExcNumberOfComponents"*)* @_ZN6dealii8FunctionILi2EE21ExcNumberOfComponentsD1Ev to i8*), i8* bitcast (void (%"class.dealii::Function<2>::ExcNumberOfComponents"*)* @_ZN6dealii8FunctionILi2EE21ExcNumberOfComponentsD0Ev to i8*), i8* bitcast (i8* (%"class.dealii::ExceptionBase"*)* @_ZNK6dealii13ExceptionBase4whatEv to i8*), i8* bitcast (void (%"class.dealii::Function<2>::ExcNumberOfComponents"*, %"class.std::basic_ostream"*)* @_ZNK6dealii8FunctionILi2EE21ExcNumberOfComponents10print_infoERSo to i8*)] }, comdat, align 8
@_ZTVN6dealii12ZeroFunctionILi2EEE = weak_odr dso_local unnamed_addr constant { [18 x i8*], [4 x i8*] } { [18 x i8*] [i8* null, i8* bitcast ({ i8*, i8*, i8* }* @_ZTIN6dealii12ZeroFunctionILi2EEE to i8*), i8* bitcast (void (%"class.dealii::ZeroFunction.42"*)* @_ZN6dealii12ZeroFunctionILi2EED1Ev to i8*), i8* bitcast (void (%"class.dealii::ZeroFunction.42"*)* @_ZN6dealii12ZeroFunctionILi2EED0Ev to i8*), i8* bitcast (void (%"class.dealii::FunctionTime"*, double)* @_ZN6dealii12FunctionTime8set_timeEd to i8*), i8* bitcast (void (%"class.dealii::FunctionTime"*, double)* @_ZN6dealii12FunctionTime12advance_timeEd to i8*), i8* bitcast (double (%"class.dealii::ZeroFunction.42"*, %"class.dealii::Point.25"*, i32)* @_ZNK6dealii12ZeroFunctionILi2EE5valueERKNS_5PointILi2EEEj to i8*), i8* bitcast (void (%"class.dealii::ZeroFunction.42"*, %"class.dealii::Point.25"*, %"class.dealii::Vector"*)* @_ZNK6dealii12ZeroFunctionILi2EE12vector_valueERKNS_5PointILi2EEERNS_6VectorIdEE to i8*), i8* bitcast (void (%"class.dealii::ZeroFunction.42"*, %"class.std::vector.26"*, %"class.std::vector.3"*, i32)* @_ZNK6dealii12ZeroFunctionILi2EE10value_listERKSt6vectorINS_5PointILi2EEESaIS4_EERS2_IdSaIdEEj to i8*), i8* bitcast (void (%"class.dealii::ZeroFunction.42"*, %"class.std::vector.26"*, %"class.std::vector.8"*)* @_ZNK6dealii12ZeroFunctionILi2EE17vector_value_listERKSt6vectorINS_5PointILi2EEESaIS4_EERS2_INS_6VectorIdEESaISA_EE to i8*), i8* bitcast (void (%"class.dealii::Tensor.31"*, %"class.dealii::ZeroFunction.42"*, %"class.dealii::Point.25"*, i32)* @_ZNK6dealii12ZeroFunctionILi2EE8gradientERKNS_5PointILi2EEEj to i8*), i8* bitcast (void (%"class.dealii::ZeroFunction.42"*, %"class.dealii::Point.25"*, %"class.std::vector.32"*)* @_ZNK6dealii12ZeroFunctionILi2EE15vector_gradientERKNS_5PointILi2EEERSt6vectorINS_6TensorILi1ELi2EEESaIS8_EE to i8*), i8* bitcast (void (%"class.dealii::ZeroFunction.42"*, %"class.std::vector.26"*, %"class.std::vector.32"*, i32)* @_ZNK6dealii12ZeroFunctionILi2EE13gradient_listERKSt6vectorINS_5PointILi2EEESaIS4_EERS2_INS_6TensorILi1ELi2EEESaISA_EEj to i8*), i8* bitcast (void (%"class.dealii::ZeroFunction.42"*, %"class.std::vector.26"*, %"class.std::vector.37"*)* @_ZNK6dealii12ZeroFunctionILi2EE20vector_gradient_listERKSt6vectorINS_5PointILi2EEESaIS4_EERS2_IS2_INS_6TensorILi1ELi2EEESaISA_EESaISC_EE to i8*), i8* bitcast (double (%"class.dealii::Function.23"*, %"class.dealii::Point.25"*, i32)* @_ZNK6dealii8FunctionILi2EE9laplacianERKNS_5PointILi2EEEj to i8*), i8* bitcast (void (%"class.dealii::Function.23"*, %"class.dealii::Point.25"*, %"class.dealii::Vector"*)* @_ZNK6dealii8FunctionILi2EE16vector_laplacianERKNS_5PointILi2EEERNS_6VectorIdEE to i8*), i8* bitcast (void (%"class.dealii::Function.23"*, %"class.std::vector.26"*, %"class.std::vector.3"*, i32)* @_ZNK6dealii8FunctionILi2EE14laplacian_listERKSt6vectorINS_5PointILi2EEESaIS4_EERS2_IdSaIdEEj to i8*), i8* bitcast (void (%"class.dealii::Function.23"*, %"class.std::vector.26"*, %"class.std::vector.8"*)* @_ZNK6dealii8FunctionILi2EE21vector_laplacian_listERKSt6vectorINS_5PointILi2EEESaIS4_EERS2_INS_6VectorIdEESaISA_EE to i8*)], [4 x i8*] [i8* inttoptr (i64 -16 to i8*), i8* bitcast ({ i8*, i8*, i8* }* @_ZTIN6dealii12ZeroFunctionILi2EEE to i8*), i8* bitcast (void (%"class.dealii::ZeroFunction.42"*)* @_ZThn16_N6dealii12ZeroFunctionILi2EED1Ev to i8*), i8* bitcast (void (%"class.dealii::ZeroFunction.42"*)* @_ZThn16_N6dealii12ZeroFunctionILi2EED0Ev to i8*)] }, comdat, align 8
@_ZTVN6dealii16ConstantFunctionILi2EEE = weak_odr dso_local unnamed_addr constant { [18 x i8*], [4 x i8*] } { [18 x i8*] [i8* null, i8* bitcast ({ i8*, i8*, i8* }* @_ZTIN6dealii16ConstantFunctionILi2EEE to i8*), i8* bitcast (void (%"class.dealii::ConstantFunction.44"*)* @_ZN6dealii16ConstantFunctionILi2EED1Ev to i8*), i8* bitcast (void (%"class.dealii::ConstantFunction.44"*)* @_ZN6dealii16ConstantFunctionILi2EED0Ev to i8*), i8* bitcast (void (%"class.dealii::FunctionTime"*, double)* @_ZN6dealii12FunctionTime8set_timeEd to i8*), i8* bitcast (void (%"class.dealii::FunctionTime"*, double)* @_ZN6dealii12FunctionTime12advance_timeEd to i8*), i8* bitcast (double (%"class.dealii::ConstantFunction.44"*, %"class.dealii::Point.25"*, i32)* @_ZNK6dealii16ConstantFunctionILi2EE5valueERKNS_5PointILi2EEEj to i8*), i8* bitcast (void (%"class.dealii::ConstantFunction.44"*, %"class.dealii::Point.25"*, %"class.dealii::Vector"*)* @_ZNK6dealii16ConstantFunctionILi2EE12vector_valueERKNS_5PointILi2EEERNS_6VectorIdEE to i8*), i8* bitcast (void (%"class.dealii::ConstantFunction.44"*, %"class.std::vector.26"*, %"class.std::vector.3"*, i32)* @_ZNK6dealii16ConstantFunctionILi2EE10value_listERKSt6vectorINS_5PointILi2EEESaIS4_EERS2_IdSaIdEEj to i8*), i8* bitcast (void (%"class.dealii::ConstantFunction.44"*, %"class.std::vector.26"*, %"class.std::vector.8"*)* @_ZNK6dealii16ConstantFunctionILi2EE17vector_value_listERKSt6vectorINS_5PointILi2EEESaIS4_EERS2_INS_6VectorIdEESaISA_EE to i8*), i8* bitcast (void (%"class.dealii::Tensor.31"*, %"class.dealii::ZeroFunction.42"*, %"class.dealii::Point.25"*, i32)* @_ZNK6dealii12ZeroFunctionILi2EE8gradientERKNS_5PointILi2EEEj to i8*), i8* bitcast (void (%"class.dealii::ZeroFunction.42"*, %"class.dealii::Point.25"*, %"class.std::vector.32"*)* @_ZNK6dealii12ZeroFunctionILi2EE15vector_gradientERKNS_5PointILi2EEERSt6vectorINS_6TensorILi1ELi2EEESaIS8_EE to i8*), i8* bitcast (void (%"class.dealii::ZeroFunction.42"*, %"class.std::vector.26"*, %"class.std::vector.32"*, i32)* @_ZNK6dealii12ZeroFunctionILi2EE13gradient_listERKSt6vectorINS_5PointILi2EEESaIS4_EERS2_INS_6TensorILi1ELi2EEESaISA_EEj to i8*), i8* bitcast (void (%"class.dealii::ZeroFunction.42"*, %"class.std::vector.26"*, %"class.std::vector.37"*)* @_ZNK6dealii12ZeroFunctionILi2EE20vector_gradient_listERKSt6vectorINS_5PointILi2EEESaIS4_EERS2_IS2_INS_6TensorILi1ELi2EEESaISA_EESaISC_EE to i8*), i8* bitcast (double (%"class.dealii::Function.23"*, %"class.dealii::Point.25"*, i32)* @_ZNK6dealii8FunctionILi2EE9laplacianERKNS_5PointILi2EEEj to i8*), i8* bitcast (void (%"class.dealii::Function.23"*, %"class.dealii::Point.25"*, %"class.dealii::Vector"*)* @_ZNK6dealii8FunctionILi2EE16vector_laplacianERKNS_5PointILi2EEERNS_6VectorIdEE to i8*), i8* bitcast (void (%"class.dealii::Function.23"*, %"class.std::vector.26"*, %"class.std::vector.3"*, i32)* @_ZNK6dealii8FunctionILi2EE14laplacian_listERKSt6vectorINS_5PointILi2EEESaIS4_EERS2_IdSaIdEEj to i8*), i8* bitcast (void (%"class.dealii::Function.23"*, %"class.std::vector.26"*, %"class.std::vector.8"*)* @_ZNK6dealii8FunctionILi2EE21vector_laplacian_listERKSt6vectorINS_5PointILi2EEESaIS4_EERS2_INS_6VectorIdEESaISA_EE to i8*)], [4 x i8*] [i8* inttoptr (i64 -16 to i8*), i8* bitcast ({ i8*, i8*, i8* }* @_ZTIN6dealii16ConstantFunctionILi2EEE to i8*), i8* bitcast (void (%"class.dealii::ConstantFunction.44"*)* @_ZThn16_N6dealii16ConstantFunctionILi2EED1Ev to i8*), i8* bitcast (void (%"class.dealii::ConstantFunction.44"*)* @_ZThn16_N6dealii16ConstantFunctionILi2EED0Ev to i8*)] }, comdat, align 8
@_ZTVN6dealii23ComponentSelectFunctionILi2EEE = weak_odr dso_local unnamed_addr constant { [18 x i8*], [4 x i8*] } { [18 x i8*] [i8* null, i8* bitcast ({ i8*, i8*, i8* }* @_ZTIN6dealii23ComponentSelectFunctionILi2EEE to i8*), i8* bitcast (void (%"class.dealii::ComponentSelectFunction.45"*)* @_ZN6dealii23ComponentSelectFunctionILi2EED2Ev to i8*), i8* bitcast (void (%"class.dealii::ComponentSelectFunction.45"*)* @_ZN6dealii23ComponentSelectFunctionILi2EED0Ev to i8*), i8* bitcast (void (%"class.dealii::FunctionTime"*, double)* @_ZN6dealii12FunctionTime8set_timeEd to i8*), i8* bitcast (void (%"class.dealii::FunctionTime"*, double)* @_ZN6dealii12FunctionTime12advance_timeEd to i8*), i8* bitcast (double (%"class.dealii::ConstantFunction.44"*, %"class.dealii::Point.25"*, i32)* @_ZNK6dealii16ConstantFunctionILi2EE5valueERKNS_5PointILi2EEEj to i8*), i8* bitcast (void (%"class.dealii::ComponentSelectFunction.45"*, %"class.dealii::Point.25"*, %"class.dealii::Vector"*)* @_ZNK6dealii23ComponentSelectFunctionILi2EE12vector_valueERKNS_5PointILi2EEERNS_6VectorIdEE to i8*), i8* bitcast (void (%"class.dealii::ConstantFunction.44"*, %"class.std::vector.26"*, %"class.std::vector.3"*, i32)* @_ZNK6dealii16ConstantFunctionILi2EE10value_listERKSt6vectorINS_5PointILi2EEESaIS4_EERS2_IdSaIdEEj to i8*), i8* bitcast (void (%"class.dealii::ComponentSelectFunction.45"*, %"class.std::vector.26"*, %"class.std::vector.8"*)* @_ZNK6dealii23ComponentSelectFunctionILi2EE17vector_value_listERKSt6vectorINS_5PointILi2EEESaIS4_EERS2_INS_6VectorIdEESaISA_EE to i8*), i8* bitcast (void (%"class.dealii::Tensor.31"*, %"class.dealii::ZeroFunction.42"*, %"class.dealii::Point.25"*, i32)* @_ZNK6dealii12ZeroFunctionILi2EE8gradientERKNS_5PointILi2EEEj to i8*), i8* bitcast (void (%"class.dealii::ZeroFunction.42"*, %"class.dealii::Point.25"*, %"class.std::vector.32"*)* @_ZNK6dealii12ZeroFunctionILi2EE15vector_gradientERKNS_5PointILi2EEERSt6vectorINS_6TensorILi1ELi2EEESaIS8_EE to i8*), i8* bitcast (void (%"class.dealii::ZeroFunction.42"*, %"class.std::vector.26"*, %"class.std::vector.32"*, i32)* @_ZNK6dealii12ZeroFunctionILi2EE13gradient_listERKSt6vectorINS_5PointILi2EEESaIS4_EERS2_INS_6TensorILi1ELi2EEESaISA_EEj to i8*), i8* bitcast (void (%"class.dealii::ZeroFunction.42"*, %"class.std::vector.26"*, %"class.std::vector.37"*)* @_ZNK6dealii12ZeroFunctionILi2EE20vector_gradient_listERKSt6vectorINS_5PointILi2EEESaIS4_EERS2_IS2_INS_6TensorILi1ELi2EEESaISA_EESaISC_EE to i8*), i8* bitcast (double (%"class.dealii::Function.23"*, %"class.dealii::Point.25"*, i32)* @_ZNK6dealii8FunctionILi2EE9laplacianERKNS_5PointILi2EEEj to i8*), i8* bitcast (void (%"class.dealii::Function.23"*, %"class.dealii::Point.25"*, %"class.dealii::Vector"*)* @_ZNK6dealii8FunctionILi2EE16vector_laplacianERKNS_5PointILi2EEERNS_6VectorIdEE to i8*), i8* bitcast (void (%"class.dealii::Function.23"*, %"class.std::vector.26"*, %"class.std::vector.3"*, i32)* @_ZNK6dealii8FunctionILi2EE14laplacian_listERKSt6vectorINS_5PointILi2EEESaIS4_EERS2_IdSaIdEEj to i8*), i8* bitcast (void (%"class.dealii::Function.23"*, %"class.std::vector.26"*, %"class.std::vector.8"*)* @_ZNK6dealii8FunctionILi2EE21vector_laplacian_listERKSt6vectorINS_5PointILi2EEESaIS4_EERS2_INS_6VectorIdEESaISA_EE to i8*)], [4 x i8*] [i8* inttoptr (i64 -16 to i8*), i8* bitcast ({ i8*, i8*, i8* }* @_ZTIN6dealii23ComponentSelectFunctionILi2EEE to i8*), i8* bitcast (void (%"class.dealii::ComponentSelectFunction.45"*)* @_ZThn16_N6dealii23ComponentSelectFunctionILi2EED1Ev to i8*), i8* bitcast (void (%"class.dealii::ComponentSelectFunction.45"*)* @_ZThn16_N6dealii23ComponentSelectFunctionILi2EED0Ev to i8*)] }, comdat, align 8
@_ZN6dealii8FunctionILi3EE9dimensionE = weak_odr dso_local constant i32 3, comdat, align 4, !dbg !3902, !dbg !3902
@_ZTVN6dealii8FunctionILi3EEE = weak_odr dso_local unnamed_addr constant { [18 x i8*], [4 x i8*] } { [18 x i8*] [i8* null, i8* bitcast ({ i8*, i8*, i32, i32, i8*, i64, i8*, i64 }* @_ZTIN6dealii8FunctionILi3EEE to i8*), i8* bitcast (void (%"class.dealii::Function.46"*)* @_ZN6dealii8FunctionILi3EED1Ev to i8*), i8* bitcast (void (%"class.dealii::Function.46"*)* @_ZN6dealii8FunctionILi3EED0Ev to i8*), i8* bitcast (void (%"class.dealii::FunctionTime"*, double)* @_ZN6dealii12FunctionTime8set_timeEd to i8*), i8* bitcast (void (%"class.dealii::FunctionTime"*, double)* @_ZN6dealii12FunctionTime12advance_timeEd to i8*), i8* bitcast (double (%"class.dealii::Function.46"*, %"class.dealii::Point.48"*, i32)* @_ZNK6dealii8FunctionILi3EE5valueERKNS_5PointILi3EEEj to i8*), i8* bitcast (void (%"class.dealii::Function.46"*, %"class.dealii::Point.48"*, %"class.dealii::Vector"*)* @_ZNK6dealii8FunctionILi3EE12vector_valueERKNS_5PointILi3EEERNS_6VectorIdEE to i8*), i8* bitcast (void (%"class.dealii::Function.46"*, %"class.std::vector.49"*, %"class.std::vector.3"*, i32)* @_ZNK6dealii8FunctionILi3EE10value_listERKSt6vectorINS_5PointILi3EEESaIS4_EERS2_IdSaIdEEj to i8*), i8* bitcast (void (%"class.dealii::Function.46"*, %"class.std::vector.49"*, %"class.std::vector.8"*)* @_ZNK6dealii8FunctionILi3EE17vector_value_listERKSt6vectorINS_5PointILi3EEESaIS4_EERS2_INS_6VectorIdEESaISA_EE to i8*), i8* bitcast (void (%"class.dealii::Tensor.54"*, %"class.dealii::Function.46"*, %"class.dealii::Point.48"*, i32)* @_ZNK6dealii8FunctionILi3EE8gradientERKNS_5PointILi3EEEj to i8*), i8* bitcast (void (%"class.dealii::Function.46"*, %"class.dealii::Point.48"*, %"class.std::vector.55"*)* @_ZNK6dealii8FunctionILi3EE15vector_gradientERKNS_5PointILi3EEERSt6vectorINS_6TensorILi1ELi3EEESaIS8_EE to i8*), i8* bitcast (void (%"class.dealii::Function.46"*, %"class.std::vector.49"*, %"class.std::vector.55"*, i32)* @_ZNK6dealii8FunctionILi3EE13gradient_listERKSt6vectorINS_5PointILi3EEESaIS4_EERS2_INS_6TensorILi1ELi3EEESaISA_EEj to i8*), i8* bitcast (void (%"class.dealii::Function.46"*, %"class.std::vector.49"*, %"class.std::vector.60"*)* @_ZNK6dealii8FunctionILi3EE20vector_gradient_listERKSt6vectorINS_5PointILi3EEESaIS4_EERS2_IS2_INS_6TensorILi1ELi3EEESaISA_EESaISC_EE to i8*), i8* bitcast (double (%"class.dealii::Function.46"*, %"class.dealii::Point.48"*, i32)* @_ZNK6dealii8FunctionILi3EE9laplacianERKNS_5PointILi3EEEj to i8*), i8* bitcast (void (%"class.dealii::Function.46"*, %"class.dealii::Point.48"*, %"class.dealii::Vector"*)* @_ZNK6dealii8FunctionILi3EE16vector_laplacianERKNS_5PointILi3EEERNS_6VectorIdEE to i8*), i8* bitcast (void (%"class.dealii::Function.46"*, %"class.std::vector.49"*, %"class.std::vector.3"*, i32)* @_ZNK6dealii8FunctionILi3EE14laplacian_listERKSt6vectorINS_5PointILi3EEESaIS4_EERS2_IdSaIdEEj to i8*), i8* bitcast (void (%"class.dealii::Function.46"*, %"class.std::vector.49"*, %"class.std::vector.8"*)* @_ZNK6dealii8FunctionILi3EE21vector_laplacian_listERKSt6vectorINS_5PointILi3EEESaIS4_EERS2_INS_6VectorIdEESaISA_EE to i8*)], [4 x i8*] [i8* inttoptr (i64 -16 to i8*), i8* bitcast ({ i8*, i8*, i32, i32, i8*, i64, i8*, i64 }* @_ZTIN6dealii8FunctionILi3EEE to i8*), i8* bitcast (void (%"class.dealii::Function.46"*)* @_ZThn16_N6dealii8FunctionILi3EED1Ev to i8*), i8* bitcast (void (%"class.dealii::Function.46"*)* @_ZThn16_N6dealii8FunctionILi3EED0Ev to i8*)] }, comdat, align 8
@_ZTVN6dealii8FunctionILi3EE21ExcNumberOfComponentsE = weak_odr dso_local unnamed_addr constant { [6 x i8*] } { [6 x i8*] [i8* null, i8* bitcast ({ i8*, i8*, i8* }* @_ZTIN6dealii8FunctionILi3EE21ExcNumberOfComponentsE to i8*), i8* bitcast (void (%"class.dealii::Function<3>::ExcNumberOfComponents"*)* @_ZN6dealii8FunctionILi3EE21ExcNumberOfComponentsD1Ev to i8*), i8* bitcast (void (%"class.dealii::Function<3>::ExcNumberOfComponents"*)* @_ZN6dealii8FunctionILi3EE21ExcNumberOfComponentsD0Ev to i8*), i8* bitcast (i8* (%"class.dealii::ExceptionBase"*)* @_ZNK6dealii13ExceptionBase4whatEv to i8*), i8* bitcast (void (%"class.dealii::Function<3>::ExcNumberOfComponents"*, %"class.std::basic_ostream"*)* @_ZNK6dealii8FunctionILi3EE21ExcNumberOfComponents10print_infoERSo to i8*)] }, comdat, align 8
@_ZTVN6dealii12ZeroFunctionILi3EEE = weak_odr dso_local unnamed_addr constant { [18 x i8*], [4 x i8*] } { [18 x i8*] [i8* null, i8* bitcast ({ i8*, i8*, i8* }* @_ZTIN6dealii12ZeroFunctionILi3EEE to i8*), i8* bitcast (void (%"class.dealii::ZeroFunction.65"*)* @_ZN6dealii12ZeroFunctionILi3EED1Ev to i8*), i8* bitcast (void (%"class.dealii::ZeroFunction.65"*)* @_ZN6dealii12ZeroFunctionILi3EED0Ev to i8*), i8* bitcast (void (%"class.dealii::FunctionTime"*, double)* @_ZN6dealii12FunctionTime8set_timeEd to i8*), i8* bitcast (void (%"class.dealii::FunctionTime"*, double)* @_ZN6dealii12FunctionTime12advance_timeEd to i8*), i8* bitcast (double (%"class.dealii::ZeroFunction.65"*, %"class.dealii::Point.48"*, i32)* @_ZNK6dealii12ZeroFunctionILi3EE5valueERKNS_5PointILi3EEEj to i8*), i8* bitcast (void (%"class.dealii::ZeroFunction.65"*, %"class.dealii::Point.48"*, %"class.dealii::Vector"*)* @_ZNK6dealii12ZeroFunctionILi3EE12vector_valueERKNS_5PointILi3EEERNS_6VectorIdEE to i8*), i8* bitcast (void (%"class.dealii::ZeroFunction.65"*, %"class.std::vector.49"*, %"class.std::vector.3"*, i32)* @_ZNK6dealii12ZeroFunctionILi3EE10value_listERKSt6vectorINS_5PointILi3EEESaIS4_EERS2_IdSaIdEEj to i8*), i8* bitcast (void (%"class.dealii::ZeroFunction.65"*, %"class.std::vector.49"*, %"class.std::vector.8"*)* @_ZNK6dealii12ZeroFunctionILi3EE17vector_value_listERKSt6vectorINS_5PointILi3EEESaIS4_EERS2_INS_6VectorIdEESaISA_EE to i8*), i8* bitcast (void (%"class.dealii::Tensor.54"*, %"class.dealii::ZeroFunction.65"*, %"class.dealii::Point.48"*, i32)* @_ZNK6dealii12ZeroFunctionILi3EE8gradientERKNS_5PointILi3EEEj to i8*), i8* bitcast (void (%"class.dealii::ZeroFunction.65"*, %"class.dealii::Point.48"*, %"class.std::vector.55"*)* @_ZNK6dealii12ZeroFunctionILi3EE15vector_gradientERKNS_5PointILi3EEERSt6vectorINS_6TensorILi1ELi3EEESaIS8_EE to i8*), i8* bitcast (void (%"class.dealii::ZeroFunction.65"*, %"class.std::vector.49"*, %"class.std::vector.55"*, i32)* @_ZNK6dealii12ZeroFunctionILi3EE13gradient_listERKSt6vectorINS_5PointILi3EEESaIS4_EERS2_INS_6TensorILi1ELi3EEESaISA_EEj to i8*), i8* bitcast (void (%"class.dealii::ZeroFunction.65"*, %"class.std::vector.49"*, %"class.std::vector.60"*)* @_ZNK6dealii12ZeroFunctionILi3EE20vector_gradient_listERKSt6vectorINS_5PointILi3EEESaIS4_EERS2_IS2_INS_6TensorILi1ELi3EEESaISA_EESaISC_EE to i8*), i8* bitcast (double (%"class.dealii::Function.46"*, %"class.dealii::Point.48"*, i32)* @_ZNK6dealii8FunctionILi3EE9laplacianERKNS_5PointILi3EEEj to i8*), i8* bitcast (void (%"class.dealii::Function.46"*, %"class.dealii::Point.48"*, %"class.dealii::Vector"*)* @_ZNK6dealii8FunctionILi3EE16vector_laplacianERKNS_5PointILi3EEERNS_6VectorIdEE to i8*), i8* bitcast (void (%"class.dealii::Function.46"*, %"class.std::vector.49"*, %"class.std::vector.3"*, i32)* @_ZNK6dealii8FunctionILi3EE14laplacian_listERKSt6vectorINS_5PointILi3EEESaIS4_EERS2_IdSaIdEEj to i8*), i8* bitcast (void (%"class.dealii::Function.46"*, %"class.std::vector.49"*, %"class.std::vector.8"*)* @_ZNK6dealii8FunctionILi3EE21vector_laplacian_listERKSt6vectorINS_5PointILi3EEESaIS4_EERS2_INS_6VectorIdEESaISA_EE to i8*)], [4 x i8*] [i8* inttoptr (i64 -16 to i8*), i8* bitcast ({ i8*, i8*, i8* }* @_ZTIN6dealii12ZeroFunctionILi3EEE to i8*), i8* bitcast (void (%"class.dealii::ZeroFunction.65"*)* @_ZThn16_N6dealii12ZeroFunctionILi3EED1Ev to i8*), i8* bitcast (void (%"class.dealii::ZeroFunction.65"*)* @_ZThn16_N6dealii12ZeroFunctionILi3EED0Ev to i8*)] }, comdat, align 8
@_ZTVN6dealii16ConstantFunctionILi3EEE = weak_odr dso_local unnamed_addr constant { [18 x i8*], [4 x i8*] } { [18 x i8*] [i8* null, i8* bitcast ({ i8*, i8*, i8* }* @_ZTIN6dealii16ConstantFunctionILi3EEE to i8*), i8* bitcast (void (%"class.dealii::ConstantFunction.67"*)* @_ZN6dealii16ConstantFunctionILi3EED1Ev to i8*), i8* bitcast (void (%"class.dealii::ConstantFunction.67"*)* @_ZN6dealii16ConstantFunctionILi3EED0Ev to i8*), i8* bitcast (void (%"class.dealii::FunctionTime"*, double)* @_ZN6dealii12FunctionTime8set_timeEd to i8*), i8* bitcast (void (%"class.dealii::FunctionTime"*, double)* @_ZN6dealii12FunctionTime12advance_timeEd to i8*), i8* bitcast (double (%"class.dealii::ConstantFunction.67"*, %"class.dealii::Point.48"*, i32)* @_ZNK6dealii16ConstantFunctionILi3EE5valueERKNS_5PointILi3EEEj to i8*), i8* bitcast (void (%"class.dealii::ConstantFunction.67"*, %"class.dealii::Point.48"*, %"class.dealii::Vector"*)* @_ZNK6dealii16ConstantFunctionILi3EE12vector_valueERKNS_5PointILi3EEERNS_6VectorIdEE to i8*), i8* bitcast (void (%"class.dealii::ConstantFunction.67"*, %"class.std::vector.49"*, %"class.std::vector.3"*, i32)* @_ZNK6dealii16ConstantFunctionILi3EE10value_listERKSt6vectorINS_5PointILi3EEESaIS4_EERS2_IdSaIdEEj to i8*), i8* bitcast (void (%"class.dealii::ConstantFunction.67"*, %"class.std::vector.49"*, %"class.std::vector.8"*)* @_ZNK6dealii16ConstantFunctionILi3EE17vector_value_listERKSt6vectorINS_5PointILi3EEESaIS4_EERS2_INS_6VectorIdEESaISA_EE to i8*), i8* bitcast (void (%"class.dealii::Tensor.54"*, %"class.dealii::ZeroFunction.65"*, %"class.dealii::Point.48"*, i32)* @_ZNK6dealii12ZeroFunctionILi3EE8gradientERKNS_5PointILi3EEEj to i8*), i8* bitcast (void (%"class.dealii::ZeroFunction.65"*, %"class.dealii::Point.48"*, %"class.std::vector.55"*)* @_ZNK6dealii12ZeroFunctionILi3EE15vector_gradientERKNS_5PointILi3EEERSt6vectorINS_6TensorILi1ELi3EEESaIS8_EE to i8*), i8* bitcast (void (%"class.dealii::ZeroFunction.65"*, %"class.std::vector.49"*, %"class.std::vector.55"*, i32)* @_ZNK6dealii12ZeroFunctionILi3EE13gradient_listERKSt6vectorINS_5PointILi3EEESaIS4_EERS2_INS_6TensorILi1ELi3EEESaISA_EEj to i8*), i8* bitcast (void (%"class.dealii::ZeroFunction.65"*, %"class.std::vector.49"*, %"class.std::vector.60"*)* @_ZNK6dealii12ZeroFunctionILi3EE20vector_gradient_listERKSt6vectorINS_5PointILi3EEESaIS4_EERS2_IS2_INS_6TensorILi1ELi3EEESaISA_EESaISC_EE to i8*), i8* bitcast (double (%"class.dealii::Function.46"*, %"class.dealii::Point.48"*, i32)* @_ZNK6dealii8FunctionILi3EE9laplacianERKNS_5PointILi3EEEj to i8*), i8* bitcast (void (%"class.dealii::Function.46"*, %"class.dealii::Point.48"*, %"class.dealii::Vector"*)* @_ZNK6dealii8FunctionILi3EE16vector_laplacianERKNS_5PointILi3EEERNS_6VectorIdEE to i8*), i8* bitcast (void (%"class.dealii::Function.46"*, %"class.std::vector.49"*, %"class.std::vector.3"*, i32)* @_ZNK6dealii8FunctionILi3EE14laplacian_listERKSt6vectorINS_5PointILi3EEESaIS4_EERS2_IdSaIdEEj to i8*), i8* bitcast (void (%"class.dealii::Function.46"*, %"class.std::vector.49"*, %"class.std::vector.8"*)* @_ZNK6dealii8FunctionILi3EE21vector_laplacian_listERKSt6vectorINS_5PointILi3EEESaIS4_EERS2_INS_6VectorIdEESaISA_EE to i8*)], [4 x i8*] [i8* inttoptr (i64 -16 to i8*), i8* bitcast ({ i8*, i8*, i8* }* @_ZTIN6dealii16ConstantFunctionILi3EEE to i8*), i8* bitcast (void (%"class.dealii::ConstantFunction.67"*)* @_ZThn16_N6dealii16ConstantFunctionILi3EED1Ev to i8*), i8* bitcast (void (%"class.dealii::ConstantFunction.67"*)* @_ZThn16_N6dealii16ConstantFunctionILi3EED0Ev to i8*)] }, comdat, align 8
@_ZTVN6dealii23ComponentSelectFunctionILi3EEE = weak_odr dso_local unnamed_addr constant { [18 x i8*], [4 x i8*] } { [18 x i8*] [i8* null, i8* bitcast ({ i8*, i8*, i8* }* @_ZTIN6dealii23ComponentSelectFunctionILi3EEE to i8*), i8* bitcast (void (%"class.dealii::ComponentSelectFunction.68"*)* @_ZN6dealii23ComponentSelectFunctionILi3EED2Ev to i8*), i8* bitcast (void (%"class.dealii::ComponentSelectFunction.68"*)* @_ZN6dealii23ComponentSelectFunctionILi3EED0Ev to i8*), i8* bitcast (void (%"class.dealii::FunctionTime"*, double)* @_ZN6dealii12FunctionTime8set_timeEd to i8*), i8* bitcast (void (%"class.dealii::FunctionTime"*, double)* @_ZN6dealii12FunctionTime12advance_timeEd to i8*), i8* bitcast (double (%"class.dealii::ConstantFunction.67"*, %"class.dealii::Point.48"*, i32)* @_ZNK6dealii16ConstantFunctionILi3EE5valueERKNS_5PointILi3EEEj to i8*), i8* bitcast (void (%"class.dealii::ComponentSelectFunction.68"*, %"class.dealii::Point.48"*, %"class.dealii::Vector"*)* @_ZNK6dealii23ComponentSelectFunctionILi3EE12vector_valueERKNS_5PointILi3EEERNS_6VectorIdEE to i8*), i8* bitcast (void (%"class.dealii::ConstantFunction.67"*, %"class.std::vector.49"*, %"class.std::vector.3"*, i32)* @_ZNK6dealii16ConstantFunctionILi3EE10value_listERKSt6vectorINS_5PointILi3EEESaIS4_EERS2_IdSaIdEEj to i8*), i8* bitcast (void (%"class.dealii::ComponentSelectFunction.68"*, %"class.std::vector.49"*, %"class.std::vector.8"*)* @_ZNK6dealii23ComponentSelectFunctionILi3EE17vector_value_listERKSt6vectorINS_5PointILi3EEESaIS4_EERS2_INS_6VectorIdEESaISA_EE to i8*), i8* bitcast (void (%"class.dealii::Tensor.54"*, %"class.dealii::ZeroFunction.65"*, %"class.dealii::Point.48"*, i32)* @_ZNK6dealii12ZeroFunctionILi3EE8gradientERKNS_5PointILi3EEEj to i8*), i8* bitcast (void (%"class.dealii::ZeroFunction.65"*, %"class.dealii::Point.48"*, %"class.std::vector.55"*)* @_ZNK6dealii12ZeroFunctionILi3EE15vector_gradientERKNS_5PointILi3EEERSt6vectorINS_6TensorILi1ELi3EEESaIS8_EE to i8*), i8* bitcast (void (%"class.dealii::ZeroFunction.65"*, %"class.std::vector.49"*, %"class.std::vector.55"*, i32)* @_ZNK6dealii12ZeroFunctionILi3EE13gradient_listERKSt6vectorINS_5PointILi3EEESaIS4_EERS2_INS_6TensorILi1ELi3EEESaISA_EEj to i8*), i8* bitcast (void (%"class.dealii::ZeroFunction.65"*, %"class.std::vector.49"*, %"class.std::vector.60"*)* @_ZNK6dealii12ZeroFunctionILi3EE20vector_gradient_listERKSt6vectorINS_5PointILi3EEESaIS4_EERS2_IS2_INS_6TensorILi1ELi3EEESaISA_EESaISC_EE to i8*), i8* bitcast (double (%"class.dealii::Function.46"*, %"class.dealii::Point.48"*, i32)* @_ZNK6dealii8FunctionILi3EE9laplacianERKNS_5PointILi3EEEj to i8*), i8* bitcast (void (%"class.dealii::Function.46"*, %"class.dealii::Point.48"*, %"class.dealii::Vector"*)* @_ZNK6dealii8FunctionILi3EE16vector_laplacianERKNS_5PointILi3EEERNS_6VectorIdEE to i8*), i8* bitcast (void (%"class.dealii::Function.46"*, %"class.std::vector.49"*, %"class.std::vector.3"*, i32)* @_ZNK6dealii8FunctionILi3EE14laplacian_listERKSt6vectorINS_5PointILi3EEESaIS4_EERS2_IdSaIdEEj to i8*), i8* bitcast (void (%"class.dealii::Function.46"*, %"class.std::vector.49"*, %"class.std::vector.8"*)* @_ZNK6dealii8FunctionILi3EE21vector_laplacian_listERKSt6vectorINS_5PointILi3EEESaIS4_EERS2_INS_6VectorIdEESaISA_EE to i8*)], [4 x i8*] [i8* inttoptr (i64 -16 to i8*), i8* bitcast ({ i8*, i8*, i8* }* @_ZTIN6dealii23ComponentSelectFunctionILi3EEE to i8*), i8* bitcast (void (%"class.dealii::ComponentSelectFunction.68"*)* @_ZThn16_N6dealii23ComponentSelectFunctionILi3EED1Ev to i8*), i8* bitcast (void (%"class.dealii::ComponentSelectFunction.68"*)* @_ZThn16_N6dealii23ComponentSelectFunctionILi3EED0Ev to i8*)] }, comdat, align 8
@_ZTVN10__cxxabiv121__vmi_class_type_infoE = external dso_local global i8*
@_ZTSN6dealii8FunctionILi1EEE = weak_odr dso_local constant [25 x i8] c"N6dealii8FunctionILi1EEE\00", comdat, align 1
@_ZTIN6dealii12FunctionTimeE = external dso_local constant i8*
@_ZTIN6dealii11SubscriptorE = external dso_local constant i8*
@_ZTIN6dealii8FunctionILi1EEE = weak_odr dso_local constant { i8*, i8*, i32, i32, i8*, i64, i8*, i64 } { i8* bitcast (i8** getelementptr inbounds (i8*, i8** @_ZTVN10__cxxabiv121__vmi_class_type_infoE, i64 2) to i8*), i8* getelementptr inbounds ([25 x i8], [25 x i8]* @_ZTSN6dealii8FunctionILi1EEE, i32 0, i32 0), i32 0, i32 2, i8* bitcast (i8** @_ZTIN6dealii12FunctionTimeE to i8*), i64 2, i8* bitcast (i8** @_ZTIN6dealii11SubscriptorE to i8*), i64 4098 }, comdat, align 8
@_ZTVN10__cxxabiv120__si_class_type_infoE = external dso_local global i8*
@_ZTSN6dealii8FunctionILi1EE21ExcNumberOfComponentsE = weak_odr dso_local constant [48 x i8] c"N6dealii8FunctionILi1EE21ExcNumberOfComponentsE\00", comdat, align 1
@_ZTIN6dealii13ExceptionBaseE = external dso_local constant i8*
@_ZTIN6dealii8FunctionILi1EE21ExcNumberOfComponentsE = weak_odr dso_local constant { i8*, i8*, i8* } { i8* bitcast (i8** getelementptr inbounds (i8*, i8** @_ZTVN10__cxxabiv120__si_class_type_infoE, i64 2) to i8*), i8* getelementptr inbounds ([48 x i8], [48 x i8]* @_ZTSN6dealii8FunctionILi1EE21ExcNumberOfComponentsE, i32 0, i32 0), i8* bitcast (i8** @_ZTIN6dealii13ExceptionBaseE to i8*) }, comdat, align 8
@_ZTSN6dealii12ZeroFunctionILi1EEE = weak_odr dso_local constant [30 x i8] c"N6dealii12ZeroFunctionILi1EEE\00", comdat, align 1
@_ZTIN6dealii12ZeroFunctionILi1EEE = weak_odr dso_local constant { i8*, i8*, i8* } { i8* bitcast (i8** getelementptr inbounds (i8*, i8** @_ZTVN10__cxxabiv120__si_class_type_infoE, i64 2) to i8*), i8* getelementptr inbounds ([30 x i8], [30 x i8]* @_ZTSN6dealii12ZeroFunctionILi1EEE, i32 0, i32 0), i8* bitcast ({ i8*, i8*, i32, i32, i8*, i64, i8*, i64 }* @_ZTIN6dealii8FunctionILi1EEE to i8*) }, comdat, align 8
@_ZTSN6dealii16ConstantFunctionILi1EEE = weak_odr dso_local constant [34 x i8] c"N6dealii16ConstantFunctionILi1EEE\00", comdat, align 1
@_ZTIN6dealii16ConstantFunctionILi1EEE = weak_odr dso_local constant { i8*, i8*, i8* } { i8* bitcast (i8** getelementptr inbounds (i8*, i8** @_ZTVN10__cxxabiv120__si_class_type_infoE, i64 2) to i8*), i8* getelementptr inbounds ([34 x i8], [34 x i8]* @_ZTSN6dealii16ConstantFunctionILi1EEE, i32 0, i32 0), i8* bitcast ({ i8*, i8*, i8* }* @_ZTIN6dealii12ZeroFunctionILi1EEE to i8*) }, comdat, align 8
@_ZTSN6dealii23ComponentSelectFunctionILi1EEE = weak_odr dso_local constant [41 x i8] c"N6dealii23ComponentSelectFunctionILi1EEE\00", comdat, align 1
@_ZTIN6dealii23ComponentSelectFunctionILi1EEE = weak_odr dso_local constant { i8*, i8*, i8* } { i8* bitcast (i8** getelementptr inbounds (i8*, i8** @_ZTVN10__cxxabiv120__si_class_type_infoE, i64 2) to i8*), i8* getelementptr inbounds ([41 x i8], [41 x i8]* @_ZTSN6dealii23ComponentSelectFunctionILi1EEE, i32 0, i32 0), i8* bitcast ({ i8*, i8*, i8* }* @_ZTIN6dealii16ConstantFunctionILi1EEE to i8*) }, comdat, align 8
@_ZTSN6dealii8FunctionILi2EEE = weak_odr dso_local constant [25 x i8] c"N6dealii8FunctionILi2EEE\00", comdat, align 1
@_ZTIN6dealii8FunctionILi2EEE = weak_odr dso_local constant { i8*, i8*, i32, i32, i8*, i64, i8*, i64 } { i8* bitcast (i8** getelementptr inbounds (i8*, i8** @_ZTVN10__cxxabiv121__vmi_class_type_infoE, i64 2) to i8*), i8* getelementptr inbounds ([25 x i8], [25 x i8]* @_ZTSN6dealii8FunctionILi2EEE, i32 0, i32 0), i32 0, i32 2, i8* bitcast (i8** @_ZTIN6dealii12FunctionTimeE to i8*), i64 2, i8* bitcast (i8** @_ZTIN6dealii11SubscriptorE to i8*), i64 4098 }, comdat, align 8
@_ZTSN6dealii8FunctionILi2EE21ExcNumberOfComponentsE = weak_odr dso_local constant [48 x i8] c"N6dealii8FunctionILi2EE21ExcNumberOfComponentsE\00", comdat, align 1
@_ZTIN6dealii8FunctionILi2EE21ExcNumberOfComponentsE = weak_odr dso_local constant { i8*, i8*, i8* } { i8* bitcast (i8** getelementptr inbounds (i8*, i8** @_ZTVN10__cxxabiv120__si_class_type_infoE, i64 2) to i8*), i8* getelementptr inbounds ([48 x i8], [48 x i8]* @_ZTSN6dealii8FunctionILi2EE21ExcNumberOfComponentsE, i32 0, i32 0), i8* bitcast (i8** @_ZTIN6dealii13ExceptionBaseE to i8*) }, comdat, align 8
@_ZTSN6dealii12ZeroFunctionILi2EEE = weak_odr dso_local constant [30 x i8] c"N6dealii12ZeroFunctionILi2EEE\00", comdat, align 1
@_ZTIN6dealii12ZeroFunctionILi2EEE = weak_odr dso_local constant { i8*, i8*, i8* } { i8* bitcast (i8** getelementptr inbounds (i8*, i8** @_ZTVN10__cxxabiv120__si_class_type_infoE, i64 2) to i8*), i8* getelementptr inbounds ([30 x i8], [30 x i8]* @_ZTSN6dealii12ZeroFunctionILi2EEE, i32 0, i32 0), i8* bitcast ({ i8*, i8*, i32, i32, i8*, i64, i8*, i64 }* @_ZTIN6dealii8FunctionILi2EEE to i8*) }, comdat, align 8
@_ZTSN6dealii16ConstantFunctionILi2EEE = weak_odr dso_local constant [34 x i8] c"N6dealii16ConstantFunctionILi2EEE\00", comdat, align 1
@_ZTIN6dealii16ConstantFunctionILi2EEE = weak_odr dso_local constant { i8*, i8*, i8* } { i8* bitcast (i8** getelementptr inbounds (i8*, i8** @_ZTVN10__cxxabiv120__si_class_type_infoE, i64 2) to i8*), i8* getelementptr inbounds ([34 x i8], [34 x i8]* @_ZTSN6dealii16ConstantFunctionILi2EEE, i32 0, i32 0), i8* bitcast ({ i8*, i8*, i8* }* @_ZTIN6dealii12ZeroFunctionILi2EEE to i8*) }, comdat, align 8
@_ZTSN6dealii23ComponentSelectFunctionILi2EEE = weak_odr dso_local constant [41 x i8] c"N6dealii23ComponentSelectFunctionILi2EEE\00", comdat, align 1
@_ZTIN6dealii23ComponentSelectFunctionILi2EEE = weak_odr dso_local constant { i8*, i8*, i8* } { i8* bitcast (i8** getelementptr inbounds (i8*, i8** @_ZTVN10__cxxabiv120__si_class_type_infoE, i64 2) to i8*), i8* getelementptr inbounds ([41 x i8], [41 x i8]* @_ZTSN6dealii23ComponentSelectFunctionILi2EEE, i32 0, i32 0), i8* bitcast ({ i8*, i8*, i8* }* @_ZTIN6dealii16ConstantFunctionILi2EEE to i8*) }, comdat, align 8
@_ZTSN6dealii8FunctionILi3EEE = weak_odr dso_local constant [25 x i8] c"N6dealii8FunctionILi3EEE\00", comdat, align 1
@_ZTIN6dealii8FunctionILi3EEE = weak_odr dso_local constant { i8*, i8*, i32, i32, i8*, i64, i8*, i64 } { i8* bitcast (i8** getelementptr inbounds (i8*, i8** @_ZTVN10__cxxabiv121__vmi_class_type_infoE, i64 2) to i8*), i8* getelementptr inbounds ([25 x i8], [25 x i8]* @_ZTSN6dealii8FunctionILi3EEE, i32 0, i32 0), i32 0, i32 2, i8* bitcast (i8** @_ZTIN6dealii12FunctionTimeE to i8*), i64 2, i8* bitcast (i8** @_ZTIN6dealii11SubscriptorE to i8*), i64 4098 }, comdat, align 8
@_ZTSN6dealii8FunctionILi3EE21ExcNumberOfComponentsE = weak_odr dso_local constant [48 x i8] c"N6dealii8FunctionILi3EE21ExcNumberOfComponentsE\00", comdat, align 1
@_ZTIN6dealii8FunctionILi3EE21ExcNumberOfComponentsE = weak_odr dso_local constant { i8*, i8*, i8* } { i8* bitcast (i8** getelementptr inbounds (i8*, i8** @_ZTVN10__cxxabiv120__si_class_type_infoE, i64 2) to i8*), i8* getelementptr inbounds ([48 x i8], [48 x i8]* @_ZTSN6dealii8FunctionILi3EE21ExcNumberOfComponentsE, i32 0, i32 0), i8* bitcast (i8** @_ZTIN6dealii13ExceptionBaseE to i8*) }, comdat, align 8
@_ZTSN6dealii12ZeroFunctionILi3EEE = weak_odr dso_local constant [30 x i8] c"N6dealii12ZeroFunctionILi3EEE\00", comdat, align 1
@_ZTIN6dealii12ZeroFunctionILi3EEE = weak_odr dso_local constant { i8*, i8*, i8* } { i8* bitcast (i8** getelementptr inbounds (i8*, i8** @_ZTVN10__cxxabiv120__si_class_type_infoE, i64 2) to i8*), i8* getelementptr inbounds ([30 x i8], [30 x i8]* @_ZTSN6dealii12ZeroFunctionILi3EEE, i32 0, i32 0), i8* bitcast ({ i8*, i8*, i32, i32, i8*, i64, i8*, i64 }* @_ZTIN6dealii8FunctionILi3EEE to i8*) }, comdat, align 8
@_ZTSN6dealii16ConstantFunctionILi3EEE = weak_odr dso_local constant [34 x i8] c"N6dealii16ConstantFunctionILi3EEE\00", comdat, align 1
@_ZTIN6dealii16ConstantFunctionILi3EEE = weak_odr dso_local constant { i8*, i8*, i8* } { i8* bitcast (i8** getelementptr inbounds (i8*, i8** @_ZTVN10__cxxabiv120__si_class_type_infoE, i64 2) to i8*), i8* getelementptr inbounds ([34 x i8], [34 x i8]* @_ZTSN6dealii16ConstantFunctionILi3EEE, i32 0, i32 0), i8* bitcast ({ i8*, i8*, i8* }* @_ZTIN6dealii12ZeroFunctionILi3EEE to i8*) }, comdat, align 8
@_ZTSN6dealii23ComponentSelectFunctionILi3EEE = weak_odr dso_local constant [41 x i8] c"N6dealii23ComponentSelectFunctionILi3EEE\00", comdat, align 1
@_ZTIN6dealii23ComponentSelectFunctionILi3EEE = weak_odr dso_local constant { i8*, i8*, i8* } { i8* bitcast (i8** getelementptr inbounds (i8*, i8** @_ZTVN10__cxxabiv120__si_class_type_infoE, i64 2) to i8*), i8* getelementptr inbounds ([41 x i8], [41 x i8]* @_ZTSN6dealii23ComponentSelectFunctionILi3EEE, i32 0, i32 0), i8* bitcast ({ i8*, i8*, i8* }* @_ZTIN6dealii16ConstantFunctionILi3EEE to i8*) }, comdat, align 8

@_ZN6dealii8FunctionILi1EEC1Ejd = weak_odr dso_local unnamed_addr alias void (%"class.dealii::Function"*, i32, double), void (%"class.dealii::Function"*, i32, double)* @_ZN6dealii8FunctionILi1EEC2Ejd
@_ZN6dealii8FunctionILi1EED1Ev = weak_odr dso_local unnamed_addr alias void (%"class.dealii::Function"*), void (%"class.dealii::Function"*)* @_ZN6dealii8FunctionILi1EED2Ev
@_ZN6dealii8FunctionILi1EE21ExcNumberOfComponentsC1Eii = weak_odr dso_local unnamed_addr alias void (%"class.dealii::Function<1>::ExcNumberOfComponents"*, i32, i32), void (%"class.dealii::Function<1>::ExcNumberOfComponents"*, i32, i32)* @_ZN6dealii8FunctionILi1EE21ExcNumberOfComponentsC2Eii
@_ZN6dealii8FunctionILi1EE21ExcNumberOfComponentsD1Ev = weak_odr dso_local unnamed_addr alias void (%"class.dealii::Function<1>::ExcNumberOfComponents"*), void (%"class.dealii::Function<1>::ExcNumberOfComponents"*)* @_ZN6dealii8FunctionILi1EE21ExcNumberOfComponentsD2Ev
@_ZN6dealii12ZeroFunctionILi1EEC1Ej = weak_odr dso_local unnamed_addr alias void (%"class.dealii::ZeroFunction"*, i32), void (%"class.dealii::ZeroFunction"*, i32)* @_ZN6dealii12ZeroFunctionILi1EEC2Ej
@_ZN6dealii12ZeroFunctionILi1EED1Ev = weak_odr dso_local unnamed_addr alias void (%"class.dealii::ZeroFunction"*), void (%"class.dealii::ZeroFunction"*)* @_ZN6dealii12ZeroFunctionILi1EED2Ev
@_ZN6dealii16ConstantFunctionILi1EEC1Edj = weak_odr dso_local unnamed_addr alias void (%"class.dealii::ConstantFunction"*, double, i32), void (%"class.dealii::ConstantFunction"*, double, i32)* @_ZN6dealii16ConstantFunctionILi1EEC2Edj
@_ZN6dealii16ConstantFunctionILi1EED1Ev = weak_odr dso_local unnamed_addr alias void (%"class.dealii::ConstantFunction"*), void (%"class.dealii::ConstantFunction"*)* @_ZN6dealii16ConstantFunctionILi1EED2Ev
@_ZN6dealii23ComponentSelectFunctionILi1EEC1Ejdj = weak_odr dso_local unnamed_addr alias void (%"class.dealii::ComponentSelectFunction"*, i32, double, i32), void (%"class.dealii::ComponentSelectFunction"*, i32, double, i32)* @_ZN6dealii23ComponentSelectFunctionILi1EEC2Ejdj
@_ZN6dealii23ComponentSelectFunctionILi1EEC1Ejj = weak_odr dso_local unnamed_addr alias void (%"class.dealii::ComponentSelectFunction"*, i32, i32), void (%"class.dealii::ComponentSelectFunction"*, i32, i32)* @_ZN6dealii23ComponentSelectFunctionILi1EEC2Ejj
@_ZN6dealii23ComponentSelectFunctionILi1EEC1ERKSt4pairIjjEj = weak_odr dso_local unnamed_addr alias void (%"class.dealii::ComponentSelectFunction"*, %"struct.std::pair"*, i32), void (%"class.dealii::ComponentSelectFunction"*, %"struct.std::pair"*, i32)* @_ZN6dealii23ComponentSelectFunctionILi1EEC2ERKSt4pairIjjEj
@_ZN6dealii8FunctionILi2EEC1Ejd = weak_odr dso_local unnamed_addr alias void (%"class.dealii::Function.23"*, i32, double), void (%"class.dealii::Function.23"*, i32, double)* @_ZN6dealii8FunctionILi2EEC2Ejd
@_ZN6dealii8FunctionILi2EED1Ev = weak_odr dso_local unnamed_addr alias void (%"class.dealii::Function.23"*), void (%"class.dealii::Function.23"*)* @_ZN6dealii8FunctionILi2EED2Ev
@_ZN6dealii8FunctionILi2EE21ExcNumberOfComponentsC1Eii = weak_odr dso_local unnamed_addr alias void (%"class.dealii::Function<2>::ExcNumberOfComponents"*, i32, i32), void (%"class.dealii::Function<2>::ExcNumberOfComponents"*, i32, i32)* @_ZN6dealii8FunctionILi2EE21ExcNumberOfComponentsC2Eii
@_ZN6dealii8FunctionILi2EE21ExcNumberOfComponentsD1Ev = weak_odr dso_local unnamed_addr alias void (%"class.dealii::Function<2>::ExcNumberOfComponents"*), void (%"class.dealii::Function<2>::ExcNumberOfComponents"*)* @_ZN6dealii8FunctionILi2EE21ExcNumberOfComponentsD2Ev
@_ZN6dealii12ZeroFunctionILi2EEC1Ej = weak_odr dso_local unnamed_addr alias void (%"class.dealii::ZeroFunction.42"*, i32), void (%"class.dealii::ZeroFunction.42"*, i32)* @_ZN6dealii12ZeroFunctionILi2EEC2Ej
@_ZN6dealii12ZeroFunctionILi2EED1Ev = weak_odr dso_local unnamed_addr alias void (%"class.dealii::ZeroFunction.42"*), void (%"class.dealii::ZeroFunction.42"*)* @_ZN6dealii12ZeroFunctionILi2EED2Ev
@_ZN6dealii16ConstantFunctionILi2EEC1Edj = weak_odr dso_local unnamed_addr alias void (%"class.dealii::ConstantFunction.44"*, double, i32), void (%"class.dealii::ConstantFunction.44"*, double, i32)* @_ZN6dealii16ConstantFunctionILi2EEC2Edj
@_ZN6dealii16ConstantFunctionILi2EED1Ev = weak_odr dso_local unnamed_addr alias void (%"class.dealii::ConstantFunction.44"*), void (%"class.dealii::ConstantFunction.44"*)* @_ZN6dealii16ConstantFunctionILi2EED2Ev
@_ZN6dealii23ComponentSelectFunctionILi2EEC1Ejdj = weak_odr dso_local unnamed_addr alias void (%"class.dealii::ComponentSelectFunction.45"*, i32, double, i32), void (%"class.dealii::ComponentSelectFunction.45"*, i32, double, i32)* @_ZN6dealii23ComponentSelectFunctionILi2EEC2Ejdj
@_ZN6dealii23ComponentSelectFunctionILi2EEC1Ejj = weak_odr dso_local unnamed_addr alias void (%"class.dealii::ComponentSelectFunction.45"*, i32, i32), void (%"class.dealii::ComponentSelectFunction.45"*, i32, i32)* @_ZN6dealii23ComponentSelectFunctionILi2EEC2Ejj
@_ZN6dealii23ComponentSelectFunctionILi2EEC1ERKSt4pairIjjEj = weak_odr dso_local unnamed_addr alias void (%"class.dealii::ComponentSelectFunction.45"*, %"struct.std::pair"*, i32), void (%"class.dealii::ComponentSelectFunction.45"*, %"struct.std::pair"*, i32)* @_ZN6dealii23ComponentSelectFunctionILi2EEC2ERKSt4pairIjjEj
@_ZN6dealii8FunctionILi3EEC1Ejd = weak_odr dso_local unnamed_addr alias void (%"class.dealii::Function.46"*, i32, double), void (%"class.dealii::Function.46"*, i32, double)* @_ZN6dealii8FunctionILi3EEC2Ejd
@_ZN6dealii8FunctionILi3EED1Ev = weak_odr dso_local unnamed_addr alias void (%"class.dealii::Function.46"*), void (%"class.dealii::Function.46"*)* @_ZN6dealii8FunctionILi3EED2Ev
@_ZN6dealii8FunctionILi3EE21ExcNumberOfComponentsC1Eii = weak_odr dso_local unnamed_addr alias void (%"class.dealii::Function<3>::ExcNumberOfComponents"*, i32, i32), void (%"class.dealii::Function<3>::ExcNumberOfComponents"*, i32, i32)* @_ZN6dealii8FunctionILi3EE21ExcNumberOfComponentsC2Eii
@_ZN6dealii8FunctionILi3EE21ExcNumberOfComponentsD1Ev = weak_odr dso_local unnamed_addr alias void (%"class.dealii::Function<3>::ExcNumberOfComponents"*), void (%"class.dealii::Function<3>::ExcNumberOfComponents"*)* @_ZN6dealii8FunctionILi3EE21ExcNumberOfComponentsD2Ev
@_ZN6dealii12ZeroFunctionILi3EEC1Ej = weak_odr dso_local unnamed_addr alias void (%"class.dealii::ZeroFunction.65"*, i32), void (%"class.dealii::ZeroFunction.65"*, i32)* @_ZN6dealii12ZeroFunctionILi3EEC2Ej
@_ZN6dealii12ZeroFunctionILi3EED1Ev = weak_odr dso_local unnamed_addr alias void (%"class.dealii::ZeroFunction.65"*), void (%"class.dealii::ZeroFunction.65"*)* @_ZN6dealii12ZeroFunctionILi3EED2Ev
@_ZN6dealii16ConstantFunctionILi3EEC1Edj = weak_odr dso_local unnamed_addr alias void (%"class.dealii::ConstantFunction.67"*, double, i32), void (%"class.dealii::ConstantFunction.67"*, double, i32)* @_ZN6dealii16ConstantFunctionILi3EEC2Edj
@_ZN6dealii16ConstantFunctionILi3EED1Ev = weak_odr dso_local unnamed_addr alias void (%"class.dealii::ConstantFunction.67"*), void (%"class.dealii::ConstantFunction.67"*)* @_ZN6dealii16ConstantFunctionILi3EED2Ev
@_ZN6dealii23ComponentSelectFunctionILi3EEC1Ejdj = weak_odr dso_local unnamed_addr alias void (%"class.dealii::ComponentSelectFunction.68"*, i32, double, i32), void (%"class.dealii::ComponentSelectFunction.68"*, i32, double, i32)* @_ZN6dealii23ComponentSelectFunctionILi3EEC2Ejdj
@_ZN6dealii23ComponentSelectFunctionILi3EEC1Ejj = weak_odr dso_local unnamed_addr alias void (%"class.dealii::ComponentSelectFunction.68"*, i32, i32), void (%"class.dealii::ComponentSelectFunction.68"*, i32, i32)* @_ZN6dealii23ComponentSelectFunctionILi3EEC2Ejj
@_ZN6dealii23ComponentSelectFunctionILi3EEC1ERKSt4pairIjjEj = weak_odr dso_local unnamed_addr alias void (%"class.dealii::ComponentSelectFunction.68"*, %"struct.std::pair"*, i32), void (%"class.dealii::ComponentSelectFunction.68"*, %"struct.std::pair"*, i32)* @_ZN6dealii23ComponentSelectFunctionILi3EEC2ERKSt4pairIjjEj

; Function Attrs: noinline uwtable
define weak_odr dso_local void @_ZN6dealii8FunctionILi1EEC2Ejd(%"class.dealii::Function"* %this, i32 %n_components, double %initial_time) unnamed_addr #0 comdat($_ZN6dealii8FunctionILi1EEC5Ejd) align 2 personality i8* bitcast (i32 (...)* @__gxx_personality_v0 to i8*) !dbg !6905 {
entry:
  %this.addr = alloca %"class.dealii::Function"*, align 8
  %n_components.addr = alloca i32, align 4
  %initial_time.addr = alloca double, align 8
  %exn.slot = alloca i8*
  %ehselector.slot = alloca i32
  store %"class.dealii::Function"* %this, %"class.dealii::Function"** %this.addr, align 8
  call void @llvm.dbg.declare(metadata %"class.dealii::Function"** %this.addr, metadata !6906, metadata !DIExpression()), !dbg !6908
  store i32 %n_components, i32* %n_components.addr, align 4
  call void @llvm.dbg.declare(metadata i32* %n_components.addr, metadata !6909, metadata !DIExpression()), !dbg !6910
  store double %initial_time, double* %initial_time.addr, align 8
  call void @llvm.dbg.declare(metadata double* %initial_time.addr, metadata !6911, metadata !DIExpression()), !dbg !6912
  %this1 = load %"class.dealii::Function"*, %"class.dealii::Function"** %this.addr, align 8
  %0 = bitcast %"class.dealii::Function"* %this1 to %"class.dealii::FunctionTime"*, !dbg !6913
  %1 = load double, double* %initial_time.addr, align 8, !dbg !6914
  call void @_ZN6dealii12FunctionTimeC2Ed(%"class.dealii::FunctionTime"* %0, double %1), !dbg !6915
  %2 = bitcast %"class.dealii::Function"* %this1 to i8*, !dbg !6913
  %3 = getelementptr inbounds i8, i8* %2, i64 16, !dbg !6913
  %4 = bitcast i8* %3 to %"class.dealii::Subscriptor"*, !dbg !6913
  invoke void @_ZN6dealii11SubscriptorC2Ev(%"class.dealii::Subscriptor"* %4)
          to label %invoke.cont unwind label %lpad, !dbg !6916

invoke.cont:                                      ; preds = %entry
  %5 = bitcast %"class.dealii::Function"* %this1 to i32 (...)***, !dbg !6913
  store i32 (...)** bitcast (i8** getelementptr inbounds ({ [18 x i8*], [4 x i8*] }, { [18 x i8*], [4 x i8*] }* @_ZTVN6dealii8FunctionILi1EEE, i32 0, inrange i32 0, i32 2) to i32 (...)**), i32 (...)*** %5, align 8, !dbg !6913
  %6 = bitcast %"class.dealii::Function"* %this1 to i8*, !dbg !6913
  %add.ptr = getelementptr inbounds i8, i8* %6, i64 16, !dbg !6913
  %7 = bitcast i8* %add.ptr to i32 (...)***, !dbg !6913
  store i32 (...)** bitcast (i8** getelementptr inbounds ({ [18 x i8*], [4 x i8*] }, { [18 x i8*], [4 x i8*] }* @_ZTVN6dealii8FunctionILi1EEE, i32 0, inrange i32 1, i32 2) to i32 (...)**), i32 (...)*** %7, align 8, !dbg !6913
  %n_components2 = getelementptr inbounds %"class.dealii::Function", %"class.dealii::Function"* %this1, i32 0, i32 2, !dbg !6918
  %8 = load i32, i32* %n_components.addr, align 4, !dbg !6920
  store i32 %8, i32* %n_components2, align 8, !dbg !6918
  ret void, !dbg !6921

lpad:                                             ; preds = %entry
  %9 = landingpad { i8*, i32 }
          cleanup, !dbg !6921
  %10 = extractvalue { i8*, i32 } %9, 0, !dbg !6921
  store i8* %10, i8** %exn.slot, align 8, !dbg !6921
  %11 = extractvalue { i8*, i32 } %9, 1, !dbg !6921
  store i32 %11, i32* %ehselector.slot, align 4, !dbg !6921
  %12 = bitcast %"class.dealii::Function"* %this1 to %"class.dealii::FunctionTime"*, !dbg !6922
  call void @_ZN6dealii12FunctionTimeD2Ev(%"class.dealii::FunctionTime"* %12) #7, !dbg !6922
  br label %eh.resume, !dbg !6922

eh.resume:                                        ; preds = %lpad
  %exn = load i8*, i8** %exn.slot, align 8, !dbg !6922
  %sel = load i32, i32* %ehselector.slot, align 4, !dbg !6922
  %lpad.val = insertvalue { i8*, i32 } undef, i8* %exn, 0, !dbg !6922
  %lpad.val3 = insertvalue { i8*, i32 } %lpad.val, i32 %sel, 1, !dbg !6922
  resume { i8*, i32 } %lpad.val3, !dbg !6922
}

; Function Attrs: nounwind readnone speculatable willreturn
declare void @llvm.dbg.declare(metadata, metadata, metadata) #1

declare dso_local void @_ZN6dealii12FunctionTimeC2Ed(%"class.dealii::FunctionTime"*, double) unnamed_addr #2

declare dso_local void @_ZN6dealii11SubscriptorC2Ev(%"class.dealii::Subscriptor"*) unnamed_addr #2

declare dso_local i32 @__gxx_personality_v0(...)

; Function Attrs: nounwind
declare dso_local void @_ZN6dealii12FunctionTimeD2Ev(%"class.dealii::FunctionTime"*) unnamed_addr #3

; Function Attrs: noinline nounwind uwtable
define weak_odr dso_local void @_ZN6dealii8FunctionILi1EED2Ev(%"class.dealii::Function"* %this) unnamed_addr #4 comdat($_ZN6dealii8FunctionILi1EED5Ev) align 2 !dbg !6924 {
entry:
  %this.addr = alloca %"class.dealii::Function"*, align 8
  store %"class.dealii::Function"* %this, %"class.dealii::Function"** %this.addr, align 8
  call void @llvm.dbg.declare(metadata %"class.dealii::Function"** %this.addr, metadata !6925, metadata !DIExpression()), !dbg !6926
  %this1 = load %"class.dealii::Function"*, %"class.dealii::Function"** %this.addr, align 8
  %0 = bitcast %"class.dealii::Function"* %this1 to i8*, !dbg !6927
  %1 = getelementptr inbounds i8, i8* %0, i64 16, !dbg !6927
  %2 = bitcast i8* %1 to %"class.dealii::Subscriptor"*, !dbg !6927
  call void @_ZN6dealii11SubscriptorD2Ev(%"class.dealii::Subscriptor"* %2) #7, !dbg !6927
  %3 = bitcast %"class.dealii::Function"* %this1 to %"class.dealii::FunctionTime"*, !dbg !6927
  call void @_ZN6dealii12FunctionTimeD2Ev(%"class.dealii::FunctionTime"* %3) #7, !dbg !6927
  ret void, !dbg !6929
}

; Function Attrs: nounwind
declare dso_local void @_ZN6dealii11SubscriptorD2Ev(%"class.dealii::Subscriptor"*) unnamed_addr #3

; Function Attrs: noinline nounwind uwtable
define weak_odr dso_local void @_ZThn16_N6dealii8FunctionILi1EED1Ev(%"class.dealii::Function"* %this) unnamed_addr #4 comdat align 2 !dbg !6930 {
entry:
  %this.addr = alloca %"class.dealii::Function"*, align 8
  store %"class.dealii::Function"* %this, %"class.dealii::Function"** %this.addr, align 8
  %this1 = load %"class.dealii::Function"*, %"class.dealii::Function"** %this.addr, align 8, !dbg !6932
  %0 = bitcast %"class.dealii::Function"* %this1 to i8*, !dbg !6932
  %1 = getelementptr inbounds i8, i8* %0, i64 -16, !dbg !6932
  %2 = bitcast i8* %1 to %"class.dealii::Function"*, !dbg !6932
  tail call void @_ZN6dealii8FunctionILi1EED1Ev(%"class.dealii::Function"* %2) #7, !dbg !6932
  ret void, !dbg !6932
}

; Function Attrs: noinline nounwind uwtable
define weak_odr dso_local void @_ZN6dealii8FunctionILi1EED0Ev(%"class.dealii::Function"* %this) unnamed_addr #4 comdat($_ZN6dealii8FunctionILi1EED5Ev) align 2 !dbg !6933 {
entry:
  %this.addr = alloca %"class.dealii::Function"*, align 8
  store %"class.dealii::Function"* %this, %"class.dealii::Function"** %this.addr, align 8
  call void @llvm.dbg.declare(metadata %"class.dealii::Function"** %this.addr, metadata !6934, metadata !DIExpression()), !dbg !6935
  %this1 = load %"class.dealii::Function"*, %"class.dealii::Function"** %this.addr, align 8
  call void @_ZN6dealii8FunctionILi1EED1Ev(%"class.dealii::Function"* %this1) #7, !dbg !6936
  %0 = bitcast %"class.dealii::Function"* %this1 to i8*, !dbg !6936
  call void @_ZdlPv(i8* %0) #8, !dbg !6936
  ret void, !dbg !6937
}

; Function Attrs: nobuiltin nounwind
declare dso_local void @_ZdlPv(i8*) #5

; Function Attrs: noinline nounwind uwtable
define weak_odr dso_local void @_ZThn16_N6dealii8FunctionILi1EED0Ev(%"class.dealii::Function"* %this) unnamed_addr #4 comdat align 2 !dbg !6938 {
entry:
  %this.addr = alloca %"class.dealii::Function"*, align 8
  store %"class.dealii::Function"* %this, %"class.dealii::Function"** %this.addr, align 8
  %this1 = load %"class.dealii::Function"*, %"class.dealii::Function"** %this.addr, align 8, !dbg !6939
  %0 = bitcast %"class.dealii::Function"* %this1 to i8*, !dbg !6939
  %1 = getelementptr inbounds i8, i8* %0, i64 -16, !dbg !6939
  %2 = bitcast i8* %1 to %"class.dealii::Function"*, !dbg !6939
  tail call void @_ZN6dealii8FunctionILi1EED0Ev(%"class.dealii::Function"* %2) #7, !dbg !6939
  ret void, !dbg !6939
}

; Function Attrs: noinline nounwind uwtable
define weak_odr dso_local dereferenceable(96) %"class.dealii::Function"* @_ZN6dealii8FunctionILi1EEaSERKS1_(%"class.dealii::Function"* %this, %"class.dealii::Function"* dereferenceable(96) %f) #4 comdat align 2 !dbg !6940 {
entry:
  %this.addr = alloca %"class.dealii::Function"*, align 8
  %f.addr = alloca %"class.dealii::Function"*, align 8
  store %"class.dealii::Function"* %this, %"class.dealii::Function"** %this.addr, align 8
  call void @llvm.dbg.declare(metadata %"class.dealii::Function"** %this.addr, metadata !6941, metadata !DIExpression()), !dbg !6942
  store %"class.dealii::Function"* %f, %"class.dealii::Function"** %f.addr, align 8
  call void @llvm.dbg.declare(metadata %"class.dealii::Function"** %f.addr, metadata !6943, metadata !DIExpression()), !dbg !6944
  %this1 = load %"class.dealii::Function"*, %"class.dealii::Function"** %this.addr, align 8
  ret %"class.dealii::Function"* %this1, !dbg !6945
}

; Function Attrs: noinline nounwind uwtable
define weak_odr dso_local double @_ZNK6dealii8FunctionILi1EE5valueERKNS_5PointILi1EEEj(%"class.dealii::Function"* %this, %"class.dealii::Point"* dereferenceable(8) %0, i32 %1) unnamed_addr #4 comdat align 2 !dbg !6946 {
entry:
  %this.addr = alloca %"class.dealii::Function"*, align 8
  %.addr = alloca %"class.dealii::Point"*, align 8
  %.addr1 = alloca i32, align 4
  store %"class.dealii::Function"* %this, %"class.dealii::Function"** %this.addr, align 8
  call void @llvm.dbg.declare(metadata %"class.dealii::Function"** %this.addr, metadata !6947, metadata !DIExpression()), !dbg !6949
  store %"class.dealii::Point"* %0, %"class.dealii::Point"** %.addr, align 8
  call void @llvm.dbg.declare(metadata %"class.dealii::Point"** %.addr, metadata !6950, metadata !DIExpression()), !dbg !6951
  store i32 %1, i32* %.addr1, align 4
  call void @llvm.dbg.declare(metadata i32* %.addr1, metadata !6952, metadata !DIExpression()), !dbg !6953
  %this2 = load %"class.dealii::Function"*, %"class.dealii::Function"** %this.addr, align 8
  ret double 0.000000e+00, !dbg !6954
}

; Function Attrs: noinline nounwind uwtable
define weak_odr dso_local void @_ZNK6dealii8FunctionILi1EE12vector_valueERKNS_5PointILi1EEERNS_6VectorIdEE(%"class.dealii::Function"* %this, %"class.dealii::Point"* dereferenceable(8) %0, %"class.dealii::Vector"* dereferenceable(88) %1) unnamed_addr #4 comdat align 2 !dbg !6955 {
entry:
  %this.addr = alloca %"class.dealii::Function"*, align 8
  %.addr = alloca %"class.dealii::Point"*, align 8
  %.addr1 = alloca %"class.dealii::Vector"*, align 8
  store %"class.dealii::Function"* %this, %"class.dealii::Function"** %this.addr, align 8
  call void @llvm.dbg.declare(metadata %"class.dealii::Function"** %this.addr, metadata !6956, metadata !DIExpression()), !dbg !6957
  store %"class.dealii::Point"* %0, %"class.dealii::Point"** %.addr, align 8
  call void @llvm.dbg.declare(metadata %"class.dealii::Point"** %.addr, metadata !6958, metadata !DIExpression()), !dbg !6959
  store %"class.dealii::Vector"* %1, %"class.dealii::Vector"** %.addr1, align 8
  call void @llvm.dbg.declare(metadata %"class.dealii::Vector"** %.addr1, metadata !6960, metadata !DIExpression()), !dbg !6961
  %this2 = load %"class.dealii::Function"*, %"class.dealii::Function"** %this.addr, align 8
  ret void, !dbg !6962
}

; Function Attrs: noinline uwtable
define weak_odr dso_local void @_ZNK6dealii8FunctionILi1EE10value_listERKSt6vectorINS_5PointILi1EEESaIS4_EERS2_IdSaIdEEj(%"class.dealii::Function"* %this, %"class.std::vector"* dereferenceable(24) %points, %"class.std::vector.3"* dereferenceable(24) %values, i32 %component) unnamed_addr #0 comdat align 2 !dbg !6963 {
entry:
  %this.addr = alloca %"class.dealii::Function"*, align 8
  %points.addr = alloca %"class.std::vector"*, align 8
  %values.addr = alloca %"class.std::vector.3"*, align 8
  %component.addr = alloca i32, align 4
  %i = alloca i32, align 4
  store %"class.dealii::Function"* %this, %"class.dealii::Function"** %this.addr, align 8
  call void @llvm.dbg.declare(metadata %"class.dealii::Function"** %this.addr, metadata !6964, metadata !DIExpression()), !dbg !6965
  store %"class.std::vector"* %points, %"class.std::vector"** %points.addr, align 8
  call void @llvm.dbg.declare(metadata %"class.std::vector"** %points.addr, metadata !6966, metadata !DIExpression()), !dbg !6967
  store %"class.std::vector.3"* %values, %"class.std::vector.3"** %values.addr, align 8
  call void @llvm.dbg.declare(metadata %"class.std::vector.3"** %values.addr, metadata !6968, metadata !DIExpression()), !dbg !6969
  store i32 %component, i32* %component.addr, align 4
  call void @llvm.dbg.declare(metadata i32* %component.addr, metadata !6970, metadata !DIExpression()), !dbg !6971
  %this1 = load %"class.dealii::Function"*, %"class.dealii::Function"** %this.addr, align 8
  call void @llvm.dbg.declare(metadata i32* %i, metadata !6972, metadata !DIExpression()), !dbg !6974
  store i32 0, i32* %i, align 4, !dbg !6974
  br label %for.cond, !dbg !6975

for.cond:                                         ; preds = %for.inc, %entry
  %0 = load i32, i32* %i, align 4, !dbg !6976
  %conv = zext i32 %0 to i64, !dbg !6976
  %1 = load %"class.std::vector"*, %"class.std::vector"** %points.addr, align 8, !dbg !6978
  %call = call i64 @_ZNKSt6vectorIN6dealii5PointILi1EEESaIS2_EE4sizeEv(%"class.std::vector"* %1) #7, !dbg !6979
  %cmp = icmp ult i64 %conv, %call, !dbg !6980
  br i1 %cmp, label %for.body, label %for.end, !dbg !6981

for.body:                                         ; preds = %for.cond
  %2 = load %"class.std::vector"*, %"class.std::vector"** %points.addr, align 8, !dbg !6982
  %3 = load i32, i32* %i, align 4, !dbg !6983
  %conv2 = zext i32 %3 to i64, !dbg !6983
  %call3 = call dereferenceable(8) %"class.dealii::Point"* @_ZNKSt6vectorIN6dealii5PointILi1EEESaIS2_EEixEm(%"class.std::vector"* %2, i64 %conv2) #7, !dbg !6982
  %4 = load i32, i32* %component.addr, align 4, !dbg !6984
  %5 = bitcast %"class.dealii::Function"* %this1 to double (%"class.dealii::Function"*, %"class.dealii::Point"*, i32)***, !dbg !6985
  %vtable = load double (%"class.dealii::Function"*, %"class.dealii::Point"*, i32)**, double (%"class.dealii::Function"*, %"class.dealii::Point"*, i32)*** %5, align 8, !dbg !6985
  %vfn = getelementptr inbounds double (%"class.dealii::Function"*, %"class.dealii::Point"*, i32)*, double (%"class.dealii::Function"*, %"class.dealii::Point"*, i32)** %vtable, i64 4, !dbg !6985
  %6 = load double (%"class.dealii::Function"*, %"class.dealii::Point"*, i32)*, double (%"class.dealii::Function"*, %"class.dealii::Point"*, i32)** %vfn, align 8, !dbg !6985
  %call4 = call double %6(%"class.dealii::Function"* %this1, %"class.dealii::Point"* dereferenceable(8) %call3, i32 %4), !dbg !6985
  %7 = load %"class.std::vector.3"*, %"class.std::vector.3"** %values.addr, align 8, !dbg !6986
  %8 = load i32, i32* %i, align 4, !dbg !6987
  %conv5 = zext i32 %8 to i64, !dbg !6987
  %call6 = call dereferenceable(8) double* @_ZNSt6vectorIdSaIdEEixEm(%"class.std::vector.3"* %7, i64 %conv5) #7, !dbg !6986
  store double %call4, double* %call6, align 8, !dbg !6988
  br label %for.inc, !dbg !6986

for.inc:                                          ; preds = %for.body
  %9 = load i32, i32* %i, align 4, !dbg !6989
  %inc = add i32 %9, 1, !dbg !6989
  store i32 %inc, i32* %i, align 4, !dbg !6989
  br label %for.cond, !dbg !6990, !llvm.loop !6991

for.end:                                          ; preds = %for.cond
  ret void, !dbg !6993
}

; Function Attrs: noinline nounwind uwtable
define linkonce_odr dso_local i64 @_ZNKSt6vectorIN6dealii5PointILi1EEESaIS2_EE4sizeEv(%"class.std::vector"* %this) #4 comdat align 2 !dbg !6994 {
entry:
  %this.addr = alloca %"class.std::vector"*, align 8
  store %"class.std::vector"* %this, %"class.std::vector"** %this.addr, align 8
  call void @llvm.dbg.declare(metadata %"class.std::vector"** %this.addr, metadata !6995, metadata !DIExpression()), !dbg !6997
  %this1 = load %"class.std::vector"*, %"class.std::vector"** %this.addr, align 8
  %0 = bitcast %"class.std::vector"* %this1 to %"struct.std::_Vector_base"*, !dbg !6998
  %_M_impl = getelementptr inbounds %"struct.std::_Vector_base", %"struct.std::_Vector_base"* %0, i32 0, i32 0, !dbg !6998
  %1 = bitcast %"struct.std::_Vector_base<dealii::Point<1>, std::allocator<dealii::Point<1> > >::_Vector_impl"* %_M_impl to %"struct.std::_Vector_base<dealii::Point<1>, std::allocator<dealii::Point<1> > >::_Vector_impl_data"*, !dbg !6999
  %_M_finish = getelementptr inbounds %"struct.std::_Vector_base<dealii::Point<1>, std::allocator<dealii::Point<1> > >::_Vector_impl_data", %"struct.std::_Vector_base<dealii::Point<1>, std::allocator<dealii::Point<1> > >::_Vector_impl_data"* %1, i32 0, i32 1, !dbg !7000
  %2 = load %"class.dealii::Point"*, %"class.dealii::Point"** %_M_finish, align 8, !dbg !7000
  %3 = bitcast %"class.std::vector"* %this1 to %"struct.std::_Vector_base"*, !dbg !7001
  %_M_impl2 = getelementptr inbounds %"struct.std::_Vector_base", %"struct.std::_Vector_base"* %3, i32 0, i32 0, !dbg !7001
  %4 = bitcast %"struct.std::_Vector_base<dealii::Point<1>, std::allocator<dealii::Point<1> > >::_Vector_impl"* %_M_impl2 to %"struct.std::_Vector_base<dealii::Point<1>, std::allocator<dealii::Point<1> > >::_Vector_impl_data"*, !dbg !7002
  %_M_start = getelementptr inbounds %"struct.std::_Vector_base<dealii::Point<1>, std::allocator<dealii::Point<1> > >::_Vector_impl_data", %"struct.std::_Vector_base<dealii::Point<1>, std::allocator<dealii::Point<1> > >::_Vector_impl_data"* %4, i32 0, i32 0, !dbg !7003
  %5 = load %"class.dealii::Point"*, %"class.dealii::Point"** %_M_start, align 8, !dbg !7003
  %sub.ptr.lhs.cast = ptrtoint %"class.dealii::Point"* %2 to i64, !dbg !7004
  %sub.ptr.rhs.cast = ptrtoint %"class.dealii::Point"* %5 to i64, !dbg !7004
  %sub.ptr.sub = sub i64 %sub.ptr.lhs.cast, %sub.ptr.rhs.cast, !dbg !7004
  %sub.ptr.div = sdiv exact i64 %sub.ptr.sub, 8, !dbg !7004
  ret i64 %sub.ptr.div, !dbg !7005
}

; Function Attrs: noinline nounwind uwtable
define linkonce_odr dso_local dereferenceable(8) %"class.dealii::Point"* @_ZNKSt6vectorIN6dealii5PointILi1EEESaIS2_EEixEm(%"class.std::vector"* %this, i64 %__n) #4 comdat align 2 !dbg !7006 {
entry:
  %this.addr = alloca %"class.std::vector"*, align 8
  %__n.addr = alloca i64, align 8
  store %"class.std::vector"* %this, %"class.std::vector"** %this.addr, align 8
  call void @llvm.dbg.declare(metadata %"class.std::vector"** %this.addr, metadata !7007, metadata !DIExpression()), !dbg !7008
  store i64 %__n, i64* %__n.addr, align 8
  call void @llvm.dbg.declare(metadata i64* %__n.addr, metadata !7009, metadata !DIExpression()), !dbg !7010
  %this1 = load %"class.std::vector"*, %"class.std::vector"** %this.addr, align 8
  %0 = bitcast %"class.std::vector"* %this1 to %"struct.std::_Vector_base"*, !dbg !7011
  %_M_impl = getelementptr inbounds %"struct.std::_Vector_base", %"struct.std::_Vector_base"* %0, i32 0, i32 0, !dbg !7011
  %1 = bitcast %"struct.std::_Vector_base<dealii::Point<1>, std::allocator<dealii::Point<1> > >::_Vector_impl"* %_M_impl to %"struct.std::_Vector_base<dealii::Point<1>, std::allocator<dealii::Point<1> > >::_Vector_impl_data"*, !dbg !7012
  %_M_start = getelementptr inbounds %"struct.std::_Vector_base<dealii::Point<1>, std::allocator<dealii::Point<1> > >::_Vector_impl_data", %"struct.std::_Vector_base<dealii::Point<1>, std::allocator<dealii::Point<1> > >::_Vector_impl_data"* %1, i32 0, i32 0, !dbg !7013
  %2 = load %"class.dealii::Point"*, %"class.dealii::Point"** %_M_start, align 8, !dbg !7013
  %3 = load i64, i64* %__n.addr, align 8, !dbg !7014
  %add.ptr = getelementptr inbounds %"class.dealii::Point", %"class.dealii::Point"* %2, i64 %3, !dbg !7015
  ret %"class.dealii::Point"* %add.ptr, !dbg !7016
}

; Function Attrs: noinline nounwind uwtable
define linkonce_odr dso_local dereferenceable(8) double* @_ZNSt6vectorIdSaIdEEixEm(%"class.std::vector.3"* %this, i64 %__n) #4 comdat align 2 !dbg !7017 {
entry:
  %this.addr = alloca %"class.std::vector.3"*, align 8
  %__n.addr = alloca i64, align 8
  store %"class.std::vector.3"* %this, %"class.std::vector.3"** %this.addr, align 8
  call void @llvm.dbg.declare(metadata %"class.std::vector.3"** %this.addr, metadata !7018, metadata !DIExpression()), !dbg !7020
  store i64 %__n, i64* %__n.addr, align 8
  call void @llvm.dbg.declare(metadata i64* %__n.addr, metadata !7021, metadata !DIExpression()), !dbg !7022
  %this1 = load %"class.std::vector.3"*, %"class.std::vector.3"** %this.addr, align 8
  %0 = bitcast %"class.std::vector.3"* %this1 to %"struct.std::_Vector_base.4"*, !dbg !7023
  %_M_impl = getelementptr inbounds %"struct.std::_Vector_base.4", %"struct.std::_Vector_base.4"* %0, i32 0, i32 0, !dbg !7023
  %1 = bitcast %"struct.std::_Vector_base<double, std::allocator<double> >::_Vector_impl"* %_M_impl to %"struct.std::_Vector_base<double, std::allocator<double> >::_Vector_impl_data"*, !dbg !7024
  %_M_start = getelementptr inbounds %"struct.std::_Vector_base<double, std::allocator<double> >::_Vector_impl_data", %"struct.std::_Vector_base<double, std::allocator<double> >::_Vector_impl_data"* %1, i32 0, i32 0, !dbg !7025
  %2 = load double*, double** %_M_start, align 8, !dbg !7025
  %3 = load i64, i64* %__n.addr, align 8, !dbg !7026
  %add.ptr = getelementptr inbounds double, double* %2, i64 %3, !dbg !7027
  ret double* %add.ptr, !dbg !7028
}

; Function Attrs: noinline uwtable
define weak_odr dso_local void @_ZNK6dealii8FunctionILi1EE17vector_value_listERKSt6vectorINS_5PointILi1EEESaIS4_EERS2_INS_6VectorIdEESaISA_EE(%"class.dealii::Function"* %this, %"class.std::vector"* dereferenceable(24) %points, %"class.std::vector.8"* dereferenceable(24) %values) unnamed_addr #0 comdat align 2 !dbg !7029 {
entry:
  %this.addr = alloca %"class.dealii::Function"*, align 8
  %points.addr = alloca %"class.std::vector"*, align 8
  %values.addr = alloca %"class.std::vector.8"*, align 8
  %i = alloca i32, align 4
  store %"class.dealii::Function"* %this, %"class.dealii::Function"** %this.addr, align 8
  call void @llvm.dbg.declare(metadata %"class.dealii::Function"** %this.addr, metadata !7030, metadata !DIExpression()), !dbg !7031
  store %"class.std::vector"* %points, %"class.std::vector"** %points.addr, align 8
  call void @llvm.dbg.declare(metadata %"class.std::vector"** %points.addr, metadata !7032, metadata !DIExpression()), !dbg !7033
  store %"class.std::vector.8"* %values, %"class.std::vector.8"** %values.addr, align 8
  call void @llvm.dbg.declare(metadata %"class.std::vector.8"** %values.addr, metadata !7034, metadata !DIExpression()), !dbg !7035
  %this1 = load %"class.dealii::Function"*, %"class.dealii::Function"** %this.addr, align 8
  call void @llvm.dbg.declare(metadata i32* %i, metadata !7036, metadata !DIExpression()), !dbg !7038
  store i32 0, i32* %i, align 4, !dbg !7038
  br label %for.cond, !dbg !7039

for.cond:                                         ; preds = %for.inc, %entry
  %0 = load i32, i32* %i, align 4, !dbg !7040
  %conv = zext i32 %0 to i64, !dbg !7040
  %1 = load %"class.std::vector"*, %"class.std::vector"** %points.addr, align 8, !dbg !7042
  %call = call i64 @_ZNKSt6vectorIN6dealii5PointILi1EEESaIS2_EE4sizeEv(%"class.std::vector"* %1) #7, !dbg !7043
  %cmp = icmp ult i64 %conv, %call, !dbg !7044
  br i1 %cmp, label %for.body, label %for.end, !dbg !7045

for.body:                                         ; preds = %for.cond
  %2 = load %"class.std::vector"*, %"class.std::vector"** %points.addr, align 8, !dbg !7046
  %3 = load i32, i32* %i, align 4, !dbg !7047
  %conv2 = zext i32 %3 to i64, !dbg !7047
  %call3 = call dereferenceable(8) %"class.dealii::Point"* @_ZNKSt6vectorIN6dealii5PointILi1EEESaIS2_EEixEm(%"class.std::vector"* %2, i64 %conv2) #7, !dbg !7046
  %4 = load %"class.std::vector.8"*, %"class.std::vector.8"** %values.addr, align 8, !dbg !7048
  %5 = load i32, i32* %i, align 4, !dbg !7049
  %conv4 = zext i32 %5 to i64, !dbg !7049
  %call5 = call dereferenceable(88) %"class.dealii::Vector"* @_ZNSt6vectorIN6dealii6VectorIdEESaIS2_EEixEm(%"class.std::vector.8"* %4, i64 %conv4) #7, !dbg !7048
  %6 = bitcast %"class.dealii::Function"* %this1 to void (%"class.dealii::Function"*, %"class.dealii::Point"*, %"class.dealii::Vector"*)***, !dbg !7050
  %vtable = load void (%"class.dealii::Function"*, %"class.dealii::Point"*, %"class.dealii::Vector"*)**, void (%"class.dealii::Function"*, %"class.dealii::Point"*, %"class.dealii::Vector"*)*** %6, align 8, !dbg !7050
  %vfn = getelementptr inbounds void (%"class.dealii::Function"*, %"class.dealii::Point"*, %"class.dealii::Vector"*)*, void (%"class.dealii::Function"*, %"class.dealii::Point"*, %"class.dealii::Vector"*)** %vtable, i64 5, !dbg !7050
  %7 = load void (%"class.dealii::Function"*, %"class.dealii::Point"*, %"class.dealii::Vector"*)*, void (%"class.dealii::Function"*, %"class.dealii::Point"*, %"class.dealii::Vector"*)** %vfn, align 8, !dbg !7050
  call void %7(%"class.dealii::Function"* %this1, %"class.dealii::Point"* dereferenceable(8) %call3, %"class.dealii::Vector"* dereferenceable(88) %call5), !dbg !7050
  br label %for.inc, !dbg !7051

for.inc:                                          ; preds = %for.body
  %8 = load i32, i32* %i, align 4, !dbg !7052
  %inc = add i32 %8, 1, !dbg !7052
  store i32 %inc, i32* %i, align 4, !dbg !7052
  br label %for.cond, !dbg !7053, !llvm.loop !7054

for.end:                                          ; preds = %for.cond
  ret void, !dbg !7056
}

; Function Attrs: noinline nounwind uwtable
define linkonce_odr dso_local dereferenceable(88) %"class.dealii::Vector"* @_ZNSt6vectorIN6dealii6VectorIdEESaIS2_EEixEm(%"class.std::vector.8"* %this, i64 %__n) #4 comdat align 2 !dbg !7057 {
entry:
  %this.addr = alloca %"class.std::vector.8"*, align 8
  %__n.addr = alloca i64, align 8
  store %"class.std::vector.8"* %this, %"class.std::vector.8"** %this.addr, align 8
  call void @llvm.dbg.declare(metadata %"class.std::vector.8"** %this.addr, metadata !7058, metadata !DIExpression()), !dbg !7060
  store i64 %__n, i64* %__n.addr, align 8
  call void @llvm.dbg.declare(metadata i64* %__n.addr, metadata !7061, metadata !DIExpression()), !dbg !7062
  %this1 = load %"class.std::vector.8"*, %"class.std::vector.8"** %this.addr, align 8
  %0 = bitcast %"class.std::vector.8"* %this1 to %"struct.std::_Vector_base.9"*, !dbg !7063
  %_M_impl = getelementptr inbounds %"struct.std::_Vector_base.9", %"struct.std::_Vector_base.9"* %0, i32 0, i32 0, !dbg !7063
  %1 = bitcast %"struct.std::_Vector_base<dealii::Vector<double>, std::allocator<dealii::Vector<double> > >::_Vector_impl"* %_M_impl to %"struct.std::_Vector_base<dealii::Vector<double>, std::allocator<dealii::Vector<double> > >::_Vector_impl_data"*, !dbg !7064
  %_M_start = getelementptr inbounds %"struct.std::_Vector_base<dealii::Vector<double>, std::allocator<dealii::Vector<double> > >::_Vector_impl_data", %"struct.std::_Vector_base<dealii::Vector<double>, std::allocator<dealii::Vector<double> > >::_Vector_impl_data"* %1, i32 0, i32 0, !dbg !7065
  %2 = load %"class.dealii::Vector"*, %"class.dealii::Vector"** %_M_start, align 8, !dbg !7065
  %3 = load i64, i64* %__n.addr, align 8, !dbg !7066
  %add.ptr = getelementptr inbounds %"class.dealii::Vector", %"class.dealii::Vector"* %2, i64 %3, !dbg !7067
  ret %"class.dealii::Vector"* %add.ptr, !dbg !7068
}

; Function Attrs: noinline uwtable
define weak_odr dso_local void @_ZNK6dealii8FunctionILi1EE8gradientERKNS_5PointILi1EEEj(%"class.dealii::Tensor"* noalias sret %agg.result, %"class.dealii::Function"* %this, %"class.dealii::Point"* dereferenceable(8) %0, i32 %1) unnamed_addr #0 comdat align 2 !dbg !7069 {
entry:
  %result.ptr = alloca i8*, align 8
  %this.addr = alloca %"class.dealii::Function"*, align 8
  %.addr = alloca %"class.dealii::Point"*, align 8
  %.addr1 = alloca i32, align 4
  %ref.tmp = alloca %"class.dealii::Point", align 8
  %2 = bitcast %"class.dealii::Tensor"* %agg.result to i8*
  store i8* %2, i8** %result.ptr, align 8
  store %"class.dealii::Function"* %this, %"class.dealii::Function"** %this.addr, align 8
  call void @llvm.dbg.declare(metadata %"class.dealii::Function"** %this.addr, metadata !7070, metadata !DIExpression()), !dbg !7071
  store %"class.dealii::Point"* %0, %"class.dealii::Point"** %.addr, align 8
  call void @llvm.dbg.declare(metadata %"class.dealii::Point"** %.addr, metadata !7072, metadata !DIExpression()), !dbg !7073
  store i32 %1, i32* %.addr1, align 4
  call void @llvm.dbg.declare(metadata i32* %.addr1, metadata !7074, metadata !DIExpression()), !dbg !7075
  %this2 = load %"class.dealii::Function"*, %"class.dealii::Function"** %this.addr, align 8
  call void @_ZN6dealii5PointILi1EEC2Ev(%"class.dealii::Point"* %ref.tmp), !dbg !7076
  %3 = bitcast %"class.dealii::Point"* %ref.tmp to %"class.dealii::Tensor"*, !dbg !7076
  call void @_ZN6dealii6TensorILi1ELi1EEC2ERKS1_(%"class.dealii::Tensor"* %agg.result, %"class.dealii::Tensor"* dereferenceable(8) %3), !dbg !7076
  ret void, !dbg !7077
}

; Function Attrs: noinline uwtable
define linkonce_odr dso_local void @_ZN6dealii5PointILi1EEC2Ev(%"class.dealii::Point"* %this) unnamed_addr #0 comdat align 2 !dbg !7078 {
entry:
  %this.addr = alloca %"class.dealii::Point"*, align 8
  store %"class.dealii::Point"* %this, %"class.dealii::Point"** %this.addr, align 8
  call void @llvm.dbg.declare(metadata %"class.dealii::Point"** %this.addr, metadata !7079, metadata !DIExpression()), !dbg !7080
  %this1 = load %"class.dealii::Point"*, %"class.dealii::Point"** %this.addr, align 8
  %0 = bitcast %"class.dealii::Point"* %this1 to %"class.dealii::Tensor"*, !dbg !7081
  call void @_ZN6dealii6TensorILi1ELi1EEC2Eb(%"class.dealii::Tensor"* %0, i1 zeroext true), !dbg !7082
  ret void, !dbg !7083
}

; Function Attrs: noinline nounwind uwtable
define linkonce_odr dso_local void @_ZN6dealii6TensorILi1ELi1EEC2ERKS1_(%"class.dealii::Tensor"* %this, %"class.dealii::Tensor"* dereferenceable(8) %p) unnamed_addr #4 comdat align 2 !dbg !7084 {
entry:
  %this.addr = alloca %"class.dealii::Tensor"*, align 8
  %p.addr = alloca %"class.dealii::Tensor"*, align 8
  %i = alloca i32, align 4
  store %"class.dealii::Tensor"* %this, %"class.dealii::Tensor"** %this.addr, align 8
  call void @llvm.dbg.declare(metadata %"class.dealii::Tensor"** %this.addr, metadata !7085, metadata !DIExpression()), !dbg !7086
  store %"class.dealii::Tensor"* %p, %"class.dealii::Tensor"** %p.addr, align 8
  call void @llvm.dbg.declare(metadata %"class.dealii::Tensor"** %p.addr, metadata !7087, metadata !DIExpression()), !dbg !7088
  %this1 = load %"class.dealii::Tensor"*, %"class.dealii::Tensor"** %this.addr, align 8
  call void @llvm.dbg.declare(metadata i32* %i, metadata !7089, metadata !DIExpression()), !dbg !7092
  store i32 0, i32* %i, align 4, !dbg !7092
  br label %for.cond, !dbg !7093

for.cond:                                         ; preds = %for.inc, %entry
  %0 = load i32, i32* %i, align 4, !dbg !7094
  %cmp = icmp ult i32 %0, 1, !dbg !7096
  br i1 %cmp, label %for.body, label %for.end, !dbg !7097

for.body:                                         ; preds = %for.cond
  %1 = load %"class.dealii::Tensor"*, %"class.dealii::Tensor"** %p.addr, align 8, !dbg !7098
  %values = getelementptr inbounds %"class.dealii::Tensor", %"class.dealii::Tensor"* %1, i32 0, i32 0, !dbg !7099
  %2 = load i32, i32* %i, align 4, !dbg !7100
  %idxprom = zext i32 %2 to i64, !dbg !7098
  %arrayidx = getelementptr inbounds [1 x double], [1 x double]* %values, i64 0, i64 %idxprom, !dbg !7098
  %3 = load double, double* %arrayidx, align 8, !dbg !7098
  %values2 = getelementptr inbounds %"class.dealii::Tensor", %"class.dealii::Tensor"* %this1, i32 0, i32 0, !dbg !7101
  %4 = load i32, i32* %i, align 4, !dbg !7102
  %idxprom3 = zext i32 %4 to i64, !dbg !7101
  %arrayidx4 = getelementptr inbounds [1 x double], [1 x double]* %values2, i64 0, i64 %idxprom3, !dbg !7101
  store double %3, double* %arrayidx4, align 8, !dbg !7103
  br label %for.inc, !dbg !7101

for.inc:                                          ; preds = %for.body
  %5 = load i32, i32* %i, align 4, !dbg !7104
  %inc = add i32 %5, 1, !dbg !7104
  store i32 %inc, i32* %i, align 4, !dbg !7104
  br label %for.cond, !dbg !7105, !llvm.loop !7106

for.end:                                          ; preds = %for.cond
  ret void, !dbg !7108
}

; Function Attrs: noinline nounwind uwtable
define weak_odr dso_local void @_ZNK6dealii8FunctionILi1EE15vector_gradientERKNS_5PointILi1EEERSt6vectorINS_6TensorILi1ELi1EEESaIS8_EE(%"class.dealii::Function"* %this, %"class.dealii::Point"* dereferenceable(8) %0, %"class.std::vector.13"* nonnull %1) unnamed_addr #4 comdat align 2 !dbg !7109 {
entry:
  %this.addr = alloca %"class.dealii::Function"*, align 8
  %.addr = alloca %"class.dealii::Point"*, align 8
  %.addr1 = alloca %"class.std::vector.13"*, align 8
  store %"class.dealii::Function"* %this, %"class.dealii::Function"** %this.addr, align 8
  call void @llvm.dbg.declare(metadata %"class.dealii::Function"** %this.addr, metadata !7110, metadata !DIExpression()), !dbg !7111
  store %"class.dealii::Point"* %0, %"class.dealii::Point"** %.addr, align 8
  call void @llvm.dbg.declare(metadata %"class.dealii::Point"** %.addr, metadata !7112, metadata !DIExpression()), !dbg !7113
  store %"class.std::vector.13"* %1, %"class.std::vector.13"** %.addr1, align 8
  call void @llvm.dbg.declare(metadata %"class.std::vector.13"** %.addr1, metadata !7114, metadata !DIExpression()), !dbg !7115
  %this2 = load %"class.dealii::Function"*, %"class.dealii::Function"** %this.addr, align 8
  ret void, !dbg !7116
}

; Function Attrs: noinline uwtable
define weak_odr dso_local void @_ZNK6dealii8FunctionILi1EE13gradient_listERKSt6vectorINS_5PointILi1EEESaIS4_EERS2_INS_6TensorILi1ELi1EEESaISA_EEj(%"class.dealii::Function"* %this, %"class.std::vector"* dereferenceable(24) %points, %"class.std::vector.13"* dereferenceable(24) %gradients, i32 %component) unnamed_addr #0 comdat align 2 !dbg !7117 {
entry:
  %this.addr = alloca %"class.dealii::Function"*, align 8
  %points.addr = alloca %"class.std::vector"*, align 8
  %gradients.addr = alloca %"class.std::vector.13"*, align 8
  %component.addr = alloca i32, align 4
  %i = alloca i32, align 4
  %ref.tmp = alloca %"class.dealii::Tensor", align 8
  store %"class.dealii::Function"* %this, %"class.dealii::Function"** %this.addr, align 8
  call void @llvm.dbg.declare(metadata %"class.dealii::Function"** %this.addr, metadata !7118, metadata !DIExpression()), !dbg !7119
  store %"class.std::vector"* %points, %"class.std::vector"** %points.addr, align 8
  call void @llvm.dbg.declare(metadata %"class.std::vector"** %points.addr, metadata !7120, metadata !DIExpression()), !dbg !7121
  store %"class.std::vector.13"* %gradients, %"class.std::vector.13"** %gradients.addr, align 8
  call void @llvm.dbg.declare(metadata %"class.std::vector.13"** %gradients.addr, metadata !7122, metadata !DIExpression()), !dbg !7123
  store i32 %component, i32* %component.addr, align 4
  call void @llvm.dbg.declare(metadata i32* %component.addr, metadata !7124, metadata !DIExpression()), !dbg !7125
  %this1 = load %"class.dealii::Function"*, %"class.dealii::Function"** %this.addr, align 8
  call void @llvm.dbg.declare(metadata i32* %i, metadata !7126, metadata !DIExpression()), !dbg !7128
  store i32 0, i32* %i, align 4, !dbg !7128
  br label %for.cond, !dbg !7129

for.cond:                                         ; preds = %for.inc, %entry
  %0 = load i32, i32* %i, align 4, !dbg !7130
  %conv = zext i32 %0 to i64, !dbg !7130
  %1 = load %"class.std::vector"*, %"class.std::vector"** %points.addr, align 8, !dbg !7132
  %call = call i64 @_ZNKSt6vectorIN6dealii5PointILi1EEESaIS2_EE4sizeEv(%"class.std::vector"* %1) #7, !dbg !7133
  %cmp = icmp ult i64 %conv, %call, !dbg !7134
  br i1 %cmp, label %for.body, label %for.end, !dbg !7135

for.body:                                         ; preds = %for.cond
  %2 = load %"class.std::vector"*, %"class.std::vector"** %points.addr, align 8, !dbg !7136
  %3 = load i32, i32* %i, align 4, !dbg !7137
  %conv2 = zext i32 %3 to i64, !dbg !7137
  %call3 = call dereferenceable(8) %"class.dealii::Point"* @_ZNKSt6vectorIN6dealii5PointILi1EEESaIS2_EEixEm(%"class.std::vector"* %2, i64 %conv2) #7, !dbg !7136
  %4 = load i32, i32* %component.addr, align 4, !dbg !7138
  %5 = bitcast %"class.dealii::Function"* %this1 to void (%"class.dealii::Tensor"*, %"class.dealii::Function"*, %"class.dealii::Point"*, i32)***, !dbg !7139
  %vtable = load void (%"class.dealii::Tensor"*, %"class.dealii::Function"*, %"class.dealii::Point"*, i32)**, void (%"class.dealii::Tensor"*, %"class.dealii::Function"*, %"class.dealii::Point"*, i32)*** %5, align 8, !dbg !7139
  %vfn = getelementptr inbounds void (%"class.dealii::Tensor"*, %"class.dealii::Function"*, %"class.dealii::Point"*, i32)*, void (%"class.dealii::Tensor"*, %"class.dealii::Function"*, %"class.dealii::Point"*, i32)** %vtable, i64 8, !dbg !7139
  %6 = load void (%"class.dealii::Tensor"*, %"class.dealii::Function"*, %"class.dealii::Point"*, i32)*, void (%"class.dealii::Tensor"*, %"class.dealii::Function"*, %"class.dealii::Point"*, i32)** %vfn, align 8, !dbg !7139
  call void %6(%"class.dealii::Tensor"* sret %ref.tmp, %"class.dealii::Function"* %this1, %"class.dealii::Point"* dereferenceable(8) %call3, i32 %4), !dbg !7139
  %7 = load %"class.std::vector.13"*, %"class.std::vector.13"** %gradients.addr, align 8, !dbg !7140
  %8 = load i32, i32* %i, align 4, !dbg !7141
  %conv4 = zext i32 %8 to i64, !dbg !7141
  %call5 = call dereferenceable(8) %"class.dealii::Tensor"* @_ZNSt6vectorIN6dealii6TensorILi1ELi1EEESaIS2_EEixEm(%"class.std::vector.13"* %7, i64 %conv4) #7, !dbg !7140
  %call6 = call dereferenceable(8) %"class.dealii::Tensor"* @_ZN6dealii6TensorILi1ELi1EEaSERKS1_(%"class.dealii::Tensor"* %call5, %"class.dealii::Tensor"* dereferenceable(8) %ref.tmp), !dbg !7142
  br label %for.inc, !dbg !7140

for.inc:                                          ; preds = %for.body
  %9 = load i32, i32* %i, align 4, !dbg !7143
  %inc = add i32 %9, 1, !dbg !7143
  store i32 %inc, i32* %i, align 4, !dbg !7143
  br label %for.cond, !dbg !7144, !llvm.loop !7145

for.end:                                          ; preds = %for.cond
  ret void, !dbg !7147
}

; Function Attrs: noinline nounwind uwtable
define linkonce_odr dso_local dereferenceable(8) %"class.dealii::Tensor"* @_ZNSt6vectorIN6dealii6TensorILi1ELi1EEESaIS2_EEixEm(%"class.std::vector.13"* %this, i64 %__n) #4 comdat align 2 !dbg !7148 {
entry:
  %this.addr = alloca %"class.std::vector.13"*, align 8
  %__n.addr = alloca i64, align 8
  store %"class.std::vector.13"* %this, %"class.std::vector.13"** %this.addr, align 8
  call void @llvm.dbg.declare(metadata %"class.std::vector.13"** %this.addr, metadata !7149, metadata !DIExpression()), !dbg !7150
  store i64 %__n, i64* %__n.addr, align 8
  call void @llvm.dbg.declare(metadata i64* %__n.addr, metadata !7151, metadata !DIExpression()), !dbg !7152
  %this1 = load %"class.std::vector.13"*, %"class.std::vector.13"** %this.addr, align 8
  %0 = bitcast %"class.std::vector.13"* %this1 to %"struct.std::_Vector_base.14"*, !dbg !7153
  %_M_impl = getelementptr inbounds %"struct.std::_Vector_base.14", %"struct.std::_Vector_base.14"* %0, i32 0, i32 0, !dbg !7153
  %1 = bitcast %"struct.std::_Vector_base<dealii::Tensor<1, 1>, std::allocator<dealii::Tensor<1, 1> > >::_Vector_impl"* %_M_impl to %"struct.std::_Vector_base<dealii::Tensor<1, 1>, std::allocator<dealii::Tensor<1, 1> > >::_Vector_impl_data"*, !dbg !7154
  %_M_start = getelementptr inbounds %"struct.std::_Vector_base<dealii::Tensor<1, 1>, std::allocator<dealii::Tensor<1, 1> > >::_Vector_impl_data", %"struct.std::_Vector_base<dealii::Tensor<1, 1>, std::allocator<dealii::Tensor<1, 1> > >::_Vector_impl_data"* %1, i32 0, i32 0, !dbg !7155
  %2 = load %"class.dealii::Tensor"*, %"class.dealii::Tensor"** %_M_start, align 8, !dbg !7155
  %3 = load i64, i64* %__n.addr, align 8, !dbg !7156
  %add.ptr = getelementptr inbounds %"class.dealii::Tensor", %"class.dealii::Tensor"* %2, i64 %3, !dbg !7157
  ret %"class.dealii::Tensor"* %add.ptr, !dbg !7158
}

; Function Attrs: noinline nounwind uwtable
define linkonce_odr dso_local dereferenceable(8) %"class.dealii::Tensor"* @_ZN6dealii6TensorILi1ELi1EEaSERKS1_(%"class.dealii::Tensor"* %this, %"class.dealii::Tensor"* dereferenceable(8) %p) #4 comdat align 2 !dbg !7159 {
entry:
  %this.addr = alloca %"class.dealii::Tensor"*, align 8
  %p.addr = alloca %"class.dealii::Tensor"*, align 8
  store %"class.dealii::Tensor"* %this, %"class.dealii::Tensor"** %this.addr, align 8
  call void @llvm.dbg.declare(metadata %"class.dealii::Tensor"** %this.addr, metadata !7160, metadata !DIExpression()), !dbg !7161
  store %"class.dealii::Tensor"* %p, %"class.dealii::Tensor"** %p.addr, align 8
  call void @llvm.dbg.declare(metadata %"class.dealii::Tensor"** %p.addr, metadata !7162, metadata !DIExpression()), !dbg !7163
  %this1 = load %"class.dealii::Tensor"*, %"class.dealii::Tensor"** %this.addr, align 8
  %0 = load %"class.dealii::Tensor"*, %"class.dealii::Tensor"** %p.addr, align 8, !dbg !7164
  %values = getelementptr inbounds %"class.dealii::Tensor", %"class.dealii::Tensor"* %0, i32 0, i32 0, !dbg !7165
  %arrayidx = getelementptr inbounds [1 x double], [1 x double]* %values, i64 0, i64 0, !dbg !7164
  %1 = load double, double* %arrayidx, align 8, !dbg !7164
  %values2 = getelementptr inbounds %"class.dealii::Tensor", %"class.dealii::Tensor"* %this1, i32 0, i32 0, !dbg !7166
  %arrayidx3 = getelementptr inbounds [1 x double], [1 x double]* %values2, i64 0, i64 0, !dbg !7166
  store double %1, double* %arrayidx3, align 8, !dbg !7167
  ret %"class.dealii::Tensor"* %this1, !dbg !7168
}

; Function Attrs: noinline uwtable
define weak_odr dso_local void @_ZNK6dealii8FunctionILi1EE20vector_gradient_listERKSt6vectorINS_5PointILi1EEESaIS4_EERS2_IS2_INS_6TensorILi1ELi1EEESaISA_EESaISC_EE(%"class.dealii::Function"* %this, %"class.std::vector"* dereferenceable(24) %points, %"class.std::vector.18"* dereferenceable(24) %gradients) unnamed_addr #0 comdat align 2 !dbg !7169 {
entry:
  %this.addr = alloca %"class.dealii::Function"*, align 8
  %points.addr = alloca %"class.std::vector"*, align 8
  %gradients.addr = alloca %"class.std::vector.18"*, align 8
  %i = alloca i32, align 4
  %component = alloca i32, align 4
  %ref.tmp = alloca %"class.dealii::Tensor", align 8
  store %"class.dealii::Function"* %this, %"class.dealii::Function"** %this.addr, align 8
  call void @llvm.dbg.declare(metadata %"class.dealii::Function"** %this.addr, metadata !7170, metadata !DIExpression()), !dbg !7171
  store %"class.std::vector"* %points, %"class.std::vector"** %points.addr, align 8
  call void @llvm.dbg.declare(metadata %"class.std::vector"** %points.addr, metadata !7172, metadata !DIExpression()), !dbg !7173
  store %"class.std::vector.18"* %gradients, %"class.std::vector.18"** %gradients.addr, align 8
  call void @llvm.dbg.declare(metadata %"class.std::vector.18"** %gradients.addr, metadata !7174, metadata !DIExpression()), !dbg !7175
  %this1 = load %"class.dealii::Function"*, %"class.dealii::Function"** %this.addr, align 8
  call void @llvm.dbg.declare(metadata i32* %i, metadata !7176, metadata !DIExpression()), !dbg !7178
  store i32 0, i32* %i, align 4, !dbg !7178
  br label %for.cond, !dbg !7179

for.cond:                                         ; preds = %for.inc12, %entry
  %0 = load i32, i32* %i, align 4, !dbg !7180
  %conv = zext i32 %0 to i64, !dbg !7180
  %1 = load %"class.std::vector"*, %"class.std::vector"** %points.addr, align 8, !dbg !7182
  %call = call i64 @_ZNKSt6vectorIN6dealii5PointILi1EEESaIS2_EE4sizeEv(%"class.std::vector"* %1) #7, !dbg !7183
  %cmp = icmp ult i64 %conv, %call, !dbg !7184
  br i1 %cmp, label %for.body, label %for.end14, !dbg !7185

for.body:                                         ; preds = %for.cond
  call void @llvm.dbg.declare(metadata i32* %component, metadata !7186, metadata !DIExpression()), !dbg !7189
  store i32 0, i32* %component, align 4, !dbg !7189
  br label %for.cond2, !dbg !7190

for.cond2:                                        ; preds = %for.inc, %for.body
  %2 = load i32, i32* %component, align 4, !dbg !7191
  %n_components = getelementptr inbounds %"class.dealii::Function", %"class.dealii::Function"* %this1, i32 0, i32 2, !dbg !7193
  %3 = load i32, i32* %n_components, align 8, !dbg !7193
  %cmp3 = icmp ult i32 %2, %3, !dbg !7194
  br i1 %cmp3, label %for.body4, label %for.end, !dbg !7195

for.body4:                                        ; preds = %for.cond2
  %4 = load %"class.std::vector"*, %"class.std::vector"** %points.addr, align 8, !dbg !7196
  %5 = load i32, i32* %i, align 4, !dbg !7197
  %conv5 = zext i32 %5 to i64, !dbg !7197
  %call6 = call dereferenceable(8) %"class.dealii::Point"* @_ZNKSt6vectorIN6dealii5PointILi1EEESaIS2_EEixEm(%"class.std::vector"* %4, i64 %conv5) #7, !dbg !7196
  %6 = load i32, i32* %component, align 4, !dbg !7198
  %7 = bitcast %"class.dealii::Function"* %this1 to void (%"class.dealii::Tensor"*, %"class.dealii::Function"*, %"class.dealii::Point"*, i32)***, !dbg !7199
  %vtable = load void (%"class.dealii::Tensor"*, %"class.dealii::Function"*, %"class.dealii::Point"*, i32)**, void (%"class.dealii::Tensor"*, %"class.dealii::Function"*, %"class.dealii::Point"*, i32)*** %7, align 8, !dbg !7199
  %vfn = getelementptr inbounds void (%"class.dealii::Tensor"*, %"class.dealii::Function"*, %"class.dealii::Point"*, i32)*, void (%"class.dealii::Tensor"*, %"class.dealii::Function"*, %"class.dealii::Point"*, i32)** %vtable, i64 8, !dbg !7199
  %8 = load void (%"class.dealii::Tensor"*, %"class.dealii::Function"*, %"class.dealii::Point"*, i32)*, void (%"class.dealii::Tensor"*, %"class.dealii::Function"*, %"class.dealii::Point"*, i32)** %vfn, align 8, !dbg !7199
  call void %8(%"class.dealii::Tensor"* sret %ref.tmp, %"class.dealii::Function"* %this1, %"class.dealii::Point"* dereferenceable(8) %call6, i32 %6), !dbg !7199
  %9 = load %"class.std::vector.18"*, %"class.std::vector.18"** %gradients.addr, align 8, !dbg !7200
  %10 = load i32, i32* %i, align 4, !dbg !7201
  %conv7 = zext i32 %10 to i64, !dbg !7201
  %call8 = call dereferenceable(24) %"class.std::vector.13"* @_ZNSt6vectorIS_IN6dealii6TensorILi1ELi1EEESaIS2_EESaIS4_EEixEm(%"class.std::vector.18"* %9, i64 %conv7) #7, !dbg !7200
  %11 = load i32, i32* %component, align 4, !dbg !7202
  %conv9 = zext i32 %11 to i64, !dbg !7202
  %call10 = call dereferenceable(8) %"class.dealii::Tensor"* @_ZNSt6vectorIN6dealii6TensorILi1ELi1EEESaIS2_EEixEm(%"class.std::vector.13"* %call8, i64 %conv9) #7, !dbg !7200
  %call11 = call dereferenceable(8) %"class.dealii::Tensor"* @_ZN6dealii6TensorILi1ELi1EEaSERKS1_(%"class.dealii::Tensor"* %call10, %"class.dealii::Tensor"* dereferenceable(8) %ref.tmp), !dbg !7203
  br label %for.inc, !dbg !7200

for.inc:                                          ; preds = %for.body4
  %12 = load i32, i32* %component, align 4, !dbg !7204
  %inc = add i32 %12, 1, !dbg !7204
  store i32 %inc, i32* %component, align 4, !dbg !7204
  br label %for.cond2, !dbg !7205, !llvm.loop !7206

for.end:                                          ; preds = %for.cond2
  br label %for.inc12, !dbg !7208

for.inc12:                                        ; preds = %for.end
  %13 = load i32, i32* %i, align 4, !dbg !7209
  %inc13 = add i32 %13, 1, !dbg !7209
  store i32 %inc13, i32* %i, align 4, !dbg !7209
  br label %for.cond, !dbg !7210, !llvm.loop !7211

for.end14:                                        ; preds = %for.cond
  ret void, !dbg !7213
}

; Function Attrs: noinline nounwind uwtable
define linkonce_odr dso_local dereferenceable(24) %"class.std::vector.13"* @_ZNSt6vectorIS_IN6dealii6TensorILi1ELi1EEESaIS2_EESaIS4_EEixEm(%"class.std::vector.18"* %this, i64 %__n) #4 comdat align 2 !dbg !7214 {
entry:
  %this.addr = alloca %"class.std::vector.18"*, align 8
  %__n.addr = alloca i64, align 8
  store %"class.std::vector.18"* %this, %"class.std::vector.18"** %this.addr, align 8
  call void @llvm.dbg.declare(metadata %"class.std::vector.18"** %this.addr, metadata !7215, metadata !DIExpression()), !dbg !7217
  store i64 %__n, i64* %__n.addr, align 8
  call void @llvm.dbg.declare(metadata i64* %__n.addr, metadata !7218, metadata !DIExpression()), !dbg !7219
  %this1 = load %"class.std::vector.18"*, %"class.std::vector.18"** %this.addr, align 8
  %0 = bitcast %"class.std::vector.18"* %this1 to %"struct.std::_Vector_base.19"*, !dbg !7220
  %_M_impl = getelementptr inbounds %"struct.std::_Vector_base.19", %"struct.std::_Vector_base.19"* %0, i32 0, i32 0, !dbg !7220
  %1 = bitcast %"struct.std::_Vector_base<std::vector<dealii::Tensor<1, 1>, std::allocator<dealii::Tensor<1, 1> > >, std::allocator<std::vector<dealii::Tensor<1, 1>, std::allocator<dealii::Tensor<1, 1> > > > >::_Vector_impl"* %_M_impl to %"struct.std::_Vector_base<std::vector<dealii::Tensor<1, 1>, std::allocator<dealii::Tensor<1, 1> > >, std::allocator<std::vector<dealii::Tensor<1, 1>, std::allocator<dealii::Tensor<1, 1> > > > >::_Vector_impl_data"*, !dbg !7221
  %_M_start = getelementptr inbounds %"struct.std::_Vector_base<std::vector<dealii::Tensor<1, 1>, std::allocator<dealii::Tensor<1, 1> > >, std::allocator<std::vector<dealii::Tensor<1, 1>, std::allocator<dealii::Tensor<1, 1> > > > >::_Vector_impl_data", %"struct.std::_Vector_base<std::vector<dealii::Tensor<1, 1>, std::allocator<dealii::Tensor<1, 1> > >, std::allocator<std::vector<dealii::Tensor<1, 1>, std::allocator<dealii::Tensor<1, 1> > > > >::_Vector_impl_data"* %1, i32 0, i32 0, !dbg !7222
  %2 = load %"class.std::vector.13"*, %"class.std::vector.13"** %_M_start, align 8, !dbg !7222
  %3 = load i64, i64* %__n.addr, align 8, !dbg !7223
  %add.ptr = getelementptr inbounds %"class.std::vector.13", %"class.std::vector.13"* %2, i64 %3, !dbg !7224
  ret %"class.std::vector.13"* %add.ptr, !dbg !7225
}

; Function Attrs: noinline nounwind uwtable
define weak_odr dso_local double @_ZNK6dealii8FunctionILi1EE9laplacianERKNS_5PointILi1EEEj(%"class.dealii::Function"* %this, %"class.dealii::Point"* dereferenceable(8) %0, i32 %1) unnamed_addr #4 comdat align 2 !dbg !7226 {
entry:
  %this.addr = alloca %"class.dealii::Function"*, align 8
  %.addr = alloca %"class.dealii::Point"*, align 8
  %.addr1 = alloca i32, align 4
  store %"class.dealii::Function"* %this, %"class.dealii::Function"** %this.addr, align 8
  call void @llvm.dbg.declare(metadata %"class.dealii::Function"** %this.addr, metadata !7227, metadata !DIExpression()), !dbg !7228
  store %"class.dealii::Point"* %0, %"class.dealii::Point"** %.addr, align 8
  call void @llvm.dbg.declare(metadata %"class.dealii::Point"** %.addr, metadata !7229, metadata !DIExpression()), !dbg !7230
  store i32 %1, i32* %.addr1, align 4
  call void @llvm.dbg.declare(metadata i32* %.addr1, metadata !7231, metadata !DIExpression()), !dbg !7232
  %this2 = load %"class.dealii::Function"*, %"class.dealii::Function"** %this.addr, align 8
  ret double 0.000000e+00, !dbg !7233
}

; Function Attrs: noinline nounwind uwtable
define weak_odr dso_local void @_ZNK6dealii8FunctionILi1EE16vector_laplacianERKNS_5PointILi1EEERNS_6VectorIdEE(%"class.dealii::Function"* %this, %"class.dealii::Point"* dereferenceable(8) %0, %"class.dealii::Vector"* dereferenceable(88) %1) unnamed_addr #4 comdat align 2 !dbg !7234 {
entry:
  %this.addr = alloca %"class.dealii::Function"*, align 8
  %.addr = alloca %"class.dealii::Point"*, align 8
  %.addr1 = alloca %"class.dealii::Vector"*, align 8
  store %"class.dealii::Function"* %this, %"class.dealii::Function"** %this.addr, align 8
  call void @llvm.dbg.declare(metadata %"class.dealii::Function"** %this.addr, metadata !7235, metadata !DIExpression()), !dbg !7236
  store %"class.dealii::Point"* %0, %"class.dealii::Point"** %.addr, align 8
  call void @llvm.dbg.declare(metadata %"class.dealii::Point"** %.addr, metadata !7237, metadata !DIExpression()), !dbg !7238
  store %"class.dealii::Vector"* %1, %"class.dealii::Vector"** %.addr1, align 8
  call void @llvm.dbg.declare(metadata %"class.dealii::Vector"** %.addr1, metadata !7239, metadata !DIExpression()), !dbg !7240
  %this2 = load %"class.dealii::Function"*, %"class.dealii::Function"** %this.addr, align 8
  ret void, !dbg !7241
}

; Function Attrs: noinline uwtable
define weak_odr dso_local void @_ZNK6dealii8FunctionILi1EE14laplacian_listERKSt6vectorINS_5PointILi1EEESaIS4_EERS2_IdSaIdEEj(%"class.dealii::Function"* %this, %"class.std::vector"* dereferenceable(24) %points, %"class.std::vector.3"* dereferenceable(24) %laplacians, i32 %component) unnamed_addr #0 comdat align 2 !dbg !7242 {
entry:
  %this.addr = alloca %"class.dealii::Function"*, align 8
  %points.addr = alloca %"class.std::vector"*, align 8
  %laplacians.addr = alloca %"class.std::vector.3"*, align 8
  %component.addr = alloca i32, align 4
  %i = alloca i32, align 4
  store %"class.dealii::Function"* %this, %"class.dealii::Function"** %this.addr, align 8
  call void @llvm.dbg.declare(metadata %"class.dealii::Function"** %this.addr, metadata !7243, metadata !DIExpression()), !dbg !7244
  store %"class.std::vector"* %points, %"class.std::vector"** %points.addr, align 8
  call void @llvm.dbg.declare(metadata %"class.std::vector"** %points.addr, metadata !7245, metadata !DIExpression()), !dbg !7246
  store %"class.std::vector.3"* %laplacians, %"class.std::vector.3"** %laplacians.addr, align 8
  call void @llvm.dbg.declare(metadata %"class.std::vector.3"** %laplacians.addr, metadata !7247, metadata !DIExpression()), !dbg !7248
  store i32 %component, i32* %component.addr, align 4
  call void @llvm.dbg.declare(metadata i32* %component.addr, metadata !7249, metadata !DIExpression()), !dbg !7250
  %this1 = load %"class.dealii::Function"*, %"class.dealii::Function"** %this.addr, align 8
  call void @llvm.dbg.declare(metadata i32* %i, metadata !7251, metadata !DIExpression()), !dbg !7253
  store i32 0, i32* %i, align 4, !dbg !7253
  br label %for.cond, !dbg !7254

for.cond:                                         ; preds = %for.inc, %entry
  %0 = load i32, i32* %i, align 4, !dbg !7255
  %conv = zext i32 %0 to i64, !dbg !7255
  %1 = load %"class.std::vector"*, %"class.std::vector"** %points.addr, align 8, !dbg !7257
  %call = call i64 @_ZNKSt6vectorIN6dealii5PointILi1EEESaIS2_EE4sizeEv(%"class.std::vector"* %1) #7, !dbg !7258
  %cmp = icmp ult i64 %conv, %call, !dbg !7259
  br i1 %cmp, label %for.body, label %for.end, !dbg !7260

for.body:                                         ; preds = %for.cond
  %2 = load %"class.std::vector"*, %"class.std::vector"** %points.addr, align 8, !dbg !7261
  %3 = load i32, i32* %i, align 4, !dbg !7262
  %conv2 = zext i32 %3 to i64, !dbg !7262
  %call3 = call dereferenceable(8) %"class.dealii::Point"* @_ZNKSt6vectorIN6dealii5PointILi1EEESaIS2_EEixEm(%"class.std::vector"* %2, i64 %conv2) #7, !dbg !7261
  %4 = load i32, i32* %component.addr, align 4, !dbg !7263
  %5 = bitcast %"class.dealii::Function"* %this1 to double (%"class.dealii::Function"*, %"class.dealii::Point"*, i32)***, !dbg !7264
  %vtable = load double (%"class.dealii::Function"*, %"class.dealii::Point"*, i32)**, double (%"class.dealii::Function"*, %"class.dealii::Point"*, i32)*** %5, align 8, !dbg !7264
  %vfn = getelementptr inbounds double (%"class.dealii::Function"*, %"class.dealii::Point"*, i32)*, double (%"class.dealii::Function"*, %"class.dealii::Point"*, i32)** %vtable, i64 12, !dbg !7264
  %6 = load double (%"class.dealii::Function"*, %"class.dealii::Point"*, i32)*, double (%"class.dealii::Function"*, %"class.dealii::Point"*, i32)** %vfn, align 8, !dbg !7264
  %call4 = call double %6(%"class.dealii::Function"* %this1, %"class.dealii::Point"* dereferenceable(8) %call3, i32 %4), !dbg !7264
  %7 = load %"class.std::vector.3"*, %"class.std::vector.3"** %laplacians.addr, align 8, !dbg !7265
  %8 = load i32, i32* %i, align 4, !dbg !7266
  %conv5 = zext i32 %8 to i64, !dbg !7266
  %call6 = call dereferenceable(8) double* @_ZNSt6vectorIdSaIdEEixEm(%"class.std::vector.3"* %7, i64 %conv5) #7, !dbg !7265
  store double %call4, double* %call6, align 8, !dbg !7267
  br label %for.inc, !dbg !7265

for.inc:                                          ; preds = %for.body
  %9 = load i32, i32* %i, align 4, !dbg !7268
  %inc = add i32 %9, 1, !dbg !7268
  store i32 %inc, i32* %i, align 4, !dbg !7268
  br label %for.cond, !dbg !7269, !llvm.loop !7270

for.end:                                          ; preds = %for.cond
  ret void, !dbg !7272
}

; Function Attrs: noinline uwtable
define weak_odr dso_local void @_ZNK6dealii8FunctionILi1EE21vector_laplacian_listERKSt6vectorINS_5PointILi1EEESaIS4_EERS2_INS_6VectorIdEESaISA_EE(%"class.dealii::Function"* %this, %"class.std::vector"* dereferenceable(24) %points, %"class.std::vector.8"* dereferenceable(24) %laplacians) unnamed_addr #0 comdat align 2 !dbg !7273 {
entry:
  %this.addr = alloca %"class.dealii::Function"*, align 8
  %points.addr = alloca %"class.std::vector"*, align 8
  %laplacians.addr = alloca %"class.std::vector.8"*, align 8
  %i = alloca i32, align 4
  store %"class.dealii::Function"* %this, %"class.dealii::Function"** %this.addr, align 8
  call void @llvm.dbg.declare(metadata %"class.dealii::Function"** %this.addr, metadata !7274, metadata !DIExpression()), !dbg !7275
  store %"class.std::vector"* %points, %"class.std::vector"** %points.addr, align 8
  call void @llvm.dbg.declare(metadata %"class.std::vector"** %points.addr, metadata !7276, metadata !DIExpression()), !dbg !7277
  store %"class.std::vector.8"* %laplacians, %"class.std::vector.8"** %laplacians.addr, align 8
  call void @llvm.dbg.declare(metadata %"class.std::vector.8"** %laplacians.addr, metadata !7278, metadata !DIExpression()), !dbg !7279
  %this1 = load %"class.dealii::Function"*, %"class.dealii::Function"** %this.addr, align 8
  call void @llvm.dbg.declare(metadata i32* %i, metadata !7280, metadata !DIExpression()), !dbg !7282
  store i32 0, i32* %i, align 4, !dbg !7282
  br label %for.cond, !dbg !7283

for.cond:                                         ; preds = %for.inc, %entry
  %0 = load i32, i32* %i, align 4, !dbg !7284
  %conv = zext i32 %0 to i64, !dbg !7284
  %1 = load %"class.std::vector"*, %"class.std::vector"** %points.addr, align 8, !dbg !7286
  %call = call i64 @_ZNKSt6vectorIN6dealii5PointILi1EEESaIS2_EE4sizeEv(%"class.std::vector"* %1) #7, !dbg !7287
  %cmp = icmp ult i64 %conv, %call, !dbg !7288
  br i1 %cmp, label %for.body, label %for.end, !dbg !7289

for.body:                                         ; preds = %for.cond
  %2 = load %"class.std::vector"*, %"class.std::vector"** %points.addr, align 8, !dbg !7290
  %3 = load i32, i32* %i, align 4, !dbg !7291
  %conv2 = zext i32 %3 to i64, !dbg !7291
  %call3 = call dereferenceable(8) %"class.dealii::Point"* @_ZNKSt6vectorIN6dealii5PointILi1EEESaIS2_EEixEm(%"class.std::vector"* %2, i64 %conv2) #7, !dbg !7290
  %4 = load %"class.std::vector.8"*, %"class.std::vector.8"** %laplacians.addr, align 8, !dbg !7292
  %5 = load i32, i32* %i, align 4, !dbg !7293
  %conv4 = zext i32 %5 to i64, !dbg !7293
  %call5 = call dereferenceable(88) %"class.dealii::Vector"* @_ZNSt6vectorIN6dealii6VectorIdEESaIS2_EEixEm(%"class.std::vector.8"* %4, i64 %conv4) #7, !dbg !7292
  %6 = bitcast %"class.dealii::Function"* %this1 to void (%"class.dealii::Function"*, %"class.dealii::Point"*, %"class.dealii::Vector"*)***, !dbg !7294
  %vtable = load void (%"class.dealii::Function"*, %"class.dealii::Point"*, %"class.dealii::Vector"*)**, void (%"class.dealii::Function"*, %"class.dealii::Point"*, %"class.dealii::Vector"*)*** %6, align 8, !dbg !7294
  %vfn = getelementptr inbounds void (%"class.dealii::Function"*, %"class.dealii::Point"*, %"class.dealii::Vector"*)*, void (%"class.dealii::Function"*, %"class.dealii::Point"*, %"class.dealii::Vector"*)** %vtable, i64 13, !dbg !7294
  %7 = load void (%"class.dealii::Function"*, %"class.dealii::Point"*, %"class.dealii::Vector"*)*, void (%"class.dealii::Function"*, %"class.dealii::Point"*, %"class.dealii::Vector"*)** %vfn, align 8, !dbg !7294
  call void %7(%"class.dealii::Function"* %this1, %"class.dealii::Point"* dereferenceable(8) %call3, %"class.dealii::Vector"* dereferenceable(88) %call5), !dbg !7294
  br label %for.inc, !dbg !7295

for.inc:                                          ; preds = %for.body
  %8 = load i32, i32* %i, align 4, !dbg !7296
  %inc = add i32 %8, 1, !dbg !7296
  store i32 %inc, i32* %i, align 4, !dbg !7296
  br label %for.cond, !dbg !7297, !llvm.loop !7298

for.end:                                          ; preds = %for.cond
  ret void, !dbg !7300
}

; Function Attrs: noinline nounwind uwtable
define weak_odr dso_local i32 @_ZNK6dealii8FunctionILi1EE18memory_consumptionEv(%"class.dealii::Function"* %this) #4 comdat align 2 !dbg !7301 {
entry:
  %this.addr = alloca %"class.dealii::Function"*, align 8
  store %"class.dealii::Function"* %this, %"class.dealii::Function"** %this.addr, align 8
  call void @llvm.dbg.declare(metadata %"class.dealii::Function"** %this.addr, metadata !7302, metadata !DIExpression()), !dbg !7303
  %this1 = load %"class.dealii::Function"*, %"class.dealii::Function"** %this.addr, align 8
  ret i32 96, !dbg !7304
}

; Function Attrs: noinline uwtable
define weak_odr dso_local void @_ZN6dealii8FunctionILi1EE21ExcNumberOfComponentsC2Eii(%"class.dealii::Function<1>::ExcNumberOfComponents"* %this, i32 %a1, i32 %a2) unnamed_addr #0 comdat($_ZN6dealii8FunctionILi1EE21ExcNumberOfComponentsC5Eii) align 2 !dbg !7305 {
entry:
  %this.addr = alloca %"class.dealii::Function<1>::ExcNumberOfComponents"*, align 8
  %a1.addr = alloca i32, align 4
  %a2.addr = alloca i32, align 4
  store %"class.dealii::Function<1>::ExcNumberOfComponents"* %this, %"class.dealii::Function<1>::ExcNumberOfComponents"** %this.addr, align 8
  call void @llvm.dbg.declare(metadata %"class.dealii::Function<1>::ExcNumberOfComponents"** %this.addr, metadata !7332, metadata !DIExpression()), !dbg !7334
  store i32 %a1, i32* %a1.addr, align 4
  call void @llvm.dbg.declare(metadata i32* %a1.addr, metadata !7335, metadata !DIExpression()), !dbg !7336
  store i32 %a2, i32* %a2.addr, align 4
  call void @llvm.dbg.declare(metadata i32* %a2.addr, metadata !7337, metadata !DIExpression()), !dbg !7336
  %this1 = load %"class.dealii::Function<1>::ExcNumberOfComponents"*, %"class.dealii::Function<1>::ExcNumberOfComponents"** %this.addr, align 8
  %0 = bitcast %"class.dealii::Function<1>::ExcNumberOfComponents"* %this1 to %"class.dealii::ExceptionBase"*, !dbg !7336
  call void @_ZN6dealii13ExceptionBaseC2Ev(%"class.dealii::ExceptionBase"* %0), !dbg !7336
  %1 = bitcast %"class.dealii::Function<1>::ExcNumberOfComponents"* %this1 to i32 (...)***, !dbg !7336
  store i32 (...)** bitcast (i8** getelementptr inbounds ({ [6 x i8*] }, { [6 x i8*] }* @_ZTVN6dealii8FunctionILi1EE21ExcNumberOfComponentsE, i32 0, inrange i32 0, i32 2) to i32 (...)**), i32 (...)*** %1, align 8, !dbg !7336
  %arg1 = getelementptr inbounds %"class.dealii::Function<1>::ExcNumberOfComponents", %"class.dealii::Function<1>::ExcNumberOfComponents"* %this1, i32 0, i32 1, !dbg !7336
  %2 = load i32, i32* %a1.addr, align 4, !dbg !7336
  store i32 %2, i32* %arg1, align 4, !dbg !7336
  %arg2 = getelementptr inbounds %"class.dealii::Function<1>::ExcNumberOfComponents", %"class.dealii::Function<1>::ExcNumberOfComponents"* %this1, i32 0, i32 2, !dbg !7336
  %3 = load i32, i32* %a2.addr, align 4, !dbg !7336
  store i32 %3, i32* %arg2, align 8, !dbg !7336
  ret void, !dbg !7336
}

declare dso_local void @_ZN6dealii13ExceptionBaseC2Ev(%"class.dealii::ExceptionBase"*) unnamed_addr #2

; Function Attrs: noinline nounwind uwtable
define weak_odr dso_local void @_ZN6dealii8FunctionILi1EE21ExcNumberOfComponentsD2Ev(%"class.dealii::Function<1>::ExcNumberOfComponents"* %this) unnamed_addr #4 comdat($_ZN6dealii8FunctionILi1EE21ExcNumberOfComponentsD5Ev) align 2 !dbg !7338 {
entry:
  %this.addr = alloca %"class.dealii::Function<1>::ExcNumberOfComponents"*, align 8
  store %"class.dealii::Function<1>::ExcNumberOfComponents"* %this, %"class.dealii::Function<1>::ExcNumberOfComponents"** %this.addr, align 8
  call void @llvm.dbg.declare(metadata %"class.dealii::Function<1>::ExcNumberOfComponents"** %this.addr, metadata !7339, metadata !DIExpression()), !dbg !7340
  %this1 = load %"class.dealii::Function<1>::ExcNumberOfComponents"*, %"class.dealii::Function<1>::ExcNumberOfComponents"** %this.addr, align 8
  %0 = bitcast %"class.dealii::Function<1>::ExcNumberOfComponents"* %this1 to %"class.dealii::ExceptionBase"*, !dbg !7341
  call void @_ZN6dealii13ExceptionBaseD2Ev(%"class.dealii::ExceptionBase"* %0) #7, !dbg !7341
  ret void, !dbg !7343
}

; Function Attrs: nounwind
declare dso_local void @_ZN6dealii13ExceptionBaseD2Ev(%"class.dealii::ExceptionBase"*) unnamed_addr #3

; Function Attrs: noinline nounwind uwtable
define weak_odr dso_local void @_ZN6dealii8FunctionILi1EE21ExcNumberOfComponentsD0Ev(%"class.dealii::Function<1>::ExcNumberOfComponents"* %this) unnamed_addr #4 comdat($_ZN6dealii8FunctionILi1EE21ExcNumberOfComponentsD5Ev) align 2 !dbg !7344 {
entry:
  %this.addr = alloca %"class.dealii::Function<1>::ExcNumberOfComponents"*, align 8
  store %"class.dealii::Function<1>::ExcNumberOfComponents"* %this, %"class.dealii::Function<1>::ExcNumberOfComponents"** %this.addr, align 8
  call void @llvm.dbg.declare(metadata %"class.dealii::Function<1>::ExcNumberOfComponents"** %this.addr, metadata !7345, metadata !DIExpression()), !dbg !7346
  %this1 = load %"class.dealii::Function<1>::ExcNumberOfComponents"*, %"class.dealii::Function<1>::ExcNumberOfComponents"** %this.addr, align 8
  call void @_ZN6dealii8FunctionILi1EE21ExcNumberOfComponentsD1Ev(%"class.dealii::Function<1>::ExcNumberOfComponents"* %this1) #7, !dbg !7347
  %0 = bitcast %"class.dealii::Function<1>::ExcNumberOfComponents"* %this1 to i8*, !dbg !7347
  call void @_ZdlPv(i8* %0) #8, !dbg !7347
  ret void, !dbg !7347
}

; Function Attrs: noinline uwtable
define weak_odr dso_local void @_ZNK6dealii8FunctionILi1EE21ExcNumberOfComponents10print_infoERSo(%"class.dealii::Function<1>::ExcNumberOfComponents"* %this, %"class.std::basic_ostream"* dereferenceable(272) %out) unnamed_addr #0 comdat align 2 !dbg !7348 {
entry:
  %this.addr = alloca %"class.dealii::Function<1>::ExcNumberOfComponents"*, align 8
  %out.addr = alloca %"class.std::basic_ostream"*, align 8
  store %"class.dealii::Function<1>::ExcNumberOfComponents"* %this, %"class.dealii::Function<1>::ExcNumberOfComponents"** %this.addr, align 8
  call void @llvm.dbg.declare(metadata %"class.dealii::Function<1>::ExcNumberOfComponents"** %this.addr, metadata !7349, metadata !DIExpression()), !dbg !7351
  store %"class.std::basic_ostream"* %out, %"class.std::basic_ostream"** %out.addr, align 8
  call void @llvm.dbg.declare(metadata %"class.std::basic_ostream"** %out.addr, metadata !7352, metadata !DIExpression()), !dbg !7353
  %this1 = load %"class.dealii::Function<1>::ExcNumberOfComponents"*, %"class.dealii::Function<1>::ExcNumberOfComponents"** %this.addr, align 8
  %0 = load %"class.std::basic_ostream"*, %"class.std::basic_ostream"** %out.addr, align 8, !dbg !7353
  %call = call dereferenceable(272) %"class.std::basic_ostream"* @_ZStlsISt11char_traitsIcEERSt13basic_ostreamIcT_ES5_PKc(%"class.std::basic_ostream"* dereferenceable(272) %0, i8* getelementptr inbounds ([52 x i8], [52 x i8]* @.str, i64 0, i64 0)), !dbg !7353
  %call2 = call dereferenceable(272) %"class.std::basic_ostream"* @_ZStlsISt11char_traitsIcEERSt13basic_ostreamIcT_ES5_PKc(%"class.std::basic_ostream"* dereferenceable(272) %call, i8* getelementptr inbounds ([54 x i8], [54 x i8]* @.str.1, i64 0, i64 0)), !dbg !7353
  %call3 = call dereferenceable(272) %"class.std::basic_ostream"* @_ZStlsISt11char_traitsIcEERSt13basic_ostreamIcT_ES5_PKc(%"class.std::basic_ostream"* dereferenceable(272) %call2, i8* getelementptr inbounds ([5 x i8], [5 x i8]* @.str.2, i64 0, i64 0)), !dbg !7353
  %arg1 = getelementptr inbounds %"class.dealii::Function<1>::ExcNumberOfComponents", %"class.dealii::Function<1>::ExcNumberOfComponents"* %this1, i32 0, i32 1, !dbg !7353
  %1 = load i32, i32* %arg1, align 4, !dbg !7353
  %call4 = call dereferenceable(272) %"class.std::basic_ostream"* @_ZNSolsEi(%"class.std::basic_ostream"* %call3, i32 %1), !dbg !7353
  %call5 = call dereferenceable(272) %"class.std::basic_ostream"* @_ZStlsISt11char_traitsIcEERSt13basic_ostreamIcT_ES5_PKc(%"class.std::basic_ostream"* dereferenceable(272) %call4, i8* getelementptr inbounds ([36 x i8], [36 x i8]* @.str.3, i64 0, i64 0)), !dbg !7353
  %arg2 = getelementptr inbounds %"class.dealii::Function<1>::ExcNumberOfComponents", %"class.dealii::Function<1>::ExcNumberOfComponents"* %this1, i32 0, i32 2, !dbg !7353
  %2 = load i32, i32* %arg2, align 8, !dbg !7353
  %call6 = call dereferenceable(272) %"class.std::basic_ostream"* @_ZNSolsEi(%"class.std::basic_ostream"* %call5, i32 %2), !dbg !7353
  %call7 = call dereferenceable(272) %"class.std::basic_ostream"* @_ZStlsISt11char_traitsIcEERSt13basic_ostreamIcT_ES5_PKc(%"class.std::basic_ostream"* dereferenceable(272) %call6, i8* getelementptr inbounds ([13 x i8], [13 x i8]* @.str.4, i64 0, i64 0)), !dbg !7353
  %call8 = call dereferenceable(272) %"class.std::basic_ostream"* @_ZNSolsEPFRSoS_E(%"class.std::basic_ostream"* %call7, %"class.std::basic_ostream"* (%"class.std::basic_ostream"*)* @_ZSt4endlIcSt11char_traitsIcEERSt13basic_ostreamIT_T0_ES6_), !dbg !7353
  ret void, !dbg !7353
}

declare dso_local dereferenceable(272) %"class.std::basic_ostream"* @_ZStlsISt11char_traitsIcEERSt13basic_ostreamIcT_ES5_PKc(%"class.std::basic_ostream"* dereferenceable(272), i8*) #2

declare dso_local dereferenceable(272) %"class.std::basic_ostream"* @_ZNSolsEi(%"class.std::basic_ostream"*, i32) #2

declare dso_local dereferenceable(272) %"class.std::basic_ostream"* @_ZNSolsEPFRSoS_E(%"class.std::basic_ostream"*, %"class.std::basic_ostream"* (%"class.std::basic_ostream"*)*) #2

declare dso_local dereferenceable(272) %"class.std::basic_ostream"* @_ZSt4endlIcSt11char_traitsIcEERSt13basic_ostreamIT_T0_ES6_(%"class.std::basic_ostream"* dereferenceable(272)) #2

; Function Attrs: noinline uwtable
define weak_odr dso_local void @_ZN6dealii12ZeroFunctionILi1EEC2Ej(%"class.dealii::ZeroFunction"* %this, i32 %n_components) unnamed_addr #0 comdat($_ZN6dealii12ZeroFunctionILi1EEC5Ej) align 2 !dbg !7354 {
entry:
  %this.addr = alloca %"class.dealii::ZeroFunction"*, align 8
  %n_components.addr = alloca i32, align 4
  store %"class.dealii::ZeroFunction"* %this, %"class.dealii::ZeroFunction"** %this.addr, align 8
  call void @llvm.dbg.declare(metadata %"class.dealii::ZeroFunction"** %this.addr, metadata !7355, metadata !DIExpression()), !dbg !7357
  store i32 %n_components, i32* %n_components.addr, align 4
  call void @llvm.dbg.declare(metadata i32* %n_components.addr, metadata !7358, metadata !DIExpression()), !dbg !7359
  %this1 = load %"class.dealii::ZeroFunction"*, %"class.dealii::ZeroFunction"** %this.addr, align 8
  %0 = bitcast %"class.dealii::ZeroFunction"* %this1 to %"class.dealii::Function"*, !dbg !7360
  %1 = load i32, i32* %n_components.addr, align 4, !dbg !7361
  call void @_ZN6dealii8FunctionILi1EEC2Ejd(%"class.dealii::Function"* %0, i32 %1, double 0.000000e+00), !dbg !7362
  %2 = bitcast %"class.dealii::ZeroFunction"* %this1 to i32 (...)***, !dbg !7360
  store i32 (...)** bitcast (i8** getelementptr inbounds ({ [18 x i8*], [4 x i8*] }, { [18 x i8*], [4 x i8*] }* @_ZTVN6dealii12ZeroFunctionILi1EEE, i32 0, inrange i32 0, i32 2) to i32 (...)**), i32 (...)*** %2, align 8, !dbg !7360
  %3 = bitcast %"class.dealii::ZeroFunction"* %this1 to i8*, !dbg !7360
  %add.ptr = getelementptr inbounds i8, i8* %3, i64 16, !dbg !7360
  %4 = bitcast i8* %add.ptr to i32 (...)***, !dbg !7360
  store i32 (...)** bitcast (i8** getelementptr inbounds ({ [18 x i8*], [4 x i8*] }, { [18 x i8*], [4 x i8*] }* @_ZTVN6dealii12ZeroFunctionILi1EEE, i32 0, inrange i32 1, i32 2) to i32 (...)**), i32 (...)*** %4, align 8, !dbg !7360
  ret void, !dbg !7363
}

; Function Attrs: noinline nounwind uwtable
define weak_odr dso_local void @_ZN6dealii12ZeroFunctionILi1EED2Ev(%"class.dealii::ZeroFunction"* %this) unnamed_addr #4 comdat($_ZN6dealii12ZeroFunctionILi1EED5Ev) align 2 !dbg !7364 {
entry:
  %this.addr = alloca %"class.dealii::ZeroFunction"*, align 8
  store %"class.dealii::ZeroFunction"* %this, %"class.dealii::ZeroFunction"** %this.addr, align 8
  call void @llvm.dbg.declare(metadata %"class.dealii::ZeroFunction"** %this.addr, metadata !7365, metadata !DIExpression()), !dbg !7366
  %this1 = load %"class.dealii::ZeroFunction"*, %"class.dealii::ZeroFunction"** %this.addr, align 8
  %0 = bitcast %"class.dealii::ZeroFunction"* %this1 to %"class.dealii::Function"*, !dbg !7367
  call void @_ZN6dealii8FunctionILi1EED2Ev(%"class.dealii::Function"* %0) #7, !dbg !7367
  ret void, !dbg !7369
}

; Function Attrs: noinline nounwind uwtable
define weak_odr dso_local void @_ZThn16_N6dealii12ZeroFunctionILi1EED1Ev(%"class.dealii::ZeroFunction"* %this) unnamed_addr #4 comdat align 2 !dbg !7370 {
entry:
  %this.addr = alloca %"class.dealii::ZeroFunction"*, align 8
  store %"class.dealii::ZeroFunction"* %this, %"class.dealii::ZeroFunction"** %this.addr, align 8
  %this1 = load %"class.dealii::ZeroFunction"*, %"class.dealii::ZeroFunction"** %this.addr, align 8, !dbg !7371
  %0 = bitcast %"class.dealii::ZeroFunction"* %this1 to i8*, !dbg !7371
  %1 = getelementptr inbounds i8, i8* %0, i64 -16, !dbg !7371
  %2 = bitcast i8* %1 to %"class.dealii::ZeroFunction"*, !dbg !7371
  tail call void @_ZN6dealii12ZeroFunctionILi1EED1Ev(%"class.dealii::ZeroFunction"* %2) #7, !dbg !7371
  ret void, !dbg !7371
}

; Function Attrs: noinline nounwind uwtable
define weak_odr dso_local void @_ZN6dealii12ZeroFunctionILi1EED0Ev(%"class.dealii::ZeroFunction"* %this) unnamed_addr #4 comdat($_ZN6dealii12ZeroFunctionILi1EED5Ev) align 2 !dbg !7372 {
entry:
  %this.addr = alloca %"class.dealii::ZeroFunction"*, align 8
  store %"class.dealii::ZeroFunction"* %this, %"class.dealii::ZeroFunction"** %this.addr, align 8
  call void @llvm.dbg.declare(metadata %"class.dealii::ZeroFunction"** %this.addr, metadata !7373, metadata !DIExpression()), !dbg !7374
  %this1 = load %"class.dealii::ZeroFunction"*, %"class.dealii::ZeroFunction"** %this.addr, align 8
  call void @_ZN6dealii12ZeroFunctionILi1EED1Ev(%"class.dealii::ZeroFunction"* %this1) #7, !dbg !7375
  %0 = bitcast %"class.dealii::ZeroFunction"* %this1 to i8*, !dbg !7375
  call void @_ZdlPv(i8* %0) #8, !dbg !7375
  ret void, !dbg !7376
}

; Function Attrs: noinline nounwind uwtable
define weak_odr dso_local void @_ZThn16_N6dealii12ZeroFunctionILi1EED0Ev(%"class.dealii::ZeroFunction"* %this) unnamed_addr #4 comdat align 2 !dbg !7377 {
entry:
  %this.addr = alloca %"class.dealii::ZeroFunction"*, align 8
  store %"class.dealii::ZeroFunction"* %this, %"class.dealii::ZeroFunction"** %this.addr, align 8
  %this1 = load %"class.dealii::ZeroFunction"*, %"class.dealii::ZeroFunction"** %this.addr, align 8, !dbg !7378
  %0 = bitcast %"class.dealii::ZeroFunction"* %this1 to i8*, !dbg !7378
  %1 = getelementptr inbounds i8, i8* %0, i64 -16, !dbg !7378
  %2 = bitcast i8* %1 to %"class.dealii::ZeroFunction"*, !dbg !7378
  tail call void @_ZN6dealii12ZeroFunctionILi1EED0Ev(%"class.dealii::ZeroFunction"* %2) #7, !dbg !7378
  ret void, !dbg !7378
}

; Function Attrs: noinline nounwind uwtable
define weak_odr dso_local double @_ZNK6dealii12ZeroFunctionILi1EE5valueERKNS_5PointILi1EEEj(%"class.dealii::ZeroFunction"* %this, %"class.dealii::Point"* dereferenceable(8) %0, i32 %1) unnamed_addr #4 comdat align 2 !dbg !7379 {
entry:
  %this.addr = alloca %"class.dealii::ZeroFunction"*, align 8
  %.addr = alloca %"class.dealii::Point"*, align 8
  %.addr1 = alloca i32, align 4
  store %"class.dealii::ZeroFunction"* %this, %"class.dealii::ZeroFunction"** %this.addr, align 8
  call void @llvm.dbg.declare(metadata %"class.dealii::ZeroFunction"** %this.addr, metadata !7380, metadata !DIExpression()), !dbg !7382
  store %"class.dealii::Point"* %0, %"class.dealii::Point"** %.addr, align 8
  call void @llvm.dbg.declare(metadata %"class.dealii::Point"** %.addr, metadata !7383, metadata !DIExpression()), !dbg !7384
  store i32 %1, i32* %.addr1, align 4
  call void @llvm.dbg.declare(metadata i32* %.addr1, metadata !7385, metadata !DIExpression()), !dbg !7386
  %this2 = load %"class.dealii::ZeroFunction"*, %"class.dealii::ZeroFunction"** %this.addr, align 8
  ret double 0.000000e+00, !dbg !7387
}

; Function Attrs: noinline uwtable
define weak_odr dso_local void @_ZNK6dealii12ZeroFunctionILi1EE12vector_valueERKNS_5PointILi1EEERNS_6VectorIdEE(%"class.dealii::ZeroFunction"* %this, %"class.dealii::Point"* dereferenceable(8) %0, %"class.dealii::Vector"* dereferenceable(88) %return_value) unnamed_addr #0 comdat align 2 !dbg !7388 {
entry:
  %this.addr = alloca %"class.dealii::ZeroFunction"*, align 8
  %.addr = alloca %"class.dealii::Point"*, align 8
  %return_value.addr = alloca %"class.dealii::Vector"*, align 8
  %ref.tmp = alloca double, align 8
  store %"class.dealii::ZeroFunction"* %this, %"class.dealii::ZeroFunction"** %this.addr, align 8
  call void @llvm.dbg.declare(metadata %"class.dealii::ZeroFunction"** %this.addr, metadata !7389, metadata !DIExpression()), !dbg !7390
  store %"class.dealii::Point"* %0, %"class.dealii::Point"** %.addr, align 8
  call void @llvm.dbg.declare(metadata %"class.dealii::Point"** %.addr, metadata !7391, metadata !DIExpression()), !dbg !7392
  store %"class.dealii::Vector"* %return_value, %"class.dealii::Vector"** %return_value.addr, align 8
  call void @llvm.dbg.declare(metadata %"class.dealii::Vector"** %return_value.addr, metadata !7393, metadata !DIExpression()), !dbg !7394
  %this1 = load %"class.dealii::ZeroFunction"*, %"class.dealii::ZeroFunction"** %this.addr, align 8
  %1 = load %"class.dealii::Vector"*, %"class.dealii::Vector"** %return_value.addr, align 8, !dbg !7395
  %call = call double* @_ZN6dealii6VectorIdE5beginEv(%"class.dealii::Vector"* %1), !dbg !7396
  %2 = load %"class.dealii::Vector"*, %"class.dealii::Vector"** %return_value.addr, align 8, !dbg !7397
  %call2 = call double* @_ZN6dealii6VectorIdE3endEv(%"class.dealii::Vector"* %2), !dbg !7398
  store double 0.000000e+00, double* %ref.tmp, align 8, !dbg !7399
  call void @_ZSt4fillIPddEvT_S1_RKT0_(double* %call, double* %call2, double* dereferenceable(8) %ref.tmp), !dbg !7400
  ret void, !dbg !7401
}

; Function Attrs: noinline uwtable
define linkonce_odr dso_local void @_ZSt4fillIPddEvT_S1_RKT0_(double* %__first, double* %__last, double* dereferenceable(8) %__value) #0 comdat !dbg !7402 {
entry:
  %__first.addr = alloca double*, align 8
  %__last.addr = alloca double*, align 8
  %__value.addr = alloca double*, align 8
  store double* %__first, double** %__first.addr, align 8
  call void @llvm.dbg.declare(metadata double** %__first.addr, metadata !7408, metadata !DIExpression()), !dbg !7409
  store double* %__last, double** %__last.addr, align 8
  call void @llvm.dbg.declare(metadata double** %__last.addr, metadata !7410, metadata !DIExpression()), !dbg !7411
  store double* %__value, double** %__value.addr, align 8
  call void @llvm.dbg.declare(metadata double** %__value.addr, metadata !7412, metadata !DIExpression()), !dbg !7413
  %0 = load double*, double** %__first.addr, align 8, !dbg !7414
  %1 = load double*, double** %__last.addr, align 8, !dbg !7415
  %2 = load double*, double** %__value.addr, align 8, !dbg !7416
  call void @_ZSt8__fill_aIPddEvT_S1_RKT0_(double* %0, double* %1, double* dereferenceable(8) %2), !dbg !7417
  ret void, !dbg !7418
}

; Function Attrs: noinline nounwind uwtable
define linkonce_odr dso_local double* @_ZN6dealii6VectorIdE5beginEv(%"class.dealii::Vector"* %this) #4 comdat align 2 !dbg !7419 {
entry:
  %this.addr = alloca %"class.dealii::Vector"*, align 8
  store %"class.dealii::Vector"* %this, %"class.dealii::Vector"** %this.addr, align 8
  call void @llvm.dbg.declare(metadata %"class.dealii::Vector"** %this.addr, metadata !7427, metadata !DIExpression()), !dbg !7428
  %this1 = load %"class.dealii::Vector"*, %"class.dealii::Vector"** %this.addr, align 8
  %val = getelementptr inbounds %"class.dealii::Vector", %"class.dealii::Vector"* %this1, i32 0, i32 3, !dbg !7429
  %0 = load double*, double** %val, align 8, !dbg !7429
  %arrayidx = getelementptr inbounds double, double* %0, i64 0, !dbg !7429
  ret double* %arrayidx, !dbg !7430
}

; Function Attrs: noinline nounwind uwtable
define linkonce_odr dso_local double* @_ZN6dealii6VectorIdE3endEv(%"class.dealii::Vector"* %this) #4 comdat align 2 !dbg !7431 {
entry:
  %this.addr = alloca %"class.dealii::Vector"*, align 8
  store %"class.dealii::Vector"* %this, %"class.dealii::Vector"** %this.addr, align 8
  call void @llvm.dbg.declare(metadata %"class.dealii::Vector"** %this.addr, metadata !7433, metadata !DIExpression()), !dbg !7434
  %this1 = load %"class.dealii::Vector"*, %"class.dealii::Vector"** %this.addr, align 8
  %val = getelementptr inbounds %"class.dealii::Vector", %"class.dealii::Vector"* %this1, i32 0, i32 3, !dbg !7435
  %0 = load double*, double** %val, align 8, !dbg !7435
  %vec_size = getelementptr inbounds %"class.dealii::Vector", %"class.dealii::Vector"* %this1, i32 0, i32 1, !dbg !7436
  %1 = load i32, i32* %vec_size, align 8, !dbg !7436
  %idxprom = zext i32 %1 to i64, !dbg !7435
  %arrayidx = getelementptr inbounds double, double* %0, i64 %idxprom, !dbg !7435
  ret double* %arrayidx, !dbg !7437
}

; Function Attrs: noinline uwtable
define weak_odr dso_local void @_ZNK6dealii12ZeroFunctionILi1EE10value_listERKSt6vectorINS_5PointILi1EEESaIS4_EERS2_IdSaIdEEj(%"class.dealii::ZeroFunction"* %this, %"class.std::vector"* dereferenceable(24) %points, %"class.std::vector.3"* dereferenceable(24) %values, i32 %0) unnamed_addr #0 comdat align 2 !dbg !7438 {
entry:
  %this.addr = alloca %"class.dealii::ZeroFunction"*, align 8
  %points.addr = alloca %"class.std::vector"*, align 8
  %values.addr = alloca %"class.std::vector.3"*, align 8
  %.addr = alloca i32, align 4
  %agg.tmp = alloca %"class.__gnu_cxx::__normal_iterator", align 8
  %agg.tmp2 = alloca %"class.__gnu_cxx::__normal_iterator", align 8
  %ref.tmp = alloca double, align 8
  store %"class.dealii::ZeroFunction"* %this, %"class.dealii::ZeroFunction"** %this.addr, align 8
  call void @llvm.dbg.declare(metadata %"class.dealii::ZeroFunction"** %this.addr, metadata !7439, metadata !DIExpression()), !dbg !7440
  store %"class.std::vector"* %points, %"class.std::vector"** %points.addr, align 8
  call void @llvm.dbg.declare(metadata %"class.std::vector"** %points.addr, metadata !7441, metadata !DIExpression()), !dbg !7442
  store %"class.std::vector.3"* %values, %"class.std::vector.3"** %values.addr, align 8
  call void @llvm.dbg.declare(metadata %"class.std::vector.3"** %values.addr, metadata !7443, metadata !DIExpression()), !dbg !7444
  store i32 %0, i32* %.addr, align 4
  call void @llvm.dbg.declare(metadata i32* %.addr, metadata !7445, metadata !DIExpression()), !dbg !7446
  %this1 = load %"class.dealii::ZeroFunction"*, %"class.dealii::ZeroFunction"** %this.addr, align 8
  %1 = load %"class.std::vector.3"*, %"class.std::vector.3"** %values.addr, align 8, !dbg !7447
  %call = call double* @_ZNSt6vectorIdSaIdEE5beginEv(%"class.std::vector.3"* %1) #7, !dbg !7448
  %coerce.dive = getelementptr inbounds %"class.__gnu_cxx::__normal_iterator", %"class.__gnu_cxx::__normal_iterator"* %agg.tmp, i32 0, i32 0, !dbg !7448
  store double* %call, double** %coerce.dive, align 8, !dbg !7448
  %2 = load %"class.std::vector.3"*, %"class.std::vector.3"** %values.addr, align 8, !dbg !7449
  %call3 = call double* @_ZNSt6vectorIdSaIdEE3endEv(%"class.std::vector.3"* %2) #7, !dbg !7450
  %coerce.dive4 = getelementptr inbounds %"class.__gnu_cxx::__normal_iterator", %"class.__gnu_cxx::__normal_iterator"* %agg.tmp2, i32 0, i32 0, !dbg !7450
  store double* %call3, double** %coerce.dive4, align 8, !dbg !7450
  store double 0.000000e+00, double* %ref.tmp, align 8, !dbg !7451
  %coerce.dive5 = getelementptr inbounds %"class.__gnu_cxx::__normal_iterator", %"class.__gnu_cxx::__normal_iterator"* %agg.tmp, i32 0, i32 0, !dbg !7452
  %3 = load double*, double** %coerce.dive5, align 8, !dbg !7452
  %coerce.dive6 = getelementptr inbounds %"class.__gnu_cxx::__normal_iterator", %"class.__gnu_cxx::__normal_iterator"* %agg.tmp2, i32 0, i32 0, !dbg !7452
  %4 = load double*, double** %coerce.dive6, align 8, !dbg !7452
  call void @_ZSt4fillIN9__gnu_cxx17__normal_iteratorIPdSt6vectorIdSaIdEEEEdEvT_S7_RKT0_(double* %3, double* %4, double* dereferenceable(8) %ref.tmp), !dbg !7452
  ret void, !dbg !7453
}

; Function Attrs: noinline uwtable
define linkonce_odr dso_local void @_ZSt4fillIN9__gnu_cxx17__normal_iteratorIPdSt6vectorIdSaIdEEEEdEvT_S7_RKT0_(double* %__first.coerce, double* %__last.coerce, double* dereferenceable(8) %__value) #0 comdat !dbg !7454 {
entry:
  %__first = alloca %"class.__gnu_cxx::__normal_iterator", align 8
  %__last = alloca %"class.__gnu_cxx::__normal_iterator", align 8
  %__value.addr = alloca double*, align 8
  %agg.tmp = alloca %"class.__gnu_cxx::__normal_iterator", align 8
  %agg.tmp2 = alloca %"class.__gnu_cxx::__normal_iterator", align 8
  %coerce.dive = getelementptr inbounds %"class.__gnu_cxx::__normal_iterator", %"class.__gnu_cxx::__normal_iterator"* %__first, i32 0, i32 0
  store double* %__first.coerce, double** %coerce.dive, align 8
  %coerce.dive1 = getelementptr inbounds %"class.__gnu_cxx::__normal_iterator", %"class.__gnu_cxx::__normal_iterator"* %__last, i32 0, i32 0
  store double* %__last.coerce, double** %coerce.dive1, align 8
  call void @llvm.dbg.declare(metadata %"class.__gnu_cxx::__normal_iterator"* %__first, metadata !7459, metadata !DIExpression()), !dbg !7460
  call void @llvm.dbg.declare(metadata %"class.__gnu_cxx::__normal_iterator"* %__last, metadata !7461, metadata !DIExpression()), !dbg !7462
  store double* %__value, double** %__value.addr, align 8
  call void @llvm.dbg.declare(metadata double** %__value.addr, metadata !7463, metadata !DIExpression()), !dbg !7464
  %0 = bitcast %"class.__gnu_cxx::__normal_iterator"* %agg.tmp to i8*, !dbg !7465
  %1 = bitcast %"class.__gnu_cxx::__normal_iterator"* %__first to i8*, !dbg !7465
  call void @llvm.memcpy.p0i8.p0i8.i64(i8* align 8 %0, i8* align 8 %1, i64 8, i1 false), !dbg !7465
  %2 = bitcast %"class.__gnu_cxx::__normal_iterator"* %agg.tmp2 to i8*, !dbg !7466
  %3 = bitcast %"class.__gnu_cxx::__normal_iterator"* %__last to i8*, !dbg !7466
  call void @llvm.memcpy.p0i8.p0i8.i64(i8* align 8 %2, i8* align 8 %3, i64 8, i1 false), !dbg !7466
  %4 = load double*, double** %__value.addr, align 8, !dbg !7467
  %coerce.dive3 = getelementptr inbounds %"class.__gnu_cxx::__normal_iterator", %"class.__gnu_cxx::__normal_iterator"* %agg.tmp, i32 0, i32 0, !dbg !7468
  %5 = load double*, double** %coerce.dive3, align 8, !dbg !7468
  %coerce.dive4 = getelementptr inbounds %"class.__gnu_cxx::__normal_iterator", %"class.__gnu_cxx::__normal_iterator"* %agg.tmp2, i32 0, i32 0, !dbg !7468
  %6 = load double*, double** %coerce.dive4, align 8, !dbg !7468
  call void @_ZSt8__fill_aIN9__gnu_cxx17__normal_iteratorIPdSt6vectorIdSaIdEEEEdEvT_S7_RKT0_(double* %5, double* %6, double* dereferenceable(8) %4), !dbg !7468
  ret void, !dbg !7469
}

; Function Attrs: noinline nounwind uwtable
define linkonce_odr dso_local double* @_ZNSt6vectorIdSaIdEE5beginEv(%"class.std::vector.3"* %this) #4 comdat align 2 !dbg !7470 {
entry:
  %retval = alloca %"class.__gnu_cxx::__normal_iterator", align 8
  %this.addr = alloca %"class.std::vector.3"*, align 8
  store %"class.std::vector.3"* %this, %"class.std::vector.3"** %this.addr, align 8
  call void @llvm.dbg.declare(metadata %"class.std::vector.3"** %this.addr, metadata !7471, metadata !DIExpression()), !dbg !7472
  %this1 = load %"class.std::vector.3"*, %"class.std::vector.3"** %this.addr, align 8
  %0 = bitcast %"class.std::vector.3"* %this1 to %"struct.std::_Vector_base.4"*, !dbg !7473
  %_M_impl = getelementptr inbounds %"struct.std::_Vector_base.4", %"struct.std::_Vector_base.4"* %0, i32 0, i32 0, !dbg !7473
  %1 = bitcast %"struct.std::_Vector_base<double, std::allocator<double> >::_Vector_impl"* %_M_impl to %"struct.std::_Vector_base<double, std::allocator<double> >::_Vector_impl_data"*, !dbg !7474
  %_M_start = getelementptr inbounds %"struct.std::_Vector_base<double, std::allocator<double> >::_Vector_impl_data", %"struct.std::_Vector_base<double, std::allocator<double> >::_Vector_impl_data"* %1, i32 0, i32 0, !dbg !7475
  call void @_ZN9__gnu_cxx17__normal_iteratorIPdSt6vectorIdSaIdEEEC2ERKS1_(%"class.__gnu_cxx::__normal_iterator"* %retval, double** dereferenceable(8) %_M_start) #7, !dbg !7476
  %coerce.dive = getelementptr inbounds %"class.__gnu_cxx::__normal_iterator", %"class.__gnu_cxx::__normal_iterator"* %retval, i32 0, i32 0, !dbg !7477
  %2 = load double*, double** %coerce.dive, align 8, !dbg !7477
  ret double* %2, !dbg !7477
}

; Function Attrs: noinline nounwind uwtable
define linkonce_odr dso_local double* @_ZNSt6vectorIdSaIdEE3endEv(%"class.std::vector.3"* %this) #4 comdat align 2 !dbg !7478 {
entry:
  %retval = alloca %"class.__gnu_cxx::__normal_iterator", align 8
  %this.addr = alloca %"class.std::vector.3"*, align 8
  store %"class.std::vector.3"* %this, %"class.std::vector.3"** %this.addr, align 8
  call void @llvm.dbg.declare(metadata %"class.std::vector.3"** %this.addr, metadata !7479, metadata !DIExpression()), !dbg !7480
  %this1 = load %"class.std::vector.3"*, %"class.std::vector.3"** %this.addr, align 8
  %0 = bitcast %"class.std::vector.3"* %this1 to %"struct.std::_Vector_base.4"*, !dbg !7481
  %_M_impl = getelementptr inbounds %"struct.std::_Vector_base.4", %"struct.std::_Vector_base.4"* %0, i32 0, i32 0, !dbg !7481
  %1 = bitcast %"struct.std::_Vector_base<double, std::allocator<double> >::_Vector_impl"* %_M_impl to %"struct.std::_Vector_base<double, std::allocator<double> >::_Vector_impl_data"*, !dbg !7482
  %_M_finish = getelementptr inbounds %"struct.std::_Vector_base<double, std::allocator<double> >::_Vector_impl_data", %"struct.std::_Vector_base<double, std::allocator<double> >::_Vector_impl_data"* %1, i32 0, i32 1, !dbg !7483
  call void @_ZN9__gnu_cxx17__normal_iteratorIPdSt6vectorIdSaIdEEEC2ERKS1_(%"class.__gnu_cxx::__normal_iterator"* %retval, double** dereferenceable(8) %_M_finish) #7, !dbg !7484
  %coerce.dive = getelementptr inbounds %"class.__gnu_cxx::__normal_iterator", %"class.__gnu_cxx::__normal_iterator"* %retval, i32 0, i32 0, !dbg !7485
  %2 = load double*, double** %coerce.dive, align 8, !dbg !7485
  ret double* %2, !dbg !7485
}

; Function Attrs: noinline uwtable
define weak_odr dso_local void @_ZNK6dealii12ZeroFunctionILi1EE17vector_value_listERKSt6vectorINS_5PointILi1EEESaIS4_EERS2_INS_6VectorIdEESaISA_EE(%"class.dealii::ZeroFunction"* %this, %"class.std::vector"* dereferenceable(24) %points, %"class.std::vector.8"* dereferenceable(24) %values) unnamed_addr #0 comdat align 2 !dbg !7486 {
entry:
  %this.addr = alloca %"class.dealii::ZeroFunction"*, align 8
  %points.addr = alloca %"class.std::vector"*, align 8
  %values.addr = alloca %"class.std::vector.8"*, align 8
  %i = alloca i32, align 4
  %ref.tmp = alloca double, align 8
  store %"class.dealii::ZeroFunction"* %this, %"class.dealii::ZeroFunction"** %this.addr, align 8
  call void @llvm.dbg.declare(metadata %"class.dealii::ZeroFunction"** %this.addr, metadata !7487, metadata !DIExpression()), !dbg !7488
  store %"class.std::vector"* %points, %"class.std::vector"** %points.addr, align 8
  call void @llvm.dbg.declare(metadata %"class.std::vector"** %points.addr, metadata !7489, metadata !DIExpression()), !dbg !7490
  store %"class.std::vector.8"* %values, %"class.std::vector.8"** %values.addr, align 8
  call void @llvm.dbg.declare(metadata %"class.std::vector.8"** %values.addr, metadata !7491, metadata !DIExpression()), !dbg !7492
  %this1 = load %"class.dealii::ZeroFunction"*, %"class.dealii::ZeroFunction"** %this.addr, align 8
  call void @llvm.dbg.declare(metadata i32* %i, metadata !7493, metadata !DIExpression()), !dbg !7495
  store i32 0, i32* %i, align 4, !dbg !7495
  br label %for.cond, !dbg !7496

for.cond:                                         ; preds = %for.inc, %entry
  %0 = load i32, i32* %i, align 4, !dbg !7497
  %conv = zext i32 %0 to i64, !dbg !7497
  %1 = load %"class.std::vector"*, %"class.std::vector"** %points.addr, align 8, !dbg !7499
  %call = call i64 @_ZNKSt6vectorIN6dealii5PointILi1EEESaIS2_EE4sizeEv(%"class.std::vector"* %1) #7, !dbg !7500
  %cmp = icmp ult i64 %conv, %call, !dbg !7501
  br i1 %cmp, label %for.body, label %for.end, !dbg !7502

for.body:                                         ; preds = %for.cond
  %2 = load %"class.std::vector.8"*, %"class.std::vector.8"** %values.addr, align 8, !dbg !7503
  %3 = load i32, i32* %i, align 4, !dbg !7505
  %conv2 = zext i32 %3 to i64, !dbg !7505
  %call3 = call dereferenceable(88) %"class.dealii::Vector"* @_ZNSt6vectorIN6dealii6VectorIdEESaIS2_EEixEm(%"class.std::vector.8"* %2, i64 %conv2) #7, !dbg !7503
  %call4 = call double* @_ZN6dealii6VectorIdE5beginEv(%"class.dealii::Vector"* %call3), !dbg !7506
  %4 = load %"class.std::vector.8"*, %"class.std::vector.8"** %values.addr, align 8, !dbg !7507
  %5 = load i32, i32* %i, align 4, !dbg !7508
  %conv5 = zext i32 %5 to i64, !dbg !7508
  %call6 = call dereferenceable(88) %"class.dealii::Vector"* @_ZNSt6vectorIN6dealii6VectorIdEESaIS2_EEixEm(%"class.std::vector.8"* %4, i64 %conv5) #7, !dbg !7507
  %call7 = call double* @_ZN6dealii6VectorIdE3endEv(%"class.dealii::Vector"* %call6), !dbg !7509
  store double 0.000000e+00, double* %ref.tmp, align 8, !dbg !7510
  call void @_ZSt4fillIPddEvT_S1_RKT0_(double* %call4, double* %call7, double* dereferenceable(8) %ref.tmp), !dbg !7511
  br label %for.inc, !dbg !7512

for.inc:                                          ; preds = %for.body
  %6 = load i32, i32* %i, align 4, !dbg !7513
  %inc = add i32 %6, 1, !dbg !7513
  store i32 %inc, i32* %i, align 4, !dbg !7513
  br label %for.cond, !dbg !7514, !llvm.loop !7515

for.end:                                          ; preds = %for.cond
  ret void, !dbg !7517
}

; Function Attrs: noinline uwtable
define weak_odr dso_local void @_ZNK6dealii12ZeroFunctionILi1EE8gradientERKNS_5PointILi1EEEj(%"class.dealii::Tensor"* noalias sret %agg.result, %"class.dealii::ZeroFunction"* %this, %"class.dealii::Point"* dereferenceable(8) %0, i32 %1) unnamed_addr #0 comdat align 2 !dbg !7518 {
entry:
  %result.ptr = alloca i8*, align 8
  %this.addr = alloca %"class.dealii::ZeroFunction"*, align 8
  %.addr = alloca %"class.dealii::Point"*, align 8
  %.addr1 = alloca i32, align 4
  %2 = bitcast %"class.dealii::Tensor"* %agg.result to i8*
  store i8* %2, i8** %result.ptr, align 8
  store %"class.dealii::ZeroFunction"* %this, %"class.dealii::ZeroFunction"** %this.addr, align 8
  call void @llvm.dbg.declare(metadata %"class.dealii::ZeroFunction"** %this.addr, metadata !7519, metadata !DIExpression()), !dbg !7520
  store %"class.dealii::Point"* %0, %"class.dealii::Point"** %.addr, align 8
  call void @llvm.dbg.declare(metadata %"class.dealii::Point"** %.addr, metadata !7521, metadata !DIExpression()), !dbg !7522
  store i32 %1, i32* %.addr1, align 4
  call void @llvm.dbg.declare(metadata i32* %.addr1, metadata !7523, metadata !DIExpression()), !dbg !7524
  %this2 = load %"class.dealii::ZeroFunction"*, %"class.dealii::ZeroFunction"** %this.addr, align 8
  call void @_ZN6dealii6TensorILi1ELi1EEC2Eb(%"class.dealii::Tensor"* %agg.result, i1 zeroext true), !dbg !7525
  ret void, !dbg !7526
}

; Function Attrs: noinline nounwind uwtable
define linkonce_odr dso_local void @_ZN6dealii6TensorILi1ELi1EEC2Eb(%"class.dealii::Tensor"* %this, i1 zeroext %initialize) unnamed_addr #4 comdat align 2 !dbg !7527 {
entry:
  %this.addr = alloca %"class.dealii::Tensor"*, align 8
  %initialize.addr = alloca i8, align 1
  %i = alloca i32, align 4
  store %"class.dealii::Tensor"* %this, %"class.dealii::Tensor"** %this.addr, align 8
  call void @llvm.dbg.declare(metadata %"class.dealii::Tensor"** %this.addr, metadata !7528, metadata !DIExpression()), !dbg !7529
  %frombool = zext i1 %initialize to i8
  store i8 %frombool, i8* %initialize.addr, align 1
  call void @llvm.dbg.declare(metadata i8* %initialize.addr, metadata !7530, metadata !DIExpression()), !dbg !7531
  %this1 = load %"class.dealii::Tensor"*, %"class.dealii::Tensor"** %this.addr, align 8
  %0 = load i8, i8* %initialize.addr, align 1, !dbg !7532
  %tobool = trunc i8 %0 to i1, !dbg !7532
  br i1 %tobool, label %if.then, label %if.end, !dbg !7535

if.then:                                          ; preds = %entry
  call void @llvm.dbg.declare(metadata i32* %i, metadata !7536, metadata !DIExpression()), !dbg !7538
  store i32 0, i32* %i, align 4, !dbg !7538
  br label %for.cond, !dbg !7539

for.cond:                                         ; preds = %for.inc, %if.then
  %1 = load i32, i32* %i, align 4, !dbg !7540
  %cmp = icmp ne i32 %1, 1, !dbg !7542
  br i1 %cmp, label %for.body, label %for.end, !dbg !7543

for.body:                                         ; preds = %for.cond
  %values = getelementptr inbounds %"class.dealii::Tensor", %"class.dealii::Tensor"* %this1, i32 0, i32 0, !dbg !7544
  %2 = load i32, i32* %i, align 4, !dbg !7545
  %idxprom = zext i32 %2 to i64, !dbg !7544
  %arrayidx = getelementptr inbounds [1 x double], [1 x double]* %values, i64 0, i64 %idxprom, !dbg !7544
  store double 0.000000e+00, double* %arrayidx, align 8, !dbg !7546
  br label %for.inc, !dbg !7544

for.inc:                                          ; preds = %for.body
  %3 = load i32, i32* %i, align 4, !dbg !7547
  %inc = add i32 %3, 1, !dbg !7547
  store i32 %inc, i32* %i, align 4, !dbg !7547
  br label %for.cond, !dbg !7548, !llvm.loop !7549

for.end:                                          ; preds = %for.cond
  br label %if.end, !dbg !7550

if.end:                                           ; preds = %for.end, %entry
  ret void, !dbg !7551
}

; Function Attrs: noinline uwtable
define weak_odr dso_local void @_ZNK6dealii12ZeroFunctionILi1EE15vector_gradientERKNS_5PointILi1EEERSt6vectorINS_6TensorILi1ELi1EEESaIS8_EE(%"class.dealii::ZeroFunction"* %this, %"class.dealii::Point"* dereferenceable(8) %0, %"class.std::vector.13"* dereferenceable(24) %gradients) unnamed_addr #0 comdat align 2 !dbg !7552 {
entry:
  %this.addr = alloca %"class.dealii::ZeroFunction"*, align 8
  %.addr = alloca %"class.dealii::Point"*, align 8
  %gradients.addr = alloca %"class.std::vector.13"*, align 8
  %c = alloca i32, align 4
  store %"class.dealii::ZeroFunction"* %this, %"class.dealii::ZeroFunction"** %this.addr, align 8
  call void @llvm.dbg.declare(metadata %"class.dealii::ZeroFunction"** %this.addr, metadata !7553, metadata !DIExpression()), !dbg !7554
  store %"class.dealii::Point"* %0, %"class.dealii::Point"** %.addr, align 8
  call void @llvm.dbg.declare(metadata %"class.dealii::Point"** %.addr, metadata !7555, metadata !DIExpression()), !dbg !7556
  store %"class.std::vector.13"* %gradients, %"class.std::vector.13"** %gradients.addr, align 8
  call void @llvm.dbg.declare(metadata %"class.std::vector.13"** %gradients.addr, metadata !7557, metadata !DIExpression()), !dbg !7558
  %this1 = load %"class.dealii::ZeroFunction"*, %"class.dealii::ZeroFunction"** %this.addr, align 8
  call void @llvm.dbg.declare(metadata i32* %c, metadata !7559, metadata !DIExpression()), !dbg !7561
  store i32 0, i32* %c, align 4, !dbg !7561
  br label %for.cond, !dbg !7562

for.cond:                                         ; preds = %for.inc, %entry
  %1 = load i32, i32* %c, align 4, !dbg !7563
  %2 = bitcast %"class.dealii::ZeroFunction"* %this1 to %"class.dealii::Function"*, !dbg !7565
  %n_components = getelementptr inbounds %"class.dealii::Function", %"class.dealii::Function"* %2, i32 0, i32 2, !dbg !7565
  %3 = load i32, i32* %n_components, align 8, !dbg !7565
  %cmp = icmp ult i32 %1, %3, !dbg !7566
  br i1 %cmp, label %for.body, label %for.end, !dbg !7567

for.body:                                         ; preds = %for.cond
  %4 = load %"class.std::vector.13"*, %"class.std::vector.13"** %gradients.addr, align 8, !dbg !7568
  %5 = load i32, i32* %c, align 4, !dbg !7569
  %conv = zext i32 %5 to i64, !dbg !7569
  %call = call dereferenceable(8) %"class.dealii::Tensor"* @_ZNSt6vectorIN6dealii6TensorILi1ELi1EEESaIS2_EEixEm(%"class.std::vector.13"* %4, i64 %conv) #7, !dbg !7568
  call void @_ZN6dealii6TensorILi1ELi1EE5clearEv(%"class.dealii::Tensor"* %call), !dbg !7570
  br label %for.inc, !dbg !7568

for.inc:                                          ; preds = %for.body
  %6 = load i32, i32* %c, align 4, !dbg !7571
  %inc = add i32 %6, 1, !dbg !7571
  store i32 %inc, i32* %c, align 4, !dbg !7571
  br label %for.cond, !dbg !7572, !llvm.loop !7573

for.end:                                          ; preds = %for.cond
  ret void, !dbg !7575
}

; Function Attrs: noinline nounwind uwtable
define linkonce_odr dso_local void @_ZN6dealii6TensorILi1ELi1EE5clearEv(%"class.dealii::Tensor"* %this) #4 comdat align 2 !dbg !7576 {
entry:
  %this.addr = alloca %"class.dealii::Tensor"*, align 8
  %i = alloca i32, align 4
  store %"class.dealii::Tensor"* %this, %"class.dealii::Tensor"** %this.addr, align 8
  call void @llvm.dbg.declare(metadata %"class.dealii::Tensor"** %this.addr, metadata !7577, metadata !DIExpression()), !dbg !7578
  %this1 = load %"class.dealii::Tensor"*, %"class.dealii::Tensor"** %this.addr, align 8
  call void @llvm.dbg.declare(metadata i32* %i, metadata !7579, metadata !DIExpression()), !dbg !7581
  store i32 0, i32* %i, align 4, !dbg !7581
  br label %for.cond, !dbg !7582

for.cond:                                         ; preds = %for.inc, %entry
  %0 = load i32, i32* %i, align 4, !dbg !7583
  %cmp = icmp ult i32 %0, 1, !dbg !7585
  br i1 %cmp, label %for.body, label %for.end, !dbg !7586

for.body:                                         ; preds = %for.cond
  %values = getelementptr inbounds %"class.dealii::Tensor", %"class.dealii::Tensor"* %this1, i32 0, i32 0, !dbg !7587
  %1 = load i32, i32* %i, align 4, !dbg !7588
  %idxprom = zext i32 %1 to i64, !dbg !7587
  %arrayidx = getelementptr inbounds [1 x double], [1 x double]* %values, i64 0, i64 %idxprom, !dbg !7587
  store double 0.000000e+00, double* %arrayidx, align 8, !dbg !7589
  br label %for.inc, !dbg !7587

for.inc:                                          ; preds = %for.body
  %2 = load i32, i32* %i, align 4, !dbg !7590
  %inc = add i32 %2, 1, !dbg !7590
  store i32 %inc, i32* %i, align 4, !dbg !7590
  br label %for.cond, !dbg !7591, !llvm.loop !7592

for.end:                                          ; preds = %for.cond
  ret void, !dbg !7594
}

; Function Attrs: noinline uwtable
define weak_odr dso_local void @_ZNK6dealii12ZeroFunctionILi1EE13gradient_listERKSt6vectorINS_5PointILi1EEESaIS4_EERS2_INS_6TensorILi1ELi1EEESaISA_EEj(%"class.dealii::ZeroFunction"* %this, %"class.std::vector"* dereferenceable(24) %points, %"class.std::vector.13"* dereferenceable(24) %gradients, i32 %0) unnamed_addr #0 comdat align 2 !dbg !7595 {
entry:
  %this.addr = alloca %"class.dealii::ZeroFunction"*, align 8
  %points.addr = alloca %"class.std::vector"*, align 8
  %gradients.addr = alloca %"class.std::vector.13"*, align 8
  %.addr = alloca i32, align 4
  %i = alloca i32, align 4
  store %"class.dealii::ZeroFunction"* %this, %"class.dealii::ZeroFunction"** %this.addr, align 8
  call void @llvm.dbg.declare(metadata %"class.dealii::ZeroFunction"** %this.addr, metadata !7596, metadata !DIExpression()), !dbg !7597
  store %"class.std::vector"* %points, %"class.std::vector"** %points.addr, align 8
  call void @llvm.dbg.declare(metadata %"class.std::vector"** %points.addr, metadata !7598, metadata !DIExpression()), !dbg !7599
  store %"class.std::vector.13"* %gradients, %"class.std::vector.13"** %gradients.addr, align 8
  call void @llvm.dbg.declare(metadata %"class.std::vector.13"** %gradients.addr, metadata !7600, metadata !DIExpression()), !dbg !7601
  store i32 %0, i32* %.addr, align 4
  call void @llvm.dbg.declare(metadata i32* %.addr, metadata !7602, metadata !DIExpression()), !dbg !7603
  %this1 = load %"class.dealii::ZeroFunction"*, %"class.dealii::ZeroFunction"** %this.addr, align 8
  call void @llvm.dbg.declare(metadata i32* %i, metadata !7604, metadata !DIExpression()), !dbg !7606
  store i32 0, i32* %i, align 4, !dbg !7606
  br label %for.cond, !dbg !7607

for.cond:                                         ; preds = %for.inc, %entry
  %1 = load i32, i32* %i, align 4, !dbg !7608
  %conv = zext i32 %1 to i64, !dbg !7608
  %2 = load %"class.std::vector"*, %"class.std::vector"** %points.addr, align 8, !dbg !7610
  %call = call i64 @_ZNKSt6vectorIN6dealii5PointILi1EEESaIS2_EE4sizeEv(%"class.std::vector"* %2) #7, !dbg !7611
  %cmp = icmp ult i64 %conv, %call, !dbg !7612
  br i1 %cmp, label %for.body, label %for.end, !dbg !7613

for.body:                                         ; preds = %for.cond
  %3 = load %"class.std::vector.13"*, %"class.std::vector.13"** %gradients.addr, align 8, !dbg !7614
  %4 = load i32, i32* %i, align 4, !dbg !7615
  %conv2 = zext i32 %4 to i64, !dbg !7615
  %call3 = call dereferenceable(8) %"class.dealii::Tensor"* @_ZNSt6vectorIN6dealii6TensorILi1ELi1EEESaIS2_EEixEm(%"class.std::vector.13"* %3, i64 %conv2) #7, !dbg !7614
  call void @_ZN6dealii6TensorILi1ELi1EE5clearEv(%"class.dealii::Tensor"* %call3), !dbg !7616
  br label %for.inc, !dbg !7614

for.inc:                                          ; preds = %for.body
  %5 = load i32, i32* %i, align 4, !dbg !7617
  %inc = add i32 %5, 1, !dbg !7617
  store i32 %inc, i32* %i, align 4, !dbg !7617
  br label %for.cond, !dbg !7618, !llvm.loop !7619

for.end:                                          ; preds = %for.cond
  ret void, !dbg !7621
}

; Function Attrs: noinline uwtable
define weak_odr dso_local void @_ZNK6dealii12ZeroFunctionILi1EE20vector_gradient_listERKSt6vectorINS_5PointILi1EEESaIS4_EERS2_IS2_INS_6TensorILi1ELi1EEESaISA_EESaISC_EE(%"class.dealii::ZeroFunction"* %this, %"class.std::vector"* dereferenceable(24) %points, %"class.std::vector.18"* dereferenceable(24) %gradients) unnamed_addr #0 comdat align 2 !dbg !7622 {
entry:
  %this.addr = alloca %"class.dealii::ZeroFunction"*, align 8
  %points.addr = alloca %"class.std::vector"*, align 8
  %gradients.addr = alloca %"class.std::vector.18"*, align 8
  %i = alloca i32, align 4
  %c = alloca i32, align 4
  store %"class.dealii::ZeroFunction"* %this, %"class.dealii::ZeroFunction"** %this.addr, align 8
  call void @llvm.dbg.declare(metadata %"class.dealii::ZeroFunction"** %this.addr, metadata !7623, metadata !DIExpression()), !dbg !7624
  store %"class.std::vector"* %points, %"class.std::vector"** %points.addr, align 8
  call void @llvm.dbg.declare(metadata %"class.std::vector"** %points.addr, metadata !7625, metadata !DIExpression()), !dbg !7626
  store %"class.std::vector.18"* %gradients, %"class.std::vector.18"** %gradients.addr, align 8
  call void @llvm.dbg.declare(metadata %"class.std::vector.18"** %gradients.addr, metadata !7627, metadata !DIExpression()), !dbg !7628
  %this1 = load %"class.dealii::ZeroFunction"*, %"class.dealii::ZeroFunction"** %this.addr, align 8
  call void @llvm.dbg.declare(metadata i32* %i, metadata !7629, metadata !DIExpression()), !dbg !7631
  store i32 0, i32* %i, align 4, !dbg !7631
  br label %for.cond, !dbg !7632

for.cond:                                         ; preds = %for.inc9, %entry
  %0 = load i32, i32* %i, align 4, !dbg !7633
  %conv = zext i32 %0 to i64, !dbg !7633
  %1 = load %"class.std::vector"*, %"class.std::vector"** %points.addr, align 8, !dbg !7635
  %call = call i64 @_ZNKSt6vectorIN6dealii5PointILi1EEESaIS2_EE4sizeEv(%"class.std::vector"* %1) #7, !dbg !7636
  %cmp = icmp ult i64 %conv, %call, !dbg !7637
  br i1 %cmp, label %for.body, label %for.end11, !dbg !7638

for.body:                                         ; preds = %for.cond
  call void @llvm.dbg.declare(metadata i32* %c, metadata !7639, metadata !DIExpression()), !dbg !7642
  store i32 0, i32* %c, align 4, !dbg !7642
  br label %for.cond2, !dbg !7643

for.cond2:                                        ; preds = %for.inc, %for.body
  %2 = load i32, i32* %c, align 4, !dbg !7644
  %3 = bitcast %"class.dealii::ZeroFunction"* %this1 to %"class.dealii::Function"*, !dbg !7646
  %n_components = getelementptr inbounds %"class.dealii::Function", %"class.dealii::Function"* %3, i32 0, i32 2, !dbg !7646
  %4 = load i32, i32* %n_components, align 8, !dbg !7646
  %cmp3 = icmp ult i32 %2, %4, !dbg !7647
  br i1 %cmp3, label %for.body4, label %for.end, !dbg !7648

for.body4:                                        ; preds = %for.cond2
  %5 = load %"class.std::vector.18"*, %"class.std::vector.18"** %gradients.addr, align 8, !dbg !7649
  %6 = load i32, i32* %i, align 4, !dbg !7650
  %conv5 = zext i32 %6 to i64, !dbg !7650
  %call6 = call dereferenceable(24) %"class.std::vector.13"* @_ZNSt6vectorIS_IN6dealii6TensorILi1ELi1EEESaIS2_EESaIS4_EEixEm(%"class.std::vector.18"* %5, i64 %conv5) #7, !dbg !7649
  %7 = load i32, i32* %c, align 4, !dbg !7651
  %conv7 = zext i32 %7 to i64, !dbg !7651
  %call8 = call dereferenceable(8) %"class.dealii::Tensor"* @_ZNSt6vectorIN6dealii6TensorILi1ELi1EEESaIS2_EEixEm(%"class.std::vector.13"* %call6, i64 %conv7) #7, !dbg !7649
  call void @_ZN6dealii6TensorILi1ELi1EE5clearEv(%"class.dealii::Tensor"* %call8), !dbg !7652
  br label %for.inc, !dbg !7649

for.inc:                                          ; preds = %for.body4
  %8 = load i32, i32* %c, align 4, !dbg !7653
  %inc = add i32 %8, 1, !dbg !7653
  store i32 %inc, i32* %c, align 4, !dbg !7653
  br label %for.cond2, !dbg !7654, !llvm.loop !7655

for.end:                                          ; preds = %for.cond2
  br label %for.inc9, !dbg !7657

for.inc9:                                         ; preds = %for.end
  %9 = load i32, i32* %i, align 4, !dbg !7658
  %inc10 = add i32 %9, 1, !dbg !7658
  store i32 %inc10, i32* %i, align 4, !dbg !7658
  br label %for.cond, !dbg !7659, !llvm.loop !7660

for.end11:                                        ; preds = %for.cond
  ret void, !dbg !7662
}

; Function Attrs: noinline uwtable
define weak_odr dso_local void @_ZN6dealii16ConstantFunctionILi1EEC2Edj(%"class.dealii::ConstantFunction"* %this, double %value, i32 %n_components) unnamed_addr #0 comdat($_ZN6dealii16ConstantFunctionILi1EEC5Edj) align 2 !dbg !7663 {
entry:
  %this.addr = alloca %"class.dealii::ConstantFunction"*, align 8
  %value.addr = alloca double, align 8
  %n_components.addr = alloca i32, align 4
  store %"class.dealii::ConstantFunction"* %this, %"class.dealii::ConstantFunction"** %this.addr, align 8
  call void @llvm.dbg.declare(metadata %"class.dealii::ConstantFunction"** %this.addr, metadata !7664, metadata !DIExpression()), !dbg !7666
  store double %value, double* %value.addr, align 8
  call void @llvm.dbg.declare(metadata double* %value.addr, metadata !7667, metadata !DIExpression()), !dbg !7668
  store i32 %n_components, i32* %n_components.addr, align 4
  call void @llvm.dbg.declare(metadata i32* %n_components.addr, metadata !7669, metadata !DIExpression()), !dbg !7670
  %this1 = load %"class.dealii::ConstantFunction"*, %"class.dealii::ConstantFunction"** %this.addr, align 8
  %0 = bitcast %"class.dealii::ConstantFunction"* %this1 to %"class.dealii::ZeroFunction"*, !dbg !7671
  %1 = load i32, i32* %n_components.addr, align 4, !dbg !7672
  call void @_ZN6dealii12ZeroFunctionILi1EEC2Ej(%"class.dealii::ZeroFunction"* %0, i32 %1), !dbg !7673
  %2 = bitcast %"class.dealii::ConstantFunction"* %this1 to i32 (...)***, !dbg !7671
  store i32 (...)** bitcast (i8** getelementptr inbounds ({ [18 x i8*], [4 x i8*] }, { [18 x i8*], [4 x i8*] }* @_ZTVN6dealii16ConstantFunctionILi1EEE, i32 0, inrange i32 0, i32 2) to i32 (...)**), i32 (...)*** %2, align 8, !dbg !7671
  %3 = bitcast %"class.dealii::ConstantFunction"* %this1 to i8*, !dbg !7671
  %add.ptr = getelementptr inbounds i8, i8* %3, i64 16, !dbg !7671
  %4 = bitcast i8* %add.ptr to i32 (...)***, !dbg !7671
  store i32 (...)** bitcast (i8** getelementptr inbounds ({ [18 x i8*], [4 x i8*] }, { [18 x i8*], [4 x i8*] }* @_ZTVN6dealii16ConstantFunctionILi1EEE, i32 0, inrange i32 1, i32 2) to i32 (...)**), i32 (...)*** %4, align 8, !dbg !7671
  %function_value = getelementptr inbounds %"class.dealii::ConstantFunction", %"class.dealii::ConstantFunction"* %this1, i32 0, i32 1, !dbg !7674
  %5 = load double, double* %value.addr, align 8, !dbg !7675
  store double %5, double* %function_value, align 8, !dbg !7674
  ret void, !dbg !7676
}

; Function Attrs: noinline nounwind uwtable
define weak_odr dso_local void @_ZN6dealii16ConstantFunctionILi1EED2Ev(%"class.dealii::ConstantFunction"* %this) unnamed_addr #4 comdat($_ZN6dealii16ConstantFunctionILi1EED5Ev) align 2 !dbg !7677 {
entry:
  %this.addr = alloca %"class.dealii::ConstantFunction"*, align 8
  store %"class.dealii::ConstantFunction"* %this, %"class.dealii::ConstantFunction"** %this.addr, align 8
  call void @llvm.dbg.declare(metadata %"class.dealii::ConstantFunction"** %this.addr, metadata !7678, metadata !DIExpression()), !dbg !7679
  %this1 = load %"class.dealii::ConstantFunction"*, %"class.dealii::ConstantFunction"** %this.addr, align 8
  %0 = bitcast %"class.dealii::ConstantFunction"* %this1 to %"class.dealii::ZeroFunction"*, !dbg !7680
  call void @_ZN6dealii12ZeroFunctionILi1EED2Ev(%"class.dealii::ZeroFunction"* %0) #7, !dbg !7680
  ret void, !dbg !7682
}

; Function Attrs: noinline nounwind uwtable
define weak_odr dso_local void @_ZThn16_N6dealii16ConstantFunctionILi1EED1Ev(%"class.dealii::ConstantFunction"* %this) unnamed_addr #4 comdat align 2 !dbg !7683 {
entry:
  %this.addr = alloca %"class.dealii::ConstantFunction"*, align 8
  store %"class.dealii::ConstantFunction"* %this, %"class.dealii::ConstantFunction"** %this.addr, align 8
  %this1 = load %"class.dealii::ConstantFunction"*, %"class.dealii::ConstantFunction"** %this.addr, align 8, !dbg !7684
  %0 = bitcast %"class.dealii::ConstantFunction"* %this1 to i8*, !dbg !7684
  %1 = getelementptr inbounds i8, i8* %0, i64 -16, !dbg !7684
  %2 = bitcast i8* %1 to %"class.dealii::ConstantFunction"*, !dbg !7684
  tail call void @_ZN6dealii16ConstantFunctionILi1EED1Ev(%"class.dealii::ConstantFunction"* %2) #7, !dbg !7684
  ret void, !dbg !7684
}

; Function Attrs: noinline nounwind uwtable
define weak_odr dso_local void @_ZN6dealii16ConstantFunctionILi1EED0Ev(%"class.dealii::ConstantFunction"* %this) unnamed_addr #4 comdat($_ZN6dealii16ConstantFunctionILi1EED5Ev) align 2 !dbg !7685 {
entry:
  %this.addr = alloca %"class.dealii::ConstantFunction"*, align 8
  store %"class.dealii::ConstantFunction"* %this, %"class.dealii::ConstantFunction"** %this.addr, align 8
  call void @llvm.dbg.declare(metadata %"class.dealii::ConstantFunction"** %this.addr, metadata !7686, metadata !DIExpression()), !dbg !7687
  %this1 = load %"class.dealii::ConstantFunction"*, %"class.dealii::ConstantFunction"** %this.addr, align 8
  call void @_ZN6dealii16ConstantFunctionILi1EED1Ev(%"class.dealii::ConstantFunction"* %this1) #7, !dbg !7688
  %0 = bitcast %"class.dealii::ConstantFunction"* %this1 to i8*, !dbg !7688
  call void @_ZdlPv(i8* %0) #8, !dbg !7688
  ret void, !dbg !7689
}

; Function Attrs: noinline nounwind uwtable
define weak_odr dso_local void @_ZThn16_N6dealii16ConstantFunctionILi1EED0Ev(%"class.dealii::ConstantFunction"* %this) unnamed_addr #4 comdat align 2 !dbg !7690 {
entry:
  %this.addr = alloca %"class.dealii::ConstantFunction"*, align 8
  store %"class.dealii::ConstantFunction"* %this, %"class.dealii::ConstantFunction"** %this.addr, align 8
  %this1 = load %"class.dealii::ConstantFunction"*, %"class.dealii::ConstantFunction"** %this.addr, align 8, !dbg !7691
  %0 = bitcast %"class.dealii::ConstantFunction"* %this1 to i8*, !dbg !7691
  %1 = getelementptr inbounds i8, i8* %0, i64 -16, !dbg !7691
  %2 = bitcast i8* %1 to %"class.dealii::ConstantFunction"*, !dbg !7691
  tail call void @_ZN6dealii16ConstantFunctionILi1EED0Ev(%"class.dealii::ConstantFunction"* %2) #7, !dbg !7691
  ret void, !dbg !7691
}

; Function Attrs: noinline nounwind uwtable
define weak_odr dso_local double @_ZNK6dealii16ConstantFunctionILi1EE5valueERKNS_5PointILi1EEEj(%"class.dealii::ConstantFunction"* %this, %"class.dealii::Point"* dereferenceable(8) %0, i32 %component) unnamed_addr #4 comdat align 2 !dbg !7692 {
entry:
  %this.addr = alloca %"class.dealii::ConstantFunction"*, align 8
  %.addr = alloca %"class.dealii::Point"*, align 8
  %component.addr = alloca i32, align 4
  store %"class.dealii::ConstantFunction"* %this, %"class.dealii::ConstantFunction"** %this.addr, align 8
  call void @llvm.dbg.declare(metadata %"class.dealii::ConstantFunction"** %this.addr, metadata !7693, metadata !DIExpression()), !dbg !7695
  store %"class.dealii::Point"* %0, %"class.dealii::Point"** %.addr, align 8
  call void @llvm.dbg.declare(metadata %"class.dealii::Point"** %.addr, metadata !7696, metadata !DIExpression()), !dbg !7697
  store i32 %component, i32* %component.addr, align 4
  call void @llvm.dbg.declare(metadata i32* %component.addr, metadata !7698, metadata !DIExpression()), !dbg !7699
  %this1 = load %"class.dealii::ConstantFunction"*, %"class.dealii::ConstantFunction"** %this.addr, align 8
  %function_value = getelementptr inbounds %"class.dealii::ConstantFunction", %"class.dealii::ConstantFunction"* %this1, i32 0, i32 1, !dbg !7700
  %1 = load double, double* %function_value, align 8, !dbg !7700
  ret double %1, !dbg !7701
}

; Function Attrs: noinline uwtable
define weak_odr dso_local void @_ZNK6dealii16ConstantFunctionILi1EE12vector_valueERKNS_5PointILi1EEERNS_6VectorIdEE(%"class.dealii::ConstantFunction"* %this, %"class.dealii::Point"* dereferenceable(8) %0, %"class.dealii::Vector"* dereferenceable(88) %return_value) unnamed_addr #0 comdat align 2 !dbg !7702 {
entry:
  %this.addr = alloca %"class.dealii::ConstantFunction"*, align 8
  %.addr = alloca %"class.dealii::Point"*, align 8
  %return_value.addr = alloca %"class.dealii::Vector"*, align 8
  store %"class.dealii::ConstantFunction"* %this, %"class.dealii::ConstantFunction"** %this.addr, align 8
  call void @llvm.dbg.declare(metadata %"class.dealii::ConstantFunction"** %this.addr, metadata !7703, metadata !DIExpression()), !dbg !7704
  store %"class.dealii::Point"* %0, %"class.dealii::Point"** %.addr, align 8
  call void @llvm.dbg.declare(metadata %"class.dealii::Point"** %.addr, metadata !7705, metadata !DIExpression()), !dbg !7706
  store %"class.dealii::Vector"* %return_value, %"class.dealii::Vector"** %return_value.addr, align 8
  call void @llvm.dbg.declare(metadata %"class.dealii::Vector"** %return_value.addr, metadata !7707, metadata !DIExpression()), !dbg !7708
  %this1 = load %"class.dealii::ConstantFunction"*, %"class.dealii::ConstantFunction"** %this.addr, align 8
  %1 = load %"class.dealii::Vector"*, %"class.dealii::Vector"** %return_value.addr, align 8, !dbg !7709
  %call = call double* @_ZN6dealii6VectorIdE5beginEv(%"class.dealii::Vector"* %1), !dbg !7710
  %2 = load %"class.dealii::Vector"*, %"class.dealii::Vector"** %return_value.addr, align 8, !dbg !7711
  %call2 = call double* @_ZN6dealii6VectorIdE3endEv(%"class.dealii::Vector"* %2), !dbg !7712
  %function_value = getelementptr inbounds %"class.dealii::ConstantFunction", %"class.dealii::ConstantFunction"* %this1, i32 0, i32 1, !dbg !7713
  call void @_ZSt4fillIPddEvT_S1_RKT0_(double* %call, double* %call2, double* dereferenceable(8) %function_value), !dbg !7714
  ret void, !dbg !7715
}

; Function Attrs: noinline uwtable
define weak_odr dso_local void @_ZNK6dealii16ConstantFunctionILi1EE10value_listERKSt6vectorINS_5PointILi1EEESaIS4_EERS2_IdSaIdEEj(%"class.dealii::ConstantFunction"* %this, %"class.std::vector"* dereferenceable(24) %points, %"class.std::vector.3"* dereferenceable(24) %values, i32 %component) unnamed_addr #0 comdat align 2 !dbg !7716 {
entry:
  %this.addr = alloca %"class.dealii::ConstantFunction"*, align 8
  %points.addr = alloca %"class.std::vector"*, align 8
  %values.addr = alloca %"class.std::vector.3"*, align 8
  %component.addr = alloca i32, align 4
  %agg.tmp = alloca %"class.__gnu_cxx::__normal_iterator", align 8
  %agg.tmp2 = alloca %"class.__gnu_cxx::__normal_iterator", align 8
  store %"class.dealii::ConstantFunction"* %this, %"class.dealii::ConstantFunction"** %this.addr, align 8
  call void @llvm.dbg.declare(metadata %"class.dealii::ConstantFunction"** %this.addr, metadata !7717, metadata !DIExpression()), !dbg !7718
  store %"class.std::vector"* %points, %"class.std::vector"** %points.addr, align 8
  call void @llvm.dbg.declare(metadata %"class.std::vector"** %points.addr, metadata !7719, metadata !DIExpression()), !dbg !7720
  store %"class.std::vector.3"* %values, %"class.std::vector.3"** %values.addr, align 8
  call void @llvm.dbg.declare(metadata %"class.std::vector.3"** %values.addr, metadata !7721, metadata !DIExpression()), !dbg !7722
  store i32 %component, i32* %component.addr, align 4
  call void @llvm.dbg.declare(metadata i32* %component.addr, metadata !7723, metadata !DIExpression()), !dbg !7724
  %this1 = load %"class.dealii::ConstantFunction"*, %"class.dealii::ConstantFunction"** %this.addr, align 8
  %0 = load %"class.std::vector.3"*, %"class.std::vector.3"** %values.addr, align 8, !dbg !7725
  %call = call double* @_ZNSt6vectorIdSaIdEE5beginEv(%"class.std::vector.3"* %0) #7, !dbg !7726
  %coerce.dive = getelementptr inbounds %"class.__gnu_cxx::__normal_iterator", %"class.__gnu_cxx::__normal_iterator"* %agg.tmp, i32 0, i32 0, !dbg !7726
  store double* %call, double** %coerce.dive, align 8, !dbg !7726
  %1 = load %"class.std::vector.3"*, %"class.std::vector.3"** %values.addr, align 8, !dbg !7727
  %call3 = call double* @_ZNSt6vectorIdSaIdEE3endEv(%"class.std::vector.3"* %1) #7, !dbg !7728
  %coerce.dive4 = getelementptr inbounds %"class.__gnu_cxx::__normal_iterator", %"class.__gnu_cxx::__normal_iterator"* %agg.tmp2, i32 0, i32 0, !dbg !7728
  store double* %call3, double** %coerce.dive4, align 8, !dbg !7728
  %function_value = getelementptr inbounds %"class.dealii::ConstantFunction", %"class.dealii::ConstantFunction"* %this1, i32 0, i32 1, !dbg !7729
  %coerce.dive5 = getelementptr inbounds %"class.__gnu_cxx::__normal_iterator", %"class.__gnu_cxx::__normal_iterator"* %agg.tmp, i32 0, i32 0, !dbg !7730
  %2 = load double*, double** %coerce.dive5, align 8, !dbg !7730
  %coerce.dive6 = getelementptr inbounds %"class.__gnu_cxx::__normal_iterator", %"class.__gnu_cxx::__normal_iterator"* %agg.tmp2, i32 0, i32 0, !dbg !7730
  %3 = load double*, double** %coerce.dive6, align 8, !dbg !7730
  call void @_ZSt4fillIN9__gnu_cxx17__normal_iteratorIPdSt6vectorIdSaIdEEEEdEvT_S7_RKT0_(double* %2, double* %3, double* dereferenceable(8) %function_value), !dbg !7730
  ret void, !dbg !7731
}

; Function Attrs: noinline uwtable
define weak_odr dso_local void @_ZNK6dealii16ConstantFunctionILi1EE17vector_value_listERKSt6vectorINS_5PointILi1EEESaIS4_EERS2_INS_6VectorIdEESaISA_EE(%"class.dealii::ConstantFunction"* %this, %"class.std::vector"* dereferenceable(24) %points, %"class.std::vector.8"* dereferenceable(24) %values) unnamed_addr #0 comdat align 2 !dbg !7732 {
entry:
  %this.addr = alloca %"class.dealii::ConstantFunction"*, align 8
  %points.addr = alloca %"class.std::vector"*, align 8
  %values.addr = alloca %"class.std::vector.8"*, align 8
  %i = alloca i32, align 4
  store %"class.dealii::ConstantFunction"* %this, %"class.dealii::ConstantFunction"** %this.addr, align 8
  call void @llvm.dbg.declare(metadata %"class.dealii::ConstantFunction"** %this.addr, metadata !7733, metadata !DIExpression()), !dbg !7734
  store %"class.std::vector"* %points, %"class.std::vector"** %points.addr, align 8
  call void @llvm.dbg.declare(metadata %"class.std::vector"** %points.addr, metadata !7735, metadata !DIExpression()), !dbg !7736
  store %"class.std::vector.8"* %values, %"class.std::vector.8"** %values.addr, align 8
  call void @llvm.dbg.declare(metadata %"class.std::vector.8"** %values.addr, metadata !7737, metadata !DIExpression()), !dbg !7738
  %this1 = load %"class.dealii::ConstantFunction"*, %"class.dealii::ConstantFunction"** %this.addr, align 8
  call void @llvm.dbg.declare(metadata i32* %i, metadata !7739, metadata !DIExpression()), !dbg !7741
  store i32 0, i32* %i, align 4, !dbg !7741
  br label %for.cond, !dbg !7742

for.cond:                                         ; preds = %for.inc, %entry
  %0 = load i32, i32* %i, align 4, !dbg !7743
  %conv = zext i32 %0 to i64, !dbg !7743
  %1 = load %"class.std::vector"*, %"class.std::vector"** %points.addr, align 8, !dbg !7745
  %call = call i64 @_ZNKSt6vectorIN6dealii5PointILi1EEESaIS2_EE4sizeEv(%"class.std::vector"* %1) #7, !dbg !7746
  %cmp = icmp ult i64 %conv, %call, !dbg !7747
  br i1 %cmp, label %for.body, label %for.end, !dbg !7748

for.body:                                         ; preds = %for.cond
  %2 = load %"class.std::vector.8"*, %"class.std::vector.8"** %values.addr, align 8, !dbg !7749
  %3 = load i32, i32* %i, align 4, !dbg !7751
  %conv2 = zext i32 %3 to i64, !dbg !7751
  %call3 = call dereferenceable(88) %"class.dealii::Vector"* @_ZNSt6vectorIN6dealii6VectorIdEESaIS2_EEixEm(%"class.std::vector.8"* %2, i64 %conv2) #7, !dbg !7749
  %call4 = call double* @_ZN6dealii6VectorIdE5beginEv(%"class.dealii::Vector"* %call3), !dbg !7752
  %4 = load %"class.std::vector.8"*, %"class.std::vector.8"** %values.addr, align 8, !dbg !7753
  %5 = load i32, i32* %i, align 4, !dbg !7754
  %conv5 = zext i32 %5 to i64, !dbg !7754
  %call6 = call dereferenceable(88) %"class.dealii::Vector"* @_ZNSt6vectorIN6dealii6VectorIdEESaIS2_EEixEm(%"class.std::vector.8"* %4, i64 %conv5) #7, !dbg !7753
  %call7 = call double* @_ZN6dealii6VectorIdE3endEv(%"class.dealii::Vector"* %call6), !dbg !7755
  %function_value = getelementptr inbounds %"class.dealii::ConstantFunction", %"class.dealii::ConstantFunction"* %this1, i32 0, i32 1, !dbg !7756
  call void @_ZSt4fillIPddEvT_S1_RKT0_(double* %call4, double* %call7, double* dereferenceable(8) %function_value), !dbg !7757
  br label %for.inc, !dbg !7758

for.inc:                                          ; preds = %for.body
  %6 = load i32, i32* %i, align 4, !dbg !7759
  %inc = add i32 %6, 1, !dbg !7759
  store i32 %inc, i32* %i, align 4, !dbg !7759
  br label %for.cond, !dbg !7760, !llvm.loop !7761

for.end:                                          ; preds = %for.cond
  ret void, !dbg !7763
}

; Function Attrs: noinline nounwind uwtable
define weak_odr dso_local i32 @_ZNK6dealii16ConstantFunctionILi1EE18memory_consumptionEv(%"class.dealii::ConstantFunction"* %this) #4 comdat align 2 !dbg !7764 {
entry:
  %this.addr = alloca %"class.dealii::ConstantFunction"*, align 8
  store %"class.dealii::ConstantFunction"* %this, %"class.dealii::ConstantFunction"** %this.addr, align 8
  call void @llvm.dbg.declare(metadata %"class.dealii::ConstantFunction"** %this.addr, metadata !7765, metadata !DIExpression()), !dbg !7766
  %this1 = load %"class.dealii::ConstantFunction"*, %"class.dealii::ConstantFunction"** %this.addr, align 8
  ret i32 104, !dbg !7767
}

; Function Attrs: noinline uwtable
define weak_odr dso_local void @_ZN6dealii23ComponentSelectFunctionILi1EEC2Ejdj(%"class.dealii::ComponentSelectFunction"* %this, i32 %selected, double %value, i32 %n_components) unnamed_addr #0 comdat($_ZN6dealii23ComponentSelectFunctionILi1EEC5Ejdj) align 2 personality i8* bitcast (i32 (...)* @__gxx_personality_v0 to i8*) !dbg !7768 {
entry:
  %this.addr = alloca %"class.dealii::ComponentSelectFunction"*, align 8
  %selected.addr = alloca i32, align 4
  %value.addr = alloca double, align 8
  %n_components.addr = alloca i32, align 4
  %ref.tmp = alloca i32, align 4
  %exn.slot = alloca i8*
  %ehselector.slot = alloca i32
  store %"class.dealii::ComponentSelectFunction"* %this, %"class.dealii::ComponentSelectFunction"** %this.addr, align 8
  call void @llvm.dbg.declare(metadata %"class.dealii::ComponentSelectFunction"** %this.addr, metadata !7769, metadata !DIExpression()), !dbg !7771
  store i32 %selected, i32* %selected.addr, align 4
  call void @llvm.dbg.declare(metadata i32* %selected.addr, metadata !7772, metadata !DIExpression()), !dbg !7773
  store double %value, double* %value.addr, align 8
  call void @llvm.dbg.declare(metadata double* %value.addr, metadata !7774, metadata !DIExpression()), !dbg !7775
  store i32 %n_components, i32* %n_components.addr, align 4
  call void @llvm.dbg.declare(metadata i32* %n_components.addr, metadata !7776, metadata !DIExpression()), !dbg !7777
  %this1 = load %"class.dealii::ComponentSelectFunction"*, %"class.dealii::ComponentSelectFunction"** %this.addr, align 8
  %0 = bitcast %"class.dealii::ComponentSelectFunction"* %this1 to %"class.dealii::ConstantFunction"*, !dbg !7778
  %1 = load double, double* %value.addr, align 8, !dbg !7779
  %2 = load i32, i32* %n_components.addr, align 4, !dbg !7780
  call void @_ZN6dealii16ConstantFunctionILi1EEC2Edj(%"class.dealii::ConstantFunction"* %0, double %1, i32 %2), !dbg !7781
  %3 = bitcast %"class.dealii::ComponentSelectFunction"* %this1 to i32 (...)***, !dbg !7778
  store i32 (...)** bitcast (i8** getelementptr inbounds ({ [18 x i8*], [4 x i8*] }, { [18 x i8*], [4 x i8*] }* @_ZTVN6dealii23ComponentSelectFunctionILi1EEE, i32 0, inrange i32 0, i32 2) to i32 (...)**), i32 (...)*** %3, align 8, !dbg !7778
  %4 = bitcast %"class.dealii::ComponentSelectFunction"* %this1 to i8*, !dbg !7778
  %add.ptr = getelementptr inbounds i8, i8* %4, i64 16, !dbg !7778
  %5 = bitcast i8* %add.ptr to i32 (...)***, !dbg !7778
  store i32 (...)** bitcast (i8** getelementptr inbounds ({ [18 x i8*], [4 x i8*] }, { [18 x i8*], [4 x i8*] }* @_ZTVN6dealii23ComponentSelectFunctionILi1EEE, i32 0, inrange i32 1, i32 2) to i32 (...)**), i32 (...)*** %5, align 8, !dbg !7778
  %selected_components = getelementptr inbounds %"class.dealii::ComponentSelectFunction", %"class.dealii::ComponentSelectFunction"* %this1, i32 0, i32 1, !dbg !7782
  %6 = load i32, i32* %selected.addr, align 4, !dbg !7783
  %add = add i32 %6, 1, !dbg !7784
  store i32 %add, i32* %ref.tmp, align 4, !dbg !7783
  %call = invoke i64 @_ZSt9make_pairIRKjjESt4pairINSt25__strip_reference_wrapperINSt5decayIT_E4typeEE6__typeENS3_INS4_IT0_E4typeEE6__typeEEOS5_OSA_(i32* dereferenceable(4) %selected.addr, i32* dereferenceable(4) %ref.tmp)
          to label %invoke.cont unwind label %lpad, !dbg !7785

invoke.cont:                                      ; preds = %entry
  %7 = bitcast %"struct.std::pair"* %selected_components to i64*, !dbg !7785
  store i64 %call, i64* %7, align 8, !dbg !7785
  ret void, !dbg !7786

lpad:                                             ; preds = %entry
  %8 = landingpad { i8*, i32 }
          cleanup, !dbg !7786
  %9 = extractvalue { i8*, i32 } %8, 0, !dbg !7786
  store i8* %9, i8** %exn.slot, align 8, !dbg !7786
  %10 = extractvalue { i8*, i32 } %8, 1, !dbg !7786
  store i32 %10, i32* %ehselector.slot, align 4, !dbg !7786
  %11 = bitcast %"class.dealii::ComponentSelectFunction"* %this1 to %"class.dealii::ConstantFunction"*, !dbg !7787
  call void @_ZN6dealii16ConstantFunctionILi1EED2Ev(%"class.dealii::ConstantFunction"* %11) #7, !dbg !7787
  br label %eh.resume, !dbg !7787

eh.resume:                                        ; preds = %lpad
  %exn = load i8*, i8** %exn.slot, align 8, !dbg !7787
  %sel = load i32, i32* %ehselector.slot, align 4, !dbg !7787
  %lpad.val = insertvalue { i8*, i32 } undef, i8* %exn, 0, !dbg !7787
  %lpad.val2 = insertvalue { i8*, i32 } %lpad.val, i32 %sel, 1, !dbg !7787
  resume { i8*, i32 } %lpad.val2, !dbg !7787
}

; Function Attrs: noinline uwtable
define linkonce_odr dso_local i64 @_ZSt9make_pairIRKjjESt4pairINSt25__strip_reference_wrapperINSt5decayIT_E4typeEE6__typeENS3_INS4_IT0_E4typeEE6__typeEEOS5_OSA_(i32* dereferenceable(4) %__x, i32* dereferenceable(4) %__y) #0 comdat !dbg !7789 {
entry:
  %retval = alloca %"struct.std::pair", align 4
  %__x.addr = alloca i32*, align 8
  %__y.addr = alloca i32*, align 8
  store i32* %__x, i32** %__x.addr, align 8
  call void @llvm.dbg.declare(metadata i32** %__x.addr, metadata !7796, metadata !DIExpression()), !dbg !7797
  store i32* %__y, i32** %__y.addr, align 8
  call void @llvm.dbg.declare(metadata i32** %__y.addr, metadata !7798, metadata !DIExpression()), !dbg !7799
  %0 = load i32*, i32** %__x.addr, align 8, !dbg !7800
  %call = call dereferenceable(4) i32* @_ZSt7forwardIRKjEOT_RNSt16remove_referenceIS2_E4typeE(i32* dereferenceable(4) %0) #7, !dbg !7801
  %1 = load i32*, i32** %__y.addr, align 8, !dbg !7802
  %call1 = call dereferenceable(4) i32* @_ZSt7forwardIjEOT_RNSt16remove_referenceIS0_E4typeE(i32* dereferenceable(4) %1) #7, !dbg !7803
  call void @_ZNSt4pairIjjEC2IjLb1EEERKjOT_(%"struct.std::pair"* %retval, i32* dereferenceable(4) %call, i32* dereferenceable(4) %call1), !dbg !7804
  %2 = bitcast %"struct.std::pair"* %retval to i64*, !dbg !7805
  %3 = load i64, i64* %2, align 4, !dbg !7805
  ret i64 %3, !dbg !7805
}

; Function Attrs: noinline uwtable
define weak_odr dso_local void @_ZN6dealii23ComponentSelectFunctionILi1EEC2Ejj(%"class.dealii::ComponentSelectFunction"* %this, i32 %selected, i32 %n_components) unnamed_addr #0 comdat($_ZN6dealii23ComponentSelectFunctionILi1EEC5Ejj) align 2 personality i8* bitcast (i32 (...)* @__gxx_personality_v0 to i8*) !dbg !7806 {
entry:
  %this.addr = alloca %"class.dealii::ComponentSelectFunction"*, align 8
  %selected.addr = alloca i32, align 4
  %n_components.addr = alloca i32, align 4
  %ref.tmp = alloca i32, align 4
  %exn.slot = alloca i8*
  %ehselector.slot = alloca i32
  store %"class.dealii::ComponentSelectFunction"* %this, %"class.dealii::ComponentSelectFunction"** %this.addr, align 8
  call void @llvm.dbg.declare(metadata %"class.dealii::ComponentSelectFunction"** %this.addr, metadata !7807, metadata !DIExpression()), !dbg !7808
  store i32 %selected, i32* %selected.addr, align 4
  call void @llvm.dbg.declare(metadata i32* %selected.addr, metadata !7809, metadata !DIExpression()), !dbg !7810
  store i32 %n_components, i32* %n_components.addr, align 4
  call void @llvm.dbg.declare(metadata i32* %n_components.addr, metadata !7811, metadata !DIExpression()), !dbg !7812
  %this1 = load %"class.dealii::ComponentSelectFunction"*, %"class.dealii::ComponentSelectFunction"** %this.addr, align 8
  %0 = bitcast %"class.dealii::ComponentSelectFunction"* %this1 to %"class.dealii::ConstantFunction"*, !dbg !7813
  %1 = load i32, i32* %n_components.addr, align 4, !dbg !7814
  call void @_ZN6dealii16ConstantFunctionILi1EEC2Edj(%"class.dealii::ConstantFunction"* %0, double 1.000000e+00, i32 %1), !dbg !7815
  %2 = bitcast %"class.dealii::ComponentSelectFunction"* %this1 to i32 (...)***, !dbg !7813
  store i32 (...)** bitcast (i8** getelementptr inbounds ({ [18 x i8*], [4 x i8*] }, { [18 x i8*], [4 x i8*] }* @_ZTVN6dealii23ComponentSelectFunctionILi1EEE, i32 0, inrange i32 0, i32 2) to i32 (...)**), i32 (...)*** %2, align 8, !dbg !7813
  %3 = bitcast %"class.dealii::ComponentSelectFunction"* %this1 to i8*, !dbg !7813
  %add.ptr = getelementptr inbounds i8, i8* %3, i64 16, !dbg !7813
  %4 = bitcast i8* %add.ptr to i32 (...)***, !dbg !7813
  store i32 (...)** bitcast (i8** getelementptr inbounds ({ [18 x i8*], [4 x i8*] }, { [18 x i8*], [4 x i8*] }* @_ZTVN6dealii23ComponentSelectFunctionILi1EEE, i32 0, inrange i32 1, i32 2) to i32 (...)**), i32 (...)*** %4, align 8, !dbg !7813
  %selected_components = getelementptr inbounds %"class.dealii::ComponentSelectFunction", %"class.dealii::ComponentSelectFunction"* %this1, i32 0, i32 1, !dbg !7816
  %5 = load i32, i32* %selected.addr, align 4, !dbg !7817
  %add = add i32 %5, 1, !dbg !7818
  store i32 %add, i32* %ref.tmp, align 4, !dbg !7817
  %call = invoke i64 @_ZSt9make_pairIRKjjESt4pairINSt25__strip_reference_wrapperINSt5decayIT_E4typeEE6__typeENS3_INS4_IT0_E4typeEE6__typeEEOS5_OSA_(i32* dereferenceable(4) %selected.addr, i32* dereferenceable(4) %ref.tmp)
          to label %invoke.cont unwind label %lpad, !dbg !7819

invoke.cont:                                      ; preds = %entry
  %6 = bitcast %"struct.std::pair"* %selected_components to i64*, !dbg !7819
  store i64 %call, i64* %6, align 8, !dbg !7819
  ret void, !dbg !7820

lpad:                                             ; preds = %entry
  %7 = landingpad { i8*, i32 }
          cleanup, !dbg !7820
  %8 = extractvalue { i8*, i32 } %7, 0, !dbg !7820
  store i8* %8, i8** %exn.slot, align 8, !dbg !7820
  %9 = extractvalue { i8*, i32 } %7, 1, !dbg !7820
  store i32 %9, i32* %ehselector.slot, align 4, !dbg !7820
  %10 = bitcast %"class.dealii::ComponentSelectFunction"* %this1 to %"class.dealii::ConstantFunction"*, !dbg !7821
  call void @_ZN6dealii16ConstantFunctionILi1EED2Ev(%"class.dealii::ConstantFunction"* %10) #7, !dbg !7821
  br label %eh.resume, !dbg !7821

eh.resume:                                        ; preds = %lpad
  %exn = load i8*, i8** %exn.slot, align 8, !dbg !7821
  %sel = load i32, i32* %ehselector.slot, align 4, !dbg !7821
  %lpad.val = insertvalue { i8*, i32 } undef, i8* %exn, 0, !dbg !7821
  %lpad.val2 = insertvalue { i8*, i32 } %lpad.val, i32 %sel, 1, !dbg !7821
  resume { i8*, i32 } %lpad.val2, !dbg !7821
}

; Function Attrs: noinline uwtable
define weak_odr dso_local void @_ZN6dealii23ComponentSelectFunctionILi1EEC2ERKSt4pairIjjEj(%"class.dealii::ComponentSelectFunction"* %this, %"struct.std::pair"* dereferenceable(8) %selected, i32 %n_components) unnamed_addr #0 comdat($_ZN6dealii23ComponentSelectFunctionILi1EEC5ERKSt4pairIjjEj) align 2 !dbg !7823 {
entry:
  %this.addr = alloca %"class.dealii::ComponentSelectFunction"*, align 8
  %selected.addr = alloca %"struct.std::pair"*, align 8
  %n_components.addr = alloca i32, align 4
  store %"class.dealii::ComponentSelectFunction"* %this, %"class.dealii::ComponentSelectFunction"** %this.addr, align 8
  call void @llvm.dbg.declare(metadata %"class.dealii::ComponentSelectFunction"** %this.addr, metadata !7824, metadata !DIExpression()), !dbg !7825
  store %"struct.std::pair"* %selected, %"struct.std::pair"** %selected.addr, align 8
  call void @llvm.dbg.declare(metadata %"struct.std::pair"** %selected.addr, metadata !7826, metadata !DIExpression()), !dbg !7827
  store i32 %n_components, i32* %n_components.addr, align 4
  call void @llvm.dbg.declare(metadata i32* %n_components.addr, metadata !7828, metadata !DIExpression()), !dbg !7829
  %this1 = load %"class.dealii::ComponentSelectFunction"*, %"class.dealii::ComponentSelectFunction"** %this.addr, align 8
  %0 = bitcast %"class.dealii::ComponentSelectFunction"* %this1 to %"class.dealii::ConstantFunction"*, !dbg !7830
  %1 = load i32, i32* %n_components.addr, align 4, !dbg !7831
  call void @_ZN6dealii16ConstantFunctionILi1EEC2Edj(%"class.dealii::ConstantFunction"* %0, double 1.000000e+00, i32 %1), !dbg !7832
  %2 = bitcast %"class.dealii::ComponentSelectFunction"* %this1 to i32 (...)***, !dbg !7830
  store i32 (...)** bitcast (i8** getelementptr inbounds ({ [18 x i8*], [4 x i8*] }, { [18 x i8*], [4 x i8*] }* @_ZTVN6dealii23ComponentSelectFunctionILi1EEE, i32 0, inrange i32 0, i32 2) to i32 (...)**), i32 (...)*** %2, align 8, !dbg !7830
  %3 = bitcast %"class.dealii::ComponentSelectFunction"* %this1 to i8*, !dbg !7830
  %add.ptr = getelementptr inbounds i8, i8* %3, i64 16, !dbg !7830
  %4 = bitcast i8* %add.ptr to i32 (...)***, !dbg !7830
  store i32 (...)** bitcast (i8** getelementptr inbounds ({ [18 x i8*], [4 x i8*] }, { [18 x i8*], [4 x i8*] }* @_ZTVN6dealii23ComponentSelectFunctionILi1EEE, i32 0, inrange i32 1, i32 2) to i32 (...)**), i32 (...)*** %4, align 8, !dbg !7830
  %selected_components = getelementptr inbounds %"class.dealii::ComponentSelectFunction", %"class.dealii::ComponentSelectFunction"* %this1, i32 0, i32 1, !dbg !7833
  %5 = load %"struct.std::pair"*, %"struct.std::pair"** %selected.addr, align 8, !dbg !7834
  %6 = bitcast %"struct.std::pair"* %selected_components to i8*, !dbg !7833
  %7 = bitcast %"struct.std::pair"* %5 to i8*, !dbg !7833
  call void @llvm.memcpy.p0i8.p0i8.i64(i8* align 8 %6, i8* align 4 %7, i64 8, i1 false), !dbg !7833
  ret void, !dbg !7835
}

; Function Attrs: argmemonly nounwind willreturn
declare void @llvm.memcpy.p0i8.p0i8.i64(i8* noalias nocapture writeonly, i8* noalias nocapture readonly, i64, i1 immarg) #6

; Function Attrs: noinline uwtable
define weak_odr dso_local void @_ZNK6dealii23ComponentSelectFunctionILi1EE12vector_valueERKNS_5PointILi1EEERNS_6VectorIdEE(%"class.dealii::ComponentSelectFunction"* %this, %"class.dealii::Point"* dereferenceable(8) %0, %"class.dealii::Vector"* dereferenceable(88) %return_value) unnamed_addr #0 comdat align 2 !dbg !7836 {
entry:
  %this.addr = alloca %"class.dealii::ComponentSelectFunction"*, align 8
  %.addr = alloca %"class.dealii::Point"*, align 8
  %return_value.addr = alloca %"class.dealii::Vector"*, align 8
  store %"class.dealii::ComponentSelectFunction"* %this, %"class.dealii::ComponentSelectFunction"** %this.addr, align 8
  call void @llvm.dbg.declare(metadata %"class.dealii::ComponentSelectFunction"** %this.addr, metadata !7837, metadata !DIExpression()), !dbg !7839
  store %"class.dealii::Point"* %0, %"class.dealii::Point"** %.addr, align 8
  call void @llvm.dbg.declare(metadata %"class.dealii::Point"** %.addr, metadata !7840, metadata !DIExpression()), !dbg !7841
  store %"class.dealii::Vector"* %return_value, %"class.dealii::Vector"** %return_value.addr, align 8
  call void @llvm.dbg.declare(metadata %"class.dealii::Vector"** %return_value.addr, metadata !7842, metadata !DIExpression()), !dbg !7843
  %this1 = load %"class.dealii::ComponentSelectFunction"*, %"class.dealii::ComponentSelectFunction"** %this.addr, align 8
  %1 = load %"class.dealii::Vector"*, %"class.dealii::Vector"** %return_value.addr, align 8, !dbg !7844
  %call = call dereferenceable(88) %"class.dealii::Vector"* @_ZN6dealii6VectorIdEaSEd(%"class.dealii::Vector"* %1, double 0.000000e+00), !dbg !7845
  %2 = load %"class.dealii::Vector"*, %"class.dealii::Vector"** %return_value.addr, align 8, !dbg !7846
  %call2 = call double* @_ZN6dealii6VectorIdE5beginEv(%"class.dealii::Vector"* %2), !dbg !7847
  %selected_components = getelementptr inbounds %"class.dealii::ComponentSelectFunction", %"class.dealii::ComponentSelectFunction"* %this1, i32 0, i32 1, !dbg !7848
  %first = getelementptr inbounds %"struct.std::pair", %"struct.std::pair"* %selected_components, i32 0, i32 0, !dbg !7849
  %3 = load i32, i32* %first, align 8, !dbg !7849
  %idx.ext = zext i32 %3 to i64, !dbg !7850
  %add.ptr = getelementptr inbounds double, double* %call2, i64 %idx.ext, !dbg !7850
  %4 = load %"class.dealii::Vector"*, %"class.dealii::Vector"** %return_value.addr, align 8, !dbg !7851
  %call3 = call double* @_ZN6dealii6VectorIdE5beginEv(%"class.dealii::Vector"* %4), !dbg !7852
  %selected_components4 = getelementptr inbounds %"class.dealii::ComponentSelectFunction", %"class.dealii::ComponentSelectFunction"* %this1, i32 0, i32 1, !dbg !7853
  %second = getelementptr inbounds %"struct.std::pair", %"struct.std::pair"* %selected_components4, i32 0, i32 1, !dbg !7854
  %5 = load i32, i32* %second, align 4, !dbg !7854
  %idx.ext5 = zext i32 %5 to i64, !dbg !7855
  %add.ptr6 = getelementptr inbounds double, double* %call3, i64 %idx.ext5, !dbg !7855
  %6 = bitcast %"class.dealii::ComponentSelectFunction"* %this1 to %"class.dealii::ConstantFunction"*, !dbg !7856
  %function_value = getelementptr inbounds %"class.dealii::ConstantFunction", %"class.dealii::ConstantFunction"* %6, i32 0, i32 1, !dbg !7856
  call void @_ZSt4fillIPddEvT_S1_RKT0_(double* %add.ptr, double* %add.ptr6, double* dereferenceable(8) %function_value), !dbg !7857
  ret void, !dbg !7858
}

; Function Attrs: noinline uwtable
define linkonce_odr dso_local dereferenceable(88) %"class.dealii::Vector"* @_ZN6dealii6VectorIdEaSEd(%"class.dealii::Vector"* %this, double %s) #0 comdat align 2 !dbg !7859 {
entry:
  %this.addr = alloca %"class.dealii::Vector"*, align 8
  %s.addr = alloca double, align 8
  store %"class.dealii::Vector"* %this, %"class.dealii::Vector"** %this.addr, align 8
  call void @llvm.dbg.declare(metadata %"class.dealii::Vector"** %this.addr, metadata !7863, metadata !DIExpression()), !dbg !7864
  store double %s, double* %s.addr, align 8
  call void @llvm.dbg.declare(metadata double* %s.addr, metadata !7865, metadata !DIExpression()), !dbg !7866
  %this1 = load %"class.dealii::Vector"*, %"class.dealii::Vector"** %this.addr, align 8
  %0 = load double, double* %s.addr, align 8, !dbg !7867
  %cmp = fcmp une double %0, 0.000000e+00, !dbg !7869
  br i1 %cmp, label %if.then, label %if.end, !dbg !7870

if.then:                                          ; preds = %entry
  br label %if.end, !dbg !7871

if.end:                                           ; preds = %if.then, %entry
  %vec_size = getelementptr inbounds %"class.dealii::Vector", %"class.dealii::Vector"* %this1, i32 0, i32 1, !dbg !7873
  %1 = load i32, i32* %vec_size, align 8, !dbg !7873
  %cmp2 = icmp ne i32 %1, 0, !dbg !7875
  br i1 %cmp2, label %if.then3, label %if.end5, !dbg !7876

if.then3:                                         ; preds = %if.end
  %call = call double* @_ZN6dealii6VectorIdE5beginEv(%"class.dealii::Vector"* %this1), !dbg !7877
  %call4 = call double* @_ZN6dealii6VectorIdE3endEv(%"class.dealii::Vector"* %this1), !dbg !7878
  call void @_ZSt4fillIPddEvT_S1_RKT0_(double* %call, double* %call4, double* dereferenceable(8) %s.addr), !dbg !7879
  br label %if.end5, !dbg !7879

if.end5:                                          ; preds = %if.then3, %if.end
  ret %"class.dealii::Vector"* %this1, !dbg !7880
}

; Function Attrs: noinline uwtable
define weak_odr dso_local void @_ZNK6dealii23ComponentSelectFunctionILi1EE17vector_value_listERKSt6vectorINS_5PointILi1EEESaIS4_EERS2_INS_6VectorIdEESaISA_EE(%"class.dealii::ComponentSelectFunction"* %this, %"class.std::vector"* dereferenceable(24) %points, %"class.std::vector.8"* dereferenceable(24) %values) unnamed_addr #0 comdat align 2 !dbg !7881 {
entry:
  %this.addr = alloca %"class.dealii::ComponentSelectFunction"*, align 8
  %points.addr = alloca %"class.std::vector"*, align 8
  %values.addr = alloca %"class.std::vector.8"*, align 8
  %i = alloca i32, align 4
  store %"class.dealii::ComponentSelectFunction"* %this, %"class.dealii::ComponentSelectFunction"** %this.addr, align 8
  call void @llvm.dbg.declare(metadata %"class.dealii::ComponentSelectFunction"** %this.addr, metadata !7882, metadata !DIExpression()), !dbg !7883
  store %"class.std::vector"* %points, %"class.std::vector"** %points.addr, align 8
  call void @llvm.dbg.declare(metadata %"class.std::vector"** %points.addr, metadata !7884, metadata !DIExpression()), !dbg !7885
  store %"class.std::vector.8"* %values, %"class.std::vector.8"** %values.addr, align 8
  call void @llvm.dbg.declare(metadata %"class.std::vector.8"** %values.addr, metadata !7886, metadata !DIExpression()), !dbg !7887
  %this1 = load %"class.dealii::ComponentSelectFunction"*, %"class.dealii::ComponentSelectFunction"** %this.addr, align 8
  call void @llvm.dbg.declare(metadata i32* %i, metadata !7888, metadata !DIExpression()), !dbg !7890
  store i32 0, i32* %i, align 4, !dbg !7890
  br label %for.cond, !dbg !7891

for.cond:                                         ; preds = %for.inc, %entry
  %0 = load i32, i32* %i, align 4, !dbg !7892
  %conv = zext i32 %0 to i64, !dbg !7892
  %1 = load %"class.std::vector"*, %"class.std::vector"** %points.addr, align 8, !dbg !7894
  %call = call i64 @_ZNKSt6vectorIN6dealii5PointILi1EEESaIS2_EE4sizeEv(%"class.std::vector"* %1) #7, !dbg !7895
  %cmp = icmp ult i64 %conv, %call, !dbg !7896
  br i1 %cmp, label %for.body, label %for.end, !dbg !7897

for.body:                                         ; preds = %for.cond
  %2 = load %"class.std::vector"*, %"class.std::vector"** %points.addr, align 8, !dbg !7898
  %3 = load i32, i32* %i, align 4, !dbg !7899
  %conv2 = zext i32 %3 to i64, !dbg !7899
  %call3 = call dereferenceable(8) %"class.dealii::Point"* @_ZNKSt6vectorIN6dealii5PointILi1EEESaIS2_EEixEm(%"class.std::vector"* %2, i64 %conv2) #7, !dbg !7898
  %4 = load %"class.std::vector.8"*, %"class.std::vector.8"** %values.addr, align 8, !dbg !7900
  %5 = load i32, i32* %i, align 4, !dbg !7901
  %conv4 = zext i32 %5 to i64, !dbg !7901
  %call5 = call dereferenceable(88) %"class.dealii::Vector"* @_ZNSt6vectorIN6dealii6VectorIdEESaIS2_EEixEm(%"class.std::vector.8"* %4, i64 %conv4) #7, !dbg !7900
  call void @_ZNK6dealii23ComponentSelectFunctionILi1EE12vector_valueERKNS_5PointILi1EEERNS_6VectorIdEE(%"class.dealii::ComponentSelectFunction"* %this1, %"class.dealii::Point"* dereferenceable(8) %call3, %"class.dealii::Vector"* dereferenceable(88) %call5), !dbg !7902
  br label %for.inc, !dbg !7903

for.inc:                                          ; preds = %for.body
  %6 = load i32, i32* %i, align 4, !dbg !7904
  %inc = add i32 %6, 1, !dbg !7904
  store i32 %inc, i32* %i, align 4, !dbg !7904
  br label %for.cond, !dbg !7905, !llvm.loop !7906

for.end:                                          ; preds = %for.cond
  ret void, !dbg !7908
}

; Function Attrs: noinline nounwind uwtable
define weak_odr dso_local i32 @_ZNK6dealii23ComponentSelectFunctionILi1EE18memory_consumptionEv(%"class.dealii::ComponentSelectFunction"* %this) #4 comdat align 2 !dbg !7909 {
entry:
  %this.addr = alloca %"class.dealii::ComponentSelectFunction"*, align 8
  store %"class.dealii::ComponentSelectFunction"* %this, %"class.dealii::ComponentSelectFunction"** %this.addr, align 8
  call void @llvm.dbg.declare(metadata %"class.dealii::ComponentSelectFunction"** %this.addr, metadata !7910, metadata !DIExpression()), !dbg !7911
  %this1 = load %"class.dealii::ComponentSelectFunction"*, %"class.dealii::ComponentSelectFunction"** %this.addr, align 8
  ret i32 112, !dbg !7912
}

; Function Attrs: noinline uwtable
define weak_odr dso_local void @_ZN6dealii8FunctionILi2EEC2Ejd(%"class.dealii::Function.23"* %this, i32 %n_components, double %initial_time) unnamed_addr #0 comdat($_ZN6dealii8FunctionILi2EEC5Ejd) align 2 personality i8* bitcast (i32 (...)* @__gxx_personality_v0 to i8*) !dbg !7913 {
entry:
  %this.addr = alloca %"class.dealii::Function.23"*, align 8
  %n_components.addr = alloca i32, align 4
  %initial_time.addr = alloca double, align 8
  %exn.slot = alloca i8*
  %ehselector.slot = alloca i32
  store %"class.dealii::Function.23"* %this, %"class.dealii::Function.23"** %this.addr, align 8
  call void @llvm.dbg.declare(metadata %"class.dealii::Function.23"** %this.addr, metadata !7914, metadata !DIExpression()), !dbg !7916
  store i32 %n_components, i32* %n_components.addr, align 4
  call void @llvm.dbg.declare(metadata i32* %n_components.addr, metadata !7917, metadata !DIExpression()), !dbg !7918
  store double %initial_time, double* %initial_time.addr, align 8
  call void @llvm.dbg.declare(metadata double* %initial_time.addr, metadata !7919, metadata !DIExpression()), !dbg !7920
  %this1 = load %"class.dealii::Function.23"*, %"class.dealii::Function.23"** %this.addr, align 8
  %0 = bitcast %"class.dealii::Function.23"* %this1 to %"class.dealii::FunctionTime"*, !dbg !7921
  %1 = load double, double* %initial_time.addr, align 8, !dbg !7922
  call void @_ZN6dealii12FunctionTimeC2Ed(%"class.dealii::FunctionTime"* %0, double %1), !dbg !7923
  %2 = bitcast %"class.dealii::Function.23"* %this1 to i8*, !dbg !7921
  %3 = getelementptr inbounds i8, i8* %2, i64 16, !dbg !7921
  %4 = bitcast i8* %3 to %"class.dealii::Subscriptor"*, !dbg !7921
  invoke void @_ZN6dealii11SubscriptorC2Ev(%"class.dealii::Subscriptor"* %4)
          to label %invoke.cont unwind label %lpad, !dbg !7924

invoke.cont:                                      ; preds = %entry
  %5 = bitcast %"class.dealii::Function.23"* %this1 to i32 (...)***, !dbg !7921
  store i32 (...)** bitcast (i8** getelementptr inbounds ({ [18 x i8*], [4 x i8*] }, { [18 x i8*], [4 x i8*] }* @_ZTVN6dealii8FunctionILi2EEE, i32 0, inrange i32 0, i32 2) to i32 (...)**), i32 (...)*** %5, align 8, !dbg !7921
  %6 = bitcast %"class.dealii::Function.23"* %this1 to i8*, !dbg !7921
  %add.ptr = getelementptr inbounds i8, i8* %6, i64 16, !dbg !7921
  %7 = bitcast i8* %add.ptr to i32 (...)***, !dbg !7921
  store i32 (...)** bitcast (i8** getelementptr inbounds ({ [18 x i8*], [4 x i8*] }, { [18 x i8*], [4 x i8*] }* @_ZTVN6dealii8FunctionILi2EEE, i32 0, inrange i32 1, i32 2) to i32 (...)**), i32 (...)*** %7, align 8, !dbg !7921
  %n_components2 = getelementptr inbounds %"class.dealii::Function.23", %"class.dealii::Function.23"* %this1, i32 0, i32 2, !dbg !7926
  %8 = load i32, i32* %n_components.addr, align 4, !dbg !7928
  store i32 %8, i32* %n_components2, align 8, !dbg !7926
  ret void, !dbg !7929

lpad:                                             ; preds = %entry
  %9 = landingpad { i8*, i32 }
          cleanup, !dbg !7929
  %10 = extractvalue { i8*, i32 } %9, 0, !dbg !7929
  store i8* %10, i8** %exn.slot, align 8, !dbg !7929
  %11 = extractvalue { i8*, i32 } %9, 1, !dbg !7929
  store i32 %11, i32* %ehselector.slot, align 4, !dbg !7929
  %12 = bitcast %"class.dealii::Function.23"* %this1 to %"class.dealii::FunctionTime"*, !dbg !7930
  call void @_ZN6dealii12FunctionTimeD2Ev(%"class.dealii::FunctionTime"* %12) #7, !dbg !7930
  br label %eh.resume, !dbg !7930

eh.resume:                                        ; preds = %lpad
  %exn = load i8*, i8** %exn.slot, align 8, !dbg !7930
  %sel = load i32, i32* %ehselector.slot, align 4, !dbg !7930
  %lpad.val = insertvalue { i8*, i32 } undef, i8* %exn, 0, !dbg !7930
  %lpad.val3 = insertvalue { i8*, i32 } %lpad.val, i32 %sel, 1, !dbg !7930
  resume { i8*, i32 } %lpad.val3, !dbg !7930
}

; Function Attrs: noinline nounwind uwtable
define weak_odr dso_local void @_ZN6dealii8FunctionILi2EED2Ev(%"class.dealii::Function.23"* %this) unnamed_addr #4 comdat($_ZN6dealii8FunctionILi2EED5Ev) align 2 !dbg !7932 {
entry:
  %this.addr = alloca %"class.dealii::Function.23"*, align 8
  store %"class.dealii::Function.23"* %this, %"class.dealii::Function.23"** %this.addr, align 8
  call void @llvm.dbg.declare(metadata %"class.dealii::Function.23"** %this.addr, metadata !7933, metadata !DIExpression()), !dbg !7934
  %this1 = load %"class.dealii::Function.23"*, %"class.dealii::Function.23"** %this.addr, align 8
  %0 = bitcast %"class.dealii::Function.23"* %this1 to i8*, !dbg !7935
  %1 = getelementptr inbounds i8, i8* %0, i64 16, !dbg !7935
  %2 = bitcast i8* %1 to %"class.dealii::Subscriptor"*, !dbg !7935
  call void @_ZN6dealii11SubscriptorD2Ev(%"class.dealii::Subscriptor"* %2) #7, !dbg !7935
  %3 = bitcast %"class.dealii::Function.23"* %this1 to %"class.dealii::FunctionTime"*, !dbg !7935
  call void @_ZN6dealii12FunctionTimeD2Ev(%"class.dealii::FunctionTime"* %3) #7, !dbg !7935
  ret void, !dbg !7937
}

; Function Attrs: noinline nounwind uwtable
define weak_odr dso_local void @_ZThn16_N6dealii8FunctionILi2EED1Ev(%"class.dealii::Function.23"* %this) unnamed_addr #4 comdat align 2 !dbg !7938 {
entry:
  %this.addr = alloca %"class.dealii::Function.23"*, align 8
  store %"class.dealii::Function.23"* %this, %"class.dealii::Function.23"** %this.addr, align 8
  %this1 = load %"class.dealii::Function.23"*, %"class.dealii::Function.23"** %this.addr, align 8, !dbg !7939
  %0 = bitcast %"class.dealii::Function.23"* %this1 to i8*, !dbg !7939
  %1 = getelementptr inbounds i8, i8* %0, i64 -16, !dbg !7939
