; ModuleID = 'source/numerics/time_dependent.cc'
source_filename = "source/numerics/time_dependent.cc"
target datalayout = "e-m:e-p270:32:32-p271:32:32-p272:64:64-i64:64-f80:128-n8:16:32:64-S128"
target triple = "x86_64-unknown-linux-gnu"

%"struct.boost::arg" = type { i8 }
%"struct.boost::arg.0" = type { i8 }
%"struct.boost::arg.2" = type { i8 }
%"struct.boost::arg.4" = type { i8 }
%"struct.boost::arg.6" = type { i8 }
%"struct.boost::arg.8" = type { i8 }
%"struct.boost::arg.10" = type { i8 }
%"struct.boost::arg.12" = type { i8 }
%"struct.boost::arg.14" = type { i8 }
%"class.std::vector" = type { %"struct.std::_Vector_base" }
%"struct.std::_Vector_base" = type { %"struct.std::_Vector_base<std::vector<std::pair<unsigned int, double>, std::allocator<std::pair<unsigned int, double> > >, std::allocator<std::vector<std::pair<unsigned int, double>, std::allocator<std::pair<unsigned int, double> > > > >::_Vector_impl" }
%"struct.std::_Vector_base<std::vector<std::pair<unsigned int, double>, std::allocator<std::pair<unsigned int, double> > >, std::allocator<std::vector<std::pair<unsigned int, double>, std::allocator<std::pair<unsigned int, double> > > > >::_Vector_impl" = type { %"struct.std::_Vector_base<std::vector<std::pair<unsigned int, double>, std::allocator<std::pair<unsigned int, double> > >, std::allocator<std::vector<std::pair<unsigned int, double>, std::allocator<std::pair<unsigned int, double> > > > >::_Vector_impl_data" }
%"struct.std::_Vector_base<std::vector<std::pair<unsigned int, double>, std::allocator<std::pair<unsigned int, double> > >, std::allocator<std::vector<std::pair<unsigned int, double>, std::allocator<std::pair<unsigned int, double> > > > >::_Vector_impl_data" = type { %"class.std::vector.20"*, %"class.std::vector.20"*, %"class.std::vector.20"* }
%"class.std::vector.20" = type { %"struct.std::_Vector_base.21" }
%"struct.std::_Vector_base.21" = type { %"struct.std::_Vector_base<std::pair<unsigned int, double>, std::allocator<std::pair<unsigned int, double> > >::_Vector_impl" }
%"struct.std::_Vector_base<std::pair<unsigned int, double>, std::allocator<std::pair<unsigned int, double> > >::_Vector_impl" = type { %"struct.std::_Vector_base<std::pair<unsigned int, double>, std::allocator<std::pair<unsigned int, double> > >::_Vector_impl_data" }
%"struct.std::_Vector_base<std::pair<unsigned int, double>, std::allocator<std::pair<unsigned int, double> > >::_Vector_impl_data" = type { %"struct.std::pair"*, %"struct.std::pair"*, %"struct.std::pair"* }
%"struct.std::pair" = type { i32, double }
%"class.dealii::TimeStepBase_Tria" = type { %"class.dealii::TimeStepBase.base", %"class.dealii::SmartPointer", %"class.dealii::SmartPointer.16", %"struct.dealii::TimeStepBase_Tria_Flags::Flags", [4 x i8], %"struct.dealii::TimeStepBase_Tria_Flags::RefinementFlags", %"class.std::vector.25", %"class.std::vector.25" }
%"class.dealii::TimeStepBase.base" = type <{ %"class.dealii::Subscriptor", %"class.dealii::TimeStepBase"*, %"class.dealii::TimeStepBase"*, i32, i32, double, i32 }>
%"class.dealii::Subscriptor" = type { i32 (...)**, i32, %"class.std::map", %"class.std::type_info"* }
%"class.std::map" = type { %"class.std::_Rb_tree" }
%"class.std::_Rb_tree" = type { %"struct.std::_Rb_tree<const char *, std::pair<const char *const, unsigned int>, std::_Select1st<std::pair<const char *const, unsigned int> >, std::less<const char *>, std::allocator<std::pair<const char *const, unsigned int> > >::_Rb_tree_impl" }
%"struct.std::_Rb_tree<const char *, std::pair<const char *const, unsigned int>, std::_Select1st<std::pair<const char *const, unsigned int> >, std::less<const char *>, std::allocator<std::pair<const char *const, unsigned int> > >::_Rb_tree_impl" = type { %"struct.std::_Rb_tree_key_compare", %"struct.std::_Rb_tree_header" }
%"struct.std::_Rb_tree_key_compare" = type { %"struct.std::less" }
%"struct.std::less" = type { i8 }
%"struct.std::_Rb_tree_header" = type { %"struct.std::_Rb_tree_node_base", i64 }
%"struct.std::_Rb_tree_node_base" = type { i32, %"struct.std::_Rb_tree_node_base"*, %"struct.std::_Rb_tree_node_base"*, %"struct.std::_Rb_tree_node_base"* }
%"class.std::type_info" = type { i32 (...)**, i8* }
%"class.dealii::TimeStepBase" = type <{ %"class.dealii::Subscriptor", %"class.dealii::TimeStepBase"*, %"class.dealii::TimeStepBase"*, i32, i32, double, i32, [4 x i8] }>
%"class.dealii::SmartPointer" = type { %"class.dealii::Triangulation"*, i8* }
%"class.dealii::Triangulation" = type { %"class.dealii::Subscriptor", %"class.std::vector.34", %"class.dealii::internal::Triangulation::TriaFaces"*, %"class.std::vector.115", %"class.std::vector.30", [255 x %"class.dealii::SmartPointer.120"], [255 x %"class.dealii::SmartPointer.120"], i8, i32, %"struct.dealii::internal::Triangulation::NumberCache", %"class.std::__cxx11::list" }
%"class.std::vector.34" = type { %"struct.std::_Vector_base.35" }
%"struct.std::_Vector_base.35" = type { %"struct.std::_Vector_base<dealii::internal::Triangulation::TriaLevel<3> *, std::allocator<dealii::internal::Triangulation::TriaLevel<3> *> >::_Vector_impl" }
%"struct.std::_Vector_base<dealii::internal::Triangulation::TriaLevel<3> *, std::allocator<dealii::internal::Triangulation::TriaLevel<3> *> >::_Vector_impl" = type { %"struct.std::_Vector_base<dealii::internal::Triangulation::TriaLevel<3> *, std::allocator<dealii::internal::Triangulation::TriaLevel<3> *> >::_Vector_impl_data" }
%"struct.std::_Vector_base<dealii::internal::Triangulation::TriaLevel<3> *, std::allocator<dealii::internal::Triangulation::TriaLevel<3> *> >::_Vector_impl_data" = type { %"class.dealii::internal::Triangulation::TriaLevel"**, %"class.dealii::internal::Triangulation::TriaLevel"**, %"class.dealii::internal::Triangulation::TriaLevel"** }
%"class.dealii::internal::Triangulation::TriaLevel" = type { %"class.std::vector.39", %"class.std::vector.30", %"class.std::vector.44", %"class.std::vector.50", %"class.dealii::internal::Triangulation::TriaObjectsHex" }
%"class.std::vector.39" = type { %"struct.std::_Vector_base.40" }
%"struct.std::_Vector_base.40" = type { %"struct.std::_Vector_base<unsigned char, std::allocator<unsigned char> >::_Vector_impl" }
%"struct.std::_Vector_base<unsigned char, std::allocator<unsigned char> >::_Vector_impl" = type { %"struct.std::_Vector_base<unsigned char, std::allocator<unsigned char> >::_Vector_impl_data" }
%"struct.std::_Vector_base<unsigned char, std::allocator<unsigned char> >::_Vector_impl_data" = type { i8*, i8*, i8* }
%"class.std::vector.44" = type { %"struct.std::_Vector_base.45" }
%"struct.std::_Vector_base.45" = type { %"struct.std::_Vector_base<std::pair<int, int>, std::allocator<std::pair<int, int> > >::_Vector_impl" }
%"struct.std::_Vector_base<std::pair<int, int>, std::allocator<std::pair<int, int> > >::_Vector_impl" = type { %"struct.std::_Vector_base<std::pair<int, int>, std::allocator<std::pair<int, int> > >::_Vector_impl_data" }
%"struct.std::_Vector_base<std::pair<int, int>, std::allocator<std::pair<int, int> > >::_Vector_impl_data" = type { %"struct.std::pair.49"*, %"struct.std::pair.49"*, %"struct.std::pair.49"* }
%"struct.std::pair.49" = type opaque
%"class.std::vector.50" = type { %"struct.std::_Vector_base.51" }
%"struct.std::_Vector_base.51" = type { %"struct.std::_Vector_base<unsigned int, std::allocator<unsigned int> >::_Vector_impl" }
%"struct.std::_Vector_base<unsigned int, std::allocator<unsigned int> >::_Vector_impl" = type { %"struct.std::_Vector_base<unsigned int, std::allocator<unsigned int> >::_Vector_impl_data" }
%"struct.std::_Vector_base<unsigned int, std::allocator<unsigned int> >::_Vector_impl_data" = type { i32*, i32*, i32* }
%"class.dealii::internal::Triangulation::TriaObjectsHex" = type { %"class.dealii::internal::Triangulation::TriaObjects.base", %"class.std::vector.30", %"class.std::vector.30", %"class.std::vector.30" }
%"class.dealii::internal::Triangulation::TriaObjects.base" = type <{ %"class.std::vector.55", %"class.std::vector.60", %"class.std::vector.65", %"class.std::vector.30", %"class.std::vector.30", %"class.std::vector.39", i32, i32, i8, [7 x i8], %"class.std::vector.70", i32 }>
%"class.std::vector.55" = type { %"struct.std::_Vector_base.56" }
%"struct.std::_Vector_base.56" = type { %"struct.std::_Vector_base<dealii::internal::Triangulation::TriaObject<3>, std::allocator<dealii::internal::Triangulation::TriaObject<3> > >::_Vector_impl" }
%"struct.std::_Vector_base<dealii::internal::Triangulation::TriaObject<3>, std::allocator<dealii::internal::Triangulation::TriaObject<3> > >::_Vector_impl" = type { %"struct.std::_Vector_base<dealii::internal::Triangulation::TriaObject<3>, std::allocator<dealii::internal::Triangulation::TriaObject<3> > >::_Vector_impl_data" }
%"struct.std::_Vector_base<dealii::internal::Triangulation::TriaObject<3>, std::allocator<dealii::internal::Triangulation::TriaObject<3> > >::_Vector_impl_data" = type { %"class.dealii::internal::Triangulation::TriaObject"*, %"class.dealii::internal::Triangulation::TriaObject"*, %"class.dealii::internal::Triangulation::TriaObject"* }
%"class.dealii::internal::Triangulation::TriaObject" = type { [6 x i32] }
%"class.std::vector.60" = type { %"struct.std::_Vector_base.61" }
%"struct.std::_Vector_base.61" = type { %"struct.std::_Vector_base<int, std::allocator<int> >::_Vector_impl" }
%"struct.std::_Vector_base<int, std::allocator<int> >::_Vector_impl" = type { %"struct.std::_Vector_base<int, std::allocator<int> >::_Vector_impl_data" }
%"struct.std::_Vector_base<int, std::allocator<int> >::_Vector_impl_data" = type { i32*, i32*, i32* }
%"class.std::vector.65" = type { %"struct.std::_Vector_base.66" }
%"struct.std::_Vector_base.66" = type { %"struct.std::_Vector_base<dealii::RefinementCase<3>, std::allocator<dealii::RefinementCase<3> > >::_Vector_impl" }
%"struct.std::_Vector_base<dealii::RefinementCase<3>, std::allocator<dealii::RefinementCase<3> > >::_Vector_impl" = type { %"struct.std::_Vector_base<dealii::RefinementCase<3>, std::allocator<dealii::RefinementCase<3> > >::_Vector_impl_data" }
%"struct.std::_Vector_base<dealii::RefinementCase<3>, std::allocator<dealii::RefinementCase<3> > >::_Vector_impl_data" = type { %"class.dealii::RefinementCase"*, %"class.dealii::RefinementCase"*, %"class.dealii::RefinementCase"* }
%"class.dealii::RefinementCase" = type { i8 }
%"class.std::vector.70" = type { %"struct.std::_Vector_base.71" }
%"struct.std::_Vector_base.71" = type { %"struct.std::_Vector_base<dealii::internal::Triangulation::TriaObjects<dealii::internal::Triangulation::TriaObject<3> >::UserData, std::allocator<dealii::internal::Triangulation::TriaObjects<dealii::internal::Triangulation::TriaObject<3> >::UserData> >::_Vector_impl" }
%"struct.std::_Vector_base<dealii::internal::Triangulation::TriaObjects<dealii::internal::Triangulation::TriaObject<3> >::UserData, std::allocator<dealii::internal::Triangulation::TriaObjects<dealii::internal::Triangulation::TriaObject<3> >::UserData> >::_Vector_impl" = type { %"struct.std::_Vector_base<dealii::internal::Triangulation::TriaObjects<dealii::internal::Triangulation::TriaObject<3> >::UserData, std::allocator<dealii::internal::Triangulation::TriaObjects<dealii::internal::Triangulation::TriaObject<3> >::UserData> >::_Vector_impl_data" }
%"struct.std::_Vector_base<dealii::internal::Triangulation::TriaObjects<dealii::internal::Triangulation::TriaObject<3> >::UserData, std::allocator<dealii::internal::Triangulation::TriaObjects<dealii::internal::Triangulation::TriaObject<3> >::UserData> >::_Vector_impl_data" = type { %"union.dealii::internal::Triangulation::TriaObjects<dealii::internal::Triangulation::TriaObject<3> >::UserData"*, %"union.dealii::internal::Triangulation::TriaObjects<dealii::internal::Triangulation::TriaObject<3> >::UserData"*, %"union.dealii::internal::Triangulation::TriaObjects<dealii::internal::Triangulation::TriaObject<3> >::UserData"* }
%"union.dealii::internal::Triangulation::TriaObjects<dealii::internal::Triangulation::TriaObject<3> >::UserData" = type opaque
%"class.dealii::internal::Triangulation::TriaFaces" = type { %"class.dealii::internal::Triangulation::TriaObjectsQuad3D", %"class.dealii::internal::Triangulation::TriaObjects.95" }
%"class.dealii::internal::Triangulation::TriaObjectsQuad3D" = type { %"class.dealii::internal::Triangulation::TriaObjects.base.94", %"class.std::vector.30" }
%"class.dealii::internal::Triangulation::TriaObjects.base.94" = type <{ %"class.std::vector.76", %"class.std::vector.60", %"class.std::vector.82", %"class.std::vector.30", %"class.std::vector.30", %"class.std::vector.39", i32, i32, i8, [7 x i8], %"class.std::vector.89", i32 }>
%"class.std::vector.76" = type { %"struct.std::_Vector_base.77" }
%"struct.std::_Vector_base.77" = type { %"struct.std::_Vector_base<dealii::internal::Triangulation::TriaObject<2>, std::allocator<dealii::internal::Triangulation::TriaObject<2> > >::_Vector_impl" }
%"struct.std::_Vector_base<dealii::internal::Triangulation::TriaObject<2>, std::allocator<dealii::internal::Triangulation::TriaObject<2> > >::_Vector_impl" = type { %"struct.std::_Vector_base<dealii::internal::Triangulation::TriaObject<2>, std::allocator<dealii::internal::Triangulation::TriaObject<2> > >::_Vector_impl_data" }
%"struct.std::_Vector_base<dealii::internal::Triangulation::TriaObject<2>, std::allocator<dealii::internal::Triangulation::TriaObject<2> > >::_Vector_impl_data" = type { %"class.dealii::internal::Triangulation::TriaObject.81"*, %"class.dealii::internal::Triangulation::TriaObject.81"*, %"class.dealii::internal::Triangulation::TriaObject.81"* }
%"class.dealii::internal::Triangulation::TriaObject.81" = type { [4 x i32] }
%"class.std::vector.82" = type { %"struct.std::_Vector_base.83" }
%"struct.std::_Vector_base.83" = type { %"struct.std::_Vector_base<dealii::RefinementCase<2>, std::allocator<dealii::RefinementCase<2> > >::_Vector_impl" }
%"struct.std::_Vector_base<dealii::RefinementCase<2>, std::allocator<dealii::RefinementCase<2> > >::_Vector_impl" = type { %"struct.std::_Vector_base<dealii::RefinementCase<2>, std::allocator<dealii::RefinementCase<2> > >::_Vector_impl_data" }
%"struct.std::_Vector_base<dealii::RefinementCase<2>, std::allocator<dealii::RefinementCase<2> > >::_Vector_impl_data" = type { %"class.dealii::RefinementCase.87"*, %"class.dealii::RefinementCase.87"*, %"class.dealii::RefinementCase.87"* }
%"class.dealii::RefinementCase.87" = type { i8 }
%"class.std::vector.89" = type { %"struct.std::_Vector_base.90" }
%"struct.std::_Vector_base.90" = type { %"struct.std::_Vector_base<dealii::internal::Triangulation::TriaObjects<dealii::internal::Triangulation::TriaObject<2> >::UserData, std::allocator<dealii::internal::Triangulation::TriaObjects<dealii::internal::Triangulation::TriaObject<2> >::UserData> >::_Vector_impl" }
%"struct.std::_Vector_base<dealii::internal::Triangulation::TriaObjects<dealii::internal::Triangulation::TriaObject<2> >::UserData, std::allocator<dealii::internal::Triangulation::TriaObjects<dealii::internal::Triangulation::TriaObject<2> >::UserData> >::_Vector_impl" = type { %"struct.std::_Vector_base<dealii::internal::Triangulation::TriaObjects<dealii::internal::Triangulation::TriaObject<2> >::UserData, std::allocator<dealii::internal::Triangulation::TriaObjects<dealii::internal::Triangulation::TriaObject<2> >::UserData> >::_Vector_impl_data" }
%"struct.std::_Vector_base<dealii::internal::Triangulation::TriaObjects<dealii::internal::Triangulation::TriaObject<2> >::UserData, std::allocator<dealii::internal::Triangulation::TriaObjects<dealii::internal::Triangulation::TriaObject<2> >::UserData> >::_Vector_impl_data" = type { %"union.dealii::internal::Triangulation::TriaObjects<dealii::internal::Triangulation::TriaObject<2> >::UserData"*, %"union.dealii::internal::Triangulation::TriaObjects<dealii::internal::Triangulation::TriaObject<2> >::UserData"*, %"union.dealii::internal::Triangulation::TriaObjects<dealii::internal::Triangulation::TriaObject<2> >::UserData"* }
%"union.dealii::internal::Triangulation::TriaObjects<dealii::internal::Triangulation::TriaObject<2> >::UserData" = type opaque
%"class.dealii::internal::Triangulation::TriaObjects.95" = type <{ %"class.std::vector.96", %"class.std::vector.60", %"class.std::vector.102", %"class.std::vector.30", %"class.std::vector.30", %"class.std::vector.39", i32, i32, i8, [7 x i8], %"class.std::vector.109", i32, [4 x i8] }>
%"class.std::vector.96" = type { %"struct.std::_Vector_base.97" }
%"struct.std::_Vector_base.97" = type { %"struct.std::_Vector_base<dealii::internal::Triangulation::TriaObject<1>, std::allocator<dealii::internal::Triangulation::TriaObject<1> > >::_Vector_impl" }
%"struct.std::_Vector_base<dealii::internal::Triangulation::TriaObject<1>, std::allocator<dealii::internal::Triangulation::TriaObject<1> > >::_Vector_impl" = type { %"struct.std::_Vector_base<dealii::internal::Triangulation::TriaObject<1>, std::allocator<dealii::internal::Triangulation::TriaObject<1> > >::_Vector_impl_data" }
%"struct.std::_Vector_base<dealii::internal::Triangulation::TriaObject<1>, std::allocator<dealii::internal::Triangulation::TriaObject<1> > >::_Vector_impl_data" = type { %"class.dealii::internal::Triangulation::TriaObject.101"*, %"class.dealii::internal::Triangulation::TriaObject.101"*, %"class.dealii::internal::Triangulation::TriaObject.101"* }
%"class.dealii::internal::Triangulation::TriaObject.101" = type { [2 x i32] }
%"class.std::vector.102" = type { %"struct.std::_Vector_base.103" }
%"struct.std::_Vector_base.103" = type { %"struct.std::_Vector_base<dealii::RefinementCase<1>, std::allocator<dealii::RefinementCase<1> > >::_Vector_impl" }
%"struct.std::_Vector_base<dealii::RefinementCase<1>, std::allocator<dealii::RefinementCase<1> > >::_Vector_impl" = type { %"struct.std::_Vector_base<dealii::RefinementCase<1>, std::allocator<dealii::RefinementCase<1> > >::_Vector_impl_data" }
%"struct.std::_Vector_base<dealii::RefinementCase<1>, std::allocator<dealii::RefinementCase<1> > >::_Vector_impl_data" = type { %"class.dealii::RefinementCase.107"*, %"class.dealii::RefinementCase.107"*, %"class.dealii::RefinementCase.107"* }
%"class.dealii::RefinementCase.107" = type { i8 }
%"class.std::vector.109" = type { %"struct.std::_Vector_base.110" }
%"struct.std::_Vector_base.110" = type { %"struct.std::_Vector_base<dealii::internal::Triangulation::TriaObjects<dealii::internal::Triangulation::TriaObject<1> >::UserData, std::allocator<dealii::internal::Triangulation::TriaObjects<dealii::internal::Triangulation::TriaObject<1> >::UserData> >::_Vector_impl" }
%"struct.std::_Vector_base<dealii::internal::Triangulation::TriaObjects<dealii::internal::Triangulation::TriaObject<1> >::UserData, std::allocator<dealii::internal::Triangulation::TriaObjects<dealii::internal::Triangulation::TriaObject<1> >::UserData> >::_Vector_impl" = type { %"struct.std::_Vector_base<dealii::internal::Triangulation::TriaObjects<dealii::internal::Triangulation::TriaObject<1> >::UserData, std::allocator<dealii::internal::Triangulation::TriaObjects<dealii::internal::Triangulation::TriaObject<1> >::UserData> >::_Vector_impl_data" }
%"struct.std::_Vector_base<dealii::internal::Triangulation::TriaObjects<dealii::internal::Triangulation::TriaObject<1> >::UserData, std::allocator<dealii::internal::Triangulation::TriaObjects<dealii::internal::Triangulation::TriaObject<1> >::UserData> >::_Vector_impl_data" = type { %"union.dealii::internal::Triangulation::TriaObjects<dealii::internal::Triangulation::TriaObject<1> >::UserData"*, %"union.dealii::internal::Triangulation::TriaObjects<dealii::internal::Triangulation::TriaObject<1> >::UserData"*, %"union.dealii::internal::Triangulation::TriaObjects<dealii::internal::Triangulation::TriaObject<1> >::UserData"* }
%"union.dealii::internal::Triangulation::TriaObjects<dealii::internal::Triangulation::TriaObject<1> >::UserData" = type opaque
%"class.std::vector.115" = type { %"struct.std::_Vector_base.116" }
%"struct.std::_Vector_base.116" = type { %"struct.std::_Vector_base<dealii::Point<3>, std::allocator<dealii::Point<3> > >::_Vector_impl" }
%"struct.std::_Vector_base<dealii::Point<3>, std::allocator<dealii::Point<3> > >::_Vector_impl" = type { %"struct.std::_Vector_base<dealii::Point<3>, std::allocator<dealii::Point<3> > >::_Vector_impl_data" }
%"struct.std::_Vector_base<dealii::Point<3>, std::allocator<dealii::Point<3> > >::_Vector_impl_data" = type { %"class.dealii::Point"*, %"class.dealii::Point"*, %"class.dealii::Point"* }
%"class.dealii::Point" = type { %"class.dealii::Tensor" }
%"class.dealii::Tensor" = type { [3 x double] }
%"class.std::vector.30" = type { %"struct.std::_Bvector_base" }
%"struct.std::_Bvector_base" = type { %"struct.std::_Bvector_base<std::allocator<bool> >::_Bvector_impl" }
%"struct.std::_Bvector_base<std::allocator<bool> >::_Bvector_impl" = type { %"struct.std::_Bvector_base<std::allocator<bool> >::_Bvector_impl_data" }
%"struct.std::_Bvector_base<std::allocator<bool> >::_Bvector_impl_data" = type { %"struct.std::_Bit_iterator", %"struct.std::_Bit_iterator", i64* }
%"struct.std::_Bit_iterator" = type { %"struct.std::_Bit_iterator_base.base", [4 x i8] }
%"struct.std::_Bit_iterator_base.base" = type <{ i64*, i32 }>
%"class.dealii::SmartPointer.120" = type { %"class.dealii::Boundary"*, i8* }
%"class.dealii::Boundary" = type opaque
%"struct.dealii::internal::Triangulation::NumberCache" = type { %"struct.dealii::internal::Triangulation::NumberCache.121", i32, %"class.std::vector.50", i32, %"class.std::vector.50" }
%"struct.dealii::internal::Triangulation::NumberCache.121" = type { %"struct.dealii::internal::Triangulation::NumberCache.122", i32, %"class.std::vector.50", i32, %"class.std::vector.50" }
%"struct.dealii::internal::Triangulation::NumberCache.122" = type { i32, %"class.std::vector.50", i32, %"class.std::vector.50" }
%"class.std::__cxx11::list" = type { %"class.std::__cxx11::_List_base" }
%"class.std::__cxx11::_List_base" = type { %"struct.std::__cxx11::_List_base<dealii::Triangulation<3, 3>::RefinementListener *, std::allocator<dealii::Triangulation<3, 3>::RefinementListener *> >::_List_impl" }
%"struct.std::__cxx11::_List_base<dealii::Triangulation<3, 3>::RefinementListener *, std::allocator<dealii::Triangulation<3, 3>::RefinementListener *> >::_List_impl" = type { %"struct.std::__detail::_List_node_header" }
%"struct.std::__detail::_List_node_header" = type { %"struct.std::__detail::_List_node_base", i64 }
%"struct.std::__detail::_List_node_base" = type { %"struct.std::__detail::_List_node_base"*, %"struct.std::__detail::_List_node_base"* }
%"class.dealii::SmartPointer.16" = type { %"class.dealii::Triangulation"*, i8* }
%"struct.dealii::TimeStepBase_Tria_Flags::Flags" = type { i8, i32, i32 }
%"struct.dealii::TimeStepBase_Tria_Flags::RefinementFlags" = type <{ i32, i32, i32, [4 x i8], double, double, %"class.std::vector", i32, i8, i8, [2 x i8] }>
%"class.std::vector.25" = type { %"struct.std::_Vector_base.26" }
%"struct.std::_Vector_base.26" = type { %"struct.std::_Vector_base<std::vector<bool, std::allocator<bool> >, std::allocator<std::vector<bool, std::allocator<bool> > > >::_Vector_impl" }
%"struct.std::_Vector_base<std::vector<bool, std::allocator<bool> >, std::allocator<std::vector<bool, std::allocator<bool> > > >::_Vector_impl" = type { %"struct.std::_Vector_base<std::vector<bool, std::allocator<bool> >, std::allocator<std::vector<bool, std::allocator<bool> > > >::_Vector_impl_data" }
%"struct.std::_Vector_base<std::vector<bool, std::allocator<bool> >, std::allocator<std::vector<bool, std::allocator<bool> > > >::_Vector_impl_data" = type { %"class.std::vector.30"*, %"class.std::vector.30"*, %"class.std::vector.30"* }
%"class.dealii::TimeStepBase_Tria_Flags::Flags<3>::ExcInvalidParameter" = type { %"class.dealii::ExceptionBase.base", i32 }
%"class.dealii::ExceptionBase.base" = type <{ %"class.std::exception", i8*, i32, [4 x i8], i8*, i8*, i8*, i8**, i32 }>
%"class.std::exception" = type { i32 (...)** }
%"class.dealii::TimeStepBase_Tria_Flags::RefinementFlags<3>::ExcInvalidValue" = type { %"class.dealii::ExceptionBase.base", double }
%"struct.dealii::TimeStepBase_Tria_Flags::RefinementData" = type { double, double }
%"class.dealii::TimeStepBase_Tria_Flags::RefinementData<3>::ExcInvalidValue" = type { %"class.dealii::ExceptionBase.base", double }
%"struct.dealii::TimeDependent::TimeSteppingData" = type { i32, i32 }
%"class.dealii::TimeDependent" = type <{ i32 (...)**, %"class.std::vector.127", i32, %"struct.dealii::TimeDependent::TimeSteppingData", %"struct.dealii::TimeDependent::TimeSteppingData", %"struct.dealii::TimeDependent::TimeSteppingData", [4 x i8] }>
%"class.std::vector.127" = type { %"struct.std::_Vector_base.128" }
%"struct.std::_Vector_base.128" = type { %"struct.std::_Vector_base<dealii::SmartPointer<dealii::TimeStepBase>, std::allocator<dealii::SmartPointer<dealii::TimeStepBase> > >::_Vector_impl" }
%"struct.std::_Vector_base<dealii::SmartPointer<dealii::TimeStepBase>, std::allocator<dealii::SmartPointer<dealii::TimeStepBase> > >::_Vector_impl" = type { %"struct.std::_Vector_base<dealii::SmartPointer<dealii::TimeStepBase>, std::allocator<dealii::SmartPointer<dealii::TimeStepBase> > >::_Vector_impl_data" }
%"struct.std::_Vector_base<dealii::SmartPointer<dealii::TimeStepBase>, std::allocator<dealii::SmartPointer<dealii::TimeStepBase> > >::_Vector_impl_data" = type { %"class.dealii::SmartPointer.132"*, %"class.dealii::SmartPointer.132"*, %"class.dealii::SmartPointer.132"* }
%"class.dealii::SmartPointer.132" = type { %"class.dealii::TimeStepBase"*, i8* }
%"class.std::allocator.17" = type { i8 }
%"class.std::allocator.27" = type { i8 }
%"class.dealii::Vector" = type { %"class.dealii::Subscriptor", i32, i32, float* }
%"class.dealii::TriaActiveIterator" = type { %"class.dealii::TriaIterator" }
%"class.dealii::TriaIterator" = type { %"class.dealii::TriaRawIterator" }
%"class.dealii::TriaRawIterator" = type { %"class.dealii::CellAccessor" }
%"class.dealii::CellAccessor" = type { %"class.dealii::TriaAccessor" }
%"class.dealii::TriaAccessor" = type { %"class.dealii::TriaAccessorBase" }
%"class.dealii::TriaAccessorBase" = type { i32, i32, %"class.dealii::Triangulation"* }
%"struct.__gnu_cxx::__ops::_Iter_less_iter" = type { i8 }
%"struct.__gnu_cxx::__ops::_Iter_less_val" = type { i8 }
%"struct.__gnu_cxx::__ops::_Val_less_iter" = type { i8 }
%"struct.std::_Bit_reference" = type { i64*, i64 }
%"class.__gnu_cxx::__normal_iterator.135" = type { %"class.std::vector.20"* }
%"class.__gnu_cxx::__normal_iterator.136" = type { %"class.std::vector.30"* }
%"class.dealii::ExceptionBase" = type <{ %"class.std::exception", i8*, i32, [4 x i8], i8*, i8*, i8*, i8**, i32, [4 x i8] }>
%"class.std::basic_ostream" = type { i32 (...)**, %"class.std::basic_ios" }
%"class.std::basic_ios" = type { %"class.std::ios_base", %"class.std::basic_ostream"*, i8, i8, %"class.std::basic_streambuf"*, %"class.std::ctype"*, %"class.std::num_put"*, %"class.std::num_get"* }
%"class.std::ios_base" = type { i32 (...)**, i64, i64, i32, i32, i32, %"struct.std::ios_base::_Callback_list"*, %"struct.std::ios_base::_Words", [8 x %"struct.std::ios_base::_Words"], i32, %"struct.std::ios_base::_Words"*, %"class.std::locale" }
%"struct.std::ios_base::_Callback_list" = type { %"struct.std::ios_base::_Callback_list"*, void (i32, %"class.std::ios_base"*, i32)*, i32, i32 }
%"struct.std::ios_base::_Words" = type { i8*, i64 }
%"class.std::locale" = type { %"class.std::locale::_Impl"* }
%"class.std::locale::_Impl" = type { i32, %"class.std::locale::facet"**, i64, %"class.std::locale::facet"**, i8** }
%"class.std::locale::facet" = type <{ i32 (...)**, i32, [4 x i8] }>
%"class.std::basic_streambuf" = type { i32 (...)**, i8*, i8*, i8*, i8*, i8*, i8*, %"class.std::locale" }
%"class.std::ctype" = type <{ %"class.std::locale::facet.base", [4 x i8], %struct.__locale_struct*, i8, [7 x i8], i32*, i32*, i16*, i8, [256 x i8], [256 x i8], i8, [6 x i8] }>
%"class.std::locale::facet.base" = type <{ i32 (...)**, i32 }>
%struct.__locale_struct = type { [13 x %struct.__locale_data*], i16*, i32*, i32*, [13 x i8*] }
%struct.__locale_data = type opaque
%"class.std::num_put" = type { %"class.std::locale::facet.base", [4 x i8] }
%"class.std::num_get" = type { %"class.std::locale::facet.base", [4 x i8] }
%"class.std::allocator.22" = type { i8 }
%"class.__gnu_cxx::new_allocator.23" = type { i8 }
%"class.__gnu_cxx::new_allocator.18" = type { i8 }
%"class.__gnu_cxx::__normal_iterator.133" = type { %"class.dealii::SmartPointer.132"* }
%"class.__gnu_cxx::__normal_iterator" = type { %"class.dealii::SmartPointer.132"* }
%"class.std::allocator.129" = type { i8 }
%"struct.__gnu_cxx::__ops::_Iter_equals_val" = type { %"class.dealii::TimeStepBase"** }
%"class.std::mem_fun_t" = type { { i64, i64 } }
%"class.dealii::TimeStepBase_Tria<3>::ExcGridNotDeleted" = type { %"class.dealii::ExceptionBase.base", [4 x i8] }
%"class.__gnu_cxx::new_allocator.28" = type { i8 }
%"class.std::allocator.31" = type { i8 }
%"class.__gnu_cxx::new_allocator.32" = type { i8 }
%"struct.std::_Bit_iterator_base" = type <{ i64*, i32, [4 x i8] }>
%"struct.std::iterator" = type { i8 }
%"class.std::__pair_base" = type { i8 }
%"class.__gnu_cxx::new_allocator.130" = type { i8 }
%"struct.std::random_access_iterator_tag" = type { i8 }
%"struct.std::unary_function" = type { i8 }
%"class.__gnu_cxx::__normal_iterator.134" = type { %"struct.std::pair"* }
%"struct.std::iterator.126" = type { i8 }
%"class.dealii::internal::Triangulation::TriaObjects" = type <{ %"class.std::vector.55", %"class.std::vector.60", %"class.std::vector.65", %"class.std::vector.30", %"class.std::vector.30", %"class.std::vector.39", i32, i32, i8, [7 x i8], %"class.std::vector.70", i32, [4 x i8] }>
%"struct.dealii::RefinementPossibilities" = type { i8 }
%"struct.std::integral_constant" = type { i8 }
%"struct.std::_Bit_const_iterator" = type { %"struct.std::_Bit_iterator_base.base", [4 x i8] }

$_ZN5boost3argILi1EEC2Ev = comdat any

$_ZN5boost3argILi2EEC2Ev = comdat any

$_ZN5boost3argILi3EEC2Ev = comdat any

$_ZN5boost3argILi4EEC2Ev = comdat any

$_ZN5boost3argILi5EEC2Ev = comdat any

$_ZN5boost3argILi6EEC2Ev = comdat any

$_ZN5boost3argILi7EEC2Ev = comdat any

$_ZN5boost3argILi8EEC2Ev = comdat any

$_ZN5boost3argILi9EEC2Ev = comdat any

$_ZN6dealii17TimeStepBase_TriaILi3EEC5Ev = comdat any

$_ZN6dealii12SmartPointerINS_13TriangulationILi3ELi3EEEEC2EPS2_PKc = comdat any

$_ZN6dealii12SmartPointerIKNS_13TriangulationILi3ELi3EEEEC2EPS3_PKc = comdat any

$_ZNSt6vectorIS_ISt4pairIjdESaIS1_EESaIS3_EEC2Ev = comdat any

$_ZNSt6vectorIS_ISt4pairIjdESaIS1_EESaIS3_EED2Ev = comdat any

$_ZNSt6vectorIS_IbSaIbEESaIS1_EEC2Ev = comdat any

$_ZN6dealii12SmartPointerIKNS_13TriangulationILi3ELi3EEEED2Ev = comdat any

$_ZN6dealii12SmartPointerINS_13TriangulationILi3ELi3EEEED2Ev = comdat any

$_ZN6dealii17TimeStepBase_TriaILi3EEC5EdRKNS_13TriangulationILi3ELi3EEERKNS_23TimeStepBase_Tria_Flags5FlagsILi3EEERKNS6_15RefinementFlagsILi3EEE = comdat any

$_ZNKSt9type_info4nameEv = comdat any

$_ZN6dealii23TimeStepBase_Tria_Flags15RefinementFlagsILi3EEC2ERKS2_ = comdat any

$_ZN6dealii17TimeStepBase_TriaILi3EED5Ev = comdat any

$_ZNK6dealii12SmartPointerINS_13TriangulationILi3ELi3EEEEcvPS2_Ev = comdat any

$_ZN6dealii12SmartPointerINS_13TriangulationILi3ELi3EEEEaSEPS2_ = comdat any

$_ZN6dealii12SmartPointerIKNS_13TriangulationILi3ELi3EEEEaSEPS3_ = comdat any

$_ZNSt6vectorIS_IbSaIbEESaIS1_EED2Ev = comdat any

$_ZN6dealii23TimeStepBase_Tria_Flags15RefinementFlagsILi3EED2Ev = comdat any

$__clang_call_terminate = comdat any

$_ZN6dealii17TimeStepBase_TriaILi3EE7wake_upEj = comdat any

$_ZN6dealii17TimeStepBase_TriaILi3EE12restore_gridEv = comdat any

$_ZN6dealii17TimeStepBase_TriaILi3EE5sleepEj = comdat any

$_ZN6dealii17TimeStepBase_TriaILi3EE11refine_gridENS_23TimeStepBase_Tria_Flags14RefinementDataILi3EEE = comdat any

$_ZN6dealii6VectorIfEC2Ev = comdat any

$_ZSt4sortIPfEvT_S1_ = comdat any

$_ZN6dealii6VectorIfE5beginEv = comdat any

$_ZN6dealii6VectorIfE3endEv = comdat any

$_ZSt11lower_boundIPffET_S1_S1_RKT0_ = comdat any

$_ZSt11upper_boundIPffET_S1_S1_RKT0_ = comdat any

$_ZNK6dealii12SmartPointerINS_13TriangulationILi3ELi3EEEEdeEv = comdat any

$_ZNK6dealii12SmartPointerINS_13TriangulationILi3ELi3EEEEptEv = comdat any

$_ZN6dealii18TriaActiveIteratorINS_12CellAccessorILi3ELi3EEEEC2Ev = comdat any

$_ZN6dealii18TriaActiveIteratorINS_12CellAccessorILi3ELi3EEEEaSERKS3_ = comdat any

$_ZN6dealii18TriaActiveIteratorINS_12CellAccessorILi3ELi3EEEEaSERKNS_15TriaRawIteratorIS2_EE = comdat any

$_ZNK6dealii15TriaRawIteratorINS_12CellAccessorILi3ELi3EEEEneERKS3_ = comdat any

$_ZN6dealii15TriaRawIteratorINS_12CellAccessorILi3ELi3EEEEptEv = comdat any

$_ZNK6dealii12CellAccessorILi3ELi3EE15refine_flag_setEv = comdat any

$_ZNK6dealii14RefinementCaseILi3EEcvhEv = comdat any

$_ZNK6dealii12CellAccessorILi3ELi3EE16coarsen_flag_setEv = comdat any

$_ZN6dealii18TriaActiveIteratorINS_12CellAccessorILi3ELi3EEEEppEv = comdat any

$_ZNKSt6vectorIS_ISt4pairIjdESaIS1_EESaIS3_EE4sizeEv = comdat any

$_ZNKSt6vectorIS_ISt4pairIjdESaIS1_EESaIS3_EE4backEv = comdat any

$_ZNKSt6vectorIS_ISt4pairIjdESaIS1_EESaIS3_EEixEm = comdat any

$_ZNKSt6vectorISt4pairIjdESaIS1_EE4sizeEv = comdat any

$_ZNKSt6vectorISt4pairIjdESaIS1_EEixEm = comdat any

$_ZNK6dealii12CellAccessorILi3ELi3EE17clear_refine_flagEv = comdat any

$_ZNK6dealii12CellAccessorILi3ELi3EE18clear_coarsen_flagEv = comdat any

$_ZN6dealii12TriaIteratorINS_12CellAccessorILi3ELi3EEEEC2Ev = comdat any

$_ZN6dealii12TriaIteratorINS_12CellAccessorILi3ELi3EEEEaSERKS3_ = comdat any

$_ZN6dealii12TriaIteratorINS_12CellAccessorILi3ELi3EEEEppEv = comdat any

$_ZN6dealii6VectorIfED2Ev = comdat any

$_ZN6dealii17TimeStepBase_TriaILi3EE19init_for_refinementEv = comdat any

$_ZN6dealii17TimeStepBase_TriaILi3EE17save_refine_flagsEv = comdat any

$_ZNSt6vectorIS_IbSaIbEESaIS1_EE9push_backEOS1_ = comdat any

$_ZNSt6vectorIbSaIbEEC2Ev = comdat any

$_ZNSt6vectorIbSaIbEED2Ev = comdat any

$_ZNSt6vectorIS_IbSaIbEESaIS1_EE4backEv = comdat any

$_ZNK6dealii17TimeStepBase_TriaILi3EE18memory_consumptionEv = comdat any

$_ZN6dealii17MemoryConsumption18memory_consumptionINS_12SmartPointerIKNS_13TriangulationILi3ELi3EEEEEEEjRKT_ = comdat any

$_ZN6dealii17MemoryConsumption18memory_consumptionISt6vectorIbSaIbEEEEjRKS2_IT_SaIS5_EE = comdat any

$_ZNK6dealii12SmartPointerIKNS_13TriangulationILi3ELi3EEEEdeEv = comdat any

$_ZNKSt6vectorIS_IbSaIbEESaIS1_EE4sizeEv = comdat any

$_ZNSt6vectorIS_IbSaIbEESaIS1_EEixEm = comdat any

$_ZN6dealii23TimeStepBase_Tria_Flags5FlagsILi3EEC5Ev = comdat any

$_ZN6dealii23TimeStepBase_Tria_Flags5FlagsILi3EEC5Ebjj = comdat any

$_ZN6dealii23TimeStepBase_Tria_Flags5FlagsILi3EE19ExcInvalidParameterC5Ei = comdat any

$_ZN6dealii23TimeStepBase_Tria_Flags5FlagsILi3EE19ExcInvalidParameterD5Ev = comdat any

$_ZNK6dealii23TimeStepBase_Tria_Flags5FlagsILi3EE19ExcInvalidParameter10print_infoERSo = comdat any

$_ZN6dealii23TimeStepBase_Tria_Flags15RefinementFlagsILi3EE30default_correction_relaxationsE = comdat any

$_ZSt9make_pairIjdESt4pairINSt25__strip_reference_wrapperINSt5decayIT_E4typeEE6__typeENS1_INS2_IT0_E4typeEE6__typeEEOS3_OS8_ = comdat any

$_ZNSaISt4pairIjdEEC2Ev = comdat any

$_ZNSt6vectorISt4pairIjdESaIS1_EEC2EmRKS1_RKS2_ = comdat any

$_ZNSaISt6vectorISt4pairIjdESaIS1_EEEC2Ev = comdat any

$_ZNSt6vectorIS_ISt4pairIjdESaIS1_EESaIS3_EEC2EmRKS3_RKS4_ = comdat any

$_ZNSaISt6vectorISt4pairIjdESaIS1_EEED2Ev = comdat any

$_ZNSt6vectorISt4pairIjdESaIS1_EED2Ev = comdat any

$_ZNSaISt4pairIjdEED2Ev = comdat any

$_ZN6dealii23TimeStepBase_Tria_Flags15RefinementFlagsILi3EEC5EjjjddRKSt6vectorIS3_ISt4pairIjdESaIS5_EESaIS7_EEjbb = comdat any

$_ZNSt6vectorIS_ISt4pairIjdESaIS1_EESaIS3_EEC2ERKS5_ = comdat any

$_ZN6dealii23TimeStepBase_Tria_Flags15RefinementFlagsILi3EE15ExcInvalidValueC5Ed = comdat any

$_ZN6dealii23TimeStepBase_Tria_Flags15RefinementFlagsILi3EE15ExcInvalidValueD5Ev = comdat any

$_ZNK6dealii23TimeStepBase_Tria_Flags15RefinementFlagsILi3EE15ExcInvalidValue10print_infoERSo = comdat any

$_ZN6dealii23TimeStepBase_Tria_Flags14RefinementDataILi3EEC5Edd = comdat any

$_ZN6dealii23TimeStepBase_Tria_Flags14RefinementDataILi3EE15ExcInvalidValueC5Ed = comdat any

$_ZN6dealii23TimeStepBase_Tria_Flags14RefinementDataILi3EE15ExcInvalidValueD5Ev = comdat any

$_ZNK6dealii23TimeStepBase_Tria_Flags14RefinementDataILi3EE15ExcInvalidValue10print_infoERSo = comdat any

$_ZNSt6vectorIN6dealii12SmartPointerINS0_12TimeStepBaseEEESaIS3_EEC2Ev = comdat any

$_ZNKSt6vectorIN6dealii12SmartPointerINS0_12TimeStepBaseEEESaIS3_EE4sizeEv = comdat any

$_ZNSt6vectorIN6dealii12SmartPointerINS0_12TimeStepBaseEEESaIS3_EED2Ev = comdat any

$_ZNSt6vectorIN6dealii12SmartPointerINS0_12TimeStepBaseEEESaIS3_EE4backEv = comdat any

$_ZNK6dealii12SmartPointerINS_12TimeStepBaseEEptEv = comdat any

$_ZNK6dealii12SmartPointerINS_12TimeStepBaseEEcvPS1_Ev = comdat any

$_ZNSt6vectorIN6dealii12SmartPointerINS0_12TimeStepBaseEEESaIS3_EEixEm = comdat any

$_ZSt4findIN9__gnu_cxx17__normal_iteratorIPN6dealii12SmartPointerINS2_12TimeStepBaseEEESt6vectorIS5_SaIS5_EEEEPKS4_ET_SD_SD_RKT0_ = comdat any

$_ZNSt6vectorIN6dealii12SmartPointerINS0_12TimeStepBaseEEESaIS3_EE5beginEv = comdat any

$_ZNSt6vectorIN6dealii12SmartPointerINS0_12TimeStepBaseEEESaIS3_EE3endEv = comdat any

$_ZNK9__gnu_cxx17__normal_iteratorIPN6dealii12SmartPointerINS1_12TimeStepBaseEEESt6vectorIS4_SaIS4_EEEmiEl = comdat any

$_ZNK9__gnu_cxx17__normal_iteratorIPN6dealii12SmartPointerINS1_12TimeStepBaseEEESt6vectorIS4_SaIS4_EEEdeEv = comdat any

$_ZNSt6vectorIN6dealii12SmartPointerINS0_12TimeStepBaseEEESaIS3_EE6insertEN9__gnu_cxx17__normal_iteratorIPKS3_S5_EEOS3_ = comdat any

$_ZN9__gnu_cxx17__normal_iteratorIPKN6dealii12SmartPointerINS1_12TimeStepBaseEEESt6vectorIS4_SaIS4_EEEC2IPS4_EERKNS0_IT_NS_11__enable_ifIXsr3std10__are_sameISD_SC_EE7__valueES9_E6__typeEEE = comdat any

$_ZN6dealii12SmartPointerINS_12TimeStepBaseEEC2EPS1_PKc = comdat any

$_ZN6dealii12SmartPointerINS_12TimeStepBaseEED2Ev = comdat any

$_ZN6dealii12SmartPointerINS_12TimeStepBaseEEaSEPS1_ = comdat any

$_ZNSt6vectorIN6dealii12SmartPointerINS0_12TimeStepBaseEEESaIS3_EE5eraseEN9__gnu_cxx17__normal_iteratorIPKS3_S5_EE = comdat any

$_ZNK9__gnu_cxx17__normal_iteratorIPN6dealii12SmartPointerINS1_12TimeStepBaseEEESt6vectorIS4_SaIS4_EEEplEl = comdat any

$_ZN6dealii12SmartPointerINS_12TimeStepBaseEEC2ERKS2_ = comdat any

$_ZN6dealii12SmartPointerINS_12TimeStepBaseEEC2Ev = comdat any

$_ZN6dealii13TimeDependent7do_loopISt9mem_fun_tIvNS_12TimeStepBaseEES4_EEvT_T0_RKNS0_16TimeSteppingDataENS0_9DirectionE = comdat any

$_ZSt7mem_funIvN6dealii12TimeStepBaseEESt9mem_fun_tIT_T0_EMS4_FS3_vE = comdat any

$_ZN6dealii17MemoryConsumption18memory_consumptionINS_12SmartPointerINS_12TimeStepBaseEEEEEjRKSt6vectorIT_SaIS6_EE = comdat any

$_ZN6dealii17MemoryConsumption18memory_consumptionEj = comdat any

$_ZN6dealii17MemoryConsumption18memory_consumptionINS_12TimeStepBaseEEEjRKT_ = comdat any

$_ZNKSt6vectorIN6dealii12SmartPointerINS0_12TimeStepBaseEEESaIS3_EEixEm = comdat any

$_ZNK6dealii12SmartPointerINS_12TimeStepBaseEEdeEv = comdat any

$_ZN6dealii17TimeStepBase_TriaILi3EE17ExcGridNotDeletedD2Ev = comdat any

$_ZN6dealii17TimeStepBase_TriaILi3EE17ExcGridNotDeletedD0Ev = comdat any

$_ZNSt12_Vector_baseISt6vectorISt4pairIjdESaIS2_EESaIS4_EEC2Ev = comdat any

$_ZNSt12_Vector_baseISt6vectorISt4pairIjdESaIS2_EESaIS4_EE12_Vector_implC2Ev = comdat any

$_ZNSt12_Vector_baseISt6vectorISt4pairIjdESaIS2_EESaIS4_EE17_Vector_impl_dataC2Ev = comdat any

$_ZN9__gnu_cxx13new_allocatorISt6vectorISt4pairIjdESaIS3_EEEC2Ev = comdat any

$_ZNSt12_Vector_baseISt6vectorIbSaIbEESaIS2_EEC2Ev = comdat any

$_ZNSt12_Vector_baseISt6vectorIbSaIbEESaIS2_EE12_Vector_implC2Ev = comdat any

$_ZNSaISt6vectorIbSaIbEEEC2Ev = comdat any

$_ZNSt12_Vector_baseISt6vectorIbSaIbEESaIS2_EE17_Vector_impl_dataC2Ev = comdat any

$_ZN9__gnu_cxx13new_allocatorISt6vectorIbSaIbEEEC2Ev = comdat any

$_ZNSt13_Bvector_baseISaIbEEC2Ev = comdat any

$_ZNSt13_Bvector_baseISaIbEE13_Bvector_implC2Ev = comdat any

$_ZNSaImEC2Ev = comdat any

$_ZNSt13_Bvector_baseISaIbEE18_Bvector_impl_dataC2Ev = comdat any

$_ZN9__gnu_cxx13new_allocatorImEC2Ev = comdat any

$_ZNSt13_Bit_iteratorC2Ev = comdat any

$_ZNSt18_Bit_iterator_baseC2EPmj = comdat any

$_ZSt7forwardIjEOT_RNSt16remove_referenceIS0_E4typeE = comdat any

$_ZSt7forwardIdEOT_RNSt16remove_referenceIS0_E4typeE = comdat any

$_ZNSt4pairIjdEC2IjdLb1EEEOT_OT0_ = comdat any

$_ZNSt12_Vector_baseIN6dealii12SmartPointerINS0_12TimeStepBaseEEESaIS3_EEC2Ev = comdat any

$_ZNSt12_Vector_baseIN6dealii12SmartPointerINS0_12TimeStepBaseEEESaIS3_EE12_Vector_implC2Ev = comdat any

$_ZNSaIN6dealii12SmartPointerINS_12TimeStepBaseEEEEC2Ev = comdat any

$_ZNSt12_Vector_baseIN6dealii12SmartPointerINS0_12TimeStepBaseEEESaIS3_EE17_Vector_impl_dataC2Ev = comdat any

$_ZN9__gnu_cxx13new_allocatorIN6dealii12SmartPointerINS1_12TimeStepBaseEEEEC2Ev = comdat any

$_ZSt8_DestroyIPN6dealii12SmartPointerINS0_12TimeStepBaseEEES3_EvT_S5_RSaIT0_E = comdat any

$_ZNSt12_Vector_baseIN6dealii12SmartPointerINS0_12TimeStepBaseEEESaIS3_EE19_M_get_Tp_allocatorEv = comdat any

$_ZNSt12_Vector_baseIN6dealii12SmartPointerINS0_12TimeStepBaseEEESaIS3_EED2Ev = comdat any

$_ZSt8_DestroyIPN6dealii12SmartPointerINS0_12TimeStepBaseEEEEvT_S5_ = comdat any

$_ZNSt12_Destroy_auxILb0EE9__destroyIPN6dealii12SmartPointerINS2_12TimeStepBaseEEEEEvT_S7_ = comdat any

$_ZSt8_DestroyIN6dealii12SmartPointerINS0_12TimeStepBaseEEEEvPT_ = comdat any

$_ZSt11__addressofIN6dealii12SmartPointerINS0_12TimeStepBaseEEEEPT_RS4_ = comdat any

$_ZNSt12_Vector_baseIN6dealii12SmartPointerINS0_12TimeStepBaseEEESaIS3_EE13_M_deallocateEPS3_m = comdat any

$_ZNSt12_Vector_baseIN6dealii12SmartPointerINS0_12TimeStepBaseEEESaIS3_EE12_Vector_implD2Ev = comdat any

$_ZNSt16allocator_traitsISaIN6dealii12SmartPointerINS0_12TimeStepBaseEEEEE10deallocateERS4_PS3_m = comdat any

$_ZN9__gnu_cxx13new_allocatorIN6dealii12SmartPointerINS1_12TimeStepBaseEEEE10deallocateEPS4_m = comdat any

$_ZNSaIN6dealii12SmartPointerINS_12TimeStepBaseEEEED2Ev = comdat any

$_ZN9__gnu_cxx13new_allocatorIN6dealii12SmartPointerINS1_12TimeStepBaseEEEED2Ev = comdat any

$_ZN9__gnu_cxx17__normal_iteratorIPN6dealii12SmartPointerINS1_12TimeStepBaseEEESt6vectorIS4_SaIS4_EEEC2ERKS5_ = comdat any

$_ZSt9__find_ifIN9__gnu_cxx17__normal_iteratorIPN6dealii12SmartPointerINS2_12TimeStepBaseEEESt6vectorIS5_SaIS5_EEEENS0_5__ops16_Iter_equals_valIKPKS4_EEET_SH_SH_T0_ = comdat any

$_ZN9__gnu_cxx5__ops17__iter_equals_valIKPKN6dealii12TimeStepBaseEEENS0_16_Iter_equals_valIT_EERS8_ = comdat any

$_ZSt9__find_ifIN9__gnu_cxx17__normal_iteratorIPN6dealii12SmartPointerINS2_12TimeStepBaseEEESt6vectorIS5_SaIS5_EEEENS0_5__ops16_Iter_equals_valIKPKS4_EEET_SH_SH_T0_St26random_access_iterator_tag = comdat any

$_ZSt19__iterator_categoryIN9__gnu_cxx17__normal_iteratorIPN6dealii12SmartPointerINS2_12TimeStepBaseEEESt6vectorIS5_SaIS5_EEEEENSt15iterator_traitsIT_E17iterator_categoryERKSC_ = comdat any

$_ZN9__gnu_cxxmiIPN6dealii12SmartPointerINS1_12TimeStepBaseEEESt6vectorIS4_SaIS4_EEEENS_17__normal_iteratorIT_T0_E15difference_typeERKSC_SF_ = comdat any

$_ZN9__gnu_cxx5__ops16_Iter_equals_valIKPKN6dealii12TimeStepBaseEEclINS_17__normal_iteratorIPNS2_12SmartPointerIS3_EESt6vectorISB_SaISB_EEEEEEbT_ = comdat any

$_ZN9__gnu_cxx17__normal_iteratorIPN6dealii12SmartPointerINS1_12TimeStepBaseEEESt6vectorIS4_SaIS4_EEEppEv = comdat any

$_ZNK9__gnu_cxx17__normal_iteratorIPN6dealii12SmartPointerINS1_12TimeStepBaseEEESt6vectorIS4_SaIS4_EEE4baseEv = comdat any

$_ZN9__gnu_cxx5__ops16_Iter_equals_valIKPKN6dealii12TimeStepBaseEEC2ERS6_ = comdat any

$_ZNSt6vectorIN6dealii12SmartPointerINS0_12TimeStepBaseEEESaIS3_EE14_M_insert_rvalEN9__gnu_cxx17__normal_iteratorIPKS3_S5_EEOS3_ = comdat any

$_ZSt4moveIRN6dealii12SmartPointerINS0_12TimeStepBaseEEEEONSt16remove_referenceIT_E4typeEOS6_ = comdat any

$_ZN9__gnu_cxxmiIPKN6dealii12SmartPointerINS1_12TimeStepBaseEEESt6vectorIS4_SaIS4_EEEENS_17__normal_iteratorIT_T0_E15difference_typeERKSD_SG_ = comdat any

$_ZNKSt6vectorIN6dealii12SmartPointerINS0_12TimeStepBaseEEESaIS3_EE6cbeginEv = comdat any

$_ZN9__gnu_cxxeqIPKN6dealii12SmartPointerINS1_12TimeStepBaseEEESt6vectorIS4_SaIS4_EEEEbRKNS_17__normal_iteratorIT_T0_EESF_ = comdat any

$_ZNKSt6vectorIN6dealii12SmartPointerINS0_12TimeStepBaseEEESaIS3_EE4cendEv = comdat any

$_ZNSt16allocator_traitsISaIN6dealii12SmartPointerINS0_12TimeStepBaseEEEEE9constructIS3_JS3_EEEvRS4_PT_DpOT0_ = comdat any

$_ZNSt6vectorIN6dealii12SmartPointerINS0_12TimeStepBaseEEESaIS3_EE13_M_insert_auxIS3_EEvN9__gnu_cxx17__normal_iteratorIPS3_S5_EEOT_ = comdat any

$_ZNSt6vectorIN6dealii12SmartPointerINS0_12TimeStepBaseEEESaIS3_EE17_M_realloc_insertIJS3_EEEvN9__gnu_cxx17__normal_iteratorIPS3_S5_EEDpOT_ = comdat any

$_ZNK9__gnu_cxx17__normal_iteratorIPKN6dealii12SmartPointerINS1_12TimeStepBaseEEESt6vectorIS4_SaIS4_EEE4baseEv = comdat any

$_ZN9__gnu_cxx17__normal_iteratorIPKN6dealii12SmartPointerINS1_12TimeStepBaseEEESt6vectorIS4_SaIS4_EEEC2ERKS6_ = comdat any

$_ZN9__gnu_cxx13new_allocatorIN6dealii12SmartPointerINS1_12TimeStepBaseEEEE9constructIS4_JS4_EEEvPT_DpOT0_ = comdat any

$_ZSt7forwardIN6dealii12SmartPointerINS0_12TimeStepBaseEEEEOT_RNSt16remove_referenceIS4_E4typeE = comdat any

$_ZSt13move_backwardIPN6dealii12SmartPointerINS0_12TimeStepBaseEEES4_ET0_T_S6_S5_ = comdat any

$_ZN6dealii12SmartPointerINS_12TimeStepBaseEEaSERKS2_ = comdat any

$_ZSt22__copy_move_backward_aILb1EPN6dealii12SmartPointerINS0_12TimeStepBaseEEES4_ET1_T0_S6_S5_ = comdat any

$_ZSt12__miter_baseIPN6dealii12SmartPointerINS0_12TimeStepBaseEEEET_S5_ = comdat any

$_ZSt12__niter_wrapIPN6dealii12SmartPointerINS0_12TimeStepBaseEEEET_RKS5_S5_ = comdat any

$_ZSt23__copy_move_backward_a1ILb1EPN6dealii12SmartPointerINS0_12TimeStepBaseEEES4_ET1_T0_S6_S5_ = comdat any

$_ZSt12__niter_baseIPN6dealii12SmartPointerINS0_12TimeStepBaseEEEET_S5_ = comdat any

$_ZSt23__copy_move_backward_a2ILb1EPN6dealii12SmartPointerINS0_12TimeStepBaseEEES4_ET1_T0_S6_S5_ = comdat any

$_ZNSt20__copy_move_backwardILb1ELb0ESt26random_access_iterator_tagE13__copy_move_bIPN6dealii12SmartPointerINS3_12TimeStepBaseEEES7_EET0_T_S9_S8_ = comdat any

$_ZNK6dealii11Subscriptor11unsubscribeEPKc = comdat any

$_ZNK6dealii11Subscriptor9subscribeEPKc = comdat any

$_ZNKSt6vectorIN6dealii12SmartPointerINS0_12TimeStepBaseEEESaIS3_EE12_M_check_lenEmPKc = comdat any

$_ZNSt12_Vector_baseIN6dealii12SmartPointerINS0_12TimeStepBaseEEESaIS3_EE11_M_allocateEm = comdat any

$_ZSt34__uninitialized_move_if_noexcept_aIPN6dealii12SmartPointerINS0_12TimeStepBaseEEES4_SaIS3_EET0_T_S7_S6_RT1_ = comdat any

$_ZNSt16allocator_traitsISaIN6dealii12SmartPointerINS0_12TimeStepBaseEEEEE7destroyIS3_EEvRS4_PT_ = comdat any

$_ZNKSt6vectorIN6dealii12SmartPointerINS0_12TimeStepBaseEEESaIS3_EE8max_sizeEv = comdat any

$_ZSt3maxImERKT_S2_S2_ = comdat any

$_ZNSt6vectorIN6dealii12SmartPointerINS0_12TimeStepBaseEEESaIS3_EE11_S_max_sizeERKS4_ = comdat any

$_ZNKSt12_Vector_baseIN6dealii12SmartPointerINS0_12TimeStepBaseEEESaIS3_EE19_M_get_Tp_allocatorEv = comdat any

$_ZNSt16allocator_traitsISaIN6dealii12SmartPointerINS0_12TimeStepBaseEEEEE8max_sizeERKS4_ = comdat any

$_ZSt3minImERKT_S2_S2_ = comdat any

$_ZNK9__gnu_cxx13new_allocatorIN6dealii12SmartPointerINS1_12TimeStepBaseEEEE8max_sizeEv = comdat any

$_ZNK9__gnu_cxx13new_allocatorIN6dealii12SmartPointerINS1_12TimeStepBaseEEEE11_M_max_sizeEv = comdat any

$_ZNSt16allocator_traitsISaIN6dealii12SmartPointerINS0_12TimeStepBaseEEEEE8allocateERS4_m = comdat any

$_ZN9__gnu_cxx13new_allocatorIN6dealii12SmartPointerINS1_12TimeStepBaseEEEE8allocateEmPKv = comdat any

$_ZSt22__uninitialized_copy_aIPKN6dealii12SmartPointerINS0_12TimeStepBaseEEEPS3_S3_ET0_T_S8_S7_RSaIT1_E = comdat any

$_ZSt32__make_move_if_noexcept_iteratorIN6dealii12SmartPointerINS0_12TimeStepBaseEEEPKS3_ET0_PT_ = comdat any

$_ZSt18uninitialized_copyIPKN6dealii12SmartPointerINS0_12TimeStepBaseEEEPS3_ET0_T_S8_S7_ = comdat any

$_ZNSt20__uninitialized_copyILb0EE13__uninit_copyIPKN6dealii12SmartPointerINS2_12TimeStepBaseEEEPS5_EET0_T_SA_S9_ = comdat any

$_ZSt10_ConstructIN6dealii12SmartPointerINS0_12TimeStepBaseEEEJRKS3_EEvPT_DpOT0_ = comdat any

$_ZSt7forwardIRKN6dealii12SmartPointerINS0_12TimeStepBaseEEEEOT_RNSt16remove_referenceIS6_E4typeE = comdat any

$_ZN9__gnu_cxx13new_allocatorIN6dealii12SmartPointerINS1_12TimeStepBaseEEEE7destroyIS4_EEvPT_ = comdat any

$_ZNSt6vectorIN6dealii12SmartPointerINS0_12TimeStepBaseEEESaIS3_EE8_M_eraseEN9__gnu_cxx17__normal_iteratorIPS3_S5_EE = comdat any

$_ZN9__gnu_cxxneIPN6dealii12SmartPointerINS1_12TimeStepBaseEEESt6vectorIS4_SaIS4_EEEEbRKNS_17__normal_iteratorIT_T0_EESE_ = comdat any

$_ZSt4moveIN9__gnu_cxx17__normal_iteratorIPN6dealii12SmartPointerINS2_12TimeStepBaseEEESt6vectorIS5_SaIS5_EEEESA_ET0_T_SC_SB_ = comdat any

$_ZSt13__copy_move_aILb1EN9__gnu_cxx17__normal_iteratorIPN6dealii12SmartPointerINS2_12TimeStepBaseEEESt6vectorIS5_SaIS5_EEEESA_ET1_T0_SC_SB_ = comdat any

$_ZSt12__miter_baseIN9__gnu_cxx17__normal_iteratorIPN6dealii12SmartPointerINS2_12TimeStepBaseEEESt6vectorIS5_SaIS5_EEEEET_SB_ = comdat any

$_ZSt12__niter_wrapIN9__gnu_cxx17__normal_iteratorIPN6dealii12SmartPointerINS2_12TimeStepBaseEEESt6vectorIS5_SaIS5_EEEES6_ET_SB_T0_ = comdat any

$_ZSt14__copy_move_a1ILb1EPN6dealii12SmartPointerINS0_12TimeStepBaseEEES4_ET1_T0_S6_S5_ = comdat any

$_ZSt12__niter_baseIPN6dealii12SmartPointerINS0_12TimeStepBaseEEESt6vectorIS3_SaIS3_EEET_N9__gnu_cxx17__normal_iteratorIS8_T0_EE = comdat any

$_ZSt14__copy_move_a2ILb1EPN6dealii12SmartPointerINS0_12TimeStepBaseEEES4_ET1_T0_S6_S5_ = comdat any

$_ZNSt11__copy_moveILb1ELb0ESt26random_access_iterator_tagE8__copy_mIPN6dealii12SmartPointerINS3_12TimeStepBaseEEES7_EET0_T_S9_S8_ = comdat any

$_ZNSt9mem_fun_tIvN6dealii12TimeStepBaseEEC2EMS1_FvvE = comdat any

$_ZNKSt9mem_fun_tIvN6dealii12TimeStepBaseEEclEPS1_ = comdat any

$_ZN6dealii17MemoryConsumption18memory_consumptionINS_12SmartPointerINS_12TimeStepBaseEEEEEjRKT_ = comdat any

$_ZNKSt6vectorIN6dealii12SmartPointerINS0_12TimeStepBaseEEESaIS3_EE8capacityEv = comdat any

$_ZNK6dealii12SmartPointerINS_12TimeStepBaseEE18memory_consumptionEv = comdat any

$_ZN9__gnu_cxx13new_allocatorISt4pairIjdEEC2Ev = comdat any

$_ZN9__gnu_cxx13new_allocatorISt4pairIjdEED2Ev = comdat any

$_ZN9__gnu_cxx13new_allocatorISt6vectorISt4pairIjdESaIS3_EEED2Ev = comdat any

$_ZNSt6vectorIS_ISt4pairIjdESaIS1_EESaIS3_EE17_S_check_init_lenEmRKS4_ = comdat any

$_ZNSt12_Vector_baseISt6vectorISt4pairIjdESaIS2_EESaIS4_EEC2EmRKS5_ = comdat any

$_ZNSt6vectorIS_ISt4pairIjdESaIS1_EESaIS3_EE18_M_fill_initializeEmRKS3_ = comdat any

$_ZNSt12_Vector_baseISt6vectorISt4pairIjdESaIS2_EESaIS4_EED2Ev = comdat any

$_ZNSt6vectorIS_ISt4pairIjdESaIS1_EESaIS3_EE11_S_max_sizeERKS4_ = comdat any

$_ZNSaISt6vectorISt4pairIjdESaIS1_EEEC2ERKS4_ = comdat any

$_ZNSt16allocator_traitsISaISt6vectorISt4pairIjdESaIS2_EEEE8max_sizeERKS5_ = comdat any

$_ZNK9__gnu_cxx13new_allocatorISt6vectorISt4pairIjdESaIS3_EEE8max_sizeEv = comdat any

$_ZNK9__gnu_cxx13new_allocatorISt6vectorISt4pairIjdESaIS3_EEE11_M_max_sizeEv = comdat any

$_ZN9__gnu_cxx13new_allocatorISt6vectorISt4pairIjdESaIS3_EEEC2ERKS6_ = comdat any

$_ZNSt12_Vector_baseISt6vectorISt4pairIjdESaIS2_EESaIS4_EE12_Vector_implC2ERKS5_ = comdat any

$_ZNSt12_Vector_baseISt6vectorISt4pairIjdESaIS2_EESaIS4_EE17_M_create_storageEm = comdat any

$_ZNSt12_Vector_baseISt6vectorISt4pairIjdESaIS2_EESaIS4_EE12_Vector_implD2Ev = comdat any

$_ZNSt12_Vector_baseISt6vectorISt4pairIjdESaIS2_EESaIS4_EE11_M_allocateEm = comdat any

$_ZNSt16allocator_traitsISaISt6vectorISt4pairIjdESaIS2_EEEE8allocateERS5_m = comdat any

$_ZN9__gnu_cxx13new_allocatorISt6vectorISt4pairIjdESaIS3_EEE8allocateEmPKv = comdat any

$_ZSt24__uninitialized_fill_n_aIPSt6vectorISt4pairIjdESaIS2_EEmS4_S4_ET_S6_T0_RKT1_RSaIT2_E = comdat any

$_ZNSt12_Vector_baseISt6vectorISt4pairIjdESaIS2_EESaIS4_EE19_M_get_Tp_allocatorEv = comdat any

$_ZSt20uninitialized_fill_nIPSt6vectorISt4pairIjdESaIS2_EEmS4_ET_S6_T0_RKT1_ = comdat any

$_ZNSt22__uninitialized_fill_nILb0EE15__uninit_fill_nIPSt6vectorISt4pairIjdESaIS4_EEmS6_EET_S8_T0_RKT1_ = comdat any

$_ZSt10_ConstructISt6vectorISt4pairIjdESaIS2_EEJRKS4_EEvPT_DpOT0_ = comdat any

$_ZSt11__addressofISt6vectorISt4pairIjdESaIS2_EEEPT_RS5_ = comdat any

$_ZSt8_DestroyIPSt6vectorISt4pairIjdESaIS2_EEEvT_S6_ = comdat any

$_ZSt7forwardIRKSt6vectorISt4pairIjdESaIS2_EEEOT_RNSt16remove_referenceIS7_E4typeE = comdat any

$_ZNSt6vectorISt4pairIjdESaIS1_EEC2ERKS3_ = comdat any

$_ZN9__gnu_cxx14__alloc_traitsISaISt4pairIjdEES2_E17_S_select_on_copyERKS3_ = comdat any

$_ZNKSt12_Vector_baseISt4pairIjdESaIS1_EE19_M_get_Tp_allocatorEv = comdat any

$_ZNSt12_Vector_baseISt4pairIjdESaIS1_EEC2EmRKS2_ = comdat any

$_ZSt22__uninitialized_copy_aIN9__gnu_cxx17__normal_iteratorIPKSt4pairIjdESt6vectorIS3_SaIS3_EEEEPS3_S3_ET0_T_SC_SB_RSaIT1_E = comdat any

$_ZNKSt6vectorISt4pairIjdESaIS1_EE5beginEv = comdat any

$_ZNKSt6vectorISt4pairIjdESaIS1_EE3endEv = comdat any

$_ZNSt12_Vector_baseISt4pairIjdESaIS1_EE19_M_get_Tp_allocatorEv = comdat any

$_ZNSt12_Vector_baseISt4pairIjdESaIS1_EED2Ev = comdat any

$_ZNSt16allocator_traitsISaISt4pairIjdEEE37select_on_container_copy_constructionERKS2_ = comdat any

$_ZNSaISt4pairIjdEEC2ERKS1_ = comdat any

$_ZN9__gnu_cxx13new_allocatorISt4pairIjdEEC2ERKS3_ = comdat any

$_ZNSt12_Vector_baseISt4pairIjdESaIS1_EE12_Vector_implC2ERKS2_ = comdat any

$_ZNSt12_Vector_baseISt4pairIjdESaIS1_EE17_M_create_storageEm = comdat any

$_ZNSt12_Vector_baseISt4pairIjdESaIS1_EE12_Vector_implD2Ev = comdat any

$_ZNSt12_Vector_baseISt4pairIjdESaIS1_EE17_Vector_impl_dataC2Ev = comdat any

$_ZNSt12_Vector_baseISt4pairIjdESaIS1_EE11_M_allocateEm = comdat any

$_ZNSt16allocator_traitsISaISt4pairIjdEEE8allocateERS2_m = comdat any

$_ZN9__gnu_cxx13new_allocatorISt4pairIjdEE8allocateEmPKv = comdat any

$_ZNK9__gnu_cxx13new_allocatorISt4pairIjdEE11_M_max_sizeEv = comdat any

$_ZSt18uninitialized_copyIN9__gnu_cxx17__normal_iteratorIPKSt4pairIjdESt6vectorIS3_SaIS3_EEEEPS3_ET0_T_SC_SB_ = comdat any

$_ZNSt20__uninitialized_copyILb0EE13__uninit_copyIN9__gnu_cxx17__normal_iteratorIPKSt4pairIjdESt6vectorIS5_SaIS5_EEEEPS5_EET0_T_SE_SD_ = comdat any

$_ZN9__gnu_cxxneIPKSt4pairIjdESt6vectorIS2_SaIS2_EEEEbRKNS_17__normal_iteratorIT_T0_EESD_ = comdat any

$_ZSt10_ConstructISt4pairIjdEJRKS1_EEvPT_DpOT0_ = comdat any

$_ZSt11__addressofISt4pairIjdEEPT_RS2_ = comdat any

$_ZNK9__gnu_cxx17__normal_iteratorIPKSt4pairIjdESt6vectorIS2_SaIS2_EEEdeEv = comdat any

$_ZN9__gnu_cxx17__normal_iteratorIPKSt4pairIjdESt6vectorIS2_SaIS2_EEEppEv = comdat any

$_ZSt8_DestroyIPSt4pairIjdEEvT_S3_ = comdat any

$_ZNK9__gnu_cxx17__normal_iteratorIPKSt4pairIjdESt6vectorIS2_SaIS2_EEE4baseEv = comdat any

$_ZSt7forwardIRKSt4pairIjdEEOT_RNSt16remove_referenceIS4_E4typeE = comdat any

$_ZNSt12_Destroy_auxILb1EE9__destroyIPSt4pairIjdEEEvT_S5_ = comdat any

$_ZN9__gnu_cxx17__normal_iteratorIPKSt4pairIjdESt6vectorIS2_SaIS2_EEEC2ERKS4_ = comdat any

$_ZNSt12_Vector_baseISt4pairIjdESaIS1_EE13_M_deallocateEPS1_m = comdat any

$_ZNSt16allocator_traitsISaISt4pairIjdEEE10deallocateERS2_PS1_m = comdat any

$_ZN9__gnu_cxx13new_allocatorISt4pairIjdEE10deallocateEPS2_m = comdat any

$_ZNSt12_Destroy_auxILb0EE9__destroyIPSt6vectorISt4pairIjdESaIS4_EEEEvT_S8_ = comdat any

$_ZSt8_DestroyISt6vectorISt4pairIjdESaIS2_EEEvPT_ = comdat any

$_ZNSt12_Vector_baseISt6vectorISt4pairIjdESaIS2_EESaIS4_EE13_M_deallocateEPS4_m = comdat any

$_ZNSt16allocator_traitsISaISt6vectorISt4pairIjdESaIS2_EEEE10deallocateERS5_PS4_m = comdat any

$_ZN9__gnu_cxx13new_allocatorISt6vectorISt4pairIjdESaIS3_EEE10deallocateEPS5_m = comdat any

$_ZSt8_DestroyIPSt6vectorISt4pairIjdESaIS2_EES4_EvT_S6_RSaIT0_E = comdat any

$_ZSt8_DestroyIPSt6vectorIbSaIbEES2_EvT_S4_RSaIT0_E = comdat any

$_ZNSt12_Vector_baseISt6vectorIbSaIbEESaIS2_EE19_M_get_Tp_allocatorEv = comdat any

$_ZNSt12_Vector_baseISt6vectorIbSaIbEESaIS2_EED2Ev = comdat any

$_ZSt8_DestroyIPSt6vectorIbSaIbEEEvT_S4_ = comdat any

$_ZNSt12_Destroy_auxILb0EE9__destroyIPSt6vectorIbSaIbEEEEvT_S6_ = comdat any

$_ZSt8_DestroyISt6vectorIbSaIbEEEvPT_ = comdat any

$_ZSt11__addressofISt6vectorIbSaIbEEEPT_RS3_ = comdat any

$_ZNSt12_Vector_baseISt6vectorIbSaIbEESaIS2_EE13_M_deallocateEPS2_m = comdat any

$_ZNSt12_Vector_baseISt6vectorIbSaIbEESaIS2_EE12_Vector_implD2Ev = comdat any

$_ZNSt16allocator_traitsISaISt6vectorIbSaIbEEEE10deallocateERS3_PS2_m = comdat any

$_ZN9__gnu_cxx13new_allocatorISt6vectorIbSaIbEEE10deallocateEPS3_m = comdat any

$_ZNSaISt6vectorIbSaIbEEED2Ev = comdat any

$_ZN9__gnu_cxx13new_allocatorISt6vectorIbSaIbEEED2Ev = comdat any

$_ZN9__gnu_cxx14__alloc_traitsISaISt6vectorISt4pairIjdESaIS3_EEES5_E17_S_select_on_copyERKS6_ = comdat any

$_ZNKSt12_Vector_baseISt6vectorISt4pairIjdESaIS2_EESaIS4_EE19_M_get_Tp_allocatorEv = comdat any

$_ZSt22__uninitialized_copy_aIN9__gnu_cxx17__normal_iteratorIPKSt6vectorISt4pairIjdESaIS4_EES2_IS6_SaIS6_EEEEPS6_S6_ET0_T_SE_SD_RSaIT1_E = comdat any

$_ZNKSt6vectorIS_ISt4pairIjdESaIS1_EESaIS3_EE5beginEv = comdat any

$_ZNKSt6vectorIS_ISt4pairIjdESaIS1_EESaIS3_EE3endEv = comdat any

$_ZNSt16allocator_traitsISaISt6vectorISt4pairIjdESaIS2_EEEE37select_on_container_copy_constructionERKS5_ = comdat any

$_ZSt18uninitialized_copyIN9__gnu_cxx17__normal_iteratorIPKSt6vectorISt4pairIjdESaIS4_EES2_IS6_SaIS6_EEEEPS6_ET0_T_SE_SD_ = comdat any

$_ZNSt20__uninitialized_copyILb0EE13__uninit_copyIN9__gnu_cxx17__normal_iteratorIPKSt6vectorISt4pairIjdESaIS6_EES4_IS8_SaIS8_EEEEPS8_EET0_T_SG_SF_ = comdat any

$_ZN9__gnu_cxxneIPKSt6vectorISt4pairIjdESaIS3_EES1_IS5_SaIS5_EEEEbRKNS_17__normal_iteratorIT_T0_EESF_ = comdat any

$_ZNK9__gnu_cxx17__normal_iteratorIPKSt6vectorISt4pairIjdESaIS3_EES1_IS5_SaIS5_EEEdeEv = comdat any

$_ZN9__gnu_cxx17__normal_iteratorIPKSt6vectorISt4pairIjdESaIS3_EES1_IS5_SaIS5_EEEppEv = comdat any

$_ZNK9__gnu_cxx17__normal_iteratorIPKSt6vectorISt4pairIjdESaIS3_EES1_IS5_SaIS5_EEE4baseEv = comdat any

$_ZN9__gnu_cxx17__normal_iteratorIPKSt6vectorISt4pairIjdESaIS3_EES1_IS5_SaIS5_EEEC2ERKS7_ = comdat any

$_ZN6dealii6VectorIfED0Ev = comdat any

$_ZN6dealii6VectorIfE6reinitEjb = comdat any

$_ZN6dealii6VectorIfE4swapERS1_ = comdat any

$_ZN6dealii6VectorIfEaSEf = comdat any

$_ZSt4fillIPffEvT_S1_RKT0_ = comdat any

$_ZSt8__fill_aIPffEvT_S1_RKT0_ = comdat any

$_ZSt9__fill_a1IPffEN9__gnu_cxx11__enable_ifIXsr11__is_scalarIT0_EE7__valueEvE6__typeET_S6_RKS3_ = comdat any

$_ZSt4swapIjENSt9enable_ifIXsr6__and_ISt6__not_ISt15__is_tuple_likeIT_EESt21is_move_constructibleIS3_ESt18is_move_assignableIS3_EEE5valueEvE4typeERS3_SC_ = comdat any

$_ZSt4swapIPfENSt9enable_ifIXsr6__and_ISt6__not_ISt15__is_tuple_likeIT_EESt21is_move_constructibleIS4_ESt18is_move_assignableIS4_EEE5valueEvE4typeERS4_SD_ = comdat any

$_ZSt4moveIRjEONSt16remove_referenceIT_E4typeEOS2_ = comdat any

$_ZSt4moveIRPfEONSt16remove_referenceIT_E4typeEOS3_ = comdat any

$_ZSt6__sortIPfN9__gnu_cxx5__ops15_Iter_less_iterEEvT_S4_T0_ = comdat any

$_ZN9__gnu_cxx5__ops16__iter_less_iterEv = comdat any

$_ZSt16__introsort_loopIPflN9__gnu_cxx5__ops15_Iter_less_iterEEvT_S4_T0_T1_ = comdat any

$_ZSt4__lgl = comdat any

$_ZSt22__final_insertion_sortIPfN9__gnu_cxx5__ops15_Iter_less_iterEEvT_S4_T0_ = comdat any

$_ZSt14__partial_sortIPfN9__gnu_cxx5__ops15_Iter_less_iterEEvT_S4_S4_T0_ = comdat any

$_ZSt27__unguarded_partition_pivotIPfN9__gnu_cxx5__ops15_Iter_less_iterEET_S4_S4_T0_ = comdat any

$_ZSt13__heap_selectIPfN9__gnu_cxx5__ops15_Iter_less_iterEEvT_S4_S4_T0_ = comdat any

$_ZSt11__sort_heapIPfN9__gnu_cxx5__ops15_Iter_less_iterEEvT_S4_RT0_ = comdat any

$_ZSt11__make_heapIPfN9__gnu_cxx5__ops15_Iter_less_iterEEvT_S4_RT0_ = comdat any

$_ZNK9__gnu_cxx5__ops15_Iter_less_iterclIPfS3_EEbT_T0_ = comdat any

$_ZSt10__pop_heapIPfN9__gnu_cxx5__ops15_Iter_less_iterEEvT_S4_S4_RT0_ = comdat any

$_ZSt4moveIRfEONSt16remove_referenceIT_E4typeEOS2_ = comdat any

$_ZSt13__adjust_heapIPflfN9__gnu_cxx5__ops15_Iter_less_iterEEvT_T0_S5_T1_T2_ = comdat any

$_ZSt4moveIRN9__gnu_cxx5__ops15_Iter_less_iterEEONSt16remove_referenceIT_E4typeEOS5_ = comdat any

$_ZN9__gnu_cxx5__ops14_Iter_less_valC2ENS0_15_Iter_less_iterE = comdat any

$_ZSt11__push_heapIPflfN9__gnu_cxx5__ops14_Iter_less_valEEvT_T0_S5_T1_RT2_ = comdat any

$_ZNK9__gnu_cxx5__ops14_Iter_less_valclIPffEEbT_RT0_ = comdat any

$_ZSt22__move_median_to_firstIPfN9__gnu_cxx5__ops15_Iter_less_iterEEvT_S4_S4_S4_T0_ = comdat any

$_ZSt21__unguarded_partitionIPfN9__gnu_cxx5__ops15_Iter_less_iterEET_S4_S4_S4_T0_ = comdat any

$_ZSt9iter_swapIPfS0_EvT_T0_ = comdat any

$_ZSt4swapIfENSt9enable_ifIXsr6__and_ISt6__not_ISt15__is_tuple_likeIT_EESt21is_move_constructibleIS3_ESt18is_move_assignableIS3_EEE5valueEvE4typeERS3_SC_ = comdat any

$_ZSt16__insertion_sortIPfN9__gnu_cxx5__ops15_Iter_less_iterEEvT_S4_T0_ = comdat any

$_ZSt26__unguarded_insertion_sortIPfN9__gnu_cxx5__ops15_Iter_less_iterEEvT_S4_T0_ = comdat any

$_ZSt13move_backwardIPfS0_ET0_T_S2_S1_ = comdat any

$_ZSt25__unguarded_linear_insertIPfN9__gnu_cxx5__ops14_Val_less_iterEEvT_T0_ = comdat any

$_ZN9__gnu_cxx5__ops15__val_comp_iterENS0_15_Iter_less_iterE = comdat any

$_ZSt22__copy_move_backward_aILb1EPfS0_ET1_T0_S2_S1_ = comdat any

$_ZSt12__miter_baseIPfET_S1_ = comdat any

$_ZSt12__niter_wrapIPfET_RKS1_S1_ = comdat any

$_ZSt23__copy_move_backward_a1ILb1EPfS0_ET1_T0_S2_S1_ = comdat any

$_ZSt12__niter_baseIPfET_S1_ = comdat any

$_ZSt23__copy_move_backward_a2ILb1EPfS0_ET1_T0_S2_S1_ = comdat any

$_ZNSt20__copy_move_backwardILb1ELb1ESt26random_access_iterator_tagE13__copy_move_bIfEEPT_PKS3_S6_S4_ = comdat any

$_ZNK9__gnu_cxx5__ops14_Val_less_iterclIfPfEEbRT_T0_ = comdat any

$_ZSt13__lower_boundIPffN9__gnu_cxx5__ops14_Iter_less_valEET_S4_S4_RKT0_T1_ = comdat any

$_ZN9__gnu_cxx5__ops15__iter_less_valEv = comdat any

$_ZSt8distanceIPfENSt15iterator_traitsIT_E15difference_typeES2_S2_ = comdat any

$_ZSt7advanceIPflEvRT_T0_ = comdat any

$_ZNK9__gnu_cxx5__ops14_Iter_less_valclIPfKfEEbT_RT0_ = comdat any

$_ZSt10__distanceIPfENSt15iterator_traitsIT_E15difference_typeES2_S2_St26random_access_iterator_tag = comdat any

$_ZSt19__iterator_categoryIPfENSt15iterator_traitsIT_E17iterator_categoryERKS2_ = comdat any

$_ZSt9__advanceIPflEvRT_T0_St26random_access_iterator_tag = comdat any

$_ZSt13__upper_boundIPffN9__gnu_cxx5__ops14_Val_less_iterEET_S4_S4_RKT0_T1_ = comdat any

$_ZN9__gnu_cxx5__ops15__val_less_iterEv = comdat any

$_ZNK9__gnu_cxx5__ops14_Val_less_iterclIKfPfEEbRT_T0_ = comdat any

$_ZN6dealii12TriaIteratorINS_12CellAccessorILi3ELi3EEEEC2ERKNS_15TriaRawIteratorIS2_EE = comdat any

$_ZN6dealii15TriaRawIteratorINS_12CellAccessorILi3ELi3EEEEC2ERKS2_ = comdat any

$_ZN6dealii12CellAccessorILi3ELi3EEC2ERKS1_ = comdat any

$_ZNK6dealii15TriaRawIteratorINS_12CellAccessorILi3ELi3EEEEptEv = comdat any

$_ZNK6dealii12TriaAccessorILi3ELi3ELi3EE12has_childrenEv = comdat any

$_ZNK6dealii12TriaAccessorILi3ELi3ELi3EE10n_childrenEv = comdat any

$_ZNK6dealii12CellAccessorILi3ELi3EE5childEj = comdat any

$_ZNK6dealii12CellAccessorILi3ELi3EE15set_refine_flagENS_14RefinementCaseILi3EEE = comdat any

$_ZN6dealii14RefinementCaseILi3EEC2ENS_23RefinementPossibilitiesILi3EE13PossibilitiesE = comdat any

$_ZNK6dealii15TriaRawIteratorINS_12CellAccessorILi3ELi3EEEEdeEv = comdat any

$_ZNK6dealii16TriaAccessorBaseILi3ELi3ELi3EE7objectsEv = comdat any

$_ZNSt6vectorIiSaIiEEixEm = comdat any

$_ZNKSt6vectorIPN6dealii8internal13Triangulation9TriaLevelILi3EEESaIS5_EEixEm = comdat any

$_ZNK6dealii12TriaAccessorILi3ELi3ELi3EE15refinement_caseEv = comdat any

$_ZNSt6vectorIN6dealii14RefinementCaseILi3EEESaIS2_EEixEm = comdat any

$_ZNK6dealii12TriaAccessorILi3ELi3ELi3EE11child_indexEj = comdat any

$_ZN6dealii12TriaIteratorINS_12CellAccessorILi3ELi3EEEEC2EPKNS_13TriangulationILi3ELi3EEEiiPKv = comdat any

$_ZN6dealii15TriaRawIteratorINS_12CellAccessorILi3ELi3EEEEC2EPKNS_13TriangulationILi3ELi3EEEiiPKv = comdat any

$_ZN6dealii12CellAccessorILi3ELi3EEC2EPKNS_13TriangulationILi3ELi3EEEiiPKv = comdat any

$_ZN6dealii12TriaAccessorILi3ELi3ELi3EEC2EPKNS_13TriangulationILi3ELi3EEEiiPKv = comdat any

$_ZN6dealii16TriaAccessorBaseILi3ELi3ELi3EEC2EPKNS_13TriangulationILi3ELi3EEEiiPKv = comdat any

$_ZNSt6vectorIhSaIhEEixEm = comdat any

$_ZN6dealii15TriaRawIteratorINS_12CellAccessorILi3ELi3EEEEC2Ev = comdat any

$_ZN6dealii16TriaAccessorBaseILi3ELi3ELi3EE9copy_fromERKS1_ = comdat any

$_ZNK6dealii16TriaAccessorBaseILi3ELi3ELi3EEneERKS1_ = comdat any

$_ZNK6dealii15TriaRawIteratorINS_12CellAccessorILi3ELi3EEEE5stateEv = comdat any

$_ZNK6dealii16TriaAccessorBaseILi3ELi3ELi3EE5stateEv = comdat any

$_ZN6dealii15TriaRawIteratorINS_12CellAccessorILi3ELi3EEEEdeEv = comdat any

$_ZN6dealii14RefinementCaseILi3EEC2Eh = comdat any

$_ZNSt6vectorIbSaIbEEixEm = comdat any

$_ZNKSt14_Bit_referencecvbEv = comdat any

$_ZNSt13_Bit_iteratorC2EPmj = comdat any

$_ZNKSt13_Bit_iteratordeEv = comdat any

$_ZNSt14_Bit_referenceC2EPmm = comdat any

$_ZNK9__gnu_cxx17__normal_iteratorIPKSt6vectorISt4pairIjdESaIS3_EES1_IS5_SaIS5_EEEmiEl = comdat any

$_ZNSt14_Bit_referenceaSEb = comdat any

$_ZN6dealii15TriaRawIteratorINS_12CellAccessorILi3ELi3EEEEppEv = comdat any

$_ZNK6dealii12TriaAccessorILi3ELi3ELi3EE4usedEv = comdat any

$_ZN6dealii16TriaAccessorBaseILi3ELi3ELi3EEppEv = comdat any

$_ZNKSt6vectorIN6dealii8internal13Triangulation10TriaObjectILi3EEESaIS4_EE4sizeEv = comdat any

$_ZNKSt6vectorIPN6dealii8internal13Triangulation9TriaLevelILi3EEESaIS5_EE4sizeEv = comdat any

$_ZNK6dealii12CellAccessorILi3ELi3EE6activeEv = comdat any

$_ZNSt6vectorIS_IbSaIbEESaIS1_EE12emplace_backIJS1_EEEvDpOT_ = comdat any

$_ZSt4moveIRSt6vectorIbSaIbEEEONSt16remove_referenceIT_E4typeEOS5_ = comdat any

$_ZNSt16allocator_traitsISaISt6vectorIbSaIbEEEE9constructIS2_JS2_EEEvRS3_PT_DpOT0_ = comdat any

$_ZSt7forwardISt6vectorIbSaIbEEEOT_RNSt16remove_referenceIS3_E4typeE = comdat any

$_ZNSt6vectorIS_IbSaIbEESaIS1_EE17_M_realloc_insertIJS1_EEEvN9__gnu_cxx17__normal_iteratorIPS1_S3_EEDpOT_ = comdat any

$_ZNSt6vectorIS_IbSaIbEESaIS1_EE3endEv = comdat any

$_ZN9__gnu_cxx13new_allocatorISt6vectorIbSaIbEEE9constructIS3_JS3_EEEvPT_DpOT0_ = comdat any

$_ZNSt6vectorIbSaIbEEC2EOS1_ = comdat any

$_ZNSt13_Bvector_baseISaIbEEC2EOS1_ = comdat any

$_ZNSt13_Bvector_baseISaIbEE13_Bvector_implC2EOS2_ = comdat any

$_ZNSaImEC2ERKS_ = comdat any

$_ZNSt13_Bvector_baseISaIbEE18_Bvector_impl_dataC2EOS2_ = comdat any

$_ZN9__gnu_cxx13new_allocatorImEC2ERKS1_ = comdat any

$_ZNSt13_Bvector_baseISaIbEE18_Bvector_impl_data8_M_resetEv = comdat any

$_ZNKSt6vectorIS_IbSaIbEESaIS1_EE12_M_check_lenEmPKc = comdat any

$_ZN9__gnu_cxxmiIPSt6vectorIbSaIbEES1_IS3_SaIS3_EEEENS_17__normal_iteratorIT_T0_E15difference_typeERKSA_SD_ = comdat any

$_ZNSt6vectorIS_IbSaIbEESaIS1_EE5beginEv = comdat any

$_ZNSt12_Vector_baseISt6vectorIbSaIbEESaIS2_EE11_M_allocateEm = comdat any

$_ZNSt6vectorIS_IbSaIbEESaIS1_EE11_S_relocateEPS1_S4_S4_RS2_ = comdat any

$_ZNK9__gnu_cxx17__normal_iteratorIPSt6vectorIbSaIbEES1_IS3_SaIS3_EEE4baseEv = comdat any

$_ZNKSt6vectorIS_IbSaIbEESaIS1_EE8max_sizeEv = comdat any

$_ZNSt6vectorIS_IbSaIbEESaIS1_EE11_S_max_sizeERKS2_ = comdat any

$_ZNKSt12_Vector_baseISt6vectorIbSaIbEESaIS2_EE19_M_get_Tp_allocatorEv = comdat any

$_ZNSt16allocator_traitsISaISt6vectorIbSaIbEEEE8max_sizeERKS3_ = comdat any

$_ZNK9__gnu_cxx13new_allocatorISt6vectorIbSaIbEEE8max_sizeEv = comdat any

$_ZNK9__gnu_cxx13new_allocatorISt6vectorIbSaIbEEE11_M_max_sizeEv = comdat any

$_ZN9__gnu_cxx17__normal_iteratorIPSt6vectorIbSaIbEES1_IS3_SaIS3_EEEC2ERKS4_ = comdat any

$_ZNSt16allocator_traitsISaISt6vectorIbSaIbEEEE8allocateERS3_m = comdat any

$_ZN9__gnu_cxx13new_allocatorISt6vectorIbSaIbEEE8allocateEmPKv = comdat any

$_ZNSt6vectorIS_IbSaIbEESaIS1_EE14_S_do_relocateEPS1_S4_S4_RS2_St17integral_constantIbLb1EE = comdat any

$_ZSt12__relocate_aIPSt6vectorIbSaIbEES3_SaIS2_EET0_T_S6_S5_RT1_ = comdat any

$_ZSt14__relocate_a_1IPSt6vectorIbSaIbEES3_SaIS2_EET0_T_S6_S5_RT1_ = comdat any

$_ZSt12__niter_baseIPSt6vectorIbSaIbEEET_S4_ = comdat any

$_ZSt19__relocate_object_aISt6vectorIbSaIbEES2_SaIS2_EEvPT_PT0_RT1_ = comdat any

$_ZNSt16allocator_traitsISaISt6vectorIbSaIbEEEE7destroyIS2_EEvRS3_PT_ = comdat any

$_ZN9__gnu_cxx13new_allocatorISt6vectorIbSaIbEEE7destroyIS3_EEvPT_ = comdat any

$_ZNSt13_Bvector_baseISaIbEED2Ev = comdat any

$_ZNSt13_Bvector_baseISaIbEE13_M_deallocateEv = comdat any

$_ZNSt13_Bvector_baseISaIbEE13_Bvector_implD2Ev = comdat any

$_ZNKSt13_Bvector_baseISaIbEE13_Bvector_impl11_M_end_addrEv = comdat any

$_ZNSt16allocator_traitsISaImEE10deallocateERS0_Pmm = comdat any

$_ZSt11__addressofImEPT_RS0_ = comdat any

$_ZN9__gnu_cxx13new_allocatorImE10deallocateEPmm = comdat any

$_ZNSaImED2Ev = comdat any

$_ZN9__gnu_cxx13new_allocatorImED2Ev = comdat any

$_ZNK9__gnu_cxx17__normal_iteratorIPSt6vectorIbSaIbEES1_IS3_SaIS3_EEEmiEl = comdat any

$_ZNK9__gnu_cxx17__normal_iteratorIPSt6vectorIbSaIbEES1_IS3_SaIS3_EEEdeEv = comdat any

$_ZNK6dealii12SmartPointerIKNS_13TriangulationILi3ELi3EEEE18memory_consumptionEv = comdat any

$_ZN6dealii17MemoryConsumption18memory_consumptionERKSt6vectorIbSaIbEE = comdat any

$_ZNKSt6vectorIS_IbSaIbEESaIS1_EEixEm = comdat any

$_ZNKSt6vectorIS_IbSaIbEESaIS1_EE8capacityEv = comdat any

$_ZNKSt6vectorIbSaIbEE8capacityEv = comdat any

$_ZStmiRKSt18_Bit_iterator_baseS1_ = comdat any

$_ZNSt19_Bit_const_iteratorC2EPmj = comdat any

$_ZNKSt6vectorIbSaIbEE5beginEv = comdat any

$_ZNSt6vectorISt4pairIjdESaIS1_EE17_S_check_init_lenEmRKS2_ = comdat any

$_ZNSt6vectorISt4pairIjdESaIS1_EE18_M_fill_initializeEmRKS1_ = comdat any

$_ZNSt6vectorISt4pairIjdESaIS1_EE11_S_max_sizeERKS2_ = comdat any

$_ZNSt16allocator_traitsISaISt4pairIjdEEE8max_sizeERKS2_ = comdat any

$_ZNK9__gnu_cxx13new_allocatorISt4pairIjdEE8max_sizeEv = comdat any

$_ZSt24__uninitialized_fill_n_aIPSt4pairIjdEmS1_S1_ET_S3_T0_RKT1_RSaIT2_E = comdat any

$_ZSt20uninitialized_fill_nIPSt4pairIjdEmS1_ET_S3_T0_RKT1_ = comdat any

$_ZNSt22__uninitialized_fill_nILb0EE15__uninit_fill_nIPSt4pairIjdEmS3_EET_S5_T0_RKT1_ = comdat any

$_ZSt8_DestroyIPSt4pairIjdES1_EvT_S3_RSaIT0_E = comdat any

$_ZTVN6dealii17TimeStepBase_TriaILi3EEE = comdat any

$_ZTSN6dealii17TimeStepBase_TriaILi3EEE = comdat any

$_ZTIN6dealii17TimeStepBase_TriaILi3EEE = comdat any

$_ZTVN6dealii23TimeStepBase_Tria_Flags5FlagsILi3EE19ExcInvalidParameterE = comdat any

$_ZTVN6dealii23TimeStepBase_Tria_Flags15RefinementFlagsILi3EE15ExcInvalidValueE = comdat any

$_ZTVN6dealii23TimeStepBase_Tria_Flags14RefinementDataILi3EE15ExcInvalidValueE = comdat any

$_ZTVN6dealii17TimeStepBase_TriaILi3EE17ExcGridNotDeletedE = comdat any

$_ZTSN6dealii17TimeStepBase_TriaILi3EE17ExcGridNotDeletedE = comdat any

$_ZTIN6dealii17TimeStepBase_TriaILi3EE17ExcGridNotDeletedE = comdat any

$_ZTSN6dealii23TimeStepBase_Tria_Flags5FlagsILi3EE19ExcInvalidParameterE = comdat any

$_ZTIN6dealii23TimeStepBase_Tria_Flags5FlagsILi3EE19ExcInvalidParameterE = comdat any

$_ZTSN6dealii23TimeStepBase_Tria_Flags15RefinementFlagsILi3EE15ExcInvalidValueE = comdat any

$_ZTIN6dealii23TimeStepBase_Tria_Flags15RefinementFlagsILi3EE15ExcInvalidValueE = comdat any

$_ZTSN6dealii23TimeStepBase_Tria_Flags14RefinementDataILi3EE15ExcInvalidValueE = comdat any

$_ZTIN6dealii23TimeStepBase_Tria_Flags14RefinementDataILi3EE15ExcInvalidValueE = comdat any

$_ZTVN6dealii6VectorIfEE = comdat any

$_ZTSN6dealii6VectorIfEE = comdat any

$_ZTIN6dealii6VectorIfEE = comdat any

@_ZN12_GLOBAL__N_12_1E = internal global %"struct.boost::arg" zeroinitializer, align 1, !dbg !0
@_ZN12_GLOBAL__N_12_2E = internal global %"struct.boost::arg.0" zeroinitializer, align 1, !dbg !15
@_ZN12_GLOBAL__N_12_3E = internal global %"struct.boost::arg.2" zeroinitializer, align 1, !dbg !25
@_ZN12_GLOBAL__N_12_4E = internal global %"struct.boost::arg.4" zeroinitializer, align 1, !dbg !35
@_ZN12_GLOBAL__N_12_5E = internal global %"struct.boost::arg.6" zeroinitializer, align 1, !dbg !45
@_ZN12_GLOBAL__N_12_6E = internal global %"struct.boost::arg.8" zeroinitializer, align 1, !dbg !55
@_ZN12_GLOBAL__N_12_7E = internal global %"struct.boost::arg.10" zeroinitializer, align 1, !dbg !65
@_ZN12_GLOBAL__N_12_8E = internal global %"struct.boost::arg.12" zeroinitializer, align 1, !dbg !75
@_ZN12_GLOBAL__N_12_9E = internal global %"struct.boost::arg.14" zeroinitializer, align 1, !dbg !85
@_ZTVN6dealii17TimeStepBase_TriaILi3EEE = weak_odr dso_local unnamed_addr constant { [17 x i8*] } { [17 x i8*] [i8* null, i8* bitcast ({ i8*, i8*, i8* }* @_ZTIN6dealii17TimeStepBase_TriaILi3EEE to i8*), i8* bitcast (void (%"class.dealii::TimeStepBase_Tria"*)* @_ZN6dealii17TimeStepBase_TriaILi3EED1Ev to i8*), i8* bitcast (void (%"class.dealii::TimeStepBase_Tria"*)* @_ZN6dealii17TimeStepBase_TriaILi3EED0Ev to i8*), i8* bitcast (void (%"class.dealii::TimeStepBase_Tria"*, i32)* @_ZN6dealii17TimeStepBase_TriaILi3EE7wake_upEj to i8*), i8* bitcast (void (%"class.dealii::TimeStepBase_Tria"*, i32)* @_ZN6dealii17TimeStepBase_TriaILi3EE5sleepEj to i8*), i8* bitcast (void (%"class.dealii::TimeStepBase"*)* @_ZN6dealii12TimeStepBase11start_sweepEv to i8*), i8* bitcast (void (%"class.dealii::TimeStepBase"*)* @_ZN6dealii12TimeStepBase9end_sweepEv to i8*), i8* bitcast (void (%"class.dealii::TimeStepBase"*)* @_ZN6dealii12TimeStepBase23init_for_primal_problemEv to i8*), i8* bitcast (void (%"class.dealii::TimeStepBase"*)* @_ZN6dealii12TimeStepBase21init_for_dual_problemEv to i8*), i8* bitcast (void (%"class.dealii::TimeStepBase"*)* @_ZN6dealii12TimeStepBase23init_for_postprocessingEv to i8*), i8* bitcast (void ()* @__cxa_pure_virtual to i8*), i8* bitcast (void (%"class.dealii::TimeStepBase"*)* @_ZN6dealii12TimeStepBase18solve_dual_problemEv to i8*), i8* bitcast (void (%"class.dealii::TimeStepBase"*)* @_ZN6dealii12TimeStepBase20postprocess_timestepEv to i8*), i8* bitcast (i32 (%"class.dealii::TimeStepBase_Tria"*)* @_ZNK6dealii17TimeStepBase_TriaILi3EE18memory_consumptionEv to i8*), i8* bitcast (void (%"class.dealii::TimeStepBase_Tria"*)* @_ZN6dealii17TimeStepBase_TriaILi3EE19init_for_refinementEv to i8*), i8* bitcast (void ()* @__cxa_pure_virtual to i8*)] }, comdat, align 8
@_ZTVN10__cxxabiv120__si_class_type_infoE = external dso_local global i8*
@_ZTSN6dealii12TimeStepBaseE = dso_local constant [24 x i8] c"N6dealii12TimeStepBaseE\00", align 1
@_ZTIN6dealii11SubscriptorE = external dso_local constant i8*
@_ZTIN6dealii12TimeStepBaseE = dso_local constant { i8*, i8*, i8* } { i8* bitcast (i8** getelementptr inbounds (i8*, i8** @_ZTVN10__cxxabiv120__si_class_type_infoE, i64 2) to i8*), i8* getelementptr inbounds ([24 x i8], [24 x i8]* @_ZTSN6dealii12TimeStepBaseE, i32 0, i32 0), i8* bitcast (i8** @_ZTIN6dealii11SubscriptorE to i8*) }, align 8
@_ZTSN6dealii17TimeStepBase_TriaILi3EEE = weak_odr dso_local constant [35 x i8] c"N6dealii17TimeStepBase_TriaILi3EEE\00", comdat, align 1
@_ZTIN6dealii17TimeStepBase_TriaILi3EEE = weak_odr dso_local constant { i8*, i8*, i8* } { i8* bitcast (i8** getelementptr inbounds (i8*, i8** @_ZTVN10__cxxabiv120__si_class_type_infoE, i64 2) to i8*), i8* getelementptr inbounds ([35 x i8], [35 x i8]* @_ZTSN6dealii17TimeStepBase_TriaILi3EEE, i32 0, i32 0), i8* bitcast ({ i8*, i8*, i8* }* @_ZTIN6dealii12TimeStepBaseE to i8*) }, comdat, align 8
@_ZTVN6dealii23TimeStepBase_Tria_Flags5FlagsILi3EE19ExcInvalidParameterE = weak_odr dso_local unnamed_addr constant { [6 x i8*] } { [6 x i8*] [i8* null, i8* bitcast ({ i8*, i8*, i8* }* @_ZTIN6dealii23TimeStepBase_Tria_Flags5FlagsILi3EE19ExcInvalidParameterE to i8*), i8* bitcast (void (%"class.dealii::TimeStepBase_Tria_Flags::Flags<3>::ExcInvalidParameter"*)* @_ZN6dealii23TimeStepBase_Tria_Flags5FlagsILi3EE19ExcInvalidParameterD1Ev to i8*), i8* bitcast (void (%"class.dealii::TimeStepBase_Tria_Flags::Flags<3>::ExcInvalidParameter"*)* @_ZN6dealii23TimeStepBase_Tria_Flags5FlagsILi3EE19ExcInvalidParameterD0Ev to i8*), i8* bitcast (i8* (%"class.dealii::ExceptionBase"*)* @_ZNK6dealii13ExceptionBase4whatEv to i8*), i8* bitcast (void (%"class.dealii::TimeStepBase_Tria_Flags::Flags<3>::ExcInvalidParameter"*, %"class.std::basic_ostream"*)* @_ZNK6dealii23TimeStepBase_Tria_Flags5FlagsILi3EE19ExcInvalidParameter10print_infoERSo to i8*)] }, comdat, align 8
@.str = private unnamed_addr constant [15 x i8] c"The parameter \00", align 1
@.str.9 = private unnamed_addr constant [23 x i8] c" has an invalid value.\00", align 1
@_ZN6dealii23TimeStepBase_Tria_Flags15RefinementFlagsILi3EE30default_correction_relaxationsE = weak_odr dso_local global %"class.std::vector" zeroinitializer, comdat, align 8, !dbg !95, !dbg !95
@_ZGVN6dealii23TimeStepBase_Tria_Flags15RefinementFlagsILi3EE30default_correction_relaxationsE = weak_odr dso_local global i64 0, comdat($_ZN6dealii23TimeStepBase_Tria_Flags15RefinementFlagsILi3EE30default_correction_relaxationsE), align 8
@__dso_handle = external hidden global i8
@_ZTVN6dealii23TimeStepBase_Tria_Flags15RefinementFlagsILi3EE15ExcInvalidValueE = weak_odr dso_local unnamed_addr constant { [6 x i8*] } { [6 x i8*] [i8* null, i8* bitcast ({ i8*, i8*, i8* }* @_ZTIN6dealii23TimeStepBase_Tria_Flags15RefinementFlagsILi3EE15ExcInvalidValueE to i8*), i8* bitcast (void (%"class.dealii::TimeStepBase_Tria_Flags::RefinementFlags<3>::ExcInvalidValue"*)* @_ZN6dealii23TimeStepBase_Tria_Flags15RefinementFlagsILi3EE15ExcInvalidValueD1Ev to i8*), i8* bitcast (void (%"class.dealii::TimeStepBase_Tria_Flags::RefinementFlags<3>::ExcInvalidValue"*)* @_ZN6dealii23TimeStepBase_Tria_Flags15RefinementFlagsILi3EE15ExcInvalidValueD0Ev to i8*), i8* bitcast (i8* (%"class.dealii::ExceptionBase"*)* @_ZNK6dealii13ExceptionBase4whatEv to i8*), i8* bitcast (void (%"class.dealii::TimeStepBase_Tria_Flags::RefinementFlags<3>::ExcInvalidValue"*, %"class.std::basic_ostream"*)* @_ZNK6dealii23TimeStepBase_Tria_Flags15RefinementFlagsILi3EE15ExcInvalidValue10print_infoERSo to i8*)] }, comdat, align 8
@.str.11 = private unnamed_addr constant [56 x i8] c"The following value does not fulfill the requirements: \00", align 1
@_ZTVN6dealii23TimeStepBase_Tria_Flags14RefinementDataILi3EE15ExcInvalidValueE = weak_odr dso_local unnamed_addr constant { [6 x i8*] } { [6 x i8*] [i8* null, i8* bitcast ({ i8*, i8*, i8* }* @_ZTIN6dealii23TimeStepBase_Tria_Flags14RefinementDataILi3EE15ExcInvalidValueE to i8*), i8* bitcast (void (%"class.dealii::TimeStepBase_Tria_Flags::RefinementData<3>::ExcInvalidValue"*)* @_ZN6dealii23TimeStepBase_Tria_Flags14RefinementDataILi3EE15ExcInvalidValueD1Ev to i8*), i8* bitcast (void (%"class.dealii::TimeStepBase_Tria_Flags::RefinementData<3>::ExcInvalidValue"*)* @_ZN6dealii23TimeStepBase_Tria_Flags14RefinementDataILi3EE15ExcInvalidValueD0Ev to i8*), i8* bitcast (i8* (%"class.dealii::ExceptionBase"*)* @_ZNK6dealii13ExceptionBase4whatEv to i8*), i8* bitcast (void (%"class.dealii::TimeStepBase_Tria_Flags::RefinementData<3>::ExcInvalidValue"*, %"class.std::basic_ostream"*)* @_ZNK6dealii23TimeStepBase_Tria_Flags14RefinementDataILi3EE15ExcInvalidValue10print_infoERSo to i8*)] }, comdat, align 8
@_ZTVN6dealii13TimeDependentE = dso_local unnamed_addr constant { [6 x i8*] } { [6 x i8*] [i8* null, i8* bitcast ({ i8*, i8* }* @_ZTIN6dealii13TimeDependentE to i8*), i8* bitcast (void (%"class.dealii::TimeDependent"*)* @_ZN6dealii13TimeDependentD1Ev to i8*), i8* bitcast (void (%"class.dealii::TimeDependent"*)* @_ZN6dealii13TimeDependentD0Ev to i8*), i8* bitcast (void (%"class.dealii::TimeDependent"*, i32)* @_ZN6dealii13TimeDependent11start_sweepEj to i8*), i8* bitcast (void (%"class.dealii::TimeDependent"*, i32)* @_ZN6dealii13TimeDependent9end_sweepEj to i8*)] }, align 8
@_ZTVN6dealii12TimeStepBaseE = dso_local unnamed_addr constant { [15 x i8*] } { [15 x i8*] [i8* null, i8* bitcast ({ i8*, i8*, i8* }* @_ZTIN6dealii12TimeStepBaseE to i8*), i8* bitcast (void (%"class.dealii::TimeStepBase"*)* @_ZN6dealii12TimeStepBaseD1Ev to i8*), i8* bitcast (void (%"class.dealii::TimeStepBase"*)* @_ZN6dealii12TimeStepBaseD0Ev to i8*), i8* bitcast (void (%"class.dealii::TimeStepBase"*, i32)* @_ZN6dealii12TimeStepBase7wake_upEj to i8*), i8* bitcast (void (%"class.dealii::TimeStepBase"*, i32)* @_ZN6dealii12TimeStepBase5sleepEj to i8*), i8* bitcast (void (%"class.dealii::TimeStepBase"*)* @_ZN6dealii12TimeStepBase11start_sweepEv to i8*), i8* bitcast (void (%"class.dealii::TimeStepBase"*)* @_ZN6dealii12TimeStepBase9end_sweepEv to i8*), i8* bitcast (void (%"class.dealii::TimeStepBase"*)* @_ZN6dealii12TimeStepBase23init_for_primal_problemEv to i8*), i8* bitcast (void (%"class.dealii::TimeStepBase"*)* @_ZN6dealii12TimeStepBase21init_for_dual_problemEv to i8*), i8* bitcast (void (%"class.dealii::TimeStepBase"*)* @_ZN6dealii12TimeStepBase23init_for_postprocessingEv to i8*), i8* bitcast (void ()* @__cxa_pure_virtual to i8*), i8* bitcast (void (%"class.dealii::TimeStepBase"*)* @_ZN6dealii12TimeStepBase18solve_dual_problemEv to i8*), i8* bitcast (void (%"class.dealii::TimeStepBase"*)* @_ZN6dealii12TimeStepBase20postprocess_timestepEv to i8*), i8* bitcast (i32 (%"class.dealii::TimeStepBase"*)* @_ZNK6dealii12TimeStepBase18memory_consumptionEv to i8*)] }, align 8
@_ZTVN10__cxxabiv117__class_type_infoE = external dso_local global i8*
@_ZTSN6dealii13TimeDependentE = dso_local constant [25 x i8] c"N6dealii13TimeDependentE\00", align 1
@_ZTIN6dealii13TimeDependentE = dso_local constant { i8*, i8* } { i8* bitcast (i8** getelementptr inbounds (i8*, i8** @_ZTVN10__cxxabiv117__class_type_infoE, i64 2) to i8*), i8* getelementptr inbounds ([25 x i8], [25 x i8]* @_ZTSN6dealii13TimeDependentE, i32 0, i32 0) }, align 8
@_ZTVN6dealii17TimeStepBase_TriaILi3EE17ExcGridNotDeletedE = weak_odr dso_local unnamed_addr constant { [6 x i8*] } { [6 x i8*] [i8* null, i8* bitcast ({ i8*, i8*, i8* }* @_ZTIN6dealii17TimeStepBase_TriaILi3EE17ExcGridNotDeletedE to i8*), i8* bitcast (void (%"class.dealii::TimeStepBase_Tria<3>::ExcGridNotDeleted"*)* @_ZN6dealii17TimeStepBase_TriaILi3EE17ExcGridNotDeletedD2Ev to i8*), i8* bitcast (void (%"class.dealii::TimeStepBase_Tria<3>::ExcGridNotDeleted"*)* @_ZN6dealii17TimeStepBase_TriaILi3EE17ExcGridNotDeletedD0Ev to i8*), i8* bitcast (i8* (%"class.dealii::ExceptionBase"*)* @_ZNK6dealii13ExceptionBase4whatEv to i8*), i8* bitcast (void (%"class.dealii::ExceptionBase"*, %"class.std::basic_ostream"*)* @_ZNK6dealii13ExceptionBase10print_infoERSo to i8*)] }, comdat, align 8
@_ZTSN6dealii17TimeStepBase_TriaILi3EE17ExcGridNotDeletedE = weak_odr dso_local constant [54 x i8] c"N6dealii17TimeStepBase_TriaILi3EE17ExcGridNotDeletedE\00", comdat, align 1
@_ZTIN6dealii13ExceptionBaseE = external dso_local constant i8*
@_ZTIN6dealii17TimeStepBase_TriaILi3EE17ExcGridNotDeletedE = weak_odr dso_local constant { i8*, i8*, i8* } { i8* bitcast (i8** getelementptr inbounds (i8*, i8** @_ZTVN10__cxxabiv120__si_class_type_infoE, i64 2) to i8*), i8* getelementptr inbounds ([54 x i8], [54 x i8]* @_ZTSN6dealii17TimeStepBase_TriaILi3EE17ExcGridNotDeletedE, i32 0, i32 0), i8* bitcast (i8** @_ZTIN6dealii13ExceptionBaseE to i8*) }, comdat, align 8
@_ZTSN6dealii23TimeStepBase_Tria_Flags5FlagsILi3EE19ExcInvalidParameterE = weak_odr dso_local constant [68 x i8] c"N6dealii23TimeStepBase_Tria_Flags5FlagsILi3EE19ExcInvalidParameterE\00", comdat, align 1
@_ZTIN6dealii23TimeStepBase_Tria_Flags5FlagsILi3EE19ExcInvalidParameterE = weak_odr dso_local constant { i8*, i8*, i8* } { i8* bitcast (i8** getelementptr inbounds (i8*, i8** @_ZTVN10__cxxabiv120__si_class_type_infoE, i64 2) to i8*), i8* getelementptr inbounds ([68 x i8], [68 x i8]* @_ZTSN6dealii23TimeStepBase_Tria_Flags5FlagsILi3EE19ExcInvalidParameterE, i32 0, i32 0), i8* bitcast (i8** @_ZTIN6dealii13ExceptionBaseE to i8*) }, comdat, align 8
@_ZTSN6dealii23TimeStepBase_Tria_Flags15RefinementFlagsILi3EE15ExcInvalidValueE = weak_odr dso_local constant [75 x i8] c"N6dealii23TimeStepBase_Tria_Flags15RefinementFlagsILi3EE15ExcInvalidValueE\00", comdat, align 1
@_ZTIN6dealii23TimeStepBase_Tria_Flags15RefinementFlagsILi3EE15ExcInvalidValueE = weak_odr dso_local constant { i8*, i8*, i8* } { i8* bitcast (i8** getelementptr inbounds (i8*, i8** @_ZTVN10__cxxabiv120__si_class_type_infoE, i64 2) to i8*), i8* getelementptr inbounds ([75 x i8], [75 x i8]* @_ZTSN6dealii23TimeStepBase_Tria_Flags15RefinementFlagsILi3EE15ExcInvalidValueE, i32 0, i32 0), i8* bitcast (i8** @_ZTIN6dealii13ExceptionBaseE to i8*) }, comdat, align 8
@_ZTSN6dealii23TimeStepBase_Tria_Flags14RefinementDataILi3EE15ExcInvalidValueE = weak_odr dso_local constant [74 x i8] c"N6dealii23TimeStepBase_Tria_Flags14RefinementDataILi3EE15ExcInvalidValueE\00", comdat, align 1
@_ZTIN6dealii23TimeStepBase_Tria_Flags14RefinementDataILi3EE15ExcInvalidValueE = weak_odr dso_local constant { i8*, i8*, i8* } { i8* bitcast (i8** getelementptr inbounds (i8*, i8** @_ZTVN10__cxxabiv120__si_class_type_infoE, i64 2) to i8*), i8* getelementptr inbounds ([74 x i8], [74 x i8]* @_ZTSN6dealii23TimeStepBase_Tria_Flags14RefinementDataILi3EE15ExcInvalidValueE, i32 0, i32 0), i8* bitcast (i8** @_ZTIN6dealii13ExceptionBaseE to i8*) }, comdat, align 8
@.str.12 = private unnamed_addr constant [26 x i8] c"vector::_M_realloc_insert\00", align 1
@.str.13 = private unnamed_addr constant [49 x i8] c"cannot create std::vector larger than max_size()\00", align 1
@_ZTVN6dealii6VectorIfEE = linkonce_odr dso_local unnamed_addr constant { [6 x i8*] } { [6 x i8*] [i8* null, i8* bitcast ({ i8*, i8*, i8* }* @_ZTIN6dealii6VectorIfEE to i8*), i8* bitcast (void (%"class.dealii::Vector"*)* @_ZN6dealii6VectorIfED2Ev to i8*), i8* bitcast (void (%"class.dealii::Vector"*)* @_ZN6dealii6VectorIfED0Ev to i8*), i8* bitcast (void (%"class.dealii::Vector"*, i32, i1)* @_ZN6dealii6VectorIfE6reinitEjb to i8*), i8* bitcast (void (%"class.dealii::Vector"*, %"class.dealii::Vector"*)* @_ZN6dealii6VectorIfE4swapERS1_ to i8*)] }, comdat, align 8
@_ZTSN6dealii6VectorIfEE = linkonce_odr dso_local constant [20 x i8] c"N6dealii6VectorIfEE\00", comdat, align 1
@_ZTIN6dealii6VectorIfEE = linkonce_odr dso_local constant { i8*, i8*, i8* } { i8* bitcast (i8** getelementptr inbounds (i8*, i8** @_ZTVN10__cxxabiv120__si_class_type_infoE, i64 2) to i8*), i8* getelementptr inbounds ([20 x i8], [20 x i8]* @_ZTSN6dealii6VectorIfEE, i32 0, i32 0), i8* bitcast (i8** @_ZTIN6dealii11SubscriptorE to i8*) }, comdat, align 8
@llvm.global_ctors = appending global [2 x { i32, void ()*, i8* }] [{ i32, void ()*, i8* } { i32 65535, void ()* @__cxx_global_var_init.10, i8* bitcast (%"class.std::vector"* @_ZN6dealii23TimeStepBase_Tria_Flags15RefinementFlagsILi3EE30default_correction_relaxationsE to i8*) }, { i32, void ()*, i8* } { i32 65535, void ()* @_GLOBAL__sub_I_time_dependent.cc, i8* null }]

@_ZN6dealii17TimeStepBase_TriaILi3EED1Ev = weak_odr dso_local unnamed_addr alias void (%"class.dealii::TimeStepBase_Tria"*), void (%"class.dealii::TimeStepBase_Tria"*)* @_ZN6dealii17TimeStepBase_TriaILi3EED2Ev
@_ZN6dealii23TimeStepBase_Tria_Flags5FlagsILi3EEC1Ev = weak_odr dso_local unnamed_addr alias void (%"struct.dealii::TimeStepBase_Tria_Flags::Flags"*), void (%"struct.dealii::TimeStepBase_Tria_Flags::Flags"*)* @_ZN6dealii23TimeStepBase_Tria_Flags5FlagsILi3EEC2Ev
@_ZN6dealii23TimeStepBase_Tria_Flags5FlagsILi3EEC1Ebjj = weak_odr dso_local unnamed_addr alias void (%"struct.dealii::TimeStepBase_Tria_Flags::Flags"*, i1, i32, i32), void (%"struct.dealii::TimeStepBase_Tria_Flags::Flags"*, i1, i32, i32)* @_ZN6dealii23TimeStepBase_Tria_Flags5FlagsILi3EEC2Ebjj
@_ZN6dealii23TimeStepBase_Tria_Flags5FlagsILi3EE19ExcInvalidParameterC1Ei = weak_odr dso_local unnamed_addr alias void (%"class.dealii::TimeStepBase_Tria_Flags::Flags<3>::ExcInvalidParameter"*, i32), void (%"class.dealii::TimeStepBase_Tria_Flags::Flags<3>::ExcInvalidParameter"*, i32)* @_ZN6dealii23TimeStepBase_Tria_Flags5FlagsILi3EE19ExcInvalidParameterC2Ei
@_ZN6dealii23TimeStepBase_Tria_Flags5FlagsILi3EE19ExcInvalidParameterD1Ev = weak_odr dso_local unnamed_addr alias void (%"class.dealii::TimeStepBase_Tria_Flags::Flags<3>::ExcInvalidParameter"*), void (%"class.dealii::TimeStepBase_Tria_Flags::Flags<3>::ExcInvalidParameter"*)* @_ZN6dealii23TimeStepBase_Tria_Flags5FlagsILi3EE19ExcInvalidParameterD2Ev
@_ZN6dealii23TimeStepBase_Tria_Flags15RefinementFlagsILi3EEC1EjjjddRKSt6vectorIS3_ISt4pairIjdESaIS5_EESaIS7_EEjbb = weak_odr dso_local unnamed_addr alias void (%"struct.dealii::TimeStepBase_Tria_Flags::RefinementFlags"*, i32, i32, i32, double, double, %"class.std::vector"*, i32, i1, i1), void (%"struct.dealii::TimeStepBase_Tria_Flags::RefinementFlags"*, i32, i32, i32, double, double, %"class.std::vector"*, i32, i1, i1)* @_ZN6dealii23TimeStepBase_Tria_Flags15RefinementFlagsILi3EEC2EjjjddRKSt6vectorIS3_ISt4pairIjdESaIS5_EESaIS7_EEjbb
@_ZN6dealii23TimeStepBase_Tria_Flags15RefinementFlagsILi3EE15ExcInvalidValueC1Ed = weak_odr dso_local unnamed_addr alias void (%"class.dealii::TimeStepBase_Tria_Flags::RefinementFlags<3>::ExcInvalidValue"*, double), void (%"class.dealii::TimeStepBase_Tria_Flags::RefinementFlags<3>::ExcInvalidValue"*, double)* @_ZN6dealii23TimeStepBase_Tria_Flags15RefinementFlagsILi3EE15ExcInvalidValueC2Ed
@_ZN6dealii23TimeStepBase_Tria_Flags15RefinementFlagsILi3EE15ExcInvalidValueD1Ev = weak_odr dso_local unnamed_addr alias void (%"class.dealii::TimeStepBase_Tria_Flags::RefinementFlags<3>::ExcInvalidValue"*), void (%"class.dealii::TimeStepBase_Tria_Flags::RefinementFlags<3>::ExcInvalidValue"*)* @_ZN6dealii23TimeStepBase_Tria_Flags15RefinementFlagsILi3EE15ExcInvalidValueD2Ev
@_ZN6dealii23TimeStepBase_Tria_Flags14RefinementDataILi3EEC1Edd = weak_odr dso_local unnamed_addr alias void (%"struct.dealii::TimeStepBase_Tria_Flags::RefinementData"*, double, double), void (%"struct.dealii::TimeStepBase_Tria_Flags::RefinementData"*, double, double)* @_ZN6dealii23TimeStepBase_Tria_Flags14RefinementDataILi3EEC2Edd
@_ZN6dealii23TimeStepBase_Tria_Flags14RefinementDataILi3EE15ExcInvalidValueC1Ed = weak_odr dso_local unnamed_addr alias void (%"class.dealii::TimeStepBase_Tria_Flags::RefinementData<3>::ExcInvalidValue"*, double), void (%"class.dealii::TimeStepBase_Tria_Flags::RefinementData<3>::ExcInvalidValue"*, double)* @_ZN6dealii23TimeStepBase_Tria_Flags14RefinementDataILi3EE15ExcInvalidValueC2Ed
@_ZN6dealii23TimeStepBase_Tria_Flags14RefinementDataILi3EE15ExcInvalidValueD1Ev = weak_odr dso_local unnamed_addr alias void (%"class.dealii::TimeStepBase_Tria_Flags::RefinementData<3>::ExcInvalidValue"*), void (%"class.dealii::TimeStepBase_Tria_Flags::RefinementData<3>::ExcInvalidValue"*)* @_ZN6dealii23TimeStepBase_Tria_Flags14RefinementDataILi3EE15ExcInvalidValueD2Ev
@_ZN6dealii13TimeDependent16TimeSteppingDataC1Ejj = dso_local unnamed_addr alias void (%"struct.dealii::TimeDependent::TimeSteppingData"*, i32, i32), void (%"struct.dealii::TimeDependent::TimeSteppingData"*, i32, i32)* @_ZN6dealii13TimeDependent16TimeSteppingDataC2Ejj
@_ZN6dealii13TimeDependentC1ERKNS0_16TimeSteppingDataES3_S3_ = dso_local unnamed_addr alias void (%"class.dealii::TimeDependent"*, %"struct.dealii::TimeDependent::TimeSteppingData"*, %"struct.dealii::TimeDependent::TimeSteppingData"*, %"struct.dealii::TimeDependent::TimeSteppingData"*), void (%"class.dealii::TimeDependent"*, %"struct.dealii::TimeDependent::TimeSteppingData"*, %"struct.dealii::TimeDependent::TimeSteppingData"*, %"struct.dealii::TimeDependent::TimeSteppingData"*)* @_ZN6dealii13TimeDependentC2ERKNS0_16TimeSteppingDataES3_S3_
@_ZN6dealii13TimeDependentD1Ev = dso_local unnamed_addr alias void (%"class.dealii::TimeDependent"*), void (%"class.dealii::TimeDependent"*)* @_ZN6dealii13TimeDependentD2Ev
@_ZN6dealii12TimeStepBaseD1Ev = dso_local unnamed_addr alias void (%"class.dealii::TimeStepBase"*), void (%"class.dealii::TimeStepBase"*)* @_ZN6dealii12TimeStepBaseD2Ev

; Function Attrs: noinline uwtable
define internal void @__cxx_global_var_init() #0 section ".text.startup" !dbg !11108 {
entry:
  call void @_ZN5boost3argILi1EEC2Ev(%"struct.boost::arg"* @_ZN12_GLOBAL__N_12_1E), !dbg !11109
  ret void, !dbg !11109
}

; Function Attrs: noinline nounwind uwtable
define linkonce_odr dso_local void @_ZN5boost3argILi1EEC2Ev(%"struct.boost::arg"* %this) unnamed_addr #1 comdat align 2 !dbg !11110 {
entry:
  %this.addr = alloca %"struct.boost::arg"*, align 8
  store %"struct.boost::arg"* %this, %"struct.boost::arg"** %this.addr, align 8
  call void @llvm.dbg.declare(metadata %"struct.boost::arg"** %this.addr, metadata !11111, metadata !DIExpression()), !dbg !11113
  %this1 = load %"struct.boost::arg"*, %"struct.boost::arg"** %this.addr, align 8
  ret void, !dbg !11114
}

; Function Attrs: noinline uwtable
define internal void @__cxx_global_var_init.1() #0 section ".text.startup" !dbg !11115 {
entry:
  call void @_ZN5boost3argILi2EEC2Ev(%"struct.boost::arg.0"* @_ZN12_GLOBAL__N_12_2E), !dbg !11116
  ret void, !dbg !11116
}

; Function Attrs: noinline nounwind uwtable
define linkonce_odr dso_local void @_ZN5boost3argILi2EEC2Ev(%"struct.boost::arg.0"* %this) unnamed_addr #1 comdat align 2 !dbg !11117 {
entry:
  %this.addr = alloca %"struct.boost::arg.0"*, align 8
  store %"struct.boost::arg.0"* %this, %"struct.boost::arg.0"** %this.addr, align 8
  call void @llvm.dbg.declare(metadata %"struct.boost::arg.0"** %this.addr, metadata !11118, metadata !DIExpression()), !dbg !11120
  %this1 = load %"struct.boost::arg.0"*, %"struct.boost::arg.0"** %this.addr, align 8
  ret void, !dbg !11121
}

; Function Attrs: noinline uwtable
define internal void @__cxx_global_var_init.2() #0 section ".text.startup" !dbg !11122 {
entry:
  call void @_ZN5boost3argILi3EEC2Ev(%"struct.boost::arg.2"* @_ZN12_GLOBAL__N_12_3E), !dbg !11123
  ret void, !dbg !11123
}

; Function Attrs: noinline nounwind uwtable
define linkonce_odr dso_local void @_ZN5boost3argILi3EEC2Ev(%"struct.boost::arg.2"* %this) unnamed_addr #1 comdat align 2 !dbg !11124 {
entry:
  %this.addr = alloca %"struct.boost::arg.2"*, align 8
  store %"struct.boost::arg.2"* %this, %"struct.boost::arg.2"** %this.addr, align 8
  call void @llvm.dbg.declare(metadata %"struct.boost::arg.2"** %this.addr, metadata !11125, metadata !DIExpression()), !dbg !11127
  %this1 = load %"struct.boost::arg.2"*, %"struct.boost::arg.2"** %this.addr, align 8
  ret void, !dbg !11128
}

; Function Attrs: noinline uwtable
define internal void @__cxx_global_var_init.3() #0 section ".text.startup" !dbg !11129 {
entry:
  call void @_ZN5boost3argILi4EEC2Ev(%"struct.boost::arg.4"* @_ZN12_GLOBAL__N_12_4E), !dbg !11130
  ret void, !dbg !11130
}

; Function Attrs: noinline nounwind uwtable
define linkonce_odr dso_local void @_ZN5boost3argILi4EEC2Ev(%"struct.boost::arg.4"* %this) unnamed_addr #1 comdat align 2 !dbg !11131 {
entry:
  %this.addr = alloca %"struct.boost::arg.4"*, align 8
  store %"struct.boost::arg.4"* %this, %"struct.boost::arg.4"** %this.addr, align 8
  call void @llvm.dbg.declare(metadata %"struct.boost::arg.4"** %this.addr, metadata !11132, metadata !DIExpression()), !dbg !11134
  %this1 = load %"struct.boost::arg.4"*, %"struct.boost::arg.4"** %this.addr, align 8
  ret void, !dbg !11135
}

; Function Attrs: noinline uwtable
define internal void @__cxx_global_var_init.4() #0 section ".text.startup" !dbg !11136 {
entry:
  call void @_ZN5boost3argILi5EEC2Ev(%"struct.boost::arg.6"* @_ZN12_GLOBAL__N_12_5E), !dbg !11137
  ret void, !dbg !11137
}

; Function Attrs: noinline nounwind uwtable
define linkonce_odr dso_local void @_ZN5boost3argILi5EEC2Ev(%"struct.boost::arg.6"* %this) unnamed_addr #1 comdat align 2 !dbg !11138 {
entry:
  %this.addr = alloca %"struct.boost::arg.6"*, align 8
  store %"struct.boost::arg.6"* %this, %"struct.boost::arg.6"** %this.addr, align 8
  call void @llvm.dbg.declare(metadata %"struct.boost::arg.6"** %this.addr, metadata !11139, metadata !DIExpression()), !dbg !11141
  %this1 = load %"struct.boost::arg.6"*, %"struct.boost::arg.6"** %this.addr, align 8
  ret void, !dbg !11142
}

; Function Attrs: noinline uwtable
define internal void @__cxx_global_var_init.5() #0 section ".text.startup" !dbg !11143 {
entry:
  call void @_ZN5boost3argILi6EEC2Ev(%"struct.boost::arg.8"* @_ZN12_GLOBAL__N_12_6E), !dbg !11144
  ret void, !dbg !11144
}

; Function Attrs: noinline nounwind uwtable
define linkonce_odr dso_local void @_ZN5boost3argILi6EEC2Ev(%"struct.boost::arg.8"* %this) unnamed_addr #1 comdat align 2 !dbg !11145 {
entry:
  %this.addr = alloca %"struct.boost::arg.8"*, align 8
  store %"struct.boost::arg.8"* %this, %"struct.boost::arg.8"** %this.addr, align 8
  call void @llvm.dbg.declare(metadata %"struct.boost::arg.8"** %this.addr, metadata !11146, metadata !DIExpression()), !dbg !11148
  %this1 = load %"struct.boost::arg.8"*, %"struct.boost::arg.8"** %this.addr, align 8
  ret void, !dbg !11149
}

; Function Attrs: noinline uwtable
define internal void @__cxx_global_var_init.6() #0 section ".text.startup" !dbg !11150 {
entry:
  call void @_ZN5boost3argILi7EEC2Ev(%"struct.boost::arg.10"* @_ZN12_GLOBAL__N_12_7E), !dbg !11151
  ret void, !dbg !11151
}

; Function Attrs: noinline nounwind uwtable
define linkonce_odr dso_local void @_ZN5boost3argILi7EEC2Ev(%"struct.boost::arg.10"* %this) unnamed_addr #1 comdat align 2 !dbg !11152 {
entry:
  %this.addr = alloca %"struct.boost::arg.10"*, align 8
  store %"struct.boost::arg.10"* %this, %"struct.boost::arg.10"** %this.addr, align 8
  call void @llvm.dbg.declare(metadata %"struct.boost::arg.10"** %this.addr, metadata !11153, metadata !DIExpression()), !dbg !11155
  %this1 = load %"struct.boost::arg.10"*, %"struct.boost::arg.10"** %this.addr, align 8
  ret void, !dbg !11156
}

; Function Attrs: noinline uwtable
define internal void @__cxx_global_var_init.7() #0 section ".text.startup" !dbg !11157 {
entry:
  call void @_ZN5boost3argILi8EEC2Ev(%"struct.boost::arg.12"* @_ZN12_GLOBAL__N_12_8E), !dbg !11158
  ret void, !dbg !11158
}

; Function Attrs: noinline nounwind uwtable
define linkonce_odr dso_local void @_ZN5boost3argILi8EEC2Ev(%"struct.boost::arg.12"* %this) unnamed_addr #1 comdat align 2 !dbg !11159 {
entry:
  %this.addr = alloca %"struct.boost::arg.12"*, align 8
  store %"struct.boost::arg.12"* %this, %"struct.boost::arg.12"** %this.addr, align 8
  call void @llvm.dbg.declare(metadata %"struct.boost::arg.12"** %this.addr, metadata !11160, metadata !DIExpression()), !dbg !11162
  %this1 = load %"struct.boost::arg.12"*, %"struct.boost::arg.12"** %this.addr, align 8
  ret void, !dbg !11163
}

; Function Attrs: noinline uwtable
define internal void @__cxx_global_var_init.8() #0 section ".text.startup" !dbg !11164 {
entry:
  call void @_ZN5boost3argILi9EEC2Ev(%"struct.boost::arg.14"* @_ZN12_GLOBAL__N_12_9E), !dbg !11165
  ret void, !dbg !11165
}

; Function Attrs: noinline nounwind uwtable
define linkonce_odr dso_local void @_ZN5boost3argILi9EEC2Ev(%"struct.boost::arg.14"* %this) unnamed_addr #1 comdat align 2 !dbg !11166 {
entry:
  %this.addr = alloca %"struct.boost::arg.14"*, align 8
  store %"struct.boost::arg.14"* %this, %"struct.boost::arg.14"** %this.addr, align 8
  call void @llvm.dbg.declare(metadata %"struct.boost::arg.14"** %this.addr, metadata !11167, metadata !DIExpression()), !dbg !11169
  %this1 = load %"struct.boost::arg.14"*, %"struct.boost::arg.14"** %this.addr, align 8
  ret void, !dbg !11170
}

; Function Attrs: noinline uwtable
define weak_odr dso_local void @_ZN6dealii17TimeStepBase_TriaILi3EEC2Ev(%"class.dealii::TimeStepBase_Tria"* %this) unnamed_addr #0 comdat($_ZN6dealii17TimeStepBase_TriaILi3EEC5Ev) align 2 personality i8* bitcast (i32 (...)* @__gxx_personality_v0 to i8*) !dbg !11171 {
entry:
  %this.addr = alloca %"class.dealii::TimeStepBase_Tria"*, align 8
  %exn.slot = alloca i8*
  %ehselector.slot = alloca i32
  %ref.tmp = alloca %"class.std::vector", align 8
  store %"class.dealii::TimeStepBase_Tria"* %this, %"class.dealii::TimeStepBase_Tria"** %this.addr, align 8
  call void @llvm.dbg.declare(metadata %"class.dealii::TimeStepBase_Tria"** %this.addr, metadata !11172, metadata !DIExpression()), !dbg !11174
  %this1 = load %"class.dealii::TimeStepBase_Tria"*, %"class.dealii::TimeStepBase_Tria"** %this.addr, align 8
  %0 = bitcast %"class.dealii::TimeStepBase_Tria"* %this1 to %"class.dealii::TimeStepBase"*, !dbg !11175
  call void @_ZN6dealii12TimeStepBaseC2Ed(%"class.dealii::TimeStepBase"* %0, double 0.000000e+00), !dbg !11176
  %1 = bitcast %"class.dealii::TimeStepBase_Tria"* %this1 to i32 (...)***, !dbg !11175
  store i32 (...)** bitcast (i8** getelementptr inbounds ({ [17 x i8*] }, { [17 x i8*] }* @_ZTVN6dealii17TimeStepBase_TriaILi3EEE, i32 0, inrange i32 0, i32 2) to i32 (...)**), i32 (...)*** %1, align 8, !dbg !11175
  %tria = getelementptr inbounds %"class.dealii::TimeStepBase_Tria", %"class.dealii::TimeStepBase_Tria"* %this1, i32 0, i32 1, !dbg !11177
  invoke void @_ZN6dealii12SmartPointerINS_13TriangulationILi3ELi3EEEEC2EPS2_PKc(%"class.dealii::SmartPointer"* %tria, %"class.dealii::Triangulation"* null, i8* null)
          to label %invoke.cont unwind label %lpad, !dbg !11177

invoke.cont:                                      ; preds = %entry
  %coarse_grid = getelementptr inbounds %"class.dealii::TimeStepBase_Tria", %"class.dealii::TimeStepBase_Tria"* %this1, i32 0, i32 2, !dbg !11178
  invoke void @_ZN6dealii12SmartPointerIKNS_13TriangulationILi3ELi3EEEEC2EPS3_PKc(%"class.dealii::SmartPointer.16"* %coarse_grid, %"class.dealii::Triangulation"* null, i8* null)
          to label %invoke.cont3 unwind label %lpad2, !dbg !11178

invoke.cont3:                                     ; preds = %invoke.cont
  %flags = getelementptr inbounds %"class.dealii::TimeStepBase_Tria", %"class.dealii::TimeStepBase_Tria"* %this1, i32 0, i32 3, !dbg !11179
  invoke void @_ZN6dealii23TimeStepBase_Tria_Flags5FlagsILi3EEC1Ev(%"struct.dealii::TimeStepBase_Tria_Flags::Flags"* %flags)
          to label %invoke.cont5 unwind label %lpad4, !dbg !11179

invoke.cont5:                                     ; preds = %invoke.cont3
  %refinement_flags = getelementptr inbounds %"class.dealii::TimeStepBase_Tria", %"class.dealii::TimeStepBase_Tria"* %this1, i32 0, i32 5, !dbg !11180
  %2 = bitcast %"class.std::vector"* %ref.tmp to i8*, !dbg !11180
  call void @llvm.memset.p0i8.i64(i8* align 8 %2, i8 0, i64 24, i1 false), !dbg !11180
  call void @_ZNSt6vectorIS_ISt4pairIjdESaIS1_EESaIS3_EEC2Ev(%"class.std::vector"* %ref.tmp) #11, !dbg !11180
  invoke void @_ZN6dealii23TimeStepBase_Tria_Flags15RefinementFlagsILi3EEC1EjjjddRKSt6vectorIS3_ISt4pairIjdESaIS5_EESaIS7_EEjbb(%"struct.dealii::TimeStepBase_Tria_Flags::RefinementFlags"* %refinement_flags, i32 0, i32 0, i32 0, double 8.000000e+00, double 1.000000e+00, %"class.std::vector"* dereferenceable(24) %ref.tmp, i32 0, i1 zeroext false, i1 zeroext false)
          to label %invoke.cont7 unwind label %lpad6, !dbg !11180

invoke.cont7:                                     ; preds = %invoke.cont5
  call void @_ZNSt6vectorIS_ISt4pairIjdESaIS1_EESaIS3_EED2Ev(%"class.std::vector"* %ref.tmp) #11, !dbg !11180
  %refine_flags = getelementptr inbounds %"class.dealii::TimeStepBase_Tria", %"class.dealii::TimeStepBase_Tria"* %this1, i32 0, i32 6, !dbg !11181
  call void @_ZNSt6vectorIS_IbSaIbEESaIS1_EEC2Ev(%"class.std::vector.25"* %refine_flags) #11, !dbg !11181
  %coarsen_flags = getelementptr inbounds %"class.dealii::TimeStepBase_Tria", %"class.dealii::TimeStepBase_Tria"* %this1, i32 0, i32 7, !dbg !11181
  call void @_ZNSt6vectorIS_IbSaIbEESaIS1_EEC2Ev(%"class.std::vector.25"* %coarsen_flags) #11, !dbg !11181
  ret void, !dbg !11183

lpad:                                             ; preds = %entry
  %3 = landingpad { i8*, i32 }
          cleanup, !dbg !11185
  %4 = extractvalue { i8*, i32 } %3, 0, !dbg !11185
  store i8* %4, i8** %exn.slot, align 8, !dbg !11185
  %5 = extractvalue { i8*, i32 } %3, 1, !dbg !11185
  store i32 %5, i32* %ehselector.slot, align 4, !dbg !11185
  br label %ehcleanup9, !dbg !11185

lpad2:                                            ; preds = %invoke.cont
  %6 = landingpad { i8*, i32 }
          cleanup, !dbg !11185
  %7 = extractvalue { i8*, i32 } %6, 0, !dbg !11185
  store i8* %7, i8** %exn.slot, align 8, !dbg !11185
  %8 = extractvalue { i8*, i32 } %6, 1, !dbg !11185
  store i32 %8, i32* %ehselector.slot, align 4, !dbg !11185
  br label %ehcleanup8, !dbg !11185

lpad4:                                            ; preds = %invoke.cont3
  %9 = landingpad { i8*, i32 }
          cleanup, !dbg !11185
  %10 = extractvalue { i8*, i32 } %9, 0, !dbg !11185
  store i8* %10, i8** %exn.slot, align 8, !dbg !11185
  %11 = extractvalue { i8*, i32 } %9, 1, !dbg !11185
  store i32 %11, i32* %ehselector.slot, align 4, !dbg !11185
  br label %ehcleanup, !dbg !11185

lpad6:                                            ; preds = %invoke.cont5
  %12 = landingpad { i8*, i32 }
          cleanup, !dbg !11185
  %13 = extractvalue { i8*, i32 } %12, 0, !dbg !11185
  store i8* %13, i8** %exn.slot, align 8, !dbg !11185
  %14 = extractvalue { i8*, i32 } %12, 1, !dbg !11185
  store i32 %14, i32* %ehselector.slot, align 4, !dbg !11185
  call void @_ZNSt6vectorIS_ISt4pairIjdESaIS1_EESaIS3_EED2Ev(%"class.std::vector"* %ref.tmp) #11, !dbg !11180
  br label %ehcleanup, !dbg !11180

ehcleanup:                                        ; preds = %lpad6, %lpad4
  call void @_ZN6dealii12SmartPointerIKNS_13TriangulationILi3ELi3EEEED2Ev(%"class.dealii::SmartPointer.16"* %coarse_grid) #11, !dbg !11186
  br label %ehcleanup8, !dbg !11186

ehcleanup8:                                       ; preds = %ehcleanup, %lpad2
  call void @_ZN6dealii12SmartPointerINS_13TriangulationILi3ELi3EEEED2Ev(%"class.dealii::SmartPointer"* %tria) #11, !dbg !11186
  br label %ehcleanup9, !dbg !11186

ehcleanup9:                                       ; preds = %ehcleanup8, %lpad
  %15 = bitcast %"class.dealii::TimeStepBase_Tria"* %this1 to %"class.dealii::TimeStepBase"*, !dbg !11186
  call void @_ZN6dealii12TimeStepBaseD2Ev(%"class.dealii::TimeStepBase"* %15) #11, !dbg !11186
  br label %eh.resume, !dbg !11186

eh.resume:                                        ; preds = %ehcleanup9
  %exn = load i8*, i8** %exn.slot, align 8, !dbg !11186
  %sel = load i32, i32* %ehselector.slot, align 4, !dbg !11186
  %lpad.val = insertvalue { i8*, i32 } undef, i8* %exn, 0, !dbg !11186
  %lpad.val10 = insertvalue { i8*, i32 } %lpad.val, i32 %sel, 1, !dbg !11186
  resume { i8*, i32 } %lpad.val10, !dbg !11186
}

; Function Attrs: nounwind readnone speculatable willreturn
declare void @llvm.dbg.declare(metadata, metadata, metadata) #2

; Function Attrs: noinline uwtable
define dso_local void @_ZN6dealii12TimeStepBaseC2Ed(%"class.dealii::TimeStepBase"* %this, double %time) unnamed_addr #0 align 2 !dbg !11188 {
entry:
  %this.addr = alloca %"class.dealii::TimeStepBase"*, align 8
  %time.addr = alloca double, align 8
  store %"class.dealii::TimeStepBase"* %this, %"class.dealii::TimeStepBase"** %this.addr, align 8
  call void @llvm.dbg.declare(metadata %"class.dealii::TimeStepBase"** %this.addr, metadata !11189, metadata !DIExpression()), !dbg !11190
  store double %time, double* %time.addr, align 8
  call void @llvm.dbg.declare(metadata double* %time.addr, metadata !11191, metadata !DIExpression()), !dbg !11192
  %this1 = load %"class.dealii::TimeStepBase"*, %"class.dealii::TimeStepBase"** %this.addr, align 8
  %0 = bitcast %"class.dealii::TimeStepBase"* %this1 to %"class.dealii::Subscriptor"*, !dbg !11193
  call void @_ZN6dealii11SubscriptorC2Ev(%"class.dealii::Subscriptor"* %0), !dbg !11194
  %1 = bitcast %"class.dealii::TimeStepBase"* %this1 to i32 (...)***, !dbg !11193
  store i32 (...)** bitcast (i8** getelementptr inbounds ({ [15 x i8*] }, { [15 x i8*] }* @_ZTVN6dealii12TimeStepBaseE, i32 0, inrange i32 0, i32 2) to i32 (...)**), i32 (...)*** %1, align 8, !dbg !11193
  %previous_timestep = getelementptr inbounds %"class.dealii::TimeStepBase", %"class.dealii::TimeStepBase"* %this1, i32 0, i32 1, !dbg !11195
  store %"class.dealii::TimeStepBase"* null, %"class.dealii::TimeStepBase"** %previous_timestep, align 8, !dbg !11195
  %next_timestep = getelementptr inbounds %"class.dealii::TimeStepBase", %"class.dealii::TimeStepBase"* %this1, i32 0, i32 2, !dbg !11196
  store %"class.dealii::TimeStepBase"* null, %"class.dealii::TimeStepBase"** %next_timestep, align 8, !dbg !11196
  %sweep_no = getelementptr inbounds %"class.dealii::TimeStepBase", %"class.dealii::TimeStepBase"* %this1, i32 0, i32 3, !dbg !11197
  store i32 -1, i32* %sweep_no, align 8, !dbg !11197
  %timestep_no = getelementptr inbounds %"class.dealii::TimeStepBase", %"class.dealii::TimeStepBase"* %this1, i32 0, i32 4, !dbg !11198
  store i32 -1, i32* %timestep_no, align 4, !dbg !11198
  %time2 = getelementptr inbounds %"class.dealii::TimeStepBase", %"class.dealii::TimeStepBase"* %this1, i32 0, i32 5, !dbg !11199
  %2 = load double, double* %time.addr, align 8, !dbg !11200
  store double %2, double* %time2, align 8, !dbg !11199
  ret void, !dbg !11201
}

; Function Attrs: noinline nounwind uwtable
define linkonce_odr dso_local void @_ZN6dealii12SmartPointerINS_13TriangulationILi3ELi3EEEEC2EPS2_PKc(%"class.dealii::SmartPointer"* %this, %"class.dealii::Triangulation"* %t, i8* %id) unnamed_addr #1 comdat align 2 !dbg !11202 {
entry:
  %this.addr = alloca %"class.dealii::SmartPointer"*, align 8
  %t.addr = alloca %"class.dealii::Triangulation"*, align 8
  %id.addr = alloca i8*, align 8
  store %"class.dealii::SmartPointer"* %this, %"class.dealii::SmartPointer"** %this.addr, align 8
  call void @llvm.dbg.declare(metadata %"class.dealii::SmartPointer"** %this.addr, metadata !11203, metadata !DIExpression()), !dbg !11205
  store %"class.dealii::Triangulation"* %t, %"class.dealii::Triangulation"** %t.addr, align 8
  call void @llvm.dbg.declare(metadata %"class.dealii::Triangulation"** %t.addr, metadata !11206, metadata !DIExpression()), !dbg !11207
  store i8* %id, i8** %id.addr, align 8
  call void @llvm.dbg.declare(metadata i8** %id.addr, metadata !11208, metadata !DIExpression()), !dbg !11209
  %this1 = load %"class.dealii::SmartPointer"*, %"class.dealii::SmartPointer"** %this.addr, align 8
  %t2 = getelementptr inbounds %"class.dealii::SmartPointer", %"class.dealii::SmartPointer"* %this1, i32 0, i32 0, !dbg !11210
  %0 = load %"class.dealii::Triangulation"*, %"class.dealii::Triangulation"** %t.addr, align 8, !dbg !11211
  store %"class.dealii::Triangulation"* %0, %"class.dealii::Triangulation"** %t2, align 8, !dbg !11210
  %id3 = getelementptr inbounds %"class.dealii::SmartPointer", %"class.dealii::SmartPointer"* %this1, i32 0, i32 1, !dbg !11212
  %1 = load i8*, i8** %id.addr, align 8, !dbg !11213
  store i8* %1, i8** %id3, align 8, !dbg !11212
  %2 = load %"class.dealii::Triangulation"*, %"class.dealii::Triangulation"** %t.addr, align 8, !dbg !11214
  %cmp = icmp ne %"class.dealii::Triangulation"* %2, null, !dbg !11217
  br i1 %cmp, label %if.then, label %if.end, !dbg !11218

if.then:                                          ; preds = %entry
  %3 = load %"class.dealii::Triangulation"*, %"class.dealii::Triangulation"** %t.addr, align 8, !dbg !11219
  %4 = bitcast %"class.dealii::Triangulation"* %3 to %"class.dealii::Subscriptor"*, !dbg !11220
  %5 = load i8*, i8** %id.addr, align 8, !dbg !11221
  call void @_ZNK6dealii11Subscriptor9subscribeEPKc(%"class.dealii::Subscriptor"* %4, i8* %5), !dbg !11220
  br label %if.end, !dbg !11219

if.end:                                           ; preds = %if.then, %entry
  ret void, !dbg !11222
}

declare dso_local i32 @__gxx_personality_v0(...)

; Function Attrs: noinline nounwind uwtable
define linkonce_odr dso_local void @_ZN6dealii12SmartPointerIKNS_13TriangulationILi3ELi3EEEEC2EPS3_PKc(%"class.dealii::SmartPointer.16"* %this, %"class.dealii::Triangulation"* %t, i8* %id) unnamed_addr #1 comdat align 2 !dbg !11223 {
entry:
  %this.addr = alloca %"class.dealii::SmartPointer.16"*, align 8
  %t.addr = alloca %"class.dealii::Triangulation"*, align 8
  %id.addr = alloca i8*, align 8
  store %"class.dealii::SmartPointer.16"* %this, %"class.dealii::SmartPointer.16"** %this.addr, align 8
  call void @llvm.dbg.declare(metadata %"class.dealii::SmartPointer.16"** %this.addr, metadata !11224, metadata !DIExpression()), !dbg !11226
  store %"class.dealii::Triangulation"* %t, %"class.dealii::Triangulation"** %t.addr, align 8
  call void @llvm.dbg.declare(metadata %"class.dealii::Triangulation"** %t.addr, metadata !11227, metadata !DIExpression()), !dbg !11228
  store i8* %id, i8** %id.addr, align 8
  call void @llvm.dbg.declare(metadata i8** %id.addr, metadata !11229, metadata !DIExpression()), !dbg !11230
  %this1 = load %"class.dealii::SmartPointer.16"*, %"class.dealii::SmartPointer.16"** %this.addr, align 8
  %t2 = getelementptr inbounds %"class.dealii::SmartPointer.16", %"class.dealii::SmartPointer.16"* %this1, i32 0, i32 0, !dbg !11231
  %0 = load %"class.dealii::Triangulation"*, %"class.dealii::Triangulation"** %t.addr, align 8, !dbg !11232
  store %"class.dealii::Triangulation"* %0, %"class.dealii::Triangulation"** %t2, align 8, !dbg !11231
  %id3 = getelementptr inbounds %"class.dealii::SmartPointer.16", %"class.dealii::SmartPointer.16"* %this1, i32 0, i32 1, !dbg !11233
  %1 = load i8*, i8** %id.addr, align 8, !dbg !11234
  store i8* %1, i8** %id3, align 8, !dbg !11233
  %2 = load %"class.dealii::Triangulation"*, %"class.dealii::Triangulation"** %t.addr, align 8, !dbg !11235
  %cmp = icmp ne %"class.dealii::Triangulation"* %2, null, !dbg !11238
  br i1 %cmp, label %if.then, label %if.end, !dbg !11239

if.then:                                          ; preds = %entry
  %3 = load %"class.dealii::Triangulation"*, %"class.dealii::Triangulation"** %t.addr, align 8, !dbg !11240
  %4 = bitcast %"class.dealii::Triangulation"* %3 to %"class.dealii::Subscriptor"*, !dbg !11241
  %5 = load i8*, i8** %id.addr, align 8, !dbg !11242
  call void @_ZNK6dealii11Subscriptor9subscribeEPKc(%"class.dealii::Subscriptor"* %4, i8* %5), !dbg !11241
  br label %if.end, !dbg !11240

if.end:                                           ; preds = %if.then, %entry
  ret void, !dbg !11243
}

; Function Attrs: argmemonly nounwind willreturn
declare void @llvm.memset.p0i8.i64(i8* nocapture writeonly, i8, i64, i1 immarg) #3

; Function Attrs: noinline nounwind uwtable
define linkonce_odr dso_local void @_ZNSt6vectorIS_ISt4pairIjdESaIS1_EESaIS3_EEC2Ev(%"class.std::vector"* %this) unnamed_addr #1 comdat align 2 !dbg !11244 {
entry:
  %this.addr = alloca %"class.std::vector"*, align 8
  store %"class.std::vector"* %this, %"class.std::vector"** %this.addr, align 8
  call void @llvm.dbg.declare(metadata %"class.std::vector"** %this.addr, metadata !11245, metadata !DIExpression()), !dbg !11247
  %this1 = load %"class.std::vector"*, %"class.std::vector"** %this.addr, align 8
  %0 = bitcast %"class.std::vector"* %this1 to %"struct.std::_Vector_base"*, !dbg !11248
  call void @_ZNSt12_Vector_baseISt6vectorISt4pairIjdESaIS2_EESaIS4_EEC2Ev(%"struct.std::_Vector_base"* %0) #11, !dbg !11249
  ret void, !dbg !11248
}

; Function Attrs: noinline nounwind uwtable
define linkonce_odr dso_local void @_ZNSt6vectorIS_ISt4pairIjdESaIS1_EESaIS3_EED2Ev(%"class.std::vector"* %this) unnamed_addr #1 comdat align 2 personality i8* bitcast (i32 (...)* @__gxx_personality_v0 to i8*) !dbg !11250 {
entry:
  %this.addr = alloca %"class.std::vector"*, align 8
  %exn.slot = alloca i8*
  %ehselector.slot = alloca i32
  store %"class.std::vector"* %this, %"class.std::vector"** %this.addr, align 8
  call void @llvm.dbg.declare(metadata %"class.std::vector"** %this.addr, metadata !11251, metadata !DIExpression()), !dbg !11252
  %this1 = load %"class.std::vector"*, %"class.std::vector"** %this.addr, align 8
  %0 = bitcast %"class.std::vector"* %this1 to %"struct.std::_Vector_base"*, !dbg !11253
  %_M_impl = getelementptr inbounds %"struct.std::_Vector_base", %"struct.std::_Vector_base"* %0, i32 0, i32 0, !dbg !11253
  %1 = bitcast %"struct.std::_Vector_base<std::vector<std::pair<unsigned int, double>, std::allocator<std::pair<unsigned int, double> > >, std::allocator<std::vector<std::pair<unsigned int, double>, std::allocator<std::pair<unsigned int, double> > > > >::_Vector_impl"* %_M_impl to %"struct.std::_Vector_base<std::vector<std::pair<unsigned int, double>, std::allocator<std::pair<unsigned int, double> > >, std::allocator<std::vector<std::pair<unsigned int, double>, std::allocator<std::pair<unsigned int, double> > > > >::_Vector_impl_data"*, !dbg !11255
  %_M_start = getelementptr inbounds %"struct.std::_Vector_base<std::vector<std::pair<unsigned int, double>, std::allocator<std::pair<unsigned int, double> > >, std::allocator<std::vector<std::pair<unsigned int, double>, std::allocator<std::pair<unsigned int, double> > > > >::_Vector_impl_data", %"struct.std::_Vector_base<std::vector<std::pair<unsigned int, double>, std::allocator<std::pair<unsigned int, double> > >, std::allocator<std::vector<std::pair<unsigned int, double>, std::allocator<std::pair<unsigned int, double> > > > >::_Vector_impl_data"* %1, i32 0, i32 0, !dbg !11256
  %2 = load %"class.std::vector.20"*, %"class.std::vector.20"** %_M_start, align 8, !dbg !11256
  %3 = bitcast %"class.std::vector"* %this1 to %"struct.std::_Vector_base"*, !dbg !11257
  %_M_impl2 = getelementptr inbounds %"struct.std::_Vector_base", %"struct.std::_Vector_base"* %3, i32 0, i32 0, !dbg !11257
  %4 = bitcast %"struct.std::_Vector_base<std::vector<std::pair<unsigned int, double>, std::allocator<std::pair<unsigned int, double> > >, std::allocator<std::vector<std::pair<unsigned int, double>, std::allocator<std::pair<unsigned int, double> > > > >::_Vector_impl"* %_M_impl2 to %"struct.std::_Vector_base<std::vector<std::pair<unsigned int, double>, std::allocator<std::pair<unsigned int, double> > >, std::allocator<std::vector<std::pair<unsigned int, double>, std::allocator<std::pair<unsigned int, double> > > > >::_Vector_impl_data"*, !dbg !11258
  %_M_finish = getelementptr inbounds %"struct.std::_Vector_base<std::vector<std::pair<unsigned int, double>, std::allocator<std::pair<unsigned int, double> > >, std::allocator<std::vector<std::pair<unsigned int, double>, std::allocator<std::pair<unsigned int, double> > > > >::_Vector_impl_data", %"struct.std::_Vector_base<std::vector<std::pair<unsigned int, double>, std::allocator<std::pair<unsigned int, double> > >, std::allocator<std::vector<std::pair<unsigned int, double>, std::allocator<std::pair<unsigned int, double> > > > >::_Vector_impl_data"* %4, i32 0, i32 1, !dbg !11259
  %5 = load %"class.std::vector.20"*, %"class.std::vector.20"** %_M_finish, align 8, !dbg !11259
  %6 = bitcast %"class.std::vector"* %this1 to %"struct.std::_Vector_base"*, !dbg !11260
  %call = call dereferenceable(1) %"class.std::allocator.17"* @_ZNSt12_Vector_baseISt6vectorISt4pairIjdESaIS2_EESaIS4_EE19_M_get_Tp_allocatorEv(%"struct.std::_Vector_base"* %6) #11, !dbg !11260
  invoke void @_ZSt8_DestroyIPSt6vectorISt4pairIjdESaIS2_EES4_EvT_S6_RSaIT0_E(%"class.std::vector.20"* %2, %"class.std::vector.20"* %5, %"class.std::allocator.17"* dereferenceable(1) %call)
          to label %invoke.cont unwind label %lpad, !dbg !11261

invoke.cont:                                      ; preds = %entry
  %7 = bitcast %"class.std::vector"* %this1 to %"struct.std::_Vector_base"*, !dbg !11262
  call void @_ZNSt12_Vector_baseISt6vectorISt4pairIjdESaIS2_EESaIS4_EED2Ev(%"struct.std::_Vector_base"* %7) #11, !dbg !11262
  ret void, !dbg !11263

lpad:                                             ; preds = %entry
  %8 = landingpad { i8*, i32 }
          catch i8* null, !dbg !11262
  %9 = extractvalue { i8*, i32 } %8, 0, !dbg !11262
  store i8* %9, i8** %exn.slot, align 8, !dbg !11262
  %10 = extractvalue { i8*, i32 } %8, 1, !dbg !11262
  store i32 %10, i32* %ehselector.slot, align 4, !dbg !11262
  %11 = bitcast %"class.std::vector"* %this1 to %"struct.std::_Vector_base"*, !dbg !11262
  call void @_ZNSt12_Vector_baseISt6vectorISt4pairIjdESaIS2_EESaIS4_EED2Ev(%"struct.std::_Vector_base"* %11) #11, !dbg !11262
  br label %terminate.handler, !dbg !11262

terminate.handler:                                ; preds = %lpad
  %exn = load i8*, i8** %exn.slot, align 8, !dbg !11262
  call void @__clang_call_terminate(i8* %exn) #14, !dbg !11262
  unreachable, !dbg !11262
}

; Function Attrs: noinline nounwind uwtable
define linkonce_odr dso_local void @_ZNSt6vectorIS_IbSaIbEESaIS1_EEC2Ev(%"class.std::vector.25"* %this) unnamed_addr #1 comdat align 2 !dbg !11264 {
entry:
  %this.addr = alloca %"class.std::vector.25"*, align 8
  store %"class.std::vector.25"* %this, %"class.std::vector.25"** %this.addr, align 8
  call void @llvm.dbg.declare(metadata %"class.std::vector.25"** %this.addr, metadata !11265, metadata !DIExpression()), !dbg !11267
  %this1 = load %"class.std::vector.25"*, %"class.std::vector.25"** %this.addr, align 8
  %0 = bitcast %"class.std::vector.25"* %this1 to %"struct.std::_Vector_base.26"*, !dbg !11268
  call void @_ZNSt12_Vector_baseISt6vectorIbSaIbEESaIS2_EEC2Ev(%"struct.std::_Vector_base.26"* %0) #11, !dbg !11269
  ret void, !dbg !11268
}

; Function Attrs: noinline nounwind uwtable
define linkonce_odr dso_local void @_ZN6dealii12SmartPointerIKNS_13TriangulationILi3ELi3EEEED2Ev(%"class.dealii::SmartPointer.16"* %this) unnamed_addr #1 comdat align 2 personality i8* bitcast (i32 (...)* @__gxx_personality_v0 to i8*) !dbg !11270 {
entry:
  %this.addr = alloca %"class.dealii::SmartPointer.16"*, align 8
  store %"class.dealii::SmartPointer.16"* %this, %"class.dealii::SmartPointer.16"** %this.addr, align 8
  call void @llvm.dbg.declare(metadata %"class.dealii::SmartPointer.16"** %this.addr, metadata !11271, metadata !DIExpression()), !dbg !11272
  %this1 = load %"class.dealii::SmartPointer.16"*, %"class.dealii::SmartPointer.16"** %this.addr, align 8
  %t = getelementptr inbounds %"class.dealii::SmartPointer.16", %"class.dealii::SmartPointer.16"* %this1, i32 0, i32 0, !dbg !11273
  %0 = load %"class.dealii::Triangulation"*, %"class.dealii::Triangulation"** %t, align 8, !dbg !11273
  %cmp = icmp ne %"class.dealii::Triangulation"* %0, null, !dbg !11276
  br i1 %cmp, label %if.then, label %if.end, !dbg !11277

if.then:                                          ; preds = %entry
  %t2 = getelementptr inbounds %"class.dealii::SmartPointer.16", %"class.dealii::SmartPointer.16"* %this1, i32 0, i32 0, !dbg !11278
  %1 = load %"class.dealii::Triangulation"*, %"class.dealii::Triangulation"** %t2, align 8, !dbg !11278
  %2 = bitcast %"class.dealii::Triangulation"* %1 to %"class.dealii::Subscriptor"*, !dbg !11279
  %id = getelementptr inbounds %"class.dealii::SmartPointer.16", %"class.dealii::SmartPointer.16"* %this1, i32 0, i32 1, !dbg !11280
  %3 = load i8*, i8** %id, align 8, !dbg !11280
  invoke void @_ZNK6dealii11Subscriptor11unsubscribeEPKc(%"class.dealii::Subscriptor"* %2, i8* %3)
          to label %invoke.cont unwind label %terminate.lpad, !dbg !11279

invoke.cont:                                      ; preds = %if.then
  br label %if.end, !dbg !11278

if.end:                                           ; preds = %invoke.cont, %entry
  ret void, !dbg !11281

terminate.lpad:                                   ; preds = %if.then
  %4 = landingpad { i8*, i32 }
          catch i8* null, !dbg !11279
  %5 = extractvalue { i8*, i32 } %4, 0, !dbg !11279
  call void @__clang_call_terminate(i8* %5) #14, !dbg !11279
  unreachable, !dbg !11279
}

; Function Attrs: noinline nounwind uwtable
define linkonce_odr dso_local void @_ZN6dealii12SmartPointerINS_13TriangulationILi3ELi3EEEED2Ev(%"class.dealii::SmartPointer"* %this) unnamed_addr #1 comdat align 2 personality i8* bitcast (i32 (...)* @__gxx_personality_v0 to i8*) !dbg !11282 {
entry:
  %this.addr = alloca %"class.dealii::SmartPointer"*, align 8
  store %"class.dealii::SmartPointer"* %this, %"class.dealii::SmartPointer"** %this.addr, align 8
  call void @llvm.dbg.declare(metadata %"class.dealii::SmartPointer"** %this.addr, metadata !11283, metadata !DIExpression()), !dbg !11284
  %this1 = load %"class.dealii::SmartPointer"*, %"class.dealii::SmartPointer"** %this.addr, align 8
  %t = getelementptr inbounds %"class.dealii::SmartPointer", %"class.dealii::SmartPointer"* %this1, i32 0, i32 0, !dbg !11285
  %0 = load %"class.dealii::Triangulation"*, %"class.dealii::Triangulation"** %t, align 8, !dbg !11285
  %cmp = icmp ne %"class.dealii::Triangulation"* %0, null, !dbg !11288
  br i1 %cmp, label %if.then, label %if.end, !dbg !11289

if.then:                                          ; preds = %entry
  %t2 = getelementptr inbounds %"class.dealii::SmartPointer", %"class.dealii::SmartPointer"* %this1, i32 0, i32 0, !dbg !11290
  %1 = load %"class.dealii::Triangulation"*, %"class.dealii::Triangulation"** %t2, align 8, !dbg !11290
  %2 = bitcast %"class.dealii::Triangulation"* %1 to %"class.dealii::Subscriptor"*, !dbg !11291
  %id = getelementptr inbounds %"class.dealii::SmartPointer", %"class.dealii::SmartPointer"* %this1, i32 0, i32 1, !dbg !11292
  %3 = load i8*, i8** %id, align 8, !dbg !11292
  invoke void @_ZNK6dealii11Subscriptor11unsubscribeEPKc(%"class.dealii::Subscriptor"* %2, i8* %3)
          to label %invoke.cont unwind label %terminate.lpad, !dbg !11291

invoke.cont:                                      ; preds = %if.then
  br label %if.end, !dbg !11290

if.end:                                           ; preds = %invoke.cont, %entry
  ret void, !dbg !11293

terminate.lpad:                                   ; preds = %if.then
  %4 = landingpad { i8*, i32 }
          catch i8* null, !dbg !11291
  %5 = extractvalue { i8*, i32 } %4, 0, !dbg !11291
  call void @__clang_call_terminate(i8* %5) #14, !dbg !11291
  unreachable, !dbg !11291
}

; Function Attrs: noinline nounwind uwtable
define dso_local void @_ZN6dealii12TimeStepBaseD2Ev(%"class.dealii::TimeStepBase"* %this) unnamed_addr #1 align 2 !dbg !11294 {
entry:
  %this.addr = alloca %"class.dealii::TimeStepBase"*, align 8
  store %"class.dealii::TimeStepBase"* %this, %"class.dealii::TimeStepBase"** %this.addr, align 8
  call void @llvm.dbg.declare(metadata %"class.dealii::TimeStepBase"** %this.addr, metadata !11295, metadata !DIExpression()), !dbg !11296
  %this1 = load %"class.dealii::TimeStepBase"*, %"class.dealii::TimeStepBase"** %this.addr, align 8
  %0 = bitcast %"class.dealii::TimeStepBase"* %this1 to %"class.dealii::Subscriptor"*, !dbg !11297
  call void @_ZN6dealii11SubscriptorD2Ev(%"class.dealii::Subscriptor"* %0) #11, !dbg !11297
  ret void, !dbg !11299
}

; Function Attrs: noinline uwtable
define weak_odr dso_local void @_ZN6dealii17TimeStepBase_TriaILi3EEC2EdRKNS_13TriangulationILi3ELi3EEERKNS_23TimeStepBase_Tria_Flags5FlagsILi3EEERKNS6_15RefinementFlagsILi3EEE(%"class.dealii::TimeStepBase_Tria"* %this, double %time, %"class.dealii::Triangulation"* dereferenceable(8552) %coarse_grid, %"struct.dealii::TimeStepBase_Tria_Flags::Flags"* dereferenceable(12) %flags, %"struct.dealii::TimeStepBase_Tria_Flags::RefinementFlags"* dereferenceable(64) %refinement_flags) unnamed_addr #0 comdat($_ZN6dealii17TimeStepBase_TriaILi3EEC5EdRKNS_13TriangulationILi3ELi3EEERKNS_23TimeStepBase_Tria_Flags5FlagsILi3EEERKNS6_15RefinementFlagsILi3EEE) align 2 personality i8* bitcast (i32 (...)* @__gxx_personality_v0 to i8*) !dbg !11300 {
entry:
  %this.addr = alloca %"class.dealii::TimeStepBase_Tria"*, align 8
  %time.addr = alloca double, align 8
  %coarse_grid.addr = alloca %"class.dealii::Triangulation"*, align 8
  %flags.addr = alloca %"struct.dealii::TimeStepBase_Tria_Flags::Flags"*, align 8
  %refinement_flags.addr = alloca %"struct.dealii::TimeStepBase_Tria_Flags::RefinementFlags"*, align 8
  %exn.slot = alloca i8*
  %ehselector.slot = alloca i32
  store %"class.dealii::TimeStepBase_Tria"* %this, %"class.dealii::TimeStepBase_Tria"** %this.addr, align 8
  call void @llvm.dbg.declare(metadata %"class.dealii::TimeStepBase_Tria"** %this.addr, metadata !11301, metadata !DIExpression()), !dbg !11302
  store double %time, double* %time.addr, align 8
  call void @llvm.dbg.declare(metadata double* %time.addr, metadata !11303, metadata !DIExpression()), !dbg !11304
  store %"class.dealii::Triangulation"* %coarse_grid, %"class.dealii::Triangulation"** %coarse_grid.addr, align 8
  call void @llvm.dbg.declare(metadata %"class.dealii::Triangulation"** %coarse_grid.addr, metadata !11305, metadata !DIExpression()), !dbg !11306
  store %"struct.dealii::TimeStepBase_Tria_Flags::Flags"* %flags, %"struct.dealii::TimeStepBase_Tria_Flags::Flags"** %flags.addr, align 8
  call void @llvm.dbg.declare(metadata %"struct.dealii::TimeStepBase_Tria_Flags::Flags"** %flags.addr, metadata !11307, metadata !DIExpression()), !dbg !11308
  store %"struct.dealii::TimeStepBase_Tria_Flags::RefinementFlags"* %refinement_flags, %"struct.dealii::TimeStepBase_Tria_Flags::RefinementFlags"** %refinement_flags.addr, align 8
  call void @llvm.dbg.declare(metadata %"struct.dealii::TimeStepBase_Tria_Flags::RefinementFlags"** %refinement_flags.addr, metadata !11309, metadata !DIExpression()), !dbg !11310
  %this1 = load %"class.dealii::TimeStepBase_Tria"*, %"class.dealii::TimeStepBase_Tria"** %this.addr, align 8
  %0 = bitcast %"class.dealii::TimeStepBase_Tria"* %this1 to %"class.dealii::TimeStepBase"*, !dbg !11311
  %1 = load double, double* %time.addr, align 8, !dbg !11312
  call void @_ZN6dealii12TimeStepBaseC2Ed(%"class.dealii::TimeStepBase"* %0, double %1), !dbg !11313
  %2 = bitcast %"class.dealii::TimeStepBase_Tria"* %this1 to i32 (...)***, !dbg !11311
  store i32 (...)** bitcast (i8** getelementptr inbounds ({ [17 x i8*] }, { [17 x i8*] }* @_ZTVN6dealii17TimeStepBase_TriaILi3EEE, i32 0, inrange i32 0, i32 2) to i32 (...)**), i32 (...)*** %2, align 8, !dbg !11311
  %tria = getelementptr inbounds %"class.dealii::TimeStepBase_Tria", %"class.dealii::TimeStepBase_Tria"* %this1, i32 0, i32 1, !dbg !11314
  %3 = icmp eq %"class.dealii::TimeStepBase_Tria"* %this1, null, !dbg !11315
  br i1 %3, label %typeid.bad_typeid, label %typeid.end, !dbg !11315

typeid.bad_typeid:                                ; preds = %entry
  invoke void @__cxa_bad_typeid() #15
          to label %invoke.cont unwind label %lpad, !dbg !11315

invoke.cont:                                      ; preds = %typeid.bad_typeid
  unreachable, !dbg !11315

typeid.end:                                       ; preds = %entry
  %4 = bitcast %"class.dealii::TimeStepBase_Tria"* %this1 to %"class.std::type_info"***, !dbg !11315
  %vtable = load %"class.std::type_info"**, %"class.std::type_info"*** %4, align 8, !dbg !11315
  %5 = getelementptr inbounds %"class.std::type_info"*, %"class.std::type_info"** %vtable, i64 -1, !dbg !11315
  %6 = load %"class.std::type_info"*, %"class.std::type_info"** %5, align 8, !dbg !11315
  %call = call i8* @_ZNKSt9type_info4nameEv(%"class.std::type_info"* %6) #11, !dbg !11316
  invoke void @_ZN6dealii12SmartPointerINS_13TriangulationILi3ELi3EEEEC2EPS2_PKc(%"class.dealii::SmartPointer"* %tria, %"class.dealii::Triangulation"* null, i8* %call)
          to label %invoke.cont2 unwind label %lpad, !dbg !11314

invoke.cont2:                                     ; preds = %typeid.end
  %coarse_grid3 = getelementptr inbounds %"class.dealii::TimeStepBase_Tria", %"class.dealii::TimeStepBase_Tria"* %this1, i32 0, i32 2, !dbg !11317
  %7 = load %"class.dealii::Triangulation"*, %"class.dealii::Triangulation"** %coarse_grid.addr, align 8, !dbg !11318
  invoke void @_ZN6dealii12SmartPointerIKNS_13TriangulationILi3ELi3EEEEC2EPS3_PKc(%"class.dealii::SmartPointer.16"* %coarse_grid3, %"class.dealii::Triangulation"* %7, i8* null)
          to label %invoke.cont5 unwind label %lpad4, !dbg !11317

invoke.cont5:                                     ; preds = %invoke.cont2
  %flags6 = getelementptr inbounds %"class.dealii::TimeStepBase_Tria", %"class.dealii::TimeStepBase_Tria"* %this1, i32 0, i32 3, !dbg !11319
  %8 = load %"struct.dealii::TimeStepBase_Tria_Flags::Flags"*, %"struct.dealii::TimeStepBase_Tria_Flags::Flags"** %flags.addr, align 8, !dbg !11320
  %9 = bitcast %"struct.dealii::TimeStepBase_Tria_Flags::Flags"* %flags6 to i8*, !dbg !11319
  %10 = bitcast %"struct.dealii::TimeStepBase_Tria_Flags::Flags"* %8 to i8*, !dbg !11319
  call void @llvm.memcpy.p0i8.p0i8.i64(i8* align 8 %9, i8* align 4 %10, i64 12, i1 false), !dbg !11319
  %refinement_flags7 = getelementptr inbounds %"class.dealii::TimeStepBase_Tria", %"class.dealii::TimeStepBase_Tria"* %this1, i32 0, i32 5, !dbg !11321
  %11 = load %"struct.dealii::TimeStepBase_Tria_Flags::RefinementFlags"*, %"struct.dealii::TimeStepBase_Tria_Flags::RefinementFlags"** %refinement_flags.addr, align 8, !dbg !11322
  invoke void @_ZN6dealii23TimeStepBase_Tria_Flags15RefinementFlagsILi3EEC2ERKS2_(%"struct.dealii::TimeStepBase_Tria_Flags::RefinementFlags"* %refinement_flags7, %"struct.dealii::TimeStepBase_Tria_Flags::RefinementFlags"* dereferenceable(64) %11)
          to label %invoke.cont9 unwind label %lpad8, !dbg !11321

invoke.cont9:                                     ; preds = %invoke.cont5
  %refine_flags = getelementptr inbounds %"class.dealii::TimeStepBase_Tria", %"class.dealii::TimeStepBase_Tria"* %this1, i32 0, i32 6, !dbg !11323
  call void @_ZNSt6vectorIS_IbSaIbEESaIS1_EEC2Ev(%"class.std::vector.25"* %refine_flags) #11, !dbg !11323
  %coarsen_flags = getelementptr inbounds %"class.dealii::TimeStepBase_Tria", %"class.dealii::TimeStepBase_Tria"* %this1, i32 0, i32 7, !dbg !11323
  call void @_ZNSt6vectorIS_IbSaIbEESaIS1_EEC2Ev(%"class.std::vector.25"* %coarsen_flags) #11, !dbg !11323
  ret void, !dbg !11325

lpad:                                             ; preds = %typeid.end, %typeid.bad_typeid
  %12 = landingpad { i8*, i32 }
          cleanup, !dbg !11327
  %13 = extractvalue { i8*, i32 } %12, 0, !dbg !11327
  store i8* %13, i8** %exn.slot, align 8, !dbg !11327
  %14 = extractvalue { i8*, i32 } %12, 1, !dbg !11327
  store i32 %14, i32* %ehselector.slot, align 4, !dbg !11327
  br label %ehcleanup10, !dbg !11327

lpad4:                                            ; preds = %invoke.cont2
  %15 = landingpad { i8*, i32 }
          cleanup, !dbg !11327
  %16 = extractvalue { i8*, i32 } %15, 0, !dbg !11327
  store i8* %16, i8** %exn.slot, align 8, !dbg !11327
  %17 = extractvalue { i8*, i32 } %15, 1, !dbg !11327
  store i32 %17, i32* %ehselector.slot, align 4, !dbg !11327
  br label %ehcleanup, !dbg !11327

lpad8:                                            ; preds = %invoke.cont5
  %18 = landingpad { i8*, i32 }
          cleanup, !dbg !11327
  %19 = extractvalue { i8*, i32 } %18, 0, !dbg !11327
  store i8* %19, i8** %exn.slot, align 8, !dbg !11327
  %20 = extractvalue { i8*, i32 } %18, 1, !dbg !11327
  store i32 %20, i32* %ehselector.slot, align 4, !dbg !11327
  call void @_ZN6dealii12SmartPointerIKNS_13TriangulationILi3ELi3EEEED2Ev(%"class.dealii::SmartPointer.16"* %coarse_grid3) #11, !dbg !11328
  br label %ehcleanup, !dbg !11328

ehcleanup:                                        ; preds = %lpad8, %lpad4
  call void @_ZN6dealii12SmartPointerINS_13TriangulationILi3ELi3EEEED2Ev(%"class.dealii::SmartPointer"* %tria) #11, !dbg !11328
  br label %ehcleanup10, !dbg !11328

ehcleanup10:                                      ; preds = %ehcleanup, %lpad
  %21 = bitcast %"class.dealii::TimeStepBase_Tria"* %this1 to %"class.dealii::TimeStepBase"*, !dbg !11328
  call void @_ZN6dealii12TimeStepBaseD2Ev(%"class.dealii::TimeStepBase"* %21) #11, !dbg !11328
  br label %eh.resume, !dbg !11328

eh.resume:                                        ; preds = %ehcleanup10
  %exn = load i8*, i8** %exn.slot, align 8, !dbg !11328
  %sel = load i32, i32* %ehselector.slot, align 4, !dbg !11328
  %lpad.val = insertvalue { i8*, i32 } undef, i8* %exn, 0, !dbg !11328
  %lpad.val11 = insertvalue { i8*, i32 } %lpad.val, i32 %sel, 1, !dbg !11328
  resume { i8*, i32 } %lpad.val11, !dbg !11328
}

declare dso_local void @__cxa_bad_typeid()

; Function Attrs: noinline nounwind uwtable
define linkonce_odr dso_local i8* @_ZNKSt9type_info4nameEv(%"class.std::type_info"* %this) #1 comdat align 2 !dbg !11330 {
entry:
  %this.addr = alloca %"class.std::type_info"*, align 8
  store %"class.std::type_info"* %this, %"class.std::type_info"** %this.addr, align 8
  call void @llvm.dbg.declare(metadata %"class.std::type_info"** %this.addr, metadata !11335, metadata !DIExpression()), !dbg !11336
  %this1 = load %"class.std::type_info"*, %"class.std::type_info"** %this.addr, align 8
  %__name = getelementptr inbounds %"class.std::type_info", %"class.std::type_info"* %this1, i32 0, i32 1, !dbg !11337
  %0 = load i8*, i8** %__name, align 8, !dbg !11337
  %arrayidx = getelementptr inbounds i8, i8* %0, i64 0, !dbg !11337
  %1 = load i8, i8* %arrayidx, align 1, !dbg !11337
  %conv = sext i8 %1 to i32, !dbg !11337
  %cmp = icmp eq i32 %conv, 42, !dbg !11338
  br i1 %cmp, label %cond.true, label %cond.false, !dbg !11337

cond.true:                                        ; preds = %entry
  %__name2 = getelementptr inbounds %"class.std::type_info", %"class.std::type_info"* %this1, i32 0, i32 1, !dbg !11339
  %2 = load i8*, i8** %__name2, align 8, !dbg !11339
  %add.ptr = getelementptr inbounds i8, i8* %2, i64 1, !dbg !11340
  br label %cond.end, !dbg !11337

cond.false:                                       ; preds = %entry
  %__name3 = getelementptr inbounds %"class.std::type_info", %"class.std::type_info"* %this1, i32 0, i32 1, !dbg !11341
  %3 = load i8*, i8** %__name3, align 8, !dbg !11341
  br label %cond.end, !dbg !11337

cond.end:                                         ; preds = %cond.false, %cond.true
  %cond = phi i8* [ %add.ptr, %cond.true ], [ %3, %cond.false ], !dbg !11337
  ret i8* %cond, !dbg !11342
}

; Function Attrs: argmemonly nounwind willreturn
declare void @llvm.memcpy.p0i8.p0i8.i64(i8* noalias nocapture writeonly, i8* noalias nocapture readonly, i64, i1 immarg) #3

; Function Attrs: noinline uwtable
define linkonce_odr dso_local void @_ZN6dealii23TimeStepBase_Tria_Flags15RefinementFlagsILi3EEC2ERKS2_(%"struct.dealii::TimeStepBase_Tria_Flags::RefinementFlags"* %this, %"struct.dealii::TimeStepBase_Tria_Flags::RefinementFlags"* dereferenceable(64) %0) unnamed_addr #0 comdat align 2 !dbg !11343 {
entry:
  %this.addr = alloca %"struct.dealii::TimeStepBase_Tria_Flags::RefinementFlags"*, align 8
  %.addr = alloca %"struct.dealii::TimeStepBase_Tria_Flags::RefinementFlags"*, align 8
  store %"struct.dealii::TimeStepBase_Tria_Flags::RefinementFlags"* %this, %"struct.dealii::TimeStepBase_Tria_Flags::RefinementFlags"** %this.addr, align 8
  call void @llvm.dbg.declare(metadata %"struct.dealii::TimeStepBase_Tria_Flags::RefinementFlags"** %this.addr, metadata !11349, metadata !DIExpression()), !dbg !11351
  store %"struct.dealii::TimeStepBase_Tria_Flags::RefinementFlags"* %0, %"struct.dealii::TimeStepBase_Tria_Flags::RefinementFlags"** %.addr, align 8
  call void @llvm.dbg.declare(metadata %"struct.dealii::TimeStepBase_Tria_Flags::RefinementFlags"** %.addr, metadata !11352, metadata !DIExpression()), !dbg !11351
  %this1 = load %"struct.dealii::TimeStepBase_Tria_Flags::RefinementFlags"*, %"struct.dealii::TimeStepBase_Tria_Flags::RefinementFlags"** %this.addr, align 8
  %max_refinement_level = getelementptr inbounds %"struct.dealii::TimeStepBase_Tria_Flags::RefinementFlags", %"struct.dealii::TimeStepBase_Tria_Flags::RefinementFlags"* %this1, i32 0, i32 0, !dbg !11353
  %1 = load %"struct.dealii::TimeStepBase_Tria_Flags::RefinementFlags"*, %"struct.dealii::TimeStepBase_Tria_Flags::RefinementFlags"** %.addr, align 8, !dbg !11353
  %max_refinement_level2 = getelementptr inbounds %"struct.dealii::TimeStepBase_Tria_Flags::RefinementFlags", %"struct.dealii::TimeStepBase_Tria_Flags::RefinementFlags"* %1, i32 0, i32 0, !dbg !11353
  %2 = bitcast i32* %max_refinement_level to i8*, !dbg !11353
  %3 = bitcast i32* %max_refinement_level2 to i8*, !dbg !11353
  call void @llvm.memcpy.p0i8.p0i8.i64(i8* align 8 %2, i8* align 8 %3, i64 32, i1 false), !dbg !11353
  %correction_relaxations = getelementptr inbounds %"struct.dealii::TimeStepBase_Tria_Flags::RefinementFlags", %"struct.dealii::TimeStepBase_Tria_Flags::RefinementFlags"* %this1, i32 0, i32 6, !dbg !11353
  %4 = load %"struct.dealii::TimeStepBase_Tria_Flags::RefinementFlags"*, %"struct.dealii::TimeStepBase_Tria_Flags::RefinementFlags"** %.addr, align 8, !dbg !11353
  %correction_relaxations3 = getelementptr inbounds %"struct.dealii::TimeStepBase_Tria_Flags::RefinementFlags", %"struct.dealii::TimeStepBase_Tria_Flags::RefinementFlags"* %4, i32 0, i32 6, !dbg !11353
  call void @_ZNSt6vectorIS_ISt4pairIjdESaIS1_EESaIS3_EEC2ERKS5_(%"class.std::vector"* %correction_relaxations, %"class.std::vector"* dereferenceable(24) %correction_relaxations3), !dbg !11353
  %cell_number_correction_steps = getelementptr inbounds %"struct.dealii::TimeStepBase_Tria_Flags::RefinementFlags", %"struct.dealii::TimeStepBase_Tria_Flags::RefinementFlags"* %this1, i32 0, i32 7, !dbg !11353
  %5 = load %"struct.dealii::TimeStepBase_Tria_Flags::RefinementFlags"*, %"struct.dealii::TimeStepBase_Tria_Flags::RefinementFlags"** %.addr, align 8, !dbg !11353
  %cell_number_correction_steps4 = getelementptr inbounds %"struct.dealii::TimeStepBase_Tria_Flags::RefinementFlags", %"struct.dealii::TimeStepBase_Tria_Flags::RefinementFlags"* %5, i32 0, i32 7, !dbg !11353
  %6 = bitcast i32* %cell_number_correction_steps to i8*, !dbg !11353
  %7 = bitcast i32* %cell_number_correction_steps4 to i8*, !dbg !11353
  call void @llvm.memcpy.p0i8.p0i8.i64(i8* align 8 %6, i8* align 8 %7, i64 6, i1 false), !dbg !11353
  ret void, !dbg !11353
}

; Function Attrs: noinline nounwind uwtable
define weak_odr dso_local void @_ZN6dealii17TimeStepBase_TriaILi3EED2Ev(%"class.dealii::TimeStepBase_Tria"* %this) unnamed_addr #1 comdat($_ZN6dealii17TimeStepBase_TriaILi3EED5Ev) align 2 personality i8* bitcast (i32 (...)* @__gxx_personality_v0 to i8*) !dbg !11354 {
entry:
  %this.addr = alloca %"class.dealii::TimeStepBase_Tria"*, align 8
  %t = alloca %"class.dealii::Triangulation"*, align 8
  %exn.slot = alloca i8*
  %ehselector.slot = alloca i32
  store %"class.dealii::TimeStepBase_Tria"* %this, %"class.dealii::TimeStepBase_Tria"** %this.addr, align 8
  call void @llvm.dbg.declare(metadata %"class.dealii::TimeStepBase_Tria"** %this.addr, metadata !11355, metadata !DIExpression()), !dbg !11356
  %this1 = load %"class.dealii::TimeStepBase_Tria"*, %"class.dealii::TimeStepBase_Tria"** %this.addr, align 8
  %0 = bitcast %"class.dealii::TimeStepBase_Tria"* %this1 to i32 (...)***, !dbg !11357
  store i32 (...)** bitcast (i8** getelementptr inbounds ({ [17 x i8*] }, { [17 x i8*] }* @_ZTVN6dealii17TimeStepBase_TriaILi3EEE, i32 0, inrange i32 0, i32 2) to i32 (...)**), i32 (...)*** %0, align 8, !dbg !11357
  %flags = getelementptr inbounds %"class.dealii::TimeStepBase_Tria", %"class.dealii::TimeStepBase_Tria"* %this1, i32 0, i32 3, !dbg !11358
  %delete_and_rebuild_tria = getelementptr inbounds %"struct.dealii::TimeStepBase_Tria_Flags::Flags", %"struct.dealii::TimeStepBase_Tria_Flags::Flags"* %flags, i32 0, i32 0, !dbg !11361
  %1 = load i8, i8* %delete_and_rebuild_tria, align 8, !dbg !11361
  %tobool = trunc i8 %1 to i1, !dbg !11361
  br i1 %tobool, label %if.else, label %if.then, !dbg !11362

if.then:                                          ; preds = %entry
  call void @llvm.dbg.declare(metadata %"class.dealii::Triangulation"** %t, metadata !11363, metadata !DIExpression()), !dbg !11365
  %tria = getelementptr inbounds %"class.dealii::TimeStepBase_Tria", %"class.dealii::TimeStepBase_Tria"* %this1, i32 0, i32 1, !dbg !11366
  %call = invoke %"class.dealii::Triangulation"* @_ZNK6dealii12SmartPointerINS_13TriangulationILi3ELi3EEEEcvPS2_Ev(%"class.dealii::SmartPointer"* %tria)
          to label %invoke.cont unwind label %lpad, !dbg !11366

invoke.cont:                                      ; preds = %if.then
  store %"class.dealii::Triangulation"* %call, %"class.dealii::Triangulation"** %t, align 8, !dbg !11365
  %tria2 = getelementptr inbounds %"class.dealii::TimeStepBase_Tria", %"class.dealii::TimeStepBase_Tria"* %this1, i32 0, i32 1, !dbg !11367
  %call4 = invoke dereferenceable(16) %"class.dealii::SmartPointer"* @_ZN6dealii12SmartPointerINS_13TriangulationILi3ELi3EEEEaSEPS2_(%"class.dealii::SmartPointer"* %tria2, %"class.dealii::Triangulation"* null)
          to label %invoke.cont3 unwind label %lpad, !dbg !11368

invoke.cont3:                                     ; preds = %invoke.cont
  %2 = load %"class.dealii::Triangulation"*, %"class.dealii::Triangulation"** %t, align 8, !dbg !11369
  %isnull = icmp eq %"class.dealii::Triangulation"* %2, null, !dbg !11370
  br i1 %isnull, label %delete.end, label %delete.notnull, !dbg !11370

delete.notnull:                                   ; preds = %invoke.cont3
  %3 = bitcast %"class.dealii::Triangulation"* %2 to void (%"class.dealii::Triangulation"*)***, !dbg !11370
  %vtable = load void (%"class.dealii::Triangulation"*)**, void (%"class.dealii::Triangulation"*)*** %3, align 8, !dbg !11370
  %vfn = getelementptr inbounds void (%"class.dealii::Triangulation"*)*, void (%"class.dealii::Triangulation"*)** %vtable, i64 1, !dbg !11370
  %4 = load void (%"class.dealii::Triangulation"*)*, void (%"class.dealii::Triangulation"*)** %vfn, align 8, !dbg !11370
  call void %4(%"class.dealii::Triangulation"* %2) #11, !dbg !11370
  br label %delete.end, !dbg !11370

delete.end:                                       ; preds = %delete.notnull, %invoke.cont3
  br label %if.end, !dbg !11371

lpad:                                             ; preds = %if.end, %invoke.cont, %if.then
  %5 = landingpad { i8*, i32 }
          catch i8* null, !dbg !11372
  %6 = extractvalue { i8*, i32 } %5, 0, !dbg !11372
  store i8* %6, i8** %exn.slot, align 8, !dbg !11372
  %7 = extractvalue { i8*, i32 } %5, 1, !dbg !11372
  store i32 %7, i32* %ehselector.slot, align 4, !dbg !11372
  %coarsen_flags7 = getelementptr inbounds %"class.dealii::TimeStepBase_Tria", %"class.dealii::TimeStepBase_Tria"* %this1, i32 0, i32 7, !dbg !11373
  call void @_ZNSt6vectorIS_IbSaIbEESaIS1_EED2Ev(%"class.std::vector.25"* %coarsen_flags7) #11, !dbg !11373
  %refine_flags8 = getelementptr inbounds %"class.dealii::TimeStepBase_Tria", %"class.dealii::TimeStepBase_Tria"* %this1, i32 0, i32 6, !dbg !11373
  call void @_ZNSt6vectorIS_IbSaIbEESaIS1_EED2Ev(%"class.std::vector.25"* %refine_flags8) #11, !dbg !11373
  %refinement_flags9 = getelementptr inbounds %"class.dealii::TimeStepBase_Tria", %"class.dealii::TimeStepBase_Tria"* %this1, i32 0, i32 5, !dbg !11373
  call void @_ZN6dealii23TimeStepBase_Tria_Flags15RefinementFlagsILi3EED2Ev(%"struct.dealii::TimeStepBase_Tria_Flags::RefinementFlags"* %refinement_flags9) #11, !dbg !11373
  %coarse_grid11 = getelementptr inbounds %"class.dealii::TimeStepBase_Tria", %"class.dealii::TimeStepBase_Tria"* %this1, i32 0, i32 2, !dbg !11373
  call void @_ZN6dealii12SmartPointerIKNS_13TriangulationILi3ELi3EEEED2Ev(%"class.dealii::SmartPointer.16"* %coarse_grid11) #11, !dbg !11373
  %tria13 = getelementptr inbounds %"class.dealii::TimeStepBase_Tria", %"class.dealii::TimeStepBase_Tria"* %this1, i32 0, i32 1, !dbg !11373
  call void @_ZN6dealii12SmartPointerINS_13TriangulationILi3ELi3EEEED2Ev(%"class.dealii::SmartPointer"* %tria13) #11, !dbg !11373
  %8 = bitcast %"class.dealii::TimeStepBase_Tria"* %this1 to %"class.dealii::TimeStepBase"*, !dbg !11373
  call void @_ZN6dealii12TimeStepBaseD2Ev(%"class.dealii::TimeStepBase"* %8) #11, !dbg !11373
  br label %terminate.handler, !dbg !11373

if.else:                                          ; preds = %entry
  br label %if.end

if.end:                                           ; preds = %if.else, %delete.end
  %coarse_grid = getelementptr inbounds %"class.dealii::TimeStepBase_Tria", %"class.dealii::TimeStepBase_Tria"* %this1, i32 0, i32 2, !dbg !11374
  %call6 = invoke dereferenceable(16) %"class.dealii::SmartPointer.16"* @_ZN6dealii12SmartPointerIKNS_13TriangulationILi3ELi3EEEEaSEPS3_(%"class.dealii::SmartPointer.16"* %coarse_grid, %"class.dealii::Triangulation"* null)
          to label %invoke.cont5 unwind label %lpad, !dbg !11375

invoke.cont5:                                     ; preds = %if.end
  %coarsen_flags = getelementptr inbounds %"class.dealii::TimeStepBase_Tria", %"class.dealii::TimeStepBase_Tria"* %this1, i32 0, i32 7, !dbg !11373
  call void @_ZNSt6vectorIS_IbSaIbEESaIS1_EED2Ev(%"class.std::vector.25"* %coarsen_flags) #11, !dbg !11373
  %refine_flags = getelementptr inbounds %"class.dealii::TimeStepBase_Tria", %"class.dealii::TimeStepBase_Tria"* %this1, i32 0, i32 6, !dbg !11373
  call void @_ZNSt6vectorIS_IbSaIbEESaIS1_EED2Ev(%"class.std::vector.25"* %refine_flags) #11, !dbg !11373
  %refinement_flags = getelementptr inbounds %"class.dealii::TimeStepBase_Tria", %"class.dealii::TimeStepBase_Tria"* %this1, i32 0, i32 5, !dbg !11373
  call void @_ZN6dealii23TimeStepBase_Tria_Flags15RefinementFlagsILi3EED2Ev(%"struct.dealii::TimeStepBase_Tria_Flags::RefinementFlags"* %refinement_flags) #11, !dbg !11373
  %coarse_grid10 = getelementptr inbounds %"class.dealii::TimeStepBase_Tria", %"class.dealii::TimeStepBase_Tria"* %this1, i32 0, i32 2, !dbg !11373
  call void @_ZN6dealii12SmartPointerIKNS_13TriangulationILi3ELi3EEEED2Ev(%"class.dealii::SmartPointer.16"* %coarse_grid10) #11, !dbg !11373
  %tria12 = getelementptr inbounds %"class.dealii::TimeStepBase_Tria", %"class.dealii::TimeStepBase_Tria"* %this1, i32 0, i32 1, !dbg !11373
  call void @_ZN6dealii12SmartPointerINS_13TriangulationILi3ELi3EEEED2Ev(%"class.dealii::SmartPointer"* %tria12) #11, !dbg !11373
  %9 = bitcast %"class.dealii::TimeStepBase_Tria"* %this1 to %"class.dealii::TimeStepBase"*, !dbg !11373
  call void @_ZN6dealii12TimeStepBaseD2Ev(%"class.dealii::TimeStepBase"* %9) #11, !dbg !11373
  ret void, !dbg !11376

terminate.handler:                                ; preds = %lpad
  %exn = load i8*, i8** %exn.slot, align 8, !dbg !11373
  call void @__clang_call_terminate(i8* %exn) #14, !dbg !11373
  unreachable, !dbg !11373
}

; Function Attrs: noinline nounwind uwtable
define linkonce_odr dso_local %"class.dealii::Triangulation"* @_ZNK6dealii12SmartPointerINS_13TriangulationILi3ELi3EEEEcvPS2_Ev(%"class.dealii::SmartPointer"* %this) #1 comdat align 2 !dbg !11377 {
entry:
  %this.addr = alloca %"class.dealii::SmartPointer"*, align 8
  store %"class.dealii::SmartPointer"* %this, %"class.dealii::SmartPointer"** %this.addr, align 8
  call void @llvm.dbg.declare(metadata %"class.dealii::SmartPointer"** %this.addr, metadata !11378, metadata !DIExpression()), !dbg !11380
  %this1 = load %"class.dealii::SmartPointer"*, %"class.dealii::SmartPointer"** %this.addr, align 8
  %t = getelementptr inbounds %"class.dealii::SmartPointer", %"class.dealii::SmartPointer"* %this1, i32 0, i32 0, !dbg !11381
  %0 = load %"class.dealii::Triangulation"*, %"class.dealii::Triangulation"** %t, align 8, !dbg !11381
  ret %"class.dealii::Triangulation"* %0, !dbg !11382
}

; Function Attrs: noinline nounwind uwtable
define linkonce_odr dso_local dereferenceable(16) %"class.dealii::SmartPointer"* @_ZN6dealii12SmartPointerINS_13TriangulationILi3ELi3EEEEaSEPS2_(%"class.dealii::SmartPointer"* %this, %"class.dealii::Triangulation"* %tt) #1 comdat align 2 !dbg !11383 {
entry:
  %retval = alloca %"class.dealii::SmartPointer"*, align 8
  %this.addr = alloca %"class.dealii::SmartPointer"*, align 8
  %tt.addr = alloca %"class.dealii::Triangulation"*, align 8
  store %"class.dealii::SmartPointer"* %this, %"class.dealii::SmartPointer"** %this.addr, align 8
  call void @llvm.dbg.declare(metadata %"class.dealii::SmartPointer"** %this.addr, metadata !11384, metadata !DIExpression()), !dbg !11385
  store %"class.dealii::Triangulation"* %tt, %"class.dealii::Triangulation"** %tt.addr, align 8
  call void @llvm.dbg.declare(metadata %"class.dealii::Triangulation"** %tt.addr, metadata !11386, metadata !DIExpression()), !dbg !11387
  %this1 = load %"class.dealii::SmartPointer"*, %"class.dealii::SmartPointer"** %this.addr, align 8
  %t = getelementptr inbounds %"class.dealii::SmartPointer", %"class.dealii::SmartPointer"* %this1, i32 0, i32 0, !dbg !11388
  %0 = load %"class.dealii::Triangulation"*, %"class.dealii::Triangulation"** %t, align 8, !dbg !11388
  %1 = load %"class.dealii::Triangulation"*, %"class.dealii::Triangulation"** %tt.addr, align 8, !dbg !11390
  %cmp = icmp eq %"class.dealii::Triangulation"* %0, %1, !dbg !11391
  br i1 %cmp, label %if.then, label %if.end, !dbg !11392

if.then:                                          ; preds = %entry
  store %"class.dealii::SmartPointer"* %this1, %"class.dealii::SmartPointer"** %retval, align 8, !dbg !11393
  br label %return, !dbg !11393

if.end:                                           ; preds = %entry
  %t2 = getelementptr inbounds %"class.dealii::SmartPointer", %"class.dealii::SmartPointer"* %this1, i32 0, i32 0, !dbg !11394
  %2 = load %"class.dealii::Triangulation"*, %"class.dealii::Triangulation"** %t2, align 8, !dbg !11394
  %cmp3 = icmp ne %"class.dealii::Triangulation"* %2, null, !dbg !11396
  br i1 %cmp3, label %if.then4, label %if.end6, !dbg !11397

if.then4:                                         ; preds = %if.end
  %t5 = getelementptr inbounds %"class.dealii::SmartPointer", %"class.dealii::SmartPointer"* %this1, i32 0, i32 0, !dbg !11398
  %3 = load %"class.dealii::Triangulation"*, %"class.dealii::Triangulation"** %t5, align 8, !dbg !11398
  %4 = bitcast %"class.dealii::Triangulation"* %3 to %"class.dealii::Subscriptor"*, !dbg !11399
  %id = getelementptr inbounds %"class.dealii::SmartPointer", %"class.dealii::SmartPointer"* %this1, i32 0, i32 1, !dbg !11400
  %5 = load i8*, i8** %id, align 8, !dbg !11400
  call void @_ZNK6dealii11Subscriptor11unsubscribeEPKc(%"class.dealii::Subscriptor"* %4, i8* %5), !dbg !11399
  br label %if.end6, !dbg !11398

if.end6:                                          ; preds = %if.then4, %if.end
  %6 = load %"class.dealii::Triangulation"*, %"class.dealii::Triangulation"** %tt.addr, align 8, !dbg !11401
  %t7 = getelementptr inbounds %"class.dealii::SmartPointer", %"class.dealii::SmartPointer"* %this1, i32 0, i32 0, !dbg !11402
  store %"class.dealii::Triangulation"* %6, %"class.dealii::Triangulation"** %t7, align 8, !dbg !11403
  %7 = load %"class.dealii::Triangulation"*, %"class.dealii::Triangulation"** %tt.addr, align 8, !dbg !11404
  %cmp8 = icmp ne %"class.dealii::Triangulation"* %7, null, !dbg !11406
  br i1 %cmp8, label %if.then9, label %if.end11, !dbg !11407

if.then9:                                         ; preds = %if.end6
  %8 = load %"class.dealii::Triangulation"*, %"class.dealii::Triangulation"** %tt.addr, align 8, !dbg !11408
  %9 = bitcast %"class.dealii::Triangulation"* %8 to %"class.dealii::Subscriptor"*, !dbg !11409
  %id10 = getelementptr inbounds %"class.dealii::SmartPointer", %"class.dealii::SmartPointer"* %this1, i32 0, i32 1, !dbg !11410
  %10 = load i8*, i8** %id10, align 8, !dbg !11410
  call void @_ZNK6dealii11Subscriptor9subscribeEPKc(%"class.dealii::Subscriptor"* %9, i8* %10), !dbg !11409
  br label %if.end11, !dbg !11408

if.end11:                                         ; preds = %if.then9, %if.end6
  store %"class.dealii::SmartPointer"* %this1, %"class.dealii::SmartPointer"** %retval, align 8, !dbg !11411
  br label %return, !dbg !11411

return:                                           ; preds = %if.end11, %if.then
  %11 = load %"class.dealii::SmartPointer"*, %"class.dealii::SmartPointer"** %retval, align 8, !dbg !11412
  ret %"class.dealii::SmartPointer"* %11, !dbg !11412
}

; Function Attrs: noinline nounwind uwtable
define linkonce_odr dso_local dereferenceable(16) %"class.dealii::SmartPointer.16"* @_ZN6dealii12SmartPointerIKNS_13TriangulationILi3ELi3EEEEaSEPS3_(%"class.dealii::SmartPointer.16"* %this, %"class.dealii::Triangulation"* %tt) #1 comdat align 2 !dbg !11413 {
entry:
  %retval = alloca %"class.dealii::SmartPointer.16"*, align 8
  %this.addr = alloca %"class.dealii::SmartPointer.16"*, align 8
  %tt.addr = alloca %"class.dealii::Triangulation"*, align 8
  store %"class.dealii::SmartPointer.16"* %this, %"class.dealii::SmartPointer.16"** %this.addr, align 8
  call void @llvm.dbg.declare(metadata %"class.dealii::SmartPointer.16"** %this.addr, metadata !11414, metadata !DIExpression()), !dbg !11415
  store %"class.dealii::Triangulation"* %tt, %"class.dealii::Triangulation"** %tt.addr, align 8
  call void @llvm.dbg.declare(metadata %"class.dealii::Triangulation"** %tt.addr, metadata !11416, metadata !DIExpression()), !dbg !11417
  %this1 = load %"class.dealii::SmartPointer.16"*, %"class.dealii::SmartPointer.16"** %this.addr, align 8
  %t = getelementptr inbounds %"class.dealii::SmartPointer.16", %"class.dealii::SmartPointer.16"* %this1, i32 0, i32 0, !dbg !11418
  %0 = load %"class.dealii::Triangulation"*, %"class.dealii::Triangulation"** %t, align 8, !dbg !11418
  %1 = load %"class.dealii::Triangulation"*, %"class.dealii::Triangulation"** %tt.addr, align 8, !dbg !11420
  %cmp = icmp eq %"class.dealii::Triangulation"* %0, %1, !dbg !11421
  br i1 %cmp, label %if.then, label %if.end, !dbg !11422

if.then:                                          ; preds = %entry
  store %"class.dealii::SmartPointer.16"* %this1, %"class.dealii::SmartPointer.16"** %retval, align 8, !dbg !11423
  br label %return, !dbg !11423

if.end:                                           ; preds = %entry
  %t2 = getelementptr inbounds %"class.dealii::SmartPointer.16", %"class.dealii::SmartPointer.16"* %this1, i32 0, i32 0, !dbg !11424
  %2 = load %"class.dealii::Triangulation"*, %"class.dealii::Triangulation"** %t2, align 8, !dbg !11424
  %cmp3 = icmp ne %"class.dealii::Triangulation"* %2, null, !dbg !11426
  br i1 %cmp3, label %if.then4, label %if.end6, !dbg !11427

if.then4:                                         ; preds = %if.end
  %t5 = getelementptr inbounds %"class.dealii::SmartPointer.16", %"class.dealii::SmartPointer.16"* %this1, i32 0, i32 0, !dbg !11428
  %3 = load %"class.dealii::Triangulation"*, %"class.dealii::Triangulation"** %t5, align 8, !dbg !11428
  %4 = bitcast %"class.dealii::Triangulation"* %3 to %"class.dealii::Subscriptor"*, !dbg !11429
  %id = getelementptr inbounds %"class.dealii::SmartPointer.16", %"class.dealii::SmartPointer.16"* %this1, i32 0, i32 1, !dbg !11430
  %5 = load i8*, i8** %id, align 8, !dbg !11430
  call void @_ZNK6dealii11Subscriptor11unsubscribeEPKc(%"class.dealii::Subscriptor"* %4, i8* %5), !dbg !11429
  br label %if.end6, !dbg !11428

if.end6:                                          ; preds = %if.then4, %if.end
  %6 = load %"class.dealii::Triangulation"*, %"class.dealii::Triangulation"** %tt.addr, align 8, !dbg !11431
  %t7 = getelementptr inbounds %"class.dealii::SmartPointer.16", %"class.dealii::SmartPointer.16"* %this1, i32 0, i32 0, !dbg !11432
  store %"class.dealii::Triangulation"* %6, %"class.dealii::Triangulation"** %t7, align 8, !dbg !11433
  %7 = load %"class.dealii::Triangulation"*, %"class.dealii::Triangulation"** %tt.addr, align 8, !dbg !11434
  %cmp8 = icmp ne %"class.dealii::Triangulation"* %7, null, !dbg !11436
  br i1 %cmp8, label %if.then9, label %if.end11, !dbg !11437

if.then9:                                         ; preds = %if.end6
  %8 = load %"class.dealii::Triangulation"*, %"class.dealii::Triangulation"** %tt.addr, align 8, !dbg !11438
  %9 = bitcast %"class.dealii::Triangulation"* %8 to %"class.dealii::Subscriptor"*, !dbg !11439
  %id10 = getelementptr inbounds %"class.dealii::SmartPointer.16", %"class.dealii::SmartPointer.16"* %this1, i32 0, i32 1, !dbg !11440
  %10 = load i8*, i8** %id10, align 8, !dbg !11440
  call void @_ZNK6dealii11Subscriptor9subscribeEPKc(%"class.dealii::Subscriptor"* %9, i8* %10), !dbg !11439
  br label %if.end11, !dbg !11438

if.end11:                                         ; preds = %if.then9, %if.end6
  store %"class.dealii::SmartPointer.16"* %this1, %"class.dealii::SmartPointer.16"** %retval, align 8, !dbg !11441
  br label %return, !dbg !11441

return:                                           ; preds = %if.end11, %if.then
  %11 = load %"class.dealii::SmartPointer.16"*, %"class.dealii::SmartPointer.16"** %retval, align 8, !dbg !11442
  ret %"class.dealii::SmartPointer.16"* %11, !dbg !11442
}

; Function Attrs: noinline nounwind uwtable
define linkonce_odr dso_local void @_ZNSt6vectorIS_IbSaIbEESaIS1_EED2Ev(%"class.std::vector.25"* %this) unnamed_addr #1 comdat align 2 personality i8* bitcast (i32 (...)* @__gxx_personality_v0 to i8*) !dbg !11443 {
entry:
  %this.addr = alloca %"class.std::vector.25"*, align 8
  %exn.slot = alloca i8*
  %ehselector.slot = alloca i32
  store %"class.std::vector.25"* %this, %"class.std::vector.25"** %this.addr, align 8
  call void @llvm.dbg.declare(metadata %"class.std::vector.25"** %this.addr, metadata !11444, metadata !DIExpression()), !dbg !11445
  %this1 = load %"class.std::vector.25"*, %"class.std::vector.25"** %this.addr, align 8
  %0 = bitcast %"class.std::vector.25"* %this1 to %"struct.std::_Vector_base.26"*, !dbg !11446
  %_M_impl = getelementptr inbounds %"struct.std::_Vector_base.26", %"struct.std::_Vector_base.26"* %0, i32 0, i32 0, !dbg !11446
  %1 = bitcast %"struct.std::_Vector_base<std::vector<bool, std::allocator<bool> >, std::allocator<std::vector<bool, std::allocator<bool> > > >::_Vector_impl"* %_M_impl to %"struct.std::_Vector_base<std::vector<bool, std::allocator<bool> >, std::allocator<std::vector<bool, std::allocator<bool> > > >::_Vector_impl_data"*, !dbg !11448
  %_M_start = getelementptr inbounds %"struct.std::_Vector_base<std::vector<bool, std::allocator<bool> >, std::allocator<std::vector<bool, std::allocator<bool> > > >::_Vector_impl_data", %"struct.std::_Vector_base<std::vector<bool, std::allocator<bool> >, std::allocator<std::vector<bool, std::allocator<bool> > > >::_Vector_impl_data"* %1, i32 0, i32 0, !dbg !11449
  %2 = load %"class.std::vector.30"*, %"class.std::vector.30"** %_M_start, align 8, !dbg !11449
  %3 = bitcast %"class.std::vector.25"* %this1 to %"struct.std::_Vector_base.26"*, !dbg !11450
  %_M_impl2 = getelementptr inbounds %"struct.std::_Vector_base.26", %"struct.std::_Vector_base.26"* %3, i32 0, i32 0, !dbg !11450
  %4 = bitcast %"struct.std::_Vector_base<std::vector<bool, std::allocator<bool> >, std::allocator<std::vector<bool, std::allocator<bool> > > >::_Vector_impl"* %_M_impl2 to %"struct.std::_Vector_base<std::vector<bool, std::allocator<bool> >, std::allocator<std::vector<bool, std::allocator<bool> > > >::_Vector_impl_data"*, !dbg !11451
  %_M_finish = getelementptr inbounds %"struct.std::_Vector_base<std::vector<bool, std::allocator<bool> >, std::allocator<std::vector<bool, std::allocator<bool> > > >::_Vector_impl_data", %"struct.std::_Vector_base<std::vector<bool, std::allocator<bool> >, std::allocator<std::vector<bool, std::allocator<bool> > > >::_Vector_impl_data"* %4, i32 0, i32 1, !dbg !11452
  %5 = load %"class.std::vector.30"*, %"class.std::vector.30"** %_M_finish, align 8, !dbg !11452
  %6 = bitcast %"class.std::vector.25"* %this1 to %"struct.std::_Vector_base.26"*, !dbg !11453
  %call = call dereferenceable(1) %"class.std::allocator.27"* @_ZNSt12_Vector_baseISt6vectorIbSaIbEESaIS2_EE19_M_get_Tp_allocatorEv(%"struct.std::_Vector_base.26"* %6) #11, !dbg !11453
  invoke void @_ZSt8_DestroyIPSt6vectorIbSaIbEES2_EvT_S4_RSaIT0_E(%"class.std::vector.30"* %2, %"class.std::vector.30"* %5, %"class.std::allocator.27"* dereferenceable(1) %call)
          to label %invoke.cont unwind label %lpad, !dbg !11454

invoke.cont:                                      ; preds = %entry
  %7 = bitcast %"class.std::vector.25"* %this1 to %"struct.std::_Vector_base.26"*, !dbg !11455
  call void @_ZNSt12_Vector_baseISt6vectorIbSaIbEESaIS2_EED2Ev(%"struct.std::_Vector_base.26"* %7) #11, !dbg !11455
  ret void, !dbg !11456

lpad:                                             ; preds = %entry
  %8 = landingpad { i8*, i32 }
          catch i8* null, !dbg !11455
  %9 = extractvalue { i8*, i32 } %8, 0, !dbg !11455
  store i8* %9, i8** %exn.slot, align 8, !dbg !11455
  %10 = extractvalue { i8*, i32 } %8, 1, !dbg !11455
  store i32 %10, i32* %ehselector.slot, align 4, !dbg !11455
  %11 = bitcast %"class.std::vector.25"* %this1 to %"struct.std::_Vector_base.26"*, !dbg !11455
  call void @_ZNSt12_Vector_baseISt6vectorIbSaIbEESaIS2_EED2Ev(%"struct.std::_Vector_base.26"* %11) #11, !dbg !11455
  br label %terminate.handler, !dbg !11455

terminate.handler:                                ; preds = %lpad
  %exn = load i8*, i8** %exn.slot, align 8, !dbg !11455
  call void @__clang_call_terminate(i8* %exn) #14, !dbg !11455
  unreachable, !dbg !11455
}

; Function Attrs: noinline nounwind uwtable
define linkonce_odr dso_local void @_ZN6dealii23TimeStepBase_Tria_Flags15RefinementFlagsILi3EED2Ev(%"struct.dealii::TimeStepBase_Tria_Flags::RefinementFlags"* %this) unnamed_addr #1 comdat align 2 !dbg !11457 {
entry:
  %this.addr = alloca %"struct.dealii::TimeStepBase_Tria_Flags::RefinementFlags"*, align 8
  store %"struct.dealii::TimeStepBase_Tria_Flags::RefinementFlags"* %this, %"struct.dealii::TimeStepBase_Tria_Flags::RefinementFlags"** %this.addr, align 8
  call void @llvm.dbg.declare(metadata %"struct.dealii::TimeStepBase_Tria_Flags::RefinementFlags"** %this.addr, metadata !11461, metadata !DIExpression()), !dbg !11462
  %this1 = load %"struct.dealii::TimeStepBase_Tria_Flags::RefinementFlags"*, %"struct.dealii::TimeStepBase_Tria_Flags::RefinementFlags"** %this.addr, align 8
  %correction_relaxations = getelementptr inbounds %"struct.dealii::TimeStepBase_Tria_Flags::RefinementFlags", %"struct.dealii::TimeStepBase_Tria_Flags::RefinementFlags"* %this1, i32 0, i32 6, !dbg !11463
  call void @_ZNSt6vectorIS_ISt4pairIjdESaIS1_EESaIS3_EED2Ev(%"class.std::vector"* %correction_relaxations) #11, !dbg !11463
  ret void, !dbg !11465
}

; Function Attrs: noinline noreturn nounwind
define linkonce_odr hidden void @__clang_call_terminate(i8* %0) #4 comdat {
  %2 = call i8* @__cxa_begin_catch(i8* %0) #11
  call void @_ZSt9terminatev() #14
  unreachable
}

declare dso_local i8* @__cxa_begin_catch(i8*)

declare dso_local void @_ZSt9terminatev()

; Function Attrs: noinline nounwind uwtable
define weak_odr dso_local void @_ZN6dealii17TimeStepBase_TriaILi3EED0Ev(%"class.dealii::TimeStepBase_Tria"* %this) unnamed_addr #1 comdat($_ZN6dealii17TimeStepBase_TriaILi3EED5Ev) align 2 !dbg !11466 {
entry:
  %this.addr = alloca %"class.dealii::TimeStepBase_Tria"*, align 8
  store %"class.dealii::TimeStepBase_Tria"* %this, %"class.dealii::TimeStepBase_Tria"** %this.addr, align 8
  call void @llvm.dbg.declare(metadata %"class.dealii::TimeStepBase_Tria"** %this.addr, metadata !11467, metadata !DIExpression()), !dbg !11468
  %this1 = load %"class.dealii::TimeStepBase_Tria"*, %"class.dealii::TimeStepBase_Tria"** %this.addr, align 8
  call void @llvm.trap() #14, !dbg !11469
  unreachable, !dbg !11469
}

; Function Attrs: cold noreturn nounwind
declare void @llvm.trap() #5

; Function Attrs: noinline uwtable
define weak_odr dso_local void @_ZN6dealii17TimeStepBase_TriaILi3EE7wake_upEj(%"class.dealii::TimeStepBase_Tria"* %this, i32 %wakeup_level) unnamed_addr #0 comdat align 2 !dbg !11470 {
entry:
  %this.addr = alloca %"class.dealii::TimeStepBase_Tria"*, align 8
  %wakeup_level.addr = alloca i32, align 4
  store %"class.dealii::TimeStepBase_Tria"* %this, %"class.dealii::TimeStepBase_Tria"** %this.addr, align 8
  call void @llvm.dbg.declare(metadata %"class.dealii::TimeStepBase_Tria"** %this.addr, metadata !11471, metadata !DIExpression()), !dbg !11472
  store i32 %wakeup_level, i32* %wakeup_level.addr, align 4
  call void @llvm.dbg.declare(metadata i32* %wakeup_level.addr, metadata !11473, metadata !DIExpression()), !dbg !11474
  %this1 = load %"class.dealii::TimeStepBase_Tria"*, %"class.dealii::TimeStepBase_Tria"** %this.addr, align 8
  %0 = bitcast %"class.dealii::TimeStepBase_Tria"* %this1 to %"class.dealii::TimeStepBase"*, !dbg !11475
  %1 = load i32, i32* %wakeup_level.addr, align 4, !dbg !11476
  call void @_ZN6dealii12TimeStepBase7wake_upEj(%"class.dealii::TimeStepBase"* %0, i32 %1), !dbg !11475
  %2 = load i32, i32* %wakeup_level.addr, align 4, !dbg !11477
  %flags = getelementptr inbounds %"class.dealii::TimeStepBase_Tria", %"class.dealii::TimeStepBase_Tria"* %this1, i32 0, i32 3, !dbg !11479
  %wakeup_level_to_build_grid = getelementptr inbounds %"struct.dealii::TimeStepBase_Tria_Flags::Flags", %"struct.dealii::TimeStepBase_Tria_Flags::Flags"* %flags, i32 0, i32 1, !dbg !11480
  %3 = load i32, i32* %wakeup_level_to_build_grid, align 4, !dbg !11480
  %cmp = icmp eq i32 %2, %3, !dbg !11481
  br i1 %cmp, label %if.then, label %if.end5, !dbg !11482

if.then:                                          ; preds = %entry
  %flags2 = getelementptr inbounds %"class.dealii::TimeStepBase_Tria", %"class.dealii::TimeStepBase_Tria"* %this1, i32 0, i32 3, !dbg !11483
  %delete_and_rebuild_tria = getelementptr inbounds %"struct.dealii::TimeStepBase_Tria_Flags::Flags", %"struct.dealii::TimeStepBase_Tria_Flags::Flags"* %flags2, i32 0, i32 0, !dbg !11485
  %4 = load i8, i8* %delete_and_rebuild_tria, align 8, !dbg !11485
  %tobool = trunc i8 %4 to i1, !dbg !11485
  br i1 %tobool, label %if.then4, label %lor.lhs.false, !dbg !11486

lor.lhs.false:                                    ; preds = %if.then
  %tria = getelementptr inbounds %"class.dealii::TimeStepBase_Tria", %"class.dealii::TimeStepBase_Tria"* %this1, i32 0, i32 1, !dbg !11487
  %call = call %"class.dealii::Triangulation"* @_ZNK6dealii12SmartPointerINS_13TriangulationILi3ELi3EEEEcvPS2_Ev(%"class.dealii::SmartPointer"* %tria), !dbg !11487
  %tobool3 = icmp ne %"class.dealii::Triangulation"* %call, null, !dbg !11487
  br i1 %tobool3, label %if.end, label %if.then4, !dbg !11488

if.then4:                                         ; preds = %lor.lhs.false, %if.then
  call void @_ZN6dealii17TimeStepBase_TriaILi3EE12restore_gridEv(%"class.dealii::TimeStepBase_Tria"* %this1), !dbg !11489
  br label %if.end, !dbg !11489

if.end:                                           ; preds = %if.then4, %lor.lhs.false
  br label %if.end5, !dbg !11487

if.end5:                                          ; preds = %if.end, %entry
  ret void, !dbg !11490
}

; Function Attrs: noinline nounwind uwtable
define dso_local void @_ZN6dealii12TimeStepBase7wake_upEj(%"class.dealii::TimeStepBase"* %this, i32 %0) unnamed_addr #1 align 2 !dbg !11491 {
entry:
  %this.addr = alloca %"class.dealii::TimeStepBase"*, align 8
  %.addr = alloca i32, align 4
  store %"class.dealii::TimeStepBase"* %this, %"class.dealii::TimeStepBase"** %this.addr, align 8
  call void @llvm.dbg.declare(metadata %"class.dealii::TimeStepBase"** %this.addr, metadata !11492, metadata !DIExpression()), !dbg !11493
  store i32 %0, i32* %.addr, align 4
  call void @llvm.dbg.declare(metadata i32* %.addr, metadata !11494, metadata !DIExpression()), !dbg !11495
  %this1 = load %"class.dealii::TimeStepBase"*, %"class.dealii::TimeStepBase"** %this.addr, align 8
  ret void, !dbg !11496
}

; Function Attrs: noinline uwtable
define weak_odr dso_local void @_ZN6dealii17TimeStepBase_TriaILi3EE12restore_gridEv(%"class.dealii::TimeStepBase_Tria"* %this) #0 comdat align 2 personality i8* bitcast (i32 (...)* @__gxx_personality_v0 to i8*) !dbg !11497 {
entry:
  %this.addr = alloca %"class.dealii::TimeStepBase_Tria"*, align 8
  %exn.slot = alloca i8*
  %ehselector.slot = alloca i32
  %previous_sweep = alloca i32, align 4
  store %"class.dealii::TimeStepBase_Tria"* %this, %"class.dealii::TimeStepBase_Tria"** %this.addr, align 8
  call void @llvm.dbg.declare(metadata %"class.dealii::TimeStepBase_Tria"** %this.addr, metadata !11498, metadata !DIExpression()), !dbg !11499
  %this1 = load %"class.dealii::TimeStepBase_Tria"*, %"class.dealii::TimeStepBase_Tria"** %this.addr, align 8
  %call = call i8* @_Znwm(i64 8552) #16, !dbg !11500
  %0 = bitcast i8* %call to %"class.dealii::Triangulation"*, !dbg !11500
  invoke void @_ZN6dealii13TriangulationILi3ELi3EEC1ENS1_13MeshSmoothingE(%"class.dealii::Triangulation"* %0, i32 0)
          to label %invoke.cont unwind label %lpad, !dbg !11501

invoke.cont:                                      ; preds = %entry
  %tria = getelementptr inbounds %"class.dealii::TimeStepBase_Tria", %"class.dealii::TimeStepBase_Tria"* %this1, i32 0, i32 1, !dbg !11502
  %call2 = call dereferenceable(16) %"class.dealii::SmartPointer"* @_ZN6dealii12SmartPointerINS_13TriangulationILi3ELi3EEEEaSEPS2_(%"class.dealii::SmartPointer"* %tria, %"class.dealii::Triangulation"* %0), !dbg !11503
  %tria3 = getelementptr inbounds %"class.dealii::TimeStepBase_Tria", %"class.dealii::TimeStepBase_Tria"* %this1, i32 0, i32 1, !dbg !11504
  %call4 = call %"class.dealii::Triangulation"* @_ZNK6dealii12SmartPointerINS_13TriangulationILi3ELi3EEEEptEv(%"class.dealii::SmartPointer"* %tria3), !dbg !11504
  %coarse_grid = getelementptr inbounds %"class.dealii::TimeStepBase_Tria", %"class.dealii::TimeStepBase_Tria"* %this1, i32 0, i32 2, !dbg !11505
  %call5 = call dereferenceable(8552) %"class.dealii::Triangulation"* @_ZNK6dealii12SmartPointerIKNS_13TriangulationILi3ELi3EEEEdeEv(%"class.dealii::SmartPointer.16"* %coarse_grid), !dbg !11506
  %1 = bitcast %"class.dealii::Triangulation"* %call4 to void (%"class.dealii::Triangulation"*, %"class.dealii::Triangulation"*)***, !dbg !11507
  %vtable = load void (%"class.dealii::Triangulation"*, %"class.dealii::Triangulation"*)**, void (%"class.dealii::Triangulation"*, %"class.dealii::Triangulation"*)*** %1, align 8, !dbg !11507
  %vfn = getelementptr inbounds void (%"class.dealii::Triangulation"*, %"class.dealii::Triangulation"*)*, void (%"class.dealii::Triangulation"*, %"class.dealii::Triangulation"*)** %vtable, i64 2, !dbg !11507
  %2 = load void (%"class.dealii::Triangulation"*, %"class.dealii::Triangulation"*)*, void (%"class.dealii::Triangulation"*, %"class.dealii::Triangulation"*)** %vfn, align 8, !dbg !11507
  call void %2(%"class.dealii::Triangulation"* %call4, %"class.dealii::Triangulation"* dereferenceable(8552) %call5), !dbg !11507
  call void @llvm.dbg.declare(metadata i32* %previous_sweep, metadata !11508, metadata !DIExpression()), !dbg !11510
  store i32 0, i32* %previous_sweep, align 4, !dbg !11510
  br label %for.cond, !dbg !11511

for.cond:                                         ; preds = %for.inc, %invoke.cont
  %3 = load i32, i32* %previous_sweep, align 4, !dbg !11512
  %conv = zext i32 %3 to i64, !dbg !11512
  %refine_flags = getelementptr inbounds %"class.dealii::TimeStepBase_Tria", %"class.dealii::TimeStepBase_Tria"* %this1, i32 0, i32 6, !dbg !11514
  %call6 = call i64 @_ZNKSt6vectorIS_IbSaIbEESaIS1_EE4sizeEv(%"class.std::vector.25"* %refine_flags) #11, !dbg !11515
  %cmp = icmp ult i64 %conv, %call6, !dbg !11516
  br i1 %cmp, label %for.body, label %for.end, !dbg !11517

for.body:                                         ; preds = %for.cond
  %tria7 = getelementptr inbounds %"class.dealii::TimeStepBase_Tria", %"class.dealii::TimeStepBase_Tria"* %this1, i32 0, i32 1, !dbg !11518
  %call8 = call %"class.dealii::Triangulation"* @_ZNK6dealii12SmartPointerINS_13TriangulationILi3ELi3EEEEptEv(%"class.dealii::SmartPointer"* %tria7), !dbg !11518
  %refine_flags9 = getelementptr inbounds %"class.dealii::TimeStepBase_Tria", %"class.dealii::TimeStepBase_Tria"* %this1, i32 0, i32 6, !dbg !11520
  %4 = load i32, i32* %previous_sweep, align 4, !dbg !11521
  %conv10 = zext i32 %4 to i64, !dbg !11521
  %call11 = call dereferenceable(40) %"class.std::vector.30"* @_ZNSt6vectorIS_IbSaIbEESaIS1_EEixEm(%"class.std::vector.25"* %refine_flags9, i64 %conv10) #11, !dbg !11520
  call void @_ZN6dealii13TriangulationILi3ELi3EE17load_refine_flagsERKSt6vectorIbSaIbEE(%"class.dealii::Triangulation"* %call8, %"class.std::vector.30"* dereferenceable(40) %call11), !dbg !11522
  %tria12 = getelementptr inbounds %"class.dealii::TimeStepBase_Tria", %"class.dealii::TimeStepBase_Tria"* %this1, i32 0, i32 1, !dbg !11523
  %call13 = call %"class.dealii::Triangulation"* @_ZNK6dealii12SmartPointerINS_13TriangulationILi3ELi3EEEEptEv(%"class.dealii::SmartPointer"* %tria12), !dbg !11523
  %coarsen_flags = getelementptr inbounds %"class.dealii::TimeStepBase_Tria", %"class.dealii::TimeStepBase_Tria"* %this1, i32 0, i32 7, !dbg !11524
  %5 = load i32, i32* %previous_sweep, align 4, !dbg !11525
  %conv14 = zext i32 %5 to i64, !dbg !11525
  %call15 = call dereferenceable(40) %"class.std::vector.30"* @_ZNSt6vectorIS_IbSaIbEESaIS1_EEixEm(%"class.std::vector.25"* %coarsen_flags, i64 %conv14) #11, !dbg !11524
  call void @_ZN6dealii13TriangulationILi3ELi3EE18load_coarsen_flagsERKSt6vectorIbSaIbEE(%"class.dealii::Triangulation"* %call13, %"class.std::vector.30"* dereferenceable(40) %call15), !dbg !11526
  %tria16 = getelementptr inbounds %"class.dealii::TimeStepBase_Tria", %"class.dealii::TimeStepBase_Tria"* %this1, i32 0, i32 1, !dbg !11527
  %call17 = call %"class.dealii::Triangulation"* @_ZNK6dealii12SmartPointerINS_13TriangulationILi3ELi3EEEEptEv(%"class.dealii::SmartPointer"* %tria16), !dbg !11527
  %6 = bitcast %"class.dealii::Triangulation"* %call17 to void (%"class.dealii::Triangulation"*)***, !dbg !11528
  %vtable18 = load void (%"class.dealii::Triangulation"*)**, void (%"class.dealii::Triangulation"*)*** %6, align 8, !dbg !11528
  %vfn19 = getelementptr inbounds void (%"class.dealii::Triangulation"*)*, void (%"class.dealii::Triangulation"*)** %vtable18, i64 5, !dbg !11528
  %7 = load void (%"class.dealii::Triangulation"*)*, void (%"class.dealii::Triangulation"*)** %vfn19, align 8, !dbg !11528
  call void %7(%"class.dealii::Triangulation"* %call17), !dbg !11528
  br label %for.inc, !dbg !11529

for.inc:                                          ; preds = %for.body
  %8 = load i32, i32* %previous_sweep, align 4, !dbg !11530
  %inc = add i32 %8, 1, !dbg !11530
  store i32 %inc, i32* %previous_sweep, align 4, !dbg !11530
  br label %for.cond, !dbg !11531, !llvm.loop !11532

lpad:                                             ; preds = %entry
  %9 = landingpad { i8*, i32 }
          cleanup, !dbg !11534
  %10 = extractvalue { i8*, i32 } %9, 0, !dbg !11534
  store i8* %10, i8** %exn.slot, align 8, !dbg !11534
  %11 = extractvalue { i8*, i32 } %9, 1, !dbg !11534
  store i32 %11, i32* %ehselector.slot, align 4, !dbg !11534
  call void @_ZdlPv(i8* %call) #17, !dbg !11500
  br label %eh.resume, !dbg !11500

for.end:                                          ; preds = %for.cond
  ret void, !dbg !11534

eh.resume:                                        ; preds = %lpad
  %exn = load i8*, i8** %exn.slot, align 8, !dbg !11500
  %sel = load i32, i32* %ehselector.slot, align 4, !dbg !11500
  %lpad.val = insertvalue { i8*, i32 } undef, i8* %exn, 0, !dbg !11500
  %lpad.val20 = insertvalue { i8*, i32 } %lpad.val, i32 %sel, 1, !dbg !11500
  resume { i8*, i32 } %lpad.val20, !dbg !11500
}

; Function Attrs: noinline uwtable
define weak_odr dso_local void @_ZN6dealii17TimeStepBase_TriaILi3EE5sleepEj(%"class.dealii::TimeStepBase_Tria"* %this, i32 %sleep_level) unnamed_addr #0 comdat align 2 !dbg !11535 {
entry:
  %this.addr = alloca %"class.dealii::TimeStepBase_Tria"*, align 8
  %sleep_level.addr = alloca i32, align 4
  %t = alloca %"class.dealii::Triangulation"*, align 8
  store %"class.dealii::TimeStepBase_Tria"* %this, %"class.dealii::TimeStepBase_Tria"** %this.addr, align 8
  call void @llvm.dbg.declare(metadata %"class.dealii::TimeStepBase_Tria"** %this.addr, metadata !11536, metadata !DIExpression()), !dbg !11537
  store i32 %sleep_level, i32* %sleep_level.addr, align 4
  call void @llvm.dbg.declare(metadata i32* %sleep_level.addr, metadata !11538, metadata !DIExpression()), !dbg !11539
  %this1 = load %"class.dealii::TimeStepBase_Tria"*, %"class.dealii::TimeStepBase_Tria"** %this.addr, align 8
  %0 = load i32, i32* %sleep_level.addr, align 4, !dbg !11540
  %flags = getelementptr inbounds %"class.dealii::TimeStepBase_Tria", %"class.dealii::TimeStepBase_Tria"* %this1, i32 0, i32 3, !dbg !11542
  %sleep_level_to_delete_grid = getelementptr inbounds %"struct.dealii::TimeStepBase_Tria_Flags::Flags", %"struct.dealii::TimeStepBase_Tria_Flags::Flags"* %flags, i32 0, i32 2, !dbg !11543
  %1 = load i32, i32* %sleep_level_to_delete_grid, align 8, !dbg !11543
  %cmp = icmp eq i32 %0, %1, !dbg !11544
  br i1 %cmp, label %if.then, label %if.end6, !dbg !11545

if.then:                                          ; preds = %entry
  %flags2 = getelementptr inbounds %"class.dealii::TimeStepBase_Tria", %"class.dealii::TimeStepBase_Tria"* %this1, i32 0, i32 3, !dbg !11546
  %delete_and_rebuild_tria = getelementptr inbounds %"struct.dealii::TimeStepBase_Tria_Flags::Flags", %"struct.dealii::TimeStepBase_Tria_Flags::Flags"* %flags2, i32 0, i32 0, !dbg !11549
  %2 = load i8, i8* %delete_and_rebuild_tria, align 8, !dbg !11549
  %tobool = trunc i8 %2 to i1, !dbg !11549
  br i1 %tobool, label %if.then3, label %if.end, !dbg !11550

if.then3:                                         ; preds = %if.then
  call void @llvm.dbg.declare(metadata %"class.dealii::Triangulation"** %t, metadata !11551, metadata !DIExpression()), !dbg !11553
  %tria = getelementptr inbounds %"class.dealii::TimeStepBase_Tria", %"class.dealii::TimeStepBase_Tria"* %this1, i32 0, i32 1, !dbg !11554
  %call = call %"class.dealii::Triangulation"* @_ZNK6dealii12SmartPointerINS_13TriangulationILi3ELi3EEEEcvPS2_Ev(%"class.dealii::SmartPointer"* %tria), !dbg !11554
  store %"class.dealii::Triangulation"* %call, %"class.dealii::Triangulation"** %t, align 8, !dbg !11553
  %tria4 = getelementptr inbounds %"class.dealii::TimeStepBase_Tria", %"class.dealii::TimeStepBase_Tria"* %this1, i32 0, i32 1, !dbg !11555
  %call5 = call dereferenceable(16) %"class.dealii::SmartPointer"* @_ZN6dealii12SmartPointerINS_13TriangulationILi3ELi3EEEEaSEPS2_(%"class.dealii::SmartPointer"* %tria4, %"class.dealii::Triangulation"* null), !dbg !11556
  %3 = load %"class.dealii::Triangulation"*, %"class.dealii::Triangulation"** %t, align 8, !dbg !11557
  %isnull = icmp eq %"class.dealii::Triangulation"* %3, null, !dbg !11558
  br i1 %isnull, label %delete.end, label %delete.notnull, !dbg !11558

delete.notnull:                                   ; preds = %if.then3
  %4 = bitcast %"class.dealii::Triangulation"* %3 to void (%"class.dealii::Triangulation"*)***, !dbg !11558
  %vtable = load void (%"class.dealii::Triangulation"*)**, void (%"class.dealii::Triangulation"*)*** %4, align 8, !dbg !11558
  %vfn = getelementptr inbounds void (%"class.dealii::Triangulation"*)*, void (%"class.dealii::Triangulation"*)** %vtable, i64 1, !dbg !11558
  %5 = load void (%"class.dealii::Triangulation"*)*, void (%"class.dealii::Triangulation"*)** %vfn, align 8, !dbg !11558
  call void %5(%"class.dealii::Triangulation"* %3) #11, !dbg !11558
  br label %delete.end, !dbg !11558

delete.end:                                       ; preds = %delete.notnull, %if.then3
  br label %if.end, !dbg !11559

if.end:                                           ; preds = %delete.end, %if.then
  br label %if.end6, !dbg !11560

if.end6:                                          ; preds = %if.end, %entry
  %6 = bitcast %"class.dealii::TimeStepBase_Tria"* %this1 to %"class.dealii::TimeStepBase"*, !dbg !11561
  %7 = load i32, i32* %sleep_level.addr, align 4, !dbg !11562
  call void @_ZN6dealii12TimeStepBase5sleepEj(%"class.dealii::TimeStepBase"* %6, i32 %7), !dbg !11561
  ret void, !dbg !11563
}

; Function Attrs: noinline nounwind uwtable
define dso_local void @_ZN6dealii12TimeStepBase5sleepEj(%"class.dealii::TimeStepBase"* %this, i32 %0) unnamed_addr #1 align 2 !dbg !11564 {
entry:
  %this.addr = alloca %"class.dealii::TimeStepBase"*, align 8
  %.addr = alloca i32, align 4
  store %"class.dealii::TimeStepBase"* %this, %"class.dealii::TimeStepBase"** %this.addr, align 8
  call void @llvm.dbg.declare(metadata %"class.dealii::TimeStepBase"** %this.addr, metadata !11565, metadata !DIExpression()), !dbg !11566
  store i32 %0, i32* %.addr, align 4
  call void @llvm.dbg.declare(metadata i32* %.addr, metadata !11567, metadata !DIExpression()), !dbg !11568
  %this1 = load %"class.dealii::TimeStepBase"*, %"class.dealii::TimeStepBase"** %this.addr, align 8
  ret void, !dbg !11569
}

; Function Attrs: noinline uwtable
define weak_odr dso_local void @_ZN6dealii17TimeStepBase_TriaILi3EE11refine_gridENS_23TimeStepBase_Tria_Flags14RefinementDataILi3EEE(%"class.dealii::TimeStepBase_Tria"* %this, double %refinement_data.coerce0, double %refinement_data.coerce1) #0 comdat align 2 personality i8* bitcast (i32 (...)* @__gxx_personality_v0 to i8*) !dbg !11570 {
entry:
  %refinement_data = alloca %"struct.dealii::TimeStepBase_Tria_Flags::RefinementData", align 8
  %this.addr = alloca %"class.dealii::TimeStepBase_Tria"*, align 8
  %criteria = alloca %"class.dealii::Vector", align 8
  %exn.slot = alloca i8*
  %ehselector.slot = alloca i32
  %refinement_threshold = alloca double, align 8
  %coarsening_threshold = alloca double, align 8
  %sorted_criteria = alloca %"class.dealii::Vector", align 8
  %p_refinement_threshold = alloca float*, align 8
  %p_coarsening_threshold = alloca float*, align 8
  %ref.tmp = alloca float, align 4
  %ref.tmp26 = alloca float, align 4
  %n_active_cells = alloca i32, align 4
  %loop = alloca i32, align 4
  %previous_tria = alloca %"class.dealii::Triangulation"*, align 8
  %previous_cells = alloca double, align 8
  %cell = alloca %"class.dealii::TriaActiveIterator", align 8
  %endc = alloca %"class.dealii::TriaActiveIterator", align 8
  %ref.tmp76 = alloca %"class.dealii::TriaActiveIterator", align 8
  %ref.tmp80 = alloca %"class.dealii::TriaRawIterator", align 8
  %ref.tmp88 = alloca %"class.dealii::RefinementCase", align 1
  %estimated_cells = alloca double, align 8
  %ref.tmp107 = alloca %"class.dealii::TriaActiveIterator", align 8
  %ref.tmp114 = alloca %"class.dealii::TriaRawIterator", align 8
  %ref.tmp125 = alloca %"class.dealii::RefinementCase", align 1
  %delta_up = alloca double, align 8
  %delta_down = alloca double, align 8
  %relaxations = alloca %"class.std::vector.20"*, align 8
  %r = alloca i32, align 4
  %delta_cells = alloca double, align 8
  %i = alloca i32, align 4
  %delta_cells213 = alloca double, align 8
  %i224 = alloca i32, align 4
  %ref.tmp259 = alloca %"class.dealii::TriaActiveIterator", align 8
  %ref.tmp266 = alloca %"class.dealii::TriaRawIterator", align 8
  %previous_tria306 = alloca %"class.dealii::Triangulation"*, align 8
  %old_cell = alloca %"class.dealii::TriaIterator", align 8
  %new_cell = alloca %"class.dealii::TriaIterator", align 8
  %endc324 = alloca %"class.dealii::TriaIterator", align 8
  %ref.tmp326 = alloca %"class.dealii::TriaIterator", align 8
  %ref.tmp330 = alloca %"class.dealii::TriaIterator", align 8
  %ref.tmp337 = alloca %"class.dealii::TriaIterator", align 8
  %0 = bitcast %"struct.dealii::TimeStepBase_Tria_Flags::RefinementData"* %refinement_data to { double, double }*
  %1 = getelementptr inbounds { double, double }, { double, double }* %0, i32 0, i32 0
  store double %refinement_data.coerce0, double* %1, align 8
  %2 = getelementptr inbounds { double, double }, { double, double }* %0, i32 0, i32 1
  store double %refinement_data.coerce1, double* %2, align 8
  store %"class.dealii::TimeStepBase_Tria"* %this, %"class.dealii::TimeStepBase_Tria"** %this.addr, align 8
  call void @llvm.dbg.declare(metadata %"class.dealii::TimeStepBase_Tria"** %this.addr, metadata !11571, metadata !DIExpression()), !dbg !11572
  call void @llvm.dbg.declare(metadata %"struct.dealii::TimeStepBase_Tria_Flags::RefinementData"* %refinement_data, metadata !11573, metadata !DIExpression()), !dbg !11574
  %this1 = load %"class.dealii::TimeStepBase_Tria"*, %"class.dealii::TimeStepBase_Tria"** %this.addr, align 8
  call void @llvm.dbg.declare(metadata %"class.dealii::Vector"* %criteria, metadata !11575, metadata !DIExpression()), !dbg !11576
  call void @_ZN6dealii6VectorIfEC2Ev(%"class.dealii::Vector"* %criteria), !dbg !11576
  %3 = bitcast %"class.dealii::TimeStepBase_Tria"* %this1 to void (%"class.dealii::TimeStepBase_Tria"*, %"class.dealii::Vector"*)***, !dbg !11577
  %vtable = load void (%"class.dealii::TimeStepBase_Tria"*, %"class.dealii::Vector"*)**, void (%"class.dealii::TimeStepBase_Tria"*, %"class.dealii::Vector"*)*** %3, align 8, !dbg !11577
  %vfn = getelementptr inbounds void (%"class.dealii::TimeStepBase_Tria"*, %"class.dealii::Vector"*)*, void (%"class.dealii::TimeStepBase_Tria"*, %"class.dealii::Vector"*)** %vtable, i64 14, !dbg !11577
  %4 = load void (%"class.dealii::TimeStepBase_Tria"*, %"class.dealii::Vector"*)*, void (%"class.dealii::TimeStepBase_Tria"*, %"class.dealii::Vector"*)** %vfn, align 8, !dbg !11577
  invoke void %4(%"class.dealii::TimeStepBase_Tria"* %this1, %"class.dealii::Vector"* dereferenceable(88) %criteria)
          to label %invoke.cont unwind label %lpad, !dbg !11577

invoke.cont:                                      ; preds = %entry
  call void @llvm.dbg.declare(metadata double* %refinement_threshold, metadata !11578, metadata !DIExpression()), !dbg !11579
  %refinement_threshold2 = getelementptr inbounds %"struct.dealii::TimeStepBase_Tria_Flags::RefinementData", %"struct.dealii::TimeStepBase_Tria_Flags::RefinementData"* %refinement_data, i32 0, i32 0, !dbg !11580
  %5 = load double, double* %refinement_threshold2, align 8, !dbg !11580
  store double %5, double* %refinement_threshold, align 8, !dbg !11579
  call void @llvm.dbg.declare(metadata double* %coarsening_threshold, metadata !11581, metadata !DIExpression()), !dbg !11582
  %coarsening_threshold3 = getelementptr inbounds %"struct.dealii::TimeStepBase_Tria_Flags::RefinementData", %"struct.dealii::TimeStepBase_Tria_Flags::RefinementData"* %refinement_data, i32 0, i32 1, !dbg !11583
  %6 = load double, double* %coarsening_threshold3, align 8, !dbg !11583
  store double %6, double* %coarsening_threshold, align 8, !dbg !11582
  call void @llvm.dbg.declare(metadata %"class.dealii::Vector"* %sorted_criteria, metadata !11584, metadata !DIExpression()), !dbg !11585
  invoke void @_ZN6dealii6VectorIfEC2Ev(%"class.dealii::Vector"* %sorted_criteria)
          to label %invoke.cont4 unwind label %lpad, !dbg !11585

invoke.cont4:                                     ; preds = %invoke.cont
  call void @llvm.dbg.declare(metadata float** %p_refinement_threshold, metadata !11586, metadata !DIExpression()), !dbg !11587
  store float* null, float** %p_refinement_threshold, align 8, !dbg !11587
  call void @llvm.dbg.declare(metadata float** %p_coarsening_threshold, metadata !11588, metadata !DIExpression()), !dbg !11589
  store float* null, float** %p_coarsening_threshold, align 8, !dbg !11589
  %7 = bitcast %"class.dealii::TimeStepBase_Tria"* %this1 to %"class.dealii::TimeStepBase"*, !dbg !11590
  %timestep_no = getelementptr inbounds %"class.dealii::TimeStepBase", %"class.dealii::TimeStepBase"* %7, i32 0, i32 4, !dbg !11590
  %8 = load i32, i32* %timestep_no, align 4, !dbg !11590
  %cmp = icmp ne i32 %8, 0, !dbg !11592
  br i1 %cmp, label %land.lhs.true, label %if.end, !dbg !11593

land.lhs.true:                                    ; preds = %invoke.cont4
  %9 = bitcast %"class.dealii::TimeStepBase_Tria"* %this1 to %"class.dealii::TimeStepBase"*, !dbg !11594
  %sweep_no = getelementptr inbounds %"class.dealii::TimeStepBase", %"class.dealii::TimeStepBase"* %9, i32 0, i32 3, !dbg !11594
  %10 = load i32, i32* %sweep_no, align 8, !dbg !11594
  %refinement_flags = getelementptr inbounds %"class.dealii::TimeStepBase_Tria", %"class.dealii::TimeStepBase_Tria"* %this1, i32 0, i32 5, !dbg !11595
  %first_sweep_with_correction = getelementptr inbounds %"struct.dealii::TimeStepBase_Tria_Flags::RefinementFlags", %"struct.dealii::TimeStepBase_Tria_Flags::RefinementFlags"* %refinement_flags, i32 0, i32 1, !dbg !11596
  %11 = load i32, i32* %first_sweep_with_correction, align 4, !dbg !11596
  %cmp5 = icmp uge i32 %10, %11, !dbg !11597
  br i1 %cmp5, label %land.lhs.true6, label %if.end, !dbg !11598

land.lhs.true6:                                   ; preds = %land.lhs.true
  %refinement_flags7 = getelementptr inbounds %"class.dealii::TimeStepBase_Tria", %"class.dealii::TimeStepBase_Tria"* %this1, i32 0, i32 5, !dbg !11599
  %cell_number_correction_steps = getelementptr inbounds %"struct.dealii::TimeStepBase_Tria_Flags::RefinementFlags", %"struct.dealii::TimeStepBase_Tria_Flags::RefinementFlags"* %refinement_flags7, i32 0, i32 7, !dbg !11600
  %12 = load i32, i32* %cell_number_correction_steps, align 8, !dbg !11600
  %cmp8 = icmp ugt i32 %12, 0, !dbg !11601
  br i1 %cmp8, label %if.then, label %if.end, !dbg !11602

if.then:                                          ; preds = %land.lhs.true6
  %call = invoke dereferenceable(88) %"class.dealii::Vector"* @_ZN6dealii6VectorIfEaSERKS1_(%"class.dealii::Vector"* %sorted_criteria, %"class.dealii::Vector"* dereferenceable(88) %criteria)
          to label %invoke.cont10 unwind label %lpad9, !dbg !11603

invoke.cont10:                                    ; preds = %if.then
  %call12 = invoke float* @_ZN6dealii6VectorIfE5beginEv(%"class.dealii::Vector"* %sorted_criteria)
          to label %invoke.cont11 unwind label %lpad9, !dbg !11605

invoke.cont11:                                    ; preds = %invoke.cont10
  %call14 = invoke float* @_ZN6dealii6VectorIfE3endEv(%"class.dealii::Vector"* %sorted_criteria)
          to label %invoke.cont13 unwind label %lpad9, !dbg !11606

invoke.cont13:                                    ; preds = %invoke.cont11
  invoke void @_ZSt4sortIPfEvT_S1_(float* %call12, float* %call14)
          to label %invoke.cont15 unwind label %lpad9, !dbg !11607

invoke.cont15:                                    ; preds = %invoke.cont13
  %call17 = invoke float* @_ZN6dealii6VectorIfE5beginEv(%"class.dealii::Vector"* %sorted_criteria)
          to label %invoke.cont16 unwind label %lpad9, !dbg !11608

invoke.cont16:                                    ; preds = %invoke.cont15
  %call19 = invoke float* @_ZN6dealii6VectorIfE3endEv(%"class.dealii::Vector"* %sorted_criteria)
          to label %invoke.cont18 unwind label %lpad9, !dbg !11609

invoke.cont18:                                    ; preds = %invoke.cont16
  %13 = load double, double* %refinement_threshold, align 8, !dbg !11610
  %conv = fptrunc double %13 to float, !dbg !11610
  store float %conv, float* %ref.tmp, align 4, !dbg !11611
  %call21 = invoke float* @_ZSt11lower_boundIPffET_S1_S1_RKT0_(float* %call17, float* %call19, float* dereferenceable(4) %ref.tmp)
          to label %invoke.cont20 unwind label %lpad9, !dbg !11612

invoke.cont20:                                    ; preds = %invoke.cont18
  store float* %call21, float** %p_refinement_threshold, align 8, !dbg !11613
  %call23 = invoke float* @_ZN6dealii6VectorIfE5beginEv(%"class.dealii::Vector"* %sorted_criteria)
          to label %invoke.cont22 unwind label %lpad9, !dbg !11614

invoke.cont22:                                    ; preds = %invoke.cont20
  %call25 = invoke float* @_ZN6dealii6VectorIfE3endEv(%"class.dealii::Vector"* %sorted_criteria)
          to label %invoke.cont24 unwind label %lpad9, !dbg !11615

invoke.cont24:                                    ; preds = %invoke.cont22
  %14 = load double, double* %coarsening_threshold, align 8, !dbg !11616
  %conv27 = fptrunc double %14 to float, !dbg !11616
  store float %conv27, float* %ref.tmp26, align 4, !dbg !11617
  %call29 = invoke float* @_ZSt11upper_boundIPffET_S1_S1_RKT0_(float* %call23, float* %call25, float* dereferenceable(4) %ref.tmp26)
          to label %invoke.cont28 unwind label %lpad9, !dbg !11618

invoke.cont28:                                    ; preds = %invoke.cont24
  store float* %call29, float** %p_coarsening_threshold, align 8, !dbg !11619
  br label %if.end, !dbg !11620

lpad:                                             ; preds = %invoke.cont, %entry
  %15 = landingpad { i8*, i32 }
          cleanup, !dbg !11621
  %16 = extractvalue { i8*, i32 } %15, 0, !dbg !11621
  store i8* %16, i8** %exn.slot, align 8, !dbg !11621
  %17 = extractvalue { i8*, i32 } %15, 1, !dbg !11621
  store i32 %17, i32* %ehselector.slot, align 4, !dbg !11621
  br label %ehcleanup, !dbg !11621

lpad9:                                            ; preds = %invoke.cont364, %invoke.cont361, %invoke.cont359, %invoke.cont357, %if.end355, %invoke.cont350, %for.inc349, %for.body347, %for.cond344, %invoke.cont341, %invoke.cont339, %invoke.cont335, %invoke.cont334, %invoke.cont332, %invoke.cont328, %invoke.cont327, %invoke.cont325, %invoke.cont323, %invoke.cont322, %invoke.cont320, %invoke.cont318, %if.then316, %dynamic_cast.end310, %invoke.cont292, %invoke.cont290, %invoke.cont288, %for.end286, %for.inc283, %invoke.cont280, %invoke.cont279, %invoke.cont277, %for.body276, %for.cond273, %invoke.cont270, %invoke.cont268, %invoke.cont264, %invoke.cont263, %invoke.cont261, %if.end258, %if.end246, %if.else231, %for.body196, %for.inc145, %invoke.cont137, %if.else136, %invoke.cont128, %invoke.cont126, %for.body124, %for.cond121, %invoke.cont118, %invoke.cont116, %invoke.cont112, %invoke.cont111, %invoke.cont109, %for.end, %for.inc, %invoke.cont97, %if.else, %invoke.cont91, %invoke.cont89, %for.body87, %for.cond84, %invoke.cont81, %invoke.cont78, %invoke.cont77, %invoke.cont75, %invoke.cont74, %invoke.cont71, %invoke.cont69, %invoke.cont67, %invoke.cont65, %if.end63, %invoke.cont59, %if.then57, %dynamic_cast.end, %invoke.cont38, %invoke.cont36, %invoke.cont34, %invoke.cont32, %invoke.cont30, %if.end, %invoke.cont24, %invoke.cont22, %invoke.cont20, %invoke.cont18, %invoke.cont16, %invoke.cont15, %invoke.cont13, %invoke.cont11, %invoke.cont10, %if.then
  %18 = landingpad { i8*, i32 }
          cleanup, !dbg !11622
  %19 = extractvalue { i8*, i32 } %18, 0, !dbg !11622
  store i8* %19, i8** %exn.slot, align 8, !dbg !11622
  %20 = extractvalue { i8*, i32 } %18, 1, !dbg !11622
  store i32 %20, i32* %ehselector.slot, align 4, !dbg !11622
  call void @_ZN6dealii6VectorIfED2Ev(%"class.dealii::Vector"* %sorted_criteria) #11, !dbg !11621
  br label %ehcleanup, !dbg !11621

if.end:                                           ; preds = %invoke.cont28, %land.lhs.true6, %land.lhs.true, %invoke.cont4
  %tria = getelementptr inbounds %"class.dealii::TimeStepBase_Tria", %"class.dealii::TimeStepBase_Tria"* %this1, i32 0, i32 1, !dbg !11623
  %call31 = invoke dereferenceable(8552) %"class.dealii::Triangulation"* @_ZNK6dealii12SmartPointerINS_13TriangulationILi3ELi3EEEEdeEv(%"class.dealii::SmartPointer"* %tria)
          to label %invoke.cont30 unwind label %lpad9, !dbg !11624

invoke.cont30:                                    ; preds = %if.end
  %21 = load double, double* %refinement_threshold, align 8, !dbg !11625
  invoke void @_ZN6dealii14GridRefinement6refineILi3ENS_6VectorIfEELi3EEEvRNS_13TriangulationIXT_EXT1_EEERKT0_d(%"class.dealii::Triangulation"* dereferenceable(8552) %call31, %"class.dealii::Vector"* dereferenceable(88) %criteria, double %21)
          to label %invoke.cont32 unwind label %lpad9, !dbg !11626

invoke.cont32:                                    ; preds = %invoke.cont30
  %tria33 = getelementptr inbounds %"class.dealii::TimeStepBase_Tria", %"class.dealii::TimeStepBase_Tria"* %this1, i32 0, i32 1, !dbg !11627
  %call35 = invoke dereferenceable(8552) %"class.dealii::Triangulation"* @_ZNK6dealii12SmartPointerINS_13TriangulationILi3ELi3EEEEdeEv(%"class.dealii::SmartPointer"* %tria33)
          to label %invoke.cont34 unwind label %lpad9, !dbg !11628

invoke.cont34:                                    ; preds = %invoke.cont32
  %22 = load double, double* %coarsening_threshold, align 8, !dbg !11629
  invoke void @_ZN6dealii14GridRefinement7coarsenILi3ENS_6VectorIfEELi3EEEvRNS_13TriangulationIXT_EXT1_EEERKT0_d(%"class.dealii::Triangulation"* dereferenceable(8552) %call35, %"class.dealii::Vector"* dereferenceable(88) %criteria, double %22)
          to label %invoke.cont36 unwind label %lpad9, !dbg !11630

invoke.cont36:                                    ; preds = %invoke.cont34
  call void @llvm.dbg.declare(metadata i32* %n_active_cells, metadata !11631, metadata !DIExpression()), !dbg !11632
  %tria37 = getelementptr inbounds %"class.dealii::TimeStepBase_Tria", %"class.dealii::TimeStepBase_Tria"* %this1, i32 0, i32 1, !dbg !11633
  %call39 = invoke %"class.dealii::Triangulation"* @_ZNK6dealii12SmartPointerINS_13TriangulationILi3ELi3EEEEptEv(%"class.dealii::SmartPointer"* %tria37)
          to label %invoke.cont38 unwind label %lpad9, !dbg !11633

invoke.cont38:                                    ; preds = %invoke.cont36
  %call41 = invoke i32 @_ZNK6dealii13TriangulationILi3ELi3EE14n_active_cellsEv(%"class.dealii::Triangulation"* %call39)
          to label %invoke.cont40 unwind label %lpad9, !dbg !11634

invoke.cont40:                                    ; preds = %invoke.cont38
  store i32 %call41, i32* %n_active_cells, align 4, !dbg !11632
  %23 = bitcast %"class.dealii::TimeStepBase_Tria"* %this1 to %"class.dealii::TimeStepBase"*, !dbg !11635
  %timestep_no42 = getelementptr inbounds %"class.dealii::TimeStepBase", %"class.dealii::TimeStepBase"* %23, i32 0, i32 4, !dbg !11635
  %24 = load i32, i32* %timestep_no42, align 4, !dbg !11635
  %cmp43 = icmp ne i32 %24, 0, !dbg !11637
  br i1 %cmp43, label %land.lhs.true44, label %if.end298, !dbg !11638

land.lhs.true44:                                  ; preds = %invoke.cont40
  %25 = bitcast %"class.dealii::TimeStepBase_Tria"* %this1 to %"class.dealii::TimeStepBase"*, !dbg !11639
  %sweep_no45 = getelementptr inbounds %"class.dealii::TimeStepBase", %"class.dealii::TimeStepBase"* %25, i32 0, i32 3, !dbg !11639
  %26 = load i32, i32* %sweep_no45, align 8, !dbg !11639
  %refinement_flags46 = getelementptr inbounds %"class.dealii::TimeStepBase_Tria", %"class.dealii::TimeStepBase_Tria"* %this1, i32 0, i32 5, !dbg !11640
  %first_sweep_with_correction47 = getelementptr inbounds %"struct.dealii::TimeStepBase_Tria_Flags::RefinementFlags", %"struct.dealii::TimeStepBase_Tria_Flags::RefinementFlags"* %refinement_flags46, i32 0, i32 1, !dbg !11641
  %27 = load i32, i32* %first_sweep_with_correction47, align 4, !dbg !11641
  %cmp48 = icmp uge i32 %26, %27, !dbg !11642
  br i1 %cmp48, label %if.then49, label %if.end298, !dbg !11643

if.then49:                                        ; preds = %land.lhs.true44
  call void @llvm.dbg.declare(metadata i32* %loop, metadata !11644, metadata !DIExpression()), !dbg !11646
  store i32 0, i32* %loop, align 4, !dbg !11646
  br label %for.cond, !dbg !11647

for.cond:                                         ; preds = %for.inc295, %if.then49
  %28 = load i32, i32* %loop, align 4, !dbg !11648
  %refinement_flags50 = getelementptr inbounds %"class.dealii::TimeStepBase_Tria", %"class.dealii::TimeStepBase_Tria"* %this1, i32 0, i32 5, !dbg !11650
  %cell_number_correction_steps51 = getelementptr inbounds %"struct.dealii::TimeStepBase_Tria_Flags::RefinementFlags", %"struct.dealii::TimeStepBase_Tria_Flags::RefinementFlags"* %refinement_flags50, i32 0, i32 7, !dbg !11651
  %29 = load i32, i32* %cell_number_correction_steps51, align 8, !dbg !11651
  %cmp52 = icmp ult i32 %28, %29, !dbg !11652
  br i1 %cmp52, label %for.body, label %for.end297, !dbg !11653

for.body:                                         ; preds = %for.cond
  call void @llvm.dbg.declare(metadata %"class.dealii::Triangulation"** %previous_tria, metadata !11654, metadata !DIExpression()), !dbg !11656
  %30 = bitcast %"class.dealii::TimeStepBase_Tria"* %this1 to %"class.dealii::TimeStepBase"*, !dbg !11657
  %previous_timestep = getelementptr inbounds %"class.dealii::TimeStepBase", %"class.dealii::TimeStepBase"* %30, i32 0, i32 1, !dbg !11657
  %31 = load %"class.dealii::TimeStepBase"*, %"class.dealii::TimeStepBase"** %previous_timestep, align 8, !dbg !11657
  %32 = icmp eq %"class.dealii::TimeStepBase"* %31, null, !dbg !11658
  br i1 %32, label %dynamic_cast.null, label %dynamic_cast.notnull, !dbg !11658

dynamic_cast.notnull:                             ; preds = %for.body
  %33 = bitcast %"class.dealii::TimeStepBase"* %31 to i8*, !dbg !11658
  %34 = call i8* @__dynamic_cast(i8* %33, i8* bitcast ({ i8*, i8*, i8* }* @_ZTIN6dealii12TimeStepBaseE to i8*), i8* bitcast ({ i8*, i8*, i8* }* @_ZTIN6dealii17TimeStepBase_TriaILi3EEE to i8*), i64 0) #11, !dbg !11658
  %35 = bitcast i8* %34 to %"class.dealii::TimeStepBase_Tria"*, !dbg !11658
  br label %dynamic_cast.end, !dbg !11658

dynamic_cast.null:                                ; preds = %for.body
  br label %dynamic_cast.end, !dbg !11658

dynamic_cast.end:                                 ; preds = %dynamic_cast.null, %dynamic_cast.notnull
  %36 = phi %"class.dealii::TimeStepBase_Tria"* [ %35, %dynamic_cast.notnull ], [ null, %dynamic_cast.null ], !dbg !11658
  %tria53 = getelementptr inbounds %"class.dealii::TimeStepBase_Tria", %"class.dealii::TimeStepBase_Tria"* %36, i32 0, i32 1, !dbg !11659
  %call55 = invoke %"class.dealii::Triangulation"* @_ZNK6dealii12SmartPointerINS_13TriangulationILi3ELi3EEEEcvPS2_Ev(%"class.dealii::SmartPointer"* %tria53)
          to label %invoke.cont54 unwind label %lpad9, !dbg !11658

invoke.cont54:                                    ; preds = %dynamic_cast.end
  store %"class.dealii::Triangulation"* %call55, %"class.dealii::Triangulation"** %previous_tria, align 8, !dbg !11656
  %refinement_flags56 = getelementptr inbounds %"class.dealii::TimeStepBase_Tria", %"class.dealii::TimeStepBase_Tria"* %this1, i32 0, i32 5, !dbg !11660
  %adapt_grids = getelementptr inbounds %"struct.dealii::TimeStepBase_Tria_Flags::RefinementFlags", %"struct.dealii::TimeStepBase_Tria_Flags::RefinementFlags"* %refinement_flags56, i32 0, i32 9, !dbg !11662
  %37 = load i8, i8* %adapt_grids, align 1, !dbg !11662
  %tobool = trunc i8 %37 to i1, !dbg !11662
  br i1 %tobool, label %if.then57, label %if.end63, !dbg !11663

if.then57:                                        ; preds = %invoke.cont54
  %38 = load %"class.dealii::Triangulation"*, %"class.dealii::Triangulation"** %previous_tria, align 8, !dbg !11664
  %tria58 = getelementptr inbounds %"class.dealii::TimeStepBase_Tria", %"class.dealii::TimeStepBase_Tria"* %this1, i32 0, i32 1, !dbg !11665
  %call60 = invoke dereferenceable(8552) %"class.dealii::Triangulation"* @_ZNK6dealii12SmartPointerINS_13TriangulationILi3ELi3EEEEdeEv(%"class.dealii::SmartPointer"* %tria58)
          to label %invoke.cont59 unwind label %lpad9, !dbg !11666

invoke.cont59:                                    ; preds = %if.then57
  %call62 = invoke zeroext i1 @_ZN6dealii12_GLOBAL__N_111adapt_gridsILi3EEEbRNS_13TriangulationIXT_EXT_EEES4_(%"class.dealii::Triangulation"* dereferenceable(8552) %38, %"class.dealii::Triangulation"* dereferenceable(8552) %call60)
          to label %invoke.cont61 unwind label %lpad9, !dbg !11667

invoke.cont61:                                    ; preds = %invoke.cont59
  br label %if.end63, !dbg !11667

if.end63:                                         ; preds = %invoke.cont61, %invoke.cont54
  %tria64 = getelementptr inbounds %"class.dealii::TimeStepBase_Tria", %"class.dealii::TimeStepBase_Tria"* %this1, i32 0, i32 1, !dbg !11668
  %call66 = invoke %"class.dealii::Triangulation"* @_ZNK6dealii12SmartPointerINS_13TriangulationILi3ELi3EEEEptEv(%"class.dealii::SmartPointer"* %tria64)
          to label %invoke.cont65 unwind label %lpad9, !dbg !11668

invoke.cont65:                                    ; preds = %if.end63
  %call68 = invoke zeroext i1 @_ZN6dealii13TriangulationILi3ELi3EE33prepare_coarsening_and_refinementEv(%"class.dealii::Triangulation"* %call66)
          to label %invoke.cont67 unwind label %lpad9, !dbg !11669

invoke.cont67:                                    ; preds = %invoke.cont65
  %39 = load %"class.dealii::Triangulation"*, %"class.dealii::Triangulation"** %previous_tria, align 8, !dbg !11670
  %call70 = invoke zeroext i1 @_ZN6dealii13TriangulationILi3ELi3EE33prepare_coarsening_and_refinementEv(%"class.dealii::Triangulation"* %39)
          to label %invoke.cont69 unwind label %lpad9, !dbg !11671

invoke.cont69:                                    ; preds = %invoke.cont67
  call void @llvm.dbg.declare(metadata double* %previous_cells, metadata !11672, metadata !DIExpression()), !dbg !11673
  %40 = load %"class.dealii::Triangulation"*, %"class.dealii::Triangulation"** %previous_tria, align 8, !dbg !11674
  %call72 = invoke i32 @_ZNK6dealii13TriangulationILi3ELi3EE14n_active_cellsEv(%"class.dealii::Triangulation"* %40)
          to label %invoke.cont71 unwind label %lpad9, !dbg !11675

invoke.cont71:                                    ; preds = %invoke.cont69
  %conv73 = uitofp i32 %call72 to double, !dbg !11674
  store double %conv73, double* %previous_cells, align 8, !dbg !11673
  call void @llvm.dbg.declare(metadata %"class.dealii::TriaActiveIterator"* %cell, metadata !11676, metadata !DIExpression()), !dbg !11719
  invoke void @_ZN6dealii18TriaActiveIteratorINS_12CellAccessorILi3ELi3EEEEC2Ev(%"class.dealii::TriaActiveIterator"* %cell)
          to label %invoke.cont74 unwind label %lpad9, !dbg !11719

invoke.cont74:                                    ; preds = %invoke.cont71
  call void @llvm.dbg.declare(metadata %"class.dealii::TriaActiveIterator"* %endc, metadata !11720, metadata !DIExpression()), !dbg !11721
  invoke void @_ZN6dealii18TriaActiveIteratorINS_12CellAccessorILi3ELi3EEEEC2Ev(%"class.dealii::TriaActiveIterator"* %endc)
          to label %invoke.cont75 unwind label %lpad9, !dbg !11721

invoke.cont75:                                    ; preds = %invoke.cont74
  %41 = load %"class.dealii::Triangulation"*, %"class.dealii::Triangulation"** %previous_tria, align 8, !dbg !11722
  invoke void @_ZNK6dealii13TriangulationILi3ELi3EE12begin_activeEj(%"class.dealii::TriaActiveIterator"* sret %ref.tmp76, %"class.dealii::Triangulation"* %41, i32 0)
          to label %invoke.cont77 unwind label %lpad9, !dbg !11723

invoke.cont77:                                    ; preds = %invoke.cont75
  %call79 = invoke dereferenceable(16) %"class.dealii::TriaActiveIterator"* @_ZN6dealii18TriaActiveIteratorINS_12CellAccessorILi3ELi3EEEEaSERKS3_(%"class.dealii::TriaActiveIterator"* %cell, %"class.dealii::TriaActiveIterator"* dereferenceable(16) %ref.tmp76)
          to label %invoke.cont78 unwind label %lpad9, !dbg !11724

invoke.cont78:                                    ; preds = %invoke.cont77
  %42 = load %"class.dealii::Triangulation"*, %"class.dealii::Triangulation"** %previous_tria, align 8, !dbg !11725
  invoke void @_ZNK6dealii13TriangulationILi3ELi3EE3endEv(%"class.dealii::TriaRawIterator"* sret %ref.tmp80, %"class.dealii::Triangulation"* %42)
          to label %invoke.cont81 unwind label %lpad9, !dbg !11726

invoke.cont81:                                    ; preds = %invoke.cont78
  %call83 = invoke dereferenceable(16) %"class.dealii::TriaActiveIterator"* @_ZN6dealii18TriaActiveIteratorINS_12CellAccessorILi3ELi3EEEEaSERKNS_15TriaRawIteratorIS2_EE(%"class.dealii::TriaActiveIterator"* %endc, %"class.dealii::TriaRawIterator"* dereferenceable(16) %ref.tmp80)
          to label %invoke.cont82 unwind label %lpad9, !dbg !11727

invoke.cont82:                                    ; preds = %invoke.cont81
  br label %for.cond84, !dbg !11728

for.cond84:                                       ; preds = %invoke.cont104, %invoke.cont82
  %43 = bitcast %"class.dealii::TriaActiveIterator"* %cell to %"class.dealii::TriaRawIterator"*, !dbg !11729
  %44 = bitcast %"class.dealii::TriaActiveIterator"* %endc to %"class.dealii::TriaRawIterator"*, !dbg !11732
  %call86 = invoke zeroext i1 @_ZNK6dealii15TriaRawIteratorINS_12CellAccessorILi3ELi3EEEEneERKS3_(%"class.dealii::TriaRawIterator"* %43, %"class.dealii::TriaRawIterator"* dereferenceable(16) %44)
          to label %invoke.cont85 unwind label %lpad9, !dbg !11733

invoke.cont85:                                    ; preds = %for.cond84
  br i1 %call86, label %for.body87, label %for.end, !dbg !11734

for.body87:                                       ; preds = %invoke.cont85
  %45 = bitcast %"class.dealii::TriaActiveIterator"* %cell to %"class.dealii::TriaRawIterator"*, !dbg !11735
  %call90 = invoke %"class.dealii::CellAccessor"* @_ZN6dealii15TriaRawIteratorINS_12CellAccessorILi3ELi3EEEEptEv(%"class.dealii::TriaRawIterator"* %45)
          to label %invoke.cont89 unwind label %lpad9, !dbg !11735

invoke.cont89:                                    ; preds = %for.body87
  %call92 = invoke i8 @_ZNK6dealii12CellAccessorILi3ELi3EE15refine_flag_setEv(%"class.dealii::CellAccessor"* %call90)
          to label %invoke.cont91 unwind label %lpad9, !dbg !11737

invoke.cont91:                                    ; preds = %invoke.cont89
  %coerce.dive = getelementptr inbounds %"class.dealii::RefinementCase", %"class.dealii::RefinementCase"* %ref.tmp88, i32 0, i32 0, !dbg !11737
  store i8 %call92, i8* %coerce.dive, align 1, !dbg !11737
  %call94 = invoke zeroext i8 @_ZNK6dealii14RefinementCaseILi3EEcvhEv(%"class.dealii::RefinementCase"* %ref.tmp88)
          to label %invoke.cont93 unwind label %lpad9, !dbg !11735

invoke.cont93:                                    ; preds = %invoke.cont91
  %tobool95 = icmp ne i8 %call94, 0, !dbg !11735
  br i1 %tobool95, label %if.then96, label %if.else, !dbg !11738

if.then96:                                        ; preds = %invoke.cont93
  %46 = load double, double* %previous_cells, align 8, !dbg !11739
  %add = fadd double %46, 7.000000e+00, !dbg !11739
  store double %add, double* %previous_cells, align 8, !dbg !11739
  br label %if.end103, !dbg !11740

if.else:                                          ; preds = %invoke.cont93
  %47 = bitcast %"class.dealii::TriaActiveIterator"* %cell to %"class.dealii::TriaRawIterator"*, !dbg !11741
  %call98 = invoke %"class.dealii::CellAccessor"* @_ZN6dealii15TriaRawIteratorINS_12CellAccessorILi3ELi3EEEEptEv(%"class.dealii::TriaRawIterator"* %47)
          to label %invoke.cont97 unwind label %lpad9, !dbg !11741

invoke.cont97:                                    ; preds = %if.else
  %call100 = invoke zeroext i1 @_ZNK6dealii12CellAccessorILi3ELi3EE16coarsen_flag_setEv(%"class.dealii::CellAccessor"* %call98)
          to label %invoke.cont99 unwind label %lpad9, !dbg !11743

invoke.cont99:                                    ; preds = %invoke.cont97
  br i1 %call100, label %if.then101, label %if.end102, !dbg !11744

if.then101:                                       ; preds = %invoke.cont99
  %48 = load double, double* %previous_cells, align 8, !dbg !11745
  %sub = fsub double %48, 0.000000e+00, !dbg !11745
  store double %sub, double* %previous_cells, align 8, !dbg !11745
  br label %if.end102, !dbg !11746

if.end102:                                        ; preds = %if.then101, %invoke.cont99
  br label %if.end103

if.end103:                                        ; preds = %if.end102, %if.then96
  br label %for.inc, !dbg !11747

for.inc:                                          ; preds = %if.end103
  %call105 = invoke dereferenceable(16) %"class.dealii::TriaActiveIterator"* @_ZN6dealii18TriaActiveIteratorINS_12CellAccessorILi3ELi3EEEEppEv(%"class.dealii::TriaActiveIterator"* %cell)
          to label %invoke.cont104 unwind label %lpad9, !dbg !11748

invoke.cont104:                                   ; preds = %for.inc
  br label %for.cond84, !dbg !11749, !llvm.loop !11750

for.end:                                          ; preds = %invoke.cont85
  call void @llvm.dbg.declare(metadata double* %estimated_cells, metadata !11752, metadata !DIExpression()), !dbg !11753
  %49 = load i32, i32* %n_active_cells, align 4, !dbg !11754
  %conv106 = uitofp i32 %49 to double, !dbg !11754
  store double %conv106, double* %estimated_cells, align 8, !dbg !11753
  %tria108 = getelementptr inbounds %"class.dealii::TimeStepBase_Tria", %"class.dealii::TimeStepBase_Tria"* %this1, i32 0, i32 1, !dbg !11755
  %call110 = invoke %"class.dealii::Triangulation"* @_ZNK6dealii12SmartPointerINS_13TriangulationILi3ELi3EEEEptEv(%"class.dealii::SmartPointer"* %tria108)
          to label %invoke.cont109 unwind label %lpad9, !dbg !11755

invoke.cont109:                                   ; preds = %for.end
  invoke void @_ZNK6dealii13TriangulationILi3ELi3EE12begin_activeEj(%"class.dealii::TriaActiveIterator"* sret %ref.tmp107, %"class.dealii::Triangulation"* %call110, i32 0)
          to label %invoke.cont111 unwind label %lpad9, !dbg !11756

invoke.cont111:                                   ; preds = %invoke.cont109
  %call113 = invoke dereferenceable(16) %"class.dealii::TriaActiveIterator"* @_ZN6dealii18TriaActiveIteratorINS_12CellAccessorILi3ELi3EEEEaSERKS3_(%"class.dealii::TriaActiveIterator"* %cell, %"class.dealii::TriaActiveIterator"* dereferenceable(16) %ref.tmp107)
          to label %invoke.cont112 unwind label %lpad9, !dbg !11757

invoke.cont112:                                   ; preds = %invoke.cont111
  %tria115 = getelementptr inbounds %"class.dealii::TimeStepBase_Tria", %"class.dealii::TimeStepBase_Tria"* %this1, i32 0, i32 1, !dbg !11758
  %call117 = invoke %"class.dealii::Triangulation"* @_ZNK6dealii12SmartPointerINS_13TriangulationILi3ELi3EEEEptEv(%"class.dealii::SmartPointer"* %tria115)
          to label %invoke.cont116 unwind label %lpad9, !dbg !11758

invoke.cont116:                                   ; preds = %invoke.cont112
  invoke void @_ZNK6dealii13TriangulationILi3ELi3EE3endEv(%"class.dealii::TriaRawIterator"* sret %ref.tmp114, %"class.dealii::Triangulation"* %call117)
          to label %invoke.cont118 unwind label %lpad9, !dbg !11759

invoke.cont118:                                   ; preds = %invoke.cont116
  %call120 = invoke dereferenceable(16) %"class.dealii::TriaActiveIterator"* @_ZN6dealii18TriaActiveIteratorINS_12CellAccessorILi3ELi3EEEEaSERKNS_15TriaRawIteratorIS2_EE(%"class.dealii::TriaActiveIterator"* %endc, %"class.dealii::TriaRawIterator"* dereferenceable(16) %ref.tmp114)
          to label %invoke.cont119 unwind label %lpad9, !dbg !11760

invoke.cont119:                                   ; preds = %invoke.cont118
  br label %for.cond121, !dbg !11761

for.cond121:                                      ; preds = %invoke.cont146, %invoke.cont119
  %50 = bitcast %"class.dealii::TriaActiveIterator"* %cell to %"class.dealii::TriaRawIterator"*, !dbg !11762
  %51 = bitcast %"class.dealii::TriaActiveIterator"* %endc to %"class.dealii::TriaRawIterator"*, !dbg !11765
  %call123 = invoke zeroext i1 @_ZNK6dealii15TriaRawIteratorINS_12CellAccessorILi3ELi3EEEEneERKS3_(%"class.dealii::TriaRawIterator"* %50, %"class.dealii::TriaRawIterator"* dereferenceable(16) %51)
          to label %invoke.cont122 unwind label %lpad9, !dbg !11766

invoke.cont122:                                   ; preds = %for.cond121
  br i1 %call123, label %for.body124, label %for.end148, !dbg !11767

for.body124:                                      ; preds = %invoke.cont122
  %52 = bitcast %"class.dealii::TriaActiveIterator"* %cell to %"class.dealii::TriaRawIterator"*, !dbg !11768
  %call127 = invoke %"class.dealii::CellAccessor"* @_ZN6dealii15TriaRawIteratorINS_12CellAccessorILi3ELi3EEEEptEv(%"class.dealii::TriaRawIterator"* %52)
          to label %invoke.cont126 unwind label %lpad9, !dbg !11768

invoke.cont126:                                   ; preds = %for.body124
  %call129 = invoke i8 @_ZNK6dealii12CellAccessorILi3ELi3EE15refine_flag_setEv(%"class.dealii::CellAccessor"* %call127)
          to label %invoke.cont128 unwind label %lpad9, !dbg !11770

invoke.cont128:                                   ; preds = %invoke.cont126
  %coerce.dive130 = getelementptr inbounds %"class.dealii::RefinementCase", %"class.dealii::RefinementCase"* %ref.tmp125, i32 0, i32 0, !dbg !11770
  store i8 %call129, i8* %coerce.dive130, align 1, !dbg !11770
  %call132 = invoke zeroext i8 @_ZNK6dealii14RefinementCaseILi3EEcvhEv(%"class.dealii::RefinementCase"* %ref.tmp125)
          to label %invoke.cont131 unwind label %lpad9, !dbg !11768

invoke.cont131:                                   ; preds = %invoke.cont128
  %tobool133 = icmp ne i8 %call132, 0, !dbg !11768
  br i1 %tobool133, label %if.then134, label %if.else136, !dbg !11771

if.then134:                                       ; preds = %invoke.cont131
  %53 = load double, double* %estimated_cells, align 8, !dbg !11772
  %add135 = fadd double %53, 7.000000e+00, !dbg !11772
  store double %add135, double* %estimated_cells, align 8, !dbg !11772
  br label %if.end144, !dbg !11773

if.else136:                                       ; preds = %invoke.cont131
  %54 = bitcast %"class.dealii::TriaActiveIterator"* %cell to %"class.dealii::TriaRawIterator"*, !dbg !11774
  %call138 = invoke %"class.dealii::CellAccessor"* @_ZN6dealii15TriaRawIteratorINS_12CellAccessorILi3ELi3EEEEptEv(%"class.dealii::TriaRawIterator"* %54)
          to label %invoke.cont137 unwind label %lpad9, !dbg !11774

invoke.cont137:                                   ; preds = %if.else136
  %call140 = invoke zeroext i1 @_ZNK6dealii12CellAccessorILi3ELi3EE16coarsen_flag_setEv(%"class.dealii::CellAccessor"* %call138)
          to label %invoke.cont139 unwind label %lpad9, !dbg !11776

invoke.cont139:                                   ; preds = %invoke.cont137
  br i1 %call140, label %if.then141, label %if.end143, !dbg !11777

if.then141:                                       ; preds = %invoke.cont139
  %55 = load double, double* %estimated_cells, align 8, !dbg !11778
  %sub142 = fsub double %55, 0.000000e+00, !dbg !11778
  store double %sub142, double* %estimated_cells, align 8, !dbg !11778
  br label %if.end143, !dbg !11779

if.end143:                                        ; preds = %if.then141, %invoke.cont139
  br label %if.end144

if.end144:                                        ; preds = %if.end143, %if.then134
  br label %for.inc145, !dbg !11780

for.inc145:                                       ; preds = %if.end144
  %call147 = invoke dereferenceable(16) %"class.dealii::TriaActiveIterator"* @_ZN6dealii18TriaActiveIteratorINS_12CellAccessorILi3ELi3EEEEppEv(%"class.dealii::TriaActiveIterator"* %cell)
          to label %invoke.cont146 unwind label %lpad9, !dbg !11781

invoke.cont146:                                   ; preds = %for.inc145
  br label %for.cond121, !dbg !11782, !llvm.loop !11783

for.end148:                                       ; preds = %invoke.cont122
  call void @llvm.dbg.declare(metadata double* %delta_up, metadata !11785, metadata !DIExpression()), !dbg !11786
  %refinement_flags149 = getelementptr inbounds %"class.dealii::TimeStepBase_Tria", %"class.dealii::TimeStepBase_Tria"* %this1, i32 0, i32 5, !dbg !11787
  %cell_number_corridor_top = getelementptr inbounds %"struct.dealii::TimeStepBase_Tria_Flags::RefinementFlags", %"struct.dealii::TimeStepBase_Tria_Flags::RefinementFlags"* %refinement_flags149, i32 0, i32 4, !dbg !11788
  %56 = load double, double* %cell_number_corridor_top, align 8, !dbg !11788
  store double %56, double* %delta_up, align 8, !dbg !11786
  call void @llvm.dbg.declare(metadata double* %delta_down, metadata !11789, metadata !DIExpression()), !dbg !11790
  %refinement_flags150 = getelementptr inbounds %"class.dealii::TimeStepBase_Tria", %"class.dealii::TimeStepBase_Tria"* %this1, i32 0, i32 5, !dbg !11791
  %cell_number_corridor_bottom = getelementptr inbounds %"struct.dealii::TimeStepBase_Tria_Flags::RefinementFlags", %"struct.dealii::TimeStepBase_Tria_Flags::RefinementFlags"* %refinement_flags150, i32 0, i32 5, !dbg !11792
  %57 = load double, double* %cell_number_corridor_bottom, align 8, !dbg !11792
  store double %57, double* %delta_down, align 8, !dbg !11790
  call void @llvm.dbg.declare(metadata %"class.std::vector.20"** %relaxations, metadata !11793, metadata !DIExpression()), !dbg !11794
  %58 = bitcast %"class.dealii::TimeStepBase_Tria"* %this1 to %"class.dealii::TimeStepBase"*, !dbg !11795
  %sweep_no151 = getelementptr inbounds %"class.dealii::TimeStepBase", %"class.dealii::TimeStepBase"* %58, i32 0, i32 3, !dbg !11795
  %59 = load i32, i32* %sweep_no151, align 8, !dbg !11795
  %conv152 = zext i32 %59 to i64, !dbg !11795
  %refinement_flags153 = getelementptr inbounds %"class.dealii::TimeStepBase_Tria", %"class.dealii::TimeStepBase_Tria"* %this1, i32 0, i32 5, !dbg !11796
  %correction_relaxations = getelementptr inbounds %"struct.dealii::TimeStepBase_Tria_Flags::RefinementFlags", %"struct.dealii::TimeStepBase_Tria_Flags::RefinementFlags"* %refinement_flags153, i32 0, i32 6, !dbg !11797
  %call154 = call i64 @_ZNKSt6vectorIS_ISt4pairIjdESaIS1_EESaIS3_EE4sizeEv(%"class.std::vector"* %correction_relaxations) #11, !dbg !11798
  %cmp155 = icmp uge i64 %conv152, %call154, !dbg !11799
  br i1 %cmp155, label %cond.true, label %cond.false, !dbg !11795

cond.true:                                        ; preds = %for.end148
  %refinement_flags156 = getelementptr inbounds %"class.dealii::TimeStepBase_Tria", %"class.dealii::TimeStepBase_Tria"* %this1, i32 0, i32 5, !dbg !11800
  %correction_relaxations157 = getelementptr inbounds %"struct.dealii::TimeStepBase_Tria_Flags::RefinementFlags", %"struct.dealii::TimeStepBase_Tria_Flags::RefinementFlags"* %refinement_flags156, i32 0, i32 6, !dbg !11801
  %call158 = call dereferenceable(24) %"class.std::vector.20"* @_ZNKSt6vectorIS_ISt4pairIjdESaIS1_EESaIS3_EE4backEv(%"class.std::vector"* %correction_relaxations157) #11, !dbg !11802
  br label %cond.end, !dbg !11795

cond.false:                                       ; preds = %for.end148
  %refinement_flags159 = getelementptr inbounds %"class.dealii::TimeStepBase_Tria", %"class.dealii::TimeStepBase_Tria"* %this1, i32 0, i32 5, !dbg !11803
  %correction_relaxations160 = getelementptr inbounds %"struct.dealii::TimeStepBase_Tria_Flags::RefinementFlags", %"struct.dealii::TimeStepBase_Tria_Flags::RefinementFlags"* %refinement_flags159, i32 0, i32 6, !dbg !11804
  %60 = bitcast %"class.dealii::TimeStepBase_Tria"* %this1 to %"class.dealii::TimeStepBase"*, !dbg !11805
  %sweep_no161 = getelementptr inbounds %"class.dealii::TimeStepBase", %"class.dealii::TimeStepBase"* %60, i32 0, i32 3, !dbg !11805
  %61 = load i32, i32* %sweep_no161, align 8, !dbg !11805
  %conv162 = zext i32 %61 to i64, !dbg !11805
  %call163 = call dereferenceable(24) %"class.std::vector.20"* @_ZNKSt6vectorIS_ISt4pairIjdESaIS1_EESaIS3_EEixEm(%"class.std::vector"* %correction_relaxations160, i64 %conv162) #11, !dbg !11803
  br label %cond.end, !dbg !11795

cond.end:                                         ; preds = %cond.false, %cond.true
  %cond-lvalue = phi %"class.std::vector.20"* [ %call158, %cond.true ], [ %call163, %cond.false ], !dbg !11795
  store %"class.std::vector.20"* %cond-lvalue, %"class.std::vector.20"** %relaxations, align 8, !dbg !11794
  call void @llvm.dbg.declare(metadata i32* %r, metadata !11806, metadata !DIExpression()), !dbg !11808
  store i32 0, i32* %r, align 4, !dbg !11808
  br label %for.cond164, !dbg !11809

for.cond164:                                      ; preds = %for.inc180, %cond.end
  %62 = load i32, i32* %r, align 4, !dbg !11810
  %conv165 = zext i32 %62 to i64, !dbg !11810
  %63 = load %"class.std::vector.20"*, %"class.std::vector.20"** %relaxations, align 8, !dbg !11812
  %call166 = call i64 @_ZNKSt6vectorISt4pairIjdESaIS1_EE4sizeEv(%"class.std::vector.20"* %63) #11, !dbg !11813
  %cmp167 = icmp ne i64 %conv165, %call166, !dbg !11814
  br i1 %cmp167, label %for.body168, label %for.end181, !dbg !11815

for.body168:                                      ; preds = %for.cond164
  %64 = load i32, i32* %n_active_cells, align 4, !dbg !11816
  %65 = load %"class.std::vector.20"*, %"class.std::vector.20"** %relaxations, align 8, !dbg !11818
  %66 = load i32, i32* %r, align 4, !dbg !11819
  %conv169 = zext i32 %66 to i64, !dbg !11819
  %call170 = call dereferenceable(16) %"struct.std::pair"* @_ZNKSt6vectorISt4pairIjdESaIS1_EEixEm(%"class.std::vector.20"* %65, i64 %conv169) #11, !dbg !11818
  %first = getelementptr inbounds %"struct.std::pair", %"struct.std::pair"* %call170, i32 0, i32 0, !dbg !11820
  %67 = load i32, i32* %first, align 8, !dbg !11820
  %cmp171 = icmp ult i32 %64, %67, !dbg !11821
  br i1 %cmp171, label %if.then172, label %if.end179, !dbg !11822

if.then172:                                       ; preds = %for.body168
  %68 = load %"class.std::vector.20"*, %"class.std::vector.20"** %relaxations, align 8, !dbg !11823
  %69 = load i32, i32* %r, align 4, !dbg !11825
  %conv173 = zext i32 %69 to i64, !dbg !11825
  %call174 = call dereferenceable(16) %"struct.std::pair"* @_ZNKSt6vectorISt4pairIjdESaIS1_EEixEm(%"class.std::vector.20"* %68, i64 %conv173) #11, !dbg !11823
  %second = getelementptr inbounds %"struct.std::pair", %"struct.std::pair"* %call174, i32 0, i32 1, !dbg !11826
  %70 = load double, double* %second, align 8, !dbg !11826
  %71 = load double, double* %delta_up, align 8, !dbg !11827
  %mul = fmul double %71, %70, !dbg !11827
  store double %mul, double* %delta_up, align 8, !dbg !11827
  %72 = load %"class.std::vector.20"*, %"class.std::vector.20"** %relaxations, align 8, !dbg !11828
  %73 = load i32, i32* %r, align 4, !dbg !11829
  %conv175 = zext i32 %73 to i64, !dbg !11829
  %call176 = call dereferenceable(16) %"struct.std::pair"* @_ZNKSt6vectorISt4pairIjdESaIS1_EEixEm(%"class.std::vector.20"* %72, i64 %conv175) #11, !dbg !11828
  %second177 = getelementptr inbounds %"struct.std::pair", %"struct.std::pair"* %call176, i32 0, i32 1, !dbg !11830
  %74 = load double, double* %second177, align 8, !dbg !11830
  %75 = load double, double* %delta_down, align 8, !dbg !11831
  %mul178 = fmul double %75, %74, !dbg !11831
  store double %mul178, double* %delta_down, align 8, !dbg !11831
  br label %for.end181, !dbg !11832

if.end179:                                        ; preds = %for.body168
  br label %for.inc180, !dbg !11820

for.inc180:                                       ; preds = %if.end179
  %76 = load i32, i32* %r, align 4, !dbg !11833
  %inc = add i32 %76, 1, !dbg !11833
  store i32 %inc, i32* %r, align 4, !dbg !11833
  br label %for.cond164, !dbg !11834, !llvm.loop !11835

for.end181:                                       ; preds = %if.then172, %for.cond164
  %77 = load double, double* %estimated_cells, align 8, !dbg !11837
  %78 = load double, double* %previous_cells, align 8, !dbg !11839
  %79 = load double, double* %delta_up, align 8, !dbg !11840
  %add182 = fadd double 1.000000e+00, %79, !dbg !11841
  %mul183 = fmul double %78, %add182, !dbg !11842
  %cmp184 = fcmp ogt double %77, %mul183, !dbg !11843
  br i1 %cmp184, label %if.then185, label %if.else208, !dbg !11844

if.then185:                                       ; preds = %for.end181
  %80 = load double, double* %estimated_cells, align 8, !dbg !11845
  %refinement_flags186 = getelementptr inbounds %"class.dealii::TimeStepBase_Tria", %"class.dealii::TimeStepBase_Tria"* %this1, i32 0, i32 5, !dbg !11848
  %min_cells_for_correction = getelementptr inbounds %"struct.dealii::TimeStepBase_Tria_Flags::RefinementFlags", %"struct.dealii::TimeStepBase_Tria_Flags::RefinementFlags"* %refinement_flags186, i32 0, i32 2, !dbg !11849
  %81 = load i32, i32* %min_cells_for_correction, align 8, !dbg !11849
  %conv187 = uitofp i32 %81 to double, !dbg !11848
  %cmp188 = fcmp ogt double %80, %conv187, !dbg !11850
  br i1 %cmp188, label %if.then189, label %if.else206, !dbg !11851

if.then189:                                       ; preds = %if.then185
  call void @llvm.dbg.declare(metadata double* %delta_cells, metadata !11852, metadata !DIExpression()), !dbg !11854
  %82 = load double, double* %estimated_cells, align 8, !dbg !11855
  %83 = load double, double* %previous_cells, align 8, !dbg !11856
  %84 = load double, double* %delta_up, align 8, !dbg !11857
  %add190 = fadd double 1.000000e+00, %84, !dbg !11858
  %mul191 = fmul double %83, %add190, !dbg !11859
  %sub192 = fsub double %82, %mul191, !dbg !11860
  store double %sub192, double* %delta_cells, align 8, !dbg !11854
  call void @llvm.dbg.declare(metadata i32* %i, metadata !11861, metadata !DIExpression()), !dbg !11863
  store i32 0, i32* %i, align 4, !dbg !11863
  br label %for.cond193, !dbg !11864

for.cond193:                                      ; preds = %for.inc203, %if.then189
  %85 = load i32, i32* %i, align 4, !dbg !11865
  %conv194 = uitofp i32 %85 to double, !dbg !11865
  %86 = load double, double* %delta_cells, align 8, !dbg !11867
  %cmp195 = fcmp olt double %conv194, %86, !dbg !11868
  br i1 %cmp195, label %for.body196, label %for.end205, !dbg !11869

for.body196:                                      ; preds = %for.cond193
  %87 = load float*, float** %p_refinement_threshold, align 8, !dbg !11870
  %call198 = invoke float* @_ZN6dealii6VectorIfE3endEv(%"class.dealii::Vector"* %sorted_criteria)
          to label %invoke.cont197 unwind label %lpad9, !dbg !11872

invoke.cont197:                                   ; preds = %for.body196
  %cmp199 = icmp ne float* %87, %call198, !dbg !11873
  br i1 %cmp199, label %if.then200, label %if.else201, !dbg !11874

if.then200:                                       ; preds = %invoke.cont197
  %88 = load float*, float** %p_refinement_threshold, align 8, !dbg !11875
  %incdec.ptr = getelementptr inbounds float, float* %88, i32 1, !dbg !11875
  store float* %incdec.ptr, float** %p_refinement_threshold, align 8, !dbg !11875
  br label %if.end202, !dbg !11875

if.else201:                                       ; preds = %invoke.cont197
  br label %for.end205, !dbg !11876

if.end202:                                        ; preds = %if.then200
  br label %for.inc203, !dbg !11877

for.inc203:                                       ; preds = %if.end202
  %89 = load i32, i32* %i, align 4, !dbg !11878
  %add204 = add i32 %89, 7, !dbg !11878
  store i32 %add204, i32* %i, align 4, !dbg !11878
  br label %for.cond193, !dbg !11879, !llvm.loop !11880

for.end205:                                       ; preds = %if.else201, %for.cond193
  br label %if.end207, !dbg !11882

if.else206:                                       ; preds = %if.then185
  br label %for.end297, !dbg !11883

if.end207:                                        ; preds = %for.end205
  br label %if.end246, !dbg !11884

if.else208:                                       ; preds = %for.end181
  %90 = load double, double* %estimated_cells, align 8, !dbg !11885
  %91 = load double, double* %previous_cells, align 8, !dbg !11887
  %92 = load double, double* %delta_down, align 8, !dbg !11888
  %sub209 = fsub double 1.000000e+00, %92, !dbg !11889
  %mul210 = fmul double %91, %sub209, !dbg !11890
  %cmp211 = fcmp olt double %90, %mul210, !dbg !11891
  br i1 %cmp211, label %if.then212, label %if.else244, !dbg !11892

if.then212:                                       ; preds = %if.else208
  call void @llvm.dbg.declare(metadata double* %delta_cells213, metadata !11893, metadata !DIExpression()), !dbg !11895
  %93 = load double, double* %previous_cells, align 8, !dbg !11896
  %94 = load double, double* %delta_down, align 8, !dbg !11897
  %sub214 = fsub double 1.000000e+00, %94, !dbg !11898
  %mul215 = fmul double %93, %sub214, !dbg !11899
  %95 = load double, double* %estimated_cells, align 8, !dbg !11900
  %sub216 = fsub double %mul215, %95, !dbg !11901
  store double %sub216, double* %delta_cells213, align 8, !dbg !11895
  %96 = load i32, i32* %loop, align 4, !dbg !11902
  %refinement_flags217 = getelementptr inbounds %"class.dealii::TimeStepBase_Tria", %"class.dealii::TimeStepBase_Tria"* %this1, i32 0, i32 5, !dbg !11904
  %cell_number_correction_steps218 = getelementptr inbounds %"struct.dealii::TimeStepBase_Tria_Flags::RefinementFlags", %"struct.dealii::TimeStepBase_Tria_Flags::RefinementFlags"* %refinement_flags217, i32 0, i32 7, !dbg !11905
  %97 = load i32, i32* %cell_number_correction_steps218, align 8, !dbg !11905
  %sub219 = sub i32 %97, 1, !dbg !11906
  %cmp220 = icmp ne i32 %96, %sub219, !dbg !11907
  br i1 %cmp220, label %if.then221, label %if.end223, !dbg !11908

if.then221:                                       ; preds = %if.then212
  %98 = load double, double* %delta_cells213, align 8, !dbg !11909
  %mul222 = fmul double %98, 9.000000e-01, !dbg !11909
  store double %mul222, double* %delta_cells213, align 8, !dbg !11909
  br label %if.end223, !dbg !11910

if.end223:                                        ; preds = %if.then221, %if.then212
  call void @llvm.dbg.declare(metadata i32* %i224, metadata !11911, metadata !DIExpression()), !dbg !11913
  store i32 0, i32* %i224, align 4, !dbg !11913
  br label %for.cond225, !dbg !11914

for.cond225:                                      ; preds = %for.inc241, %if.end223
  %99 = load i32, i32* %i224, align 4, !dbg !11915
  %conv226 = uitofp i32 %99 to double, !dbg !11915
  %100 = load double, double* %delta_cells213, align 8, !dbg !11917
  %cmp227 = fcmp olt double %conv226, %100, !dbg !11918
  br i1 %cmp227, label %for.body228, label %for.end243, !dbg !11919

for.body228:                                      ; preds = %for.cond225
  %101 = load float*, float** %p_refinement_threshold, align 8, !dbg !11920
  %102 = load float*, float** %p_coarsening_threshold, align 8, !dbg !11922
  %cmp229 = icmp ne float* %101, %102, !dbg !11923
  br i1 %cmp229, label %if.then230, label %if.else231, !dbg !11924

if.then230:                                       ; preds = %for.body228
  %103 = load double, double* %refinement_threshold, align 8, !dbg !11925
  %dec = fadd double %103, -1.000000e+00, !dbg !11925
  store double %dec, double* %refinement_threshold, align 8, !dbg !11925
  br label %if.end240, !dbg !11925

if.else231:                                       ; preds = %for.body228
  %104 = load float*, float** %p_coarsening_threshold, align 8, !dbg !11926
  %call233 = invoke float* @_ZN6dealii6VectorIfE5beginEv(%"class.dealii::Vector"* %sorted_criteria)
          to label %invoke.cont232 unwind label %lpad9, !dbg !11928

invoke.cont232:                                   ; preds = %if.else231
  %cmp234 = icmp ne float* %104, %call233, !dbg !11929
  br i1 %cmp234, label %if.then235, label %if.else238, !dbg !11930

if.then235:                                       ; preds = %invoke.cont232
  %105 = load float*, float** %p_coarsening_threshold, align 8, !dbg !11931
  %incdec.ptr236 = getelementptr inbounds float, float* %105, i32 -1, !dbg !11931
  store float* %incdec.ptr236, float** %p_coarsening_threshold, align 8, !dbg !11931
  %106 = load float*, float** %p_refinement_threshold, align 8, !dbg !11932
  %incdec.ptr237 = getelementptr inbounds float, float* %106, i32 -1, !dbg !11932
  store float* %incdec.ptr237, float** %p_refinement_threshold, align 8, !dbg !11932
  br label %if.end239, !dbg !11931

if.else238:                                       ; preds = %invoke.cont232
  br label %for.end243, !dbg !11933

if.end239:                                        ; preds = %if.then235
  br label %if.end240

if.end240:                                        ; preds = %if.end239, %if.then230
  br label %for.inc241, !dbg !11922

for.inc241:                                       ; preds = %if.end240
  %107 = load i32, i32* %i224, align 4, !dbg !11934
  %add242 = add i32 %107, 7, !dbg !11934
  store i32 %add242, i32* %i224, align 4, !dbg !11934
  br label %for.cond225, !dbg !11935, !llvm.loop !11936

for.end243:                                       ; preds = %if.else238, %for.cond225
  br label %if.end245, !dbg !11938

if.else244:                                       ; preds = %if.else208
  br label %for.end297, !dbg !11939

if.end245:                                        ; preds = %for.end243
  br label %if.end246

if.end246:                                        ; preds = %if.end245, %if.end207
  %108 = load float*, float** %p_refinement_threshold, align 8, !dbg !11940
  %call248 = invoke float* @_ZN6dealii6VectorIfE3endEv(%"class.dealii::Vector"* %sorted_criteria)
          to label %invoke.cont247 unwind label %lpad9, !dbg !11942

invoke.cont247:                                   ; preds = %if.end246
  %cmp249 = icmp eq float* %108, %call248, !dbg !11943
  br i1 %cmp249, label %if.then250, label %if.end252, !dbg !11944

if.then250:                                       ; preds = %invoke.cont247
  %109 = load float*, float** %p_refinement_threshold, align 8, !dbg !11945
  %incdec.ptr251 = getelementptr inbounds float, float* %109, i32 -1, !dbg !11945
  store float* %incdec.ptr251, float** %p_refinement_threshold, align 8, !dbg !11945
  br label %if.end252, !dbg !11947

if.end252:                                        ; preds = %if.then250, %invoke.cont247
  %110 = load float*, float** %p_coarsening_threshold, align 8, !dbg !11948
  %111 = load float, float* %110, align 4, !dbg !11949
  %conv253 = fpext float %111 to double, !dbg !11949
  store double %conv253, double* %coarsening_threshold, align 8, !dbg !11950
  %112 = load float*, float** %p_refinement_threshold, align 8, !dbg !11951
  %113 = load float, float* %112, align 4, !dbg !11952
  %conv254 = fpext float %113 to double, !dbg !11952
  store double %conv254, double* %refinement_threshold, align 8, !dbg !11953
  %114 = load double, double* %coarsening_threshold, align 8, !dbg !11954
  %115 = load double, double* %refinement_threshold, align 8, !dbg !11956
  %cmp255 = fcmp oge double %114, %115, !dbg !11957
  br i1 %cmp255, label %if.then256, label %if.end258, !dbg !11958

if.then256:                                       ; preds = %if.end252
  %116 = load double, double* %refinement_threshold, align 8, !dbg !11959
  %mul257 = fmul double 0x3FEFF7CED916872B, %116, !dbg !11960
  store double %mul257, double* %coarsening_threshold, align 8, !dbg !11961
  br label %if.end258, !dbg !11962

if.end258:                                        ; preds = %if.then256, %if.end252
  %tria260 = getelementptr inbounds %"class.dealii::TimeStepBase_Tria", %"class.dealii::TimeStepBase_Tria"* %this1, i32 0, i32 1, !dbg !11963
  %call262 = invoke %"class.dealii::Triangulation"* @_ZNK6dealii12SmartPointerINS_13TriangulationILi3ELi3EEEEptEv(%"class.dealii::SmartPointer"* %tria260)
          to label %invoke.cont261 unwind label %lpad9, !dbg !11963

invoke.cont261:                                   ; preds = %if.end258
  invoke void @_ZNK6dealii13TriangulationILi3ELi3EE12begin_activeEj(%"class.dealii::TriaActiveIterator"* sret %ref.tmp259, %"class.dealii::Triangulation"* %call262, i32 0)
          to label %invoke.cont263 unwind label %lpad9, !dbg !11964

invoke.cont263:                                   ; preds = %invoke.cont261
  %call265 = invoke dereferenceable(16) %"class.dealii::TriaActiveIterator"* @_ZN6dealii18TriaActiveIteratorINS_12CellAccessorILi3ELi3EEEEaSERKS3_(%"class.dealii::TriaActiveIterator"* %cell, %"class.dealii::TriaActiveIterator"* dereferenceable(16) %ref.tmp259)
          to label %invoke.cont264 unwind label %lpad9, !dbg !11965

invoke.cont264:                                   ; preds = %invoke.cont263
  %tria267 = getelementptr inbounds %"class.dealii::TimeStepBase_Tria", %"class.dealii::TimeStepBase_Tria"* %this1, i32 0, i32 1, !dbg !11966
  %call269 = invoke %"class.dealii::Triangulation"* @_ZNK6dealii12SmartPointerINS_13TriangulationILi3ELi3EEEEptEv(%"class.dealii::SmartPointer"* %tria267)
          to label %invoke.cont268 unwind label %lpad9, !dbg !11966

invoke.cont268:                                   ; preds = %invoke.cont264
  invoke void @_ZNK6dealii13TriangulationILi3ELi3EE3endEv(%"class.dealii::TriaRawIterator"* sret %ref.tmp266, %"class.dealii::Triangulation"* %call269)
          to label %invoke.cont270 unwind label %lpad9, !dbg !11967

invoke.cont270:                                   ; preds = %invoke.cont268
  %call272 = invoke dereferenceable(16) %"class.dealii::TriaActiveIterator"* @_ZN6dealii18TriaActiveIteratorINS_12CellAccessorILi3ELi3EEEEaSERKNS_15TriaRawIteratorIS2_EE(%"class.dealii::TriaActiveIterator"* %endc, %"class.dealii::TriaRawIterator"* dereferenceable(16) %ref.tmp266)
          to label %invoke.cont271 unwind label %lpad9, !dbg !11968

invoke.cont271:                                   ; preds = %invoke.cont270
  br label %for.cond273, !dbg !11969

for.cond273:                                      ; preds = %invoke.cont284, %invoke.cont271
  %117 = bitcast %"class.dealii::TriaActiveIterator"* %cell to %"class.dealii::TriaRawIterator"*, !dbg !11970
  %118 = bitcast %"class.dealii::TriaActiveIterator"* %endc to %"class.dealii::TriaRawIterator"*, !dbg !11973
  %call275 = invoke zeroext i1 @_ZNK6dealii15TriaRawIteratorINS_12CellAccessorILi3ELi3EEEEneERKS3_(%"class.dealii::TriaRawIterator"* %117, %"class.dealii::TriaRawIterator"* dereferenceable(16) %118)
          to label %invoke.cont274 unwind label %lpad9, !dbg !11974

invoke.cont274:                                   ; preds = %for.cond273
  br i1 %call275, label %for.body276, label %for.end286, !dbg !11975

for.body276:                                      ; preds = %invoke.cont274
  %119 = bitcast %"class.dealii::TriaActiveIterator"* %cell to %"class.dealii::TriaRawIterator"*, !dbg !11976
  %call278 = invoke %"class.dealii::CellAccessor"* @_ZN6dealii15TriaRawIteratorINS_12CellAccessorILi3ELi3EEEEptEv(%"class.dealii::TriaRawIterator"* %119)
          to label %invoke.cont277 unwind label %lpad9, !dbg !11976

invoke.cont277:                                   ; preds = %for.body276
  invoke void @_ZNK6dealii12CellAccessorILi3ELi3EE17clear_refine_flagEv(%"class.dealii::CellAccessor"* %call278)
          to label %invoke.cont279 unwind label %lpad9, !dbg !11978

invoke.cont279:                                   ; preds = %invoke.cont277
  %120 = bitcast %"class.dealii::TriaActiveIterator"* %cell to %"class.dealii::TriaRawIterator"*, !dbg !11979
  %call281 = invoke %"class.dealii::CellAccessor"* @_ZN6dealii15TriaRawIteratorINS_12CellAccessorILi3ELi3EEEEptEv(%"class.dealii::TriaRawIterator"* %120)
          to label %invoke.cont280 unwind label %lpad9, !dbg !11979

invoke.cont280:                                   ; preds = %invoke.cont279
  invoke void @_ZNK6dealii12CellAccessorILi3ELi3EE18clear_coarsen_flagEv(%"class.dealii::CellAccessor"* %call281)
          to label %invoke.cont282 unwind label %lpad9, !dbg !11980

invoke.cont282:                                   ; preds = %invoke.cont280
  br label %for.inc283, !dbg !11981

for.inc283:                                       ; preds = %invoke.cont282
  %call285 = invoke dereferenceable(16) %"class.dealii::TriaActiveIterator"* @_ZN6dealii18TriaActiveIteratorINS_12CellAccessorILi3ELi3EEEEppEv(%"class.dealii::TriaActiveIterator"* %cell)
          to label %invoke.cont284 unwind label %lpad9, !dbg !11982

invoke.cont284:                                   ; preds = %for.inc283
  br label %for.cond273, !dbg !11983, !llvm.loop !11984

for.end286:                                       ; preds = %invoke.cont274
  %tria287 = getelementptr inbounds %"class.dealii::TimeStepBase_Tria", %"class.dealii::TimeStepBase_Tria"* %this1, i32 0, i32 1, !dbg !11986
  %call289 = invoke dereferenceable(8552) %"class.dealii::Triangulation"* @_ZNK6dealii12SmartPointerINS_13TriangulationILi3ELi3EEEEdeEv(%"class.dealii::SmartPointer"* %tria287)
          to label %invoke.cont288 unwind label %lpad9, !dbg !11987

invoke.cont288:                                   ; preds = %for.end286
  %121 = load double, double* %refinement_threshold, align 8, !dbg !11988
  invoke void @_ZN6dealii14GridRefinement6refineILi3ENS_6VectorIfEELi3EEEvRNS_13TriangulationIXT_EXT1_EEERKT0_d(%"class.dealii::Triangulation"* dereferenceable(8552) %call289, %"class.dealii::Vector"* dereferenceable(88) %criteria, double %121)
          to label %invoke.cont290 unwind label %lpad9, !dbg !11989

invoke.cont290:                                   ; preds = %invoke.cont288
  %tria291 = getelementptr inbounds %"class.dealii::TimeStepBase_Tria", %"class.dealii::TimeStepBase_Tria"* %this1, i32 0, i32 1, !dbg !11990
  %call293 = invoke dereferenceable(8552) %"class.dealii::Triangulation"* @_ZNK6dealii12SmartPointerINS_13TriangulationILi3ELi3EEEEdeEv(%"class.dealii::SmartPointer"* %tria291)
          to label %invoke.cont292 unwind label %lpad9, !dbg !11991

invoke.cont292:                                   ; preds = %invoke.cont290
  %122 = load double, double* %coarsening_threshold, align 8, !dbg !11992
  invoke void @_ZN6dealii14GridRefinement7coarsenILi3ENS_6VectorIfEELi3EEEvRNS_13TriangulationIXT_EXT1_EEERKT0_d(%"class.dealii::Triangulation"* dereferenceable(8552) %call293, %"class.dealii::Vector"* dereferenceable(88) %criteria, double %122)
          to label %invoke.cont294 unwind label %lpad9, !dbg !11993

invoke.cont294:                                   ; preds = %invoke.cont292
  br label %for.inc295, !dbg !11994

for.inc295:                                       ; preds = %invoke.cont294
  %123 = load i32, i32* %loop, align 4, !dbg !11995
  %inc296 = add i32 %123, 1, !dbg !11995
  store i32 %inc296, i32* %loop, align 4, !dbg !11995
  br label %for.cond, !dbg !11996, !llvm.loop !11997

for.end297:                                       ; preds = %if.else244, %if.else206, %for.cond
  br label %if.end298, !dbg !11998

if.end298:                                        ; preds = %for.end297, %land.lhs.true44, %invoke.cont40
  %124 = bitcast %"class.dealii::TimeStepBase_Tria"* %this1 to %"class.dealii::TimeStepBase"*, !dbg !11999
  %timestep_no299 = getelementptr inbounds %"class.dealii::TimeStepBase", %"class.dealii::TimeStepBase"* %124, i32 0, i32 4, !dbg !11999
  %125 = load i32, i32* %timestep_no299, align 4, !dbg !11999
  %cmp300 = icmp uge i32 %125, 1, !dbg !12001
  br i1 %cmp300, label %land.lhs.true301, label %if.end368, !dbg !12002

land.lhs.true301:                                 ; preds = %if.end298
  %refinement_flags302 = getelementptr inbounds %"class.dealii::TimeStepBase_Tria", %"class.dealii::TimeStepBase_Tria"* %this1, i32 0, i32 5, !dbg !12003
  %adapt_grids303 = getelementptr inbounds %"struct.dealii::TimeStepBase_Tria_Flags::RefinementFlags", %"struct.dealii::TimeStepBase_Tria_Flags::RefinementFlags"* %refinement_flags302, i32 0, i32 9, !dbg !12004
  %126 = load i8, i8* %adapt_grids303, align 1, !dbg !12004
  %tobool304 = trunc i8 %126 to i1, !dbg !12004
  br i1 %tobool304, label %if.then305, label %if.end368, !dbg !12005

if.then305:                                       ; preds = %land.lhs.true301
