; ModuleID = 'source/lac/block_sparse_matrix.cc'
source_filename = "source/lac/block_sparse_matrix.cc"
target datalayout = "e-m:e-p270:32:32-p271:32:32-p272:64:64-i64:64-f80:128-n8:16:32:64-S128"
target triple = "x86_64-unknown-linux-gnu"

%"struct.boost::arg" = type { i8 }
%"struct.boost::arg.0" = type { i8 }
%"struct.boost::arg.2" = type { i8 }
%"struct.boost::arg.4" = type { i8 }
%"struct.boost::arg.6" = type { i8 }
%"struct.boost::arg.8" = type { i8 }
%"struct.boost::arg.10" = type { i8 }
%"struct.boost::arg.12" = type { i8 }
%"struct.boost::arg.14" = type { i8 }
%"class.std::ios_base::Init" = type { i8 }
%"class.dealii::BlockSparseMatrix" = type { %"class.dealii::BlockMatrixBase", %"class.dealii::SmartPointer.34" }
%"class.dealii::BlockMatrixBase" = type { %"class.dealii::Subscriptor", %"class.dealii::BlockIndices", %"class.dealii::BlockIndices", %"class.dealii::Table", %"class.std::vector", %"class.std::vector.19", %"class.std::vector.24" }
%"class.dealii::Subscriptor" = type { i32 (...)**, i32, %"class.std::map", %"class.std::type_info"* }
%"class.std::map" = type { %"class.std::_Rb_tree" }
%"class.std::_Rb_tree" = type { %"struct.std::_Rb_tree<const char *, std::pair<const char *const, unsigned int>, std::_Select1st<std::pair<const char *const, unsigned int> >, std::less<const char *>, std::allocator<std::pair<const char *const, unsigned int> > >::_Rb_tree_impl" }
%"struct.std::_Rb_tree<const char *, std::pair<const char *const, unsigned int>, std::_Select1st<std::pair<const char *const, unsigned int> >, std::less<const char *>, std::allocator<std::pair<const char *const, unsigned int> > >::_Rb_tree_impl" = type { %"struct.std::_Rb_tree_key_compare", %"struct.std::_Rb_tree_header" }
%"struct.std::_Rb_tree_key_compare" = type { %"struct.std::less" }
%"struct.std::less" = type { i8 }
%"struct.std::_Rb_tree_header" = type { %"struct.std::_Rb_tree_node_base", i64 }
%"struct.std::_Rb_tree_node_base" = type { i32, %"struct.std::_Rb_tree_node_base"*, %"struct.std::_Rb_tree_node_base"*, %"struct.std::_Rb_tree_node_base"* }
%"class.std::type_info" = type { i32 (...)**, i8* }
%"class.dealii::BlockIndices" = type { i32, %"class.std::vector" }
%"class.dealii::Table" = type { %"class.dealii::TableBase.base", [4 x i8] }
%"class.dealii::TableBase.base" = type <{ %"class.dealii::Subscriptor", %"class.dealii::SmartPointer"*, i32, %"class.dealii::TableIndices" }>
%"class.dealii::SmartPointer" = type { %"class.dealii::SparseMatrix"*, i8* }
%"class.dealii::SparseMatrix" = type <{ i32 (...)**, %"class.dealii::SmartPointer.40", double*, i32, [4 x i8], %"class.dealii::Subscriptor" }>
%"class.dealii::SmartPointer.40" = type { %"class.dealii::SparsityPattern"*, i8* }
%"class.dealii::SparsityPattern" = type <{ %"class.dealii::Subscriptor", i32, i32, i32, [4 x i8], i64, i32, [4 x i8], i64*, i32*, i8, i8, [6 x i8] }>
%"class.dealii::TableIndices" = type { %"class.dealii::TableIndicesBase" }
%"class.dealii::TableIndicesBase" = type { [2 x i32] }
%"class.std::vector" = type { %"struct.std::_Vector_base" }
%"struct.std::_Vector_base" = type { %"struct.std::_Vector_base<unsigned int, std::allocator<unsigned int> >::_Vector_impl" }
%"struct.std::_Vector_base<unsigned int, std::allocator<unsigned int> >::_Vector_impl" = type { %"struct.std::_Vector_base<unsigned int, std::allocator<unsigned int> >::_Vector_impl_data" }
%"struct.std::_Vector_base<unsigned int, std::allocator<unsigned int> >::_Vector_impl_data" = type { i32*, i32*, i32* }
%"class.std::vector.19" = type { %"struct.std::_Vector_base.20" }
%"struct.std::_Vector_base.20" = type { %"struct.std::_Vector_base<std::vector<unsigned int, std::allocator<unsigned int> >, std::allocator<std::vector<unsigned int, std::allocator<unsigned int> > > >::_Vector_impl" }
%"struct.std::_Vector_base<std::vector<unsigned int, std::allocator<unsigned int> >, std::allocator<std::vector<unsigned int, std::allocator<unsigned int> > > >::_Vector_impl" = type { %"struct.std::_Vector_base<std::vector<unsigned int, std::allocator<unsigned int> >, std::allocator<std::vector<unsigned int, std::allocator<unsigned int> > > >::_Vector_impl_data" }
%"struct.std::_Vector_base<std::vector<unsigned int, std::allocator<unsigned int> >, std::allocator<std::vector<unsigned int, std::allocator<unsigned int> > > >::_Vector_impl_data" = type { %"class.std::vector"*, %"class.std::vector"*, %"class.std::vector"* }
%"class.std::vector.24" = type { %"struct.std::_Vector_base.25" }
%"struct.std::_Vector_base.25" = type { %"struct.std::_Vector_base<std::vector<double, std::allocator<double> >, std::allocator<std::vector<double, std::allocator<double> > > >::_Vector_impl" }
%"struct.std::_Vector_base<std::vector<double, std::allocator<double> >, std::allocator<std::vector<double, std::allocator<double> > > >::_Vector_impl" = type { %"struct.std::_Vector_base<std::vector<double, std::allocator<double> >, std::allocator<std::vector<double, std::allocator<double> > > >::_Vector_impl_data" }
%"struct.std::_Vector_base<std::vector<double, std::allocator<double> >, std::allocator<std::vector<double, std::allocator<double> > > >::_Vector_impl_data" = type { %"class.std::vector.29"*, %"class.std::vector.29"*, %"class.std::vector.29"* }
%"class.std::vector.29" = type { %"struct.std::_Vector_base.30" }
%"struct.std::_Vector_base.30" = type { %"struct.std::_Vector_base<double, std::allocator<double> >::_Vector_impl" }
%"struct.std::_Vector_base<double, std::allocator<double> >::_Vector_impl" = type { %"struct.std::_Vector_base<double, std::allocator<double> >::_Vector_impl_data" }
%"struct.std::_Vector_base<double, std::allocator<double> >::_Vector_impl_data" = type { double*, double*, double* }
%"class.dealii::SmartPointer.34" = type { %"class.dealii::BlockSparsityPattern"*, i8* }
%"class.dealii::BlockSparsityPattern" = type { %"class.dealii::BlockSparsityPatternBase" }
%"class.dealii::BlockSparsityPatternBase" = type { %"class.dealii::Subscriptor", i32, i32, %"class.dealii::Table.35", %"class.dealii::BlockIndices", %"class.dealii::BlockIndices", %"class.std::vector", %"class.std::vector.19" }
%"class.dealii::Table.35" = type { %"class.dealii::TableBase.base.38", [4 x i8] }
%"class.dealii::TableBase.base.38" = type <{ %"class.dealii::Subscriptor", %"class.dealii::SmartPointer.37"*, i32, %"class.dealii::TableIndices" }>
%"class.dealii::SmartPointer.37" = type { %"class.dealii::SparsityPattern"*, i8* }
%"class.dealii::BlockSparseMatrix.42" = type { %"class.dealii::BlockMatrixBase.43", %"class.dealii::SmartPointer.34" }
%"class.dealii::BlockMatrixBase.43" = type { %"class.dealii::Subscriptor", %"class.dealii::BlockIndices", %"class.dealii::BlockIndices", %"class.dealii::Table.44", %"class.std::vector", %"class.std::vector.19", %"class.std::vector.24" }
%"class.dealii::Table.44" = type { %"class.dealii::TableBase.base.47", [4 x i8] }
%"class.dealii::TableBase.base.47" = type <{ %"class.dealii::Subscriptor", %"class.dealii::SmartPointer.46"*, i32, %"class.dealii::TableIndices" }>
%"class.dealii::SmartPointer.46" = type { %"class.dealii::SparseMatrix.49"*, i8* }
%"class.dealii::SparseMatrix.49" = type <{ i32 (...)**, %"class.dealii::SmartPointer.40", float*, i32, [4 x i8], %"class.dealii::Subscriptor" }>
%"class.dealii::internal::TableBaseAccessors::Accessor.41" = type { %"class.dealii::TableBase"*, %"class.dealii::SmartPointer"* }
%"class.dealii::TableBase" = type <{ %"class.dealii::Subscriptor", %"class.dealii::SmartPointer"*, i32, %"class.dealii::TableIndices", [4 x i8] }>
%"class.dealii::internal::TableBaseAccessors::Accessor" = type { %"class.dealii::TableBase"*, %"class.dealii::SmartPointer"* }
%"class.dealii::internal::TableBaseAccessors::Accessor.54" = type { %"class.dealii::TableBase.36"*, %"class.dealii::SmartPointer.37"* }
%"class.dealii::TableBase.36" = type <{ %"class.dealii::Subscriptor", %"class.dealii::SmartPointer.37"*, i32, %"class.dealii::TableIndices", [4 x i8] }>
%"class.std::basic_ostream" = type { i32 (...)**, %"class.std::basic_ios" }
%"class.std::basic_ios" = type { %"class.std::ios_base", %"class.std::basic_ostream"*, i8, i8, %"class.std::basic_streambuf"*, %"class.std::ctype"*, %"class.std::num_put"*, %"class.std::num_get"* }
%"class.std::ios_base" = type { i32 (...)**, i64, i64, i32, i32, i32, %"struct.std::ios_base::_Callback_list"*, %"struct.std::ios_base::_Words", [8 x %"struct.std::ios_base::_Words"], i32, %"struct.std::ios_base::_Words"*, %"class.std::locale" }
%"struct.std::ios_base::_Callback_list" = type { %"struct.std::ios_base::_Callback_list"*, void (i32, %"class.std::ios_base"*, i32)*, i32, i32 }
%"struct.std::ios_base::_Words" = type { i8*, i64 }
%"class.std::locale" = type { %"class.std::locale::_Impl"* }
%"class.std::locale::_Impl" = type { i32, %"class.std::locale::facet"**, i64, %"class.std::locale::facet"**, i8** }
%"class.std::locale::facet" = type <{ i32 (...)**, i32, [4 x i8] }>
%"class.std::basic_streambuf" = type { i32 (...)**, i8*, i8*, i8*, i8*, i8*, i8*, %"class.std::locale" }
%"class.std::ctype" = type <{ %"class.std::locale::facet.base", [4 x i8], %struct.__locale_struct*, i8, [7 x i8], i32*, i32*, i16*, i8, [256 x i8], [256 x i8], i8, [6 x i8] }>
%"class.std::locale::facet.base" = type <{ i32 (...)**, i32 }>
%struct.__locale_struct = type { [13 x %struct.__locale_data*], i16*, i32*, i32*, [13 x i8*] }
%struct.__locale_data = type opaque
%"class.std::num_put" = type { %"class.std::locale::facet.base", [4 x i8] }
%"class.std::num_get" = type { %"class.std::locale::facet.base", [4 x i8] }
%"class.dealii::internal::TableBaseAccessors::Accessor.52" = type { %"class.dealii::TableBase.45"*, %"class.dealii::SmartPointer.46"* }
%"class.dealii::TableBase.45" = type <{ %"class.dealii::Subscriptor", %"class.dealii::SmartPointer.46"*, i32, %"class.dealii::TableIndices", [4 x i8] }>
%"class.dealii::internal::TableBaseAccessors::Accessor.51" = type { %"class.dealii::TableBase.45"*, %"class.dealii::SmartPointer.46"* }
%"class.dealii::BlockSparseMatrix<double>::ExcBlockDimensionMismatch" = type { %"class.dealii::ExceptionBase.base", [4 x i8] }
%"class.dealii::ExceptionBase.base" = type <{ %"class.std::exception", i8*, i32, [4 x i8], i8*, i8*, i8*, i8**, i32 }>
%"class.std::exception" = type { i32 (...)** }
%"class.dealii::ExceptionBase" = type <{ %"class.std::exception", i8*, i32, [4 x i8], i8*, i8*, i8*, i8**, i32, [4 x i8] }>
%"class.dealii::BlockSparseMatrix<float>::ExcBlockDimensionMismatch" = type { %"class.dealii::ExceptionBase.base", [4 x i8] }
%"class.std::allocator.26" = type { i8 }
%"class.std::allocator.21" = type { i8 }
%"class.std::allocator.16" = type { i8 }
%"class.std::allocator.31" = type { i8 }
%"class.__gnu_cxx::new_allocator.32" = type { i8 }
%"class.__gnu_cxx::new_allocator.27" = type { i8 }
%"class.__gnu_cxx::new_allocator.22" = type { i8 }
%"class.__gnu_cxx::new_allocator.17" = type { i8 }
%"class.__gnu_cxx::__normal_iterator" = type { i32* }
%"class.__gnu_cxx::__normal_iterator.53" = type { i32* }
%"struct.std::random_access_iterator_tag" = type { i8 }

$_ZN5boost3argILi1EEC2Ev = comdat any

$_ZN5boost3argILi2EEC2Ev = comdat any

$_ZN5boost3argILi3EEC2Ev = comdat any

$_ZN5boost3argILi4EEC2Ev = comdat any

$_ZN5boost3argILi5EEC2Ev = comdat any

$_ZN5boost3argILi6EEC2Ev = comdat any

$_ZN5boost3argILi7EEC2Ev = comdat any

$_ZN5boost3argILi8EEC2Ev = comdat any

$_ZN5boost3argILi9EEC2Ev = comdat any

$_ZN6dealii17BlockSparseMatrixIdEC5Ev = comdat any

$_ZN6dealii15BlockMatrixBaseINS_12SparseMatrixIdEEEC2Ev = comdat any

$_ZN6dealii12SmartPointerIKNS_20BlockSparsityPatternEEC2EPS2_PKc = comdat any

$_ZN6dealii17BlockSparseMatrixIdEC5ERKNS_20BlockSparsityPatternE = comdat any

$_ZN6dealii12SmartPointerIKNS_20BlockSparsityPatternEED2Ev = comdat any

$_ZN6dealii17BlockSparseMatrixIdED5Ev = comdat any

$_ZN6dealii17BlockSparseMatrixIdE5clearEv = comdat any

$_ZN6dealii12SmartPointerIKNS_20BlockSparsityPatternEEaSEPS2_ = comdat any

$__clang_call_terminate = comdat any

$_ZN6dealii17BlockSparseMatrixIdEaSERKS1_ = comdat any

$_ZNK6dealii15BlockMatrixBaseINS_12SparseMatrixIdEEE12n_block_rowsEv = comdat any

$_ZNK6dealii15BlockMatrixBaseINS_12SparseMatrixIdEEE12n_block_colsEv = comdat any

$_ZNK6dealii15BlockMatrixBaseINS_12SparseMatrixIdEEE5blockEjj = comdat any

$_ZN6dealii15BlockMatrixBaseINS_12SparseMatrixIdEEE5blockEjj = comdat any

$_ZN6dealii17BlockSparseMatrixIdEaSEd = comdat any

$_ZN6dealii15BlockMatrixBaseINS_12SparseMatrixIdEEE5clearEv = comdat any

$_ZN6dealii17BlockSparseMatrixIdE6reinitERKNS_20BlockSparsityPatternE = comdat any

$_ZN6dealii12BlockIndicesaSERKS0_ = comdat any

$_ZN6dealii5TableILi2ENS_12SmartPointerINS_12SparseMatrixIdEEEEE6reinitEjj = comdat any

$_ZNK6dealii24BlockSparsityPatternBaseINS_15SparsityPatternEE12n_block_rowsEv = comdat any

$_ZNK6dealii24BlockSparsityPatternBaseINS_15SparsityPatternEE12n_block_colsEv = comdat any

$_ZNK6dealii24BlockSparsityPatternBaseINS_15SparsityPatternEE5blockEjj = comdat any

$_ZN6dealii5TableILi2ENS_12SmartPointerINS_12SparseMatrixIdEEEEEixEj = comdat any

$_ZNK6dealii8internal18TableBaseAccessors8AccessorILi2ENS_12SmartPointerINS_12SparseMatrixIdEEEELb0ELj1EEixEj = comdat any

$_ZN6dealii12SmartPointerINS_12SparseMatrixIdEEEaSEPS2_ = comdat any

$_ZNK6dealii17BlockSparseMatrixIdE5emptyEv = comdat any

$_ZNK6dealii17BlockSparseMatrixIdE18n_nonzero_elementsEv = comdat any

$_ZNK6dealii12SmartPointerIKNS_20BlockSparsityPatternEEptEv = comdat any

$_ZNK6dealii17BlockSparseMatrixIdE27n_actually_nonzero_elementsEd = comdat any

$_ZNK6dealii5TableILi2ENS_12SmartPointerINS_12SparseMatrixIdEEEEEixEj = comdat any

$_ZNK6dealii8internal18TableBaseAccessors8AccessorILi2ENS_12SmartPointerINS_12SparseMatrixIdEEEELb1ELj1EEixEj = comdat any

$_ZNK6dealii12SmartPointerINS_12SparseMatrixIdEEEptEv = comdat any

$_ZNK6dealii17BlockSparseMatrixIdE15print_formattedERSojbjPKcd = comdat any

$_ZNK6dealii17BlockSparseMatrixIdE20get_sparsity_patternEv = comdat any

$_ZNK6dealii12SmartPointerIKNS_20BlockSparsityPatternEEdeEv = comdat any

$_ZNK6dealii17BlockSparseMatrixIdE18memory_consumptionEv = comdat any

$_ZN6dealii17MemoryConsumption18memory_consumptionINS_5TableILi2ENS_12SmartPointerINS_12SparseMatrixIdEEEEEEEEjRKT_ = comdat any

$_ZN6dealii17MemoryConsumption18memory_consumptionINS_12SparseMatrixIdEEEEjRKT_ = comdat any

$_ZNK6dealii12SmartPointerINS_12SparseMatrixIdEEEdeEv = comdat any

$_ZN6dealii17BlockSparseMatrixIfEC5Ev = comdat any

$_ZN6dealii15BlockMatrixBaseINS_12SparseMatrixIfEEEC2Ev = comdat any

$_ZN6dealii17BlockSparseMatrixIfEC5ERKNS_20BlockSparsityPatternE = comdat any

$_ZN6dealii17BlockSparseMatrixIfED5Ev = comdat any

$_ZN6dealii17BlockSparseMatrixIfE5clearEv = comdat any

$_ZN6dealii17BlockSparseMatrixIfEaSERKS1_ = comdat any

$_ZNK6dealii15BlockMatrixBaseINS_12SparseMatrixIfEEE12n_block_rowsEv = comdat any

$_ZNK6dealii15BlockMatrixBaseINS_12SparseMatrixIfEEE12n_block_colsEv = comdat any

$_ZNK6dealii15BlockMatrixBaseINS_12SparseMatrixIfEEE5blockEjj = comdat any

$_ZN6dealii15BlockMatrixBaseINS_12SparseMatrixIfEEE5blockEjj = comdat any

$_ZN6dealii17BlockSparseMatrixIfEaSEd = comdat any

$_ZN6dealii15BlockMatrixBaseINS_12SparseMatrixIfEEE5clearEv = comdat any

$_ZN6dealii17BlockSparseMatrixIfE6reinitERKNS_20BlockSparsityPatternE = comdat any

$_ZN6dealii5TableILi2ENS_12SmartPointerINS_12SparseMatrixIfEEEEE6reinitEjj = comdat any

$_ZN6dealii5TableILi2ENS_12SmartPointerINS_12SparseMatrixIfEEEEEixEj = comdat any

$_ZNK6dealii8internal18TableBaseAccessors8AccessorILi2ENS_12SmartPointerINS_12SparseMatrixIfEEEELb0ELj1EEixEj = comdat any

$_ZN6dealii12SmartPointerINS_12SparseMatrixIfEEEaSEPS2_ = comdat any

$_ZNK6dealii17BlockSparseMatrixIfE5emptyEv = comdat any

$_ZNK6dealii17BlockSparseMatrixIfE18n_nonzero_elementsEv = comdat any

$_ZNK6dealii17BlockSparseMatrixIfE27n_actually_nonzero_elementsEd = comdat any

$_ZNK6dealii5TableILi2ENS_12SmartPointerINS_12SparseMatrixIfEEEEEixEj = comdat any

$_ZNK6dealii8internal18TableBaseAccessors8AccessorILi2ENS_12SmartPointerINS_12SparseMatrixIfEEEELb1ELj1EEixEj = comdat any

$_ZNK6dealii12SmartPointerINS_12SparseMatrixIfEEEptEv = comdat any

$_ZNK6dealii17BlockSparseMatrixIfE15print_formattedERSojbjPKcd = comdat any

$_ZNK6dealii17BlockSparseMatrixIfE20get_sparsity_patternEv = comdat any

$_ZNK6dealii17BlockSparseMatrixIfE18memory_consumptionEv = comdat any

$_ZN6dealii17MemoryConsumption18memory_consumptionINS_5TableILi2ENS_12SmartPointerINS_12SparseMatrixIfEEEEEEEEjRKT_ = comdat any

$_ZN6dealii17MemoryConsumption18memory_consumptionINS_12SparseMatrixIfEEEEjRKT_ = comdat any

$_ZNK6dealii12SmartPointerINS_12SparseMatrixIfEEEdeEv = comdat any

$_ZN6dealii17BlockSparseMatrixIdE25ExcBlockDimensionMismatchD2Ev = comdat any

$_ZN6dealii17BlockSparseMatrixIdE25ExcBlockDimensionMismatchD0Ev = comdat any

$_ZN6dealii17BlockSparseMatrixIfE25ExcBlockDimensionMismatchD2Ev = comdat any

$_ZN6dealii17BlockSparseMatrixIfE25ExcBlockDimensionMismatchD0Ev = comdat any

$_ZNSt6vectorIS_IdSaIdEESaIS1_EED2Ev = comdat any

$_ZNSt6vectorIS_IjSaIjEESaIS1_EED2Ev = comdat any

$_ZNSt6vectorIjSaIjEED2Ev = comdat any

$_ZN6dealii5TableILi2ENS_12SmartPointerINS_12SparseMatrixIdEEEEED2Ev = comdat any

$_ZN6dealii12BlockIndicesD2Ev = comdat any

$_ZN6dealii15BlockMatrixBaseINS_12SparseMatrixIdEEED2Ev = comdat any

$_ZN6dealii15BlockMatrixBaseINS_12SparseMatrixIdEEED0Ev = comdat any

$_ZSt8_DestroyIPSt6vectorIdSaIdEES2_EvT_S4_RSaIT0_E = comdat any

$_ZNSt12_Vector_baseISt6vectorIdSaIdEESaIS2_EE19_M_get_Tp_allocatorEv = comdat any

$_ZNSt12_Vector_baseISt6vectorIdSaIdEESaIS2_EED2Ev = comdat any

$_ZSt8_DestroyIPSt6vectorIdSaIdEEEvT_S4_ = comdat any

$_ZNSt12_Destroy_auxILb0EE9__destroyIPSt6vectorIdSaIdEEEEvT_S6_ = comdat any

$_ZSt8_DestroyISt6vectorIdSaIdEEEvPT_ = comdat any

$_ZSt11__addressofISt6vectorIdSaIdEEEPT_RS3_ = comdat any

$_ZNSt6vectorIdSaIdEED2Ev = comdat any

$_ZSt8_DestroyIPddEvT_S1_RSaIT0_E = comdat any

$_ZNSt12_Vector_baseIdSaIdEE19_M_get_Tp_allocatorEv = comdat any

$_ZNSt12_Vector_baseIdSaIdEED2Ev = comdat any

$_ZSt8_DestroyIPdEvT_S1_ = comdat any

$_ZNSt12_Destroy_auxILb1EE9__destroyIPdEEvT_S3_ = comdat any

$_ZNSt12_Vector_baseIdSaIdEE13_M_deallocateEPdm = comdat any

$_ZNSt12_Vector_baseIdSaIdEE12_Vector_implD2Ev = comdat any

$_ZNSt16allocator_traitsISaIdEE10deallocateERS0_Pdm = comdat any

$_ZN9__gnu_cxx13new_allocatorIdE10deallocateEPdm = comdat any

$_ZNSaIdED2Ev = comdat any

$_ZN9__gnu_cxx13new_allocatorIdED2Ev = comdat any

$_ZNSt12_Vector_baseISt6vectorIdSaIdEESaIS2_EE13_M_deallocateEPS2_m = comdat any

$_ZNSt12_Vector_baseISt6vectorIdSaIdEESaIS2_EE12_Vector_implD2Ev = comdat any

$_ZNSt16allocator_traitsISaISt6vectorIdSaIdEEEE10deallocateERS3_PS2_m = comdat any

$_ZN9__gnu_cxx13new_allocatorISt6vectorIdSaIdEEE10deallocateEPS3_m = comdat any

$_ZNSaISt6vectorIdSaIdEEED2Ev = comdat any

$_ZN9__gnu_cxx13new_allocatorISt6vectorIdSaIdEEED2Ev = comdat any

$_ZSt8_DestroyIPSt6vectorIjSaIjEES2_EvT_S4_RSaIT0_E = comdat any

$_ZNSt12_Vector_baseISt6vectorIjSaIjEESaIS2_EE19_M_get_Tp_allocatorEv = comdat any

$_ZNSt12_Vector_baseISt6vectorIjSaIjEESaIS2_EED2Ev = comdat any

$_ZSt8_DestroyIPSt6vectorIjSaIjEEEvT_S4_ = comdat any

$_ZNSt12_Destroy_auxILb0EE9__destroyIPSt6vectorIjSaIjEEEEvT_S6_ = comdat any

$_ZSt8_DestroyISt6vectorIjSaIjEEEvPT_ = comdat any

$_ZSt11__addressofISt6vectorIjSaIjEEEPT_RS3_ = comdat any

$_ZNSt12_Vector_baseISt6vectorIjSaIjEESaIS2_EE13_M_deallocateEPS2_m = comdat any

$_ZNSt12_Vector_baseISt6vectorIjSaIjEESaIS2_EE12_Vector_implD2Ev = comdat any

$_ZNSt16allocator_traitsISaISt6vectorIjSaIjEEEE10deallocateERS3_PS2_m = comdat any

$_ZN9__gnu_cxx13new_allocatorISt6vectorIjSaIjEEE10deallocateEPS3_m = comdat any

$_ZNSaISt6vectorIjSaIjEEED2Ev = comdat any

$_ZN9__gnu_cxx13new_allocatorISt6vectorIjSaIjEEED2Ev = comdat any

$_ZSt8_DestroyIPjjEvT_S1_RSaIT0_E = comdat any

$_ZNSt12_Vector_baseIjSaIjEE19_M_get_Tp_allocatorEv = comdat any

$_ZNSt12_Vector_baseIjSaIjEED2Ev = comdat any

$_ZSt8_DestroyIPjEvT_S1_ = comdat any

$_ZNSt12_Destroy_auxILb1EE9__destroyIPjEEvT_S3_ = comdat any

$_ZNSt12_Vector_baseIjSaIjEE13_M_deallocateEPjm = comdat any

$_ZNSt12_Vector_baseIjSaIjEE12_Vector_implD2Ev = comdat any

$_ZNSt16allocator_traitsISaIjEE10deallocateERS0_Pjm = comdat any

$_ZN9__gnu_cxx13new_allocatorIjE10deallocateEPjm = comdat any

$_ZN9__gnu_cxx13new_allocatorIjED2Ev = comdat any

$_ZN6dealii12SmartPointerINS_12SparseMatrixIdEEED2Ev = comdat any

$_ZN6dealii9TableBaseILi2ENS_12SmartPointerINS_12SparseMatrixIdEEEEED2Ev = comdat any

$_ZN6dealii9TableBaseILi2ENS_12SmartPointerINS_12SparseMatrixIdEEEEED0Ev = comdat any

$_ZNK6dealii11Subscriptor11unsubscribeEPKc = comdat any

$_ZNSt6vectorIjSaIjEEaSERKS1_ = comdat any

$_ZNKSt6vectorIjSaIjEE4sizeEv = comdat any

$_ZNKSt6vectorIjSaIjEE8capacityEv = comdat any

$_ZNSt6vectorIjSaIjEE20_M_allocate_and_copyIN9__gnu_cxx17__normal_iteratorIPKjS1_EEEEPjmT_S9_ = comdat any

$_ZNKSt6vectorIjSaIjEE5beginEv = comdat any

$_ZNKSt6vectorIjSaIjEE3endEv = comdat any

$_ZSt8_DestroyIN9__gnu_cxx17__normal_iteratorIPjSt6vectorIjSaIjEEEEjEvT_S7_RSaIT0_E = comdat any

$_ZSt4copyIN9__gnu_cxx17__normal_iteratorIPKjSt6vectorIjSaIjEEEENS1_IPjS6_EEET0_T_SB_SA_ = comdat any

$_ZNSt6vectorIjSaIjEE5beginEv = comdat any

$_ZNSt6vectorIjSaIjEE3endEv = comdat any

$_ZSt4copyIPjS0_ET0_T_S2_S1_ = comdat any

$_ZSt22__uninitialized_copy_aIPjS0_jET0_T_S2_S1_RSaIT1_E = comdat any

$_ZNSt12_Vector_baseIjSaIjEE11_M_allocateEm = comdat any

$_ZSt22__uninitialized_copy_aIN9__gnu_cxx17__normal_iteratorIPKjSt6vectorIjSaIjEEEEPjjET0_T_SA_S9_RSaIT1_E = comdat any

$_ZNSt16allocator_traitsISaIjEE8allocateERS0_m = comdat any

$_ZN9__gnu_cxx13new_allocatorIjE8allocateEmPKv = comdat any

$_ZNK9__gnu_cxx13new_allocatorIjE11_M_max_sizeEv = comdat any

$_ZSt18uninitialized_copyIN9__gnu_cxx17__normal_iteratorIPKjSt6vectorIjSaIjEEEEPjET0_T_SA_S9_ = comdat any

$_ZNSt20__uninitialized_copyILb1EE13__uninit_copyIN9__gnu_cxx17__normal_iteratorIPKjSt6vectorIjSaIjEEEEPjEET0_T_SC_SB_ = comdat any

$_ZSt4copyIN9__gnu_cxx17__normal_iteratorIPKjSt6vectorIjSaIjEEEEPjET0_T_SA_S9_ = comdat any

$_ZSt13__copy_move_aILb0EN9__gnu_cxx17__normal_iteratorIPKjSt6vectorIjSaIjEEEEPjET1_T0_SA_S9_ = comdat any

$_ZSt12__miter_baseIN9__gnu_cxx17__normal_iteratorIPKjSt6vectorIjSaIjEEEEET_S8_ = comdat any

$_ZSt12__niter_wrapIPjET_RKS1_S1_ = comdat any

$_ZSt14__copy_move_a1ILb0EPKjPjET1_T0_S4_S3_ = comdat any

$_ZSt12__niter_baseIPKjSt6vectorIjSaIjEEET_N9__gnu_cxx17__normal_iteratorIS5_T0_EE = comdat any

$_ZSt12__niter_baseIPjET_S1_ = comdat any

$_ZSt14__copy_move_a2ILb0EPKjPjET1_T0_S4_S3_ = comdat any

$_ZNSt11__copy_moveILb0ELb1ESt26random_access_iterator_tagE8__copy_mIjEEPT_PKS3_S6_S4_ = comdat any

$_ZNK9__gnu_cxx17__normal_iteratorIPKjSt6vectorIjSaIjEEE4baseEv = comdat any

$_ZN9__gnu_cxx17__normal_iteratorIPKjSt6vectorIjSaIjEEEC2ERKS2_ = comdat any

$_ZSt8_DestroyIN9__gnu_cxx17__normal_iteratorIPjSt6vectorIjSaIjEEEEEvT_S7_ = comdat any

$_ZNSt12_Destroy_auxILb1EE9__destroyIN9__gnu_cxx17__normal_iteratorIPjSt6vectorIjSaIjEEEEEEvT_S9_ = comdat any

$_ZSt13__copy_move_aILb0EN9__gnu_cxx17__normal_iteratorIPKjSt6vectorIjSaIjEEEENS1_IPjS6_EEET1_T0_SB_SA_ = comdat any

$_ZSt12__niter_wrapIN9__gnu_cxx17__normal_iteratorIPjSt6vectorIjSaIjEEEES2_ET_S7_T0_ = comdat any

$_ZSt12__niter_baseIPjSt6vectorIjSaIjEEET_N9__gnu_cxx17__normal_iteratorIS4_T0_EE = comdat any

$_ZNK9__gnu_cxx17__normal_iteratorIPjSt6vectorIjSaIjEEEplEl = comdat any

$_ZN9__gnu_cxx17__normal_iteratorIPjSt6vectorIjSaIjEEEC2ERKS1_ = comdat any

$_ZNK9__gnu_cxx17__normal_iteratorIPjSt6vectorIjSaIjEEE4baseEv = comdat any

$_ZSt13__copy_move_aILb0EPjS0_ET1_T0_S2_S1_ = comdat any

$_ZSt12__miter_baseIPjET_S1_ = comdat any

$_ZSt14__copy_move_a1ILb0EPjS0_ET1_T0_S2_S1_ = comdat any

$_ZSt14__copy_move_a2ILb0EPjS0_ET1_T0_S2_S1_ = comdat any

$_ZSt18uninitialized_copyIPjS0_ET0_T_S2_S1_ = comdat any

$_ZNSt20__uninitialized_copyILb1EE13__uninit_copyIPjS2_EET0_T_S4_S3_ = comdat any

$_ZN6dealii5TableILi2ENS_12SmartPointerINS_12SparseMatrixIfEEEEED2Ev = comdat any

$_ZN6dealii15BlockMatrixBaseINS_12SparseMatrixIfEEED2Ev = comdat any

$_ZN6dealii15BlockMatrixBaseINS_12SparseMatrixIfEEED0Ev = comdat any

$_ZN6dealii12SmartPointerINS_12SparseMatrixIfEEED2Ev = comdat any

$_ZN6dealii9TableBaseILi2ENS_12SmartPointerINS_12SparseMatrixIfEEEEED2Ev = comdat any

$_ZN6dealii9TableBaseILi2ENS_12SmartPointerINS_12SparseMatrixIfEEEEED0Ev = comdat any

$_ZNK6dealii11Subscriptor9subscribeEPKc = comdat any

$_ZN6dealii12BlockIndicesC2Ej = comdat any

$_ZN6dealii5TableILi2ENS_12SmartPointerINS_12SparseMatrixIdEEEEEC2Ev = comdat any

$_ZNSt6vectorIjSaIjEEC2Ev = comdat any

$_ZNSt6vectorIS_IjSaIjEESaIS1_EEC2Ev = comdat any

$_ZNSt6vectorIS_IdSaIdEESaIS1_EEC2Ev = comdat any

$_ZNSaIjEC2Ev = comdat any

$_ZNSt6vectorIjSaIjEEC2EmRKS0_ = comdat any

$_ZNSaIjED2Ev = comdat any

$_ZNSt6vectorIjSaIjEEixEm = comdat any

$_ZN9__gnu_cxx13new_allocatorIjEC2Ev = comdat any

$_ZNSt6vectorIjSaIjEE17_S_check_init_lenEmRKS0_ = comdat any

$_ZNSt12_Vector_baseIjSaIjEEC2EmRKS0_ = comdat any

$_ZNSt6vectorIjSaIjEE21_M_default_initializeEm = comdat any

$_ZNSt6vectorIjSaIjEE11_S_max_sizeERKS0_ = comdat any

$_ZNSaIjEC2ERKS_ = comdat any

$_ZNSt16allocator_traitsISaIjEE8max_sizeERKS0_ = comdat any

$_ZSt3minImERKT_S2_S2_ = comdat any

$_ZNK9__gnu_cxx13new_allocatorIjE8max_sizeEv = comdat any

$_ZN9__gnu_cxx13new_allocatorIjEC2ERKS1_ = comdat any

$_ZNSt12_Vector_baseIjSaIjEE12_Vector_implC2ERKS0_ = comdat any

$_ZNSt12_Vector_baseIjSaIjEE17_M_create_storageEm = comdat any

$_ZNSt12_Vector_baseIjSaIjEE17_Vector_impl_dataC2Ev = comdat any

$_ZSt27__uninitialized_default_n_aIPjmjET_S1_T0_RSaIT1_E = comdat any

$_ZSt25__uninitialized_default_nIPjmET_S1_T0_ = comdat any

$_ZNSt27__uninitialized_default_n_1ILb1EE18__uninit_default_nIPjmEET_S3_T0_ = comdat any

$_ZSt6fill_nIPjmjET_S1_T0_RKT1_ = comdat any

$_ZSt10__fill_n_aIPjmjET_S1_T0_RKT1_St26random_access_iterator_tag = comdat any

$_ZSt17__size_to_integerm = comdat any

$_ZSt19__iterator_categoryIPjENSt15iterator_traitsIT_E17iterator_categoryERKS2_ = comdat any

$_ZSt8__fill_aIPjjEvT_S1_RKT0_ = comdat any

$_ZSt9__fill_a1IPjjEN9__gnu_cxx11__enable_ifIXsr11__is_scalarIT0_EE7__valueEvE6__typeET_S6_RKS3_ = comdat any

$_ZN6dealii9TableBaseILi2ENS_12SmartPointerINS_12SparseMatrixIdEEEEEC2Ev = comdat any

$_ZN6dealii5TableILi2ENS_12SmartPointerINS_12SparseMatrixIdEEEEED0Ev = comdat any

$_ZN6dealii12TableIndicesILi2EEC2Ev = comdat any

$_ZNSt12_Vector_baseIjSaIjEEC2Ev = comdat any

$_ZNSt12_Vector_baseIjSaIjEE12_Vector_implC2Ev = comdat any

$_ZNSt12_Vector_baseISt6vectorIjSaIjEESaIS2_EEC2Ev = comdat any

$_ZNSt12_Vector_baseISt6vectorIjSaIjEESaIS2_EE12_Vector_implC2Ev = comdat any

$_ZNSaISt6vectorIjSaIjEEEC2Ev = comdat any

$_ZNSt12_Vector_baseISt6vectorIjSaIjEESaIS2_EE17_Vector_impl_dataC2Ev = comdat any

$_ZN9__gnu_cxx13new_allocatorISt6vectorIjSaIjEEEC2Ev = comdat any

$_ZNSt12_Vector_baseISt6vectorIdSaIdEESaIS2_EEC2Ev = comdat any

$_ZNSt12_Vector_baseISt6vectorIdSaIdEESaIS2_EE12_Vector_implC2Ev = comdat any

$_ZNSaISt6vectorIdSaIdEEEC2Ev = comdat any

$_ZNSt12_Vector_baseISt6vectorIdSaIdEESaIS2_EE17_Vector_impl_dataC2Ev = comdat any

$_ZN9__gnu_cxx13new_allocatorISt6vectorIdSaIdEEEC2Ev = comdat any

$_ZNK6dealii12BlockIndices4sizeEv = comdat any

$_ZNK6dealii12SmartPointerINS_12SparseMatrixIdEEEcvPS2_Ev = comdat any

$_ZN6dealii9TableBaseILi2ENS_12SmartPointerINS_12SparseMatrixIdEEEEE6reinitERKNS_12TableIndicesILi2EEE = comdat any

$_ZN6dealii12TableIndicesILi2EEC2Ejj = comdat any

$_ZNK6dealii9TableBaseILi2ENS_12SmartPointerINS_12SparseMatrixIdEEEEE10n_elementsEv = comdat any

$_ZN6dealii12SmartPointerINS_12SparseMatrixIdEEEC2Ev = comdat any

$_ZN6dealii9TableBaseILi2ENS_12SmartPointerINS_12SparseMatrixIdEEEEE12reset_valuesEv = comdat any

$_ZNK6dealii16TableIndicesBaseILi2EEixEj = comdat any

$_ZSt6fill_nIPN6dealii12SmartPointerINS0_12SparseMatrixIdEEEEjS4_ET_S6_T0_RKT1_ = comdat any

$_ZSt10__fill_n_aIPN6dealii12SmartPointerINS0_12SparseMatrixIdEEEEjS4_ET_S6_T0_RKT1_St26random_access_iterator_tag = comdat any

$_ZSt17__size_to_integerj = comdat any

$_ZSt19__iterator_categoryIPN6dealii12SmartPointerINS0_12SparseMatrixIdEEEEENSt15iterator_traitsIT_E17iterator_categoryERKS7_ = comdat any

$_ZSt8__fill_aIPN6dealii12SmartPointerINS0_12SparseMatrixIdEEEES4_EvT_S6_RKT0_ = comdat any

$_ZSt9__fill_a1IPN6dealii12SmartPointerINS0_12SparseMatrixIdEEEES4_EN9__gnu_cxx11__enable_ifIXntsr11__is_scalarIT0_EE7__valueEvE6__typeET_SB_RKS8_ = comdat any

$_ZN6dealii12SmartPointerINS_12SparseMatrixIdEEEaSERKS3_ = comdat any

$_ZNK6dealii5TableILi2ENS_12SmartPointerINS_15SparsityPatternEEEEixEj = comdat any

$_ZNK6dealii8internal18TableBaseAccessors8AccessorILi2ENS_12SmartPointerINS_15SparsityPatternEEELb1ELj1EEixEj = comdat any

$_ZNK6dealii12SmartPointerINS_15SparsityPatternEEdeEv = comdat any

$_ZNK6dealii5TableILi2ENS_12SmartPointerINS_15SparsityPatternEEEE6n_colsEv = comdat any

$_ZN6dealii8internal18TableBaseAccessors8AccessorILi2ENS_12SmartPointerINS_15SparsityPatternEEELb1ELj1EEC2ERKNS_9TableBaseILi2ES5_EEPKS5_ = comdat any

$_ZNK6dealii5TableILi2ENS_12SmartPointerINS_12SparseMatrixIdEEEEE6n_colsEv = comdat any

$_ZN6dealii8internal18TableBaseAccessors8AccessorILi2ENS_12SmartPointerINS_12SparseMatrixIdEEEELb0ELj1EEC2ERKNS_9TableBaseILi2ES6_EEPS6_ = comdat any

$_ZN6dealii8internal18TableBaseAccessors8AccessorILi2ENS_12SmartPointerINS_12SparseMatrixIdEEEELb1ELj1EEC2ERKNS_9TableBaseILi2ES6_EEPKS6_ = comdat any

$_ZNK6dealii9TableBaseILi2ENS_12SmartPointerINS_12SparseMatrixIdEEEEE18memory_consumptionEv = comdat any

$_ZN6dealii5TableILi2ENS_12SmartPointerINS_12SparseMatrixIfEEEEEC2Ev = comdat any

$_ZN6dealii9TableBaseILi2ENS_12SmartPointerINS_12SparseMatrixIfEEEEEC2Ev = comdat any

$_ZN6dealii5TableILi2ENS_12SmartPointerINS_12SparseMatrixIfEEEEED0Ev = comdat any

$_ZNK6dealii12SmartPointerINS_12SparseMatrixIfEEEcvPS2_Ev = comdat any

$_ZN6dealii9TableBaseILi2ENS_12SmartPointerINS_12SparseMatrixIfEEEEE6reinitERKNS_12TableIndicesILi2EEE = comdat any

$_ZNK6dealii9TableBaseILi2ENS_12SmartPointerINS_12SparseMatrixIfEEEEE10n_elementsEv = comdat any

$_ZN6dealii12SmartPointerINS_12SparseMatrixIfEEEC2Ev = comdat any

$_ZN6dealii9TableBaseILi2ENS_12SmartPointerINS_12SparseMatrixIfEEEEE12reset_valuesEv = comdat any

$_ZSt6fill_nIPN6dealii12SmartPointerINS0_12SparseMatrixIfEEEEjS4_ET_S6_T0_RKT1_ = comdat any

$_ZSt10__fill_n_aIPN6dealii12SmartPointerINS0_12SparseMatrixIfEEEEjS4_ET_S6_T0_RKT1_St26random_access_iterator_tag = comdat any

$_ZSt19__iterator_categoryIPN6dealii12SmartPointerINS0_12SparseMatrixIfEEEEENSt15iterator_traitsIT_E17iterator_categoryERKS7_ = comdat any

$_ZSt8__fill_aIPN6dealii12SmartPointerINS0_12SparseMatrixIfEEEES4_EvT_S6_RKT0_ = comdat any

$_ZSt9__fill_a1IPN6dealii12SmartPointerINS0_12SparseMatrixIfEEEES4_EN9__gnu_cxx11__enable_ifIXntsr11__is_scalarIT0_EE7__valueEvE6__typeET_SB_RKS8_ = comdat any

$_ZN6dealii12SmartPointerINS_12SparseMatrixIfEEEaSERKS3_ = comdat any

$_ZNK6dealii5TableILi2ENS_12SmartPointerINS_12SparseMatrixIfEEEEE6n_colsEv = comdat any

$_ZN6dealii8internal18TableBaseAccessors8AccessorILi2ENS_12SmartPointerINS_12SparseMatrixIfEEEELb0ELj1EEC2ERKNS_9TableBaseILi2ES6_EEPS6_ = comdat any

$_ZN6dealii8internal18TableBaseAccessors8AccessorILi2ENS_12SmartPointerINS_12SparseMatrixIfEEEELb1ELj1EEC2ERKNS_9TableBaseILi2ES6_EEPKS6_ = comdat any

$_ZNK6dealii9TableBaseILi2ENS_12SmartPointerINS_12SparseMatrixIfEEEEE18memory_consumptionEv = comdat any

$_ZTVN6dealii17BlockSparseMatrixIdEE = comdat any

$_ZTVN6dealii17BlockSparseMatrixIfEE = comdat any

$_ZTSN6dealii17BlockSparseMatrixIdEE = comdat any

$_ZTSN6dealii15BlockMatrixBaseINS_12SparseMatrixIdEEEE = comdat any

$_ZTIN6dealii15BlockMatrixBaseINS_12SparseMatrixIdEEEE = comdat any

$_ZTIN6dealii17BlockSparseMatrixIdEE = comdat any

$_ZTVN6dealii17BlockSparseMatrixIdE25ExcBlockDimensionMismatchE = comdat any

$_ZTSN6dealii17BlockSparseMatrixIdE25ExcBlockDimensionMismatchE = comdat any

$_ZTIN6dealii17BlockSparseMatrixIdE25ExcBlockDimensionMismatchE = comdat any

$_ZTSN6dealii17BlockSparseMatrixIfEE = comdat any

$_ZTSN6dealii15BlockMatrixBaseINS_12SparseMatrixIfEEEE = comdat any

$_ZTIN6dealii15BlockMatrixBaseINS_12SparseMatrixIfEEEE = comdat any

$_ZTIN6dealii17BlockSparseMatrixIfEE = comdat any

$_ZTVN6dealii17BlockSparseMatrixIfE25ExcBlockDimensionMismatchE = comdat any

$_ZTSN6dealii17BlockSparseMatrixIfE25ExcBlockDimensionMismatchE = comdat any

$_ZTIN6dealii17BlockSparseMatrixIfE25ExcBlockDimensionMismatchE = comdat any

$_ZTVN6dealii15BlockMatrixBaseINS_12SparseMatrixIdEEEE = comdat any

$_ZTVN6dealii9TableBaseILi2ENS_12SmartPointerINS_12SparseMatrixIdEEEEEE = comdat any

$_ZTSN6dealii9TableBaseILi2ENS_12SmartPointerINS_12SparseMatrixIdEEEEEE = comdat any

$_ZTIN6dealii9TableBaseILi2ENS_12SmartPointerINS_12SparseMatrixIdEEEEEE = comdat any

$_ZTVN6dealii15BlockMatrixBaseINS_12SparseMatrixIfEEEE = comdat any

$_ZTVN6dealii9TableBaseILi2ENS_12SmartPointerINS_12SparseMatrixIfEEEEEE = comdat any

$_ZTSN6dealii9TableBaseILi2ENS_12SmartPointerINS_12SparseMatrixIfEEEEEE = comdat any

$_ZTIN6dealii9TableBaseILi2ENS_12SmartPointerINS_12SparseMatrixIfEEEEEE = comdat any

$_ZTVN6dealii5TableILi2ENS_12SmartPointerINS_12SparseMatrixIdEEEEEE = comdat any

$_ZTSN6dealii5TableILi2ENS_12SmartPointerINS_12SparseMatrixIdEEEEEE = comdat any

$_ZTIN6dealii5TableILi2ENS_12SmartPointerINS_12SparseMatrixIdEEEEEE = comdat any

$_ZTVN6dealii5TableILi2ENS_12SmartPointerINS_12SparseMatrixIfEEEEEE = comdat any

$_ZTSN6dealii5TableILi2ENS_12SmartPointerINS_12SparseMatrixIfEEEEEE = comdat any

$_ZTIN6dealii5TableILi2ENS_12SmartPointerINS_12SparseMatrixIfEEEEEE = comdat any

@_ZN12_GLOBAL__N_12_1E = internal global %"struct.boost::arg" zeroinitializer, align 1, !dbg !0
@_ZN12_GLOBAL__N_12_2E = internal global %"struct.boost::arg.0" zeroinitializer, align 1, !dbg !15
@_ZN12_GLOBAL__N_12_3E = internal global %"struct.boost::arg.2" zeroinitializer, align 1, !dbg !25
@_ZN12_GLOBAL__N_12_4E = internal global %"struct.boost::arg.4" zeroinitializer, align 1, !dbg !35
@_ZN12_GLOBAL__N_12_5E = internal global %"struct.boost::arg.6" zeroinitializer, align 1, !dbg !45
@_ZN12_GLOBAL__N_12_6E = internal global %"struct.boost::arg.8" zeroinitializer, align 1, !dbg !55
@_ZN12_GLOBAL__N_12_7E = internal global %"struct.boost::arg.10" zeroinitializer, align 1, !dbg !65
@_ZN12_GLOBAL__N_12_8E = internal global %"struct.boost::arg.12" zeroinitializer, align 1, !dbg !75
@_ZN12_GLOBAL__N_12_9E = internal global %"struct.boost::arg.14" zeroinitializer, align 1, !dbg !85
@_ZStL8__ioinit = internal global %"class.std::ios_base::Init" zeroinitializer, align 1, !dbg !95
@__dso_handle = external hidden global i8
@_ZTVN6dealii17BlockSparseMatrixIdEE = weak_odr dso_local unnamed_addr constant { [5 x i8*] } { [5 x i8*] [i8* null, i8* bitcast ({ i8*, i8*, i8* }* @_ZTIN6dealii17BlockSparseMatrixIdEE to i8*), i8* bitcast (void (%"class.dealii::BlockSparseMatrix"*)* @_ZN6dealii17BlockSparseMatrixIdED1Ev to i8*), i8* bitcast (void (%"class.dealii::BlockSparseMatrix"*)* @_ZN6dealii17BlockSparseMatrixIdED0Ev to i8*), i8* bitcast (void (%"class.dealii::BlockSparseMatrix"*, %"class.dealii::BlockSparsityPattern"*)* @_ZN6dealii17BlockSparseMatrixIdE6reinitERKNS_20BlockSparsityPatternE to i8*)] }, comdat, align 8
@.str = private unnamed_addr constant [12 x i8] c"Component (\00", align 1
@.str.10 = private unnamed_addr constant [2 x i8] c",\00", align 1
@.str.11 = private unnamed_addr constant [2 x i8] c")\00", align 1
@_ZTVN6dealii17BlockSparseMatrixIfEE = weak_odr dso_local unnamed_addr constant { [5 x i8*] } { [5 x i8*] [i8* null, i8* bitcast ({ i8*, i8*, i8* }* @_ZTIN6dealii17BlockSparseMatrixIfEE to i8*), i8* bitcast (void (%"class.dealii::BlockSparseMatrix.42"*)* @_ZN6dealii17BlockSparseMatrixIfED1Ev to i8*), i8* bitcast (void (%"class.dealii::BlockSparseMatrix.42"*)* @_ZN6dealii17BlockSparseMatrixIfED0Ev to i8*), i8* bitcast (void (%"class.dealii::BlockSparseMatrix.42"*, %"class.dealii::BlockSparsityPattern"*)* @_ZN6dealii17BlockSparseMatrixIfE6reinitERKNS_20BlockSparsityPatternE to i8*)] }, comdat, align 8
@_ZTVN10__cxxabiv120__si_class_type_infoE = external dso_local global i8*
@_ZTSN6dealii17BlockSparseMatrixIdEE = weak_odr dso_local constant [32 x i8] c"N6dealii17BlockSparseMatrixIdEE\00", comdat, align 1
@_ZTSN6dealii15BlockMatrixBaseINS_12SparseMatrixIdEEEE = linkonce_odr dso_local constant [50 x i8] c"N6dealii15BlockMatrixBaseINS_12SparseMatrixIdEEEE\00", comdat, align 1
@_ZTIN6dealii11SubscriptorE = external dso_local constant i8*
@_ZTIN6dealii15BlockMatrixBaseINS_12SparseMatrixIdEEEE = linkonce_odr dso_local constant { i8*, i8*, i8* } { i8* bitcast (i8** getelementptr inbounds (i8*, i8** @_ZTVN10__cxxabiv120__si_class_type_infoE, i64 2) to i8*), i8* getelementptr inbounds ([50 x i8], [50 x i8]* @_ZTSN6dealii15BlockMatrixBaseINS_12SparseMatrixIdEEEE, i32 0, i32 0), i8* bitcast (i8** @_ZTIN6dealii11SubscriptorE to i8*) }, comdat, align 8
@_ZTIN6dealii17BlockSparseMatrixIdEE = weak_odr dso_local constant { i8*, i8*, i8* } { i8* bitcast (i8** getelementptr inbounds (i8*, i8** @_ZTVN10__cxxabiv120__si_class_type_infoE, i64 2) to i8*), i8* getelementptr inbounds ([32 x i8], [32 x i8]* @_ZTSN6dealii17BlockSparseMatrixIdEE, i32 0, i32 0), i8* bitcast ({ i8*, i8*, i8* }* @_ZTIN6dealii15BlockMatrixBaseINS_12SparseMatrixIdEEEE to i8*) }, comdat, align 8
@_ZTVN6dealii17BlockSparseMatrixIdE25ExcBlockDimensionMismatchE = weak_odr dso_local unnamed_addr constant { [6 x i8*] } { [6 x i8*] [i8* null, i8* bitcast ({ i8*, i8*, i8* }* @_ZTIN6dealii17BlockSparseMatrixIdE25ExcBlockDimensionMismatchE to i8*), i8* bitcast (void (%"class.dealii::BlockSparseMatrix<double>::ExcBlockDimensionMismatch"*)* @_ZN6dealii17BlockSparseMatrixIdE25ExcBlockDimensionMismatchD2Ev to i8*), i8* bitcast (void (%"class.dealii::BlockSparseMatrix<double>::ExcBlockDimensionMismatch"*)* @_ZN6dealii17BlockSparseMatrixIdE25ExcBlockDimensionMismatchD0Ev to i8*), i8* bitcast (i8* (%"class.dealii::ExceptionBase"*)* @_ZNK6dealii13ExceptionBase4whatEv to i8*), i8* bitcast (void (%"class.dealii::ExceptionBase"*, %"class.std::basic_ostream"*)* @_ZNK6dealii13ExceptionBase10print_infoERSo to i8*)] }, comdat, align 8
@_ZTSN6dealii17BlockSparseMatrixIdE25ExcBlockDimensionMismatchE = weak_odr dso_local constant [59 x i8] c"N6dealii17BlockSparseMatrixIdE25ExcBlockDimensionMismatchE\00", comdat, align 1
@_ZTIN6dealii13ExceptionBaseE = external dso_local constant i8*
@_ZTIN6dealii17BlockSparseMatrixIdE25ExcBlockDimensionMismatchE = weak_odr dso_local constant { i8*, i8*, i8* } { i8* bitcast (i8** getelementptr inbounds (i8*, i8** @_ZTVN10__cxxabiv120__si_class_type_infoE, i64 2) to i8*), i8* getelementptr inbounds ([59 x i8], [59 x i8]* @_ZTSN6dealii17BlockSparseMatrixIdE25ExcBlockDimensionMismatchE, i32 0, i32 0), i8* bitcast (i8** @_ZTIN6dealii13ExceptionBaseE to i8*) }, comdat, align 8
@_ZTSN6dealii17BlockSparseMatrixIfEE = weak_odr dso_local constant [32 x i8] c"N6dealii17BlockSparseMatrixIfEE\00", comdat, align 1
@_ZTSN6dealii15BlockMatrixBaseINS_12SparseMatrixIfEEEE = linkonce_odr dso_local constant [50 x i8] c"N6dealii15BlockMatrixBaseINS_12SparseMatrixIfEEEE\00", comdat, align 1
@_ZTIN6dealii15BlockMatrixBaseINS_12SparseMatrixIfEEEE = linkonce_odr dso_local constant { i8*, i8*, i8* } { i8* bitcast (i8** getelementptr inbounds (i8*, i8** @_ZTVN10__cxxabiv120__si_class_type_infoE, i64 2) to i8*), i8* getelementptr inbounds ([50 x i8], [50 x i8]* @_ZTSN6dealii15BlockMatrixBaseINS_12SparseMatrixIfEEEE, i32 0, i32 0), i8* bitcast (i8** @_ZTIN6dealii11SubscriptorE to i8*) }, comdat, align 8
@_ZTIN6dealii17BlockSparseMatrixIfEE = weak_odr dso_local constant { i8*, i8*, i8* } { i8* bitcast (i8** getelementptr inbounds (i8*, i8** @_ZTVN10__cxxabiv120__si_class_type_infoE, i64 2) to i8*), i8* getelementptr inbounds ([32 x i8], [32 x i8]* @_ZTSN6dealii17BlockSparseMatrixIfEE, i32 0, i32 0), i8* bitcast ({ i8*, i8*, i8* }* @_ZTIN6dealii15BlockMatrixBaseINS_12SparseMatrixIfEEEE to i8*) }, comdat, align 8
@_ZTVN6dealii17BlockSparseMatrixIfE25ExcBlockDimensionMismatchE = weak_odr dso_local unnamed_addr constant { [6 x i8*] } { [6 x i8*] [i8* null, i8* bitcast ({ i8*, i8*, i8* }* @_ZTIN6dealii17BlockSparseMatrixIfE25ExcBlockDimensionMismatchE to i8*), i8* bitcast (void (%"class.dealii::BlockSparseMatrix<float>::ExcBlockDimensionMismatch"*)* @_ZN6dealii17BlockSparseMatrixIfE25ExcBlockDimensionMismatchD2Ev to i8*), i8* bitcast (void (%"class.dealii::BlockSparseMatrix<float>::ExcBlockDimensionMismatch"*)* @_ZN6dealii17BlockSparseMatrixIfE25ExcBlockDimensionMismatchD0Ev to i8*), i8* bitcast (i8* (%"class.dealii::ExceptionBase"*)* @_ZNK6dealii13ExceptionBase4whatEv to i8*), i8* bitcast (void (%"class.dealii::ExceptionBase"*, %"class.std::basic_ostream"*)* @_ZNK6dealii13ExceptionBase10print_infoERSo to i8*)] }, comdat, align 8
@_ZTSN6dealii17BlockSparseMatrixIfE25ExcBlockDimensionMismatchE = weak_odr dso_local constant [59 x i8] c"N6dealii17BlockSparseMatrixIfE25ExcBlockDimensionMismatchE\00", comdat, align 1
@_ZTIN6dealii17BlockSparseMatrixIfE25ExcBlockDimensionMismatchE = weak_odr dso_local constant { i8*, i8*, i8* } { i8* bitcast (i8** getelementptr inbounds (i8*, i8** @_ZTVN10__cxxabiv120__si_class_type_infoE, i64 2) to i8*), i8* getelementptr inbounds ([59 x i8], [59 x i8]* @_ZTSN6dealii17BlockSparseMatrixIfE25ExcBlockDimensionMismatchE, i32 0, i32 0), i8* bitcast (i8** @_ZTIN6dealii13ExceptionBaseE to i8*) }, comdat, align 8
@_ZTVN6dealii15BlockMatrixBaseINS_12SparseMatrixIdEEEE = linkonce_odr dso_local unnamed_addr constant { [4 x i8*] } { [4 x i8*] [i8* null, i8* bitcast ({ i8*, i8*, i8* }* @_ZTIN6dealii15BlockMatrixBaseINS_12SparseMatrixIdEEEE to i8*), i8* bitcast (void (%"class.dealii::BlockMatrixBase"*)* @_ZN6dealii15BlockMatrixBaseINS_12SparseMatrixIdEEED2Ev to i8*), i8* bitcast (void (%"class.dealii::BlockMatrixBase"*)* @_ZN6dealii15BlockMatrixBaseINS_12SparseMatrixIdEEED0Ev to i8*)] }, comdat, align 8
@_ZTVN6dealii9TableBaseILi2ENS_12SmartPointerINS_12SparseMatrixIdEEEEEE = linkonce_odr dso_local unnamed_addr constant { [4 x i8*] } { [4 x i8*] [i8* null, i8* bitcast ({ i8*, i8*, i8* }* @_ZTIN6dealii9TableBaseILi2ENS_12SmartPointerINS_12SparseMatrixIdEEEEEE to i8*), i8* bitcast (void (%"class.dealii::TableBase"*)* @_ZN6dealii9TableBaseILi2ENS_12SmartPointerINS_12SparseMatrixIdEEEEED2Ev to i8*), i8* bitcast (void (%"class.dealii::TableBase"*)* @_ZN6dealii9TableBaseILi2ENS_12SmartPointerINS_12SparseMatrixIdEEEEED0Ev to i8*)] }, comdat, align 8
@_ZTSN6dealii9TableBaseILi2ENS_12SmartPointerINS_12SparseMatrixIdEEEEEE = linkonce_odr dso_local constant [67 x i8] c"N6dealii9TableBaseILi2ENS_12SmartPointerINS_12SparseMatrixIdEEEEEE\00", comdat, align 1
@_ZTIN6dealii9TableBaseILi2ENS_12SmartPointerINS_12SparseMatrixIdEEEEEE = linkonce_odr dso_local constant { i8*, i8*, i8* } { i8* bitcast (i8** getelementptr inbounds (i8*, i8** @_ZTVN10__cxxabiv120__si_class_type_infoE, i64 2) to i8*), i8* getelementptr inbounds ([67 x i8], [67 x i8]* @_ZTSN6dealii9TableBaseILi2ENS_12SmartPointerINS_12SparseMatrixIdEEEEEE, i32 0, i32 0), i8* bitcast (i8** @_ZTIN6dealii11SubscriptorE to i8*) }, comdat, align 8
@_ZTVN6dealii15BlockMatrixBaseINS_12SparseMatrixIfEEEE = linkonce_odr dso_local unnamed_addr constant { [4 x i8*] } { [4 x i8*] [i8* null, i8* bitcast ({ i8*, i8*, i8* }* @_ZTIN6dealii15BlockMatrixBaseINS_12SparseMatrixIfEEEE to i8*), i8* bitcast (void (%"class.dealii::BlockMatrixBase.43"*)* @_ZN6dealii15BlockMatrixBaseINS_12SparseMatrixIfEEED2Ev to i8*), i8* bitcast (void (%"class.dealii::BlockMatrixBase.43"*)* @_ZN6dealii15BlockMatrixBaseINS_12SparseMatrixIfEEED0Ev to i8*)] }, comdat, align 8
@_ZTVN6dealii9TableBaseILi2ENS_12SmartPointerINS_12SparseMatrixIfEEEEEE = linkonce_odr dso_local unnamed_addr constant { [4 x i8*] } { [4 x i8*] [i8* null, i8* bitcast ({ i8*, i8*, i8* }* @_ZTIN6dealii9TableBaseILi2ENS_12SmartPointerINS_12SparseMatrixIfEEEEEE to i8*), i8* bitcast (void (%"class.dealii::TableBase.45"*)* @_ZN6dealii9TableBaseILi2ENS_12SmartPointerINS_12SparseMatrixIfEEEEED2Ev to i8*), i8* bitcast (void (%"class.dealii::TableBase.45"*)* @_ZN6dealii9TableBaseILi2ENS_12SmartPointerINS_12SparseMatrixIfEEEEED0Ev to i8*)] }, comdat, align 8
@_ZTSN6dealii9TableBaseILi2ENS_12SmartPointerINS_12SparseMatrixIfEEEEEE = linkonce_odr dso_local constant [67 x i8] c"N6dealii9TableBaseILi2ENS_12SmartPointerINS_12SparseMatrixIfEEEEEE\00", comdat, align 1
@_ZTIN6dealii9TableBaseILi2ENS_12SmartPointerINS_12SparseMatrixIfEEEEEE = linkonce_odr dso_local constant { i8*, i8*, i8* } { i8* bitcast (i8** getelementptr inbounds (i8*, i8** @_ZTVN10__cxxabiv120__si_class_type_infoE, i64 2) to i8*), i8* getelementptr inbounds ([67 x i8], [67 x i8]* @_ZTSN6dealii9TableBaseILi2ENS_12SmartPointerINS_12SparseMatrixIfEEEEEE, i32 0, i32 0), i8* bitcast (i8** @_ZTIN6dealii11SubscriptorE to i8*) }, comdat, align 8
@.str.12 = private unnamed_addr constant [49 x i8] c"cannot create std::vector larger than max_size()\00", align 1
@_ZTVN6dealii5TableILi2ENS_12SmartPointerINS_12SparseMatrixIdEEEEEE = linkonce_odr dso_local unnamed_addr constant { [4 x i8*] } { [4 x i8*] [i8* null, i8* bitcast ({ i8*, i8*, i8* }* @_ZTIN6dealii5TableILi2ENS_12SmartPointerINS_12SparseMatrixIdEEEEEE to i8*), i8* bitcast (void (%"class.dealii::Table"*)* @_ZN6dealii5TableILi2ENS_12SmartPointerINS_12SparseMatrixIdEEEEED2Ev to i8*), i8* bitcast (void (%"class.dealii::Table"*)* @_ZN6dealii5TableILi2ENS_12SmartPointerINS_12SparseMatrixIdEEEEED0Ev to i8*)] }, comdat, align 8
@_ZTSN6dealii5TableILi2ENS_12SmartPointerINS_12SparseMatrixIdEEEEEE = linkonce_odr dso_local constant [63 x i8] c"N6dealii5TableILi2ENS_12SmartPointerINS_12SparseMatrixIdEEEEEE\00", comdat, align 1
@_ZTIN6dealii5TableILi2ENS_12SmartPointerINS_12SparseMatrixIdEEEEEE = linkonce_odr dso_local constant { i8*, i8*, i8* } { i8* bitcast (i8** getelementptr inbounds (i8*, i8** @_ZTVN10__cxxabiv120__si_class_type_infoE, i64 2) to i8*), i8* getelementptr inbounds ([63 x i8], [63 x i8]* @_ZTSN6dealii5TableILi2ENS_12SmartPointerINS_12SparseMatrixIdEEEEEE, i32 0, i32 0), i8* bitcast ({ i8*, i8*, i8* }* @_ZTIN6dealii9TableBaseILi2ENS_12SmartPointerINS_12SparseMatrixIdEEEEEE to i8*) }, comdat, align 8
@_ZTVN6dealii5TableILi2ENS_12SmartPointerINS_12SparseMatrixIfEEEEEE = linkonce_odr dso_local unnamed_addr constant { [4 x i8*] } { [4 x i8*] [i8* null, i8* bitcast ({ i8*, i8*, i8* }* @_ZTIN6dealii5TableILi2ENS_12SmartPointerINS_12SparseMatrixIfEEEEEE to i8*), i8* bitcast (void (%"class.dealii::Table.44"*)* @_ZN6dealii5TableILi2ENS_12SmartPointerINS_12SparseMatrixIfEEEEED2Ev to i8*), i8* bitcast (void (%"class.dealii::Table.44"*)* @_ZN6dealii5TableILi2ENS_12SmartPointerINS_12SparseMatrixIfEEEEED0Ev to i8*)] }, comdat, align 8
@_ZTSN6dealii5TableILi2ENS_12SmartPointerINS_12SparseMatrixIfEEEEEE = linkonce_odr dso_local constant [63 x i8] c"N6dealii5TableILi2ENS_12SmartPointerINS_12SparseMatrixIfEEEEEE\00", comdat, align 1
@_ZTIN6dealii5TableILi2ENS_12SmartPointerINS_12SparseMatrixIfEEEEEE = linkonce_odr dso_local constant { i8*, i8*, i8* } { i8* bitcast (i8** getelementptr inbounds (i8*, i8** @_ZTVN10__cxxabiv120__si_class_type_infoE, i64 2) to i8*), i8* getelementptr inbounds ([63 x i8], [63 x i8]* @_ZTSN6dealii5TableILi2ENS_12SmartPointerINS_12SparseMatrixIfEEEEEE, i32 0, i32 0), i8* bitcast ({ i8*, i8*, i8* }* @_ZTIN6dealii9TableBaseILi2ENS_12SmartPointerINS_12SparseMatrixIfEEEEEE to i8*) }, comdat, align 8
@llvm.global_ctors = appending global [1 x { i32, void ()*, i8* }] [{ i32, void ()*, i8* } { i32 65535, void ()* @_GLOBAL__sub_I_block_sparse_matrix.cc, i8* null }]

@_ZN6dealii17BlockSparseMatrixIdEC1Ev = weak_odr dso_local unnamed_addr alias void (%"class.dealii::BlockSparseMatrix"*), void (%"class.dealii::BlockSparseMatrix"*)* @_ZN6dealii17BlockSparseMatrixIdEC2Ev
@_ZN6dealii17BlockSparseMatrixIdEC1ERKNS_20BlockSparsityPatternE = weak_odr dso_local unnamed_addr alias void (%"class.dealii::BlockSparseMatrix"*, %"class.dealii::BlockSparsityPattern"*), void (%"class.dealii::BlockSparseMatrix"*, %"class.dealii::BlockSparsityPattern"*)* @_ZN6dealii17BlockSparseMatrixIdEC2ERKNS_20BlockSparsityPatternE
@_ZN6dealii17BlockSparseMatrixIdED1Ev = weak_odr dso_local unnamed_addr alias void (%"class.dealii::BlockSparseMatrix"*), void (%"class.dealii::BlockSparseMatrix"*)* @_ZN6dealii17BlockSparseMatrixIdED2Ev
@_ZN6dealii17BlockSparseMatrixIfEC1Ev = weak_odr dso_local unnamed_addr alias void (%"class.dealii::BlockSparseMatrix.42"*), void (%"class.dealii::BlockSparseMatrix.42"*)* @_ZN6dealii17BlockSparseMatrixIfEC2Ev
@_ZN6dealii17BlockSparseMatrixIfEC1ERKNS_20BlockSparsityPatternE = weak_odr dso_local unnamed_addr alias void (%"class.dealii::BlockSparseMatrix.42"*, %"class.dealii::BlockSparsityPattern"*), void (%"class.dealii::BlockSparseMatrix.42"*, %"class.dealii::BlockSparsityPattern"*)* @_ZN6dealii17BlockSparseMatrixIfEC2ERKNS_20BlockSparsityPatternE
@_ZN6dealii17BlockSparseMatrixIfED1Ev = weak_odr dso_local unnamed_addr alias void (%"class.dealii::BlockSparseMatrix.42"*), void (%"class.dealii::BlockSparseMatrix.42"*)* @_ZN6dealii17BlockSparseMatrixIfED2Ev

; Function Attrs: noinline uwtable
define internal void @__cxx_global_var_init() #0 section ".text.startup" !dbg !4326 {
entry:
  call void @_ZN5boost3argILi1EEC2Ev(%"struct.boost::arg"* @_ZN12_GLOBAL__N_12_1E), !dbg !4327
  ret void, !dbg !4327
}

; Function Attrs: noinline nounwind uwtable
define linkonce_odr dso_local void @_ZN5boost3argILi1EEC2Ev(%"struct.boost::arg"* %this) unnamed_addr #1 comdat align 2 !dbg !4328 {
entry:
  %this.addr = alloca %"struct.boost::arg"*, align 8
  store %"struct.boost::arg"* %this, %"struct.boost::arg"** %this.addr, align 8
  call void @llvm.dbg.declare(metadata %"struct.boost::arg"** %this.addr, metadata !4329, metadata !DIExpression()), !dbg !4331
  %this1 = load %"struct.boost::arg"*, %"struct.boost::arg"** %this.addr, align 8
  ret void, !dbg !4332
}

; Function Attrs: noinline uwtable
define internal void @__cxx_global_var_init.1() #0 section ".text.startup" !dbg !4333 {
entry:
  call void @_ZN5boost3argILi2EEC2Ev(%"struct.boost::arg.0"* @_ZN12_GLOBAL__N_12_2E), !dbg !4334
  ret void, !dbg !4334
}

; Function Attrs: noinline nounwind uwtable
define linkonce_odr dso_local void @_ZN5boost3argILi2EEC2Ev(%"struct.boost::arg.0"* %this) unnamed_addr #1 comdat align 2 !dbg !4335 {
entry:
  %this.addr = alloca %"struct.boost::arg.0"*, align 8
  store %"struct.boost::arg.0"* %this, %"struct.boost::arg.0"** %this.addr, align 8
  call void @llvm.dbg.declare(metadata %"struct.boost::arg.0"** %this.addr, metadata !4336, metadata !DIExpression()), !dbg !4338
  %this1 = load %"struct.boost::arg.0"*, %"struct.boost::arg.0"** %this.addr, align 8
  ret void, !dbg !4339
}

; Function Attrs: noinline uwtable
define internal void @__cxx_global_var_init.2() #0 section ".text.startup" !dbg !4340 {
entry:
  call void @_ZN5boost3argILi3EEC2Ev(%"struct.boost::arg.2"* @_ZN12_GLOBAL__N_12_3E), !dbg !4341
  ret void, !dbg !4341
}

; Function Attrs: noinline nounwind uwtable
define linkonce_odr dso_local void @_ZN5boost3argILi3EEC2Ev(%"struct.boost::arg.2"* %this) unnamed_addr #1 comdat align 2 !dbg !4342 {
entry:
  %this.addr = alloca %"struct.boost::arg.2"*, align 8
  store %"struct.boost::arg.2"* %this, %"struct.boost::arg.2"** %this.addr, align 8
  call void @llvm.dbg.declare(metadata %"struct.boost::arg.2"** %this.addr, metadata !4343, metadata !DIExpression()), !dbg !4345
  %this1 = load %"struct.boost::arg.2"*, %"struct.boost::arg.2"** %this.addr, align 8
  ret void, !dbg !4346
}

; Function Attrs: noinline uwtable
define internal void @__cxx_global_var_init.3() #0 section ".text.startup" !dbg !4347 {
entry:
  call void @_ZN5boost3argILi4EEC2Ev(%"struct.boost::arg.4"* @_ZN12_GLOBAL__N_12_4E), !dbg !4348
  ret void, !dbg !4348
}

; Function Attrs: noinline nounwind uwtable
define linkonce_odr dso_local void @_ZN5boost3argILi4EEC2Ev(%"struct.boost::arg.4"* %this) unnamed_addr #1 comdat align 2 !dbg !4349 {
entry:
  %this.addr = alloca %"struct.boost::arg.4"*, align 8
  store %"struct.boost::arg.4"* %this, %"struct.boost::arg.4"** %this.addr, align 8
  call void @llvm.dbg.declare(metadata %"struct.boost::arg.4"** %this.addr, metadata !4350, metadata !DIExpression()), !dbg !4352
  %this1 = load %"struct.boost::arg.4"*, %"struct.boost::arg.4"** %this.addr, align 8
  ret void, !dbg !4353
}

; Function Attrs: noinline uwtable
define internal void @__cxx_global_var_init.4() #0 section ".text.startup" !dbg !4354 {
entry:
  call void @_ZN5boost3argILi5EEC2Ev(%"struct.boost::arg.6"* @_ZN12_GLOBAL__N_12_5E), !dbg !4355
  ret void, !dbg !4355
}

; Function Attrs: noinline nounwind uwtable
define linkonce_odr dso_local void @_ZN5boost3argILi5EEC2Ev(%"struct.boost::arg.6"* %this) unnamed_addr #1 comdat align 2 !dbg !4356 {
entry:
  %this.addr = alloca %"struct.boost::arg.6"*, align 8
  store %"struct.boost::arg.6"* %this, %"struct.boost::arg.6"** %this.addr, align 8
  call void @llvm.dbg.declare(metadata %"struct.boost::arg.6"** %this.addr, metadata !4357, metadata !DIExpression()), !dbg !4359
  %this1 = load %"struct.boost::arg.6"*, %"struct.boost::arg.6"** %this.addr, align 8
  ret void, !dbg !4360
}

; Function Attrs: noinline uwtable
define internal void @__cxx_global_var_init.5() #0 section ".text.startup" !dbg !4361 {
entry:
  call void @_ZN5boost3argILi6EEC2Ev(%"struct.boost::arg.8"* @_ZN12_GLOBAL__N_12_6E), !dbg !4362
  ret void, !dbg !4362
}

; Function Attrs: noinline nounwind uwtable
define linkonce_odr dso_local void @_ZN5boost3argILi6EEC2Ev(%"struct.boost::arg.8"* %this) unnamed_addr #1 comdat align 2 !dbg !4363 {
entry:
  %this.addr = alloca %"struct.boost::arg.8"*, align 8
  store %"struct.boost::arg.8"* %this, %"struct.boost::arg.8"** %this.addr, align 8
  call void @llvm.dbg.declare(metadata %"struct.boost::arg.8"** %this.addr, metadata !4364, metadata !DIExpression()), !dbg !4366
  %this1 = load %"struct.boost::arg.8"*, %"struct.boost::arg.8"** %this.addr, align 8
  ret void, !dbg !4367
}

; Function Attrs: noinline uwtable
define internal void @__cxx_global_var_init.6() #0 section ".text.startup" !dbg !4368 {
entry:
  call void @_ZN5boost3argILi7EEC2Ev(%"struct.boost::arg.10"* @_ZN12_GLOBAL__N_12_7E), !dbg !4369
  ret void, !dbg !4369
}

; Function Attrs: noinline nounwind uwtable
define linkonce_odr dso_local void @_ZN5boost3argILi7EEC2Ev(%"struct.boost::arg.10"* %this) unnamed_addr #1 comdat align 2 !dbg !4370 {
entry:
  %this.addr = alloca %"struct.boost::arg.10"*, align 8
  store %"struct.boost::arg.10"* %this, %"struct.boost::arg.10"** %this.addr, align 8
  call void @llvm.dbg.declare(metadata %"struct.boost::arg.10"** %this.addr, metadata !4371, metadata !DIExpression()), !dbg !4373
  %this1 = load %"struct.boost::arg.10"*, %"struct.boost::arg.10"** %this.addr, align 8
  ret void, !dbg !4374
}

; Function Attrs: noinline uwtable
define internal void @__cxx_global_var_init.7() #0 section ".text.startup" !dbg !4375 {
entry:
  call void @_ZN5boost3argILi8EEC2Ev(%"struct.boost::arg.12"* @_ZN12_GLOBAL__N_12_8E), !dbg !4376
  ret void, !dbg !4376
}

; Function Attrs: noinline nounwind uwtable
define linkonce_odr dso_local void @_ZN5boost3argILi8EEC2Ev(%"struct.boost::arg.12"* %this) unnamed_addr #1 comdat align 2 !dbg !4377 {
entry:
  %this.addr = alloca %"struct.boost::arg.12"*, align 8
  store %"struct.boost::arg.12"* %this, %"struct.boost::arg.12"** %this.addr, align 8
  call void @llvm.dbg.declare(metadata %"struct.boost::arg.12"** %this.addr, metadata !4378, metadata !DIExpression()), !dbg !4380
  %this1 = load %"struct.boost::arg.12"*, %"struct.boost::arg.12"** %this.addr, align 8
  ret void, !dbg !4381
}

; Function Attrs: noinline uwtable
define internal void @__cxx_global_var_init.8() #0 section ".text.startup" !dbg !4382 {
entry:
  call void @_ZN5boost3argILi9EEC2Ev(%"struct.boost::arg.14"* @_ZN12_GLOBAL__N_12_9E), !dbg !4383
  ret void, !dbg !4383
}

; Function Attrs: noinline nounwind uwtable
define linkonce_odr dso_local void @_ZN5boost3argILi9EEC2Ev(%"struct.boost::arg.14"* %this) unnamed_addr #1 comdat align 2 !dbg !4384 {
entry:
  %this.addr = alloca %"struct.boost::arg.14"*, align 8
  store %"struct.boost::arg.14"* %this, %"struct.boost::arg.14"** %this.addr, align 8
  call void @llvm.dbg.declare(metadata %"struct.boost::arg.14"** %this.addr, metadata !4385, metadata !DIExpression()), !dbg !4387
  %this1 = load %"struct.boost::arg.14"*, %"struct.boost::arg.14"** %this.addr, align 8
  ret void, !dbg !4388
}

; Function Attrs: noinline uwtable
define internal void @__cxx_global_var_init.9() #0 section ".text.startup" !dbg !4389 {
entry:
  call void @_ZNSt8ios_base4InitC1Ev(%"class.std::ios_base::Init"* @_ZStL8__ioinit), !dbg !4390
  %0 = call i32 @__cxa_atexit(void (i8*)* bitcast (void (%"class.std::ios_base::Init"*)* @_ZNSt8ios_base4InitD1Ev to void (i8*)*), i8* getelementptr inbounds (%"class.std::ios_base::Init", %"class.std::ios_base::Init"* @_ZStL8__ioinit, i32 0, i32 0), i8* @__dso_handle) #4, !dbg !4390
  ret void, !dbg !4390
}

declare dso_local void @_ZNSt8ios_base4InitC1Ev(%"class.std::ios_base::Init"*) unnamed_addr #2

; Function Attrs: nounwind
declare dso_local void @_ZNSt8ios_base4InitD1Ev(%"class.std::ios_base::Init"*) unnamed_addr #3

; Function Attrs: nounwind
declare dso_local i32 @__cxa_atexit(void (i8*)*, i8*, i8*) #4

; Function Attrs: noinline uwtable
define weak_odr dso_local void @_ZN6dealii17BlockSparseMatrixIdEC2Ev(%"class.dealii::BlockSparseMatrix"* %this) unnamed_addr #0 comdat($_ZN6dealii17BlockSparseMatrixIdEC5Ev) align 2 personality i8* bitcast (i32 (...)* @__gxx_personality_v0 to i8*) !dbg !4391 {
entry:
  %this.addr = alloca %"class.dealii::BlockSparseMatrix"*, align 8
  %exn.slot = alloca i8*
  %ehselector.slot = alloca i32
  store %"class.dealii::BlockSparseMatrix"* %this, %"class.dealii::BlockSparseMatrix"** %this.addr, align 8
  call void @llvm.dbg.declare(metadata %"class.dealii::BlockSparseMatrix"** %this.addr, metadata !4393, metadata !DIExpression()), !dbg !4395
  %this1 = load %"class.dealii::BlockSparseMatrix"*, %"class.dealii::BlockSparseMatrix"** %this.addr, align 8
  %0 = bitcast %"class.dealii::BlockSparseMatrix"* %this1 to %"class.dealii::BlockMatrixBase"*, !dbg !4396
  call void @_ZN6dealii15BlockMatrixBaseINS_12SparseMatrixIdEEEC2Ev(%"class.dealii::BlockMatrixBase"* %0), !dbg !4397
  %1 = bitcast %"class.dealii::BlockSparseMatrix"* %this1 to i32 (...)***, !dbg !4396
  store i32 (...)** bitcast (i8** getelementptr inbounds ({ [5 x i8*] }, { [5 x i8*] }* @_ZTVN6dealii17BlockSparseMatrixIdEE, i32 0, inrange i32 0, i32 2) to i32 (...)**), i32 (...)*** %1, align 8, !dbg !4396
  %sparsity_pattern = getelementptr inbounds %"class.dealii::BlockSparseMatrix", %"class.dealii::BlockSparseMatrix"* %this1, i32 0, i32 1, !dbg !4399
  invoke void @_ZN6dealii12SmartPointerIKNS_20BlockSparsityPatternEEC2EPS2_PKc(%"class.dealii::SmartPointer.34"* %sparsity_pattern, %"class.dealii::BlockSparsityPattern"* null, i8* null)
          to label %invoke.cont unwind label %lpad, !dbg !4399

invoke.cont:                                      ; preds = %entry
  ret void, !dbg !4401

lpad:                                             ; preds = %entry
  %2 = landingpad { i8*, i32 }
          cleanup, !dbg !4401
  %3 = extractvalue { i8*, i32 } %2, 0, !dbg !4401
  store i8* %3, i8** %exn.slot, align 8, !dbg !4401
  %4 = extractvalue { i8*, i32 } %2, 1, !dbg !4401
  store i32 %4, i32* %ehselector.slot, align 4, !dbg !4401
  %5 = bitcast %"class.dealii::BlockSparseMatrix"* %this1 to %"class.dealii::BlockMatrixBase"*, !dbg !4402
  call void @_ZN6dealii15BlockMatrixBaseINS_12SparseMatrixIdEEED2Ev(%"class.dealii::BlockMatrixBase"* %5) #4, !dbg !4402
  br label %eh.resume, !dbg !4402

eh.resume:                                        ; preds = %lpad
  %exn = load i8*, i8** %exn.slot, align 8, !dbg !4402
  %sel = load i32, i32* %ehselector.slot, align 4, !dbg !4402
  %lpad.val = insertvalue { i8*, i32 } undef, i8* %exn, 0, !dbg !4402
  %lpad.val2 = insertvalue { i8*, i32 } %lpad.val, i32 %sel, 1, !dbg !4402
  resume { i8*, i32 } %lpad.val2, !dbg !4402
}

; Function Attrs: nounwind readnone speculatable willreturn
declare void @llvm.dbg.declare(metadata, metadata, metadata) #5

; Function Attrs: noinline uwtable
define linkonce_odr dso_local void @_ZN6dealii15BlockMatrixBaseINS_12SparseMatrixIdEEEC2Ev(%"class.dealii::BlockMatrixBase"* %this) unnamed_addr #0 comdat align 2 personality i8* bitcast (i32 (...)* @__gxx_personality_v0 to i8*) !dbg !4404 {
entry:
  %this.addr = alloca %"class.dealii::BlockMatrixBase"*, align 8
  %exn.slot = alloca i8*
  %ehselector.slot = alloca i32
  store %"class.dealii::BlockMatrixBase"* %this, %"class.dealii::BlockMatrixBase"** %this.addr, align 8
  call void @llvm.dbg.declare(metadata %"class.dealii::BlockMatrixBase"** %this.addr, metadata !4405, metadata !DIExpression()), !dbg !4407
  %this1 = load %"class.dealii::BlockMatrixBase"*, %"class.dealii::BlockMatrixBase"** %this.addr, align 8
  %0 = bitcast %"class.dealii::BlockMatrixBase"* %this1 to %"class.dealii::Subscriptor"*, !dbg !4408
  call void @_ZN6dealii11SubscriptorC2Ev(%"class.dealii::Subscriptor"* %0), !dbg !4409
  %1 = bitcast %"class.dealii::BlockMatrixBase"* %this1 to i32 (...)***, !dbg !4408
  store i32 (...)** bitcast (i8** getelementptr inbounds ({ [4 x i8*] }, { [4 x i8*] }* @_ZTVN6dealii15BlockMatrixBaseINS_12SparseMatrixIdEEEE, i32 0, inrange i32 0, i32 2) to i32 (...)**), i32 (...)*** %1, align 8, !dbg !4408
  %row_block_indices = getelementptr inbounds %"class.dealii::BlockMatrixBase", %"class.dealii::BlockMatrixBase"* %this1, i32 0, i32 1, !dbg !4409
  invoke void @_ZN6dealii12BlockIndicesC2Ej(%"class.dealii::BlockIndices"* %row_block_indices, i32 0)
          to label %invoke.cont unwind label %lpad, !dbg !4409

invoke.cont:                                      ; preds = %entry
  %column_block_indices = getelementptr inbounds %"class.dealii::BlockMatrixBase", %"class.dealii::BlockMatrixBase"* %this1, i32 0, i32 2, !dbg !4409
  invoke void @_ZN6dealii12BlockIndicesC2Ej(%"class.dealii::BlockIndices"* %column_block_indices, i32 0)
          to label %invoke.cont3 unwind label %lpad2, !dbg !4409

invoke.cont3:                                     ; preds = %invoke.cont
  %sub_objects = getelementptr inbounds %"class.dealii::BlockMatrixBase", %"class.dealii::BlockMatrixBase"* %this1, i32 0, i32 3, !dbg !4409
  invoke void @_ZN6dealii5TableILi2ENS_12SmartPointerINS_12SparseMatrixIdEEEEEC2Ev(%"class.dealii::Table"* %sub_objects)
          to label %invoke.cont5 unwind label %lpad4, !dbg !4409

invoke.cont5:                                     ; preds = %invoke.cont3
  %counter_within_block = getelementptr inbounds %"class.dealii::BlockMatrixBase", %"class.dealii::BlockMatrixBase"* %this1, i32 0, i32 4, !dbg !4409
  call void @_ZNSt6vectorIjSaIjEEC2Ev(%"class.std::vector"* %counter_within_block) #4, !dbg !4409
  %column_indices = getelementptr inbounds %"class.dealii::BlockMatrixBase", %"class.dealii::BlockMatrixBase"* %this1, i32 0, i32 5, !dbg !4409
  call void @_ZNSt6vectorIS_IjSaIjEESaIS1_EEC2Ev(%"class.std::vector.19"* %column_indices) #4, !dbg !4409
  %column_values = getelementptr inbounds %"class.dealii::BlockMatrixBase", %"class.dealii::BlockMatrixBase"* %this1, i32 0, i32 6, !dbg !4409
  call void @_ZNSt6vectorIS_IdSaIdEESaIS1_EEC2Ev(%"class.std::vector.24"* %column_values) #4, !dbg !4409
  ret void, !dbg !4410

lpad:                                             ; preds = %entry
  %2 = landingpad { i8*, i32 }
          cleanup, !dbg !4410
  %3 = extractvalue { i8*, i32 } %2, 0, !dbg !4410
  store i8* %3, i8** %exn.slot, align 8, !dbg !4410
  %4 = extractvalue { i8*, i32 } %2, 1, !dbg !4410
  store i32 %4, i32* %ehselector.slot, align 4, !dbg !4410
  br label %ehcleanup6, !dbg !4410

lpad2:                                            ; preds = %invoke.cont
  %5 = landingpad { i8*, i32 }
          cleanup, !dbg !4410
  %6 = extractvalue { i8*, i32 } %5, 0, !dbg !4410
  store i8* %6, i8** %exn.slot, align 8, !dbg !4410
  %7 = extractvalue { i8*, i32 } %5, 1, !dbg !4410
  store i32 %7, i32* %ehselector.slot, align 4, !dbg !4410
  br label %ehcleanup, !dbg !4410

lpad4:                                            ; preds = %invoke.cont3
  %8 = landingpad { i8*, i32 }
          cleanup, !dbg !4410
  %9 = extractvalue { i8*, i32 } %8, 0, !dbg !4410
  store i8* %9, i8** %exn.slot, align 8, !dbg !4410
  %10 = extractvalue { i8*, i32 } %8, 1, !dbg !4410
  store i32 %10, i32* %ehselector.slot, align 4, !dbg !4410
  call void @_ZN6dealii12BlockIndicesD2Ev(%"class.dealii::BlockIndices"* %column_block_indices) #4, !dbg !4411
  br label %ehcleanup, !dbg !4411

ehcleanup:                                        ; preds = %lpad4, %lpad2
  call void @_ZN6dealii12BlockIndicesD2Ev(%"class.dealii::BlockIndices"* %row_block_indices) #4, !dbg !4411
  br label %ehcleanup6, !dbg !4411

ehcleanup6:                                       ; preds = %ehcleanup, %lpad
  %11 = bitcast %"class.dealii::BlockMatrixBase"* %this1 to %"class.dealii::Subscriptor"*, !dbg !4411
  call void @_ZN6dealii11SubscriptorD2Ev(%"class.dealii::Subscriptor"* %11) #4, !dbg !4411
  br label %eh.resume, !dbg !4411

eh.resume:                                        ; preds = %ehcleanup6
  %exn = load i8*, i8** %exn.slot, align 8, !dbg !4411
  %sel = load i32, i32* %ehselector.slot, align 4, !dbg !4411
  %lpad.val = insertvalue { i8*, i32 } undef, i8* %exn, 0, !dbg !4411
  %lpad.val7 = insertvalue { i8*, i32 } %lpad.val, i32 %sel, 1, !dbg !4411
  resume { i8*, i32 } %lpad.val7, !dbg !4411
}

; Function Attrs: noinline uwtable
define linkonce_odr dso_local void @_ZN6dealii12SmartPointerIKNS_20BlockSparsityPatternEEC2EPS2_PKc(%"class.dealii::SmartPointer.34"* %this, %"class.dealii::BlockSparsityPattern"* %t, i8* %id) unnamed_addr #0 comdat align 2 !dbg !4413 {
entry:
  %this.addr = alloca %"class.dealii::SmartPointer.34"*, align 8
  %t.addr = alloca %"class.dealii::BlockSparsityPattern"*, align 8
  %id.addr = alloca i8*, align 8
  store %"class.dealii::SmartPointer.34"* %this, %"class.dealii::SmartPointer.34"** %this.addr, align 8
  call void @llvm.dbg.declare(metadata %"class.dealii::SmartPointer.34"** %this.addr, metadata !4414, metadata !DIExpression()), !dbg !4416
  store %"class.dealii::BlockSparsityPattern"* %t, %"class.dealii::BlockSparsityPattern"** %t.addr, align 8
  call void @llvm.dbg.declare(metadata %"class.dealii::BlockSparsityPattern"** %t.addr, metadata !4417, metadata !DIExpression()), !dbg !4418
  store i8* %id, i8** %id.addr, align 8
  call void @llvm.dbg.declare(metadata i8** %id.addr, metadata !4419, metadata !DIExpression()), !dbg !4420
  %this1 = load %"class.dealii::SmartPointer.34"*, %"class.dealii::SmartPointer.34"** %this.addr, align 8
  %t2 = getelementptr inbounds %"class.dealii::SmartPointer.34", %"class.dealii::SmartPointer.34"* %this1, i32 0, i32 0, !dbg !4421
  %0 = load %"class.dealii::BlockSparsityPattern"*, %"class.dealii::BlockSparsityPattern"** %t.addr, align 8, !dbg !4422
  store %"class.dealii::BlockSparsityPattern"* %0, %"class.dealii::BlockSparsityPattern"** %t2, align 8, !dbg !4421
  %id3 = getelementptr inbounds %"class.dealii::SmartPointer.34", %"class.dealii::SmartPointer.34"* %this1, i32 0, i32 1, !dbg !4423
  %1 = load i8*, i8** %id.addr, align 8, !dbg !4424
  store i8* %1, i8** %id3, align 8, !dbg !4423
  %2 = load %"class.dealii::BlockSparsityPattern"*, %"class.dealii::BlockSparsityPattern"** %t.addr, align 8, !dbg !4425
  %cmp = icmp ne %"class.dealii::BlockSparsityPattern"* %2, null, !dbg !4428
  br i1 %cmp, label %if.then, label %if.end, !dbg !4429

if.then:                                          ; preds = %entry
  %3 = load %"class.dealii::BlockSparsityPattern"*, %"class.dealii::BlockSparsityPattern"** %t.addr, align 8, !dbg !4430
  %4 = bitcast %"class.dealii::BlockSparsityPattern"* %3 to %"class.dealii::Subscriptor"*, !dbg !4431
  %5 = load i8*, i8** %id.addr, align 8, !dbg !4432
  call void @_ZNK6dealii11Subscriptor9subscribeEPKc(%"class.dealii::Subscriptor"* %4, i8* %5), !dbg !4431
  br label %if.end, !dbg !4430

if.end:                                           ; preds = %if.then, %entry
  ret void, !dbg !4433
}

declare dso_local i32 @__gxx_personality_v0(...)

; Function Attrs: noinline uwtable
define weak_odr dso_local void @_ZN6dealii17BlockSparseMatrixIdEC2ERKNS_20BlockSparsityPatternE(%"class.dealii::BlockSparseMatrix"* %this, %"class.dealii::BlockSparsityPattern"* dereferenceable(288) %sparsity) unnamed_addr #0 comdat($_ZN6dealii17BlockSparseMatrixIdEC5ERKNS_20BlockSparsityPatternE) align 2 personality i8* bitcast (i32 (...)* @__gxx_personality_v0 to i8*) !dbg !4434 {
entry:
  %this.addr = alloca %"class.dealii::BlockSparseMatrix"*, align 8
  %sparsity.addr = alloca %"class.dealii::BlockSparsityPattern"*, align 8
  %exn.slot = alloca i8*
  %ehselector.slot = alloca i32
  store %"class.dealii::BlockSparseMatrix"* %this, %"class.dealii::BlockSparseMatrix"** %this.addr, align 8
  call void @llvm.dbg.declare(metadata %"class.dealii::BlockSparseMatrix"** %this.addr, metadata !4435, metadata !DIExpression()), !dbg !4436
  store %"class.dealii::BlockSparsityPattern"* %sparsity, %"class.dealii::BlockSparsityPattern"** %sparsity.addr, align 8
  call void @llvm.dbg.declare(metadata %"class.dealii::BlockSparsityPattern"** %sparsity.addr, metadata !4437, metadata !DIExpression()), !dbg !4438
  %this1 = load %"class.dealii::BlockSparseMatrix"*, %"class.dealii::BlockSparseMatrix"** %this.addr, align 8
  %0 = bitcast %"class.dealii::BlockSparseMatrix"* %this1 to %"class.dealii::BlockMatrixBase"*, !dbg !4439
  call void @_ZN6dealii15BlockMatrixBaseINS_12SparseMatrixIdEEEC2Ev(%"class.dealii::BlockMatrixBase"* %0), !dbg !4440
  %1 = bitcast %"class.dealii::BlockSparseMatrix"* %this1 to i32 (...)***, !dbg !4439
  store i32 (...)** bitcast (i8** getelementptr inbounds ({ [5 x i8*] }, { [5 x i8*] }* @_ZTVN6dealii17BlockSparseMatrixIdEE, i32 0, inrange i32 0, i32 2) to i32 (...)**), i32 (...)*** %1, align 8, !dbg !4439
  %sparsity_pattern = getelementptr inbounds %"class.dealii::BlockSparseMatrix", %"class.dealii::BlockSparseMatrix"* %this1, i32 0, i32 1, !dbg !4442
  invoke void @_ZN6dealii12SmartPointerIKNS_20BlockSparsityPatternEEC2EPS2_PKc(%"class.dealii::SmartPointer.34"* %sparsity_pattern, %"class.dealii::BlockSparsityPattern"* null, i8* null)
          to label %invoke.cont unwind label %lpad, !dbg !4442

invoke.cont:                                      ; preds = %entry
  %2 = load %"class.dealii::BlockSparsityPattern"*, %"class.dealii::BlockSparsityPattern"** %sparsity.addr, align 8, !dbg !4444
  %3 = bitcast %"class.dealii::BlockSparseMatrix"* %this1 to void (%"class.dealii::BlockSparseMatrix"*, %"class.dealii::BlockSparsityPattern"*)***, !dbg !4446
  %vtable = load void (%"class.dealii::BlockSparseMatrix"*, %"class.dealii::BlockSparsityPattern"*)**, void (%"class.dealii::BlockSparseMatrix"*, %"class.dealii::BlockSparsityPattern"*)*** %3, align 8, !dbg !4446
  %vfn = getelementptr inbounds void (%"class.dealii::BlockSparseMatrix"*, %"class.dealii::BlockSparsityPattern"*)*, void (%"class.dealii::BlockSparseMatrix"*, %"class.dealii::BlockSparsityPattern"*)** %vtable, i64 2, !dbg !4446
  %4 = load void (%"class.dealii::BlockSparseMatrix"*, %"class.dealii::BlockSparsityPattern"*)*, void (%"class.dealii::BlockSparseMatrix"*, %"class.dealii::BlockSparsityPattern"*)** %vfn, align 8, !dbg !4446
  invoke void %4(%"class.dealii::BlockSparseMatrix"* %this1, %"class.dealii::BlockSparsityPattern"* dereferenceable(288) %2)
          to label %invoke.cont3 unwind label %lpad2, !dbg !4446

invoke.cont3:                                     ; preds = %invoke.cont
  ret void, !dbg !4447

lpad:                                             ; preds = %entry
  %5 = landingpad { i8*, i32 }
          cleanup, !dbg !4447
  %6 = extractvalue { i8*, i32 } %5, 0, !dbg !4447
  store i8* %6, i8** %exn.slot, align 8, !dbg !4447
  %7 = extractvalue { i8*, i32 } %5, 1, !dbg !4447
  store i32 %7, i32* %ehselector.slot, align 4, !dbg !4447
  br label %ehcleanup, !dbg !4447

lpad2:                                            ; preds = %invoke.cont
  %8 = landingpad { i8*, i32 }
          cleanup, !dbg !4448
  %9 = extractvalue { i8*, i32 } %8, 0, !dbg !4448
  store i8* %9, i8** %exn.slot, align 8, !dbg !4448
  %10 = extractvalue { i8*, i32 } %8, 1, !dbg !4448
  store i32 %10, i32* %ehselector.slot, align 4, !dbg !4448
  call void @_ZN6dealii12SmartPointerIKNS_20BlockSparsityPatternEED2Ev(%"class.dealii::SmartPointer.34"* %sparsity_pattern) #4, !dbg !4448
  br label %ehcleanup, !dbg !4448

ehcleanup:                                        ; preds = %lpad2, %lpad
  %11 = bitcast %"class.dealii::BlockSparseMatrix"* %this1 to %"class.dealii::BlockMatrixBase"*, !dbg !4448
  call void @_ZN6dealii15BlockMatrixBaseINS_12SparseMatrixIdEEED2Ev(%"class.dealii::BlockMatrixBase"* %11) #4, !dbg !4448
  br label %eh.resume, !dbg !4448

eh.resume:                                        ; preds = %ehcleanup
  %exn = load i8*, i8** %exn.slot, align 8, !dbg !4448
  %sel = load i32, i32* %ehselector.slot, align 4, !dbg !4448
  %lpad.val = insertvalue { i8*, i32 } undef, i8* %exn, 0, !dbg !4448
  %lpad.val4 = insertvalue { i8*, i32 } %lpad.val, i32 %sel, 1, !dbg !4448
  resume { i8*, i32 } %lpad.val4, !dbg !4448
}

; Function Attrs: noinline nounwind uwtable
define linkonce_odr dso_local void @_ZN6dealii12SmartPointerIKNS_20BlockSparsityPatternEED2Ev(%"class.dealii::SmartPointer.34"* %this) unnamed_addr #1 comdat align 2 personality i8* bitcast (i32 (...)* @__gxx_personality_v0 to i8*) !dbg !4449 {
entry:
  %this.addr = alloca %"class.dealii::SmartPointer.34"*, align 8
  store %"class.dealii::SmartPointer.34"* %this, %"class.dealii::SmartPointer.34"** %this.addr, align 8
  call void @llvm.dbg.declare(metadata %"class.dealii::SmartPointer.34"** %this.addr, metadata !4450, metadata !DIExpression()), !dbg !4451
  %this1 = load %"class.dealii::SmartPointer.34"*, %"class.dealii::SmartPointer.34"** %this.addr, align 8
  %t = getelementptr inbounds %"class.dealii::SmartPointer.34", %"class.dealii::SmartPointer.34"* %this1, i32 0, i32 0, !dbg !4452
  %0 = load %"class.dealii::BlockSparsityPattern"*, %"class.dealii::BlockSparsityPattern"** %t, align 8, !dbg !4452
  %cmp = icmp ne %"class.dealii::BlockSparsityPattern"* %0, null, !dbg !4455
  br i1 %cmp, label %if.then, label %if.end, !dbg !4456

if.then:                                          ; preds = %entry
  %t2 = getelementptr inbounds %"class.dealii::SmartPointer.34", %"class.dealii::SmartPointer.34"* %this1, i32 0, i32 0, !dbg !4457
  %1 = load %"class.dealii::BlockSparsityPattern"*, %"class.dealii::BlockSparsityPattern"** %t2, align 8, !dbg !4457
  %2 = bitcast %"class.dealii::BlockSparsityPattern"* %1 to %"class.dealii::Subscriptor"*, !dbg !4458
  %id = getelementptr inbounds %"class.dealii::SmartPointer.34", %"class.dealii::SmartPointer.34"* %this1, i32 0, i32 1, !dbg !4459
  %3 = load i8*, i8** %id, align 8, !dbg !4459
  invoke void @_ZNK6dealii11Subscriptor11unsubscribeEPKc(%"class.dealii::Subscriptor"* %2, i8* %3)
          to label %invoke.cont unwind label %terminate.lpad, !dbg !4458

invoke.cont:                                      ; preds = %if.then
  br label %if.end, !dbg !4457

if.end:                                           ; preds = %invoke.cont, %entry
  ret void, !dbg !4460

terminate.lpad:                                   ; preds = %if.then
  %4 = landingpad { i8*, i32 }
          catch i8* null, !dbg !4458
  %5 = extractvalue { i8*, i32 } %4, 0, !dbg !4458
  call void @__clang_call_terminate(i8* %5) #12, !dbg !4458
  unreachable, !dbg !4458
}

; Function Attrs: noinline nounwind uwtable
define weak_odr dso_local void @_ZN6dealii17BlockSparseMatrixIdED2Ev(%"class.dealii::BlockSparseMatrix"* %this) unnamed_addr #1 comdat($_ZN6dealii17BlockSparseMatrixIdED5Ev) align 2 personality i8* bitcast (i32 (...)* @__gxx_personality_v0 to i8*) !dbg !4461 {
entry:
  %this.addr = alloca %"class.dealii::BlockSparseMatrix"*, align 8
  %exn.slot = alloca i8*
  %ehselector.slot = alloca i32
  store %"class.dealii::BlockSparseMatrix"* %this, %"class.dealii::BlockSparseMatrix"** %this.addr, align 8
  call void @llvm.dbg.declare(metadata %"class.dealii::BlockSparseMatrix"** %this.addr, metadata !4462, metadata !DIExpression()), !dbg !4463
  %this1 = load %"class.dealii::BlockSparseMatrix"*, %"class.dealii::BlockSparseMatrix"** %this.addr, align 8
  %0 = bitcast %"class.dealii::BlockSparseMatrix"* %this1 to i32 (...)***, !dbg !4464
  store i32 (...)** bitcast (i8** getelementptr inbounds ({ [5 x i8*] }, { [5 x i8*] }* @_ZTVN6dealii17BlockSparseMatrixIdEE, i32 0, inrange i32 0, i32 2) to i32 (...)**), i32 (...)*** %0, align 8, !dbg !4464
  invoke void @_ZN6dealii17BlockSparseMatrixIdE5clearEv(%"class.dealii::BlockSparseMatrix"* %this1)
          to label %invoke.cont unwind label %lpad, !dbg !4465

invoke.cont:                                      ; preds = %entry
  %sparsity_pattern = getelementptr inbounds %"class.dealii::BlockSparseMatrix", %"class.dealii::BlockSparseMatrix"* %this1, i32 0, i32 1, !dbg !4467
  %call = invoke dereferenceable(16) %"class.dealii::SmartPointer.34"* @_ZN6dealii12SmartPointerIKNS_20BlockSparsityPatternEEaSEPS2_(%"class.dealii::SmartPointer.34"* %sparsity_pattern, %"class.dealii::BlockSparsityPattern"* null)
          to label %invoke.cont2 unwind label %lpad, !dbg !4468

invoke.cont2:                                     ; preds = %invoke.cont
  %sparsity_pattern3 = getelementptr inbounds %"class.dealii::BlockSparseMatrix", %"class.dealii::BlockSparseMatrix"* %this1, i32 0, i32 1, !dbg !4469
  call void @_ZN6dealii12SmartPointerIKNS_20BlockSparsityPatternEED2Ev(%"class.dealii::SmartPointer.34"* %sparsity_pattern3) #4, !dbg !4469
  %1 = bitcast %"class.dealii::BlockSparseMatrix"* %this1 to %"class.dealii::BlockMatrixBase"*, !dbg !4469
  call void @_ZN6dealii15BlockMatrixBaseINS_12SparseMatrixIdEEED2Ev(%"class.dealii::BlockMatrixBase"* %1) #4, !dbg !4469
  ret void, !dbg !4470

lpad:                                             ; preds = %invoke.cont, %entry
  %2 = landingpad { i8*, i32 }
          catch i8* null, !dbg !4469
  %3 = extractvalue { i8*, i32 } %2, 0, !dbg !4469
  store i8* %3, i8** %exn.slot, align 8, !dbg !4469
  %4 = extractvalue { i8*, i32 } %2, 1, !dbg !4469
  store i32 %4, i32* %ehselector.slot, align 4, !dbg !4469
  %sparsity_pattern4 = getelementptr inbounds %"class.dealii::BlockSparseMatrix", %"class.dealii::BlockSparseMatrix"* %this1, i32 0, i32 1, !dbg !4469
  call void @_ZN6dealii12SmartPointerIKNS_20BlockSparsityPatternEED2Ev(%"class.dealii::SmartPointer.34"* %sparsity_pattern4) #4, !dbg !4469
  %5 = bitcast %"class.dealii::BlockSparseMatrix"* %this1 to %"class.dealii::BlockMatrixBase"*, !dbg !4469
  call void @_ZN6dealii15BlockMatrixBaseINS_12SparseMatrixIdEEED2Ev(%"class.dealii::BlockMatrixBase"* %5) #4, !dbg !4469
  br label %terminate.handler, !dbg !4469

terminate.handler:                                ; preds = %lpad
  %exn = load i8*, i8** %exn.slot, align 8, !dbg !4469
  call void @__clang_call_terminate(i8* %exn) #12, !dbg !4469
  unreachable, !dbg !4469
}

; Function Attrs: noinline uwtable
define weak_odr dso_local void @_ZN6dealii17BlockSparseMatrixIdE5clearEv(%"class.dealii::BlockSparseMatrix"* %this) #0 comdat align 2 !dbg !4471 {
entry:
  %this.addr = alloca %"class.dealii::BlockSparseMatrix"*, align 8
  store %"class.dealii::BlockSparseMatrix"* %this, %"class.dealii::BlockSparseMatrix"** %this.addr, align 8
  call void @llvm.dbg.declare(metadata %"class.dealii::BlockSparseMatrix"** %this.addr, metadata !4472, metadata !DIExpression()), !dbg !4473
  %this1 = load %"class.dealii::BlockSparseMatrix"*, %"class.dealii::BlockSparseMatrix"** %this.addr, align 8
  %0 = bitcast %"class.dealii::BlockSparseMatrix"* %this1 to %"class.dealii::BlockMatrixBase"*, !dbg !4474
  call void @_ZN6dealii15BlockMatrixBaseINS_12SparseMatrixIdEEE5clearEv(%"class.dealii::BlockMatrixBase"* %0), !dbg !4474
  %sparsity_pattern = getelementptr inbounds %"class.dealii::BlockSparseMatrix", %"class.dealii::BlockSparseMatrix"* %this1, i32 0, i32 1, !dbg !4475
  %call = call dereferenceable(16) %"class.dealii::SmartPointer.34"* @_ZN6dealii12SmartPointerIKNS_20BlockSparsityPatternEEaSEPS2_(%"class.dealii::SmartPointer.34"* %sparsity_pattern, %"class.dealii::BlockSparsityPattern"* null), !dbg !4476
  ret void, !dbg !4477
}

; Function Attrs: noinline nounwind uwtable
define linkonce_odr dso_local dereferenceable(16) %"class.dealii::SmartPointer.34"* @_ZN6dealii12SmartPointerIKNS_20BlockSparsityPatternEEaSEPS2_(%"class.dealii::SmartPointer.34"* %this, %"class.dealii::BlockSparsityPattern"* %tt) #1 comdat align 2 !dbg !4478 {
entry:
  %retval = alloca %"class.dealii::SmartPointer.34"*, align 8
  %this.addr = alloca %"class.dealii::SmartPointer.34"*, align 8
  %tt.addr = alloca %"class.dealii::BlockSparsityPattern"*, align 8
  store %"class.dealii::SmartPointer.34"* %this, %"class.dealii::SmartPointer.34"** %this.addr, align 8
  call void @llvm.dbg.declare(metadata %"class.dealii::SmartPointer.34"** %this.addr, metadata !4479, metadata !DIExpression()), !dbg !4480
  store %"class.dealii::BlockSparsityPattern"* %tt, %"class.dealii::BlockSparsityPattern"** %tt.addr, align 8
  call void @llvm.dbg.declare(metadata %"class.dealii::BlockSparsityPattern"** %tt.addr, metadata !4481, metadata !DIExpression()), !dbg !4482
  %this1 = load %"class.dealii::SmartPointer.34"*, %"class.dealii::SmartPointer.34"** %this.addr, align 8
  %t = getelementptr inbounds %"class.dealii::SmartPointer.34", %"class.dealii::SmartPointer.34"* %this1, i32 0, i32 0, !dbg !4483
  %0 = load %"class.dealii::BlockSparsityPattern"*, %"class.dealii::BlockSparsityPattern"** %t, align 8, !dbg !4483
  %1 = load %"class.dealii::BlockSparsityPattern"*, %"class.dealii::BlockSparsityPattern"** %tt.addr, align 8, !dbg !4485
  %cmp = icmp eq %"class.dealii::BlockSparsityPattern"* %0, %1, !dbg !4486
  br i1 %cmp, label %if.then, label %if.end, !dbg !4487

if.then:                                          ; preds = %entry
  store %"class.dealii::SmartPointer.34"* %this1, %"class.dealii::SmartPointer.34"** %retval, align 8, !dbg !4488
  br label %return, !dbg !4488

if.end:                                           ; preds = %entry
  %t2 = getelementptr inbounds %"class.dealii::SmartPointer.34", %"class.dealii::SmartPointer.34"* %this1, i32 0, i32 0, !dbg !4489
  %2 = load %"class.dealii::BlockSparsityPattern"*, %"class.dealii::BlockSparsityPattern"** %t2, align 8, !dbg !4489
  %cmp3 = icmp ne %"class.dealii::BlockSparsityPattern"* %2, null, !dbg !4491
  br i1 %cmp3, label %if.then4, label %if.end6, !dbg !4492

if.then4:                                         ; preds = %if.end
  %t5 = getelementptr inbounds %"class.dealii::SmartPointer.34", %"class.dealii::SmartPointer.34"* %this1, i32 0, i32 0, !dbg !4493
  %3 = load %"class.dealii::BlockSparsityPattern"*, %"class.dealii::BlockSparsityPattern"** %t5, align 8, !dbg !4493
  %4 = bitcast %"class.dealii::BlockSparsityPattern"* %3 to %"class.dealii::Subscriptor"*, !dbg !4494
  %id = getelementptr inbounds %"class.dealii::SmartPointer.34", %"class.dealii::SmartPointer.34"* %this1, i32 0, i32 1, !dbg !4495
  %5 = load i8*, i8** %id, align 8, !dbg !4495
  call void @_ZNK6dealii11Subscriptor11unsubscribeEPKc(%"class.dealii::Subscriptor"* %4, i8* %5), !dbg !4494
  br label %if.end6, !dbg !4493

if.end6:                                          ; preds = %if.then4, %if.end
  %6 = load %"class.dealii::BlockSparsityPattern"*, %"class.dealii::BlockSparsityPattern"** %tt.addr, align 8, !dbg !4496
  %t7 = getelementptr inbounds %"class.dealii::SmartPointer.34", %"class.dealii::SmartPointer.34"* %this1, i32 0, i32 0, !dbg !4497
  store %"class.dealii::BlockSparsityPattern"* %6, %"class.dealii::BlockSparsityPattern"** %t7, align 8, !dbg !4498
  %7 = load %"class.dealii::BlockSparsityPattern"*, %"class.dealii::BlockSparsityPattern"** %tt.addr, align 8, !dbg !4499
  %cmp8 = icmp ne %"class.dealii::BlockSparsityPattern"* %7, null, !dbg !4501
  br i1 %cmp8, label %if.then9, label %if.end11, !dbg !4502

if.then9:                                         ; preds = %if.end6
  %8 = load %"class.dealii::BlockSparsityPattern"*, %"class.dealii::BlockSparsityPattern"** %tt.addr, align 8, !dbg !4503
  %9 = bitcast %"class.dealii::BlockSparsityPattern"* %8 to %"class.dealii::Subscriptor"*, !dbg !4504
  %id10 = getelementptr inbounds %"class.dealii::SmartPointer.34", %"class.dealii::SmartPointer.34"* %this1, i32 0, i32 1, !dbg !4505
  %10 = load i8*, i8** %id10, align 8, !dbg !4505
  call void @_ZNK6dealii11Subscriptor9subscribeEPKc(%"class.dealii::Subscriptor"* %9, i8* %10), !dbg !4504
  br label %if.end11, !dbg !4503

if.end11:                                         ; preds = %if.then9, %if.end6
  store %"class.dealii::SmartPointer.34"* %this1, %"class.dealii::SmartPointer.34"** %retval, align 8, !dbg !4506
  br label %return, !dbg !4506

return:                                           ; preds = %if.end11, %if.then
  %11 = load %"class.dealii::SmartPointer.34"*, %"class.dealii::SmartPointer.34"** %retval, align 8, !dbg !4507
  ret %"class.dealii::SmartPointer.34"* %11, !dbg !4507
}

; Function Attrs: noinline noreturn nounwind
define linkonce_odr hidden void @__clang_call_terminate(i8* %0) #6 comdat {
  %2 = call i8* @__cxa_begin_catch(i8* %0) #4
  call void @_ZSt9terminatev() #12
  unreachable
}

declare dso_local i8* @__cxa_begin_catch(i8*)

declare dso_local void @_ZSt9terminatev()

; Function Attrs: noinline nounwind uwtable
define weak_odr dso_local void @_ZN6dealii17BlockSparseMatrixIdED0Ev(%"class.dealii::BlockSparseMatrix"* %this) unnamed_addr #1 comdat($_ZN6dealii17BlockSparseMatrixIdED5Ev) align 2 !dbg !4508 {
entry:
  %this.addr = alloca %"class.dealii::BlockSparseMatrix"*, align 8
  store %"class.dealii::BlockSparseMatrix"* %this, %"class.dealii::BlockSparseMatrix"** %this.addr, align 8
  call void @llvm.dbg.declare(metadata %"class.dealii::BlockSparseMatrix"** %this.addr, metadata !4509, metadata !DIExpression()), !dbg !4510
  %this1 = load %"class.dealii::BlockSparseMatrix"*, %"class.dealii::BlockSparseMatrix"** %this.addr, align 8
  call void @_ZN6dealii17BlockSparseMatrixIdED1Ev(%"class.dealii::BlockSparseMatrix"* %this1) #4, !dbg !4511
  %0 = bitcast %"class.dealii::BlockSparseMatrix"* %this1 to i8*, !dbg !4511
  call void @_ZdlPv(i8* %0) #13, !dbg !4511
  ret void, !dbg !4512
}

; Function Attrs: nobuiltin nounwind
declare dso_local void @_ZdlPv(i8*) #7

; Function Attrs: noinline uwtable
define weak_odr dso_local dereferenceable(320) %"class.dealii::BlockSparseMatrix"* @_ZN6dealii17BlockSparseMatrixIdEaSERKS1_(%"class.dealii::BlockSparseMatrix"* %this, %"class.dealii::BlockSparseMatrix"* dereferenceable(320) %m) #0 comdat align 2 !dbg !4513 {
entry:
  %this.addr = alloca %"class.dealii::BlockSparseMatrix"*, align 8
  %m.addr = alloca %"class.dealii::BlockSparseMatrix"*, align 8
  %r = alloca i32, align 4
  %c = alloca i32, align 4
  store %"class.dealii::BlockSparseMatrix"* %this, %"class.dealii::BlockSparseMatrix"** %this.addr, align 8
  call void @llvm.dbg.declare(metadata %"class.dealii::BlockSparseMatrix"** %this.addr, metadata !4514, metadata !DIExpression()), !dbg !4515
  store %"class.dealii::BlockSparseMatrix"* %m, %"class.dealii::BlockSparseMatrix"** %m.addr, align 8
  call void @llvm.dbg.declare(metadata %"class.dealii::BlockSparseMatrix"** %m.addr, metadata !4516, metadata !DIExpression()), !dbg !4517
  %this1 = load %"class.dealii::BlockSparseMatrix"*, %"class.dealii::BlockSparseMatrix"** %this.addr, align 8
  call void @llvm.dbg.declare(metadata i32* %r, metadata !4518, metadata !DIExpression()), !dbg !4520
  store i32 0, i32* %r, align 4, !dbg !4520
  br label %for.cond, !dbg !4521

for.cond:                                         ; preds = %for.inc9, %entry
  %0 = load i32, i32* %r, align 4, !dbg !4522
  %1 = bitcast %"class.dealii::BlockSparseMatrix"* %this1 to %"class.dealii::BlockMatrixBase"*, !dbg !4524
  %call = call i32 @_ZNK6dealii15BlockMatrixBaseINS_12SparseMatrixIdEEE12n_block_rowsEv(%"class.dealii::BlockMatrixBase"* %1), !dbg !4524
  %cmp = icmp ult i32 %0, %call, !dbg !4525
  br i1 %cmp, label %for.body, label %for.end11, !dbg !4526

for.body:                                         ; preds = %for.cond
  call void @llvm.dbg.declare(metadata i32* %c, metadata !4527, metadata !DIExpression()), !dbg !4529
  store i32 0, i32* %c, align 4, !dbg !4529
  br label %for.cond2, !dbg !4530

for.cond2:                                        ; preds = %for.inc, %for.body
  %2 = load i32, i32* %c, align 4, !dbg !4531
  %3 = bitcast %"class.dealii::BlockSparseMatrix"* %this1 to %"class.dealii::BlockMatrixBase"*, !dbg !4533
  %call3 = call i32 @_ZNK6dealii15BlockMatrixBaseINS_12SparseMatrixIdEEE12n_block_colsEv(%"class.dealii::BlockMatrixBase"* %3), !dbg !4533
  %cmp4 = icmp ult i32 %2, %call3, !dbg !4534
  br i1 %cmp4, label %for.body5, label %for.end, !dbg !4535

for.body5:                                        ; preds = %for.cond2
  %4 = load %"class.dealii::BlockSparseMatrix"*, %"class.dealii::BlockSparseMatrix"** %m.addr, align 8, !dbg !4536
  %5 = bitcast %"class.dealii::BlockSparseMatrix"* %4 to %"class.dealii::BlockMatrixBase"*, !dbg !4536
  %6 = load i32, i32* %r, align 4, !dbg !4537
  %7 = load i32, i32* %c, align 4, !dbg !4538
  %call6 = call dereferenceable(112) %"class.dealii::SparseMatrix"* @_ZNK6dealii15BlockMatrixBaseINS_12SparseMatrixIdEEE5blockEjj(%"class.dealii::BlockMatrixBase"* %5, i32 %6, i32 %7), !dbg !4539
  %8 = bitcast %"class.dealii::BlockSparseMatrix"* %this1 to %"class.dealii::BlockMatrixBase"*, !dbg !4540
  %9 = load i32, i32* %r, align 4, !dbg !4541
  %10 = load i32, i32* %c, align 4, !dbg !4542
  %call7 = call dereferenceable(112) %"class.dealii::SparseMatrix"* @_ZN6dealii15BlockMatrixBaseINS_12SparseMatrixIdEEE5blockEjj(%"class.dealii::BlockMatrixBase"* %8, i32 %9, i32 %10), !dbg !4540
  %call8 = call dereferenceable(112) %"class.dealii::SparseMatrix"* @_ZN6dealii12SparseMatrixIdEaSERKS1_(%"class.dealii::SparseMatrix"* %call7, %"class.dealii::SparseMatrix"* dereferenceable(112) %call6), !dbg !4543
  br label %for.inc, !dbg !4544

for.inc:                                          ; preds = %for.body5
  %11 = load i32, i32* %c, align 4, !dbg !4545
  %inc = add i32 %11, 1, !dbg !4545
  store i32 %inc, i32* %c, align 4, !dbg !4545
  br label %for.cond2, !dbg !4546, !llvm.loop !4547

for.end:                                          ; preds = %for.cond2
  br label %for.inc9, !dbg !4548

for.inc9:                                         ; preds = %for.end
  %12 = load i32, i32* %r, align 4, !dbg !4549
  %inc10 = add i32 %12, 1, !dbg !4549
  store i32 %inc10, i32* %r, align 4, !dbg !4549
  br label %for.cond, !dbg !4550, !llvm.loop !4551

for.end11:                                        ; preds = %for.cond
  ret %"class.dealii::BlockSparseMatrix"* %this1, !dbg !4553
}

; Function Attrs: noinline uwtable
define linkonce_odr dso_local i32 @_ZNK6dealii15BlockMatrixBaseINS_12SparseMatrixIdEEE12n_block_rowsEv(%"class.dealii::BlockMatrixBase"* %this) #0 comdat align 2 !dbg !4554 {
entry:
  %this.addr = alloca %"class.dealii::BlockMatrixBase"*, align 8
  store %"class.dealii::BlockMatrixBase"* %this, %"class.dealii::BlockMatrixBase"** %this.addr, align 8
  call void @llvm.dbg.declare(metadata %"class.dealii::BlockMatrixBase"** %this.addr, metadata !4555, metadata !DIExpression()), !dbg !4557
  %this1 = load %"class.dealii::BlockMatrixBase"*, %"class.dealii::BlockMatrixBase"** %this.addr, align 8
  %row_block_indices = getelementptr inbounds %"class.dealii::BlockMatrixBase", %"class.dealii::BlockMatrixBase"* %this1, i32 0, i32 1, !dbg !4558
  %call = call i32 @_ZNK6dealii12BlockIndices4sizeEv(%"class.dealii::BlockIndices"* %row_block_indices), !dbg !4559
  ret i32 %call, !dbg !4560
}

; Function Attrs: noinline nounwind uwtable
define linkonce_odr dso_local i32 @_ZNK6dealii15BlockMatrixBaseINS_12SparseMatrixIdEEE12n_block_colsEv(%"class.dealii::BlockMatrixBase"* %this) #1 comdat align 2 !dbg !4561 {
entry:
  %this.addr = alloca %"class.dealii::BlockMatrixBase"*, align 8
  store %"class.dealii::BlockMatrixBase"* %this, %"class.dealii::BlockMatrixBase"** %this.addr, align 8
  call void @llvm.dbg.declare(metadata %"class.dealii::BlockMatrixBase"** %this.addr, metadata !4562, metadata !DIExpression()), !dbg !4563
  %this1 = load %"class.dealii::BlockMatrixBase"*, %"class.dealii::BlockMatrixBase"** %this.addr, align 8
  %column_block_indices = getelementptr inbounds %"class.dealii::BlockMatrixBase", %"class.dealii::BlockMatrixBase"* %this1, i32 0, i32 2, !dbg !4564
  %call = call i32 @_ZNK6dealii12BlockIndices4sizeEv(%"class.dealii::BlockIndices"* %column_block_indices), !dbg !4565
  ret i32 %call, !dbg !4566
}

; Function Attrs: noinline uwtable
define linkonce_odr dso_local dereferenceable(112) %"class.dealii::SparseMatrix"* @_ZNK6dealii15BlockMatrixBaseINS_12SparseMatrixIdEEE5blockEjj(%"class.dealii::BlockMatrixBase"* %this, i32 %row, i32 %column) #0 comdat align 2 !dbg !4567 {
entry:
  %this.addr = alloca %"class.dealii::BlockMatrixBase"*, align 8
  %row.addr = alloca i32, align 4
  %column.addr = alloca i32, align 4
  %ref.tmp = alloca %"class.dealii::internal::TableBaseAccessors::Accessor.41", align 8
  store %"class.dealii::BlockMatrixBase"* %this, %"class.dealii::BlockMatrixBase"** %this.addr, align 8
  call void @llvm.dbg.declare(metadata %"class.dealii::BlockMatrixBase"** %this.addr, metadata !4568, metadata !DIExpression()), !dbg !4569
  store i32 %row, i32* %row.addr, align 4
  call void @llvm.dbg.declare(metadata i32* %row.addr, metadata !4570, metadata !DIExpression()), !dbg !4571
  store i32 %column, i32* %column.addr, align 4
  call void @llvm.dbg.declare(metadata i32* %column.addr, metadata !4572, metadata !DIExpression()), !dbg !4573
  %this1 = load %"class.dealii::BlockMatrixBase"*, %"class.dealii::BlockMatrixBase"** %this.addr, align 8
  %sub_objects = getelementptr inbounds %"class.dealii::BlockMatrixBase", %"class.dealii::BlockMatrixBase"* %this1, i32 0, i32 3, !dbg !4574
  %0 = load i32, i32* %row.addr, align 4, !dbg !4575
  call void @_ZNK6dealii5TableILi2ENS_12SmartPointerINS_12SparseMatrixIdEEEEEixEj(%"class.dealii::internal::TableBaseAccessors::Accessor.41"* sret %ref.tmp, %"class.dealii::Table"* %sub_objects, i32 %0), !dbg !4574
  %1 = load i32, i32* %column.addr, align 4, !dbg !4576
  %call = call dereferenceable(16) %"class.dealii::SmartPointer"* @_ZNK6dealii8internal18TableBaseAccessors8AccessorILi2ENS_12SmartPointerINS_12SparseMatrixIdEEEELb1ELj1EEixEj(%"class.dealii::internal::TableBaseAccessors::Accessor.41"* %ref.tmp, i32 %1), !dbg !4574
  %call2 = call dereferenceable(112) %"class.dealii::SparseMatrix"* @_ZNK6dealii12SmartPointerINS_12SparseMatrixIdEEEdeEv(%"class.dealii::SmartPointer"* %call), !dbg !4577
  ret %"class.dealii::SparseMatrix"* %call2, !dbg !4578
}

; Function Attrs: noinline uwtable
define linkonce_odr dso_local dereferenceable(112) %"class.dealii::SparseMatrix"* @_ZN6dealii15BlockMatrixBaseINS_12SparseMatrixIdEEE5blockEjj(%"class.dealii::BlockMatrixBase"* %this, i32 %row, i32 %column) #0 comdat align 2 !dbg !4579 {
entry:
  %this.addr = alloca %"class.dealii::BlockMatrixBase"*, align 8
  %row.addr = alloca i32, align 4
  %column.addr = alloca i32, align 4
  %ref.tmp = alloca %"class.dealii::internal::TableBaseAccessors::Accessor", align 8
  store %"class.dealii::BlockMatrixBase"* %this, %"class.dealii::BlockMatrixBase"** %this.addr, align 8
  call void @llvm.dbg.declare(metadata %"class.dealii::BlockMatrixBase"** %this.addr, metadata !4580, metadata !DIExpression()), !dbg !4581
  store i32 %row, i32* %row.addr, align 4
  call void @llvm.dbg.declare(metadata i32* %row.addr, metadata !4582, metadata !DIExpression()), !dbg !4583
  store i32 %column, i32* %column.addr, align 4
  call void @llvm.dbg.declare(metadata i32* %column.addr, metadata !4584, metadata !DIExpression()), !dbg !4585
  %this1 = load %"class.dealii::BlockMatrixBase"*, %"class.dealii::BlockMatrixBase"** %this.addr, align 8
  %sub_objects = getelementptr inbounds %"class.dealii::BlockMatrixBase", %"class.dealii::BlockMatrixBase"* %this1, i32 0, i32 3, !dbg !4586
  %0 = load i32, i32* %row.addr, align 4, !dbg !4587
  call void @_ZN6dealii5TableILi2ENS_12SmartPointerINS_12SparseMatrixIdEEEEEixEj(%"class.dealii::internal::TableBaseAccessors::Accessor"* sret %ref.tmp, %"class.dealii::Table"* %sub_objects, i32 %0), !dbg !4586
  %1 = load i32, i32* %column.addr, align 4, !dbg !4588
  %call = call dereferenceable(16) %"class.dealii::SmartPointer"* @_ZNK6dealii8internal18TableBaseAccessors8AccessorILi2ENS_12SmartPointerINS_12SparseMatrixIdEEEELb0ELj1EEixEj(%"class.dealii::internal::TableBaseAccessors::Accessor"* %ref.tmp, i32 %1), !dbg !4586
  %call2 = call dereferenceable(112) %"class.dealii::SparseMatrix"* @_ZNK6dealii12SmartPointerINS_12SparseMatrixIdEEEdeEv(%"class.dealii::SmartPointer"* %call), !dbg !4589
  ret %"class.dealii::SparseMatrix"* %call2, !dbg !4590
}

declare dso_local dereferenceable(112) %"class.dealii::SparseMatrix"* @_ZN6dealii12SparseMatrixIdEaSERKS1_(%"class.dealii::SparseMatrix"*, %"class.dealii::SparseMatrix"* dereferenceable(112)) #2

; Function Attrs: noinline uwtable
define weak_odr dso_local dereferenceable(320) %"class.dealii::BlockSparseMatrix"* @_ZN6dealii17BlockSparseMatrixIdEaSEd(%"class.dealii::BlockSparseMatrix"* %this, double %d) #0 comdat align 2 !dbg !4591 {
entry:
  %this.addr = alloca %"class.dealii::BlockSparseMatrix"*, align 8
  %d.addr = alloca double, align 8
  %r = alloca i32, align 4
  %c = alloca i32, align 4
  store %"class.dealii::BlockSparseMatrix"* %this, %"class.dealii::BlockSparseMatrix"** %this.addr, align 8
  call void @llvm.dbg.declare(metadata %"class.dealii::BlockSparseMatrix"** %this.addr, metadata !4592, metadata !DIExpression()), !dbg !4593
  store double %d, double* %d.addr, align 8
  call void @llvm.dbg.declare(metadata double* %d.addr, metadata !4594, metadata !DIExpression()), !dbg !4595
  %this1 = load %"class.dealii::BlockSparseMatrix"*, %"class.dealii::BlockSparseMatrix"** %this.addr, align 8
  call void @llvm.dbg.declare(metadata i32* %r, metadata !4596, metadata !DIExpression()), !dbg !4598
  store i32 0, i32* %r, align 4, !dbg !4598
  br label %for.cond, !dbg !4599

for.cond:                                         ; preds = %for.inc8, %entry
  %0 = load i32, i32* %r, align 4, !dbg !4600
  %1 = bitcast %"class.dealii::BlockSparseMatrix"* %this1 to %"class.dealii::BlockMatrixBase"*, !dbg !4602
  %call = call i32 @_ZNK6dealii15BlockMatrixBaseINS_12SparseMatrixIdEEE12n_block_rowsEv(%"class.dealii::BlockMatrixBase"* %1), !dbg !4602
  %cmp = icmp ult i32 %0, %call, !dbg !4603
  br i1 %cmp, label %for.body, label %for.end10, !dbg !4604

for.body:                                         ; preds = %for.cond
  call void @llvm.dbg.declare(metadata i32* %c, metadata !4605, metadata !DIExpression()), !dbg !4607
  store i32 0, i32* %c, align 4, !dbg !4607
  br label %for.cond2, !dbg !4608

for.cond2:                                        ; preds = %for.inc, %for.body
  %2 = load i32, i32* %c, align 4, !dbg !4609
  %3 = bitcast %"class.dealii::BlockSparseMatrix"* %this1 to %"class.dealii::BlockMatrixBase"*, !dbg !4611
  %call3 = call i32 @_ZNK6dealii15BlockMatrixBaseINS_12SparseMatrixIdEEE12n_block_colsEv(%"class.dealii::BlockMatrixBase"* %3), !dbg !4611
  %cmp4 = icmp ult i32 %2, %call3, !dbg !4612
  br i1 %cmp4, label %for.body5, label %for.end, !dbg !4613

for.body5:                                        ; preds = %for.cond2
  %4 = load double, double* %d.addr, align 8, !dbg !4614
  %5 = bitcast %"class.dealii::BlockSparseMatrix"* %this1 to %"class.dealii::BlockMatrixBase"*, !dbg !4615
  %6 = load i32, i32* %r, align 4, !dbg !4616
  %7 = load i32, i32* %c, align 4, !dbg !4617
  %call6 = call dereferenceable(112) %"class.dealii::SparseMatrix"* @_ZN6dealii15BlockMatrixBaseINS_12SparseMatrixIdEEE5blockEjj(%"class.dealii::BlockMatrixBase"* %5, i32 %6, i32 %7), !dbg !4615
  %call7 = call dereferenceable(112) %"class.dealii::SparseMatrix"* @_ZN6dealii12SparseMatrixIdEaSEd(%"class.dealii::SparseMatrix"* %call6, double %4), !dbg !4618
  br label %for.inc, !dbg !4619

for.inc:                                          ; preds = %for.body5
  %8 = load i32, i32* %c, align 4, !dbg !4620
  %inc = add i32 %8, 1, !dbg !4620
  store i32 %inc, i32* %c, align 4, !dbg !4620
  br label %for.cond2, !dbg !4621, !llvm.loop !4622

for.end:                                          ; preds = %for.cond2
  br label %for.inc8, !dbg !4623

for.inc8:                                         ; preds = %for.end
  %9 = load i32, i32* %r, align 4, !dbg !4624
  %inc9 = add i32 %9, 1, !dbg !4624
  store i32 %inc9, i32* %r, align 4, !dbg !4624
  br label %for.cond, !dbg !4625, !llvm.loop !4626

for.end10:                                        ; preds = %for.cond
  ret %"class.dealii::BlockSparseMatrix"* %this1, !dbg !4628
}

declare dso_local dereferenceable(112) %"class.dealii::SparseMatrix"* @_ZN6dealii12SparseMatrixIdEaSEd(%"class.dealii::SparseMatrix"*, double) #2

; Function Attrs: noinline uwtable
define linkonce_odr dso_local void @_ZN6dealii15BlockMatrixBaseINS_12SparseMatrixIdEEE5clearEv(%"class.dealii::BlockMatrixBase"* %this) #0 comdat align 2 personality i8* bitcast (i32 (...)* @__gxx_personality_v0 to i8*) !dbg !4629 {
entry:
  %this.addr = alloca %"class.dealii::BlockMatrixBase"*, align 8
  %r = alloca i32, align 4
  %c = alloca i32, align 4
  %p = alloca %"class.dealii::SparseMatrix"*, align 8
  %ref.tmp = alloca %"class.dealii::internal::TableBaseAccessors::Accessor", align 8
  %ref.tmp8 = alloca %"class.dealii::internal::TableBaseAccessors::Accessor", align 8
  %ref.tmp16 = alloca %"class.dealii::BlockIndices", align 8
  %exn.slot = alloca i8*
  %ehselector.slot = alloca i32
  store %"class.dealii::BlockMatrixBase"* %this, %"class.dealii::BlockMatrixBase"** %this.addr, align 8
  call void @llvm.dbg.declare(metadata %"class.dealii::BlockMatrixBase"** %this.addr, metadata !4630, metadata !DIExpression()), !dbg !4631
  %this1 = load %"class.dealii::BlockMatrixBase"*, %"class.dealii::BlockMatrixBase"** %this.addr, align 8
  call void @llvm.dbg.declare(metadata i32* %r, metadata !4632, metadata !DIExpression()), !dbg !4634
  store i32 0, i32* %r, align 4, !dbg !4634
  br label %for.cond, !dbg !4635

for.cond:                                         ; preds = %for.inc12, %entry
  %0 = load i32, i32* %r, align 4, !dbg !4636
  %call = call i32 @_ZNK6dealii15BlockMatrixBaseINS_12SparseMatrixIdEEE12n_block_rowsEv(%"class.dealii::BlockMatrixBase"* %this1), !dbg !4638
  %cmp = icmp ult i32 %0, %call, !dbg !4639
  br i1 %cmp, label %for.body, label %for.end14, !dbg !4640

for.body:                                         ; preds = %for.cond
  call void @llvm.dbg.declare(metadata i32* %c, metadata !4641, metadata !DIExpression()), !dbg !4643
  store i32 0, i32* %c, align 4, !dbg !4643
  br label %for.cond2, !dbg !4644

for.cond2:                                        ; preds = %for.inc, %for.body
  %1 = load i32, i32* %c, align 4, !dbg !4645
  %call3 = call i32 @_ZNK6dealii15BlockMatrixBaseINS_12SparseMatrixIdEEE12n_block_colsEv(%"class.dealii::BlockMatrixBase"* %this1), !dbg !4647
  %cmp4 = icmp ult i32 %1, %call3, !dbg !4648
  br i1 %cmp4, label %for.body5, label %for.end, !dbg !4649

for.body5:                                        ; preds = %for.cond2
  call void @llvm.dbg.declare(metadata %"class.dealii::SparseMatrix"** %p, metadata !4650, metadata !DIExpression()), !dbg !4652
  %sub_objects = getelementptr inbounds %"class.dealii::BlockMatrixBase", %"class.dealii::BlockMatrixBase"* %this1, i32 0, i32 3, !dbg !4653
  %2 = load i32, i32* %r, align 4, !dbg !4654
  call void @_ZN6dealii5TableILi2ENS_12SmartPointerINS_12SparseMatrixIdEEEEEixEj(%"class.dealii::internal::TableBaseAccessors::Accessor"* sret %ref.tmp, %"class.dealii::Table"* %sub_objects, i32 %2), !dbg !4655
  %3 = load i32, i32* %c, align 4, !dbg !4656
  %call6 = call dereferenceable(16) %"class.dealii::SmartPointer"* @_ZNK6dealii8internal18TableBaseAccessors8AccessorILi2ENS_12SmartPointerINS_12SparseMatrixIdEEEELb0ELj1EEixEj(%"class.dealii::internal::TableBaseAccessors::Accessor"* %ref.tmp, i32 %3), !dbg !4655
  %call7 = call %"class.dealii::SparseMatrix"* @_ZNK6dealii12SmartPointerINS_12SparseMatrixIdEEEcvPS2_Ev(%"class.dealii::SmartPointer"* %call6), !dbg !4655
  store %"class.dealii::SparseMatrix"* %call7, %"class.dealii::SparseMatrix"** %p, align 8, !dbg !4652
  %sub_objects9 = getelementptr inbounds %"class.dealii::BlockMatrixBase", %"class.dealii::BlockMatrixBase"* %this1, i32 0, i32 3, !dbg !4657
  %4 = load i32, i32* %r, align 4, !dbg !4658
  call void @_ZN6dealii5TableILi2ENS_12SmartPointerINS_12SparseMatrixIdEEEEEixEj(%"class.dealii::internal::TableBaseAccessors::Accessor"* sret %ref.tmp8, %"class.dealii::Table"* %sub_objects9, i32 %4), !dbg !4659
  %5 = load i32, i32* %c, align 4, !dbg !4660
  %call10 = call dereferenceable(16) %"class.dealii::SmartPointer"* @_ZNK6dealii8internal18TableBaseAccessors8AccessorILi2ENS_12SmartPointerINS_12SparseMatrixIdEEEELb0ELj1EEixEj(%"class.dealii::internal::TableBaseAccessors::Accessor"* %ref.tmp8, i32 %5), !dbg !4659
  %call11 = call dereferenceable(16) %"class.dealii::SmartPointer"* @_ZN6dealii12SmartPointerINS_12SparseMatrixIdEEEaSEPS2_(%"class.dealii::SmartPointer"* %call10, %"class.dealii::SparseMatrix"* null), !dbg !4661
  %6 = load %"class.dealii::SparseMatrix"*, %"class.dealii::SparseMatrix"** %p, align 8, !dbg !4662
  %isnull = icmp eq %"class.dealii::SparseMatrix"* %6, null, !dbg !4663
  br i1 %isnull, label %delete.end, label %delete.notnull, !dbg !4663

delete.notnull:                                   ; preds = %for.body5
  %7 = bitcast %"class.dealii::SparseMatrix"* %6 to void (%"class.dealii::SparseMatrix"*)***, !dbg !4663
  %vtable = load void (%"class.dealii::SparseMatrix"*)**, void (%"class.dealii::SparseMatrix"*)*** %7, align 8, !dbg !4663
  %vfn = getelementptr inbounds void (%"class.dealii::SparseMatrix"*)*, void (%"class.dealii::SparseMatrix"*)** %vtable, i64 1, !dbg !4663
  %8 = load void (%"class.dealii::SparseMatrix"*)*, void (%"class.dealii::SparseMatrix"*)** %vfn, align 8, !dbg !4663
  call void %8(%"class.dealii::SparseMatrix"* %6) #4, !dbg !4663
  br label %delete.end, !dbg !4663

delete.end:                                       ; preds = %delete.notnull, %for.body5
  br label %for.inc, !dbg !4664

for.inc:                                          ; preds = %delete.end
  %9 = load i32, i32* %c, align 4, !dbg !4665
  %inc = add i32 %9, 1, !dbg !4665
  store i32 %inc, i32* %c, align 4, !dbg !4665
  br label %for.cond2, !dbg !4666, !llvm.loop !4667

for.end:                                          ; preds = %for.cond2
  br label %for.inc12, !dbg !4668

for.inc12:                                        ; preds = %for.end
  %10 = load i32, i32* %r, align 4, !dbg !4669
  %inc13 = add i32 %10, 1, !dbg !4669
  store i32 %inc13, i32* %r, align 4, !dbg !4669
  br label %for.cond, !dbg !4670, !llvm.loop !4671

for.end14:                                        ; preds = %for.cond
  %sub_objects15 = getelementptr inbounds %"class.dealii::BlockMatrixBase", %"class.dealii::BlockMatrixBase"* %this1, i32 0, i32 3, !dbg !4673
  call void @_ZN6dealii5TableILi2ENS_12SmartPointerINS_12SparseMatrixIdEEEEE6reinitEjj(%"class.dealii::Table"* %sub_objects15, i32 0, i32 0), !dbg !4674
  call void @_ZN6dealii12BlockIndicesC2Ej(%"class.dealii::BlockIndices"* %ref.tmp16, i32 0), !dbg !4675
  %column_block_indices = getelementptr inbounds %"class.dealii::BlockMatrixBase", %"class.dealii::BlockMatrixBase"* %this1, i32 0, i32 2, !dbg !4676
  %call17 = invoke dereferenceable(32) %"class.dealii::BlockIndices"* @_ZN6dealii12BlockIndicesaSERKS0_(%"class.dealii::BlockIndices"* %column_block_indices, %"class.dealii::BlockIndices"* dereferenceable(32) %ref.tmp16)
          to label %invoke.cont unwind label %lpad, !dbg !4677

invoke.cont:                                      ; preds = %for.end14
  %row_block_indices = getelementptr inbounds %"class.dealii::BlockMatrixBase", %"class.dealii::BlockMatrixBase"* %this1, i32 0, i32 1, !dbg !4678
  %call19 = invoke dereferenceable(32) %"class.dealii::BlockIndices"* @_ZN6dealii12BlockIndicesaSERKS0_(%"class.dealii::BlockIndices"* %row_block_indices, %"class.dealii::BlockIndices"* dereferenceable(32) %call17)
          to label %invoke.cont18 unwind label %lpad, !dbg !4679

invoke.cont18:                                    ; preds = %invoke.cont
  call void @_ZN6dealii12BlockIndicesD2Ev(%"class.dealii::BlockIndices"* %ref.tmp16) #4, !dbg !4678
  ret void, !dbg !4680

lpad:                                             ; preds = %invoke.cont, %for.end14
  %11 = landingpad { i8*, i32 }
          cleanup, !dbg !4680
  %12 = extractvalue { i8*, i32 } %11, 0, !dbg !4680
  store i8* %12, i8** %exn.slot, align 8, !dbg !4680
  %13 = extractvalue { i8*, i32 } %11, 1, !dbg !4680
  store i32 %13, i32* %ehselector.slot, align 4, !dbg !4680
  call void @_ZN6dealii12BlockIndicesD2Ev(%"class.dealii::BlockIndices"* %ref.tmp16) #4, !dbg !4678
  br label %eh.resume, !dbg !4678

eh.resume:                                        ; preds = %lpad
  %exn = load i8*, i8** %exn.slot, align 8, !dbg !4678
  %sel = load i32, i32* %ehselector.slot, align 4, !dbg !4678
  %lpad.val = insertvalue { i8*, i32 } undef, i8* %exn, 0, !dbg !4678
  %lpad.val20 = insertvalue { i8*, i32 } %lpad.val, i32 %sel, 1, !dbg !4678
  resume { i8*, i32 } %lpad.val20, !dbg !4678
}

; Function Attrs: noinline uwtable
define weak_odr dso_local void @_ZN6dealii17BlockSparseMatrixIdE6reinitERKNS_20BlockSparsityPatternE(%"class.dealii::BlockSparseMatrix"* %this, %"class.dealii::BlockSparsityPattern"* dereferenceable(288) %sparsity) unnamed_addr #0 comdat align 2 personality i8* bitcast (i32 (...)* @__gxx_personality_v0 to i8*) !dbg !4681 {
entry:
  %this.addr = alloca %"class.dealii::BlockSparseMatrix"*, align 8
  %sparsity.addr = alloca %"class.dealii::BlockSparsityPattern"*, align 8
  %r = alloca i32, align 4
  %c = alloca i32, align 4
  %p = alloca %"class.dealii::SparseMatrix"*, align 8
  %exn.slot = alloca i8*
  %ehselector.slot = alloca i32
  %ref.tmp = alloca %"class.dealii::internal::TableBaseAccessors::Accessor", align 8
  store %"class.dealii::BlockSparseMatrix"* %this, %"class.dealii::BlockSparseMatrix"** %this.addr, align 8
  call void @llvm.dbg.declare(metadata %"class.dealii::BlockSparseMatrix"** %this.addr, metadata !4682, metadata !DIExpression()), !dbg !4683
  store %"class.dealii::BlockSparsityPattern"* %sparsity, %"class.dealii::BlockSparsityPattern"** %sparsity.addr, align 8
  call void @llvm.dbg.declare(metadata %"class.dealii::BlockSparsityPattern"** %sparsity.addr, metadata !4684, metadata !DIExpression()), !dbg !4685
  %this1 = load %"class.dealii::BlockSparseMatrix"*, %"class.dealii::BlockSparseMatrix"** %this.addr, align 8
  call void @_ZN6dealii17BlockSparseMatrixIdE5clearEv(%"class.dealii::BlockSparseMatrix"* %this1), !dbg !4686
  %0 = load %"class.dealii::BlockSparsityPattern"*, %"class.dealii::BlockSparsityPattern"** %sparsity.addr, align 8, !dbg !4687
  %sparsity_pattern = getelementptr inbounds %"class.dealii::BlockSparseMatrix", %"class.dealii::BlockSparseMatrix"* %this1, i32 0, i32 1, !dbg !4688
  %call = call dereferenceable(16) %"class.dealii::SmartPointer.34"* @_ZN6dealii12SmartPointerIKNS_20BlockSparsityPatternEEaSEPS2_(%"class.dealii::SmartPointer.34"* %sparsity_pattern, %"class.dealii::BlockSparsityPattern"* %0), !dbg !4689
  %1 = load %"class.dealii::BlockSparsityPattern"*, %"class.dealii::BlockSparsityPattern"** %sparsity.addr, align 8, !dbg !4690
  %2 = bitcast %"class.dealii::BlockSparsityPattern"* %1 to %"class.dealii::BlockSparsityPatternBase"*, !dbg !4690
  %row_indices = getelementptr inbounds %"class.dealii::BlockSparsityPatternBase", %"class.dealii::BlockSparsityPatternBase"* %2, i32 0, i32 4, !dbg !4691
  %3 = bitcast %"class.dealii::BlockSparseMatrix"* %this1 to %"class.dealii::BlockMatrixBase"*, !dbg !4692
  %row_block_indices = getelementptr inbounds %"class.dealii::BlockMatrixBase", %"class.dealii::BlockMatrixBase"* %3, i32 0, i32 1, !dbg !4692
  %call2 = call dereferenceable(32) %"class.dealii::BlockIndices"* @_ZN6dealii12BlockIndicesaSERKS0_(%"class.dealii::BlockIndices"* %row_block_indices, %"class.dealii::BlockIndices"* dereferenceable(32) %row_indices), !dbg !4693
  %4 = load %"class.dealii::BlockSparsityPattern"*, %"class.dealii::BlockSparsityPattern"** %sparsity.addr, align 8, !dbg !4694
  %5 = bitcast %"class.dealii::BlockSparsityPattern"* %4 to %"class.dealii::BlockSparsityPatternBase"*, !dbg !4694
  %column_indices = getelementptr inbounds %"class.dealii::BlockSparsityPatternBase", %"class.dealii::BlockSparsityPatternBase"* %5, i32 0, i32 5, !dbg !4695
  %6 = bitcast %"class.dealii::BlockSparseMatrix"* %this1 to %"class.dealii::BlockMatrixBase"*, !dbg !4696
  %column_block_indices = getelementptr inbounds %"class.dealii::BlockMatrixBase", %"class.dealii::BlockMatrixBase"* %6, i32 0, i32 2, !dbg !4696
  %call3 = call dereferenceable(32) %"class.dealii::BlockIndices"* @_ZN6dealii12BlockIndicesaSERKS0_(%"class.dealii::BlockIndices"* %column_block_indices, %"class.dealii::BlockIndices"* dereferenceable(32) %column_indices), !dbg !4697
  %7 = bitcast %"class.dealii::BlockSparseMatrix"* %this1 to %"class.dealii::BlockMatrixBase"*, !dbg !4698
  %sub_objects = getelementptr inbounds %"class.dealii::BlockMatrixBase", %"class.dealii::BlockMatrixBase"* %7, i32 0, i32 3, !dbg !4698
  %8 = load %"class.dealii::BlockSparsityPattern"*, %"class.dealii::BlockSparsityPattern"** %sparsity.addr, align 8, !dbg !4699
  %9 = bitcast %"class.dealii::BlockSparsityPattern"* %8 to %"class.dealii::BlockSparsityPatternBase"*, !dbg !4699
  %call4 = call i32 @_ZNK6dealii24BlockSparsityPatternBaseINS_15SparsityPatternEE12n_block_rowsEv(%"class.dealii::BlockSparsityPatternBase"* %9), !dbg !4700
  %10 = load %"class.dealii::BlockSparsityPattern"*, %"class.dealii::BlockSparsityPattern"** %sparsity.addr, align 8, !dbg !4701
  %11 = bitcast %"class.dealii::BlockSparsityPattern"* %10 to %"class.dealii::BlockSparsityPatternBase"*, !dbg !4701
  %call5 = call i32 @_ZNK6dealii24BlockSparsityPatternBaseINS_15SparsityPatternEE12n_block_colsEv(%"class.dealii::BlockSparsityPatternBase"* %11), !dbg !4702
  call void @_ZN6dealii5TableILi2ENS_12SmartPointerINS_12SparseMatrixIdEEEEE6reinitEjj(%"class.dealii::Table"* %sub_objects, i32 %call4, i32 %call5), !dbg !4703
  call void @llvm.dbg.declare(metadata i32* %r, metadata !4704, metadata !DIExpression()), !dbg !4706
  store i32 0, i32* %r, align 4, !dbg !4706
  br label %for.cond, !dbg !4707

for.cond:                                         ; preds = %for.inc16, %entry
  %12 = load i32, i32* %r, align 4, !dbg !4708
  %13 = bitcast %"class.dealii::BlockSparseMatrix"* %this1 to %"class.dealii::BlockMatrixBase"*, !dbg !4710
  %call6 = call i32 @_ZNK6dealii15BlockMatrixBaseINS_12SparseMatrixIdEEE12n_block_rowsEv(%"class.dealii::BlockMatrixBase"* %13), !dbg !4710
  %cmp = icmp ult i32 %12, %call6, !dbg !4711
  br i1 %cmp, label %for.body, label %for.end18, !dbg !4712

for.body:                                         ; preds = %for.cond
  call void @llvm.dbg.declare(metadata i32* %c, metadata !4713, metadata !DIExpression()), !dbg !4715
  store i32 0, i32* %c, align 4, !dbg !4715
  br label %for.cond7, !dbg !4716

for.cond7:                                        ; preds = %for.inc, %for.body
  %14 = load i32, i32* %c, align 4, !dbg !4717
  %15 = bitcast %"class.dealii::BlockSparseMatrix"* %this1 to %"class.dealii::BlockMatrixBase"*, !dbg !4719
  %call8 = call i32 @_ZNK6dealii15BlockMatrixBaseINS_12SparseMatrixIdEEE12n_block_colsEv(%"class.dealii::BlockMatrixBase"* %15), !dbg !4719
  %cmp9 = icmp ult i32 %14, %call8, !dbg !4720
  br i1 %cmp9, label %for.body10, label %for.end, !dbg !4721

for.body10:                                       ; preds = %for.cond7
  call void @llvm.dbg.declare(metadata %"class.dealii::SparseMatrix"** %p, metadata !4722, metadata !DIExpression()), !dbg !4726
  %call11 = call i8* @_Znwm(i64 112) #14, !dbg !4727
  %16 = bitcast i8* %call11 to %"class.dealii::SparseMatrix"*, !dbg !4727
  invoke void @_ZN6dealii12SparseMatrixIdEC1Ev(%"class.dealii::SparseMatrix"* %16)
          to label %invoke.cont unwind label %lpad, !dbg !4728

invoke.cont:                                      ; preds = %for.body10
  store %"class.dealii::SparseMatrix"* %16, %"class.dealii::SparseMatrix"** %p, align 8, !dbg !4726
  %17 = load %"class.dealii::SparseMatrix"*, %"class.dealii::SparseMatrix"** %p, align 8, !dbg !4729
  %18 = load %"class.dealii::BlockSparsityPattern"*, %"class.dealii::BlockSparsityPattern"** %sparsity.addr, align 8, !dbg !4730
  %19 = bitcast %"class.dealii::BlockSparsityPattern"* %18 to %"class.dealii::BlockSparsityPatternBase"*, !dbg !4730
  %20 = load i32, i32* %r, align 4, !dbg !4731
  %21 = load i32, i32* %c, align 4, !dbg !4732
  %call12 = call dereferenceable(128) %"class.dealii::SparsityPattern"* @_ZNK6dealii24BlockSparsityPatternBaseINS_15SparsityPatternEE5blockEjj(%"class.dealii::BlockSparsityPatternBase"* %19, i32 %20, i32 %21), !dbg !4733
  %22 = bitcast %"class.dealii::SparseMatrix"* %17 to void (%"class.dealii::SparseMatrix"*, %"class.dealii::SparsityPattern"*)***, !dbg !4734
  %vtable = load void (%"class.dealii::SparseMatrix"*, %"class.dealii::SparsityPattern"*)**, void (%"class.dealii::SparseMatrix"*, %"class.dealii::SparsityPattern"*)*** %22, align 8, !dbg !4734
  %vfn = getelementptr inbounds void (%"class.dealii::SparseMatrix"*, %"class.dealii::SparsityPattern"*)*, void (%"class.dealii::SparseMatrix"*, %"class.dealii::SparsityPattern"*)** %vtable, i64 2, !dbg !4734
  %23 = load void (%"class.dealii::SparseMatrix"*, %"class.dealii::SparsityPattern"*)*, void (%"class.dealii::SparseMatrix"*, %"class.dealii::SparsityPattern"*)** %vfn, align 8, !dbg !4734
  call void %23(%"class.dealii::SparseMatrix"* %17, %"class.dealii::SparsityPattern"* dereferenceable(128) %call12), !dbg !4734
  %24 = load %"class.dealii::SparseMatrix"*, %"class.dealii::SparseMatrix"** %p, align 8, !dbg !4735
  %25 = bitcast %"class.dealii::BlockSparseMatrix"* %this1 to %"class.dealii::BlockMatrixBase"*, !dbg !4736
  %sub_objects13 = getelementptr inbounds %"class.dealii::BlockMatrixBase", %"class.dealii::BlockMatrixBase"* %25, i32 0, i32 3, !dbg !4736
  %26 = load i32, i32* %r, align 4, !dbg !4737
  call void @_ZN6dealii5TableILi2ENS_12SmartPointerINS_12SparseMatrixIdEEEEEixEj(%"class.dealii::internal::TableBaseAccessors::Accessor"* sret %ref.tmp, %"class.dealii::Table"* %sub_objects13, i32 %26), !dbg !4738
  %27 = load i32, i32* %c, align 4, !dbg !4739
  %call14 = call dereferenceable(16) %"class.dealii::SmartPointer"* @_ZNK6dealii8internal18TableBaseAccessors8AccessorILi2ENS_12SmartPointerINS_12SparseMatrixIdEEEELb0ELj1EEixEj(%"class.dealii::internal::TableBaseAccessors::Accessor"* %ref.tmp, i32 %27), !dbg !4738
  %call15 = call dereferenceable(16) %"class.dealii::SmartPointer"* @_ZN6dealii12SmartPointerINS_12SparseMatrixIdEEEaSEPS2_(%"class.dealii::SmartPointer"* %call14, %"class.dealii::SparseMatrix"* %24), !dbg !4740
  br label %for.inc, !dbg !4741

for.inc:                                          ; preds = %invoke.cont
  %28 = load i32, i32* %c, align 4, !dbg !4742
  %inc = add i32 %28, 1, !dbg !4742
  store i32 %inc, i32* %c, align 4, !dbg !4742
  br label %for.cond7, !dbg !4743, !llvm.loop !4744

lpad:                                             ; preds = %for.body10
  %29 = landingpad { i8*, i32 }
          cleanup, !dbg !4746
  %30 = extractvalue { i8*, i32 } %29, 0, !dbg !4746
  store i8* %30, i8** %exn.slot, align 8, !dbg !4746
  %31 = extractvalue { i8*, i32 } %29, 1, !dbg !4746
  store i32 %31, i32* %ehselector.slot, align 4, !dbg !4746
  call void @_ZdlPv(i8* %call11) #13, !dbg !4727
  br label %eh.resume, !dbg !4727

for.end:                                          ; preds = %for.cond7
  br label %for.inc16, !dbg !4745

for.inc16:                                        ; preds = %for.end
  %32 = load i32, i32* %r, align 4, !dbg !4747
  %inc17 = add i32 %32, 1, !dbg !4747
  store i32 %inc17, i32* %r, align 4, !dbg !4747
  br label %for.cond, !dbg !4748, !llvm.loop !4749

for.end18:                                        ; preds = %for.cond
  ret void, !dbg !4751

eh.resume:                                        ; preds = %lpad
  %exn = load i8*, i8** %exn.slot, align 8, !dbg !4727
  %sel = load i32, i32* %ehselector.slot, align 4, !dbg !4727
  %lpad.val = insertvalue { i8*, i32 } undef, i8* %exn, 0, !dbg !4727
  %lpad.val19 = insertvalue { i8*, i32 } %lpad.val, i32 %sel, 1, !dbg !4727
  resume { i8*, i32 } %lpad.val19, !dbg !4727
}

; Function Attrs: noinline uwtable
define linkonce_odr dso_local dereferenceable(32) %"class.dealii::BlockIndices"* @_ZN6dealii12BlockIndicesaSERKS0_(%"class.dealii::BlockIndices"* %this, %"class.dealii::BlockIndices"* dereferenceable(32) %b) #0 comdat align 2 !dbg !4752 {
entry:
  %this.addr = alloca %"class.dealii::BlockIndices"*, align 8
  %b.addr = alloca %"class.dealii::BlockIndices"*, align 8
  store %"class.dealii::BlockIndices"* %this, %"class.dealii::BlockIndices"** %this.addr, align 8
  call void @llvm.dbg.declare(metadata %"class.dealii::BlockIndices"** %this.addr, metadata !4753, metadata !DIExpression()), !dbg !4755
  store %"class.dealii::BlockIndices"* %b, %"class.dealii::BlockIndices"** %b.addr, align 8
  call void @llvm.dbg.declare(metadata %"class.dealii::BlockIndices"** %b.addr, metadata !4756, metadata !DIExpression()), !dbg !4757
  %this1 = load %"class.dealii::BlockIndices"*, %"class.dealii::BlockIndices"** %this.addr, align 8
  %0 = load %"class.dealii::BlockIndices"*, %"class.dealii::BlockIndices"** %b.addr, align 8, !dbg !4758
  %start_indices = getelementptr inbounds %"class.dealii::BlockIndices", %"class.dealii::BlockIndices"* %0, i32 0, i32 1, !dbg !4759
  %start_indices2 = getelementptr inbounds %"class.dealii::BlockIndices", %"class.dealii::BlockIndices"* %this1, i32 0, i32 1, !dbg !4760
  %call = call dereferenceable(24) %"class.std::vector"* @_ZNSt6vectorIjSaIjEEaSERKS1_(%"class.std::vector"* %start_indices2, %"class.std::vector"* dereferenceable(24) %start_indices), !dbg !4761
  %1 = load %"class.dealii::BlockIndices"*, %"class.dealii::BlockIndices"** %b.addr, align 8, !dbg !4762
  %n_blocks = getelementptr inbounds %"class.dealii::BlockIndices", %"class.dealii::BlockIndices"* %1, i32 0, i32 0, !dbg !4763
  %2 = load i32, i32* %n_blocks, align 8, !dbg !4763
  %n_blocks3 = getelementptr inbounds %"class.dealii::BlockIndices", %"class.dealii::BlockIndices"* %this1, i32 0, i32 0, !dbg !4764
  store i32 %2, i32* %n_blocks3, align 8, !dbg !4765
  ret %"class.dealii::BlockIndices"* %this1, !dbg !4766
}

; Function Attrs: noinline uwtable
define linkonce_odr dso_local void @_ZN6dealii5TableILi2ENS_12SmartPointerINS_12SparseMatrixIdEEEEE6reinitEjj(%"class.dealii::Table"* %this, i32 %size1, i32 %size2) #0 comdat align 2 !dbg !4767 {
entry:
  %this.addr = alloca %"class.dealii::Table"*, align 8
  %size1.addr = alloca i32, align 4
  %size2.addr = alloca i32, align 4
  %ref.tmp = alloca %"class.dealii::TableIndices", align 4
  store %"class.dealii::Table"* %this, %"class.dealii::Table"** %this.addr, align 8
  call void @llvm.dbg.declare(metadata %"class.dealii::Table"** %this.addr, metadata !4768, metadata !DIExpression()), !dbg !4770
  store i32 %size1, i32* %size1.addr, align 4
  call void @llvm.dbg.declare(metadata i32* %size1.addr, metadata !4771, metadata !DIExpression()), !dbg !4772
  store i32 %size2, i32* %size2.addr, align 4
  call void @llvm.dbg.declare(metadata i32* %size2.addr, metadata !4773, metadata !DIExpression()), !dbg !4774
  %this1 = load %"class.dealii::Table"*, %"class.dealii::Table"** %this.addr, align 8
  %0 = bitcast %"class.dealii::Table"* %this1 to %"class.dealii::TableBase"*, !dbg !4775
  %1 = load i32, i32* %size1.addr, align 4, !dbg !4776
  %2 = load i32, i32* %size2.addr, align 4, !dbg !4777
  call void @_ZN6dealii12TableIndicesILi2EEC2Ejj(%"class.dealii::TableIndices"* %ref.tmp, i32 %1, i32 %2), !dbg !4778
  call void @_ZN6dealii9TableBaseILi2ENS_12SmartPointerINS_12SparseMatrixIdEEEEE6reinitERKNS_12TableIndicesILi2EEE(%"class.dealii::TableBase"* %0, %"class.dealii::TableIndices"* dereferenceable(8) %ref.tmp), !dbg !4775
  ret void, !dbg !4779
}

; Function Attrs: noinline nounwind uwtable
define linkonce_odr dso_local i32 @_ZNK6dealii24BlockSparsityPatternBaseINS_15SparsityPatternEE12n_block_rowsEv(%"class.dealii::BlockSparsityPatternBase"* %this) #1 comdat align 2 !dbg !4780 {
entry:
  %this.addr = alloca %"class.dealii::BlockSparsityPatternBase"*, align 8
  store %"class.dealii::BlockSparsityPatternBase"* %this, %"class.dealii::BlockSparsityPatternBase"** %this.addr, align 8
  call void @llvm.dbg.declare(metadata %"class.dealii::BlockSparsityPatternBase"** %this.addr, metadata !4787, metadata !DIExpression()), !dbg !4789
  %this1 = load %"class.dealii::BlockSparsityPatternBase"*, %"class.dealii::BlockSparsityPatternBase"** %this.addr, align 8
  %rows = getelementptr inbounds %"class.dealii::BlockSparsityPatternBase", %"class.dealii::BlockSparsityPatternBase"* %this1, i32 0, i32 1, !dbg !4790
  %0 = load i32, i32* %rows, align 8, !dbg !4790
  ret i32 %0, !dbg !4791
}

; Function Attrs: noinline nounwind uwtable
define linkonce_odr dso_local i32 @_ZNK6dealii24BlockSparsityPatternBaseINS_15SparsityPatternEE12n_block_colsEv(%"class.dealii::BlockSparsityPatternBase"* %this) #1 comdat align 2 !dbg !4792 {
entry:
  %this.addr = alloca %"class.dealii::BlockSparsityPatternBase"*, align 8
  store %"class.dealii::BlockSparsityPatternBase"* %this, %"class.dealii::BlockSparsityPatternBase"** %this.addr, align 8
  call void @llvm.dbg.declare(metadata %"class.dealii::BlockSparsityPatternBase"** %this.addr, metadata !4794, metadata !DIExpression()), !dbg !4795
  %this1 = load %"class.dealii::BlockSparsityPatternBase"*, %"class.dealii::BlockSparsityPatternBase"** %this.addr, align 8
  %columns = getelementptr inbounds %"class.dealii::BlockSparsityPatternBase", %"class.dealii::BlockSparsityPatternBase"* %this1, i32 0, i32 2, !dbg !4796
  %0 = load i32, i32* %columns, align 4, !dbg !4796
  ret i32 %0, !dbg !4797
}

; Function Attrs: nobuiltin
declare dso_local noalias i8* @_Znwm(i64) #8

declare dso_local void @_ZN6dealii12SparseMatrixIdEC1Ev(%"class.dealii::SparseMatrix"*) unnamed_addr #2

; Function Attrs: noinline uwtable
define linkonce_odr dso_local dereferenceable(128) %"class.dealii::SparsityPattern"* @_ZNK6dealii24BlockSparsityPatternBaseINS_15SparsityPatternEE5blockEjj(%"class.dealii::BlockSparsityPatternBase"* %this, i32 %row, i32 %column) #0 comdat align 2 !dbg !4798 {
entry:
  %this.addr = alloca %"class.dealii::BlockSparsityPatternBase"*, align 8
  %row.addr = alloca i32, align 4
  %column.addr = alloca i32, align 4
  %ref.tmp = alloca %"class.dealii::internal::TableBaseAccessors::Accessor.54", align 8
  store %"class.dealii::BlockSparsityPatternBase"* %this, %"class.dealii::BlockSparsityPatternBase"** %this.addr, align 8
  call void @llvm.dbg.declare(metadata %"class.dealii::BlockSparsityPatternBase"** %this.addr, metadata !4806, metadata !DIExpression()), !dbg !4807
  store i32 %row, i32* %row.addr, align 4
  call void @llvm.dbg.declare(metadata i32* %row.addr, metadata !4808, metadata !DIExpression()), !dbg !4809
  store i32 %column, i32* %column.addr, align 4
  call void @llvm.dbg.declare(metadata i32* %column.addr, metadata !4810, metadata !DIExpression()), !dbg !4811
  %this1 = load %"class.dealii::BlockSparsityPatternBase"*, %"class.dealii::BlockSparsityPatternBase"** %this.addr, align 8
  %sub_objects = getelementptr inbounds %"class.dealii::BlockSparsityPatternBase", %"class.dealii::BlockSparsityPatternBase"* %this1, i32 0, i32 3, !dbg !4812
  %0 = load i32, i32* %row.addr, align 4, !dbg !4813
  call void @_ZNK6dealii5TableILi2ENS_12SmartPointerINS_15SparsityPatternEEEEixEj(%"class.dealii::internal::TableBaseAccessors::Accessor.54"* sret %ref.tmp, %"class.dealii::Table.35"* %sub_objects, i32 %0), !dbg !4812
  %1 = load i32, i32* %column.addr, align 4, !dbg !4814
  %call = call dereferenceable(16) %"class.dealii::SmartPointer.37"* @_ZNK6dealii8internal18TableBaseAccessors8AccessorILi2ENS_12SmartPointerINS_15SparsityPatternEEELb1ELj1EEixEj(%"class.dealii::internal::TableBaseAccessors::Accessor.54"* %ref.tmp, i32 %1), !dbg !4812
  %call2 = call dereferenceable(128) %"class.dealii::SparsityPattern"* @_ZNK6dealii12SmartPointerINS_15SparsityPatternEEdeEv(%"class.dealii::SmartPointer.37"* %call), !dbg !4815
  ret %"class.dealii::SparsityPattern"* %call2, !dbg !4816
}

; Function Attrs: noinline uwtable
define linkonce_odr dso_local void @_ZN6dealii5TableILi2ENS_12SmartPointerINS_12SparseMatrixIdEEEEEixEj(%"class.dealii::internal::TableBaseAccessors::Accessor"* noalias sret %agg.result, %"class.dealii::Table"* %this, i32 %i) #0 comdat align 2 !dbg !4817 {
entry:
  %result.ptr = alloca i8*, align 8
  %this.addr = alloca %"class.dealii::Table"*, align 8
  %i.addr = alloca i32, align 4
  %0 = bitcast %"class.dealii::internal::TableBaseAccessors::Accessor"* %agg.result to i8*
  store i8* %0, i8** %result.ptr, align 8
  store %"class.dealii::Table"* %this, %"class.dealii::Table"** %this.addr, align 8
  call void @llvm.dbg.declare(metadata %"class.dealii::Table"** %this.addr, metadata !4818, metadata !DIExpression()), !dbg !4819
  store i32 %i, i32* %i.addr, align 4
  call void @llvm.dbg.declare(metadata i32* %i.addr, metadata !4820, metadata !DIExpression()), !dbg !4821
  %this1 = load %"class.dealii::Table"*, %"class.dealii::Table"** %this.addr, align 8
  %1 = bitcast %"class.dealii::Table"* %this1 to %"class.dealii::TableBase"*, !dbg !4822
  %2 = bitcast %"class.dealii::Table"* %this1 to %"class.dealii::TableBase"*, !dbg !4823
  %val = getelementptr inbounds %"class.dealii::TableBase", %"class.dealii::TableBase"* %2, i32 0, i32 1, !dbg !4823
  %3 = load %"class.dealii::SmartPointer"*, %"class.dealii::SmartPointer"** %val, align 8, !dbg !4823
  %4 = load i32, i32* %i.addr, align 4, !dbg !4824
  %call = call i32 @_ZNK6dealii5TableILi2ENS_12SmartPointerINS_12SparseMatrixIdEEEEE6n_colsEv(%"class.dealii::Table"* %this1), !dbg !4825
  %mul = mul i32 %4, %call, !dbg !4826
  %idx.ext = zext i32 %mul to i64, !dbg !4827
  %add.ptr = getelementptr inbounds %"class.dealii::SmartPointer", %"class.dealii::SmartPointer"* %3, i64 %idx.ext, !dbg !4827
  call void @_ZN6dealii8internal18TableBaseAccessors8AccessorILi2ENS_12SmartPointerINS_12SparseMatrixIdEEEELb0ELj1EEC2ERKNS_9TableBaseILi2ES6_EEPS6_(%"class.dealii::internal::TableBaseAccessors::Accessor"* %agg.result, %"class.dealii::TableBase"* dereferenceable(96) %1, %"class.dealii::SmartPointer"* %add.ptr), !dbg !4828
  ret void, !dbg !4829
}

; Function Attrs: noinline nounwind uwtable
define linkonce_odr dso_local dereferenceable(16) %"class.dealii::SmartPointer"* @_ZNK6dealii8internal18TableBaseAccessors8AccessorILi2ENS_12SmartPointerINS_12SparseMatrixIdEEEELb0ELj1EEixEj(%"class.dealii::internal::TableBaseAccessors::Accessor"* %this, i32 %i) #1 comdat align 2 !dbg !4830 {
entry:
  %this.addr = alloca %"class.dealii::internal::TableBaseAccessors::Accessor"*, align 8
  %i.addr = alloca i32, align 4
  store %"class.dealii::internal::TableBaseAccessors::Accessor"* %this, %"class.dealii::internal::TableBaseAccessors::Accessor"** %this.addr, align 8
  call void @llvm.dbg.declare(metadata %"class.dealii::internal::TableBaseAccessors::Accessor"** %this.addr, metadata !4831, metadata !DIExpression()), !dbg !4833
  store i32 %i, i32* %i.addr, align 4
  call void @llvm.dbg.declare(metadata i32* %i.addr, metadata !4834, metadata !DIExpression()), !dbg !4835
  %this1 = load %"class.dealii::internal::TableBaseAccessors::Accessor"*, %"class.dealii::internal::TableBaseAccessors::Accessor"** %this.addr, align 8
  %data = getelementptr inbounds %"class.dealii::internal::TableBaseAccessors::Accessor", %"class.dealii::internal::TableBaseAccessors::Accessor"* %this1, i32 0, i32 1, !dbg !4836
  %0 = load %"class.dealii::SmartPointer"*, %"class.dealii::SmartPointer"** %data, align 8, !dbg !4836
  %1 = load i32, i32* %i.addr, align 4, !dbg !4837
  %idxprom = zext i32 %1 to i64, !dbg !4836
  %arrayidx = getelementptr inbounds %"class.dealii::SmartPointer", %"class.dealii::SmartPointer"* %0, i64 %idxprom, !dbg !4836
  ret %"class.dealii::SmartPointer"* %arrayidx, !dbg !4838
}

; Function Attrs: noinline nounwind uwtable
define linkonce_odr dso_local dereferenceable(16) %"class.dealii::SmartPointer"* @_ZN6dealii12SmartPointerINS_12SparseMatrixIdEEEaSEPS2_(%"class.dealii::SmartPointer"* %this, %"class.dealii::SparseMatrix"* %tt) #1 comdat align 2 !dbg !4839 {
entry:
  %retval = alloca %"class.dealii::SmartPointer"*, align 8
  %this.addr = alloca %"class.dealii::SmartPointer"*, align 8
  %tt.addr = alloca %"class.dealii::SparseMatrix"*, align 8
  store %"class.dealii::SmartPointer"* %this, %"class.dealii::SmartPointer"** %this.addr, align 8
  call void @llvm.dbg.declare(metadata %"class.dealii::SmartPointer"** %this.addr, metadata !4840, metadata !DIExpression()), !dbg !4841
  store %"class.dealii::SparseMatrix"* %tt, %"class.dealii::SparseMatrix"** %tt.addr, align 8
  call void @llvm.dbg.declare(metadata %"class.dealii::SparseMatrix"** %tt.addr, metadata !4842, metadata !DIExpression()), !dbg !4843
  %this1 = load %"class.dealii::SmartPointer"*, %"class.dealii::SmartPointer"** %this.addr, align 8
  %t = getelementptr inbounds %"class.dealii::SmartPointer", %"class.dealii::SmartPointer"* %this1, i32 0, i32 0, !dbg !4844
  %0 = load %"class.dealii::SparseMatrix"*, %"class.dealii::SparseMatrix"** %t, align 8, !dbg !4844
  %1 = load %"class.dealii::SparseMatrix"*, %"class.dealii::SparseMatrix"** %tt.addr, align 8, !dbg !4846
  %cmp = icmp eq %"class.dealii::SparseMatrix"* %0, %1, !dbg !4847
  br i1 %cmp, label %if.then, label %if.end, !dbg !4848

if.then:                                          ; preds = %entry
  store %"class.dealii::SmartPointer"* %this1, %"class.dealii::SmartPointer"** %retval, align 8, !dbg !4849
  br label %return, !dbg !4849

if.end:                                           ; preds = %entry
  %t2 = getelementptr inbounds %"class.dealii::SmartPointer", %"class.dealii::SmartPointer"* %this1, i32 0, i32 0, !dbg !4850
  %2 = load %"class.dealii::SparseMatrix"*, %"class.dealii::SparseMatrix"** %t2, align 8, !dbg !4850
  %cmp3 = icmp ne %"class.dealii::SparseMatrix"* %2, null, !dbg !4852
  br i1 %cmp3, label %if.then4, label %if.end6, !dbg !4853

if.then4:                                         ; preds = %if.end
  %t5 = getelementptr inbounds %"class.dealii::SmartPointer", %"class.dealii::SmartPointer"* %this1, i32 0, i32 0, !dbg !4854
  %3 = load %"class.dealii::SparseMatrix"*, %"class.dealii::SparseMatrix"** %t5, align 8, !dbg !4854
  %4 = bitcast %"class.dealii::SparseMatrix"* %3 to i8**, !dbg !4855
  %vtable = load i8*, i8** %4, align 8, !dbg !4855
  %vbase.offset.ptr = getelementptr i8, i8* %vtable, i64 -24, !dbg !4855
  %5 = bitcast i8* %vbase.offset.ptr to i64*, !dbg !4855
  %vbase.offset = load i64, i64* %5, align 8, !dbg !4855
  %6 = bitcast %"class.dealii::SparseMatrix"* %3 to i8*, !dbg !4855
  %add.ptr = getelementptr inbounds i8, i8* %6, i64 %vbase.offset, !dbg !4855
  %7 = bitcast i8* %add.ptr to %"class.dealii::Subscriptor"*, !dbg !4855
  %id = getelementptr inbounds %"class.dealii::SmartPointer", %"class.dealii::SmartPointer"* %this1, i32 0, i32 1, !dbg !4856
  %8 = load i8*, i8** %id, align 8, !dbg !4856
  call void @_ZNK6dealii11Subscriptor11unsubscribeEPKc(%"class.dealii::Subscriptor"* %7, i8* %8), !dbg !4855
  br label %if.end6, !dbg !4854

if.end6:                                          ; preds = %if.then4, %if.end
  %9 = load %"class.dealii::SparseMatrix"*, %"class.dealii::SparseMatrix"** %tt.addr, align 8, !dbg !4857
  %t7 = getelementptr inbounds %"class.dealii::SmartPointer", %"class.dealii::SmartPointer"* %this1, i32 0, i32 0, !dbg !4858
  store %"class.dealii::SparseMatrix"* %9, %"class.dealii::SparseMatrix"** %t7, align 8, !dbg !4859
  %10 = load %"class.dealii::SparseMatrix"*, %"class.dealii::SparseMatrix"** %tt.addr, align 8, !dbg !4860
  %cmp8 = icmp ne %"class.dealii::SparseMatrix"* %10, null, !dbg !4862
  br i1 %cmp8, label %if.then9, label %if.end15, !dbg !4863

if.then9:                                         ; preds = %if.end6
  %11 = load %"class.dealii::SparseMatrix"*, %"class.dealii::SparseMatrix"** %tt.addr, align 8, !dbg !4864
  %12 = bitcast %"class.dealii::SparseMatrix"* %11 to i8**, !dbg !4865
  %vtable10 = load i8*, i8** %12, align 8, !dbg !4865
  %vbase.offset.ptr11 = getelementptr i8, i8* %vtable10, i64 -24, !dbg !4865
  %13 = bitcast i8* %vbase.offset.ptr11 to i64*, !dbg !4865
  %vbase.offset12 = load i64, i64* %13, align 8, !dbg !4865
  %14 = bitcast %"class.dealii::SparseMatrix"* %11 to i8*, !dbg !4865
  %add.ptr13 = getelementptr inbounds i8, i8* %14, i64 %vbase.offset12, !dbg !4865
  %15 = bitcast i8* %add.ptr13 to %"class.dealii::Subscriptor"*, !dbg !4865
  %id14 = getelementptr inbounds %"class.dealii::SmartPointer", %"class.dealii::SmartPointer"* %this1, i32 0, i32 1, !dbg !4866
  %16 = load i8*, i8** %id14, align 8, !dbg !4866
  call void @_ZNK6dealii11Subscriptor9subscribeEPKc(%"class.dealii::Subscriptor"* %15, i8* %16), !dbg !4865
  br label %if.end15, !dbg !4864

if.end15:                                         ; preds = %if.then9, %if.end6
  store %"class.dealii::SmartPointer"* %this1, %"class.dealii::SmartPointer"** %retval, align 8, !dbg !4867
  br label %return, !dbg !4867

return:                                           ; preds = %if.end15, %if.then
  %17 = load %"class.dealii::SmartPointer"*, %"class.dealii::SmartPointer"** %retval, align 8, !dbg !4868
  ret %"class.dealii::SmartPointer"* %17, !dbg !4868
}

; Function Attrs: noinline uwtable
define weak_odr dso_local zeroext i1 @_ZNK6dealii17BlockSparseMatrixIdE5emptyEv(%"class.dealii::BlockSparseMatrix"* %this) #0 comdat align 2 !dbg !4869 {
entry:
  %retval = alloca i1, align 1
  %this.addr = alloca %"class.dealii::BlockSparseMatrix"*, align 8
  %r = alloca i32, align 4
  %c = alloca i32, align 4
  store %"class.dealii::BlockSparseMatrix"* %this, %"class.dealii::BlockSparseMatrix"** %this.addr, align 8
  call void @llvm.dbg.declare(metadata %"class.dealii::BlockSparseMatrix"** %this.addr, metadata !4870, metadata !DIExpression()), !dbg !4872
  %this1 = load %"class.dealii::BlockSparseMatrix"*, %"class.dealii::BlockSparseMatrix"** %this.addr, align 8
  call void @llvm.dbg.declare(metadata i32* %r, metadata !4873, metadata !DIExpression()), !dbg !4875
  store i32 0, i32* %r, align 4, !dbg !4875
  br label %for.cond, !dbg !4876

for.cond:                                         ; preds = %for.inc9, %entry
  %0 = load i32, i32* %r, align 4, !dbg !4877
  %1 = bitcast %"class.dealii::BlockSparseMatrix"* %this1 to %"class.dealii::BlockMatrixBase"*, !dbg !4879
  %call = call i32 @_ZNK6dealii15BlockMatrixBaseINS_12SparseMatrixIdEEE12n_block_rowsEv(%"class.dealii::BlockMatrixBase"* %1), !dbg !4879
  %cmp = icmp ult i32 %0, %call, !dbg !4880
  br i1 %cmp, label %for.body, label %for.end11, !dbg !4881

for.body:                                         ; preds = %for.cond
  call void @llvm.dbg.declare(metadata i32* %c, metadata !4882, metadata !DIExpression()), !dbg !4884
  store i32 0, i32* %c, align 4, !dbg !4884
  br label %for.cond2, !dbg !4885

for.cond2:                                        ; preds = %for.inc, %for.body
  %2 = load i32, i32* %c, align 4, !dbg !4886
  %3 = bitcast %"class.dealii::BlockSparseMatrix"* %this1 to %"class.dealii::BlockMatrixBase"*, !dbg !4888
  %call3 = call i32 @_ZNK6dealii15BlockMatrixBaseINS_12SparseMatrixIdEEE12n_block_colsEv(%"class.dealii::BlockMatrixBase"* %3), !dbg !4888
  %cmp4 = icmp ult i32 %2, %call3, !dbg !4889
  br i1 %cmp4, label %for.body5, label %for.end, !dbg !4890

for.body5:                                        ; preds = %for.cond2
  %4 = bitcast %"class.dealii::BlockSparseMatrix"* %this1 to %"class.dealii::BlockMatrixBase"*, !dbg !4891
  %5 = load i32, i32* %r, align 4, !dbg !4893
  %6 = load i32, i32* %c, align 4, !dbg !4894
  %call6 = call dereferenceable(112) %"class.dealii::SparseMatrix"* @_ZNK6dealii15BlockMatrixBaseINS_12SparseMatrixIdEEE5blockEjj(%"class.dealii::BlockMatrixBase"* %4, i32 %5, i32 %6), !dbg !4891
  %call7 = call zeroext i1 @_ZNK6dealii12SparseMatrixIdE5emptyEv(%"class.dealii::SparseMatrix"* %call6), !dbg !4895
  %conv = zext i1 %call7 to i32, !dbg !4896
  %cmp8 = icmp eq i32 %conv, 0, !dbg !4897
  br i1 %cmp8, label %if.then, label %if.end, !dbg !4898

if.then:                                          ; preds = %for.body5
  store i1 false, i1* %retval, align 1, !dbg !4899
  br label %return, !dbg !4899

if.end:                                           ; preds = %for.body5
  br label %for.inc, !dbg !4900

for.inc:                                          ; preds = %if.end
  %7 = load i32, i32* %c, align 4, !dbg !4901
  %inc = add i32 %7, 1, !dbg !4901
  store i32 %inc, i32* %c, align 4, !dbg !4901
  br label %for.cond2, !dbg !4902, !llvm.loop !4903

for.end:                                          ; preds = %for.cond2
  br label %for.inc9, !dbg !4904

for.inc9:                                         ; preds = %for.end
  %8 = load i32, i32* %r, align 4, !dbg !4905
  %inc10 = add i32 %8, 1, !dbg !4905
  store i32 %inc10, i32* %r, align 4, !dbg !4905
  br label %for.cond, !dbg !4906, !llvm.loop !4907

for.end11:                                        ; preds = %for.cond
  store i1 true, i1* %retval, align 1, !dbg !4909
  br label %return, !dbg !4909

return:                                           ; preds = %for.end11, %if.then
  %9 = load i1, i1* %retval, align 1, !dbg !4910
  ret i1 %9, !dbg !4910
}

declare dso_local zeroext i1 @_ZNK6dealii12SparseMatrixIdE5emptyEv(%"class.dealii::SparseMatrix"*) #2

; Function Attrs: noinline uwtable
define weak_odr dso_local i32 @_ZNK6dealii17BlockSparseMatrixIdE18n_nonzero_elementsEv(%"class.dealii::BlockSparseMatrix"* %this) #0 comdat align 2 !dbg !4911 {
entry:
  %this.addr = alloca %"class.dealii::BlockSparseMatrix"*, align 8
  store %"class.dealii::BlockSparseMatrix"* %this, %"class.dealii::BlockSparseMatrix"** %this.addr, align 8
  call void @llvm.dbg.declare(metadata %"class.dealii::BlockSparseMatrix"** %this.addr, metadata !4912, metadata !DIExpression()), !dbg !4913
  %this1 = load %"class.dealii::BlockSparseMatrix"*, %"class.dealii::BlockSparseMatrix"** %this.addr, align 8
  %sparsity_pattern = getelementptr inbounds %"class.dealii::BlockSparseMatrix", %"class.dealii::BlockSparseMatrix"* %this1, i32 0, i32 1, !dbg !4914
  %call = call %"class.dealii::BlockSparsityPattern"* @_ZNK6dealii12SmartPointerIKNS_20BlockSparsityPatternEEptEv(%"class.dealii::SmartPointer.34"* %sparsity_pattern), !dbg !4914
  %0 = bitcast %"class.dealii::BlockSparsityPattern"* %call to %"class.dealii::BlockSparsityPatternBase"*, !dbg !4915
  %call2 = call i32 @_ZNK6dealii24BlockSparsityPatternBaseINS_15SparsityPatternEE18n_nonzero_elementsEv(%"class.dealii::BlockSparsityPatternBase"* %0), !dbg !4915
  ret i32 %call2, !dbg !4916
}

; Function Attrs: noinline nounwind uwtable
define linkonce_odr dso_local %"class.dealii::BlockSparsityPattern"* @_ZNK6dealii12SmartPointerIKNS_20BlockSparsityPatternEEptEv(%"class.dealii::SmartPointer.34"* %this) #1 comdat align 2 !dbg !4917 {
entry:
  %this.addr = alloca %"class.dealii::SmartPointer.34"*, align 8
  store %"class.dealii::SmartPointer.34"* %this, %"class.dealii::SmartPointer.34"** %this.addr, align 8
  call void @llvm.dbg.declare(metadata %"class.dealii::SmartPointer.34"** %this.addr, metadata !4918, metadata !DIExpression()), !dbg !4920
  %this1 = load %"class.dealii::SmartPointer.34"*, %"class.dealii::SmartPointer.34"** %this.addr, align 8
  %t = getelementptr inbounds %"class.dealii::SmartPointer.34", %"class.dealii::SmartPointer.34"* %this1, i32 0, i32 0, !dbg !4921
  %0 = load %"class.dealii::BlockSparsityPattern"*, %"class.dealii::BlockSparsityPattern"** %t, align 8, !dbg !4921
  ret %"class.dealii::BlockSparsityPattern"* %0, !dbg !4922
}

declare dso_local i32 @_ZNK6dealii24BlockSparsityPatternBaseINS_15SparsityPatternEE18n_nonzero_elementsEv(%"class.dealii::BlockSparsityPatternBase"*) #2

; Function Attrs: noinline uwtable
define weak_odr dso_local i32 @_ZNK6dealii17BlockSparseMatrixIdE27n_actually_nonzero_elementsEd(%"class.dealii::BlockSparseMatrix"* %this, double %threshold) #0 comdat align 2 !dbg !4923 {
entry:
  %this.addr = alloca %"class.dealii::BlockSparseMatrix"*, align 8
  %threshold.addr = alloca double, align 8
  %count = alloca i32, align 4
  %i = alloca i32, align 4
  %j = alloca i32, align 4
  %ref.tmp = alloca %"class.dealii::internal::TableBaseAccessors::Accessor.41", align 8
  store %"class.dealii::BlockSparseMatrix"* %this, %"class.dealii::BlockSparseMatrix"** %this.addr, align 8
  call void @llvm.dbg.declare(metadata %"class.dealii::BlockSparseMatrix"** %this.addr, metadata !4924, metadata !DIExpression()), !dbg !4925
  store double %threshold, double* %threshold.addr, align 8
  call void @llvm.dbg.declare(metadata double* %threshold.addr, metadata !4926, metadata !DIExpression()), !dbg !4927
  %this1 = load %"class.dealii::BlockSparseMatrix"*, %"class.dealii::BlockSparseMatrix"** %this.addr, align 8
  call void @llvm.dbg.declare(metadata i32* %count, metadata !4928, metadata !DIExpression()), !dbg !4929
  store i32 0, i32* %count, align 4, !dbg !4929
  call void @llvm.dbg.declare(metadata i32* %i, metadata !4930, metadata !DIExpression()), !dbg !4932
  store i32 0, i32* %i, align 4, !dbg !4932
  br label %for.cond, !dbg !4933

for.cond:                                         ; preds = %for.inc9, %entry
  %0 = load i32, i32* %i, align 4, !dbg !4934
  %1 = bitcast %"class.dealii::BlockSparseMatrix"* %this1 to %"class.dealii::BlockMatrixBase"*, !dbg !4936
  %call = call i32 @_ZNK6dealii15BlockMatrixBaseINS_12SparseMatrixIdEEE12n_block_rowsEv(%"class.dealii::BlockMatrixBase"* %1), !dbg !4936
  %cmp = icmp ult i32 %0, %call, !dbg !4937
  br i1 %cmp, label %for.body, label %for.end11, !dbg !4938

for.body:                                         ; preds = %for.cond
  call void @llvm.dbg.declare(metadata i32* %j, metadata !4939, metadata !DIExpression()), !dbg !4941
  store i32 0, i32* %j, align 4, !dbg !4941
  br label %for.cond2, !dbg !4942

for.cond2:                                        ; preds = %for.inc, %for.body
  %2 = load i32, i32* %j, align 4, !dbg !4943
  %3 = bitcast %"class.dealii::BlockSparseMatrix"* %this1 to %"class.dealii::BlockMatrixBase"*, !dbg !4945
  %call3 = call i32 @_ZNK6dealii15BlockMatrixBaseINS_12SparseMatrixIdEEE12n_block_colsEv(%"class.dealii::BlockMatrixBase"* %3), !dbg !4945
  %cmp4 = icmp ult i32 %2, %call3, !dbg !4946
  br i1 %cmp4, label %for.body5, label %for.end, !dbg !4947

for.body5:                                        ; preds = %for.cond2
  %4 = bitcast %"class.dealii::BlockSparseMatrix"* %this1 to %"class.dealii::BlockMatrixBase"*, !dbg !4948
  %sub_objects = getelementptr inbounds %"class.dealii::BlockMatrixBase", %"class.dealii::BlockMatrixBase"* %4, i32 0, i32 3, !dbg !4948
  %5 = load i32, i32* %i, align 4, !dbg !4949
  call void @_ZNK6dealii5TableILi2ENS_12SmartPointerINS_12SparseMatrixIdEEEEEixEj(%"class.dealii::internal::TableBaseAccessors::Accessor.41"* sret %ref.tmp, %"class.dealii::Table"* %sub_objects, i32 %5), !dbg !4950
  %6 = load i32, i32* %j, align 4, !dbg !4951
  %call6 = call dereferenceable(16) %"class.dealii::SmartPointer"* @_ZNK6dealii8internal18TableBaseAccessors8AccessorILi2ENS_12SmartPointerINS_12SparseMatrixIdEEEELb1ELj1EEixEj(%"class.dealii::internal::TableBaseAccessors::Accessor.41"* %ref.tmp, i32 %6), !dbg !4950
  %call7 = call %"class.dealii::SparseMatrix"* @_ZNK6dealii12SmartPointerINS_12SparseMatrixIdEEEptEv(%"class.dealii::SmartPointer"* %call6), !dbg !4950
  %7 = load double, double* %threshold.addr, align 8, !dbg !4952
  %call8 = call i32 @_ZNK6dealii12SparseMatrixIdE27n_actually_nonzero_elementsEd(%"class.dealii::SparseMatrix"* %call7, double %7), !dbg !4953
  %8 = load i32, i32* %count, align 4, !dbg !4954
  %add = add i32 %8, %call8, !dbg !4954
  store i32 %add, i32* %count, align 4, !dbg !4954
  br label %for.inc, !dbg !4955

for.inc:                                          ; preds = %for.body5
  %9 = load i32, i32* %j, align 4, !dbg !4956
  %inc = add i32 %9, 1, !dbg !4956
  store i32 %inc, i32* %j, align 4, !dbg !4956
  br label %for.cond2, !dbg !4957, !llvm.loop !4958

for.end:                                          ; preds = %for.cond2
  br label %for.inc9, !dbg !4959

for.inc9:                                         ; preds = %for.end
  %10 = load i32, i32* %i, align 4, !dbg !4960
  %inc10 = add i32 %10, 1, !dbg !4960
  store i32 %inc10, i32* %i, align 4, !dbg !4960
  br label %for.cond, !dbg !4961, !llvm.loop !4962

for.end11:                                        ; preds = %for.cond
  %11 = load i32, i32* %count, align 4, !dbg !4964
  ret i32 %11, !dbg !4965
}

; Function Attrs: noinline uwtable
define linkonce_odr dso_local void @_ZNK6dealii5TableILi2ENS_12SmartPointerINS_12SparseMatrixIdEEEEEixEj(%"class.dealii::internal::TableBaseAccessors::Accessor.41"* noalias sret %agg.result, %"class.dealii::Table"* %this, i32 %i) #0 comdat align 2 !dbg !4966 {
entry:
  %result.ptr = alloca i8*, align 8
  %this.addr = alloca %"class.dealii::Table"*, align 8
  %i.addr = alloca i32, align 4
  %0 = bitcast %"class.dealii::internal::TableBaseAccessors::Accessor.41"* %agg.result to i8*
  store i8* %0, i8** %result.ptr, align 8
  store %"class.dealii::Table"* %this, %"class.dealii::Table"** %this.addr, align 8
  call void @llvm.dbg.declare(metadata %"class.dealii::Table"** %this.addr, metadata !4967, metadata !DIExpression()), !dbg !4969
  store i32 %i, i32* %i.addr, align 4
  call void @llvm.dbg.declare(metadata i32* %i.addr, metadata !4970, metadata !DIExpression()), !dbg !4971
  %this1 = load %"class.dealii::Table"*, %"class.dealii::Table"** %this.addr, align 8
  %1 = bitcast %"class.dealii::Table"* %this1 to %"class.dealii::TableBase"*, !dbg !4972
  %2 = bitcast %"class.dealii::Table"* %this1 to %"class.dealii::TableBase"*, !dbg !4973
  %val = getelementptr inbounds %"class.dealii::TableBase", %"class.dealii::TableBase"* %2, i32 0, i32 1, !dbg !4973
  %3 = load %"class.dealii::SmartPointer"*, %"class.dealii::SmartPointer"** %val, align 8, !dbg !4973
  %4 = load i32, i32* %i.addr, align 4, !dbg !4974
  %call = call i32 @_ZNK6dealii5TableILi2ENS_12SmartPointerINS_12SparseMatrixIdEEEEE6n_colsEv(%"class.dealii::Table"* %this1), !dbg !4975
  %mul = mul i32 %4, %call, !dbg !4976
  %idx.ext = zext i32 %mul to i64, !dbg !4977
  %add.ptr = getelementptr inbounds %"class.dealii::SmartPointer", %"class.dealii::SmartPointer"* %3, i64 %idx.ext, !dbg !4977
  call void @_ZN6dealii8internal18TableBaseAccessors8AccessorILi2ENS_12SmartPointerINS_12SparseMatrixIdEEEELb1ELj1EEC2ERKNS_9TableBaseILi2ES6_EEPKS6_(%"class.dealii::internal::TableBaseAccessors::Accessor.41"* %agg.result, %"class.dealii::TableBase"* dereferenceable(96) %1, %"class.dealii::SmartPointer"* %add.ptr), !dbg !4978
  ret void, !dbg !4979
}

; Function Attrs: noinline nounwind uwtable
define linkonce_odr dso_local dereferenceable(16) %"class.dealii::SmartPointer"* @_ZNK6dealii8internal18TableBaseAccessors8AccessorILi2ENS_12SmartPointerINS_12SparseMatrixIdEEEELb1ELj1EEixEj(%"class.dealii::internal::TableBaseAccessors::Accessor.41"* %this, i32 %i) #1 comdat align 2 !dbg !4980 {
entry:
  %this.addr = alloca %"class.dealii::internal::TableBaseAccessors::Accessor.41"*, align 8
  %i.addr = alloca i32, align 4
  store %"class.dealii::internal::TableBaseAccessors::Accessor.41"* %this, %"class.dealii::internal::TableBaseAccessors::Accessor.41"** %this.addr, align 8
  call void @llvm.dbg.declare(metadata %"class.dealii::internal::TableBaseAccessors::Accessor.41"** %this.addr, metadata !4981, metadata !DIExpression()), !dbg !4983
  store i32 %i, i32* %i.addr, align 4
  call void @llvm.dbg.declare(metadata i32* %i.addr, metadata !4984, metadata !DIExpression()), !dbg !4985
  %this1 = load %"class.dealii::internal::TableBaseAccessors::Accessor.41"*, %"class.dealii::internal::TableBaseAccessors::Accessor.41"** %this.addr, align 8
  %data = getelementptr inbounds %"class.dealii::internal::TableBaseAccessors::Accessor.41", %"class.dealii::internal::TableBaseAccessors::Accessor.41"* %this1, i32 0, i32 1, !dbg !4986
  %0 = load %"class.dealii::SmartPointer"*, %"class.dealii::SmartPointer"** %data, align 8, !dbg !4986
  %1 = load i32, i32* %i.addr, align 4, !dbg !4987
  %idxprom = zext i32 %1 to i64, !dbg !4986
  %arrayidx = getelementptr inbounds %"class.dealii::SmartPointer", %"class.dealii::SmartPointer"* %0, i64 %idxprom, !dbg !4986
  ret %"class.dealii::SmartPointer"* %arrayidx, !dbg !4988
}

; Function Attrs: noinline nounwind uwtable
define linkonce_odr dso_local %"class.dealii::SparseMatrix"* @_ZNK6dealii12SmartPointerINS_12SparseMatrixIdEEEptEv(%"class.dealii::SmartPointer"* %this) #1 comdat align 2 !dbg !4989 {
entry:
  %this.addr = alloca %"class.dealii::SmartPointer"*, align 8
  store %"class.dealii::SmartPointer"* %this, %"class.dealii::SmartPointer"** %this.addr, align 8
  call void @llvm.dbg.declare(metadata %"class.dealii::SmartPointer"** %this.addr, metadata !4990, metadata !DIExpression()), !dbg !4991
  %this1 = load %"class.dealii::SmartPointer"*, %"class.dealii::SmartPointer"** %this.addr, align 8
  %t = getelementptr inbounds %"class.dealii::SmartPointer", %"class.dealii::SmartPointer"* %this1, i32 0, i32 0, !dbg !4992
  %0 = load %"class.dealii::SparseMatrix"*, %"class.dealii::SparseMatrix"** %t, align 8, !dbg !4992
  ret %"class.dealii::SparseMatrix"* %0, !dbg !4993
}

declare dso_local i32 @_ZNK6dealii12SparseMatrixIdE27n_actually_nonzero_elementsEd(%"class.dealii::SparseMatrix"*, double) #2

; Function Attrs: noinline uwtable
define weak_odr dso_local void @_ZNK6dealii17BlockSparseMatrixIdE15print_formattedERSojbjPKcd(%"class.dealii::BlockSparseMatrix"* %this, %"class.std::basic_ostream"* dereferenceable(272) %out, i32 %precision, i1 zeroext %scientific, i32 %width, i8* %zero_string, double %denominator) #0 comdat align 2 !dbg !4994 {
entry:
  %this.addr = alloca %"class.dealii::BlockSparseMatrix"*, align 8
  %out.addr = alloca %"class.std::basic_ostream"*, align 8
  %precision.addr = alloca i32, align 4
  %scientific.addr = alloca i8, align 1
  %width.addr = alloca i32, align 4
  %zero_string.addr = alloca i8*, align 8
  %denominator.addr = alloca double, align 8
  %r = alloca i32, align 4
  %c = alloca i32, align 4
  store %"class.dealii::BlockSparseMatrix"* %this, %"class.dealii::BlockSparseMatrix"** %this.addr, align 8
  call void @llvm.dbg.declare(metadata %"class.dealii::BlockSparseMatrix"** %this.addr, metadata !4995, metadata !DIExpression()), !dbg !4996
  store %"class.std::basic_ostream"* %out, %"class.std::basic_ostream"** %out.addr, align 8
  call void @llvm.dbg.declare(metadata %"class.std::basic_ostream"** %out.addr, metadata !4997, metadata !DIExpression()), !dbg !4998
  store i32 %precision, i32* %precision.addr, align 4
  call void @llvm.dbg.declare(metadata i32* %precision.addr, metadata !4999, metadata !DIExpression()), !dbg !5000
  %frombool = zext i1 %scientific to i8
  store i8 %frombool, i8* %scientific.addr, align 1
  call void @llvm.dbg.declare(metadata i8* %scientific.addr, metadata !5001, metadata !DIExpression()), !dbg !5002
  store i32 %width, i32* %width.addr, align 4
  call void @llvm.dbg.declare(metadata i32* %width.addr, metadata !5003, metadata !DIExpression()), !dbg !5004
  store i8* %zero_string, i8** %zero_string.addr, align 8
  call void @llvm.dbg.declare(metadata i8** %zero_string.addr, metadata !5005, metadata !DIExpression()), !dbg !5006
  store double %denominator, double* %denominator.addr, align 8
  call void @llvm.dbg.declare(metadata double* %denominator.addr, metadata !5007, metadata !DIExpression()), !dbg !5008
  %this1 = load %"class.dealii::BlockSparseMatrix"*, %"class.dealii::BlockSparseMatrix"** %this.addr, align 8
  call void @llvm.dbg.declare(metadata i32* %r, metadata !5009, metadata !DIExpression()), !dbg !5011
  store i32 0, i32* %r, align 4, !dbg !5011
  br label %for.cond, !dbg !5012

for.cond:                                         ; preds = %for.inc13, %entry
  %0 = load i32, i32* %r, align 4, !dbg !5013
  %1 = bitcast %"class.dealii::BlockSparseMatrix"* %this1 to %"class.dealii::BlockMatrixBase"*, !dbg !5015
  %call = call i32 @_ZNK6dealii15BlockMatrixBaseINS_12SparseMatrixIdEEE12n_block_rowsEv(%"class.dealii::BlockMatrixBase"* %1), !dbg !5015
  %cmp = icmp ult i32 %0, %call, !dbg !5016
  br i1 %cmp, label %for.body, label %for.end15, !dbg !5017

for.body:                                         ; preds = %for.cond
  call void @llvm.dbg.declare(metadata i32* %c, metadata !5018, metadata !DIExpression()), !dbg !5020
  store i32 0, i32* %c, align 4, !dbg !5020
  br label %for.cond2, !dbg !5021

for.cond2:                                        ; preds = %for.inc, %for.body
  %2 = load i32, i32* %c, align 4, !dbg !5022
  %3 = bitcast %"class.dealii::BlockSparseMatrix"* %this1 to %"class.dealii::BlockMatrixBase"*, !dbg !5024
  %call3 = call i32 @_ZNK6dealii15BlockMatrixBaseINS_12SparseMatrixIdEEE12n_block_colsEv(%"class.dealii::BlockMatrixBase"* %3), !dbg !5024
  %cmp4 = icmp ult i32 %2, %call3, !dbg !5025
  br i1 %cmp4, label %for.body5, label %for.end, !dbg !5026

for.body5:                                        ; preds = %for.cond2
  %4 = load %"class.std::basic_ostream"*, %"class.std::basic_ostream"** %out.addr, align 8, !dbg !5027
  %call6 = call dereferenceable(272) %"class.std::basic_ostream"* @_ZStlsISt11char_traitsIcEERSt13basic_ostreamIcT_ES5_PKc(%"class.std::basic_ostream"* dereferenceable(272) %4, i8* getelementptr inbounds ([12 x i8], [12 x i8]* @.str, i64 0, i64 0)), !dbg !5029
  %5 = load i32, i32* %r, align 4, !dbg !5030
  %call7 = call dereferenceable(272) %"class.std::basic_ostream"* @_ZNSolsEj(%"class.std::basic_ostream"* %call6, i32 %5), !dbg !5031
  %call8 = call dereferenceable(272) %"class.std::basic_ostream"* @_ZStlsISt11char_traitsIcEERSt13basic_ostreamIcT_ES5_PKc(%"class.std::basic_ostream"* dereferenceable(272) %call7, i8* getelementptr inbounds ([2 x i8], [2 x i8]* @.str.10, i64 0, i64 0)), !dbg !5032
  %6 = load i32, i32* %c, align 4, !dbg !5033
  %call9 = call dereferenceable(272) %"class.std::basic_ostream"* @_ZNSolsEj(%"class.std::basic_ostream"* %call8, i32 %6), !dbg !5034
  %call10 = call dereferenceable(272) %"class.std::basic_ostream"* @_ZStlsISt11char_traitsIcEERSt13basic_ostreamIcT_ES5_PKc(%"class.std::basic_ostream"* dereferenceable(272) %call9, i8* getelementptr inbounds ([2 x i8], [2 x i8]* @.str.11, i64 0, i64 0)), !dbg !5035
  %call11 = call dereferenceable(272) %"class.std::basic_ostream"* @_ZNSolsEPFRSoS_E(%"class.std::basic_ostream"* %call10, %"class.std::basic_ostream"* (%"class.std::basic_ostream"*)* @_ZSt4endlIcSt11char_traitsIcEERSt13basic_ostreamIT_T0_ES6_), !dbg !5036
  %7 = bitcast %"class.dealii::BlockSparseMatrix"* %this1 to %"class.dealii::BlockMatrixBase"*, !dbg !5037
  %8 = load i32, i32* %r, align 4, !dbg !5038
  %9 = load i32, i32* %c, align 4, !dbg !5039
  %call12 = call dereferenceable(112) %"class.dealii::SparseMatrix"* @_ZNK6dealii15BlockMatrixBaseINS_12SparseMatrixIdEEE5blockEjj(%"class.dealii::BlockMatrixBase"* %7, i32 %8, i32 %9), !dbg !5037
  %10 = load %"class.std::basic_ostream"*, %"class.std::basic_ostream"** %out.addr, align 8, !dbg !5040
  %11 = load i32, i32* %precision.addr, align 4, !dbg !5041
  %12 = load i8, i8* %scientific.addr, align 1, !dbg !5042
  %tobool = trunc i8 %12 to i1, !dbg !5042
  %13 = load i32, i32* %width.addr, align 4, !dbg !5043
  %14 = load i8*, i8** %zero_string.addr, align 8, !dbg !5044
  %15 = load double, double* %denominator.addr, align 8, !dbg !5045
  call void @_ZNK6dealii12SparseMatrixIdE15print_formattedERSojbjPKcd(%"class.dealii::SparseMatrix"* %call12, %"class.std::basic_ostream"* dereferenceable(272) %10, i32 %11, i1 zeroext %tobool, i32 %13, i8* %14, double %15), !dbg !5046
  br label %for.inc, !dbg !5047

for.inc:                                          ; preds = %for.body5
  %16 = load i32, i32* %c, align 4, !dbg !5048
  %inc = add i32 %16, 1, !dbg !5048
  store i32 %inc, i32* %c, align 4, !dbg !5048
  br label %for.cond2, !dbg !5049, !llvm.loop !5050

for.end:                                          ; preds = %for.cond2
  br label %for.inc13, !dbg !5051

for.inc13:                                        ; preds = %for.end
  %17 = load i32, i32* %r, align 4, !dbg !5052
  %inc14 = add i32 %17, 1, !dbg !5052
  store i32 %inc14, i32* %r, align 4, !dbg !5052
  br label %for.cond, !dbg !5053, !llvm.loop !5054

for.end15:                                        ; preds = %for.cond
  ret void, !dbg !5056
}

declare dso_local dereferenceable(272) %"class.std::basic_ostream"* @_ZStlsISt11char_traitsIcEERSt13basic_ostreamIcT_ES5_PKc(%"class.std::basic_ostream"* dereferenceable(272), i8*) #2

declare dso_local dereferenceable(272) %"class.std::basic_ostream"* @_ZNSolsEj(%"class.std::basic_ostream"*, i32) #2

declare dso_local dereferenceable(272) %"class.std::basic_ostream"* @_ZNSolsEPFRSoS_E(%"class.std::basic_ostream"*, %"class.std::basic_ostream"* (%"class.std::basic_ostream"*)*) #2

declare dso_local dereferenceable(272) %"class.std::basic_ostream"* @_ZSt4endlIcSt11char_traitsIcEERSt13basic_ostreamIT_T0_ES6_(%"class.std::basic_ostream"* dereferenceable(272)) #2

declare dso_local void @_ZNK6dealii12SparseMatrixIdE15print_formattedERSojbjPKcd(%"class.dealii::SparseMatrix"*, %"class.std::basic_ostream"* dereferenceable(272), i32, i1 zeroext, i32, i8*, double) #2

; Function Attrs: noinline uwtable
define weak_odr dso_local dereferenceable(288) %"class.dealii::BlockSparsityPattern"* @_ZNK6dealii17BlockSparseMatrixIdE20get_sparsity_patternEv(%"class.dealii::BlockSparseMatrix"* %this) #0 comdat align 2 !dbg !5057 {
entry:
  %this.addr = alloca %"class.dealii::BlockSparseMatrix"*, align 8
  store %"class.dealii::BlockSparseMatrix"* %this, %"class.dealii::BlockSparseMatrix"** %this.addr, align 8
  call void @llvm.dbg.declare(metadata %"class.dealii::BlockSparseMatrix"** %this.addr, metadata !5058, metadata !DIExpression()), !dbg !5059
  %this1 = load %"class.dealii::BlockSparseMatrix"*, %"class.dealii::BlockSparseMatrix"** %this.addr, align 8
  %sparsity_pattern = getelementptr inbounds %"class.dealii::BlockSparseMatrix", %"class.dealii::BlockSparseMatrix"* %this1, i32 0, i32 1, !dbg !5060
  %call = call dereferenceable(288) %"class.dealii::BlockSparsityPattern"* @_ZNK6dealii12SmartPointerIKNS_20BlockSparsityPatternEEdeEv(%"class.dealii::SmartPointer.34"* %sparsity_pattern), !dbg !5061
  ret %"class.dealii::BlockSparsityPattern"* %call, !dbg !5062
}

; Function Attrs: noinline nounwind uwtable
define linkonce_odr dso_local dereferenceable(288) %"class.dealii::BlockSparsityPattern"* @_ZNK6dealii12SmartPointerIKNS_20BlockSparsityPatternEEdeEv(%"class.dealii::SmartPointer.34"* %this) #1 comdat align 2 !dbg !5063 {
entry:
  %this.addr = alloca %"class.dealii::SmartPointer.34"*, align 8
  store %"class.dealii::SmartPointer.34"* %this, %"class.dealii::SmartPointer.34"** %this.addr, align 8
  call void @llvm.dbg.declare(metadata %"class.dealii::SmartPointer.34"** %this.addr, metadata !5064, metadata !DIExpression()), !dbg !5065
  %this1 = load %"class.dealii::SmartPointer.34"*, %"class.dealii::SmartPointer.34"** %this.addr, align 8
  %t = getelementptr inbounds %"class.dealii::SmartPointer.34", %"class.dealii::SmartPointer.34"* %this1, i32 0, i32 0, !dbg !5066
  %0 = load %"class.dealii::BlockSparsityPattern"*, %"class.dealii::BlockSparsityPattern"** %t, align 8, !dbg !5066
  ret %"class.dealii::BlockSparsityPattern"* %0, !dbg !5067
}

; Function Attrs: noinline uwtable
define weak_odr dso_local i32 @_ZNK6dealii17BlockSparseMatrixIdE18memory_consumptionEv(%"class.dealii::BlockSparseMatrix"* %this) #0 comdat align 2 !dbg !5068 {
entry:
  %this.addr = alloca %"class.dealii::BlockSparseMatrix"*, align 8
  %mem = alloca i32, align 4
  %r = alloca i32, align 4
  %c = alloca i32, align 4
  %ref.tmp = alloca %"class.dealii::internal::TableBaseAccessors::Accessor.41", align 8
  store %"class.dealii::BlockSparseMatrix"* %this, %"class.dealii::BlockSparseMatrix"** %this.addr, align 8
  call void @llvm.dbg.declare(metadata %"class.dealii::BlockSparseMatrix"** %this.addr, metadata !5069, metadata !DIExpression()), !dbg !5070
  %this1 = load %"class.dealii::BlockSparseMatrix"*, %"class.dealii::BlockSparseMatrix"** %this.addr, align 8
  call void @llvm.dbg.declare(metadata i32* %mem, metadata !5071, metadata !DIExpression()), !dbg !5072
  store i32 320, i32* %mem, align 4, !dbg !5072
  %0 = bitcast %"class.dealii::BlockSparseMatrix"* %this1 to %"class.dealii::BlockMatrixBase"*, !dbg !5073
  %sub_objects = getelementptr inbounds %"class.dealii::BlockMatrixBase", %"class.dealii::BlockMatrixBase"* %0, i32 0, i32 3, !dbg !5073
  %call = call i32 @_ZN6dealii17MemoryConsumption18memory_consumptionINS_5TableILi2ENS_12SmartPointerINS_12SparseMatrixIdEEEEEEEEjRKT_(%"class.dealii::Table"* dereferenceable(96) %sub_objects), !dbg !5074
  %1 = load i32, i32* %mem, align 4, !dbg !5075
  %add = add i32 %1, %call, !dbg !5075
  store i32 %add, i32* %mem, align 4, !dbg !5075
  call void @llvm.dbg.declare(metadata i32* %r, metadata !5076, metadata !DIExpression()), !dbg !5078
  store i32 0, i32* %r, align 4, !dbg !5078
  br label %for.cond, !dbg !5079

for.cond:                                         ; preds = %for.inc12, %entry
  %2 = load i32, i32* %r, align 4, !dbg !5080
  %3 = bitcast %"class.dealii::BlockSparseMatrix"* %this1 to %"class.dealii::BlockMatrixBase"*, !dbg !5082
  %call2 = call i32 @_ZNK6dealii15BlockMatrixBaseINS_12SparseMatrixIdEEE12n_block_rowsEv(%"class.dealii::BlockMatrixBase"* %3), !dbg !5082
  %cmp = icmp ult i32 %2, %call2, !dbg !5083
  br i1 %cmp, label %for.body, label %for.end14, !dbg !5084

for.body:                                         ; preds = %for.cond
  call void @llvm.dbg.declare(metadata i32* %c, metadata !5085, metadata !DIExpression()), !dbg !5087
  store i32 0, i32* %c, align 4, !dbg !5087
  br label %for.cond3, !dbg !5088

for.cond3:                                        ; preds = %for.inc, %for.body
  %4 = load i32, i32* %c, align 4, !dbg !5089
  %5 = bitcast %"class.dealii::BlockSparseMatrix"* %this1 to %"class.dealii::BlockMatrixBase"*, !dbg !5091
  %call4 = call i32 @_ZNK6dealii15BlockMatrixBaseINS_12SparseMatrixIdEEE12n_block_colsEv(%"class.dealii::BlockMatrixBase"* %5), !dbg !5091
  %cmp5 = icmp ult i32 %4, %call4, !dbg !5092
  br i1 %cmp5, label %for.body6, label %for.end, !dbg !5093

for.body6:                                        ; preds = %for.cond3
  %6 = bitcast %"class.dealii::BlockSparseMatrix"* %this1 to %"class.dealii::BlockMatrixBase"*, !dbg !5094
  %sub_objects7 = getelementptr inbounds %"class.dealii::BlockMatrixBase", %"class.dealii::BlockMatrixBase"* %6, i32 0, i32 3, !dbg !5094
  %7 = load i32, i32* %r, align 4, !dbg !5095
  call void @_ZNK6dealii5TableILi2ENS_12SmartPointerINS_12SparseMatrixIdEEEEEixEj(%"class.dealii::internal::TableBaseAccessors::Accessor.41"* sret %ref.tmp, %"class.dealii::Table"* %sub_objects7, i32 %7), !dbg !5096
  %8 = load i32, i32* %c, align 4, !dbg !5097
  %call8 = call dereferenceable(16) %"class.dealii::SmartPointer"* @_ZNK6dealii8internal18TableBaseAccessors8AccessorILi2ENS_12SmartPointerINS_12SparseMatrixIdEEEELb1ELj1EEixEj(%"class.dealii::internal::TableBaseAccessors::Accessor.41"* %ref.tmp, i32 %8), !dbg !5096
  %call9 = call dereferenceable(112) %"class.dealii::SparseMatrix"* @_ZNK6dealii12SmartPointerINS_12SparseMatrixIdEEEdeEv(%"class.dealii::SmartPointer"* %call8), !dbg !5098
  %call10 = call i32 @_ZN6dealii17MemoryConsumption18memory_consumptionINS_12SparseMatrixIdEEEEjRKT_(%"class.dealii::SparseMatrix"* dereferenceable(112) %call9), !dbg !5099
  %9 = load i32, i32* %mem, align 4, !dbg !5100
  %add11 = add i32 %9, %call10, !dbg !5100
  store i32 %add11, i32* %mem, align 4, !dbg !5100
  br label %for.inc, !dbg !5101

for.inc:                                          ; preds = %for.body6
  %10 = load i32, i32* %c, align 4, !dbg !5102
  %inc = add i32 %10, 1, !dbg !5102
  store i32 %inc, i32* %c, align 4, !dbg !5102
  br label %for.cond3, !dbg !5103, !llvm.loop !5104

for.end:                                          ; preds = %for.cond3
  br label %for.inc12, !dbg !5105

for.inc12:                                        ; preds = %for.end
  %11 = load i32, i32* %r, align 4, !dbg !5106
  %inc13 = add i32 %11, 1, !dbg !5106
  store i32 %inc13, i32* %r, align 4, !dbg !5106
  br label %for.cond, !dbg !5107, !llvm.loop !5108

for.end14:                                        ; preds = %for.cond
  %12 = load i32, i32* %mem, align 4, !dbg !5110
  ret i32 %12, !dbg !5111
}

; Function Attrs: noinline uwtable
define linkonce_odr dso_local i32 @_ZN6dealii17MemoryConsumption18memory_consumptionINS_5TableILi2ENS_12SmartPointerINS_12SparseMatrixIdEEEEEEEEjRKT_(%"class.dealii::Table"* dereferenceable(96) %t) #0 comdat !dbg !5112 {
entry:
  %t.addr = alloca %"class.dealii::Table"*, align 8
  store %"class.dealii::Table"* %t, %"class.dealii::Table"** %t.addr, align 8
  call void @llvm.dbg.declare(metadata %"class.dealii::Table"** %t.addr, metadata !5120, metadata !DIExpression()), !dbg !5121
  %0 = load %"class.dealii::Table"*, %"class.dealii::Table"** %t.addr, align 8, !dbg !5122
  %1 = bitcast %"class.dealii::Table"* %0 to %"class.dealii::TableBase"*, !dbg !5122
  %call = call i32 @_ZNK6dealii9TableBaseILi2ENS_12SmartPointerINS_12SparseMatrixIdEEEEE18memory_consumptionEv(%"class.dealii::TableBase"* %1), !dbg !5123
  ret i32 %call, !dbg !5124
}

; Function Attrs: noinline uwtable
define linkonce_odr dso_local i32 @_ZN6dealii17MemoryConsumption18memory_consumptionINS_12SparseMatrixIdEEEEjRKT_(%"class.dealii::SparseMatrix"* dereferenceable(112) %t) #0 comdat !dbg !5125 {
entry:
  %t.addr = alloca %"class.dealii::SparseMatrix"*, align 8
  store %"class.dealii::SparseMatrix"* %t, %"class.dealii::SparseMatrix"** %t.addr, align 8
  call void @llvm.dbg.declare(metadata %"class.dealii::SparseMatrix"** %t.addr, metadata !5130, metadata !DIExpression()), !dbg !5131
  %0 = load %"class.dealii::SparseMatrix"*, %"class.dealii::SparseMatrix"** %t.addr, align 8, !dbg !5132
  %call = call i32 @_ZNK6dealii12SparseMatrixIdE18memory_consumptionEv(%"class.dealii::SparseMatrix"* %0), !dbg !5133
  ret i32 %call, !dbg !5134
}

; Function Attrs: noinline nounwind uwtable
define linkonce_odr dso_local dereferenceable(112) %"class.dealii::SparseMatrix"* @_ZNK6dealii12SmartPointerINS_12SparseMatrixIdEEEdeEv(%"class.dealii::SmartPointer"* %this) #1 comdat align 2 !dbg !5135 {
entry:
  %this.addr = alloca %"class.dealii::SmartPointer"*, align 8
  store %"class.dealii::SmartPointer"* %this, %"class.dealii::SmartPointer"** %this.addr, align 8
  call void @llvm.dbg.declare(metadata %"class.dealii::SmartPointer"** %this.addr, metadata !5136, metadata !DIExpression()), !dbg !5137
  %this1 = load %"class.dealii::SmartPointer"*, %"class.dealii::SmartPointer"** %this.addr, align 8
  %t = getelementptr inbounds %"class.dealii::SmartPointer", %"class.dealii::SmartPointer"* %this1, i32 0, i32 0, !dbg !5138
  %0 = load %"class.dealii::SparseMatrix"*, %"class.dealii::SparseMatrix"** %t, align 8, !dbg !5138
  ret %"class.dealii::SparseMatrix"* %0, !dbg !5139
}

; Function Attrs: noinline uwtable
define weak_odr dso_local void @_ZN6dealii17BlockSparseMatrixIfEC2Ev(%"class.dealii::BlockSparseMatrix.42"* %this) unnamed_addr #0 comdat($_ZN6dealii17BlockSparseMatrixIfEC5Ev) align 2 personality i8* bitcast (i32 (...)* @__gxx_personality_v0 to i8*) !dbg !5140 {
entry:
  %this.addr = alloca %"class.dealii::BlockSparseMatrix.42"*, align 8
  %exn.slot = alloca i8*
  %ehselector.slot = alloca i32
  store %"class.dealii::BlockSparseMatrix.42"* %this, %"class.dealii::BlockSparseMatrix.42"** %this.addr, align 8
  call void @llvm.dbg.declare(metadata %"class.dealii::BlockSparseMatrix.42"** %this.addr, metadata !5141, metadata !DIExpression()), !dbg !5143
  %this1 = load %"class.dealii::BlockSparseMatrix.42"*, %"class.dealii::BlockSparseMatrix.42"** %this.addr, align 8
  %0 = bitcast %"class.dealii::BlockSparseMatrix.42"* %this1 to %"class.dealii::BlockMatrixBase.43"*, !dbg !5144
  call void @_ZN6dealii15BlockMatrixBaseINS_12SparseMatrixIfEEEC2Ev(%"class.dealii::BlockMatrixBase.43"* %0), !dbg !5145
  %1 = bitcast %"class.dealii::BlockSparseMatrix.42"* %this1 to i32 (...)***, !dbg !5144
  store i32 (...)** bitcast (i8** getelementptr inbounds ({ [5 x i8*] }, { [5 x i8*] }* @_ZTVN6dealii17BlockSparseMatrixIfEE, i32 0, inrange i32 0, i32 2) to i32 (...)**), i32 (...)*** %1, align 8, !dbg !5144
  %sparsity_pattern = getelementptr inbounds %"class.dealii::BlockSparseMatrix.42", %"class.dealii::BlockSparseMatrix.42"* %this1, i32 0, i32 1, !dbg !5147
  invoke void @_ZN6dealii12SmartPointerIKNS_20BlockSparsityPatternEEC2EPS2_PKc(%"class.dealii::SmartPointer.34"* %sparsity_pattern, %"class.dealii::BlockSparsityPattern"* null, i8* null)
          to label %invoke.cont unwind label %lpad, !dbg !5147

invoke.cont:                                      ; preds = %entry
  ret void, !dbg !5149

lpad:                                             ; preds = %entry
  %2 = landingpad { i8*, i32 }
          cleanup, !dbg !5149
  %3 = extractvalue { i8*, i32 } %2, 0, !dbg !5149
  store i8* %3, i8** %exn.slot, align 8, !dbg !5149
  %4 = extractvalue { i8*, i32 } %2, 1, !dbg !5149
  store i32 %4, i32* %ehselector.slot, align 4, !dbg !5149
  %5 = bitcast %"class.dealii::BlockSparseMatrix.42"* %this1 to %"class.dealii::BlockMatrixBase.43"*, !dbg !5150
  call void @_ZN6dealii15BlockMatrixBaseINS_12SparseMatrixIfEEED2Ev(%"class.dealii::BlockMatrixBase.43"* %5) #4, !dbg !5150
  br label %eh.resume, !dbg !5150

eh.resume:                                        ; preds = %lpad
  %exn = load i8*, i8** %exn.slot, align 8, !dbg !5150
  %sel = load i32, i32* %ehselector.slot, align 4, !dbg !5150
  %lpad.val = insertvalue { i8*, i32 } undef, i8* %exn, 0, !dbg !5150
  %lpad.val2 = insertvalue { i8*, i32 } %lpad.val, i32 %sel, 1, !dbg !5150
  resume { i8*, i32 } %lpad.val2, !dbg !5150
}

; Function Attrs: noinline uwtable
define linkonce_odr dso_local void @_ZN6dealii15BlockMatrixBaseINS_12SparseMatrixIfEEEC2Ev(%"class.dealii::BlockMatrixBase.43"* %this) unnamed_addr #0 comdat align 2 personality i8* bitcast (i32 (...)* @__gxx_personality_v0 to i8*) !dbg !5152 {
entry:
  %this.addr = alloca %"class.dealii::BlockMatrixBase.43"*, align 8
  %exn.slot = alloca i8*
  %ehselector.slot = alloca i32
  store %"class.dealii::BlockMatrixBase.43"* %this, %"class.dealii::BlockMatrixBase.43"** %this.addr, align 8
  call void @llvm.dbg.declare(metadata %"class.dealii::BlockMatrixBase.43"** %this.addr, metadata !5153, metadata !DIExpression()), !dbg !5155
  %this1 = load %"class.dealii::BlockMatrixBase.43"*, %"class.dealii::BlockMatrixBase.43"** %this.addr, align 8
  %0 = bitcast %"class.dealii::BlockMatrixBase.43"* %this1 to %"class.dealii::Subscriptor"*, !dbg !5156
  call void @_ZN6dealii11SubscriptorC2Ev(%"class.dealii::Subscriptor"* %0), !dbg !5157
  %1 = bitcast %"class.dealii::BlockMatrixBase.43"* %this1 to i32 (...)***, !dbg !5156
  store i32 (...)** bitcast (i8** getelementptr inbounds ({ [4 x i8*] }, { [4 x i8*] }* @_ZTVN6dealii15BlockMatrixBaseINS_12SparseMatrixIfEEEE, i32 0, inrange i32 0, i32 2) to i32 (...)**), i32 (...)*** %1, align 8, !dbg !5156
  %row_block_indices = getelementptr inbounds %"class.dealii::BlockMatrixBase.43", %"class.dealii::BlockMatrixBase.43"* %this1, i32 0, i32 1, !dbg !5157
  invoke void @_ZN6dealii12BlockIndicesC2Ej(%"class.dealii::BlockIndices"* %row_block_indices, i32 0)
          to label %invoke.cont unwind label %lpad, !dbg !5157

invoke.cont:                                      ; preds = %entry
  %column_block_indices = getelementptr inbounds %"class.dealii::BlockMatrixBase.43", %"class.dealii::BlockMatrixBase.43"* %this1, i32 0, i32 2, !dbg !5157
  invoke void @_ZN6dealii12BlockIndicesC2Ej(%"class.dealii::BlockIndices"* %column_block_indices, i32 0)
          to label %invoke.cont3 unwind label %lpad2, !dbg !5157

invoke.cont3:                                     ; preds = %invoke.cont
  %sub_objects = getelementptr inbounds %"class.dealii::BlockMatrixBase.43", %"class.dealii::BlockMatrixBase.43"* %this1, i32 0, i32 3, !dbg !5157
  invoke void @_ZN6dealii5TableILi2ENS_12SmartPointerINS_12SparseMatrixIfEEEEEC2Ev(%"class.dealii::Table.44"* %sub_objects)
          to label %invoke.cont5 unwind label %lpad4, !dbg !5157

invoke.cont5:                                     ; preds = %invoke.cont3
  %counter_within_block = getelementptr inbounds %"class.dealii::BlockMatrixBase.43", %"class.dealii::BlockMatrixBase.43"* %this1, i32 0, i32 4, !dbg !5157
  call void @_ZNSt6vectorIjSaIjEEC2Ev(%"class.std::vector"* %counter_within_block) #4, !dbg !5157
  %column_indices = getelementptr inbounds %"class.dealii::BlockMatrixBase.43", %"class.dealii::BlockMatrixBase.43"* %this1, i32 0, i32 5, !dbg !5157
  call void @_ZNSt6vectorIS_IjSaIjEESaIS1_EEC2Ev(%"class.std::vector.19"* %column_indices) #4, !dbg !5157
  %column_values = getelementptr inbounds %"class.dealii::BlockMatrixBase.43", %"class.dealii::BlockMatrixBase.43"* %this1, i32 0, i32 6, !dbg !5157
  call void @_ZNSt6vectorIS_IdSaIdEESaIS1_EEC2Ev(%"class.std::vector.24"* %column_values) #4, !dbg !5157
  ret void, !dbg !5158

lpad:                                             ; preds = %entry
  %2 = landingpad { i8*, i32 }
          cleanup, !dbg !5158
  %3 = extractvalue { i8*, i32 } %2, 0, !dbg !5158
  store i8* %3, i8** %exn.slot, align 8, !dbg !5158
  %4 = extractvalue { i8*, i32 } %2, 1, !dbg !5158
  store i32 %4, i32* %ehselector.slot, align 4, !dbg !5158
  br label %ehcleanup6, !dbg !5158

lpad2:                                            ; preds = %invoke.cont
  %5 = landingpad { i8*, i32 }
          cleanup, !dbg !5158
  %6 = extractvalue { i8*, i32 } %5, 0, !dbg !5158
  store i8* %6, i8** %exn.slot, align 8, !dbg !5158
  %7 = extractvalue { i8*, i32 } %5, 1, !dbg !5158
  store i32 %7, i32* %ehselector.slot, align 4, !dbg !5158
  br label %ehcleanup, !dbg !5158

lpad4:                                            ; preds = %invoke.cont3
  %8 = landingpad { i8*, i32 }
          cleanup, !dbg !5158
  %9 = extractvalue { i8*, i32 } %8, 0, !dbg !5158
  store i8* %9, i8** %exn.slot, align 8, !dbg !5158
  %10 = extractvalue { i8*, i32 } %8, 1, !dbg !5158
  store i32 %10, i32* %ehselector.slot, align 4, !dbg !5158
  call void @_ZN6dealii12BlockIndicesD2Ev(%"class.dealii::BlockIndices"* %column_block_indices) #4, !dbg !5159
  br label %ehcleanup, !dbg !5159

ehcleanup:                                        ; preds = %lpad4, %lpad2
  call void @_ZN6dealii12BlockIndicesD2Ev(%"class.dealii::BlockIndices"* %row_block_indices) #4, !dbg !5159
  br label %ehcleanup6, !dbg !5159

ehcleanup6:                                       ; preds = %ehcleanup, %lpad
  %11 = bitcast %"class.dealii::BlockMatrixBase.43"* %this1 to %"class.dealii::Subscriptor"*, !dbg !5159
  call void @_ZN6dealii11SubscriptorD2Ev(%"class.dealii::Subscriptor"* %11) #4, !dbg !5159
  br label %eh.resume, !dbg !5159

eh.resume:                                        ; preds = %ehcleanup6
  %exn = load i8*, i8** %exn.slot, align 8, !dbg !5159
  %sel = load i32, i32* %ehselector.slot, align 4, !dbg !5159
  %lpad.val = insertvalue { i8*, i32 } undef, i8* %exn, 0, !dbg !5159
  %lpad.val7 = insertvalue { i8*, i32 } %lpad.val, i32 %sel, 1, !dbg !5159
  resume { i8*, i32 } %lpad.val7, !dbg !5159
}

; Function Attrs: noinline uwtable
define weak_odr dso_local void @_ZN6dealii17BlockSparseMatrixIfEC2ERKNS_20BlockSparsityPatternE(%"class.dealii::BlockSparseMatrix.42"* %this, %"class.dealii::BlockSparsityPattern"* dereferenceable(288) %sparsity) unnamed_addr #0 comdat($_ZN6dealii17BlockSparseMatrixIfEC5ERKNS_20BlockSparsityPatternE) align 2 personality i8* bitcast (i32 (...)* @__gxx_personality_v0 to i8*) !dbg !5161 {
entry:
  %this.addr = alloca %"class.dealii::BlockSparseMatrix.42"*, align 8
  %sparsity.addr = alloca %"class.dealii::BlockSparsityPattern"*, align 8
  %exn.slot = alloca i8*
  %ehselector.slot = alloca i32
  store %"class.dealii::BlockSparseMatrix.42"* %this, %"class.dealii::BlockSparseMatrix.42"** %this.addr, align 8
  call void @llvm.dbg.declare(metadata %"class.dealii::BlockSparseMatrix.42"** %this.addr, metadata !5162, metadata !DIExpression()), !dbg !5163
  store %"class.dealii::BlockSparsityPattern"* %sparsity, %"class.dealii::BlockSparsityPattern"** %sparsity.addr, align 8
  call void @llvm.dbg.declare(metadata %"class.dealii::BlockSparsityPattern"** %sparsity.addr, metadata !5164, metadata !DIExpression()), !dbg !5165
  %this1 = load %"class.dealii::BlockSparseMatrix.42"*, %"class.dealii::BlockSparseMatrix.42"** %this.addr, align 8
  %0 = bitcast %"class.dealii::BlockSparseMatrix.42"* %this1 to %"class.dealii::BlockMatrixBase.43"*, !dbg !5166
  call void @_ZN6dealii15BlockMatrixBaseINS_12SparseMatrixIfEEEC2Ev(%"class.dealii::BlockMatrixBase.43"* %0), !dbg !5167
  %1 = bitcast %"class.dealii::BlockSparseMatrix.42"* %this1 to i32 (...)***, !dbg !5166
  store i32 (...)** bitcast (i8** getelementptr inbounds ({ [5 x i8*] }, { [5 x i8*] }* @_ZTVN6dealii17BlockSparseMatrixIfEE, i32 0, inrange i32 0, i32 2) to i32 (...)**), i32 (...)*** %1, align 8, !dbg !5166
  %sparsity_pattern = getelementptr inbounds %"class.dealii::BlockSparseMatrix.42", %"class.dealii::BlockSparseMatrix.42"* %this1, i32 0, i32 1, !dbg !5169
  invoke void @_ZN6dealii12SmartPointerIKNS_20BlockSparsityPatternEEC2EPS2_PKc(%"class.dealii::SmartPointer.34"* %sparsity_pattern, %"class.dealii::BlockSparsityPattern"* null, i8* null)
          to label %invoke.cont unwind label %lpad, !dbg !5169

invoke.cont:                                      ; preds = %entry
  %2 = load %"class.dealii::BlockSparsityPattern"*, %"class.dealii::BlockSparsityPattern"** %sparsity.addr, align 8, !dbg !5171
  %3 = bitcast %"class.dealii::BlockSparseMatrix.42"* %this1 to void (%"class.dealii::BlockSparseMatrix.42"*, %"class.dealii::BlockSparsityPattern"*)***, !dbg !5173
  %vtable = load void (%"class.dealii::BlockSparseMatrix.42"*, %"class.dealii::BlockSparsityPattern"*)**, void (%"class.dealii::BlockSparseMatrix.42"*, %"class.dealii::BlockSparsityPattern"*)*** %3, align 8, !dbg !5173
  %vfn = getelementptr inbounds void (%"class.dealii::BlockSparseMatrix.42"*, %"class.dealii::BlockSparsityPattern"*)*, void (%"class.dealii::BlockSparseMatrix.42"*, %"class.dealii::BlockSparsityPattern"*)** %vtable, i64 2, !dbg !5173
  %4 = load void (%"class.dealii::BlockSparseMatrix.42"*, %"class.dealii::BlockSparsityPattern"*)*, void (%"class.dealii::BlockSparseMatrix.42"*, %"class.dealii::BlockSparsityPattern"*)** %vfn, align 8, !dbg !5173
  invoke void %4(%"class.dealii::BlockSparseMatrix.42"* %this1, %"class.dealii::BlockSparsityPattern"* dereferenceable(288) %2)
          to label %invoke.cont3 unwind label %lpad2, !dbg !5173

invoke.cont3:                                     ; preds = %invoke.cont
  ret void, !dbg !5174

lpad:                                             ; preds = %entry
  %5 = landingpad { i8*, i32 }
          cleanup, !dbg !5174
  %6 = extractvalue { i8*, i32 } %5, 0, !dbg !5174
  store i8* %6, i8** %exn.slot, align 8, !dbg !5174
  %7 = extractvalue { i8*, i32 } %5, 1, !dbg !5174
  store i32 %7, i32* %ehselector.slot, align 4, !dbg !5174
  br label %ehcleanup, !dbg !5174

lpad2:                                            ; preds = %invoke.cont
  %8 = landingpad { i8*, i32 }
          cleanup, !dbg !5175
  %9 = extractvalue { i8*, i32 } %8, 0, !dbg !5175
  store i8* %9, i8** %exn.slot, align 8, !dbg !5175
  %10 = extractvalue { i8*, i32 } %8, 1, !dbg !5175
  store i32 %10, i32* %ehselector.slot, align 4, !dbg !5175
  call void @_ZN6dealii12SmartPointerIKNS_20BlockSparsityPatternEED2Ev(%"class.dealii::SmartPointer.34"* %sparsity_pattern) #4, !dbg !5175
  br label %ehcleanup, !dbg !5175

ehcleanup:                                        ; preds = %lpad2, %lpad
  %11 = bitcast %"class.dealii::BlockSparseMatrix.42"* %this1 to %"class.dealii::BlockMatrixBase.43"*, !dbg !5175
  call void @_ZN6dealii15BlockMatrixBaseINS_12SparseMatrixIfEEED2Ev(%"class.dealii::BlockMatrixBase.43"* %11) #4, !dbg !5175
  br label %eh.resume, !dbg !5175

eh.resume:                                        ; preds = %ehcleanup
  %exn = load i8*, i8** %exn.slot, align 8, !dbg !5175
  %sel = load i32, i32* %ehselector.slot, align 4, !dbg !5175
  %lpad.val = insertvalue { i8*, i32 } undef, i8* %exn, 0, !dbg !5175
  %lpad.val4 = insertvalue { i8*, i32 } %lpad.val, i32 %sel, 1, !dbg !5175
  resume { i8*, i32 } %lpad.val4, !dbg !5175
}

; Function Attrs: noinline nounwind uwtable
define weak_odr dso_local void @_ZN6dealii17BlockSparseMatrixIfED2Ev(%"class.dealii::BlockSparseMatrix.42"* %this) unnamed_addr #1 comdat($_ZN6dealii17BlockSparseMatrixIfED5Ev) align 2 personality i8* bitcast (i32 (...)* @__gxx_personality_v0 to i8*) !dbg !5176 {
entry:
  %this.addr = alloca %"class.dealii::BlockSparseMatrix.42"*, align 8
  %exn.slot = alloca i8*
  %ehselector.slot = alloca i32
  store %"class.dealii::BlockSparseMatrix.42"* %this, %"class.dealii::BlockSparseMatrix.42"** %this.addr, align 8
  call void @llvm.dbg.declare(metadata %"class.dealii::BlockSparseMatrix.42"** %this.addr, metadata !5177, metadata !DIExpression()), !dbg !5178
  %this1 = load %"class.dealii::BlockSparseMatrix.42"*, %"class.dealii::BlockSparseMatrix.42"** %this.addr, align 8
  %0 = bitcast %"class.dealii::BlockSparseMatrix.42"* %this1 to i32 (...)***, !dbg !5179
  store i32 (...)** bitcast (i8** getelementptr inbounds ({ [5 x i8*] }, { [5 x i8*] }* @_ZTVN6dealii17BlockSparseMatrixIfEE, i32 0, inrange i32 0, i32 2) to i32 (...)**), i32 (...)*** %0, align 8, !dbg !5179
  invoke void @_ZN6dealii17BlockSparseMatrixIfE5clearEv(%"class.dealii::BlockSparseMatrix.42"* %this1)
          to label %invoke.cont unwind label %lpad, !dbg !5180

invoke.cont:                                      ; preds = %entry
  %sparsity_pattern = getelementptr inbounds %"class.dealii::BlockSparseMatrix.42", %"class.dealii::BlockSparseMatrix.42"* %this1, i32 0, i32 1, !dbg !5182
  %call = invoke dereferenceable(16) %"class.dealii::SmartPointer.34"* @_ZN6dealii12SmartPointerIKNS_20BlockSparsityPatternEEaSEPS2_(%"class.dealii::SmartPointer.34"* %sparsity_pattern, %"class.dealii::BlockSparsityPattern"* null)
          to label %invoke.cont2 unwind label %lpad, !dbg !5183

invoke.cont2:                                     ; preds = %invoke.cont
  %sparsity_pattern3 = getelementptr inbounds %"class.dealii::BlockSparseMatrix.42", %"class.dealii::BlockSparseMatrix.42"* %this1, i32 0, i32 1, !dbg !5184
  call void @_ZN6dealii12SmartPointerIKNS_20BlockSparsityPatternEED2Ev(%"class.dealii::SmartPointer.34"* %sparsity_pattern3) #4, !dbg !5184
  %1 = bitcast %"class.dealii::BlockSparseMatrix.42"* %this1 to %"class.dealii::BlockMatrixBase.43"*, !dbg !5184
  call void @_ZN6dealii15BlockMatrixBaseINS_12SparseMatrixIfEEED2Ev(%"class.dealii::BlockMatrixBase.43"* %1) #4, !dbg !5184
  ret void, !dbg !5185

lpad:                                             ; preds = %invoke.cont, %entry
  %2 = landingpad { i8*, i32 }
          catch i8* null, !dbg !5184
  %3 = extractvalue { i8*, i32 } %2, 0, !dbg !5184
  store i8* %3, i8** %exn.slot, align 8, !dbg !5184
  %4 = extractvalue { i8*, i32 } %2, 1, !dbg !5184
  store i32 %4, i32* %ehselector.slot, align 4, !dbg !5184
  %sparsity_pattern4 = getelementptr inbounds %"class.dealii::BlockSparseMatrix.42", %"class.dealii::BlockSparseMatrix.42"* %this1, i32 0, i32 1, !dbg !5184
  call void @_ZN6dealii12SmartPointerIKNS_20BlockSparsityPatternEED2Ev(%"class.dealii::SmartPointer.34"* %sparsity_pattern4) #4, !dbg !5184
  %5 = bitcast %"class.dealii::BlockSparseMatrix.42"* %this1 to %"class.dealii::BlockMatrixBase.43"*, !dbg !5184
  call void @_ZN6dealii15BlockMatrixBaseINS_12SparseMatrixIfEEED2Ev(%"class.dealii::BlockMatrixBase.43"* %5) #4, !dbg !5184
  br label %terminate.handler, !dbg !5184

terminate.handler:                                ; preds = %lpad
  %exn = load i8*, i8** %exn.slot, align 8, !dbg !5184
  call void @__clang_call_terminate(i8* %exn) #12, !dbg !5184
  unreachable, !dbg !5184
}

; Function Attrs: noinline uwtable
define weak_odr dso_local void @_ZN6dealii17BlockSparseMatrixIfE5clearEv(%"class.dealii::BlockSparseMatrix.42"* %this) #0 comdat align 2 !dbg !5186 {
entry:
  %this.addr = alloca %"class.dealii::BlockSparseMatrix.42"*, align 8
  store %"class.dealii::BlockSparseMatrix.42"* %this, %"class.dealii::BlockSparseMatrix.42"** %this.addr, align 8
  call void @llvm.dbg.declare(metadata %"class.dealii::BlockSparseMatrix.42"** %this.addr, metadata !5187, metadata !DIExpression()), !dbg !5188
  %this1 = load %"class.dealii::BlockSparseMatrix.42"*, %"class.dealii::BlockSparseMatrix.42"** %this.addr, align 8
  %0 = bitcast %"class.dealii::BlockSparseMatrix.42"* %this1 to %"class.dealii::BlockMatrixBase.43"*, !dbg !5189
  call void @_ZN6dealii15BlockMatrixBaseINS_12SparseMatrixIfEEE5clearEv(%"class.dealii::BlockMatrixBase.43"* %0), !dbg !5189
  %sparsity_pattern = getelementptr inbounds %"class.dealii::BlockSparseMatrix.42", %"class.dealii::BlockSparseMatrix.42"* %this1, i32 0, i32 1, !dbg !5190
  %call = call dereferenceable(16) %"class.dealii::SmartPointer.34"* @_ZN6dealii12SmartPointerIKNS_20BlockSparsityPatternEEaSEPS2_(%"class.dealii::SmartPointer.34"* %sparsity_pattern, %"class.dealii::BlockSparsityPattern"* null), !dbg !5191
  ret void, !dbg !5192
}

; Function Attrs: noinline nounwind uwtable
define weak_odr dso_local void @_ZN6dealii17BlockSparseMatrixIfED0Ev(%"class.dealii::BlockSparseMatrix.42"* %this) unnamed_addr #1 comdat($_ZN6dealii17BlockSparseMatrixIfED5Ev) align 2 !dbg !5193 {
entry:
  %this.addr = alloca %"class.dealii::BlockSparseMatrix.42"*, align 8
  store %"class.dealii::BlockSparseMatrix.42"* %this, %"class.dealii::BlockSparseMatrix.42"** %this.addr, align 8
  call void @llvm.dbg.declare(metadata %"class.dealii::BlockSparseMatrix.42"** %this.addr, metadata !5194, metadata !DIExpression()), !dbg !5195
  %this1 = load %"class.dealii::BlockSparseMatrix.42"*, %"class.dealii::BlockSparseMatrix.42"** %this.addr, align 8
  call void @_ZN6dealii17BlockSparseMatrixIfED1Ev(%"class.dealii::BlockSparseMatrix.42"* %this1) #4, !dbg !5196
  %0 = bitcast %"class.dealii::BlockSparseMatrix.42"* %this1 to i8*, !dbg !5196
  call void @_ZdlPv(i8* %0) #13, !dbg !5196
  ret void, !dbg !5197
}

; Function Attrs: noinline uwtable
define weak_odr dso_local dereferenceable(320) %"class.dealii::BlockSparseMatrix.42"* @_ZN6dealii17BlockSparseMatrixIfEaSERKS1_(%"class.dealii::BlockSparseMatrix.42"* %this, %"class.dealii::BlockSparseMatrix.42"* dereferenceable(320) %m) #0 comdat align 2 !dbg !5198 {
entry:
  %this.addr = alloca %"class.dealii::BlockSparseMatrix.42"*, align 8
  %m.addr = alloca %"class.dealii::BlockSparseMatrix.42"*, align 8
  %r = alloca i32, align 4
  %c = alloca i32, align 4
  store %"class.dealii::BlockSparseMatrix.42"* %this, %"class.dealii::BlockSparseMatrix.42"** %this.addr, align 8
  call void @llvm.dbg.declare(metadata %"class.dealii::BlockSparseMatrix.42"** %this.addr, metadata !5199, metadata !DIExpression()), !dbg !5200
  store %"class.dealii::BlockSparseMatrix.42"* %m, %"class.dealii::BlockSparseMatrix.42"** %m.addr, align 8
  call void @llvm.dbg.declare(metadata %"class.dealii::BlockSparseMatrix.42"** %m.addr, metadata !5201, metadata !DIExpression()), !dbg !5202
  %this1 = load %"class.dealii::BlockSparseMatrix.42"*, %"class.dealii::BlockSparseMatrix.42"** %this.addr, align 8
  call void @llvm.dbg.declare(metadata i32* %r, metadata !5203, metadata !DIExpression()), !dbg !5205
  store i32 0, i32* %r, align 4, !dbg !5205
  br label %for.cond, !dbg !5206

for.cond:                                         ; preds = %for.inc9, %entry
  %0 = load i32, i32* %r, align 4, !dbg !5207
  %1 = bitcast %"class.dealii::BlockSparseMatrix.42"* %this1 to %"class.dealii::BlockMatrixBase.43"*, !dbg !5209
  %call = call i32 @_ZNK6dealii15BlockMatrixBaseINS_12SparseMatrixIfEEE12n_block_rowsEv(%"class.dealii::BlockMatrixBase.43"* %1), !dbg !5209
  %cmp = icmp ult i32 %0, %call, !dbg !5210
  br i1 %cmp, label %for.body, label %for.end11, !dbg !5211

for.body:                                         ; preds = %for.cond
  call void @llvm.dbg.declare(metadata i32* %c, metadata !5212, metadata !DIExpression()), !dbg !5214
  store i32 0, i32* %c, align 4, !dbg !5214
  br label %for.cond2, !dbg !5215

for.cond2:                                        ; preds = %for.inc, %for.body
  %2 = load i32, i32* %c, align 4, !dbg !5216
  %3 = bitcast %"class.dealii::BlockSparseMatrix.42"* %this1 to %"class.dealii::BlockMatrixBase.43"*, !dbg !5218
  %call3 = call i32 @_ZNK6dealii15BlockMatrixBaseINS_12SparseMatrixIfEEE12n_block_colsEv(%"class.dealii::BlockMatrixBase.43"* %3), !dbg !5218
  %cmp4 = icmp ult i32 %2, %call3, !dbg !5219
  br i1 %cmp4, label %for.body5, label %for.end, !dbg !5220

for.body5:                                        ; preds = %for.cond2
  %4 = load %"class.dealii::BlockSparseMatrix.42"*, %"class.dealii::BlockSparseMatrix.42"** %m.addr, align 8, !dbg !5221
  %5 = bitcast %"class.dealii::BlockSparseMatrix.42"* %4 to %"class.dealii::BlockMatrixBase.43"*, !dbg !5221
  %6 = load i32, i32* %r, align 4, !dbg !5222
  %7 = load i32, i32* %c, align 4, !dbg !5223
  %call6 = call dereferenceable(112) %"class.dealii::SparseMatrix.49"* @_ZNK6dealii15BlockMatrixBaseINS_12SparseMatrixIfEEE5blockEjj(%"class.dealii::BlockMatrixBase.43"* %5, i32 %6, i32 %7), !dbg !5224
  %8 = bitcast %"class.dealii::BlockSparseMatrix.42"* %this1 to %"class.dealii::BlockMatrixBase.43"*, !dbg !5225
  %9 = load i32, i32* %r, align 4, !dbg !5226
  %10 = load i32, i32* %c, align 4, !dbg !5227
  %call7 = call dereferenceable(112) %"class.dealii::SparseMatrix.49"* @_ZN6dealii15BlockMatrixBaseINS_12SparseMatrixIfEEE5blockEjj(%"class.dealii::BlockMatrixBase.43"* %8, i32 %9, i32 %10), !dbg !5225
  %call8 = call dereferenceable(112) %"class.dealii::SparseMatrix.49"* @_ZN6dealii12SparseMatrixIfEaSERKS1_(%"class.dealii::SparseMatrix.49"* %call7, %"class.dealii::SparseMatrix.49"* dereferenceable(112) %call6), !dbg !5228
  br label %for.inc, !dbg !5229

for.inc:                                          ; preds = %for.body5
  %11 = load i32, i32* %c, align 4, !dbg !5230
  %inc = add i32 %11, 1, !dbg !5230
  store i32 %inc, i32* %c, align 4, !dbg !5230
  br label %for.cond2, !dbg !5231, !llvm.loop !5232

for.end:                                          ; preds = %for.cond2
  br label %for.inc9, !dbg !5233

for.inc9:                                         ; preds = %for.end
  %12 = load i32, i32* %r, align 4, !dbg !5234
  %inc10 = add i32 %12, 1, !dbg !5234
  store i32 %inc10, i32* %r, align 4, !dbg !5234
  br label %for.cond, !dbg !5235, !llvm.loop !5236

for.end11:                                        ; preds = %for.cond
  ret %"class.dealii::BlockSparseMatrix.42"* %this1, !dbg !5238
}

; Function Attrs: noinline nounwind uwtable
define linkonce_odr dso_local i32 @_ZNK6dealii15BlockMatrixBaseINS_12SparseMatrixIfEEE12n_block_rowsEv(%"class.dealii::BlockMatrixBase.43"* %this) #1 comdat align 2 !dbg !5239 {
entry:
  %this.addr = alloca %"class.dealii::BlockMatrixBase.43"*, align 8
  store %"class.dealii::BlockMatrixBase.43"* %this, %"class.dealii::BlockMatrixBase.43"** %this.addr, align 8
  call void @llvm.dbg.declare(metadata %"class.dealii::BlockMatrixBase.43"** %this.addr, metadata !5240, metadata !DIExpression()), !dbg !5242
  %this1 = load %"class.dealii::BlockMatrixBase.43"*, %"class.dealii::BlockMatrixBase.43"** %this.addr, align 8
  %row_block_indices = getelementptr inbounds %"class.dealii::BlockMatrixBase.43", %"class.dealii::BlockMatrixBase.43"* %this1, i32 0, i32 1, !dbg !5243
  %call = call i32 @_ZNK6dealii12BlockIndices4sizeEv(%"class.dealii::BlockIndices"* %row_block_indices), !dbg !5244
  ret i32 %call, !dbg !5245
}

; Function Attrs: noinline nounwind uwtable
define linkonce_odr dso_local i32 @_ZNK6dealii15BlockMatrixBaseINS_12SparseMatrixIfEEE12n_block_colsEv(%"class.dealii::BlockMatrixBase.43"* %this) #1 comdat align 2 !dbg !5246 {
entry:
  %this.addr = alloca %"class.dealii::BlockMatrixBase.43"*, align 8
  store %"class.dealii::BlockMatrixBase.43"* %this, %"class.dealii::BlockMatrixBase.43"** %this.addr, align 8
  call void @llvm.dbg.declare(metadata %"class.dealii::BlockMatrixBase.43"** %this.addr, metadata !5247, metadata !DIExpression()), !dbg !5248
  %this1 = load %"class.dealii::BlockMatrixBase.43"*, %"class.dealii::BlockMatrixBase.43"** %this.addr, align 8
  %column_block_indices = getelementptr inbounds %"class.dealii::BlockMatrixBase.43", %"class.dealii::BlockMatrixBase.43"* %this1, i32 0, i32 2, !dbg !5249
  %call = call i32 @_ZNK6dealii12BlockIndices4sizeEv(%"class.dealii::BlockIndices"* %column_block_indices), !dbg !5250
  ret i32 %call, !dbg !5251
}

; Function Attrs: noinline uwtable
define linkonce_odr dso_local dereferenceable(112) %"class.dealii::SparseMatrix.49"* @_ZNK6dealii15BlockMatrixBaseINS_12SparseMatrixIfEEE5blockEjj(%"class.dealii::BlockMatrixBase.43"* %this, i32 %row, i32 %column) #0 comdat align 2 !dbg !5252 {
entry:
  %this.addr = alloca %"class.dealii::BlockMatrixBase.43"*, align 8
  %row.addr = alloca i32, align 4
  %column.addr = alloca i32, align 4
  %ref.tmp = alloca %"class.dealii::internal::TableBaseAccessors::Accessor.52", align 8
  store %"class.dealii::BlockMatrixBase.43"* %this, %"class.dealii::BlockMatrixBase.43"** %this.addr, align 8
  call void @llvm.dbg.declare(metadata %"class.dealii::BlockMatrixBase.43"** %this.addr, metadata !5253, metadata !DIExpression()), !dbg !5254
  store i32 %row, i32* %row.addr, align 4
  call void @llvm.dbg.declare(metadata i32* %row.addr, metadata !5255, metadata !DIExpression()), !dbg !5256
  store i32 %column, i32* %column.addr, align 4
  call void @llvm.dbg.declare(metadata i32* %column.addr, metadata !5257, metadata !DIExpression()), !dbg !5258
  %this1 = load %"class.dealii::BlockMatrixBase.43"*, %"class.dealii::BlockMatrixBase.43"** %this.addr, align 8
  %sub_objects = getelementptr inbounds %"class.dealii::BlockMatrixBase.43", %"class.dealii::BlockMatrixBase.43"* %this1, i32 0, i32 3, !dbg !5259
  %0 = load i32, i32* %row.addr, align 4, !dbg !5260
  call void @_ZNK6dealii5TableILi2ENS_12SmartPointerINS_12SparseMatrixIfEEEEEixEj(%"class.dealii::internal::TableBaseAccessors::Accessor.52"* sret %ref.tmp, %"class.dealii::Table.44"* %sub_objects, i32 %0), !dbg !5259
  %1 = load i32, i32* %column.addr, align 4, !dbg !5261
  %call = call dereferenceable(16) %"class.dealii::SmartPointer.46"* @_ZNK6dealii8internal18TableBaseAccessors8AccessorILi2ENS_12SmartPointerINS_12SparseMatrixIfEEEELb1ELj1EEixEj(%"class.dealii::internal::TableBaseAccessors::Accessor.52"* %ref.tmp, i32 %1), !dbg !5259
  %call2 = call dereferenceable(112) %"class.dealii::SparseMatrix.49"* @_ZNK6dealii12SmartPointerINS_12SparseMatrixIfEEEdeEv(%"class.dealii::SmartPointer.46"* %call), !dbg !5262
  ret %"class.dealii::SparseMatrix.49"* %call2, !dbg !5263
}

; Function Attrs: noinline uwtable
define linkonce_odr dso_local dereferenceable(112) %"class.dealii::SparseMatrix.49"* @_ZN6dealii15BlockMatrixBaseINS_12SparseMatrixIfEEE5blockEjj(%"class.dealii::BlockMatrixBase.43"* %this, i32 %row, i32 %column) #0 comdat align 2 !dbg !5264 {
entry:
  %this.addr = alloca %"class.dealii::BlockMatrixBase.43"*, align 8
  %row.addr = alloca i32, align 4
  %column.addr = alloca i32, align 4
  %ref.tmp = alloca %"class.dealii::internal::TableBaseAccessors::Accessor.51", align 8
  store %"class.dealii::BlockMatrixBase.43"* %this, %"class.dealii::BlockMatrixBase.43"** %this.addr, align 8
  call void @llvm.dbg.declare(metadata %"class.dealii::BlockMatrixBase.43"** %this.addr, metadata !5265, metadata !DIExpression()), !dbg !5266
  store i32 %row, i32* %row.addr, align 4
  call void @llvm.dbg.declare(metadata i32* %row.addr, metadata !5267, metadata !DIExpression()), !dbg !5268
  store i32 %column, i32* %column.addr, align 4
  call void @llvm.dbg.declare(metadata i32* %column.addr, metadata !5269, metadata !DIExpression()), !dbg !5270
  %this1 = load %"class.dealii::BlockMatrixBase.43"*, %"class.dealii::BlockMatrixBase.43"** %this.addr, align 8
  %sub_objects = getelementptr inbounds %"class.dealii::BlockMatrixBase.43", %"class.dealii::BlockMatrixBase.43"* %this1, i32 0, i32 3, !dbg !5271
  %0 = load i32, i32* %row.addr, align 4, !dbg !5272
  call void @_ZN6dealii5TableILi2ENS_12SmartPointerINS_12SparseMatrixIfEEEEEixEj(%"class.dealii::internal::TableBaseAccessors::Accessor.51"* sret %ref.tmp, %"class.dealii::Table.44"* %sub_objects, i32 %0), !dbg !5271
  %1 = load i32, i32* %column.addr, align 4, !dbg !5273
  %call = call dereferenceable(16) %"class.dealii::SmartPointer.46"* @_ZNK6dealii8internal18TableBaseAccessors8AccessorILi2ENS_12SmartPointerINS_12SparseMatrixIfEEEELb0ELj1EEixEj(%"class.dealii::internal::TableBaseAccessors::Accessor.51"* %ref.tmp, i32 %1), !dbg !5271
  %call2 = call dereferenceable(112) %"class.dealii::SparseMatrix.49"* @_ZNK6dealii12SmartPointerINS_12SparseMatrixIfEEEdeEv(%"class.dealii::SmartPointer.46"* %call), !dbg !5274
  ret %"class.dealii::SparseMatrix.49"* %call2, !dbg !5275
}

declare dso_local dereferenceable(112) %"class.dealii::SparseMatrix.49"* @_ZN6dealii12SparseMatrixIfEaSERKS1_(%"class.dealii::SparseMatrix.49"*, %"class.dealii::SparseMatrix.49"* dereferenceable(112)) #2

; Function Attrs: noinline uwtable
define weak_odr dso_local dereferenceable(320) %"class.dealii::BlockSparseMatrix.42"* @_ZN6dealii17BlockSparseMatrixIfEaSEd(%"class.dealii::BlockSparseMatrix.42"* %this, double %d) #0 comdat align 2 !dbg !5276 {
entry:
  %this.addr = alloca %"class.dealii::BlockSparseMatrix.42"*, align 8
  %d.addr = alloca double, align 8
  %r = alloca i32, align 4
  %c = alloca i32, align 4
  store %"class.dealii::BlockSparseMatrix.42"* %this, %"class.dealii::BlockSparseMatrix.42"** %this.addr, align 8
  call void @llvm.dbg.declare(metadata %"class.dealii::BlockSparseMatrix.42"** %this.addr, metadata !5277, metadata !DIExpression()), !dbg !5278
  store double %d, double* %d.addr, align 8
  call void @llvm.dbg.declare(metadata double* %d.addr, metadata !5279, metadata !DIExpression()), !dbg !5280
  %this1 = load %"class.dealii::BlockSparseMatrix.42"*, %"class.dealii::BlockSparseMatrix.42"** %this.addr, align 8
  call void @llvm.dbg.declare(metadata i32* %r, metadata !5281, metadata !DIExpression()), !dbg !5283
  store i32 0, i32* %r, align 4, !dbg !5283
  br label %for.cond, !dbg !5284

for.cond:                                         ; preds = %for.inc8, %entry
  %0 = load i32, i32* %r, align 4, !dbg !5285
  %1 = bitcast %"class.dealii::BlockSparseMatrix.42"* %this1 to %"class.dealii::BlockMatrixBase.43"*, !dbg !5287
  %call = call i32 @_ZNK6dealii15BlockMatrixBaseINS_12SparseMatrixIfEEE12n_block_rowsEv(%"class.dealii::BlockMatrixBase.43"* %1), !dbg !5287
  %cmp = icmp ult i32 %0, %call, !dbg !5288
  br i1 %cmp, label %for.body, label %for.end10, !dbg !5289

for.body:                                         ; preds = %for.cond
  call void @llvm.dbg.declare(metadata i32* %c, metadata !5290, metadata !DIExpression()), !dbg !5292
  store i32 0, i32* %c, align 4, !dbg !5292
  br label %for.cond2, !dbg !5293

for.cond2:                                        ; preds = %for.inc, %for.body
  %2 = load i32, i32* %c, align 4, !dbg !5294
  %3 = bitcast %"class.dealii::BlockSparseMatrix.42"* %this1 to %"class.dealii::BlockMatrixBase.43"*, !dbg !5296
  %call3 = call i32 @_ZNK6dealii15BlockMatrixBaseINS_12SparseMatrixIfEEE12n_block_colsEv(%"class.dealii::BlockMatrixBase.43"* %3), !dbg !5296
  %cmp4 = icmp ult i32 %2, %call3, !dbg !5297
  br i1 %cmp4, label %for.body5, label %for.end, !dbg !5298

for.body5:                                        ; preds = %for.cond2
  %4 = load double, double* %d.addr, align 8, !dbg !5299
  %5 = bitcast %"class.dealii::BlockSparseMatrix.42"* %this1 to %"class.dealii::BlockMatrixBase.43"*, !dbg !5300
  %6 = load i32, i32* %r, align 4, !dbg !5301
  %7 = load i32, i32* %c, align 4, !dbg !5302
  %call6 = call dereferenceable(112) %"class.dealii::SparseMatrix.49"* @_ZN6dealii15BlockMatrixBaseINS_12SparseMatrixIfEEE5blockEjj(%"class.dealii::BlockMatrixBase.43"* %5, i32 %6, i32 %7), !dbg !5300
  %call7 = call dereferenceable(112) %"class.dealii::SparseMatrix.49"* @_ZN6dealii12SparseMatrixIfEaSEd(%"class.dealii::SparseMatrix.49"* %call6, double %4), !dbg !5303
  br label %for.inc, !dbg !5304

for.inc:                                          ; preds = %for.body5
  %8 = load i32, i32* %c, align 4, !dbg !5305
  %inc = add i32 %8, 1, !dbg !5305
  store i32 %inc, i32* %c, align 4, !dbg !5305
  br label %for.cond2, !dbg !5306, !llvm.loop !5307

for.end:                                          ; preds = %for.cond2
  br label %for.inc8, !dbg !5308

for.inc8:                                         ; preds = %for.end
  %9 = load i32, i32* %r, align 4, !dbg !5309
  %inc9 = add i32 %9, 1, !dbg !5309
  store i32 %inc9, i32* %r, align 4, !dbg !5309
  br label %for.cond, !dbg !5310, !llvm.loop !5311

for.end10:                                        ; preds = %for.cond
  ret %"class.dealii::BlockSparseMatrix.42"* %this1, !dbg !5313
}

declare dso_local dereferenceable(112) %"class.dealii::SparseMatrix.49"* @_ZN6dealii12SparseMatrixIfEaSEd(%"class.dealii::SparseMatrix.49"*, double) #2

; Function Attrs: noinline uwtable
define linkonce_odr dso_local void @_ZN6dealii15BlockMatrixBaseINS_12SparseMatrixIfEEE5clearEv(%"class.dealii::BlockMatrixBase.43"* %this) #0 comdat align 2 personality i8* bitcast (i32 (...)* @__gxx_personality_v0 to i8*) !dbg !5314 {
entry:
  %this.addr = alloca %"class.dealii::BlockMatrixBase.43"*, align 8
  %r = alloca i32, align 4
  %c = alloca i32, align 4
  %p = alloca %"class.dealii::SparseMatrix.49"*, align 8
  %ref.tmp = alloca %"class.dealii::internal::TableBaseAccessors::Accessor.51", align 8
  %ref.tmp8 = alloca %"class.dealii::internal::TableBaseAccessors::Accessor.51", align 8
  %ref.tmp16 = alloca %"class.dealii::BlockIndices", align 8
  %exn.slot = alloca i8*
  %ehselector.slot = alloca i32
  store %"class.dealii::BlockMatrixBase.43"* %this, %"class.dealii::BlockMatrixBase.43"** %this.addr, align 8
  call void @llvm.dbg.declare(metadata %"class.dealii::BlockMatrixBase.43"** %this.addr, metadata !5315, metadata !DIExpression()), !dbg !5316
  %this1 = load %"class.dealii::BlockMatrixBase.43"*, %"class.dealii::BlockMatrixBase.43"** %this.addr, align 8
  call void @llvm.dbg.declare(metadata i32* %r, metadata !5317, metadata !DIExpression()), !dbg !5319
  store i32 0, i32* %r, align 4, !dbg !5319
  br label %for.cond, !dbg !5320

for.cond:                                         ; preds = %for.inc12, %entry
  %0 = load i32, i32* %r, align 4, !dbg !5321
  %call = call i32 @_ZNK6dealii15BlockMatrixBaseINS_12SparseMatrixIfEEE12n_block_rowsEv(%"class.dealii::BlockMatrixBase.43"* %this1), !dbg !5323
  %cmp = icmp ult i32 %0, %call, !dbg !5324
  br i1 %cmp, label %for.body, label %for.end14, !dbg !5325

for.body:                                         ; preds = %for.cond
  call void @llvm.dbg.declare(metadata i32* %c, metadata !5326, metadata !DIExpression()), !dbg !5328
  store i32 0, i32* %c, align 4, !dbg !5328
  br label %for.cond2, !dbg !5329

for.cond2:                                        ; preds = %for.inc, %for.body
  %1 = load i32, i32* %c, align 4, !dbg !5330
  %call3 = call i32 @_ZNK6dealii15BlockMatrixBaseINS_12SparseMatrixIfEEE12n_block_colsEv(%"class.dealii::BlockMatrixBase.43"* %this1), !dbg !5332
  %cmp4 = icmp ult i32 %1, %call3, !dbg !5333
  br i1 %cmp4, label %for.body5, label %for.end, !dbg !5334

for.body5:                                        ; preds = %for.cond2
  call void @llvm.dbg.declare(metadata %"class.dealii::SparseMatrix.49"** %p, metadata !5335, metadata !DIExpression()), !dbg !5337
  %sub_objects = getelementptr inbounds %"class.dealii::BlockMatrixBase.43", %"class.dealii::BlockMatrixBase.43"* %this1, i32 0, i32 3, !dbg !5338
  %2 = load i32, i32* %r, align 4, !dbg !5339
  call void @_ZN6dealii5TableILi2ENS_12SmartPointerINS_12SparseMatrixIfEEEEEixEj(%"class.dealii::internal::TableBaseAccessors::Accessor.51"* sret %ref.tmp, %"class.dealii::Table.44"* %sub_objects, i32 %2), !dbg !5340
  %3 = load i32, i32* %c, align 4, !dbg !5341
  %call6 = call dereferenceable(16) %"class.dealii::SmartPointer.46"* @_ZNK6dealii8internal18TableBaseAccessors8AccessorILi2ENS_12SmartPointerINS_12SparseMatrixIfEEEELb0ELj1EEixEj(%"class.dealii::internal::TableBaseAccessors::Accessor.51"* %ref.tmp, i32 %3), !dbg !5340
  %call7 = call %"class.dealii::SparseMatrix.49"* @_ZNK6dealii12SmartPointerINS_12SparseMatrixIfEEEcvPS2_Ev(%"class.dealii::SmartPointer.46"* %call6), !dbg !5340
  store %"class.dealii::SparseMatrix.49"* %call7, %"class.dealii::SparseMatrix.49"** %p, align 8, !dbg !5337
  %sub_objects9 = getelementptr inbounds %"class.dealii::BlockMatrixBase.43", %"class.dealii::BlockMatrixBase.43"* %this1, i32 0, i32 3, !dbg !5342
  %4 = load i32, i32* %r, align 4, !dbg !5343
  call void @_ZN6dealii5TableILi2ENS_12SmartPointerINS_12SparseMatrixIfEEEEEixEj(%"class.dealii::internal::TableBaseAccessors::Accessor.51"* sret %ref.tmp8, %"class.dealii::Table.44"* %sub_objects9, i32 %4), !dbg !5344
  %5 = load i32, i32* %c, align 4, !dbg !5345
  %call10 = call dereferenceable(16) %"class.dealii::SmartPointer.46"* @_ZNK6dealii8internal18TableBaseAccessors8AccessorILi2ENS_12SmartPointerINS_12SparseMatrixIfEEEELb0ELj1EEixEj(%"class.dealii::internal::TableBaseAccessors::Accessor.51"* %ref.tmp8, i32 %5), !dbg !5344
  %call11 = call dereferenceable(16) %"class.dealii::SmartPointer.46"* @_ZN6dealii12SmartPointerINS_12SparseMatrixIfEEEaSEPS2_(%"class.dealii::SmartPointer.46"* %call10, %"class.dealii::SparseMatrix.49"* null), !dbg !5346
  %6 = load %"class.dealii::SparseMatrix.49"*, %"class.dealii::SparseMatrix.49"** %p, align 8, !dbg !5347
  %isnull = icmp eq %"class.dealii::SparseMatrix.49"* %6, null, !dbg !5348
  br i1 %isnull, label %delete.end, label %delete.notnull, !dbg !5348

delete.notnull:                                   ; preds = %for.body5
  %7 = bitcast %"class.dealii::SparseMatrix.49"* %6 to void (%"class.dealii::SparseMatrix.49"*)***, !dbg !5348
  %vtable = load void (%"class.dealii::SparseMatrix.49"*)**, void (%"class.dealii::SparseMatrix.49"*)*** %7, align 8, !dbg !5348
  %vfn = getelementptr inbounds void (%"class.dealii::SparseMatrix.49"*)*, void (%"class.dealii::SparseMatrix.49"*)** %vtable, i64 1, !dbg !5348
  %8 = load void (%"class.dealii::SparseMatrix.49"*)*, void (%"class.dealii::SparseMatrix.49"*)** %vfn, align 8, !dbg !5348
  call void %8(%"class.dealii::SparseMatrix.49"* %6) #4, !dbg !5348
  br label %delete.end, !dbg !5348

delete.end:                                       ; preds = %delete.notnull, %for.body5
  br label %for.inc, !dbg !5349

for.inc:                                          ; preds = %delete.end
  %9 = load i32, i32* %c, align 4, !dbg !5350
  %inc = add i32 %9, 1, !dbg !5350
  store i32 %inc, i32* %c, align 4, !dbg !5350
  br label %for.cond2, !dbg !5351, !llvm.loop !5352

for.end:                                          ; preds = %for.cond2
  br label %for.inc12, !dbg !5353

for.inc12:                                        ; preds = %for.end
  %10 = load i32, i32* %r, align 4, !dbg !5354
  %inc13 = add i32 %10, 1, !dbg !5354
  store i32 %inc13, i32* %r, align 4, !dbg !5354
  br label %for.cond, !dbg !5355, !llvm.loop !5356

for.end14:                                        ; preds = %for.cond
  %sub_objects15 = getelementptr inbounds %"class.dealii::BlockMatrixBase.43", %"class.dealii::BlockMatrixBase.43"* %this1, i32 0, i32 3, !dbg !5358
  call void @_ZN6dealii5TableILi2ENS_12SmartPointerINS_12SparseMatrixIfEEEEE6reinitEjj(%"class.dealii::Table.44"* %sub_objects15, i32 0, i32 0), !dbg !5359
  call void @_ZN6dealii12BlockIndicesC2Ej(%"class.dealii::BlockIndices"* %ref.tmp16, i32 0), !dbg !5360
  %column_block_indices = getelementptr inbounds %"class.dealii::BlockMatrixBase.43", %"class.dealii::BlockMatrixBase.43"* %this1, i32 0, i32 2, !dbg !5361
  %call17 = invoke dereferenceable(32) %"class.dealii::BlockIndices"* @_ZN6dealii12BlockIndicesaSERKS0_(%"class.dealii::BlockIndices"* %column_block_indices, %"class.dealii::BlockIndices"* dereferenceable(32) %ref.tmp16)
          to label %invoke.cont unwind label %lpad, !dbg !5362

invoke.cont:                                      ; preds = %for.end14
  %row_block_indices = getelementptr inbounds %"class.dealii::BlockMatrixBase.43", %"class.dealii::BlockMatrixBase.43"* %this1, i32 0, i32 1, !dbg !5363
  %call19 = invoke dereferenceable(32) %"class.dealii::BlockIndices"* @_ZN6dealii12BlockIndicesaSERKS0_(%"class.dealii::BlockIndices"* %row_block_indices, %"class.dealii::BlockIndices"* dereferenceable(32) %call17)
          to label %invoke.cont18 unwind label %lpad, !dbg !5364

invoke.cont18:                                    ; preds = %invoke.cont
  call void @_ZN6dealii12BlockIndicesD2Ev(%"class.dealii::BlockIndices"* %ref.tmp16) #4, !dbg !5363
  ret void, !dbg !5365

lpad:                                             ; preds = %invoke.cont, %for.end14
  %11 = landingpad { i8*, i32 }
          cleanup, !dbg !5365
  %12 = extractvalue { i8*, i32 } %11, 0, !dbg !5365
  store i8* %12, i8** %exn.slot, align 8, !dbg !5365
  %13 = extractvalue { i8*, i32 } %11, 1, !dbg !5365
  store i32 %13, i32* %ehselector.slot, align 4, !dbg !5365
  call void @_ZN6dealii12BlockIndicesD2Ev(%"class.dealii::BlockIndices"* %ref.tmp16) #4, !dbg !5363
  br label %eh.resume, !dbg !5363

eh.resume:                                        ; preds = %lpad
  %exn = load i8*, i8** %exn.slot, align 8, !dbg !5363
  %sel = load i32, i32* %ehselector.slot, align 4, !dbg !5363
  %lpad.val = insertvalue { i8*, i32 } undef, i8* %exn, 0, !dbg !5363
  %lpad.val20 = insertvalue { i8*, i32 } %lpad.val, i32 %sel, 1, !dbg !5363
  resume { i8*, i32 } %lpad.val20, !dbg !5363
}

; Function Attrs: noinline uwtable
define weak_odr dso_local void @_ZN6dealii17BlockSparseMatrixIfE6reinitERKNS_20BlockSparsityPatternE(%"class.dealii::BlockSparseMatrix.42"* %this, %"class.dealii::BlockSparsityPattern"* dereferenceable(288) %sparsity) unnamed_addr #0 comdat align 2 personality i8* bitcast (i32 (...)* @__gxx_personality_v0 to i8*) !dbg !5366 {
entry:
  %this.addr = alloca %"class.dealii::BlockSparseMatrix.42"*, align 8
  %sparsity.addr = alloca %"class.dealii::BlockSparsityPattern"*, align 8
  %r = alloca i32, align 4
  %c = alloca i32, align 4
  %p = alloca %"class.dealii::SparseMatrix.49"*, align 8
  %exn.slot = alloca i8*
  %ehselector.slot = alloca i32
  %ref.tmp = alloca %"class.dealii::internal::TableBaseAccessors::Accessor.51", align 8
  store %"class.dealii::BlockSparseMatrix.42"* %this, %"class.dealii::BlockSparseMatrix.42"** %this.addr, align 8
  call void @llvm.dbg.declare(metadata %"class.dealii::BlockSparseMatrix.42"** %this.addr, metadata !5367, metadata !DIExpression()), !dbg !5368
  store %"class.dealii::BlockSparsityPattern"* %sparsity, %"class.dealii::BlockSparsityPattern"** %sparsity.addr, align 8
  call void @llvm.dbg.declare(metadata %"class.dealii::BlockSparsityPattern"** %sparsity.addr, metadata !5369, metadata !DIExpression()), !dbg !5370
  %this1 = load %"class.dealii::BlockSparseMatrix.42"*, %"class.dealii::BlockSparseMatrix.42"** %this.addr, align 8
  call void @_ZN6dealii17BlockSparseMatrixIfE5clearEv(%"class.dealii::BlockSparseMatrix.42"* %this1), !dbg !5371
  %0 = load %"class.dealii::BlockSparsityPattern"*, %"class.dealii::BlockSparsityPattern"** %sparsity.addr, align 8, !dbg !5372
  %sparsity_pattern = getelementptr inbounds %"class.dealii::BlockSparseMatrix.42", %"class.dealii::BlockSparseMatrix.42"* %this1, i32 0, i32 1, !dbg !5373
  %call = call dereferenceable(16) %"class.dealii::SmartPointer.34"* @_ZN6dealii12SmartPointerIKNS_20BlockSparsityPatternEEaSEPS2_(%"class.dealii::SmartPointer.34"* %sparsity_pattern, %"class.dealii::BlockSparsityPattern"* %0), !dbg !5374
  %1 = load %"class.dealii::BlockSparsityPattern"*, %"class.dealii::BlockSparsityPattern"** %sparsity.addr, align 8, !dbg !5375
  %2 = bitcast %"class.dealii::BlockSparsityPattern"* %1 to %"class.dealii::BlockSparsityPatternBase"*, !dbg !5375
  %row_indices = getelementptr inbounds %"class.dealii::BlockSparsityPatternBase", %"class.dealii::BlockSparsityPatternBase"* %2, i32 0, i32 4, !dbg !5376
  %3 = bitcast %"class.dealii::BlockSparseMatrix.42"* %this1 to %"class.dealii::BlockMatrixBase.43"*, !dbg !5377
  %row_block_indices = getelementptr inbounds %"class.dealii::BlockMatrixBase.43", %"class.dealii::BlockMatrixBase.43"* %3, i32 0, i32 1, !dbg !5377
  %call2 = call dereferenceable(32) %"class.dealii::BlockIndices"* @_ZN6dealii12BlockIndicesaSERKS0_(%"class.dealii::BlockIndices"* %row_block_indices, %"class.dealii::BlockIndices"* dereferenceable(32) %row_indices), !dbg !5378
  %4 = load %"class.dealii::BlockSparsityPattern"*, %"class.dealii::BlockSparsityPattern"** %sparsity.addr, align 8, !dbg !5379
  %5 = bitcast %"class.dealii::BlockSparsityPattern"* %4 to %"class.dealii::BlockSparsityPatternBase"*, !dbg !5379
  %column_indices = getelementptr inbounds %"class.dealii::BlockSparsityPatternBase", %"class.dealii::BlockSparsityPatternBase"* %5, i32 0, i32 5, !dbg !5380
  %6 = bitcast %"class.dealii::BlockSparseMatrix.42"* %this1 to %"class.dealii::BlockMatrixBase.43"*, !dbg !5381
  %column_block_indices = getelementptr inbounds %"class.dealii::BlockMatrixBase.43", %"class.dealii::BlockMatrixBase.43"* %6, i32 0, i32 2, !dbg !5381
  %call3 = call dereferenceable(32) %"class.dealii::BlockIndices"* @_ZN6dealii12BlockIndicesaSERKS0_(%"class.dealii::BlockIndices"* %column_block_indices, %"class.dealii::BlockIndices"* dereferenceable(32) %column_indices), !dbg !5382
  %7 = bitcast %"class.dealii::BlockSparseMatrix.42"* %this1 to %"class.dealii::BlockMatrixBase.43"*, !dbg !5383
  %sub_objects = getelementptr inbounds %"class.dealii::BlockMatrixBase.43", %"class.dealii::BlockMatrixBase.43"* %7, i32 0, i32 3, !dbg !5383
  %8 = load %"class.dealii::BlockSparsityPattern"*, %"class.dealii::BlockSparsityPattern"** %sparsity.addr, align 8, !dbg !5384
  %9 = bitcast %"class.dealii::BlockSparsityPattern"* %8 to %"class.dealii::BlockSparsityPatternBase"*, !dbg !5384
  %call4 = call i32 @_ZNK6dealii24BlockSparsityPatternBaseINS_15SparsityPatternEE12n_block_rowsEv(%"class.dealii::BlockSparsityPatternBase"* %9), !dbg !5385
  %10 = load %"class.dealii::BlockSparsityPattern"*, %"class.dealii::BlockSparsityPattern"** %sparsity.addr, align 8, !dbg !5386
  %11 = bitcast %"class.dealii::BlockSparsityPattern"* %10 to %"class.dealii::BlockSparsityPatternBase"*, !dbg !5386
  %call5 = call i32 @_ZNK6dealii24BlockSparsityPatternBaseINS_15SparsityPatternEE12n_block_colsEv(%"class.dealii::BlockSparsityPatternBase"* %11), !dbg !5387
  call void @_ZN6dealii5TableILi2ENS_12SmartPointerINS_12SparseMatrixIfEEEEE6reinitEjj(%"class.dealii::Table.44"* %sub_objects, i32 %call4, i32 %call5), !dbg !5388
  call void @llvm.dbg.declare(metadata i32* %r, metadata !5389, metadata !DIExpression()), !dbg !5391
  store i32 0, i32* %r, align 4, !dbg !5391
  br label %for.cond, !dbg !5392

for.cond:                                         ; preds = %for.inc16, %entry
  %12 = load i32, i32* %r, align 4, !dbg !5393
  %13 = bitcast %"class.dealii::BlockSparseMatrix.42"* %this1 to %"class.dealii::BlockMatrixBase.43"*, !dbg !5395
  %call6 = call i32 @_ZNK6dealii15BlockMatrixBaseINS_12SparseMatrixIfEEE12n_block_rowsEv(%"class.dealii::BlockMatrixBase.43"* %13), !dbg !5395
  %cmp = icmp ult i32 %12, %call6, !dbg !5396
  br i1 %cmp, label %for.body, label %for.end18, !dbg !5397

for.body:                                         ; preds = %for.cond
  call void @llvm.dbg.declare(metadata i32* %c, metadata !5398, metadata !DIExpression()), !dbg !5400
  store i32 0, i32* %c, align 4, !dbg !5400
  br label %for.cond7, !dbg !5401

for.cond7:                                        ; preds = %for.inc, %for.body
  %14 = load i32, i32* %c, align 4, !dbg !5402
  %15 = bitcast %"class.dealii::BlockSparseMatrix.42"* %this1 to %"class.dealii::BlockMatrixBase.43"*, !dbg !5404
  %call8 = call i32 @_ZNK6dealii15BlockMatrixBaseINS_12SparseMatrixIfEEE12n_block_colsEv(%"class.dealii::BlockMatrixBase.43"* %15), !dbg !5404
  %cmp9 = icmp ult i32 %14, %call8, !dbg !5405
  br i1 %cmp9, label %for.body10, label %for.end, !dbg !5406

for.body10:                                       ; preds = %for.cond7
  call void @llvm.dbg.declare(metadata %"class.dealii::SparseMatrix.49"** %p, metadata !5407, metadata !DIExpression()), !dbg !5411
  %call11 = call i8* @_Znwm(i64 112) #14, !dbg !5412
  %16 = bitcast i8* %call11 to %"class.dealii::SparseMatrix.49"*, !dbg !5412
  invoke void @_ZN6dealii12SparseMatrixIfEC1Ev(%"class.dealii::SparseMatrix.49"* %16)
          to label %invoke.cont unwind label %lpad, !dbg !5413

invoke.cont:                                      ; preds = %for.body10
  store %"class.dealii::SparseMatrix.49"* %16, %"class.dealii::SparseMatrix.49"** %p, align 8, !dbg !5411
  %17 = load %"class.dealii::SparseMatrix.49"*, %"class.dealii::SparseMatrix.49"** %p, align 8, !dbg !5414
  %18 = load %"class.dealii::BlockSparsityPattern"*, %"class.dealii::BlockSparsityPattern"** %sparsity.addr, align 8, !dbg !5415
  %19 = bitcast %"class.dealii::BlockSparsityPattern"* %18 to %"class.dealii::BlockSparsityPatternBase"*, !dbg !5415
  %20 = load i32, i32* %r, align 4, !dbg !5416
  %21 = load i32, i32* %c, align 4, !dbg !5417
  %call12 = call dereferenceable(128) %"class.dealii::SparsityPattern"* @_ZNK6dealii24BlockSparsityPatternBaseINS_15SparsityPatternEE5blockEjj(%"class.dealii::BlockSparsityPatternBase"* %19, i32 %20, i32 %21), !dbg !5418
  %22 = bitcast %"class.dealii::SparseMatrix.49"* %17 to void (%"class.dealii::SparseMatrix.49"*, %"class.dealii::SparsityPattern"*)***, !dbg !5419
  %vtable = load void (%"class.dealii::SparseMatrix.49"*, %"class.dealii::SparsityPattern"*)**, void (%"class.dealii::SparseMatrix.49"*, %"class.dealii::SparsityPattern"*)*** %22, align 8, !dbg !5419
  %vfn = getelementptr inbounds void (%"class.dealii::SparseMatrix.49"*, %"class.dealii::SparsityPattern"*)*, void (%"class.dealii::SparseMatrix.49"*, %"class.dealii::SparsityPattern"*)** %vtable, i64 2, !dbg !5419
  %23 = load void (%"class.dealii::SparseMatrix.49"*, %"class.dealii::SparsityPattern"*)*, void (%"class.dealii::SparseMatrix.49"*, %"class.dealii::SparsityPattern"*)** %vfn, align 8, !dbg !5419
  call void %23(%"class.dealii::SparseMatrix.49"* %17, %"class.dealii::SparsityPattern"* dereferenceable(128) %call12), !dbg !5419
  %24 = load %"class.dealii::SparseMatrix.49"*, %"class.dealii::SparseMatrix.49"** %p, align 8, !dbg !5420
  %25 = bitcast %"class.dealii::BlockSparseMatrix.42"* %this1 to %"class.dealii::BlockMatrixBase.43"*, !dbg !5421
  %sub_objects13 = getelementptr inbounds %"class.dealii::BlockMatrixBase.43", %"class.dealii::BlockMatrixBase.43"* %25, i32 0, i32 3, !dbg !5421
  %26 = load i32, i32* %r, align 4, !dbg !5422
  call void @_ZN6dealii5TableILi2ENS_12SmartPointerINS_12SparseMatrixIfEEEEEixEj(%"class.dealii::internal::TableBaseAccessors::Accessor.51"* sret %ref.tmp, %"class.dealii::Table.44"* %sub_objects13, i32 %26), !dbg !5423
  %27 = load i32, i32* %c, align 4, !dbg !5424
  %call14 = call dereferenceable(16) %"class.dealii::SmartPointer.46"* @_ZNK6dealii8internal18TableBaseAccessors8AccessorILi2ENS_12SmartPointerINS_12SparseMatrixIfEEEELb0ELj1EEixEj(%"class.dealii::internal::TableBaseAccessors::Accessor.51"* %ref.tmp, i32 %27), !dbg !5423
  %call15 = call dereferenceable(16) %"class.dealii::SmartPointer.46"* @_ZN6dealii12SmartPointerINS_12SparseMatrixIfEEEaSEPS2_(%"class.dealii::SmartPointer.46"* %call14, %"class.dealii::SparseMatrix.49"* %24), !dbg !5425
  br label %for.inc, !dbg !5426

for.inc:                                          ; preds = %invoke.cont
  %28 = load i32, i32* %c, align 4, !dbg !5427
  %inc = add i32 %28, 1, !dbg !5427
  store i32 %inc, i32* %c, align 4, !dbg !5427
  br label %for.cond7, !dbg !5428, !llvm.loop !5429

lpad:                                             ; preds = %for.body10
  %29 = landingpad { i8*, i32 }
          cleanup, !dbg !5431
  %30 = extractvalue { i8*, i32 } %29, 0, !dbg !5431
  store i8* %30, i8** %exn.slot, align 8, !dbg !5431
  %31 = extractvalue { i8*, i32 } %29, 1, !dbg !5431
  store i32 %31, i32* %ehselector.slot, align 4, !dbg !5431
  call void @_ZdlPv(i8* %call11) #13, !dbg !5412
  br label %eh.resume, !dbg !5412

for.end:                                          ; preds = %for.cond7
  br label %for.inc16, !dbg !5430

for.inc16:                                        ; preds = %for.end
  %32 = load i32, i32* %r, align 4, !dbg !5432
  %inc17 = add i32 %32, 1, !dbg !5432
  store i32 %inc17, i32* %r, align 4, !dbg !5432
  br label %for.cond, !dbg !5433, !llvm.loop !5434

for.end18:                                        ; preds = %for.cond
  ret void, !dbg !5436

eh.resume:                                        ; preds = %lpad
  %exn = load i8*, i8** %exn.slot, align 8, !dbg !5412
  %sel = load i32, i32* %ehselector.slot, align 4, !dbg !5412
  %lpad.val = insertvalue { i8*, i32 } undef, i8* %exn, 0, !dbg !5412
  %lpad.val19 = insertvalue { i8*, i32 } %lpad.val, i32 %sel, 1, !dbg !5412
  resume { i8*, i32 } %lpad.val19, !dbg !5412
}

; Function Attrs: noinline uwtable
define linkonce_odr dso_local void @_ZN6dealii5TableILi2ENS_12SmartPointerINS_12SparseMatrixIfEEEEE6reinitEjj(%"class.dealii::Table.44"* %this, i32 %size1, i32 %size2) #0 comdat align 2 !dbg !5437 {
entry:
  %this.addr = alloca %"class.dealii::Table.44"*, align 8
  %size1.addr = alloca i32, align 4
  %size2.addr = alloca i32, align 4
  %ref.tmp = alloca %"class.dealii::TableIndices", align 4
  store %"class.dealii::Table.44"* %this, %"class.dealii::Table.44"** %this.addr, align 8
  call void @llvm.dbg.declare(metadata %"class.dealii::Table.44"** %this.addr, metadata !5438, metadata !DIExpression()), !dbg !5440
  store i32 %size1, i32* %size1.addr, align 4
  call void @llvm.dbg.declare(metadata i32* %size1.addr, metadata !5441, metadata !DIExpression()), !dbg !5442
  store i32 %size2, i32* %size2.addr, align 4
  call void @llvm.dbg.declare(metadata i32* %size2.addr, metadata !5443, metadata !DIExpression()), !dbg !5444
  %this1 = load %"class.dealii::Table.44"*, %"class.dealii::Table.44"** %this.addr, align 8
  %0 = bitcast %"class.dealii::Table.44"* %this1 to %"class.dealii::TableBase.45"*, !dbg !5445
  %1 = load i32, i32* %size1.addr, align 4, !dbg !5446
  %2 = load i32, i32* %size2.addr, align 4, !dbg !5447
  call void @_ZN6dealii12TableIndicesILi2EEC2Ejj(%"class.dealii::TableIndices"* %ref.tmp, i32 %1, i32 %2), !dbg !5448
  call void @_ZN6dealii9TableBaseILi2ENS_12SmartPointerINS_12SparseMatrixIfEEEEE6reinitERKNS_12TableIndicesILi2EEE(%"class.dealii::TableBase.45"* %0, %"class.dealii::TableIndices"* dereferenceable(8) %ref.tmp), !dbg !5445
  ret void, !dbg !5449
}

declare dso_local void @_ZN6dealii12SparseMatrixIfEC1Ev(%"class.dealii::SparseMatrix.49"*) unnamed_addr #2

; Function Attrs: noinline uwtable
define linkonce_odr dso_local void @_ZN6dealii5TableILi2ENS_12SmartPointerINS_12SparseMatrixIfEEEEEixEj(%"class.dealii::internal::TableBaseAccessors::Accessor.51"* noalias sret %agg.result, %"class.dealii::Table.44"* %this, i32 %i) #0 comdat align 2 !dbg !5450 {
entry:
  %result.ptr = alloca i8*, align 8
  %this.addr = alloca %"class.dealii::Table.44"*, align 8
  %i.addr = alloca i32, align 4
  %0 = bitcast %"class.dealii::internal::TableBaseAccessors::Accessor.51"* %agg.result to i8*
  store i8* %0, i8** %result.ptr, align 8
  store %"class.dealii::Table.44"* %this, %"class.dealii::Table.44"** %this.addr, align 8
  call void @llvm.dbg.declare(metadata %"class.dealii::Table.44"** %this.addr, metadata !5451, metadata !DIExpression()), !dbg !5452
  store i32 %i, i32* %i.addr, align 4
  call void @llvm.dbg.declare(metadata i32* %i.addr, metadata !5453, metadata !DIExpression()), !dbg !5454
  %this1 = load %"class.dealii::Table.44"*, %"class.dealii::Table.44"** %this.addr, align 8
  %1 = bitcast %"class.dealii::Table.44"* %this1 to %"class.dealii::TableBase.45"*, !dbg !5455
  %2 = bitcast %"class.dealii::Table.44"* %this1 to %"class.dealii::TableBase.45"*, !dbg !5456
  %val = getelementptr inbounds %"class.dealii::TableBase.45", %"class.dealii::TableBase.45"* %2, i32 0, i32 1, !dbg !5456
  %3 = load %"class.dealii::SmartPointer.46"*, %"class.dealii::SmartPointer.46"** %val, align 8, !dbg !5456
  %4 = load i32, i32* %i.addr, align 4, !dbg !5457
  %call = call i32 @_ZNK6dealii5TableILi2ENS_12SmartPointerINS_12SparseMatrixIfEEEEE6n_colsEv(%"class.dealii::Table.44"* %this1), !dbg !5458
  %mul = mul i32 %4, %call, !dbg !5459
  %idx.ext = zext i32 %mul to i64, !dbg !5460
  %add.ptr = getelementptr inbounds %"class.dealii::SmartPointer.46", %"class.dealii::SmartPointer.46"* %3, i64 %idx.ext, !dbg !5460
  call void @_ZN6dealii8internal18TableBaseAccessors8AccessorILi2ENS_12SmartPointerINS_12SparseMatrixIfEEEELb0ELj1EEC2ERKNS_9TableBaseILi2ES6_EEPS6_(%"class.dealii::internal::TableBaseAccessors::Accessor.51"* %agg.result, %"class.dealii::TableBase.45"* dereferenceable(96) %1, %"class.dealii::SmartPointer.46"* %add.ptr), !dbg !5461
  ret void, !dbg !5462
}

; Function Attrs: noinline nounwind uwtable
define linkonce_odr dso_local dereferenceable(16) %"class.dealii::SmartPointer.46"* @_ZNK6dealii8internal18TableBaseAccessors8AccessorILi2ENS_12SmartPointerINS_12SparseMatrixIfEEEELb0ELj1EEixEj(%"class.dealii::internal::TableBaseAccessors::Accessor.51"* %this, i32 %i) #1 comdat align 2 !dbg !5463 {
entry:
  %this.addr = alloca %"class.dealii::internal::TableBaseAccessors::Accessor.51"*, align 8
  %i.addr = alloca i32, align 4
  store %"class.dealii::internal::TableBaseAccessors::Accessor.51"* %this, %"class.dealii::internal::TableBaseAccessors::Accessor.51"** %this.addr, align 8
  call void @llvm.dbg.declare(metadata %"class.dealii::internal::TableBaseAccessors::Accessor.51"** %this.addr, metadata !5464, metadata !DIExpression()), !dbg !5466
  store i32 %i, i32* %i.addr, align 4
  call void @llvm.dbg.declare(metadata i32* %i.addr, metadata !5467, metadata !DIExpression()), !dbg !5468
  %this1 = load %"class.dealii::internal::TableBaseAccessors::Accessor.51"*, %"class.dealii::internal::TableBaseAccessors::Accessor.51"** %this.addr, align 8
  %data = getelementptr inbounds %"class.dealii::internal::TableBaseAccessors::Accessor.51", %"class.dealii::internal::TableBaseAccessors::Accessor.51"* %this1, i32 0, i32 1, !dbg !5469
  %0 = load %"class.dealii::SmartPointer.46"*, %"class.dealii::SmartPointer.46"** %data, align 8, !dbg !5469
  %1 = load i32, i32* %i.addr, align 4, !dbg !5470
  %idxprom = zext i32 %1 to i64, !dbg !5469
  %arrayidx = getelementptr inbounds %"class.dealii::SmartPointer.46", %"class.dealii::SmartPointer.46"* %0, i64 %idxprom, !dbg !5469
  ret %"class.dealii::SmartPointer.46"* %arrayidx, !dbg !5471
}

; Function Attrs: noinline nounwind uwtable
define linkonce_odr dso_local dereferenceable(16) %"class.dealii::SmartPointer.46"* @_ZN6dealii12SmartPointerINS_12SparseMatrixIfEEEaSEPS2_(%"class.dealii::SmartPointer.46"* %this, %"class.dealii::SparseMatrix.49"* %tt) #1 comdat align 2 !dbg !5472 {
entry:
  %retval = alloca %"class.dealii::SmartPointer.46"*, align 8
  %this.addr = alloca %"class.dealii::SmartPointer.46"*, align 8
  %tt.addr = alloca %"class.dealii::SparseMatrix.49"*, align 8
  store %"class.dealii::SmartPointer.46"* %this, %"class.dealii::SmartPointer.46"** %this.addr, align 8
  call void @llvm.dbg.declare(metadata %"class.dealii::SmartPointer.46"** %this.addr, metadata !5473, metadata !DIExpression()), !dbg !5474
  store %"class.dealii::SparseMatrix.49"* %tt, %"class.dealii::SparseMatrix.49"** %tt.addr, align 8
  call void @llvm.dbg.declare(metadata %"class.dealii::SparseMatrix.49"** %tt.addr, metadata !5475, metadata !DIExpression()), !dbg !5476
  %this1 = load %"class.dealii::SmartPointer.46"*, %"class.dealii::SmartPointer.46"** %this.addr, align 8
  %t = getelementptr inbounds %"class.dealii::SmartPointer.46", %"class.dealii::SmartPointer.46"* %this1, i32 0, i32 0, !dbg !5477
  %0 = load %"class.dealii::SparseMatrix.49"*, %"class.dealii::SparseMatrix.49"** %t, align 8, !dbg !5477
  %1 = load %"class.dealii::SparseMatrix.49"*, %"class.dealii::SparseMatrix.49"** %tt.addr, align 8, !dbg !5479
  %cmp = icmp eq %"class.dealii::SparseMatrix.49"* %0, %1, !dbg !5480
  br i1 %cmp, label %if.then, label %if.end, !dbg !5481

if.then:                                          ; preds = %entry
  store %"class.dealii::SmartPointer.46"* %this1, %"class.dealii::SmartPointer.46"** %retval, align 8, !dbg !5482
  br label %return, !dbg !5482

if.end:                                           ; preds = %entry
  %t2 = getelementptr inbounds %"class.dealii::SmartPointer.46", %"class.dealii::SmartPointer.46"* %this1, i32 0, i32 0, !dbg !5483
  %2 = load %"class.dealii::SparseMatrix.49"*, %"class.dealii::SparseMatrix.49"** %t2, align 8, !dbg !5483
  %cmp3 = icmp ne %"class.dealii::SparseMatrix.49"* %2, null, !dbg !5485
  br i1 %cmp3, label %if.then4, label %if.end6, !dbg !5486

if.then4:                                         ; preds = %if.end
  %t5 = getelementptr inbounds %"class.dealii::SmartPointer.46", %"class.dealii::SmartPointer.46"* %this1, i32 0, i32 0, !dbg !5487
  %3 = load %"class.dealii::SparseMatrix.49"*, %"class.dealii::SparseMatrix.49"** %t5, align 8, !dbg !5487
  %4 = bitcast %"class.dealii::SparseMatrix.49"* %3 to i8**, !dbg !5488
  %vtable = load i8*, i8** %4, align 8, !dbg !5488
  %vbase.offset.ptr = getelementptr i8, i8* %vtable, i64 -24, !dbg !5488
  %5 = bitcast i8* %vbase.offset.ptr to i64*, !dbg !5488
  %vbase.offset = load i64, i64* %5, align 8, !dbg !5488
  %6 = bitcast %"class.dealii::SparseMatrix.49"* %3 to i8*, !dbg !5488
  %add.ptr = getelementptr inbounds i8, i8* %6, i64 %vbase.offset, !dbg !5488
  %7 = bitcast i8* %add.ptr to %"class.dealii::Subscriptor"*, !dbg !5488
  %id = getelementptr inbounds %"class.dealii::SmartPointer.46", %"class.dealii::SmartPointer.46"* %this1, i32 0, i32 1, !dbg !5489
  %8 = load i8*, i8** %id, align 8, !dbg !5489
  call void @_ZNK6dealii11Subscriptor11unsubscribeEPKc(%"class.dealii::Subscriptor"* %7, i8* %8), !dbg !5488
  br label %if.end6, !dbg !5487

if.end6:                                          ; preds = %if.then4, %if.end
  %9 = load %"class.dealii::SparseMatrix.49"*, %"class.dealii::SparseMatrix.49"** %tt.addr, align 8, !dbg !5490
  %t7 = getelementptr inbounds %"class.dealii::SmartPointer.46", %"class.dealii::SmartPointer.46"* %this1, i32 0, i32 0, !dbg !5491
  store %"class.dealii::SparseMatrix.49"* %9, %"class.dealii::SparseMatrix.49"** %t7, align 8, !dbg !5492
  %10 = load %"class.dealii::SparseMatrix.49"*, %"class.dealii::SparseMatrix.49"** %tt.addr, align 8, !dbg !5493
  %cmp8 = icmp ne %"class.dealii::SparseMatrix.49"* %10, null, !dbg !5495
  br i1 %cmp8, label %if.then9, label %if.end15, !dbg !5496

if.then9:                                         ; preds = %if.end6
  %11 = load %"class.dealii::SparseMatrix.49"*, %"class.dealii::SparseMatrix.49"** %tt.addr, align 8, !dbg !5497
  %12 = bitcast %"class.dealii::SparseMatrix.49"* %11 to i8**, !dbg !5498
  %vtable10 = load i8*, i8** %12, align 8, !dbg !5498
  %vbase.offset.ptr11 = getelementptr i8, i8* %vtable10, i64 -24, !dbg !5498
  %13 = bitcast i8* %vbase.offset.ptr11 to i64*, !dbg !5498
  %vbase.offset12 = load i64, i64* %13, align 8, !dbg !5498
  %14 = bitcast %"class.dealii::SparseMatrix.49"* %11 to i8*, !dbg !5498
  %add.ptr13 = getelementptr inbounds i8, i8* %14, i64 %vbase.offset12, !dbg !5498
  %15 = bitcast i8* %add.ptr13 to %"class.dealii::Subscriptor"*, !dbg !5498
  %id14 = getelementptr inbounds %"class.dealii::SmartPointer.46", %"class.dealii::SmartPointer.46"* %this1, i32 0, i32 1, !dbg !5499
  %16 = load i8*, i8** %id14, align 8, !dbg !5499
  call void @_ZNK6dealii11Subscriptor9subscribeEPKc(%"class.dealii::Subscriptor"* %15, i8* %16), !dbg !5498
  br label %if.end15, !dbg !5497

if.end15:                                         ; preds = %if.then9, %if.end6
  store %"class.dealii::SmartPointer.46"* %this1, %"class.dealii::SmartPointer.46"** %retval, align 8, !dbg !5500
  br label %return, !dbg !5500

return:                                           ; preds = %if.end15, %if.then
  %17 = load %"class.dealii::SmartPointer.46"*, %"class.dealii::SmartPointer.46"** %retval, align 8, !dbg !5501
  ret %"class.dealii::SmartPointer.46"* %17, !dbg !5501
}

; Function Attrs: noinline uwtable
define weak_odr dso_local zeroext i1 @_ZNK6dealii17BlockSparseMatrixIfE5emptyEv(%"class.dealii::BlockSparseMatrix.42"* %this) #0 comdat align 2 !dbg !5502 {
entry:
  %retval = alloca i1, align 1
  %this.addr = alloca %"class.dealii::BlockSparseMatrix.42"*, align 8
  %r = alloca i32, align 4
  %c = alloca i32, align 4
  store %"class.dealii::BlockSparseMatrix.42"* %this, %"class.dealii::BlockSparseMatrix.42"** %this.addr, align 8
  call void @llvm.dbg.declare(metadata %"class.dealii::BlockSparseMatrix.42"** %this.addr, metadata !5503, metadata !DIExpression()), !dbg !5505
  %this1 = load %"class.dealii::BlockSparseMatrix.42"*, %"class.dealii::BlockSparseMatrix.42"** %this.addr, align 8
  call void @llvm.dbg.declare(metadata i32* %r, metadata !5506, metadata !DIExpression()), !dbg !5508
  store i32 0, i32* %r, align 4, !dbg !5508
  br label %for.cond, !dbg !5509

for.cond:                                         ; preds = %for.inc9, %entry
  %0 = load i32, i32* %r, align 4, !dbg !5510
  %1 = bitcast %"class.dealii::BlockSparseMatrix.42"* %this1 to %"class.dealii::BlockMatrixBase.43"*, !dbg !5512
  %call = call i32 @_ZNK6dealii15BlockMatrixBaseINS_12SparseMatrixIfEEE12n_block_rowsEv(%"class.dealii::BlockMatrixBase.43"* %1), !dbg !5512
  %cmp = icmp ult i32 %0, %call, !dbg !5513
  br i1 %cmp, label %for.body, label %for.end11, !dbg !5514

for.body:                                         ; preds = %for.cond
  call void @llvm.dbg.declare(metadata i32* %c, metadata !5515, metadata !DIExpression()), !dbg !5517
  store i32 0, i32* %c, align 4, !dbg !5517
  br label %for.cond2, !dbg !5518

for.cond2:                                        ; preds = %for.inc, %for.body
  %2 = load i32, i32* %c, align 4, !dbg !5519
  %3 = bitcast %"class.dealii::BlockSparseMatrix.42"* %this1 to %"class.dealii::BlockMatrixBase.43"*, !dbg !5521
  %call3 = call i32 @_ZNK6dealii15BlockMatrixBaseINS_12SparseMatrixIfEEE12n_block_colsEv(%"class.dealii::BlockMatrixBase.43"* %3), !dbg !5521
  %cmp4 = icmp ult i32 %2, %call3, !dbg !5522
  br i1 %cmp4, label %for.body5, label %for.end, !dbg !5523

for.body5:                                        ; preds = %for.cond2
  %4 = bitcast %"class.dealii::BlockSparseMatrix.42"* %this1 to %"class.dealii::BlockMatrixBase.43"*, !dbg !5524
  %5 = load i32, i32* %r, align 4, !dbg !5526
  %6 = load i32, i32* %c, align 4, !dbg !5527
  %call6 = call dereferenceable(112) %"class.dealii::SparseMatrix.49"* @_ZNK6dealii15BlockMatrixBaseINS_12SparseMatrixIfEEE5blockEjj(%"class.dealii::BlockMatrixBase.43"* %4, i32 %5, i32 %6), !dbg !5524
  %call7 = call zeroext i1 @_ZNK6dealii12SparseMatrixIfE5emptyEv(%"class.dealii::SparseMatrix.49"* %call6), !dbg !5528
  %conv = zext i1 %call7 to i32, !dbg !5529
  %cmp8 = icmp eq i32 %conv, 0, !dbg !5530
  br i1 %cmp8, label %if.then, label %if.end, !dbg !5531

if.then:                                          ; preds = %for.body5
  store i1 false, i1* %retval, align 1, !dbg !5532
  br label %return, !dbg !5532

if.end:                                           ; preds = %for.body5
  br label %for.inc, !dbg !5533

for.inc:                                          ; preds = %if.end
  %7 = load i32, i32* %c, align 4, !dbg !5534
  %inc = add i32 %7, 1, !dbg !5534
  store i32 %inc, i32* %c, align 4, !dbg !5534
  br label %for.cond2, !dbg !5535, !llvm.loop !5536

for.end:                                          ; preds = %for.cond2
  br label %for.inc9, !dbg !5537

for.inc9:                                         ; preds = %for.end
  %8 = load i32, i32* %r, align 4, !dbg !5538
  %inc10 = add i32 %8, 1, !dbg !5538
  store i32 %inc10, i32* %r, align 4, !dbg !5538
  br label %for.cond, !dbg !5539, !llvm.loop !5540

for.end11:                                        ; preds = %for.cond
  store i1 true, i1* %retval, align 1, !dbg !5542
  br label %return, !dbg !5542

return:                                           ; preds = %for.end11, %if.then
  %9 = load i1, i1* %retval, align 1, !dbg !5543
  ret i1 %9, !dbg !5543
}

declare dso_local zeroext i1 @_ZNK6dealii12SparseMatrixIfE5emptyEv(%"class.dealii::SparseMatrix.49"*) #2

; Function Attrs: noinline uwtable
define weak_odr dso_local i32 @_ZNK6dealii17BlockSparseMatrixIfE18n_nonzero_elementsEv(%"class.dealii::BlockSparseMatrix.42"* %this) #0 comdat align 2 !dbg !5544 {
entry:
  %this.addr = alloca %"class.dealii::BlockSparseMatrix.42"*, align 8
  store %"class.dealii::BlockSparseMatrix.42"* %this, %"class.dealii::BlockSparseMatrix.42"** %this.addr, align 8
  call void @llvm.dbg.declare(metadata %"class.dealii::BlockSparseMatrix.42"** %this.addr, metadata !5545, metadata !DIExpression()), !dbg !5546
  %this1 = load %"class.dealii::BlockSparseMatrix.42"*, %"class.dealii::BlockSparseMatrix.42"** %this.addr, align 8
  %sparsity_pattern = getelementptr inbounds %"class.dealii::BlockSparseMatrix.42", %"class.dealii::BlockSparseMatrix.42"* %this1, i32 0, i32 1, !dbg !5547
  %call = call %"class.dealii::BlockSparsityPattern"* @_ZNK6dealii12SmartPointerIKNS_20BlockSparsityPatternEEptEv(%"class.dealii::SmartPointer.34"* %sparsity_pattern), !dbg !5547
  %0 = bitcast %"class.dealii::BlockSparsityPattern"* %call to %"class.dealii::BlockSparsityPatternBase"*, !dbg !5548
  %call2 = call i32 @_ZNK6dealii24BlockSparsityPatternBaseINS_15SparsityPatternEE18n_nonzero_elementsEv(%"class.dealii::BlockSparsityPatternBase"* %0), !dbg !5548
  ret i32 %call2, !dbg !5549
}

; Function Attrs: noinline uwtable
define weak_odr dso_local i32 @_ZNK6dealii17BlockSparseMatrixIfE27n_actually_nonzero_elementsEd(%"class.dealii::BlockSparseMatrix.42"* %this, double %threshold) #0 comdat align 2 !dbg !5550 {
entry:
  %this.addr = alloca %"class.dealii::BlockSparseMatrix.42"*, align 8
  %threshold.addr = alloca double, align 8
  %count = alloca i32, align 4
  %i = alloca i32, align 4
  %j = alloca i32, align 4
  %ref.tmp = alloca %"class.dealii::internal::TableBaseAccessors::Accessor.52", align 8
  store %"class.dealii::BlockSparseMatrix.42"* %this, %"class.dealii::BlockSparseMatrix.42"** %this.addr, align 8
  call void @llvm.dbg.declare(metadata %"class.dealii::BlockSparseMatrix.42"** %this.addr, metadata !5551, metadata !DIExpression()), !dbg !5552
  store double %threshold, double* %threshold.addr, align 8
  call void @llvm.dbg.declare(metadata double* %threshold.addr, metadata !5553, metadata !DIExpression()), !dbg !5554
  %this1 = load %"class.dealii::BlockSparseMatrix.42"*, %"class.dealii::BlockSparseMatrix.42"** %this.addr, align 8
  call void @llvm.dbg.declare(metadata i32* %count, metadata !5555, metadata !DIExpression()), !dbg !5556
  store i32 0, i32* %count, align 4, !dbg !5556
  call void @llvm.dbg.declare(metadata i32* %i, metadata !5557, metadata !DIExpression()), !dbg !5559
  store i32 0, i32* %i, align 4, !dbg !5559
  br label %for.cond, !dbg !5560

for.cond:                                         ; preds = %for.inc9, %entry
  %0 = load i32, i32* %i, align 4, !dbg !5561
  %1 = bitcast %"class.dealii::BlockSparseMatrix.42"* %this1 to %"class.dealii::BlockMatrixBase.43"*, !dbg !5563
  %call = call i32 @_ZNK6dealii15BlockMatrixBaseINS_12SparseMatrixIfEEE12n_block_rowsEv(%"class.dealii::BlockMatrixBase.43"* %1), !dbg !5563
  %cmp = icmp ult i32 %0, %call, !dbg !5564
  br i1 %cmp, label %for.body, label %for.end11, !dbg !5565

for.body:                                         ; preds = %for.cond
  call void @llvm.dbg.declare(metadata i32* %j, metadata !5566, metadata !DIExpression()), !dbg !5568
  store i32 0, i32* %j, align 4, !dbg !5568
  br label %for.cond2, !dbg !5569

for.cond2:                                        ; preds = %for.inc, %for.body
  %2 = load i32, i32* %j, align 4, !dbg !5570
  %3 = bitcast %"class.dealii::BlockSparseMatrix.42"* %this1 to %"class.dealii::BlockMatrixBase.43"*, !dbg !5572
  %call3 = call i32 @_ZNK6dealii15BlockMatrixBaseINS_12SparseMatrixIfEEE12n_block_colsEv(%"class.dealii::BlockMatrixBase.43"* %3), !dbg !5572
  %cmp4 = icmp ult i32 %2, %call3, !dbg !5573
  br i1 %cmp4, label %for.body5, label %for.end, !dbg !5574

for.body5:                                        ; preds = %for.cond2
  %4 = bitcast %"class.dealii::BlockSparseMatrix.42"* %this1 to %"class.dealii::BlockMatrixBase.43"*, !dbg !5575
  %sub_objects = getelementptr inbounds %"class.dealii::BlockMatrixBase.43", %"class.dealii::BlockMatrixBase.43"* %4, i32 0, i32 3, !dbg !5575
  %5 = load i32, i32* %i, align 4, !dbg !5576
  call void @_ZNK6dealii5TableILi2ENS_12SmartPointerINS_12SparseMatrixIfEEEEEixEj(%"class.dealii::internal::TableBaseAccessors::Accessor.52"* sret %ref.tmp, %"class.dealii::Table.44"* %sub_objects, i32 %5), !dbg !5577
  %6 = load i32, i32* %j, align 4, !dbg !5578
  %call6 = call dereferenceable(16) %"class.dealii::SmartPointer.46"* @_ZNK6dealii8internal18TableBaseAccessors8AccessorILi2ENS_12SmartPointerINS_12SparseMatrixIfEEEELb1ELj1EEixEj(%"class.dealii::internal::TableBaseAccessors::Accessor.52"* %ref.tmp, i32 %6), !dbg !5577
  %call7 = call %"class.dealii::SparseMatrix.49"* @_ZNK6dealii12SmartPointerINS_12SparseMatrixIfEEEptEv(%"class.dealii::SmartPointer.46"* %call6), !dbg !5577
  %7 = load double, double* %threshold.addr, align 8, !dbg !5579
  %call8 = call i32 @_ZNK6dealii12SparseMatrixIfE27n_actually_nonzero_elementsEd(%"class.dealii::SparseMatrix.49"* %call7, double %7), !dbg !5580
  %8 = load i32, i32* %count, align 4, !dbg !5581
  %add = add i32 %8, %call8, !dbg !5581
  store i32 %add, i32* %count, align 4, !dbg !5581
  br label %for.inc, !dbg !5582

for.inc:                                          ; preds = %for.body5
  %9 = load i32, i32* %j, align 4, !dbg !5583
  %inc = add i32 %9, 1, !dbg !5583
  store i32 %inc, i32* %j, align 4, !dbg !5583
  br label %for.cond2, !dbg !5584, !llvm.loop !5585

for.end:                                          ; preds = %for.cond2
  br label %for.inc9, !dbg !5586

for.inc9:                                         ; preds = %for.end
  %10 = load i32, i32* %i, align 4, !dbg !5587
  %inc10 = add i32 %10, 1, !dbg !5587
  store i32 %inc10, i32* %i, align 4, !dbg !5587
  br label %for.cond, !dbg !5588, !llvm.loop !5589

for.end11:                                        ; preds = %for.cond
  %11 = load i32, i32* %count, align 4, !dbg !5591
  ret i32 %11, !dbg !5592
}

; Function Attrs: noinline uwtable
define linkonce_odr dso_local void @_ZNK6dealii5TableILi2ENS_12SmartPointerINS_12SparseMatrixIfEEEEEixEj(%"class.dealii::internal::TableBaseAccessors::Accessor.52"* noalias sret %agg.result, %"class.dealii::Table.44"* %this, i32 %i) #0 comdat align 2 !dbg !5593 {
entry:
  %result.ptr = alloca i8*, align 8
  %this.addr = alloca %"class.dealii::Table.44"*, align 8
  %i.addr = alloca i32, align 4
  %0 = bitcast %"class.dealii::internal::TableBaseAccessors::Accessor.52"* %agg.result to i8*
  store i8* %0, i8** %result.ptr, align 8
  store %"class.dealii::Table.44"* %this, %"class.dealii::Table.44"** %this.addr, align 8
  call void @llvm.dbg.declare(metadata %"class.dealii::Table.44"** %this.addr, metadata !5594, metadata !DIExpression()), !dbg !5596
  store i32 %i, i32* %i.addr, align 4
  call void @llvm.dbg.declare(metadata i32* %i.addr, metadata !5597, metadata !DIExpression()), !dbg !5598
  %this1 = load %"class.dealii::Table.44"*, %"class.dealii::Table.44"** %this.addr, align 8
  %1 = bitcast %"class.dealii::Table.44"* %this1 to %"class.dealii::TableBase.45"*, !dbg !5599
  %2 = bitcast %"class.dealii::Table.44"* %this1 to %"class.dealii::TableBase.45"*, !dbg !5600
  %val = getelementptr inbounds %"class.dealii::TableBase.45", %"class.dealii::TableBase.45"* %2, i32 0, i32 1, !dbg !5600
  %3 = load %"class.dealii::SmartPointer.46"*, %"class.dealii::SmartPointer.46"** %val, align 8, !dbg !5600
  %4 = load i32, i32* %i.addr, align 4, !dbg !5601
  %call = call i32 @_ZNK6dealii5TableILi2ENS_12SmartPointerINS_12SparseMatrixIfEEEEE6n_colsEv(%"class.dealii::Table.44"* %this1), !dbg !5602
  %mul = mul i32 %4, %call, !dbg !5603
  %idx.ext = zext i32 %mul to i64, !dbg !5604
  %add.ptr = getelementptr inbounds %"class.dealii::SmartPointer.46", %"class.dealii::SmartPointer.46"* %3, i64 %idx.ext, !dbg !5604
