; ModuleID = 'source/hp/fe_values.cc'
source_filename = "source/hp/fe_values.cc"
target datalayout = "e-m:e-p270:32:32-p271:32:32-p272:64:64-i64:64-f80:128-n8:16:32:64-S128"
target triple = "x86_64-unknown-linux-gnu"

%"struct.boost::arg" = type { i8 }
%"struct.boost::arg.0" = type { i8 }
%"struct.boost::arg.2" = type { i8 }
%"struct.boost::arg.4" = type { i8 }
%"struct.boost::arg.6" = type { i8 }
%"struct.boost::arg.8" = type { i8 }
%"struct.boost::arg.10" = type { i8 }
%"struct.boost::arg.12" = type { i8 }
%"struct.boost::arg.14" = type { i8 }
%"class.std::ios_base::Init" = type { i8 }
%"class.dealii::hp::MappingCollection" = type { %"class.dealii::Subscriptor", %"class.std::vector.20" }
%"class.dealii::Subscriptor" = type { i32 (...)**, i32, %"class.std::map", %"class.std::type_info"* }
%"class.std::map" = type { %"class.std::_Rb_tree" }
%"class.std::_Rb_tree" = type { %"struct.std::_Rb_tree<const char *, std::pair<const char *const, unsigned int>, std::_Select1st<std::pair<const char *const, unsigned int> >, std::less<const char *>, std::allocator<std::pair<const char *const, unsigned int> > >::_Rb_tree_impl" }
%"struct.std::_Rb_tree<const char *, std::pair<const char *const, unsigned int>, std::_Select1st<std::pair<const char *const, unsigned int> >, std::less<const char *>, std::allocator<std::pair<const char *const, unsigned int> > >::_Rb_tree_impl" = type { %"struct.std::_Rb_tree_key_compare", %"struct.std::_Rb_tree_header" }
%"struct.std::_Rb_tree_key_compare" = type { %"struct.std::less" }
%"struct.std::less" = type { i8 }
%"struct.std::_Rb_tree_header" = type { %"struct.std::_Rb_tree_node_base", i64 }
%"struct.std::_Rb_tree_node_base" = type { i32, %"struct.std::_Rb_tree_node_base"*, %"struct.std::_Rb_tree_node_base"*, %"struct.std::_Rb_tree_node_base"* }
%"class.std::type_info" = type { i32 (...)**, i8* }
%"class.std::vector.20" = type { %"struct.std::_Vector_base.21" }
%"struct.std::_Vector_base.21" = type { %"struct.std::_Vector_base<boost::shared_ptr<const dealii::Mapping<3, 3> >, std::allocator<boost::shared_ptr<const dealii::Mapping<3, 3> > > >::_Vector_impl" }
%"struct.std::_Vector_base<boost::shared_ptr<const dealii::Mapping<3, 3> >, std::allocator<boost::shared_ptr<const dealii::Mapping<3, 3> > > >::_Vector_impl" = type { %"struct.std::_Vector_base<boost::shared_ptr<const dealii::Mapping<3, 3> >, std::allocator<boost::shared_ptr<const dealii::Mapping<3, 3> > > >::_Vector_impl_data" }
%"struct.std::_Vector_base<boost::shared_ptr<const dealii::Mapping<3, 3> >, std::allocator<boost::shared_ptr<const dealii::Mapping<3, 3> > > >::_Vector_impl_data" = type { %"class.boost::shared_ptr.25"*, %"class.boost::shared_ptr.25"*, %"class.boost::shared_ptr.25"* }
%"class.boost::shared_ptr.25" = type { %"class.dealii::Mapping"*, %"class.boost::detail::shared_count" }
%"class.dealii::Mapping" = type { %"class.dealii::Subscriptor" }
%"class.boost::detail::shared_count" = type { %"class.boost::detail::sp_counted_base"* }
%"class.boost::detail::sp_counted_base" = type { i32 (...)**, i64, i64 }
%"class.dealii::internal::hp::FEValuesBase" = type { %"class.dealii::SmartPointer", %"class.dealii::SmartPointer.19", %"class.dealii::hp::QCollection", %"class.dealii::Table", %"class.dealii::TableIndices", i32 }
%"class.dealii::SmartPointer" = type { %"class.dealii::hp::FECollection"*, i8* }
%"class.dealii::SmartPointer.19" = type { %"class.dealii::hp::MappingCollection"*, i8* }
%"class.dealii::hp::QCollection" = type { %"class.dealii::Subscriptor", %"class.std::vector.26" }
%"class.std::vector.26" = type { %"struct.std::_Vector_base.27" }
%"struct.std::_Vector_base.27" = type { %"struct.std::_Vector_base<boost::shared_ptr<const dealii::Quadrature<3> >, std::allocator<boost::shared_ptr<const dealii::Quadrature<3> > > >::_Vector_impl" }
%"struct.std::_Vector_base<boost::shared_ptr<const dealii::Quadrature<3> >, std::allocator<boost::shared_ptr<const dealii::Quadrature<3> > > >::_Vector_impl" = type { %"struct.std::_Vector_base<boost::shared_ptr<const dealii::Quadrature<3> >, std::allocator<boost::shared_ptr<const dealii::Quadrature<3> > > >::_Vector_impl_data" }
%"struct.std::_Vector_base<boost::shared_ptr<const dealii::Quadrature<3> >, std::allocator<boost::shared_ptr<const dealii::Quadrature<3> > > >::_Vector_impl_data" = type { %"class.boost::shared_ptr.31"*, %"class.boost::shared_ptr.31"*, %"class.boost::shared_ptr.31"* }
%"class.boost::shared_ptr.31" = type { %"class.dealii::Quadrature"*, %"class.boost::detail::shared_count" }
%"class.dealii::Quadrature" = type { %"class.dealii::Subscriptor", i32, %"class.std::vector.69", %"class.std::vector.58" }
%"class.std::vector.69" = type { %"struct.std::_Vector_base.70" }
%"struct.std::_Vector_base.70" = type { %"struct.std::_Vector_base<dealii::Point<3>, std::allocator<dealii::Point<3> > >::_Vector_impl" }
%"struct.std::_Vector_base<dealii::Point<3>, std::allocator<dealii::Point<3> > >::_Vector_impl" = type { %"struct.std::_Vector_base<dealii::Point<3>, std::allocator<dealii::Point<3> > >::_Vector_impl_data" }
%"struct.std::_Vector_base<dealii::Point<3>, std::allocator<dealii::Point<3> > >::_Vector_impl_data" = type { %"class.dealii::Point"*, %"class.dealii::Point"*, %"class.dealii::Point"* }
%"class.dealii::Point" = type { %"class.dealii::Tensor" }
%"class.dealii::Tensor" = type { [3 x double] }
%"class.std::vector.58" = type { %"struct.std::_Vector_base.59" }
%"struct.std::_Vector_base.59" = type { %"struct.std::_Vector_base<double, std::allocator<double> >::_Vector_impl" }
%"struct.std::_Vector_base<double, std::allocator<double> >::_Vector_impl" = type { %"struct.std::_Vector_base<double, std::allocator<double> >::_Vector_impl_data" }
%"struct.std::_Vector_base<double, std::allocator<double> >::_Vector_impl_data" = type { double*, double*, double* }
%"class.dealii::Table" = type { %"class.dealii::TableBase" }
%"class.dealii::TableBase" = type { %"class.dealii::Subscriptor", %"class.boost::shared_ptr.32"*, i32, %"class.dealii::TableIndices" }
%"class.boost::shared_ptr.32" = type { %"class.dealii::FEValues"*, %"class.boost::detail::shared_count" }
%"class.dealii::FEValues" = type { %"class.dealii::FEValuesBase", %"class.dealii::Quadrature" }
%"class.dealii::FEValuesBase" = type { %"class.dealii::Subscriptor", %"class.dealii::FEValuesData.base", i32, i32, %"class.std::auto_ptr", %"class.dealii::SmartPointer.79", %"class.dealii::SmartPointer.80", %"class.dealii::SmartPointer.125", %"class.dealii::SmartPointer.125", i32, %"struct.dealii::internal::FEValuesViews::Cache" }
%"class.dealii::FEValuesData.base" = type <{ %"class.dealii::Table.33", %"class.std::vector.37", %"class.std::vector.47", %"class.std::vector.58", %"class.std::vector.52", %"class.std::vector.63", %"class.std::vector.52", %"class.std::vector.69", %"class.std::vector.69", %"class.std::vector.69", %"class.std::vector.42", %"class.std::vector.69", %"class.std::vector.47", %"class.std::vector.47", %"class.std::vector.74", i32 }>
%"class.dealii::Table.33" = type { %"class.dealii::TableBase.base", [4 x i8] }
%"class.dealii::TableBase.base" = type <{ %"class.dealii::Subscriptor", double*, i32, %"class.dealii::TableIndices.35" }>
%"class.dealii::TableIndices.35" = type { %"class.dealii::TableIndicesBase.36" }
%"class.dealii::TableIndicesBase.36" = type { [2 x i32] }
%"class.std::vector.37" = type { %"struct.std::_Vector_base.38" }
%"struct.std::_Vector_base.38" = type { %"struct.std::_Vector_base<std::vector<dealii::Tensor<1, 3>, std::allocator<dealii::Tensor<1, 3> > >, std::allocator<std::vector<dealii::Tensor<1, 3>, std::allocator<dealii::Tensor<1, 3> > > > >::_Vector_impl" }
%"struct.std::_Vector_base<std::vector<dealii::Tensor<1, 3>, std::allocator<dealii::Tensor<1, 3> > >, std::allocator<std::vector<dealii::Tensor<1, 3>, std::allocator<dealii::Tensor<1, 3> > > > >::_Vector_impl" = type { %"struct.std::_Vector_base<std::vector<dealii::Tensor<1, 3>, std::allocator<dealii::Tensor<1, 3> > >, std::allocator<std::vector<dealii::Tensor<1, 3>, std::allocator<dealii::Tensor<1, 3> > > > >::_Vector_impl_data" }
%"struct.std::_Vector_base<std::vector<dealii::Tensor<1, 3>, std::allocator<dealii::Tensor<1, 3> > >, std::allocator<std::vector<dealii::Tensor<1, 3>, std::allocator<dealii::Tensor<1, 3> > > > >::_Vector_impl_data" = type { %"class.std::vector.42"*, %"class.std::vector.42"*, %"class.std::vector.42"* }
%"class.std::vector.63" = type { %"struct.std::_Vector_base.64" }
%"struct.std::_Vector_base.64" = type { %"struct.std::_Vector_base<dealii::Tensor<3, 3>, std::allocator<dealii::Tensor<3, 3> > >::_Vector_impl" }
%"struct.std::_Vector_base<dealii::Tensor<3, 3>, std::allocator<dealii::Tensor<3, 3> > >::_Vector_impl" = type { %"struct.std::_Vector_base<dealii::Tensor<3, 3>, std::allocator<dealii::Tensor<3, 3> > >::_Vector_impl_data" }
%"struct.std::_Vector_base<dealii::Tensor<3, 3>, std::allocator<dealii::Tensor<3, 3> > >::_Vector_impl_data" = type { %"class.dealii::Tensor.68"*, %"class.dealii::Tensor.68"*, %"class.dealii::Tensor.68"* }
%"class.dealii::Tensor.68" = type { [3 x %"class.dealii::Tensor.57"] }
%"class.dealii::Tensor.57" = type { [3 x %"class.dealii::Tensor"] }
%"class.std::vector.52" = type { %"struct.std::_Vector_base.53" }
%"struct.std::_Vector_base.53" = type { %"struct.std::_Vector_base<dealii::Tensor<2, 3>, std::allocator<dealii::Tensor<2, 3> > >::_Vector_impl" }
%"struct.std::_Vector_base<dealii::Tensor<2, 3>, std::allocator<dealii::Tensor<2, 3> > >::_Vector_impl" = type { %"struct.std::_Vector_base<dealii::Tensor<2, 3>, std::allocator<dealii::Tensor<2, 3> > >::_Vector_impl_data" }
%"struct.std::_Vector_base<dealii::Tensor<2, 3>, std::allocator<dealii::Tensor<2, 3> > >::_Vector_impl_data" = type { %"class.dealii::Tensor.57"*, %"class.dealii::Tensor.57"*, %"class.dealii::Tensor.57"* }
%"class.std::vector.42" = type { %"struct.std::_Vector_base.43" }
%"struct.std::_Vector_base.43" = type { %"struct.std::_Vector_base<dealii::Tensor<1, 3>, std::allocator<dealii::Tensor<1, 3> > >::_Vector_impl" }
%"struct.std::_Vector_base<dealii::Tensor<1, 3>, std::allocator<dealii::Tensor<1, 3> > >::_Vector_impl" = type { %"struct.std::_Vector_base<dealii::Tensor<1, 3>, std::allocator<dealii::Tensor<1, 3> > >::_Vector_impl_data" }
%"struct.std::_Vector_base<dealii::Tensor<1, 3>, std::allocator<dealii::Tensor<1, 3> > >::_Vector_impl_data" = type { %"class.dealii::Tensor"*, %"class.dealii::Tensor"*, %"class.dealii::Tensor"* }
%"class.std::vector.47" = type { %"struct.std::_Vector_base.48" }
%"struct.std::_Vector_base.48" = type { %"struct.std::_Vector_base<std::vector<dealii::Tensor<2, 3>, std::allocator<dealii::Tensor<2, 3> > >, std::allocator<std::vector<dealii::Tensor<2, 3>, std::allocator<dealii::Tensor<2, 3> > > > >::_Vector_impl" }
%"struct.std::_Vector_base<std::vector<dealii::Tensor<2, 3>, std::allocator<dealii::Tensor<2, 3> > >, std::allocator<std::vector<dealii::Tensor<2, 3>, std::allocator<dealii::Tensor<2, 3> > > > >::_Vector_impl" = type { %"struct.std::_Vector_base<std::vector<dealii::Tensor<2, 3>, std::allocator<dealii::Tensor<2, 3> > >, std::allocator<std::vector<dealii::Tensor<2, 3>, std::allocator<dealii::Tensor<2, 3> > > > >::_Vector_impl_data" }
%"struct.std::_Vector_base<std::vector<dealii::Tensor<2, 3>, std::allocator<dealii::Tensor<2, 3> > >, std::allocator<std::vector<dealii::Tensor<2, 3>, std::allocator<dealii::Tensor<2, 3> > > > >::_Vector_impl_data" = type { %"class.std::vector.52"*, %"class.std::vector.52"*, %"class.std::vector.52"* }
%"class.std::vector.74" = type { %"struct.std::_Vector_base.75" }
%"struct.std::_Vector_base.75" = type { %"struct.std::_Vector_base<unsigned int, std::allocator<unsigned int> >::_Vector_impl" }
%"struct.std::_Vector_base<unsigned int, std::allocator<unsigned int> >::_Vector_impl" = type { %"struct.std::_Vector_base<unsigned int, std::allocator<unsigned int> >::_Vector_impl_data" }
%"struct.std::_Vector_base<unsigned int, std::allocator<unsigned int> >::_Vector_impl_data" = type { i32*, i32*, i32* }
%"class.std::auto_ptr" = type { %"class.dealii::FEValuesBase<3, 3>::CellIteratorBase"* }
%"class.dealii::FEValuesBase<3, 3>::CellIteratorBase" = type opaque
%"class.dealii::SmartPointer.79" = type { %"class.dealii::Mapping"*, i8* }
%"class.dealii::SmartPointer.80" = type { %"class.dealii::FiniteElement"*, i8* }
%"class.dealii::FiniteElement" = type { %"class.dealii::Subscriptor", %"class.dealii::FiniteElementData", i8, %"class.std::vector.81", %"class.std::vector.81", %"class.dealii::FullMatrix", %"class.std::vector.69", %"class.std::vector.87", %"class.std::vector.69", %"class.std::vector.87", %"class.dealii::Table.94", %"class.std::vector.98", %"class.std::vector.103", %"class.std::vector.103", %"class.std::vector.108", %"class.std::vector.108", %"class.std::vector.74", %"class.std::vector.108", %"class.std::vector.116", %"class.std::vector.120", %"class.std::vector.74" }
%"class.dealii::FiniteElementData" = type { i32, i32, i32, i32, i32, i32, i32, i32, i32, i32, i32, i32, i32, i32, i32 }
%"class.std::vector.81" = type { %"struct.std::_Vector_base.82" }
%"struct.std::_Vector_base.82" = type { %"struct.std::_Vector_base<std::vector<dealii::FullMatrix<double>, std::allocator<dealii::FullMatrix<double> > >, std::allocator<std::vector<dealii::FullMatrix<double>, std::allocator<dealii::FullMatrix<double> > > > >::_Vector_impl" }
%"struct.std::_Vector_base<std::vector<dealii::FullMatrix<double>, std::allocator<dealii::FullMatrix<double> > >, std::allocator<std::vector<dealii::FullMatrix<double>, std::allocator<dealii::FullMatrix<double> > > > >::_Vector_impl" = type { %"struct.std::_Vector_base<std::vector<dealii::FullMatrix<double>, std::allocator<dealii::FullMatrix<double> > >, std::allocator<std::vector<dealii::FullMatrix<double>, std::allocator<dealii::FullMatrix<double> > > > >::_Vector_impl_data" }
%"struct.std::_Vector_base<std::vector<dealii::FullMatrix<double>, std::allocator<dealii::FullMatrix<double> > >, std::allocator<std::vector<dealii::FullMatrix<double>, std::allocator<dealii::FullMatrix<double> > > > >::_Vector_impl_data" = type { %"class.std::vector.86"*, %"class.std::vector.86"*, %"class.std::vector.86"* }
%"class.std::vector.86" = type opaque
%"class.dealii::FullMatrix" = type { %"class.dealii::Table.base", [4 x i8] }
%"class.dealii::Table.base" = type { %"class.dealii::TableBase.base" }
%"class.std::vector.87" = type { %"struct.std::_Vector_base.88" }
%"struct.std::_Vector_base.88" = type { %"struct.std::_Vector_base<dealii::Point<2>, std::allocator<dealii::Point<2> > >::_Vector_impl" }
%"struct.std::_Vector_base<dealii::Point<2>, std::allocator<dealii::Point<2> > >::_Vector_impl" = type { %"struct.std::_Vector_base<dealii::Point<2>, std::allocator<dealii::Point<2> > >::_Vector_impl_data" }
%"struct.std::_Vector_base<dealii::Point<2>, std::allocator<dealii::Point<2> > >::_Vector_impl_data" = type { %"class.dealii::Point.92"*, %"class.dealii::Point.92"*, %"class.dealii::Point.92"* }
%"class.dealii::Point.92" = type { %"class.dealii::Tensor.93" }
%"class.dealii::Tensor.93" = type { [2 x double] }
%"class.dealii::Table.94" = type { %"class.dealii::TableBase.base.96", [4 x i8] }
%"class.dealii::TableBase.base.96" = type <{ %"class.dealii::Subscriptor", i32*, i32, %"class.dealii::TableIndices.35" }>
%"class.std::vector.98" = type { %"struct.std::_Vector_base.99" }
%"struct.std::_Vector_base.99" = type { %"struct.std::_Vector_base<int, std::allocator<int> >::_Vector_impl" }
%"struct.std::_Vector_base<int, std::allocator<int> >::_Vector_impl" = type { %"struct.std::_Vector_base<int, std::allocator<int> >::_Vector_impl_data" }
%"struct.std::_Vector_base<int, std::allocator<int> >::_Vector_impl_data" = type { i32*, i32*, i32* }
%"class.std::vector.103" = type { %"struct.std::_Vector_base.104" }
%"struct.std::_Vector_base.104" = type { %"struct.std::_Vector_base<std::pair<unsigned int, unsigned int>, std::allocator<std::pair<unsigned int, unsigned int> > >::_Vector_impl" }
%"struct.std::_Vector_base<std::pair<unsigned int, unsigned int>, std::allocator<std::pair<unsigned int, unsigned int> > >::_Vector_impl" = type { %"struct.std::_Vector_base<std::pair<unsigned int, unsigned int>, std::allocator<std::pair<unsigned int, unsigned int> > >::_Vector_impl_data" }
%"struct.std::_Vector_base<std::pair<unsigned int, unsigned int>, std::allocator<std::pair<unsigned int, unsigned int> > >::_Vector_impl_data" = type { %"struct.std::pair"*, %"struct.std::pair"*, %"struct.std::pair"* }
%"struct.std::pair" = type { i32, i32 }
%"class.std::vector.108" = type { %"struct.std::_Vector_base.109" }
%"struct.std::_Vector_base.109" = type { %"struct.std::_Vector_base<std::pair<std::pair<unsigned int, unsigned int>, unsigned int>, std::allocator<std::pair<std::pair<unsigned int, unsigned int>, unsigned int> > >::_Vector_impl" }
%"struct.std::_Vector_base<std::pair<std::pair<unsigned int, unsigned int>, unsigned int>, std::allocator<std::pair<std::pair<unsigned int, unsigned int>, unsigned int> > >::_Vector_impl" = type { %"struct.std::_Vector_base<std::pair<std::pair<unsigned int, unsigned int>, unsigned int>, std::allocator<std::pair<std::pair<unsigned int, unsigned int>, unsigned int> > >::_Vector_impl_data" }
%"struct.std::_Vector_base<std::pair<std::pair<unsigned int, unsigned int>, unsigned int>, std::allocator<std::pair<std::pair<unsigned int, unsigned int>, unsigned int> > >::_Vector_impl_data" = type { %"struct.std::pair.113"*, %"struct.std::pair.113"*, %"struct.std::pair.113"* }
%"struct.std::pair.113" = type { %"struct.std::pair", i32 }
%"class.std::vector.116" = type { %"struct.std::_Bvector_base" }
%"struct.std::_Bvector_base" = type { %"struct.std::_Bvector_base<std::allocator<bool> >::_Bvector_impl" }
%"struct.std::_Bvector_base<std::allocator<bool> >::_Bvector_impl" = type { %"struct.std::_Bvector_base<std::allocator<bool> >::_Bvector_impl_data" }
%"struct.std::_Bvector_base<std::allocator<bool> >::_Bvector_impl_data" = type { %"struct.std::_Bit_iterator", %"struct.std::_Bit_iterator", i64* }
%"struct.std::_Bit_iterator" = type { %"struct.std::_Bit_iterator_base.base", [4 x i8] }
%"struct.std::_Bit_iterator_base.base" = type <{ i64*, i32 }>
%"class.std::vector.120" = type { %"struct.std::_Vector_base.121" }
%"struct.std::_Vector_base.121" = type { %"struct.std::_Vector_base<std::vector<bool, std::allocator<bool> >, std::allocator<std::vector<bool, std::allocator<bool> > > >::_Vector_impl" }
%"struct.std::_Vector_base<std::vector<bool, std::allocator<bool> >, std::allocator<std::vector<bool, std::allocator<bool> > > >::_Vector_impl" = type { %"struct.std::_Vector_base<std::vector<bool, std::allocator<bool> >, std::allocator<std::vector<bool, std::allocator<bool> > > >::_Vector_impl_data" }
%"struct.std::_Vector_base<std::vector<bool, std::allocator<bool> >, std::allocator<std::vector<bool, std::allocator<bool> > > >::_Vector_impl_data" = type { %"class.std::vector.116"*, %"class.std::vector.116"*, %"class.std::vector.116"* }
%"class.dealii::SmartPointer.125" = type { %"class.dealii::Mapping<3, 3>::InternalDataBase"*, i8* }
%"class.dealii::Mapping<3, 3>::InternalDataBase" = type opaque
%"struct.dealii::internal::FEValuesViews::Cache" = type { %"class.std::vector.126", %"class.std::vector.131" }
%"class.std::vector.126" = type { %"struct.std::_Vector_base.127" }
%"struct.std::_Vector_base.127" = type { %"struct.std::_Vector_base<dealii::FEValuesViews::Scalar<3, 3>, std::allocator<dealii::FEValuesViews::Scalar<3, 3> > >::_Vector_impl" }
%"struct.std::_Vector_base<dealii::FEValuesViews::Scalar<3, 3>, std::allocator<dealii::FEValuesViews::Scalar<3, 3> > >::_Vector_impl" = type { %"struct.std::_Vector_base<dealii::FEValuesViews::Scalar<3, 3>, std::allocator<dealii::FEValuesViews::Scalar<3, 3> > >::_Vector_impl_data" }
%"struct.std::_Vector_base<dealii::FEValuesViews::Scalar<3, 3>, std::allocator<dealii::FEValuesViews::Scalar<3, 3> > >::_Vector_impl_data" = type { %"class.dealii::FEValuesViews::Scalar"*, %"class.dealii::FEValuesViews::Scalar"*, %"class.dealii::FEValuesViews::Scalar"* }
%"class.dealii::FEValuesViews::Scalar" = type opaque
%"class.std::vector.131" = type { %"struct.std::_Vector_base.132" }
%"struct.std::_Vector_base.132" = type { %"struct.std::_Vector_base<dealii::FEValuesViews::Vector<3, 3>, std::allocator<dealii::FEValuesViews::Vector<3, 3> > >::_Vector_impl" }
%"struct.std::_Vector_base<dealii::FEValuesViews::Vector<3, 3>, std::allocator<dealii::FEValuesViews::Vector<3, 3> > >::_Vector_impl" = type { %"struct.std::_Vector_base<dealii::FEValuesViews::Vector<3, 3>, std::allocator<dealii::FEValuesViews::Vector<3, 3> > >::_Vector_impl_data" }
%"struct.std::_Vector_base<dealii::FEValuesViews::Vector<3, 3>, std::allocator<dealii::FEValuesViews::Vector<3, 3> > >::_Vector_impl_data" = type { %"class.dealii::FEValuesViews::Vector"*, %"class.dealii::FEValuesViews::Vector"*, %"class.dealii::FEValuesViews::Vector"* }
%"class.dealii::FEValuesViews::Vector" = type opaque
%"class.dealii::TableIndices" = type { %"class.dealii::TableIndicesBase" }
%"class.dealii::TableIndicesBase" = type { [3 x i32] }
%"class.dealii::hp::FECollection" = type { %"class.dealii::Subscriptor", %"class.std::vector" }
%"class.std::vector" = type { %"struct.std::_Vector_base" }
%"struct.std::_Vector_base" = type { %"struct.std::_Vector_base<boost::shared_ptr<const dealii::FiniteElement<3, 3> >, std::allocator<boost::shared_ptr<const dealii::FiniteElement<3, 3> > > >::_Vector_impl" }
%"struct.std::_Vector_base<boost::shared_ptr<const dealii::FiniteElement<3, 3> >, std::allocator<boost::shared_ptr<const dealii::FiniteElement<3, 3> > > >::_Vector_impl" = type { %"struct.std::_Vector_base<boost::shared_ptr<const dealii::FiniteElement<3, 3> >, std::allocator<boost::shared_ptr<const dealii::FiniteElement<3, 3> > > >::_Vector_impl_data" }
%"struct.std::_Vector_base<boost::shared_ptr<const dealii::FiniteElement<3, 3> >, std::allocator<boost::shared_ptr<const dealii::FiniteElement<3, 3> > > >::_Vector_impl_data" = type { %"class.boost::shared_ptr"*, %"class.boost::shared_ptr"*, %"class.boost::shared_ptr"* }
%"class.boost::shared_ptr" = type { %"class.dealii::FiniteElement"*, %"class.boost::detail::shared_count" }
%"class.dealii::internal::hp::FEValuesBase.136" = type { %"class.dealii::SmartPointer", %"class.dealii::SmartPointer.19", %"class.dealii::hp::QCollection.137", %"class.dealii::Table.144", %"class.dealii::TableIndices", i32 }
%"class.dealii::hp::QCollection.137" = type { %"class.dealii::Subscriptor", %"class.std::vector.138" }
%"class.std::vector.138" = type { %"struct.std::_Vector_base.139" }
%"struct.std::_Vector_base.139" = type { %"struct.std::_Vector_base<boost::shared_ptr<const dealii::Quadrature<2> >, std::allocator<boost::shared_ptr<const dealii::Quadrature<2> > > >::_Vector_impl" }
%"struct.std::_Vector_base<boost::shared_ptr<const dealii::Quadrature<2> >, std::allocator<boost::shared_ptr<const dealii::Quadrature<2> > > >::_Vector_impl" = type { %"struct.std::_Vector_base<boost::shared_ptr<const dealii::Quadrature<2> >, std::allocator<boost::shared_ptr<const dealii::Quadrature<2> > > >::_Vector_impl_data" }
%"struct.std::_Vector_base<boost::shared_ptr<const dealii::Quadrature<2> >, std::allocator<boost::shared_ptr<const dealii::Quadrature<2> > > >::_Vector_impl_data" = type { %"class.boost::shared_ptr.143"*, %"class.boost::shared_ptr.143"*, %"class.boost::shared_ptr.143"* }
%"class.boost::shared_ptr.143" = type { %"class.dealii::Quadrature.147"*, %"class.boost::detail::shared_count" }
%"class.dealii::Quadrature.147" = type { %"class.dealii::Subscriptor", i32, %"class.std::vector.87", %"class.std::vector.58" }
%"class.dealii::Table.144" = type { %"class.dealii::TableBase.145" }
%"class.dealii::TableBase.145" = type { %"class.dealii::Subscriptor", %"class.boost::shared_ptr.146"*, i32, %"class.dealii::TableIndices" }
%"class.boost::shared_ptr.146" = type { %"class.dealii::FEFaceValues"*, %"class.boost::detail::shared_count" }
%"class.dealii::FEFaceValues" = type { %"class.dealii::FEFaceValuesBase" }
%"class.dealii::FEFaceValuesBase" = type { %"class.dealii::FEValuesBase", i32, %"class.dealii::Quadrature.147" }
%"class.dealii::internal::hp::FEValuesBase.148" = type { %"class.dealii::SmartPointer", %"class.dealii::SmartPointer.19", %"class.dealii::hp::QCollection.137", %"class.dealii::Table.149", %"class.dealii::TableIndices", i32 }
%"class.dealii::Table.149" = type { %"class.dealii::TableBase.150" }
%"class.dealii::TableBase.150" = type { %"class.dealii::Subscriptor", %"class.boost::shared_ptr.151"*, i32, %"class.dealii::TableIndices" }
%"class.boost::shared_ptr.151" = type { %"class.dealii::FESubfaceValues"*, %"class.boost::detail::shared_count" }
%"class.dealii::FESubfaceValues" = type { %"class.dealii::FEFaceValuesBase" }
%"class.dealii::hp::FEValues" = type { %"class.dealii::internal::hp::FEValuesBase" }
%"class.dealii::hp::FEFaceValues" = type { %"class.dealii::internal::hp::FEValuesBase.136" }
%"class.dealii::hp::FESubfaceValues" = type { %"class.dealii::internal::hp::FEValuesBase.148" }
%"class.dealii::TriaIterator" = type { %"class.dealii::TriaRawIterator" }
%"class.dealii::TriaRawIterator" = type { %"class.dealii::DoFCellAccessor" }
%"class.dealii::DoFCellAccessor" = type { %"class.dealii::DoFAccessor" }
%"class.dealii::DoFAccessor" = type { %"class.dealii::CellAccessor", %"class.dealii::hp::DoFHandler"* }
%"class.dealii::CellAccessor" = type { %"class.dealii::TriaAccessor" }
%"class.dealii::TriaAccessor" = type { %"class.dealii::TriaAccessorBase" }
%"class.dealii::TriaAccessorBase" = type { i32, i32, %"class.dealii::Triangulation"* }
%"class.dealii::Triangulation" = type { %"class.dealii::Subscriptor", %"class.std::vector.155", %"class.dealii::internal::Triangulation::TriaFaces"*, %"class.std::vector.69", %"class.std::vector.116", [255 x %"class.dealii::SmartPointer.224"], [255 x %"class.dealii::SmartPointer.224"], i8, i32, %"struct.dealii::internal::Triangulation::NumberCache", %"class.std::__cxx11::list" }
%"class.std::vector.155" = type { %"struct.std::_Vector_base.156" }
%"struct.std::_Vector_base.156" = type { %"struct.std::_Vector_base<dealii::internal::Triangulation::TriaLevel<3> *, std::allocator<dealii::internal::Triangulation::TriaLevel<3> *> >::_Vector_impl" }
%"struct.std::_Vector_base<dealii::internal::Triangulation::TriaLevel<3> *, std::allocator<dealii::internal::Triangulation::TriaLevel<3> *> >::_Vector_impl" = type { %"struct.std::_Vector_base<dealii::internal::Triangulation::TriaLevel<3> *, std::allocator<dealii::internal::Triangulation::TriaLevel<3> *> >::_Vector_impl_data" }
%"struct.std::_Vector_base<dealii::internal::Triangulation::TriaLevel<3> *, std::allocator<dealii::internal::Triangulation::TriaLevel<3> *> >::_Vector_impl_data" = type { %"class.dealii::internal::Triangulation::TriaLevel"**, %"class.dealii::internal::Triangulation::TriaLevel"**, %"class.dealii::internal::Triangulation::TriaLevel"** }
%"class.dealii::internal::Triangulation::TriaLevel" = type { %"class.std::vector.160", %"class.std::vector.116", %"class.std::vector.165", %"class.std::vector.74", %"class.dealii::internal::Triangulation::TriaObjectsHex" }
%"class.std::vector.160" = type { %"struct.std::_Vector_base.161" }
%"struct.std::_Vector_base.161" = type { %"struct.std::_Vector_base<unsigned char, std::allocator<unsigned char> >::_Vector_impl" }
%"struct.std::_Vector_base<unsigned char, std::allocator<unsigned char> >::_Vector_impl" = type { %"struct.std::_Vector_base<unsigned char, std::allocator<unsigned char> >::_Vector_impl_data" }
%"struct.std::_Vector_base<unsigned char, std::allocator<unsigned char> >::_Vector_impl_data" = type { i8*, i8*, i8* }
%"class.std::vector.165" = type { %"struct.std::_Vector_base.166" }
%"struct.std::_Vector_base.166" = type { %"struct.std::_Vector_base<std::pair<int, int>, std::allocator<std::pair<int, int> > >::_Vector_impl" }
%"struct.std::_Vector_base<std::pair<int, int>, std::allocator<std::pair<int, int> > >::_Vector_impl" = type { %"struct.std::_Vector_base<std::pair<int, int>, std::allocator<std::pair<int, int> > >::_Vector_impl_data" }
%"struct.std::_Vector_base<std::pair<int, int>, std::allocator<std::pair<int, int> > >::_Vector_impl_data" = type { %"struct.std::pair.170"*, %"struct.std::pair.170"*, %"struct.std::pair.170"* }
%"struct.std::pair.170" = type opaque
%"class.dealii::internal::Triangulation::TriaObjectsHex" = type { %"class.dealii::internal::Triangulation::TriaObjects.base", %"class.std::vector.116", %"class.std::vector.116", %"class.std::vector.116" }
%"class.dealii::internal::Triangulation::TriaObjects.base" = type <{ %"class.std::vector.171", %"class.std::vector.98", %"class.std::vector.176", %"class.std::vector.116", %"class.std::vector.116", %"class.std::vector.160", i32, i32, i8, [7 x i8], %"class.std::vector.181", i32 }>
%"class.std::vector.171" = type { %"struct.std::_Vector_base.172" }
%"struct.std::_Vector_base.172" = type { %"struct.std::_Vector_base<dealii::internal::Triangulation::TriaObject<3>, std::allocator<dealii::internal::Triangulation::TriaObject<3> > >::_Vector_impl" }
%"struct.std::_Vector_base<dealii::internal::Triangulation::TriaObject<3>, std::allocator<dealii::internal::Triangulation::TriaObject<3> > >::_Vector_impl" = type { %"struct.std::_Vector_base<dealii::internal::Triangulation::TriaObject<3>, std::allocator<dealii::internal::Triangulation::TriaObject<3> > >::_Vector_impl_data" }
%"struct.std::_Vector_base<dealii::internal::Triangulation::TriaObject<3>, std::allocator<dealii::internal::Triangulation::TriaObject<3> > >::_Vector_impl_data" = type { %"class.dealii::internal::Triangulation::TriaObject"*, %"class.dealii::internal::Triangulation::TriaObject"*, %"class.dealii::internal::Triangulation::TriaObject"* }
%"class.dealii::internal::Triangulation::TriaObject" = type { [6 x i32] }
%"class.std::vector.176" = type { %"struct.std::_Vector_base.177" }
%"struct.std::_Vector_base.177" = type { %"struct.std::_Vector_base<dealii::RefinementCase<3>, std::allocator<dealii::RefinementCase<3> > >::_Vector_impl" }
%"struct.std::_Vector_base<dealii::RefinementCase<3>, std::allocator<dealii::RefinementCase<3> > >::_Vector_impl" = type { %"struct.std::_Vector_base<dealii::RefinementCase<3>, std::allocator<dealii::RefinementCase<3> > >::_Vector_impl_data" }
%"struct.std::_Vector_base<dealii::RefinementCase<3>, std::allocator<dealii::RefinementCase<3> > >::_Vector_impl_data" = type { %"class.dealii::RefinementCase"*, %"class.dealii::RefinementCase"*, %"class.dealii::RefinementCase"* }
%"class.dealii::RefinementCase" = type { i8 }
%"class.std::vector.181" = type { %"struct.std::_Vector_base.182" }
%"struct.std::_Vector_base.182" = type { %"struct.std::_Vector_base<dealii::internal::Triangulation::TriaObjects<dealii::internal::Triangulation::TriaObject<3> >::UserData, std::allocator<dealii::internal::Triangulation::TriaObjects<dealii::internal::Triangulation::TriaObject<3> >::UserData> >::_Vector_impl" }
%"struct.std::_Vector_base<dealii::internal::Triangulation::TriaObjects<dealii::internal::Triangulation::TriaObject<3> >::UserData, std::allocator<dealii::internal::Triangulation::TriaObjects<dealii::internal::Triangulation::TriaObject<3> >::UserData> >::_Vector_impl" = type { %"struct.std::_Vector_base<dealii::internal::Triangulation::TriaObjects<dealii::internal::Triangulation::TriaObject<3> >::UserData, std::allocator<dealii::internal::Triangulation::TriaObjects<dealii::internal::Triangulation::TriaObject<3> >::UserData> >::_Vector_impl_data" }
%"struct.std::_Vector_base<dealii::internal::Triangulation::TriaObjects<dealii::internal::Triangulation::TriaObject<3> >::UserData, std::allocator<dealii::internal::Triangulation::TriaObjects<dealii::internal::Triangulation::TriaObject<3> >::UserData> >::_Vector_impl_data" = type { %"union.dealii::internal::Triangulation::TriaObjects<dealii::internal::Triangulation::TriaObject<3> >::UserData"*, %"union.dealii::internal::Triangulation::TriaObjects<dealii::internal::Triangulation::TriaObject<3> >::UserData"*, %"union.dealii::internal::Triangulation::TriaObjects<dealii::internal::Triangulation::TriaObject<3> >::UserData"* }
%"union.dealii::internal::Triangulation::TriaObjects<dealii::internal::Triangulation::TriaObject<3> >::UserData" = type opaque
%"class.dealii::internal::Triangulation::TriaFaces" = type { %"class.dealii::internal::Triangulation::TriaObjectsQuad3D", %"class.dealii::internal::Triangulation::TriaObjects.204" }
%"class.dealii::internal::Triangulation::TriaObjectsQuad3D" = type { %"class.dealii::internal::Triangulation::TriaObjects.base.203", %"class.std::vector.116" }
%"class.dealii::internal::Triangulation::TriaObjects.base.203" = type <{ %"class.std::vector.187", %"class.std::vector.98", %"class.std::vector.193", %"class.std::vector.116", %"class.std::vector.116", %"class.std::vector.160", i32, i32, i8, [7 x i8], %"class.std::vector.198", i32 }>
%"class.std::vector.187" = type { %"struct.std::_Vector_base.188" }
%"struct.std::_Vector_base.188" = type { %"struct.std::_Vector_base<dealii::internal::Triangulation::TriaObject<2>, std::allocator<dealii::internal::Triangulation::TriaObject<2> > >::_Vector_impl" }
%"struct.std::_Vector_base<dealii::internal::Triangulation::TriaObject<2>, std::allocator<dealii::internal::Triangulation::TriaObject<2> > >::_Vector_impl" = type { %"struct.std::_Vector_base<dealii::internal::Triangulation::TriaObject<2>, std::allocator<dealii::internal::Triangulation::TriaObject<2> > >::_Vector_impl_data" }
%"struct.std::_Vector_base<dealii::internal::Triangulation::TriaObject<2>, std::allocator<dealii::internal::Triangulation::TriaObject<2> > >::_Vector_impl_data" = type { %"class.dealii::internal::Triangulation::TriaObject.192"*, %"class.dealii::internal::Triangulation::TriaObject.192"*, %"class.dealii::internal::Triangulation::TriaObject.192"* }
%"class.dealii::internal::Triangulation::TriaObject.192" = type { [4 x i32] }
%"class.std::vector.193" = type { %"struct.std::_Vector_base.194" }
%"struct.std::_Vector_base.194" = type { %"struct.std::_Vector_base<dealii::RefinementCase<2>, std::allocator<dealii::RefinementCase<2> > >::_Vector_impl" }
%"struct.std::_Vector_base<dealii::RefinementCase<2>, std::allocator<dealii::RefinementCase<2> > >::_Vector_impl" = type { %"struct.std::_Vector_base<dealii::RefinementCase<2>, std::allocator<dealii::RefinementCase<2> > >::_Vector_impl_data" }
%"struct.std::_Vector_base<dealii::RefinementCase<2>, std::allocator<dealii::RefinementCase<2> > >::_Vector_impl_data" = type { %"class.dealii::RefinementCase.152"*, %"class.dealii::RefinementCase.152"*, %"class.dealii::RefinementCase.152"* }
%"class.dealii::RefinementCase.152" = type { i8 }
%"class.std::vector.198" = type { %"struct.std::_Vector_base.199" }
%"struct.std::_Vector_base.199" = type { %"struct.std::_Vector_base<dealii::internal::Triangulation::TriaObjects<dealii::internal::Triangulation::TriaObject<2> >::UserData, std::allocator<dealii::internal::Triangulation::TriaObjects<dealii::internal::Triangulation::TriaObject<2> >::UserData> >::_Vector_impl" }
%"struct.std::_Vector_base<dealii::internal::Triangulation::TriaObjects<dealii::internal::Triangulation::TriaObject<2> >::UserData, std::allocator<dealii::internal::Triangulation::TriaObjects<dealii::internal::Triangulation::TriaObject<2> >::UserData> >::_Vector_impl" = type { %"struct.std::_Vector_base<dealii::internal::Triangulation::TriaObjects<dealii::internal::Triangulation::TriaObject<2> >::UserData, std::allocator<dealii::internal::Triangulation::TriaObjects<dealii::internal::Triangulation::TriaObject<2> >::UserData> >::_Vector_impl_data" }
%"struct.std::_Vector_base<dealii::internal::Triangulation::TriaObjects<dealii::internal::Triangulation::TriaObject<2> >::UserData, std::allocator<dealii::internal::Triangulation::TriaObjects<dealii::internal::Triangulation::TriaObject<2> >::UserData> >::_Vector_impl_data" = type { %"union.dealii::internal::Triangulation::TriaObjects<dealii::internal::Triangulation::TriaObject<2> >::UserData"*, %"union.dealii::internal::Triangulation::TriaObjects<dealii::internal::Triangulation::TriaObject<2> >::UserData"*, %"union.dealii::internal::Triangulation::TriaObjects<dealii::internal::Triangulation::TriaObject<2> >::UserData"* }
%"union.dealii::internal::Triangulation::TriaObjects<dealii::internal::Triangulation::TriaObject<2> >::UserData" = type opaque
%"class.dealii::internal::Triangulation::TriaObjects.204" = type <{ %"class.std::vector.205", %"class.std::vector.98", %"class.std::vector.211", %"class.std::vector.116", %"class.std::vector.116", %"class.std::vector.160", i32, i32, i8, [7 x i8], %"class.std::vector.218", i32, [4 x i8] }>
%"class.std::vector.205" = type { %"struct.std::_Vector_base.206" }
%"struct.std::_Vector_base.206" = type { %"struct.std::_Vector_base<dealii::internal::Triangulation::TriaObject<1>, std::allocator<dealii::internal::Triangulation::TriaObject<1> > >::_Vector_impl" }
%"struct.std::_Vector_base<dealii::internal::Triangulation::TriaObject<1>, std::allocator<dealii::internal::Triangulation::TriaObject<1> > >::_Vector_impl" = type { %"struct.std::_Vector_base<dealii::internal::Triangulation::TriaObject<1>, std::allocator<dealii::internal::Triangulation::TriaObject<1> > >::_Vector_impl_data" }
%"struct.std::_Vector_base<dealii::internal::Triangulation::TriaObject<1>, std::allocator<dealii::internal::Triangulation::TriaObject<1> > >::_Vector_impl_data" = type { %"class.dealii::internal::Triangulation::TriaObject.210"*, %"class.dealii::internal::Triangulation::TriaObject.210"*, %"class.dealii::internal::Triangulation::TriaObject.210"* }
%"class.dealii::internal::Triangulation::TriaObject.210" = type { [2 x i32] }
%"class.std::vector.211" = type { %"struct.std::_Vector_base.212" }
%"struct.std::_Vector_base.212" = type { %"struct.std::_Vector_base<dealii::RefinementCase<1>, std::allocator<dealii::RefinementCase<1> > >::_Vector_impl" }
%"struct.std::_Vector_base<dealii::RefinementCase<1>, std::allocator<dealii::RefinementCase<1> > >::_Vector_impl" = type { %"struct.std::_Vector_base<dealii::RefinementCase<1>, std::allocator<dealii::RefinementCase<1> > >::_Vector_impl_data" }
%"struct.std::_Vector_base<dealii::RefinementCase<1>, std::allocator<dealii::RefinementCase<1> > >::_Vector_impl_data" = type { %"class.dealii::RefinementCase.216"*, %"class.dealii::RefinementCase.216"*, %"class.dealii::RefinementCase.216"* }
%"class.dealii::RefinementCase.216" = type { i8 }
%"class.std::vector.218" = type { %"struct.std::_Vector_base.219" }
%"struct.std::_Vector_base.219" = type { %"struct.std::_Vector_base<dealii::internal::Triangulation::TriaObjects<dealii::internal::Triangulation::TriaObject<1> >::UserData, std::allocator<dealii::internal::Triangulation::TriaObjects<dealii::internal::Triangulation::TriaObject<1> >::UserData> >::_Vector_impl" }
%"struct.std::_Vector_base<dealii::internal::Triangulation::TriaObjects<dealii::internal::Triangulation::TriaObject<1> >::UserData, std::allocator<dealii::internal::Triangulation::TriaObjects<dealii::internal::Triangulation::TriaObject<1> >::UserData> >::_Vector_impl" = type { %"struct.std::_Vector_base<dealii::internal::Triangulation::TriaObjects<dealii::internal::Triangulation::TriaObject<1> >::UserData, std::allocator<dealii::internal::Triangulation::TriaObjects<dealii::internal::Triangulation::TriaObject<1> >::UserData> >::_Vector_impl_data" }
%"struct.std::_Vector_base<dealii::internal::Triangulation::TriaObjects<dealii::internal::Triangulation::TriaObject<1> >::UserData, std::allocator<dealii::internal::Triangulation::TriaObjects<dealii::internal::Triangulation::TriaObject<1> >::UserData> >::_Vector_impl_data" = type { %"union.dealii::internal::Triangulation::TriaObjects<dealii::internal::Triangulation::TriaObject<1> >::UserData"*, %"union.dealii::internal::Triangulation::TriaObjects<dealii::internal::Triangulation::TriaObject<1> >::UserData"*, %"union.dealii::internal::Triangulation::TriaObjects<dealii::internal::Triangulation::TriaObject<1> >::UserData"* }
%"union.dealii::internal::Triangulation::TriaObjects<dealii::internal::Triangulation::TriaObject<1> >::UserData" = type opaque
%"class.dealii::SmartPointer.224" = type { %"class.dealii::Boundary"*, i8* }
%"class.dealii::Boundary" = type opaque
%"struct.dealii::internal::Triangulation::NumberCache" = type { %"struct.dealii::internal::Triangulation::NumberCache.225", i32, %"class.std::vector.74", i32, %"class.std::vector.74" }
%"struct.dealii::internal::Triangulation::NumberCache.225" = type { %"struct.dealii::internal::Triangulation::NumberCache.226", i32, %"class.std::vector.74", i32, %"class.std::vector.74" }
%"struct.dealii::internal::Triangulation::NumberCache.226" = type { i32, %"class.std::vector.74", i32, %"class.std::vector.74" }
%"class.std::__cxx11::list" = type { %"class.std::__cxx11::_List_base" }
%"class.std::__cxx11::_List_base" = type { %"struct.std::__cxx11::_List_base<dealii::Triangulation<3, 3>::RefinementListener *, std::allocator<dealii::Triangulation<3, 3>::RefinementListener *> >::_List_impl" }
%"struct.std::__cxx11::_List_base<dealii::Triangulation<3, 3>::RefinementListener *, std::allocator<dealii::Triangulation<3, 3>::RefinementListener *> >::_List_impl" = type { %"struct.std::__detail::_List_node_header" }
%"struct.std::__detail::_List_node_header" = type { %"struct.std::__detail::_List_node_base", i64 }
%"struct.std::__detail::_List_node_base" = type { %"struct.std::__detail::_List_node_base"*, %"struct.std::__detail::_List_node_base"* }
%"class.dealii::hp::DoFHandler" = type { %"class.dealii::Subscriptor", %"class.dealii::Triangulation<3, 3>::RefinementListener", %"class.dealii::SmartPointer.230", %"class.dealii::SmartPointer", %"class.std::vector.231", %"class.dealii::internal::hp::DoFFaces"*, i32, %"class.std::vector.74", %"class.std::vector.74", %"class.std::vector.239" }
%"class.dealii::Triangulation<3, 3>::RefinementListener" = type { i32 (...)** }
%"class.dealii::SmartPointer.230" = type { %"class.dealii::Triangulation"*, i8* }
%"class.std::vector.231" = type { %"struct.std::_Vector_base.232" }
%"struct.std::_Vector_base.232" = type { %"struct.std::_Vector_base<dealii::internal::hp::DoFLevel<3> *, std::allocator<dealii::internal::hp::DoFLevel<3> *> >::_Vector_impl" }
%"struct.std::_Vector_base<dealii::internal::hp::DoFLevel<3> *, std::allocator<dealii::internal::hp::DoFLevel<3> *> >::_Vector_impl" = type { %"struct.std::_Vector_base<dealii::internal::hp::DoFLevel<3> *, std::allocator<dealii::internal::hp::DoFLevel<3> *> >::_Vector_impl_data" }
%"struct.std::_Vector_base<dealii::internal::hp::DoFLevel<3> *, std::allocator<dealii::internal::hp::DoFLevel<3> *> >::_Vector_impl_data" = type { %"class.dealii::internal::hp::DoFLevel"**, %"class.dealii::internal::hp::DoFLevel"**, %"class.dealii::internal::hp::DoFLevel"** }
%"class.dealii::internal::hp::DoFLevel" = type { %"class.dealii::internal::hp::DoFLevel.236", %"class.dealii::internal::hp::DoFObjects" }
%"class.dealii::internal::hp::DoFLevel.236" = type { %"class.std::vector.74" }
%"class.dealii::internal::hp::DoFObjects" = type { %"class.std::vector.74", %"class.std::vector.74" }
%"class.dealii::internal::hp::DoFFaces" = type { %"class.dealii::internal::hp::DoFObjects.237", %"class.dealii::internal::hp::DoFObjects.238" }
%"class.dealii::internal::hp::DoFObjects.237" = type { %"class.std::vector.74", %"class.std::vector.74" }
%"class.dealii::internal::hp::DoFObjects.238" = type { %"class.std::vector.74", %"class.std::vector.74" }
%"class.std::vector.239" = type { %"struct.std::_Vector_base.240" }
%"struct.std::_Vector_base.240" = type { %"struct.std::_Vector_base<std::vector<bool, std::allocator<bool> > *, std::allocator<std::vector<bool, std::allocator<bool> > *> >::_Vector_impl" }
%"struct.std::_Vector_base<std::vector<bool, std::allocator<bool> > *, std::allocator<std::vector<bool, std::allocator<bool> > *> >::_Vector_impl" = type { %"struct.std::_Vector_base<std::vector<bool, std::allocator<bool> > *, std::allocator<std::vector<bool, std::allocator<bool> > *> >::_Vector_impl_data" }
%"struct.std::_Vector_base<std::vector<bool, std::allocator<bool> > *, std::allocator<std::vector<bool, std::allocator<bool> > *> >::_Vector_impl_data" = type { %"class.std::vector.116"**, %"class.std::vector.116"**, %"class.std::vector.116"** }
%"class.dealii::TriaIterator.244" = type { %"class.dealii::TriaRawIterator.245" }
%"class.dealii::TriaRawIterator.245" = type { %"class.dealii::DoFCellAccessor.247" }
%"class.dealii::DoFCellAccessor.247" = type { %"class.dealii::DoFAccessor.248" }
%"class.dealii::DoFAccessor.248" = type { %"class.dealii::CellAccessor", %"class.dealii::DoFHandler"* }
%"class.dealii::DoFHandler" = type { %"class.dealii::Subscriptor", %"class.dealii::SmartPointer.230", %"class.dealii::SmartPointer.80", %"class.std::vector.249", %"class.dealii::internal::DoFHandler::DoFFaces"*, i32, %"class.std::vector.74" }
%"class.std::vector.249" = type { %"struct.std::_Vector_base.250" }
%"struct.std::_Vector_base.250" = type { %"struct.std::_Vector_base<dealii::internal::DoFHandler::DoFLevel<3> *, std::allocator<dealii::internal::DoFHandler::DoFLevel<3> *> >::_Vector_impl" }
%"struct.std::_Vector_base<dealii::internal::DoFHandler::DoFLevel<3> *, std::allocator<dealii::internal::DoFHandler::DoFLevel<3> *> >::_Vector_impl" = type { %"struct.std::_Vector_base<dealii::internal::DoFHandler::DoFLevel<3> *, std::allocator<dealii::internal::DoFHandler::DoFLevel<3> *> >::_Vector_impl_data" }
%"struct.std::_Vector_base<dealii::internal::DoFHandler::DoFLevel<3> *, std::allocator<dealii::internal::DoFHandler::DoFLevel<3> *> >::_Vector_impl_data" = type { %"class.dealii::internal::DoFHandler::DoFLevel"**, %"class.dealii::internal::DoFHandler::DoFLevel"**, %"class.dealii::internal::DoFHandler::DoFLevel"** }
%"class.dealii::internal::DoFHandler::DoFLevel" = type { %"class.dealii::internal::DoFHandler::DoFLevel.254", %"class.dealii::internal::DoFHandler::DoFObjects" }
%"class.dealii::internal::DoFHandler::DoFLevel.254" = type { %"class.std::vector.74" }
%"class.dealii::internal::DoFHandler::DoFObjects" = type { %"class.std::vector.74" }
%"class.dealii::internal::DoFHandler::DoFFaces" = type { %"class.dealii::internal::DoFHandler::DoFObjects.255", %"class.dealii::internal::DoFHandler::DoFObjects.256" }
%"class.dealii::internal::DoFHandler::DoFObjects.255" = type { %"class.std::vector.74" }
%"class.dealii::internal::DoFHandler::DoFObjects.256" = type { %"class.std::vector.74" }
%"class.dealii::TriaIterator.257" = type { %"class.dealii::TriaRawIterator.258" }
%"class.dealii::TriaRawIterator.258" = type { %"class.dealii::MGDoFCellAccessor" }
%"class.dealii::MGDoFCellAccessor" = type { %"class.dealii::MGDoFAccessor" }
%"class.dealii::MGDoFAccessor" = type { %"class.dealii::DoFCellAccessor.247", %"class.dealii::MGDoFHandler"* }
%"class.dealii::MGDoFHandler" = type { %"class.dealii::DoFHandler", %"class.std::vector.249", %"class.dealii::internal::DoFHandler::DoFFaces"*, %"class.std::vector.260", %"class.std::vector.74" }
%"class.std::vector.260" = type { %"struct.std::_Vector_base.261" }
%"struct.std::_Vector_base.261" = type { %"struct.std::_Vector_base<dealii::MGDoFHandler<3, 3>::MGVertexDoFs, std::allocator<dealii::MGDoFHandler<3, 3>::MGVertexDoFs> >::_Vector_impl" }
%"struct.std::_Vector_base<dealii::MGDoFHandler<3, 3>::MGVertexDoFs, std::allocator<dealii::MGDoFHandler<3, 3>::MGVertexDoFs> >::_Vector_impl" = type { %"struct.std::_Vector_base<dealii::MGDoFHandler<3, 3>::MGVertexDoFs, std::allocator<dealii::MGDoFHandler<3, 3>::MGVertexDoFs> >::_Vector_impl_data" }
%"struct.std::_Vector_base<dealii::MGDoFHandler<3, 3>::MGVertexDoFs, std::allocator<dealii::MGDoFHandler<3, 3>::MGVertexDoFs> >::_Vector_impl_data" = type { %"class.dealii::MGDoFHandler<3, 3>::MGVertexDoFs"*, %"class.dealii::MGDoFHandler<3, 3>::MGVertexDoFs"*, %"class.dealii::MGDoFHandler<3, 3>::MGVertexDoFs"* }
%"class.dealii::MGDoFHandler<3, 3>::MGVertexDoFs" = type opaque
%"class.dealii::TriaIterator.265" = type { %"class.dealii::TriaRawIterator.266" }
%"class.dealii::TriaRawIterator.266" = type { %"class.dealii::CellAccessor" }
%"class.std::allocator.28" = type { i8 }
%"class.__gnu_cxx::new_allocator.29" = type { i8 }
%"class.std::allocator.140" = type { i8 }
%"class.__gnu_cxx::new_allocator.141" = type { i8 }
%"class.__gnu_cxx::__normal_iterator" = type { %"class.boost::shared_ptr.31"* }
%"struct.std::random_access_iterator_tag" = type { i8 }
%"class.boost::detail::sp_counted_impl_p" = type { %"class.boost::detail::sp_counted_base", %"class.dealii::FEValues"* }
%"class.__gnu_cxx::__normal_iterator.268" = type { %"class.boost::shared_ptr.143"* }
%"class.boost::detail::sp_counted_impl_p.269" = type { %"class.boost::detail::sp_counted_base", %"class.dealii::FEFaceValues"* }
%"class.boost::detail::sp_counted_impl_p.270" = type { %"class.boost::detail::sp_counted_base", %"class.dealii::FESubfaceValues"* }

$_ZN5boost3argILi1EEC2Ev = comdat any

$_ZN5boost3argILi2EEC2Ev = comdat any

$_ZN5boost3argILi3EEC2Ev = comdat any

$_ZN5boost3argILi4EEC2Ev = comdat any

$_ZN5boost3argILi5EEC2Ev = comdat any

$_ZN5boost3argILi6EEC2Ev = comdat any

$_ZN5boost3argILi7EEC2Ev = comdat any

$_ZN5boost3argILi8EEC2Ev = comdat any

$_ZN5boost3argILi9EEC2Ev = comdat any

$_ZN6dealii8internal2hp12FEValuesBaseILi3ELi3ENS_8FEValuesILi3ELi3EEEEC5ERKNS_2hp17MappingCollectionILi3ELi3EEERKNS6_12FECollectionILi3ELi3EEERKNS6_11QCollectionILi3EEENS_11UpdateFlagsE = comdat any

$_ZN6dealii12SmartPointerIKNS_2hp12FECollectionILi3ELi3EEEEC2EPS4_PKc = comdat any

$_ZN6dealii12SmartPointerIKNS_2hp17MappingCollectionILi3ELi3EEEEC2EPS4_PKc = comdat any

$_ZN6dealii2hp11QCollectionILi3EEC2ERKS2_ = comdat any

$_ZNK6dealii2hp12FECollectionILi3ELi3EE4sizeEv = comdat any

$_ZNK6dealii2hp17MappingCollectionILi3ELi3EE4sizeEv = comdat any

$_ZNK6dealii2hp11QCollectionILi3EE4sizeEv = comdat any

$_ZN6dealii5TableILi3EN5boost10shared_ptrINS_8FEValuesILi3ELi3EEEEEEC2Ejjj = comdat any

$_ZN6dealii12TableIndicesILi3EEC2Ejjj = comdat any

$_ZN6dealii5TableILi3EN5boost10shared_ptrINS_8FEValuesILi3ELi3EEEEEED2Ev = comdat any

$_ZN6dealii2hp11QCollectionILi3EED2Ev = comdat any

$_ZN6dealii12SmartPointerIKNS_2hp17MappingCollectionILi3ELi3EEEED2Ev = comdat any

$_ZN6dealii12SmartPointerIKNS_2hp12FECollectionILi3ELi3EEEED2Ev = comdat any

$_ZN6dealii8internal2hp12FEValuesBaseILi3ELi3ENS_8FEValuesILi3ELi3EEEEC5ERKNS_2hp12FECollectionILi3ELi3EEERKNS6_11QCollectionILi3EEENS_11UpdateFlagsE = comdat any

$_ZNK6dealii8internal2hp12FEValuesBaseILi3ELi3ENS_8FEValuesILi3ELi3EEEE21get_present_fe_valuesEv = comdat any

$_ZNK6dealii5TableILi3EN5boost10shared_ptrINS_8FEValuesILi3ELi3EEEEEEclERKNS_12TableIndicesILi3EEE = comdat any

$_ZNK5boost10shared_ptrIN6dealii8FEValuesILi3ELi3EEEEdeEv = comdat any

$_ZN6dealii8internal2hp12FEValuesBaseILi3ELi3ENS_8FEValuesILi3ELi3EEEE16select_fe_valuesEjjj = comdat any

$_ZN6dealii5TableILi3EN5boost10shared_ptrINS_8FEValuesILi3ELi3EEEEEEclERKNS_12TableIndicesILi3EEE = comdat any

$_ZNK5boost10shared_ptrIN6dealii8FEValuesILi3ELi3EEEEcvMS4_PS3_Ev = comdat any

$_ZNK6dealii12SmartPointerIKNS_2hp17MappingCollectionILi3ELi3EEEEdeEv = comdat any

$_ZNK6dealii2hp17MappingCollectionILi3ELi3EEixEj = comdat any

$_ZNK6dealii12SmartPointerIKNS_2hp12FECollectionILi3ELi3EEEEdeEv = comdat any

$_ZNK6dealii2hp12FECollectionILi3ELi3EEixEj = comdat any

$_ZNK6dealii2hp11QCollectionILi3EEixEj = comdat any

$_ZN5boost10shared_ptrIN6dealii8FEValuesILi3ELi3EEEEC2IS3_EEPT_ = comdat any

$_ZN5boost10shared_ptrIN6dealii8FEValuesILi3ELi3EEEEaSERKS4_ = comdat any

$_ZN5boost10shared_ptrIN6dealii8FEValuesILi3ELi3EEEED2Ev = comdat any

$_ZN6dealii8internal2hp12FEValuesBaseILi3ELi2ENS_12FEFaceValuesILi3ELi3EEEEC5ERKNS_2hp17MappingCollectionILi3ELi3EEERKNS6_12FECollectionILi3ELi3EEERKNS6_11QCollectionILi2EEENS_11UpdateFlagsE = comdat any

$_ZN6dealii2hp11QCollectionILi2EEC2ERKS2_ = comdat any

$_ZNK6dealii2hp11QCollectionILi2EE4sizeEv = comdat any

$_ZN6dealii5TableILi3EN5boost10shared_ptrINS_12FEFaceValuesILi3ELi3EEEEEEC2Ejjj = comdat any

$_ZN6dealii5TableILi3EN5boost10shared_ptrINS_12FEFaceValuesILi3ELi3EEEEEED2Ev = comdat any

$_ZN6dealii2hp11QCollectionILi2EED2Ev = comdat any

$_ZN6dealii8internal2hp12FEValuesBaseILi3ELi2ENS_12FEFaceValuesILi3ELi3EEEEC5ERKNS_2hp12FECollectionILi3ELi3EEERKNS6_11QCollectionILi2EEENS_11UpdateFlagsE = comdat any

$_ZNK6dealii8internal2hp12FEValuesBaseILi3ELi2ENS_12FEFaceValuesILi3ELi3EEEE21get_present_fe_valuesEv = comdat any

$_ZNK6dealii5TableILi3EN5boost10shared_ptrINS_12FEFaceValuesILi3ELi3EEEEEEclERKNS_12TableIndicesILi3EEE = comdat any

$_ZNK5boost10shared_ptrIN6dealii12FEFaceValuesILi3ELi3EEEEdeEv = comdat any

$_ZN6dealii8internal2hp12FEValuesBaseILi3ELi2ENS_12FEFaceValuesILi3ELi3EEEE16select_fe_valuesEjjj = comdat any

$_ZN6dealii5TableILi3EN5boost10shared_ptrINS_12FEFaceValuesILi3ELi3EEEEEEclERKNS_12TableIndicesILi3EEE = comdat any

$_ZNK5boost10shared_ptrIN6dealii12FEFaceValuesILi3ELi3EEEEcvMS4_PS3_Ev = comdat any

$_ZNK6dealii2hp11QCollectionILi2EEixEj = comdat any

$_ZN5boost10shared_ptrIN6dealii12FEFaceValuesILi3ELi3EEEEC2IS3_EEPT_ = comdat any

$_ZN5boost10shared_ptrIN6dealii12FEFaceValuesILi3ELi3EEEEaSERKS4_ = comdat any

$_ZN5boost10shared_ptrIN6dealii12FEFaceValuesILi3ELi3EEEED2Ev = comdat any

$_ZN6dealii8internal2hp12FEValuesBaseILi3ELi2ENS_15FESubfaceValuesILi3ELi3EEEEC5ERKNS_2hp17MappingCollectionILi3ELi3EEERKNS6_12FECollectionILi3ELi3EEERKNS6_11QCollectionILi2EEENS_11UpdateFlagsE = comdat any

$_ZN6dealii5TableILi3EN5boost10shared_ptrINS_15FESubfaceValuesILi3ELi3EEEEEEC2Ejjj = comdat any

$_ZN6dealii5TableILi3EN5boost10shared_ptrINS_15FESubfaceValuesILi3ELi3EEEEEED2Ev = comdat any

$_ZN6dealii8internal2hp12FEValuesBaseILi3ELi2ENS_15FESubfaceValuesILi3ELi3EEEEC5ERKNS_2hp12FECollectionILi3ELi3EEERKNS6_11QCollectionILi2EEENS_11UpdateFlagsE = comdat any

$_ZNK6dealii8internal2hp12FEValuesBaseILi3ELi2ENS_15FESubfaceValuesILi3ELi3EEEE21get_present_fe_valuesEv = comdat any

$_ZNK6dealii5TableILi3EN5boost10shared_ptrINS_15FESubfaceValuesILi3ELi3EEEEEEclERKNS_12TableIndicesILi3EEE = comdat any

$_ZNK5boost10shared_ptrIN6dealii15FESubfaceValuesILi3ELi3EEEEdeEv = comdat any

$_ZN6dealii8internal2hp12FEValuesBaseILi3ELi2ENS_15FESubfaceValuesILi3ELi3EEEE16select_fe_valuesEjjj = comdat any

$_ZN6dealii5TableILi3EN5boost10shared_ptrINS_15FESubfaceValuesILi3ELi3EEEEEEclERKNS_12TableIndicesILi3EEE = comdat any

$_ZNK5boost10shared_ptrIN6dealii15FESubfaceValuesILi3ELi3EEEEcvMS4_PS3_Ev = comdat any

$_ZN5boost10shared_ptrIN6dealii15FESubfaceValuesILi3ELi3EEEEC2IS3_EEPT_ = comdat any

$_ZN5boost10shared_ptrIN6dealii15FESubfaceValuesILi3ELi3EEEEaSERKS4_ = comdat any

$_ZN5boost10shared_ptrIN6dealii15FESubfaceValuesILi3ELi3EEEED2Ev = comdat any

$_ZN6dealii2hp8FEValuesILi3ELi3EEC5ERKNS0_17MappingCollectionILi3ELi3EEERKNS0_12FECollectionILi3ELi3EEERKNS0_11QCollectionILi3EEENS_11UpdateFlagsE = comdat any

$_ZN6dealii2hp8FEValuesILi3ELi3EEC5ERKNS0_12FECollectionILi3ELi3EEERKNS0_11QCollectionILi3EEENS_11UpdateFlagsE = comdat any

$_ZN6dealii2hp8FEValuesILi3ELi3EE6reinitERKNS_12TriaIteratorINS_15DoFCellAccessorINS0_10DoFHandlerILi3ELi3EEEEEEEjjj = comdat any

$_ZNK6dealii15TriaRawIteratorINS_15DoFCellAccessorINS_2hp10DoFHandlerILi3ELi3EEEEEEptEv = comdat any

$_ZNK6dealii15DoFCellAccessorINS_2hp10DoFHandlerILi3ELi3EEEE15active_fe_indexEv = comdat any

$_ZNK6dealii12SmartPointerIKNS_2hp17MappingCollectionILi3ELi3EEEEptEv = comdat any

$_ZN6dealii2hp8FEValuesILi3ELi3EE6reinitERKNS_12TriaIteratorINS_15DoFCellAccessorINS_10DoFHandlerILi3ELi3EEEEEEEjjj = comdat any

$_ZN6dealii2hp8FEValuesILi3ELi3EE6reinitERKNS_12TriaIteratorINS_17MGDoFCellAccessorILi3ELi3EEEEEjjj = comdat any

$_ZN6dealii2hp8FEValuesILi3ELi3EE6reinitERKNS_12TriaIteratorINS_12CellAccessorILi3ELi3EEEEEjjj = comdat any

$_ZN6dealii2hp12FEFaceValuesILi3EEC5ERKNS0_17MappingCollectionILi3ELi3EEERKNS0_12FECollectionILi3ELi3EEERKNS0_11QCollectionILi2EEENS_11UpdateFlagsE = comdat any

$_ZN6dealii2hp12FEFaceValuesILi3EEC5ERKNS0_12FECollectionILi3ELi3EEERKNS0_11QCollectionILi2EEENS_11UpdateFlagsE = comdat any

$_ZN6dealii2hp12FEFaceValuesILi3EE6reinitERKNS_12TriaIteratorINS_15DoFCellAccessorINS0_10DoFHandlerILi3ELi3EEEEEEEjjjj = comdat any

$_ZN6dealii2hp12FEFaceValuesILi3EE6reinitERKNS_12TriaIteratorINS_15DoFCellAccessorINS_10DoFHandlerILi3ELi3EEEEEEEjjjj = comdat any

$_ZN6dealii2hp12FEFaceValuesILi3EE6reinitERKNS_12TriaIteratorINS_17MGDoFCellAccessorILi3ELi3EEEEEjjjj = comdat any

$_ZN6dealii2hp12FEFaceValuesILi3EE6reinitERKNS_12TriaIteratorINS_12CellAccessorILi3ELi3EEEEEjjjj = comdat any

$_ZN6dealii2hp15FESubfaceValuesILi3EEC5ERKNS0_17MappingCollectionILi3ELi3EEERKNS0_12FECollectionILi3ELi3EEERKNS0_11QCollectionILi2EEENS_11UpdateFlagsE = comdat any

$_ZN6dealii2hp15FESubfaceValuesILi3EEC5ERKNS0_12FECollectionILi3ELi3EEERKNS0_11QCollectionILi2EEENS_11UpdateFlagsE = comdat any

$_ZN6dealii2hp15FESubfaceValuesILi3EE6reinitERKNS_12TriaIteratorINS_15DoFCellAccessorINS0_10DoFHandlerILi3ELi3EEEEEEEjjjjj = comdat any

$_ZN6dealii2hp15FESubfaceValuesILi3EE6reinitERKNS_12TriaIteratorINS_15DoFCellAccessorINS_10DoFHandlerILi3ELi3EEEEEEEjjjjj = comdat any

$_ZN6dealii2hp15FESubfaceValuesILi3EE6reinitERKNS_12TriaIteratorINS_17MGDoFCellAccessorILi3ELi3EEEEEjjjjj = comdat any

$_ZN6dealii2hp15FESubfaceValuesILi3EE6reinitERKNS_12TriaIteratorINS_12CellAccessorILi3ELi3EEEEEjjjjj = comdat any

$_ZN6dealii9TableBaseILi3EN5boost10shared_ptrINS_8FEValuesILi3ELi3EEEEEED2Ev = comdat any

$_ZN6dealii9TableBaseILi3EN5boost10shared_ptrINS_8FEValuesILi3ELi3EEEEEED0Ev = comdat any

$_ZNSt6vectorIN5boost10shared_ptrIKN6dealii10QuadratureILi3EEEEESaIS6_EED2Ev = comdat any

$_ZN6dealii2hp11QCollectionILi3EED0Ev = comdat any

$_ZSt8_DestroyIPN5boost10shared_ptrIKN6dealii10QuadratureILi3EEEEES6_EvT_S8_RSaIT0_E = comdat any

$_ZNSt12_Vector_baseIN5boost10shared_ptrIKN6dealii10QuadratureILi3EEEEESaIS6_EE19_M_get_Tp_allocatorEv = comdat any

$_ZNSt12_Vector_baseIN5boost10shared_ptrIKN6dealii10QuadratureILi3EEEEESaIS6_EED2Ev = comdat any

$__clang_call_terminate = comdat any

$_ZSt8_DestroyIPN5boost10shared_ptrIKN6dealii10QuadratureILi3EEEEEEvT_S8_ = comdat any

$_ZNSt12_Destroy_auxILb0EE9__destroyIPN5boost10shared_ptrIKN6dealii10QuadratureILi3EEEEEEEvT_SA_ = comdat any

$_ZSt8_DestroyIN5boost10shared_ptrIKN6dealii10QuadratureILi3EEEEEEvPT_ = comdat any

$_ZSt11__addressofIN5boost10shared_ptrIKN6dealii10QuadratureILi3EEEEEEPT_RS7_ = comdat any

$_ZN5boost10shared_ptrIKN6dealii10QuadratureILi3EEEED2Ev = comdat any

$_ZN5boost6detail12shared_countD2Ev = comdat any

$_ZN5boost6detail15sp_counted_base7releaseEv = comdat any

$_ZN5boost6detail15sp_counted_base12weak_releaseEv = comdat any

$_ZNSt12_Vector_baseIN5boost10shared_ptrIKN6dealii10QuadratureILi3EEEEESaIS6_EE13_M_deallocateEPS6_m = comdat any

$_ZNSt12_Vector_baseIN5boost10shared_ptrIKN6dealii10QuadratureILi3EEEEESaIS6_EE12_Vector_implD2Ev = comdat any

$_ZNSt16allocator_traitsISaIN5boost10shared_ptrIKN6dealii10QuadratureILi3EEEEEEE10deallocateERS7_PS6_m = comdat any

$_ZN9__gnu_cxx13new_allocatorIN5boost10shared_ptrIKN6dealii10QuadratureILi3EEEEEE10deallocateEPS7_m = comdat any

$_ZN9__gnu_cxx13new_allocatorIN5boost10shared_ptrIKN6dealii10QuadratureILi3EEEEEED2Ev = comdat any

$_ZN6dealii9TableBaseILi3EN5boost10shared_ptrINS_12FEFaceValuesILi3ELi3EEEEEED2Ev = comdat any

$_ZN6dealii9TableBaseILi3EN5boost10shared_ptrINS_12FEFaceValuesILi3ELi3EEEEEED0Ev = comdat any

$_ZNSt6vectorIN5boost10shared_ptrIKN6dealii10QuadratureILi2EEEEESaIS6_EED2Ev = comdat any

$_ZN6dealii2hp11QCollectionILi2EED0Ev = comdat any

$_ZSt8_DestroyIPN5boost10shared_ptrIKN6dealii10QuadratureILi2EEEEES6_EvT_S8_RSaIT0_E = comdat any

$_ZNSt12_Vector_baseIN5boost10shared_ptrIKN6dealii10QuadratureILi2EEEEESaIS6_EE19_M_get_Tp_allocatorEv = comdat any

$_ZNSt12_Vector_baseIN5boost10shared_ptrIKN6dealii10QuadratureILi2EEEEESaIS6_EED2Ev = comdat any

$_ZSt8_DestroyIPN5boost10shared_ptrIKN6dealii10QuadratureILi2EEEEEEvT_S8_ = comdat any

$_ZNSt12_Destroy_auxILb0EE9__destroyIPN5boost10shared_ptrIKN6dealii10QuadratureILi2EEEEEEEvT_SA_ = comdat any

$_ZSt8_DestroyIN5boost10shared_ptrIKN6dealii10QuadratureILi2EEEEEEvPT_ = comdat any

$_ZSt11__addressofIN5boost10shared_ptrIKN6dealii10QuadratureILi2EEEEEEPT_RS7_ = comdat any

$_ZN5boost10shared_ptrIKN6dealii10QuadratureILi2EEEED2Ev = comdat any

$_ZNSt12_Vector_baseIN5boost10shared_ptrIKN6dealii10QuadratureILi2EEEEESaIS6_EE13_M_deallocateEPS6_m = comdat any

$_ZNSt12_Vector_baseIN5boost10shared_ptrIKN6dealii10QuadratureILi2EEEEESaIS6_EE12_Vector_implD2Ev = comdat any

$_ZNSt16allocator_traitsISaIN5boost10shared_ptrIKN6dealii10QuadratureILi2EEEEEEE10deallocateERS7_PS6_m = comdat any

$_ZN9__gnu_cxx13new_allocatorIN5boost10shared_ptrIKN6dealii10QuadratureILi2EEEEEE10deallocateEPS7_m = comdat any

$_ZN9__gnu_cxx13new_allocatorIN5boost10shared_ptrIKN6dealii10QuadratureILi2EEEEEED2Ev = comdat any

$_ZN6dealii9TableBaseILi3EN5boost10shared_ptrINS_15FESubfaceValuesILi3ELi3EEEEEED2Ev = comdat any

$_ZN6dealii9TableBaseILi3EN5boost10shared_ptrINS_15FESubfaceValuesILi3ELi3EEEEEED0Ev = comdat any

$_ZNK6dealii11Subscriptor9subscribeEPKc = comdat any

$_ZNSt6vectorIN5boost10shared_ptrIKN6dealii10QuadratureILi3EEEEESaIS6_EEC2ERKS8_ = comdat any

$_ZNKSt6vectorIN5boost10shared_ptrIKN6dealii10QuadratureILi3EEEEESaIS6_EE4sizeEv = comdat any

$_ZN9__gnu_cxx14__alloc_traitsISaIN5boost10shared_ptrIKN6dealii10QuadratureILi3EEEEEES7_E17_S_select_on_copyERKS8_ = comdat any

$_ZNKSt12_Vector_baseIN5boost10shared_ptrIKN6dealii10QuadratureILi3EEEEESaIS6_EE19_M_get_Tp_allocatorEv = comdat any

$_ZNSt12_Vector_baseIN5boost10shared_ptrIKN6dealii10QuadratureILi3EEEEESaIS6_EEC2EmRKS7_ = comdat any

$_ZNSaIN5boost10shared_ptrIKN6dealii10QuadratureILi3EEEEEED2Ev = comdat any

$_ZSt22__uninitialized_copy_aIN9__gnu_cxx17__normal_iteratorIPKN5boost10shared_ptrIKN6dealii10QuadratureILi3EEEEESt6vectorIS8_SaIS8_EEEEPS8_S8_ET0_T_SH_SG_RSaIT1_E = comdat any

$_ZNKSt6vectorIN5boost10shared_ptrIKN6dealii10QuadratureILi3EEEEESaIS6_EE5beginEv = comdat any

$_ZNKSt6vectorIN5boost10shared_ptrIKN6dealii10QuadratureILi3EEEEESaIS6_EE3endEv = comdat any

$_ZNSt16allocator_traitsISaIN5boost10shared_ptrIKN6dealii10QuadratureILi3EEEEEEE37select_on_container_copy_constructionERKS7_ = comdat any

$_ZNSaIN5boost10shared_ptrIKN6dealii10QuadratureILi3EEEEEEC2ERKS6_ = comdat any

$_ZN9__gnu_cxx13new_allocatorIN5boost10shared_ptrIKN6dealii10QuadratureILi3EEEEEEC2ERKS8_ = comdat any

$_ZNSt12_Vector_baseIN5boost10shared_ptrIKN6dealii10QuadratureILi3EEEEESaIS6_EE12_Vector_implC2ERKS7_ = comdat any

$_ZNSt12_Vector_baseIN5boost10shared_ptrIKN6dealii10QuadratureILi3EEEEESaIS6_EE17_M_create_storageEm = comdat any

$_ZNSt12_Vector_baseIN5boost10shared_ptrIKN6dealii10QuadratureILi3EEEEESaIS6_EE17_Vector_impl_dataC2Ev = comdat any

$_ZNSt12_Vector_baseIN5boost10shared_ptrIKN6dealii10QuadratureILi3EEEEESaIS6_EE11_M_allocateEm = comdat any

$_ZNSt16allocator_traitsISaIN5boost10shared_ptrIKN6dealii10QuadratureILi3EEEEEEE8allocateERS7_m = comdat any

$_ZN9__gnu_cxx13new_allocatorIN5boost10shared_ptrIKN6dealii10QuadratureILi3EEEEEE8allocateEmPKv = comdat any

$_ZNK9__gnu_cxx13new_allocatorIN5boost10shared_ptrIKN6dealii10QuadratureILi3EEEEEE11_M_max_sizeEv = comdat any

$_ZSt18uninitialized_copyIN9__gnu_cxx17__normal_iteratorIPKN5boost10shared_ptrIKN6dealii10QuadratureILi3EEEEESt6vectorIS8_SaIS8_EEEEPS8_ET0_T_SH_SG_ = comdat any

$_ZNSt20__uninitialized_copyILb0EE13__uninit_copyIN9__gnu_cxx17__normal_iteratorIPKN5boost10shared_ptrIKN6dealii10QuadratureILi3EEEEESt6vectorISA_SaISA_EEEEPSA_EET0_T_SJ_SI_ = comdat any

$_ZN9__gnu_cxxneIPKN5boost10shared_ptrIKN6dealii10QuadratureILi3EEEEESt6vectorIS7_SaIS7_EEEEbRKNS_17__normal_iteratorIT_T0_EESI_ = comdat any

$_ZSt10_ConstructIN5boost10shared_ptrIKN6dealii10QuadratureILi3EEEEEJRKS6_EEvPT_DpOT0_ = comdat any

$_ZNK9__gnu_cxx17__normal_iteratorIPKN5boost10shared_ptrIKN6dealii10QuadratureILi3EEEEESt6vectorIS7_SaIS7_EEEdeEv = comdat any

$_ZN9__gnu_cxx17__normal_iteratorIPKN5boost10shared_ptrIKN6dealii10QuadratureILi3EEEEESt6vectorIS7_SaIS7_EEEppEv = comdat any

$_ZNK9__gnu_cxx17__normal_iteratorIPKN5boost10shared_ptrIKN6dealii10QuadratureILi3EEEEESt6vectorIS7_SaIS7_EEE4baseEv = comdat any

$_ZSt7forwardIRKN5boost10shared_ptrIKN6dealii10QuadratureILi3EEEEEEOT_RNSt16remove_referenceIS9_E4typeE = comdat any

$_ZN5boost10shared_ptrIKN6dealii10QuadratureILi3EEEEC2ERKS5_ = comdat any

$_ZN5boost6detail12shared_countC2ERKS1_ = comdat any

$_ZN5boost6detail15sp_counted_base12add_ref_copyEv = comdat any

$_ZN9__gnu_cxx17__normal_iteratorIPKN5boost10shared_ptrIKN6dealii10QuadratureILi3EEEEESt6vectorIS7_SaIS7_EEEC2ERKS9_ = comdat any

$_ZNKSt6vectorIN5boost10shared_ptrIKN6dealii13FiniteElementILi3ELi3EEEEESaIS6_EE4sizeEv = comdat any

$_ZNKSt6vectorIN5boost10shared_ptrIKN6dealii7MappingILi3ELi3EEEEESaIS6_EE4sizeEv = comdat any

$_ZN6dealii9TableBaseILi3EN5boost10shared_ptrINS_8FEValuesILi3ELi3EEEEEEC2ERKNS_12TableIndicesILi3EEE = comdat any

$_ZN6dealii5TableILi3EN5boost10shared_ptrINS_8FEValuesILi3ELi3EEEEEED0Ev = comdat any

$_ZN6dealii12TableIndicesILi3EEC2Ev = comdat any

$_ZN6dealii9TableBaseILi3EN5boost10shared_ptrINS_8FEValuesILi3ELi3EEEEEE6reinitERKNS_12TableIndicesILi3EEE = comdat any

$_ZNK6dealii9TableBaseILi3EN5boost10shared_ptrINS_8FEValuesILi3ELi3EEEEEE10n_elementsEv = comdat any

$_ZN5boost10shared_ptrIN6dealii8FEValuesILi3ELi3EEEEC2Ev = comdat any

$_ZN6dealii9TableBaseILi3EN5boost10shared_ptrINS_8FEValuesILi3ELi3EEEEEE12reset_valuesEv = comdat any

$_ZNK6dealii16TableIndicesBaseILi3EEixEj = comdat any

$_ZN5boost6detail12shared_countC2Ev = comdat any

$_ZSt6fill_nIPN5boost10shared_ptrIN6dealii8FEValuesILi3ELi3EEEEEjS5_ET_S7_T0_RKT1_ = comdat any

$_ZSt10__fill_n_aIPN5boost10shared_ptrIN6dealii8FEValuesILi3ELi3EEEEEjS5_ET_S7_T0_RKT1_St26random_access_iterator_tag = comdat any

$_ZSt17__size_to_integerj = comdat any

$_ZSt19__iterator_categoryIPN5boost10shared_ptrIN6dealii8FEValuesILi3ELi3EEEEEENSt15iterator_traitsIT_E17iterator_categoryERKS8_ = comdat any

$_ZSt8__fill_aIPN5boost10shared_ptrIN6dealii8FEValuesILi3ELi3EEEEES5_EvT_S7_RKT0_ = comdat any

$_ZSt9__fill_a1IPN5boost10shared_ptrIN6dealii8FEValuesILi3ELi3EEEEES5_EN9__gnu_cxx11__enable_ifIXntsr11__is_scalarIT0_EE7__valueEvE6__typeET_SC_RKS9_ = comdat any

$_ZNK6dealii11Subscriptor11unsubscribeEPKc = comdat any

$_ZNK6dealii9TableBaseILi3EN5boost10shared_ptrINS_8FEValuesILi3ELi3EEEEEEclERKNS_12TableIndicesILi3EEE = comdat any

$_ZNK6dealii9TableBaseILi3EN5boost10shared_ptrINS_8FEValuesILi3ELi3EEEEEE2elERKNS_12TableIndicesILi3EEE = comdat any

$_ZNK6dealii9TableBaseILi3EN5boost10shared_ptrINS_8FEValuesILi3ELi3EEEEEE8positionERKNS_12TableIndicesILi3EEE = comdat any

$_ZN6dealii9TableBaseILi3EN5boost10shared_ptrINS_8FEValuesILi3ELi3EEEEEEclERKNS_12TableIndicesILi3EEE = comdat any

$_ZN6dealii9TableBaseILi3EN5boost10shared_ptrINS_8FEValuesILi3ELi3EEEEEE2elERKNS_12TableIndicesILi3EEE = comdat any

$_ZNKSt6vectorIN5boost10shared_ptrIKN6dealii7MappingILi3ELi3EEEEESaIS6_EEixEm = comdat any

$_ZNK5boost10shared_ptrIKN6dealii7MappingILi3ELi3EEEEdeEv = comdat any

$_ZNKSt6vectorIN5boost10shared_ptrIKN6dealii13FiniteElementILi3ELi3EEEEESaIS6_EEixEm = comdat any

$_ZNK5boost10shared_ptrIKN6dealii13FiniteElementILi3ELi3EEEEdeEv = comdat any

$_ZNKSt6vectorIN5boost10shared_ptrIKN6dealii10QuadratureILi3EEEEESaIS6_EEixEm = comdat any

$_ZNK5boost10shared_ptrIKN6dealii10QuadratureILi3EEEEdeEv = comdat any

$_ZN5boost6detail12shared_countC2IN6dealii8FEValuesILi3ELi3EEEEEPT_ = comdat any

$_ZN5boost6detail26sp_enable_shared_from_thisERKNS0_12shared_countEz = comdat any

$_ZN5boost6detail17sp_counted_impl_pIN6dealii8FEValuesILi3ELi3EEEEC2EPS4_ = comdat any

$_ZN5boost14checked_deleteIN6dealii8FEValuesILi3ELi3EEEEEvPT_ = comdat any

$_ZN5boost6detail15sp_counted_baseC2Ev = comdat any

$_ZN5boost6detail17sp_counted_impl_pIN6dealii8FEValuesILi3ELi3EEEED2Ev = comdat any

$_ZN5boost6detail17sp_counted_impl_pIN6dealii8FEValuesILi3ELi3EEEED0Ev = comdat any

$_ZN5boost6detail17sp_counted_impl_pIN6dealii8FEValuesILi3ELi3EEEE7disposeEv = comdat any

$_ZN5boost6detail15sp_counted_base7destroyEv = comdat any

$_ZN5boost6detail17sp_counted_impl_pIN6dealii8FEValuesILi3ELi3EEEE11get_deleterERKSt9type_info = comdat any

$_ZN5boost6detail15sp_counted_baseD2Ev = comdat any

$_ZN5boost6detail15sp_counted_baseD0Ev = comdat any

$_ZN5boost6detail12shared_countaSERKS1_ = comdat any

$_ZNSt6vectorIN5boost10shared_ptrIKN6dealii10QuadratureILi2EEEEESaIS6_EEC2ERKS8_ = comdat any

$_ZNKSt6vectorIN5boost10shared_ptrIKN6dealii10QuadratureILi2EEEEESaIS6_EE4sizeEv = comdat any

$_ZN9__gnu_cxx14__alloc_traitsISaIN5boost10shared_ptrIKN6dealii10QuadratureILi2EEEEEES7_E17_S_select_on_copyERKS8_ = comdat any

$_ZNKSt12_Vector_baseIN5boost10shared_ptrIKN6dealii10QuadratureILi2EEEEESaIS6_EE19_M_get_Tp_allocatorEv = comdat any

$_ZNSt12_Vector_baseIN5boost10shared_ptrIKN6dealii10QuadratureILi2EEEEESaIS6_EEC2EmRKS7_ = comdat any

$_ZNSaIN5boost10shared_ptrIKN6dealii10QuadratureILi2EEEEEED2Ev = comdat any

$_ZSt22__uninitialized_copy_aIN9__gnu_cxx17__normal_iteratorIPKN5boost10shared_ptrIKN6dealii10QuadratureILi2EEEEESt6vectorIS8_SaIS8_EEEEPS8_S8_ET0_T_SH_SG_RSaIT1_E = comdat any

$_ZNKSt6vectorIN5boost10shared_ptrIKN6dealii10QuadratureILi2EEEEESaIS6_EE5beginEv = comdat any

$_ZNKSt6vectorIN5boost10shared_ptrIKN6dealii10QuadratureILi2EEEEESaIS6_EE3endEv = comdat any

$_ZNSt16allocator_traitsISaIN5boost10shared_ptrIKN6dealii10QuadratureILi2EEEEEEE37select_on_container_copy_constructionERKS7_ = comdat any

$_ZNSaIN5boost10shared_ptrIKN6dealii10QuadratureILi2EEEEEEC2ERKS6_ = comdat any

$_ZN9__gnu_cxx13new_allocatorIN5boost10shared_ptrIKN6dealii10QuadratureILi2EEEEEEC2ERKS8_ = comdat any

$_ZNSt12_Vector_baseIN5boost10shared_ptrIKN6dealii10QuadratureILi2EEEEESaIS6_EE12_Vector_implC2ERKS7_ = comdat any

$_ZNSt12_Vector_baseIN5boost10shared_ptrIKN6dealii10QuadratureILi2EEEEESaIS6_EE17_M_create_storageEm = comdat any

$_ZNSt12_Vector_baseIN5boost10shared_ptrIKN6dealii10QuadratureILi2EEEEESaIS6_EE17_Vector_impl_dataC2Ev = comdat any

$_ZNSt12_Vector_baseIN5boost10shared_ptrIKN6dealii10QuadratureILi2EEEEESaIS6_EE11_M_allocateEm = comdat any

$_ZNSt16allocator_traitsISaIN5boost10shared_ptrIKN6dealii10QuadratureILi2EEEEEEE8allocateERS7_m = comdat any

$_ZN9__gnu_cxx13new_allocatorIN5boost10shared_ptrIKN6dealii10QuadratureILi2EEEEEE8allocateEmPKv = comdat any

$_ZNK9__gnu_cxx13new_allocatorIN5boost10shared_ptrIKN6dealii10QuadratureILi2EEEEEE11_M_max_sizeEv = comdat any

$_ZSt18uninitialized_copyIN9__gnu_cxx17__normal_iteratorIPKN5boost10shared_ptrIKN6dealii10QuadratureILi2EEEEESt6vectorIS8_SaIS8_EEEEPS8_ET0_T_SH_SG_ = comdat any

$_ZNSt20__uninitialized_copyILb0EE13__uninit_copyIN9__gnu_cxx17__normal_iteratorIPKN5boost10shared_ptrIKN6dealii10QuadratureILi2EEEEESt6vectorISA_SaISA_EEEEPSA_EET0_T_SJ_SI_ = comdat any

$_ZN9__gnu_cxxneIPKN5boost10shared_ptrIKN6dealii10QuadratureILi2EEEEESt6vectorIS7_SaIS7_EEEEbRKNS_17__normal_iteratorIT_T0_EESI_ = comdat any

$_ZSt10_ConstructIN5boost10shared_ptrIKN6dealii10QuadratureILi2EEEEEJRKS6_EEvPT_DpOT0_ = comdat any

$_ZNK9__gnu_cxx17__normal_iteratorIPKN5boost10shared_ptrIKN6dealii10QuadratureILi2EEEEESt6vectorIS7_SaIS7_EEEdeEv = comdat any

$_ZN9__gnu_cxx17__normal_iteratorIPKN5boost10shared_ptrIKN6dealii10QuadratureILi2EEEEESt6vectorIS7_SaIS7_EEEppEv = comdat any

$_ZNK9__gnu_cxx17__normal_iteratorIPKN5boost10shared_ptrIKN6dealii10QuadratureILi2EEEEESt6vectorIS7_SaIS7_EEE4baseEv = comdat any

$_ZSt7forwardIRKN5boost10shared_ptrIKN6dealii10QuadratureILi2EEEEEEOT_RNSt16remove_referenceIS9_E4typeE = comdat any

$_ZN5boost10shared_ptrIKN6dealii10QuadratureILi2EEEEC2ERKS5_ = comdat any

$_ZN9__gnu_cxx17__normal_iteratorIPKN5boost10shared_ptrIKN6dealii10QuadratureILi2EEEEESt6vectorIS7_SaIS7_EEEC2ERKS9_ = comdat any

$_ZN6dealii9TableBaseILi3EN5boost10shared_ptrINS_12FEFaceValuesILi3ELi3EEEEEEC2ERKNS_12TableIndicesILi3EEE = comdat any

$_ZN6dealii5TableILi3EN5boost10shared_ptrINS_12FEFaceValuesILi3ELi3EEEEEED0Ev = comdat any

$_ZN6dealii9TableBaseILi3EN5boost10shared_ptrINS_12FEFaceValuesILi3ELi3EEEEEE6reinitERKNS_12TableIndicesILi3EEE = comdat any

$_ZNK6dealii9TableBaseILi3EN5boost10shared_ptrINS_12FEFaceValuesILi3ELi3EEEEEE10n_elementsEv = comdat any

$_ZN5boost10shared_ptrIN6dealii12FEFaceValuesILi3ELi3EEEEC2Ev = comdat any

$_ZN6dealii9TableBaseILi3EN5boost10shared_ptrINS_12FEFaceValuesILi3ELi3EEEEEE12reset_valuesEv = comdat any

$_ZSt6fill_nIPN5boost10shared_ptrIN6dealii12FEFaceValuesILi3ELi3EEEEEjS5_ET_S7_T0_RKT1_ = comdat any

$_ZSt10__fill_n_aIPN5boost10shared_ptrIN6dealii12FEFaceValuesILi3ELi3EEEEEjS5_ET_S7_T0_RKT1_St26random_access_iterator_tag = comdat any

$_ZSt19__iterator_categoryIPN5boost10shared_ptrIN6dealii12FEFaceValuesILi3ELi3EEEEEENSt15iterator_traitsIT_E17iterator_categoryERKS8_ = comdat any

$_ZSt8__fill_aIPN5boost10shared_ptrIN6dealii12FEFaceValuesILi3ELi3EEEEES5_EvT_S7_RKT0_ = comdat any

$_ZSt9__fill_a1IPN5boost10shared_ptrIN6dealii12FEFaceValuesILi3ELi3EEEEES5_EN9__gnu_cxx11__enable_ifIXntsr11__is_scalarIT0_EE7__valueEvE6__typeET_SC_RKS9_ = comdat any

$_ZNK6dealii9TableBaseILi3EN5boost10shared_ptrINS_12FEFaceValuesILi3ELi3EEEEEEclERKNS_12TableIndicesILi3EEE = comdat any

$_ZNK6dealii9TableBaseILi3EN5boost10shared_ptrINS_12FEFaceValuesILi3ELi3EEEEEE2elERKNS_12TableIndicesILi3EEE = comdat any

$_ZNK6dealii9TableBaseILi3EN5boost10shared_ptrINS_12FEFaceValuesILi3ELi3EEEEEE8positionERKNS_12TableIndicesILi3EEE = comdat any

$_ZN6dealii9TableBaseILi3EN5boost10shared_ptrINS_12FEFaceValuesILi3ELi3EEEEEEclERKNS_12TableIndicesILi3EEE = comdat any

$_ZN6dealii9TableBaseILi3EN5boost10shared_ptrINS_12FEFaceValuesILi3ELi3EEEEEE2elERKNS_12TableIndicesILi3EEE = comdat any

$_ZNKSt6vectorIN5boost10shared_ptrIKN6dealii10QuadratureILi2EEEEESaIS6_EEixEm = comdat any

$_ZNK5boost10shared_ptrIKN6dealii10QuadratureILi2EEEEdeEv = comdat any

$_ZN5boost6detail12shared_countC2IN6dealii12FEFaceValuesILi3ELi3EEEEEPT_ = comdat any

$_ZN5boost6detail17sp_counted_impl_pIN6dealii12FEFaceValuesILi3ELi3EEEEC2EPS4_ = comdat any

$_ZN5boost14checked_deleteIN6dealii12FEFaceValuesILi3ELi3EEEEEvPT_ = comdat any

$_ZN5boost6detail17sp_counted_impl_pIN6dealii12FEFaceValuesILi3ELi3EEEED2Ev = comdat any

$_ZN5boost6detail17sp_counted_impl_pIN6dealii12FEFaceValuesILi3ELi3EEEED0Ev = comdat any

$_ZN5boost6detail17sp_counted_impl_pIN6dealii12FEFaceValuesILi3ELi3EEEE7disposeEv = comdat any

$_ZN5boost6detail17sp_counted_impl_pIN6dealii12FEFaceValuesILi3ELi3EEEE11get_deleterERKSt9type_info = comdat any

$_ZN6dealii9TableBaseILi3EN5boost10shared_ptrINS_15FESubfaceValuesILi3ELi3EEEEEEC2ERKNS_12TableIndicesILi3EEE = comdat any

$_ZN6dealii5TableILi3EN5boost10shared_ptrINS_15FESubfaceValuesILi3ELi3EEEEEED0Ev = comdat any

$_ZN6dealii9TableBaseILi3EN5boost10shared_ptrINS_15FESubfaceValuesILi3ELi3EEEEEE6reinitERKNS_12TableIndicesILi3EEE = comdat any

$_ZNK6dealii9TableBaseILi3EN5boost10shared_ptrINS_15FESubfaceValuesILi3ELi3EEEEEE10n_elementsEv = comdat any

$_ZN5boost10shared_ptrIN6dealii15FESubfaceValuesILi3ELi3EEEEC2Ev = comdat any

$_ZN6dealii9TableBaseILi3EN5boost10shared_ptrINS_15FESubfaceValuesILi3ELi3EEEEEE12reset_valuesEv = comdat any

$_ZSt6fill_nIPN5boost10shared_ptrIN6dealii15FESubfaceValuesILi3ELi3EEEEEjS5_ET_S7_T0_RKT1_ = comdat any

$_ZSt10__fill_n_aIPN5boost10shared_ptrIN6dealii15FESubfaceValuesILi3ELi3EEEEEjS5_ET_S7_T0_RKT1_St26random_access_iterator_tag = comdat any

$_ZSt19__iterator_categoryIPN5boost10shared_ptrIN6dealii15FESubfaceValuesILi3ELi3EEEEEENSt15iterator_traitsIT_E17iterator_categoryERKS8_ = comdat any

$_ZSt8__fill_aIPN5boost10shared_ptrIN6dealii15FESubfaceValuesILi3ELi3EEEEES5_EvT_S7_RKT0_ = comdat any

$_ZSt9__fill_a1IPN5boost10shared_ptrIN6dealii15FESubfaceValuesILi3ELi3EEEEES5_EN9__gnu_cxx11__enable_ifIXntsr11__is_scalarIT0_EE7__valueEvE6__typeET_SC_RKS9_ = comdat any

$_ZNK6dealii9TableBaseILi3EN5boost10shared_ptrINS_15FESubfaceValuesILi3ELi3EEEEEEclERKNS_12TableIndicesILi3EEE = comdat any

$_ZNK6dealii9TableBaseILi3EN5boost10shared_ptrINS_15FESubfaceValuesILi3ELi3EEEEEE2elERKNS_12TableIndicesILi3EEE = comdat any

$_ZNK6dealii9TableBaseILi3EN5boost10shared_ptrINS_15FESubfaceValuesILi3ELi3EEEEEE8positionERKNS_12TableIndicesILi3EEE = comdat any

$_ZN6dealii9TableBaseILi3EN5boost10shared_ptrINS_15FESubfaceValuesILi3ELi3EEEEEEclERKNS_12TableIndicesILi3EEE = comdat any

$_ZN6dealii9TableBaseILi3EN5boost10shared_ptrINS_15FESubfaceValuesILi3ELi3EEEEEE2elERKNS_12TableIndicesILi3EEE = comdat any

$_ZN5boost6detail12shared_countC2IN6dealii15FESubfaceValuesILi3ELi3EEEEEPT_ = comdat any

$_ZN5boost6detail17sp_counted_impl_pIN6dealii15FESubfaceValuesILi3ELi3EEEEC2EPS4_ = comdat any

$_ZN5boost14checked_deleteIN6dealii15FESubfaceValuesILi3ELi3EEEEEvPT_ = comdat any

$_ZN5boost6detail17sp_counted_impl_pIN6dealii15FESubfaceValuesILi3ELi3EEEED2Ev = comdat any

$_ZN5boost6detail17sp_counted_impl_pIN6dealii15FESubfaceValuesILi3ELi3EEEED0Ev = comdat any

$_ZN5boost6detail17sp_counted_impl_pIN6dealii15FESubfaceValuesILi3ELi3EEEE7disposeEv = comdat any

$_ZN5boost6detail17sp_counted_impl_pIN6dealii15FESubfaceValuesILi3ELi3EEEE11get_deleterERKSt9type_info = comdat any

$_ZNK6dealii15TriaRawIteratorINS_15DoFCellAccessorINS_2hp10DoFHandlerILi3ELi3EEEEEEdeEv = comdat any

$_ZN6dealii8internal15DoFCellAccessor14Implementation15active_fe_indexILi3ELi3EEEjRKNS_15DoFCellAccessorINS_2hp10DoFHandlerIXT_EXT0_EEEEE = comdat any

$_ZNSt6vectorIPN6dealii8internal2hp8DoFLevelILi3EEESaIS5_EEixEm = comdat any

$_ZNK6dealii16TriaAccessorBaseILi3ELi3ELi3EE5levelEv = comdat any

$_ZNSt6vectorIjSaIjEEixEm = comdat any

$_ZTVN6dealii9TableBaseILi3EN5boost10shared_ptrINS_8FEValuesILi3ELi3EEEEEEE = comdat any

$_ZTSN6dealii9TableBaseILi3EN5boost10shared_ptrINS_8FEValuesILi3ELi3EEEEEEE = comdat any

$_ZTIN6dealii9TableBaseILi3EN5boost10shared_ptrINS_8FEValuesILi3ELi3EEEEEEE = comdat any

$_ZTVN6dealii2hp11QCollectionILi3EEE = comdat any

$_ZTSN6dealii2hp11QCollectionILi3EEE = comdat any

$_ZTIN6dealii2hp11QCollectionILi3EEE = comdat any

$_ZTVN6dealii9TableBaseILi3EN5boost10shared_ptrINS_12FEFaceValuesILi3ELi3EEEEEEE = comdat any

$_ZTSN6dealii9TableBaseILi3EN5boost10shared_ptrINS_12FEFaceValuesILi3ELi3EEEEEEE = comdat any

$_ZTIN6dealii9TableBaseILi3EN5boost10shared_ptrINS_12FEFaceValuesILi3ELi3EEEEEEE = comdat any

$_ZTVN6dealii2hp11QCollectionILi2EEE = comdat any

$_ZTSN6dealii2hp11QCollectionILi2EEE = comdat any

$_ZTIN6dealii2hp11QCollectionILi2EEE = comdat any

$_ZTVN6dealii9TableBaseILi3EN5boost10shared_ptrINS_15FESubfaceValuesILi3ELi3EEEEEEE = comdat any

$_ZTSN6dealii9TableBaseILi3EN5boost10shared_ptrINS_15FESubfaceValuesILi3ELi3EEEEEEE = comdat any

$_ZTIN6dealii9TableBaseILi3EN5boost10shared_ptrINS_15FESubfaceValuesILi3ELi3EEEEEEE = comdat any

$_ZTVN6dealii5TableILi3EN5boost10shared_ptrINS_8FEValuesILi3ELi3EEEEEEE = comdat any

$_ZTSN6dealii5TableILi3EN5boost10shared_ptrINS_8FEValuesILi3ELi3EEEEEEE = comdat any

$_ZTIN6dealii5TableILi3EN5boost10shared_ptrINS_8FEValuesILi3ELi3EEEEEEE = comdat any

$_ZTVN5boost6detail17sp_counted_impl_pIN6dealii8FEValuesILi3ELi3EEEEE = comdat any

$_ZTSN5boost6detail17sp_counted_impl_pIN6dealii8FEValuesILi3ELi3EEEEE = comdat any

$_ZTSN5boost6detail15sp_counted_baseE = comdat any

$_ZTIN5boost6detail15sp_counted_baseE = comdat any

$_ZTIN5boost6detail17sp_counted_impl_pIN6dealii8FEValuesILi3ELi3EEEEE = comdat any

$_ZTVN5boost6detail15sp_counted_baseE = comdat any

$_ZTVN6dealii5TableILi3EN5boost10shared_ptrINS_12FEFaceValuesILi3ELi3EEEEEEE = comdat any

$_ZTSN6dealii5TableILi3EN5boost10shared_ptrINS_12FEFaceValuesILi3ELi3EEEEEEE = comdat any

$_ZTIN6dealii5TableILi3EN5boost10shared_ptrINS_12FEFaceValuesILi3ELi3EEEEEEE = comdat any

$_ZTVN5boost6detail17sp_counted_impl_pIN6dealii12FEFaceValuesILi3ELi3EEEEE = comdat any

$_ZTSN5boost6detail17sp_counted_impl_pIN6dealii12FEFaceValuesILi3ELi3EEEEE = comdat any

$_ZTIN5boost6detail17sp_counted_impl_pIN6dealii12FEFaceValuesILi3ELi3EEEEE = comdat any

$_ZTVN6dealii5TableILi3EN5boost10shared_ptrINS_15FESubfaceValuesILi3ELi3EEEEEEE = comdat any

$_ZTSN6dealii5TableILi3EN5boost10shared_ptrINS_15FESubfaceValuesILi3ELi3EEEEEEE = comdat any

$_ZTIN6dealii5TableILi3EN5boost10shared_ptrINS_15FESubfaceValuesILi3ELi3EEEEEEE = comdat any

$_ZTVN5boost6detail17sp_counted_impl_pIN6dealii15FESubfaceValuesILi3ELi3EEEEE = comdat any

$_ZTSN5boost6detail17sp_counted_impl_pIN6dealii15FESubfaceValuesILi3ELi3EEEEE = comdat any

$_ZTIN5boost6detail17sp_counted_impl_pIN6dealii15FESubfaceValuesILi3ELi3EEEEE = comdat any

@_ZN12_GLOBAL__N_12_1E = internal global %"struct.boost::arg" zeroinitializer, align 1, !dbg !0
@_ZN12_GLOBAL__N_12_2E = internal global %"struct.boost::arg.0" zeroinitializer, align 1, !dbg !15
@_ZN12_GLOBAL__N_12_3E = internal global %"struct.boost::arg.2" zeroinitializer, align 1, !dbg !25
@_ZN12_GLOBAL__N_12_4E = internal global %"struct.boost::arg.4" zeroinitializer, align 1, !dbg !35
@_ZN12_GLOBAL__N_12_5E = internal global %"struct.boost::arg.6" zeroinitializer, align 1, !dbg !45
@_ZN12_GLOBAL__N_12_6E = internal global %"struct.boost::arg.8" zeroinitializer, align 1, !dbg !55
@_ZN12_GLOBAL__N_12_7E = internal global %"struct.boost::arg.10" zeroinitializer, align 1, !dbg !65
@_ZN12_GLOBAL__N_12_8E = internal global %"struct.boost::arg.12" zeroinitializer, align 1, !dbg !75
@_ZN12_GLOBAL__N_12_9E = internal global %"struct.boost::arg.14" zeroinitializer, align 1, !dbg !85
@_ZStL8__ioinit = internal global %"class.std::ios_base::Init" zeroinitializer, align 1, !dbg !95
@__dso_handle = external hidden global i8
@_ZN6dealii2hp15StaticMappingQ1ILi3ELi3EE18mapping_collectionE = external dso_local global %"class.dealii::hp::MappingCollection", align 8
@_ZTVN6dealii9TableBaseILi3EN5boost10shared_ptrINS_8FEValuesILi3ELi3EEEEEEE = linkonce_odr dso_local unnamed_addr constant { [4 x i8*] } { [4 x i8*] [i8* null, i8* bitcast ({ i8*, i8*, i8* }* @_ZTIN6dealii9TableBaseILi3EN5boost10shared_ptrINS_8FEValuesILi3ELi3EEEEEEE to i8*), i8* bitcast (void (%"class.dealii::TableBase"*)* @_ZN6dealii9TableBaseILi3EN5boost10shared_ptrINS_8FEValuesILi3ELi3EEEEEED2Ev to i8*), i8* bitcast (void (%"class.dealii::TableBase"*)* @_ZN6dealii9TableBaseILi3EN5boost10shared_ptrINS_8FEValuesILi3ELi3EEEEEED0Ev to i8*)] }, comdat, align 8
@_ZTVN10__cxxabiv120__si_class_type_infoE = external dso_local global i8*
@_ZTSN6dealii9TableBaseILi3EN5boost10shared_ptrINS_8FEValuesILi3ELi3EEEEEEE = linkonce_odr dso_local constant [71 x i8] c"N6dealii9TableBaseILi3EN5boost10shared_ptrINS_8FEValuesILi3ELi3EEEEEEE\00", comdat, align 1
@_ZTIN6dealii11SubscriptorE = external dso_local constant i8*
@_ZTIN6dealii9TableBaseILi3EN5boost10shared_ptrINS_8FEValuesILi3ELi3EEEEEEE = linkonce_odr dso_local constant { i8*, i8*, i8* } { i8* bitcast (i8** getelementptr inbounds (i8*, i8** @_ZTVN10__cxxabiv120__si_class_type_infoE, i64 2) to i8*), i8* getelementptr inbounds ([71 x i8], [71 x i8]* @_ZTSN6dealii9TableBaseILi3EN5boost10shared_ptrINS_8FEValuesILi3ELi3EEEEEEE, i32 0, i32 0), i8* bitcast (i8** @_ZTIN6dealii11SubscriptorE to i8*) }, comdat, align 8
@_ZTVN6dealii2hp11QCollectionILi3EEE = linkonce_odr dso_local unnamed_addr constant { [4 x i8*] } { [4 x i8*] [i8* null, i8* bitcast ({ i8*, i8*, i8* }* @_ZTIN6dealii2hp11QCollectionILi3EEE to i8*), i8* bitcast (void (%"class.dealii::hp::QCollection"*)* @_ZN6dealii2hp11QCollectionILi3EED2Ev to i8*), i8* bitcast (void (%"class.dealii::hp::QCollection"*)* @_ZN6dealii2hp11QCollectionILi3EED0Ev to i8*)] }, comdat, align 8
@_ZTSN6dealii2hp11QCollectionILi3EEE = linkonce_odr dso_local constant [32 x i8] c"N6dealii2hp11QCollectionILi3EEE\00", comdat, align 1
@_ZTIN6dealii2hp11QCollectionILi3EEE = linkonce_odr dso_local constant { i8*, i8*, i8* } { i8* bitcast (i8** getelementptr inbounds (i8*, i8** @_ZTVN10__cxxabiv120__si_class_type_infoE, i64 2) to i8*), i8* getelementptr inbounds ([32 x i8], [32 x i8]* @_ZTSN6dealii2hp11QCollectionILi3EEE, i32 0, i32 0), i8* bitcast (i8** @_ZTIN6dealii11SubscriptorE to i8*) }, comdat, align 8
@_ZTVN6dealii9TableBaseILi3EN5boost10shared_ptrINS_12FEFaceValuesILi3ELi3EEEEEEE = linkonce_odr dso_local unnamed_addr constant { [4 x i8*] } { [4 x i8*] [i8* null, i8* bitcast ({ i8*, i8*, i8* }* @_ZTIN6dealii9TableBaseILi3EN5boost10shared_ptrINS_12FEFaceValuesILi3ELi3EEEEEEE to i8*), i8* bitcast (void (%"class.dealii::TableBase.145"*)* @_ZN6dealii9TableBaseILi3EN5boost10shared_ptrINS_12FEFaceValuesILi3ELi3EEEEEED2Ev to i8*), i8* bitcast (void (%"class.dealii::TableBase.145"*)* @_ZN6dealii9TableBaseILi3EN5boost10shared_ptrINS_12FEFaceValuesILi3ELi3EEEEEED0Ev to i8*)] }, comdat, align 8
@_ZTSN6dealii9TableBaseILi3EN5boost10shared_ptrINS_12FEFaceValuesILi3ELi3EEEEEEE = linkonce_odr dso_local constant [76 x i8] c"N6dealii9TableBaseILi3EN5boost10shared_ptrINS_12FEFaceValuesILi3ELi3EEEEEEE\00", comdat, align 1
@_ZTIN6dealii9TableBaseILi3EN5boost10shared_ptrINS_12FEFaceValuesILi3ELi3EEEEEEE = linkonce_odr dso_local constant { i8*, i8*, i8* } { i8* bitcast (i8** getelementptr inbounds (i8*, i8** @_ZTVN10__cxxabiv120__si_class_type_infoE, i64 2) to i8*), i8* getelementptr inbounds ([76 x i8], [76 x i8]* @_ZTSN6dealii9TableBaseILi3EN5boost10shared_ptrINS_12FEFaceValuesILi3ELi3EEEEEEE, i32 0, i32 0), i8* bitcast (i8** @_ZTIN6dealii11SubscriptorE to i8*) }, comdat, align 8
@_ZTVN6dealii2hp11QCollectionILi2EEE = linkonce_odr dso_local unnamed_addr constant { [4 x i8*] } { [4 x i8*] [i8* null, i8* bitcast ({ i8*, i8*, i8* }* @_ZTIN6dealii2hp11QCollectionILi2EEE to i8*), i8* bitcast (void (%"class.dealii::hp::QCollection.137"*)* @_ZN6dealii2hp11QCollectionILi2EED2Ev to i8*), i8* bitcast (void (%"class.dealii::hp::QCollection.137"*)* @_ZN6dealii2hp11QCollectionILi2EED0Ev to i8*)] }, comdat, align 8
@_ZTSN6dealii2hp11QCollectionILi2EEE = linkonce_odr dso_local constant [32 x i8] c"N6dealii2hp11QCollectionILi2EEE\00", comdat, align 1
@_ZTIN6dealii2hp11QCollectionILi2EEE = linkonce_odr dso_local constant { i8*, i8*, i8* } { i8* bitcast (i8** getelementptr inbounds (i8*, i8** @_ZTVN10__cxxabiv120__si_class_type_infoE, i64 2) to i8*), i8* getelementptr inbounds ([32 x i8], [32 x i8]* @_ZTSN6dealii2hp11QCollectionILi2EEE, i32 0, i32 0), i8* bitcast (i8** @_ZTIN6dealii11SubscriptorE to i8*) }, comdat, align 8
@_ZTVN6dealii9TableBaseILi3EN5boost10shared_ptrINS_15FESubfaceValuesILi3ELi3EEEEEEE = linkonce_odr dso_local unnamed_addr constant { [4 x i8*] } { [4 x i8*] [i8* null, i8* bitcast ({ i8*, i8*, i8* }* @_ZTIN6dealii9TableBaseILi3EN5boost10shared_ptrINS_15FESubfaceValuesILi3ELi3EEEEEEE to i8*), i8* bitcast (void (%"class.dealii::TableBase.150"*)* @_ZN6dealii9TableBaseILi3EN5boost10shared_ptrINS_15FESubfaceValuesILi3ELi3EEEEEED2Ev to i8*), i8* bitcast (void (%"class.dealii::TableBase.150"*)* @_ZN6dealii9TableBaseILi3EN5boost10shared_ptrINS_15FESubfaceValuesILi3ELi3EEEEEED0Ev to i8*)] }, comdat, align 8
@_ZTSN6dealii9TableBaseILi3EN5boost10shared_ptrINS_15FESubfaceValuesILi3ELi3EEEEEEE = linkonce_odr dso_local constant [79 x i8] c"N6dealii9TableBaseILi3EN5boost10shared_ptrINS_15FESubfaceValuesILi3ELi3EEEEEEE\00", comdat, align 1
@_ZTIN6dealii9TableBaseILi3EN5boost10shared_ptrINS_15FESubfaceValuesILi3ELi3EEEEEEE = linkonce_odr dso_local constant { i8*, i8*, i8* } { i8* bitcast (i8** getelementptr inbounds (i8*, i8** @_ZTVN10__cxxabiv120__si_class_type_infoE, i64 2) to i8*), i8* getelementptr inbounds ([79 x i8], [79 x i8]* @_ZTSN6dealii9TableBaseILi3EN5boost10shared_ptrINS_15FESubfaceValuesILi3ELi3EEEEEEE, i32 0, i32 0), i8* bitcast (i8** @_ZTIN6dealii11SubscriptorE to i8*) }, comdat, align 8
@_ZTVN6dealii5TableILi3EN5boost10shared_ptrINS_8FEValuesILi3ELi3EEEEEEE = linkonce_odr dso_local unnamed_addr constant { [4 x i8*] } { [4 x i8*] [i8* null, i8* bitcast ({ i8*, i8*, i8* }* @_ZTIN6dealii5TableILi3EN5boost10shared_ptrINS_8FEValuesILi3ELi3EEEEEEE to i8*), i8* bitcast (void (%"class.dealii::Table"*)* @_ZN6dealii5TableILi3EN5boost10shared_ptrINS_8FEValuesILi3ELi3EEEEEED2Ev to i8*), i8* bitcast (void (%"class.dealii::Table"*)* @_ZN6dealii5TableILi3EN5boost10shared_ptrINS_8FEValuesILi3ELi3EEEEEED0Ev to i8*)] }, comdat, align 8
@_ZTSN6dealii5TableILi3EN5boost10shared_ptrINS_8FEValuesILi3ELi3EEEEEEE = linkonce_odr dso_local constant [67 x i8] c"N6dealii5TableILi3EN5boost10shared_ptrINS_8FEValuesILi3ELi3EEEEEEE\00", comdat, align 1
@_ZTIN6dealii5TableILi3EN5boost10shared_ptrINS_8FEValuesILi3ELi3EEEEEEE = linkonce_odr dso_local constant { i8*, i8*, i8* } { i8* bitcast (i8** getelementptr inbounds (i8*, i8** @_ZTVN10__cxxabiv120__si_class_type_infoE, i64 2) to i8*), i8* getelementptr inbounds ([67 x i8], [67 x i8]* @_ZTSN6dealii5TableILi3EN5boost10shared_ptrINS_8FEValuesILi3ELi3EEEEEEE, i32 0, i32 0), i8* bitcast ({ i8*, i8*, i8* }* @_ZTIN6dealii9TableBaseILi3EN5boost10shared_ptrINS_8FEValuesILi3ELi3EEEEEEE to i8*) }, comdat, align 8
@_ZTVN5boost6detail17sp_counted_impl_pIN6dealii8FEValuesILi3ELi3EEEEE = linkonce_odr dso_local unnamed_addr constant { [7 x i8*] } { [7 x i8*] [i8* null, i8* bitcast ({ i8*, i8*, i8* }* @_ZTIN5boost6detail17sp_counted_impl_pIN6dealii8FEValuesILi3ELi3EEEEE to i8*), i8* bitcast (void (%"class.boost::detail::sp_counted_impl_p"*)* @_ZN5boost6detail17sp_counted_impl_pIN6dealii8FEValuesILi3ELi3EEEED2Ev to i8*), i8* bitcast (void (%"class.boost::detail::sp_counted_impl_p"*)* @_ZN5boost6detail17sp_counted_impl_pIN6dealii8FEValuesILi3ELi3EEEED0Ev to i8*), i8* bitcast (void (%"class.boost::detail::sp_counted_impl_p"*)* @_ZN5boost6detail17sp_counted_impl_pIN6dealii8FEValuesILi3ELi3EEEE7disposeEv to i8*), i8* bitcast (void (%"class.boost::detail::sp_counted_base"*)* @_ZN5boost6detail15sp_counted_base7destroyEv to i8*), i8* bitcast (i8* (%"class.boost::detail::sp_counted_impl_p"*, %"class.std::type_info"*)* @_ZN5boost6detail17sp_counted_impl_pIN6dealii8FEValuesILi3ELi3EEEE11get_deleterERKSt9type_info to i8*)] }, comdat, align 8
@_ZTSN5boost6detail17sp_counted_impl_pIN6dealii8FEValuesILi3ELi3EEEEE = linkonce_odr dso_local constant [65 x i8] c"N5boost6detail17sp_counted_impl_pIN6dealii8FEValuesILi3ELi3EEEEE\00", comdat, align 1
@_ZTVN10__cxxabiv117__class_type_infoE = external dso_local global i8*
@_ZTSN5boost6detail15sp_counted_baseE = linkonce_odr dso_local constant [33 x i8] c"N5boost6detail15sp_counted_baseE\00", comdat, align 1
@_ZTIN5boost6detail15sp_counted_baseE = linkonce_odr dso_local constant { i8*, i8* } { i8* bitcast (i8** getelementptr inbounds (i8*, i8** @_ZTVN10__cxxabiv117__class_type_infoE, i64 2) to i8*), i8* getelementptr inbounds ([33 x i8], [33 x i8]* @_ZTSN5boost6detail15sp_counted_baseE, i32 0, i32 0) }, comdat, align 8
@_ZTIN5boost6detail17sp_counted_impl_pIN6dealii8FEValuesILi3ELi3EEEEE = linkonce_odr dso_local constant { i8*, i8*, i8* } { i8* bitcast (i8** getelementptr inbounds (i8*, i8** @_ZTVN10__cxxabiv120__si_class_type_infoE, i64 2) to i8*), i8* getelementptr inbounds ([65 x i8], [65 x i8]* @_ZTSN5boost6detail17sp_counted_impl_pIN6dealii8FEValuesILi3ELi3EEEEE, i32 0, i32 0), i8* bitcast ({ i8*, i8* }* @_ZTIN5boost6detail15sp_counted_baseE to i8*) }, comdat, align 8
@_ZTVN5boost6detail15sp_counted_baseE = linkonce_odr dso_local unnamed_addr constant { [7 x i8*] } { [7 x i8*] [i8* null, i8* bitcast ({ i8*, i8* }* @_ZTIN5boost6detail15sp_counted_baseE to i8*), i8* bitcast (void (%"class.boost::detail::sp_counted_base"*)* @_ZN5boost6detail15sp_counted_baseD2Ev to i8*), i8* bitcast (void (%"class.boost::detail::sp_counted_base"*)* @_ZN5boost6detail15sp_counted_baseD0Ev to i8*), i8* bitcast (void ()* @__cxa_pure_virtual to i8*), i8* bitcast (void (%"class.boost::detail::sp_counted_base"*)* @_ZN5boost6detail15sp_counted_base7destroyEv to i8*), i8* bitcast (void ()* @__cxa_pure_virtual to i8*)] }, comdat, align 8
@_ZTVN6dealii5TableILi3EN5boost10shared_ptrINS_12FEFaceValuesILi3ELi3EEEEEEE = linkonce_odr dso_local unnamed_addr constant { [4 x i8*] } { [4 x i8*] [i8* null, i8* bitcast ({ i8*, i8*, i8* }* @_ZTIN6dealii5TableILi3EN5boost10shared_ptrINS_12FEFaceValuesILi3ELi3EEEEEEE to i8*), i8* bitcast (void (%"class.dealii::Table.144"*)* @_ZN6dealii5TableILi3EN5boost10shared_ptrINS_12FEFaceValuesILi3ELi3EEEEEED2Ev to i8*), i8* bitcast (void (%"class.dealii::Table.144"*)* @_ZN6dealii5TableILi3EN5boost10shared_ptrINS_12FEFaceValuesILi3ELi3EEEEEED0Ev to i8*)] }, comdat, align 8
@_ZTSN6dealii5TableILi3EN5boost10shared_ptrINS_12FEFaceValuesILi3ELi3EEEEEEE = linkonce_odr dso_local constant [72 x i8] c"N6dealii5TableILi3EN5boost10shared_ptrINS_12FEFaceValuesILi3ELi3EEEEEEE\00", comdat, align 1
@_ZTIN6dealii5TableILi3EN5boost10shared_ptrINS_12FEFaceValuesILi3ELi3EEEEEEE = linkonce_odr dso_local constant { i8*, i8*, i8* } { i8* bitcast (i8** getelementptr inbounds (i8*, i8** @_ZTVN10__cxxabiv120__si_class_type_infoE, i64 2) to i8*), i8* getelementptr inbounds ([72 x i8], [72 x i8]* @_ZTSN6dealii5TableILi3EN5boost10shared_ptrINS_12FEFaceValuesILi3ELi3EEEEEEE, i32 0, i32 0), i8* bitcast ({ i8*, i8*, i8* }* @_ZTIN6dealii9TableBaseILi3EN5boost10shared_ptrINS_12FEFaceValuesILi3ELi3EEEEEEE to i8*) }, comdat, align 8
@_ZTVN5boost6detail17sp_counted_impl_pIN6dealii12FEFaceValuesILi3ELi3EEEEE = linkonce_odr dso_local unnamed_addr constant { [7 x i8*] } { [7 x i8*] [i8* null, i8* bitcast ({ i8*, i8*, i8* }* @_ZTIN5boost6detail17sp_counted_impl_pIN6dealii12FEFaceValuesILi3ELi3EEEEE to i8*), i8* bitcast (void (%"class.boost::detail::sp_counted_impl_p.269"*)* @_ZN5boost6detail17sp_counted_impl_pIN6dealii12FEFaceValuesILi3ELi3EEEED2Ev to i8*), i8* bitcast (void (%"class.boost::detail::sp_counted_impl_p.269"*)* @_ZN5boost6detail17sp_counted_impl_pIN6dealii12FEFaceValuesILi3ELi3EEEED0Ev to i8*), i8* bitcast (void (%"class.boost::detail::sp_counted_impl_p.269"*)* @_ZN5boost6detail17sp_counted_impl_pIN6dealii12FEFaceValuesILi3ELi3EEEE7disposeEv to i8*), i8* bitcast (void (%"class.boost::detail::sp_counted_base"*)* @_ZN5boost6detail15sp_counted_base7destroyEv to i8*), i8* bitcast (i8* (%"class.boost::detail::sp_counted_impl_p.269"*, %"class.std::type_info"*)* @_ZN5boost6detail17sp_counted_impl_pIN6dealii12FEFaceValuesILi3ELi3EEEE11get_deleterERKSt9type_info to i8*)] }, comdat, align 8
@_ZTSN5boost6detail17sp_counted_impl_pIN6dealii12FEFaceValuesILi3ELi3EEEEE = linkonce_odr dso_local constant [70 x i8] c"N5boost6detail17sp_counted_impl_pIN6dealii12FEFaceValuesILi3ELi3EEEEE\00", comdat, align 1
@_ZTIN5boost6detail17sp_counted_impl_pIN6dealii12FEFaceValuesILi3ELi3EEEEE = linkonce_odr dso_local constant { i8*, i8*, i8* } { i8* bitcast (i8** getelementptr inbounds (i8*, i8** @_ZTVN10__cxxabiv120__si_class_type_infoE, i64 2) to i8*), i8* getelementptr inbounds ([70 x i8], [70 x i8]* @_ZTSN5boost6detail17sp_counted_impl_pIN6dealii12FEFaceValuesILi3ELi3EEEEE, i32 0, i32 0), i8* bitcast ({ i8*, i8* }* @_ZTIN5boost6detail15sp_counted_baseE to i8*) }, comdat, align 8
@_ZTVN6dealii5TableILi3EN5boost10shared_ptrINS_15FESubfaceValuesILi3ELi3EEEEEEE = linkonce_odr dso_local unnamed_addr constant { [4 x i8*] } { [4 x i8*] [i8* null, i8* bitcast ({ i8*, i8*, i8* }* @_ZTIN6dealii5TableILi3EN5boost10shared_ptrINS_15FESubfaceValuesILi3ELi3EEEEEEE to i8*), i8* bitcast (void (%"class.dealii::Table.149"*)* @_ZN6dealii5TableILi3EN5boost10shared_ptrINS_15FESubfaceValuesILi3ELi3EEEEEED2Ev to i8*), i8* bitcast (void (%"class.dealii::Table.149"*)* @_ZN6dealii5TableILi3EN5boost10shared_ptrINS_15FESubfaceValuesILi3ELi3EEEEEED0Ev to i8*)] }, comdat, align 8
@_ZTSN6dealii5TableILi3EN5boost10shared_ptrINS_15FESubfaceValuesILi3ELi3EEEEEEE = linkonce_odr dso_local constant [75 x i8] c"N6dealii5TableILi3EN5boost10shared_ptrINS_15FESubfaceValuesILi3ELi3EEEEEEE\00", comdat, align 1
@_ZTIN6dealii5TableILi3EN5boost10shared_ptrINS_15FESubfaceValuesILi3ELi3EEEEEEE = linkonce_odr dso_local constant { i8*, i8*, i8* } { i8* bitcast (i8** getelementptr inbounds (i8*, i8** @_ZTVN10__cxxabiv120__si_class_type_infoE, i64 2) to i8*), i8* getelementptr inbounds ([75 x i8], [75 x i8]* @_ZTSN6dealii5TableILi3EN5boost10shared_ptrINS_15FESubfaceValuesILi3ELi3EEEEEEE, i32 0, i32 0), i8* bitcast ({ i8*, i8*, i8* }* @_ZTIN6dealii9TableBaseILi3EN5boost10shared_ptrINS_15FESubfaceValuesILi3ELi3EEEEEEE to i8*) }, comdat, align 8
@_ZTVN5boost6detail17sp_counted_impl_pIN6dealii15FESubfaceValuesILi3ELi3EEEEE = linkonce_odr dso_local unnamed_addr constant { [7 x i8*] } { [7 x i8*] [i8* null, i8* bitcast ({ i8*, i8*, i8* }* @_ZTIN5boost6detail17sp_counted_impl_pIN6dealii15FESubfaceValuesILi3ELi3EEEEE to i8*), i8* bitcast (void (%"class.boost::detail::sp_counted_impl_p.270"*)* @_ZN5boost6detail17sp_counted_impl_pIN6dealii15FESubfaceValuesILi3ELi3EEEED2Ev to i8*), i8* bitcast (void (%"class.boost::detail::sp_counted_impl_p.270"*)* @_ZN5boost6detail17sp_counted_impl_pIN6dealii15FESubfaceValuesILi3ELi3EEEED0Ev to i8*), i8* bitcast (void (%"class.boost::detail::sp_counted_impl_p.270"*)* @_ZN5boost6detail17sp_counted_impl_pIN6dealii15FESubfaceValuesILi3ELi3EEEE7disposeEv to i8*), i8* bitcast (void (%"class.boost::detail::sp_counted_base"*)* @_ZN5boost6detail15sp_counted_base7destroyEv to i8*), i8* bitcast (i8* (%"class.boost::detail::sp_counted_impl_p.270"*, %"class.std::type_info"*)* @_ZN5boost6detail17sp_counted_impl_pIN6dealii15FESubfaceValuesILi3ELi3EEEE11get_deleterERKSt9type_info to i8*)] }, comdat, align 8
@_ZTSN5boost6detail17sp_counted_impl_pIN6dealii15FESubfaceValuesILi3ELi3EEEEE = linkonce_odr dso_local constant [73 x i8] c"N5boost6detail17sp_counted_impl_pIN6dealii15FESubfaceValuesILi3ELi3EEEEE\00", comdat, align 1
@_ZTIN5boost6detail17sp_counted_impl_pIN6dealii15FESubfaceValuesILi3ELi3EEEEE = linkonce_odr dso_local constant { i8*, i8*, i8* } { i8* bitcast (i8** getelementptr inbounds (i8*, i8** @_ZTVN10__cxxabiv120__si_class_type_infoE, i64 2) to i8*), i8* getelementptr inbounds ([73 x i8], [73 x i8]* @_ZTSN5boost6detail17sp_counted_impl_pIN6dealii15FESubfaceValuesILi3ELi3EEEEE, i32 0, i32 0), i8* bitcast ({ i8*, i8* }* @_ZTIN5boost6detail15sp_counted_baseE to i8*) }, comdat, align 8
@llvm.global_ctors = appending global [1 x { i32, void ()*, i8* }] [{ i32, void ()*, i8* } { i32 65535, void ()* @_GLOBAL__sub_I_fe_values.cc, i8* null }]

@_ZN6dealii8internal2hp12FEValuesBaseILi3ELi3ENS_8FEValuesILi3ELi3EEEEC1ERKNS_2hp17MappingCollectionILi3ELi3EEERKNS6_12FECollectionILi3ELi3EEERKNS6_11QCollectionILi3EEENS_11UpdateFlagsE = weak_odr dso_local unnamed_addr alias void (%"class.dealii::internal::hp::FEValuesBase"*, %"class.dealii::hp::MappingCollection"*, %"class.dealii::hp::FECollection"*, %"class.dealii::hp::QCollection"*, i32), void (%"class.dealii::internal::hp::FEValuesBase"*, %"class.dealii::hp::MappingCollection"*, %"class.dealii::hp::FECollection"*, %"class.dealii::hp::QCollection"*, i32)* @_ZN6dealii8internal2hp12FEValuesBaseILi3ELi3ENS_8FEValuesILi3ELi3EEEEC2ERKNS_2hp17MappingCollectionILi3ELi3EEERKNS6_12FECollectionILi3ELi3EEERKNS6_11QCollectionILi3EEENS_11UpdateFlagsE
@_ZN6dealii8internal2hp12FEValuesBaseILi3ELi3ENS_8FEValuesILi3ELi3EEEEC1ERKNS_2hp12FECollectionILi3ELi3EEERKNS6_11QCollectionILi3EEENS_11UpdateFlagsE = weak_odr dso_local unnamed_addr alias void (%"class.dealii::internal::hp::FEValuesBase"*, %"class.dealii::hp::FECollection"*, %"class.dealii::hp::QCollection"*, i32), void (%"class.dealii::internal::hp::FEValuesBase"*, %"class.dealii::hp::FECollection"*, %"class.dealii::hp::QCollection"*, i32)* @_ZN6dealii8internal2hp12FEValuesBaseILi3ELi3ENS_8FEValuesILi3ELi3EEEEC2ERKNS_2hp12FECollectionILi3ELi3EEERKNS6_11QCollectionILi3EEENS_11UpdateFlagsE
@_ZN6dealii8internal2hp12FEValuesBaseILi3ELi2ENS_12FEFaceValuesILi3ELi3EEEEC1ERKNS_2hp17MappingCollectionILi3ELi3EEERKNS6_12FECollectionILi3ELi3EEERKNS6_11QCollectionILi2EEENS_11UpdateFlagsE = weak_odr dso_local unnamed_addr alias void (%"class.dealii::internal::hp::FEValuesBase.136"*, %"class.dealii::hp::MappingCollection"*, %"class.dealii::hp::FECollection"*, %"class.dealii::hp::QCollection.137"*, i32), void (%"class.dealii::internal::hp::FEValuesBase.136"*, %"class.dealii::hp::MappingCollection"*, %"class.dealii::hp::FECollection"*, %"class.dealii::hp::QCollection.137"*, i32)* @_ZN6dealii8internal2hp12FEValuesBaseILi3ELi2ENS_12FEFaceValuesILi3ELi3EEEEC2ERKNS_2hp17MappingCollectionILi3ELi3EEERKNS6_12FECollectionILi3ELi3EEERKNS6_11QCollectionILi2EEENS_11UpdateFlagsE
@_ZN6dealii8internal2hp12FEValuesBaseILi3ELi2ENS_12FEFaceValuesILi3ELi3EEEEC1ERKNS_2hp12FECollectionILi3ELi3EEERKNS6_11QCollectionILi2EEENS_11UpdateFlagsE = weak_odr dso_local unnamed_addr alias void (%"class.dealii::internal::hp::FEValuesBase.136"*, %"class.dealii::hp::FECollection"*, %"class.dealii::hp::QCollection.137"*, i32), void (%"class.dealii::internal::hp::FEValuesBase.136"*, %"class.dealii::hp::FECollection"*, %"class.dealii::hp::QCollection.137"*, i32)* @_ZN6dealii8internal2hp12FEValuesBaseILi3ELi2ENS_12FEFaceValuesILi3ELi3EEEEC2ERKNS_2hp12FECollectionILi3ELi3EEERKNS6_11QCollectionILi2EEENS_11UpdateFlagsE
@_ZN6dealii8internal2hp12FEValuesBaseILi3ELi2ENS_15FESubfaceValuesILi3ELi3EEEEC1ERKNS_2hp17MappingCollectionILi3ELi3EEERKNS6_12FECollectionILi3ELi3EEERKNS6_11QCollectionILi2EEENS_11UpdateFlagsE = weak_odr dso_local unnamed_addr alias void (%"class.dealii::internal::hp::FEValuesBase.148"*, %"class.dealii::hp::MappingCollection"*, %"class.dealii::hp::FECollection"*, %"class.dealii::hp::QCollection.137"*, i32), void (%"class.dealii::internal::hp::FEValuesBase.148"*, %"class.dealii::hp::MappingCollection"*, %"class.dealii::hp::FECollection"*, %"class.dealii::hp::QCollection.137"*, i32)* @_ZN6dealii8internal2hp12FEValuesBaseILi3ELi2ENS_15FESubfaceValuesILi3ELi3EEEEC2ERKNS_2hp17MappingCollectionILi3ELi3EEERKNS6_12FECollectionILi3ELi3EEERKNS6_11QCollectionILi2EEENS_11UpdateFlagsE
@_ZN6dealii8internal2hp12FEValuesBaseILi3ELi2ENS_15FESubfaceValuesILi3ELi3EEEEC1ERKNS_2hp12FECollectionILi3ELi3EEERKNS6_11QCollectionILi2EEENS_11UpdateFlagsE = weak_odr dso_local unnamed_addr alias void (%"class.dealii::internal::hp::FEValuesBase.148"*, %"class.dealii::hp::FECollection"*, %"class.dealii::hp::QCollection.137"*, i32), void (%"class.dealii::internal::hp::FEValuesBase.148"*, %"class.dealii::hp::FECollection"*, %"class.dealii::hp::QCollection.137"*, i32)* @_ZN6dealii8internal2hp12FEValuesBaseILi3ELi2ENS_15FESubfaceValuesILi3ELi3EEEEC2ERKNS_2hp12FECollectionILi3ELi3EEERKNS6_11QCollectionILi2EEENS_11UpdateFlagsE
@_ZN6dealii2hp8FEValuesILi3ELi3EEC1ERKNS0_17MappingCollectionILi3ELi3EEERKNS0_12FECollectionILi3ELi3EEERKNS0_11QCollectionILi3EEENS_11UpdateFlagsE = weak_odr dso_local unnamed_addr alias void (%"class.dealii::hp::FEValues"*, %"class.dealii::hp::MappingCollection"*, %"class.dealii::hp::FECollection"*, %"class.dealii::hp::QCollection"*, i32), void (%"class.dealii::hp::FEValues"*, %"class.dealii::hp::MappingCollection"*, %"class.dealii::hp::FECollection"*, %"class.dealii::hp::QCollection"*, i32)* @_ZN6dealii2hp8FEValuesILi3ELi3EEC2ERKNS0_17MappingCollectionILi3ELi3EEERKNS0_12FECollectionILi3ELi3EEERKNS0_11QCollectionILi3EEENS_11UpdateFlagsE
@_ZN6dealii2hp8FEValuesILi3ELi3EEC1ERKNS0_12FECollectionILi3ELi3EEERKNS0_11QCollectionILi3EEENS_11UpdateFlagsE = weak_odr dso_local unnamed_addr alias void (%"class.dealii::hp::FEValues"*, %"class.dealii::hp::FECollection"*, %"class.dealii::hp::QCollection"*, i32), void (%"class.dealii::hp::FEValues"*, %"class.dealii::hp::FECollection"*, %"class.dealii::hp::QCollection"*, i32)* @_ZN6dealii2hp8FEValuesILi3ELi3EEC2ERKNS0_12FECollectionILi3ELi3EEERKNS0_11QCollectionILi3EEENS_11UpdateFlagsE
@_ZN6dealii2hp12FEFaceValuesILi3EEC1ERKNS0_17MappingCollectionILi3ELi3EEERKNS0_12FECollectionILi3ELi3EEERKNS0_11QCollectionILi2EEENS_11UpdateFlagsE = weak_odr dso_local unnamed_addr alias void (%"class.dealii::hp::FEFaceValues"*, %"class.dealii::hp::MappingCollection"*, %"class.dealii::hp::FECollection"*, %"class.dealii::hp::QCollection.137"*, i32), void (%"class.dealii::hp::FEFaceValues"*, %"class.dealii::hp::MappingCollection"*, %"class.dealii::hp::FECollection"*, %"class.dealii::hp::QCollection.137"*, i32)* @_ZN6dealii2hp12FEFaceValuesILi3EEC2ERKNS0_17MappingCollectionILi3ELi3EEERKNS0_12FECollectionILi3ELi3EEERKNS0_11QCollectionILi2EEENS_11UpdateFlagsE
@_ZN6dealii2hp12FEFaceValuesILi3EEC1ERKNS0_12FECollectionILi3ELi3EEERKNS0_11QCollectionILi2EEENS_11UpdateFlagsE = weak_odr dso_local unnamed_addr alias void (%"class.dealii::hp::FEFaceValues"*, %"class.dealii::hp::FECollection"*, %"class.dealii::hp::QCollection.137"*, i32), void (%"class.dealii::hp::FEFaceValues"*, %"class.dealii::hp::FECollection"*, %"class.dealii::hp::QCollection.137"*, i32)* @_ZN6dealii2hp12FEFaceValuesILi3EEC2ERKNS0_12FECollectionILi3ELi3EEERKNS0_11QCollectionILi2EEENS_11UpdateFlagsE
@_ZN6dealii2hp15FESubfaceValuesILi3EEC1ERKNS0_17MappingCollectionILi3ELi3EEERKNS0_12FECollectionILi3ELi3EEERKNS0_11QCollectionILi2EEENS_11UpdateFlagsE = weak_odr dso_local unnamed_addr alias void (%"class.dealii::hp::FESubfaceValues"*, %"class.dealii::hp::MappingCollection"*, %"class.dealii::hp::FECollection"*, %"class.dealii::hp::QCollection.137"*, i32), void (%"class.dealii::hp::FESubfaceValues"*, %"class.dealii::hp::MappingCollection"*, %"class.dealii::hp::FECollection"*, %"class.dealii::hp::QCollection.137"*, i32)* @_ZN6dealii2hp15FESubfaceValuesILi3EEC2ERKNS0_17MappingCollectionILi3ELi3EEERKNS0_12FECollectionILi3ELi3EEERKNS0_11QCollectionILi2EEENS_11UpdateFlagsE
@_ZN6dealii2hp15FESubfaceValuesILi3EEC1ERKNS0_12FECollectionILi3ELi3EEERKNS0_11QCollectionILi2EEENS_11UpdateFlagsE = weak_odr dso_local unnamed_addr alias void (%"class.dealii::hp::FESubfaceValues"*, %"class.dealii::hp::FECollection"*, %"class.dealii::hp::QCollection.137"*, i32), void (%"class.dealii::hp::FESubfaceValues"*, %"class.dealii::hp::FECollection"*, %"class.dealii::hp::QCollection.137"*, i32)* @_ZN6dealii2hp15FESubfaceValuesILi3EEC2ERKNS0_12FECollectionILi3ELi3EEERKNS0_11QCollectionILi2EEENS_11UpdateFlagsE

; Function Attrs: noinline uwtable
define internal void @__cxx_global_var_init() #0 section ".text.startup" !dbg !11286 {
entry:
  call void @_ZN5boost3argILi1EEC2Ev(%"struct.boost::arg"* @_ZN12_GLOBAL__N_12_1E), !dbg !11287
  ret void, !dbg !11287
}

; Function Attrs: noinline nounwind uwtable
define linkonce_odr dso_local void @_ZN5boost3argILi1EEC2Ev(%"struct.boost::arg"* %this) unnamed_addr #1 comdat align 2 !dbg !11288 {
entry:
  %this.addr = alloca %"struct.boost::arg"*, align 8
  store %"struct.boost::arg"* %this, %"struct.boost::arg"** %this.addr, align 8
  call void @llvm.dbg.declare(metadata %"struct.boost::arg"** %this.addr, metadata !11289, metadata !DIExpression()), !dbg !11291
  %this1 = load %"struct.boost::arg"*, %"struct.boost::arg"** %this.addr, align 8
  ret void, !dbg !11292
}

; Function Attrs: noinline uwtable
define internal void @__cxx_global_var_init.1() #0 section ".text.startup" !dbg !11293 {
entry:
  call void @_ZN5boost3argILi2EEC2Ev(%"struct.boost::arg.0"* @_ZN12_GLOBAL__N_12_2E), !dbg !11294
  ret void, !dbg !11294
}

; Function Attrs: noinline nounwind uwtable
define linkonce_odr dso_local void @_ZN5boost3argILi2EEC2Ev(%"struct.boost::arg.0"* %this) unnamed_addr #1 comdat align 2 !dbg !11295 {
entry:
  %this.addr = alloca %"struct.boost::arg.0"*, align 8
  store %"struct.boost::arg.0"* %this, %"struct.boost::arg.0"** %this.addr, align 8
  call void @llvm.dbg.declare(metadata %"struct.boost::arg.0"** %this.addr, metadata !11296, metadata !DIExpression()), !dbg !11298
  %this1 = load %"struct.boost::arg.0"*, %"struct.boost::arg.0"** %this.addr, align 8
  ret void, !dbg !11299
}

; Function Attrs: noinline uwtable
define internal void @__cxx_global_var_init.2() #0 section ".text.startup" !dbg !11300 {
entry:
  call void @_ZN5boost3argILi3EEC2Ev(%"struct.boost::arg.2"* @_ZN12_GLOBAL__N_12_3E), !dbg !11301
  ret void, !dbg !11301
}

; Function Attrs: noinline nounwind uwtable
define linkonce_odr dso_local void @_ZN5boost3argILi3EEC2Ev(%"struct.boost::arg.2"* %this) unnamed_addr #1 comdat align 2 !dbg !11302 {
entry:
  %this.addr = alloca %"struct.boost::arg.2"*, align 8
  store %"struct.boost::arg.2"* %this, %"struct.boost::arg.2"** %this.addr, align 8
  call void @llvm.dbg.declare(metadata %"struct.boost::arg.2"** %this.addr, metadata !11303, metadata !DIExpression()), !dbg !11305
  %this1 = load %"struct.boost::arg.2"*, %"struct.boost::arg.2"** %this.addr, align 8
  ret void, !dbg !11306
}

; Function Attrs: noinline uwtable
define internal void @__cxx_global_var_init.3() #0 section ".text.startup" !dbg !11307 {
entry:
  call void @_ZN5boost3argILi4EEC2Ev(%"struct.boost::arg.4"* @_ZN12_GLOBAL__N_12_4E), !dbg !11308
  ret void, !dbg !11308
}

; Function Attrs: noinline nounwind uwtable
define linkonce_odr dso_local void @_ZN5boost3argILi4EEC2Ev(%"struct.boost::arg.4"* %this) unnamed_addr #1 comdat align 2 !dbg !11309 {
entry:
  %this.addr = alloca %"struct.boost::arg.4"*, align 8
  store %"struct.boost::arg.4"* %this, %"struct.boost::arg.4"** %this.addr, align 8
  call void @llvm.dbg.declare(metadata %"struct.boost::arg.4"** %this.addr, metadata !11310, metadata !DIExpression()), !dbg !11312
  %this1 = load %"struct.boost::arg.4"*, %"struct.boost::arg.4"** %this.addr, align 8
  ret void, !dbg !11313
}

; Function Attrs: noinline uwtable
define internal void @__cxx_global_var_init.4() #0 section ".text.startup" !dbg !11314 {
entry:
  call void @_ZN5boost3argILi5EEC2Ev(%"struct.boost::arg.6"* @_ZN12_GLOBAL__N_12_5E), !dbg !11315
  ret void, !dbg !11315
}

; Function Attrs: noinline nounwind uwtable
define linkonce_odr dso_local void @_ZN5boost3argILi5EEC2Ev(%"struct.boost::arg.6"* %this) unnamed_addr #1 comdat align 2 !dbg !11316 {
entry:
  %this.addr = alloca %"struct.boost::arg.6"*, align 8
  store %"struct.boost::arg.6"* %this, %"struct.boost::arg.6"** %this.addr, align 8
  call void @llvm.dbg.declare(metadata %"struct.boost::arg.6"** %this.addr, metadata !11317, metadata !DIExpression()), !dbg !11319
  %this1 = load %"struct.boost::arg.6"*, %"struct.boost::arg.6"** %this.addr, align 8
  ret void, !dbg !11320
}

; Function Attrs: noinline uwtable
define internal void @__cxx_global_var_init.5() #0 section ".text.startup" !dbg !11321 {
entry:
  call void @_ZN5boost3argILi6EEC2Ev(%"struct.boost::arg.8"* @_ZN12_GLOBAL__N_12_6E), !dbg !11322
  ret void, !dbg !11322
}

; Function Attrs: noinline nounwind uwtable
define linkonce_odr dso_local void @_ZN5boost3argILi6EEC2Ev(%"struct.boost::arg.8"* %this) unnamed_addr #1 comdat align 2 !dbg !11323 {
entry:
  %this.addr = alloca %"struct.boost::arg.8"*, align 8
  store %"struct.boost::arg.8"* %this, %"struct.boost::arg.8"** %this.addr, align 8
  call void @llvm.dbg.declare(metadata %"struct.boost::arg.8"** %this.addr, metadata !11324, metadata !DIExpression()), !dbg !11326
  %this1 = load %"struct.boost::arg.8"*, %"struct.boost::arg.8"** %this.addr, align 8
  ret void, !dbg !11327
}

; Function Attrs: noinline uwtable
define internal void @__cxx_global_var_init.6() #0 section ".text.startup" !dbg !11328 {
entry:
  call void @_ZN5boost3argILi7EEC2Ev(%"struct.boost::arg.10"* @_ZN12_GLOBAL__N_12_7E), !dbg !11329
  ret void, !dbg !11329
}

; Function Attrs: noinline nounwind uwtable
define linkonce_odr dso_local void @_ZN5boost3argILi7EEC2Ev(%"struct.boost::arg.10"* %this) unnamed_addr #1 comdat align 2 !dbg !11330 {
entry:
  %this.addr = alloca %"struct.boost::arg.10"*, align 8
  store %"struct.boost::arg.10"* %this, %"struct.boost::arg.10"** %this.addr, align 8
  call void @llvm.dbg.declare(metadata %"struct.boost::arg.10"** %this.addr, metadata !11331, metadata !DIExpression()), !dbg !11333
  %this1 = load %"struct.boost::arg.10"*, %"struct.boost::arg.10"** %this.addr, align 8
  ret void, !dbg !11334
}

; Function Attrs: noinline uwtable
define internal void @__cxx_global_var_init.7() #0 section ".text.startup" !dbg !11335 {
entry:
  call void @_ZN5boost3argILi8EEC2Ev(%"struct.boost::arg.12"* @_ZN12_GLOBAL__N_12_8E), !dbg !11336
  ret void, !dbg !11336
}

; Function Attrs: noinline nounwind uwtable
define linkonce_odr dso_local void @_ZN5boost3argILi8EEC2Ev(%"struct.boost::arg.12"* %this) unnamed_addr #1 comdat align 2 !dbg !11337 {
entry:
  %this.addr = alloca %"struct.boost::arg.12"*, align 8
  store %"struct.boost::arg.12"* %this, %"struct.boost::arg.12"** %this.addr, align 8
  call void @llvm.dbg.declare(metadata %"struct.boost::arg.12"** %this.addr, metadata !11338, metadata !DIExpression()), !dbg !11340
  %this1 = load %"struct.boost::arg.12"*, %"struct.boost::arg.12"** %this.addr, align 8
  ret void, !dbg !11341
}

; Function Attrs: noinline uwtable
define internal void @__cxx_global_var_init.8() #0 section ".text.startup" !dbg !11342 {
entry:
  call void @_ZN5boost3argILi9EEC2Ev(%"struct.boost::arg.14"* @_ZN12_GLOBAL__N_12_9E), !dbg !11343
  ret void, !dbg !11343
}

; Function Attrs: noinline nounwind uwtable
define linkonce_odr dso_local void @_ZN5boost3argILi9EEC2Ev(%"struct.boost::arg.14"* %this) unnamed_addr #1 comdat align 2 !dbg !11344 {
entry:
  %this.addr = alloca %"struct.boost::arg.14"*, align 8
  store %"struct.boost::arg.14"* %this, %"struct.boost::arg.14"** %this.addr, align 8
  call void @llvm.dbg.declare(metadata %"struct.boost::arg.14"** %this.addr, metadata !11345, metadata !DIExpression()), !dbg !11347
  %this1 = load %"struct.boost::arg.14"*, %"struct.boost::arg.14"** %this.addr, align 8
  ret void, !dbg !11348
}

; Function Attrs: noinline uwtable
define internal void @__cxx_global_var_init.9() #0 section ".text.startup" !dbg !11349 {
entry:
  call void @_ZNSt8ios_base4InitC1Ev(%"class.std::ios_base::Init"* @_ZStL8__ioinit), !dbg !11350
  %0 = call i32 @__cxa_atexit(void (i8*)* bitcast (void (%"class.std::ios_base::Init"*)* @_ZNSt8ios_base4InitD1Ev to void (i8*)*), i8* getelementptr inbounds (%"class.std::ios_base::Init", %"class.std::ios_base::Init"* @_ZStL8__ioinit, i32 0, i32 0), i8* @__dso_handle) #4, !dbg !11350
  ret void, !dbg !11350
}

declare dso_local void @_ZNSt8ios_base4InitC1Ev(%"class.std::ios_base::Init"*) unnamed_addr #2

; Function Attrs: nounwind
declare dso_local void @_ZNSt8ios_base4InitD1Ev(%"class.std::ios_base::Init"*) unnamed_addr #3

; Function Attrs: nounwind
declare dso_local i32 @__cxa_atexit(void (i8*)*, i8*, i8*) #4

; Function Attrs: noinline uwtable
define weak_odr dso_local void @_ZN6dealii8internal2hp12FEValuesBaseILi3ELi3ENS_8FEValuesILi3ELi3EEEEC2ERKNS_2hp17MappingCollectionILi3ELi3EEERKNS6_12FECollectionILi3ELi3EEERKNS6_11QCollectionILi3EEENS_11UpdateFlagsE(%"class.dealii::internal::hp::FEValuesBase"* %this, %"class.dealii::hp::MappingCollection"* dereferenceable(96) %mapping_collection, %"class.dealii::hp::FECollection"* dereferenceable(96) %fe_collection, %"class.dealii::hp::QCollection"* dereferenceable(96) %q_collection, i32 %update_flags) unnamed_addr #0 comdat($_ZN6dealii8internal2hp12FEValuesBaseILi3ELi3ENS_8FEValuesILi3ELi3EEEEC5ERKNS_2hp17MappingCollectionILi3ELi3EEERKNS6_12FECollectionILi3ELi3EEERKNS6_11QCollectionILi3EEENS_11UpdateFlagsE) align 2 personality i8* bitcast (i32 (...)* @__gxx_personality_v0 to i8*) !dbg !11351 {
entry:
  %this.addr = alloca %"class.dealii::internal::hp::FEValuesBase"*, align 8
  %mapping_collection.addr = alloca %"class.dealii::hp::MappingCollection"*, align 8
  %fe_collection.addr = alloca %"class.dealii::hp::FECollection"*, align 8
  %q_collection.addr = alloca %"class.dealii::hp::QCollection"*, align 8
  %update_flags.addr = alloca i32, align 4
  %exn.slot = alloca i8*
  %ehselector.slot = alloca i32
  store %"class.dealii::internal::hp::FEValuesBase"* %this, %"class.dealii::internal::hp::FEValuesBase"** %this.addr, align 8
  call void @llvm.dbg.declare(metadata %"class.dealii::internal::hp::FEValuesBase"** %this.addr, metadata !11352, metadata !DIExpression()), !dbg !11354
  store %"class.dealii::hp::MappingCollection"* %mapping_collection, %"class.dealii::hp::MappingCollection"** %mapping_collection.addr, align 8
  call void @llvm.dbg.declare(metadata %"class.dealii::hp::MappingCollection"** %mapping_collection.addr, metadata !11355, metadata !DIExpression()), !dbg !11356
  store %"class.dealii::hp::FECollection"* %fe_collection, %"class.dealii::hp::FECollection"** %fe_collection.addr, align 8
  call void @llvm.dbg.declare(metadata %"class.dealii::hp::FECollection"** %fe_collection.addr, metadata !11357, metadata !DIExpression()), !dbg !11358
  store %"class.dealii::hp::QCollection"* %q_collection, %"class.dealii::hp::QCollection"** %q_collection.addr, align 8
  call void @llvm.dbg.declare(metadata %"class.dealii::hp::QCollection"** %q_collection.addr, metadata !11359, metadata !DIExpression()), !dbg !11360
  store i32 %update_flags, i32* %update_flags.addr, align 4
  call void @llvm.dbg.declare(metadata i32* %update_flags.addr, metadata !11361, metadata !DIExpression()), !dbg !11362
  %this1 = load %"class.dealii::internal::hp::FEValuesBase"*, %"class.dealii::internal::hp::FEValuesBase"** %this.addr, align 8
  %fe_collection2 = getelementptr inbounds %"class.dealii::internal::hp::FEValuesBase", %"class.dealii::internal::hp::FEValuesBase"* %this1, i32 0, i32 0, !dbg !11363
  %0 = load %"class.dealii::hp::FECollection"*, %"class.dealii::hp::FECollection"** %fe_collection.addr, align 8, !dbg !11364
  call void @_ZN6dealii12SmartPointerIKNS_2hp12FECollectionILi3ELi3EEEEC2EPS4_PKc(%"class.dealii::SmartPointer"* %fe_collection2, %"class.dealii::hp::FECollection"* %0, i8* null), !dbg !11363
  %mapping_collection3 = getelementptr inbounds %"class.dealii::internal::hp::FEValuesBase", %"class.dealii::internal::hp::FEValuesBase"* %this1, i32 0, i32 1, !dbg !11365
  %1 = load %"class.dealii::hp::MappingCollection"*, %"class.dealii::hp::MappingCollection"** %mapping_collection.addr, align 8, !dbg !11366
  invoke void @_ZN6dealii12SmartPointerIKNS_2hp17MappingCollectionILi3ELi3EEEEC2EPS4_PKc(%"class.dealii::SmartPointer.19"* %mapping_collection3, %"class.dealii::hp::MappingCollection"* %1, i8* null)
          to label %invoke.cont unwind label %lpad, !dbg !11365

invoke.cont:                                      ; preds = %entry
  %q_collection4 = getelementptr inbounds %"class.dealii::internal::hp::FEValuesBase", %"class.dealii::internal::hp::FEValuesBase"* %this1, i32 0, i32 2, !dbg !11367
  %2 = load %"class.dealii::hp::QCollection"*, %"class.dealii::hp::QCollection"** %q_collection.addr, align 8, !dbg !11368
  invoke void @_ZN6dealii2hp11QCollectionILi3EEC2ERKS2_(%"class.dealii::hp::QCollection"* %q_collection4, %"class.dealii::hp::QCollection"* dereferenceable(96) %2)
          to label %invoke.cont6 unwind label %lpad5, !dbg !11367

invoke.cont6:                                     ; preds = %invoke.cont
  %fe_values_table = getelementptr inbounds %"class.dealii::internal::hp::FEValuesBase", %"class.dealii::internal::hp::FEValuesBase"* %this1, i32 0, i32 3, !dbg !11369
  %3 = load %"class.dealii::hp::FECollection"*, %"class.dealii::hp::FECollection"** %fe_collection.addr, align 8, !dbg !11370
  %call = invoke i32 @_ZNK6dealii2hp12FECollectionILi3ELi3EE4sizeEv(%"class.dealii::hp::FECollection"* %3)
          to label %invoke.cont8 unwind label %lpad7, !dbg !11371

invoke.cont8:                                     ; preds = %invoke.cont6
  %4 = load %"class.dealii::hp::MappingCollection"*, %"class.dealii::hp::MappingCollection"** %mapping_collection.addr, align 8, !dbg !11372
  %call10 = invoke i32 @_ZNK6dealii2hp17MappingCollectionILi3ELi3EE4sizeEv(%"class.dealii::hp::MappingCollection"* %4)
          to label %invoke.cont9 unwind label %lpad7, !dbg !11373

invoke.cont9:                                     ; preds = %invoke.cont8
  %5 = load %"class.dealii::hp::QCollection"*, %"class.dealii::hp::QCollection"** %q_collection.addr, align 8, !dbg !11374
  %call12 = invoke i32 @_ZNK6dealii2hp11QCollectionILi3EE4sizeEv(%"class.dealii::hp::QCollection"* %5)
          to label %invoke.cont11 unwind label %lpad7, !dbg !11375

invoke.cont11:                                    ; preds = %invoke.cont9
  invoke void @_ZN6dealii5TableILi3EN5boost10shared_ptrINS_8FEValuesILi3ELi3EEEEEEC2Ejjj(%"class.dealii::Table"* %fe_values_table, i32 %call, i32 %call10, i32 %call12)
          to label %invoke.cont13 unwind label %lpad7, !dbg !11369

invoke.cont13:                                    ; preds = %invoke.cont11
  %present_fe_values_index = getelementptr inbounds %"class.dealii::internal::hp::FEValuesBase", %"class.dealii::internal::hp::FEValuesBase"* %this1, i32 0, i32 4, !dbg !11376
  invoke void @_ZN6dealii12TableIndicesILi3EEC2Ejjj(%"class.dealii::TableIndices"* %present_fe_values_index, i32 -1, i32 -1, i32 -1)
          to label %invoke.cont15 unwind label %lpad14, !dbg !11376

invoke.cont15:                                    ; preds = %invoke.cont13
  %update_flags16 = getelementptr inbounds %"class.dealii::internal::hp::FEValuesBase", %"class.dealii::internal::hp::FEValuesBase"* %this1, i32 0, i32 5, !dbg !11377
  %6 = load i32, i32* %update_flags.addr, align 4, !dbg !11378
  store i32 %6, i32* %update_flags16, align 4, !dbg !11377
  ret void, !dbg !11379

lpad:                                             ; preds = %entry
  %7 = landingpad { i8*, i32 }
          cleanup, !dbg !11379
  %8 = extractvalue { i8*, i32 } %7, 0, !dbg !11379
  store i8* %8, i8** %exn.slot, align 8, !dbg !11379
  %9 = extractvalue { i8*, i32 } %7, 1, !dbg !11379
  store i32 %9, i32* %ehselector.slot, align 4, !dbg !11379
  br label %ehcleanup18, !dbg !11379

lpad5:                                            ; preds = %invoke.cont
  %10 = landingpad { i8*, i32 }
          cleanup, !dbg !11379
  %11 = extractvalue { i8*, i32 } %10, 0, !dbg !11379
  store i8* %11, i8** %exn.slot, align 8, !dbg !11379
  %12 = extractvalue { i8*, i32 } %10, 1, !dbg !11379
  store i32 %12, i32* %ehselector.slot, align 4, !dbg !11379
  br label %ehcleanup17, !dbg !11379

lpad7:                                            ; preds = %invoke.cont11, %invoke.cont9, %invoke.cont8, %invoke.cont6
  %13 = landingpad { i8*, i32 }
          cleanup, !dbg !11379
  %14 = extractvalue { i8*, i32 } %13, 0, !dbg !11379
  store i8* %14, i8** %exn.slot, align 8, !dbg !11379
  %15 = extractvalue { i8*, i32 } %13, 1, !dbg !11379
  store i32 %15, i32* %ehselector.slot, align 4, !dbg !11379
  br label %ehcleanup, !dbg !11379

lpad14:                                           ; preds = %invoke.cont13
  %16 = landingpad { i8*, i32 }
          cleanup, !dbg !11379
  %17 = extractvalue { i8*, i32 } %16, 0, !dbg !11379
  store i8* %17, i8** %exn.slot, align 8, !dbg !11379
  %18 = extractvalue { i8*, i32 } %16, 1, !dbg !11379
  store i32 %18, i32* %ehselector.slot, align 4, !dbg !11379
  call void @_ZN6dealii5TableILi3EN5boost10shared_ptrINS_8FEValuesILi3ELi3EEEEEED2Ev(%"class.dealii::Table"* %fe_values_table) #4, !dbg !11380
  br label %ehcleanup, !dbg !11380

ehcleanup:                                        ; preds = %lpad14, %lpad7
  call void @_ZN6dealii2hp11QCollectionILi3EED2Ev(%"class.dealii::hp::QCollection"* %q_collection4) #4, !dbg !11380
  br label %ehcleanup17, !dbg !11380

ehcleanup17:                                      ; preds = %ehcleanup, %lpad5
  call void @_ZN6dealii12SmartPointerIKNS_2hp17MappingCollectionILi3ELi3EEEED2Ev(%"class.dealii::SmartPointer.19"* %mapping_collection3) #4, !dbg !11380
  br label %ehcleanup18, !dbg !11380

ehcleanup18:                                      ; preds = %ehcleanup17, %lpad
  call void @_ZN6dealii12SmartPointerIKNS_2hp12FECollectionILi3ELi3EEEED2Ev(%"class.dealii::SmartPointer"* %fe_collection2) #4, !dbg !11380
  br label %eh.resume, !dbg !11380

eh.resume:                                        ; preds = %ehcleanup18
  %exn = load i8*, i8** %exn.slot, align 8, !dbg !11380
  %sel = load i32, i32* %ehselector.slot, align 4, !dbg !11380
  %lpad.val = insertvalue { i8*, i32 } undef, i8* %exn, 0, !dbg !11380
  %lpad.val19 = insertvalue { i8*, i32 } %lpad.val, i32 %sel, 1, !dbg !11380
  resume { i8*, i32 } %lpad.val19, !dbg !11380
}

; Function Attrs: nounwind readnone speculatable willreturn
declare void @llvm.dbg.declare(metadata, metadata, metadata) #5

; Function Attrs: noinline uwtable
define linkonce_odr dso_local void @_ZN6dealii12SmartPointerIKNS_2hp12FECollectionILi3ELi3EEEEC2EPS4_PKc(%"class.dealii::SmartPointer"* %this, %"class.dealii::hp::FECollection"* %t, i8* %id) unnamed_addr #0 comdat align 2 !dbg !11382 {
entry:
  %this.addr = alloca %"class.dealii::SmartPointer"*, align 8
  %t.addr = alloca %"class.dealii::hp::FECollection"*, align 8
  %id.addr = alloca i8*, align 8
  store %"class.dealii::SmartPointer"* %this, %"class.dealii::SmartPointer"** %this.addr, align 8
  call void @llvm.dbg.declare(metadata %"class.dealii::SmartPointer"** %this.addr, metadata !11383, metadata !DIExpression()), !dbg !11385
  store %"class.dealii::hp::FECollection"* %t, %"class.dealii::hp::FECollection"** %t.addr, align 8
  call void @llvm.dbg.declare(metadata %"class.dealii::hp::FECollection"** %t.addr, metadata !11386, metadata !DIExpression()), !dbg !11387
  store i8* %id, i8** %id.addr, align 8
  call void @llvm.dbg.declare(metadata i8** %id.addr, metadata !11388, metadata !DIExpression()), !dbg !11389
  %this1 = load %"class.dealii::SmartPointer"*, %"class.dealii::SmartPointer"** %this.addr, align 8
  %t2 = getelementptr inbounds %"class.dealii::SmartPointer", %"class.dealii::SmartPointer"* %this1, i32 0, i32 0, !dbg !11390
  %0 = load %"class.dealii::hp::FECollection"*, %"class.dealii::hp::FECollection"** %t.addr, align 8, !dbg !11391
  store %"class.dealii::hp::FECollection"* %0, %"class.dealii::hp::FECollection"** %t2, align 8, !dbg !11390
  %id3 = getelementptr inbounds %"class.dealii::SmartPointer", %"class.dealii::SmartPointer"* %this1, i32 0, i32 1, !dbg !11392
  %1 = load i8*, i8** %id.addr, align 8, !dbg !11393
  store i8* %1, i8** %id3, align 8, !dbg !11392
  %2 = load %"class.dealii::hp::FECollection"*, %"class.dealii::hp::FECollection"** %t.addr, align 8, !dbg !11394
  %cmp = icmp ne %"class.dealii::hp::FECollection"* %2, null, !dbg !11397
  br i1 %cmp, label %if.then, label %if.end, !dbg !11398

if.then:                                          ; preds = %entry
  %3 = load %"class.dealii::hp::FECollection"*, %"class.dealii::hp::FECollection"** %t.addr, align 8, !dbg !11399
  %4 = bitcast %"class.dealii::hp::FECollection"* %3 to %"class.dealii::Subscriptor"*, !dbg !11400
  %5 = load i8*, i8** %id.addr, align 8, !dbg !11401
  call void @_ZNK6dealii11Subscriptor9subscribeEPKc(%"class.dealii::Subscriptor"* %4, i8* %5), !dbg !11400
  br label %if.end, !dbg !11399

if.end:                                           ; preds = %if.then, %entry
  ret void, !dbg !11402
}

; Function Attrs: noinline nounwind uwtable
define linkonce_odr dso_local void @_ZN6dealii12SmartPointerIKNS_2hp17MappingCollectionILi3ELi3EEEEC2EPS4_PKc(%"class.dealii::SmartPointer.19"* %this, %"class.dealii::hp::MappingCollection"* %t, i8* %id) unnamed_addr #1 comdat align 2 !dbg !11403 {
entry:
  %this.addr = alloca %"class.dealii::SmartPointer.19"*, align 8
  %t.addr = alloca %"class.dealii::hp::MappingCollection"*, align 8
  %id.addr = alloca i8*, align 8
  store %"class.dealii::SmartPointer.19"* %this, %"class.dealii::SmartPointer.19"** %this.addr, align 8
  call void @llvm.dbg.declare(metadata %"class.dealii::SmartPointer.19"** %this.addr, metadata !11404, metadata !DIExpression()), !dbg !11406
  store %"class.dealii::hp::MappingCollection"* %t, %"class.dealii::hp::MappingCollection"** %t.addr, align 8
  call void @llvm.dbg.declare(metadata %"class.dealii::hp::MappingCollection"** %t.addr, metadata !11407, metadata !DIExpression()), !dbg !11408
  store i8* %id, i8** %id.addr, align 8
  call void @llvm.dbg.declare(metadata i8** %id.addr, metadata !11409, metadata !DIExpression()), !dbg !11410
  %this1 = load %"class.dealii::SmartPointer.19"*, %"class.dealii::SmartPointer.19"** %this.addr, align 8
  %t2 = getelementptr inbounds %"class.dealii::SmartPointer.19", %"class.dealii::SmartPointer.19"* %this1, i32 0, i32 0, !dbg !11411
  %0 = load %"class.dealii::hp::MappingCollection"*, %"class.dealii::hp::MappingCollection"** %t.addr, align 8, !dbg !11412
  store %"class.dealii::hp::MappingCollection"* %0, %"class.dealii::hp::MappingCollection"** %t2, align 8, !dbg !11411
  %id3 = getelementptr inbounds %"class.dealii::SmartPointer.19", %"class.dealii::SmartPointer.19"* %this1, i32 0, i32 1, !dbg !11413
  %1 = load i8*, i8** %id.addr, align 8, !dbg !11414
  store i8* %1, i8** %id3, align 8, !dbg !11413
  %2 = load %"class.dealii::hp::MappingCollection"*, %"class.dealii::hp::MappingCollection"** %t.addr, align 8, !dbg !11415
  %cmp = icmp ne %"class.dealii::hp::MappingCollection"* %2, null, !dbg !11418
  br i1 %cmp, label %if.then, label %if.end, !dbg !11419

if.then:                                          ; preds = %entry
  %3 = load %"class.dealii::hp::MappingCollection"*, %"class.dealii::hp::MappingCollection"** %t.addr, align 8, !dbg !11420
  %4 = bitcast %"class.dealii::hp::MappingCollection"* %3 to %"class.dealii::Subscriptor"*, !dbg !11421
  %5 = load i8*, i8** %id.addr, align 8, !dbg !11422
  call void @_ZNK6dealii11Subscriptor9subscribeEPKc(%"class.dealii::Subscriptor"* %4, i8* %5), !dbg !11421
  br label %if.end, !dbg !11420

if.end:                                           ; preds = %if.then, %entry
  ret void, !dbg !11423
}

declare dso_local i32 @__gxx_personality_v0(...)

; Function Attrs: noinline uwtable
define linkonce_odr dso_local void @_ZN6dealii2hp11QCollectionILi3EEC2ERKS2_(%"class.dealii::hp::QCollection"* %this, %"class.dealii::hp::QCollection"* dereferenceable(96) %q_collection) unnamed_addr #0 comdat align 2 personality i8* bitcast (i32 (...)* @__gxx_personality_v0 to i8*) !dbg !11424 {
entry:
  %this.addr = alloca %"class.dealii::hp::QCollection"*, align 8
  %q_collection.addr = alloca %"class.dealii::hp::QCollection"*, align 8
  %exn.slot = alloca i8*
  %ehselector.slot = alloca i32
  store %"class.dealii::hp::QCollection"* %this, %"class.dealii::hp::QCollection"** %this.addr, align 8
  call void @llvm.dbg.declare(metadata %"class.dealii::hp::QCollection"** %this.addr, metadata !11425, metadata !DIExpression()), !dbg !11427
  store %"class.dealii::hp::QCollection"* %q_collection, %"class.dealii::hp::QCollection"** %q_collection.addr, align 8
  call void @llvm.dbg.declare(metadata %"class.dealii::hp::QCollection"** %q_collection.addr, metadata !11428, metadata !DIExpression()), !dbg !11429
  %this1 = load %"class.dealii::hp::QCollection"*, %"class.dealii::hp::QCollection"** %this.addr, align 8
  %0 = bitcast %"class.dealii::hp::QCollection"* %this1 to %"class.dealii::Subscriptor"*, !dbg !11430
  call void @_ZN6dealii11SubscriptorC2Ev(%"class.dealii::Subscriptor"* %0), !dbg !11431
  %1 = bitcast %"class.dealii::hp::QCollection"* %this1 to i32 (...)***, !dbg !11430
  store i32 (...)** bitcast (i8** getelementptr inbounds ({ [4 x i8*] }, { [4 x i8*] }* @_ZTVN6dealii2hp11QCollectionILi3EEE, i32 0, inrange i32 0, i32 2) to i32 (...)**), i32 (...)*** %1, align 8, !dbg !11430
  %quadratures = getelementptr inbounds %"class.dealii::hp::QCollection", %"class.dealii::hp::QCollection"* %this1, i32 0, i32 1, !dbg !11432
  %2 = load %"class.dealii::hp::QCollection"*, %"class.dealii::hp::QCollection"** %q_collection.addr, align 8, !dbg !11433
  %quadratures2 = getelementptr inbounds %"class.dealii::hp::QCollection", %"class.dealii::hp::QCollection"* %2, i32 0, i32 1, !dbg !11434
  invoke void @_ZNSt6vectorIN5boost10shared_ptrIKN6dealii10QuadratureILi3EEEEESaIS6_EEC2ERKS8_(%"class.std::vector.26"* %quadratures, %"class.std::vector.26"* dereferenceable(24) %quadratures2)
          to label %invoke.cont unwind label %lpad, !dbg !11432

invoke.cont:                                      ; preds = %entry
  ret void, !dbg !11435

lpad:                                             ; preds = %entry
  %3 = landingpad { i8*, i32 }
          cleanup, !dbg !11435
  %4 = extractvalue { i8*, i32 } %3, 0, !dbg !11435
  store i8* %4, i8** %exn.slot, align 8, !dbg !11435
  %5 = extractvalue { i8*, i32 } %3, 1, !dbg !11435
  store i32 %5, i32* %ehselector.slot, align 4, !dbg !11435
  %6 = bitcast %"class.dealii::hp::QCollection"* %this1 to %"class.dealii::Subscriptor"*, !dbg !11436
  call void @_ZN6dealii11SubscriptorD2Ev(%"class.dealii::Subscriptor"* %6) #4, !dbg !11436
  br label %eh.resume, !dbg !11436

eh.resume:                                        ; preds = %lpad
  %exn = load i8*, i8** %exn.slot, align 8, !dbg !11436
  %sel = load i32, i32* %ehselector.slot, align 4, !dbg !11436
  %lpad.val = insertvalue { i8*, i32 } undef, i8* %exn, 0, !dbg !11436
  %lpad.val3 = insertvalue { i8*, i32 } %lpad.val, i32 %sel, 1, !dbg !11436
  resume { i8*, i32 } %lpad.val3, !dbg !11436
}

; Function Attrs: noinline nounwind uwtable
define linkonce_odr dso_local i32 @_ZNK6dealii2hp12FECollectionILi3ELi3EE4sizeEv(%"class.dealii::hp::FECollection"* %this) #1 comdat align 2 !dbg !11438 {
entry:
  %this.addr = alloca %"class.dealii::hp::FECollection"*, align 8
  store %"class.dealii::hp::FECollection"* %this, %"class.dealii::hp::FECollection"** %this.addr, align 8
  call void @llvm.dbg.declare(metadata %"class.dealii::hp::FECollection"** %this.addr, metadata !11443, metadata !DIExpression()), !dbg !11444
  %this1 = load %"class.dealii::hp::FECollection"*, %"class.dealii::hp::FECollection"** %this.addr, align 8
  %finite_elements = getelementptr inbounds %"class.dealii::hp::FECollection", %"class.dealii::hp::FECollection"* %this1, i32 0, i32 1, !dbg !11445
  %call = call i64 @_ZNKSt6vectorIN5boost10shared_ptrIKN6dealii13FiniteElementILi3ELi3EEEEESaIS6_EE4sizeEv(%"class.std::vector"* %finite_elements) #4, !dbg !11446
  %conv = trunc i64 %call to i32, !dbg !11445
  ret i32 %conv, !dbg !11447
}

; Function Attrs: noinline nounwind uwtable
define linkonce_odr dso_local i32 @_ZNK6dealii2hp17MappingCollectionILi3ELi3EE4sizeEv(%"class.dealii::hp::MappingCollection"* %this) #1 comdat align 2 !dbg !11448 {
entry:
  %this.addr = alloca %"class.dealii::hp::MappingCollection"*, align 8
  store %"class.dealii::hp::MappingCollection"* %this, %"class.dealii::hp::MappingCollection"** %this.addr, align 8
  call void @llvm.dbg.declare(metadata %"class.dealii::hp::MappingCollection"** %this.addr, metadata !11453, metadata !DIExpression()), !dbg !11454
  %this1 = load %"class.dealii::hp::MappingCollection"*, %"class.dealii::hp::MappingCollection"** %this.addr, align 8
  %mappings = getelementptr inbounds %"class.dealii::hp::MappingCollection", %"class.dealii::hp::MappingCollection"* %this1, i32 0, i32 1, !dbg !11455
  %call = call i64 @_ZNKSt6vectorIN5boost10shared_ptrIKN6dealii7MappingILi3ELi3EEEEESaIS6_EE4sizeEv(%"class.std::vector.20"* %mappings) #4, !dbg !11456
  %conv = trunc i64 %call to i32, !dbg !11455
  ret i32 %conv, !dbg !11457
}

; Function Attrs: noinline nounwind uwtable
define linkonce_odr dso_local i32 @_ZNK6dealii2hp11QCollectionILi3EE4sizeEv(%"class.dealii::hp::QCollection"* %this) #1 comdat align 2 !dbg !11458 {
entry:
  %this.addr = alloca %"class.dealii::hp::QCollection"*, align 8
  store %"class.dealii::hp::QCollection"* %this, %"class.dealii::hp::QCollection"** %this.addr, align 8
  call void @llvm.dbg.declare(metadata %"class.dealii::hp::QCollection"** %this.addr, metadata !11459, metadata !DIExpression()), !dbg !11461
  %this1 = load %"class.dealii::hp::QCollection"*, %"class.dealii::hp::QCollection"** %this.addr, align 8
  %quadratures = getelementptr inbounds %"class.dealii::hp::QCollection", %"class.dealii::hp::QCollection"* %this1, i32 0, i32 1, !dbg !11462
  %call = call i64 @_ZNKSt6vectorIN5boost10shared_ptrIKN6dealii10QuadratureILi3EEEEESaIS6_EE4sizeEv(%"class.std::vector.26"* %quadratures) #4, !dbg !11463
  %conv = trunc i64 %call to i32, !dbg !11462
  ret i32 %conv, !dbg !11464
}

; Function Attrs: noinline uwtable
define linkonce_odr dso_local void @_ZN6dealii5TableILi3EN5boost10shared_ptrINS_8FEValuesILi3ELi3EEEEEEC2Ejjj(%"class.dealii::Table"* %this, i32 %size1, i32 %size2, i32 %size3) unnamed_addr #0 comdat align 2 !dbg !11465 {
entry:
  %this.addr = alloca %"class.dealii::Table"*, align 8
  %size1.addr = alloca i32, align 4
  %size2.addr = alloca i32, align 4
  %size3.addr = alloca i32, align 4
  %ref.tmp = alloca %"class.dealii::TableIndices", align 4
  store %"class.dealii::Table"* %this, %"class.dealii::Table"** %this.addr, align 8
  call void @llvm.dbg.declare(metadata %"class.dealii::Table"** %this.addr, metadata !11466, metadata !DIExpression()), !dbg !11468
  store i32 %size1, i32* %size1.addr, align 4
  call void @llvm.dbg.declare(metadata i32* %size1.addr, metadata !11469, metadata !DIExpression()), !dbg !11470
  store i32 %size2, i32* %size2.addr, align 4
  call void @llvm.dbg.declare(metadata i32* %size2.addr, metadata !11471, metadata !DIExpression()), !dbg !11472
  store i32 %size3, i32* %size3.addr, align 4
  call void @llvm.dbg.declare(metadata i32* %size3.addr, metadata !11473, metadata !DIExpression()), !dbg !11474
  %this1 = load %"class.dealii::Table"*, %"class.dealii::Table"** %this.addr, align 8
  %0 = bitcast %"class.dealii::Table"* %this1 to %"class.dealii::TableBase"*, !dbg !11475
  %1 = load i32, i32* %size1.addr, align 4, !dbg !11476
  %2 = load i32, i32* %size2.addr, align 4, !dbg !11477
  %3 = load i32, i32* %size3.addr, align 4, !dbg !11478
  call void @_ZN6dealii12TableIndicesILi3EEC2Ejjj(%"class.dealii::TableIndices"* %ref.tmp, i32 %1, i32 %2, i32 %3), !dbg !11479
  call void @_ZN6dealii9TableBaseILi3EN5boost10shared_ptrINS_8FEValuesILi3ELi3EEEEEEC2ERKNS_12TableIndicesILi3EEE(%"class.dealii::TableBase"* %0, %"class.dealii::TableIndices"* dereferenceable(12) %ref.tmp), !dbg !11480
  %4 = bitcast %"class.dealii::Table"* %this1 to i32 (...)***, !dbg !11475
  store i32 (...)** bitcast (i8** getelementptr inbounds ({ [4 x i8*] }, { [4 x i8*] }* @_ZTVN6dealii5TableILi3EN5boost10shared_ptrINS_8FEValuesILi3ELi3EEEEEEE, i32 0, inrange i32 0, i32 2) to i32 (...)**), i32 (...)*** %4, align 8, !dbg !11475
  ret void, !dbg !11481
}

; Function Attrs: noinline nounwind uwtable
define linkonce_odr dso_local void @_ZN6dealii12TableIndicesILi3EEC2Ejjj(%"class.dealii::TableIndices"* %this, i32 %index1, i32 %index2, i32 %index3) unnamed_addr #1 comdat align 2 !dbg !11482 {
entry:
  %this.addr = alloca %"class.dealii::TableIndices"*, align 8
  %index1.addr = alloca i32, align 4
  %index2.addr = alloca i32, align 4
  %index3.addr = alloca i32, align 4
  store %"class.dealii::TableIndices"* %this, %"class.dealii::TableIndices"** %this.addr, align 8
  call void @llvm.dbg.declare(metadata %"class.dealii::TableIndices"** %this.addr, metadata !11483, metadata !DIExpression()), !dbg !11485
  store i32 %index1, i32* %index1.addr, align 4
  call void @llvm.dbg.declare(metadata i32* %index1.addr, metadata !11486, metadata !DIExpression()), !dbg !11487
  store i32 %index2, i32* %index2.addr, align 4
  call void @llvm.dbg.declare(metadata i32* %index2.addr, metadata !11488, metadata !DIExpression()), !dbg !11489
  store i32 %index3, i32* %index3.addr, align 4
  call void @llvm.dbg.declare(metadata i32* %index3.addr, metadata !11490, metadata !DIExpression()), !dbg !11491
  %this1 = load %"class.dealii::TableIndices"*, %"class.dealii::TableIndices"** %this.addr, align 8
  %0 = bitcast %"class.dealii::TableIndices"* %this1 to %"class.dealii::TableIndicesBase"*, !dbg !11492
  %1 = load i32, i32* %index1.addr, align 4, !dbg !11493
  %2 = bitcast %"class.dealii::TableIndices"* %this1 to %"class.dealii::TableIndicesBase"*, !dbg !11495
  %indices = getelementptr inbounds %"class.dealii::TableIndicesBase", %"class.dealii::TableIndicesBase"* %2, i32 0, i32 0, !dbg !11495
  %arrayidx = getelementptr inbounds [3 x i32], [3 x i32]* %indices, i64 0, i64 0, !dbg !11496
  store i32 %1, i32* %arrayidx, align 4, !dbg !11497
  %3 = load i32, i32* %index2.addr, align 4, !dbg !11498
  %4 = bitcast %"class.dealii::TableIndices"* %this1 to %"class.dealii::TableIndicesBase"*, !dbg !11499
  %indices2 = getelementptr inbounds %"class.dealii::TableIndicesBase", %"class.dealii::TableIndicesBase"* %4, i32 0, i32 0, !dbg !11499
  %arrayidx3 = getelementptr inbounds [3 x i32], [3 x i32]* %indices2, i64 0, i64 1, !dbg !11500
  store i32 %3, i32* %arrayidx3, align 4, !dbg !11501
  %5 = load i32, i32* %index3.addr, align 4, !dbg !11502
  %6 = bitcast %"class.dealii::TableIndices"* %this1 to %"class.dealii::TableIndicesBase"*, !dbg !11503
  %indices4 = getelementptr inbounds %"class.dealii::TableIndicesBase", %"class.dealii::TableIndicesBase"* %6, i32 0, i32 0, !dbg !11503
  %arrayidx5 = getelementptr inbounds [3 x i32], [3 x i32]* %indices4, i64 0, i64 2, !dbg !11504
  store i32 %5, i32* %arrayidx5, align 4, !dbg !11505
  ret void, !dbg !11506
}

; Function Attrs: noinline nounwind uwtable
define linkonce_odr dso_local void @_ZN6dealii5TableILi3EN5boost10shared_ptrINS_8FEValuesILi3ELi3EEEEEED2Ev(%"class.dealii::Table"* %this) unnamed_addr #1 comdat align 2 !dbg !11507 {
entry:
  %this.addr = alloca %"class.dealii::Table"*, align 8
  store %"class.dealii::Table"* %this, %"class.dealii::Table"** %this.addr, align 8
  call void @llvm.dbg.declare(metadata %"class.dealii::Table"** %this.addr, metadata !11509, metadata !DIExpression()), !dbg !11510
  %this1 = load %"class.dealii::Table"*, %"class.dealii::Table"** %this.addr, align 8
  %0 = bitcast %"class.dealii::Table"* %this1 to %"class.dealii::TableBase"*, !dbg !11511
  call void @_ZN6dealii9TableBaseILi3EN5boost10shared_ptrINS_8FEValuesILi3ELi3EEEEEED2Ev(%"class.dealii::TableBase"* %0) #4, !dbg !11511
  ret void, !dbg !11513
}

; Function Attrs: noinline nounwind uwtable
define linkonce_odr dso_local void @_ZN6dealii2hp11QCollectionILi3EED2Ev(%"class.dealii::hp::QCollection"* %this) unnamed_addr #1 comdat align 2 !dbg !11514 {
entry:
  %this.addr = alloca %"class.dealii::hp::QCollection"*, align 8
  store %"class.dealii::hp::QCollection"* %this, %"class.dealii::hp::QCollection"** %this.addr, align 8
  call void @llvm.dbg.declare(metadata %"class.dealii::hp::QCollection"** %this.addr, metadata !11516, metadata !DIExpression()), !dbg !11517
  %this1 = load %"class.dealii::hp::QCollection"*, %"class.dealii::hp::QCollection"** %this.addr, align 8
  %0 = bitcast %"class.dealii::hp::QCollection"* %this1 to i32 (...)***, !dbg !11518
  store i32 (...)** bitcast (i8** getelementptr inbounds ({ [4 x i8*] }, { [4 x i8*] }* @_ZTVN6dealii2hp11QCollectionILi3EEE, i32 0, inrange i32 0, i32 2) to i32 (...)**), i32 (...)*** %0, align 8, !dbg !11518
  %quadratures = getelementptr inbounds %"class.dealii::hp::QCollection", %"class.dealii::hp::QCollection"* %this1, i32 0, i32 1, !dbg !11519
  call void @_ZNSt6vectorIN5boost10shared_ptrIKN6dealii10QuadratureILi3EEEEESaIS6_EED2Ev(%"class.std::vector.26"* %quadratures) #4, !dbg !11519
  %1 = bitcast %"class.dealii::hp::QCollection"* %this1 to %"class.dealii::Subscriptor"*, !dbg !11519
  call void @_ZN6dealii11SubscriptorD2Ev(%"class.dealii::Subscriptor"* %1) #4, !dbg !11519
  ret void, !dbg !11518
}

; Function Attrs: noinline nounwind uwtable
define linkonce_odr dso_local void @_ZN6dealii12SmartPointerIKNS_2hp17MappingCollectionILi3ELi3EEEED2Ev(%"class.dealii::SmartPointer.19"* %this) unnamed_addr #1 comdat align 2 personality i8* bitcast (i32 (...)* @__gxx_personality_v0 to i8*) !dbg !11521 {
entry:
  %this.addr = alloca %"class.dealii::SmartPointer.19"*, align 8
  store %"class.dealii::SmartPointer.19"* %this, %"class.dealii::SmartPointer.19"** %this.addr, align 8
  call void @llvm.dbg.declare(metadata %"class.dealii::SmartPointer.19"** %this.addr, metadata !11522, metadata !DIExpression()), !dbg !11523
  %this1 = load %"class.dealii::SmartPointer.19"*, %"class.dealii::SmartPointer.19"** %this.addr, align 8
  %t = getelementptr inbounds %"class.dealii::SmartPointer.19", %"class.dealii::SmartPointer.19"* %this1, i32 0, i32 0, !dbg !11524
  %0 = load %"class.dealii::hp::MappingCollection"*, %"class.dealii::hp::MappingCollection"** %t, align 8, !dbg !11524
  %cmp = icmp ne %"class.dealii::hp::MappingCollection"* %0, null, !dbg !11527
  br i1 %cmp, label %if.then, label %if.end, !dbg !11528

if.then:                                          ; preds = %entry
  %t2 = getelementptr inbounds %"class.dealii::SmartPointer.19", %"class.dealii::SmartPointer.19"* %this1, i32 0, i32 0, !dbg !11529
  %1 = load %"class.dealii::hp::MappingCollection"*, %"class.dealii::hp::MappingCollection"** %t2, align 8, !dbg !11529
  %2 = bitcast %"class.dealii::hp::MappingCollection"* %1 to %"class.dealii::Subscriptor"*, !dbg !11530
  %id = getelementptr inbounds %"class.dealii::SmartPointer.19", %"class.dealii::SmartPointer.19"* %this1, i32 0, i32 1, !dbg !11531
  %3 = load i8*, i8** %id, align 8, !dbg !11531
  invoke void @_ZNK6dealii11Subscriptor11unsubscribeEPKc(%"class.dealii::Subscriptor"* %2, i8* %3)
          to label %invoke.cont unwind label %terminate.lpad, !dbg !11530

invoke.cont:                                      ; preds = %if.then
  br label %if.end, !dbg !11529

if.end:                                           ; preds = %invoke.cont, %entry
  ret void, !dbg !11532

terminate.lpad:                                   ; preds = %if.then
  %4 = landingpad { i8*, i32 }
          catch i8* null, !dbg !11530
  %5 = extractvalue { i8*, i32 } %4, 0, !dbg !11530
  call void @__clang_call_terminate(i8* %5) #12, !dbg !11530
  unreachable, !dbg !11530
}

; Function Attrs: noinline nounwind uwtable
define linkonce_odr dso_local void @_ZN6dealii12SmartPointerIKNS_2hp12FECollectionILi3ELi3EEEED2Ev(%"class.dealii::SmartPointer"* %this) unnamed_addr #1 comdat align 2 personality i8* bitcast (i32 (...)* @__gxx_personality_v0 to i8*) !dbg !11533 {
entry:
  %this.addr = alloca %"class.dealii::SmartPointer"*, align 8
  store %"class.dealii::SmartPointer"* %this, %"class.dealii::SmartPointer"** %this.addr, align 8
  call void @llvm.dbg.declare(metadata %"class.dealii::SmartPointer"** %this.addr, metadata !11534, metadata !DIExpression()), !dbg !11535
  %this1 = load %"class.dealii::SmartPointer"*, %"class.dealii::SmartPointer"** %this.addr, align 8
  %t = getelementptr inbounds %"class.dealii::SmartPointer", %"class.dealii::SmartPointer"* %this1, i32 0, i32 0, !dbg !11536
  %0 = load %"class.dealii::hp::FECollection"*, %"class.dealii::hp::FECollection"** %t, align 8, !dbg !11536
  %cmp = icmp ne %"class.dealii::hp::FECollection"* %0, null, !dbg !11539
  br i1 %cmp, label %if.then, label %if.end, !dbg !11540

if.then:                                          ; preds = %entry
  %t2 = getelementptr inbounds %"class.dealii::SmartPointer", %"class.dealii::SmartPointer"* %this1, i32 0, i32 0, !dbg !11541
  %1 = load %"class.dealii::hp::FECollection"*, %"class.dealii::hp::FECollection"** %t2, align 8, !dbg !11541
  %2 = bitcast %"class.dealii::hp::FECollection"* %1 to %"class.dealii::Subscriptor"*, !dbg !11542
  %id = getelementptr inbounds %"class.dealii::SmartPointer", %"class.dealii::SmartPointer"* %this1, i32 0, i32 1, !dbg !11543
  %3 = load i8*, i8** %id, align 8, !dbg !11543
  invoke void @_ZNK6dealii11Subscriptor11unsubscribeEPKc(%"class.dealii::Subscriptor"* %2, i8* %3)
          to label %invoke.cont unwind label %terminate.lpad, !dbg !11542

invoke.cont:                                      ; preds = %if.then
  br label %if.end, !dbg !11541

if.end:                                           ; preds = %invoke.cont, %entry
  ret void, !dbg !11544

terminate.lpad:                                   ; preds = %if.then
  %4 = landingpad { i8*, i32 }
          catch i8* null, !dbg !11542
  %5 = extractvalue { i8*, i32 } %4, 0, !dbg !11542
  call void @__clang_call_terminate(i8* %5) #12, !dbg !11542
  unreachable, !dbg !11542
}

; Function Attrs: noinline uwtable
define weak_odr dso_local void @_ZN6dealii8internal2hp12FEValuesBaseILi3ELi3ENS_8FEValuesILi3ELi3EEEEC2ERKNS_2hp12FECollectionILi3ELi3EEERKNS6_11QCollectionILi3EEENS_11UpdateFlagsE(%"class.dealii::internal::hp::FEValuesBase"* %this, %"class.dealii::hp::FECollection"* dereferenceable(96) %fe_collection, %"class.dealii::hp::QCollection"* dereferenceable(96) %q_collection, i32 %update_flags) unnamed_addr #0 comdat($_ZN6dealii8internal2hp12FEValuesBaseILi3ELi3ENS_8FEValuesILi3ELi3EEEEC5ERKNS_2hp12FECollectionILi3ELi3EEERKNS6_11QCollectionILi3EEENS_11UpdateFlagsE) align 2 personality i8* bitcast (i32 (...)* @__gxx_personality_v0 to i8*) !dbg !11545 {
entry:
  %this.addr = alloca %"class.dealii::internal::hp::FEValuesBase"*, align 8
  %fe_collection.addr = alloca %"class.dealii::hp::FECollection"*, align 8
  %q_collection.addr = alloca %"class.dealii::hp::QCollection"*, align 8
  %update_flags.addr = alloca i32, align 4
  %exn.slot = alloca i8*
  %ehselector.slot = alloca i32
  store %"class.dealii::internal::hp::FEValuesBase"* %this, %"class.dealii::internal::hp::FEValuesBase"** %this.addr, align 8
  call void @llvm.dbg.declare(metadata %"class.dealii::internal::hp::FEValuesBase"** %this.addr, metadata !11546, metadata !DIExpression()), !dbg !11547
  store %"class.dealii::hp::FECollection"* %fe_collection, %"class.dealii::hp::FECollection"** %fe_collection.addr, align 8
  call void @llvm.dbg.declare(metadata %"class.dealii::hp::FECollection"** %fe_collection.addr, metadata !11548, metadata !DIExpression()), !dbg !11549
  store %"class.dealii::hp::QCollection"* %q_collection, %"class.dealii::hp::QCollection"** %q_collection.addr, align 8
  call void @llvm.dbg.declare(metadata %"class.dealii::hp::QCollection"** %q_collection.addr, metadata !11550, metadata !DIExpression()), !dbg !11551
  store i32 %update_flags, i32* %update_flags.addr, align 4
  call void @llvm.dbg.declare(metadata i32* %update_flags.addr, metadata !11552, metadata !DIExpression()), !dbg !11553
  %this1 = load %"class.dealii::internal::hp::FEValuesBase"*, %"class.dealii::internal::hp::FEValuesBase"** %this.addr, align 8
  %fe_collection2 = getelementptr inbounds %"class.dealii::internal::hp::FEValuesBase", %"class.dealii::internal::hp::FEValuesBase"* %this1, i32 0, i32 0, !dbg !11554
  %0 = load %"class.dealii::hp::FECollection"*, %"class.dealii::hp::FECollection"** %fe_collection.addr, align 8, !dbg !11555
  call void @_ZN6dealii12SmartPointerIKNS_2hp12FECollectionILi3ELi3EEEEC2EPS4_PKc(%"class.dealii::SmartPointer"* %fe_collection2, %"class.dealii::hp::FECollection"* %0, i8* null), !dbg !11554
  %mapping_collection = getelementptr inbounds %"class.dealii::internal::hp::FEValuesBase", %"class.dealii::internal::hp::FEValuesBase"* %this1, i32 0, i32 1, !dbg !11556
  invoke void @_ZN6dealii12SmartPointerIKNS_2hp17MappingCollectionILi3ELi3EEEEC2EPS4_PKc(%"class.dealii::SmartPointer.19"* %mapping_collection, %"class.dealii::hp::MappingCollection"* @_ZN6dealii2hp15StaticMappingQ1ILi3ELi3EE18mapping_collectionE, i8* null)
          to label %invoke.cont unwind label %lpad, !dbg !11556

invoke.cont:                                      ; preds = %entry
  %q_collection3 = getelementptr inbounds %"class.dealii::internal::hp::FEValuesBase", %"class.dealii::internal::hp::FEValuesBase"* %this1, i32 0, i32 2, !dbg !11557
  %1 = load %"class.dealii::hp::QCollection"*, %"class.dealii::hp::QCollection"** %q_collection.addr, align 8, !dbg !11558
  invoke void @_ZN6dealii2hp11QCollectionILi3EEC2ERKS2_(%"class.dealii::hp::QCollection"* %q_collection3, %"class.dealii::hp::QCollection"* dereferenceable(96) %1)
          to label %invoke.cont5 unwind label %lpad4, !dbg !11557

invoke.cont5:                                     ; preds = %invoke.cont
  %fe_values_table = getelementptr inbounds %"class.dealii::internal::hp::FEValuesBase", %"class.dealii::internal::hp::FEValuesBase"* %this1, i32 0, i32 3, !dbg !11559
  %2 = load %"class.dealii::hp::FECollection"*, %"class.dealii::hp::FECollection"** %fe_collection.addr, align 8, !dbg !11560
  %call = invoke i32 @_ZNK6dealii2hp12FECollectionILi3ELi3EE4sizeEv(%"class.dealii::hp::FECollection"* %2)
          to label %invoke.cont7 unwind label %lpad6, !dbg !11561

invoke.cont7:                                     ; preds = %invoke.cont5
  %3 = load %"class.dealii::hp::QCollection"*, %"class.dealii::hp::QCollection"** %q_collection.addr, align 8, !dbg !11562
  %call9 = invoke i32 @_ZNK6dealii2hp11QCollectionILi3EE4sizeEv(%"class.dealii::hp::QCollection"* %3)
          to label %invoke.cont8 unwind label %lpad6, !dbg !11563

invoke.cont8:                                     ; preds = %invoke.cont7
  invoke void @_ZN6dealii5TableILi3EN5boost10shared_ptrINS_8FEValuesILi3ELi3EEEEEEC2Ejjj(%"class.dealii::Table"* %fe_values_table, i32 %call, i32 1, i32 %call9)
          to label %invoke.cont10 unwind label %lpad6, !dbg !11559

invoke.cont10:                                    ; preds = %invoke.cont8
  %present_fe_values_index = getelementptr inbounds %"class.dealii::internal::hp::FEValuesBase", %"class.dealii::internal::hp::FEValuesBase"* %this1, i32 0, i32 4, !dbg !11564
  invoke void @_ZN6dealii12TableIndicesILi3EEC2Ejjj(%"class.dealii::TableIndices"* %present_fe_values_index, i32 -1, i32 -1, i32 -1)
          to label %invoke.cont12 unwind label %lpad11, !dbg !11564

invoke.cont12:                                    ; preds = %invoke.cont10
  %update_flags13 = getelementptr inbounds %"class.dealii::internal::hp::FEValuesBase", %"class.dealii::internal::hp::FEValuesBase"* %this1, i32 0, i32 5, !dbg !11565
  %4 = load i32, i32* %update_flags.addr, align 4, !dbg !11566
  store i32 %4, i32* %update_flags13, align 4, !dbg !11565
  ret void, !dbg !11567

lpad:                                             ; preds = %entry
  %5 = landingpad { i8*, i32 }
          cleanup, !dbg !11567
  %6 = extractvalue { i8*, i32 } %5, 0, !dbg !11567
  store i8* %6, i8** %exn.slot, align 8, !dbg !11567
  %7 = extractvalue { i8*, i32 } %5, 1, !dbg !11567
  store i32 %7, i32* %ehselector.slot, align 4, !dbg !11567
  br label %ehcleanup15, !dbg !11567

lpad4:                                            ; preds = %invoke.cont
  %8 = landingpad { i8*, i32 }
          cleanup, !dbg !11567
  %9 = extractvalue { i8*, i32 } %8, 0, !dbg !11567
  store i8* %9, i8** %exn.slot, align 8, !dbg !11567
  %10 = extractvalue { i8*, i32 } %8, 1, !dbg !11567
  store i32 %10, i32* %ehselector.slot, align 4, !dbg !11567
  br label %ehcleanup14, !dbg !11567

lpad6:                                            ; preds = %invoke.cont8, %invoke.cont7, %invoke.cont5
  %11 = landingpad { i8*, i32 }
          cleanup, !dbg !11567
  %12 = extractvalue { i8*, i32 } %11, 0, !dbg !11567
  store i8* %12, i8** %exn.slot, align 8, !dbg !11567
  %13 = extractvalue { i8*, i32 } %11, 1, !dbg !11567
  store i32 %13, i32* %ehselector.slot, align 4, !dbg !11567
  br label %ehcleanup, !dbg !11567

lpad11:                                           ; preds = %invoke.cont10
  %14 = landingpad { i8*, i32 }
          cleanup, !dbg !11567
  %15 = extractvalue { i8*, i32 } %14, 0, !dbg !11567
  store i8* %15, i8** %exn.slot, align 8, !dbg !11567
  %16 = extractvalue { i8*, i32 } %14, 1, !dbg !11567
  store i32 %16, i32* %ehselector.slot, align 4, !dbg !11567
  call void @_ZN6dealii5TableILi3EN5boost10shared_ptrINS_8FEValuesILi3ELi3EEEEEED2Ev(%"class.dealii::Table"* %fe_values_table) #4, !dbg !11568
  br label %ehcleanup, !dbg !11568

ehcleanup:                                        ; preds = %lpad11, %lpad6
  call void @_ZN6dealii2hp11QCollectionILi3EED2Ev(%"class.dealii::hp::QCollection"* %q_collection3) #4, !dbg !11568
  br label %ehcleanup14, !dbg !11568

ehcleanup14:                                      ; preds = %ehcleanup, %lpad4
  call void @_ZN6dealii12SmartPointerIKNS_2hp17MappingCollectionILi3ELi3EEEED2Ev(%"class.dealii::SmartPointer.19"* %mapping_collection) #4, !dbg !11568
  br label %ehcleanup15, !dbg !11568

ehcleanup15:                                      ; preds = %ehcleanup14, %lpad
  call void @_ZN6dealii12SmartPointerIKNS_2hp12FECollectionILi3ELi3EEEED2Ev(%"class.dealii::SmartPointer"* %fe_collection2) #4, !dbg !11568
  br label %eh.resume, !dbg !11568

eh.resume:                                        ; preds = %ehcleanup15
  %exn = load i8*, i8** %exn.slot, align 8, !dbg !11568
  %sel = load i32, i32* %ehselector.slot, align 4, !dbg !11568
  %lpad.val = insertvalue { i8*, i32 } undef, i8* %exn, 0, !dbg !11568
  %lpad.val16 = insertvalue { i8*, i32 } %lpad.val, i32 %sel, 1, !dbg !11568
  resume { i8*, i32 } %lpad.val16, !dbg !11568
}

; Function Attrs: noinline uwtable
define weak_odr dso_local dereferenceable(776) %"class.dealii::FEValues"* @_ZNK6dealii8internal2hp12FEValuesBaseILi3ELi3ENS_8FEValuesILi3ELi3EEEE21get_present_fe_valuesEv(%"class.dealii::internal::hp::FEValuesBase"* %this) #0 comdat align 2 !dbg !11570 {
entry:
  %this.addr = alloca %"class.dealii::internal::hp::FEValuesBase"*, align 8
  store %"class.dealii::internal::hp::FEValuesBase"* %this, %"class.dealii::internal::hp::FEValuesBase"** %this.addr, align 8
  call void @llvm.dbg.declare(metadata %"class.dealii::internal::hp::FEValuesBase"** %this.addr, metadata !11571, metadata !DIExpression()), !dbg !11573
  %this1 = load %"class.dealii::internal::hp::FEValuesBase"*, %"class.dealii::internal::hp::FEValuesBase"** %this.addr, align 8
  %fe_values_table = getelementptr inbounds %"class.dealii::internal::hp::FEValuesBase", %"class.dealii::internal::hp::FEValuesBase"* %this1, i32 0, i32 3, !dbg !11574
  %present_fe_values_index = getelementptr inbounds %"class.dealii::internal::hp::FEValuesBase", %"class.dealii::internal::hp::FEValuesBase"* %this1, i32 0, i32 4, !dbg !11575
  %call = call dereferenceable(16) %"class.boost::shared_ptr.32"* @_ZNK6dealii5TableILi3EN5boost10shared_ptrINS_8FEValuesILi3ELi3EEEEEEclERKNS_12TableIndicesILi3EEE(%"class.dealii::Table"* %fe_values_table, %"class.dealii::TableIndices"* dereferenceable(12) %present_fe_values_index), !dbg !11574
  %call2 = call dereferenceable(776) %"class.dealii::FEValues"* @_ZNK5boost10shared_ptrIN6dealii8FEValuesILi3ELi3EEEEdeEv(%"class.boost::shared_ptr.32"* %call), !dbg !11576
  ret %"class.dealii::FEValues"* %call2, !dbg !11577
}

; Function Attrs: noinline uwtable
define linkonce_odr dso_local dereferenceable(16) %"class.boost::shared_ptr.32"* @_ZNK6dealii5TableILi3EN5boost10shared_ptrINS_8FEValuesILi3ELi3EEEEEEclERKNS_12TableIndicesILi3EEE(%"class.dealii::Table"* %this, %"class.dealii::TableIndices"* dereferenceable(12) %indices) #0 comdat align 2 !dbg !11578 {
entry:
  %this.addr = alloca %"class.dealii::Table"*, align 8
  %indices.addr = alloca %"class.dealii::TableIndices"*, align 8
  store %"class.dealii::Table"* %this, %"class.dealii::Table"** %this.addr, align 8
  call void @llvm.dbg.declare(metadata %"class.dealii::Table"** %this.addr, metadata !11579, metadata !DIExpression()), !dbg !11581
  store %"class.dealii::TableIndices"* %indices, %"class.dealii::TableIndices"** %indices.addr, align 8
  call void @llvm.dbg.declare(metadata %"class.dealii::TableIndices"** %indices.addr, metadata !11582, metadata !DIExpression()), !dbg !11583
  %this1 = load %"class.dealii::Table"*, %"class.dealii::Table"** %this.addr, align 8
  %0 = bitcast %"class.dealii::Table"* %this1 to %"class.dealii::TableBase"*, !dbg !11584
  %1 = load %"class.dealii::TableIndices"*, %"class.dealii::TableIndices"** %indices.addr, align 8, !dbg !11585
  %call = call dereferenceable(16) %"class.boost::shared_ptr.32"* @_ZNK6dealii9TableBaseILi3EN5boost10shared_ptrINS_8FEValuesILi3ELi3EEEEEEclERKNS_12TableIndicesILi3EEE(%"class.dealii::TableBase"* %0, %"class.dealii::TableIndices"* dereferenceable(12) %1), !dbg !11584
  ret %"class.boost::shared_ptr.32"* %call, !dbg !11586
}

; Function Attrs: noinline nounwind uwtable
define linkonce_odr dso_local dereferenceable(776) %"class.dealii::FEValues"* @_ZNK5boost10shared_ptrIN6dealii8FEValuesILi3ELi3EEEEdeEv(%"class.boost::shared_ptr.32"* %this) #1 comdat align 2 !dbg !11587 {
entry:
  %this.addr = alloca %"class.boost::shared_ptr.32"*, align 8
  store %"class.boost::shared_ptr.32"* %this, %"class.boost::shared_ptr.32"** %this.addr, align 8
  call void @llvm.dbg.declare(metadata %"class.boost::shared_ptr.32"** %this.addr, metadata !11588, metadata !DIExpression()), !dbg !11589
  %this1 = load %"class.boost::shared_ptr.32"*, %"class.boost::shared_ptr.32"** %this.addr, align 8
  %px = getelementptr inbounds %"class.boost::shared_ptr.32", %"class.boost::shared_ptr.32"* %this1, i32 0, i32 0, !dbg !11590
  %0 = load %"class.dealii::FEValues"*, %"class.dealii::FEValues"** %px, align 8, !dbg !11590
  ret %"class.dealii::FEValues"* %0, !dbg !11591
}

; Function Attrs: noinline uwtable
define weak_odr dso_local dereferenceable(776) %"class.dealii::FEValues"* @_ZN6dealii8internal2hp12FEValuesBaseILi3ELi3ENS_8FEValuesILi3ELi3EEEE16select_fe_valuesEjjj(%"class.dealii::internal::hp::FEValuesBase"* %this, i32 %fe_index, i32 %mapping_index, i32 %q_index) #0 comdat align 2 personality i8* bitcast (i32 (...)* @__gxx_personality_v0 to i8*) !dbg !11592 {
entry:
  %this.addr = alloca %"class.dealii::internal::hp::FEValuesBase"*, align 8
  %fe_index.addr = alloca i32, align 4
  %mapping_index.addr = alloca i32, align 4
  %q_index.addr = alloca i32, align 4
  %ref.tmp = alloca %"class.dealii::TableIndices", align 4
  %ref.tmp4 = alloca %"class.boost::shared_ptr.32", align 8
  %exn.slot = alloca i8*
  %ehselector.slot = alloca i32
  store %"class.dealii::internal::hp::FEValuesBase"* %this, %"class.dealii::internal::hp::FEValuesBase"** %this.addr, align 8
  call void @llvm.dbg.declare(metadata %"class.dealii::internal::hp::FEValuesBase"** %this.addr, metadata !11593, metadata !DIExpression()), !dbg !11594
  store i32 %fe_index, i32* %fe_index.addr, align 4
  call void @llvm.dbg.declare(metadata i32* %fe_index.addr, metadata !11595, metadata !DIExpression()), !dbg !11596
  store i32 %mapping_index, i32* %mapping_index.addr, align 4
  call void @llvm.dbg.declare(metadata i32* %mapping_index.addr, metadata !11597, metadata !DIExpression()), !dbg !11598
  store i32 %q_index, i32* %q_index.addr, align 4
  call void @llvm.dbg.declare(metadata i32* %q_index.addr, metadata !11599, metadata !DIExpression()), !dbg !11600
  %this1 = load %"class.dealii::internal::hp::FEValuesBase"*, %"class.dealii::internal::hp::FEValuesBase"** %this.addr, align 8
  %0 = load i32, i32* %fe_index.addr, align 4, !dbg !11601
  %1 = load i32, i32* %mapping_index.addr, align 4, !dbg !11602
  %2 = load i32, i32* %q_index.addr, align 4, !dbg !11603
  call void @_ZN6dealii12TableIndicesILi3EEC2Ejjj(%"class.dealii::TableIndices"* %ref.tmp, i32 %0, i32 %1, i32 %2), !dbg !11604
  %present_fe_values_index = getelementptr inbounds %"class.dealii::internal::hp::FEValuesBase", %"class.dealii::internal::hp::FEValuesBase"* %this1, i32 0, i32 4, !dbg !11605
  %3 = bitcast %"class.dealii::TableIndices"* %present_fe_values_index to i8*, !dbg !11606
  %4 = bitcast %"class.dealii::TableIndices"* %ref.tmp to i8*, !dbg !11606
  call void @llvm.memcpy.p0i8.p0i8.i64(i8* align 8 %3, i8* align 4 %4, i64 12, i1 false), !dbg !11606
  %fe_values_table = getelementptr inbounds %"class.dealii::internal::hp::FEValuesBase", %"class.dealii::internal::hp::FEValuesBase"* %this1, i32 0, i32 3, !dbg !11607
  %present_fe_values_index2 = getelementptr inbounds %"class.dealii::internal::hp::FEValuesBase", %"class.dealii::internal::hp::FEValuesBase"* %this1, i32 0, i32 4, !dbg !11609
  %call = call dereferenceable(16) %"class.boost::shared_ptr.32"* @_ZN6dealii5TableILi3EN5boost10shared_ptrINS_8FEValuesILi3ELi3EEEEEEclERKNS_12TableIndicesILi3EEE(%"class.dealii::Table"* %fe_values_table, %"class.dealii::TableIndices"* dereferenceable(12) %present_fe_values_index2), !dbg !11607
  %call3 = call i64 @_ZNK5boost10shared_ptrIN6dealii8FEValuesILi3ELi3EEEEcvMS4_PS3_Ev(%"class.boost::shared_ptr.32"* %call), !dbg !11607
  %5 = icmp eq i64 %call3, -1, !dbg !11610
  br i1 %5, label %if.then, label %if.end, !dbg !11611

if.then:                                          ; preds = %entry
  %call5 = call i8* @_Znwm(i64 776) #13, !dbg !11612
  %6 = bitcast i8* %call5 to %"class.dealii::FEValues"*, !dbg !11612
  %mapping_collection = getelementptr inbounds %"class.dealii::internal::hp::FEValuesBase", %"class.dealii::internal::hp::FEValuesBase"* %this1, i32 0, i32 1, !dbg !11613
  %call6 = invoke dereferenceable(96) %"class.dealii::hp::MappingCollection"* @_ZNK6dealii12SmartPointerIKNS_2hp17MappingCollectionILi3ELi3EEEEdeEv(%"class.dealii::SmartPointer.19"* %mapping_collection)
          to label %invoke.cont unwind label %lpad, !dbg !11614

invoke.cont:                                      ; preds = %if.then
  %7 = load i32, i32* %mapping_index.addr, align 4, !dbg !11615
  %call8 = invoke dereferenceable(72) %"class.dealii::Mapping"* @_ZNK6dealii2hp17MappingCollectionILi3ELi3EEixEj(%"class.dealii::hp::MappingCollection"* %call6, i32 %7)
          to label %invoke.cont7 unwind label %lpad, !dbg !11616

invoke.cont7:                                     ; preds = %invoke.cont
  %fe_collection = getelementptr inbounds %"class.dealii::internal::hp::FEValuesBase", %"class.dealii::internal::hp::FEValuesBase"* %this1, i32 0, i32 0, !dbg !11617
  %call10 = invoke dereferenceable(96) %"class.dealii::hp::FECollection"* @_ZNK6dealii12SmartPointerIKNS_2hp12FECollectionILi3ELi3EEEEdeEv(%"class.dealii::SmartPointer"* %fe_collection)
          to label %invoke.cont9 unwind label %lpad, !dbg !11618

invoke.cont9:                                     ; preds = %invoke.cont7
  %8 = load i32, i32* %fe_index.addr, align 4, !dbg !11619
  %call12 = invoke dereferenceable(728) %"class.dealii::FiniteElement"* @_ZNK6dealii2hp12FECollectionILi3ELi3EEixEj(%"class.dealii::hp::FECollection"* %call10, i32 %8)
          to label %invoke.cont11 unwind label %lpad, !dbg !11620

invoke.cont11:                                    ; preds = %invoke.cont9
  %q_collection = getelementptr inbounds %"class.dealii::internal::hp::FEValuesBase", %"class.dealii::internal::hp::FEValuesBase"* %this1, i32 0, i32 2, !dbg !11621
  %9 = load i32, i32* %q_index.addr, align 4, !dbg !11622
  %call14 = invoke dereferenceable(128) %"class.dealii::Quadrature"* @_ZNK6dealii2hp11QCollectionILi3EEixEj(%"class.dealii::hp::QCollection"* %q_collection, i32 %9)
          to label %invoke.cont13 unwind label %lpad, !dbg !11621

invoke.cont13:                                    ; preds = %invoke.cont11
  %update_flags = getelementptr inbounds %"class.dealii::internal::hp::FEValuesBase", %"class.dealii::internal::hp::FEValuesBase"* %this1, i32 0, i32 5, !dbg !11623
  %10 = load i32, i32* %update_flags, align 4, !dbg !11623
  invoke void @_ZN6dealii8FEValuesILi3ELi3EEC1ERKNS_7MappingILi3ELi3EEERKNS_13FiniteElementILi3ELi3EEERKNS_10QuadratureILi3EEENS_11UpdateFlagsE(%"class.dealii::FEValues"* %6, %"class.dealii::Mapping"* dereferenceable(72) %call8, %"class.dealii::FiniteElement"* dereferenceable(728) %call12, %"class.dealii::Quadrature"* dereferenceable(128) %call14, i32 %10)
          to label %invoke.cont15 unwind label %lpad, !dbg !11624

invoke.cont15:                                    ; preds = %invoke.cont13
  call void @_ZN5boost10shared_ptrIN6dealii8FEValuesILi3ELi3EEEEC2IS3_EEPT_(%"class.boost::shared_ptr.32"* %ref.tmp4, %"class.dealii::FEValues"* %6), !dbg !11625
  %fe_values_table16 = getelementptr inbounds %"class.dealii::internal::hp::FEValuesBase", %"class.dealii::internal::hp::FEValuesBase"* %this1, i32 0, i32 3, !dbg !11626
  %present_fe_values_index17 = getelementptr inbounds %"class.dealii::internal::hp::FEValuesBase", %"class.dealii::internal::hp::FEValuesBase"* %this1, i32 0, i32 4, !dbg !11627
  %call20 = invoke dereferenceable(16) %"class.boost::shared_ptr.32"* @_ZN6dealii5TableILi3EN5boost10shared_ptrINS_8FEValuesILi3ELi3EEEEEEclERKNS_12TableIndicesILi3EEE(%"class.dealii::Table"* %fe_values_table16, %"class.dealii::TableIndices"* dereferenceable(12) %present_fe_values_index17)
          to label %invoke.cont19 unwind label %lpad18, !dbg !11626

invoke.cont19:                                    ; preds = %invoke.cont15
  %call22 = invoke dereferenceable(16) %"class.boost::shared_ptr.32"* @_ZN5boost10shared_ptrIN6dealii8FEValuesILi3ELi3EEEEaSERKS4_(%"class.boost::shared_ptr.32"* %call20, %"class.boost::shared_ptr.32"* dereferenceable(16) %ref.tmp4)
          to label %invoke.cont21 unwind label %lpad18, !dbg !11628

invoke.cont21:                                    ; preds = %invoke.cont19
  call void @_ZN5boost10shared_ptrIN6dealii8FEValuesILi3ELi3EEEED2Ev(%"class.boost::shared_ptr.32"* %ref.tmp4) #4, !dbg !11626
  br label %if.end, !dbg !11626

lpad:                                             ; preds = %invoke.cont13, %invoke.cont11, %invoke.cont9, %invoke.cont7, %invoke.cont, %if.then
  %11 = landingpad { i8*, i32 }
          cleanup, !dbg !11629
  %12 = extractvalue { i8*, i32 } %11, 0, !dbg !11629
  store i8* %12, i8** %exn.slot, align 8, !dbg !11629
  %13 = extractvalue { i8*, i32 } %11, 1, !dbg !11629
  store i32 %13, i32* %ehselector.slot, align 4, !dbg !11629
  call void @_ZdlPv(i8* %call5) #14, !dbg !11612
  br label %eh.resume, !dbg !11612

lpad18:                                           ; preds = %invoke.cont19, %invoke.cont15
  %14 = landingpad { i8*, i32 }
          cleanup, !dbg !11629
  %15 = extractvalue { i8*, i32 } %14, 0, !dbg !11629
  store i8* %15, i8** %exn.slot, align 8, !dbg !11629
  %16 = extractvalue { i8*, i32 } %14, 1, !dbg !11629
  store i32 %16, i32* %ehselector.slot, align 4, !dbg !11629
  call void @_ZN5boost10shared_ptrIN6dealii8FEValuesILi3ELi3EEEED2Ev(%"class.boost::shared_ptr.32"* %ref.tmp4) #4, !dbg !11626
  br label %eh.resume, !dbg !11626

if.end:                                           ; preds = %invoke.cont21, %entry
  %fe_values_table23 = getelementptr inbounds %"class.dealii::internal::hp::FEValuesBase", %"class.dealii::internal::hp::FEValuesBase"* %this1, i32 0, i32 3, !dbg !11630
  %present_fe_values_index24 = getelementptr inbounds %"class.dealii::internal::hp::FEValuesBase", %"class.dealii::internal::hp::FEValuesBase"* %this1, i32 0, i32 4, !dbg !11631
  %call25 = call dereferenceable(16) %"class.boost::shared_ptr.32"* @_ZN6dealii5TableILi3EN5boost10shared_ptrINS_8FEValuesILi3ELi3EEEEEEclERKNS_12TableIndicesILi3EEE(%"class.dealii::Table"* %fe_values_table23, %"class.dealii::TableIndices"* dereferenceable(12) %present_fe_values_index24), !dbg !11630
  %call26 = call dereferenceable(776) %"class.dealii::FEValues"* @_ZNK5boost10shared_ptrIN6dealii8FEValuesILi3ELi3EEEEdeEv(%"class.boost::shared_ptr.32"* %call25), !dbg !11632
  ret %"class.dealii::FEValues"* %call26, !dbg !11633

eh.resume:                                        ; preds = %lpad18, %lpad
  %exn = load i8*, i8** %exn.slot, align 8, !dbg !11612
  %sel = load i32, i32* %ehselector.slot, align 4, !dbg !11612
  %lpad.val = insertvalue { i8*, i32 } undef, i8* %exn, 0, !dbg !11612
  %lpad.val27 = insertvalue { i8*, i32 } %lpad.val, i32 %sel, 1, !dbg !11612
  resume { i8*, i32 } %lpad.val27, !dbg !11612
}

; Function Attrs: argmemonly nounwind willreturn
declare void @llvm.memcpy.p0i8.p0i8.i64(i8* noalias nocapture writeonly, i8* noalias nocapture readonly, i64, i1 immarg) #6

; Function Attrs: noinline uwtable
define linkonce_odr dso_local dereferenceable(16) %"class.boost::shared_ptr.32"* @_ZN6dealii5TableILi3EN5boost10shared_ptrINS_8FEValuesILi3ELi3EEEEEEclERKNS_12TableIndicesILi3EEE(%"class.dealii::Table"* %this, %"class.dealii::TableIndices"* dereferenceable(12) %indices) #0 comdat align 2 !dbg !11634 {
entry:
  %this.addr = alloca %"class.dealii::Table"*, align 8
  %indices.addr = alloca %"class.dealii::TableIndices"*, align 8
  store %"class.dealii::Table"* %this, %"class.dealii::Table"** %this.addr, align 8
  call void @llvm.dbg.declare(metadata %"class.dealii::Table"** %this.addr, metadata !11635, metadata !DIExpression()), !dbg !11636
  store %"class.dealii::TableIndices"* %indices, %"class.dealii::TableIndices"** %indices.addr, align 8
  call void @llvm.dbg.declare(metadata %"class.dealii::TableIndices"** %indices.addr, metadata !11637, metadata !DIExpression()), !dbg !11638
  %this1 = load %"class.dealii::Table"*, %"class.dealii::Table"** %this.addr, align 8
  %0 = bitcast %"class.dealii::Table"* %this1 to %"class.dealii::TableBase"*, !dbg !11639
  %1 = load %"class.dealii::TableIndices"*, %"class.dealii::TableIndices"** %indices.addr, align 8, !dbg !11640
  %call = call dereferenceable(16) %"class.boost::shared_ptr.32"* @_ZN6dealii9TableBaseILi3EN5boost10shared_ptrINS_8FEValuesILi3ELi3EEEEEEclERKNS_12TableIndicesILi3EEE(%"class.dealii::TableBase"* %0, %"class.dealii::TableIndices"* dereferenceable(12) %1), !dbg !11639
  ret %"class.boost::shared_ptr.32"* %call, !dbg !11641
}

; Function Attrs: noinline nounwind uwtable
define linkonce_odr dso_local i64 @_ZNK5boost10shared_ptrIN6dealii8FEValuesILi3ELi3EEEEcvMS4_PS3_Ev(%"class.boost::shared_ptr.32"* %this) #1 comdat align 2 !dbg !11642 {
entry:
  %this.addr = alloca %"class.boost::shared_ptr.32"*, align 8
  store %"class.boost::shared_ptr.32"* %this, %"class.boost::shared_ptr.32"** %this.addr, align 8
  call void @llvm.dbg.declare(metadata %"class.boost::shared_ptr.32"** %this.addr, metadata !11643, metadata !DIExpression()), !dbg !11644
  %this1 = load %"class.boost::shared_ptr.32"*, %"class.boost::shared_ptr.32"** %this.addr, align 8
  %px = getelementptr inbounds %"class.boost::shared_ptr.32", %"class.boost::shared_ptr.32"* %this1, i32 0, i32 0, !dbg !11645
  %0 = load %"class.dealii::FEValues"*, %"class.dealii::FEValues"** %px, align 8, !dbg !11645
  %cmp = icmp eq %"class.dealii::FEValues"* %0, null, !dbg !11646
  %1 = zext i1 %cmp to i64, !dbg !11645
  %cond = select i1 %cmp, i64 -1, i64 0, !dbg !11645
  ret i64 %cond, !dbg !11647
}

; Function Attrs: nobuiltin
declare dso_local noalias i8* @_Znwm(i64) #7

; Function Attrs: noinline nounwind uwtable
define linkonce_odr dso_local dereferenceable(96) %"class.dealii::hp::MappingCollection"* @_ZNK6dealii12SmartPointerIKNS_2hp17MappingCollectionILi3ELi3EEEEdeEv(%"class.dealii::SmartPointer.19"* %this) #1 comdat align 2 !dbg !11648 {
entry:
  %this.addr = alloca %"class.dealii::SmartPointer.19"*, align 8
  store %"class.dealii::SmartPointer.19"* %this, %"class.dealii::SmartPointer.19"** %this.addr, align 8
  call void @llvm.dbg.declare(metadata %"class.dealii::SmartPointer.19"** %this.addr, metadata !11649, metadata !DIExpression()), !dbg !11651
  %this1 = load %"class.dealii::SmartPointer.19"*, %"class.dealii::SmartPointer.19"** %this.addr, align 8
  %t = getelementptr inbounds %"class.dealii::SmartPointer.19", %"class.dealii::SmartPointer.19"* %this1, i32 0, i32 0, !dbg !11652
  %0 = load %"class.dealii::hp::MappingCollection"*, %"class.dealii::hp::MappingCollection"** %t, align 8, !dbg !11652
  ret %"class.dealii::hp::MappingCollection"* %0, !dbg !11653
}

; Function Attrs: noinline uwtable
define linkonce_odr dso_local dereferenceable(72) %"class.dealii::Mapping"* @_ZNK6dealii2hp17MappingCollectionILi3ELi3EEixEj(%"class.dealii::hp::MappingCollection"* %this, i32 %index) #0 comdat align 2 !dbg !11654 {
entry:
  %this.addr = alloca %"class.dealii::hp::MappingCollection"*, align 8
  %index.addr = alloca i32, align 4
  store %"class.dealii::hp::MappingCollection"* %this, %"class.dealii::hp::MappingCollection"** %this.addr, align 8
  call void @llvm.dbg.declare(metadata %"class.dealii::hp::MappingCollection"** %this.addr, metadata !11662, metadata !DIExpression()), !dbg !11663
  store i32 %index, i32* %index.addr, align 4
  call void @llvm.dbg.declare(metadata i32* %index.addr, metadata !11664, metadata !DIExpression()), !dbg !11665
  %this1 = load %"class.dealii::hp::MappingCollection"*, %"class.dealii::hp::MappingCollection"** %this.addr, align 8
  %mappings = getelementptr inbounds %"class.dealii::hp::MappingCollection", %"class.dealii::hp::MappingCollection"* %this1, i32 0, i32 1, !dbg !11666
  %0 = load i32, i32* %index.addr, align 4, !dbg !11667
  %conv = zext i32 %0 to i64, !dbg !11667
  %call = call dereferenceable(16) %"class.boost::shared_ptr.25"* @_ZNKSt6vectorIN5boost10shared_ptrIKN6dealii7MappingILi3ELi3EEEEESaIS6_EEixEm(%"class.std::vector.20"* %mappings, i64 %conv) #4, !dbg !11666
  %call2 = call dereferenceable(72) %"class.dealii::Mapping"* @_ZNK5boost10shared_ptrIKN6dealii7MappingILi3ELi3EEEEdeEv(%"class.boost::shared_ptr.25"* %call), !dbg !11668
  ret %"class.dealii::Mapping"* %call2, !dbg !11669
}

; Function Attrs: noinline nounwind uwtable
define linkonce_odr dso_local dereferenceable(96) %"class.dealii::hp::FECollection"* @_ZNK6dealii12SmartPointerIKNS_2hp12FECollectionILi3ELi3EEEEdeEv(%"class.dealii::SmartPointer"* %this) #1 comdat align 2 !dbg !11670 {
entry:
  %this.addr = alloca %"class.dealii::SmartPointer"*, align 8
  store %"class.dealii::SmartPointer"* %this, %"class.dealii::SmartPointer"** %this.addr, align 8
  call void @llvm.dbg.declare(metadata %"class.dealii::SmartPointer"** %this.addr, metadata !11671, metadata !DIExpression()), !dbg !11673
  %this1 = load %"class.dealii::SmartPointer"*, %"class.dealii::SmartPointer"** %this.addr, align 8
  %t = getelementptr inbounds %"class.dealii::SmartPointer", %"class.dealii::SmartPointer"* %this1, i32 0, i32 0, !dbg !11674
  %0 = load %"class.dealii::hp::FECollection"*, %"class.dealii::hp::FECollection"** %t, align 8, !dbg !11674
  ret %"class.dealii::hp::FECollection"* %0, !dbg !11675
}

; Function Attrs: noinline uwtable
define linkonce_odr dso_local dereferenceable(728) %"class.dealii::FiniteElement"* @_ZNK6dealii2hp12FECollectionILi3ELi3EEixEj(%"class.dealii::hp::FECollection"* %this, i32 %index) #0 comdat align 2 !dbg !11676 {
entry:
  %this.addr = alloca %"class.dealii::hp::FECollection"*, align 8
  %index.addr = alloca i32, align 4
  store %"class.dealii::hp::FECollection"* %this, %"class.dealii::hp::FECollection"** %this.addr, align 8
  call void @llvm.dbg.declare(metadata %"class.dealii::hp::FECollection"** %this.addr, metadata !11680, metadata !DIExpression()), !dbg !11681
  store i32 %index, i32* %index.addr, align 4
  call void @llvm.dbg.declare(metadata i32* %index.addr, metadata !11682, metadata !DIExpression()), !dbg !11683
  %this1 = load %"class.dealii::hp::FECollection"*, %"class.dealii::hp::FECollection"** %this.addr, align 8
  %finite_elements = getelementptr inbounds %"class.dealii::hp::FECollection", %"class.dealii::hp::FECollection"* %this1, i32 0, i32 1, !dbg !11684
  %0 = load i32, i32* %index.addr, align 4, !dbg !11685
  %conv = zext i32 %0 to i64, !dbg !11685
  %call = call dereferenceable(16) %"class.boost::shared_ptr"* @_ZNKSt6vectorIN5boost10shared_ptrIKN6dealii13FiniteElementILi3ELi3EEEEESaIS6_EEixEm(%"class.std::vector"* %finite_elements, i64 %conv) #4, !dbg !11684
  %call2 = call dereferenceable(728) %"class.dealii::FiniteElement"* @_ZNK5boost10shared_ptrIKN6dealii13FiniteElementILi3ELi3EEEEdeEv(%"class.boost::shared_ptr"* %call), !dbg !11686
  ret %"class.dealii::FiniteElement"* %call2, !dbg !11687
}

; Function Attrs: noinline uwtable
define linkonce_odr dso_local dereferenceable(128) %"class.dealii::Quadrature"* @_ZNK6dealii2hp11QCollectionILi3EEixEj(%"class.dealii::hp::QCollection"* %this, i32 %index) #0 comdat align 2 !dbg !11688 {
entry:
  %this.addr = alloca %"class.dealii::hp::QCollection"*, align 8
  %index.addr = alloca i32, align 4
  store %"class.dealii::hp::QCollection"* %this, %"class.dealii::hp::QCollection"** %this.addr, align 8
  call void @llvm.dbg.declare(metadata %"class.dealii::hp::QCollection"** %this.addr, metadata !11689, metadata !DIExpression()), !dbg !11690
  store i32 %index, i32* %index.addr, align 4
  call void @llvm.dbg.declare(metadata i32* %index.addr, metadata !11691, metadata !DIExpression()), !dbg !11692
  %this1 = load %"class.dealii::hp::QCollection"*, %"class.dealii::hp::QCollection"** %this.addr, align 8
  %quadratures = getelementptr inbounds %"class.dealii::hp::QCollection", %"class.dealii::hp::QCollection"* %this1, i32 0, i32 1, !dbg !11693
  %0 = load i32, i32* %index.addr, align 4, !dbg !11694
  %conv = zext i32 %0 to i64, !dbg !11694
  %call = call dereferenceable(16) %"class.boost::shared_ptr.31"* @_ZNKSt6vectorIN5boost10shared_ptrIKN6dealii10QuadratureILi3EEEEESaIS6_EEixEm(%"class.std::vector.26"* %quadratures, i64 %conv) #4, !dbg !11693
  %call2 = call dereferenceable(128) %"class.dealii::Quadrature"* @_ZNK5boost10shared_ptrIKN6dealii10QuadratureILi3EEEEdeEv(%"class.boost::shared_ptr.31"* %call), !dbg !11695
  ret %"class.dealii::Quadrature"* %call2, !dbg !11696
}

declare dso_local void @_ZN6dealii8FEValuesILi3ELi3EEC1ERKNS_7MappingILi3ELi3EEERKNS_13FiniteElementILi3ELi3EEERKNS_10QuadratureILi3EEENS_11UpdateFlagsE(%"class.dealii::FEValues"*, %"class.dealii::Mapping"* dereferenceable(72), %"class.dealii::FiniteElement"* dereferenceable(728), %"class.dealii::Quadrature"* dereferenceable(128), i32) unnamed_addr #2

; Function Attrs: nobuiltin nounwind
declare dso_local void @_ZdlPv(i8*) #8

; Function Attrs: noinline uwtable
define linkonce_odr dso_local void @_ZN5boost10shared_ptrIN6dealii8FEValuesILi3ELi3EEEEC2IS3_EEPT_(%"class.boost::shared_ptr.32"* %this, %"class.dealii::FEValues"* %p) unnamed_addr #0 comdat align 2 personality i8* bitcast (i32 (...)* @__gxx_personality_v0 to i8*) !dbg !11697 {
entry:
  %this.addr = alloca %"class.boost::shared_ptr.32"*, align 8
  %p.addr = alloca %"class.dealii::FEValues"*, align 8
  %exn.slot = alloca i8*
  %ehselector.slot = alloca i32
  store %"class.boost::shared_ptr.32"* %this, %"class.boost::shared_ptr.32"** %this.addr, align 8
  call void @llvm.dbg.declare(metadata %"class.boost::shared_ptr.32"** %this.addr, metadata !11703, metadata !DIExpression()), !dbg !11704
  store %"class.dealii::FEValues"* %p, %"class.dealii::FEValues"** %p.addr, align 8
  call void @llvm.dbg.declare(metadata %"class.dealii::FEValues"** %p.addr, metadata !11705, metadata !DIExpression()), !dbg !11706
  %this1 = load %"class.boost::shared_ptr.32"*, %"class.boost::shared_ptr.32"** %this.addr, align 8
  %px = getelementptr inbounds %"class.boost::shared_ptr.32", %"class.boost::shared_ptr.32"* %this1, i32 0, i32 0, !dbg !11707
  %0 = load %"class.dealii::FEValues"*, %"class.dealii::FEValues"** %p.addr, align 8, !dbg !11708
  store %"class.dealii::FEValues"* %0, %"class.dealii::FEValues"** %px, align 8, !dbg !11707
  %pn = getelementptr inbounds %"class.boost::shared_ptr.32", %"class.boost::shared_ptr.32"* %this1, i32 0, i32 1, !dbg !11709
  %1 = load %"class.dealii::FEValues"*, %"class.dealii::FEValues"** %p.addr, align 8, !dbg !11710
  call void @_ZN5boost6detail12shared_countC2IN6dealii8FEValuesILi3ELi3EEEEEPT_(%"class.boost::detail::shared_count"* %pn, %"class.dealii::FEValues"* %1), !dbg !11709
  %pn2 = getelementptr inbounds %"class.boost::shared_ptr.32", %"class.boost::shared_ptr.32"* %this1, i32 0, i32 1, !dbg !11711
  %2 = load %"class.dealii::FEValues"*, %"class.dealii::FEValues"** %p.addr, align 8, !dbg !11713
  %3 = load %"class.dealii::FEValues"*, %"class.dealii::FEValues"** %p.addr, align 8, !dbg !11714
  invoke void (%"class.boost::detail::shared_count"*, ...) @_ZN5boost6detail26sp_enable_shared_from_thisERKNS0_12shared_countEz(%"class.boost::detail::shared_count"* dereferenceable(8) %pn2, %"class.dealii::FEValues"* %2, %"class.dealii::FEValues"* %3)
          to label %invoke.cont unwind label %lpad, !dbg !11715

invoke.cont:                                      ; preds = %entry
  ret void, !dbg !11716

lpad:                                             ; preds = %entry
  %4 = landingpad { i8*, i32 }
          cleanup, !dbg !11717
  %5 = extractvalue { i8*, i32 } %4, 0, !dbg !11717
  store i8* %5, i8** %exn.slot, align 8, !dbg !11717
  %6 = extractvalue { i8*, i32 } %4, 1, !dbg !11717
  store i32 %6, i32* %ehselector.slot, align 4, !dbg !11717
  call void @_ZN5boost6detail12shared_countD2Ev(%"class.boost::detail::shared_count"* %pn) #4, !dbg !11717
  br label %eh.resume, !dbg !11717

eh.resume:                                        ; preds = %lpad
  %exn = load i8*, i8** %exn.slot, align 8, !dbg !11717
  %sel = load i32, i32* %ehselector.slot, align 4, !dbg !11717
  %lpad.val = insertvalue { i8*, i32 } undef, i8* %exn, 0, !dbg !11717
  %lpad.val3 = insertvalue { i8*, i32 } %lpad.val, i32 %sel, 1, !dbg !11717
  resume { i8*, i32 } %lpad.val3, !dbg !11717
}

; Function Attrs: noinline uwtable
define linkonce_odr dso_local dereferenceable(16) %"class.boost::shared_ptr.32"* @_ZN5boost10shared_ptrIN6dealii8FEValuesILi3ELi3EEEEaSERKS4_(%"class.boost::shared_ptr.32"* %this, %"class.boost::shared_ptr.32"* dereferenceable(16) %r) #0 comdat align 2 !dbg !11718 {
entry:
  %this.addr = alloca %"class.boost::shared_ptr.32"*, align 8
  %r.addr = alloca %"class.boost::shared_ptr.32"*, align 8
  store %"class.boost::shared_ptr.32"* %this, %"class.boost::shared_ptr.32"** %this.addr, align 8
  call void @llvm.dbg.declare(metadata %"class.boost::shared_ptr.32"** %this.addr, metadata !11719, metadata !DIExpression()), !dbg !11720
  store %"class.boost::shared_ptr.32"* %r, %"class.boost::shared_ptr.32"** %r.addr, align 8
  call void @llvm.dbg.declare(metadata %"class.boost::shared_ptr.32"** %r.addr, metadata !11721, metadata !DIExpression()), !dbg !11722
  %this1 = load %"class.boost::shared_ptr.32"*, %"class.boost::shared_ptr.32"** %this.addr, align 8
  %0 = load %"class.boost::shared_ptr.32"*, %"class.boost::shared_ptr.32"** %r.addr, align 8, !dbg !11723
  %px = getelementptr inbounds %"class.boost::shared_ptr.32", %"class.boost::shared_ptr.32"* %0, i32 0, i32 0, !dbg !11724
  %1 = load %"class.dealii::FEValues"*, %"class.dealii::FEValues"** %px, align 8, !dbg !11724
  %px2 = getelementptr inbounds %"class.boost::shared_ptr.32", %"class.boost::shared_ptr.32"* %this1, i32 0, i32 0, !dbg !11725
  store %"class.dealii::FEValues"* %1, %"class.dealii::FEValues"** %px2, align 8, !dbg !11726
  %2 = load %"class.boost::shared_ptr.32"*, %"class.boost::shared_ptr.32"** %r.addr, align 8, !dbg !11727
  %pn = getelementptr inbounds %"class.boost::shared_ptr.32", %"class.boost::shared_ptr.32"* %2, i32 0, i32 1, !dbg !11728
  %pn3 = getelementptr inbounds %"class.boost::shared_ptr.32", %"class.boost::shared_ptr.32"* %this1, i32 0, i32 1, !dbg !11729
  %call = call dereferenceable(8) %"class.boost::detail::shared_count"* @_ZN5boost6detail12shared_countaSERKS1_(%"class.boost::detail::shared_count"* %pn3, %"class.boost::detail::shared_count"* dereferenceable(8) %pn), !dbg !11730
  ret %"class.boost::shared_ptr.32"* %this1, !dbg !11731
}

; Function Attrs: noinline nounwind uwtable
define linkonce_odr dso_local void @_ZN5boost10shared_ptrIN6dealii8FEValuesILi3ELi3EEEED2Ev(%"class.boost::shared_ptr.32"* %this) unnamed_addr #1 comdat align 2 !dbg !11732 {
entry:
  %this.addr = alloca %"class.boost::shared_ptr.32"*, align 8
  store %"class.boost::shared_ptr.32"* %this, %"class.boost::shared_ptr.32"** %this.addr, align 8
  call void @llvm.dbg.declare(metadata %"class.boost::shared_ptr.32"** %this.addr, metadata !11734, metadata !DIExpression()), !dbg !11735
  %this1 = load %"class.boost::shared_ptr.32"*, %"class.boost::shared_ptr.32"** %this.addr, align 8
  %pn = getelementptr inbounds %"class.boost::shared_ptr.32", %"class.boost::shared_ptr.32"* %this1, i32 0, i32 1, !dbg !11736
  call void @_ZN5boost6detail12shared_countD2Ev(%"class.boost::detail::shared_count"* %pn) #4, !dbg !11736
  ret void, !dbg !11738
}

; Function Attrs: noinline uwtable
define weak_odr dso_local void @_ZN6dealii8internal2hp12FEValuesBaseILi3ELi2ENS_12FEFaceValuesILi3ELi3EEEEC2ERKNS_2hp17MappingCollectionILi3ELi3EEERKNS6_12FECollectionILi3ELi3EEERKNS6_11QCollectionILi2EEENS_11UpdateFlagsE(%"class.dealii::internal::hp::FEValuesBase.136"* %this, %"class.dealii::hp::MappingCollection"* dereferenceable(96) %mapping_collection, %"class.dealii::hp::FECollection"* dereferenceable(96) %fe_collection, %"class.dealii::hp::QCollection.137"* dereferenceable(96) %q_collection, i32 %update_flags) unnamed_addr #0 comdat($_ZN6dealii8internal2hp12FEValuesBaseILi3ELi2ENS_12FEFaceValuesILi3ELi3EEEEC5ERKNS_2hp17MappingCollectionILi3ELi3EEERKNS6_12FECollectionILi3ELi3EEERKNS6_11QCollectionILi2EEENS_11UpdateFlagsE) align 2 personality i8* bitcast (i32 (...)* @__gxx_personality_v0 to i8*) !dbg !11739 {
entry:
  %this.addr = alloca %"class.dealii::internal::hp::FEValuesBase.136"*, align 8
  %mapping_collection.addr = alloca %"class.dealii::hp::MappingCollection"*, align 8
  %fe_collection.addr = alloca %"class.dealii::hp::FECollection"*, align 8
  %q_collection.addr = alloca %"class.dealii::hp::QCollection.137"*, align 8
  %update_flags.addr = alloca i32, align 4
  %exn.slot = alloca i8*
  %ehselector.slot = alloca i32
  store %"class.dealii::internal::hp::FEValuesBase.136"* %this, %"class.dealii::internal::hp::FEValuesBase.136"** %this.addr, align 8
  call void @llvm.dbg.declare(metadata %"class.dealii::internal::hp::FEValuesBase.136"** %this.addr, metadata !11740, metadata !DIExpression()), !dbg !11742
  store %"class.dealii::hp::MappingCollection"* %mapping_collection, %"class.dealii::hp::MappingCollection"** %mapping_collection.addr, align 8
  call void @llvm.dbg.declare(metadata %"class.dealii::hp::MappingCollection"** %mapping_collection.addr, metadata !11743, metadata !DIExpression()), !dbg !11744
  store %"class.dealii::hp::FECollection"* %fe_collection, %"class.dealii::hp::FECollection"** %fe_collection.addr, align 8
  call void @llvm.dbg.declare(metadata %"class.dealii::hp::FECollection"** %fe_collection.addr, metadata !11745, metadata !DIExpression()), !dbg !11746
  store %"class.dealii::hp::QCollection.137"* %q_collection, %"class.dealii::hp::QCollection.137"** %q_collection.addr, align 8
  call void @llvm.dbg.declare(metadata %"class.dealii::hp::QCollection.137"** %q_collection.addr, metadata !11747, metadata !DIExpression()), !dbg !11748
  store i32 %update_flags, i32* %update_flags.addr, align 4
  call void @llvm.dbg.declare(metadata i32* %update_flags.addr, metadata !11749, metadata !DIExpression()), !dbg !11750
  %this1 = load %"class.dealii::internal::hp::FEValuesBase.136"*, %"class.dealii::internal::hp::FEValuesBase.136"** %this.addr, align 8
  %fe_collection2 = getelementptr inbounds %"class.dealii::internal::hp::FEValuesBase.136", %"class.dealii::internal::hp::FEValuesBase.136"* %this1, i32 0, i32 0, !dbg !11751
  %0 = load %"class.dealii::hp::FECollection"*, %"class.dealii::hp::FECollection"** %fe_collection.addr, align 8, !dbg !11752
  call void @_ZN6dealii12SmartPointerIKNS_2hp12FECollectionILi3ELi3EEEEC2EPS4_PKc(%"class.dealii::SmartPointer"* %fe_collection2, %"class.dealii::hp::FECollection"* %0, i8* null), !dbg !11751
  %mapping_collection3 = getelementptr inbounds %"class.dealii::internal::hp::FEValuesBase.136", %"class.dealii::internal::hp::FEValuesBase.136"* %this1, i32 0, i32 1, !dbg !11753
  %1 = load %"class.dealii::hp::MappingCollection"*, %"class.dealii::hp::MappingCollection"** %mapping_collection.addr, align 8, !dbg !11754
  invoke void @_ZN6dealii12SmartPointerIKNS_2hp17MappingCollectionILi3ELi3EEEEC2EPS4_PKc(%"class.dealii::SmartPointer.19"* %mapping_collection3, %"class.dealii::hp::MappingCollection"* %1, i8* null)
          to label %invoke.cont unwind label %lpad, !dbg !11753

invoke.cont:                                      ; preds = %entry
  %q_collection4 = getelementptr inbounds %"class.dealii::internal::hp::FEValuesBase.136", %"class.dealii::internal::hp::FEValuesBase.136"* %this1, i32 0, i32 2, !dbg !11755
  %2 = load %"class.dealii::hp::QCollection.137"*, %"class.dealii::hp::QCollection.137"** %q_collection.addr, align 8, !dbg !11756
  invoke void @_ZN6dealii2hp11QCollectionILi2EEC2ERKS2_(%"class.dealii::hp::QCollection.137"* %q_collection4, %"class.dealii::hp::QCollection.137"* dereferenceable(96) %2)
          to label %invoke.cont6 unwind label %lpad5, !dbg !11755

invoke.cont6:                                     ; preds = %invoke.cont
  %fe_values_table = getelementptr inbounds %"class.dealii::internal::hp::FEValuesBase.136", %"class.dealii::internal::hp::FEValuesBase.136"* %this1, i32 0, i32 3, !dbg !11757
  %3 = load %"class.dealii::hp::FECollection"*, %"class.dealii::hp::FECollection"** %fe_collection.addr, align 8, !dbg !11758
  %call = invoke i32 @_ZNK6dealii2hp12FECollectionILi3ELi3EE4sizeEv(%"class.dealii::hp::FECollection"* %3)
          to label %invoke.cont8 unwind label %lpad7, !dbg !11759

invoke.cont8:                                     ; preds = %invoke.cont6
  %4 = load %"class.dealii::hp::MappingCollection"*, %"class.dealii::hp::MappingCollection"** %mapping_collection.addr, align 8, !dbg !11760
  %call10 = invoke i32 @_ZNK6dealii2hp17MappingCollectionILi3ELi3EE4sizeEv(%"class.dealii::hp::MappingCollection"* %4)
          to label %invoke.cont9 unwind label %lpad7, !dbg !11761

invoke.cont9:                                     ; preds = %invoke.cont8
  %5 = load %"class.dealii::hp::QCollection.137"*, %"class.dealii::hp::QCollection.137"** %q_collection.addr, align 8, !dbg !11762
  %call12 = invoke i32 @_ZNK6dealii2hp11QCollectionILi2EE4sizeEv(%"class.dealii::hp::QCollection.137"* %5)
          to label %invoke.cont11 unwind label %lpad7, !dbg !11763

invoke.cont11:                                    ; preds = %invoke.cont9
  invoke void @_ZN6dealii5TableILi3EN5boost10shared_ptrINS_12FEFaceValuesILi3ELi3EEEEEEC2Ejjj(%"class.dealii::Table.144"* %fe_values_table, i32 %call, i32 %call10, i32 %call12)
          to label %invoke.cont13 unwind label %lpad7, !dbg !11757

invoke.cont13:                                    ; preds = %invoke.cont11
  %present_fe_values_index = getelementptr inbounds %"class.dealii::internal::hp::FEValuesBase.136", %"class.dealii::internal::hp::FEValuesBase.136"* %this1, i32 0, i32 4, !dbg !11764
  invoke void @_ZN6dealii12TableIndicesILi3EEC2Ejjj(%"class.dealii::TableIndices"* %present_fe_values_index, i32 -1, i32 -1, i32 -1)
          to label %invoke.cont15 unwind label %lpad14, !dbg !11764

invoke.cont15:                                    ; preds = %invoke.cont13
  %update_flags16 = getelementptr inbounds %"class.dealii::internal::hp::FEValuesBase.136", %"class.dealii::internal::hp::FEValuesBase.136"* %this1, i32 0, i32 5, !dbg !11765
  %6 = load i32, i32* %update_flags.addr, align 4, !dbg !11766
  store i32 %6, i32* %update_flags16, align 4, !dbg !11765
  ret void, !dbg !11767

lpad:                                             ; preds = %entry
  %7 = landingpad { i8*, i32 }
          cleanup, !dbg !11767
  %8 = extractvalue { i8*, i32 } %7, 0, !dbg !11767
  store i8* %8, i8** %exn.slot, align 8, !dbg !11767
  %9 = extractvalue { i8*, i32 } %7, 1, !dbg !11767
  store i32 %9, i32* %ehselector.slot, align 4, !dbg !11767
  br label %ehcleanup18, !dbg !11767

lpad5:                                            ; preds = %invoke.cont
  %10 = landingpad { i8*, i32 }
          cleanup, !dbg !11767
  %11 = extractvalue { i8*, i32 } %10, 0, !dbg !11767
  store i8* %11, i8** %exn.slot, align 8, !dbg !11767
  %12 = extractvalue { i8*, i32 } %10, 1, !dbg !11767
  store i32 %12, i32* %ehselector.slot, align 4, !dbg !11767
  br label %ehcleanup17, !dbg !11767

lpad7:                                            ; preds = %invoke.cont11, %invoke.cont9, %invoke.cont8, %invoke.cont6
  %13 = landingpad { i8*, i32 }
          cleanup, !dbg !11767
  %14 = extractvalue { i8*, i32 } %13, 0, !dbg !11767
  store i8* %14, i8** %exn.slot, align 8, !dbg !11767
  %15 = extractvalue { i8*, i32 } %13, 1, !dbg !11767
  store i32 %15, i32* %ehselector.slot, align 4, !dbg !11767
  br label %ehcleanup, !dbg !11767

lpad14:                                           ; preds = %invoke.cont13
  %16 = landingpad { i8*, i32 }
          cleanup, !dbg !11767
  %17 = extractvalue { i8*, i32 } %16, 0, !dbg !11767
  store i8* %17, i8** %exn.slot, align 8, !dbg !11767
  %18 = extractvalue { i8*, i32 } %16, 1, !dbg !11767
  store i32 %18, i32* %ehselector.slot, align 4, !dbg !11767
  call void @_ZN6dealii5TableILi3EN5boost10shared_ptrINS_12FEFaceValuesILi3ELi3EEEEEED2Ev(%"class.dealii::Table.144"* %fe_values_table) #4, !dbg !11768
  br label %ehcleanup, !dbg !11768

ehcleanup:                                        ; preds = %lpad14, %lpad7
  call void @_ZN6dealii2hp11QCollectionILi2EED2Ev(%"class.dealii::hp::QCollection.137"* %q_collection4) #4, !dbg !11768
  br label %ehcleanup17, !dbg !11768

ehcleanup17:                                      ; preds = %ehcleanup, %lpad5
  call void @_ZN6dealii12SmartPointerIKNS_2hp17MappingCollectionILi3ELi3EEEED2Ev(%"class.dealii::SmartPointer.19"* %mapping_collection3) #4, !dbg !11768
  br label %ehcleanup18, !dbg !11768

ehcleanup18:                                      ; preds = %ehcleanup17, %lpad
  call void @_ZN6dealii12SmartPointerIKNS_2hp12FECollectionILi3ELi3EEEED2Ev(%"class.dealii::SmartPointer"* %fe_collection2) #4, !dbg !11768
  br label %eh.resume, !dbg !11768

eh.resume:                                        ; preds = %ehcleanup18
  %exn = load i8*, i8** %exn.slot, align 8, !dbg !11768
  %sel = load i32, i32* %ehselector.slot, align 4, !dbg !11768
  %lpad.val = insertvalue { i8*, i32 } undef, i8* %exn, 0, !dbg !11768
  %lpad.val19 = insertvalue { i8*, i32 } %lpad.val, i32 %sel, 1, !dbg !11768
  resume { i8*, i32 } %lpad.val19, !dbg !11768
}

; Function Attrs: noinline uwtable
define linkonce_odr dso_local void @_ZN6dealii2hp11QCollectionILi2EEC2ERKS2_(%"class.dealii::hp::QCollection.137"* %this, %"class.dealii::hp::QCollection.137"* dereferenceable(96) %q_collection) unnamed_addr #0 comdat align 2 personality i8* bitcast (i32 (...)* @__gxx_personality_v0 to i8*) !dbg !11770 {
entry:
  %this.addr = alloca %"class.dealii::hp::QCollection.137"*, align 8
  %q_collection.addr = alloca %"class.dealii::hp::QCollection.137"*, align 8
  %exn.slot = alloca i8*
  %ehselector.slot = alloca i32
  store %"class.dealii::hp::QCollection.137"* %this, %"class.dealii::hp::QCollection.137"** %this.addr, align 8
  call void @llvm.dbg.declare(metadata %"class.dealii::hp::QCollection.137"** %this.addr, metadata !11771, metadata !DIExpression()), !dbg !11773
  store %"class.dealii::hp::QCollection.137"* %q_collection, %"class.dealii::hp::QCollection.137"** %q_collection.addr, align 8
  call void @llvm.dbg.declare(metadata %"class.dealii::hp::QCollection.137"** %q_collection.addr, metadata !11774, metadata !DIExpression()), !dbg !11775
  %this1 = load %"class.dealii::hp::QCollection.137"*, %"class.dealii::hp::QCollection.137"** %this.addr, align 8
  %0 = bitcast %"class.dealii::hp::QCollection.137"* %this1 to %"class.dealii::Subscriptor"*, !dbg !11776
  call void @_ZN6dealii11SubscriptorC2Ev(%"class.dealii::Subscriptor"* %0), !dbg !11777
  %1 = bitcast %"class.dealii::hp::QCollection.137"* %this1 to i32 (...)***, !dbg !11776
  store i32 (...)** bitcast (i8** getelementptr inbounds ({ [4 x i8*] }, { [4 x i8*] }* @_ZTVN6dealii2hp11QCollectionILi2EEE, i32 0, inrange i32 0, i32 2) to i32 (...)**), i32 (...)*** %1, align 8, !dbg !11776
  %quadratures = getelementptr inbounds %"class.dealii::hp::QCollection.137", %"class.dealii::hp::QCollection.137"* %this1, i32 0, i32 1, !dbg !11778
  %2 = load %"class.dealii::hp::QCollection.137"*, %"class.dealii::hp::QCollection.137"** %q_collection.addr, align 8, !dbg !11779
  %quadratures2 = getelementptr inbounds %"class.dealii::hp::QCollection.137", %"class.dealii::hp::QCollection.137"* %2, i32 0, i32 1, !dbg !11780
  invoke void @_ZNSt6vectorIN5boost10shared_ptrIKN6dealii10QuadratureILi2EEEEESaIS6_EEC2ERKS8_(%"class.std::vector.138"* %quadratures, %"class.std::vector.138"* dereferenceable(24) %quadratures2)
          to label %invoke.cont unwind label %lpad, !dbg !11778

invoke.cont:                                      ; preds = %entry
  ret void, !dbg !11781

lpad:                                             ; preds = %entry
  %3 = landingpad { i8*, i32 }
          cleanup, !dbg !11781
  %4 = extractvalue { i8*, i32 } %3, 0, !dbg !11781
  store i8* %4, i8** %exn.slot, align 8, !dbg !11781
  %5 = extractvalue { i8*, i32 } %3, 1, !dbg !11781
  store i32 %5, i32* %ehselector.slot, align 4, !dbg !11781
  %6 = bitcast %"class.dealii::hp::QCollection.137"* %this1 to %"class.dealii::Subscriptor"*, !dbg !11782
  call void @_ZN6dealii11SubscriptorD2Ev(%"class.dealii::Subscriptor"* %6) #4, !dbg !11782
  br label %eh.resume, !dbg !11782

eh.resume:                                        ; preds = %lpad
  %exn = load i8*, i8** %exn.slot, align 8, !dbg !11782
  %sel = load i32, i32* %ehselector.slot, align 4, !dbg !11782
  %lpad.val = insertvalue { i8*, i32 } undef, i8* %exn, 0, !dbg !11782
  %lpad.val3 = insertvalue { i8*, i32 } %lpad.val, i32 %sel, 1, !dbg !11782
  resume { i8*, i32 } %lpad.val3, !dbg !11782
}

; Function Attrs: noinline nounwind uwtable
define linkonce_odr dso_local i32 @_ZNK6dealii2hp11QCollectionILi2EE4sizeEv(%"class.dealii::hp::QCollection.137"* %this) #1 comdat align 2 !dbg !11784 {
entry:
  %this.addr = alloca %"class.dealii::hp::QCollection.137"*, align 8
  store %"class.dealii::hp::QCollection.137"* %this, %"class.dealii::hp::QCollection.137"** %this.addr, align 8
  call void @llvm.dbg.declare(metadata %"class.dealii::hp::QCollection.137"** %this.addr, metadata !11785, metadata !DIExpression()), !dbg !11787
  %this1 = load %"class.dealii::hp::QCollection.137"*, %"class.dealii::hp::QCollection.137"** %this.addr, align 8
  %quadratures = getelementptr inbounds %"class.dealii::hp::QCollection.137", %"class.dealii::hp::QCollection.137"* %this1, i32 0, i32 1, !dbg !11788
  %call = call i64 @_ZNKSt6vectorIN5boost10shared_ptrIKN6dealii10QuadratureILi2EEEEESaIS6_EE4sizeEv(%"class.std::vector.138"* %quadratures) #4, !dbg !11789
  %conv = trunc i64 %call to i32, !dbg !11788
  ret i32 %conv, !dbg !11790
}

; Function Attrs: noinline uwtable
define linkonce_odr dso_local void @_ZN6dealii5TableILi3EN5boost10shared_ptrINS_12FEFaceValuesILi3ELi3EEEEEEC2Ejjj(%"class.dealii::Table.144"* %this, i32 %size1, i32 %size2, i32 %size3) unnamed_addr #0 comdat align 2 !dbg !11791 {
entry:
  %this.addr = alloca %"class.dealii::Table.144"*, align 8
  %size1.addr = alloca i32, align 4
  %size2.addr = alloca i32, align 4
  %size3.addr = alloca i32, align 4
  %ref.tmp = alloca %"class.dealii::TableIndices", align 4
  store %"class.dealii::Table.144"* %this, %"class.dealii::Table.144"** %this.addr, align 8
  call void @llvm.dbg.declare(metadata %"class.dealii::Table.144"** %this.addr, metadata !11792, metadata !DIExpression()), !dbg !11794
  store i32 %size1, i32* %size1.addr, align 4
  call void @llvm.dbg.declare(metadata i32* %size1.addr, metadata !11795, metadata !DIExpression()), !dbg !11796
  store i32 %size2, i32* %size2.addr, align 4
  call void @llvm.dbg.declare(metadata i32* %size2.addr, metadata !11797, metadata !DIExpression()), !dbg !11798
  store i32 %size3, i32* %size3.addr, align 4
  call void @llvm.dbg.declare(metadata i32* %size3.addr, metadata !11799, metadata !DIExpression()), !dbg !11800
  %this1 = load %"class.dealii::Table.144"*, %"class.dealii::Table.144"** %this.addr, align 8
  %0 = bitcast %"class.dealii::Table.144"* %this1 to %"class.dealii::TableBase.145"*, !dbg !11801
  %1 = load i32, i32* %size1.addr, align 4, !dbg !11802
  %2 = load i32, i32* %size2.addr, align 4, !dbg !11803
  %3 = load i32, i32* %size3.addr, align 4, !dbg !11804
  call void @_ZN6dealii12TableIndicesILi3EEC2Ejjj(%"class.dealii::TableIndices"* %ref.tmp, i32 %1, i32 %2, i32 %3), !dbg !11805
  call void @_ZN6dealii9TableBaseILi3EN5boost10shared_ptrINS_12FEFaceValuesILi3ELi3EEEEEEC2ERKNS_12TableIndicesILi3EEE(%"class.dealii::TableBase.145"* %0, %"class.dealii::TableIndices"* dereferenceable(12) %ref.tmp), !dbg !11806
  %4 = bitcast %"class.dealii::Table.144"* %this1 to i32 (...)***, !dbg !11801
  store i32 (...)** bitcast (i8** getelementptr inbounds ({ [4 x i8*] }, { [4 x i8*] }* @_ZTVN6dealii5TableILi3EN5boost10shared_ptrINS_12FEFaceValuesILi3ELi3EEEEEEE, i32 0, inrange i32 0, i32 2) to i32 (...)**), i32 (...)*** %4, align 8, !dbg !11801
  ret void, !dbg !11807
}

; Function Attrs: noinline nounwind uwtable
define linkonce_odr dso_local void @_ZN6dealii5TableILi3EN5boost10shared_ptrINS_12FEFaceValuesILi3ELi3EEEEEED2Ev(%"class.dealii::Table.144"* %this) unnamed_addr #1 comdat align 2 !dbg !11808 {
entry:
  %this.addr = alloca %"class.dealii::Table.144"*, align 8
  store %"class.dealii::Table.144"* %this, %"class.dealii::Table.144"** %this.addr, align 8
  call void @llvm.dbg.declare(metadata %"class.dealii::Table.144"** %this.addr, metadata !11810, metadata !DIExpression()), !dbg !11811
  %this1 = load %"class.dealii::Table.144"*, %"class.dealii::Table.144"** %this.addr, align 8
  %0 = bitcast %"class.dealii::Table.144"* %this1 to %"class.dealii::TableBase.145"*, !dbg !11812
  call void @_ZN6dealii9TableBaseILi3EN5boost10shared_ptrINS_12FEFaceValuesILi3ELi3EEEEEED2Ev(%"class.dealii::TableBase.145"* %0) #4, !dbg !11812
  ret void, !dbg !11814
}

; Function Attrs: noinline nounwind uwtable
define linkonce_odr dso_local void @_ZN6dealii2hp11QCollectionILi2EED2Ev(%"class.dealii::hp::QCollection.137"* %this) unnamed_addr #1 comdat align 2 !dbg !11815 {
entry:
  %this.addr = alloca %"class.dealii::hp::QCollection.137"*, align 8
  store %"class.dealii::hp::QCollection.137"* %this, %"class.dealii::hp::QCollection.137"** %this.addr, align 8
  call void @llvm.dbg.declare(metadata %"class.dealii::hp::QCollection.137"** %this.addr, metadata !11817, metadata !DIExpression()), !dbg !11818
  %this1 = load %"class.dealii::hp::QCollection.137"*, %"class.dealii::hp::QCollection.137"** %this.addr, align 8
  %0 = bitcast %"class.dealii::hp::QCollection.137"* %this1 to i32 (...)***, !dbg !11819
  store i32 (...)** bitcast (i8** getelementptr inbounds ({ [4 x i8*] }, { [4 x i8*] }* @_ZTVN6dealii2hp11QCollectionILi2EEE, i32 0, inrange i32 0, i32 2) to i32 (...)**), i32 (...)*** %0, align 8, !dbg !11819
  %quadratures = getelementptr inbounds %"class.dealii::hp::QCollection.137", %"class.dealii::hp::QCollection.137"* %this1, i32 0, i32 1, !dbg !11820
  call void @_ZNSt6vectorIN5boost10shared_ptrIKN6dealii10QuadratureILi2EEEEESaIS6_EED2Ev(%"class.std::vector.138"* %quadratures) #4, !dbg !11820
  %1 = bitcast %"class.dealii::hp::QCollection.137"* %this1 to %"class.dealii::Subscriptor"*, !dbg !11820
  call void @_ZN6dealii11SubscriptorD2Ev(%"class.dealii::Subscriptor"* %1) #4, !dbg !11820
  ret void, !dbg !11819
}

; Function Attrs: noinline uwtable
define weak_odr dso_local void @_ZN6dealii8internal2hp12FEValuesBaseILi3ELi2ENS_12FEFaceValuesILi3ELi3EEEEC2ERKNS_2hp12FECollectionILi3ELi3EEERKNS6_11QCollectionILi2EEENS_11UpdateFlagsE(%"class.dealii::internal::hp::FEValuesBase.136"* %this, %"class.dealii::hp::FECollection"* dereferenceable(96) %fe_collection, %"class.dealii::hp::QCollection.137"* dereferenceable(96) %q_collection, i32 %update_flags) unnamed_addr #0 comdat($_ZN6dealii8internal2hp12FEValuesBaseILi3ELi2ENS_12FEFaceValuesILi3ELi3EEEEC5ERKNS_2hp12FECollectionILi3ELi3EEERKNS6_11QCollectionILi2EEENS_11UpdateFlagsE) align 2 personality i8* bitcast (i32 (...)* @__gxx_personality_v0 to i8*) !dbg !11822 {
entry:
  %this.addr = alloca %"class.dealii::internal::hp::FEValuesBase.136"*, align 8
  %fe_collection.addr = alloca %"class.dealii::hp::FECollection"*, align 8
  %q_collection.addr = alloca %"class.dealii::hp::QCollection.137"*, align 8
  %update_flags.addr = alloca i32, align 4
  %exn.slot = alloca i8*
  %ehselector.slot = alloca i32
  store %"class.dealii::internal::hp::FEValuesBase.136"* %this, %"class.dealii::internal::hp::FEValuesBase.136"** %this.addr, align 8
  call void @llvm.dbg.declare(metadata %"class.dealii::internal::hp::FEValuesBase.136"** %this.addr, metadata !11823, metadata !DIExpression()), !dbg !11824
  store %"class.dealii::hp::FECollection"* %fe_collection, %"class.dealii::hp::FECollection"** %fe_collection.addr, align 8
  call void @llvm.dbg.declare(metadata %"class.dealii::hp::FECollection"** %fe_collection.addr, metadata !11825, metadata !DIExpression()), !dbg !11826
  store %"class.dealii::hp::QCollection.137"* %q_collection, %"class.dealii::hp::QCollection.137"** %q_collection.addr, align 8
  call void @llvm.dbg.declare(metadata %"class.dealii::hp::QCollection.137"** %q_collection.addr, metadata !11827, metadata !DIExpression()), !dbg !11828
  store i32 %update_flags, i32* %update_flags.addr, align 4
  call void @llvm.dbg.declare(metadata i32* %update_flags.addr, metadata !11829, metadata !DIExpression()), !dbg !11830
  %this1 = load %"class.dealii::internal::hp::FEValuesBase.136"*, %"class.dealii::internal::hp::FEValuesBase.136"** %this.addr, align 8
  %fe_collection2 = getelementptr inbounds %"class.dealii::internal::hp::FEValuesBase.136", %"class.dealii::internal::hp::FEValuesBase.136"* %this1, i32 0, i32 0, !dbg !11831
  %0 = load %"class.dealii::hp::FECollection"*, %"class.dealii::hp::FECollection"** %fe_collection.addr, align 8, !dbg !11832
  call void @_ZN6dealii12SmartPointerIKNS_2hp12FECollectionILi3ELi3EEEEC2EPS4_PKc(%"class.dealii::SmartPointer"* %fe_collection2, %"class.dealii::hp::FECollection"* %0, i8* null), !dbg !11831
  %mapping_collection = getelementptr inbounds %"class.dealii::internal::hp::FEValuesBase.136", %"class.dealii::internal::hp::FEValuesBase.136"* %this1, i32 0, i32 1, !dbg !11833
  invoke void @_ZN6dealii12SmartPointerIKNS_2hp17MappingCollectionILi3ELi3EEEEC2EPS4_PKc(%"class.dealii::SmartPointer.19"* %mapping_collection, %"class.dealii::hp::MappingCollection"* @_ZN6dealii2hp15StaticMappingQ1ILi3ELi3EE18mapping_collectionE, i8* null)
          to label %invoke.cont unwind label %lpad, !dbg !11833

invoke.cont:                                      ; preds = %entry
  %q_collection3 = getelementptr inbounds %"class.dealii::internal::hp::FEValuesBase.136", %"class.dealii::internal::hp::FEValuesBase.136"* %this1, i32 0, i32 2, !dbg !11834
  %1 = load %"class.dealii::hp::QCollection.137"*, %"class.dealii::hp::QCollection.137"** %q_collection.addr, align 8, !dbg !11835
  invoke void @_ZN6dealii2hp11QCollectionILi2EEC2ERKS2_(%"class.dealii::hp::QCollection.137"* %q_collection3, %"class.dealii::hp::QCollection.137"* dereferenceable(96) %1)
          to label %invoke.cont5 unwind label %lpad4, !dbg !11834

invoke.cont5:                                     ; preds = %invoke.cont
  %fe_values_table = getelementptr inbounds %"class.dealii::internal::hp::FEValuesBase.136", %"class.dealii::internal::hp::FEValuesBase.136"* %this1, i32 0, i32 3, !dbg !11836
  %2 = load %"class.dealii::hp::FECollection"*, %"class.dealii::hp::FECollection"** %fe_collection.addr, align 8, !dbg !11837
  %call = invoke i32 @_ZNK6dealii2hp12FECollectionILi3ELi3EE4sizeEv(%"class.dealii::hp::FECollection"* %2)
          to label %invoke.cont7 unwind label %lpad6, !dbg !11838

invoke.cont7:                                     ; preds = %invoke.cont5
  %3 = load %"class.dealii::hp::QCollection.137"*, %"class.dealii::hp::QCollection.137"** %q_collection.addr, align 8, !dbg !11839
  %call9 = invoke i32 @_ZNK6dealii2hp11QCollectionILi2EE4sizeEv(%"class.dealii::hp::QCollection.137"* %3)
          to label %invoke.cont8 unwind label %lpad6, !dbg !11840

invoke.cont8:                                     ; preds = %invoke.cont7
  invoke void @_ZN6dealii5TableILi3EN5boost10shared_ptrINS_12FEFaceValuesILi3ELi3EEEEEEC2Ejjj(%"class.dealii::Table.144"* %fe_values_table, i32 %call, i32 1, i32 %call9)
          to label %invoke.cont10 unwind label %lpad6, !dbg !11836

invoke.cont10:                                    ; preds = %invoke.cont8
  %present_fe_values_index = getelementptr inbounds %"class.dealii::internal::hp::FEValuesBase.136", %"class.dealii::internal::hp::FEValuesBase.136"* %this1, i32 0, i32 4, !dbg !11841
  invoke void @_ZN6dealii12TableIndicesILi3EEC2Ejjj(%"class.dealii::TableIndices"* %present_fe_values_index, i32 -1, i32 -1, i32 -1)
          to label %invoke.cont12 unwind label %lpad11, !dbg !11841

invoke.cont12:                                    ; preds = %invoke.cont10
  %update_flags13 = getelementptr inbounds %"class.dealii::internal::hp::FEValuesBase.136", %"class.dealii::internal::hp::FEValuesBase.136"* %this1, i32 0, i32 5, !dbg !11842
  %4 = load i32, i32* %update_flags.addr, align 4, !dbg !11843
  store i32 %4, i32* %update_flags13, align 4, !dbg !11842
  ret void, !dbg !11844

lpad:                                             ; preds = %entry
  %5 = landingpad { i8*, i32 }
          cleanup, !dbg !11844
  %6 = extractvalue { i8*, i32 } %5, 0, !dbg !11844
  store i8* %6, i8** %exn.slot, align 8, !dbg !11844
  %7 = extractvalue { i8*, i32 } %5, 1, !dbg !11844
  store i32 %7, i32* %ehselector.slot, align 4, !dbg !11844
  br label %ehcleanup15, !dbg !11844

lpad4:                                            ; preds = %invoke.cont
  %8 = landingpad { i8*, i32 }
          cleanup, !dbg !11844
  %9 = extractvalue { i8*, i32 } %8, 0, !dbg !11844
  store i8* %9, i8** %exn.slot, align 8, !dbg !11844
  %10 = extractvalue { i8*, i32 } %8, 1, !dbg !11844
  store i32 %10, i32* %ehselector.slot, align 4, !dbg !11844
  br label %ehcleanup14, !dbg !11844

lpad6:                                            ; preds = %invoke.cont8, %invoke.cont7, %invoke.cont5
  %11 = landingpad { i8*, i32 }
          cleanup, !dbg !11844
  %12 = extractvalue { i8*, i32 } %11, 0, !dbg !11844
  store i8* %12, i8** %exn.slot, align 8, !dbg !11844
  %13 = extractvalue { i8*, i32 } %11, 1, !dbg !11844
  store i32 %13, i32* %ehselector.slot, align 4, !dbg !11844
  br label %ehcleanup, !dbg !11844

lpad11:                                           ; preds = %invoke.cont10
  %14 = landingpad { i8*, i32 }
          cleanup, !dbg !11844
  %15 = extractvalue { i8*, i32 } %14, 0, !dbg !11844
  store i8* %15, i8** %exn.slot, align 8, !dbg !11844
  %16 = extractvalue { i8*, i32 } %14, 1, !dbg !11844
  store i32 %16, i32* %ehselector.slot, align 4, !dbg !11844
  call void @_ZN6dealii5TableILi3EN5boost10shared_ptrINS_12FEFaceValuesILi3ELi3EEEEEED2Ev(%"class.dealii::Table.144"* %fe_values_table) #4, !dbg !11845
  br label %ehcleanup, !dbg !11845

ehcleanup:                                        ; preds = %lpad11, %lpad6
  call void @_ZN6dealii2hp11QCollectionILi2EED2Ev(%"class.dealii::hp::QCollection.137"* %q_collection3) #4, !dbg !11845
  br label %ehcleanup14, !dbg !11845

ehcleanup14:                                      ; preds = %ehcleanup, %lpad4
  call void @_ZN6dealii12SmartPointerIKNS_2hp17MappingCollectionILi3ELi3EEEED2Ev(%"class.dealii::SmartPointer.19"* %mapping_collection) #4, !dbg !11845
  br label %ehcleanup15, !dbg !11845

ehcleanup15:                                      ; preds = %ehcleanup14, %lpad
  call void @_ZN6dealii12SmartPointerIKNS_2hp12FECollectionILi3ELi3EEEED2Ev(%"class.dealii::SmartPointer"* %fe_collection2) #4, !dbg !11845
  br label %eh.resume, !dbg !11845

eh.resume:                                        ; preds = %ehcleanup15
  %exn = load i8*, i8** %exn.slot, align 8, !dbg !11845
  %sel = load i32, i32* %ehselector.slot, align 4, !dbg !11845
  %lpad.val = insertvalue { i8*, i32 } undef, i8* %exn, 0, !dbg !11845
  %lpad.val16 = insertvalue { i8*, i32 } %lpad.val, i32 %sel, 1, !dbg !11845
  resume { i8*, i32 } %lpad.val16, !dbg !11845
}

; Function Attrs: noinline uwtable
define weak_odr dso_local dereferenceable(784) %"class.dealii::FEFaceValues"* @_ZNK6dealii8internal2hp12FEValuesBaseILi3ELi2ENS_12FEFaceValuesILi3ELi3EEEE21get_present_fe_valuesEv(%"class.dealii::internal::hp::FEValuesBase.136"* %this) #0 comdat align 2 !dbg !11847 {
entry:
  %this.addr = alloca %"class.dealii::internal::hp::FEValuesBase.136"*, align 8
  store %"class.dealii::internal::hp::FEValuesBase.136"* %this, %"class.dealii::internal::hp::FEValuesBase.136"** %this.addr, align 8
  call void @llvm.dbg.declare(metadata %"class.dealii::internal::hp::FEValuesBase.136"** %this.addr, metadata !11848, metadata !DIExpression()), !dbg !11850
  %this1 = load %"class.dealii::internal::hp::FEValuesBase.136"*, %"class.dealii::internal::hp::FEValuesBase.136"** %this.addr, align 8
  %fe_values_table = getelementptr inbounds %"class.dealii::internal::hp::FEValuesBase.136", %"class.dealii::internal::hp::FEValuesBase.136"* %this1, i32 0, i32 3, !dbg !11851
  %present_fe_values_index = getelementptr inbounds %"class.dealii::internal::hp::FEValuesBase.136", %"class.dealii::internal::hp::FEValuesBase.136"* %this1, i32 0, i32 4, !dbg !11852
  %call = call dereferenceable(16) %"class.boost::shared_ptr.146"* @_ZNK6dealii5TableILi3EN5boost10shared_ptrINS_12FEFaceValuesILi3ELi3EEEEEEclERKNS_12TableIndicesILi3EEE(%"class.dealii::Table.144"* %fe_values_table, %"class.dealii::TableIndices"* dereferenceable(12) %present_fe_values_index), !dbg !11851
  %call2 = call dereferenceable(784) %"class.dealii::FEFaceValues"* @_ZNK5boost10shared_ptrIN6dealii12FEFaceValuesILi3ELi3EEEEdeEv(%"class.boost::shared_ptr.146"* %call), !dbg !11853
  ret %"class.dealii::FEFaceValues"* %call2, !dbg !11854
}

; Function Attrs: noinline uwtable
define linkonce_odr dso_local dereferenceable(16) %"class.boost::shared_ptr.146"* @_ZNK6dealii5TableILi3EN5boost10shared_ptrINS_12FEFaceValuesILi3ELi3EEEEEEclERKNS_12TableIndicesILi3EEE(%"class.dealii::Table.144"* %this, %"class.dealii::TableIndices"* dereferenceable(12) %indices) #0 comdat align 2 !dbg !11855 {
entry:
  %this.addr = alloca %"class.dealii::Table.144"*, align 8
  %indices.addr = alloca %"class.dealii::TableIndices"*, align 8
  store %"class.dealii::Table.144"* %this, %"class.dealii::Table.144"** %this.addr, align 8
  call void @llvm.dbg.declare(metadata %"class.dealii::Table.144"** %this.addr, metadata !11856, metadata !DIExpression()), !dbg !11858
  store %"class.dealii::TableIndices"* %indices, %"class.dealii::TableIndices"** %indices.addr, align 8
  call void @llvm.dbg.declare(metadata %"class.dealii::TableIndices"** %indices.addr, metadata !11859, metadata !DIExpression()), !dbg !11860
  %this1 = load %"class.dealii::Table.144"*, %"class.dealii::Table.144"** %this.addr, align 8
  %0 = bitcast %"class.dealii::Table.144"* %this1 to %"class.dealii::TableBase.145"*, !dbg !11861
  %1 = load %"class.dealii::TableIndices"*, %"class.dealii::TableIndices"** %indices.addr, align 8, !dbg !11862
  %call = call dereferenceable(16) %"class.boost::shared_ptr.146"* @_ZNK6dealii9TableBaseILi3EN5boost10shared_ptrINS_12FEFaceValuesILi3ELi3EEEEEEclERKNS_12TableIndicesILi3EEE(%"class.dealii::TableBase.145"* %0, %"class.dealii::TableIndices"* dereferenceable(12) %1), !dbg !11861
  ret %"class.boost::shared_ptr.146"* %call, !dbg !11863
}

; Function Attrs: noinline nounwind uwtable
define linkonce_odr dso_local dereferenceable(784) %"class.dealii::FEFaceValues"* @_ZNK5boost10shared_ptrIN6dealii12FEFaceValuesILi3ELi3EEEEdeEv(%"class.boost::shared_ptr.146"* %this) #1 comdat align 2 !dbg !11864 {
entry:
  %this.addr = alloca %"class.boost::shared_ptr.146"*, align 8
  store %"class.boost::shared_ptr.146"* %this, %"class.boost::shared_ptr.146"** %this.addr, align 8
  call void @llvm.dbg.declare(metadata %"class.boost::shared_ptr.146"** %this.addr, metadata !11865, metadata !DIExpression()), !dbg !11866
  %this1 = load %"class.boost::shared_ptr.146"*, %"class.boost::shared_ptr.146"** %this.addr, align 8
  %px = getelementptr inbounds %"class.boost::shared_ptr.146", %"class.boost::shared_ptr.146"* %this1, i32 0, i32 0, !dbg !11867
  %0 = load %"class.dealii::FEFaceValues"*, %"class.dealii::FEFaceValues"** %px, align 8, !dbg !11867
  ret %"class.dealii::FEFaceValues"* %0, !dbg !11868
}

; Function Attrs: noinline uwtable
define weak_odr dso_local dereferenceable(784) %"class.dealii::FEFaceValues"* @_ZN6dealii8internal2hp12FEValuesBaseILi3ELi2ENS_12FEFaceValuesILi3ELi3EEEE16select_fe_valuesEjjj(%"class.dealii::internal::hp::FEValuesBase.136"* %this, i32 %fe_index, i32 %mapping_index, i32 %q_index) #0 comdat align 2 personality i8* bitcast (i32 (...)* @__gxx_personality_v0 to i8*) !dbg !11869 {
entry:
  %this.addr = alloca %"class.dealii::internal::hp::FEValuesBase.136"*, align 8
  %fe_index.addr = alloca i32, align 4
  %mapping_index.addr = alloca i32, align 4
  %q_index.addr = alloca i32, align 4
  %ref.tmp = alloca %"class.dealii::TableIndices", align 4
  %ref.tmp4 = alloca %"class.boost::shared_ptr.146", align 8
  %exn.slot = alloca i8*
  %ehselector.slot = alloca i32
  store %"class.dealii::internal::hp::FEValuesBase.136"* %this, %"class.dealii::internal::hp::FEValuesBase.136"** %this.addr, align 8
  call void @llvm.dbg.declare(metadata %"class.dealii::internal::hp::FEValuesBase.136"** %this.addr, metadata !11870, metadata !DIExpression()), !dbg !11871
  store i32 %fe_index, i32* %fe_index.addr, align 4
  call void @llvm.dbg.declare(metadata i32* %fe_index.addr, metadata !11872, metadata !DIExpression()), !dbg !11873
  store i32 %mapping_index, i32* %mapping_index.addr, align 4
  call void @llvm.dbg.declare(metadata i32* %mapping_index.addr, metadata !11874, metadata !DIExpression()), !dbg !11875
  store i32 %q_index, i32* %q_index.addr, align 4
  call void @llvm.dbg.declare(metadata i32* %q_index.addr, metadata !11876, metadata !DIExpression()), !dbg !11877
  %this1 = load %"class.dealii::internal::hp::FEValuesBase.136"*, %"class.dealii::internal::hp::FEValuesBase.136"** %this.addr, align 8
  %0 = load i32, i32* %fe_index.addr, align 4, !dbg !11878
  %1 = load i32, i32* %mapping_index.addr, align 4, !dbg !11879
  %2 = load i32, i32* %q_index.addr, align 4, !dbg !11880
  call void @_ZN6dealii12TableIndicesILi3EEC2Ejjj(%"class.dealii::TableIndices"* %ref.tmp, i32 %0, i32 %1, i32 %2), !dbg !11881
  %present_fe_values_index = getelementptr inbounds %"class.dealii::internal::hp::FEValuesBase.136", %"class.dealii::internal::hp::FEValuesBase.136"* %this1, i32 0, i32 4, !dbg !11882
  %3 = bitcast %"class.dealii::TableIndices"* %present_fe_values_index to i8*, !dbg !11883
  %4 = bitcast %"class.dealii::TableIndices"* %ref.tmp to i8*, !dbg !11883
  call void @llvm.memcpy.p0i8.p0i8.i64(i8* align 8 %3, i8* align 4 %4, i64 12, i1 false), !dbg !11883
  %fe_values_table = getelementptr inbounds %"class.dealii::internal::hp::FEValuesBase.136", %"class.dealii::internal::hp::FEValuesBase.136"* %this1, i32 0, i32 3, !dbg !11884
  %present_fe_values_index2 = getelementptr inbounds %"class.dealii::internal::hp::FEValuesBase.136", %"class.dealii::internal::hp::FEValuesBase.136"* %this1, i32 0, i32 4, !dbg !11886
  %call = call dereferenceable(16) %"class.boost::shared_ptr.146"* @_ZN6dealii5TableILi3EN5boost10shared_ptrINS_12FEFaceValuesILi3ELi3EEEEEEclERKNS_12TableIndicesILi3EEE(%"class.dealii::Table.144"* %fe_values_table, %"class.dealii::TableIndices"* dereferenceable(12) %present_fe_values_index2), !dbg !11884
  %call3 = call i64 @_ZNK5boost10shared_ptrIN6dealii12FEFaceValuesILi3ELi3EEEEcvMS4_PS3_Ev(%"class.boost::shared_ptr.146"* %call), !dbg !11884
  %5 = icmp eq i64 %call3, -1, !dbg !11887
  br i1 %5, label %if.then, label %if.end, !dbg !11888

if.then:                                          ; preds = %entry
  %call5 = call i8* @_Znwm(i64 784) #13, !dbg !11889
  %6 = bitcast i8* %call5 to %"class.dealii::FEFaceValues"*, !dbg !11889
  %mapping_collection = getelementptr inbounds %"class.dealii::internal::hp::FEValuesBase.136", %"class.dealii::internal::hp::FEValuesBase.136"* %this1, i32 0, i32 1, !dbg !11890
  %call6 = invoke dereferenceable(96) %"class.dealii::hp::MappingCollection"* @_ZNK6dealii12SmartPointerIKNS_2hp17MappingCollectionILi3ELi3EEEEdeEv(%"class.dealii::SmartPointer.19"* %mapping_collection)
          to label %invoke.cont unwind label %lpad, !dbg !11891

invoke.cont:                                      ; preds = %if.then
  %7 = load i32, i32* %mapping_index.addr, align 4, !dbg !11892
  %call8 = invoke dereferenceable(72) %"class.dealii::Mapping"* @_ZNK6dealii2hp17MappingCollectionILi3ELi3EEixEj(%"class.dealii::hp::MappingCollection"* %call6, i32 %7)
          to label %invoke.cont7 unwind label %lpad, !dbg !11893

invoke.cont7:                                     ; preds = %invoke.cont
  %fe_collection = getelementptr inbounds %"class.dealii::internal::hp::FEValuesBase.136", %"class.dealii::internal::hp::FEValuesBase.136"* %this1, i32 0, i32 0, !dbg !11894
  %call10 = invoke dereferenceable(96) %"class.dealii::hp::FECollection"* @_ZNK6dealii12SmartPointerIKNS_2hp12FECollectionILi3ELi3EEEEdeEv(%"class.dealii::SmartPointer"* %fe_collection)
          to label %invoke.cont9 unwind label %lpad, !dbg !11895

invoke.cont9:                                     ; preds = %invoke.cont7
  %8 = load i32, i32* %fe_index.addr, align 4, !dbg !11896
  %call12 = invoke dereferenceable(728) %"class.dealii::FiniteElement"* @_ZNK6dealii2hp12FECollectionILi3ELi3EEixEj(%"class.dealii::hp::FECollection"* %call10, i32 %8)
          to label %invoke.cont11 unwind label %lpad, !dbg !11897

invoke.cont11:                                    ; preds = %invoke.cont9
  %q_collection = getelementptr inbounds %"class.dealii::internal::hp::FEValuesBase.136", %"class.dealii::internal::hp::FEValuesBase.136"* %this1, i32 0, i32 2, !dbg !11898
  %9 = load i32, i32* %q_index.addr, align 4, !dbg !11899
  %call14 = invoke dereferenceable(128) %"class.dealii::Quadrature.147"* @_ZNK6dealii2hp11QCollectionILi2EEixEj(%"class.dealii::hp::QCollection.137"* %q_collection, i32 %9)
          to label %invoke.cont13 unwind label %lpad, !dbg !11898

invoke.cont13:                                    ; preds = %invoke.cont11
  %update_flags = getelementptr inbounds %"class.dealii::internal::hp::FEValuesBase.136", %"class.dealii::internal::hp::FEValuesBase.136"* %this1, i32 0, i32 5, !dbg !11900
  %10 = load i32, i32* %update_flags, align 4, !dbg !11900
  invoke void @_ZN6dealii12FEFaceValuesILi3ELi3EEC1ERKNS_7MappingILi3ELi3EEERKNS_13FiniteElementILi3ELi3EEERKNS_10QuadratureILi2EEENS_11UpdateFlagsE(%"class.dealii::FEFaceValues"* %6, %"class.dealii::Mapping"* dereferenceable(72) %call8, %"class.dealii::FiniteElement"* dereferenceable(728) %call12, %"class.dealii::Quadrature.147"* dereferenceable(128) %call14, i32 %10)
          to label %invoke.cont15 unwind label %lpad, !dbg !11901

invoke.cont15:                                    ; preds = %invoke.cont13
  call void @_ZN5boost10shared_ptrIN6dealii12FEFaceValuesILi3ELi3EEEEC2IS3_EEPT_(%"class.boost::shared_ptr.146"* %ref.tmp4, %"class.dealii::FEFaceValues"* %6), !dbg !11902
  %fe_values_table16 = getelementptr inbounds %"class.dealii::internal::hp::FEValuesBase.136", %"class.dealii::internal::hp::FEValuesBase.136"* %this1, i32 0, i32 3, !dbg !11903
  %present_fe_values_index17 = getelementptr inbounds %"class.dealii::internal::hp::FEValuesBase.136", %"class.dealii::internal::hp::FEValuesBase.136"* %this1, i32 0, i32 4, !dbg !11904
  %call20 = invoke dereferenceable(16) %"class.boost::shared_ptr.146"* @_ZN6dealii5TableILi3EN5boost10shared_ptrINS_12FEFaceValuesILi3ELi3EEEEEEclERKNS_12TableIndicesILi3EEE(%"class.dealii::Table.144"* %fe_values_table16, %"class.dealii::TableIndices"* dereferenceable(12) %present_fe_values_index17)
          to label %invoke.cont19 unwind label %lpad18, !dbg !11903

invoke.cont19:                                    ; preds = %invoke.cont15
  %call22 = invoke dereferenceable(16) %"class.boost::shared_ptr.146"* @_ZN5boost10shared_ptrIN6dealii12FEFaceValuesILi3ELi3EEEEaSERKS4_(%"class.boost::shared_ptr.146"* %call20, %"class.boost::shared_ptr.146"* dereferenceable(16) %ref.tmp4)
          to label %invoke.cont21 unwind label %lpad18, !dbg !11905

invoke.cont21:                                    ; preds = %invoke.cont19
  call void @_ZN5boost10shared_ptrIN6dealii12FEFaceValuesILi3ELi3EEEED2Ev(%"class.boost::shared_ptr.146"* %ref.tmp4) #4, !dbg !11903
  br label %if.end, !dbg !11903

lpad:                                             ; preds = %invoke.cont13, %invoke.cont11, %invoke.cont9, %invoke.cont7, %invoke.cont, %if.then
  %11 = landingpad { i8*, i32 }
          cleanup, !dbg !11906
  %12 = extractvalue { i8*, i32 } %11, 0, !dbg !11906
  store i8* %12, i8** %exn.slot, align 8, !dbg !11906
  %13 = extractvalue { i8*, i32 } %11, 1, !dbg !11906
  store i32 %13, i32* %ehselector.slot, align 4, !dbg !11906
  call void @_ZdlPv(i8* %call5) #14, !dbg !11889
  br label %eh.resume, !dbg !11889

lpad18:                                           ; preds = %invoke.cont19, %invoke.cont15
  %14 = landingpad { i8*, i32 }
          cleanup, !dbg !11906
  %15 = extractvalue { i8*, i32 } %14, 0, !dbg !11906
  store i8* %15, i8** %exn.slot, align 8, !dbg !11906
  %16 = extractvalue { i8*, i32 } %14, 1, !dbg !11906
  store i32 %16, i32* %ehselector.slot, align 4, !dbg !11906
  call void @_ZN5boost10shared_ptrIN6dealii12FEFaceValuesILi3ELi3EEEED2Ev(%"class.boost::shared_ptr.146"* %ref.tmp4) #4, !dbg !11903
  br label %eh.resume, !dbg !11903

if.end:                                           ; preds = %invoke.cont21, %entry
  %fe_values_table23 = getelementptr inbounds %"class.dealii::internal::hp::FEValuesBase.136", %"class.dealii::internal::hp::FEValuesBase.136"* %this1, i32 0, i32 3, !dbg !11907
  %present_fe_values_index24 = getelementptr inbounds %"class.dealii::internal::hp::FEValuesBase.136", %"class.dealii::internal::hp::FEValuesBase.136"* %this1, i32 0, i32 4, !dbg !11908
  %call25 = call dereferenceable(16) %"class.boost::shared_ptr.146"* @_ZN6dealii5TableILi3EN5boost10shared_ptrINS_12FEFaceValuesILi3ELi3EEEEEEclERKNS_12TableIndicesILi3EEE(%"class.dealii::Table.144"* %fe_values_table23, %"class.dealii::TableIndices"* dereferenceable(12) %present_fe_values_index24), !dbg !11907
  %call26 = call dereferenceable(784) %"class.dealii::FEFaceValues"* @_ZNK5boost10shared_ptrIN6dealii12FEFaceValuesILi3ELi3EEEEdeEv(%"class.boost::shared_ptr.146"* %call25), !dbg !11909
  ret %"class.dealii::FEFaceValues"* %call26, !dbg !11910

eh.resume:                                        ; preds = %lpad18, %lpad
  %exn = load i8*, i8** %exn.slot, align 8, !dbg !11889
  %sel = load i32, i32* %ehselector.slot, align 4, !dbg !11889
  %lpad.val = insertvalue { i8*, i32 } undef, i8* %exn, 0, !dbg !11889
  %lpad.val27 = insertvalue { i8*, i32 } %lpad.val, i32 %sel, 1, !dbg !11889
  resume { i8*, i32 } %lpad.val27, !dbg !11889
}

; Function Attrs: noinline uwtable
define linkonce_odr dso_local dereferenceable(16) %"class.boost::shared_ptr.146"* @_ZN6dealii5TableILi3EN5boost10shared_ptrINS_12FEFaceValuesILi3ELi3EEEEEEclERKNS_12TableIndicesILi3EEE(%"class.dealii::Table.144"* %this, %"class.dealii::TableIndices"* dereferenceable(12) %indices) #0 comdat align 2 !dbg !11911 {
entry:
  %this.addr = alloca %"class.dealii::Table.144"*, align 8
  %indices.addr = alloca %"class.dealii::TableIndices"*, align 8
  store %"class.dealii::Table.144"* %this, %"class.dealii::Table.144"** %this.addr, align 8
  call void @llvm.dbg.declare(metadata %"class.dealii::Table.144"** %this.addr, metadata !11912, metadata !DIExpression()), !dbg !11913
  store %"class.dealii::TableIndices"* %indices, %"class.dealii::TableIndices"** %indices.addr, align 8
  call void @llvm.dbg.declare(metadata %"class.dealii::TableIndices"** %indices.addr, metadata !11914, metadata !DIExpression()), !dbg !11915
  %this1 = load %"class.dealii::Table.144"*, %"class.dealii::Table.144"** %this.addr, align 8
  %0 = bitcast %"class.dealii::Table.144"* %this1 to %"class.dealii::TableBase.145"*, !dbg !11916
  %1 = load %"class.dealii::TableIndices"*, %"class.dealii::TableIndices"** %indices.addr, align 8, !dbg !11917
  %call = call dereferenceable(16) %"class.boost::shared_ptr.146"* @_ZN6dealii9TableBaseILi3EN5boost10shared_ptrINS_12FEFaceValuesILi3ELi3EEEEEEclERKNS_12TableIndicesILi3EEE(%"class.dealii::TableBase.145"* %0, %"class.dealii::TableIndices"* dereferenceable(12) %1), !dbg !11916
  ret %"class.boost::shared_ptr.146"* %call, !dbg !11918
}

; Function Attrs: noinline nounwind uwtable
define linkonce_odr dso_local i64 @_ZNK5boost10shared_ptrIN6dealii12FEFaceValuesILi3ELi3EEEEcvMS4_PS3_Ev(%"class.boost::shared_ptr.146"* %this) #1 comdat align 2 !dbg !11919 {
entry:
  %this.addr = alloca %"class.boost::shared_ptr.146"*, align 8
  store %"class.boost::shared_ptr.146"* %this, %"class.boost::shared_ptr.146"** %this.addr, align 8
  call void @llvm.dbg.declare(metadata %"class.boost::shared_ptr.146"** %this.addr, metadata !11920, metadata !DIExpression()), !dbg !11921
  %this1 = load %"class.boost::shared_ptr.146"*, %"class.boost::shared_ptr.146"** %this.addr, align 8
  %px = getelementptr inbounds %"class.boost::shared_ptr.146", %"class.boost::shared_ptr.146"* %this1, i32 0, i32 0, !dbg !11922
  %0 = load %"class.dealii::FEFaceValues"*, %"class.dealii::FEFaceValues"** %px, align 8, !dbg !11922
  %cmp = icmp eq %"class.dealii::FEFaceValues"* %0, null, !dbg !11923
  %1 = zext i1 %cmp to i64, !dbg !11922
  %cond = select i1 %cmp, i64 -1, i64 0, !dbg !11922
  ret i64 %cond, !dbg !11924
}

; Function Attrs: noinline uwtable
define linkonce_odr dso_local dereferenceable(128) %"class.dealii::Quadrature.147"* @_ZNK6dealii2hp11QCollectionILi2EEixEj(%"class.dealii::hp::QCollection.137"* %this, i32 %index) #0 comdat align 2 !dbg !11925 {
entry:
  %this.addr = alloca %"class.dealii::hp::QCollection.137"*, align 8
  %index.addr = alloca i32, align 4
  store %"class.dealii::hp::QCollection.137"* %this, %"class.dealii::hp::QCollection.137"** %this.addr, align 8
  call void @llvm.dbg.declare(metadata %"class.dealii::hp::QCollection.137"** %this.addr, metadata !11926, metadata !DIExpression()), !dbg !11927
  store i32 %index, i32* %index.addr, align 4
  call void @llvm.dbg.declare(metadata i32* %index.addr, metadata !11928, metadata !DIExpression()), !dbg !11929
  %this1 = load %"class.dealii::hp::QCollection.137"*, %"class.dealii::hp::QCollection.137"** %this.addr, align 8
  %quadratures = getelementptr inbounds %"class.dealii::hp::QCollection.137", %"class.dealii::hp::QCollection.137"* %this1, i32 0, i32 1, !dbg !11930
  %0 = load i32, i32* %index.addr, align 4, !dbg !11931
  %conv = zext i32 %0 to i64, !dbg !11931
  %call = call dereferenceable(16) %"class.boost::shared_ptr.143"* @_ZNKSt6vectorIN5boost10shared_ptrIKN6dealii10QuadratureILi2EEEEESaIS6_EEixEm(%"class.std::vector.138"* %quadratures, i64 %conv) #4, !dbg !11930
  %call2 = call dereferenceable(128) %"class.dealii::Quadrature.147"* @_ZNK5boost10shared_ptrIKN6dealii10QuadratureILi2EEEEdeEv(%"class.boost::shared_ptr.143"* %call), !dbg !11932
  ret %"class.dealii::Quadrature.147"* %call2, !dbg !11933
}

declare dso_local void @_ZN6dealii12FEFaceValuesILi3ELi3EEC1ERKNS_7MappingILi3ELi3EEERKNS_13FiniteElementILi3ELi3EEERKNS_10QuadratureILi2EEENS_11UpdateFlagsE(%"class.dealii::FEFaceValues"*, %"class.dealii::Mapping"* dereferenceable(72), %"class.dealii::FiniteElement"* dereferenceable(728), %"class.dealii::Quadrature.147"* dereferenceable(128), i32) unnamed_addr #2

; Function Attrs: noinline uwtable
define linkonce_odr dso_local void @_ZN5boost10shared_ptrIN6dealii12FEFaceValuesILi3ELi3EEEEC2IS3_EEPT_(%"class.boost::shared_ptr.146"* %this, %"class.dealii::FEFaceValues"* %p) unnamed_addr #0 comdat align 2 personality i8* bitcast (i32 (...)* @__gxx_personality_v0 to i8*) !dbg !11934 {
entry:
  %this.addr = alloca %"class.boost::shared_ptr.146"*, align 8
  %p.addr = alloca %"class.dealii::FEFaceValues"*, align 8
  %exn.slot = alloca i8*
  %ehselector.slot = alloca i32
  store %"class.boost::shared_ptr.146"* %this, %"class.boost::shared_ptr.146"** %this.addr, align 8
  call void @llvm.dbg.declare(metadata %"class.boost::shared_ptr.146"** %this.addr, metadata !11940, metadata !DIExpression()), !dbg !11941
  store %"class.dealii::FEFaceValues"* %p, %"class.dealii::FEFaceValues"** %p.addr, align 8
  call void @llvm.dbg.declare(metadata %"class.dealii::FEFaceValues"** %p.addr, metadata !11942, metadata !DIExpression()), !dbg !11943
  %this1 = load %"class.boost::shared_ptr.146"*, %"class.boost::shared_ptr.146"** %this.addr, align 8
  %px = getelementptr inbounds %"class.boost::shared_ptr.146", %"class.boost::shared_ptr.146"* %this1, i32 0, i32 0, !dbg !11944
  %0 = load %"class.dealii::FEFaceValues"*, %"class.dealii::FEFaceValues"** %p.addr, align 8, !dbg !11945
  store %"class.dealii::FEFaceValues"* %0, %"class.dealii::FEFaceValues"** %px, align 8, !dbg !11944
  %pn = getelementptr inbounds %"class.boost::shared_ptr.146", %"class.boost::shared_ptr.146"* %this1, i32 0, i32 1, !dbg !11946
  %1 = load %"class.dealii::FEFaceValues"*, %"class.dealii::FEFaceValues"** %p.addr, align 8, !dbg !11947
  call void @_ZN5boost6detail12shared_countC2IN6dealii12FEFaceValuesILi3ELi3EEEEEPT_(%"class.boost::detail::shared_count"* %pn, %"class.dealii::FEFaceValues"* %1), !dbg !11946
  %pn2 = getelementptr inbounds %"class.boost::shared_ptr.146", %"class.boost::shared_ptr.146"* %this1, i32 0, i32 1, !dbg !11948
  %2 = load %"class.dealii::FEFaceValues"*, %"class.dealii::FEFaceValues"** %p.addr, align 8, !dbg !11950
  %3 = load %"class.dealii::FEFaceValues"*, %"class.dealii::FEFaceValues"** %p.addr, align 8, !dbg !11951
  invoke void (%"class.boost::detail::shared_count"*, ...) @_ZN5boost6detail26sp_enable_shared_from_thisERKNS0_12shared_countEz(%"class.boost::detail::shared_count"* dereferenceable(8) %pn2, %"class.dealii::FEFaceValues"* %2, %"class.dealii::FEFaceValues"* %3)
          to label %invoke.cont unwind label %lpad, !dbg !11952

invoke.cont:                                      ; preds = %entry
  ret void, !dbg !11953

lpad:                                             ; preds = %entry
  %4 = landingpad { i8*, i32 }
          cleanup, !dbg !11954
  %5 = extractvalue { i8*, i32 } %4, 0, !dbg !11954
  store i8* %5, i8** %exn.slot, align 8, !dbg !11954
  %6 = extractvalue { i8*, i32 } %4, 1, !dbg !11954
  store i32 %6, i32* %ehselector.slot, align 4, !dbg !11954
  call void @_ZN5boost6detail12shared_countD2Ev(%"class.boost::detail::shared_count"* %pn) #4, !dbg !11954
  br label %eh.resume, !dbg !11954

eh.resume:                                        ; preds = %lpad
  %exn = load i8*, i8** %exn.slot, align 8, !dbg !11954
  %sel = load i32, i32* %ehselector.slot, align 4, !dbg !11954
  %lpad.val = insertvalue { i8*, i32 } undef, i8* %exn, 0, !dbg !11954
  %lpad.val3 = insertvalue { i8*, i32 } %lpad.val, i32 %sel, 1, !dbg !11954
  resume { i8*, i32 } %lpad.val3, !dbg !11954
}

; Function Attrs: noinline uwtable
define linkonce_odr dso_local dereferenceable(16) %"class.boost::shared_ptr.146"* @_ZN5boost10shared_ptrIN6dealii12FEFaceValuesILi3ELi3EEEEaSERKS4_(%"class.boost::shared_ptr.146"* %this, %"class.boost::shared_ptr.146"* dereferenceable(16) %r) #0 comdat align 2 !dbg !11955 {
entry:
  %this.addr = alloca %"class.boost::shared_ptr.146"*, align 8
  %r.addr = alloca %"class.boost::shared_ptr.146"*, align 8
  store %"class.boost::shared_ptr.146"* %this, %"class.boost::shared_ptr.146"** %this.addr, align 8
  call void @llvm.dbg.declare(metadata %"class.boost::shared_ptr.146"** %this.addr, metadata !11956, metadata !DIExpression()), !dbg !11957
  store %"class.boost::shared_ptr.146"* %r, %"class.boost::shared_ptr.146"** %r.addr, align 8
  call void @llvm.dbg.declare(metadata %"class.boost::shared_ptr.146"** %r.addr, metadata !11958, metadata !DIExpression()), !dbg !11959
  %this1 = load %"class.boost::shared_ptr.146"*, %"class.boost::shared_ptr.146"** %this.addr, align 8
  %0 = load %"class.boost::shared_ptr.146"*, %"class.boost::shared_ptr.146"** %r.addr, align 8, !dbg !11960
  %px = getelementptr inbounds %"class.boost::shared_ptr.146", %"class.boost::shared_ptr.146"* %0, i32 0, i32 0, !dbg !11961
  %1 = load %"class.dealii::FEFaceValues"*, %"class.dealii::FEFaceValues"** %px, align 8, !dbg !11961
  %px2 = getelementptr inbounds %"class.boost::shared_ptr.146", %"class.boost::shared_ptr.146"* %this1, i32 0, i32 0, !dbg !11962
  store %"class.dealii::FEFaceValues"* %1, %"class.dealii::FEFaceValues"** %px2, align 8, !dbg !11963
  %2 = load %"class.boost::shared_ptr.146"*, %"class.boost::shared_ptr.146"** %r.addr, align 8, !dbg !11964
  %pn = getelementptr inbounds %"class.boost::shared_ptr.146", %"class.boost::shared_ptr.146"* %2, i32 0, i32 1, !dbg !11965
  %pn3 = getelementptr inbounds %"class.boost::shared_ptr.146", %"class.boost::shared_ptr.146"* %this1, i32 0, i32 1, !dbg !11966
  %call = call dereferenceable(8) %"class.boost::detail::shared_count"* @_ZN5boost6detail12shared_countaSERKS1_(%"class.boost::detail::shared_count"* %pn3, %"class.boost::detail::shared_count"* dereferenceable(8) %pn), !dbg !11967
  ret %"class.boost::shared_ptr.146"* %this1, !dbg !11968
}

; Function Attrs: noinline nounwind uwtable
define linkonce_odr dso_local void @_ZN5boost10shared_ptrIN6dealii12FEFaceValuesILi3ELi3EEEED2Ev(%"class.boost::shared_ptr.146"* %this) unnamed_addr #1 comdat align 2 !dbg !11969 {
entry:
  %this.addr = alloca %"class.boost::shared_ptr.146"*, align 8
  store %"class.boost::shared_ptr.146"* %this, %"class.boost::shared_ptr.146"** %this.addr, align 8
  call void @llvm.dbg.declare(metadata %"class.boost::shared_ptr.146"** %this.addr, metadata !11971, metadata !DIExpression()), !dbg !11972
  %this1 = load %"class.boost::shared_ptr.146"*, %"class.boost::shared_ptr.146"** %this.addr, align 8
  %pn = getelementptr inbounds %"class.boost::shared_ptr.146", %"class.boost::shared_ptr.146"* %this1, i32 0, i32 1, !dbg !11973
  call void @_ZN5boost6detail12shared_countD2Ev(%"class.boost::detail::shared_count"* %pn) #4, !dbg !11973
  ret void, !dbg !11975
}

; Function Attrs: noinline uwtable
define weak_odr dso_local void @_ZN6dealii8internal2hp12FEValuesBaseILi3ELi2ENS_15FESubfaceValuesILi3ELi3EEEEC2ERKNS_2hp17MappingCollectionILi3ELi3EEERKNS6_12FECollectionILi3ELi3EEERKNS6_11QCollectionILi2EEENS_11UpdateFlagsE(%"class.dealii::internal::hp::FEValuesBase.148"* %this, %"class.dealii::hp::MappingCollection"* dereferenceable(96) %mapping_collection, %"class.dealii::hp::FECollection"* dereferenceable(96) %fe_collection, %"class.dealii::hp::QCollection.137"* dereferenceable(96) %q_collection, i32 %update_flags) unnamed_addr #0 comdat($_ZN6dealii8internal2hp12FEValuesBaseILi3ELi2ENS_15FESubfaceValuesILi3ELi3EEEEC5ERKNS_2hp17MappingCollectionILi3ELi3EEERKNS6_12FECollectionILi3ELi3EEERKNS6_11QCollectionILi2EEENS_11UpdateFlagsE) align 2 personality i8* bitcast (i32 (...)* @__gxx_personality_v0 to i8*) !dbg !11976 {
entry:
  %this.addr = alloca %"class.dealii::internal::hp::FEValuesBase.148"*, align 8
  %mapping_collection.addr = alloca %"class.dealii::hp::MappingCollection"*, align 8
  %fe_collection.addr = alloca %"class.dealii::hp::FECollection"*, align 8
  %q_collection.addr = alloca %"class.dealii::hp::QCollection.137"*, align 8
  %update_flags.addr = alloca i32, align 4
  %exn.slot = alloca i8*
  %ehselector.slot = alloca i32
  store %"class.dealii::internal::hp::FEValuesBase.148"* %this, %"class.dealii::internal::hp::FEValuesBase.148"** %this.addr, align 8
  call void @llvm.dbg.declare(metadata %"class.dealii::internal::hp::FEValuesBase.148"** %this.addr, metadata !11977, metadata !DIExpression()), !dbg !11979
  store %"class.dealii::hp::MappingCollection"* %mapping_collection, %"class.dealii::hp::MappingCollection"** %mapping_collection.addr, align 8
  call void @llvm.dbg.declare(metadata %"class.dealii::hp::MappingCollection"** %mapping_collection.addr, metadata !11980, metadata !DIExpression()), !dbg !11981
  store %"class.dealii::hp::FECollection"* %fe_collection, %"class.dealii::hp::FECollection"** %fe_collection.addr, align 8
  call void @llvm.dbg.declare(metadata %"class.dealii::hp::FECollection"** %fe_collection.addr, metadata !11982, metadata !DIExpression()), !dbg !11983
  store %"class.dealii::hp::QCollection.137"* %q_collection, %"class.dealii::hp::QCollection.137"** %q_collection.addr, align 8
  call void @llvm.dbg.declare(metadata %"class.dealii::hp::QCollection.137"** %q_collection.addr, metadata !11984, metadata !DIExpression()), !dbg !11985
  store i32 %update_flags, i32* %update_flags.addr, align 4
  call void @llvm.dbg.declare(metadata i32* %update_flags.addr, metadata !11986, metadata !DIExpression()), !dbg !11987
  %this1 = load %"class.dealii::internal::hp::FEValuesBase.148"*, %"class.dealii::internal::hp::FEValuesBase.148"** %this.addr, align 8
  %fe_collection2 = getelementptr inbounds %"class.dealii::internal::hp::FEValuesBase.148", %"class.dealii::internal::hp::FEValuesBase.148"* %this1, i32 0, i32 0, !dbg !11988
  %0 = load %"class.dealii::hp::FECollection"*, %"class.dealii::hp::FECollection"** %fe_collection.addr, align 8, !dbg !11989
  call void @_ZN6dealii12SmartPointerIKNS_2hp12FECollectionILi3ELi3EEEEC2EPS4_PKc(%"class.dealii::SmartPointer"* %fe_collection2, %"class.dealii::hp::FECollection"* %0, i8* null), !dbg !11988
  %mapping_collection3 = getelementptr inbounds %"class.dealii::internal::hp::FEValuesBase.148", %"class.dealii::internal::hp::FEValuesBase.148"* %this1, i32 0, i32 1, !dbg !11990
  %1 = load %"class.dealii::hp::MappingCollection"*, %"class.dealii::hp::MappingCollection"** %mapping_collection.addr, align 8, !dbg !11991
  invoke void @_ZN6dealii12SmartPointerIKNS_2hp17MappingCollectionILi3ELi3EEEEC2EPS4_PKc(%"class.dealii::SmartPointer.19"* %mapping_collection3, %"class.dealii::hp::MappingCollection"* %1, i8* null)
          to label %invoke.cont unwind label %lpad, !dbg !11990

invoke.cont:                                      ; preds = %entry
  %q_collection4 = getelementptr inbounds %"class.dealii::internal::hp::FEValuesBase.148", %"class.dealii::internal::hp::FEValuesBase.148"* %this1, i32 0, i32 2, !dbg !11992
  %2 = load %"class.dealii::hp::QCollection.137"*, %"class.dealii::hp::QCollection.137"** %q_collection.addr, align 8, !dbg !11993
  invoke void @_ZN6dealii2hp11QCollectionILi2EEC2ERKS2_(%"class.dealii::hp::QCollection.137"* %q_collection4, %"class.dealii::hp::QCollection.137"* dereferenceable(96) %2)
          to label %invoke.cont6 unwind label %lpad5, !dbg !11992

invoke.cont6:                                     ; preds = %invoke.cont
  %fe_values_table = getelementptr inbounds %"class.dealii::internal::hp::FEValuesBase.148", %"class.dealii::internal::hp::FEValuesBase.148"* %this1, i32 0, i32 3, !dbg !11994
  %3 = load %"class.dealii::hp::FECollection"*, %"class.dealii::hp::FECollection"** %fe_collection.addr, align 8, !dbg !11995
  %call = invoke i32 @_ZNK6dealii2hp12FECollectionILi3ELi3EE4sizeEv(%"class.dealii::hp::FECollection"* %3)
          to label %invoke.cont8 unwind label %lpad7, !dbg !11996

invoke.cont8:                                     ; preds = %invoke.cont6
  %4 = load %"class.dealii::hp::MappingCollection"*, %"class.dealii::hp::MappingCollection"** %mapping_collection.addr, align 8, !dbg !11997
  %call10 = invoke i32 @_ZNK6dealii2hp17MappingCollectionILi3ELi3EE4sizeEv(%"class.dealii::hp::MappingCollection"* %4)
          to label %invoke.cont9 unwind label %lpad7, !dbg !11998

invoke.cont9:                                     ; preds = %invoke.cont8
  %5 = load %"class.dealii::hp::QCollection.137"*, %"class.dealii::hp::QCollection.137"** %q_collection.addr, align 8, !dbg !11999
  %call12 = invoke i32 @_ZNK6dealii2hp11QCollectionILi2EE4sizeEv(%"class.dealii::hp::QCollection.137"* %5)
          to label %invoke.cont11 unwind label %lpad7, !dbg !12000

invoke.cont11:                                    ; preds = %invoke.cont9
  invoke void @_ZN6dealii5TableILi3EN5boost10shared_ptrINS_15FESubfaceValuesILi3ELi3EEEEEEC2Ejjj(%"class.dealii::Table.149"* %fe_values_table, i32 %call, i32 %call10, i32 %call12)
          to label %invoke.cont13 unwind label %lpad7, !dbg !11994

invoke.cont13:                                    ; preds = %invoke.cont11
  %present_fe_values_index = getelementptr inbounds %"class.dealii::internal::hp::FEValuesBase.148", %"class.dealii::internal::hp::FEValuesBase.148"* %this1, i32 0, i32 4, !dbg !12001
  invoke void @_ZN6dealii12TableIndicesILi3EEC2Ejjj(%"class.dealii::TableIndices"* %present_fe_values_index, i32 -1, i32 -1, i32 -1)
          to label %invoke.cont15 unwind label %lpad14, !dbg !12001

invoke.cont15:                                    ; preds = %invoke.cont13
  %update_flags16 = getelementptr inbounds %"class.dealii::internal::hp::FEValuesBase.148", %"class.dealii::internal::hp::FEValuesBase.148"* %this1, i32 0, i32 5, !dbg !12002
  %6 = load i32, i32* %update_flags.addr, align 4, !dbg !12003
  store i32 %6, i32* %update_flags16, align 4, !dbg !12002
  ret void, !dbg !12004

lpad:                                             ; preds = %entry
  %7 = landingpad { i8*, i32 }
          cleanup, !dbg !12004
  %8 = extractvalue { i8*, i32 } %7, 0, !dbg !12004
  store i8* %8, i8** %exn.slot, align 8, !dbg !12004
  %9 = extractvalue { i8*, i32 } %7, 1, !dbg !12004
  store i32 %9, i32* %ehselector.slot, align 4, !dbg !12004
  br label %ehcleanup18, !dbg !12004

lpad5:                                            ; preds = %invoke.cont
  %10 = landingpad { i8*, i32 }
          cleanup, !dbg !12004
  %11 = extractvalue { i8*, i32 } %10, 0, !dbg !12004
  store i8* %11, i8** %exn.slot, align 8, !dbg !12004
  %12 = extractvalue { i8*, i32 } %10, 1, !dbg !12004
  store i32 %12, i32* %ehselector.slot, align 4, !dbg !12004
  br label %ehcleanup17, !dbg !12004

lpad7:                                            ; preds = %invoke.cont11, %invoke.cont9, %invoke.cont8, %invoke.cont6
  %13 = landingpad { i8*, i32 }
          cleanup, !dbg !12004
  %14 = extractvalue { i8*, i32 } %13, 0, !dbg !12004
  store i8* %14, i8** %exn.slot, align 8, !dbg !12004
  %15 = extractvalue { i8*, i32 } %13, 1, !dbg !12004
  store i32 %15, i32* %ehselector.slot, align 4, !dbg !12004
  br label %ehcleanup, !dbg !12004

lpad14:                                           ; preds = %invoke.cont13
  %16 = landingpad { i8*, i32 }
          cleanup, !dbg !12004
  %17 = extractvalue { i8*, i32 } %16, 0, !dbg !12004
  store i8* %17, i8** %exn.slot, align 8, !dbg !12004
  %18 = extractvalue { i8*, i32 } %16, 1, !dbg !12004
  store i32 %18, i32* %ehselector.slot, align 4, !dbg !12004
  call void @_ZN6dealii5TableILi3EN5boost10shared_ptrINS_15FESubfaceValuesILi3ELi3EEEEEED2Ev(%"class.dealii::Table.149"* %fe_values_table) #4, !dbg !12005
  br label %ehcleanup, !dbg !12005

ehcleanup:                                        ; preds = %lpad14, %lpad7
  call void @_ZN6dealii2hp11QCollectionILi2EED2Ev(%"class.dealii::hp::QCollection.137"* %q_collection4) #4, !dbg !12005
  br label %ehcleanup17, !dbg !12005

ehcleanup17:                                      ; preds = %ehcleanup, %lpad5
  call void @_ZN6dealii12SmartPointerIKNS_2hp17MappingCollectionILi3ELi3EEEED2Ev(%"class.dealii::SmartPointer.19"* %mapping_collection3) #4, !dbg !12005
  br label %ehcleanup18, !dbg !12005

ehcleanup18:                                      ; preds = %ehcleanup17, %lpad
  call void @_ZN6dealii12SmartPointerIKNS_2hp12FECollectionILi3ELi3EEEED2Ev(%"class.dealii::SmartPointer"* %fe_collection2) #4, !dbg !12005
  br label %eh.resume, !dbg !12005

eh.resume:                                        ; preds = %ehcleanup18
  %exn = load i8*, i8** %exn.slot, align 8, !dbg !12005
  %sel = load i32, i32* %ehselector.slot, align 4, !dbg !12005
  %lpad.val = insertvalue { i8*, i32 } undef, i8* %exn, 0, !dbg !12005
  %lpad.val19 = insertvalue { i8*, i32 } %lpad.val, i32 %sel, 1, !dbg !12005
  resume { i8*, i32 } %lpad.val19, !dbg !12005
}

; Function Attrs: noinline uwtable
define linkonce_odr dso_local void @_ZN6dealii5TableILi3EN5boost10shared_ptrINS_15FESubfaceValuesILi3ELi3EEEEEEC2Ejjj(%"class.dealii::Table.149"* %this, i32 %size1, i32 %size2, i32 %size3) unnamed_addr #0 comdat align 2 !dbg !12007 {
entry:
  %this.addr = alloca %"class.dealii::Table.149"*, align 8
  %size1.addr = alloca i32, align 4
  %size2.addr = alloca i32, align 4
  %size3.addr = alloca i32, align 4
  %ref.tmp = alloca %"class.dealii::TableIndices", align 4
  store %"class.dealii::Table.149"* %this, %"class.dealii::Table.149"** %this.addr, align 8
  call void @llvm.dbg.declare(metadata %"class.dealii::Table.149"** %this.addr, metadata !12008, metadata !DIExpression()), !dbg !12010
  store i32 %size1, i32* %size1.addr, align 4
  call void @llvm.dbg.declare(metadata i32* %size1.addr, metadata !12011, metadata !DIExpression()), !dbg !12012
  store i32 %size2, i32* %size2.addr, align 4
  call void @llvm.dbg.declare(metadata i32* %size2.addr, metadata !12013, metadata !DIExpression()), !dbg !12014
  store i32 %size3, i32* %size3.addr, align 4
  call void @llvm.dbg.declare(metadata i32* %size3.addr, metadata !12015, metadata !DIExpression()), !dbg !12016
  %this1 = load %"class.dealii::Table.149"*, %"class.dealii::Table.149"** %this.addr, align 8
  %0 = bitcast %"class.dealii::Table.149"* %this1 to %"class.dealii::TableBase.150"*, !dbg !12017
  %1 = load i32, i32* %size1.addr, align 4, !dbg !12018
  %2 = load i32, i32* %size2.addr, align 4, !dbg !12019
  %3 = load i32, i32* %size3.addr, align 4, !dbg !12020
  call void @_ZN6dealii12TableIndicesILi3EEC2Ejjj(%"class.dealii::TableIndices"* %ref.tmp, i32 %1, i32 %2, i32 %3), !dbg !12021
  call void @_ZN6dealii9TableBaseILi3EN5boost10shared_ptrINS_15FESubfaceValuesILi3ELi3EEEEEEC2ERKNS_12TableIndicesILi3EEE(%"class.dealii::TableBase.150"* %0, %"class.dealii::TableIndices"* dereferenceable(12) %ref.tmp), !dbg !12022
  %4 = bitcast %"class.dealii::Table.149"* %this1 to i32 (...)***, !dbg !12017
  store i32 (...)** bitcast (i8** getelementptr inbounds ({ [4 x i8*] }, { [4 x i8*] }* @_ZTVN6dealii5TableILi3EN5boost10shared_ptrINS_15FESubfaceValuesILi3ELi3EEEEEEE, i32 0, inrange i32 0, i32 2) to i32 (...)**), i32 (...)*** %4, align 8, !dbg !12017
  ret void, !dbg !12023
}

; Function Attrs: noinline nounwind uwtable
define linkonce_odr dso_local void @_ZN6dealii5TableILi3EN5boost10shared_ptrINS_15FESubfaceValuesILi3ELi3EEEEEED2Ev(%"class.dealii::Table.149"* %this) unnamed_addr #1 comdat align 2 !dbg !12024 {
entry:
  %this.addr = alloca %"class.dealii::Table.149"*, align 8
  store %"class.dealii::Table.149"* %this, %"class.dealii::Table.149"** %this.addr, align 8
  call void @llvm.dbg.declare(metadata %"class.dealii::Table.149"** %this.addr, metadata !12026, metadata !DIExpression()), !dbg !12027
  %this1 = load %"class.dealii::Table.149"*, %"class.dealii::Table.149"** %this.addr, align 8
  %0 = bitcast %"class.dealii::Table.149"* %this1 to %"class.dealii::TableBase.150"*, !dbg !12028
  call void @_ZN6dealii9TableBaseILi3EN5boost10shared_ptrINS_15FESubfaceValuesILi3ELi3EEEEEED2Ev(%"class.dealii::TableBase.150"* %0) #4, !dbg !12028
  ret void, !dbg !12030
}

; Function Attrs: noinline uwtable
define weak_odr dso_local void @_ZN6dealii8internal2hp12FEValuesBaseILi3ELi2ENS_15FESubfaceValuesILi3ELi3EEEEC2ERKNS_2hp12FECollectionILi3ELi3EEERKNS6_11QCollectionILi2EEENS_11UpdateFlagsE(%"class.dealii::internal::hp::FEValuesBase.148"* %this, %"class.dealii::hp::FECollection"* dereferenceable(96) %fe_collection, %"class.dealii::hp::QCollection.137"* dereferenceable(96) %q_collection, i32 %update_flags) unnamed_addr #0 comdat($_ZN6dealii8internal2hp12FEValuesBaseILi3ELi2ENS_15FESubfaceValuesILi3ELi3EEEEC5ERKNS_2hp12FECollectionILi3ELi3EEERKNS6_11QCollectionILi2EEENS_11UpdateFlagsE) align 2 personality i8* bitcast (i32 (...)* @__gxx_personality_v0 to i8*) !dbg !12031 {
entry:
  %this.addr = alloca %"class.dealii::internal::hp::FEValuesBase.148"*, align 8
  %fe_collection.addr = alloca %"class.dealii::hp::FECollection"*, align 8
  %q_collection.addr = alloca %"class.dealii::hp::QCollection.137"*, align 8
  %update_flags.addr = alloca i32, align 4
  %exn.slot = alloca i8*
  %ehselector.slot = alloca i32
  store %"class.dealii::internal::hp::FEValuesBase.148"* %this, %"class.dealii::internal::hp::FEValuesBase.148"** %this.addr, align 8
  call void @llvm.dbg.declare(metadata %"class.dealii::internal::hp::FEValuesBase.148"** %this.addr, metadata !12032, metadata !DIExpression()), !dbg !12033
  store %"class.dealii::hp::FECollection"* %fe_collection, %"class.dealii::hp::FECollection"** %fe_collection.addr, align 8
  call void @llvm.dbg.declare(metadata %"class.dealii::hp::FECollection"** %fe_collection.addr, metadata !12034, metadata !DIExpression()), !dbg !12035
  store %"class.dealii::hp::QCollection.137"* %q_collection, %"class.dealii::hp::QCollection.137"** %q_collection.addr, align 8
  call void @llvm.dbg.declare(metadata %"class.dealii::hp::QCollection.137"** %q_collection.addr, metadata !12036, metadata !DIExpression()), !dbg !12037
  store i32 %update_flags, i32* %update_flags.addr, align 4
  call void @llvm.dbg.declare(metadata i32* %update_flags.addr, metadata !12038, metadata !DIExpression()), !dbg !12039
  %this1 = load %"class.dealii::internal::hp::FEValuesBase.148"*, %"class.dealii::internal::hp::FEValuesBase.148"** %this.addr, align 8
  %fe_collection2 = getelementptr inbounds %"class.dealii::internal::hp::FEValuesBase.148", %"class.dealii::internal::hp::FEValuesBase.148"* %this1, i32 0, i32 0, !dbg !12040
  %0 = load %"class.dealii::hp::FECollection"*, %"class.dealii::hp::FECollection"** %fe_collection.addr, align 8, !dbg !12041
  call void @_ZN6dealii12SmartPointerIKNS_2hp12FECollectionILi3ELi3EEEEC2EPS4_PKc(%"class.dealii::SmartPointer"* %fe_collection2, %"class.dealii::hp::FECollection"* %0, i8* null), !dbg !12040
  %mapping_collection = getelementptr inbounds %"class.dealii::internal::hp::FEValuesBase.148", %"class.dealii::internal::hp::FEValuesBase.148"* %this1, i32 0, i32 1, !dbg !12042
  invoke void @_ZN6dealii12SmartPointerIKNS_2hp17MappingCollectionILi3ELi3EEEEC2EPS4_PKc(%"class.dealii::SmartPointer.19"* %mapping_collection, %"class.dealii::hp::MappingCollection"* @_ZN6dealii2hp15StaticMappingQ1ILi3ELi3EE18mapping_collectionE, i8* null)
          to label %invoke.cont unwind label %lpad, !dbg !12042

invoke.cont:                                      ; preds = %entry
  %q_collection3 = getelementptr inbounds %"class.dealii::internal::hp::FEValuesBase.148", %"class.dealii::internal::hp::FEValuesBase.148"* %this1, i32 0, i32 2, !dbg !12043
  %1 = load %"class.dealii::hp::QCollection.137"*, %"class.dealii::hp::QCollection.137"** %q_collection.addr, align 8, !dbg !12044
  invoke void @_ZN6dealii2hp11QCollectionILi2EEC2ERKS2_(%"class.dealii::hp::QCollection.137"* %q_collection3, %"class.dealii::hp::QCollection.137"* dereferenceable(96) %1)
          to label %invoke.cont5 unwind label %lpad4, !dbg !12043

invoke.cont5:                                     ; preds = %invoke.cont
  %fe_values_table = getelementptr inbounds %"class.dealii::internal::hp::FEValuesBase.148", %"class.dealii::internal::hp::FEValuesBase.148"* %this1, i32 0, i32 3, !dbg !12045
  %2 = load %"class.dealii::hp::FECollection"*, %"class.dealii::hp::FECollection"** %fe_collection.addr, align 8, !dbg !12046
  %call = invoke i32 @_ZNK6dealii2hp12FECollectionILi3ELi3EE4sizeEv(%"class.dealii::hp::FECollection"* %2)
          to label %invoke.cont7 unwind label %lpad6, !dbg !12047

invoke.cont7:                                     ; preds = %invoke.cont5
  %3 = load %"class.dealii::hp::QCollection.137"*, %"class.dealii::hp::QCollection.137"** %q_collection.addr, align 8, !dbg !12048
  %call9 = invoke i32 @_ZNK6dealii2hp11QCollectionILi2EE4sizeEv(%"class.dealii::hp::QCollection.137"* %3)
          to label %invoke.cont8 unwind label %lpad6, !dbg !12049

invoke.cont8:                                     ; preds = %invoke.cont7
  invoke void @_ZN6dealii5TableILi3EN5boost10shared_ptrINS_15FESubfaceValuesILi3ELi3EEEEEEC2Ejjj(%"class.dealii::Table.149"* %fe_values_table, i32 %call, i32 1, i32 %call9)
          to label %invoke.cont10 unwind label %lpad6, !dbg !12045

invoke.cont10:                                    ; preds = %invoke.cont8
  %present_fe_values_index = getelementptr inbounds %"class.dealii::internal::hp::FEValuesBase.148", %"class.dealii::internal::hp::FEValuesBase.148"* %this1, i32 0, i32 4, !dbg !12050
  invoke void @_ZN6dealii12TableIndicesILi3EEC2Ejjj(%"class.dealii::TableIndices"* %present_fe_values_index, i32 -1, i32 -1, i32 -1)
          to label %invoke.cont12 unwind label %lpad11, !dbg !12050

invoke.cont12:                                    ; preds = %invoke.cont10
  %update_flags13 = getelementptr inbounds %"class.dealii::internal::hp::FEValuesBase.148", %"class.dealii::internal::hp::FEValuesBase.148"* %this1, i32 0, i32 5, !dbg !12051
  %4 = load i32, i32* %update_flags.addr, align 4, !dbg !12052
  store i32 %4, i32* %update_flags13, align 4, !dbg !12051
  ret void, !dbg !12053

lpad:                                             ; preds = %entry
  %5 = landingpad { i8*, i32 }
          cleanup, !dbg !12053
  %6 = extractvalue { i8*, i32 } %5, 0, !dbg !12053
  store i8* %6, i8** %exn.slot, align 8, !dbg !12053
  %7 = extractvalue { i8*, i32 } %5, 1, !dbg !12053
  store i32 %7, i32* %ehselector.slot, align 4, !dbg !12053
  br label %ehcleanup15, !dbg !12053

lpad4:                                            ; preds = %invoke.cont
  %8 = landingpad { i8*, i32 }
          cleanup, !dbg !12053
  %9 = extractvalue { i8*, i32 } %8, 0, !dbg !12053
  store i8* %9, i8** %exn.slot, align 8, !dbg !12053
  %10 = extractvalue { i8*, i32 } %8, 1, !dbg !12053
  store i32 %10, i32* %ehselector.slot, align 4, !dbg !12053
  br label %ehcleanup14, !dbg !12053

lpad6:                                            ; preds = %invoke.cont8, %invoke.cont7, %invoke.cont5
  %11 = landingpad { i8*, i32 }
          cleanup, !dbg !12053
  %12 = extractvalue { i8*, i32 } %11, 0, !dbg !12053
  store i8* %12, i8** %exn.slot, align 8, !dbg !12053
  %13 = extractvalue { i8*, i32 } %11, 1, !dbg !12053
  store i32 %13, i32* %ehselector.slot, align 4, !dbg !12053
  br label %ehcleanup, !dbg !12053

lpad11:                                           ; preds = %invoke.cont10
  %14 = landingpad { i8*, i32 }
          cleanup, !dbg !12053
  %15 = extractvalue { i8*, i32 } %14, 0, !dbg !12053
  store i8* %15, i8** %exn.slot, align 8, !dbg !12053
  %16 = extractvalue { i8*, i32 } %14, 1, !dbg !12053
  store i32 %16, i32* %ehselector.slot, align 4, !dbg !12053
  call void @_ZN6dealii5TableILi3EN5boost10shared_ptrINS_15FESubfaceValuesILi3ELi3EEEEEED2Ev(%"class.dealii::Table.149"* %fe_values_table) #4, !dbg !12054
  br label %ehcleanup, !dbg !12054

ehcleanup:                                        ; preds = %lpad11, %lpad6
  call void @_ZN6dealii2hp11QCollectionILi2EED2Ev(%"class.dealii::hp::QCollection.137"* %q_collection3) #4, !dbg !12054
  br label %ehcleanup14, !dbg !12054

ehcleanup14:                                      ; preds = %ehcleanup, %lpad4
  call void @_ZN6dealii12SmartPointerIKNS_2hp17MappingCollectionILi3ELi3EEEED2Ev(%"class.dealii::SmartPointer.19"* %mapping_collection) #4, !dbg !12054
  br label %ehcleanup15, !dbg !12054

ehcleanup15:                                      ; preds = %ehcleanup14, %lpad
  call void @_ZN6dealii12SmartPointerIKNS_2hp12FECollectionILi3ELi3EEEED2Ev(%"class.dealii::SmartPointer"* %fe_collection2) #4, !dbg !12054
  br label %eh.resume, !dbg !12054

eh.resume:                                        ; preds = %ehcleanup15
  %exn = load i8*, i8** %exn.slot, align 8, !dbg !12054
  %sel = load i32, i32* %ehselector.slot, align 4, !dbg !12054
  %lpad.val = insertvalue { i8*, i32 } undef, i8* %exn, 0, !dbg !12054
  %lpad.val16 = insertvalue { i8*, i32 } %lpad.val, i32 %sel, 1, !dbg !12054
  resume { i8*, i32 } %lpad.val16, !dbg !12054
}

; Function Attrs: noinline uwtable
define weak_odr dso_local dereferenceable(784) %"class.dealii::FESubfaceValues"* @_ZNK6dealii8internal2hp12FEValuesBaseILi3ELi2ENS_15FESubfaceValuesILi3ELi3EEEE21get_present_fe_valuesEv(%"class.dealii::internal::hp::FEValuesBase.148"* %this) #0 comdat align 2 !dbg !12056 {
entry:
  %this.addr = alloca %"class.dealii::internal::hp::FEValuesBase.148"*, align 8
  store %"class.dealii::internal::hp::FEValuesBase.148"* %this, %"class.dealii::internal::hp::FEValuesBase.148"** %this.addr, align 8
  call void @llvm.dbg.declare(metadata %"class.dealii::internal::hp::FEValuesBase.148"** %this.addr, metadata !12057, metadata !DIExpression()), !dbg !12059
  %this1 = load %"class.dealii::internal::hp::FEValuesBase.148"*, %"class.dealii::internal::hp::FEValuesBase.148"** %this.addr, align 8
  %fe_values_table = getelementptr inbounds %"class.dealii::internal::hp::FEValuesBase.148", %"class.dealii::internal::hp::FEValuesBase.148"* %this1, i32 0, i32 3, !dbg !12060
  %present_fe_values_index = getelementptr inbounds %"class.dealii::internal::hp::FEValuesBase.148", %"class.dealii::internal::hp::FEValuesBase.148"* %this1, i32 0, i32 4, !dbg !12061
  %call = call dereferenceable(16) %"class.boost::shared_ptr.151"* @_ZNK6dealii5TableILi3EN5boost10shared_ptrINS_15FESubfaceValuesILi3ELi3EEEEEEclERKNS_12TableIndicesILi3EEE(%"class.dealii::Table.149"* %fe_values_table, %"class.dealii::TableIndices"* dereferenceable(12) %present_fe_values_index), !dbg !12060
  %call2 = call dereferenceable(784) %"class.dealii::FESubfaceValues"* @_ZNK5boost10shared_ptrIN6dealii15FESubfaceValuesILi3ELi3EEEEdeEv(%"class.boost::shared_ptr.151"* %call), !dbg !12062
  ret %"class.dealii::FESubfaceValues"* %call2, !dbg !12063
}

; Function Attrs: noinline uwtable
define linkonce_odr dso_local dereferenceable(16) %"class.boost::shared_ptr.151"* @_ZNK6dealii5TableILi3EN5boost10shared_ptrINS_15FESubfaceValuesILi3ELi3EEEEEEclERKNS_12TableIndicesILi3EEE(%"class.dealii::Table.149"* %this, %"class.dealii::TableIndices"* dereferenceable(12) %indices) #0 comdat align 2 !dbg !12064 {
entry:
  %this.addr = alloca %"class.dealii::Table.149"*, align 8
  %indices.addr = alloca %"class.dealii::TableIndices"*, align 8
  store %"class.dealii::Table.149"* %this, %"class.dealii::Table.149"** %this.addr, align 8
  call void @llvm.dbg.declare(metadata %"class.dealii::Table.149"** %this.addr, metadata !12065, metadata !DIExpression()), !dbg !12067
  store %"class.dealii::TableIndices"* %indices, %"class.dealii::TableIndices"** %indices.addr, align 8
  call void @llvm.dbg.declare(metadata %"class.dealii::TableIndices"** %indices.addr, metadata !12068, metadata !DIExpression()), !dbg !12069
  %this1 = load %"class.dealii::Table.149"*, %"class.dealii::Table.149"** %this.addr, align 8
  %0 = bitcast %"class.dealii::Table.149"* %this1 to %"class.dealii::TableBase.150"*, !dbg !12070
  %1 = load %"class.dealii::TableIndices"*, %"class.dealii::TableIndices"** %indices.addr, align 8, !dbg !12071
  %call = call dereferenceable(16) %"class.boost::shared_ptr.151"* @_ZNK6dealii9TableBaseILi3EN5boost10shared_ptrINS_15FESubfaceValuesILi3ELi3EEEEEEclERKNS_12TableIndicesILi3EEE(%"class.dealii::TableBase.150"* %0, %"class.dealii::TableIndices"* dereferenceable(12) %1), !dbg !12070
  ret %"class.boost::shared_ptr.151"* %call, !dbg !12072
}

; Function Attrs: noinline nounwind uwtable
define linkonce_odr dso_local dereferenceable(784) %"class.dealii::FESubfaceValues"* @_ZNK5boost10shared_ptrIN6dealii15FESubfaceValuesILi3ELi3EEEEdeEv(%"class.boost::shared_ptr.151"* %this) #1 comdat align 2 !dbg !12073 {
entry:
  %this.addr = alloca %"class.boost::shared_ptr.151"*, align 8
  store %"class.boost::shared_ptr.151"* %this, %"class.boost::shared_ptr.151"** %this.addr, align 8
  call void @llvm.dbg.declare(metadata %"class.boost::shared_ptr.151"** %this.addr, metadata !12074, metadata !DIExpression()), !dbg !12075
  %this1 = load %"class.boost::shared_ptr.151"*, %"class.boost::shared_ptr.151"** %this.addr, align 8
  %px = getelementptr inbounds %"class.boost::shared_ptr.151", %"class.boost::shared_ptr.151"* %this1, i32 0, i32 0, !dbg !12076
  %0 = load %"class.dealii::FESubfaceValues"*, %"class.dealii::FESubfaceValues"** %px, align 8, !dbg !12076
  ret %"class.dealii::FESubfaceValues"* %0, !dbg !12077
}

; Function Attrs: noinline uwtable
define weak_odr dso_local dereferenceable(784) %"class.dealii::FESubfaceValues"* @_ZN6dealii8internal2hp12FEValuesBaseILi3ELi2ENS_15FESubfaceValuesILi3ELi3EEEE16select_fe_valuesEjjj(%"class.dealii::internal::hp::FEValuesBase.148"* %this, i32 %fe_index, i32 %mapping_index, i32 %q_index) #0 comdat align 2 personality i8* bitcast (i32 (...)* @__gxx_personality_v0 to i8*) !dbg !12078 {
entry:
  %this.addr = alloca %"class.dealii::internal::hp::FEValuesBase.148"*, align 8
  %fe_index.addr = alloca i32, align 4
  %mapping_index.addr = alloca i32, align 4
  %q_index.addr = alloca i32, align 4
  %ref.tmp = alloca %"class.dealii::TableIndices", align 4
  %ref.tmp4 = alloca %"class.boost::shared_ptr.151", align 8
  %exn.slot = alloca i8*
  %ehselector.slot = alloca i32
  store %"class.dealii::internal::hp::FEValuesBase.148"* %this, %"class.dealii::internal::hp::FEValuesBase.148"** %this.addr, align 8
  call void @llvm.dbg.declare(metadata %"class.dealii::internal::hp::FEValuesBase.148"** %this.addr, metadata !12079, metadata !DIExpression()), !dbg !12080
  store i32 %fe_index, i32* %fe_index.addr, align 4
  call void @llvm.dbg.declare(metadata i32* %fe_index.addr, metadata !12081, metadata !DIExpression()), !dbg !12082
  store i32 %mapping_index, i32* %mapping_index.addr, align 4
  call void @llvm.dbg.declare(metadata i32* %mapping_index.addr, metadata !12083, metadata !DIExpression()), !dbg !12084
  store i32 %q_index, i32* %q_index.addr, align 4
  call void @llvm.dbg.declare(metadata i32* %q_index.addr, metadata !12085, metadata !DIExpression()), !dbg !12086
  %this1 = load %"class.dealii::internal::hp::FEValuesBase.148"*, %"class.dealii::internal::hp::FEValuesBase.148"** %this.addr, align 8
  %0 = load i32, i32* %fe_index.addr, align 4, !dbg !12087
  %1 = load i32, i32* %mapping_index.addr, align 4, !dbg !12088
  %2 = load i32, i32* %q_index.addr, align 4, !dbg !12089
  call void @_ZN6dealii12TableIndicesILi3EEC2Ejjj(%"class.dealii::TableIndices"* %ref.tmp, i32 %0, i32 %1, i32 %2), !dbg !12090
  %present_fe_values_index = getelementptr inbounds %"class.dealii::internal::hp::FEValuesBase.148", %"class.dealii::internal::hp::FEValuesBase.148"* %this1, i32 0, i32 4, !dbg !12091
  %3 = bitcast %"class.dealii::TableIndices"* %present_fe_values_index to i8*, !dbg !12092
  %4 = bitcast %"class.dealii::TableIndices"* %ref.tmp to i8*, !dbg !12092
  call void @llvm.memcpy.p0i8.p0i8.i64(i8* align 8 %3, i8* align 4 %4, i64 12, i1 false), !dbg !12092
  %fe_values_table = getelementptr inbounds %"class.dealii::internal::hp::FEValuesBase.148", %"class.dealii::internal::hp::FEValuesBase.148"* %this1, i32 0, i32 3, !dbg !12093
  %present_fe_values_index2 = getelementptr inbounds %"class.dealii::internal::hp::FEValuesBase.148", %"class.dealii::internal::hp::FEValuesBase.148"* %this1, i32 0, i32 4, !dbg !12095
  %call = call dereferenceable(16) %"class.boost::shared_ptr.151"* @_ZN6dealii5TableILi3EN5boost10shared_ptrINS_15FESubfaceValuesILi3ELi3EEEEEEclERKNS_12TableIndicesILi3EEE(%"class.dealii::Table.149"* %fe_values_table, %"class.dealii::TableIndices"* dereferenceable(12) %present_fe_values_index2), !dbg !12093
  %call3 = call i64 @_ZNK5boost10shared_ptrIN6dealii15FESubfaceValuesILi3ELi3EEEEcvMS4_PS3_Ev(%"class.boost::shared_ptr.151"* %call), !dbg !12093
  %5 = icmp eq i64 %call3, -1, !dbg !12096
  br i1 %5, label %if.then, label %if.end, !dbg !12097

if.then:                                          ; preds = %entry
  %call5 = call i8* @_Znwm(i64 784) #13, !dbg !12098
  %6 = bitcast i8* %call5 to %"class.dealii::FESubfaceValues"*, !dbg !12098
  %mapping_collection = getelementptr inbounds %"class.dealii::internal::hp::FEValuesBase.148", %"class.dealii::internal::hp::FEValuesBase.148"* %this1, i32 0, i32 1, !dbg !12099
  %call6 = invoke dereferenceable(96) %"class.dealii::hp::MappingCollection"* @_ZNK6dealii12SmartPointerIKNS_2hp17MappingCollectionILi3ELi3EEEEdeEv(%"class.dealii::SmartPointer.19"* %mapping_collection)
          to label %invoke.cont unwind label %lpad, !dbg !12100

invoke.cont:                                      ; preds = %if.then
  %7 = load i32, i32* %mapping_index.addr, align 4, !dbg !12101
  %call8 = invoke dereferenceable(72) %"class.dealii::Mapping"* @_ZNK6dealii2hp17MappingCollectionILi3ELi3EEixEj(%"class.dealii::hp::MappingCollection"* %call6, i32 %7)
          to label %invoke.cont7 unwind label %lpad, !dbg !12102

invoke.cont7:                                     ; preds = %invoke.cont
  %fe_collection = getelementptr inbounds %"class.dealii::internal::hp::FEValuesBase.148", %"class.dealii::internal::hp::FEValuesBase.148"* %this1, i32 0, i32 0, !dbg !12103
  %call10 = invoke dereferenceable(96) %"class.dealii::hp::FECollection"* @_ZNK6dealii12SmartPointerIKNS_2hp12FECollectionILi3ELi3EEEEdeEv(%"class.dealii::SmartPointer"* %fe_collection)
          to label %invoke.cont9 unwind label %lpad, !dbg !12104

invoke.cont9:                                     ; preds = %invoke.cont7
  %8 = load i32, i32* %fe_index.addr, align 4, !dbg !12105
  %call12 = invoke dereferenceable(728) %"class.dealii::FiniteElement"* @_ZNK6dealii2hp12FECollectionILi3ELi3EEixEj(%"class.dealii::hp::FECollection"* %call10, i32 %8)
          to label %invoke.cont11 unwind label %lpad, !dbg !12106

invoke.cont11:                                    ; preds = %invoke.cont9
  %q_collection = getelementptr inbounds %"class.dealii::internal::hp::FEValuesBase.148", %"class.dealii::internal::hp::FEValuesBase.148"* %this1, i32 0, i32 2, !dbg !12107
  %9 = load i32, i32* %q_index.addr, align 4, !dbg !12108
  %call14 = invoke dereferenceable(128) %"class.dealii::Quadrature.147"* @_ZNK6dealii2hp11QCollectionILi2EEixEj(%"class.dealii::hp::QCollection.137"* %q_collection, i32 %9)
          to label %invoke.cont13 unwind label %lpad, !dbg !12107

invoke.cont13:                                    ; preds = %invoke.cont11
  %update_flags = getelementptr inbounds %"class.dealii::internal::hp::FEValuesBase.148", %"class.dealii::internal::hp::FEValuesBase.148"* %this1, i32 0, i32 5, !dbg !12109
  %10 = load i32, i32* %update_flags, align 4, !dbg !12109
  invoke void @_ZN6dealii15FESubfaceValuesILi3ELi3EEC1ERKNS_7MappingILi3ELi3EEERKNS_13FiniteElementILi3ELi3EEERKNS_10QuadratureILi2EEENS_11UpdateFlagsE(%"class.dealii::FESubfaceValues"* %6, %"class.dealii::Mapping"* dereferenceable(72) %call8, %"class.dealii::FiniteElement"* dereferenceable(728) %call12, %"class.dealii::Quadrature.147"* dereferenceable(128) %call14, i32 %10)
          to label %invoke.cont15 unwind label %lpad, !dbg !12110

invoke.cont15:                                    ; preds = %invoke.cont13
  call void @_ZN5boost10shared_ptrIN6dealii15FESubfaceValuesILi3ELi3EEEEC2IS3_EEPT_(%"class.boost::shared_ptr.151"* %ref.tmp4, %"class.dealii::FESubfaceValues"* %6), !dbg !12111
  %fe_values_table16 = getelementptr inbounds %"class.dealii::internal::hp::FEValuesBase.148", %"class.dealii::internal::hp::FEValuesBase.148"* %this1, i32 0, i32 3, !dbg !12112
  %present_fe_values_index17 = getelementptr inbounds %"class.dealii::internal::hp::FEValuesBase.148", %"class.dealii::internal::hp::FEValuesBase.148"* %this1, i32 0, i32 4, !dbg !12113
  %call20 = invoke dereferenceable(16) %"class.boost::shared_ptr.151"* @_ZN6dealii5TableILi3EN5boost10shared_ptrINS_15FESubfaceValuesILi3ELi3EEEEEEclERKNS_12TableIndicesILi3EEE(%"class.dealii::Table.149"* %fe_values_table16, %"class.dealii::TableIndices"* dereferenceable(12) %present_fe_values_index17)
          to label %invoke.cont19 unwind label %lpad18, !dbg !12112

invoke.cont19:                                    ; preds = %invoke.cont15
  %call22 = invoke dereferenceable(16) %"class.boost::shared_ptr.151"* @_ZN5boost10shared_ptrIN6dealii15FESubfaceValuesILi3ELi3EEEEaSERKS4_(%"class.boost::shared_ptr.151"* %call20, %"class.boost::shared_ptr.151"* dereferenceable(16) %ref.tmp4)
          to label %invoke.cont21 unwind label %lpad18, !dbg !12114

invoke.cont21:                                    ; preds = %invoke.cont19
  call void @_ZN5boost10shared_ptrIN6dealii15FESubfaceValuesILi3ELi3EEEED2Ev(%"class.boost::shared_ptr.151"* %ref.tmp4) #4, !dbg !12112
  br label %if.end, !dbg !12112

lpad:                                             ; preds = %invoke.cont13, %invoke.cont11, %invoke.cont9, %invoke.cont7, %invoke.cont, %if.then
  %11 = landingpad { i8*, i32 }
          cleanup, !dbg !12115
  %12 = extractvalue { i8*, i32 } %11, 0, !dbg !12115
  store i8* %12, i8** %exn.slot, align 8, !dbg !12115
  %13 = extractvalue { i8*, i32 } %11, 1, !dbg !12115
  store i32 %13, i32* %ehselector.slot, align 4, !dbg !12115
  call void @_ZdlPv(i8* %call5) #14, !dbg !12098
  br label %eh.resume, !dbg !12098

lpad18:                                           ; preds = %invoke.cont19, %invoke.cont15
  %14 = landingpad { i8*, i32 }
          cleanup, !dbg !12115
  %15 = extractvalue { i8*, i32 } %14, 0, !dbg !12115
  store i8* %15, i8** %exn.slot, align 8, !dbg !12115
  %16 = extractvalue { i8*, i32 } %14, 1, !dbg !12115
  store i32 %16, i32* %ehselector.slot, align 4, !dbg !12115
  call void @_ZN5boost10shared_ptrIN6dealii15FESubfaceValuesILi3ELi3EEEED2Ev(%"class.boost::shared_ptr.151"* %ref.tmp4) #4, !dbg !12112
  br label %eh.resume, !dbg !12112

if.end:                                           ; preds = %invoke.cont21, %entry
  %fe_values_table23 = getelementptr inbounds %"class.dealii::internal::hp::FEValuesBase.148", %"class.dealii::internal::hp::FEValuesBase.148"* %this1, i32 0, i32 3, !dbg !12116
  %present_fe_values_index24 = getelementptr inbounds %"class.dealii::internal::hp::FEValuesBase.148", %"class.dealii::internal::hp::FEValuesBase.148"* %this1, i32 0, i32 4, !dbg !12117
  %call25 = call dereferenceable(16) %"class.boost::shared_ptr.151"* @_ZN6dealii5TableILi3EN5boost10shared_ptrINS_15FESubfaceValuesILi3ELi3EEEEEEclERKNS_12TableIndicesILi3EEE(%"class.dealii::Table.149"* %fe_values_table23, %"class.dealii::TableIndices"* dereferenceable(12) %present_fe_values_index24), !dbg !12116
  %call26 = call dereferenceable(784) %"class.dealii::FESubfaceValues"* @_ZNK5boost10shared_ptrIN6dealii15FESubfaceValuesILi3ELi3EEEEdeEv(%"class.boost::shared_ptr.151"* %call25), !dbg !12118
  ret %"class.dealii::FESubfaceValues"* %call26, !dbg !12119

eh.resume:                                        ; preds = %lpad18, %lpad
  %exn = load i8*, i8** %exn.slot, align 8, !dbg !12098
  %sel = load i32, i32* %ehselector.slot, align 4, !dbg !12098
  %lpad.val = insertvalue { i8*, i32 } undef, i8* %exn, 0, !dbg !12098
  %lpad.val27 = insertvalue { i8*, i32 } %lpad.val, i32 %sel, 1, !dbg !12098
  resume { i8*, i32 } %lpad.val27, !dbg !12098
}

; Function Attrs: noinline uwtable
define linkonce_odr dso_local dereferenceable(16) %"class.boost::shared_ptr.151"* @_ZN6dealii5TableILi3EN5boost10shared_ptrINS_15FESubfaceValuesILi3ELi3EEEEEEclERKNS_12TableIndicesILi3EEE(%"class.dealii::Table.149"* %this, %"class.dealii::TableIndices"* dereferenceable(12) %indices) #0 comdat align 2 !dbg !12120 {
entry:
  %this.addr = alloca %"class.dealii::Table.149"*, align 8
  %indices.addr = alloca %"class.dealii::TableIndices"*, align 8
  store %"class.dealii::Table.149"* %this, %"class.dealii::Table.149"** %this.addr, align 8
  call void @llvm.dbg.declare(metadata %"class.dealii::Table.149"** %this.addr, metadata !12121, metadata !DIExpression()), !dbg !12122
  store %"class.dealii::TableIndices"* %indices, %"class.dealii::TableIndices"** %indices.addr, align 8
  call void @llvm.dbg.declare(metadata %"class.dealii::TableIndices"** %indices.addr, metadata !12123, metadata !DIExpression()), !dbg !12124
  %this1 = load %"class.dealii::Table.149"*, %"class.dealii::Table.149"** %this.addr, align 8
  %0 = bitcast %"class.dealii::Table.149"* %this1 to %"class.dealii::TableBase.150"*, !dbg !12125
  %1 = load %"class.dealii::TableIndices"*, %"class.dealii::TableIndices"** %indices.addr, align 8, !dbg !12126
  %call = call dereferenceable(16) %"class.boost::shared_ptr.151"* @_ZN6dealii9TableBaseILi3EN5boost10shared_ptrINS_15FESubfaceValuesILi3ELi3EEEEEEclERKNS_12TableIndicesILi3EEE(%"class.dealii::TableBase.150"* %0, %"class.dealii::TableIndices"* dereferenceable(12) %1), !dbg !12125
  ret %"class.boost::shared_ptr.151"* %call, !dbg !12127
}

; Function Attrs: noinline nounwind uwtable
define linkonce_odr dso_local i64 @_ZNK5boost10shared_ptrIN6dealii15FESubfaceValuesILi3ELi3EEEEcvMS4_PS3_Ev(%"class.boost::shared_ptr.151"* %this) #1 comdat align 2 !dbg !12128 {
entry:
  %this.addr = alloca %"class.boost::shared_ptr.151"*, align 8
  store %"class.boost::shared_ptr.151"* %this, %"class.boost::shared_ptr.151"** %this.addr, align 8
  call void @llvm.dbg.declare(metadata %"class.boost::shared_ptr.151"** %this.addr, metadata !12129, metadata !DIExpression()), !dbg !12130
  %this1 = load %"class.boost::shared_ptr.151"*, %"class.boost::shared_ptr.151"** %this.addr, align 8
  %px = getelementptr inbounds %"class.boost::shared_ptr.151", %"class.boost::shared_ptr.151"* %this1, i32 0, i32 0, !dbg !12131
  %0 = load %"class.dealii::FESubfaceValues"*, %"class.dealii::FESubfaceValues"** %px, align 8, !dbg !12131
  %cmp = icmp eq %"class.dealii::FESubfaceValues"* %0, null, !dbg !12132
  %1 = zext i1 %cmp to i64, !dbg !12131
  %cond = select i1 %cmp, i64 -1, i64 0, !dbg !12131
  ret i64 %cond, !dbg !12133
}

declare dso_local void @_ZN6dealii15FESubfaceValuesILi3ELi3EEC1ERKNS_7MappingILi3ELi3EEERKNS_13FiniteElementILi3ELi3EEERKNS_10QuadratureILi2EEENS_11UpdateFlagsE(%"class.dealii::FESubfaceValues"*, %"class.dealii::Mapping"* dereferenceable(72), %"class.dealii::FiniteElement"* dereferenceable(728), %"class.dealii::Quadrature.147"* dereferenceable(128), i32) unnamed_addr #2

; Function Attrs: noinline uwtable
define linkonce_odr dso_local void @_ZN5boost10shared_ptrIN6dealii15FESubfaceValuesILi3ELi3EEEEC2IS3_EEPT_(%"class.boost::shared_ptr.151"* %this, %"class.dealii::FESubfaceValues"* %p) unnamed_addr #0 comdat align 2 personality i8* bitcast (i32 (...)* @__gxx_personality_v0 to i8*) !dbg !12134 {
entry:
  %this.addr = alloca %"class.boost::shared_ptr.151"*, align 8
  %p.addr = alloca %"class.dealii::FESubfaceValues"*, align 8
  %exn.slot = alloca i8*
  %ehselector.slot = alloca i32
  store %"class.boost::shared_ptr.151"* %this, %"class.boost::shared_ptr.151"** %this.addr, align 8
  call void @llvm.dbg.declare(metadata %"class.boost::shared_ptr.151"** %this.addr, metadata !12140, metadata !DIExpression()), !dbg !12141
  store %"class.dealii::FESubfaceValues"* %p, %"class.dealii::FESubfaceValues"** %p.addr, align 8
  call void @llvm.dbg.declare(metadata %"class.dealii::FESubfaceValues"** %p.addr, metadata !12142, metadata !DIExpression()), !dbg !12143
  %this1 = load %"class.boost::shared_ptr.151"*, %"class.boost::shared_ptr.151"** %this.addr, align 8
  %px = getelementptr inbounds %"class.boost::shared_ptr.151", %"class.boost::shared_ptr.151"* %this1, i32 0, i32 0, !dbg !12144
  %0 = load %"class.dealii::FESubfaceValues"*, %"class.dealii::FESubfaceValues"** %p.addr, align 8, !dbg !12145
  store %"class.dealii::FESubfaceValues"* %0, %"class.dealii::FESubfaceValues"** %px, align 8, !dbg !12144
  %pn = getelementptr inbounds %"class.boost::shared_ptr.151", %"class.boost::shared_ptr.151"* %this1, i32 0, i32 1, !dbg !12146
  %1 = load %"class.dealii::FESubfaceValues"*, %"class.dealii::FESubfaceValues"** %p.addr, align 8, !dbg !12147
  call void @_ZN5boost6detail12shared_countC2IN6dealii15FESubfaceValuesILi3ELi3EEEEEPT_(%"class.boost::detail::shared_count"* %pn, %"class.dealii::FESubfaceValues"* %1), !dbg !12146
  %pn2 = getelementptr inbounds %"class.boost::shared_ptr.151", %"class.boost::shared_ptr.151"* %this1, i32 0, i32 1, !dbg !12148
  %2 = load %"class.dealii::FESubfaceValues"*, %"class.dealii::FESubfaceValues"** %p.addr, align 8, !dbg !12150
  %3 = load %"class.dealii::FESubfaceValues"*, %"class.dealii::FESubfaceValues"** %p.addr, align 8, !dbg !12151
  invoke void (%"class.boost::detail::shared_count"*, ...) @_ZN5boost6detail26sp_enable_shared_from_thisERKNS0_12shared_countEz(%"class.boost::detail::shared_count"* dereferenceable(8) %pn2, %"class.dealii::FESubfaceValues"* %2, %"class.dealii::FESubfaceValues"* %3)
          to label %invoke.cont unwind label %lpad, !dbg !12152

invoke.cont:                                      ; preds = %entry
  ret void, !dbg !12153

lpad:                                             ; preds = %entry
  %4 = landingpad { i8*, i32 }
          cleanup, !dbg !12154
  %5 = extractvalue { i8*, i32 } %4, 0, !dbg !12154
  store i8* %5, i8** %exn.slot, align 8, !dbg !12154
  %6 = extractvalue { i8*, i32 } %4, 1, !dbg !12154
  store i32 %6, i32* %ehselector.slot, align 4, !dbg !12154
  call void @_ZN5boost6detail12shared_countD2Ev(%"class.boost::detail::shared_count"* %pn) #4, !dbg !12154
  br label %eh.resume, !dbg !12154

eh.resume:                                        ; preds = %lpad
  %exn = load i8*, i8** %exn.slot, align 8, !dbg !12154
  %sel = load i32, i32* %ehselector.slot, align 4, !dbg !12154
  %lpad.val = insertvalue { i8*, i32 } undef, i8* %exn, 0, !dbg !12154
  %lpad.val3 = insertvalue { i8*, i32 } %lpad.val, i32 %sel, 1, !dbg !12154
  resume { i8*, i32 } %lpad.val3, !dbg !12154
}

; Function Attrs: noinline uwtable
define linkonce_odr dso_local dereferenceable(16) %"class.boost::shared_ptr.151"* @_ZN5boost10shared_ptrIN6dealii15FESubfaceValuesILi3ELi3EEEEaSERKS4_(%"class.boost::shared_ptr.151"* %this, %"class.boost::shared_ptr.151"* dereferenceable(16) %r) #0 comdat align 2 !dbg !12155 {
entry:
  %this.addr = alloca %"class.boost::shared_ptr.151"*, align 8
  %r.addr = alloca %"class.boost::shared_ptr.151"*, align 8
  store %"class.boost::shared_ptr.151"* %this, %"class.boost::shared_ptr.151"** %this.addr, align 8
  call void @llvm.dbg.declare(metadata %"class.boost::shared_ptr.151"** %this.addr, metadata !12156, metadata !DIExpression()), !dbg !12157
  store %"class.boost::shared_ptr.151"* %r, %"class.boost::shared_ptr.151"** %r.addr, align 8
  call void @llvm.dbg.declare(metadata %"class.boost::shared_ptr.151"** %r.addr, metadata !12158, metadata !DIExpression()), !dbg !12159
  %this1 = load %"class.boost::shared_ptr.151"*, %"class.boost::shared_ptr.151"** %this.addr, align 8
  %0 = load %"class.boost::shared_ptr.151"*, %"class.boost::shared_ptr.151"** %r.addr, align 8, !dbg !12160
  %px = getelementptr inbounds %"class.boost::shared_ptr.151", %"class.boost::shared_ptr.151"* %0, i32 0, i32 0, !dbg !12161
  %1 = load %"class.dealii::FESubfaceValues"*, %"class.dealii::FESubfaceValues"** %px, align 8, !dbg !12161
  %px2 = getelementptr inbounds %"class.boost::shared_ptr.151", %"class.boost::shared_ptr.151"* %this1, i32 0, i32 0, !dbg !12162
  store %"class.dealii::FESubfaceValues"* %1, %"class.dealii::FESubfaceValues"** %px2, align 8, !dbg !12163
  %2 = load %"class.boost::shared_ptr.151"*, %"class.boost::shared_ptr.151"** %r.addr, align 8, !dbg !12164
  %pn = getelementptr inbounds %"class.boost::shared_ptr.151", %"class.boost::shared_ptr.151"* %2, i32 0, i32 1, !dbg !12165
  %pn3 = getelementptr inbounds %"class.boost::shared_ptr.151", %"class.boost::shared_ptr.151"* %this1, i32 0, i32 1, !dbg !12166
  %call = call dereferenceable(8) %"class.boost::detail::shared_count"* @_ZN5boost6detail12shared_countaSERKS1_(%"class.boost::detail::shared_count"* %pn3, %"class.boost::detail::shared_count"* dereferenceable(8) %pn), !dbg !12167
  ret %"class.boost::shared_ptr.151"* %this1, !dbg !12168
}

; Function Attrs: noinline nounwind uwtable
define linkonce_odr dso_local void @_ZN5boost10shared_ptrIN6dealii15FESubfaceValuesILi3ELi3EEEED2Ev(%"class.boost::shared_ptr.151"* %this) unnamed_addr #1 comdat align 2 !dbg !12169 {
entry:
  %this.addr = alloca %"class.boost::shared_ptr.151"*, align 8
  store %"class.boost::shared_ptr.151"* %this, %"class.boost::shared_ptr.151"** %this.addr, align 8
  call void @llvm.dbg.declare(metadata %"class.boost::shared_ptr.151"** %this.addr, metadata !12171, metadata !DIExpression()), !dbg !12172
  %this1 = load %"class.boost::shared_ptr.151"*, %"class.boost::shared_ptr.151"** %this.addr, align 8
  %pn = getelementptr inbounds %"class.boost::shared_ptr.151", %"class.boost::shared_ptr.151"* %this1, i32 0, i32 1, !dbg !12173
  call void @_ZN5boost6detail12shared_countD2Ev(%"class.boost::detail::shared_count"* %pn) #4, !dbg !12173
  ret void, !dbg !12175
}

; Function Attrs: noinline uwtable
define weak_odr dso_local void @_ZN6dealii2hp8FEValuesILi3ELi3EEC2ERKNS0_17MappingCollectionILi3ELi3EEERKNS0_12FECollectionILi3ELi3EEERKNS0_11QCollectionILi3EEENS_11UpdateFlagsE(%"class.dealii::hp::FEValues"* %this, %"class.dealii::hp::MappingCollection"* dereferenceable(96) %mapping, %"class.dealii::hp::FECollection"* dereferenceable(96) %fe_collection, %"class.dealii::hp::QCollection"* dereferenceable(96) %q_collection, i32 %update_flags) unnamed_addr #0 comdat($_ZN6dealii2hp8FEValuesILi3ELi3EEC5ERKNS0_17MappingCollectionILi3ELi3EEERKNS0_12FECollectionILi3ELi3EEERKNS0_11QCollectionILi3EEENS_11UpdateFlagsE) align 2 !dbg !12176 {
entry:
  %this.addr = alloca %"class.dealii::hp::FEValues"*, align 8
  %mapping.addr = alloca %"class.dealii::hp::MappingCollection"*, align 8
  %fe_collection.addr = alloca %"class.dealii::hp::FECollection"*, align 8
  %q_collection.addr = alloca %"class.dealii::hp::QCollection"*, align 8
  %update_flags.addr = alloca i32, align 4
  store %"class.dealii::hp::FEValues"* %this, %"class.dealii::hp::FEValues"** %this.addr, align 8
  call void @llvm.dbg.declare(metadata %"class.dealii::hp::FEValues"** %this.addr, metadata !12177, metadata !DIExpression()), !dbg !12179
  store %"class.dealii::hp::MappingCollection"* %mapping, %"class.dealii::hp::MappingCollection"** %mapping.addr, align 8
  call void @llvm.dbg.declare(metadata %"class.dealii::hp::MappingCollection"** %mapping.addr, metadata !12180, metadata !DIExpression()), !dbg !12181
  store %"class.dealii::hp::FECollection"* %fe_collection, %"class.dealii::hp::FECollection"** %fe_collection.addr, align 8
  call void @llvm.dbg.declare(metadata %"class.dealii::hp::FECollection"** %fe_collection.addr, metadata !12182, metadata !DIExpression()), !dbg !12183
  store %"class.dealii::hp::QCollection"* %q_collection, %"class.dealii::hp::QCollection"** %q_collection.addr, align 8
  call void @llvm.dbg.declare(metadata %"class.dealii::hp::QCollection"** %q_collection.addr, metadata !12184, metadata !DIExpression()), !dbg !12185
  store i32 %update_flags, i32* %update_flags.addr, align 4
  call void @llvm.dbg.declare(metadata i32* %update_flags.addr, metadata !12186, metadata !DIExpression()), !dbg !12187
  %this1 = load %"class.dealii::hp::FEValues"*, %"class.dealii::hp::FEValues"** %this.addr, align 8
  %0 = bitcast %"class.dealii::hp::FEValues"* %this1 to %"class.dealii::internal::hp::FEValuesBase"*, !dbg !12188
  %1 = load %"class.dealii::hp::MappingCollection"*, %"class.dealii::hp::MappingCollection"** %mapping.addr, align 8, !dbg !12189
  %2 = load %"class.dealii::hp::FECollection"*, %"class.dealii::hp::FECollection"** %fe_collection.addr, align 8, !dbg !12190
  %3 = load %"class.dealii::hp::QCollection"*, %"class.dealii::hp::QCollection"** %q_collection.addr, align 8, !dbg !12191
  %4 = load i32, i32* %update_flags.addr, align 4, !dbg !12192
  call void @_ZN6dealii8internal2hp12FEValuesBaseILi3ELi3ENS_8FEValuesILi3ELi3EEEEC2ERKNS_2hp17MappingCollectionILi3ELi3EEERKNS6_12FECollectionILi3ELi3EEERKNS6_11QCollectionILi3EEENS_11UpdateFlagsE(%"class.dealii::internal::hp::FEValuesBase"* %0, %"class.dealii::hp::MappingCollection"* dereferenceable(96) %1, %"class.dealii::hp::FECollection"* dereferenceable(96) %2, %"class.dealii::hp::QCollection"* dereferenceable(96) %3, i32 %4), !dbg !12193
  ret void, !dbg !12194
}

; Function Attrs: noinline uwtable
define weak_odr dso_local void @_ZN6dealii2hp8FEValuesILi3ELi3EEC2ERKNS0_12FECollectionILi3ELi3EEERKNS0_11QCollectionILi3EEENS_11UpdateFlagsE(%"class.dealii::hp::FEValues"* %this, %"class.dealii::hp::FECollection"* dereferenceable(96) %fe_collection, %"class.dealii::hp::QCollection"* dereferenceable(96) %q_collection, i32 %update_flags) unnamed_addr #0 comdat($_ZN6dealii2hp8FEValuesILi3ELi3EEC5ERKNS0_12FECollectionILi3ELi3EEERKNS0_11QCollectionILi3EEENS_11UpdateFlagsE) align 2 !dbg !12195 {
entry:
  %this.addr = alloca %"class.dealii::hp::FEValues"*, align 8
  %fe_collection.addr = alloca %"class.dealii::hp::FECollection"*, align 8
  %q_collection.addr = alloca %"class.dealii::hp::QCollection"*, align 8
  %update_flags.addr = alloca i32, align 4
  store %"class.dealii::hp::FEValues"* %this, %"class.dealii::hp::FEValues"** %this.addr, align 8
  call void @llvm.dbg.declare(metadata %"class.dealii::hp::FEValues"** %this.addr, metadata !12196, metadata !DIExpression()), !dbg !12197
  store %"class.dealii::hp::FECollection"* %fe_collection, %"class.dealii::hp::FECollection"** %fe_collection.addr, align 8
  call void @llvm.dbg.declare(metadata %"class.dealii::hp::FECollection"** %fe_collection.addr, metadata !12198, metadata !DIExpression()), !dbg !12199
  store %"class.dealii::hp::QCollection"* %q_collection, %"class.dealii::hp::QCollection"** %q_collection.addr, align 8
  call void @llvm.dbg.declare(metadata %"class.dealii::hp::QCollection"** %q_collection.addr, metadata !12200, metadata !DIExpression()), !dbg !12201
  store i32 %update_flags, i32* %update_flags.addr, align 4
  call void @llvm.dbg.declare(metadata i32* %update_flags.addr, metadata !12202, metadata !DIExpression()), !dbg !12203
  %this1 = load %"class.dealii::hp::FEValues"*, %"class.dealii::hp::FEValues"** %this.addr, align 8
  %0 = bitcast %"class.dealii::hp::FEValues"* %this1 to %"class.dealii::internal::hp::FEValuesBase"*, !dbg !12204
  %1 = load %"class.dealii::hp::FECollection"*, %"class.dealii::hp::FECollection"** %fe_collection.addr, align 8, !dbg !12205
  %2 = load %"class.dealii::hp::QCollection"*, %"class.dealii::hp::QCollection"** %q_collection.addr, align 8, !dbg !12206
  %3 = load i32, i32* %update_flags.addr, align 4, !dbg !12207
  call void @_ZN6dealii8internal2hp12FEValuesBaseILi3ELi3ENS_8FEValuesILi3ELi3EEEEC2ERKNS_2hp12FECollectionILi3ELi3EEERKNS6_11QCollectionILi3EEENS_11UpdateFlagsE(%"class.dealii::internal::hp::FEValuesBase"* %0, %"class.dealii::hp::FECollection"* dereferenceable(96) %1, %"class.dealii::hp::QCollection"* dereferenceable(96) %2, i32 %3), !dbg !12208
  ret void, !dbg !12209
}

; Function Attrs: noinline uwtable
define weak_odr dso_local void @_ZN6dealii2hp8FEValuesILi3ELi3EE6reinitERKNS_12TriaIteratorINS_15DoFCellAccessorINS0_10DoFHandlerILi3ELi3EEEEEEEjjj(%"class.dealii::hp::FEValues"* %this, %"class.dealii::TriaIterator"* dereferenceable(24) %cell, i32 %q_index, i32 %mapping_index, i32 %fe_index) #0 comdat align 2 !dbg !12210 {
entry:
  %this.addr = alloca %"class.dealii::hp::FEValues"*, align 8
  %cell.addr = alloca %"class.dealii::TriaIterator"*, align 8
  %q_index.addr = alloca i32, align 4
  %mapping_index.addr = alloca i32, align 4
  %fe_index.addr = alloca i32, align 4
  %real_q_index = alloca i32, align 4
  %real_mapping_index = alloca i32, align 4
  %real_fe_index = alloca i32, align 4
  store %"class.dealii::hp::FEValues"* %this, %"class.dealii::hp::FEValues"** %this.addr, align 8
  call void @llvm.dbg.declare(metadata %"class.dealii::hp::FEValues"** %this.addr, metadata !12211, metadata !DIExpression()), !dbg !12212
  store %"class.dealii::TriaIterator"* %cell, %"class.dealii::TriaIterator"** %cell.addr, align 8
  call void @llvm.dbg.declare(metadata %"class.dealii::TriaIterator"** %cell.addr, metadata !12213, metadata !DIExpression()), !dbg !12214
  store i32 %q_index, i32* %q_index.addr, align 4
  call void @llvm.dbg.declare(metadata i32* %q_index.addr, metadata !12215, metadata !DIExpression()), !dbg !12216
  store i32 %mapping_index, i32* %mapping_index.addr, align 4
  call void @llvm.dbg.declare(metadata i32* %mapping_index.addr, metadata !12217, metadata !DIExpression()), !dbg !12218
  store i32 %fe_index, i32* %fe_index.addr, align 4
  call void @llvm.dbg.declare(metadata i32* %fe_index.addr, metadata !12219, metadata !DIExpression()), !dbg !12220
  %this1 = load %"class.dealii::hp::FEValues"*, %"class.dealii::hp::FEValues"** %this.addr, align 8
  call void @llvm.dbg.declare(metadata i32* %real_q_index, metadata !12221, metadata !DIExpression()), !dbg !12222
  %0 = load i32, i32* %q_index.addr, align 4, !dbg !12223
  store i32 %0, i32* %real_q_index, align 4, !dbg !12222
  call void @llvm.dbg.declare(metadata i32* %real_mapping_index, metadata !12224, metadata !DIExpression()), !dbg !12225
  %1 = load i32, i32* %mapping_index.addr, align 4, !dbg !12226
  store i32 %1, i32* %real_mapping_index, align 4, !dbg !12225
  call void @llvm.dbg.declare(metadata i32* %real_fe_index, metadata !12227, metadata !DIExpression()), !dbg !12228
  %2 = load i32, i32* %fe_index.addr, align 4, !dbg !12229
  store i32 %2, i32* %real_fe_index, align 4, !dbg !12228
  %3 = load i32, i32* %real_q_index, align 4, !dbg !12230
  %cmp = icmp eq i32 %3, -1, !dbg !12232
  br i1 %cmp, label %if.then, label %if.end6, !dbg !12233

if.then:                                          ; preds = %entry
  %4 = bitcast %"class.dealii::hp::FEValues"* %this1 to %"class.dealii::internal::hp::FEValuesBase"*, !dbg !12234
  %q_collection = getelementptr inbounds %"class.dealii::internal::hp::FEValuesBase", %"class.dealii::internal::hp::FEValuesBase"* %4, i32 0, i32 2, !dbg !12234
  %call = call i32 @_ZNK6dealii2hp11QCollectionILi3EE4sizeEv(%"class.dealii::hp::QCollection"* %q_collection), !dbg !12237
  %cmp2 = icmp ugt i32 %call, 1, !dbg !12238
  br i1 %cmp2, label %if.then3, label %if.else, !dbg !12239

if.then3:                                         ; preds = %if.then
  %5 = load %"class.dealii::TriaIterator"*, %"class.dealii::TriaIterator"** %cell.addr, align 8, !dbg !12240
  %6 = bitcast %"class.dealii::TriaIterator"* %5 to %"class.dealii::TriaRawIterator"*, !dbg !12240
  %call4 = call %"class.dealii::DoFCellAccessor"* @_ZNK6dealii15TriaRawIteratorINS_15DoFCellAccessorINS_2hp10DoFHandlerILi3ELi3EEEEEEptEv(%"class.dealii::TriaRawIterator"* %6), !dbg !12240
  %call5 = call i32 @_ZNK6dealii15DoFCellAccessorINS_2hp10DoFHandlerILi3ELi3EEEE15active_fe_indexEv(%"class.dealii::DoFCellAccessor"* %call4), !dbg !12241
  store i32 %call5, i32* %real_q_index, align 4, !dbg !12242
  br label %if.end, !dbg !12243

if.else:                                          ; preds = %if.then
  store i32 0, i32* %real_q_index, align 4, !dbg !12244
  br label %if.end

if.end:                                           ; preds = %if.else, %if.then3
  br label %if.end6, !dbg !12245

if.end6:                                          ; preds = %if.end, %entry
  %7 = load i32, i32* %real_mapping_index, align 4, !dbg !12246
  %cmp7 = icmp eq i32 %7, -1, !dbg !12248
  br i1 %cmp7, label %if.then8, label %if.end17, !dbg !12249

if.then8:                                         ; preds = %if.end6
  %8 = bitcast %"class.dealii::hp::FEValues"* %this1 to %"class.dealii::internal::hp::FEValuesBase"*, !dbg !12250
  %mapping_collection = getelementptr inbounds %"class.dealii::internal::hp::FEValuesBase", %"class.dealii::internal::hp::FEValuesBase"* %8, i32 0, i32 1, !dbg !12250
  %call9 = call %"class.dealii::hp::MappingCollection"* @_ZNK6dealii12SmartPointerIKNS_2hp17MappingCollectionILi3ELi3EEEEptEv(%"class.dealii::SmartPointer.19"* %mapping_collection), !dbg !12253
  %call10 = call i32 @_ZNK6dealii2hp17MappingCollectionILi3ELi3EE4sizeEv(%"class.dealii::hp::MappingCollection"* %call9), !dbg !12254
  %cmp11 = icmp ugt i32 %call10, 1, !dbg !12255
  br i1 %cmp11, label %if.then12, label %if.else15, !dbg !12256

if.then12:                                        ; preds = %if.then8
  %9 = load %"class.dealii::TriaIterator"*, %"class.dealii::TriaIterator"** %cell.addr, align 8, !dbg !12257
  %10 = bitcast %"class.dealii::TriaIterator"* %9 to %"class.dealii::TriaRawIterator"*, !dbg !12257
  %call13 = call %"class.dealii::DoFCellAccessor"* @_ZNK6dealii15TriaRawIteratorINS_15DoFCellAccessorINS_2hp10DoFHandlerILi3ELi3EEEEEEptEv(%"class.dealii::TriaRawIterator"* %10), !dbg !12257
  %call14 = call i32 @_ZNK6dealii15DoFCellAccessorINS_2hp10DoFHandlerILi3ELi3EEEE15active_fe_indexEv(%"class.dealii::DoFCellAccessor"* %call13), !dbg !12258
  store i32 %call14, i32* %real_mapping_index, align 4, !dbg !12259
  br label %if.end16, !dbg !12260

if.else15:                                        ; preds = %if.then8
  store i32 0, i32* %real_mapping_index, align 4, !dbg !12261
  br label %if.end16

if.end16:                                         ; preds = %if.else15, %if.then12
  br label %if.end17, !dbg !12262

if.end17:                                         ; preds = %if.end16, %if.end6
  %11 = load i32, i32* %real_fe_index, align 4, !dbg !12263
  %cmp18 = icmp eq i32 %11, -1, !dbg !12265
  br i1 %cmp18, label %if.then19, label %if.end22, !dbg !12266

if.then19:                                        ; preds = %if.end17
  %12 = load %"class.dealii::TriaIterator"*, %"class.dealii::TriaIterator"** %cell.addr, align 8, !dbg !12267
  %13 = bitcast %"class.dealii::TriaIterator"* %12 to %"class.dealii::TriaRawIterator"*, !dbg !12267
  %call20 = call %"class.dealii::DoFCellAccessor"* @_ZNK6dealii15TriaRawIteratorINS_15DoFCellAccessorINS_2hp10DoFHandlerILi3ELi3EEEEEEptEv(%"class.dealii::TriaRawIterator"* %13), !dbg !12267
  %call21 = call i32 @_ZNK6dealii15DoFCellAccessorINS_2hp10DoFHandlerILi3ELi3EEEE15active_fe_indexEv(%"class.dealii::DoFCellAccessor"* %call20), !dbg !12268
  store i32 %call21, i32* %real_fe_index, align 4, !dbg !12269
  br label %if.end22, !dbg !12270

if.end22:                                         ; preds = %if.then19, %if.end17
  %14 = bitcast %"class.dealii::hp::FEValues"* %this1 to %"class.dealii::internal::hp::FEValuesBase"*, !dbg !12271
  %15 = load i32, i32* %real_fe_index, align 4, !dbg !12272
  %16 = load i32, i32* %real_mapping_index, align 4, !dbg !12273
  %17 = load i32, i32* %real_q_index, align 4, !dbg !12274
  %call23 = call dereferenceable(776) %"class.dealii::FEValues"* @_ZN6dealii8internal2hp12FEValuesBaseILi3ELi3ENS_8FEValuesILi3ELi3EEEE16select_fe_valuesEjjj(%"class.dealii::internal::hp::FEValuesBase"* %14, i32 %15, i32 %16, i32 %17), !dbg !12271
  %18 = load %"class.dealii::TriaIterator"*, %"class.dealii::TriaIterator"** %cell.addr, align 8, !dbg !12275
  call void @_ZN6dealii8FEValuesILi3ELi3EE6reinitERKNS_12TriaIteratorINS_15DoFCellAccessorINS_2hp10DoFHandlerILi3ELi3EEEEEEE(%"class.dealii::FEValues"* %call23, %"class.dealii::TriaIterator"* dereferenceable(24) %18), !dbg !12276
  ret void, !dbg !12277
}

; Function Attrs: noinline uwtable
define linkonce_odr dso_local %"class.dealii::DoFCellAccessor"* @_ZNK6dealii15TriaRawIteratorINS_15DoFCellAccessorINS_2hp10DoFHandlerILi3ELi3EEEEEEptEv(%"class.dealii::TriaRawIterator"* %this) #0 comdat align 2 !dbg !12278 {
entry:
  %this.addr = alloca %"class.dealii::TriaRawIterator"*, align 8
  store %"class.dealii::TriaRawIterator"* %this, %"class.dealii::TriaRawIterator"** %this.addr, align 8
  call void @llvm.dbg.declare(metadata %"class.dealii::TriaRawIterator"** %this.addr, metadata !12279, metadata !DIExpression()), !dbg !12281
  %this1 = load %"class.dealii::TriaRawIterator"*, %"class.dealii::TriaRawIterator"** %this.addr, align 8
  %call = call dereferenceable(24) %"class.dealii::DoFCellAccessor"* @_ZNK6dealii15TriaRawIteratorINS_15DoFCellAccessorINS_2hp10DoFHandlerILi3ELi3EEEEEEdeEv(%"class.dealii::TriaRawIterator"* %this1), !dbg !12282
  ret %"class.dealii::DoFCellAccessor"* %call, !dbg !12283
}

; Function Attrs: noinline uwtable
define linkonce_odr dso_local i32 @_ZNK6dealii15DoFCellAccessorINS_2hp10DoFHandlerILi3ELi3EEEE15active_fe_indexEv(%"class.dealii::DoFCellAccessor"* %this) #0 comdat align 2 !dbg !12284 {
entry:
  %this.addr = alloca %"class.dealii::DoFCellAccessor"*, align 8
  store %"class.dealii::DoFCellAccessor"* %this, %"class.dealii::DoFCellAccessor"** %this.addr, align 8
  call void @llvm.dbg.declare(metadata %"class.dealii::DoFCellAccessor"** %this.addr, metadata !12286, metadata !DIExpression()), !dbg !12287
  %this1 = load %"class.dealii::DoFCellAccessor"*, %"class.dealii::DoFCellAccessor"** %this.addr, align 8
  %call = call i32 @_ZN6dealii8internal15DoFCellAccessor14Implementation15active_fe_indexILi3ELi3EEEjRKNS_15DoFCellAccessorINS_2hp10DoFHandlerIXT_EXT0_EEEEE(%"class.dealii::DoFCellAccessor"* dereferenceable(24) %this1), !dbg !12288
  ret i32 %call, !dbg !12289
}

; Function Attrs: noinline nounwind uwtable
define linkonce_odr dso_local %"class.dealii::hp::MappingCollection"* @_ZNK6dealii12SmartPointerIKNS_2hp17MappingCollectionILi3ELi3EEEEptEv(%"class.dealii::SmartPointer.19"* %this) #1 comdat align 2 !dbg !12290 {
entry:
  %this.addr = alloca %"class.dealii::SmartPointer.19"*, align 8
  store %"class.dealii::SmartPointer.19"* %this, %"class.dealii::SmartPointer.19"** %this.addr, align 8
  call void @llvm.dbg.declare(metadata %"class.dealii::SmartPointer.19"** %this.addr, metadata !12291, metadata !DIExpression()), !dbg !12292
  %this1 = load %"class.dealii::SmartPointer.19"*, %"class.dealii::SmartPointer.19"** %this.addr, align 8
  %t = getelementptr inbounds %"class.dealii::SmartPointer.19", %"class.dealii::SmartPointer.19"* %this1, i32 0, i32 0, !dbg !12293
  %0 = load %"class.dealii::hp::MappingCollection"*, %"class.dealii::hp::MappingCollection"** %t, align 8, !dbg !12293
  ret %"class.dealii::hp::MappingCollection"* %0, !dbg !12294
}

declare dso_local void @_ZN6dealii8FEValuesILi3ELi3EE6reinitERKNS_12TriaIteratorINS_15DoFCellAccessorINS_2hp10DoFHandlerILi3ELi3EEEEEEE(%"class.dealii::FEValues"*, %"class.dealii::TriaIterator"* dereferenceable(24)) #2

; Function Attrs: noinline uwtable
define weak_odr dso_local void @_ZN6dealii2hp8FEValuesILi3ELi3EE6reinitERKNS_12TriaIteratorINS_15DoFCellAccessorINS_10DoFHandlerILi3ELi3EEEEEEEjjj(%"class.dealii::hp::FEValues"* %this, %"class.dealii::TriaIterator.244"* dereferenceable(24) %cell, i32 %q_index, i32 %mapping_index, i32 %fe_index) #0 comdat align 2 !dbg !12295 {
entry:
  %this.addr = alloca %"class.dealii::hp::FEValues"*, align 8
  %cell.addr = alloca %"class.dealii::TriaIterator.244"*, align 8
  %q_index.addr = alloca i32, align 4
  %mapping_index.addr = alloca i32, align 4
  %fe_index.addr = alloca i32, align 4
  %real_q_index = alloca i32, align 4
  %real_mapping_index = alloca i32, align 4
  %real_fe_index = alloca i32, align 4
  store %"class.dealii::hp::FEValues"* %this, %"class.dealii::hp::FEValues"** %this.addr, align 8
  call void @llvm.dbg.declare(metadata %"class.dealii::hp::FEValues"** %this.addr, metadata !12296, metadata !DIExpression()), !dbg !12297
  store %"class.dealii::TriaIterator.244"* %cell, %"class.dealii::TriaIterator.244"** %cell.addr, align 8
  call void @llvm.dbg.declare(metadata %"class.dealii::TriaIterator.244"** %cell.addr, metadata !12298, metadata !DIExpression()), !dbg !12299
  store i32 %q_index, i32* %q_index.addr, align 4
  call void @llvm.dbg.declare(metadata i32* %q_index.addr, metadata !12300, metadata !DIExpression()), !dbg !12301
  store i32 %mapping_index, i32* %mapping_index.addr, align 4
  call void @llvm.dbg.declare(metadata i32* %mapping_index.addr, metadata !12302, metadata !DIExpression()), !dbg !12303
  store i32 %fe_index, i32* %fe_index.addr, align 4
  call void @llvm.dbg.declare(metadata i32* %fe_index.addr, metadata !12304, metadata !DIExpression()), !dbg !12305
  %this1 = load %"class.dealii::hp::FEValues"*, %"class.dealii::hp::FEValues"** %this.addr, align 8
  call void @llvm.dbg.declare(metadata i32* %real_q_index, metadata !12306, metadata !DIExpression()), !dbg !12307
  %0 = load i32, i32* %q_index.addr, align 4, !dbg !12308
  store i32 %0, i32* %real_q_index, align 4, !dbg !12307
  call void @llvm.dbg.declare(metadata i32* %real_mapping_index, metadata !12309, metadata !DIExpression()), !dbg !12310
  %1 = load i32, i32* %mapping_index.addr, align 4, !dbg !12311
  store i32 %1, i32* %real_mapping_index, align 4, !dbg !12310
  call void @llvm.dbg.declare(metadata i32* %real_fe_index, metadata !12312, metadata !DIExpression()), !dbg !12313
  %2 = load i32, i32* %fe_index.addr, align 4, !dbg !12314
  store i32 %2, i32* %real_fe_index, align 4, !dbg !12313
  %3 = load i32, i32* %real_q_index, align 4, !dbg !12315
  %cmp = icmp eq i32 %3, -1, !dbg !12317
  br i1 %cmp, label %if.then, label %if.end, !dbg !12318

if.then:                                          ; preds = %entry
  store i32 0, i32* %real_q_index, align 4, !dbg !12319
  br label %if.end, !dbg !12320

if.end:                                           ; preds = %if.then, %entry
  %4 = load i32, i32* %real_mapping_index, align 4, !dbg !12321
  %cmp2 = icmp eq i32 %4, -1, !dbg !12323
  br i1 %cmp2, label %if.then3, label %if.end4, !dbg !12324

if.then3:                                         ; preds = %if.end
  store i32 0, i32* %real_mapping_index, align 4, !dbg !12325
  br label %if.end4, !dbg !12326

if.end4:                                          ; preds = %if.then3, %if.end
  %5 = load i32, i32* %real_fe_index, align 4, !dbg !12327
  %cmp5 = icmp eq i32 %5, -1, !dbg !12329
  br i1 %cmp5, label %if.then6, label %if.end7, !dbg !12330

if.then6:                                         ; preds = %if.end4
  store i32 0, i32* %real_fe_index, align 4, !dbg !12331
  br label %if.end7, !dbg !12332

if.end7:                                          ; preds = %if.then6, %if.end4
  %6 = bitcast %"class.dealii::hp::FEValues"* %this1 to %"class.dealii::internal::hp::FEValuesBase"*, !dbg !12333
  %7 = load i32, i32* %real_fe_index, align 4, !dbg !12334
  %8 = load i32, i32* %real_mapping_index, align 4, !dbg !12335
  %9 = load i32, i32* %real_q_index, align 4, !dbg !12336
  %call = call dereferenceable(776) %"class.dealii::FEValues"* @_ZN6dealii8internal2hp12FEValuesBaseILi3ELi3ENS_8FEValuesILi3ELi3EEEE16select_fe_valuesEjjj(%"class.dealii::internal::hp::FEValuesBase"* %6, i32 %7, i32 %8, i32 %9), !dbg !12333
  %10 = load %"class.dealii::TriaIterator.244"*, %"class.dealii::TriaIterator.244"** %cell.addr, align 8, !dbg !12337
  call void @_ZN6dealii8FEValuesILi3ELi3EE6reinitERKNS_12TriaIteratorINS_15DoFCellAccessorINS_10DoFHandlerILi3ELi3EEEEEEE(%"class.dealii::FEValues"* %call, %"class.dealii::TriaIterator.244"* dereferenceable(24) %10), !dbg !12338
  ret void, !dbg !12339
}

declare dso_local void @_ZN6dealii8FEValuesILi3ELi3EE6reinitERKNS_12TriaIteratorINS_15DoFCellAccessorINS_10DoFHandlerILi3ELi3EEEEEEE(%"class.dealii::FEValues"*, %"class.dealii::TriaIterator.244"* dereferenceable(24)) #2

; Function Attrs: noinline uwtable
define weak_odr dso_local void @_ZN6dealii2hp8FEValuesILi3ELi3EE6reinitERKNS_12TriaIteratorINS_17MGDoFCellAccessorILi3ELi3EEEEEjjj(%"class.dealii::hp::FEValues"* %this, %"class.dealii::TriaIterator.257"* dereferenceable(32) %cell, i32 %q_index, i32 %mapping_index, i32 %fe_index) #0 comdat align 2 !dbg !12340 {
entry:
  %this.addr = alloca %"class.dealii::hp::FEValues"*, align 8
  %cell.addr = alloca %"class.dealii::TriaIterator.257"*, align 8
  %q_index.addr = alloca i32, align 4
  %mapping_index.addr = alloca i32, align 4
  %fe_index.addr = alloca i32, align 4
  %real_q_index = alloca i32, align 4
  %real_mapping_index = alloca i32, align 4
  %real_fe_index = alloca i32, align 4
  store %"class.dealii::hp::FEValues"* %this, %"class.dealii::hp::FEValues"** %this.addr, align 8
  call void @llvm.dbg.declare(metadata %"class.dealii::hp::FEValues"** %this.addr, metadata !12341, metadata !DIExpression()), !dbg !12342
  store %"class.dealii::TriaIterator.257"* %cell, %"class.dealii::TriaIterator.257"** %cell.addr, align 8
  call void @llvm.dbg.declare(metadata %"class.dealii::TriaIterator.257"** %cell.addr, metadata !12343, metadata !DIExpression()), !dbg !12344
  store i32 %q_index, i32* %q_index.addr, align 4
  call void @llvm.dbg.declare(metadata i32* %q_index.addr, metadata !12345, metadata !DIExpression()), !dbg !12346
  store i32 %mapping_index, i32* %mapping_index.addr, align 4
  call void @llvm.dbg.declare(metadata i32* %mapping_index.addr, metadata !12347, metadata !DIExpression()), !dbg !12348
  store i32 %fe_index, i32* %fe_index.addr, align 4
  call void @llvm.dbg.declare(metadata i32* %fe_index.addr, metadata !12349, metadata !DIExpression()), !dbg !12350
  %this1 = load %"class.dealii::hp::FEValues"*, %"class.dealii::hp::FEValues"** %this.addr, align 8
  call void @llvm.dbg.declare(metadata i32* %real_q_index, metadata !12351, metadata !DIExpression()), !dbg !12352
  %0 = load i32, i32* %q_index.addr, align 4, !dbg !12353
  store i32 %0, i32* %real_q_index, align 4, !dbg !12352
  call void @llvm.dbg.declare(metadata i32* %real_mapping_index, metadata !12354, metadata !DIExpression()), !dbg !12355
  %1 = load i32, i32* %mapping_index.addr, align 4, !dbg !12356
  store i32 %1, i32* %real_mapping_index, align 4, !dbg !12355
  call void @llvm.dbg.declare(metadata i32* %real_fe_index, metadata !12357, metadata !DIExpression()), !dbg !12358
  %2 = load i32, i32* %fe_index.addr, align 4, !dbg !12359
  store i32 %2, i32* %real_fe_index, align 4, !dbg !12358
  %3 = load i32, i32* %real_q_index, align 4, !dbg !12360
  %cmp = icmp eq i32 %3, -1, !dbg !12362
  br i1 %cmp, label %if.then, label %if.end, !dbg !12363

if.then:                                          ; preds = %entry
  store i32 0, i32* %real_q_index, align 4, !dbg !12364
  br label %if.end, !dbg !12365

if.end:                                           ; preds = %if.then, %entry
  %4 = load i32, i32* %real_mapping_index, align 4, !dbg !12366
  %cmp2 = icmp eq i32 %4, -1, !dbg !12368
  br i1 %cmp2, label %if.then3, label %if.end4, !dbg !12369

if.then3:                                         ; preds = %if.end
  store i32 0, i32* %real_mapping_index, align 4, !dbg !12370
  br label %if.end4, !dbg !12371

if.end4:                                          ; preds = %if.then3, %if.end
  %5 = load i32, i32* %real_fe_index, align 4, !dbg !12372
  %cmp5 = icmp eq i32 %5, -1, !dbg !12374
  br i1 %cmp5, label %if.then6, label %if.end7, !dbg !12375

if.then6:                                         ; preds = %if.end4
  store i32 0, i32* %real_fe_index, align 4, !dbg !12376
  br label %if.end7, !dbg !12377

if.end7:                                          ; preds = %if.then6, %if.end4
  %6 = bitcast %"class.dealii::hp::FEValues"* %this1 to %"class.dealii::internal::hp::FEValuesBase"*, !dbg !12378
  %7 = load i32, i32* %real_fe_index, align 4, !dbg !12379
  %8 = load i32, i32* %real_mapping_index, align 4, !dbg !12380
  %9 = load i32, i32* %real_q_index, align 4, !dbg !12381
  %call = call dereferenceable(776) %"class.dealii::FEValues"* @_ZN6dealii8internal2hp12FEValuesBaseILi3ELi3ENS_8FEValuesILi3ELi3EEEE16select_fe_valuesEjjj(%"class.dealii::internal::hp::FEValuesBase"* %6, i32 %7, i32 %8, i32 %9), !dbg !12378
  %10 = load %"class.dealii::TriaIterator.257"*, %"class.dealii::TriaIterator.257"** %cell.addr, align 8, !dbg !12382
  call void @_ZN6dealii8FEValuesILi3ELi3EE6reinitERKNS_12TriaIteratorINS_17MGDoFCellAccessorILi3ELi3EEEEE(%"class.dealii::FEValues"* %call, %"class.dealii::TriaIterator.257"* dereferenceable(32) %10), !dbg !12383
  ret void, !dbg !12384
}

declare dso_local void @_ZN6dealii8FEValuesILi3ELi3EE6reinitERKNS_12TriaIteratorINS_17MGDoFCellAccessorILi3ELi3EEEEE(%"class.dealii::FEValues"*, %"class.dealii::TriaIterator.257"* dereferenceable(32)) #2

; Function Attrs: noinline uwtable
define weak_odr dso_local void @_ZN6dealii2hp8FEValuesILi3ELi3EE6reinitERKNS_12TriaIteratorINS_12CellAccessorILi3ELi3EEEEEjjj(%"class.dealii::hp::FEValues"* %this, %"class.dealii::TriaIterator.265"* dereferenceable(16) %cell, i32 %q_index, i32 %mapping_index, i32 %fe_index) #0 comdat align 2 !dbg !12385 {
entry:
  %this.addr = alloca %"class.dealii::hp::FEValues"*, align 8
  %cell.addr = alloca %"class.dealii::TriaIterator.265"*, align 8
  %q_index.addr = alloca i32, align 4
  %mapping_index.addr = alloca i32, align 4
  %fe_index.addr = alloca i32, align 4
  %real_q_index = alloca i32, align 4
  %real_mapping_index = alloca i32, align 4
  %real_fe_index = alloca i32, align 4
  store %"class.dealii::hp::FEValues"* %this, %"class.dealii::hp::FEValues"** %this.addr, align 8
  call void @llvm.dbg.declare(metadata %"class.dealii::hp::FEValues"** %this.addr, metadata !12386, metadata !DIExpression()), !dbg !12387
  store %"class.dealii::TriaIterator.265"* %cell, %"class.dealii::TriaIterator.265"** %cell.addr, align 8
  call void @llvm.dbg.declare(metadata %"class.dealii::TriaIterator.265"** %cell.addr, metadata !12388, metadata !DIExpression()), !dbg !12389
  store i32 %q_index, i32* %q_index.addr, align 4
  call void @llvm.dbg.declare(metadata i32* %q_index.addr, metadata !12390, metadata !DIExpression()), !dbg !12391
  store i32 %mapping_index, i32* %mapping_index.addr, align 4
  call void @llvm.dbg.declare(metadata i32* %mapping_index.addr, metadata !12392, metadata !DIExpression()), !dbg !12393
  store i32 %fe_index, i32* %fe_index.addr, align 4
  call void @llvm.dbg.declare(metadata i32* %fe_index.addr, metadata !12394, metadata !DIExpression()), !dbg !12395
  %this1 = load %"class.dealii::hp::FEValues"*, %"class.dealii::hp::FEValues"** %this.addr, align 8
  call void @llvm.dbg.declare(metadata i32* %real_q_index, metadata !12396, metadata !DIExpression()), !dbg !12397
  %0 = load i32, i32* %q_index.addr, align 4, !dbg !12398
  store i32 %0, i32* %real_q_index, align 4, !dbg !12397
  call void @llvm.dbg.declare(metadata i32* %real_mapping_index, metadata !12399, metadata !DIExpression()), !dbg !12400
  %1 = load i32, i32* %mapping_index.addr, align 4, !dbg !12401
  store i32 %1, i32* %real_mapping_index, align 4, !dbg !12400
  call void @llvm.dbg.declare(metadata i32* %real_fe_index, metadata !12402, metadata !DIExpression()), !dbg !12403
  %2 = load i32, i32* %fe_index.addr, align 4, !dbg !12404
  store i32 %2, i32* %real_fe_index, align 4, !dbg !12403
  %3 = load i32, i32* %real_q_index, align 4, !dbg !12405
  %cmp = icmp eq i32 %3, -1, !dbg !12407
  br i1 %cmp, label %if.then, label %if.end, !dbg !12408

if.then:                                          ; preds = %entry
  store i32 0, i32* %real_q_index, align 4, !dbg !12409
  br label %if.end, !dbg !12410

if.end:                                           ; preds = %if.then, %entry
  %4 = load i32, i32* %real_mapping_index, align 4, !dbg !12411
  %cmp2 = icmp eq i32 %4, -1, !dbg !12413
  br i1 %cmp2, label %if.then3, label %if.end4, !dbg !12414

if.then3:                                         ; preds = %if.end
  store i32 0, i32* %real_mapping_index, align 4, !dbg !12415
  br label %if.end4, !dbg !12416

if.end4:                                          ; preds = %if.then3, %if.end
  %5 = load i32, i32* %real_fe_index, align 4, !dbg !12417
  %cmp5 = icmp eq i32 %5, -1, !dbg !12419
  br i1 %cmp5, label %if.then6, label %if.end7, !dbg !12420

if.then6:                                         ; preds = %if.end4
  store i32 0, i32* %real_fe_index, align 4, !dbg !12421
  br label %if.end7, !dbg !12422

if.end7:                                          ; preds = %if.then6, %if.end4
  %6 = bitcast %"class.dealii::hp::FEValues"* %this1 to %"class.dealii::internal::hp::FEValuesBase"*, !dbg !12423
  %7 = load i32, i32* %real_fe_index, align 4, !dbg !12424
  %8 = load i32, i32* %real_mapping_index, align 4, !dbg !12425
  %9 = load i32, i32* %real_q_index, align 4, !dbg !12426
  %call = call dereferenceable(776) %"class.dealii::FEValues"* @_ZN6dealii8internal2hp12FEValuesBaseILi3ELi3ENS_8FEValuesILi3ELi3EEEE16select_fe_valuesEjjj(%"class.dealii::internal::hp::FEValuesBase"* %6, i32 %7, i32 %8, i32 %9), !dbg !12423
  %10 = load %"class.dealii::TriaIterator.265"*, %"class.dealii::TriaIterator.265"** %cell.addr, align 8, !dbg !12427
  call void @_ZN6dealii8FEValuesILi3ELi3EE6reinitERKNS_12TriaIteratorINS_12CellAccessorILi3ELi3EEEEE(%"class.dealii::FEValues"* %call, %"class.dealii::TriaIterator.265"* dereferenceable(16) %10), !dbg !12428
  ret void, !dbg !12429
}

declare dso_local void @_ZN6dealii8FEValuesILi3ELi3EE6reinitERKNS_12TriaIteratorINS_12CellAccessorILi3ELi3EEEEE(%"class.dealii::FEValues"*, %"class.dealii::TriaIterator.265"* dereferenceable(16)) #2

; Function Attrs: noinline uwtable
define weak_odr dso_local void @_ZN6dealii2hp12FEFaceValuesILi3EEC2ERKNS0_17MappingCollectionILi3ELi3EEERKNS0_12FECollectionILi3ELi3EEERKNS0_11QCollectionILi2EEENS_11UpdateFlagsE(%"class.dealii::hp::FEFaceValues"* %this, %"class.dealii::hp::MappingCollection"* dereferenceable(96) %mapping, %"class.dealii::hp::FECollection"* dereferenceable(96) %fe_collection, %"class.dealii::hp::QCollection.137"* dereferenceable(96) %q_collection, i32 %update_flags) unnamed_addr #0 comdat($_ZN6dealii2hp12FEFaceValuesILi3EEC5ERKNS0_17MappingCollectionILi3ELi3EEERKNS0_12FECollectionILi3ELi3EEERKNS0_11QCollectionILi2EEENS_11UpdateFlagsE) align 2 !dbg !12430 {
entry:
  %this.addr = alloca %"class.dealii::hp::FEFaceValues"*, align 8
  %mapping.addr = alloca %"class.dealii::hp::MappingCollection"*, align 8
  %fe_collection.addr = alloca %"class.dealii::hp::FECollection"*, align 8
  %q_collection.addr = alloca %"class.dealii::hp::QCollection.137"*, align 8
  %update_flags.addr = alloca i32, align 4
  store %"class.dealii::hp::FEFaceValues"* %this, %"class.dealii::hp::FEFaceValues"** %this.addr, align 8
  call void @llvm.dbg.declare(metadata %"class.dealii::hp::FEFaceValues"** %this.addr, metadata !12431, metadata !DIExpression()), !dbg !12433
  store %"class.dealii::hp::MappingCollection"* %mapping, %"class.dealii::hp::MappingCollection"** %mapping.addr, align 8
  call void @llvm.dbg.declare(metadata %"class.dealii::hp::MappingCollection"** %mapping.addr, metadata !12434, metadata !DIExpression()), !dbg !12435
  store %"class.dealii::hp::FECollection"* %fe_collection, %"class.dealii::hp::FECollection"** %fe_collection.addr, align 8
  call void @llvm.dbg.declare(metadata %"class.dealii::hp::FECollection"** %fe_collection.addr, metadata !12436, metadata !DIExpression()), !dbg !12437
  store %"class.dealii::hp::QCollection.137"* %q_collection, %"class.dealii::hp::QCollection.137"** %q_collection.addr, align 8
  call void @llvm.dbg.declare(metadata %"class.dealii::hp::QCollection.137"** %q_collection.addr, metadata !12438, metadata !DIExpression()), !dbg !12439
  store i32 %update_flags, i32* %update_flags.addr, align 4
  call void @llvm.dbg.declare(metadata i32* %update_flags.addr, metadata !12440, metadata !DIExpression()), !dbg !12441
  %this1 = load %"class.dealii::hp::FEFaceValues"*, %"class.dealii::hp::FEFaceValues"** %this.addr, align 8
  %0 = bitcast %"class.dealii::hp::FEFaceValues"* %this1 to %"class.dealii::internal::hp::FEValuesBase.136"*, !dbg !12442
  %1 = load %"class.dealii::hp::MappingCollection"*, %"class.dealii::hp::MappingCollection"** %mapping.addr, align 8, !dbg !12443
  %2 = load %"class.dealii::hp::FECollection"*, %"class.dealii::hp::FECollection"** %fe_collection.addr, align 8, !dbg !12444
  %3 = load %"class.dealii::hp::QCollection.137"*, %"class.dealii::hp::QCollection.137"** %q_collection.addr, align 8, !dbg !12445
  %4 = load i32, i32* %update_flags.addr, align 4, !dbg !12446
  call void @_ZN6dealii8internal2hp12FEValuesBaseILi3ELi2ENS_12FEFaceValuesILi3ELi3EEEEC2ERKNS_2hp17MappingCollectionILi3ELi3EEERKNS6_12FECollectionILi3ELi3EEERKNS6_11QCollectionILi2EEENS_11UpdateFlagsE(%"class.dealii::internal::hp::FEValuesBase.136"* %0, %"class.dealii::hp::MappingCollection"* dereferenceable(96) %1, %"class.dealii::hp::FECollection"* dereferenceable(96) %2, %"class.dealii::hp::QCollection.137"* dereferenceable(96) %3, i32 %4), !dbg !12447
  ret void, !dbg !12448
}

; Function Attrs: noinline uwtable
define weak_odr dso_local void @_ZN6dealii2hp12FEFaceValuesILi3EEC2ERKNS0_12FECollectionILi3ELi3EEERKNS0_11QCollectionILi2EEENS_11UpdateFlagsE(%"class.dealii::hp::FEFaceValues"* %this, %"class.dealii::hp::FECollection"* dereferenceable(96) %fe_collection, %"class.dealii::hp::QCollection.137"* dereferenceable(96) %q_collection, i32 %update_flags) unnamed_addr #0 comdat($_ZN6dealii2hp12FEFaceValuesILi3EEC5ERKNS0_12FECollectionILi3ELi3EEERKNS0_11QCollectionILi2EEENS_11UpdateFlagsE) align 2 !dbg !12449 {
entry:
  %this.addr = alloca %"class.dealii::hp::FEFaceValues"*, align 8
  %fe_collection.addr = alloca %"class.dealii::hp::FECollection"*, align 8
  %q_collection.addr = alloca %"class.dealii::hp::QCollection.137"*, align 8
  %update_flags.addr = alloca i32, align 4
  store %"class.dealii::hp::FEFaceValues"* %this, %"class.dealii::hp::FEFaceValues"** %this.addr, align 8
  call void @llvm.dbg.declare(metadata %"class.dealii::hp::FEFaceValues"** %this.addr, metadata !12450, metadata !DIExpression()), !dbg !12451
  store %"class.dealii::hp::FECollection"* %fe_collection, %"class.dealii::hp::FECollection"** %fe_collection.addr, align 8
  call void @llvm.dbg.declare(metadata %"class.dealii::hp::FECollection"** %fe_collection.addr, metadata !12452, metadata !DIExpression()), !dbg !12453
  store %"class.dealii::hp::QCollection.137"* %q_collection, %"class.dealii::hp::QCollection.137"** %q_collection.addr, align 8
  call void @llvm.dbg.declare(metadata %"class.dealii::hp::QCollection.137"** %q_collection.addr, metadata !12454, metadata !DIExpression()), !dbg !12455
  store i32 %update_flags, i32* %update_flags.addr, align 4
  call void @llvm.dbg.declare(metadata i32* %update_flags.addr, metadata !12456, metadata !DIExpression()), !dbg !12457
  %this1 = load %"class.dealii::hp::FEFaceValues"*, %"class.dealii::hp::FEFaceValues"** %this.addr, align 8
  %0 = bitcast %"class.dealii::hp::FEFaceValues"* %this1 to %"class.dealii::internal::hp::FEValuesBase.136"*, !dbg !12458
  %1 = load %"class.dealii::hp::FECollection"*, %"class.dealii::hp::FECollection"** %fe_collection.addr, align 8, !dbg !12459
  %2 = load %"class.dealii::hp::QCollection.137"*, %"class.dealii::hp::QCollection.137"** %q_collection.addr, align 8, !dbg !12460
  %3 = load i32, i32* %update_flags.addr, align 4, !dbg !12461
  call void @_ZN6dealii8internal2hp12FEValuesBaseILi3ELi2ENS_12FEFaceValuesILi3ELi3EEEEC2ERKNS_2hp12FECollectionILi3ELi3EEERKNS6_11QCollectionILi2EEENS_11UpdateFlagsE(%"class.dealii::internal::hp::FEValuesBase.136"* %0, %"class.dealii::hp::FECollection"* dereferenceable(96) %1, %"class.dealii::hp::QCollection.137"* dereferenceable(96) %2, i32 %3), !dbg !12462
  ret void, !dbg !12463
}

; Function Attrs: noinline uwtable
define weak_odr dso_local void @_ZN6dealii2hp12FEFaceValuesILi3EE6reinitERKNS_12TriaIteratorINS_15DoFCellAccessorINS0_10DoFHandlerILi3ELi3EEEEEEEjjjj(%"class.dealii::hp::FEFaceValues"* %this, %"class.dealii::TriaIterator"* dereferenceable(24) %cell, i32 %face_no, i32 %q_index, i32 %mapping_index, i32 %fe_index) #0 comdat align 2 !dbg !12464 {
entry:
  %this.addr = alloca %"class.dealii::hp::FEFaceValues"*, align 8
  %cell.addr = alloca %"class.dealii::TriaIterator"*, align 8
  %face_no.addr = alloca i32, align 4
  %q_index.addr = alloca i32, align 4
  %mapping_index.addr = alloca i32, align 4
  %fe_index.addr = alloca i32, align 4
  %real_q_index = alloca i32, align 4
  %real_mapping_index = alloca i32, align 4
  %real_fe_index = alloca i32, align 4
  store %"class.dealii::hp::FEFaceValues"* %this, %"class.dealii::hp::FEFaceValues"** %this.addr, align 8
  call void @llvm.dbg.declare(metadata %"class.dealii::hp::FEFaceValues"** %this.addr, metadata !12465, metadata !DIExpression()), !dbg !12466
  store %"class.dealii::TriaIterator"* %cell, %"class.dealii::TriaIterator"** %cell.addr, align 8
  call void @llvm.dbg.declare(metadata %"class.dealii::TriaIterator"** %cell.addr, metadata !12467, metadata !DIExpression()), !dbg !12468
  store i32 %face_no, i32* %face_no.addr, align 4
  call void @llvm.dbg.declare(metadata i32* %face_no.addr, metadata !12469, metadata !DIExpression()), !dbg !12470
  store i32 %q_index, i32* %q_index.addr, align 4
  call void @llvm.dbg.declare(metadata i32* %q_index.addr, metadata !12471, metadata !DIExpression()), !dbg !12472
  store i32 %mapping_index, i32* %mapping_index.addr, align 4
  call void @llvm.dbg.declare(metadata i32* %mapping_index.addr, metadata !12473, metadata !DIExpression()), !dbg !12474
  store i32 %fe_index, i32* %fe_index.addr, align 4
  call void @llvm.dbg.declare(metadata i32* %fe_index.addr, metadata !12475, metadata !DIExpression()), !dbg !12476
  %this1 = load %"class.dealii::hp::FEFaceValues"*, %"class.dealii::hp::FEFaceValues"** %this.addr, align 8
  call void @llvm.dbg.declare(metadata i32* %real_q_index, metadata !12477, metadata !DIExpression()), !dbg !12478
  %0 = load i32, i32* %q_index.addr, align 4, !dbg !12479
  store i32 %0, i32* %real_q_index, align 4, !dbg !12478
  call void @llvm.dbg.declare(metadata i32* %real_mapping_index, metadata !12480, metadata !DIExpression()), !dbg !12481
  %1 = load i32, i32* %mapping_index.addr, align 4, !dbg !12482
  store i32 %1, i32* %real_mapping_index, align 4, !dbg !12481
  call void @llvm.dbg.declare(metadata i32* %real_fe_index, metadata !12483, metadata !DIExpression()), !dbg !12484
  %2 = load i32, i32* %fe_index.addr, align 4, !dbg !12485
  store i32 %2, i32* %real_fe_index, align 4, !dbg !12484
  %3 = load i32, i32* %real_q_index, align 4, !dbg !12486
  %cmp = icmp eq i32 %3, -1, !dbg !12488
  br i1 %cmp, label %if.then, label %if.end6, !dbg !12489

if.then:                                          ; preds = %entry
  %4 = bitcast %"class.dealii::hp::FEFaceValues"* %this1 to %"class.dealii::internal::hp::FEValuesBase.136"*, !dbg !12490
  %q_collection = getelementptr inbounds %"class.dealii::internal::hp::FEValuesBase.136", %"class.dealii::internal::hp::FEValuesBase.136"* %4, i32 0, i32 2, !dbg !12490
  %call = call i32 @_ZNK6dealii2hp11QCollectionILi2EE4sizeEv(%"class.dealii::hp::QCollection.137"* %q_collection), !dbg !12493
  %cmp2 = icmp ugt i32 %call, 1, !dbg !12494
  br i1 %cmp2, label %if.then3, label %if.else, !dbg !12495

if.then3:                                         ; preds = %if.then
  %5 = load %"class.dealii::TriaIterator"*, %"class.dealii::TriaIterator"** %cell.addr, align 8, !dbg !12496
  %6 = bitcast %"class.dealii::TriaIterator"* %5 to %"class.dealii::TriaRawIterator"*, !dbg !12496
  %call4 = call %"class.dealii::DoFCellAccessor"* @_ZNK6dealii15TriaRawIteratorINS_15DoFCellAccessorINS_2hp10DoFHandlerILi3ELi3EEEEEEptEv(%"class.dealii::TriaRawIterator"* %6), !dbg !12496
  %call5 = call i32 @_ZNK6dealii15DoFCellAccessorINS_2hp10DoFHandlerILi3ELi3EEEE15active_fe_indexEv(%"class.dealii::DoFCellAccessor"* %call4), !dbg !12497
  store i32 %call5, i32* %real_q_index, align 4, !dbg !12498
  br label %if.end, !dbg !12499

if.else:                                          ; preds = %if.then
  store i32 0, i32* %real_q_index, align 4, !dbg !12500
  br label %if.end

if.end:                                           ; preds = %if.else, %if.then3
  br label %if.end6, !dbg !12501

if.end6:                                          ; preds = %if.end, %entry
  %7 = load i32, i32* %real_mapping_index, align 4, !dbg !12502
  %cmp7 = icmp eq i32 %7, -1, !dbg !12504
  br i1 %cmp7, label %if.then8, label %if.end17, !dbg !12505

if.then8:                                         ; preds = %if.end6
  %8 = bitcast %"class.dealii::hp::FEFaceValues"* %this1 to %"class.dealii::internal::hp::FEValuesBase.136"*, !dbg !12506
  %mapping_collection = getelementptr inbounds %"class.dealii::internal::hp::FEValuesBase.136", %"class.dealii::internal::hp::FEValuesBase.136"* %8, i32 0, i32 1, !dbg !12506
  %call9 = call %"class.dealii::hp::MappingCollection"* @_ZNK6dealii12SmartPointerIKNS_2hp17MappingCollectionILi3ELi3EEEEptEv(%"class.dealii::SmartPointer.19"* %mapping_collection), !dbg !12509
  %call10 = call i32 @_ZNK6dealii2hp17MappingCollectionILi3ELi3EE4sizeEv(%"class.dealii::hp::MappingCollection"* %call9), !dbg !12510
  %cmp11 = icmp ugt i32 %call10, 1, !dbg !12511
  br i1 %cmp11, label %if.then12, label %if.else15, !dbg !12512

if.then12:                                        ; preds = %if.then8
  %9 = load %"class.dealii::TriaIterator"*, %"class.dealii::TriaIterator"** %cell.addr, align 8, !dbg !12513
  %10 = bitcast %"class.dealii::TriaIterator"* %9 to %"class.dealii::TriaRawIterator"*, !dbg !12513
  %call13 = call %"class.dealii::DoFCellAccessor"* @_ZNK6dealii15TriaRawIteratorINS_15DoFCellAccessorINS_2hp10DoFHandlerILi3ELi3EEEEEEptEv(%"class.dealii::TriaRawIterator"* %10), !dbg !12513
  %call14 = call i32 @_ZNK6dealii15DoFCellAccessorINS_2hp10DoFHandlerILi3ELi3EEEE15active_fe_indexEv(%"class.dealii::DoFCellAccessor"* %call13), !dbg !12514
  store i32 %call14, i32* %real_mapping_index, align 4, !dbg !12515
  br label %if.end16, !dbg !12516

if.else15:                                        ; preds = %if.then8
  store i32 0, i32* %real_mapping_index, align 4, !dbg !12517
  br label %if.end16

if.end16:                                         ; preds = %if.else15, %if.then12
  br label %if.end17, !dbg !12518

if.end17:                                         ; preds = %if.end16, %if.end6
  %11 = load i32, i32* %real_fe_index, align 4, !dbg !12519
  %cmp18 = icmp eq i32 %11, -1, !dbg !12521
  br i1 %cmp18, label %if.then19, label %if.end22, !dbg !12522

if.then19:                                        ; preds = %if.end17
  %12 = load %"class.dealii::TriaIterator"*, %"class.dealii::TriaIterator"** %cell.addr, align 8, !dbg !12523
  %13 = bitcast %"class.dealii::TriaIterator"* %12 to %"class.dealii::TriaRawIterator"*, !dbg !12523
  %call20 = call %"class.dealii::DoFCellAccessor"* @_ZNK6dealii15TriaRawIteratorINS_15DoFCellAccessorINS_2hp10DoFHandlerILi3ELi3EEEEEEptEv(%"class.dealii::TriaRawIterator"* %13), !dbg !12523
  %call21 = call i32 @_ZNK6dealii15DoFCellAccessorINS_2hp10DoFHandlerILi3ELi3EEEE15active_fe_indexEv(%"class.dealii::DoFCellAccessor"* %call20), !dbg !12524
  store i32 %call21, i32* %real_fe_index, align 4, !dbg !12525
  br label %if.end22, !dbg !12526

if.end22:                                         ; preds = %if.then19, %if.end17
  %14 = bitcast %"class.dealii::hp::FEFaceValues"* %this1 to %"class.dealii::internal::hp::FEValuesBase.136"*, !dbg !12527
  %15 = load i32, i32* %real_fe_index, align 4, !dbg !12528
  %16 = load i32, i32* %real_mapping_index, align 4, !dbg !12529
  %17 = load i32, i32* %real_q_index, align 4, !dbg !12530
  %call23 = call dereferenceable(784) %"class.dealii::FEFaceValues"* @_ZN6dealii8internal2hp12FEValuesBaseILi3ELi2ENS_12FEFaceValuesILi3ELi3EEEE16select_fe_valuesEjjj(%"class.dealii::internal::hp::FEValuesBase.136"* %14, i32 %15, i32 %16, i32 %17), !dbg !12527
  %18 = load %"class.dealii::TriaIterator"*, %"class.dealii::TriaIterator"** %cell.addr, align 8, !dbg !12531
  %19 = load i32, i32* %face_no.addr, align 4, !dbg !12532
  call void @_ZN6dealii12FEFaceValuesILi3ELi3EE6reinitERKNS_12TriaIteratorINS_15DoFCellAccessorINS_2hp10DoFHandlerILi3ELi3EEEEEEEj(%"class.dealii::FEFaceValues"* %call23, %"class.dealii::TriaIterator"* dereferenceable(24) %18, i32 %19), !dbg !12533
  ret void, !dbg !12534
}

declare dso_local void @_ZN6dealii12FEFaceValuesILi3ELi3EE6reinitERKNS_12TriaIteratorINS_15DoFCellAccessorINS_2hp10DoFHandlerILi3ELi3EEEEEEEj(%"class.dealii::FEFaceValues"*, %"class.dealii::TriaIterator"* dereferenceable(24), i32) #2

; Function Attrs: noinline uwtable
define weak_odr dso_local void @_ZN6dealii2hp12FEFaceValuesILi3EE6reinitERKNS_12TriaIteratorINS_15DoFCellAccessorINS_10DoFHandlerILi3ELi3EEEEEEEjjjj(%"class.dealii::hp::FEFaceValues"* %this, %"class.dealii::TriaIterator.244"* dereferenceable(24) %cell, i32 %face_no, i32 %q_index, i32 %mapping_index, i32 %fe_index) #0 comdat align 2 !dbg !12535 {
entry:
  %this.addr = alloca %"class.dealii::hp::FEFaceValues"*, align 8
  %cell.addr = alloca %"class.dealii::TriaIterator.244"*, align 8
  %face_no.addr = alloca i32, align 4
  %q_index.addr = alloca i32, align 4
  %mapping_index.addr = alloca i32, align 4
  %fe_index.addr = alloca i32, align 4
  %real_q_index = alloca i32, align 4
  %real_mapping_index = alloca i32, align 4
  %real_fe_index = alloca i32, align 4
  store %"class.dealii::hp::FEFaceValues"* %this, %"class.dealii::hp::FEFaceValues"** %this.addr, align 8
  call void @llvm.dbg.declare(metadata %"class.dealii::hp::FEFaceValues"** %this.addr, metadata !12536, metadata !DIExpression()), !dbg !12537
  store %"class.dealii::TriaIterator.244"* %cell, %"class.dealii::TriaIterator.244"** %cell.addr, align 8
  call void @llvm.dbg.declare(metadata %"class.dealii::TriaIterator.244"** %cell.addr, metadata !12538, metadata !DIExpression()), !dbg !12539
  store i32 %face_no, i32* %face_no.addr, align 4
  call void @llvm.dbg.declare(metadata i32* %face_no.addr, metadata !12540, metadata !DIExpression()), !dbg !12541
  store i32 %q_index, i32* %q_index.addr, align 4
  call void @llvm.dbg.declare(metadata i32* %q_index.addr, metadata !12542, metadata !DIExpression()), !dbg !12543
  store i32 %mapping_index, i32* %mapping_index.addr, align 4
  call void @llvm.dbg.declare(metadata i32* %mapping_index.addr, metadata !12544, metadata !DIExpression()), !dbg !12545
  store i32 %fe_index, i32* %fe_index.addr, align 4
  call void @llvm.dbg.declare(metadata i32* %fe_index.addr, metadata !12546, metadata !DIExpression()), !dbg !12547
  %this1 = load %"class.dealii::hp::FEFaceValues"*, %"class.dealii::hp::FEFaceValues"** %this.addr, align 8
  call void @llvm.dbg.declare(metadata i32* %real_q_index, metadata !12548, metadata !DIExpression()), !dbg !12549
  %0 = load i32, i32* %q_index.addr, align 4, !dbg !12550
  store i32 %0, i32* %real_q_index, align 4, !dbg !12549
  call void @llvm.dbg.declare(metadata i32* %real_mapping_index, metadata !12551, metadata !DIExpression()), !dbg !12552
  %1 = load i32, i32* %mapping_index.addr, align 4, !dbg !12553
  store i32 %1, i32* %real_mapping_index, align 4, !dbg !12552
  call void @llvm.dbg.declare(metadata i32* %real_fe_index, metadata !12554, metadata !DIExpression()), !dbg !12555
  %2 = load i32, i32* %fe_index.addr, align 4, !dbg !12556
  store i32 %2, i32* %real_fe_index, align 4, !dbg !12555
  %3 = load i32, i32* %real_q_index, align 4, !dbg !12557
  %cmp = icmp eq i32 %3, -1, !dbg !12559
  br i1 %cmp, label %if.then, label %if.end, !dbg !12560

if.then:                                          ; preds = %entry
  store i32 0, i32* %real_q_index, align 4, !dbg !12561
  br label %if.end, !dbg !12562

if.end:                                           ; preds = %if.then, %entry
  %4 = load i32, i32* %real_mapping_index, align 4, !dbg !12563
  %cmp2 = icmp eq i32 %4, -1, !dbg !12565
  br i1 %cmp2, label %if.then3, label %if.end4, !dbg !12566

if.then3:                                         ; preds = %if.end
  store i32 0, i32* %real_mapping_index, align 4, !dbg !12567
  br label %if.end4, !dbg !12568

if.end4:                                          ; preds = %if.then3, %if.end
  %5 = load i32, i32* %real_fe_index, align 4, !dbg !12569
  %cmp5 = icmp eq i32 %5, -1, !dbg !12571
  br i1 %cmp5, label %if.then6, label %if.end7, !dbg !12572

if.then6:                                         ; preds = %if.end4
  store i32 0, i32* %real_fe_index, align 4, !dbg !12573
  br label %if.end7, !dbg !12574

if.end7:                                          ; preds = %if.then6, %if.end4
  %6 = bitcast %"class.dealii::hp::FEFaceValues"* %this1 to %"class.dealii::internal::hp::FEValuesBase.136"*, !dbg !12575
  %7 = load i32, i32* %real_fe_index, align 4, !dbg !12576
  %8 = load i32, i32* %real_mapping_index, align 4, !dbg !12577
  %9 = load i32, i32* %real_q_index, align 4, !dbg !12578
  %call = call dereferenceable(784) %"class.dealii::FEFaceValues"* @_ZN6dealii8internal2hp12FEValuesBaseILi3ELi2ENS_12FEFaceValuesILi3ELi3EEEE16select_fe_valuesEjjj(%"class.dealii::internal::hp::FEValuesBase.136"* %6, i32 %7, i32 %8, i32 %9), !dbg !12575
  %10 = load %"class.dealii::TriaIterator.244"*, %"class.dealii::TriaIterator.244"** %cell.addr, align 8, !dbg !12579
  %11 = load i32, i32* %face_no.addr, align 4, !dbg !12580
  call void @_ZN6dealii12FEFaceValuesILi3ELi3EE6reinitERKNS_12TriaIteratorINS_15DoFCellAccessorINS_10DoFHandlerILi3ELi3EEEEEEEj(%"class.dealii::FEFaceValues"* %call, %"class.dealii::TriaIterator.244"* dereferenceable(24) %10, i32 %11), !dbg !12581
  ret void, !dbg !12582
}

declare dso_local void @_ZN6dealii12FEFaceValuesILi3ELi3EE6reinitERKNS_12TriaIteratorINS_15DoFCellAccessorINS_10DoFHandlerILi3ELi3EEEEEEEj(%"class.dealii::FEFaceValues"*, %"class.dealii::TriaIterator.244"* dereferenceable(24), i32) #2

; Function Attrs: noinline uwtable
define weak_odr dso_local void @_ZN6dealii2hp12FEFaceValuesILi3EE6reinitERKNS_12TriaIteratorINS_17MGDoFCellAccessorILi3ELi3EEEEEjjjj(%"class.dealii::hp::FEFaceValues"* %this, %"class.dealii::TriaIterator.257"* dereferenceable(32) %cell, i32 %face_no, i32 %q_index, i32 %mapping_index, i32 %fe_index) #0 comdat align 2 !dbg !12583 {
entry:
  %this.addr = alloca %"class.dealii::hp::FEFaceValues"*, align 8
  %cell.addr = alloca %"class.dealii::TriaIterator.257"*, align 8
  %face_no.addr = alloca i32, align 4
  %q_index.addr = alloca i32, align 4
  %mapping_index.addr = alloca i32, align 4
  %fe_index.addr = alloca i32, align 4
  %real_q_index = alloca i32, align 4
  %real_mapping_index = alloca i32, align 4
  %real_fe_index = alloca i32, align 4
  store %"class.dealii::hp::FEFaceValues"* %this, %"class.dealii::hp::FEFaceValues"** %this.addr, align 8
  call void @llvm.dbg.declare(metadata %"class.dealii::hp::FEFaceValues"** %this.addr, metadata !12584, metadata !DIExpression()), !dbg !12585
  store %"class.dealii::TriaIterator.257"* %cell, %"class.dealii::TriaIterator.257"** %cell.addr, align 8
  call void @llvm.dbg.declare(metadata %"class.dealii::TriaIterator.257"** %cell.addr, metadata !12586, metadata !DIExpression()), !dbg !12587
  store i32 %face_no, i32* %face_no.addr, align 4
  call void @llvm.dbg.declare(metadata i32* %face_no.addr, metadata !12588, metadata !DIExpression()), !dbg !12589
  store i32 %q_index, i32* %q_index.addr, align 4
  call void @llvm.dbg.declare(metadata i32* %q_index.addr, metadata !12590, metadata !DIExpression()), !dbg !12591
  store i32 %mapping_index, i32* %mapping_index.addr, align 4
  call void @llvm.dbg.declare(metadata i32* %mapping_index.addr, metadata !12592, metadata !DIExpression()), !dbg !12593
  store i32 %fe_index, i32* %fe_index.addr, align 4
  call void @llvm.dbg.declare(metadata i32* %fe_index.addr, metadata !12594, metadata !DIExpression()), !dbg !12595
  %this1 = load %"class.dealii::hp::FEFaceValues"*, %"class.dealii::hp::FEFaceValues"** %this.addr, align 8
  call void @llvm.dbg.declare(metadata i32* %real_q_index, metadata !12596, metadata !DIExpression()), !dbg !12597
  %0 = load i32, i32* %q_index.addr, align 4, !dbg !12598
  store i32 %0, i32* %real_q_index, align 4, !dbg !12597
  call void @llvm.dbg.declare(metadata i32* %real_mapping_index, metadata !12599, metadata !DIExpression()), !dbg !12600
  %1 = load i32, i32* %mapping_index.addr, align 4, !dbg !12601
  store i32 %1, i32* %real_mapping_index, align 4, !dbg !12600
  call void @llvm.dbg.declare(metadata i32* %real_fe_index, metadata !12602, metadata !DIExpression()), !dbg !12603
  %2 = load i32, i32* %fe_index.addr, align 4, !dbg !12604
  store i32 %2, i32* %real_fe_index, align 4, !dbg !12603
  %3 = load i32, i32* %real_q_index, align 4, !dbg !12605
  %cmp = icmp eq i32 %3, -1, !dbg !12607
  br i1 %cmp, label %if.then, label %if.end, !dbg !12608

if.then:                                          ; preds = %entry
  store i32 0, i32* %real_q_index, align 4, !dbg !12609
  br label %if.end, !dbg !12610

if.end:                                           ; preds = %if.then, %entry
  %4 = load i32, i32* %real_mapping_index, align 4, !dbg !12611
  %cmp2 = icmp eq i32 %4, -1, !dbg !12613
  br i1 %cmp2, label %if.then3, label %if.end4, !dbg !12614

if.then3:                                         ; preds = %if.end
  store i32 0, i32* %real_mapping_index, align 4, !dbg !12615
  br label %if.end4, !dbg !12616

if.end4:                                          ; preds = %if.then3, %if.end
  %5 = load i32, i32* %real_fe_index, align 4, !dbg !12617
  %cmp5 = icmp eq i32 %5, -1, !dbg !12619
  br i1 %cmp5, label %if.then6, label %if.end7, !dbg !12620

if.then6:                                         ; preds = %if.end4
  store i32 0, i32* %real_fe_index, align 4, !dbg !12621
  br label %if.end7, !dbg !12622

if.end7:                                          ; preds = %if.then6, %if.end4
  %6 = bitcast %"class.dealii::hp::FEFaceValues"* %this1 to %"class.dealii::internal::hp::FEValuesBase.136"*, !dbg !12623
  %7 = load i32, i32* %real_fe_index, align 4, !dbg !12624
  %8 = load i32, i32* %real_mapping_index, align 4, !dbg !12625
  %9 = load i32, i32* %real_q_index, align 4, !dbg !12626
  %call = call dereferenceable(784) %"class.dealii::FEFaceValues"* @_ZN6dealii8internal2hp12FEValuesBaseILi3ELi2ENS_12FEFaceValuesILi3ELi3EEEE16select_fe_valuesEjjj(%"class.dealii::internal::hp::FEValuesBase.136"* %6, i32 %7, i32 %8, i32 %9), !dbg !12623
  %10 = load %"class.dealii::TriaIterator.257"*, %"class.dealii::TriaIterator.257"** %cell.addr, align 8, !dbg !12627
  %11 = load i32, i32* %face_no.addr, align 4, !dbg !12628
  call void @_ZN6dealii12FEFaceValuesILi3ELi3EE6reinitERKNS_12TriaIteratorINS_17MGDoFCellAccessorILi3ELi3EEEEEj(%"class.dealii::FEFaceValues"* %call, %"class.dealii::TriaIterator.257"* dereferenceable(32) %10, i32 %11), !dbg !12629
  ret void, !dbg !12630
}

declare dso_local void @_ZN6dealii12FEFaceValuesILi3ELi3EE6reinitERKNS_12TriaIteratorINS_17MGDoFCellAccessorILi3ELi3EEEEEj(%"class.dealii::FEFaceValues"*, %"class.dealii::TriaIterator.257"* dereferenceable(32), i32) #2

; Function Attrs: noinline uwtable
define weak_odr dso_local void @_ZN6dealii2hp12FEFaceValuesILi3EE6reinitERKNS_12TriaIteratorINS_12CellAccessorILi3ELi3EEEEEjjjj(%"class.dealii::hp::FEFaceValues"* %this, %"class.dealii::TriaIterator.265"* dereferenceable(16) %cell, i32 %face_no, i32 %q_index, i32 %mapping_index, i32 %fe_index) #0 comdat align 2 !dbg !12631 {
entry:
  %this.addr = alloca %"class.dealii::hp::FEFaceValues"*, align 8
  %cell.addr = alloca %"class.dealii::TriaIterator.265"*, align 8
  %face_no.addr = alloca i32, align 4
  %q_index.addr = alloca i32, align 4
  %mapping_index.addr = alloca i32, align 4
  %fe_index.addr = alloca i32, align 4
  %real_q_index = alloca i32, align 4
  %real_mapping_index = alloca i32, align 4
  %real_fe_index = alloca i32, align 4
  store %"class.dealii::hp::FEFaceValues"* %this, %"class.dealii::hp::FEFaceValues"** %this.addr, align 8
  call void @llvm.dbg.declare(metadata %"class.dealii::hp::FEFaceValues"** %this.addr, metadata !12632, metadata !DIExpression()), !dbg !12633
  store %"class.dealii::TriaIterator.265"* %cell, %"class.dealii::TriaIterator.265"** %cell.addr, align 8
  call void @llvm.dbg.declare(metadata %"class.dealii::TriaIterator.265"** %cell.addr, metadata !12634, metadata !DIExpression()), !dbg !12635
  store i32 %face_no, i32* %face_no.addr, align 4
  call void @llvm.dbg.declare(metadata i32* %face_no.addr, metadata !12636, metadata !DIExpression()), !dbg !12637
  store i32 %q_index, i32* %q_index.addr, align 4
  call void @llvm.dbg.declare(metadata i32* %q_index.addr, metadata !12638, metadata !DIExpression()), !dbg !12639
  store i32 %mapping_index, i32* %mapping_index.addr, align 4
  call void @llvm.dbg.declare(metadata i32* %mapping_index.addr, metadata !12640, metadata !DIExpression()), !dbg !12641
  store i32 %fe_index, i32* %fe_index.addr, align 4
  call void @llvm.dbg.declare(metadata i32* %fe_index.addr, metadata !12642, metadata !DIExpression()), !dbg !12643
  %this1 = load %"class.dealii::hp::FEFaceValues"*, %"class.dealii::hp::FEFaceValues"** %this.addr, align 8
  call void @llvm.dbg.declare(metadata i32* %real_q_index, metadata !12644, metadata !DIExpression()), !dbg !12645
  %0 = load i32, i32* %q_index.addr, align 4, !dbg !12646
  store i32 %0, i32* %real_q_index, align 4, !dbg !12645
  call void @llvm.dbg.declare(metadata i32* %real_mapping_index, metadata !12647, metadata !DIExpression()), !dbg !12648
  %1 = load i32, i32* %mapping_index.addr, align 4, !dbg !12649
  store i32 %1, i32* %real_mapping_index, align 4, !dbg !12648
  call void @llvm.dbg.declare(metadata i32* %real_fe_index, metadata !12650, metadata !DIExpression()), !dbg !12651
  %2 = load i32, i32* %fe_index.addr, align 4, !dbg !12652
  store i32 %2, i32* %real_fe_index, align 4, !dbg !12651
  %3 = load i32, i32* %real_q_index, align 4, !dbg !12653
  %cmp = icmp eq i32 %3, -1, !dbg !12655
  br i1 %cmp, label %if.then, label %if.end, !dbg !12656

if.then:                                          ; preds = %entry
  store i32 0, i32* %real_q_index, align 4, !dbg !12657
  br label %if.end, !dbg !12658

if.end:                                           ; preds = %if.then, %entry
  %4 = load i32, i32* %real_mapping_index, align 4, !dbg !12659
  %cmp2 = icmp eq i32 %4, -1, !dbg !12661
  br i1 %cmp2, label %if.then3, label %if.end4, !dbg !12662

if.then3:                                         ; preds = %if.end
  store i32 0, i32* %real_mapping_index, align 4, !dbg !12663
  br label %if.end4, !dbg !12664

if.end4:                                          ; preds = %if.then3, %if.end
  %5 = load i32, i32* %real_fe_index, align 4, !dbg !12665
  %cmp5 = icmp eq i32 %5, -1, !dbg !12667
  br i1 %cmp5, label %if.then6, label %if.end7, !dbg !12668

if.then6:                                         ; preds = %if.end4
  store i32 0, i32* %real_fe_index, align 4, !dbg !12669
  br label %if.end7, !dbg !12670

if.end7:                                          ; preds = %if.then6, %if.end4
  %6 = bitcast %"class.dealii::hp::FEFaceValues"* %this1 to %"class.dealii::internal::hp::FEValuesBase.136"*, !dbg !12671
  %7 = load i32, i32* %real_fe_index, align 4, !dbg !12672
  %8 = load i32, i32* %real_mapping_index, align 4, !dbg !12673
  %9 = load i32, i32* %real_q_index, align 4, !dbg !12674
  %call = call dereferenceable(784) %"class.dealii::FEFaceValues"* @_ZN6dealii8internal2hp12FEValuesBaseILi3ELi2ENS_12FEFaceValuesILi3ELi3EEEE16select_fe_valuesEjjj(%"class.dealii::internal::hp::FEValuesBase.136"* %6, i32 %7, i32 %8, i32 %9), !dbg !12671
  %10 = load %"class.dealii::TriaIterator.265"*, %"class.dealii::TriaIterator.265"** %cell.addr, align 8, !dbg !12675
  %11 = load i32, i32* %face_no.addr, align 4, !dbg !12676
  call void @_ZN6dealii12FEFaceValuesILi3ELi3EE6reinitERKNS_12TriaIteratorINS_12CellAccessorILi3ELi3EEEEEj(%"class.dealii::FEFaceValues"* %call, %"class.dealii::TriaIterator.265"* dereferenceable(16) %10, i32 %11), !dbg !12677
  ret void, !dbg !12678
}

declare dso_local void @_ZN6dealii12FEFaceValuesILi3ELi3EE6reinitERKNS_12TriaIteratorINS_12CellAccessorILi3ELi3EEEEEj(%"class.dealii::FEFaceValues"*, %"class.dealii::TriaIterator.265"* dereferenceable(16), i32) #2

; Function Attrs: noinline uwtable
define weak_odr dso_local void @_ZN6dealii2hp15FESubfaceValuesILi3EEC2ERKNS0_17MappingCollectionILi3ELi3EEERKNS0_12FECollectionILi3ELi3EEERKNS0_11QCollectionILi2EEENS_11UpdateFlagsE(%"class.dealii::hp::FESubfaceValues"* %this, %"class.dealii::hp::MappingCollection"* dereferenceable(96) %mapping, %"class.dealii::hp::FECollection"* dereferenceable(96) %fe_collection, %"class.dealii::hp::QCollection.137"* dereferenceable(96) %q_collection, i32 %update_flags) unnamed_addr #0 comdat($_ZN6dealii2hp15FESubfaceValuesILi3EEC5ERKNS0_17MappingCollectionILi3ELi3EEERKNS0_12FECollectionILi3ELi3EEERKNS0_11QCollectionILi2EEENS_11UpdateFlagsE) align 2 !dbg !12679 {
entry:
  %this.addr = alloca %"class.dealii::hp::FESubfaceValues"*, align 8
  %mapping.addr = alloca %"class.dealii::hp::MappingCollection"*, align 8
  %fe_collection.addr = alloca %"class.dealii::hp::FECollection"*, align 8
  %q_collection.addr = alloca %"class.dealii::hp::QCollection.137"*, align 8
  %update_flags.addr = alloca i32, align 4
  store %"class.dealii::hp::FESubfaceValues"* %this, %"class.dealii::hp::FESubfaceValues"** %this.addr, align 8
  call void @llvm.dbg.declare(metadata %"class.dealii::hp::FESubfaceValues"** %this.addr, metadata !12680, metadata !DIExpression()), !dbg !12682
  store %"class.dealii::hp::MappingCollection"* %mapping, %"class.dealii::hp::MappingCollection"** %mapping.addr, align 8
  call void @llvm.dbg.declare(metadata %"class.dealii::hp::MappingCollection"** %mapping.addr, metadata !12683, metadata !DIExpression()), !dbg !12684
  store %"class.dealii::hp::FECollection"* %fe_collection, %"class.dealii::hp::FECollection"** %fe_collection.addr, align 8
  call void @llvm.dbg.declare(metadata %"class.dealii::hp::FECollection"** %fe_collection.addr, metadata !12685, metadata !DIExpression()), !dbg !12686
  store %"class.dealii::hp::QCollection.137"* %q_collection, %"class.dealii::hp::QCollection.137"** %q_collection.addr, align 8
  call void @llvm.dbg.declare(metadata %"class.dealii::hp::QCollection.137"** %q_collection.addr, metadata !12687, metadata !DIExpression()), !dbg !12688
  store i32 %update_flags, i32* %update_flags.addr, align 4
  call void @llvm.dbg.declare(metadata i32* %update_flags.addr, metadata !12689, metadata !DIExpression()), !dbg !12690
  %this1 = load %"class.dealii::hp::FESubfaceValues"*, %"class.dealii::hp::FESubfaceValues"** %this.addr, align 8
  %0 = bitcast %"class.dealii::hp::FESubfaceValues"* %this1 to %"class.dealii::internal::hp::FEValuesBase.148"*, !dbg !12691
  %1 = load %"class.dealii::hp::MappingCollection"*, %"class.dealii::hp::MappingCollection"** %mapping.addr, align 8, !dbg !12692
  %2 = load %"class.dealii::hp::FECollection"*, %"class.dealii::hp::FECollection"** %fe_collection.addr, align 8, !dbg !12693
  %3 = load %"class.dealii::hp::QCollection.137"*, %"class.dealii::hp::QCollection.137"** %q_collection.addr, align 8, !dbg !12694
  %4 = load i32, i32* %update_flags.addr, align 4, !dbg !12695
  call void @_ZN6dealii8internal2hp12FEValuesBaseILi3ELi2ENS_15FESubfaceValuesILi3ELi3EEEEC2ERKNS_2hp17MappingCollectionILi3ELi3EEERKNS6_12FECollectionILi3ELi3EEERKNS6_11QCollectionILi2EEENS_11UpdateFlagsE(%"class.dealii::internal::hp::FEValuesBase.148"* %0, %"class.dealii::hp::MappingCollection"* dereferenceable(96) %1, %"class.dealii::hp::FECollection"* dereferenceable(96) %2, %"class.dealii::hp::QCollection.137"* dereferenceable(96) %3, i32 %4), !dbg !12696
  ret void, !dbg !12697
}

; Function Attrs: noinline uwtable
define weak_odr dso_local void @_ZN6dealii2hp15FESubfaceValuesILi3EEC2ERKNS0_12FECollectionILi3ELi3EEERKNS0_11QCollectionILi2EEENS_11UpdateFlagsE(%"class.dealii::hp::FESubfaceValues"* %this, %"class.dealii::hp::FECollection"* dereferenceable(96) %fe_collection, %"class.dealii::hp::QCollection.137"* dereferenceable(96) %q_collection, i32 %update_flags) unnamed_addr #0 comdat($_ZN6dealii2hp15FESubfaceValuesILi3EEC5ERKNS0_12FECollectionILi3ELi3EEERKNS0_11QCollectionILi2EEENS_11UpdateFlagsE) align 2 !dbg !12698 {
entry:
  %this.addr = alloca %"class.dealii::hp::FESubfaceValues"*, align 8
  %fe_collection.addr = alloca %"class.dealii::hp::FECollection"*, align 8
  %q_collection.addr = alloca %"class.dealii::hp::QCollection.137"*, align 8
  %update_flags.addr = alloca i32, align 4
  store %"class.dealii::hp::FESubfaceValues"* %this, %"class.dealii::hp::FESubfaceValues"** %this.addr, align 8
  call void @llvm.dbg.declare(metadata %"class.dealii::hp::FESubfaceValues"** %this.addr, metadata !12699, metadata !DIExpression()), !dbg !12700
  store %"class.dealii::hp::FECollection"* %fe_collection, %"class.dealii::hp::FECollection"** %fe_collection.addr, align 8
  call void @llvm.dbg.declare(metadata %"class.dealii::hp::FECollection"** %fe_collection.addr, metadata !12701, metadata !DIExpression()), !dbg !12702
  store %"class.dealii::hp::QCollection.137"* %q_collection, %"class.dealii::hp::QCollection.137"** %q_collection.addr, align 8
  call void @llvm.dbg.declare(metadata %"class.dealii::hp::QCollection.137"** %q_collection.addr, metadata !12703, metadata !DIExpression()), !dbg !12704
  store i32 %update_flags, i32* %update_flags.addr, align 4
  call void @llvm.dbg.declare(metadata i32* %update_flags.addr, metadata !12705, metadata !DIExpression()), !dbg !12706
  %this1 = load %"class.dealii::hp::FESubfaceValues"*, %"class.dealii::hp::FESubfaceValues"** %this.addr, align 8
  %0 = bitcast %"class.dealii::hp::FESubfaceValues"* %this1 to %"class.dealii::internal::hp::FEValuesBase.148"*, !dbg !12707
  %1 = load %"class.dealii::hp::FECollection"*, %"class.dealii::hp::FECollection"** %fe_collection.addr, align 8, !dbg !12708
  %2 = load %"class.dealii::hp::QCollection.137"*, %"class.dealii::hp::QCollection.137"** %q_collection.addr, align 8, !dbg !12709
  %3 = load i32, i32* %update_flags.addr, align 4, !dbg !12710
  call void @_ZN6dealii8internal2hp12FEValuesBaseILi3ELi2ENS_15FESubfaceValuesILi3ELi3EEEEC2ERKNS_2hp12FECollectionILi3ELi3EEERKNS6_11QCollectionILi2EEENS_11UpdateFlagsE(%"class.dealii::internal::hp::FEValuesBase.148"* %0, %"class.dealii::hp::FECollection"* dereferenceable(96) %1, %"class.dealii::hp::QCollection.137"* dereferenceable(96) %2, i32 %3), !dbg !12711
  ret void, !dbg !12712
}

; Function Attrs: noinline uwtable
define weak_odr dso_local void @_ZN6dealii2hp15FESubfaceValuesILi3EE6reinitERKNS_12TriaIteratorINS_15DoFCellAccessorINS0_10DoFHandlerILi3ELi3EEEEEEEjjjjj(%"class.dealii::hp::FESubfaceValues"* %this, %"class.dealii::TriaIterator"* dereferenceable(24) %cell, i32 %face_no, i32 %subface_no, i32 %q_index, i32 %mapping_index, i32 %fe_index) #0 comdat align 2 !dbg !12713 {
entry:
  %this.addr = alloca %"class.dealii::hp::FESubfaceValues"*, align 8
  %cell.addr = alloca %"class.dealii::TriaIterator"*, align 8
  %face_no.addr = alloca i32, align 4
  %subface_no.addr = alloca i32, align 4
  %q_index.addr = alloca i32, align 4
  %mapping_index.addr = alloca i32, align 4
  %fe_index.addr = alloca i32, align 4
  %real_q_index = alloca i32, align 4
  %real_mapping_index = alloca i32, align 4
  %real_fe_index = alloca i32, align 4
  store %"class.dealii::hp::FESubfaceValues"* %this, %"class.dealii::hp::FESubfaceValues"** %this.addr, align 8
  call void @llvm.dbg.declare(metadata %"class.dealii::hp::FESubfaceValues"** %this.addr, metadata !12714, metadata !DIExpression()), !dbg !12715
  store %"class.dealii::TriaIterator"* %cell, %"class.dealii::TriaIterator"** %cell.addr, align 8
  call void @llvm.dbg.declare(metadata %"class.dealii::TriaIterator"** %cell.addr, metadata !12716, metadata !DIExpression()), !dbg !12717
  store i32 %face_no, i32* %face_no.addr, align 4
  call void @llvm.dbg.declare(metadata i32* %face_no.addr, metadata !12718, metadata !DIExpression()), !dbg !12719
  store i32 %subface_no, i32* %subface_no.addr, align 4
  call void @llvm.dbg.declare(metadata i32* %subface_no.addr, metadata !12720, metadata !DIExpression()), !dbg !12721
  store i32 %q_index, i32* %q_index.addr, align 4
  call void @llvm.dbg.declare(metadata i32* %q_index.addr, metadata !12722, metadata !DIExpression()), !dbg !12723
  store i32 %mapping_index, i32* %mapping_index.addr, align 4
  call void @llvm.dbg.declare(metadata i32* %mapping_index.addr, metadata !12724, metadata !DIExpression()), !dbg !12725
  store i32 %fe_index, i32* %fe_index.addr, align 4
  call void @llvm.dbg.declare(metadata i32* %fe_index.addr, metadata !12726, metadata !DIExpression()), !dbg !12727
  %this1 = load %"class.dealii::hp::FESubfaceValues"*, %"class.dealii::hp::FESubfaceValues"** %this.addr, align 8
  call void @llvm.dbg.declare(metadata i32* %real_q_index, metadata !12728, metadata !DIExpression()), !dbg !12729
  %0 = load i32, i32* %q_index.addr, align 4, !dbg !12730
  store i32 %0, i32* %real_q_index, align 4, !dbg !12729
  call void @llvm.dbg.declare(metadata i32* %real_mapping_index, metadata !12731, metadata !DIExpression()), !dbg !12732
  %1 = load i32, i32* %mapping_index.addr, align 4, !dbg !12733
  store i32 %1, i32* %real_mapping_index, align 4, !dbg !12732
  call void @llvm.dbg.declare(metadata i32* %real_fe_index, metadata !12734, metadata !DIExpression()), !dbg !12735
  %2 = load i32, i32* %fe_index.addr, align 4, !dbg !12736
  store i32 %2, i32* %real_fe_index, align 4, !dbg !12735
  %3 = load i32, i32* %real_q_index, align 4, !dbg !12737
  %cmp = icmp eq i32 %3, -1, !dbg !12739
  br i1 %cmp, label %if.then, label %if.end6, !dbg !12740

if.then:                                          ; preds = %entry
  %4 = bitcast %"class.dealii::hp::FESubfaceValues"* %this1 to %"class.dealii::internal::hp::FEValuesBase.148"*, !dbg !12741
  %q_collection = getelementptr inbounds %"class.dealii::internal::hp::FEValuesBase.148", %"class.dealii::internal::hp::FEValuesBase.148"* %4, i32 0, i32 2, !dbg !12741
  %call = call i32 @_ZNK6dealii2hp11QCollectionILi2EE4sizeEv(%"class.dealii::hp::QCollection.137"* %q_collection), !dbg !12744
  %cmp2 = icmp ugt i32 %call, 1, !dbg !12745
  br i1 %cmp2, label %if.then3, label %if.else, !dbg !12746

if.then3:                                         ; preds = %if.then
  %5 = load %"class.dealii::TriaIterator"*, %"class.dealii::TriaIterator"** %cell.addr, align 8, !dbg !12747
  %6 = bitcast %"class.dealii::TriaIterator"* %5 to %"class.dealii::TriaRawIterator"*, !dbg !12747
  %call4 = call %"class.dealii::DoFCellAccessor"* @_ZNK6dealii15TriaRawIteratorINS_15DoFCellAccessorINS_2hp10DoFHandlerILi3ELi3EEEEEEptEv(%"class.dealii::TriaRawIterator"* %6), !dbg !12747
  %call5 = call i32 @_ZNK6dealii15DoFCellAccessorINS_2hp10DoFHandlerILi3ELi3EEEE15active_fe_indexEv(%"class.dealii::DoFCellAccessor"* %call4), !dbg !12748
  store i32 %call5, i32* %real_q_index, align 4, !dbg !12749
  br label %if.end, !dbg !12750

if.else:                                          ; preds = %if.then
  store i32 0, i32* %real_q_index, align 4, !dbg !12751
  br label %if.end

if.end:                                           ; preds = %if.else, %if.then3
  br label %if.end6, !dbg !12752

if.end6:                                          ; preds = %if.end, %entry
  %7 = load i32, i32* %real_mapping_index, align 4, !dbg !12753
  %cmp7 = icmp eq i32 %7, -1, !dbg !12755
  br i1 %cmp7, label %if.then8, label %if.end17, !dbg !12756

if.then8:                                         ; preds = %if.end6
  %8 = bitcast %"class.dealii::hp::FESubfaceValues"* %this1 to %"class.dealii::internal::hp::FEValuesBase.148"*, !dbg !12757
  %mapping_collection = getelementptr inbounds %"class.dealii::internal::hp::FEValuesBase.148", %"class.dealii::internal::hp::FEValuesBase.148"* %8, i32 0, i32 1, !dbg !12757
  %call9 = call %"class.dealii::hp::MappingCollection"* @_ZNK6dealii12SmartPointerIKNS_2hp17MappingCollectionILi3ELi3EEEEptEv(%"class.dealii::SmartPointer.19"* %mapping_collection), !dbg !12760
  %call10 = call i32 @_ZNK6dealii2hp17MappingCollectionILi3ELi3EE4sizeEv(%"class.dealii::hp::MappingCollection"* %call9), !dbg !12761
  %cmp11 = icmp ugt i32 %call10, 1, !dbg !12762
  br i1 %cmp11, label %if.then12, label %if.else15, !dbg !12763

if.then12:                                        ; preds = %if.then8
  %9 = load %"class.dealii::TriaIterator"*, %"class.dealii::TriaIterator"** %cell.addr, align 8, !dbg !12764
  %10 = bitcast %"class.dealii::TriaIterator"* %9 to %"class.dealii::TriaRawIterator"*, !dbg !12764
  %call13 = call %"class.dealii::DoFCellAccessor"* @_ZNK6dealii15TriaRawIteratorINS_15DoFCellAccessorINS_2hp10DoFHandlerILi3ELi3EEEEEEptEv(%"class.dealii::TriaRawIterator"* %10), !dbg !12764
  %call14 = call i32 @_ZNK6dealii15DoFCellAccessorINS_2hp10DoFHandlerILi3ELi3EEEE15active_fe_indexEv(%"class.dealii::DoFCellAccessor"* %call13), !dbg !12765
  store i32 %call14, i32* %real_mapping_index, align 4, !dbg !12766
  br label %if.end16, !dbg !12767

if.else15:                                        ; preds = %if.then8
  store i32 0, i32* %real_mapping_index, align 4, !dbg !12768
  br label %if.end16

if.end16:                                         ; preds = %if.else15, %if.then12
  br label %if.end17, !dbg !12769

if.end17:                                         ; preds = %if.end16, %if.end6
  %11 = load i32, i32* %real_fe_index, align 4, !dbg !12770
  %cmp18 = icmp eq i32 %11, -1, !dbg !12772
  br i1 %cmp18, label %if.then19, label %if.end22, !dbg !12773

if.then19:                                        ; preds = %if.end17
  %12 = load %"class.dealii::TriaIterator"*, %"class.dealii::TriaIterator"** %cell.addr, align 8, !dbg !12774
  %13 = bitcast %"class.dealii::TriaIterator"* %12 to %"class.dealii::TriaRawIterator"*, !dbg !12774
  %call20 = call %"class.dealii::DoFCellAccessor"* @_ZNK6dealii15TriaRawIteratorINS_15DoFCellAccessorINS_2hp10DoFHandlerILi3ELi3EEEEEEptEv(%"class.dealii::TriaRawIterator"* %13), !dbg !12774
  %call21 = call i32 @_ZNK6dealii15DoFCellAccessorINS_2hp10DoFHandlerILi3ELi3EEEE15active_fe_indexEv(%"class.dealii::DoFCellAccessor"* %call20), !dbg !12775
  store i32 %call21, i32* %real_fe_index, align 4, !dbg !12776
  br label %if.end22, !dbg !12777

if.end22:                                         ; preds = %if.then19, %if.end17
  %14 = bitcast %"class.dealii::hp::FESubfaceValues"* %this1 to %"class.dealii::internal::hp::FEValuesBase.148"*, !dbg !12778
  %15 = load i32, i32* %real_fe_index, align 4, !dbg !12779
  %16 = load i32, i32* %real_mapping_index, align 4, !dbg !12780
  %17 = load i32, i32* %real_q_index, align 4, !dbg !12781
  %call23 = call dereferenceable(784) %"class.dealii::FESubfaceValues"* @_ZN6dealii8internal2hp12FEValuesBaseILi3ELi2ENS_15FESubfaceValuesILi3ELi3EEEE16select_fe_valuesEjjj(%"class.dealii::internal::hp::FEValuesBase.148"* %14, i32 %15, i32 %16, i32 %17), !dbg !12778
  %18 = load %"class.dealii::TriaIterator"*, %"class.dealii::TriaIterator"** %cell.addr, align 8, !dbg !12782
  %19 = load i32, i32* %face_no.addr, align 4, !dbg !12783
  %20 = load i32, i32* %subface_no.addr, align 4, !dbg !12784
  call void @_ZN6dealii15FESubfaceValuesILi3ELi3EE6reinitERKNS_12TriaIteratorINS_15DoFCellAccessorINS_2hp10DoFHandlerILi3ELi3EEEEEEEjj(%"class.dealii::FESubfaceValues"* %call23, %"class.dealii::TriaIterator"* dereferenceable(24) %18, i32 %19, i32 %20), !dbg !12785
  ret void, !dbg !12786
}

declare dso_local void @_ZN6dealii15FESubfaceValuesILi3ELi3EE6reinitERKNS_12TriaIteratorINS_15DoFCellAccessorINS_2hp10DoFHandlerILi3ELi3EEEEEEEjj(%"class.dealii::FESubfaceValues"*, %"class.dealii::TriaIterator"* dereferenceable(24), i32, i32) #2

; Function Attrs: noinline uwtable
define weak_odr dso_local void @_ZN6dealii2hp15FESubfaceValuesILi3EE6reinitERKNS_12TriaIteratorINS_15DoFCellAccessorINS_10DoFHandlerILi3ELi3EEEEEEEjjjjj(%"class.dealii::hp::FESubfaceValues"* %this, %"class.dealii::TriaIterator.244"* dereferenceable(24) %cell, i32 %face_no, i32 %subface_no, i32 %q_index, i32 %mapping_index, i32 %fe_index) #0 comdat align 2 !dbg !12787 {
entry:
  %this.addr = alloca %"class.dealii::hp::FESubfaceValues"*, align 8
  %cell.addr = alloca %"class.dealii::TriaIterator.244"*, align 8
  %face_no.addr = alloca i32, align 4
  %subface_no.addr = alloca i32, align 4
  %q_index.addr = alloca i32, align 4
  %mapping_index.addr = alloca i32, align 4
  %fe_index.addr = alloca i32, align 4
  %real_q_index = alloca i32, align 4
  %real_mapping_index = alloca i32, align 4
  %real_fe_index = alloca i32, align 4
  store %"class.dealii::hp::FESubfaceValues"* %this, %"class.dealii::hp::FESubfaceValues"** %this.addr, align 8
  call void @llvm.dbg.declare(metadata %"class.dealii::hp::FESubfaceValues"** %this.addr, metadata !12788, metadata !DIExpression()), !dbg !12789
  store %"class.dealii::TriaIterator.244"* %cell, %"class.dealii::TriaIterator.244"** %cell.addr, align 8
  call void @llvm.dbg.declare(metadata %"class.dealii::TriaIterator.244"** %cell.addr, metadata !12790, metadata !DIExpression()), !dbg !12791
  store i32 %face_no, i32* %face_no.addr, align 4
  call void @llvm.dbg.declare(metadata i32* %face_no.addr, metadata !12792, metadata !DIExpression()), !dbg !12793
  store i32 %subface_no, i32* %subface_no.addr, align 4
  call void @llvm.dbg.declare(metadata i32* %subface_no.addr, metadata !12794, metadata !DIExpression()), !dbg !12795
  store i32 %q_index, i32* %q_index.addr, align 4
  call void @llvm.dbg.declare(metadata i32* %q_index.addr, metadata !12796, metadata !DIExpression()), !dbg !12797
  store i32 %mapping_index, i32* %mapping_index.addr, align 4
  call void @llvm.dbg.declare(metadata i32* %mapping_index.addr, metadata !12798, metadata !DIExpression()), !dbg !12799
  store i32 %fe_index, i32* %fe_index.addr, align 4
  call void @llvm.dbg.declare(metadata i32* %fe_index.addr, metadata !12800, metadata !DIExpression()), !dbg !12801
  %this1 = load %"class.dealii::hp::FESubfaceValues"*, %"class.dealii::hp::FESubfaceValues"** %this.addr, align 8
  call void @llvm.dbg.declare(metadata i32* %real_q_index, metadata !12802, metadata !DIExpression()), !dbg !12803
  %0 = load i32, i32* %q_index.addr, align 4, !dbg !12804
  store i32 %0, i32* %real_q_index, align 4, !dbg !12803
  call void @llvm.dbg.declare(metadata i32* %real_mapping_index, metadata !12805, metadata !DIExpression()), !dbg !12806
  %1 = load i32, i32* %mapping_index.addr, align 4, !dbg !12807
  store i32 %1, i32* %real_mapping_index, align 4, !dbg !12806
  call void @llvm.dbg.declare(metadata i32* %real_fe_index, metadata !12808, metadata !DIExpression()), !dbg !12809
  %2 = load i32, i32* %fe_index.addr, align 4, !dbg !12810
  store i32 %2, i32* %real_fe_index, align 4, !dbg !12809
  %3 = load i32, i32* %real_q_index, align 4, !dbg !12811
  %cmp = icmp eq i32 %3, -1, !dbg !12813
  br i1 %cmp, label %if.then, label %if.end, !dbg !12814

if.then:                                          ; preds = %entry
  store i32 0, i32* %real_q_index, align 4, !dbg !12815
  br label %if.end, !dbg !12816

if.end:                                           ; preds = %if.then, %entry
  %4 = load i32, i32* %real_mapping_index, align 4, !dbg !12817
  %cmp2 = icmp eq i32 %4, -1, !dbg !12819
  br i1 %cmp2, label %if.then3, label %if.end4, !dbg !12820

if.then3:                                         ; preds = %if.end
  store i32 0, i32* %real_mapping_index, align 4, !dbg !12821
  br label %if.end4, !dbg !12822

if.end4:                                          ; preds = %if.then3, %if.end
  %5 = load i32, i32* %real_fe_index, align 4, !dbg !12823
  %cmp5 = icmp eq i32 %5, -1, !dbg !12825
  br i1 %cmp5, label %if.then6, label %if.end7, !dbg !12826

if.then6:                                         ; preds = %if.end4
  store i32 0, i32* %real_fe_index, align 4, !dbg !12827
  br label %if.end7, !dbg !12828

if.end7:                                          ; preds = %if.then6, %if.end4
  %6 = bitcast %"class.dealii::hp::FESubfaceValues"* %this1 to %"class.dealii::internal::hp::FEValuesBase.148"*, !dbg !12829
  %7 = load i32, i32* %real_fe_index, align 4, !dbg !12830
  %8 = load i32, i32* %real_mapping_index, align 4, !dbg !12831
  %9 = load i32, i32* %real_q_index, align 4, !dbg !12832
  %call = call dereferenceable(784) %"class.dealii::FESubfaceValues"* @_ZN6dealii8internal2hp12FEValuesBaseILi3ELi2ENS_15FESubfaceValuesILi3ELi3EEEE16select_fe_valuesEjjj(%"class.dealii::internal::hp::FEValuesBase.148"* %6, i32 %7, i32 %8, i32 %9), !dbg !12829
  %10 = load %"class.dealii::TriaIterator.244"*, %"class.dealii::TriaIterator.244"** %cell.addr, align 8, !dbg !12833
  %11 = load i32, i32* %face_no.addr, align 4, !dbg !12834
  %12 = load i32, i32* %subface_no.addr, align 4, !dbg !12835
  call void @_ZN6dealii15FESubfaceValuesILi3ELi3EE6reinitERKNS_12TriaIteratorINS_15DoFCellAccessorINS_10DoFHandlerILi3ELi3EEEEEEEjj(%"class.dealii::FESubfaceValues"* %call, %"class.dealii::TriaIterator.244"* dereferenceable(24) %10, i32 %11, i32 %12), !dbg !12836
  ret void, !dbg !12837
}

declare dso_local void @_ZN6dealii15FESubfaceValuesILi3ELi3EE6reinitERKNS_12TriaIteratorINS_15DoFCellAccessorINS_10DoFHandlerILi3ELi3EEEEEEEjj(%"class.dealii::FESubfaceValues"*, %"class.dealii::TriaIterator.244"* dereferenceable(24), i32, i32) #2

; Function Attrs: noinline uwtable
define weak_odr dso_local void @_ZN6dealii2hp15FESubfaceValuesILi3EE6reinitERKNS_12TriaIteratorINS_17MGDoFCellAccessorILi3ELi3EEEEEjjjjj(%"class.dealii::hp::FESubfaceValues"* %this, %"class.dealii::TriaIterator.257"* dereferenceable(32) %cell, i32 %face_no, i32 %subface_no, i32 %q_index, i32 %mapping_index, i32 %fe_index) #0 comdat align 2 !dbg !12838 {
entry:
  %this.addr = alloca %"class.dealii::hp::FESubfaceValues"*, align 8
  %cell.addr = alloca %"class.dealii::TriaIterator.257"*, align 8
  %face_no.addr = alloca i32, align 4
  %subface_no.addr = alloca i32, align 4
  %q_index.addr = alloca i32, align 4
  %mapping_index.addr = alloca i32, align 4
  %fe_index.addr = alloca i32, align 4
  %real_q_index = alloca i32, align 4
  %real_mapping_index = alloca i32, align 4
  %real_fe_index = alloca i32, align 4
  store %"class.dealii::hp::FESubfaceValues"* %this, %"class.dealii::hp::FESubfaceValues"** %this.addr, align 8
  call void @llvm.dbg.declare(metadata %"class.dealii::hp::FESubfaceValues"** %this.addr, metadata !12839, metadata !DIExpression()), !dbg !12840
  store %"class.dealii::TriaIterator.257"* %cell, %"class.dealii::TriaIterator.257"** %cell.addr, align 8
  call void @llvm.dbg.declare(metadata %"class.dealii::TriaIterator.257"** %cell.addr, metadata !12841, metadata !DIExpression()), !dbg !12842
  store i32 %face_no, i32* %face_no.addr, align 4
  call void @llvm.dbg.declare(metadata i32* %face_no.addr, metadata !12843, metadata !DIExpression()), !dbg !12844
  store i32 %subface_no, i32* %subface_no.addr, align 4
  call void @llvm.dbg.declare(metadata i32* %subface_no.addr, metadata !12845, metadata !DIExpression()), !dbg !12846
  store i32 %q_index, i32* %q_index.addr, align 4
  call void @llvm.dbg.declare(metadata i32* %q_index.addr, metadata !12847, metadata !DIExpression()), !dbg !12848
  store i32 %mapping_index, i32* %mapping_index.addr, align 4
  call void @llvm.dbg.declare(metadata i32* %mapping_index.addr, metadata !12849, metadata !DIExpression()), !dbg !12850
  store i32 %fe_index, i32* %fe_index.addr, align 4
  call void @llvm.dbg.declare(metadata i32* %fe_index.addr, metadata !12851, metadata !DIExpression()), !dbg !12852
  %this1 = load %"class.dealii::hp::FESubfaceValues"*, %"class.dealii::hp::FESubfaceValues"** %this.addr, align 8
  call void @llvm.dbg.declare(metadata i32* %real_q_index, metadata !12853, metadata !DIExpression()), !dbg !12854
  %0 = load i32, i32* %q_index.addr, align 4, !dbg !12855
  store i32 %0, i32* %real_q_index, align 4, !dbg !12854
  call void @llvm.dbg.declare(metadata i32* %real_mapping_index, metadata !12856, metadata !DIExpression()), !dbg !12857
  %1 = load i32, i32* %mapping_index.addr, align 4, !dbg !12858
  store i32 %1, i32* %real_mapping_index, align 4, !dbg !12857
  call void @llvm.dbg.declare(metadata i32* %real_fe_index, metadata !12859, metadata !DIExpression()), !dbg !12860
  %2 = load i32, i32* %fe_index.addr, align 4, !dbg !12861
  store i32 %2, i32* %real_fe_index, align 4, !dbg !12860
  %3 = load i32, i32* %real_q_index, align 4, !dbg !12862
  %cmp = icmp eq i32 %3, -1, !dbg !12864
  br i1 %cmp, label %if.then, label %if.end, !dbg !12865

if.then:                                          ; preds = %entry
  store i32 0, i32* %real_q_index, align 4, !dbg !12866
  br label %if.end, !dbg !12867

if.end:                                           ; preds = %if.then, %entry
  %4 = load i32, i32* %real_mapping_index, align 4, !dbg !12868
  %cmp2 = icmp eq i32 %4, -1, !dbg !12870
  br i1 %cmp2, label %if.then3, label %if.end4, !dbg !12871

if.then3:                                         ; preds = %if.end
  store i32 0, i32* %real_mapping_index, align 4, !dbg !12872
  br label %if.end4, !dbg !12873

if.end4:                                          ; preds = %if.then3, %if.end
  %5 = load i32, i32* %real_fe_index, align 4, !dbg !12874
  %cmp5 = icmp eq i32 %5, -1, !dbg !12876
  br i1 %cmp5, label %if.then6, label %if.end7, !dbg !12877

if.then6:                                         ; preds = %if.end4
  store i32 0, i32* %real_fe_index, align 4, !dbg !12878
  br label %if.end7, !dbg !12879

if.end7:                                          ; preds = %if.then6, %if.end4
  %6 = bitcast %"class.dealii::hp::FESubfaceValues"* %this1 to %"class.dealii::internal::hp::FEValuesBase.148"*, !dbg !12880
  %7 = load i32, i32* %real_fe_index, align 4, !dbg !12881
  %8 = load i32, i32* %real_mapping_index, align 4, !dbg !12882
  %9 = load i32, i32* %real_q_index, align 4, !dbg !12883
  %call = call dereferenceable(784) %"class.dealii::FESubfaceValues"* @_ZN6dealii8internal2hp12FEValuesBaseILi3ELi2ENS_15FESubfaceValuesILi3ELi3EEEE16select_fe_valuesEjjj(%"class.dealii::internal::hp::FEValuesBase.148"* %6, i32 %7, i32 %8, i32 %9), !dbg !12880
  %10 = load %"class.dealii::TriaIterator.257"*, %"class.dealii::TriaIterator.257"** %cell.addr, align 8, !dbg !12884
  %11 = load i32, i32* %face_no.addr, align 4, !dbg !12885
  %12 = load i32, i32* %subface_no.addr, align 4, !dbg !12886
  call void @_ZN6dealii15FESubfaceValuesILi3ELi3EE6reinitERKNS_12TriaIteratorINS_17MGDoFCellAccessorILi3ELi3EEEEEjj(%"class.dealii::FESubfaceValues"* %call, %"class.dealii::TriaIterator.257"* dereferenceable(32) %10, i32 %11, i32 %12), !dbg !12887
  ret void, !dbg !12888
}

declare dso_local void @_ZN6dealii15FESubfaceValuesILi3ELi3EE6reinitERKNS_12TriaIteratorINS_17MGDoFCellAccessorILi3ELi3EEEEEjj(%"class.dealii::FESubfaceValues"*, %"class.dealii::TriaIterator.257"* dereferenceable(32), i32, i32) #2

; Function Attrs: noinline uwtable
define weak_odr dso_local void @_ZN6dealii2hp15FESubfaceValuesILi3EE6reinitERKNS_12TriaIteratorINS_12CellAccessorILi3ELi3EEEEEjjjjj(%"class.dealii::hp::FESubfaceValues"* %this, %"class.dealii::TriaIterator.265"* dereferenceable(16) %cell, i32 %face_no, i32 %subface_no, i32 %q_index, i32 %mapping_index, i32 %fe_index) #0 comdat align 2 !dbg !12889 {
entry:
  %this.addr = alloca %"class.dealii::hp::FESubfaceValues"*, align 8
  %cell.addr = alloca %"class.dealii::TriaIterator.265"*, align 8
  %face_no.addr = alloca i32, align 4
  %subface_no.addr = alloca i32, align 4
  %q_index.addr = alloca i32, align 4
  %mapping_index.addr = alloca i32, align 4
  %fe_index.addr = alloca i32, align 4
  %real_q_index = alloca i32, align 4
  %real_mapping_index = alloca i32, align 4
  %real_fe_index = alloca i32, align 4
  store %"class.dealii::hp::FESubfaceValues"* %this, %"class.dealii::hp::FESubfaceValues"** %this.addr, align 8
  call void @llvm.dbg.declare(metadata %"class.dealii::hp::FESubfaceValues"** %this.addr, metadata !12890, metadata !DIExpression()), !dbg !12891
  store %"class.dealii::TriaIterator.265"* %cell, %"class.dealii::TriaIterator.265"** %cell.addr, align 8
  call void @llvm.dbg.declare(metadata %"class.dealii::TriaIterator.265"** %cell.addr, metadata !12892, metadata !DIExpression()), !dbg !12893
  store i32 %face_no, i32* %face_no.addr, align 4
  call void @llvm.dbg.declare(metadata i32* %face_no.addr, metadata !12894, metadata !DIExpression()), !dbg !12895
  store i32 %subface_no, i32* %subface_no.addr, align 4
  call void @llvm.dbg.declare(metadata i32* %subface_no.addr, metadata !12896, metadata !DIExpression()), !dbg !12897
  store i32 %q_index, i32* %q_index.addr, align 4
  call void @llvm.dbg.declare(metadata i32* %q_index.addr, metadata !12898, metadata !DIExpression()), !dbg !12899
  store i32 %mapping_index, i32* %mapping_index.addr, align 4
  call void @llvm.dbg.declare(metadata i32* %mapping_index.addr, metadata !12900, metadata !DIExpression()), !dbg !12901
  store i32 %fe_index, i32* %fe_index.addr, align 4
  call void @llvm.dbg.declare(metadata i32* %fe_index.addr, metadata !12902, metadata !DIExpression()), !dbg !12903
  %this1 = load %"class.dealii::hp::FESubfaceValues"*, %"class.dealii::hp::FESubfaceValues"** %this.addr, align 8
  call void @llvm.dbg.declare(metadata i32* %real_q_index, metadata !12904, metadata !DIExpression()), !dbg !12905
  %0 = load i32, i32* %q_index.addr, align 4, !dbg !12906
  store i32 %0, i32* %real_q_index, align 4, !dbg !12905
  call void @llvm.dbg.declare(metadata i32* %real_mapping_index, metadata !12907, metadata !DIExpression()), !dbg !12908
  %1 = load i32, i32* %mapping_index.addr, align 4, !dbg !12909
  store i32 %1, i32* %real_mapping_index, align 4, !dbg !12908
  call void @llvm.dbg.declare(metadata i32* %real_fe_index, metadata !12910, metadata !DIExpression()), !dbg !12911
  %2 = load i32, i32* %fe_index.addr, align 4, !dbg !12912
  store i32 %2, i32* %real_fe_index, align 4, !dbg !12911
  %3 = load i32, i32* %real_q_index, align 4, !dbg !12913
  %cmp = icmp eq i32 %3, -1, !dbg !12915
  br i1 %cmp, label %if.then, label %if.end, !dbg !12916

if.then:                                          ; preds = %entry
  store i32 0, i32* %real_q_index, align 4, !dbg !12917
  br label %if.end, !dbg !12918

if.end:                                           ; preds = %if.then, %entry
  %4 = load i32, i32* %real_mapping_index, align 4, !dbg !12919
  %cmp2 = icmp eq i32 %4, -1, !dbg !12921
  br i1 %cmp2, label %if.then3, label %if.end4, !dbg !12922

if.then3:                                         ; preds = %if.end
  store i32 0, i32* %real_mapping_index, align 4, !dbg !12923
  br label %if.end4, !dbg !12924

if.end4:                                          ; preds = %if.then3, %if.end
  %5 = load i32, i32* %real_fe_index, align 4, !dbg !12925
  %cmp5 = icmp eq i32 %5, -1, !dbg !12927
  br i1 %cmp5, label %if.then6, label %if.end7, !dbg !12928

if.then6:                                         ; preds = %if.end4
  store i32 0, i32* %real_fe_index, align 4, !dbg !12929
  br label %if.end7, !dbg !12930

if.end7:                                          ; preds = %if.then6, %if.end4
  %6 = bitcast %"class.dealii::hp::FESubfaceValues"* %this1 to %"class.dealii::internal::hp::FEValuesBase.148"*, !dbg !12931
  %7 = load i32, i32* %real_fe_index, align 4, !dbg !12932
  %8 = load i32, i32* %real_mapping_index, align 4, !dbg !12933
  %9 = load i32, i32* %real_q_index, align 4, !dbg !12934
  %call = call dereferenceable(784) %"class.dealii::FESubfaceValues"* @_ZN6dealii8internal2hp12FEValuesBaseILi3ELi2ENS_15FESubfaceValuesILi3ELi3EEEE16select_fe_valuesEjjj(%"class.dealii::internal::hp::FEValuesBase.148"* %6, i32 %7, i32 %8, i32 %9), !dbg !12931
  %10 = load %"class.dealii::TriaIterator.265"*, %"class.dealii::TriaIterator.265"** %cell.addr, align 8, !dbg !12935
  %11 = load i32, i32* %face_no.addr, align 4, !dbg !12936
  %12 = load i32, i32* %subface_no.addr, align 4, !dbg !12937
  call void @_ZN6dealii15FESubfaceValuesILi3ELi3EE6reinitERKNS_12TriaIteratorINS_12CellAccessorILi3ELi3EEEEEjj(%"class.dealii::FESubfaceValues"* %call, %"class.dealii::TriaIterator.265"* dereferenceable(16) %10, i32 %11, i32 %12), !dbg !12938
  ret void, !dbg !12939
}

declare dso_local void @_ZN6dealii15FESubfaceValuesILi3ELi3EE6reinitERKNS_12TriaIteratorINS_12CellAccessorILi3ELi3EEEEEjj(%"class.dealii::FESubfaceValues"*, %"class.dealii::TriaIterator.265"* dereferenceable(16), i32, i32) #2

; Function Attrs: nobuiltin nounwind
declare dso_local void @_ZdaPv(i8*) #8

; Function Attrs: nounwind
declare dso_local void @_ZN6dealii11SubscriptorD2Ev(%"class.dealii::Subscriptor"*) unnamed_addr #3

; Function Attrs: noinline nounwind uwtable
define linkonce_odr dso_local void @_ZN6dealii9TableBaseILi3EN5boost10shared_ptrINS_8FEValuesILi3ELi3EEEEEED2Ev(%"class.dealii::TableBase"* %this) unnamed_addr #1 comdat align 2 !dbg !12940 {
entry:
  %this.addr = alloca %"class.dealii::TableBase"*, align 8
  store %"class.dealii::TableBase"* %this, %"class.dealii::TableBase"** %this.addr, align 8
  call void @llvm.dbg.declare(metadata %"class.dealii::TableBase"** %this.addr, metadata !12941, metadata !DIExpression()), !dbg !12943
  %this1 = load %"class.dealii::TableBase"*, %"class.dealii::TableBase"** %this.addr, align 8
  %0 = bitcast %"class.dealii::TableBase"* %this1 to i32 (...)***, !dbg !12944
  store i32 (...)** bitcast (i8** getelementptr inbounds ({ [4 x i8*] }, { [4 x i8*] }* @_ZTVN6dealii9TableBaseILi3EN5boost10shared_ptrINS_8FEValuesILi3ELi3EEEEEEE, i32 0, inrange i32 0, i32 2) to i32 (...)**), i32 (...)*** %0, align 8, !dbg !12944
  %val = getelementptr inbounds %"class.dealii::TableBase", %"class.dealii::TableBase"* %this1, i32 0, i32 1, !dbg !12945
  %1 = load %"class.boost::shared_ptr.32"*, %"class.boost::shared_ptr.32"** %val, align 8, !dbg !12945
  %cmp = icmp ne %"class.boost::shared_ptr.32"* %1, null, !dbg !12948
  br i1 %cmp, label %if.then, label %if.end, !dbg !12949

if.then:                                          ; preds = %entry
  %val2 = getelementptr inbounds %"class.dealii::TableBase", %"class.dealii::TableBase"* %this1, i32 0, i32 1, !dbg !12950
  %2 = load %"class.boost::shared_ptr.32"*, %"class.boost::shared_ptr.32"** %val2, align 8, !dbg !12950
  %isnull = icmp eq %"class.boost::shared_ptr.32"* %2, null, !dbg !12951
  br i1 %isnull, label %delete.end4, label %delete.notnull, !dbg !12951

delete.notnull:                                   ; preds = %if.then
  %3 = bitcast %"class.boost::shared_ptr.32"* %2 to i8*, !dbg !12951
  %4 = getelementptr inbounds i8, i8* %3, i64 -8, !dbg !12951
  %5 = bitcast i8* %4 to i64*, !dbg !12951
  %6 = load i64, i64* %5, align 8, !dbg !12951
  %delete.end = getelementptr inbounds %"class.boost::shared_ptr.32", %"class.boost::shared_ptr.32"* %2, i64 %6, !dbg !12951
  %arraydestroy.isempty = icmp eq %"class.boost::shared_ptr.32"* %2, %delete.end, !dbg !12951
  br i1 %arraydestroy.isempty, label %arraydestroy.done3, label %arraydestroy.body, !dbg !12951

arraydestroy.body:                                ; preds = %arraydestroy.body, %delete.notnull
  %arraydestroy.elementPast = phi %"class.boost::shared_ptr.32"* [ %delete.end, %delete.notnull ], [ %arraydestroy.element, %arraydestroy.body ], !dbg !12951
  %arraydestroy.element = getelementptr inbounds %"class.boost::shared_ptr.32", %"class.boost::shared_ptr.32"* %arraydestroy.elementPast, i64 -1, !dbg !12951
  call void @_ZN5boost10shared_ptrIN6dealii8FEValuesILi3ELi3EEEED2Ev(%"class.boost::shared_ptr.32"* %arraydestroy.element) #4, !dbg !12951
  %arraydestroy.done = icmp eq %"class.boost::shared_ptr.32"* %arraydestroy.element, %2, !dbg !12951
  br i1 %arraydestroy.done, label %arraydestroy.done3, label %arraydestroy.body, !dbg !12951

arraydestroy.done3:                               ; preds = %arraydestroy.body, %delete.notnull
  call void @_ZdaPv(i8* %4) #14, !dbg !12951
  br label %delete.end4, !dbg !12951

delete.end4:                                      ; preds = %arraydestroy.done3, %if.then
  br label %if.end, !dbg !12951

if.end:                                           ; preds = %delete.end4, %entry
  %7 = bitcast %"class.dealii::TableBase"* %this1 to %"class.dealii::Subscriptor"*, !dbg !12952
  call void @_ZN6dealii11SubscriptorD2Ev(%"class.dealii::Subscriptor"* %7) #4, !dbg !12952
  ret void, !dbg !12953
}

; Function Attrs: noinline nounwind uwtable
define linkonce_odr dso_local void @_ZN6dealii9TableBaseILi3EN5boost10shared_ptrINS_8FEValuesILi3ELi3EEEEEED0Ev(%"class.dealii::TableBase"* %this) unnamed_addr #1 comdat align 2 !dbg !12954 {
entry:
  %this.addr = alloca %"class.dealii::TableBase"*, align 8
  store %"class.dealii::TableBase"* %this, %"class.dealii::TableBase"** %this.addr, align 8
  call void @llvm.dbg.declare(metadata %"class.dealii::TableBase"** %this.addr, metadata !12955, metadata !DIExpression()), !dbg !12956
  %this1 = load %"class.dealii::TableBase"*, %"class.dealii::TableBase"** %this.addr, align 8
  call void @_ZN6dealii9TableBaseILi3EN5boost10shared_ptrINS_8FEValuesILi3ELi3EEEEEED2Ev(%"class.dealii::TableBase"* %this1) #4, !dbg !12957
  %0 = bitcast %"class.dealii::TableBase"* %this1 to i8*, !dbg !12957
  call void @_ZdlPv(i8* %0) #14, !dbg !12957
  ret void, !dbg !12958
}

; Function Attrs: noinline nounwind uwtable
define linkonce_odr dso_local void @_ZNSt6vectorIN5boost10shared_ptrIKN6dealii10QuadratureILi3EEEEESaIS6_EED2Ev(%"class.std::vector.26"* %this) unnamed_addr #1 comdat align 2 personality i8* bitcast (i32 (...)* @__gxx_personality_v0 to i8*) !dbg !12959 {
entry:
  %this.addr = alloca %"class.std::vector.26"*, align 8
  %exn.slot = alloca i8*
  %ehselector.slot = alloca i32
  store %"class.std::vector.26"* %this, %"class.std::vector.26"** %this.addr, align 8
  call void @llvm.dbg.declare(metadata %"class.std::vector.26"** %this.addr, metadata !12960, metadata !DIExpression()), !dbg !12962
  %this1 = load %"class.std::vector.26"*, %"class.std::vector.26"** %this.addr, align 8
  %0 = bitcast %"class.std::vector.26"* %this1 to %"struct.std::_Vector_base.27"*, !dbg !12963
  %_M_impl = getelementptr inbounds %"struct.std::_Vector_base.27", %"struct.std::_Vector_base.27"* %0, i32 0, i32 0, !dbg !12963
  %1 = bitcast %"struct.std::_Vector_base<boost::shared_ptr<const dealii::Quadrature<3> >, std::allocator<boost::shared_ptr<const dealii::Quadrature<3> > > >::_Vector_impl"* %_M_impl to %"struct.std::_Vector_base<boost::shared_ptr<const dealii::Quadrature<3> >, std::allocator<boost::shared_ptr<const dealii::Quadrature<3> > > >::_Vector_impl_data"*, !dbg !12965
  %_M_start = getelementptr inbounds %"struct.std::_Vector_base<boost::shared_ptr<const dealii::Quadrature<3> >, std::allocator<boost::shared_ptr<const dealii::Quadrature<3> > > >::_Vector_impl_data", %"struct.std::_Vector_base<boost::shared_ptr<const dealii::Quadrature<3> >, std::allocator<boost::shared_ptr<const dealii::Quadrature<3> > > >::_Vector_impl_data"* %1, i32 0, i32 0, !dbg !12966
  %2 = load %"class.boost::shared_ptr.31"*, %"class.boost::shared_ptr.31"** %_M_start, align 8, !dbg !12966
  %3 = bitcast %"class.std::vector.26"* %this1 to %"struct.std::_Vector_base.27"*, !dbg !12967
  %_M_impl2 = getelementptr inbounds %"struct.std::_Vector_base.27", %"struct.std::_Vector_base.27"* %3, i32 0, i32 0, !dbg !12967
  %4 = bitcast %"struct.std::_Vector_base<boost::shared_ptr<const dealii::Quadrature<3> >, std::allocator<boost::shared_ptr<const dealii::Quadrature<3> > > >::_Vector_impl"* %_M_impl2 to %"struct.std::_Vector_base<boost::shared_ptr<const dealii::Quadrature<3> >, std::allocator<boost::shared_ptr<const dealii::Quadrature<3> > > >::_Vector_impl_data"*, !dbg !12968
  %_M_finish = getelementptr inbounds %"struct.std::_Vector_base<boost::shared_ptr<const dealii::Quadrature<3> >, std::allocator<boost::shared_ptr<const dealii::Quadrature<3> > > >::_Vector_impl_data", %"struct.std::_Vector_base<boost::shared_ptr<const dealii::Quadrature<3> >, std::allocator<boost::shared_ptr<const dealii::Quadrature<3> > > >::_Vector_impl_data"* %4, i32 0, i32 1, !dbg !12969
  %5 = load %"class.boost::shared_ptr.31"*, %"class.boost::shared_ptr.31"** %_M_finish, align 8, !dbg !12969
  %6 = bitcast %"class.std::vector.26"* %this1 to %"struct.std::_Vector_base.27"*, !dbg !12970
  %call = call dereferenceable(1) %"class.std::allocator.28"* @_ZNSt12_Vector_baseIN5boost10shared_ptrIKN6dealii10QuadratureILi3EEEEESaIS6_EE19_M_get_Tp_allocatorEv(%"struct.std::_Vector_base.27"* %6) #4, !dbg !12970
  invoke void @_ZSt8_DestroyIPN5boost10shared_ptrIKN6dealii10QuadratureILi3EEEEES6_EvT_S8_RSaIT0_E(%"class.boost::shared_ptr.31"* %2, %"class.boost::shared_ptr.31"* %5, %"class.std::allocator.28"* dereferenceable(1) %call)
          to label %invoke.cont unwind label %lpad, !dbg !12971

invoke.cont:                                      ; preds = %entry
  %7 = bitcast %"class.std::vector.26"* %this1 to %"struct.std::_Vector_base.27"*, !dbg !12972
  call void @_ZNSt12_Vector_baseIN5boost10shared_ptrIKN6dealii10QuadratureILi3EEEEESaIS6_EED2Ev(%"struct.std::_Vector_base.27"* %7) #4, !dbg !12972
  ret void, !dbg !12973

lpad:                                             ; preds = %entry
  %8 = landingpad { i8*, i32 }
          catch i8* null, !dbg !12972
  %9 = extractvalue { i8*, i32 } %8, 0, !dbg !12972
  store i8* %9, i8** %exn.slot, align 8, !dbg !12972
  %10 = extractvalue { i8*, i32 } %8, 1, !dbg !12972
  store i32 %10, i32* %ehselector.slot, align 4, !dbg !12972
  %11 = bitcast %"class.std::vector.26"* %this1 to %"struct.std::_Vector_base.27"*, !dbg !12972
  call void @_ZNSt12_Vector_baseIN5boost10shared_ptrIKN6dealii10QuadratureILi3EEEEESaIS6_EED2Ev(%"struct.std::_Vector_base.27"* %11) #4, !dbg !12972
  br label %terminate.handler, !dbg !12972

terminate.handler:                                ; preds = %lpad
  %exn = load i8*, i8** %exn.slot, align 8, !dbg !12972
  call void @__clang_call_terminate(i8* %exn) #12, !dbg !12972
  unreachable, !dbg !12972
}

; Function Attrs: noinline nounwind uwtable
define linkonce_odr dso_local void @_ZN6dealii2hp11QCollectionILi3EED0Ev(%"class.dealii::hp::QCollection"* %this) unnamed_addr #1 comdat align 2 !dbg !12974 {
entry:
  %this.addr = alloca %"class.dealii::hp::QCollection"*, align 8
  store %"class.dealii::hp::QCollection"* %this, %"class.dealii::hp::QCollection"** %this.addr, align 8
  call void @llvm.dbg.declare(metadata %"class.dealii::hp::QCollection"** %this.addr, metadata !12975, metadata !DIExpression()), !dbg !12976
  %this1 = load %"class.dealii::hp::QCollection"*, %"class.dealii::hp::QCollection"** %this.addr, align 8
  call void @_ZN6dealii2hp11QCollectionILi3EED2Ev(%"class.dealii::hp::QCollection"* %this1) #4, !dbg !12977
  %0 = bitcast %"class.dealii::hp::QCollection"* %this1 to i8*, !dbg !12977
  call void @_ZdlPv(i8* %0) #14, !dbg !12977
  ret void, !dbg !12977
}

; Function Attrs: noinline uwtable
define linkonce_odr dso_local void @_ZSt8_DestroyIPN5boost10shared_ptrIKN6dealii10QuadratureILi3EEEEES6_EvT_S8_RSaIT0_E(%"class.boost::shared_ptr.31"* %__first, %"class.boost::shared_ptr.31"* %__last, %"class.std::allocator.28"* dereferenceable(1) %0) #0 comdat !dbg !12978 {
entry:
  %__first.addr = alloca %"class.boost::shared_ptr.31"*, align 8
  %__last.addr = alloca %"class.boost::shared_ptr.31"*, align 8
  %.addr = alloca %"class.std::allocator.28"*, align 8
  store %"class.boost::shared_ptr.31"* %__first, %"class.boost::shared_ptr.31"** %__first.addr, align 8
  call void @llvm.dbg.declare(metadata %"class.boost::shared_ptr.31"** %__first.addr, metadata !12983, metadata !DIExpression()), !dbg !12984
  store %"class.boost::shared_ptr.31"* %__last, %"class.boost::shared_ptr.31"** %__last.addr, align 8
  call void @llvm.dbg.declare(metadata %"class.boost::shared_ptr.31"** %__last.addr, metadata !12985, metadata !DIExpression()), !dbg !12986
  store %"class.std::allocator.28"* %0, %"class.std::allocator.28"** %.addr, align 8
  call void @llvm.dbg.declare(metadata %"class.std::allocator.28"** %.addr, metadata !12987, metadata !DIExpression()), !dbg !12988
  %1 = load %"class.boost::shared_ptr.31"*, %"class.boost::shared_ptr.31"** %__first.addr, align 8, !dbg !12989
  %2 = load %"class.boost::shared_ptr.31"*, %"class.boost::shared_ptr.31"** %__last.addr, align 8, !dbg !12990
  call void @_ZSt8_DestroyIPN5boost10shared_ptrIKN6dealii10QuadratureILi3EEEEEEvT_S8_(%"class.boost::shared_ptr.31"* %1, %"class.boost::shared_ptr.31"* %2), !dbg !12991
  ret void, !dbg !12992
}

; Function Attrs: noinline nounwind uwtable
define linkonce_odr dso_local dereferenceable(1) %"class.std::allocator.28"* @_ZNSt12_Vector_baseIN5boost10shared_ptrIKN6dealii10QuadratureILi3EEEEESaIS6_EE19_M_get_Tp_allocatorEv(%"struct.std::_Vector_base.27"* %this) #1 comdat align 2 !dbg !12993 {
entry:
  %this.addr = alloca %"struct.std::_Vector_base.27"*, align 8
  store %"struct.std::_Vector_base.27"* %this, %"struct.std::_Vector_base.27"** %this.addr, align 8
  call void @llvm.dbg.declare(metadata %"struct.std::_Vector_base.27"** %this.addr, metadata !12994, metadata !DIExpression()), !dbg !12996
  %this1 = load %"struct.std::_Vector_base.27"*, %"struct.std::_Vector_base.27"** %this.addr, align 8
  %_M_impl = getelementptr inbounds %"struct.std::_Vector_base.27", %"struct.std::_Vector_base.27"* %this1, i32 0, i32 0, !dbg !12997
  %0 = bitcast %"struct.std::_Vector_base<boost::shared_ptr<const dealii::Quadrature<3> >, std::allocator<boost::shared_ptr<const dealii::Quadrature<3> > > >::_Vector_impl"* %_M_impl to %"class.std::allocator.28"*, !dbg !12998
  ret %"class.std::allocator.28"* %0, !dbg !12999
}

; Function Attrs: noinline nounwind uwtable
define linkonce_odr dso_local void @_ZNSt12_Vector_baseIN5boost10shared_ptrIKN6dealii10QuadratureILi3EEEEESaIS6_EED2Ev(%"struct.std::_Vector_base.27"* %this) unnamed_addr #1 comdat align 2 personality i8* bitcast (i32 (...)* @__gxx_personality_v0 to i8*) !dbg !13000 {
entry:
  %this.addr = alloca %"struct.std::_Vector_base.27"*, align 8
  %exn.slot = alloca i8*
  %ehselector.slot = alloca i32
  store %"struct.std::_Vector_base.27"* %this, %"struct.std::_Vector_base.27"** %this.addr, align 8
  call void @llvm.dbg.declare(metadata %"struct.std::_Vector_base.27"** %this.addr, metadata !13001, metadata !DIExpression()), !dbg !13002
  %this1 = load %"struct.std::_Vector_base.27"*, %"struct.std::_Vector_base.27"** %this.addr, align 8
  %_M_impl = getelementptr inbounds %"struct.std::_Vector_base.27", %"struct.std::_Vector_base.27"* %this1, i32 0, i32 0, !dbg !13003
  %0 = bitcast %"struct.std::_Vector_base<boost::shared_ptr<const dealii::Quadrature<3> >, std::allocator<boost::shared_ptr<const dealii::Quadrature<3> > > >::_Vector_impl"* %_M_impl to %"struct.std::_Vector_base<boost::shared_ptr<const dealii::Quadrature<3> >, std::allocator<boost::shared_ptr<const dealii::Quadrature<3> > > >::_Vector_impl_data"*, !dbg !13003
  %_M_start = getelementptr inbounds %"struct.std::_Vector_base<boost::shared_ptr<const dealii::Quadrature<3> >, std::allocator<boost::shared_ptr<const dealii::Quadrature<3> > > >::_Vector_impl_data", %"struct.std::_Vector_base<boost::shared_ptr<const dealii::Quadrature<3> >, std::allocator<boost::shared_ptr<const dealii::Quadrature<3> > > >::_Vector_impl_data"* %0, i32 0, i32 0, !dbg !13005
  %1 = load %"class.boost::shared_ptr.31"*, %"class.boost::shared_ptr.31"** %_M_start, align 8, !dbg !13005
  %_M_impl2 = getelementptr inbounds %"struct.std::_Vector_base.27", %"struct.std::_Vector_base.27"* %this1, i32 0, i32 0, !dbg !13006
  %2 = bitcast %"struct.std::_Vector_base<boost::shared_ptr<const dealii::Quadrature<3> >, std::allocator<boost::shared_ptr<const dealii::Quadrature<3> > > >::_Vector_impl"* %_M_impl2 to %"struct.std::_Vector_base<boost::shared_ptr<const dealii::Quadrature<3> >, std::allocator<boost::shared_ptr<const dealii::Quadrature<3> > > >::_Vector_impl_data"*, !dbg !13006
  %_M_end_of_storage = getelementptr inbounds %"struct.std::_Vector_base<boost::shared_ptr<const dealii::Quadrature<3> >, std::allocator<boost::shared_ptr<const dealii::Quadrature<3> > > >::_Vector_impl_data", %"struct.std::_Vector_base<boost::shared_ptr<const dealii::Quadrature<3> >, std::allocator<boost::shared_ptr<const dealii::Quadrature<3> > > >::_Vector_impl_data"* %2, i32 0, i32 2, !dbg !13007
  %3 = load %"class.boost::shared_ptr.31"*, %"class.boost::shared_ptr.31"** %_M_end_of_storage, align 8, !dbg !13007
  %_M_impl3 = getelementptr inbounds %"struct.std::_Vector_base.27", %"struct.std::_Vector_base.27"* %this1, i32 0, i32 0, !dbg !13008
  %4 = bitcast %"struct.std::_Vector_base<boost::shared_ptr<const dealii::Quadrature<3> >, std::allocator<boost::shared_ptr<const dealii::Quadrature<3> > > >::_Vector_impl"* %_M_impl3 to %"struct.std::_Vector_base<boost::shared_ptr<const dealii::Quadrature<3> >, std::allocator<boost::shared_ptr<const dealii::Quadrature<3> > > >::_Vector_impl_data"*, !dbg !13008
  %_M_start4 = getelementptr inbounds %"struct.std::_Vector_base<boost::shared_ptr<const dealii::Quadrature<3> >, std::allocator<boost::shared_ptr<const dealii::Quadrature<3> > > >::_Vector_impl_data", %"struct.std::_Vector_base<boost::shared_ptr<const dealii::Quadrature<3> >, std::allocator<boost::shared_ptr<const dealii::Quadrature<3> > > >::_Vector_impl_data"* %4, i32 0, i32 0, !dbg !13009
  %5 = load %"class.boost::shared_ptr.31"*, %"class.boost::shared_ptr.31"** %_M_start4, align 8, !dbg !13009
  %sub.ptr.lhs.cast = ptrtoint %"class.boost::shared_ptr.31"* %3 to i64, !dbg !13010
  %sub.ptr.rhs.cast = ptrtoint %"class.boost::shared_ptr.31"* %5 to i64, !dbg !13010
  %sub.ptr.sub = sub i64 %sub.ptr.lhs.cast, %sub.ptr.rhs.cast, !dbg !13010
  %sub.ptr.div = sdiv exact i64 %sub.ptr.sub, 16, !dbg !13010
  invoke void @_ZNSt12_Vector_baseIN5boost10shared_ptrIKN6dealii10QuadratureILi3EEEEESaIS6_EE13_M_deallocateEPS6_m(%"struct.std::_Vector_base.27"* %this1, %"class.boost::shared_ptr.31"* %1, i64 %sub.ptr.div)
          to label %invoke.cont unwind label %lpad, !dbg !13011

invoke.cont:                                      ; preds = %entry
  %_M_impl5 = getelementptr inbounds %"struct.std::_Vector_base.27", %"struct.std::_Vector_base.27"* %this1, i32 0, i32 0, !dbg !13012
  call void @_ZNSt12_Vector_baseIN5boost10shared_ptrIKN6dealii10QuadratureILi3EEEEESaIS6_EE12_Vector_implD2Ev(%"struct.std::_Vector_base<boost::shared_ptr<const dealii::Quadrature<3> >, std::allocator<boost::shared_ptr<const dealii::Quadrature<3> > > >::_Vector_impl"* %_M_impl5) #4, !dbg !13012
  ret void, !dbg !13013

lpad:                                             ; preds = %entry
  %6 = landingpad { i8*, i32 }
          catch i8* null, !dbg !13012
  %7 = extractvalue { i8*, i32 } %6, 0, !dbg !13012
  store i8* %7, i8** %exn.slot, align 8, !dbg !13012
  %8 = extractvalue { i8*, i32 } %6, 1, !dbg !13012
  store i32 %8, i32* %ehselector.slot, align 4, !dbg !13012
  %_M_impl6 = getelementptr inbounds %"struct.std::_Vector_base.27", %"struct.std::_Vector_base.27"* %this1, i32 0, i32 0, !dbg !13012
  call void @_ZNSt12_Vector_baseIN5boost10shared_ptrIKN6dealii10QuadratureILi3EEEEESaIS6_EE12_Vector_implD2Ev(%"struct.std::_Vector_base<boost::shared_ptr<const dealii::Quadrature<3> >, std::allocator<boost::shared_ptr<const dealii::Quadrature<3> > > >::_Vector_impl"* %_M_impl6) #4, !dbg !13012
  br label %terminate.handler, !dbg !13012

terminate.handler:                                ; preds = %lpad
  %exn = load i8*, i8** %exn.slot, align 8, !dbg !13012
  call void @__clang_call_terminate(i8* %exn) #12, !dbg !13012
  unreachable, !dbg !13012
}

; Function Attrs: noinline noreturn nounwind
define linkonce_odr hidden void @__clang_call_terminate(i8* %0) #9 comdat {
  %2 = call i8* @__cxa_begin_catch(i8* %0) #4
  call void @_ZSt9terminatev() #12
  unreachable
}

declare dso_local i8* @__cxa_begin_catch(i8*)

declare dso_local void @_ZSt9terminatev()

; Function Attrs: noinline uwtable
define linkonce_odr dso_local void @_ZSt8_DestroyIPN5boost10shared_ptrIKN6dealii10QuadratureILi3EEEEEEvT_S8_(%"class.boost::shared_ptr.31"* %__first, %"class.boost::shared_ptr.31"* %__last) #0 comdat !dbg !13014 {
entry:
  %__first.addr = alloca %"class.boost::shared_ptr.31"*, align 8
  %__last.addr = alloca %"class.boost::shared_ptr.31"*, align 8
  store %"class.boost::shared_ptr.31"* %__first, %"class.boost::shared_ptr.31"** %__first.addr, align 8
  call void @llvm.dbg.declare(metadata %"class.boost::shared_ptr.31"** %__first.addr, metadata !13019, metadata !DIExpression()), !dbg !13020
  store %"class.boost::shared_ptr.31"* %__last, %"class.boost::shared_ptr.31"** %__last.addr, align 8
  call void @llvm.dbg.declare(metadata %"class.boost::shared_ptr.31"** %__last.addr, metadata !13021, metadata !DIExpression()), !dbg !13022
  %0 = load %"class.boost::shared_ptr.31"*, %"class.boost::shared_ptr.31"** %__first.addr, align 8, !dbg !13023
  %1 = load %"class.boost::shared_ptr.31"*, %"class.boost::shared_ptr.31"** %__last.addr, align 8, !dbg !13024
  call void @_ZNSt12_Destroy_auxILb0EE9__destroyIPN5boost10shared_ptrIKN6dealii10QuadratureILi3EEEEEEEvT_SA_(%"class.boost::shared_ptr.31"* %0, %"class.boost::shared_ptr.31"* %1), !dbg !13025
  ret void, !dbg !13026
}

; Function Attrs: noinline uwtable
define linkonce_odr dso_local void @_ZNSt12_Destroy_auxILb0EE9__destroyIPN5boost10shared_ptrIKN6dealii10QuadratureILi3EEEEEEEvT_SA_(%"class.boost::shared_ptr.31"* %__first, %"class.boost::shared_ptr.31"* %__last) #0 comdat align 2 !dbg !13027 {
entry:
  %__first.addr = alloca %"class.boost::shared_ptr.31"*, align 8
  %__last.addr = alloca %"class.boost::shared_ptr.31"*, align 8
  store %"class.boost::shared_ptr.31"* %__first, %"class.boost::shared_ptr.31"** %__first.addr, align 8
  call void @llvm.dbg.declare(metadata %"class.boost::shared_ptr.31"** %__first.addr, metadata !13032, metadata !DIExpression()), !dbg !13033
  store %"class.boost::shared_ptr.31"* %__last, %"class.boost::shared_ptr.31"** %__last.addr, align 8
  call void @llvm.dbg.declare(metadata %"class.boost::shared_ptr.31"** %__last.addr, metadata !13034, metadata !DIExpression()), !dbg !13035
  br label %for.cond, !dbg !13036

for.cond:                                         ; preds = %for.inc, %entry
  %0 = load %"class.boost::shared_ptr.31"*, %"class.boost::shared_ptr.31"** %__first.addr, align 8, !dbg !13037
  %1 = load %"class.boost::shared_ptr.31"*, %"class.boost::shared_ptr.31"** %__last.addr, align 8, !dbg !13040
  %cmp = icmp ne %"class.boost::shared_ptr.31"* %0, %1, !dbg !13041
  br i1 %cmp, label %for.body, label %for.end, !dbg !13042

for.body:                                         ; preds = %for.cond
  %2 = load %"class.boost::shared_ptr.31"*, %"class.boost::shared_ptr.31"** %__first.addr, align 8, !dbg !13043
  %call = call %"class.boost::shared_ptr.31"* @_ZSt11__addressofIN5boost10shared_ptrIKN6dealii10QuadratureILi3EEEEEEPT_RS7_(%"class.boost::shared_ptr.31"* dereferenceable(16) %2) #4, !dbg !13044
  call void @_ZSt8_DestroyIN5boost10shared_ptrIKN6dealii10QuadratureILi3EEEEEEvPT_(%"class.boost::shared_ptr.31"* %call), !dbg !13045
  br label %for.inc, !dbg !13045

for.inc:                                          ; preds = %for.body
  %3 = load %"class.boost::shared_ptr.31"*, %"class.boost::shared_ptr.31"** %__first.addr, align 8, !dbg !13046
  %incdec.ptr = getelementptr inbounds %"class.boost::shared_ptr.31", %"class.boost::shared_ptr.31"* %3, i32 1, !dbg !13046
  store %"class.boost::shared_ptr.31"* %incdec.ptr, %"class.boost::shared_ptr.31"** %__first.addr, align 8, !dbg !13046
  br label %for.cond, !dbg !13047, !llvm.loop !13048

for.end:                                          ; preds = %for.cond
  ret void, !dbg !13050
}

; Function Attrs: noinline nounwind uwtable
define linkonce_odr dso_local void @_ZSt8_DestroyIN5boost10shared_ptrIKN6dealii10QuadratureILi3EEEEEEvPT_(%"class.boost::shared_ptr.31"* %__pointer) #1 comdat !dbg !13051 {
entry:
  %__pointer.addr = alloca %"class.boost::shared_ptr.31"*, align 8
  store %"class.boost::shared_ptr.31"* %__pointer, %"class.boost::shared_ptr.31"** %__pointer.addr, align 8
  call void @llvm.dbg.declare(metadata %"class.boost::shared_ptr.31"** %__pointer.addr, metadata !13054, metadata !DIExpression()), !dbg !13055
  %0 = load %"class.boost::shared_ptr.31"*, %"class.boost::shared_ptr.31"** %__pointer.addr, align 8, !dbg !13056
  call void @_ZN5boost10shared_ptrIKN6dealii10QuadratureILi3EEEED2Ev(%"class.boost::shared_ptr.31"* %0) #4, !dbg !13057
  ret void, !dbg !13058
}

; Function Attrs: noinline nounwind uwtable
define linkonce_odr dso_local %"class.boost::shared_ptr.31"* @_ZSt11__addressofIN5boost10shared_ptrIKN6dealii10QuadratureILi3EEEEEEPT_RS7_(%"class.boost::shared_ptr.31"* dereferenceable(16) %__r) #1 comdat !dbg !13059 {
entry:
  %__r.addr = alloca %"class.boost::shared_ptr.31"*, align 8
  store %"class.boost::shared_ptr.31"* %__r, %"class.boost::shared_ptr.31"** %__r.addr, align 8
  call void @llvm.dbg.declare(metadata %"class.boost::shared_ptr.31"** %__r.addr, metadata !13063, metadata !DIExpression()), !dbg !13064
  %0 = load %"class.boost::shared_ptr.31"*, %"class.boost::shared_ptr.31"** %__r.addr, align 8, !dbg !13065
  ret %"class.boost::shared_ptr.31"* %0, !dbg !13066
}

; Function Attrs: noinline nounwind uwtable
define linkonce_odr dso_local void @_ZN5boost10shared_ptrIKN6dealii10QuadratureILi3EEEED2Ev(%"class.boost::shared_ptr.31"* %this) unnamed_addr #1 comdat align 2 !dbg !13067 {
entry:
  %this.addr = alloca %"class.boost::shared_ptr.31"*, align 8
  store %"class.boost::shared_ptr.31"* %this, %"class.boost::shared_ptr.31"** %this.addr, align 8
  call void @llvm.dbg.declare(metadata %"class.boost::shared_ptr.31"** %this.addr, metadata !13069, metadata !DIExpression()), !dbg !13070
  %this1 = load %"class.boost::shared_ptr.31"*, %"class.boost::shared_ptr.31"** %this.addr, align 8
  %pn = getelementptr inbounds %"class.boost::shared_ptr.31", %"class.boost::shared_ptr.31"* %this1, i32 0, i32 1, !dbg !13071
  call void @_ZN5boost6detail12shared_countD2Ev(%"class.boost::detail::shared_count"* %pn) #4, !dbg !13071
  ret void, !dbg !13073
}

; Function Attrs: noinline nounwind uwtable
define linkonce_odr dso_local void @_ZN5boost6detail12shared_countD2Ev(%"class.boost::detail::shared_count"* %this) unnamed_addr #1 comdat align 2 personality i8* bitcast (i32 (...)* @__gxx_personality_v0 to i8*) !dbg !13074 {
entry:
  %this.addr = alloca %"class.boost::detail::shared_count"*, align 8
  store %"class.boost::detail::shared_count"* %this, %"class.boost::detail::shared_count"** %this.addr, align 8
  call void @llvm.dbg.declare(metadata %"class.boost::detail::shared_count"** %this.addr, metadata !13075, metadata !DIExpression()), !dbg !13077
  %this1 = load %"class.boost::detail::shared_count"*, %"class.boost::detail::shared_count"** %this.addr, align 8
  %pi_ = getelementptr inbounds %"class.boost::detail::shared_count", %"class.boost::detail::shared_count"* %this1, i32 0, i32 0, !dbg !13078
  %0 = load %"class.boost::detail::sp_counted_base"*, %"class.boost::detail::sp_counted_base"** %pi_, align 8, !dbg !13078
  %cmp = icmp ne %"class.boost::detail::sp_counted_base"* %0, null, !dbg !13081
  br i1 %cmp, label %if.then, label %if.end, !dbg !13082

if.then:                                          ; preds = %entry
  %pi_2 = getelementptr inbounds %"class.boost::detail::shared_count", %"class.boost::detail::shared_count"* %this1, i32 0, i32 0, !dbg !13083
  %1 = load %"class.boost::detail::sp_counted_base"*, %"class.boost::detail::sp_counted_base"** %pi_2, align 8, !dbg !13083
  invoke void @_ZN5boost6detail15sp_counted_base7releaseEv(%"class.boost::detail::sp_counted_base"* %1)
          to label %invoke.cont unwind label %terminate.lpad, !dbg !13084

invoke.cont:                                      ; preds = %if.then
  br label %if.end, !dbg !13083

if.end:                                           ; preds = %invoke.cont, %entry
  ret void, !dbg !13085

terminate.lpad:                                   ; preds = %if.then
  %2 = landingpad { i8*, i32 }
          catch i8* null, !dbg !13084
  %3 = extractvalue { i8*, i32 } %2, 0, !dbg !13084
  call void @__clang_call_terminate(i8* %3) #12, !dbg !13084
  unreachable, !dbg !13084
}

; Function Attrs: noinline uwtable
define linkonce_odr dso_local void @_ZN5boost6detail15sp_counted_base7releaseEv(%"class.boost::detail::sp_counted_base"* %this) #0 comdat align 2 !dbg !13086 {
entry:
  %this.addr = alloca %"class.boost::detail::sp_counted_base"*, align 8
  store %"class.boost::detail::sp_counted_base"* %this, %"class.boost::detail::sp_counted_base"** %this.addr, align 8
  call void @llvm.dbg.declare(metadata %"class.boost::detail::sp_counted_base"** %this.addr, metadata !13087, metadata !DIExpression()), !dbg !13088
  %this1 = load %"class.boost::detail::sp_counted_base"*, %"class.boost::detail::sp_counted_base"** %this.addr, align 8
  %use_count_ = getelementptr inbounds %"class.boost::detail::sp_counted_base", %"class.boost::detail::sp_counted_base"* %this1, i32 0, i32 1, !dbg !13089
  %0 = load i64, i64* %use_count_, align 8, !dbg !13091
  %dec = add nsw i64 %0, -1, !dbg !13091
  store i64 %dec, i64* %use_count_, align 8, !dbg !13091
  %cmp = icmp eq i64 %dec, 0, !dbg !13092
  br i1 %cmp, label %if.then, label %if.end, !dbg !13093

if.then:                                          ; preds = %entry
  %1 = bitcast %"class.boost::detail::sp_counted_base"* %this1 to void (%"class.boost::detail::sp_counted_base"*)***, !dbg !13094
  %vtable = load void (%"class.boost::detail::sp_counted_base"*)**, void (%"class.boost::detail::sp_counted_base"*)*** %1, align 8, !dbg !13094
  %vfn = getelementptr inbounds void (%"class.boost::detail::sp_counted_base"*)*, void (%"class.boost::detail::sp_counted_base"*)** %vtable, i64 2, !dbg !13094
  %2 = load void (%"class.boost::detail::sp_counted_base"*)*, void (%"class.boost::detail::sp_counted_base"*)** %vfn, align 8, !dbg !13094
  call void %2(%"class.boost::detail::sp_counted_base"* %this1), !dbg !13094
  call void @_ZN5boost6detail15sp_counted_base12weak_releaseEv(%"class.boost::detail::sp_counted_base"* %this1), !dbg !13096
  br label %if.end, !dbg !13097

if.end:                                           ; preds = %if.then, %entry
  ret void, !dbg !13098
}

; Function Attrs: noinline uwtable
define linkonce_odr dso_local void @_ZN5boost6detail15sp_counted_base12weak_releaseEv(%"class.boost::detail::sp_counted_base"* %this) #0 comdat align 2 !dbg !13099 {
entry:
  %this.addr = alloca %"class.boost::detail::sp_counted_base"*, align 8
  store %"class.boost::detail::sp_counted_base"* %this, %"class.boost::detail::sp_counted_base"** %this.addr, align 8
  call void @llvm.dbg.declare(metadata %"class.boost::detail::sp_counted_base"** %this.addr, metadata !13100, metadata !DIExpression()), !dbg !13101
  %this1 = load %"class.boost::detail::sp_counted_base"*, %"class.boost::detail::sp_counted_base"** %this.addr, align 8
  %weak_count_ = getelementptr inbounds %"class.boost::detail::sp_counted_base", %"class.boost::detail::sp_counted_base"* %this1, i32 0, i32 2, !dbg !13102
  %0 = load i64, i64* %weak_count_, align 8, !dbg !13104
  %dec = add nsw i64 %0, -1, !dbg !13104
  store i64 %dec, i64* %weak_count_, align 8, !dbg !13104
  %cmp = icmp eq i64 %dec, 0, !dbg !13105
  br i1 %cmp, label %if.then, label %if.end, !dbg !13106

if.then:                                          ; preds = %entry
  %1 = bitcast %"class.boost::detail::sp_counted_base"* %this1 to void (%"class.boost::detail::sp_counted_base"*)***, !dbg !13107
  %vtable = load void (%"class.boost::detail::sp_counted_base"*)**, void (%"class.boost::detail::sp_counted_base"*)*** %1, align 8, !dbg !13107
  %vfn = getelementptr inbounds void (%"class.boost::detail::sp_counted_base"*)*, void (%"class.boost::detail::sp_counted_base"*)** %vtable, i64 3, !dbg !13107
  %2 = load void (%"class.boost::detail::sp_counted_base"*)*, void (%"class.boost::detail::sp_counted_base"*)** %vfn, align 8, !dbg !13107
  call void %2(%"class.boost::detail::sp_counted_base"* %this1), !dbg !13107
  br label %if.end, !dbg !13109

if.end:                                           ; preds = %if.then, %entry
  ret void, !dbg !13110
}

; Function Attrs: noinline uwtable
define linkonce_odr dso_local void @_ZNSt12_Vector_baseIN5boost10shared_ptrIKN6dealii10QuadratureILi3EEEEESaIS6_EE13_M_deallocateEPS6_m(%"struct.std::_Vector_base.27"* %this, %"class.boost::shared_ptr.31"* %__p, i64 %__n) #0 comdat align 2 !dbg !13111 {
entry:
  %this.addr = alloca %"struct.std::_Vector_base.27"*, align 8
  %__p.addr = alloca %"class.boost::shared_ptr.31"*, align 8
  %__n.addr = alloca i64, align 8
  store %"struct.std::_Vector_base.27"* %this, %"struct.std::_Vector_base.27"** %this.addr, align 8
  call void @llvm.dbg.declare(metadata %"struct.std::_Vector_base.27"** %this.addr, metadata !13112, metadata !DIExpression()), !dbg !13113
  store %"class.boost::shared_ptr.31"* %__p, %"class.boost::shared_ptr.31"** %__p.addr, align 8
  call void @llvm.dbg.declare(metadata %"class.boost::shared_ptr.31"** %__p.addr, metadata !13114, metadata !DIExpression()), !dbg !13115
  store i64 %__n, i64* %__n.addr, align 8
  call void @llvm.dbg.declare(metadata i64* %__n.addr, metadata !13116, metadata !DIExpression()), !dbg !13117
  %this1 = load %"struct.std::_Vector_base.27"*, %"struct.std::_Vector_base.27"** %this.addr, align 8
  %0 = load %"class.boost::shared_ptr.31"*, %"class.boost::shared_ptr.31"** %__p.addr, align 8, !dbg !13118
  %tobool = icmp ne %"class.boost::shared_ptr.31"* %0, null, !dbg !13118
  br i1 %tobool, label %if.then, label %if.end, !dbg !13120

if.then:                                          ; preds = %entry
  %_M_impl = getelementptr inbounds %"struct.std::_Vector_base.27", %"struct.std::_Vector_base.27"* %this1, i32 0, i32 0, !dbg !13121
  %1 = bitcast %"struct.std::_Vector_base<boost::shared_ptr<const dealii::Quadrature<3> >, std::allocator<boost::shared_ptr<const dealii::Quadrature<3> > > >::_Vector_impl"* %_M_impl to %"class.std::allocator.28"*, !dbg !13121
  %2 = load %"class.boost::shared_ptr.31"*, %"class.boost::shared_ptr.31"** %__p.addr, align 8, !dbg !13122
  %3 = load i64, i64* %__n.addr, align 8, !dbg !13123
  call void @_ZNSt16allocator_traitsISaIN5boost10shared_ptrIKN6dealii10QuadratureILi3EEEEEEE10deallocateERS7_PS6_m(%"class.std::allocator.28"* dereferenceable(1) %1, %"class.boost::shared_ptr.31"* %2, i64 %3), !dbg !13124
  br label %if.end, !dbg !13124

if.end:                                           ; preds = %if.then, %entry
  ret void, !dbg !13125
}

; Function Attrs: noinline nounwind uwtable
define linkonce_odr dso_local void @_ZNSt12_Vector_baseIN5boost10shared_ptrIKN6dealii10QuadratureILi3EEEEESaIS6_EE12_Vector_implD2Ev(%"struct.std::_Vector_base<boost::shared_ptr<const dealii::Quadrature<3> >, std::allocator<boost::shared_ptr<const dealii::Quadrature<3> > > >::_Vector_impl"* %this) unnamed_addr #1 comdat align 2 !dbg !13126 {
entry:
  %this.addr = alloca %"struct.std::_Vector_base<boost::shared_ptr<const dealii::Quadrature<3> >, std::allocator<boost::shared_ptr<const dealii::Quadrature<3> > > >::_Vector_impl"*, align 8
  store %"struct.std::_Vector_base<boost::shared_ptr<const dealii::Quadrature<3> >, std::allocator<boost::shared_ptr<const dealii::Quadrature<3> > > >::_Vector_impl"* %this, %"struct.std::_Vector_base<boost::shared_ptr<const dealii::Quadrature<3> >, std::allocator<boost::shared_ptr<const dealii::Quadrature<3> > > >::_Vector_impl"** %this.addr, align 8
  call void @llvm.dbg.declare(metadata %"struct.std::_Vector_base<boost::shared_ptr<const dealii::Quadrature<3> >, std::allocator<boost::shared_ptr<const dealii::Quadrature<3> > > >::_Vector_impl"** %this.addr, metadata !13128, metadata !DIExpression()), !dbg !13130
  %this1 = load %"struct.std::_Vector_base<boost::shared_ptr<const dealii::Quadrature<3> >, std::allocator<boost::shared_ptr<const dealii::Quadrature<3> > > >::_Vector_impl"*, %"struct.std::_Vector_base<boost::shared_ptr<const dealii::Quadrature<3> >, std::allocator<boost::shared_ptr<const dealii::Quadrature<3> > > >::_Vector_impl"** %this.addr, align 8
  %0 = bitcast %"struct.std::_Vector_base<boost::shared_ptr<const dealii::Quadrature<3> >, std::allocator<boost::shared_ptr<const dealii::Quadrature<3> > > >::_Vector_impl"* %this1 to %"class.std::allocator.28"*, !dbg !13131
  call void @_ZNSaIN5boost10shared_ptrIKN6dealii10QuadratureILi3EEEEEED2Ev(%"class.std::allocator.28"* %0) #4, !dbg !13131
  ret void, !dbg !13133
}

; Function Attrs: noinline uwtable
define linkonce_odr dso_local void @_ZNSt16allocator_traitsISaIN5boost10shared_ptrIKN6dealii10QuadratureILi3EEEEEEE10deallocateERS7_PS6_m(%"class.std::allocator.28"* dereferenceable(1) %__a, %"class.boost::shared_ptr.31"* %__p, i64 %__n) #0 comdat align 2 !dbg !13134 {
entry:
  %__a.addr = alloca %"class.std::allocator.28"*, align 8
  %__p.addr = alloca %"class.boost::shared_ptr.31"*, align 8
  %__n.addr = alloca i64, align 8
  store %"class.std::allocator.28"* %__a, %"class.std::allocator.28"** %__a.addr, align 8
  call void @llvm.dbg.declare(metadata %"class.std::allocator.28"** %__a.addr, metadata !13135, metadata !DIExpression()), !dbg !13136
  store %"class.boost::shared_ptr.31"* %__p, %"class.boost::shared_ptr.31"** %__p.addr, align 8
  call void @llvm.dbg.declare(metadata %"class.boost::shared_ptr.31"** %__p.addr, metadata !13137, metadata !DIExpression()), !dbg !13138
  store i64 %__n, i64* %__n.addr, align 8
  call void @llvm.dbg.declare(metadata i64* %__n.addr, metadata !13139, metadata !DIExpression()), !dbg !13140
  %0 = load %"class.std::allocator.28"*, %"class.std::allocator.28"** %__a.addr, align 8, !dbg !13141
  %1 = bitcast %"class.std::allocator.28"* %0 to %"class.__gnu_cxx::new_allocator.29"*, !dbg !13141
  %2 = load %"class.boost::shared_ptr.31"*, %"class.boost::shared_ptr.31"** %__p.addr, align 8, !dbg !13142
  %3 = load i64, i64* %__n.addr, align 8, !dbg !13143
  call void @_ZN9__gnu_cxx13new_allocatorIN5boost10shared_ptrIKN6dealii10QuadratureILi3EEEEEE10deallocateEPS7_m(%"class.__gnu_cxx::new_allocator.29"* %1, %"class.boost::shared_ptr.31"* %2, i64 %3), !dbg !13144
  ret void, !dbg !13145
}

; Function Attrs: noinline nounwind uwtable
define linkonce_odr dso_local void @_ZN9__gnu_cxx13new_allocatorIN5boost10shared_ptrIKN6dealii10QuadratureILi3EEEEEE10deallocateEPS7_m(%"class.__gnu_cxx::new_allocator.29"* %this, %"class.boost::shared_ptr.31"* %__p, i64 %__t) #1 comdat align 2 !dbg !13146 {
entry:
  %this.addr = alloca %"class.__gnu_cxx::new_allocator.29"*, align 8
  %__p.addr = alloca %"class.boost::shared_ptr.31"*, align 8
  %__t.addr = alloca i64, align 8
  store %"class.__gnu_cxx::new_allocator.29"* %this, %"class.__gnu_cxx::new_allocator.29"** %this.addr, align 8
  call void @llvm.dbg.declare(metadata %"class.__gnu_cxx::new_allocator.29"** %this.addr, metadata !13147, metadata !DIExpression()), !dbg !13149
  store %"class.boost::shared_ptr.31"* %__p, %"class.boost::shared_ptr.31"** %__p.addr, align 8
  call void @llvm.dbg.declare(metadata %"class.boost::shared_ptr.31"** %__p.addr, metadata !13150, metadata !DIExpression()), !dbg !13151
  store i64 %__t, i64* %__t.addr, align 8
  call void @llvm.dbg.declare(metadata i64* %__t.addr, metadata !13152, metadata !DIExpression()), !dbg !13153
  %this1 = load %"class.__gnu_cxx::new_allocator.29"*, %"class.__gnu_cxx::new_allocator.29"** %this.addr, align 8
  %0 = load %"class.boost::shared_ptr.31"*, %"class.boost::shared_ptr.31"** %__p.addr, align 8, !dbg !13154
  %1 = bitcast %"class.boost::shared_ptr.31"* %0 to i8*, !dbg !13154
  call void @_ZdlPv(i8* %1) #4, !dbg !13155
  ret void, !dbg !13156
}

; Function Attrs: noinline nounwind uwtable
define linkonce_odr dso_local void @_ZN9__gnu_cxx13new_allocatorIN5boost10shared_ptrIKN6dealii10QuadratureILi3EEEEEED2Ev(%"class.__gnu_cxx::new_allocator.29"* %this) unnamed_addr #1 comdat align 2 !dbg !13157 {
entry:
  %this.addr = alloca %"class.__gnu_cxx::new_allocator.29"*, align 8
  store %"class.__gnu_cxx::new_allocator.29"* %this, %"class.__gnu_cxx::new_allocator.29"** %this.addr, align 8
  call void @llvm.dbg.declare(metadata %"class.__gnu_cxx::new_allocator.29"** %this.addr, metadata !13158, metadata !DIExpression()), !dbg !13159
  %this1 = load %"class.__gnu_cxx::new_allocator.29"*, %"class.__gnu_cxx::new_allocator.29"** %this.addr, align 8
  ret void, !dbg !13160
}

; Function Attrs: noinline nounwind uwtable
define linkonce_odr dso_local void @_ZN6dealii9TableBaseILi3EN5boost10shared_ptrINS_12FEFaceValuesILi3ELi3EEEEEED2Ev(%"class.dealii::TableBase.145"* %this) unnamed_addr #1 comdat align 2 !dbg !13161 {
entry:
  %this.addr = alloca %"class.dealii::TableBase.145"*, align 8
  store %"class.dealii::TableBase.145"* %this, %"class.dealii::TableBase.145"** %this.addr, align 8
  call void @llvm.dbg.declare(metadata %"class.dealii::TableBase.145"** %this.addr, metadata !13162, metadata !DIExpression()), !dbg !13164
  %this1 = load %"class.dealii::TableBase.145"*, %"class.dealii::TableBase.145"** %this.addr, align 8
  %0 = bitcast %"class.dealii::TableBase.145"* %this1 to i32 (...)***, !dbg !13165
  store i32 (...)** bitcast (i8** getelementptr inbounds ({ [4 x i8*] }, { [4 x i8*] }* @_ZTVN6dealii9TableBaseILi3EN5boost10shared_ptrINS_12FEFaceValuesILi3ELi3EEEEEEE, i32 0, inrange i32 0, i32 2) to i32 (...)**), i32 (...)*** %0, align 8, !dbg !13165
  %val = getelementptr inbounds %"class.dealii::TableBase.145", %"class.dealii::TableBase.145"* %this1, i32 0, i32 1, !dbg !13166
  %1 = load %"class.boost::shared_ptr.146"*, %"class.boost::shared_ptr.146"** %val, align 8, !dbg !13166
  %cmp = icmp ne %"class.boost::shared_ptr.146"* %1, null, !dbg !13169
  br i1 %cmp, label %if.then, label %if.end, !dbg !13170

if.then:                                          ; preds = %entry
  %val2 = getelementptr inbounds %"class.dealii::TableBase.145", %"class.dealii::TableBase.145"* %this1, i32 0, i32 1, !dbg !13171
  %2 = load %"class.boost::shared_ptr.146"*, %"class.boost::shared_ptr.146"** %val2, align 8, !dbg !13171
  %isnull = icmp eq %"class.boost::shared_ptr.146"* %2, null, !dbg !13172
  br i1 %isnull, label %delete.end4, label %delete.notnull, !dbg !13172

delete.notnull:                                   ; preds = %if.then
  %3 = bitcast %"class.boost::shared_ptr.146"* %2 to i8*, !dbg !13172
  %4 = getelementptr inbounds i8, i8* %3, i64 -8, !dbg !13172
  %5 = bitcast i8* %4 to i64*, !dbg !13172
  %6 = load i64, i64* %5, align 8, !dbg !13172
  %delete.end = getelementptr inbounds %"class.boost::shared_ptr.146", %"class.boost::shared_ptr.146"* %2, i64 %6, !dbg !13172
  %arraydestroy.isempty = icmp eq %"class.boost::shared_ptr.146"* %2, %delete.end, !dbg !13172
  br i1 %arraydestroy.isempty, label %arraydestroy.done3, label %arraydestroy.body, !dbg !13172

arraydestroy.body:                                ; preds = %arraydestroy.body, %delete.notnull
  %arraydestroy.elementPast = phi %"class.boost::shared_ptr.146"* [ %delete.end, %delete.notnull ], [ %arraydestroy.element, %arraydestroy.body ], !dbg !13172
  %arraydestroy.element = getelementptr inbounds %"class.boost::shared_ptr.146", %"class.boost::shared_ptr.146"* %arraydestroy.elementPast, i64 -1, !dbg !13172
  call void @_ZN5boost10shared_ptrIN6dealii12FEFaceValuesILi3ELi3EEEED2Ev(%"class.boost::shared_ptr.146"* %arraydestroy.element) #4, !dbg !13172
  %arraydestroy.done = icmp eq %"class.boost::shared_ptr.146"* %arraydestroy.element, %2, !dbg !13172
  br i1 %arraydestroy.done, label %arraydestroy.done3, label %arraydestroy.body, !dbg !13172

arraydestroy.done3:                               ; preds = %arraydestroy.body, %delete.notnull
  call void @_ZdaPv(i8* %4) #14, !dbg !13172
  br label %delete.end4, !dbg !13172

delete.end4:                                      ; preds = %arraydestroy.done3, %if.then
  br label %if.end, !dbg !13172

if.end:                                           ; preds = %delete.end4, %entry
  %7 = bitcast %"class.dealii::TableBase.145"* %this1 to %"class.dealii::Subscriptor"*, !dbg !13173
  call void @_ZN6dealii11SubscriptorD2Ev(%"class.dealii::Subscriptor"* %7) #4, !dbg !13173
  ret void, !dbg !13174
}

; Function Attrs: noinline nounwind uwtable
define linkonce_odr dso_local void @_ZN6dealii9TableBaseILi3EN5boost10shared_ptrINS_12FEFaceValuesILi3ELi3EEEEEED0Ev(%"class.dealii::TableBase.145"* %this) unnamed_addr #1 comdat align 2 !dbg !13175 {
entry:
  %this.addr = alloca %"class.dealii::TableBase.145"*, align 8
  store %"class.dealii::TableBase.145"* %this, %"class.dealii::TableBase.145"** %this.addr, align 8
  call void @llvm.dbg.declare(metadata %"class.dealii::TableBase.145"** %this.addr, metadata !13176, metadata !DIExpression()), !dbg !13177
  %this1 = load %"class.dealii::TableBase.145"*, %"class.dealii::TableBase.145"** %this.addr, align 8
  call void @_ZN6dealii9TableBaseILi3EN5boost10shared_ptrINS_12FEFaceValuesILi3ELi3EEEEEED2Ev(%"class.dealii::TableBase.145"* %this1) #4, !dbg !13178
  %0 = bitcast %"class.dealii::TableBase.145"* %this1 to i8*, !dbg !13178
  call void @_ZdlPv(i8* %0) #14, !dbg !13178
  ret void, !dbg !13179
}

; Function Attrs: noinline nounwind uwtable
define linkonce_odr dso_local void @_ZNSt6vectorIN5boost10shared_ptrIKN6dealii10QuadratureILi2EEEEESaIS6_EED2Ev(%"class.std::vector.138"* %this) unnamed_addr #1 comdat align 2 personality i8* bitcast (i32 (...)* @__gxx_personality_v0 to i8*) !dbg !13180 {
entry:
  %this.addr = alloca %"class.std::vector.138"*, align 8
  %exn.slot = alloca i8*
  %ehselector.slot = alloca i32
  store %"class.std::vector.138"* %this, %"class.std::vector.138"** %this.addr, align 8
  call void @llvm.dbg.declare(metadata %"class.std::vector.138"** %this.addr, metadata !13181, metadata !DIExpression()), !dbg !13183
  %this1 = load %"class.std::vector.138"*, %"class.std::vector.138"** %this.addr, align 8
  %0 = bitcast %"class.std::vector.138"* %this1 to %"struct.std::_Vector_base.139"*, !dbg !13184
  %_M_impl = getelementptr inbounds %"struct.std::_Vector_base.139", %"struct.std::_Vector_base.139"* %0, i32 0, i32 0, !dbg !13184
  %1 = bitcast %"struct.std::_Vector_base<boost::shared_ptr<const dealii::Quadrature<2> >, std::allocator<boost::shared_ptr<const dealii::Quadrature<2> > > >::_Vector_impl"* %_M_impl to %"struct.std::_Vector_base<boost::shared_ptr<const dealii::Quadrature<2> >, std::allocator<boost::shared_ptr<const dealii::Quadrature<2> > > >::_Vector_impl_data"*, !dbg !13186
  %_M_start = getelementptr inbounds %"struct.std::_Vector_base<boost::shared_ptr<const dealii::Quadrature<2> >, std::allocator<boost::shared_ptr<const dealii::Quadrature<2> > > >::_Vector_impl_data", %"struct.std::_Vector_base<boost::shared_ptr<const dealii::Quadrature<2> >, std::allocator<boost::shared_ptr<const dealii::Quadrature<2> > > >::_Vector_impl_data"* %1, i32 0, i32 0, !dbg !13187
  %2 = load %"class.boost::shared_ptr.143"*, %"class.boost::shared_ptr.143"** %_M_start, align 8, !dbg !13187
  %3 = bitcast %"class.std::vector.138"* %this1 to %"struct.std::_Vector_base.139"*, !dbg !13188
  %_M_impl2 = getelementptr inbounds %"struct.std::_Vector_base.139", %"struct.std::_Vector_base.139"* %3, i32 0, i32 0, !dbg !13188
  %4 = bitcast %"struct.std::_Vector_base<boost::shared_ptr<const dealii::Quadrature<2> >, std::allocator<boost::shared_ptr<const dealii::Quadrature<2> > > >::_Vector_impl"* %_M_impl2 to %"struct.std::_Vector_base<boost::shared_ptr<const dealii::Quadrature<2> >, std::allocator<boost::shared_ptr<const dealii::Quadrature<2> > > >::_Vector_impl_data"*, !dbg !13189
  %_M_finish = getelementptr inbounds %"struct.std::_Vector_base<boost::shared_ptr<const dealii::Quadrature<2> >, std::allocator<boost::shared_ptr<const dealii::Quadrature<2> > > >::_Vector_impl_data", %"struct.std::_Vector_base<boost::shared_ptr<const dealii::Quadrature<2> >, std::allocator<boost::shared_ptr<const dealii::Quadrature<2> > > >::_Vector_impl_data"* %4, i32 0, i32 1, !dbg !13190
  %5 = load %"class.boost::shared_ptr.143"*, %"class.boost::shared_ptr.143"** %_M_finish, align 8, !dbg !13190
  %6 = bitcast %"class.std::vector.138"* %this1 to %"struct.std::_Vector_base.139"*, !dbg !13191
  %call = call dereferenceable(1) %"class.std::allocator.140"* @_ZNSt12_Vector_baseIN5boost10shared_ptrIKN6dealii10QuadratureILi2EEEEESaIS6_EE19_M_get_Tp_allocatorEv(%"struct.std::_Vector_base.139"* %6) #4, !dbg !13191
  invoke void @_ZSt8_DestroyIPN5boost10shared_ptrIKN6dealii10QuadratureILi2EEEEES6_EvT_S8_RSaIT0_E(%"class.boost::shared_ptr.143"* %2, %"class.boost::shared_ptr.143"* %5, %"class.std::allocator.140"* dereferenceable(1) %call)
          to label %invoke.cont unwind label %lpad, !dbg !13192

invoke.cont:                                      ; preds = %entry
  %7 = bitcast %"class.std::vector.138"* %this1 to %"struct.std::_Vector_base.139"*, !dbg !13193
  call void @_ZNSt12_Vector_baseIN5boost10shared_ptrIKN6dealii10QuadratureILi2EEEEESaIS6_EED2Ev(%"struct.std::_Vector_base.139"* %7) #4, !dbg !13193
  ret void, !dbg !13194

lpad:                                             ; preds = %entry
  %8 = landingpad { i8*, i32 }
          catch i8* null, !dbg !13193
  %9 = extractvalue { i8*, i32 } %8, 0, !dbg !13193
  store i8* %9, i8** %exn.slot, align 8, !dbg !13193
  %10 = extractvalue { i8*, i32 } %8, 1, !dbg !13193
  store i32 %10, i32* %ehselector.slot, align 4, !dbg !13193
  %11 = bitcast %"class.std::vector.138"* %this1 to %"struct.std::_Vector_base.139"*, !dbg !13193
  call void @_ZNSt12_Vector_baseIN5boost10shared_ptrIKN6dealii10QuadratureILi2EEEEESaIS6_EED2Ev(%"struct.std::_Vector_base.139"* %11) #4, !dbg !13193
  br label %terminate.handler, !dbg !13193

terminate.handler:                                ; preds = %lpad
  %exn = load i8*, i8** %exn.slot, align 8, !dbg !13193
  call void @__clang_call_terminate(i8* %exn) #12, !dbg !13193
  unreachable, !dbg !13193
}

; Function Attrs: noinline nounwind uwtable
define linkonce_odr dso_local void @_ZN6dealii2hp11QCollectionILi2EED0Ev(%"class.dealii::hp::QCollection.137"* %this) unnamed_addr #1 comdat align 2 !dbg !13195 {
entry:
  %this.addr = alloca %"class.dealii::hp::QCollection.137"*, align 8
  store %"class.dealii::hp::QCollection.137"* %this, %"class.dealii::hp::QCollection.137"** %this.addr, align 8
  call void @llvm.dbg.declare(metadata %"class.dealii::hp::QCollection.137"** %this.addr, metadata !13196, metadata !DIExpression()), !dbg !13197
  %this1 = load %"class.dealii::hp::QCollection.137"*, %"class.dealii::hp::QCollection.137"** %this.addr, align 8
  call void @_ZN6dealii2hp11QCollectionILi2EED2Ev(%"class.dealii::hp::QCollection.137"* %this1) #4, !dbg !13198
  %0 = bitcast %"class.dealii::hp::QCollection.137"* %this1 to i8*, !dbg !13198
  call void @_ZdlPv(i8* %0) #14, !dbg !13198
  ret void, !dbg !13198
}

; Function Attrs: noinline uwtable
define linkonce_odr dso_local void @_ZSt8_DestroyIPN5boost10shared_ptrIKN6dealii10QuadratureILi2EEEEES6_EvT_S8_RSaIT0_E(%"class.boost::shared_ptr.143"* %__first, %"class.boost::shared_ptr.143"* %__last, %"class.std::allocator.140"* dereferenceable(1) %0) #0 comdat !dbg !13199 {
entry:
  %__first.addr = alloca %"class.boost::shared_ptr.143"*, align 8
  %__last.addr = alloca %"class.boost::shared_ptr.143"*, align 8
  %.addr = alloca %"class.std::allocator.140"*, align 8
  store %"class.boost::shared_ptr.143"* %__first, %"class.boost::shared_ptr.143"** %__first.addr, align 8
  call void @llvm.dbg.declare(metadata %"class.boost::shared_ptr.143"** %__first.addr, metadata !13204, metadata !DIExpression()), !dbg !13205
  store %"class.boost::shared_ptr.143"* %__last, %"class.boost::shared_ptr.143"** %__last.addr, align 8
  call void @llvm.dbg.declare(metadata %"class.boost::shared_ptr.143"** %__last.addr, metadata !13206, metadata !DIExpression()), !dbg !13207
  store %"class.std::allocator.140"* %0, %"class.std::allocator.140"** %.addr, align 8
  call void @llvm.dbg.declare(metadata %"class.std::allocator.140"** %.addr, metadata !13208, metadata !DIExpression()), !dbg !13209
  %1 = load %"class.boost::shared_ptr.143"*, %"class.boost::shared_ptr.143"** %__first.addr, align 8, !dbg !13210
  %2 = load %"class.boost::shared_ptr.143"*, %"class.boost::shared_ptr.143"** %__last.addr, align 8, !dbg !13211
  call void @_ZSt8_DestroyIPN5boost10shared_ptrIKN6dealii10QuadratureILi2EEEEEEvT_S8_(%"class.boost::shared_ptr.143"* %1, %"class.boost::shared_ptr.143"* %2), !dbg !13212
  ret void, !dbg !13213
}

; Function Attrs: noinline nounwind uwtable
define linkonce_odr dso_local dereferenceable(1) %"class.std::allocator.140"* @_ZNSt12_Vector_baseIN5boost10shared_ptrIKN6dealii10QuadratureILi2EEEEESaIS6_EE19_M_get_Tp_allocatorEv(%"struct.std::_Vector_base.139"* %this) #1 comdat align 2 !dbg !13214 {
entry:
  %this.addr = alloca %"struct.std::_Vector_base.139"*, align 8
  store %"struct.std::_Vector_base.139"* %this, %"struct.std::_Vector_base.139"** %this.addr, align 8
  call void @llvm.dbg.declare(metadata %"struct.std::_Vector_base.139"** %this.addr, metadata !13215, metadata !DIExpression()), !dbg !13217
  %this1 = load %"struct.std::_Vector_base.139"*, %"struct.std::_Vector_base.139"** %this.addr, align 8
  %_M_impl = getelementptr inbounds %"struct.std::_Vector_base.139", %"struct.std::_Vector_base.139"* %this1, i32 0, i32 0, !dbg !13218
  %0 = bitcast %"struct.std::_Vector_base<boost::shared_ptr<const dealii::Quadrature<2> >, std::allocator<boost::shared_ptr<const dealii::Quadrature<2> > > >::_Vector_impl"* %_M_impl to %"class.std::allocator.140"*, !dbg !13219
  ret %"class.std::allocator.140"* %0, !dbg !13220
}

; Function Attrs: noinline nounwind uwtable
define linkonce_odr dso_local void @_ZNSt12_Vector_baseIN5boost10shared_ptrIKN6dealii10QuadratureILi2EEEEESaIS6_EED2Ev(%"struct.std::_Vector_base.139"* %this) unnamed_addr #1 comdat align 2 personality i8* bitcast (i32 (...)* @__gxx_personality_v0 to i8*) !dbg !13221 {
entry:
  %this.addr = alloca %"struct.std::_Vector_base.139"*, align 8
  %exn.slot = alloca i8*
  %ehselector.slot = alloca i32
  store %"struct.std::_Vector_base.139"* %this, %"struct.std::_Vector_base.139"** %this.addr, align 8
  call void @llvm.dbg.declare(metadata %"struct.std::_Vector_base.139"** %this.addr, metadata !13222, metadata !DIExpression()), !dbg !13223
  %this1 = load %"struct.std::_Vector_base.139"*, %"struct.std::_Vector_base.139"** %this.addr, align 8
  %_M_impl = getelementptr inbounds %"struct.std::_Vector_base.139", %"struct.std::_Vector_base.139"* %this1, i32 0, i32 0, !dbg !13224
  %0 = bitcast %"struct.std::_Vector_base<boost::shared_ptr<const dealii::Quadrature<2> >, std::allocator<boost::shared_ptr<const dealii::Quadrature<2> > > >::_Vector_impl"* %_M_impl to %"struct.std::_Vector_base<boost::shared_ptr<const dealii::Quadrature<2> >, std::allocator<boost::shared_ptr<const dealii::Quadrature<2> > > >::_Vector_impl_data"*, !dbg !13224
  %_M_start = getelementptr inbounds %"struct.std::_Vector_base<boost::shared_ptr<const dealii::Quadrature<2> >, std::allocator<boost::shared_ptr<const dealii::Quadrature<2> > > >::_Vector_impl_data", %"struct.std::_Vector_base<boost::shared_ptr<const dealii::Quadrature<2> >, std::allocator<boost::shared_ptr<const dealii::Quadrature<2> > > >::_Vector_impl_data"* %0, i32 0, i32 0, !dbg !13226
  %1 = load %"class.boost::shared_ptr.143"*, %"class.boost::shared_ptr.143"** %_M_start, align 8, !dbg !13226
  %_M_impl2 = getelementptr inbounds %"struct.std::_Vector_base.139", %"struct.std::_Vector_base.139"* %this1, i32 0, i32 0, !dbg !13227
  %2 = bitcast %"struct.std::_Vector_base<boost::shared_ptr<const dealii::Quadrature<2> >, std::allocator<boost::shared_ptr<const dealii::Quadrature<2> > > >::_Vector_impl"* %_M_impl2 to %"struct.std::_Vector_base<boost::shared_ptr<const dealii::Quadrature<2> >, std::allocator<boost::shared_ptr<const dealii::Quadrature<2> > > >::_Vector_impl_data"*, !dbg !13227
  %_M_end_of_storage = getelementptr inbounds %"struct.std::_Vector_base<boost::shared_ptr<const dealii::Quadrature<2> >, std::allocator<boost::shared_ptr<const dealii::Quadrature<2> > > >::_Vector_impl_data", %"struct.std::_Vector_base<boost::shared_ptr<const dealii::Quadrature<2> >, std::allocator<boost::shared_ptr<const dealii::Quadrature<2> > > >::_Vector_impl_data"* %2, i32 0, i32 2, !dbg !13228
  %3 = load %"class.boost::shared_ptr.143"*, %"class.boost::shared_ptr.143"** %_M_end_of_storage, align 8, !dbg !13228
  %_M_impl3 = getelementptr inbounds %"struct.std::_Vector_base.139", %"struct.std::_Vector_base.139"* %this1, i32 0, i32 0, !dbg !13229
  %4 = bitcast %"struct.std::_Vector_base<boost::shared_ptr<const dealii::Quadrature<2> >, std::allocator<boost::shared_ptr<const dealii::Quadrature<2> > > >::_Vector_impl"* %_M_impl3 to %"struct.std::_Vector_base<boost::shared_ptr<const dealii::Quadrature<2> >, std::allocator<boost::shared_ptr<const dealii::Quadrature<2> > > >::_Vector_impl_data"*, !dbg !13229
  %_M_start4 = getelementptr inbounds %"struct.std::_Vector_base<boost::shared_ptr<const dealii::Quadrature<2> >, std::allocator<boost::shared_ptr<const dealii::Quadrature<2> > > >::_Vector_impl_data", %"struct.std::_Vector_base<boost::shared_ptr<const dealii::Quadrature<2> >, std::allocator<boost::shared_ptr<const dealii::Quadrature<2> > > >::_Vector_impl_data"* %4, i32 0, i32 0, !dbg !13230
  %5 = load %"class.boost::shared_ptr.143"*, %"class.boost::shared_ptr.143"** %_M_start4, align 8, !dbg !13230
  %sub.ptr.lhs.cast = ptrtoint %"class.boost::shared_ptr.143"* %3 to i64, !dbg !13231
  %sub.ptr.rhs.cast = ptrtoint %"class.boost::shared_ptr.143"* %5 to i64, !dbg !13231
  %sub.ptr.sub = sub i64 %sub.ptr.lhs.cast, %sub.ptr.rhs.cast, !dbg !13231
  %sub.ptr.div = sdiv exact i64 %sub.ptr.sub, 16, !dbg !13231
  invoke void @_ZNSt12_Vector_baseIN5boost10shared_ptrIKN6dealii10QuadratureILi2EEEEESaIS6_EE13_M_deallocateEPS6_m(%"struct.std::_Vector_base.139"* %this1, %"class.boost::shared_ptr.143"* %1, i64 %sub.ptr.div)
          to label %invoke.cont unwind label %lpad, !dbg !13232

invoke.cont:                                      ; preds = %entry
  %_M_impl5 = getelementptr inbounds %"struct.std::_Vector_base.139", %"struct.std::_Vector_base.139"* %this1, i32 0, i32 0, !dbg !13233
  call void @_ZNSt12_Vector_baseIN5boost10shared_ptrIKN6dealii10QuadratureILi2EEEEESaIS6_EE12_Vector_implD2Ev(%"struct.std::_Vector_base<boost::shared_ptr<const dealii::Quadrature<2> >, std::allocator<boost::shared_ptr<const dealii::Quadrature<2> > > >::_Vector_impl"* %_M_impl5) #4, !dbg !13233
  ret void, !dbg !13234

lpad:                                             ; preds = %entry
  %6 = landingpad { i8*, i32 }
          catch i8* null, !dbg !13233
  %7 = extractvalue { i8*, i32 } %6, 0, !dbg !13233
  store i8* %7, i8** %exn.slot, align 8, !dbg !13233
  %8 = extractvalue { i8*, i32 } %6, 1, !dbg !13233
  store i32 %8, i32* %ehselector.slot, align 4, !dbg !13233
  %_M_impl6 = getelementptr inbounds %"struct.std::_Vector_base.139", %"struct.std::_Vector_base.139"* %this1, i32 0, i32 0, !dbg !13233
  call void @_ZNSt12_Vector_baseIN5boost10shared_ptrIKN6dealii10QuadratureILi2EEEEESaIS6_EE12_Vector_implD2Ev(%"struct.std::_Vector_base<boost::shared_ptr<const dealii::Quadrature<2> >, std::allocator<boost::shared_ptr<const dealii::Quadrature<2> > > >::_Vector_impl"* %_M_impl6) #4, !dbg !13233
  br label %terminate.handler, !dbg !13233

terminate.handler:                                ; preds = %lpad
  %exn = load i8*, i8** %exn.slot, align 8, !dbg !13233
  call void @__clang_call_terminate(i8* %exn) #12, !dbg !13233
  unreachable, !dbg !13233
}

; Function Attrs: noinline uwtable
define linkonce_odr dso_local void @_ZSt8_DestroyIPN5boost10shared_ptrIKN6dealii10QuadratureILi2EEEEEEvT_S8_(%"class.boost::shared_ptr.143"* %__first, %"class.boost::shared_ptr.143"* %__last) #0 comdat !dbg !13235 {
entry:
  %__first.addr = alloca %"class.boost::shared_ptr.143"*, align 8
  %__last.addr = alloca %"class.boost::shared_ptr.143"*, align 8
  store %"class.boost::shared_ptr.143"* %__first, %"class.boost::shared_ptr.143"** %__first.addr, align 8
  call void @llvm.dbg.declare(metadata %"class.boost::shared_ptr.143"** %__first.addr, metadata !13239, metadata !DIExpression()), !dbg !13240
  store %"class.boost::shared_ptr.143"* %__last, %"class.boost::shared_ptr.143"** %__last.addr, align 8
  call void @llvm.dbg.declare(metadata %"class.boost::shared_ptr.143"** %__last.addr, metadata !13241, metadata !DIExpression()), !dbg !13242
  %0 = load %"class.boost::shared_ptr.143"*, %"class.boost::shared_ptr.143"** %__first.addr, align 8, !dbg !13243
  %1 = load %"class.boost::shared_ptr.143"*, %"class.boost::shared_ptr.143"** %__last.addr, align 8, !dbg !13244
  call void @_ZNSt12_Destroy_auxILb0EE9__destroyIPN5boost10shared_ptrIKN6dealii10QuadratureILi2EEEEEEEvT_SA_(%"class.boost::shared_ptr.143"* %0, %"class.boost::shared_ptr.143"* %1), !dbg !13245
  ret void, !dbg !13246
}

; Function Attrs: noinline uwtable
define linkonce_odr dso_local void @_ZNSt12_Destroy_auxILb0EE9__destroyIPN5boost10shared_ptrIKN6dealii10QuadratureILi2EEEEEEEvT_SA_(%"class.boost::shared_ptr.143"* %__first, %"class.boost::shared_ptr.143"* %__last) #0 comdat align 2 !dbg !13247 {
entry:
  %__first.addr = alloca %"class.boost::shared_ptr.143"*, align 8
  %__last.addr = alloca %"class.boost::shared_ptr.143"*, align 8
  store %"class.boost::shared_ptr.143"* %__first, %"class.boost::shared_ptr.143"** %__first.addr, align 8
  call void @llvm.dbg.declare(metadata %"class.boost::shared_ptr.143"** %__first.addr, metadata !13249, metadata !DIExpression()), !dbg !13250
  store %"class.boost::shared_ptr.143"* %__last, %"class.boost::shared_ptr.143"** %__last.addr, align 8
  call void @llvm.dbg.declare(metadata %"class.boost::shared_ptr.143"** %__last.addr, metadata !13251, metadata !DIExpression()), !dbg !13252
  br label %for.cond, !dbg !13253

for.cond:                                         ; preds = %for.inc, %entry
  %0 = load %"class.boost::shared_ptr.143"*, %"class.boost::shared_ptr.143"** %__first.addr, align 8, !dbg !13254
  %1 = load %"class.boost::shared_ptr.143"*, %"class.boost::shared_ptr.143"** %__last.addr, align 8, !dbg !13257
  %cmp = icmp ne %"class.boost::shared_ptr.143"* %0, %1, !dbg !13258
  br i1 %cmp, label %for.body, label %for.end, !dbg !13259

for.body:                                         ; preds = %for.cond
  %2 = load %"class.boost::shared_ptr.143"*, %"class.boost::shared_ptr.143"** %__first.addr, align 8, !dbg !13260
  %call = call %"class.boost::shared_ptr.143"* @_ZSt11__addressofIN5boost10shared_ptrIKN6dealii10QuadratureILi2EEEEEEPT_RS7_(%"class.boost::shared_ptr.143"* dereferenceable(16) %2) #4, !dbg !13261
  call void @_ZSt8_DestroyIN5boost10shared_ptrIKN6dealii10QuadratureILi2EEEEEEvPT_(%"class.boost::shared_ptr.143"* %call), !dbg !13262
  br label %for.inc, !dbg !13262

for.inc:                                          ; preds = %for.body
  %3 = load %"class.boost::shared_ptr.143"*, %"class.boost::shared_ptr.143"** %__first.addr, align 8, !dbg !13263
  %incdec.ptr = getelementptr inbounds %"class.boost::shared_ptr.143", %"class.boost::shared_ptr.143"* %3, i32 1, !dbg !13263
  store %"class.boost::shared_ptr.143"* %incdec.ptr, %"class.boost::shared_ptr.143"** %__first.addr, align 8, !dbg !13263
  br label %for.cond, !dbg !13264, !llvm.loop !13265

for.end:                                          ; preds = %for.cond
  ret void, !dbg !13267
}

; Function Attrs: noinline nounwind uwtable
define linkonce_odr dso_local void @_ZSt8_DestroyIN5boost10shared_ptrIKN6dealii10QuadratureILi2EEEEEEvPT_(%"class.boost::shared_ptr.143"* %__pointer) #1 comdat !dbg !13268 {
entry:
  %__pointer.addr = alloca %"class.boost::shared_ptr.143"*, align 8
  store %"class.boost::shared_ptr.143"* %__pointer, %"class.boost::shared_ptr.143"** %__pointer.addr, align 8
  call void @llvm.dbg.declare(metadata %"class.boost::shared_ptr.143"** %__pointer.addr, metadata !13271, metadata !DIExpression()), !dbg !13272
  %0 = load %"class.boost::shared_ptr.143"*, %"class.boost::shared_ptr.143"** %__pointer.addr, align 8, !dbg !13273
  call void @_ZN5boost10shared_ptrIKN6dealii10QuadratureILi2EEEED2Ev(%"class.boost::shared_ptr.143"* %0) #4, !dbg !13274
  ret void, !dbg !13275
}

; Function Attrs: noinline nounwind uwtable
define linkonce_odr dso_local %"class.boost::shared_ptr.143"* @_ZSt11__addressofIN5boost10shared_ptrIKN6dealii10QuadratureILi2EEEEEEPT_RS7_(%"class.boost::shared_ptr.143"* dereferenceable(16) %__r) #1 comdat !dbg !13276 {
entry:
  %__r.addr = alloca %"class.boost::shared_ptr.143"*, align 8
  store %"class.boost::shared_ptr.143"* %__r, %"class.boost::shared_ptr.143"** %__r.addr, align 8
  call void @llvm.dbg.declare(metadata %"class.boost::shared_ptr.143"** %__r.addr, metadata !13279, metadata !DIExpression()), !dbg !13280
  %0 = load %"class.boost::shared_ptr.143"*, %"class.boost::shared_ptr.143"** %__r.addr, align 8, !dbg !13281
  ret %"class.boost::shared_ptr.143"* %0, !dbg !13282
}

; Function Attrs: noinline nounwind uwtable
define linkonce_odr dso_local void @_ZN5boost10shared_ptrIKN6dealii10QuadratureILi2EEEED2Ev(%"class.boost::shared_ptr.143"* %this) unnamed_addr #1 comdat align 2 !dbg !13283 {
entry:
  %this.addr = alloca %"class.boost::shared_ptr.143"*, align 8
  store %"class.boost::shared_ptr.143"* %this, %"class.boost::shared_ptr.143"** %this.addr, align 8
  call void @llvm.dbg.declare(metadata %"class.boost::shared_ptr.143"** %this.addr, metadata !13285, metadata !DIExpression()), !dbg !13286
  %this1 = load %"class.boost::shared_ptr.143"*, %"class.boost::shared_ptr.143"** %this.addr, align 8
  %pn = getelementptr inbounds %"class.boost::shared_ptr.143", %"class.boost::shared_ptr.143"* %this1, i32 0, i32 1, !dbg !13287
  call void @_ZN5boost6detail12shared_countD2Ev(%"class.boost::detail::shared_count"* %pn) #4, !dbg !13287
  ret void, !dbg !13289
}

; Function Attrs: noinline uwtable
define linkonce_odr dso_local void @_ZNSt12_Vector_baseIN5boost10shared_ptrIKN6dealii10QuadratureILi2EEEEESaIS6_EE13_M_deallocateEPS6_m(%"struct.std::_Vector_base.139"* %this, %"class.boost::shared_ptr.143"* %__p, i64 %__n) #0 comdat align 2 !dbg !13290 {
entry:
  %this.addr = alloca %"struct.std::_Vector_base.139"*, align 8
  %__p.addr = alloca %"class.boost::shared_ptr.143"*, align 8
  %__n.addr = alloca i64, align 8
  store %"struct.std::_Vector_base.139"* %this, %"struct.std::_Vector_base.139"** %this.addr, align 8
  call void @llvm.dbg.declare(metadata %"struct.std::_Vector_base.139"** %this.addr, metadata !13291, metadata !DIExpression()), !dbg !13292
  store %"class.boost::shared_ptr.143"* %__p, %"class.boost::shared_ptr.143"** %__p.addr, align 8
  call void @llvm.dbg.declare(metadata %"class.boost::shared_ptr.143"** %__p.addr, metadata !13293, metadata !DIExpression()), !dbg !13294
  store i64 %__n, i64* %__n.addr, align 8
  call void @llvm.dbg.declare(metadata i64* %__n.addr, metadata !13295, metadata !DIExpression()), !dbg !13296
  %this1 = load %"struct.std::_Vector_base.139"*, %"struct.std::_Vector_base.139"** %this.addr, align 8
  %0 = load %"class.boost::shared_ptr.143"*, %"class.boost::shared_ptr.143"** %__p.addr, align 8, !dbg !13297
  %tobool = icmp ne %"class.boost::shared_ptr.143"* %0, null, !dbg !13297
  br i1 %tobool, label %if.then, label %if.end, !dbg !13299

if.then:                                          ; preds = %entry
  %_M_impl = getelementptr inbounds %"struct.std::_Vector_base.139", %"struct.std::_Vector_base.139"* %this1, i32 0, i32 0, !dbg !13300
  %1 = bitcast %"struct.std::_Vector_base<boost::shared_ptr<const dealii::Quadrature<2> >, std::allocator<boost::shared_ptr<const dealii::Quadrature<2> > > >::_Vector_impl"* %_M_impl to %"class.std::allocator.140"*, !dbg !13300
  %2 = load %"class.boost::shared_ptr.143"*, %"class.boost::shared_ptr.143"** %__p.addr, align 8, !dbg !13301
  %3 = load i64, i64* %__n.addr, align 8, !dbg !13302
  call void @_ZNSt16allocator_traitsISaIN5boost10shared_ptrIKN6dealii10QuadratureILi2EEEEEEE10deallocateERS7_PS6_m(%"class.std::allocator.140"* dereferenceable(1) %1, %"class.boost::shared_ptr.143"* %2, i64 %3), !dbg !13303
  br label %if.end, !dbg !13303

if.end:                                           ; preds = %if.then, %entry
  ret void, !dbg !13304
}

; Function Attrs: noinline nounwind uwtable
define linkonce_odr dso_local void @_ZNSt12_Vector_baseIN5boost10shared_ptrIKN6dealii10QuadratureILi2EEEEESaIS6_EE12_Vector_implD2Ev(%"struct.std::_Vector_base<boost::shared_ptr<const dealii::Quadrature<2> >, std::allocator<boost::shared_ptr<const dealii::Quadrature<2> > > >::_Vector_impl"* %this) unnamed_addr #1 comdat align 2 !dbg !13305 {
entry:
  %this.addr = alloca %"struct.std::_Vector_base<boost::shared_ptr<const dealii::Quadrature<2> >, std::allocator<boost::shared_ptr<const dealii::Quadrature<2> > > >::_Vector_impl"*, align 8
  store %"struct.std::_Vector_base<boost::shared_ptr<const dealii::Quadrature<2> >, std::allocator<boost::shared_ptr<const dealii::Quadrature<2> > > >::_Vector_impl"* %this, %"struct.std::_Vector_base<boost::shared_ptr<const dealii::Quadrature<2> >, std::allocator<boost::shared_ptr<const dealii::Quadrature<2> > > >::_Vector_impl"** %this.addr, align 8
  call void @llvm.dbg.declare(metadata %"struct.std::_Vector_base<boost::shared_ptr<const dealii::Quadrature<2> >, std::allocator<boost::shared_ptr<const dealii::Quadrature<2> > > >::_Vector_impl"** %this.addr, metadata !13307, metadata !DIExpression()), !dbg !13309
  %this1 = load %"struct.std::_Vector_base<boost::shared_ptr<const dealii::Quadrature<2> >, std::allocator<boost::shared_ptr<const dealii::Quadrature<2> > > >::_Vector_impl"*, %"struct.std::_Vector_base<boost::shared_ptr<const dealii::Quadrature<2> >, std::allocator<boost::shared_ptr<const dealii::Quadrature<2> > > >::_Vector_impl"** %this.addr, align 8
  %0 = bitcast %"struct.std::_Vector_base<boost::shared_ptr<const dealii::Quadrature<2> >, std::allocator<boost::shared_ptr<const dealii::Quadrature<2> > > >::_Vector_impl"* %this1 to %"class.std::allocator.140"*, !dbg !13310
  call void @_ZNSaIN5boost10shared_ptrIKN6dealii10QuadratureILi2EEEEEED2Ev(%"class.std::allocator.140"* %0) #4, !dbg !13310
  ret void, !dbg !13312
}

; Function Attrs: noinline uwtable
define linkonce_odr dso_local void @_ZNSt16allocator_traitsISaIN5boost10shared_ptrIKN6dealii10QuadratureILi2EEEEEEE10deallocateERS7_PS6_m(%"class.std::allocator.140"* dereferenceable(1) %__a, %"class.boost::shared_ptr.143"* %__p, i64 %__n) #0 comdat align 2 !dbg !13313 {
entry:
  %__a.addr = alloca %"class.std::allocator.140"*, align 8
  %__p.addr = alloca %"class.boost::shared_ptr.143"*, align 8
  %__n.addr = alloca i64, align 8
  store %"class.std::allocator.140"* %__a, %"class.std::allocator.140"** %__a.addr, align 8
  call void @llvm.dbg.declare(metadata %"class.std::allocator.140"** %__a.addr, metadata !13314, metadata !DIExpression()), !dbg !13315
  store %"class.boost::shared_ptr.143"* %__p, %"class.boost::shared_ptr.143"** %__p.addr, align 8
  call void @llvm.dbg.declare(metadata %"class.boost::shared_ptr.143"** %__p.addr, metadata !13316, metadata !DIExpression()), !dbg !13317
  store i64 %__n, i64* %__n.addr, align 8
  call void @llvm.dbg.declare(metadata i64* %__n.addr, metadata !13318, metadata !DIExpression()), !dbg !13319
  %0 = load %"class.std::allocator.140"*, %"class.std::allocator.140"** %__a.addr, align 8, !dbg !13320
  %1 = bitcast %"class.std::allocator.140"* %0 to %"class.__gnu_cxx::new_allocator.141"*, !dbg !13320
  %2 = load %"class.boost::shared_ptr.143"*, %"class.boost::shared_ptr.143"** %__p.addr, align 8, !dbg !13321
  %3 = load i64, i64* %__n.addr, align 8, !dbg !13322
  call void @_ZN9__gnu_cxx13new_allocatorIN5boost10shared_ptrIKN6dealii10QuadratureILi2EEEEEE10deallocateEPS7_m(%"class.__gnu_cxx::new_allocator.141"* %1, %"class.boost::shared_ptr.143"* %2, i64 %3), !dbg !13323
  ret void, !dbg !13324
}

; Function Attrs: noinline nounwind uwtable
define linkonce_odr dso_local void @_ZN9__gnu_cxx13new_allocatorIN5boost10shared_ptrIKN6dealii10QuadratureILi2EEEEEE10deallocateEPS7_m(%"class.__gnu_cxx::new_allocator.141"* %this, %"class.boost::shared_ptr.143"* %__p, i64 %__t) #1 comdat align 2 !dbg !13325 {
entry:
  %this.addr = alloca %"class.__gnu_cxx::new_allocator.141"*, align 8
  %__p.addr = alloca %"class.boost::shared_ptr.143"*, align 8
  %__t.addr = alloca i64, align 8
  store %"class.__gnu_cxx::new_allocator.141"* %this, %"class.__gnu_cxx::new_allocator.141"** %this.addr, align 8
  call void @llvm.dbg.declare(metadata %"class.__gnu_cxx::new_allocator.141"** %this.addr, metadata !13326, metadata !DIExpression()), !dbg !13328
  store %"class.boost::shared_ptr.143"* %__p, %"class.boost::shared_ptr.143"** %__p.addr, align 8
  call void @llvm.dbg.declare(metadata %"class.boost::shared_ptr.143"** %__p.addr, metadata !13329, metadata !DIExpression()), !dbg !13330
  store i64 %__t, i64* %__t.addr, align 8
  call void @llvm.dbg.declare(metadata i64* %__t.addr, metadata !13331, metadata !DIExpression()), !dbg !13332
  %this1 = load %"class.__gnu_cxx::new_allocator.141"*, %"class.__gnu_cxx::new_allocator.141"** %this.addr, align 8
  %0 = load %"class.boost::shared_ptr.143"*, %"class.boost::shared_ptr.143"** %__p.addr, align 8, !dbg !13333
  %1 = bitcast %"class.boost::shared_ptr.143"* %0 to i8*, !dbg !13333
  call void @_ZdlPv(i8* %1) #4, !dbg !13334
  ret void, !dbg !13335
}

; Function Attrs: noinline nounwind uwtable
define linkonce_odr dso_local void @_ZN9__gnu_cxx13new_allocatorIN5boost10shared_ptrIKN6dealii10QuadratureILi2EEEEEED2Ev(%"class.__gnu_cxx::new_allocator.141"* %this) unnamed_addr #1 comdat align 2 !dbg !13336 {
entry:
  %this.addr = alloca %"class.__gnu_cxx::new_allocator.141"*, align 8
  store %"class.__gnu_cxx::new_allocator.141"* %this, %"class.__gnu_cxx::new_allocator.141"** %this.addr, align 8
  call void @llvm.dbg.declare(metadata %"class.__gnu_cxx::new_allocator.141"** %this.addr, metadata !13337, metadata !DIExpression()), !dbg !13338
  %this1 = load %"class.__gnu_cxx::new_allocator.141"*, %"class.__gnu_cxx::new_allocator.141"** %this.addr, align 8
  ret void, !dbg !13339
}

; Function Attrs: noinline nounwind uwtable
define linkonce_odr dso_local void @_ZN6dealii9TableBaseILi3EN5boost10shared_ptrINS_15FESubfaceValuesILi3ELi3EEEEEED2Ev(%"class.dealii::TableBase.150"* %this) unnamed_addr #1 comdat align 2 !dbg !13340 {
entry:
  %this.addr = alloca %"class.dealii::TableBase.150"*, align 8
  store %"class.dealii::TableBase.150"* %this, %"class.dealii::TableBase.150"** %this.addr, align 8
  call void @llvm.dbg.declare(metadata %"class.dealii::TableBase.150"** %this.addr, metadata !13341, metadata !DIExpression()), !dbg !13343
  %this1 = load %"class.dealii::TableBase.150"*, %"class.dealii::TableBase.150"** %this.addr, align 8
  %0 = bitcast %"class.dealii::TableBase.150"* %this1 to i32 (...)***, !dbg !13344
  store i32 (...)** bitcast (i8** getelementptr inbounds ({ [4 x i8*] }, { [4 x i8*] }* @_ZTVN6dealii9TableBaseILi3EN5boost10shared_ptrINS_15FESubfaceValuesILi3ELi3EEEEEEE, i32 0, inrange i32 0, i32 2) to i32 (...)**), i32 (...)*** %0, align 8, !dbg !13344
  %val = getelementptr inbounds %"class.dealii::TableBase.150", %"class.dealii::TableBase.150"* %this1, i32 0, i32 1, !dbg !13345
  %1 = load %"class.boost::shared_ptr.151"*, %"class.boost::shared_ptr.151"** %val, align 8, !dbg !13345
  %cmp = icmp ne %"class.boost::shared_ptr.151"* %1, null, !dbg !13348
  br i1 %cmp, label %if.then, label %if.end, !dbg !13349

if.then:                                          ; preds = %entry
  %val2 = getelementptr inbounds %"class.dealii::TableBase.150", %"class.dealii::TableBase.150"* %this1, i32 0, i32 1, !dbg !13350
  %2 = load %"class.boost::shared_ptr.151"*, %"class.boost::shared_ptr.151"** %val2, align 8, !dbg !13350
  %isnull = icmp eq %"class.boost::shared_ptr.151"* %2, null, !dbg !13351
  br i1 %isnull, label %delete.end4, label %delete.notnull, !dbg !13351

delete.notnull:                                   ; preds = %if.then
  %3 = bitcast %"class.boost::shared_ptr.151"* %2 to i8*, !dbg !13351
  %4 = getelementptr inbounds i8, i8* %3, i64 -8, !dbg !13351
  %5 = bitcast i8* %4 to i64*, !dbg !13351
  %6 = load i64, i64* %5, align 8, !dbg !13351
  %delete.end = getelementptr inbounds %"class.boost::shared_ptr.151", %"class.boost::shared_ptr.151"* %2, i64 %6, !dbg !13351
  %arraydestroy.isempty = icmp eq %"class.boost::shared_ptr.151"* %2, %delete.end, !dbg !13351
  br i1 %arraydestroy.isempty, label %arraydestroy.done3, label %arraydestroy.body, !dbg !13351

arraydestroy.body:                                ; preds = %arraydestroy.body, %delete.notnull
  %arraydestroy.elementPast = phi %"class.boost::shared_ptr.151"* [ %delete.end, %delete.notnull ], [ %arraydestroy.element, %arraydestroy.body ], !dbg !13351
  %arraydestroy.element = getelementptr inbounds %"class.boost::shared_ptr.151", %"class.boost::shared_ptr.151"* %arraydestroy.elementPast, i64 -1, !dbg !13351
  call void @_ZN5boost10shared_ptrIN6dealii15FESubfaceValuesILi3ELi3EEEED2Ev(%"class.boost::shared_ptr.151"* %arraydestroy.element) #4, !dbg !13351
  %arraydestroy.done = icmp eq %"class.boost::shared_ptr.151"* %arraydestroy.element, %2, !dbg !13351
  br i1 %arraydestroy.done, label %arraydestroy.done3, label %arraydestroy.body, !dbg !13351

arraydestroy.done3:                               ; preds = %arraydestroy.body, %delete.notnull
  call void @_ZdaPv(i8* %4) #14, !dbg !13351
  br label %delete.end4, !dbg !13351

delete.end4:                                      ; preds = %arraydestroy.done3, %if.then
  br label %if.end, !dbg !13351

if.end:                                           ; preds = %delete.end4, %entry
  %7 = bitcast %"class.dealii::TableBase.150"* %this1 to %"class.dealii::Subscriptor"*, !dbg !13352
  call void @_ZN6dealii11SubscriptorD2Ev(%"class.dealii::Subscriptor"* %7) #4, !dbg !13352
  ret void, !dbg !13353
}

; Function Attrs: noinline nounwind uwtable
define linkonce_odr dso_local void @_ZN6dealii9TableBaseILi3EN5boost10shared_ptrINS_15FESubfaceValuesILi3ELi3EEEEEED0Ev(%"class.dealii::TableBase.150"* %this) unnamed_addr #1 comdat align 2 !dbg !13354 {
entry:
  %this.addr = alloca %"class.dealii::TableBase.150"*, align 8
  store %"class.dealii::TableBase.150"* %this, %"class.dealii::TableBase.150"** %this.addr, align 8
  call void @llvm.dbg.declare(metadata %"class.dealii::TableBase.150"** %this.addr, metadata !13355, metadata !DIExpression()), !dbg !13356
  %this1 = load %"class.dealii::TableBase.150"*, %"class.dealii::TableBase.150"** %this.addr, align 8
  call void @_ZN6dealii9TableBaseILi3EN5boost10shared_ptrINS_15FESubfaceValuesILi3ELi3EEEEEED2Ev(%"class.dealii::TableBase.150"* %this1) #4, !dbg !13357
  %0 = bitcast %"class.dealii::TableBase.150"* %this1 to i8*, !dbg !13357
  call void @_ZdlPv(i8* %0) #14, !dbg !13357
  ret void, !dbg !13358
}

; Function Attrs: noinline nounwind uwtable
define linkonce_odr dso_local void @_ZNK6dealii11Subscriptor9subscribeEPKc(%"class.dealii::Subscriptor"* %this, i8* %0) #1 comdat align 2 !dbg !13359 {
entry:
  %this.addr = alloca %"class.dealii::Subscriptor"*, align 8
  %.addr = alloca i8*, align 8
  store %"class.dealii::Subscriptor"* %this, %"class.dealii::Subscriptor"** %this.addr, align 8
  call void @llvm.dbg.declare(metadata %"class.dealii::Subscriptor"** %this.addr, metadata !13365, metadata !DIExpression()), !dbg !13367
  store i8* %0, i8** %.addr, align 8
  call void @llvm.dbg.declare(metadata i8** %.addr, metadata !13368, metadata !DIExpression()), !dbg !13369
  %this1 = load %"class.dealii::Subscriptor"*, %"class.dealii::Subscriptor"** %this.addr, align 8
  ret void, !dbg !13370
}

declare dso_local void @_ZN6dealii11SubscriptorC2Ev(%"class.dealii::Subscriptor"*) unnamed_addr #2

; Function Attrs: noinline uwtable
define linkonce_odr dso_local void @_ZNSt6vectorIN5boost10shared_ptrIKN6dealii10QuadratureILi3EEEEESaIS6_EEC2ERKS8_(%"class.std::vector.26"* %this, %"class.std::vector.26"* dereferenceable(24) %__x) unnamed_addr #0 comdat align 2 personality i8* bitcast (i32 (...)* @__gxx_personality_v0 to i8*) !dbg !13371 {
entry:
  %this.addr = alloca %"class.std::vector.26"*, align 8
  %__x.addr = alloca %"class.std::vector.26"*, align 8
  %ref.tmp = alloca %"class.std::allocator.28", align 1
  %exn.slot = alloca i8*
  %ehselector.slot = alloca i32
  %agg.tmp = alloca %"class.__gnu_cxx::__normal_iterator", align 8
  %agg.tmp4 = alloca %"class.__gnu_cxx::__normal_iterator", align 8
  store %"class.std::vector.26"* %this, %"class.std::vector.26"** %this.addr, align 8
  call void @llvm.dbg.declare(metadata %"class.std::vector.26"** %this.addr, metadata !13372, metadata !DIExpression()), !dbg !13373
  store %"class.std::vector.26"* %__x, %"class.std::vector.26"** %__x.addr, align 8
  call void @llvm.dbg.declare(metadata %"class.std::vector.26"** %__x.addr, metadata !13374, metadata !DIExpression()), !dbg !13375
  %this1 = load %"class.std::vector.26"*, %"class.std::vector.26"** %this.addr, align 8
  %0 = bitcast %"class.std::vector.26"* %this1 to %"struct.std::_Vector_base.27"*, !dbg !13376
  %1 = load %"class.std::vector.26"*, %"class.std::vector.26"** %__x.addr, align 8, !dbg !13377
  %call = call i64 @_ZNKSt6vectorIN5boost10shared_ptrIKN6dealii10QuadratureILi3EEEEESaIS6_EE4sizeEv(%"class.std::vector.26"* %1) #4, !dbg !13378
  %2 = load %"class.std::vector.26"*, %"class.std::vector.26"** %__x.addr, align 8, !dbg !13379
  %3 = bitcast %"class.std::vector.26"* %2 to %"struct.std::_Vector_base.27"*, !dbg !13379
  %call2 = call dereferenceable(1) %"class.std::allocator.28"* @_ZNKSt12_Vector_baseIN5boost10shared_ptrIKN6dealii10QuadratureILi3EEEEESaIS6_EE19_M_get_Tp_allocatorEv(%"struct.std::_Vector_base.27"* %3) #4, !dbg !13380
  call void @_ZN9__gnu_cxx14__alloc_traitsISaIN5boost10shared_ptrIKN6dealii10QuadratureILi3EEEEEES7_E17_S_select_on_copyERKS8_(%"class.std::allocator.28"* sret %ref.tmp, %"class.std::allocator.28"* dereferenceable(1) %call2), !dbg !13381
  invoke void @_ZNSt12_Vector_baseIN5boost10shared_ptrIKN6dealii10QuadratureILi3EEEEESaIS6_EEC2EmRKS7_(%"struct.std::_Vector_base.27"* %0, i64 %call, %"class.std::allocator.28"* dereferenceable(1) %ref.tmp)
          to label %invoke.cont unwind label %lpad, !dbg !13382

invoke.cont:                                      ; preds = %entry
  call void @_ZNSaIN5boost10shared_ptrIKN6dealii10QuadratureILi3EEEEEED2Ev(%"class.std::allocator.28"* %ref.tmp) #4, !dbg !13382
  %4 = load %"class.std::vector.26"*, %"class.std::vector.26"** %__x.addr, align 8, !dbg !13383
  %call3 = call %"class.boost::shared_ptr.31"* @_ZNKSt6vectorIN5boost10shared_ptrIKN6dealii10QuadratureILi3EEEEESaIS6_EE5beginEv(%"class.std::vector.26"* %4) #4, !dbg !13385
  %coerce.dive = getelementptr inbounds %"class.__gnu_cxx::__normal_iterator", %"class.__gnu_cxx::__normal_iterator"* %agg.tmp, i32 0, i32 0, !dbg !13385
  store %"class.boost::shared_ptr.31"* %call3, %"class.boost::shared_ptr.31"** %coerce.dive, align 8, !dbg !13385
  %5 = load %"class.std::vector.26"*, %"class.std::vector.26"** %__x.addr, align 8, !dbg !13386
  %call5 = call %"class.boost::shared_ptr.31"* @_ZNKSt6vectorIN5boost10shared_ptrIKN6dealii10QuadratureILi3EEEEESaIS6_EE3endEv(%"class.std::vector.26"* %5) #4, !dbg !13387
  %coerce.dive6 = getelementptr inbounds %"class.__gnu_cxx::__normal_iterator", %"class.__gnu_cxx::__normal_iterator"* %agg.tmp4, i32 0, i32 0, !dbg !13387
  store %"class.boost::shared_ptr.31"* %call5, %"class.boost::shared_ptr.31"** %coerce.dive6, align 8, !dbg !13387
  %6 = bitcast %"class.std::vector.26"* %this1 to %"struct.std::_Vector_base.27"*, !dbg !13388
  %_M_impl = getelementptr inbounds %"struct.std::_Vector_base.27", %"struct.std::_Vector_base.27"* %6, i32 0, i32 0, !dbg !13388
  %7 = bitcast %"struct.std::_Vector_base<boost::shared_ptr<const dealii::Quadrature<3> >, std::allocator<boost::shared_ptr<const dealii::Quadrature<3> > > >::_Vector_impl"* %_M_impl to %"struct.std::_Vector_base<boost::shared_ptr<const dealii::Quadrature<3> >, std::allocator<boost::shared_ptr<const dealii::Quadrature<3> > > >::_Vector_impl_data"*, !dbg !13389
  %_M_start = getelementptr inbounds %"struct.std::_Vector_base<boost::shared_ptr<const dealii::Quadrature<3> >, std::allocator<boost::shared_ptr<const dealii::Quadrature<3> > > >::_Vector_impl_data", %"struct.std::_Vector_base<boost::shared_ptr<const dealii::Quadrature<3> >, std::allocator<boost::shared_ptr<const dealii::Quadrature<3> > > >::_Vector_impl_data"* %7, i32 0, i32 0, !dbg !13390
  %8 = load %"class.boost::shared_ptr.31"*, %"class.boost::shared_ptr.31"** %_M_start, align 8, !dbg !13390
  %9 = bitcast %"class.std::vector.26"* %this1 to %"struct.std::_Vector_base.27"*, !dbg !13391
  %call7 = call dereferenceable(1) %"class.std::allocator.28"* @_ZNSt12_Vector_baseIN5boost10shared_ptrIKN6dealii10QuadratureILi3EEEEESaIS6_EE19_M_get_Tp_allocatorEv(%"struct.std::_Vector_base.27"* %9) #4, !dbg !13391
  %coerce.dive8 = getelementptr inbounds %"class.__gnu_cxx::__normal_iterator", %"class.__gnu_cxx::__normal_iterator"* %agg.tmp, i32 0, i32 0, !dbg !13392
  %10 = load %"class.boost::shared_ptr.31"*, %"class.boost::shared_ptr.31"** %coerce.dive8, align 8, !dbg !13392
  %coerce.dive9 = getelementptr inbounds %"class.__gnu_cxx::__normal_iterator", %"class.__gnu_cxx::__normal_iterator"* %agg.tmp4, i32 0, i32 0, !dbg !13392
  %11 = load %"class.boost::shared_ptr.31"*, %"class.boost::shared_ptr.31"** %coerce.dive9, align 8, !dbg !13392
  %call12 = invoke %"class.boost::shared_ptr.31"* @_ZSt22__uninitialized_copy_aIN9__gnu_cxx17__normal_iteratorIPKN5boost10shared_ptrIKN6dealii10QuadratureILi3EEEEESt6vectorIS8_SaIS8_EEEEPS8_S8_ET0_T_SH_SG_RSaIT1_E(%"class.boost::shared_ptr.31"* %10, %"class.boost::shared_ptr.31"* %11, %"class.boost::shared_ptr.31"* %8, %"class.std::allocator.28"* dereferenceable(1) %call7)
          to label %invoke.cont11 unwind label %lpad10, !dbg !13392

invoke.cont11:                                    ; preds = %invoke.cont
  %12 = bitcast %"class.std::vector.26"* %this1 to %"struct.std::_Vector_base.27"*, !dbg !13393
  %_M_impl13 = getelementptr inbounds %"struct.std::_Vector_base.27", %"struct.std::_Vector_base.27"* %12, i32 0, i32 0, !dbg !13393
  %13 = bitcast %"struct.std::_Vector_base<boost::shared_ptr<const dealii::Quadrature<3> >, std::allocator<boost::shared_ptr<const dealii::Quadrature<3> > > >::_Vector_impl"* %_M_impl13 to %"struct.std::_Vector_base<boost::shared_ptr<const dealii::Quadrature<3> >, std::allocator<boost::shared_ptr<const dealii::Quadrature<3> > > >::_Vector_impl_data"*, !dbg !13394
  %_M_finish = getelementptr inbounds %"struct.std::_Vector_base<boost::shared_ptr<const dealii::Quadrature<3> >, std::allocator<boost::shared_ptr<const dealii::Quadrature<3> > > >::_Vector_impl_data", %"struct.std::_Vector_base<boost::shared_ptr<const dealii::Quadrature<3> >, std::allocator<boost::shared_ptr<const dealii::Quadrature<3> > > >::_Vector_impl_data"* %13, i32 0, i32 1, !dbg !13395
  store %"class.boost::shared_ptr.31"* %call12, %"class.boost::shared_ptr.31"** %_M_finish, align 8, !dbg !13396
  ret void, !dbg !13397

lpad:                                             ; preds = %entry
  %14 = landingpad { i8*, i32 }
          cleanup, !dbg !13397
  %15 = extractvalue { i8*, i32 } %14, 0, !dbg !13397
  store i8* %15, i8** %exn.slot, align 8, !dbg !13397
  %16 = extractvalue { i8*, i32 } %14, 1, !dbg !13397
  store i32 %16, i32* %ehselector.slot, align 4, !dbg !13397
  call void @_ZNSaIN5boost10shared_ptrIKN6dealii10QuadratureILi3EEEEEED2Ev(%"class.std::allocator.28"* %ref.tmp) #4, !dbg !13382
  br label %eh.resume, !dbg !13382

lpad10:                                           ; preds = %invoke.cont
  %17 = landingpad { i8*, i32 }
          cleanup, !dbg !13398
  %18 = extractvalue { i8*, i32 } %17, 0, !dbg !13398
  store i8* %18, i8** %exn.slot, align 8, !dbg !13398
  %19 = extractvalue { i8*, i32 } %17, 1, !dbg !13398
  store i32 %19, i32* %ehselector.slot, align 4, !dbg !13398
  %20 = bitcast %"class.std::vector.26"* %this1 to %"struct.std::_Vector_base.27"*, !dbg !13398
  call void @_ZNSt12_Vector_baseIN5boost10shared_ptrIKN6dealii10QuadratureILi3EEEEESaIS6_EED2Ev(%"struct.std::_Vector_base.27"* %20) #4, !dbg !13398
  br label %eh.resume, !dbg !13398

eh.resume:                                        ; preds = %lpad10, %lpad
  %exn = load i8*, i8** %exn.slot, align 8, !dbg !13382
  %sel = load i32, i32* %ehselector.slot, align 4, !dbg !13382
  %lpad.val = insertvalue { i8*, i32 } undef, i8* %exn, 0, !dbg !13382
  %lpad.val14 = insertvalue { i8*, i32 } %lpad.val, i32 %sel, 1, !dbg !13382
  resume { i8*, i32 } %lpad.val14, !dbg !13382
}

; Function Attrs: noinline nounwind uwtable
define linkonce_odr dso_local i64 @_ZNKSt6vectorIN5boost10shared_ptrIKN6dealii10QuadratureILi3EEEEESaIS6_EE4sizeEv(%"class.std::vector.26"* %this) #1 comdat align 2 !dbg !13399 {
entry:
  %this.addr = alloca %"class.std::vector.26"*, align 8
  store %"class.std::vector.26"* %this, %"class.std::vector.26"** %this.addr, align 8
  call void @llvm.dbg.declare(metadata %"class.std::vector.26"** %this.addr, metadata !13400, metadata !DIExpression()), !dbg !13402
  %this1 = load %"class.std::vector.26"*, %"class.std::vector.26"** %this.addr, align 8
  %0 = bitcast %"class.std::vector.26"* %this1 to %"struct.std::_Vector_base.27"*, !dbg !13403
  %_M_impl = getelementptr inbounds %"struct.std::_Vector_base.27", %"struct.std::_Vector_base.27"* %0, i32 0, i32 0, !dbg !13403
  %1 = bitcast %"struct.std::_Vector_base<boost::shared_ptr<const dealii::Quadrature<3> >, std::allocator<boost::shared_ptr<const dealii::Quadrature<3> > > >::_Vector_impl"* %_M_impl to %"struct.std::_Vector_base<boost::shared_ptr<const dealii::Quadrature<3> >, std::allocator<boost::shared_ptr<const dealii::Quadrature<3> > > >::_Vector_impl_data"*, !dbg !13404
  %_M_finish = getelementptr inbounds %"struct.std::_Vector_base<boost::shared_ptr<const dealii::Quadrature<3> >, std::allocator<boost::shared_ptr<const dealii::Quadrature<3> > > >::_Vector_impl_data", %"struct.std::_Vector_base<boost::shared_ptr<const dealii::Quadrature<3> >, std::allocator<boost::shared_ptr<const dealii::Quadrature<3> > > >::_Vector_impl_data"* %1, i32 0, i32 1, !dbg !13405
  %2 = load %"class.boost::shared_ptr.31"*, %"class.boost::shared_ptr.31"** %_M_finish, align 8, !dbg !13405
  %3 = bitcast %"class.std::vector.26"* %this1 to %"struct.std::_Vector_base.27"*, !dbg !13406
  %_M_impl2 = getelementptr inbounds %"struct.std::_Vector_base.27", %"struct.std::_Vector_base.27"* %3, i32 0, i32 0, !dbg !13406
  %4 = bitcast %"struct.std::_Vector_base<boost::shared_ptr<const dealii::Quadrature<3> >, std::allocator<boost::shared_ptr<const dealii::Quadrature<3> > > >::_Vector_impl"* %_M_impl2 to %"struct.std::_Vector_base<boost::shared_ptr<const dealii::Quadrature<3> >, std::allocator<boost::shared_ptr<const dealii::Quadrature<3> > > >::_Vector_impl_data"*, !dbg !13407
  %_M_start = getelementptr inbounds %"struct.std::_Vector_base<boost::shared_ptr<const dealii::Quadrature<3> >, std::allocator<boost::shared_ptr<const dealii::Quadrature<3> > > >::_Vector_impl_data", %"struct.std::_Vector_base<boost::shared_ptr<const dealii::Quadrature<3> >, std::allocator<boost::shared_ptr<const dealii::Quadrature<3> > > >::_Vector_impl_data"* %4, i32 0, i32 0, !dbg !13408
  %5 = load %"class.boost::shared_ptr.31"*, %"class.boost::shared_ptr.31"** %_M_start, align 8, !dbg !13408
  %sub.ptr.lhs.cast = ptrtoint %"class.boost::shared_ptr.31"* %2 to i64, !dbg !13409
  %sub.ptr.rhs.cast = ptrtoint %"class.boost::shared_ptr.31"* %5 to i64, !dbg !13409
  %sub.ptr.sub = sub i64 %sub.ptr.lhs.cast, %sub.ptr.rhs.cast, !dbg !13409
  %sub.ptr.div = sdiv exact i64 %sub.ptr.sub, 16, !dbg !13409
  ret i64 %sub.ptr.div, !dbg !13410
}

; Function Attrs: noinline uwtable
define linkonce_odr dso_local void @_ZN9__gnu_cxx14__alloc_traitsISaIN5boost10shared_ptrIKN6dealii10QuadratureILi3EEEEEES7_E17_S_select_on_copyERKS8_(%"class.std::allocator.28"* noalias sret %agg.result, %"class.std::allocator.28"* dereferenceable(1) %__a) #0 comdat align 2 !dbg !13411 {
entry:
  %result.ptr = alloca i8*, align 8
  %__a.addr = alloca %"class.std::allocator.28"*, align 8
  %0 = bitcast %"class.std::allocator.28"* %agg.result to i8*
  store i8* %0, i8** %result.ptr, align 8
  store %"class.std::allocator.28"* %__a, %"class.std::allocator.28"** %__a.addr, align 8
  call void @llvm.dbg.declare(metadata %"class.std::allocator.28"** %__a.addr, metadata !13412, metadata !DIExpression()), !dbg !13413
  %1 = load %"class.std::allocator.28"*, %"class.std::allocator.28"** %__a.addr, align 8, !dbg !13414
  call void @_ZNSt16allocator_traitsISaIN5boost10shared_ptrIKN6dealii10QuadratureILi3EEEEEEE37select_on_container_copy_constructionERKS7_(%"class.std::allocator.28"* sret %agg.result, %"class.std::allocator.28"* dereferenceable(1) %1), !dbg !13415
  ret void, !dbg !13416
}

; Function Attrs: noinline nounwind uwtable
define linkonce_odr dso_local dereferenceable(1) %"class.std::allocator.28"* @_ZNKSt12_Vector_baseIN5boost10shared_ptrIKN6dealii10QuadratureILi3EEEEESaIS6_EE19_M_get_Tp_allocatorEv(%"struct.std::_Vector_base.27"* %this) #1 comdat align 2 !dbg !13417 {
entry:
  %this.addr = alloca %"struct.std::_Vector_base.27"*, align 8
  store %"struct.std::_Vector_base.27"* %this, %"struct.std::_Vector_base.27"** %this.addr, align 8
  call void @llvm.dbg.declare(metadata %"struct.std::_Vector_base.27"** %this.addr, metadata !13418, metadata !DIExpression()), !dbg !13420
  %this1 = load %"struct.std::_Vector_base.27"*, %"struct.std::_Vector_base.27"** %this.addr, align 8
  %_M_impl = getelementptr inbounds %"struct.std::_Vector_base.27", %"struct.std::_Vector_base.27"* %this1, i32 0, i32 0, !dbg !13421
  %0 = bitcast %"struct.std::_Vector_base<boost::shared_ptr<const dealii::Quadrature<3> >, std::allocator<boost::shared_ptr<const dealii::Quadrature<3> > > >::_Vector_impl"* %_M_impl to %"class.std::allocator.28"*, !dbg !13422
  ret %"class.std::allocator.28"* %0, !dbg !13423
}

; Function Attrs: noinline uwtable
define linkonce_odr dso_local void @_ZNSt12_Vector_baseIN5boost10shared_ptrIKN6dealii10QuadratureILi3EEEEESaIS6_EEC2EmRKS7_(%"struct.std::_Vector_base.27"* %this, i64 %__n, %"class.std::allocator.28"* dereferenceable(1) %__a) unnamed_addr #0 comdat align 2 personality i8* bitcast (i32 (...)* @__gxx_personality_v0 to i8*) !dbg !13424 {
entry:
  %this.addr = alloca %"struct.std::_Vector_base.27"*, align 8
  %__n.addr = alloca i64, align 8
  %__a.addr = alloca %"class.std::allocator.28"*, align 8
  %exn.slot = alloca i8*
  %ehselector.slot = alloca i32
  store %"struct.std::_Vector_base.27"* %this, %"struct.std::_Vector_base.27"** %this.addr, align 8
  call void @llvm.dbg.declare(metadata %"struct.std::_Vector_base.27"** %this.addr, metadata !13425, metadata !DIExpression()), !dbg !13426
  store i64 %__n, i64* %__n.addr, align 8
  call void @llvm.dbg.declare(metadata i64* %__n.addr, metadata !13427, metadata !DIExpression()), !dbg !13428
  store %"class.std::allocator.28"* %__a, %"class.std::allocator.28"** %__a.addr, align 8
  call void @llvm.dbg.declare(metadata %"class.std::allocator.28"** %__a.addr, metadata !13429, metadata !DIExpression()), !dbg !13430
  %this1 = load %"struct.std::_Vector_base.27"*, %"struct.std::_Vector_base.27"** %this.addr, align 8
  %_M_impl = getelementptr inbounds %"struct.std::_Vector_base.27", %"struct.std::_Vector_base.27"* %this1, i32 0, i32 0, !dbg !13431
  %0 = load %"class.std::allocator.28"*, %"class.std::allocator.28"** %__a.addr, align 8, !dbg !13432
  call void @_ZNSt12_Vector_baseIN5boost10shared_ptrIKN6dealii10QuadratureILi3EEEEESaIS6_EE12_Vector_implC2ERKS7_(%"struct.std::_Vector_base<boost::shared_ptr<const dealii::Quadrature<3> >, std::allocator<boost::shared_ptr<const dealii::Quadrature<3> > > >::_Vector_impl"* %_M_impl, %"class.std::allocator.28"* dereferenceable(1) %0) #4, !dbg !13431
  %1 = load i64, i64* %__n.addr, align 8, !dbg !13433
  invoke void @_ZNSt12_Vector_baseIN5boost10shared_ptrIKN6dealii10QuadratureILi3EEEEESaIS6_EE17_M_create_storageEm(%"struct.std::_Vector_base.27"* %this1, i64 %1)
          to label %invoke.cont unwind label %lpad, !dbg !13435

invoke.cont:                                      ; preds = %entry
  ret void, !dbg !13436

lpad:                                             ; preds = %entry
  %2 = landingpad { i8*, i32 }
          cleanup, !dbg !13437
  %3 = extractvalue { i8*, i32 } %2, 0, !dbg !13437
  store i8* %3, i8** %exn.slot, align 8, !dbg !13437
  %4 = extractvalue { i8*, i32 } %2, 1, !dbg !13437
  store i32 %4, i32* %ehselector.slot, align 4, !dbg !13437
  call void @_ZNSt12_Vector_baseIN5boost10shared_ptrIKN6dealii10QuadratureILi3EEEEESaIS6_EE12_Vector_implD2Ev(%"struct.std::_Vector_base<boost::shared_ptr<const dealii::Quadrature<3> >, std::allocator<boost::shared_ptr<const dealii::Quadrature<3> > > >::_Vector_impl"* %_M_impl) #4, !dbg !13437
  br label %eh.resume, !dbg !13437

eh.resume:                                        ; preds = %lpad
  %exn = load i8*, i8** %exn.slot, align 8, !dbg !13437
  %sel = load i32, i32* %ehselector.slot, align 4, !dbg !13437
  %lpad.val = insertvalue { i8*, i32 } undef, i8* %exn, 0, !dbg !13437
  %lpad.val2 = insertvalue { i8*, i32 } %lpad.val, i32 %sel, 1, !dbg !13437
  resume { i8*, i32 } %lpad.val2, !dbg !13437
}

; Function Attrs: noinline nounwind uwtable
define linkonce_odr dso_local void @_ZNSaIN5boost10shared_ptrIKN6dealii10QuadratureILi3EEEEEED2Ev(%"class.std::allocator.28"* %this) unnamed_addr #1 comdat align 2 !dbg !13438 {
entry:
  %this.addr = alloca %"class.std::allocator.28"*, align 8
  store %"class.std::allocator.28"* %this, %"class.std::allocator.28"** %this.addr, align 8
  call void @llvm.dbg.declare(metadata %"class.std::allocator.28"** %this.addr, metadata !13439, metadata !DIExpression()), !dbg !13441
  %this1 = load %"class.std::allocator.28"*, %"class.std::allocator.28"** %this.addr, align 8
  %0 = bitcast %"class.std::allocator.28"* %this1 to %"class.__gnu_cxx::new_allocator.29"*, !dbg !13442
  call void @_ZN9__gnu_cxx13new_allocatorIN5boost10shared_ptrIKN6dealii10QuadratureILi3EEEEEED2Ev(%"class.__gnu_cxx::new_allocator.29"* %0) #4, !dbg !13442
  ret void, !dbg !13444
}

; Function Attrs: noinline uwtable
define linkonce_odr dso_local %"class.boost::shared_ptr.31"* @_ZSt22__uninitialized_copy_aIN9__gnu_cxx17__normal_iteratorIPKN5boost10shared_ptrIKN6dealii10QuadratureILi3EEEEESt6vectorIS8_SaIS8_EEEEPS8_S8_ET0_T_SH_SG_RSaIT1_E(%"class.boost::shared_ptr.31"* %__first.coerce, %"class.boost::shared_ptr.31"* %__last.coerce, %"class.boost::shared_ptr.31"* %__result, %"class.std::allocator.28"* dereferenceable(1) %0) #0 comdat !dbg !13445 {
entry:
  %__first = alloca %"class.__gnu_cxx::__normal_iterator", align 8
  %__last = alloca %"class.__gnu_cxx::__normal_iterator", align 8
  %__result.addr = alloca %"class.boost::shared_ptr.31"*, align 8
  %.addr = alloca %"class.std::allocator.28"*, align 8
  %agg.tmp = alloca %"class.__gnu_cxx::__normal_iterator", align 8
  %agg.tmp2 = alloca %"class.__gnu_cxx::__normal_iterator", align 8
  %coerce.dive = getelementptr inbounds %"class.__gnu_cxx::__normal_iterator", %"class.__gnu_cxx::__normal_iterator"* %__first, i32 0, i32 0
  store %"class.boost::shared_ptr.31"* %__first.coerce, %"class.boost::shared_ptr.31"** %coerce.dive, align 8
  %coerce.dive1 = getelementptr inbounds %"class.__gnu_cxx::__normal_iterator", %"class.__gnu_cxx::__normal_iterator"* %__last, i32 0, i32 0
  store %"class.boost::shared_ptr.31"* %__last.coerce, %"class.boost::shared_ptr.31"** %coerce.dive1, align 8
  call void @llvm.dbg.declare(metadata %"class.__gnu_cxx::__normal_iterator"* %__first, metadata !13451, metadata !DIExpression()), !dbg !13452
  call void @llvm.dbg.declare(metadata %"class.__gnu_cxx::__normal_iterator"* %__last, metadata !13453, metadata !DIExpression()), !dbg !13454
  store %"class.boost::shared_ptr.31"* %__result, %"class.boost::shared_ptr.31"** %__result.addr, align 8
  call void @llvm.dbg.declare(metadata %"class.boost::shared_ptr.31"** %__result.addr, metadata !13455, metadata !DIExpression()), !dbg !13456
  store %"class.std::allocator.28"* %0, %"class.std::allocator.28"** %.addr, align 8
  call void @llvm.dbg.declare(metadata %"class.std::allocator.28"** %.addr, metadata !13457, metadata !DIExpression()), !dbg !13458
  %1 = bitcast %"class.__gnu_cxx::__normal_iterator"* %agg.tmp to i8*, !dbg !13459
  %2 = bitcast %"class.__gnu_cxx::__normal_iterator"* %__first to i8*, !dbg !13459
  call void @llvm.memcpy.p0i8.p0i8.i64(i8* align 8 %1, i8* align 8 %2, i64 8, i1 false), !dbg !13459
  %3 = bitcast %"class.__gnu_cxx::__normal_iterator"* %agg.tmp2 to i8*, !dbg !13460
  %4 = bitcast %"class.__gnu_cxx::__normal_iterator"* %__last to i8*, !dbg !13460
  call void @llvm.memcpy.p0i8.p0i8.i64(i8* align 8 %3, i8* align 8 %4, i64 8, i1 false), !dbg !13460
  %5 = load %"class.boost::shared_ptr.31"*, %"class.boost::shared_ptr.31"** %__result.addr, align 8, !dbg !13461
  %coerce.dive3 = getelementptr inbounds %"class.__gnu_cxx::__normal_iterator", %"class.__gnu_cxx::__normal_iterator"* %agg.tmp, i32 0, i32 0, !dbg !13462
  %6 = load %"class.boost::shared_ptr.31"*, %"class.boost::shared_ptr.31"** %coerce.dive3, align 8, !dbg !13462
  %coerce.dive4 = getelementptr inbounds %"class.__gnu_cxx::__normal_iterator", %"class.__gnu_cxx::__normal_iterator"* %agg.tmp2, i32 0, i32 0, !dbg !13462
  %7 = load %"class.boost::shared_ptr.31"*, %"class.boost::shared_ptr.31"** %coerce.dive4, align 8, !dbg !13462
  %call = call %"class.boost::shared_ptr.31"* @_ZSt18uninitialized_copyIN9__gnu_cxx17__normal_iteratorIPKN5boost10shared_ptrIKN6dealii10QuadratureILi3EEEEESt6vectorIS8_SaIS8_EEEEPS8_ET0_T_SH_SG_(%"class.boost::shared_ptr.31"* %6, %"class.boost::shared_ptr.31"* %7, %"class.boost::shared_ptr.31"* %5), !dbg !13462
  ret %"class.boost::shared_ptr.31"* %call, !dbg !13463
}

; Function Attrs: noinline nounwind uwtable
define linkonce_odr dso_local %"class.boost::shared_ptr.31"* @_ZNKSt6vectorIN5boost10shared_ptrIKN6dealii10QuadratureILi3EEEEESaIS6_EE5beginEv(%"class.std::vector.26"* %this) #1 comdat align 2 !dbg !13464 {
entry:
  %retval = alloca %"class.__gnu_cxx::__normal_iterator", align 8
  %this.addr = alloca %"class.std::vector.26"*, align 8
  store %"class.std::vector.26"* %this, %"class.std::vector.26"** %this.addr, align 8
  call void @llvm.dbg.declare(metadata %"class.std::vector.26"** %this.addr, metadata !13465, metadata !DIExpression()), !dbg !13466
  %this1 = load %"class.std::vector.26"*, %"class.std::vector.26"** %this.addr, align 8
  %0 = bitcast %"class.std::vector.26"* %this1 to %"struct.std::_Vector_base.27"*, !dbg !13467
  %_M_impl = getelementptr inbounds %"struct.std::_Vector_base.27", %"struct.std::_Vector_base.27"* %0, i32 0, i32 0, !dbg !13467
  %1 = bitcast %"struct.std::_Vector_base<boost::shared_ptr<const dealii::Quadrature<3> >, std::allocator<boost::shared_ptr<const dealii::Quadrature<3> > > >::_Vector_impl"* %_M_impl to %"struct.std::_Vector_base<boost::shared_ptr<const dealii::Quadrature<3> >, std::allocator<boost::shared_ptr<const dealii::Quadrature<3> > > >::_Vector_impl_data"*, !dbg !13468
  %_M_start = getelementptr inbounds %"struct.std::_Vector_base<boost::shared_ptr<const dealii::Quadrature<3> >, std::allocator<boost::shared_ptr<const dealii::Quadrature<3> > > >::_Vector_impl_data", %"struct.std::_Vector_base<boost::shared_ptr<const dealii::Quadrature<3> >, std::allocator<boost::shared_ptr<const dealii::Quadrature<3> > > >::_Vector_impl_data"* %1, i32 0, i32 0, !dbg !13469
  call void @_ZN9__gnu_cxx17__normal_iteratorIPKN5boost10shared_ptrIKN6dealii10QuadratureILi3EEEEESt6vectorIS7_SaIS7_EEEC2ERKS9_(%"class.__gnu_cxx::__normal_iterator"* %retval, %"class.boost::shared_ptr.31"** dereferenceable(8) %_M_start) #4, !dbg !13470
  %coerce.dive = getelementptr inbounds %"class.__gnu_cxx::__normal_iterator", %"class.__gnu_cxx::__normal_iterator"* %retval, i32 0, i32 0, !dbg !13471
  %2 = load %"class.boost::shared_ptr.31"*, %"class.boost::shared_ptr.31"** %coerce.dive, align 8, !dbg !13471
  ret %"class.boost::shared_ptr.31"* %2, !dbg !13471
}

; Function Attrs: noinline nounwind uwtable
define linkonce_odr dso_local %"class.boost::shared_ptr.31"* @_ZNKSt6vectorIN5boost10shared_ptrIKN6dealii10QuadratureILi3EEEEESaIS6_EE3endEv(%"class.std::vector.26"* %this) #1 comdat align 2 !dbg !13472 {
entry:
  %retval = alloca %"class.__gnu_cxx::__normal_iterator", align 8
  %this.addr = alloca %"class.std::vector.26"*, align 8
  store %"class.std::vector.26"* %this, %"class.std::vector.26"** %this.addr, align 8
  call void @llvm.dbg.declare(metadata %"class.std::vector.26"** %this.addr, metadata !13473, metadata !DIExpression()), !dbg !13474
  %this1 = load %"class.std::vector.26"*, %"class.std::vector.26"** %this.addr, align 8
  %0 = bitcast %"class.std::vector.26"* %this1 to %"struct.std::_Vector_base.27"*, !dbg !13475
  %_M_impl = getelementptr inbounds %"struct.std::_Vector_base.27", %"struct.std::_Vector_base.27"* %0, i32 0, i32 0, !dbg !13475
  %1 = bitcast %"struct.std::_Vector_base<boost::shared_ptr<const dealii::Quadrature<3> >, std::allocator<boost::shared_ptr<const dealii::Quadrature<3> > > >::_Vector_impl"* %_M_impl to %"struct.std::_Vector_base<boost::shared_ptr<const dealii::Quadrature<3> >, std::allocator<boost::shared_ptr<const dealii::Quadrature<3> > > >::_Vector_impl_data"*, !dbg !13476
  %_M_finish = getelementptr inbounds %"struct.std::_Vector_base<boost::shared_ptr<const dealii::Quadrature<3> >, std::allocator<boost::shared_ptr<const dealii::Quadrature<3> > > >::_Vector_impl_data", %"struct.std::_Vector_base<boost::shared_ptr<const dealii::Quadrature<3> >, std::allocator<boost::shared_ptr<const dealii::Quadrature<3> > > >::_Vector_impl_data"* %1, i32 0, i32 1, !dbg !13477
  call void @_ZN9__gnu_cxx17__normal_iteratorIPKN5boost10shared_ptrIKN6dealii10QuadratureILi3EEEEESt6vectorIS7_SaIS7_EEEC2ERKS9_(%"class.__gnu_cxx::__normal_iterator"* %retval, %"class.boost::shared_ptr.31"** dereferenceable(8) %_M_finish) #4, !dbg !13478
  %coerce.dive = getelementptr inbounds %"class.__gnu_cxx::__normal_iterator", %"class.__gnu_cxx::__normal_iterator"* %retval, i32 0, i32 0, !dbg !13479
  %2 = load %"class.boost::shared_ptr.31"*, %"class.boost::shared_ptr.31"** %coerce.dive, align 8, !dbg !13479
  ret %"class.boost::shared_ptr.31"* %2, !dbg !13479
}

; Function Attrs: noinline nounwind uwtable
define linkonce_odr dso_local void @_ZNSt16allocator_traitsISaIN5boost10shared_ptrIKN6dealii10QuadratureILi3EEEEEEE37select_on_container_copy_constructionERKS7_(%"class.std::allocator.28"* noalias sret %agg.result, %"class.std::allocator.28"* dereferenceable(1) %__rhs) #1 comdat align 2 !dbg !13480 {
entry:
  %result.ptr = alloca i8*, align 8
  %__rhs.addr = alloca %"class.std::allocator.28"*, align 8
  %0 = bitcast %"class.std::allocator.28"* %agg.result to i8*
  store i8* %0, i8** %result.ptr, align 8
  store %"class.std::allocator.28"* %__rhs, %"class.std::allocator.28"** %__rhs.addr, align 8
  call void @llvm.dbg.declare(metadata %"class.std::allocator.28"** %__rhs.addr, metadata !13481, metadata !DIExpression()), !dbg !13482
  %1 = load %"class.std::allocator.28"*, %"class.std::allocator.28"** %__rhs.addr, align 8, !dbg !13483
  call void @_ZNSaIN5boost10shared_ptrIKN6dealii10QuadratureILi3EEEEEEC2ERKS6_(%"class.std::allocator.28"* %agg.result, %"class.std::allocator.28"* dereferenceable(1) %1) #4, !dbg !13483
  ret void, !dbg !13484
}

; Function Attrs: noinline nounwind uwtable
define linkonce_odr dso_local void @_ZNSaIN5boost10shared_ptrIKN6dealii10QuadratureILi3EEEEEEC2ERKS6_(%"class.std::allocator.28"* %this, %"class.std::allocator.28"* dereferenceable(1) %__a) unnamed_addr #1 comdat align 2 !dbg !13485 {
entry:
  %this.addr = alloca %"class.std::allocator.28"*, align 8
  %__a.addr = alloca %"class.std::allocator.28"*, align 8
  store %"class.std::allocator.28"* %this, %"class.std::allocator.28"** %this.addr, align 8
  call void @llvm.dbg.declare(metadata %"class.std::allocator.28"** %this.addr, metadata !13486, metadata !DIExpression()), !dbg !13487
  store %"class.std::allocator.28"* %__a, %"class.std::allocator.28"** %__a.addr, align 8
  call void @llvm.dbg.declare(metadata %"class.std::allocator.28"** %__a.addr, metadata !13488, metadata !DIExpression()), !dbg !13489
  %this1 = load %"class.std::allocator.28"*, %"class.std::allocator.28"** %this.addr, align 8
  %0 = bitcast %"class.std::allocator.28"* %this1 to %"class.__gnu_cxx::new_allocator.29"*, !dbg !13490
  %1 = load %"class.std::allocator.28"*, %"class.std::allocator.28"** %__a.addr, align 8, !dbg !13491
  %2 = bitcast %"class.std::allocator.28"* %1 to %"class.__gnu_cxx::new_allocator.29"*, !dbg !13491
  call void @_ZN9__gnu_cxx13new_allocatorIN5boost10shared_ptrIKN6dealii10QuadratureILi3EEEEEEC2ERKS8_(%"class.__gnu_cxx::new_allocator.29"* %0, %"class.__gnu_cxx::new_allocator.29"* dereferenceable(1) %2) #4, !dbg !13492
  ret void, !dbg !13493
}

; Function Attrs: noinline nounwind uwtable
define linkonce_odr dso_local void @_ZN9__gnu_cxx13new_allocatorIN5boost10shared_ptrIKN6dealii10QuadratureILi3EEEEEEC2ERKS8_(%"class.__gnu_cxx::new_allocator.29"* %this, %"class.__gnu_cxx::new_allocator.29"* dereferenceable(1) %0) unnamed_addr #1 comdat align 2 !dbg !13494 {
entry:
  %this.addr = alloca %"class.__gnu_cxx::new_allocator.29"*, align 8
  %.addr = alloca %"class.__gnu_cxx::new_allocator.29"*, align 8
  store %"class.__gnu_cxx::new_allocator.29"* %this, %"class.__gnu_cxx::new_allocator.29"** %this.addr, align 8
  call void @llvm.dbg.declare(metadata %"class.__gnu_cxx::new_allocator.29"** %this.addr, metadata !13495, metadata !DIExpression()), !dbg !13496
  store %"class.__gnu_cxx::new_allocator.29"* %0, %"class.__gnu_cxx::new_allocator.29"** %.addr, align 8
  call void @llvm.dbg.declare(metadata %"class.__gnu_cxx::new_allocator.29"** %.addr, metadata !13497, metadata !DIExpression()), !dbg !13498
  %this1 = load %"class.__gnu_cxx::new_allocator.29"*, %"class.__gnu_cxx::new_allocator.29"** %this.addr, align 8
  ret void, !dbg !13499
}

; Function Attrs: noinline nounwind uwtable
define linkonce_odr dso_local void @_ZNSt12_Vector_baseIN5boost10shared_ptrIKN6dealii10QuadratureILi3EEEEESaIS6_EE12_Vector_implC2ERKS7_(%"struct.std::_Vector_base<boost::shared_ptr<const dealii::Quadrature<3> >, std::allocator<boost::shared_ptr<const dealii::Quadrature<3> > > >::_Vector_impl"* %this, %"class.std::allocator.28"* dereferenceable(1) %__a) unnamed_addr #1 comdat align 2 !dbg !13500 {
entry:
  %this.addr = alloca %"struct.std::_Vector_base<boost::shared_ptr<const dealii::Quadrature<3> >, std::allocator<boost::shared_ptr<const dealii::Quadrature<3> > > >::_Vector_impl"*, align 8
  %__a.addr = alloca %"class.std::allocator.28"*, align 8
  store %"struct.std::_Vector_base<boost::shared_ptr<const dealii::Quadrature<3> >, std::allocator<boost::shared_ptr<const dealii::Quadrature<3> > > >::_Vector_impl"* %this, %"struct.std::_Vector_base<boost::shared_ptr<const dealii::Quadrature<3> >, std::allocator<boost::shared_ptr<const dealii::Quadrature<3> > > >::_Vector_impl"** %this.addr, align 8
  call void @llvm.dbg.declare(metadata %"struct.std::_Vector_base<boost::shared_ptr<const dealii::Quadrature<3> >, std::allocator<boost::shared_ptr<const dealii::Quadrature<3> > > >::_Vector_impl"** %this.addr, metadata !13501, metadata !DIExpression()), !dbg !13502
  store %"class.std::allocator.28"* %__a, %"class.std::allocator.28"** %__a.addr, align 8
  call void @llvm.dbg.declare(metadata %"class.std::allocator.28"** %__a.addr, metadata !13503, metadata !DIExpression()), !dbg !13504
  %this1 = load %"struct.std::_Vector_base<boost::shared_ptr<const dealii::Quadrature<3> >, std::allocator<boost::shared_ptr<const dealii::Quadrature<3> > > >::_Vector_impl"*, %"struct.std::_Vector_base<boost::shared_ptr<const dealii::Quadrature<3> >, std::allocator<boost::shared_ptr<const dealii::Quadrature<3> > > >::_Vector_impl"** %this.addr, align 8
  %0 = bitcast %"struct.std::_Vector_base<boost::shared_ptr<const dealii::Quadrature<3> >, std::allocator<boost::shared_ptr<const dealii::Quadrature<3> > > >::_Vector_impl"* %this1 to %"class.std::allocator.28"*, !dbg !13505
  %1 = load %"class.std::allocator.28"*, %"class.std::allocator.28"** %__a.addr, align 8, !dbg !13506
  call void @_ZNSaIN5boost10shared_ptrIKN6dealii10QuadratureILi3EEEEEEC2ERKS6_(%"class.std::allocator.28"* %0, %"class.std::allocator.28"* dereferenceable(1) %1) #4, !dbg !13507
  %2 = bitcast %"struct.std::_Vector_base<boost::shared_ptr<const dealii::Quadrature<3> >, std::allocator<boost::shared_ptr<const dealii::Quadrature<3> > > >::_Vector_impl"* %this1 to %"struct.std::_Vector_base<boost::shared_ptr<const dealii::Quadrature<3> >, std::allocator<boost::shared_ptr<const dealii::Quadrature<3> > > >::_Vector_impl_data"*, !dbg !13505
  call void @_ZNSt12_Vector_baseIN5boost10shared_ptrIKN6dealii10QuadratureILi3EEEEESaIS6_EE17_Vector_impl_dataC2Ev(%"struct.std::_Vector_base<boost::shared_ptr<const dealii::Quadrature<3> >, std::allocator<boost::shared_ptr<const dealii::Quadrature<3> > > >::_Vector_impl_data"* %2) #4, !dbg !13508
  ret void, !dbg !13509
}

; Function Attrs: noinline uwtable
define linkonce_odr dso_local void @_ZNSt12_Vector_baseIN5boost10shared_ptrIKN6dealii10QuadratureILi3EEEEESaIS6_EE17_M_create_storageEm(%"struct.std::_Vector_base.27"* %this, i64 %__n) #0 comdat align 2 !dbg !13510 {
entry:
  %this.addr = alloca %"struct.std::_Vector_base.27"*, align 8
  %__n.addr = alloca i64, align 8
  store %"struct.std::_Vector_base.27"* %this, %"struct.std::_Vector_base.27"** %this.addr, align 8
  call void @llvm.dbg.declare(metadata %"struct.std::_Vector_base.27"** %this.addr, metadata !13511, metadata !DIExpression()), !dbg !13512
  store i64 %__n, i64* %__n.addr, align 8
  call void @llvm.dbg.declare(metadata i64* %__n.addr, metadata !13513, metadata !DIExpression()), !dbg !13514
  %this1 = load %"struct.std::_Vector_base.27"*, %"struct.std::_Vector_base.27"** %this.addr, align 8
  %0 = load i64, i64* %__n.addr, align 8, !dbg !13515
  %call = call %"class.boost::shared_ptr.31"* @_ZNSt12_Vector_baseIN5boost10shared_ptrIKN6dealii10QuadratureILi3EEEEESaIS6_EE11_M_allocateEm(%"struct.std::_Vector_base.27"* %this1, i64 %0), !dbg !13516
  %_M_impl = getelementptr inbounds %"struct.std::_Vector_base.27", %"struct.std::_Vector_base.27"* %this1, i32 0, i32 0, !dbg !13517
  %1 = bitcast %"struct.std::_Vector_base<boost::shared_ptr<const dealii::Quadrature<3> >, std::allocator<boost::shared_ptr<const dealii::Quadrature<3> > > >::_Vector_impl"* %_M_impl to %"struct.std::_Vector_base<boost::shared_ptr<const dealii::Quadrature<3> >, std::allocator<boost::shared_ptr<const dealii::Quadrature<3> > > >::_Vector_impl_data"*, !dbg !13518
  %_M_start = getelementptr inbounds %"struct.std::_Vector_base<boost::shared_ptr<const dealii::Quadrature<3> >, std::allocator<boost::shared_ptr<const dealii::Quadrature<3> > > >::_Vector_impl_data", %"struct.std::_Vector_base<boost::shared_ptr<const dealii::Quadrature<3> >, std::allocator<boost::shared_ptr<const dealii::Quadrature<3> > > >::_Vector_impl_data"* %1, i32 0, i32 0, !dbg !13519
  store %"class.boost::shared_ptr.31"* %call, %"class.boost::shared_ptr.31"** %_M_start, align 8, !dbg !13520
  %_M_impl2 = getelementptr inbounds %"struct.std::_Vector_base.27", %"struct.std::_Vector_base.27"* %this1, i32 0, i32 0, !dbg !13521
  %2 = bitcast %"struct.std::_Vector_base<boost::shared_ptr<const dealii::Quadrature<3> >, std::allocator<boost::shared_ptr<const dealii::Quadrature<3> > > >::_Vector_impl"* %_M_impl2 to %"struct.std::_Vector_base<boost::shared_ptr<const dealii::Quadrature<3> >, std::allocator<boost::shared_ptr<const dealii::Quadrature<3> > > >::_Vector_impl_data"*, !dbg !13522
  %_M_start3 = getelementptr inbounds %"struct.std::_Vector_base<boost::shared_ptr<const dealii::Quadrature<3> >, std::allocator<boost::shared_ptr<const dealii::Quadrature<3> > > >::_Vector_impl_data", %"struct.std::_Vector_base<boost::shared_ptr<const dealii::Quadrature<3> >, std::allocator<boost::shared_ptr<const dealii::Quadrature<3> > > >::_Vector_impl_data"* %2, i32 0, i32 0, !dbg !13523
  %3 = load %"class.boost::shared_ptr.31"*, %"class.boost::shared_ptr.31"** %_M_start3, align 8, !dbg !13523
  %_M_impl4 = getelementptr inbounds %"struct.std::_Vector_base.27", %"struct.std::_Vector_base.27"* %this1, i32 0, i32 0, !dbg !13524
  %4 = bitcast %"struct.std::_Vector_base<boost::shared_ptr<const dealii::Quadrature<3> >, std::allocator<boost::shared_ptr<const dealii::Quadrature<3> > > >::_Vector_impl"* %_M_impl4 to %"struct.std::_Vector_base<boost::shared_ptr<const dealii::Quadrature<3> >, std::allocator<boost::shared_ptr<const dealii::Quadrature<3> > > >::_Vector_impl_data"*, !dbg !13525
  %_M_finish = getelementptr inbounds %"struct.std::_Vector_base<boost::shared_ptr<const dealii::Quadrature<3> >, std::allocator<boost::shared_ptr<const dealii::Quadrature<3> > > >::_Vector_impl_data", %"struct.std::_Vector_base<boost::shared_ptr<const dealii::Quadrature<3> >, std::allocator<boost::shared_ptr<const dealii::Quadrature<3> > > >::_Vector_impl_data"* %4, i32 0, i32 1, !dbg !13526
  store %"class.boost::shared_ptr.31"* %3, %"class.boost::shared_ptr.31"** %_M_finish, align 8, !dbg !13527
  %_M_impl5 = getelementptr inbounds %"struct.std::_Vector_base.27", %"struct.std::_Vector_base.27"* %this1, i32 0, i32 0, !dbg !13528
  %5 = bitcast %"struct.std::_Vector_base<boost::shared_ptr<const dealii::Quadrature<3> >, std::allocator<boost::shared_ptr<const dealii::Quadrature<3> > > >::_Vector_impl"* %_M_impl5 to %"struct.std::_Vector_base<boost::shared_ptr<const dealii::Quadrature<3> >, std::allocator<boost::shared_ptr<const dealii::Quadrature<3> > > >::_Vector_impl_data"*, !dbg !13529
