; ModuleID = 'source/libparest/slave/stationary/slave.cc'
source_filename = "source/libparest/slave/stationary/slave.cc"
target datalayout = "e-m:e-p270:32:32-p271:32:32-p272:64:64-i64:64-f80:128-n8:16:32:64-S128"
target triple = "x86_64-unknown-linux-gnu"

%"struct.boost::arg" = type { i8 }
%"struct.boost::arg.0" = type { i8 }
%"struct.boost::arg.2" = type { i8 }
%"struct.boost::arg.4" = type { i8 }
%"struct.boost::arg.6" = type { i8 }
%"struct.boost::arg.8" = type { i8 }
%"struct.boost::arg.10" = type { i8 }
%"struct.boost::arg.12" = type { i8 }
%"struct.boost::arg.14" = type { i8 }
%"class.std::ios_base::Init" = type { i8 }
%"struct.boost::detail::function::basic_vtable2" = type { %"struct.boost::detail::function::vtable_base", double (%"union.boost::detail::function::function_buffer"*, double, %"class.dealii::Vector"*)* }
%"struct.boost::detail::function::vtable_base" = type { void (%"union.boost::detail::function::function_buffer"*, %"union.boost::detail::function::function_buffer"*, i32)* }
%"union.boost::detail::function::function_buffer" = type { %"struct.boost::detail::function::function_buffer::bound_memfunc_ptr_t" }
%"struct.boost::detail::function::function_buffer::bound_memfunc_ptr_t" = type { { i64, i64 }, i8* }
%"class.dealii::Vector" = type { %"class.dealii::Subscriptor", i32, i32, double* }
%"class.dealii::Subscriptor" = type { i32 (...)**, i32, %"class.std::map", %"class.std::type_info"* }
%"class.std::map" = type { %"class.std::_Rb_tree" }
%"class.std::_Rb_tree" = type { %"struct.std::_Rb_tree<const char *, std::pair<const char *const, unsigned int>, std::_Select1st<std::pair<const char *const, unsigned int> >, std::less<const char *>, std::allocator<std::pair<const char *const, unsigned int> > >::_Rb_tree_impl" }
%"struct.std::_Rb_tree<const char *, std::pair<const char *const, unsigned int>, std::_Select1st<std::pair<const char *const, unsigned int> >, std::less<const char *>, std::allocator<std::pair<const char *const, unsigned int> > >::_Rb_tree_impl" = type { %"struct.std::_Rb_tree_key_compare", %"struct.std::_Rb_tree_header" }
%"struct.std::_Rb_tree_key_compare" = type { %"struct.std::less" }
%"struct.std::less" = type { i8 }
%"struct.std::_Rb_tree_header" = type { %"struct.std::_Rb_tree_node_base", i64 }
%"struct.std::_Rb_tree_node_base" = type { i32, %"struct.std::_Rb_tree_node_base"*, %"struct.std::_Rb_tree_node_base"*, %"struct.std::_Rb_tree_node_base"* }
%"class.std::type_info" = type { i32 (...)**, i8* }
%"struct.boost::detail::function::basic_vtable0" = type { %"struct.boost::detail::function::vtable_base", double (%"union.boost::detail::function::function_buffer"*)* }
%"class.libparest::Slave::Stationary::Slave" = type { %"class.libparest::Slave::Base", %"class.libparest::Slave::Stationary::GlobalMatrix::Matrix"*, %"class.dealii::BlockVector", %"class.dealii::BlockVector", %"class.dealii::Vector.32", %"class.dealii::BlockVector", %"class.dealii::SmartPointer.33", %"class.dealii::SmartPointer.34", %"class.dealii::SmartPointer.35" }
%"class.libparest::Slave::Base" = type { %"class.dealii::Subscriptor", i32, i32, %"class.libparest::MessageLog::Client" }
%"class.libparest::MessageLog::Client" = type <{ %"class.dealii::SmartPointer", i32, [4 x i8], %"class.std::__cxx11::basic_ostringstream"*, i32, %"class.dealii::Threads::DummyThreadMutex", [3 x i8] }>
%"class.dealii::SmartPointer" = type { %"class.libparest::MessageLog::ServerBase"*, i8* }
%"class.libparest::MessageLog::ServerBase" = type { %"class.dealii::Subscriptor", %"class.std::vector" }
%"class.std::vector" = type { %"struct.std::_Vector_base" }
%"struct.std::_Vector_base" = type { %"struct.std::_Vector_base<const libparest::MessageLog::Filters::Base *, std::allocator<const libparest::MessageLog::Filters::Base *> >::_Vector_impl" }
%"struct.std::_Vector_base<const libparest::MessageLog::Filters::Base *, std::allocator<const libparest::MessageLog::Filters::Base *> >::_Vector_impl" = type { %"struct.std::_Vector_base<const libparest::MessageLog::Filters::Base *, std::allocator<const libparest::MessageLog::Filters::Base *> >::_Vector_impl_data" }
%"struct.std::_Vector_base<const libparest::MessageLog::Filters::Base *, std::allocator<const libparest::MessageLog::Filters::Base *> >::_Vector_impl_data" = type { %"class.libparest::MessageLog::Filters::Base"**, %"class.libparest::MessageLog::Filters::Base"**, %"class.libparest::MessageLog::Filters::Base"** }
%"class.libparest::MessageLog::Filters::Base" = type { i32 (...)** }
%"class.std::__cxx11::basic_ostringstream" = type { %"class.std::basic_ostream.base", %"class.std::__cxx11::basic_stringbuf", %"class.std::basic_ios" }
%"class.std::basic_ostream.base" = type { i32 (...)** }
%"class.std::__cxx11::basic_stringbuf" = type { %"class.std::basic_streambuf", i32, %"class.std::__cxx11::basic_string" }
%"class.std::basic_streambuf" = type { i32 (...)**, i8*, i8*, i8*, i8*, i8*, i8*, %"class.std::locale" }
%"class.std::locale" = type { %"class.std::locale::_Impl"* }
%"class.std::locale::_Impl" = type { i32, %"class.std::locale::facet"**, i64, %"class.std::locale::facet"**, i8** }
%"class.std::locale::facet" = type <{ i32 (...)**, i32, [4 x i8] }>
%"class.std::__cxx11::basic_string" = type { %"struct.std::__cxx11::basic_string<char, std::char_traits<char>, std::allocator<char> >::_Alloc_hider", i64, %union.anon }
%"struct.std::__cxx11::basic_string<char, std::char_traits<char>, std::allocator<char> >::_Alloc_hider" = type { i8* }
%union.anon = type { i64, [8 x i8] }
%"class.std::basic_ios" = type { %"class.std::ios_base", %"class.std::basic_ostream"*, i8, i8, %"class.std::basic_streambuf"*, %"class.std::ctype"*, %"class.std::num_put"*, %"class.std::num_get"* }
%"class.std::ios_base" = type { i32 (...)**, i64, i64, i32, i32, i32, %"struct.std::ios_base::_Callback_list"*, %"struct.std::ios_base::_Words", [8 x %"struct.std::ios_base::_Words"], i32, %"struct.std::ios_base::_Words"*, %"class.std::locale" }
%"struct.std::ios_base::_Callback_list" = type { %"struct.std::ios_base::_Callback_list"*, void (i32, %"class.std::ios_base"*, i32)*, i32, i32 }
%"struct.std::ios_base::_Words" = type { i8*, i64 }
%"class.std::basic_ostream" = type { i32 (...)**, %"class.std::basic_ios" }
%"class.std::ctype" = type <{ %"class.std::locale::facet.base", [4 x i8], %struct.__locale_struct*, i8, [7 x i8], i32*, i32*, i16*, i8, [256 x i8], [256 x i8], i8, [6 x i8] }>
%"class.std::locale::facet.base" = type <{ i32 (...)**, i32 }>
%struct.__locale_struct = type { [13 x %struct.__locale_data*], i16*, i32*, i32*, [13 x i8*] }
%struct.__locale_data = type opaque
%"class.std::num_put" = type { %"class.std::locale::facet.base", [4 x i8] }
%"class.std::num_get" = type { %"class.std::locale::facet.base", [4 x i8] }
%"class.dealii::Threads::DummyThreadMutex" = type { i8 }
%"class.libparest::Slave::Stationary::GlobalMatrix::Matrix" = type <{ i32 (...)**, %"class.dealii::SmartPointer.36", %"class.dealii::SmartPointer.36", %"class.dealii::SmartPointer.38", %"class.dealii::SmartPointer.39", %"class.dealii::BlockSparseMatrix", %"class.dealii::SmartPointer.61", %"class.dealii::Vector", %"class.dealii::Threads::DummyThreadMutex", [7 x i8] }>
%"class.dealii::SmartPointer.36" = type { %"class.dealii::SparseMatrix"*, i8* }
%"class.dealii::SparseMatrix" = type <{ i32 (...)**, %"class.dealii::SmartPointer.37", double*, i32, [4 x i8], %"class.dealii::Subscriptor" }>
%"class.dealii::SmartPointer.37" = type { %"class.dealii::SparsityPattern"*, i8* }
%"class.dealii::SparsityPattern" = type <{ %"class.dealii::Subscriptor", i32, i32, i32, [4 x i8], i64, i32, [4 x i8], i64*, i32*, i8, i8, [6 x i8] }>
%"class.dealii::SmartPointer.38" = type { %"class.libparest::Slave::Stationary::GlobalMatrix::C_and_CT::C"*, i8* }
%"class.libparest::Slave::Stationary::GlobalMatrix::C_and_CT::C" = type { %"class.libparest::Slave::Stationary::GlobalMatrix::C_and_CT::Base" }
%"class.libparest::Slave::Stationary::GlobalMatrix::C_and_CT::Base" = type { %"class.dealii::Subscriptor", %"class.dealii::SmartPointer.99", %"class.dealii::SmartPointer.99", %"class.dealii::Vector"*, %"class.dealii::Threads::DummyThreadMutex"* }
%"class.dealii::SmartPointer.99" = type { %"class.dealii::SparseMatrix"*, i8* }
%"class.dealii::SmartPointer.39" = type { %"class.libparest::Slave::Stationary::GlobalMatrix::C_and_CT::CT"*, i8* }
%"class.libparest::Slave::Stationary::GlobalMatrix::C_and_CT::CT" = type { %"class.libparest::Slave::Stationary::GlobalMatrix::C_and_CT::Base" }
%"class.dealii::BlockSparseMatrix" = type { %"class.dealii::BlockMatrixBase", %"class.dealii::SmartPointer.55" }
%"class.dealii::BlockMatrixBase" = type { %"class.dealii::Subscriptor", %"class.dealii::BlockIndices", %"class.dealii::BlockIndices", %"class.dealii::Table", %"class.std::vector.27", %"class.std::vector.40", %"class.std::vector.45" }
%"class.dealii::BlockIndices" = type { i32, %"class.std::vector.27" }
%"class.dealii::Table" = type { %"class.dealii::TableBase.base", [4 x i8] }
%"class.dealii::TableBase.base" = type <{ %"class.dealii::Subscriptor", %"class.dealii::SmartPointer.36"*, i32, %"class.dealii::TableIndices" }>
%"class.dealii::TableIndices" = type { %"class.dealii::TableIndicesBase" }
%"class.dealii::TableIndicesBase" = type { [2 x i32] }
%"class.std::vector.27" = type { %"struct.std::_Vector_base.28" }
%"struct.std::_Vector_base.28" = type { %"struct.std::_Vector_base<unsigned int, std::allocator<unsigned int> >::_Vector_impl" }
%"struct.std::_Vector_base<unsigned int, std::allocator<unsigned int> >::_Vector_impl" = type { %"struct.std::_Vector_base<unsigned int, std::allocator<unsigned int> >::_Vector_impl_data" }
%"struct.std::_Vector_base<unsigned int, std::allocator<unsigned int> >::_Vector_impl_data" = type { i32*, i32*, i32* }
%"class.std::vector.40" = type { %"struct.std::_Vector_base.41" }
%"struct.std::_Vector_base.41" = type { %"struct.std::_Vector_base<std::vector<unsigned int, std::allocator<unsigned int> >, std::allocator<std::vector<unsigned int, std::allocator<unsigned int> > > >::_Vector_impl" }
%"struct.std::_Vector_base<std::vector<unsigned int, std::allocator<unsigned int> >, std::allocator<std::vector<unsigned int, std::allocator<unsigned int> > > >::_Vector_impl" = type { %"struct.std::_Vector_base<std::vector<unsigned int, std::allocator<unsigned int> >, std::allocator<std::vector<unsigned int, std::allocator<unsigned int> > > >::_Vector_impl_data" }
%"struct.std::_Vector_base<std::vector<unsigned int, std::allocator<unsigned int> >, std::allocator<std::vector<unsigned int, std::allocator<unsigned int> > > >::_Vector_impl_data" = type { %"class.std::vector.27"*, %"class.std::vector.27"*, %"class.std::vector.27"* }
%"class.std::vector.45" = type { %"struct.std::_Vector_base.46" }
%"struct.std::_Vector_base.46" = type { %"struct.std::_Vector_base<std::vector<double, std::allocator<double> >, std::allocator<std::vector<double, std::allocator<double> > > >::_Vector_impl" }
%"struct.std::_Vector_base<std::vector<double, std::allocator<double> >, std::allocator<std::vector<double, std::allocator<double> > > >::_Vector_impl" = type { %"struct.std::_Vector_base<std::vector<double, std::allocator<double> >, std::allocator<std::vector<double, std::allocator<double> > > >::_Vector_impl_data" }
%"struct.std::_Vector_base<std::vector<double, std::allocator<double> >, std::allocator<std::vector<double, std::allocator<double> > > >::_Vector_impl_data" = type { %"class.std::vector.50"*, %"class.std::vector.50"*, %"class.std::vector.50"* }
%"class.std::vector.50" = type { %"struct.std::_Vector_base.51" }
%"struct.std::_Vector_base.51" = type { %"struct.std::_Vector_base<double, std::allocator<double> >::_Vector_impl" }
%"struct.std::_Vector_base<double, std::allocator<double> >::_Vector_impl" = type { %"struct.std::_Vector_base<double, std::allocator<double> >::_Vector_impl_data" }
%"struct.std::_Vector_base<double, std::allocator<double> >::_Vector_impl_data" = type { double*, double*, double* }
%"class.dealii::SmartPointer.55" = type { %"class.dealii::BlockSparsityPattern"*, i8* }
%"class.dealii::BlockSparsityPattern" = type { %"class.dealii::BlockSparsityPatternBase" }
%"class.dealii::BlockSparsityPatternBase" = type { %"class.dealii::Subscriptor", i32, i32, %"class.dealii::Table.56", %"class.dealii::BlockIndices", %"class.dealii::BlockIndices", %"class.std::vector.27", %"class.std::vector.40" }
%"class.dealii::Table.56" = type { %"class.dealii::TableBase.base.59", [4 x i8] }
%"class.dealii::TableBase.base.59" = type <{ %"class.dealii::Subscriptor", %"class.dealii::SmartPointer.58"*, i32, %"class.dealii::TableIndices" }>
%"class.dealii::SmartPointer.58" = type opaque
%"class.dealii::SmartPointer.61" = type { %"class.libparest::Slave::Stationary::GlobalMatrix::Matrix_A_Inverse"*, i8* }
%"class.libparest::Slave::Stationary::GlobalMatrix::Matrix_A_Inverse" = type { %"class.dealii::Subscriptor" }
%"class.dealii::Vector.32" = type { %"class.dealii::Subscriptor", i32, i32, float* }
%"class.dealii::BlockVector" = type { %"class.dealii::BlockVectorBase" }
%"class.dealii::BlockVectorBase" = type { %"class.dealii::Subscriptor", %"class.std::vector.22", %"class.dealii::BlockIndices" }
%"class.std::vector.22" = type { %"struct.std::_Vector_base.23" }
%"struct.std::_Vector_base.23" = type { %"struct.std::_Vector_base<dealii::Vector<double>, std::allocator<dealii::Vector<double> > >::_Vector_impl" }
%"struct.std::_Vector_base<dealii::Vector<double>, std::allocator<dealii::Vector<double> > >::_Vector_impl" = type { %"struct.std::_Vector_base<dealii::Vector<double>, std::allocator<dealii::Vector<double> > >::_Vector_impl_data" }
%"struct.std::_Vector_base<dealii::Vector<double>, std::allocator<dealii::Vector<double> > >::_Vector_impl_data" = type { %"class.dealii::Vector"*, %"class.dealii::Vector"*, %"class.dealii::Vector"* }
%"class.dealii::SmartPointer.33" = type { %"class.libparest::Parameter::Field::DiscretizedField"*, i8* }
%"class.libparest::Parameter::Field::DiscretizedField" = type { i32 (...)**, %"class.dealii::SmartPointer.100", %"class.dealii::SmartPointer.101", %"class.dealii::SmartPointer.102", %"class.std::vector.50", %"class.std::vector.50", %"class.dealii::SmartPointer.103", %"class.dealii::Subscriptor" }
%"class.dealii::SmartPointer.100" = type { %"class.libparest::Parameter::Field::Triangulations"*, i8* }
%"class.libparest::Parameter::Field::Triangulations" = type { %"class.dealii::Subscriptor", %"class.dealii::Triangulation" }
%"class.dealii::Triangulation" = type { %"class.dealii::Subscriptor", %"class.std::vector.104", %"class.dealii::internal::Triangulation::TriaFaces"*, %"class.std::vector.180", %"class.std::vector.79", [255 x %"class.dealii::SmartPointer.185"], [255 x %"class.dealii::SmartPointer.185"], i8, i32, %"struct.dealii::internal::Triangulation::NumberCache", %"class.std::__cxx11::list" }
%"class.std::vector.104" = type { %"struct.std::_Vector_base.105" }
%"struct.std::_Vector_base.105" = type { %"struct.std::_Vector_base<dealii::internal::Triangulation::TriaLevel<3> *, std::allocator<dealii::internal::Triangulation::TriaLevel<3> *> >::_Vector_impl" }
%"struct.std::_Vector_base<dealii::internal::Triangulation::TriaLevel<3> *, std::allocator<dealii::internal::Triangulation::TriaLevel<3> *> >::_Vector_impl" = type { %"struct.std::_Vector_base<dealii::internal::Triangulation::TriaLevel<3> *, std::allocator<dealii::internal::Triangulation::TriaLevel<3> *> >::_Vector_impl_data" }
%"struct.std::_Vector_base<dealii::internal::Triangulation::TriaLevel<3> *, std::allocator<dealii::internal::Triangulation::TriaLevel<3> *> >::_Vector_impl_data" = type { %"class.dealii::internal::Triangulation::TriaLevel"**, %"class.dealii::internal::Triangulation::TriaLevel"**, %"class.dealii::internal::Triangulation::TriaLevel"** }
%"class.dealii::internal::Triangulation::TriaLevel" = type { %"class.std::vector.109", %"class.std::vector.79", %"class.std::vector.114", %"class.std::vector.27", %"class.dealii::internal::Triangulation::TriaObjectsHex" }
%"class.std::vector.109" = type { %"struct.std::_Vector_base.110" }
%"struct.std::_Vector_base.110" = type { %"struct.std::_Vector_base<unsigned char, std::allocator<unsigned char> >::_Vector_impl" }
%"struct.std::_Vector_base<unsigned char, std::allocator<unsigned char> >::_Vector_impl" = type { %"struct.std::_Vector_base<unsigned char, std::allocator<unsigned char> >::_Vector_impl_data" }
%"struct.std::_Vector_base<unsigned char, std::allocator<unsigned char> >::_Vector_impl_data" = type { i8*, i8*, i8* }
%"class.std::vector.114" = type { %"struct.std::_Vector_base.115" }
%"struct.std::_Vector_base.115" = type { %"struct.std::_Vector_base<std::pair<int, int>, std::allocator<std::pair<int, int> > >::_Vector_impl" }
%"struct.std::_Vector_base<std::pair<int, int>, std::allocator<std::pair<int, int> > >::_Vector_impl" = type { %"struct.std::_Vector_base<std::pair<int, int>, std::allocator<std::pair<int, int> > >::_Vector_impl_data" }
%"struct.std::_Vector_base<std::pair<int, int>, std::allocator<std::pair<int, int> > >::_Vector_impl_data" = type { %"struct.std::pair.119"*, %"struct.std::pair.119"*, %"struct.std::pair.119"* }
%"struct.std::pair.119" = type opaque
%"class.dealii::internal::Triangulation::TriaObjectsHex" = type { %"class.dealii::internal::Triangulation::TriaObjects.base", %"class.std::vector.79", %"class.std::vector.79", %"class.std::vector.79" }
%"class.dealii::internal::Triangulation::TriaObjects.base" = type <{ %"class.std::vector.120", %"class.std::vector.125", %"class.std::vector.130", %"class.std::vector.79", %"class.std::vector.79", %"class.std::vector.109", i32, i32, i8, [7 x i8], %"class.std::vector.135", i32 }>
%"class.std::vector.120" = type { %"struct.std::_Vector_base.121" }
%"struct.std::_Vector_base.121" = type { %"struct.std::_Vector_base<dealii::internal::Triangulation::TriaObject<3>, std::allocator<dealii::internal::Triangulation::TriaObject<3> > >::_Vector_impl" }
%"struct.std::_Vector_base<dealii::internal::Triangulation::TriaObject<3>, std::allocator<dealii::internal::Triangulation::TriaObject<3> > >::_Vector_impl" = type { %"struct.std::_Vector_base<dealii::internal::Triangulation::TriaObject<3>, std::allocator<dealii::internal::Triangulation::TriaObject<3> > >::_Vector_impl_data" }
%"struct.std::_Vector_base<dealii::internal::Triangulation::TriaObject<3>, std::allocator<dealii::internal::Triangulation::TriaObject<3> > >::_Vector_impl_data" = type { %"class.dealii::internal::Triangulation::TriaObject"*, %"class.dealii::internal::Triangulation::TriaObject"*, %"class.dealii::internal::Triangulation::TriaObject"* }
%"class.dealii::internal::Triangulation::TriaObject" = type { [6 x i32] }
%"class.std::vector.125" = type { %"struct.std::_Vector_base.126" }
%"struct.std::_Vector_base.126" = type { %"struct.std::_Vector_base<int, std::allocator<int> >::_Vector_impl" }
%"struct.std::_Vector_base<int, std::allocator<int> >::_Vector_impl" = type { %"struct.std::_Vector_base<int, std::allocator<int> >::_Vector_impl_data" }
%"struct.std::_Vector_base<int, std::allocator<int> >::_Vector_impl_data" = type { i32*, i32*, i32* }
%"class.std::vector.130" = type { %"struct.std::_Vector_base.131" }
%"struct.std::_Vector_base.131" = type { %"struct.std::_Vector_base<dealii::RefinementCase<3>, std::allocator<dealii::RefinementCase<3> > >::_Vector_impl" }
%"struct.std::_Vector_base<dealii::RefinementCase<3>, std::allocator<dealii::RefinementCase<3> > >::_Vector_impl" = type { %"struct.std::_Vector_base<dealii::RefinementCase<3>, std::allocator<dealii::RefinementCase<3> > >::_Vector_impl_data" }
%"struct.std::_Vector_base<dealii::RefinementCase<3>, std::allocator<dealii::RefinementCase<3> > >::_Vector_impl_data" = type { %"class.dealii::RefinementCase"*, %"class.dealii::RefinementCase"*, %"class.dealii::RefinementCase"* }
%"class.dealii::RefinementCase" = type { i8 }
%"class.std::vector.135" = type { %"struct.std::_Vector_base.136" }
%"struct.std::_Vector_base.136" = type { %"struct.std::_Vector_base<dealii::internal::Triangulation::TriaObjects<dealii::internal::Triangulation::TriaObject<3> >::UserData, std::allocator<dealii::internal::Triangulation::TriaObjects<dealii::internal::Triangulation::TriaObject<3> >::UserData> >::_Vector_impl" }
%"struct.std::_Vector_base<dealii::internal::Triangulation::TriaObjects<dealii::internal::Triangulation::TriaObject<3> >::UserData, std::allocator<dealii::internal::Triangulation::TriaObjects<dealii::internal::Triangulation::TriaObject<3> >::UserData> >::_Vector_impl" = type { %"struct.std::_Vector_base<dealii::internal::Triangulation::TriaObjects<dealii::internal::Triangulation::TriaObject<3> >::UserData, std::allocator<dealii::internal::Triangulation::TriaObjects<dealii::internal::Triangulation::TriaObject<3> >::UserData> >::_Vector_impl_data" }
%"struct.std::_Vector_base<dealii::internal::Triangulation::TriaObjects<dealii::internal::Triangulation::TriaObject<3> >::UserData, std::allocator<dealii::internal::Triangulation::TriaObjects<dealii::internal::Triangulation::TriaObject<3> >::UserData> >::_Vector_impl_data" = type { %"union.dealii::internal::Triangulation::TriaObjects<dealii::internal::Triangulation::TriaObject<3> >::UserData"*, %"union.dealii::internal::Triangulation::TriaObjects<dealii::internal::Triangulation::TriaObject<3> >::UserData"*, %"union.dealii::internal::Triangulation::TriaObjects<dealii::internal::Triangulation::TriaObject<3> >::UserData"* }
%"union.dealii::internal::Triangulation::TriaObjects<dealii::internal::Triangulation::TriaObject<3> >::UserData" = type opaque
%"class.dealii::internal::Triangulation::TriaFaces" = type { %"class.dealii::internal::Triangulation::TriaObjectsQuad3D", %"class.dealii::internal::Triangulation::TriaObjects.160" }
%"class.dealii::internal::Triangulation::TriaObjectsQuad3D" = type { %"class.dealii::internal::Triangulation::TriaObjects.base.159", %"class.std::vector.79" }
%"class.dealii::internal::Triangulation::TriaObjects.base.159" = type <{ %"class.std::vector.141", %"class.std::vector.125", %"class.std::vector.147", %"class.std::vector.79", %"class.std::vector.79", %"class.std::vector.109", i32, i32, i8, [7 x i8], %"class.std::vector.154", i32 }>
%"class.std::vector.141" = type { %"struct.std::_Vector_base.142" }
%"struct.std::_Vector_base.142" = type { %"struct.std::_Vector_base<dealii::internal::Triangulation::TriaObject<2>, std::allocator<dealii::internal::Triangulation::TriaObject<2> > >::_Vector_impl" }
%"struct.std::_Vector_base<dealii::internal::Triangulation::TriaObject<2>, std::allocator<dealii::internal::Triangulation::TriaObject<2> > >::_Vector_impl" = type { %"struct.std::_Vector_base<dealii::internal::Triangulation::TriaObject<2>, std::allocator<dealii::internal::Triangulation::TriaObject<2> > >::_Vector_impl_data" }
%"struct.std::_Vector_base<dealii::internal::Triangulation::TriaObject<2>, std::allocator<dealii::internal::Triangulation::TriaObject<2> > >::_Vector_impl_data" = type { %"class.dealii::internal::Triangulation::TriaObject.146"*, %"class.dealii::internal::Triangulation::TriaObject.146"*, %"class.dealii::internal::Triangulation::TriaObject.146"* }
%"class.dealii::internal::Triangulation::TriaObject.146" = type { [4 x i32] }
%"class.std::vector.147" = type { %"struct.std::_Vector_base.148" }
%"struct.std::_Vector_base.148" = type { %"struct.std::_Vector_base<dealii::RefinementCase<2>, std::allocator<dealii::RefinementCase<2> > >::_Vector_impl" }
%"struct.std::_Vector_base<dealii::RefinementCase<2>, std::allocator<dealii::RefinementCase<2> > >::_Vector_impl" = type { %"struct.std::_Vector_base<dealii::RefinementCase<2>, std::allocator<dealii::RefinementCase<2> > >::_Vector_impl_data" }
%"struct.std::_Vector_base<dealii::RefinementCase<2>, std::allocator<dealii::RefinementCase<2> > >::_Vector_impl_data" = type { %"class.dealii::RefinementCase.152"*, %"class.dealii::RefinementCase.152"*, %"class.dealii::RefinementCase.152"* }
%"class.dealii::RefinementCase.152" = type { i8 }
%"class.std::vector.154" = type { %"struct.std::_Vector_base.155" }
%"struct.std::_Vector_base.155" = type { %"struct.std::_Vector_base<dealii::internal::Triangulation::TriaObjects<dealii::internal::Triangulation::TriaObject<2> >::UserData, std::allocator<dealii::internal::Triangulation::TriaObjects<dealii::internal::Triangulation::TriaObject<2> >::UserData> >::_Vector_impl" }
%"struct.std::_Vector_base<dealii::internal::Triangulation::TriaObjects<dealii::internal::Triangulation::TriaObject<2> >::UserData, std::allocator<dealii::internal::Triangulation::TriaObjects<dealii::internal::Triangulation::TriaObject<2> >::UserData> >::_Vector_impl" = type { %"struct.std::_Vector_base<dealii::internal::Triangulation::TriaObjects<dealii::internal::Triangulation::TriaObject<2> >::UserData, std::allocator<dealii::internal::Triangulation::TriaObjects<dealii::internal::Triangulation::TriaObject<2> >::UserData> >::_Vector_impl_data" }
%"struct.std::_Vector_base<dealii::internal::Triangulation::TriaObjects<dealii::internal::Triangulation::TriaObject<2> >::UserData, std::allocator<dealii::internal::Triangulation::TriaObjects<dealii::internal::Triangulation::TriaObject<2> >::UserData> >::_Vector_impl_data" = type { %"union.dealii::internal::Triangulation::TriaObjects<dealii::internal::Triangulation::TriaObject<2> >::UserData"*, %"union.dealii::internal::Triangulation::TriaObjects<dealii::internal::Triangulation::TriaObject<2> >::UserData"*, %"union.dealii::internal::Triangulation::TriaObjects<dealii::internal::Triangulation::TriaObject<2> >::UserData"* }
%"union.dealii::internal::Triangulation::TriaObjects<dealii::internal::Triangulation::TriaObject<2> >::UserData" = type opaque
%"class.dealii::internal::Triangulation::TriaObjects.160" = type <{ %"class.std::vector.161", %"class.std::vector.125", %"class.std::vector.167", %"class.std::vector.79", %"class.std::vector.79", %"class.std::vector.109", i32, i32, i8, [7 x i8], %"class.std::vector.174", i32, [4 x i8] }>
%"class.std::vector.161" = type { %"struct.std::_Vector_base.162" }
%"struct.std::_Vector_base.162" = type { %"struct.std::_Vector_base<dealii::internal::Triangulation::TriaObject<1>, std::allocator<dealii::internal::Triangulation::TriaObject<1> > >::_Vector_impl" }
%"struct.std::_Vector_base<dealii::internal::Triangulation::TriaObject<1>, std::allocator<dealii::internal::Triangulation::TriaObject<1> > >::_Vector_impl" = type { %"struct.std::_Vector_base<dealii::internal::Triangulation::TriaObject<1>, std::allocator<dealii::internal::Triangulation::TriaObject<1> > >::_Vector_impl_data" }
%"struct.std::_Vector_base<dealii::internal::Triangulation::TriaObject<1>, std::allocator<dealii::internal::Triangulation::TriaObject<1> > >::_Vector_impl_data" = type { %"class.dealii::internal::Triangulation::TriaObject.166"*, %"class.dealii::internal::Triangulation::TriaObject.166"*, %"class.dealii::internal::Triangulation::TriaObject.166"* }
%"class.dealii::internal::Triangulation::TriaObject.166" = type { [2 x i32] }
%"class.std::vector.167" = type { %"struct.std::_Vector_base.168" }
%"struct.std::_Vector_base.168" = type { %"struct.std::_Vector_base<dealii::RefinementCase<1>, std::allocator<dealii::RefinementCase<1> > >::_Vector_impl" }
%"struct.std::_Vector_base<dealii::RefinementCase<1>, std::allocator<dealii::RefinementCase<1> > >::_Vector_impl" = type { %"struct.std::_Vector_base<dealii::RefinementCase<1>, std::allocator<dealii::RefinementCase<1> > >::_Vector_impl_data" }
%"struct.std::_Vector_base<dealii::RefinementCase<1>, std::allocator<dealii::RefinementCase<1> > >::_Vector_impl_data" = type { %"class.dealii::RefinementCase.172"*, %"class.dealii::RefinementCase.172"*, %"class.dealii::RefinementCase.172"* }
%"class.dealii::RefinementCase.172" = type { i8 }
%"class.std::vector.174" = type { %"struct.std::_Vector_base.175" }
%"struct.std::_Vector_base.175" = type { %"struct.std::_Vector_base<dealii::internal::Triangulation::TriaObjects<dealii::internal::Triangulation::TriaObject<1> >::UserData, std::allocator<dealii::internal::Triangulation::TriaObjects<dealii::internal::Triangulation::TriaObject<1> >::UserData> >::_Vector_impl" }
%"struct.std::_Vector_base<dealii::internal::Triangulation::TriaObjects<dealii::internal::Triangulation::TriaObject<1> >::UserData, std::allocator<dealii::internal::Triangulation::TriaObjects<dealii::internal::Triangulation::TriaObject<1> >::UserData> >::_Vector_impl" = type { %"struct.std::_Vector_base<dealii::internal::Triangulation::TriaObjects<dealii::internal::Triangulation::TriaObject<1> >::UserData, std::allocator<dealii::internal::Triangulation::TriaObjects<dealii::internal::Triangulation::TriaObject<1> >::UserData> >::_Vector_impl_data" }
%"struct.std::_Vector_base<dealii::internal::Triangulation::TriaObjects<dealii::internal::Triangulation::TriaObject<1> >::UserData, std::allocator<dealii::internal::Triangulation::TriaObjects<dealii::internal::Triangulation::TriaObject<1> >::UserData> >::_Vector_impl_data" = type { %"union.dealii::internal::Triangulation::TriaObjects<dealii::internal::Triangulation::TriaObject<1> >::UserData"*, %"union.dealii::internal::Triangulation::TriaObjects<dealii::internal::Triangulation::TriaObject<1> >::UserData"*, %"union.dealii::internal::Triangulation::TriaObjects<dealii::internal::Triangulation::TriaObject<1> >::UserData"* }
%"union.dealii::internal::Triangulation::TriaObjects<dealii::internal::Triangulation::TriaObject<1> >::UserData" = type opaque
%"class.std::vector.180" = type { %"struct.std::_Vector_base.181" }
%"struct.std::_Vector_base.181" = type { %"struct.std::_Vector_base<dealii::Point<3>, std::allocator<dealii::Point<3> > >::_Vector_impl" }
%"struct.std::_Vector_base<dealii::Point<3>, std::allocator<dealii::Point<3> > >::_Vector_impl" = type { %"struct.std::_Vector_base<dealii::Point<3>, std::allocator<dealii::Point<3> > >::_Vector_impl_data" }
%"struct.std::_Vector_base<dealii::Point<3>, std::allocator<dealii::Point<3> > >::_Vector_impl_data" = type { %"class.dealii::Point"*, %"class.dealii::Point"*, %"class.dealii::Point"* }
%"class.dealii::Point" = type { %"class.dealii::Tensor" }
%"class.dealii::Tensor" = type { [3 x double] }
%"class.std::vector.79" = type { %"struct.std::_Bvector_base" }
%"struct.std::_Bvector_base" = type { %"struct.std::_Bvector_base<std::allocator<bool> >::_Bvector_impl" }
%"struct.std::_Bvector_base<std::allocator<bool> >::_Bvector_impl" = type { %"struct.std::_Bvector_base<std::allocator<bool> >::_Bvector_impl_data" }
%"struct.std::_Bvector_base<std::allocator<bool> >::_Bvector_impl_data" = type { %"struct.std::_Bit_iterator", %"struct.std::_Bit_iterator", i64* }
%"struct.std::_Bit_iterator" = type { %"struct.std::_Bit_iterator_base.base", [4 x i8] }
%"struct.std::_Bit_iterator_base.base" = type <{ i64*, i32 }>
%"class.dealii::SmartPointer.185" = type { %"class.dealii::Boundary"*, i8* }
%"class.dealii::Boundary" = type opaque
%"struct.dealii::internal::Triangulation::NumberCache" = type { %"struct.dealii::internal::Triangulation::NumberCache.186", i32, %"class.std::vector.27", i32, %"class.std::vector.27" }
%"struct.dealii::internal::Triangulation::NumberCache.186" = type { %"struct.dealii::internal::Triangulation::NumberCache.187", i32, %"class.std::vector.27", i32, %"class.std::vector.27" }
%"struct.dealii::internal::Triangulation::NumberCache.187" = type { i32, %"class.std::vector.27", i32, %"class.std::vector.27" }
%"class.std::__cxx11::list" = type { %"class.std::__cxx11::_List_base" }
%"class.std::__cxx11::_List_base" = type { %"struct.std::__cxx11::_List_base<dealii::Triangulation<3, 3>::RefinementListener *, std::allocator<dealii::Triangulation<3, 3>::RefinementListener *> >::_List_impl" }
%"struct.std::__cxx11::_List_base<dealii::Triangulation<3, 3>::RefinementListener *, std::allocator<dealii::Triangulation<3, 3>::RefinementListener *> >::_List_impl" = type { %"struct.std::__detail::_List_node_header" }
%"struct.std::__detail::_List_node_header" = type { %"struct.std::__detail::_List_node_base", i64 }
%"struct.std::__detail::_List_node_base" = type { %"struct.std::__detail::_List_node_base"*, %"struct.std::__detail::_List_node_base"* }
%"class.dealii::SmartPointer.101" = type { %"class.libparest::Parameter::Field::FiniteElements"*, i8* }
%"class.libparest::Parameter::Field::FiniteElements" = type opaque
%"class.dealii::SmartPointer.102" = type { %"class.libparest::Parameter::Field::DoFHandlers"*, i8* }
%"class.libparest::Parameter::Field::DoFHandlers" = type { %"class.dealii::Subscriptor", %"class.dealii::DoFHandler", %"class.dealii::ConstraintMatrix", %"class.dealii::SmartPointer.191", %"class.dealii::SmartPointer.192" }
%"class.dealii::DoFHandler" = type { %"class.dealii::Subscriptor", %"class.dealii::SmartPointer.62", %"class.dealii::SmartPointer.63", %"class.std::vector.64", %"class.dealii::internal::DoFHandler::DoFFaces"*, i32, %"class.std::vector.27" }
%"class.dealii::SmartPointer.62" = type { %"class.dealii::Triangulation"*, i8* }
%"class.dealii::SmartPointer.63" = type { %"class.dealii::FiniteElement"*, i8* }
%"class.dealii::FiniteElement" = type opaque
%"class.std::vector.64" = type { %"struct.std::_Vector_base.65" }
%"struct.std::_Vector_base.65" = type { %"struct.std::_Vector_base<dealii::internal::DoFHandler::DoFLevel<3> *, std::allocator<dealii::internal::DoFHandler::DoFLevel<3> *> >::_Vector_impl" }
%"struct.std::_Vector_base<dealii::internal::DoFHandler::DoFLevel<3> *, std::allocator<dealii::internal::DoFHandler::DoFLevel<3> *> >::_Vector_impl" = type { %"struct.std::_Vector_base<dealii::internal::DoFHandler::DoFLevel<3> *, std::allocator<dealii::internal::DoFHandler::DoFLevel<3> *> >::_Vector_impl_data" }
%"struct.std::_Vector_base<dealii::internal::DoFHandler::DoFLevel<3> *, std::allocator<dealii::internal::DoFHandler::DoFLevel<3> *> >::_Vector_impl_data" = type { %"class.dealii::internal::DoFHandler::DoFLevel"**, %"class.dealii::internal::DoFHandler::DoFLevel"**, %"class.dealii::internal::DoFHandler::DoFLevel"** }
%"class.dealii::internal::DoFHandler::DoFLevel" = type { %"class.dealii::internal::DoFHandler::DoFLevel.69", %"class.dealii::internal::DoFHandler::DoFObjects" }
%"class.dealii::internal::DoFHandler::DoFLevel.69" = type { %"class.std::vector.27" }
%"class.dealii::internal::DoFHandler::DoFObjects" = type { %"class.std::vector.27" }
%"class.dealii::internal::DoFHandler::DoFFaces" = type { %"class.dealii::internal::DoFHandler::DoFObjects.70", %"class.dealii::internal::DoFHandler::DoFObjects.71" }
%"class.dealii::internal::DoFHandler::DoFObjects.70" = type { %"class.std::vector.27" }
%"class.dealii::internal::DoFHandler::DoFObjects.71" = type { %"class.std::vector.27" }
%"class.dealii::ConstraintMatrix" = type <{ %"class.dealii::Subscriptor", %"class.std::vector.83", %"class.std::vector.79", i8, %"class.dealii::Threads::DummyThreadMutex", [6 x i8] }>
%"class.std::vector.83" = type { %"struct.std::_Vector_base.84" }
%"struct.std::_Vector_base.84" = type { %"struct.std::_Vector_base<dealii::ConstraintMatrix::ConstraintLine, std::allocator<dealii::ConstraintMatrix::ConstraintLine> >::_Vector_impl" }
%"struct.std::_Vector_base<dealii::ConstraintMatrix::ConstraintLine, std::allocator<dealii::ConstraintMatrix::ConstraintLine> >::_Vector_impl" = type { %"struct.std::_Vector_base<dealii::ConstraintMatrix::ConstraintLine, std::allocator<dealii::ConstraintMatrix::ConstraintLine> >::_Vector_impl_data" }
%"struct.std::_Vector_base<dealii::ConstraintMatrix::ConstraintLine, std::allocator<dealii::ConstraintMatrix::ConstraintLine> >::_Vector_impl_data" = type { %"struct.dealii::ConstraintMatrix::ConstraintLine"*, %"struct.dealii::ConstraintMatrix::ConstraintLine"*, %"struct.dealii::ConstraintMatrix::ConstraintLine"* }
%"struct.dealii::ConstraintMatrix::ConstraintLine" = type { i32, %"class.std::vector.88", double }
%"class.std::vector.88" = type { %"struct.std::_Vector_base.89" }
%"struct.std::_Vector_base.89" = type { %"struct.std::_Vector_base<std::pair<unsigned int, double>, std::allocator<std::pair<unsigned int, double> > >::_Vector_impl" }
%"struct.std::_Vector_base<std::pair<unsigned int, double>, std::allocator<std::pair<unsigned int, double> > >::_Vector_impl" = type { %"struct.std::_Vector_base<std::pair<unsigned int, double>, std::allocator<std::pair<unsigned int, double> > >::_Vector_impl_data" }
%"struct.std::_Vector_base<std::pair<unsigned int, double>, std::allocator<std::pair<unsigned int, double> > >::_Vector_impl_data" = type { %"struct.std::pair"*, %"struct.std::pair"*, %"struct.std::pair"* }
%"struct.std::pair" = type { i32, double }
%"class.dealii::SmartPointer.191" = type { %"class.libparest::Parameter::Field::FiniteElements"*, i8* }
%"class.dealii::SmartPointer.192" = type { %"class.libparest::Parameter::Field::Triangulations"*, i8* }
%"class.dealii::SmartPointer.103" = type { %"class.libparest::Parameter::Field::Bounds::Base"*, i8* }
%"class.libparest::Parameter::Field::Bounds::Base" = type opaque
%"class.dealii::SmartPointer.34" = type { %"class.libparest::Slave::Stationary::Discretization::Base"*, i8* }
%"class.libparest::Slave::Stationary::Discretization::Base" = type { %"class.dealii::Subscriptor", %"class.libparest::Slave::Stationary::Discretization::Triangulations"*, %"class.libparest::Slave::Stationary::Discretization::FiniteElements"*, %"class.libparest::Slave::Stationary::Discretization::DoFHandlers"* }
%"class.libparest::Slave::Stationary::Discretization::Triangulations" = type opaque
%"class.libparest::Slave::Stationary::Discretization::FiniteElements" = type opaque
%"class.libparest::Slave::Stationary::Discretization::DoFHandlers" = type { %"class.dealii::Subscriptor", %"class.dealii::DoFHandler", %"class.dealii::InterGridMap", %"class.dealii::InterGridMap", %"class.std::vector.79", %"class.dealii::ConstraintMatrix", %"class.dealii::BlockSparsityPattern", %"class.std::vector.27", %"class.std::vector.27", %"class.dealii::SparsityPattern", %"class.dealii::SparseMatrix", %"class.dealii::SmartPointer.93", %"class.libparest::Slave::Stationary::ProblemDescription", %"class.dealii::SmartPointer.94", i8, [7 x i8], %"class.dealii::Table.95" }
%"class.dealii::InterGridMap" = type { %"class.std::vector.72", %"class.dealii::SmartPointer.78", %"class.dealii::SmartPointer.78" }
%"class.std::vector.72" = type { %"struct.std::_Vector_base.73" }
%"struct.std::_Vector_base.73" = type { %"struct.std::_Vector_base<std::vector<dealii::TriaIterator<dealii::DoFCellAccessor<dealii::DoFHandler<3, 3> > >, std::allocator<dealii::TriaIterator<dealii::DoFCellAccessor<dealii::DoFHandler<3, 3> > > > >, std::allocator<std::vector<dealii::TriaIterator<dealii::DoFCellAccessor<dealii::DoFHandler<3, 3> > >, std::allocator<dealii::TriaIterator<dealii::DoFCellAccessor<dealii::DoFHandler<3, 3> > > > > > >::_Vector_impl" }
%"struct.std::_Vector_base<std::vector<dealii::TriaIterator<dealii::DoFCellAccessor<dealii::DoFHandler<3, 3> > >, std::allocator<dealii::TriaIterator<dealii::DoFCellAccessor<dealii::DoFHandler<3, 3> > > > >, std::allocator<std::vector<dealii::TriaIterator<dealii::DoFCellAccessor<dealii::DoFHandler<3, 3> > >, std::allocator<dealii::TriaIterator<dealii::DoFCellAccessor<dealii::DoFHandler<3, 3> > > > > > >::_Vector_impl" = type { %"struct.std::_Vector_base<std::vector<dealii::TriaIterator<dealii::DoFCellAccessor<dealii::DoFHandler<3, 3> > >, std::allocator<dealii::TriaIterator<dealii::DoFCellAccessor<dealii::DoFHandler<3, 3> > > > >, std::allocator<std::vector<dealii::TriaIterator<dealii::DoFCellAccessor<dealii::DoFHandler<3, 3> > >, std::allocator<dealii::TriaIterator<dealii::DoFCellAccessor<dealii::DoFHandler<3, 3> > > > > > >::_Vector_impl_data" }
%"struct.std::_Vector_base<std::vector<dealii::TriaIterator<dealii::DoFCellAccessor<dealii::DoFHandler<3, 3> > >, std::allocator<dealii::TriaIterator<dealii::DoFCellAccessor<dealii::DoFHandler<3, 3> > > > >, std::allocator<std::vector<dealii::TriaIterator<dealii::DoFCellAccessor<dealii::DoFHandler<3, 3> > >, std::allocator<dealii::TriaIterator<dealii::DoFCellAccessor<dealii::DoFHandler<3, 3> > > > > > >::_Vector_impl_data" = type { %"class.std::vector.77"*, %"class.std::vector.77"*, %"class.std::vector.77"* }
%"class.std::vector.77" = type opaque
%"class.dealii::SmartPointer.78" = type { %"class.dealii::DoFHandler"*, i8* }
%"class.dealii::SmartPointer.93" = type { %"class.libparest::Parameter::Field::DoFHandlers"*, i8* }
%"class.libparest::Slave::Stationary::ProblemDescription" = type { %"class.dealii::Subscriptor", i32, i32, i32, i32 }
%"class.dealii::SmartPointer.94" = type { %"class.libparest::Slave::Stationary::Discretization::FiniteElements"*, i8* }
%"class.dealii::Table.95" = type { %"class.dealii::TableBase.base.97", [4 x i8] }
%"class.dealii::TableBase.base.97" = type <{ %"class.dealii::Subscriptor", i8*, i32, %"class.dealii::TableIndices" }>
%"class.dealii::SmartPointer.35" = type { %"class.libparest::Slave::Stationary::Discretization::Base<3>::PerStepStatistics"*, i8* }
%"class.libparest::Slave::Stationary::Discretization::Base<3>::PerStepStatistics" = type <{ %"class.libparest::PerStepStatistics", i32, i32, i32, [4 x i8] }>
%"class.libparest::PerStepStatistics" = type { %"class.dealii::Subscriptor" }
%"class.libparest::Slave::Stationary::Slave.204" = type { %"class.libparest::Slave::Base", %"class.libparest::Slave::Stationary::GlobalMatrix::Matrix.205"*, %"class.dealii::BlockVector", %"class.dealii::BlockVector", %"class.dealii::Vector.32", %"class.dealii::BlockVector", %"class.dealii::SmartPointer.33", %"class.dealii::SmartPointer.34", %"class.dealii::SmartPointer.35" }
%"class.libparest::Slave::Stationary::GlobalMatrix::Matrix.205" = type <{ i32 (...)**, %"class.dealii::SmartPointer.206", %"class.dealii::SmartPointer.206", %"class.dealii::SmartPointer.209", %"class.dealii::SmartPointer.211", %"class.dealii::BlockSparseMatrix.213", %"class.dealii::SmartPointer.219", %"class.dealii::Vector.32", %"class.dealii::Threads::DummyThreadMutex", [7 x i8] }>
%"class.dealii::SmartPointer.206" = type { %"class.dealii::SparseMatrix.207"*, i8* }
%"class.dealii::SparseMatrix.207" = type <{ i32 (...)**, %"class.dealii::SmartPointer.37", float*, i32, [4 x i8], %"class.dealii::Subscriptor" }>
%"class.dealii::SmartPointer.209" = type { %"class.libparest::Slave::Stationary::GlobalMatrix::C_and_CT::C.210"*, i8* }
%"class.libparest::Slave::Stationary::GlobalMatrix::C_and_CT::C.210" = type { %"class.libparest::Slave::Stationary::GlobalMatrix::C_and_CT::Base.222" }
%"class.libparest::Slave::Stationary::GlobalMatrix::C_and_CT::Base.222" = type { %"class.dealii::Subscriptor", %"class.dealii::SmartPointer.223", %"class.dealii::SmartPointer.99", %"class.dealii::Vector.32"*, %"class.dealii::Threads::DummyThreadMutex"* }
%"class.dealii::SmartPointer.223" = type { %"class.dealii::SparseMatrix.207"*, i8* }
%"class.dealii::SmartPointer.211" = type { %"class.libparest::Slave::Stationary::GlobalMatrix::C_and_CT::CT.212"*, i8* }
%"class.libparest::Slave::Stationary::GlobalMatrix::C_and_CT::CT.212" = type { %"class.libparest::Slave::Stationary::GlobalMatrix::C_and_CT::Base.222" }
%"class.dealii::BlockSparseMatrix.213" = type { %"class.dealii::BlockMatrixBase.214", %"class.dealii::SmartPointer.55" }
%"class.dealii::BlockMatrixBase.214" = type { %"class.dealii::Subscriptor", %"class.dealii::BlockIndices", %"class.dealii::BlockIndices", %"class.dealii::Table.215", %"class.std::vector.27", %"class.std::vector.40", %"class.std::vector.45" }
%"class.dealii::Table.215" = type { %"class.dealii::TableBase.base.217", [4 x i8] }
%"class.dealii::TableBase.base.217" = type <{ %"class.dealii::Subscriptor", %"class.dealii::SmartPointer.206"*, i32, %"class.dealii::TableIndices" }>
%"class.dealii::SmartPointer.219" = type { %"class.libparest::Slave::Stationary::GlobalMatrix::Matrix_A_Inverse.220"*, i8* }
%"class.libparest::Slave::Stationary::GlobalMatrix::Matrix_A_Inverse.220" = type { %"class.dealii::Subscriptor" }
%"class.std::allocator.19" = type { i8 }
%"struct.libparest::MessageLog::Client::PriorityObject" = type { i32 }
%"class.dealii::Threads::DummyThreadMutex::ScopedLock" = type { i8 }
%"class.std::vector.193" = type { %"struct.std::_Vector_base.194" }
%"struct.std::_Vector_base.194" = type { %"struct.std::_Vector_base<dealii::Vector<double> *, std::allocator<dealii::Vector<double> *> >::_Vector_impl" }
%"struct.std::_Vector_base<dealii::Vector<double> *, std::allocator<dealii::Vector<double> *> >::_Vector_impl" = type { %"struct.std::_Vector_base<dealii::Vector<double> *, std::allocator<dealii::Vector<double> *> >::_Vector_impl_data" }
%"struct.std::_Vector_base<dealii::Vector<double> *, std::allocator<dealii::Vector<double> *> >::_Vector_impl_data" = type { %"class.dealii::Vector"**, %"class.dealii::Vector"**, %"class.dealii::Vector"** }
%"class.std::vector.198" = type { %"struct.std::_Vector_base.199" }
%"struct.std::_Vector_base.199" = type { %"struct.std::_Vector_base<dealii::Threads::Thread<double>, std::allocator<dealii::Threads::Thread<double> > >::_Vector_impl" }
%"struct.std::_Vector_base<dealii::Threads::Thread<double>, std::allocator<dealii::Threads::Thread<double> > >::_Vector_impl" = type { %"struct.std::_Vector_base<dealii::Threads::Thread<double>, std::allocator<dealii::Threads::Thread<double> > >::_Vector_impl_data" }
%"struct.std::_Vector_base<dealii::Threads::Thread<double>, std::allocator<dealii::Threads::Thread<double> > >::_Vector_impl_data" = type { %"class.dealii::Threads::Thread"*, %"class.dealii::Threads::Thread"*, %"class.dealii::Threads::Thread"* }
%"class.dealii::Threads::Thread" = type { %"class.boost::shared_ptr" }
%"class.boost::shared_ptr" = type { %"struct.dealii::Threads::internal::ThreadDescriptor"*, %"class.boost::detail::shared_count" }
%"struct.dealii::Threads::internal::ThreadDescriptor" = type { %"struct.dealii::Threads::internal::return_value" }
%"struct.dealii::Threads::internal::return_value" = type { double }
%"class.boost::detail::shared_count" = type { %"class.boost::detail::sp_counted_base"* }
%"class.boost::detail::sp_counted_base" = type { i32 (...)**, i64, i64 }
%"class.dealii::Threads::internal::fun_encapsulator" = type { %"class.boost::function" }
%"class.boost::function" = type { %"class.boost::function2" }
%"class.boost::function2" = type { %"class.boost::function_base" }
%"class.boost::function_base" = type { %"struct.boost::detail::function::vtable_base"*, %"union.boost::detail::function::function_buffer" }
%"class.boost::_bi::bind_t" = type { %"class.boost::_mfi::cmf2", %"class.boost::_bi::list3" }
%"class.boost::_mfi::cmf2" = type { { i64, i64 } }
%"class.boost::_bi::list3" = type { %"struct.boost::_bi::storage3" }
%"struct.boost::_bi::storage3" = type { %"struct.boost::_bi::storage2" }
%"struct.boost::_bi::storage2" = type { %"struct.boost::_bi::storage1" }
%"struct.boost::_bi::storage1" = type { %"class.boost::reference_wrapper" }
%"class.boost::reference_wrapper" = type { %"class.libparest::Slave::Stationary::Slave"* }
%"class.boost::function.233" = type { %"class.boost::function0" }
%"class.boost::function0" = type { %"class.boost::function_base" }
%"class.boost::_bi::bind_t.234" = type { %"class.boost::function", %"class.boost::_bi::list2.235" }
%"class.boost::_bi::list2.235" = type { %"struct.boost::_bi::storage2.236" }
%"struct.boost::_bi::storage2.236" = type { %"struct.boost::_bi::storage1.237", %"class.boost::reference_wrapper.238" }
%"struct.boost::_bi::storage1.237" = type { %"class.boost::_bi::value" }
%"class.boost::_bi::value" = type { double }
%"class.boost::reference_wrapper.238" = type { %"class.dealii::Vector"* }
%"class.std::allocator.200" = type { i8 }
%"class.dealii::BlockVector.224" = type { %"class.dealii::BlockVectorBase.225" }
%"class.dealii::BlockVectorBase.225" = type { %"class.dealii::Subscriptor", %"class.std::vector.226", %"class.dealii::BlockIndices" }
%"class.std::vector.226" = type { %"struct.std::_Vector_base.227" }
%"struct.std::_Vector_base.227" = type { %"struct.std::_Vector_base<dealii::Vector<float>, std::allocator<dealii::Vector<float> > >::_Vector_impl" }
%"struct.std::_Vector_base<dealii::Vector<float>, std::allocator<dealii::Vector<float> > >::_Vector_impl" = type { %"struct.std::_Vector_base<dealii::Vector<float>, std::allocator<dealii::Vector<float> > >::_Vector_impl_data" }
%"struct.std::_Vector_base<dealii::Vector<float>, std::allocator<dealii::Vector<float> > >::_Vector_impl_data" = type { %"class.dealii::Vector.32"*, %"class.dealii::Vector.32"*, %"class.dealii::Vector.32"* }
%"class.boost::_bi::bind_t.241" = type { %"class.boost::_mfi::cmf2.242", %"class.boost::_bi::list3.243" }
%"class.boost::_mfi::cmf2.242" = type { { i64, i64 } }
%"class.boost::_bi::list3.243" = type { %"struct.boost::_bi::storage3.244" }
%"struct.boost::_bi::storage3.244" = type { %"struct.boost::_bi::storage2.245" }
%"struct.boost::_bi::storage2.245" = type { %"struct.boost::_bi::storage1.246" }
%"struct.boost::_bi::storage1.246" = type { %"class.boost::reference_wrapper.247" }
%"class.boost::reference_wrapper.247" = type { %"class.libparest::Slave::Stationary::Slave.204"* }
%"class.__gnu_cxx::new_allocator.201" = type { i8 }
%"struct.std::binary_function.203" = type { i8 }
%"struct.boost::detail::function::function_obj_tag" = type { i8 }
%"struct.boost::detail::function::function_buffer::type_t" = type { %"class.std::type_info"*, i8, i8 }
%"struct.mpl_::bool_" = type { i8 }
%"class.boost::_bi::list2" = type { %"struct.boost::_bi::storage2.231" }
%"struct.boost::_bi::storage2.231" = type { %"struct.boost::_bi::storage1.232", %"class.dealii::Vector"* }
%"struct.boost::_bi::storage1.232" = type { double* }
%"class.boost::_bi::type" = type { i8 }
%"struct.mpl_::bool_.239" = type { i8 }
%"class.boost::_bi::list0" = type { i8 }
%"class.boost::bad_function_call" = type { %"class.std::runtime_error" }
%"class.std::runtime_error" = type { %"class.std::exception", %"struct.std::__cow_string" }
%"class.std::exception" = type { i32 (...)** }
%"struct.std::__cow_string" = type { %union.anon.240 }
%union.anon.240 = type { i8* }
%"struct.boost::exception_detail::error_info_injector" = type <{ %"class.boost::bad_function_call", %"class.boost::exception.base", [4 x i8] }>
%"class.boost::exception.base" = type <{ i32 (...)**, %"class.boost::exception_detail::refcount_ptr", i8*, i8*, i32 }>
%"class.boost::exception_detail::refcount_ptr" = type { %"struct.boost::exception_detail::error_info_container"* }
%"struct.boost::exception_detail::error_info_container" = type { i32 (...)** }
%"class.boost::exception_detail::clone_impl" = type { %"struct.boost::exception_detail::error_info_injector.base", %"class.boost::exception_detail::clone_base" }
%"struct.boost::exception_detail::error_info_injector.base" = type <{ %"class.boost::bad_function_call", %"class.boost::exception.base" }>
%"class.boost::exception_detail::clone_base" = type { i32 (...)** }
%"class.boost::exception" = type <{ i32 (...)**, %"class.boost::exception_detail::refcount_ptr", i8*, i8*, i32, [4 x i8] }>
%"class.boost::detail::sp_counted_impl_p" = type { %"class.boost::detail::sp_counted_base", %"struct.dealii::Threads::internal::ThreadDescriptor"* }
%"class.__gnu_cxx::__normal_iterator" = type { %"class.dealii::Threads::Thread"* }
%"class.dealii::Threads::Thread<double>::ExcNoThread" = type { %"class.dealii::ExceptionBase.base", [4 x i8] }
%"class.dealii::ExceptionBase.base" = type <{ %"class.std::exception", i8*, i32, [4 x i8], i8*, i8*, i8*, i8**, i32 }>
%"class.dealii::ExceptionBase" = type <{ %"class.std::exception", i8*, i32, [4 x i8], i8*, i8*, i8*, i8**, i32, [4 x i8] }>

$_ZN5boost3argILi1EEC2Ev = comdat any

$_ZN5boost3argILi2EEC2Ev = comdat any

$_ZN5boost3argILi3EEC2Ev = comdat any

$_ZN5boost3argILi4EEC2Ev = comdat any

$_ZN5boost3argILi5EEC2Ev = comdat any

$_ZN5boost3argILi6EEC2Ev = comdat any

$_ZN5boost3argILi7EEC2Ev = comdat any

$_ZN5boost3argILi8EEC2Ev = comdat any

$_ZN5boost3argILi9EEC2Ev = comdat any

$_ZN9libparest5Slave10Stationary5SlaveILi3EdEC5ERKNSt7__cxx1112basic_stringIcSt11char_traitsIcESaIcEEEjRNS_10MessageLog10ServerBaseE = comdat any

$_ZN6dealii6VectorIfEC2Ev = comdat any

$_ZN6dealii12SmartPointerIN9libparest9Parameter5Field16DiscretizedFieldILi3EEEEC2Ev = comdat any

$_ZN6dealii12SmartPointerIN9libparest5Slave10Stationary14Discretization4BaseILi3EEEEC2Ev = comdat any

$_ZN6dealii12SmartPointerIN9libparest5Slave10Stationary14Discretization4BaseILi3EE17PerStepStatisticsEEC2Ev = comdat any

$_ZN6dealii12SmartPointerIN9libparest5Slave10Stationary14Discretization4BaseILi3EEEED2Ev = comdat any

$_ZN6dealii12SmartPointerIN9libparest9Parameter5Field16DiscretizedFieldILi3EEEED2Ev = comdat any

$_ZN6dealii6VectorIfED2Ev = comdat any

$_ZN9libparest5Slave4BaseD2Ev = comdat any

$_ZN9libparest5Slave10Stationary5SlaveILi3EdED5Ev = comdat any

$_ZN9libparest10delete_ptrINS_5Slave10Stationary12GlobalMatrix6MatrixIdEEEEvRPT_ = comdat any

$_ZN6dealii12SmartPointerIN9libparest5Slave10Stationary14Discretization4BaseILi3EE17PerStepStatisticsEED2Ev = comdat any

$__clang_call_terminate = comdat any

$_ZN9libparest5Slave10Stationary5SlaveILi3EdE28initialize_gauss_newton_stepEj = comdat any

$_ZN9libparest5Slave10Stationary5SlaveILi3EdE21end_gauss_newton_stepEv = comdat any

$_ZNK6dealii12SmartPointerIN9libparest5Slave10Stationary14Discretization4BaseILi3EEEEptEv = comdat any

$_ZNK6dealii12SmartPointerIN9libparest5Slave10Stationary14Discretization4BaseILi3EE17PerStepStatisticsEEdeEv = comdat any

$_ZN6dealii12SmartPointerIN9libparest5Slave10Stationary14Discretization4BaseILi3EE17PerStepStatisticsEEaSEPS7_ = comdat any

$_ZN9libparest5Slave10Stationary5SlaveILi3EdE11compute_rhsERN6dealii6VectorIdEES7_ = comdat any

$_ZN6dealii15BlockVectorBaseINS_6VectorIdEEE5blockEj = comdat any

$_ZNK6dealii12SmartPointerIN9libparest5Slave10Stationary12GlobalMatrix16Matrix_A_InverseIdEEEptEv = comdat any

$_ZNK6dealii12SmartPointerINS_12SparseMatrixIdEEEptEv = comdat any

$_ZNK6dealii12SmartPointerIN9libparest5Slave10Stationary12GlobalMatrix8C_and_CT2CTINS_12SparseMatrixIdEEEEEptEv = comdat any

$_ZNK9libparest5Slave10Stationary12GlobalMatrix8C_and_CT2CTIN6dealii12SparseMatrixIdEEE5vmultINS5_6VectorIdEESB_EEvRT0_RKT_ = comdat any

$_ZN6dealii6VectorIdE5scaleEd = comdat any

$_ZN9libparest5Slave10Stationary5SlaveILi3EdE16forward_backwardERKN6dealii6VectorIdEERS6_ = comdat any

$_ZNK6dealii12SmartPointerIN9libparest5Slave10Stationary12GlobalMatrix8C_and_CT1CINS_12SparseMatrixIdEEEEEptEv = comdat any

$_ZNK9libparest5Slave10Stationary12GlobalMatrix8C_and_CT1CIN6dealii12SparseMatrixIdEEE5vmultINS5_6VectorIdEESB_EEvRT0_RKT_ = comdat any

$_ZN9libparest5Slave10Stationary5SlaveILi3EdE15compute_updatesERKN6dealii6VectorIdEE = comdat any

$_ZN9libparest5Slave10Stationary5SlaveILi3EdE15perform_updatesERKN6dealii6VectorIdEEd = comdat any

$_ZN6dealii6VectorIdE3addEdRKS1_ = comdat any

$_ZN9libparest5Slave10Stationary5SlaveILi3EdE23refine_parameterizationERKSt6vectorIbSaIbEES8_ = comdat any

$_ZNK6dealii12SmartPointerIN9libparest9Parameter5Field16DiscretizedFieldILi3EEEEptEv = comdat any

$_ZN9libparest10MessageLog6ClientlsIPKcEERS1_T_ = comdat any

$_ZN9libparest10MessageLog6ClientlsIjEERS1_T_ = comdat any

$_ZNK6dealii12SmartPointerIN9libparest9Parameter5Field14TriangulationsILi3EEEEptEv = comdat any

$_ZNK6dealii12SmartPointerIN9libparest9Parameter5Field11DoFHandlersILi3EEEEptEv = comdat any

$_ZNK6dealii10DoFHandlerILi3ELi3EE6n_dofsEv = comdat any

$_ZNK9libparest5Slave10Stationary5SlaveILi3EdE22compute_trial_residualESt6vectorIdSaIdEERS4_IPN6dealii6VectorIdEESaISA_EERS6_ = comdat any

$_ZNKSt6vectorIdSaIdEE4sizeEv = comdat any

$_ZNSt6vectorIN6dealii7Threads6ThreadIdEESaIS3_EEC2Ev = comdat any

$_ZNSt6vectorIN6dealii7Threads6ThreadIdEESaIS3_EE9push_backEOS3_ = comdat any

$_ZN6dealii7Threads5spawnIdN9libparest5Slave10Stationary5SlaveILi3EdEEdRNS_6VectorIdEEEENS0_8internal16fun_encapsulatorIT_N5boost6tuples5tupleIT1_T2_NSE_9null_typeESI_SI_SI_SI_SI_SI_SI_EELi2EEERKT0_MSL_KFSC_SG_SH_E = comdat any

$_ZN6dealii7Threads8internal16fun_encapsulatorIdN5boost6tuples5tupleIdRNS_6VectorIdEENS4_9null_typeES9_S9_S9_S9_S9_S9_S9_EELi2EEclEdS8_ = comdat any

$_ZNKSt6vectorIdSaIdEEixEm = comdat any

$_ZNSt6vectorIPN6dealii6VectorIdEESaIS3_EEixEm = comdat any

$_ZN6dealii7Threads6ThreadIdED2Ev = comdat any

$_ZN6dealii7Threads8internal16fun_encapsulatorIdN5boost6tuples5tupleIdRNS_6VectorIdEENS4_9null_typeES9_S9_S9_S9_S9_S9_S9_EELi2EED2Ev = comdat any

$_ZNSt6vectorIN6dealii7Threads6ThreadIdEESaIS3_EEixEm = comdat any

$_ZN6dealii7Threads6ThreadIdE12return_valueEv = comdat any

$_ZNSt6vectorIdSaIdEEixEm = comdat any

$_ZNSt6vectorIN6dealii7Threads6ThreadIdEESaIS3_EED2Ev = comdat any

$_ZNK9libparest5Slave10Stationary5SlaveILi3EdE20n_degrees_of_freedomEv = comdat any

$_ZNK9libparest5Slave10Stationary5SlaveILi3EdE17get_global_matrixEv = comdat any

$_ZNK9libparest5Slave10Stationary5SlaveILi3EdE24compute_trial_residual_1EdRN6dealii6VectorIdEE = comdat any

$_ZN6dealii11BlockVectorIdEaSERKS1_ = comdat any

$_ZN6dealii15BlockVectorBaseINS_6VectorIdEEE3addEdRKS3_ = comdat any

$_ZN6dealii6VectorIdEC2Ej = comdat any

$_ZN6dealii6VectorIdED2Ev = comdat any

$_ZN9libparest5Slave10Stationary5SlaveILi3EfEC5ERKNSt7__cxx1112basic_stringIcSt11char_traitsIcESaIcEEEjRNS_10MessageLog10ServerBaseE = comdat any

$_ZN9libparest5Slave10Stationary5SlaveILi3EfED5Ev = comdat any

$_ZN9libparest10delete_ptrINS_5Slave10Stationary12GlobalMatrix6MatrixIfEEEEvRPT_ = comdat any

$_ZN9libparest5Slave10Stationary5SlaveILi3EfE28initialize_gauss_newton_stepEj = comdat any

$_ZN9libparest5Slave10Stationary5SlaveILi3EfE21end_gauss_newton_stepEv = comdat any

$_ZN9libparest5Slave10Stationary5SlaveILi3EfE11compute_rhsERN6dealii6VectorIdEES7_ = comdat any

$_ZN6dealii15BlockVectorBaseINS_6VectorIfEEE5blockEj = comdat any

$_ZNK6dealii12SmartPointerIN9libparest5Slave10Stationary12GlobalMatrix16Matrix_A_InverseIfEEEptEv = comdat any

$_ZNK6dealii12SmartPointerINS_12SparseMatrixIfEEEptEv = comdat any

$_ZNK6dealii12SmartPointerIN9libparest5Slave10Stationary12GlobalMatrix8C_and_CT2CTINS_12SparseMatrixIfEEEEEptEv = comdat any

$_ZNK9libparest5Slave10Stationary12GlobalMatrix8C_and_CT2CTIN6dealii12SparseMatrixIfEEE5vmultINS5_6VectorIfEENSA_IdEEEEvRT0_RKT_ = comdat any

$_ZN9libparest5Slave10Stationary5SlaveILi3EfE16forward_backwardERKN6dealii6VectorIdEERS6_ = comdat any

$_ZNK6dealii12SmartPointerIN9libparest5Slave10Stationary12GlobalMatrix8C_and_CT1CINS_12SparseMatrixIfEEEEEptEv = comdat any

$_ZNK9libparest5Slave10Stationary12GlobalMatrix8C_and_CT1CIN6dealii12SparseMatrixIfEEE5vmultINS5_6VectorIdEENSA_IfEEEEvRT0_RKT_ = comdat any

$_ZN9libparest5Slave10Stationary5SlaveILi3EfE15compute_updatesERKN6dealii6VectorIdEE = comdat any

$_ZNK9libparest5Slave10Stationary12GlobalMatrix8C_and_CT1CIN6dealii12SparseMatrixIfEEE5vmultINS5_6VectorIdEESB_EEvRT0_RKT_ = comdat any

$_ZN9libparest5Slave10Stationary5SlaveILi3EfE15perform_updatesERKN6dealii6VectorIdEEd = comdat any

$_ZN9libparest5Slave10Stationary5SlaveILi3EfE23refine_parameterizationERKSt6vectorIbSaIbEES8_ = comdat any

$_ZNK9libparest5Slave10Stationary5SlaveILi3EfE22compute_trial_residualESt6vectorIdSaIdEERS4_IPN6dealii6VectorIdEESaISA_EERS6_ = comdat any

$_ZN6dealii7Threads5spawnIdN9libparest5Slave10Stationary5SlaveILi3EfEEdRNS_6VectorIdEEEENS0_8internal16fun_encapsulatorIT_N5boost6tuples5tupleIT1_T2_NSE_9null_typeESI_SI_SI_SI_SI_SI_SI_EELi2EEERKT0_MSL_KFSC_SG_SH_E = comdat any

$_ZNK9libparest5Slave10Stationary5SlaveILi3EfE20n_degrees_of_freedomEv = comdat any

$_ZNK9libparest5Slave10Stationary5SlaveILi3EfE17get_global_matrixEv = comdat any

$_ZNK9libparest5Slave10Stationary5SlaveILi3EfE24compute_trial_residual_1EdRN6dealii6VectorIdEE = comdat any

$_ZNSt12_Vector_baseIN6dealii7Threads6ThreadIdEESaIS3_EEC2Ev = comdat any

$_ZNSt12_Vector_baseIN6dealii7Threads6ThreadIdEESaIS3_EE12_Vector_implC2Ev = comdat any

$_ZNSaIN6dealii7Threads6ThreadIdEEEC2Ev = comdat any

$_ZNSt12_Vector_baseIN6dealii7Threads6ThreadIdEESaIS3_EE17_Vector_impl_dataC2Ev = comdat any

$_ZN9__gnu_cxx13new_allocatorIN6dealii7Threads6ThreadIdEEEC2Ev = comdat any

$_ZN5boost10shared_ptrIN6dealii7Threads8internal16ThreadDescriptorIdEEED2Ev = comdat any

$_ZN5boost6detail12shared_countD2Ev = comdat any

$_ZN5boost6detail15sp_counted_base7releaseEv = comdat any

$_ZN5boost6detail15sp_counted_base12weak_releaseEv = comdat any

$_ZN5boost8functionIFddRN6dealii6VectorIdEEEED2Ev = comdat any

$_ZN5boost9function2IddRN6dealii6VectorIdEEED2Ev = comdat any

$_ZN5boost9function2IddRN6dealii6VectorIdEEE5clearEv = comdat any

$_ZN5boost6detail8function13basic_vtable2IddRN6dealii6VectorIdEEE5clearERNS1_15function_bufferE = comdat any

$_ZN6dealii6VectorIfED0Ev = comdat any

$_ZN6dealii6VectorIfE6reinitEjb = comdat any

$_ZN6dealii6VectorIfE4swapERS1_ = comdat any

$_ZN6dealii6VectorIfEaSEf = comdat any

$_ZSt4fillIPffEvT_S1_RKT0_ = comdat any

$_ZN6dealii6VectorIfE5beginEv = comdat any

$_ZN6dealii6VectorIfE3endEv = comdat any

$_ZSt8__fill_aIPffEvT_S1_RKT0_ = comdat any

$_ZSt9__fill_a1IPffEN9__gnu_cxx11__enable_ifIXsr11__is_scalarIT0_EE7__valueEvE6__typeET_S6_RKS3_ = comdat any

$_ZSt4swapIjENSt9enable_ifIXsr6__and_ISt6__not_ISt15__is_tuple_likeIT_EESt21is_move_constructibleIS3_ESt18is_move_assignableIS3_EEE5valueEvE4typeERS3_SC_ = comdat any

$_ZSt4swapIPfENSt9enable_ifIXsr6__and_ISt6__not_ISt15__is_tuple_likeIT_EESt21is_move_constructibleIS4_ESt18is_move_assignableIS4_EEE5valueEvE4typeERS4_SD_ = comdat any

$_ZSt4moveIRjEONSt16remove_referenceIT_E4typeEOS2_ = comdat any

$_ZSt4moveIRPfEONSt16remove_referenceIT_E4typeEOS3_ = comdat any

$_ZNK6dealii11Subscriptor11unsubscribeEPKc = comdat any

$_ZNK6dealii11Subscriptor9subscribeEPKc = comdat any

$_ZNSt6vectorIN6dealii6VectorIdEESaIS2_EEixEm = comdat any

$_ZNK6dealii7Threads16DummyThreadMutex7acquireEv = comdat any

$_ZNK6dealii12SmartPointerIKNS_12SparseMatrixIdEEEptEv = comdat any

$_ZNK6dealii7Threads16DummyThreadMutex7releaseEv = comdat any

$_ZN6dealii6VectorIdE5beginEv = comdat any

$_ZN6dealii6VectorIdE3endEv = comdat any

$_ZNK6dealii6VectorIdE5beginEv = comdat any

$_ZN6dealii7Threads16DummyThreadMutex10ScopedLockC2ERS1_ = comdat any

$_ZN6dealii7Threads16DummyThreadMutex10ScopedLockD2Ev = comdat any

$_ZSt8_DestroyIPN6dealii7Threads6ThreadIdEES3_EvT_S5_RSaIT0_E = comdat any

$_ZNSt12_Vector_baseIN6dealii7Threads6ThreadIdEESaIS3_EE19_M_get_Tp_allocatorEv = comdat any

$_ZNSt12_Vector_baseIN6dealii7Threads6ThreadIdEESaIS3_EED2Ev = comdat any

$_ZSt8_DestroyIPN6dealii7Threads6ThreadIdEEEvT_S5_ = comdat any

$_ZNSt12_Destroy_auxILb0EE9__destroyIPN6dealii7Threads6ThreadIdEEEEvT_S7_ = comdat any

$_ZSt8_DestroyIN6dealii7Threads6ThreadIdEEEvPT_ = comdat any

$_ZSt11__addressofIN6dealii7Threads6ThreadIdEEEPT_RS4_ = comdat any

$_ZNSt12_Vector_baseIN6dealii7Threads6ThreadIdEESaIS3_EE13_M_deallocateEPS3_m = comdat any

$_ZNSt12_Vector_baseIN6dealii7Threads6ThreadIdEESaIS3_EE12_Vector_implD2Ev = comdat any

$_ZNSt16allocator_traitsISaIN6dealii7Threads6ThreadIdEEEE10deallocateERS4_PS3_m = comdat any

$_ZN9__gnu_cxx13new_allocatorIN6dealii7Threads6ThreadIdEEE10deallocateEPS4_m = comdat any

$_ZNSaIN6dealii7Threads6ThreadIdEEED2Ev = comdat any

$_ZN9__gnu_cxx13new_allocatorIN6dealii7Threads6ThreadIdEEED2Ev = comdat any

$_ZN5boost4bindIdN9libparest5Slave10Stationary5SlaveILi3EdEEdRN6dealii6VectorIdEENS_17reference_wrapperIKS5_EENS_3argILi1EEENSD_ILi2EEEEENS_3_bi6bind_tIT_NS_4_mfi4cmf2ISI_T0_T1_T2_EENSG_9list_av_3IT3_T4_T5_E4typeEEEMSL_KFSI_SM_SN_ESQ_SR_SS_ = comdat any

$_ZN5boost4crefIN9libparest5Slave10Stationary5SlaveILi3EdEEEEKNS_17reference_wrapperIKT_EERS8_ = comdat any

$_ZN5boost8functionIFddRN6dealii6VectorIdEEEEC2INS_3_bi6bind_tIdNS_4_mfi4cmf2IdN9libparest5Slave10Stationary5SlaveILi3EdEEdS4_EENS8_5list3INS_17reference_wrapperIKSG_EENS_3argILi1EEENSM_ILi2EEEEEEEEET_NS_11enable_if_cIXsr5boost11type_traits7ice_notIXsr11is_integralISR_EE5valueEEE5valueEiE4typeE = comdat any

$_ZN6dealii7Threads8internal16fun_encapsulatorIdN5boost6tuples5tupleIdRNS_6VectorIdEENS4_9null_typeES9_S9_S9_S9_S9_S9_S9_EELi2EEC2ERKNS3_8functionIFddS8_EEE = comdat any

$_ZN5boost4_mfi4cmf2IdN9libparest5Slave10Stationary5SlaveILi3EdEEdRN6dealii6VectorIdEEEC2EMS6_KFddSA_E = comdat any

$_ZN5boost3_bi5list3INS_17reference_wrapperIKN9libparest5Slave10Stationary5SlaveILi3EdEEEENS_3argILi1EEENSA_ILi2EEEEC2ES9_SB_SC_ = comdat any

$_ZN5boost3_bi6bind_tIdNS_4_mfi4cmf2IdN9libparest5Slave10Stationary5SlaveILi3EdEEdRN6dealii6VectorIdEEEENS0_5list3INS_17reference_wrapperIKS8_EENS_3argILi1EEENSI_ILi2EEEEEEC2ESD_RKSL_ = comdat any

$_ZN5boost3_bi8storage3INS_17reference_wrapperIKN9libparest5Slave10Stationary5SlaveILi3EdEEEENS_3argILi1EEENSA_ILi2EEEEC2ES9_SB_SC_ = comdat any

$_ZN5boost3_bi8storage2INS_17reference_wrapperIKN9libparest5Slave10Stationary5SlaveILi3EdEEEENS_3argILi1EEEEC2ES9_SB_ = comdat any

$_ZN5boost3_bi8storage1INS_17reference_wrapperIKN9libparest5Slave10Stationary5SlaveILi3EdEEEEEC2ES9_ = comdat any

$_ZN5boost17reference_wrapperIKN9libparest5Slave10Stationary5SlaveILi3EdEEEC2ERS6_ = comdat any

$_ZN5boost9addressofIKN9libparest5Slave10Stationary5SlaveILi3EdEEEEPT_RS7_ = comdat any

$_ZN5boost6detail14addressof_implIKN9libparest5Slave10Stationary5SlaveILi3EdEEE1fERS7_l = comdat any

$_ZN5boost9function2IddRN6dealii6VectorIdEEEC2INS_3_bi6bind_tIdNS_4_mfi4cmf2IdN9libparest5Slave10Stationary5SlaveILi3EdEEdS4_EENS7_5list3INS_17reference_wrapperIKSF_EENS_3argILi1EEENSL_ILi2EEEEEEEEET_NS_11enable_if_cIXsr5boost11type_traits7ice_notIXsr11is_integralISQ_EE5valueEEE5valueEiE4typeE = comdat any

$_ZN5boost13function_baseC2Ev = comdat any

$_ZN5boost9function2IddRN6dealii6VectorIdEEE9assign_toINS_3_bi6bind_tIdNS_4_mfi4cmf2IdN9libparest5Slave10Stationary5SlaveILi3EdEEdS4_EENS7_5list3INS_17reference_wrapperIKSF_EENS_3argILi1EEENSL_ILi2EEEEEEEEEvT_ = comdat any

$_ZN5boost6detail8function15functor_managerINS_3_bi6bind_tIdNS_4_mfi4cmf2IdN9libparest5Slave10Stationary5SlaveILi3EdEEdRN6dealii6VectorIdEEEENS3_5list3INS_17reference_wrapperIKSB_EENS_3argILi1EEENSL_ILi2EEEEEEEE6manageERKNS1_15function_bufferERSR_NS1_30functor_manager_operation_typeE = comdat any

$_ZN5boost6detail8function21function_obj_invoker2INS_3_bi6bind_tIdNS_4_mfi4cmf2IdN9libparest5Slave10Stationary5SlaveILi3EdEEdRN6dealii6VectorIdEEEENS3_5list3INS_17reference_wrapperIKSB_EENS_3argILi1EEENSL_ILi2EEEEEEEddSF_E6invokeERNS1_15function_bufferEdSF_ = comdat any

$_ZN5boost6detail8function13basic_vtable2IddRN6dealii6VectorIdEEE9assign_toINS_3_bi6bind_tIdNS_4_mfi4cmf2IdN9libparest5Slave10Stationary5SlaveILi3EdEEdS6_EENS9_5list3INS_17reference_wrapperIKSH_EENS_3argILi1EEENSN_ILi2EEEEEEEEEbT_RNS1_15function_bufferE = comdat any

$_ZN5boost6detail8function15functor_managerINS_3_bi6bind_tIdNS_4_mfi4cmf2IdN9libparest5Slave10Stationary5SlaveILi3EdEEdRN6dealii6VectorIdEEEENS3_5list3INS_17reference_wrapperIKSB_EENS_3argILi1EEENSL_ILi2EEEEEEEE7managerERKNS1_15function_bufferERSR_NS1_30functor_manager_operation_typeENS1_16function_obj_tagE = comdat any

$_ZN5boost6detail8function15functor_managerINS_3_bi6bind_tIdNS_4_mfi4cmf2IdN9libparest5Slave10Stationary5SlaveILi3EdEEdRN6dealii6VectorIdEEEENS3_5list3INS_17reference_wrapperIKSB_EENS_3argILi1EEENSL_ILi2EEEEEEEE7managerERKNS1_15function_bufferERSR_NS1_30functor_manager_operation_typeEN4mpl_5bool_ILb1EEE = comdat any

$_ZN5boost6detail8function22functor_manager_commonINS_3_bi6bind_tIdNS_4_mfi4cmf2IdN9libparest5Slave10Stationary5SlaveILi3EdEEdRN6dealii6VectorIdEEEENS3_5list3INS_17reference_wrapperIKSB_EENS_3argILi1EEENSL_ILi2EEEEEEEE12manage_smallERKNS1_15function_bufferERSR_NS1_30functor_manager_operation_typeE = comdat any

$_ZNKSt9type_info4nameEv = comdat any

$_ZN5boost3_bi6bind_tIdNS_4_mfi4cmf2IdN9libparest5Slave10Stationary5SlaveILi3EdEEdRN6dealii6VectorIdEEEENS0_5list3INS_17reference_wrapperIKS8_EENS_3argILi1EEENSI_ILi2EEEEEEclIdSB_EEdRT_RT0_ = comdat any

$_ZN5boost3_bi5list2IRdRN6dealii6VectorIdEEEC2ES2_S6_ = comdat any

$_ZN5boost3_bi5list3INS_17reference_wrapperIKN9libparest5Slave10Stationary5SlaveILi3EdEEEENS_3argILi1EEENSA_ILi2EEEEclIdNS_4_mfi4cmf2IdS7_dRN6dealii6VectorIdEEEENS0_5list2IRdSK_EEEET_NS0_4typeISP_EERT0_RT1_l = comdat any

$_ZN5boost3_bi8storage2IRdRN6dealii6VectorIdEEEC2ES2_S6_ = comdat any

$_ZN5boost3_bi8storage1IRdEC2ES2_ = comdat any

$_ZN5boost3_bi9unwrapperINS_4_mfi4cmf2IdN9libparest5Slave10Stationary5SlaveILi3EdEEdRN6dealii6VectorIdEEEEE6unwrapERSD_l = comdat any

$_ZNK5boost4_mfi4cmf2IdN9libparest5Slave10Stationary5SlaveILi3EdEEdRN6dealii6VectorIdEEEclERKS6_dSA_ = comdat any

$_ZNK5boost3_bi5list2IRdRN6dealii6VectorIdEEEixIKN9libparest5Slave10Stationary5SlaveILi3EdEEEERT_RKNS_17reference_wrapperISF_EE = comdat any

$_ZNK5boost3_bi5list2IRdRN6dealii6VectorIdEEEixEPFNS_3argILi1EEEvE = comdat any

$_ZN5boost3_bi8storage2INS_17reference_wrapperIKN9libparest5Slave10Stationary5SlaveILi3EdEEEENS_3argILi1EEEE3a2_Ev = comdat any

$_ZNK5boost3_bi5list2IRdRN6dealii6VectorIdEEEixEPFNS_3argILi2EEEvE = comdat any

$_ZN5boost3_bi8storage3INS_17reference_wrapperIKN9libparest5Slave10Stationary5SlaveILi3EdEEEENS_3argILi1EEENSA_ILi2EEEE3a3_Ev = comdat any

$_ZNK5boost17reference_wrapperIKN9libparest5Slave10Stationary5SlaveILi3EdEEE3getEv = comdat any

$_ZN5boost6detail8function13basic_vtable2IddRN6dealii6VectorIdEEE9assign_toINS_3_bi6bind_tIdNS_4_mfi4cmf2IdN9libparest5Slave10Stationary5SlaveILi3EdEEdS6_EENS9_5list3INS_17reference_wrapperIKSH_EENS_3argILi1EEENSN_ILi2EEEEEEEEEbT_RNS1_15function_bufferENS1_16function_obj_tagE = comdat any

$_ZN5boost6detail8function16has_empty_targetEz = comdat any

$_ZN5boost9addressofINS_3_bi6bind_tIdNS_4_mfi4cmf2IdN9libparest5Slave10Stationary5SlaveILi3EdEEdRN6dealii6VectorIdEEEENS1_5list3INS_17reference_wrapperIKS9_EENS_3argILi1EEENSJ_ILi2EEEEEEEEEPT_RSO_ = comdat any

$_ZN5boost6detail8function13basic_vtable2IddRN6dealii6VectorIdEEE14assign_functorINS_3_bi6bind_tIdNS_4_mfi4cmf2IdN9libparest5Slave10Stationary5SlaveILi3EdEEdS6_EENS9_5list3INS_17reference_wrapperIKSH_EENS_3argILi1EEENSN_ILi2EEEEEEEEEvT_RNS1_15function_bufferEN4mpl_5bool_ILb1EEE = comdat any

$_ZN5boost6detail14addressof_implINS_3_bi6bind_tIdNS_4_mfi4cmf2IdN9libparest5Slave10Stationary5SlaveILi3EdEEdRN6dealii6VectorIdEEEENS2_5list3INS_17reference_wrapperIKSA_EENS_3argILi1EEENSK_ILi2EEEEEEEE1fERSO_l = comdat any

$_ZN5boost8functionIFddRN6dealii6VectorIdEEEEC2ERKS6_ = comdat any

$_ZN5boost9function2IddRN6dealii6VectorIdEEEC2ERKS5_ = comdat any

$_ZN5boost9function2IddRN6dealii6VectorIdEEE13assign_to_ownERKS5_ = comdat any

$_ZNK5boost13function_base5emptyEv = comdat any

$_ZN5boost4bindINS_8functionIFddRN6dealii6VectorIdEEEEEdNS_17reference_wrapperIS4_EEEENS_3_bi6bind_tINSA_11unspecifiedET_NSA_9list_av_2IT0_T1_E4typeEEESD_SF_SG_ = comdat any

$_ZN6dealii7Threads8internal14maybe_make_refIdE3actERd = comdat any

$_ZN6dealii7Threads8internal14maybe_make_refIRNS_6VectorIdEEE3actES5_ = comdat any

$_ZN5boost8functionIFdvEEC2INS_3_bi6bind_tINS4_11unspecifiedENS0_IFddRN6dealii6VectorIdEEEEENS4_5list2INS4_5valueIdEENS_17reference_wrapperIS9_EEEEEEEET_NS_11enable_if_cIXsr5boost11type_traits7ice_notIXsr11is_integralISK_EE5valueEEE5valueEiE4typeE = comdat any

$_ZN6dealii7Threads6ThreadIdEC2ERKN5boost8functionIFdvEEE = comdat any

$_ZN5boost8functionIFdvEED2Ev = comdat any

$_ZN5boost3_bi6bind_tINS0_11unspecifiedENS_8functionIFddRN6dealii6VectorIdEEEEENS0_5list2INS0_5valueIdEENS_17reference_wrapperIS6_EEEEED2Ev = comdat any

$_ZN5boost3_bi5valueIdEC2ERKd = comdat any

$_ZN5boost3_bi5list2INS0_5valueIdEENS_17reference_wrapperIN6dealii6VectorIdEEEEEC2ES3_S8_ = comdat any

$_ZN5boost3_bi6bind_tINS0_11unspecifiedENS_8functionIFddRN6dealii6VectorIdEEEEENS0_5list2INS0_5valueIdEENS_17reference_wrapperIS6_EEEEEC2ES9_RKSF_ = comdat any

$_ZN5boost3_bi8storage2INS0_5valueIdEENS_17reference_wrapperIN6dealii6VectorIdEEEEEC2ES3_S8_ = comdat any

$_ZN5boost3_bi8storage1INS0_5valueIdEEEC2ES3_ = comdat any

$_ZN5boost3refIN6dealii6VectorIdEEEEKNS_17reference_wrapperIT_EERS5_ = comdat any

$_ZN5boost17reference_wrapperIN6dealii6VectorIdEEEC2ERS3_ = comdat any

$_ZN5boost9addressofIN6dealii6VectorIdEEEEPT_RS4_ = comdat any

$_ZN5boost6detail14addressof_implIN6dealii6VectorIdEEE1fERS4_l = comdat any

$_ZN5boost3_bi6bind_tINS0_11unspecifiedENS_8functionIFddRN6dealii6VectorIdEEEEENS0_5list2INS0_5valueIdEENS_17reference_wrapperIS6_EEEEEC2ERKSG_ = comdat any

$_ZN5boost9function0IdEC2INS_3_bi6bind_tINS3_11unspecifiedENS_8functionIFddRN6dealii6VectorIdEEEEENS3_5list2INS3_5valueIdEENS_17reference_wrapperIS9_EEEEEEEET_NS_11enable_if_cIXsr5boost11type_traits7ice_notIXsr11is_integralISK_EE5valueEEE5valueEiE4typeE = comdat any

$_ZN5boost9function0IdE9assign_toINS_3_bi6bind_tINS3_11unspecifiedENS_8functionIFddRN6dealii6VectorIdEEEEENS3_5list2INS3_5valueIdEENS_17reference_wrapperIS9_EEEEEEEEvT_ = comdat any

$_ZN5boost6detail8function15functor_managerINS_3_bi6bind_tINS3_11unspecifiedENS_8functionIFddRN6dealii6VectorIdEEEEENS3_5list2INS3_5valueIdEENS_17reference_wrapperIS9_EEEEEEE6manageERKNS1_15function_bufferERSL_NS1_30functor_manager_operation_typeE = comdat any

$_ZN5boost6detail8function21function_obj_invoker0INS_3_bi6bind_tINS3_11unspecifiedENS_8functionIFddRN6dealii6VectorIdEEEEENS3_5list2INS3_5valueIdEENS_17reference_wrapperIS9_EEEEEEdE6invokeERNS1_15function_bufferE = comdat any

$_ZN5boost6detail8function13basic_vtable0IdE9assign_toINS_3_bi6bind_tINS5_11unspecifiedENS_8functionIFddRN6dealii6VectorIdEEEEENS5_5list2INS5_5valueIdEENS_17reference_wrapperISB_EEEEEEEEbT_RNS1_15function_bufferE = comdat any

$_ZN5boost6detail8function15functor_managerINS_3_bi6bind_tINS3_11unspecifiedENS_8functionIFddRN6dealii6VectorIdEEEEENS3_5list2INS3_5valueIdEENS_17reference_wrapperIS9_EEEEEEE7managerERKNS1_15function_bufferERSL_NS1_30functor_manager_operation_typeENS1_16function_obj_tagE = comdat any

$_ZN5boost6detail8function15functor_managerINS_3_bi6bind_tINS3_11unspecifiedENS_8functionIFddRN6dealii6VectorIdEEEEENS3_5list2INS3_5valueIdEENS_17reference_wrapperIS9_EEEEEEE7managerERKNS1_15function_bufferERSL_NS1_30functor_manager_operation_typeEN4mpl_5bool_ILb0EEE = comdat any

$_ZN5boost3_bi6bind_tINS0_11unspecifiedENS_8functionIFddRN6dealii6VectorIdEEEEENS0_5list2INS0_5valueIdEENS_17reference_wrapperIS6_EEEEEclEv = comdat any

$_ZN5boost3_bi5list0C2Ev = comdat any

$_ZN5boost3_bi5list2INS0_5valueIdEENS_17reference_wrapperIN6dealii6VectorIdEEEEEclIdNS_8functionIFddRS7_EEENS0_5list0EEET_NS0_4typeISG_EERT0_RT1_l = comdat any

$_ZN5boost3_bi9unwrapperINS_8functionIFddRN6dealii6VectorIdEEEEEE6unwrapERS8_l = comdat any

$_ZNK5boost9function2IddRN6dealii6VectorIdEEEclEdS4_ = comdat any

$_ZNK5boost3_bi5list0ixIdEERT_RNS0_5valueIS3_EE = comdat any

$_ZNK5boost3_bi5list0ixIN6dealii6VectorIdEEEERT_RKNS_17reference_wrapperIS6_EE = comdat any

$_ZN5boost15throw_exceptionINS_17bad_function_callEEEvRKT_ = comdat any

$_ZN5boost17bad_function_callC2Ev = comdat any

$_ZN5boost17bad_function_callD2Ev = comdat any

$_ZN5boost36throw_exception_assert_compatibilityERKSt9exception = comdat any

$_ZN5boost24enable_current_exceptionINS_16exception_detail19error_info_injectorINS_17bad_function_callEEEEENS1_10clone_implIT_EERKS6_ = comdat any

$_ZN5boost17enable_error_infoINS_17bad_function_callEEENS_16exception_detail29enable_error_info_return_typeIT_E4typeERKS4_ = comdat any

$_ZN5boost16exception_detail10clone_implINS0_19error_info_injectorINS_17bad_function_callEEEED2Ev = comdat any

$_ZN5boost16exception_detail19error_info_injectorINS_17bad_function_callEED2Ev = comdat any

$_ZN5boost16exception_detail10clone_implINS0_19error_info_injectorINS_17bad_function_callEEEEC2ERKS4_ = comdat any

$_ZN5boost16exception_detail19error_info_injectorINS_17bad_function_callEEC2ERKS3_ = comdat any

$_ZN5boost16exception_detail10clone_baseC2Ev = comdat any

$_ZN5boost16exception_detail20copy_boost_exceptionEPNS_9exceptionEPKS1_ = comdat any

$_ZN5boost16exception_detail10clone_implINS0_19error_info_injectorINS_17bad_function_callEEEED0Ev = comdat any

$_ZNK5boost16exception_detail10clone_implINS0_19error_info_injectorINS_17bad_function_callEEEE5cloneEv = comdat any

$_ZNK5boost16exception_detail10clone_implINS0_19error_info_injectorINS_17bad_function_callEEEE7rethrowEv = comdat any

$_ZThn16_N5boost16exception_detail10clone_implINS0_19error_info_injectorINS_17bad_function_callEEEED1Ev = comdat any

$_ZThn16_N5boost16exception_detail10clone_implINS0_19error_info_injectorINS_17bad_function_callEEEED0Ev = comdat any

$_ZThn56_NK5boost16exception_detail10clone_implINS0_19error_info_injectorINS_17bad_function_callEEEE5cloneEv = comdat any

$_ZThn56_NK5boost16exception_detail10clone_implINS0_19error_info_injectorINS_17bad_function_callEEEE7rethrowEv = comdat any

$_ZThn56_N5boost16exception_detail10clone_implINS0_19error_info_injectorINS_17bad_function_callEEEED1Ev = comdat any

$_ZThn56_N5boost16exception_detail10clone_implINS0_19error_info_injectorINS_17bad_function_callEEEED0Ev = comdat any

$_ZN5boost17bad_function_callC2ERKS0_ = comdat any

$_ZN5boost9exceptionC2ERKS0_ = comdat any

$_ZN5boost16exception_detail19error_info_injectorINS_17bad_function_callEED0Ev = comdat any

$_ZThn16_N5boost16exception_detail19error_info_injectorINS_17bad_function_callEED1Ev = comdat any

$_ZThn16_N5boost16exception_detail19error_info_injectorINS_17bad_function_callEED0Ev = comdat any

$_ZN5boost17bad_function_callD0Ev = comdat any

$_ZN5boost16exception_detail12refcount_ptrINS0_20error_info_containerEEC2ERKS3_ = comdat any

$_ZN5boost16exception_detail12refcount_ptrINS0_20error_info_containerEE7add_refEv = comdat any

$_ZN5boost16exception_detail10clone_baseD2Ev = comdat any

$_ZN5boost16exception_detail10clone_baseD0Ev = comdat any

$_ZN5boost9exceptionaSERKS0_ = comdat any

$_ZN5boost16exception_detail12refcount_ptrINS0_20error_info_containerEEaSERKS3_ = comdat any

$_ZN5boost16exception_detail12refcount_ptrINS0_20error_info_containerEE5adoptEPS2_ = comdat any

$_ZN5boost16exception_detail12refcount_ptrINS0_20error_info_containerEE7releaseEv = comdat any

$_ZN5boost9exceptionD2Ev = comdat any

$_ZN5boost16exception_detail12refcount_ptrINS0_20error_info_containerEED2Ev = comdat any

$_ZN5boost16exception_detail10clone_implINS0_19error_info_injectorINS_17bad_function_callEEEEC2ERKS5_ = comdat any

$_ZN5boost16exception_detail10clone_baseC2ERKS1_ = comdat any

$_ZN5boost16exception_detail19error_info_injectorINS_17bad_function_callEEC2ERKS2_ = comdat any

$_ZN5boost9exceptionC2Ev = comdat any

$_ZN5boost16exception_detail12refcount_ptrINS0_20error_info_containerEEC2Ev = comdat any

$_ZN5boost3_bi5valueIdE3getEv = comdat any

$_ZNK5boost17reference_wrapperIN6dealii6VectorIdEEE3getEv = comdat any

$_ZN5boost6detail8function13basic_vtable0IdE9assign_toINS_3_bi6bind_tINS5_11unspecifiedENS_8functionIFddRN6dealii6VectorIdEEEEENS5_5list2INS5_5valueIdEENS_17reference_wrapperISB_EEEEEEEEbT_RNS1_15function_bufferENS1_16function_obj_tagE = comdat any

$_ZN5boost9addressofINS_3_bi6bind_tINS1_11unspecifiedENS_8functionIFddRN6dealii6VectorIdEEEEENS1_5list2INS1_5valueIdEENS_17reference_wrapperIS7_EEEEEEEEPT_RSI_ = comdat any

$_ZN5boost6detail8function13basic_vtable0IdE14assign_functorINS_3_bi6bind_tINS5_11unspecifiedENS_8functionIFddRN6dealii6VectorIdEEEEENS5_5list2INS5_5valueIdEENS_17reference_wrapperISB_EEEEEEEEvT_RNS1_15function_bufferEN4mpl_5bool_ILb0EEE = comdat any

$_ZN5boost6detail14addressof_implINS_3_bi6bind_tINS2_11unspecifiedENS_8functionIFddRN6dealii6VectorIdEEEEENS2_5list2INS2_5valueIdEENS_17reference_wrapperIS8_EEEEEEE1fERSI_l = comdat any

$_ZN6dealii7Threads8internal16ThreadDescriptorIdEC2Ev = comdat any

$_ZN5boost10shared_ptrIN6dealii7Threads8internal16ThreadDescriptorIdEEEC2IS5_EEPT_ = comdat any

$_ZNK5boost10shared_ptrIN6dealii7Threads8internal16ThreadDescriptorIdEEEptEv = comdat any

$_ZN6dealii7Threads8internal16ThreadDescriptorIdE5startERKN5boost8functionIFdvEEE = comdat any

$_ZN6dealii7Threads8internal12return_valueIdEC2Ev = comdat any

$_ZN5boost6detail12shared_countC2IN6dealii7Threads8internal16ThreadDescriptorIdEEEEPT_ = comdat any

$_ZN5boost6detail26sp_enable_shared_from_thisERKNS0_12shared_countEz = comdat any

$_ZN5boost6detail17sp_counted_impl_pIN6dealii7Threads8internal16ThreadDescriptorIdEEEC2EPS6_ = comdat any

$_ZN5boost14checked_deleteIN6dealii7Threads8internal16ThreadDescriptorIdEEEEvPT_ = comdat any

$_ZN5boost6detail15sp_counted_baseC2Ev = comdat any

$_ZN5boost6detail17sp_counted_impl_pIN6dealii7Threads8internal16ThreadDescriptorIdEEED2Ev = comdat any

$_ZN5boost6detail17sp_counted_impl_pIN6dealii7Threads8internal16ThreadDescriptorIdEEED0Ev = comdat any

$_ZN5boost6detail17sp_counted_impl_pIN6dealii7Threads8internal16ThreadDescriptorIdEEE7disposeEv = comdat any

$_ZN5boost6detail15sp_counted_base7destroyEv = comdat any

$_ZN5boost6detail17sp_counted_impl_pIN6dealii7Threads8internal16ThreadDescriptorIdEEE11get_deleterERKSt9type_info = comdat any

$_ZN5boost6detail15sp_counted_baseD2Ev = comdat any

$_ZN5boost6detail15sp_counted_baseD0Ev = comdat any

$_ZN6dealii7Threads8internal4callIdEEvRKN5boost8functionIFT_vEEERNS1_12return_valueIS5_EE = comdat any

$_ZN6dealii7Threads8internal12return_valueIdE3setEd = comdat any

$_ZNK5boost9function0IdEclEv = comdat any

$_ZN5boost9function0IdED2Ev = comdat any

$_ZN5boost9function0IdE5clearEv = comdat any

$_ZN5boost6detail8function13basic_vtable0IdE5clearERNS1_15function_bufferE = comdat any

$_ZNSt6vectorIN6dealii7Threads6ThreadIdEESaIS3_EE12emplace_backIJS3_EEEvDpOT_ = comdat any

$_ZSt4moveIRN6dealii7Threads6ThreadIdEEEONSt16remove_referenceIT_E4typeEOS6_ = comdat any

$_ZNSt16allocator_traitsISaIN6dealii7Threads6ThreadIdEEEE9constructIS3_JS3_EEEvRS4_PT_DpOT0_ = comdat any

$_ZSt7forwardIN6dealii7Threads6ThreadIdEEEOT_RNSt16remove_referenceIS4_E4typeE = comdat any

$_ZNSt6vectorIN6dealii7Threads6ThreadIdEESaIS3_EE17_M_realloc_insertIJS3_EEEvN9__gnu_cxx17__normal_iteratorIPS3_S5_EEDpOT_ = comdat any

$_ZNSt6vectorIN6dealii7Threads6ThreadIdEESaIS3_EE3endEv = comdat any

$_ZN9__gnu_cxx13new_allocatorIN6dealii7Threads6ThreadIdEEE9constructIS4_JS4_EEEvPT_DpOT0_ = comdat any

$_ZN6dealii7Threads6ThreadIdEC2EOS2_ = comdat any

$_ZN5boost10shared_ptrIN6dealii7Threads8internal16ThreadDescriptorIdEEEC2ERKS6_ = comdat any

$_ZN5boost6detail12shared_countC2ERKS1_ = comdat any

$_ZN5boost6detail15sp_counted_base12add_ref_copyEv = comdat any

$_ZNKSt6vectorIN6dealii7Threads6ThreadIdEESaIS3_EE12_M_check_lenEmPKc = comdat any

$_ZN9__gnu_cxxmiIPN6dealii7Threads6ThreadIdEESt6vectorIS4_SaIS4_EEEENS_17__normal_iteratorIT_T0_E15difference_typeERKSC_SF_ = comdat any

$_ZNSt6vectorIN6dealii7Threads6ThreadIdEESaIS3_EE5beginEv = comdat any

$_ZNSt12_Vector_baseIN6dealii7Threads6ThreadIdEESaIS3_EE11_M_allocateEm = comdat any

$_ZSt34__uninitialized_move_if_noexcept_aIPN6dealii7Threads6ThreadIdEES4_SaIS3_EET0_T_S7_S6_RT1_ = comdat any

$_ZNK9__gnu_cxx17__normal_iteratorIPN6dealii7Threads6ThreadIdEESt6vectorIS4_SaIS4_EEE4baseEv = comdat any

$_ZNSt16allocator_traitsISaIN6dealii7Threads6ThreadIdEEEE7destroyIS3_EEvRS4_PT_ = comdat any

$_ZNKSt6vectorIN6dealii7Threads6ThreadIdEESaIS3_EE8max_sizeEv = comdat any

$_ZNKSt6vectorIN6dealii7Threads6ThreadIdEESaIS3_EE4sizeEv = comdat any

$_ZSt3maxImERKT_S2_S2_ = comdat any

$_ZNSt6vectorIN6dealii7Threads6ThreadIdEESaIS3_EE11_S_max_sizeERKS4_ = comdat any

$_ZNKSt12_Vector_baseIN6dealii7Threads6ThreadIdEESaIS3_EE19_M_get_Tp_allocatorEv = comdat any

$_ZNSt16allocator_traitsISaIN6dealii7Threads6ThreadIdEEEE8max_sizeERKS4_ = comdat any

$_ZSt3minImERKT_S2_S2_ = comdat any

$_ZNK9__gnu_cxx13new_allocatorIN6dealii7Threads6ThreadIdEEE8max_sizeEv = comdat any

$_ZNK9__gnu_cxx13new_allocatorIN6dealii7Threads6ThreadIdEEE11_M_max_sizeEv = comdat any

$_ZN9__gnu_cxx17__normal_iteratorIPN6dealii7Threads6ThreadIdEESt6vectorIS4_SaIS4_EEEC2ERKS5_ = comdat any

$_ZNSt16allocator_traitsISaIN6dealii7Threads6ThreadIdEEEE8allocateERS4_m = comdat any

$_ZN9__gnu_cxx13new_allocatorIN6dealii7Threads6ThreadIdEEE8allocateEmPKv = comdat any

$_ZSt22__uninitialized_copy_aIPKN6dealii7Threads6ThreadIdEEPS3_S3_ET0_T_S8_S7_RSaIT1_E = comdat any

$_ZSt32__make_move_if_noexcept_iteratorIN6dealii7Threads6ThreadIdEEPKS3_ET0_PT_ = comdat any

$_ZSt18uninitialized_copyIPKN6dealii7Threads6ThreadIdEEPS3_ET0_T_S8_S7_ = comdat any

$_ZNSt20__uninitialized_copyILb0EE13__uninit_copyIPKN6dealii7Threads6ThreadIdEEPS5_EET0_T_SA_S9_ = comdat any

$_ZSt10_ConstructIN6dealii7Threads6ThreadIdEEJRKS3_EEvPT_DpOT0_ = comdat any

$_ZSt7forwardIRKN6dealii7Threads6ThreadIdEEEOT_RNSt16remove_referenceIS6_E4typeE = comdat any

$_ZN6dealii7Threads6ThreadIdEC2ERKS2_ = comdat any

$_ZN9__gnu_cxx13new_allocatorIN6dealii7Threads6ThreadIdEEE7destroyIS4_EEvPT_ = comdat any

$_ZNK6dealii7Threads6ThreadIdE4joinEv = comdat any

$_ZNK6dealii7Threads8internal12return_valueIdE3getEv = comdat any

$_ZNK5boost10shared_ptrIN6dealii7Threads8internal16ThreadDescriptorIdEEEntEv = comdat any

$_ZN6dealii18deal_II_exceptions9internals17issue_error_throwINS_7Threads6ThreadIdE11ExcNoThreadEEEvPKciS8_S8_S8_T_ = comdat any

$_ZN6dealii7Threads6ThreadIdE11ExcNoThreadC2Ev = comdat any

$_ZN6dealii7Threads6ThreadIdE11ExcNoThreadD2Ev = comdat any

$_ZN6dealii7Threads8internal16ThreadDescriptorIdE4joinEv = comdat any

$_ZN6dealii7Threads6ThreadIdE11ExcNoThreadC2EOS3_ = comdat any

$_ZN6dealii7Threads6ThreadIdE11ExcNoThreadD0Ev = comdat any

$_ZN6dealii15BlockVectorBaseINS_6VectorIdEEEaSERKS3_ = comdat any

$_ZNK6dealii15BlockVectorBaseINS_6VectorIdEEE8n_blocksEv = comdat any

$_ZNKSt6vectorIN6dealii6VectorIdEESaIS2_EEixEm = comdat any

$_ZNK6dealii12BlockIndices4sizeEv = comdat any

$_ZN6dealii6VectorIdED0Ev = comdat any

$_ZN6dealii6VectorIdE6reinitEjb = comdat any

$_ZN6dealii6VectorIdE4swapERS1_ = comdat any

$_ZN6dealii6VectorIdEaSEd = comdat any

$_ZSt4fillIPddEvT_S1_RKT0_ = comdat any

$_ZSt8__fill_aIPddEvT_S1_RKT0_ = comdat any

$_ZSt9__fill_a1IPddEN9__gnu_cxx11__enable_ifIXsr11__is_scalarIT0_EE7__valueEvE6__typeET_S6_RKS3_ = comdat any

$_ZSt4swapIPdENSt9enable_ifIXsr6__and_ISt6__not_ISt15__is_tuple_likeIT_EESt21is_move_constructibleIS4_ESt18is_move_assignableIS4_EEE5valueEvE4typeERS4_SD_ = comdat any

$_ZSt4moveIRPdEONSt16remove_referenceIT_E4typeEOS3_ = comdat any

$_ZNSt6vectorIN6dealii6VectorIfEESaIS2_EEixEm = comdat any

$_ZNK6dealii12SmartPointerIKNS_12SparseMatrixIfEEEptEv = comdat any

$_ZN5boost4bindIdN9libparest5Slave10Stationary5SlaveILi3EfEEdRN6dealii6VectorIdEENS_17reference_wrapperIKS5_EENS_3argILi1EEENSD_ILi2EEEEENS_3_bi6bind_tIT_NS_4_mfi4cmf2ISI_T0_T1_T2_EENSG_9list_av_3IT3_T4_T5_E4typeEEEMSL_KFSI_SM_SN_ESQ_SR_SS_ = comdat any

$_ZN5boost4crefIN9libparest5Slave10Stationary5SlaveILi3EfEEEEKNS_17reference_wrapperIKT_EERS8_ = comdat any

$_ZN5boost8functionIFddRN6dealii6VectorIdEEEEC2INS_3_bi6bind_tIdNS_4_mfi4cmf2IdN9libparest5Slave10Stationary5SlaveILi3EfEEdS4_EENS8_5list3INS_17reference_wrapperIKSG_EENS_3argILi1EEENSM_ILi2EEEEEEEEET_NS_11enable_if_cIXsr5boost11type_traits7ice_notIXsr11is_integralISR_EE5valueEEE5valueEiE4typeE = comdat any

$_ZN5boost4_mfi4cmf2IdN9libparest5Slave10Stationary5SlaveILi3EfEEdRN6dealii6VectorIdEEEC2EMS6_KFddSA_E = comdat any

$_ZN5boost3_bi5list3INS_17reference_wrapperIKN9libparest5Slave10Stationary5SlaveILi3EfEEEENS_3argILi1EEENSA_ILi2EEEEC2ES9_SB_SC_ = comdat any

$_ZN5boost3_bi6bind_tIdNS_4_mfi4cmf2IdN9libparest5Slave10Stationary5SlaveILi3EfEEdRN6dealii6VectorIdEEEENS0_5list3INS_17reference_wrapperIKS8_EENS_3argILi1EEENSI_ILi2EEEEEEC2ESD_RKSL_ = comdat any

$_ZN5boost3_bi8storage3INS_17reference_wrapperIKN9libparest5Slave10Stationary5SlaveILi3EfEEEENS_3argILi1EEENSA_ILi2EEEEC2ES9_SB_SC_ = comdat any

$_ZN5boost3_bi8storage2INS_17reference_wrapperIKN9libparest5Slave10Stationary5SlaveILi3EfEEEENS_3argILi1EEEEC2ES9_SB_ = comdat any

$_ZN5boost3_bi8storage1INS_17reference_wrapperIKN9libparest5Slave10Stationary5SlaveILi3EfEEEEEC2ES9_ = comdat any

$_ZN5boost17reference_wrapperIKN9libparest5Slave10Stationary5SlaveILi3EfEEEC2ERS6_ = comdat any

$_ZN5boost9addressofIKN9libparest5Slave10Stationary5SlaveILi3EfEEEEPT_RS7_ = comdat any

$_ZN5boost6detail14addressof_implIKN9libparest5Slave10Stationary5SlaveILi3EfEEE1fERS7_l = comdat any

$_ZN5boost9function2IddRN6dealii6VectorIdEEEC2INS_3_bi6bind_tIdNS_4_mfi4cmf2IdN9libparest5Slave10Stationary5SlaveILi3EfEEdS4_EENS7_5list3INS_17reference_wrapperIKSF_EENS_3argILi1EEENSL_ILi2EEEEEEEEET_NS_11enable_if_cIXsr5boost11type_traits7ice_notIXsr11is_integralISQ_EE5valueEEE5valueEiE4typeE = comdat any

$_ZN5boost9function2IddRN6dealii6VectorIdEEE9assign_toINS_3_bi6bind_tIdNS_4_mfi4cmf2IdN9libparest5Slave10Stationary5SlaveILi3EfEEdS4_EENS7_5list3INS_17reference_wrapperIKSF_EENS_3argILi1EEENSL_ILi2EEEEEEEEEvT_ = comdat any

$_ZN5boost6detail8function15functor_managerINS_3_bi6bind_tIdNS_4_mfi4cmf2IdN9libparest5Slave10Stationary5SlaveILi3EfEEdRN6dealii6VectorIdEEEENS3_5list3INS_17reference_wrapperIKSB_EENS_3argILi1EEENSL_ILi2EEEEEEEE6manageERKNS1_15function_bufferERSR_NS1_30functor_manager_operation_typeE = comdat any

$_ZN5boost6detail8function21function_obj_invoker2INS_3_bi6bind_tIdNS_4_mfi4cmf2IdN9libparest5Slave10Stationary5SlaveILi3EfEEdRN6dealii6VectorIdEEEENS3_5list3INS_17reference_wrapperIKSB_EENS_3argILi1EEENSL_ILi2EEEEEEEddSF_E6invokeERNS1_15function_bufferEdSF_ = comdat any

$_ZN5boost6detail8function13basic_vtable2IddRN6dealii6VectorIdEEE9assign_toINS_3_bi6bind_tIdNS_4_mfi4cmf2IdN9libparest5Slave10Stationary5SlaveILi3EfEEdS6_EENS9_5list3INS_17reference_wrapperIKSH_EENS_3argILi1EEENSN_ILi2EEEEEEEEEbT_RNS1_15function_bufferE = comdat any

$_ZN5boost6detail8function15functor_managerINS_3_bi6bind_tIdNS_4_mfi4cmf2IdN9libparest5Slave10Stationary5SlaveILi3EfEEdRN6dealii6VectorIdEEEENS3_5list3INS_17reference_wrapperIKSB_EENS_3argILi1EEENSL_ILi2EEEEEEEE7managerERKNS1_15function_bufferERSR_NS1_30functor_manager_operation_typeENS1_16function_obj_tagE = comdat any

$_ZN5boost6detail8function15functor_managerINS_3_bi6bind_tIdNS_4_mfi4cmf2IdN9libparest5Slave10Stationary5SlaveILi3EfEEdRN6dealii6VectorIdEEEENS3_5list3INS_17reference_wrapperIKSB_EENS_3argILi1EEENSL_ILi2EEEEEEEE7managerERKNS1_15function_bufferERSR_NS1_30functor_manager_operation_typeEN4mpl_5bool_ILb1EEE = comdat any

$_ZN5boost6detail8function22functor_manager_commonINS_3_bi6bind_tIdNS_4_mfi4cmf2IdN9libparest5Slave10Stationary5SlaveILi3EfEEdRN6dealii6VectorIdEEEENS3_5list3INS_17reference_wrapperIKSB_EENS_3argILi1EEENSL_ILi2EEEEEEEE12manage_smallERKNS1_15function_bufferERSR_NS1_30functor_manager_operation_typeE = comdat any

$_ZN5boost3_bi6bind_tIdNS_4_mfi4cmf2IdN9libparest5Slave10Stationary5SlaveILi3EfEEdRN6dealii6VectorIdEEEENS0_5list3INS_17reference_wrapperIKS8_EENS_3argILi1EEENSI_ILi2EEEEEEclIdSB_EEdRT_RT0_ = comdat any

$_ZN5boost3_bi5list3INS_17reference_wrapperIKN9libparest5Slave10Stationary5SlaveILi3EfEEEENS_3argILi1EEENSA_ILi2EEEEclIdNS_4_mfi4cmf2IdS7_dRN6dealii6VectorIdEEEENS0_5list2IRdSK_EEEET_NS0_4typeISP_EERT0_RT1_l = comdat any

$_ZN5boost3_bi9unwrapperINS_4_mfi4cmf2IdN9libparest5Slave10Stationary5SlaveILi3EfEEdRN6dealii6VectorIdEEEEE6unwrapERSD_l = comdat any

$_ZNK5boost4_mfi4cmf2IdN9libparest5Slave10Stationary5SlaveILi3EfEEdRN6dealii6VectorIdEEEclERKS6_dSA_ = comdat any

$_ZNK5boost3_bi5list2IRdRN6dealii6VectorIdEEEixIKN9libparest5Slave10Stationary5SlaveILi3EfEEEERT_RKNS_17reference_wrapperISF_EE = comdat any

$_ZN5boost3_bi8storage2INS_17reference_wrapperIKN9libparest5Slave10Stationary5SlaveILi3EfEEEENS_3argILi1EEEE3a2_Ev = comdat any

$_ZN5boost3_bi8storage3INS_17reference_wrapperIKN9libparest5Slave10Stationary5SlaveILi3EfEEEENS_3argILi1EEENSA_ILi2EEEE3a3_Ev = comdat any

$_ZNK5boost17reference_wrapperIKN9libparest5Slave10Stationary5SlaveILi3EfEEE3getEv = comdat any

$_ZN5boost6detail8function13basic_vtable2IddRN6dealii6VectorIdEEE9assign_toINS_3_bi6bind_tIdNS_4_mfi4cmf2IdN9libparest5Slave10Stationary5SlaveILi3EfEEdS6_EENS9_5list3INS_17reference_wrapperIKSH_EENS_3argILi1EEENSN_ILi2EEEEEEEEEbT_RNS1_15function_bufferENS1_16function_obj_tagE = comdat any

$_ZN5boost9addressofINS_3_bi6bind_tIdNS_4_mfi4cmf2IdN9libparest5Slave10Stationary5SlaveILi3EfEEdRN6dealii6VectorIdEEEENS1_5list3INS_17reference_wrapperIKS9_EENS_3argILi1EEENSJ_ILi2EEEEEEEEEPT_RSO_ = comdat any

$_ZN5boost6detail8function13basic_vtable2IddRN6dealii6VectorIdEEE14assign_functorINS_3_bi6bind_tIdNS_4_mfi4cmf2IdN9libparest5Slave10Stationary5SlaveILi3EfEEdS6_EENS9_5list3INS_17reference_wrapperIKSH_EENS_3argILi1EEENSN_ILi2EEEEEEEEEvT_RNS1_15function_bufferEN4mpl_5bool_ILb1EEE = comdat any

$_ZN5boost6detail14addressof_implINS_3_bi6bind_tIdNS_4_mfi4cmf2IdN9libparest5Slave10Stationary5SlaveILi3EfEEdRN6dealii6VectorIdEEEENS2_5list3INS_17reference_wrapperIKSA_EENS_3argILi1EEENSK_ILi2EEEEEEEE1fERSO_l = comdat any

$_ZTVN9libparest5Slave10Stationary5SlaveILi3EdEE = comdat any

$_ZTVN9libparest5Slave10Stationary5SlaveILi3EfEE = comdat any

$_ZTSN9libparest5Slave10Stationary5SlaveILi3EdEE = comdat any

$_ZTIN9libparest5Slave10Stationary5SlaveILi3EdEE = comdat any

$_ZTSN9libparest5Slave10Stationary5SlaveILi3EfEE = comdat any

$_ZTIN9libparest5Slave10Stationary5SlaveILi3EfEE = comdat any

$_ZTVN6dealii6VectorIfEE = comdat any

$_ZTSN6dealii6VectorIfEE = comdat any

$_ZTIN6dealii6VectorIfEE = comdat any

$_ZZN5boost9function2IddRN6dealii6VectorIdEEE9assign_toINS_3_bi6bind_tIdNS_4_mfi4cmf2IdN9libparest5Slave10Stationary5SlaveILi3EdEEdS4_EENS7_5list3INS_17reference_wrapperIKSF_EENS_3argILi1EEENSL_ILi2EEEEEEEEEvT_E13stored_vtable = comdat any

$_ZTSN5boost3_bi6bind_tIdNS_4_mfi4cmf2IdN9libparest5Slave10Stationary5SlaveILi3EdEEdRN6dealii6VectorIdEEEENS0_5list3INS_17reference_wrapperIKS8_EENS_3argILi1EEENSI_ILi2EEEEEEE = comdat any

$_ZTIN5boost3_bi6bind_tIdNS_4_mfi4cmf2IdN9libparest5Slave10Stationary5SlaveILi3EdEEdRN6dealii6VectorIdEEEENS0_5list3INS_17reference_wrapperIKS8_EENS_3argILi1EEENSI_ILi2EEEEEEE = comdat any

$_ZZN5boost9function0IdE9assign_toINS_3_bi6bind_tINS3_11unspecifiedENS_8functionIFddRN6dealii6VectorIdEEEEENS3_5list2INS3_5valueIdEENS_17reference_wrapperIS9_EEEEEEEEvT_E13stored_vtable = comdat any

$_ZTSN5boost3_bi6bind_tINS0_11unspecifiedENS_8functionIFddRN6dealii6VectorIdEEEEENS0_5list2INS0_5valueIdEENS_17reference_wrapperIS6_EEEEEE = comdat any

$_ZTIN5boost3_bi6bind_tINS0_11unspecifiedENS_8functionIFddRN6dealii6VectorIdEEEEENS0_5list2INS0_5valueIdEENS_17reference_wrapperIS6_EEEEEE = comdat any

$_ZTSN5boost16exception_detail10clone_implINS0_19error_info_injectorINS_17bad_function_callEEEEE = comdat any

$_ZTSN5boost16exception_detail19error_info_injectorINS_17bad_function_callEEE = comdat any

$_ZTSN5boost17bad_function_callE = comdat any

$_ZTIN5boost17bad_function_callE = comdat any

$_ZTSN5boost9exceptionE = comdat any

$_ZTIN5boost9exceptionE = comdat any

$_ZTIN5boost16exception_detail19error_info_injectorINS_17bad_function_callEEE = comdat any

$_ZTSN5boost16exception_detail10clone_baseE = comdat any

$_ZTIN5boost16exception_detail10clone_baseE = comdat any

$_ZTIN5boost16exception_detail10clone_implINS0_19error_info_injectorINS_17bad_function_callEEEEE = comdat any

$_ZTVN5boost16exception_detail10clone_implINS0_19error_info_injectorINS_17bad_function_callEEEEE = comdat any

$_ZTVN5boost16exception_detail19error_info_injectorINS_17bad_function_callEEE = comdat any

$_ZTVN5boost17bad_function_callE = comdat any

$_ZTVN5boost9exceptionE = comdat any

$_ZTVN5boost16exception_detail10clone_baseE = comdat any

$_ZTVN5boost6detail17sp_counted_impl_pIN6dealii7Threads8internal16ThreadDescriptorIdEEEE = comdat any

$_ZTSN5boost6detail17sp_counted_impl_pIN6dealii7Threads8internal16ThreadDescriptorIdEEEE = comdat any

$_ZTSN5boost6detail15sp_counted_baseE = comdat any

$_ZTIN5boost6detail15sp_counted_baseE = comdat any

$_ZTIN5boost6detail17sp_counted_impl_pIN6dealii7Threads8internal16ThreadDescriptorIdEEEE = comdat any

$_ZTVN5boost6detail15sp_counted_baseE = comdat any

$_ZTSN6dealii7Threads6ThreadIdE11ExcNoThreadE = comdat any

$_ZTIN6dealii7Threads6ThreadIdE11ExcNoThreadE = comdat any

$_ZTVN6dealii7Threads6ThreadIdE11ExcNoThreadE = comdat any

$_ZTVN6dealii6VectorIdEE = comdat any

$_ZTSN6dealii6VectorIdEE = comdat any

$_ZTIN6dealii6VectorIdEE = comdat any

$_ZZN5boost9function2IddRN6dealii6VectorIdEEE9assign_toINS_3_bi6bind_tIdNS_4_mfi4cmf2IdN9libparest5Slave10Stationary5SlaveILi3EfEEdS4_EENS7_5list3INS_17reference_wrapperIKSF_EENS_3argILi1EEENSL_ILi2EEEEEEEEEvT_E13stored_vtable = comdat any

$_ZTSN5boost3_bi6bind_tIdNS_4_mfi4cmf2IdN9libparest5Slave10Stationary5SlaveILi3EfEEdRN6dealii6VectorIdEEEENS0_5list3INS_17reference_wrapperIKS8_EENS_3argILi1EEENSI_ILi2EEEEEEE = comdat any

$_ZTIN5boost3_bi6bind_tIdNS_4_mfi4cmf2IdN9libparest5Slave10Stationary5SlaveILi3EfEEdRN6dealii6VectorIdEEEENS0_5list3INS_17reference_wrapperIKS8_EENS_3argILi1EEENSI_ILi2EEEEEEE = comdat any

@_ZN12_GLOBAL__N_12_1E = internal global %"struct.boost::arg" zeroinitializer, align 1, !dbg !0
@_ZN12_GLOBAL__N_12_2E = internal global %"struct.boost::arg.0" zeroinitializer, align 1, !dbg !15
@_ZN12_GLOBAL__N_12_3E = internal global %"struct.boost::arg.2" zeroinitializer, align 1, !dbg !25
@_ZN12_GLOBAL__N_12_4E = internal global %"struct.boost::arg.4" zeroinitializer, align 1, !dbg !35
@_ZN12_GLOBAL__N_12_5E = internal global %"struct.boost::arg.6" zeroinitializer, align 1, !dbg !45
@_ZN12_GLOBAL__N_12_6E = internal global %"struct.boost::arg.8" zeroinitializer, align 1, !dbg !55
@_ZN12_GLOBAL__N_12_7E = internal global %"struct.boost::arg.10" zeroinitializer, align 1, !dbg !65
@_ZN12_GLOBAL__N_12_8E = internal global %"struct.boost::arg.12" zeroinitializer, align 1, !dbg !75
@_ZN12_GLOBAL__N_12_9E = internal global %"struct.boost::arg.14" zeroinitializer, align 1, !dbg !85
@_ZStL8__ioinit = internal global %"class.std::ios_base::Init" zeroinitializer, align 1, !dbg !95
@__dso_handle = external hidden global i8
@_ZTVN9libparest5Slave10Stationary5SlaveILi3EdEE = weak_odr dso_local unnamed_addr constant { [26 x i8*] } { [26 x i8*] [i8* null, i8* bitcast ({ i8*, i8*, i8* }* @_ZTIN9libparest5Slave10Stationary5SlaveILi3EdEE to i8*), i8* bitcast (void (%"class.libparest::Slave::Stationary::Slave"*)* @_ZN9libparest5Slave10Stationary5SlaveILi3EdED1Ev to i8*), i8* bitcast (void (%"class.libparest::Slave::Stationary::Slave"*)* @_ZN9libparest5Slave10Stationary5SlaveILi3EdED0Ev to i8*), i8* bitcast (void ()* @__cxa_pure_virtual to i8*), i8* bitcast (void (%"class.libparest::Slave::Base"*)* @_ZN9libparest5Slave4Base8finalizeEv to i8*), i8* bitcast (void (%"class.libparest::Slave::Stationary::Slave"*, i32)* @_ZN9libparest5Slave10Stationary5SlaveILi3EdE28initialize_gauss_newton_stepEj to i8*), i8* bitcast (void (%"class.libparest::Slave::Stationary::Slave"*)* @_ZN9libparest5Slave10Stationary5SlaveILi3EdE21end_gauss_newton_stepEv to i8*), i8* bitcast (void ()* @__cxa_pure_virtual to i8*), i8* bitcast (void (%"class.libparest::Slave::Stationary::Slave"*, %"class.dealii::Vector"*, %"class.dealii::Vector"*)* @_ZN9libparest5Slave10Stationary5SlaveILi3EdE11compute_rhsERN6dealii6VectorIdEES7_ to i8*), i8* bitcast (void ()* @__cxa_pure_virtual to i8*), i8* bitcast (void (%"class.libparest::Slave::Stationary::Slave"*, %"class.dealii::Vector"*, %"class.dealii::Vector"*)* @_ZN9libparest5Slave10Stationary5SlaveILi3EdE16forward_backwardERKN6dealii6VectorIdEERS6_ to i8*), i8* bitcast (void (%"class.libparest::Slave::Base"*, %"class.std::vector.22"*, %"class.std::vector.22"*)* @_ZN9libparest5Slave4Base25multiple_forward_backwardERKSt6vectorIN6dealii6VectorIdEESaIS5_EERS7_ to i8*), i8* bitcast (void (%"class.libparest::Slave::Stationary::Slave"*, %"class.dealii::Vector"*)* @_ZN9libparest5Slave10Stationary5SlaveILi3EdE15compute_updatesERKN6dealii6VectorIdEE to i8*), i8* bitcast (void (%"class.libparest::Slave::Stationary::Slave"*, %"class.dealii::Vector"*, double)* @_ZN9libparest5Slave10Stationary5SlaveILi3EdE15perform_updatesERKN6dealii6VectorIdEEd to i8*), i8* bitcast (void (%"class.libparest::Slave::Stationary::Slave"*, %"class.std::vector.50"*, %"class.std::vector.193"*, %"class.std::vector.50"*)* @_ZNK9libparest5Slave10Stationary5SlaveILi3EdE22compute_trial_residualESt6vectorIdSaIdEERS4_IPN6dealii6VectorIdEESaISA_EERS6_ to i8*), i8* bitcast (void ()* @__cxa_pure_virtual to i8*), i8* bitcast (void ()* @__cxa_pure_virtual to i8*), i8* bitcast (void ()* @__cxa_pure_virtual to i8*), i8* bitcast (void (%"class.libparest::Slave::Stationary::Slave"*, %"class.std::vector.79"*, %"class.std::vector.79"*)* @_ZN9libparest5Slave10Stationary5SlaveILi3EdE23refine_parameterizationERKSt6vectorIbSaIbEES8_ to i8*), i8* bitcast (void ()* @__cxa_pure_virtual to i8*), i8* bitcast (i32 (%"class.libparest::Slave::Stationary::Slave"*)* @_ZNK9libparest5Slave10Stationary5SlaveILi3EdE20n_degrees_of_freedomEv to i8*), i8* bitcast (void (%"class.libparest::Slave::Base"*, %"class.std::vector.22"*, %"class.std::vector.22"*, i32, i32)* @_ZN9libparest5Slave4Base25threaded_forward_backwardERKSt6vectorIN6dealii6VectorIdEESaIS5_EERS7_jj to i8*), i8* bitcast (void ()* @__cxa_pure_virtual to i8*), i8* bitcast (void ()* @__cxa_pure_virtual to i8*), i8* bitcast (double (%"class.libparest::Slave::Stationary::Slave"*, double, %"class.dealii::Vector"*)* @_ZNK9libparest5Slave10Stationary5SlaveILi3EdE24compute_trial_residual_1EdRN6dealii6VectorIdEE to i8*)] }, comdat, align 8
@.str = private unnamed_addr constant [8 x i8] c"init GN\00", align 1
@.str.10 = private unnamed_addr constant [4 x i8] c"rhs\00", align 1
@.str.11 = private unnamed_addr constant [13 x i8] c"forward-back\00", align 1
@.str.12 = private unnamed_addr constant [13 x i8] c"comp. update\00", align 1
@.str.13 = private unnamed_addr constant [13 x i8] c"perf. update\00", align 1
@.str.14 = private unnamed_addr constant [31 x i8] c"New parameter discretization: \00", align 1
@.str.15 = private unnamed_addr constant [9 x i8] c" cells, \00", align 1
@.str.16 = private unnamed_addr constant [17 x i8] c" parameter dofs.\00", align 1
@.str.17 = private unnamed_addr constant [9 x i8] c"residual\00", align 1
@_ZTVN9libparest5Slave10Stationary5SlaveILi3EfEE = weak_odr dso_local unnamed_addr constant { [26 x i8*] } { [26 x i8*] [i8* null, i8* bitcast ({ i8*, i8*, i8* }* @_ZTIN9libparest5Slave10Stationary5SlaveILi3EfEE to i8*), i8* bitcast (void (%"class.libparest::Slave::Stationary::Slave.204"*)* @_ZN9libparest5Slave10Stationary5SlaveILi3EfED1Ev to i8*), i8* bitcast (void (%"class.libparest::Slave::Stationary::Slave.204"*)* @_ZN9libparest5Slave10Stationary5SlaveILi3EfED0Ev to i8*), i8* bitcast (void ()* @__cxa_pure_virtual to i8*), i8* bitcast (void (%"class.libparest::Slave::Base"*)* @_ZN9libparest5Slave4Base8finalizeEv to i8*), i8* bitcast (void (%"class.libparest::Slave::Stationary::Slave.204"*, i32)* @_ZN9libparest5Slave10Stationary5SlaveILi3EfE28initialize_gauss_newton_stepEj to i8*), i8* bitcast (void (%"class.libparest::Slave::Stationary::Slave.204"*)* @_ZN9libparest5Slave10Stationary5SlaveILi3EfE21end_gauss_newton_stepEv to i8*), i8* bitcast (void ()* @__cxa_pure_virtual to i8*), i8* bitcast (void (%"class.libparest::Slave::Stationary::Slave.204"*, %"class.dealii::Vector"*, %"class.dealii::Vector"*)* @_ZN9libparest5Slave10Stationary5SlaveILi3EfE11compute_rhsERN6dealii6VectorIdEES7_ to i8*), i8* bitcast (void ()* @__cxa_pure_virtual to i8*), i8* bitcast (void (%"class.libparest::Slave::Stationary::Slave.204"*, %"class.dealii::Vector"*, %"class.dealii::Vector"*)* @_ZN9libparest5Slave10Stationary5SlaveILi3EfE16forward_backwardERKN6dealii6VectorIdEERS6_ to i8*), i8* bitcast (void (%"class.libparest::Slave::Base"*, %"class.std::vector.22"*, %"class.std::vector.22"*)* @_ZN9libparest5Slave4Base25multiple_forward_backwardERKSt6vectorIN6dealii6VectorIdEESaIS5_EERS7_ to i8*), i8* bitcast (void (%"class.libparest::Slave::Stationary::Slave.204"*, %"class.dealii::Vector"*)* @_ZN9libparest5Slave10Stationary5SlaveILi3EfE15compute_updatesERKN6dealii6VectorIdEE to i8*), i8* bitcast (void (%"class.libparest::Slave::Stationary::Slave.204"*, %"class.dealii::Vector"*, double)* @_ZN9libparest5Slave10Stationary5SlaveILi3EfE15perform_updatesERKN6dealii6VectorIdEEd to i8*), i8* bitcast (void (%"class.libparest::Slave::Stationary::Slave.204"*, %"class.std::vector.50"*, %"class.std::vector.193"*, %"class.std::vector.50"*)* @_ZNK9libparest5Slave10Stationary5SlaveILi3EfE22compute_trial_residualESt6vectorIdSaIdEERS4_IPN6dealii6VectorIdEESaISA_EERS6_ to i8*), i8* bitcast (void ()* @__cxa_pure_virtual to i8*), i8* bitcast (void ()* @__cxa_pure_virtual to i8*), i8* bitcast (void ()* @__cxa_pure_virtual to i8*), i8* bitcast (void (%"class.libparest::Slave::Stationary::Slave.204"*, %"class.std::vector.79"*, %"class.std::vector.79"*)* @_ZN9libparest5Slave10Stationary5SlaveILi3EfE23refine_parameterizationERKSt6vectorIbSaIbEES8_ to i8*), i8* bitcast (void ()* @__cxa_pure_virtual to i8*), i8* bitcast (i32 (%"class.libparest::Slave::Stationary::Slave.204"*)* @_ZNK9libparest5Slave10Stationary5SlaveILi3EfE20n_degrees_of_freedomEv to i8*), i8* bitcast (void (%"class.libparest::Slave::Base"*, %"class.std::vector.22"*, %"class.std::vector.22"*, i32, i32)* @_ZN9libparest5Slave4Base25threaded_forward_backwardERKSt6vectorIN6dealii6VectorIdEESaIS5_EERS7_jj to i8*), i8* bitcast (void ()* @__cxa_pure_virtual to i8*), i8* bitcast (void ()* @__cxa_pure_virtual to i8*), i8* bitcast (double (%"class.libparest::Slave::Stationary::Slave.204"*, double, %"class.dealii::Vector"*)* @_ZNK9libparest5Slave10Stationary5SlaveILi3EfE24compute_trial_residual_1EdRN6dealii6VectorIdEE to i8*)] }, comdat, align 8
@_ZTVN10__cxxabiv120__si_class_type_infoE = external dso_local global i8*
@_ZTSN9libparest5Slave10Stationary5SlaveILi3EdEE = weak_odr dso_local constant [44 x i8] c"N9libparest5Slave10Stationary5SlaveILi3EdEE\00", comdat, align 1
@_ZTIN9libparest5Slave4BaseE = external dso_local constant i8*
@_ZTIN9libparest5Slave10Stationary5SlaveILi3EdEE = weak_odr dso_local constant { i8*, i8*, i8* } { i8* bitcast (i8** getelementptr inbounds (i8*, i8** @_ZTVN10__cxxabiv120__si_class_type_infoE, i64 2) to i8*), i8* getelementptr inbounds ([44 x i8], [44 x i8]* @_ZTSN9libparest5Slave10Stationary5SlaveILi3EdEE, i32 0, i32 0), i8* bitcast (i8** @_ZTIN9libparest5Slave4BaseE to i8*) }, comdat, align 8
@_ZTSN9libparest5Slave10Stationary5SlaveILi3EfEE = weak_odr dso_local constant [44 x i8] c"N9libparest5Slave10Stationary5SlaveILi3EfEE\00", comdat, align 1
@_ZTIN9libparest5Slave10Stationary5SlaveILi3EfEE = weak_odr dso_local constant { i8*, i8*, i8* } { i8* bitcast (i8** getelementptr inbounds (i8*, i8** @_ZTVN10__cxxabiv120__si_class_type_infoE, i64 2) to i8*), i8* getelementptr inbounds ([44 x i8], [44 x i8]* @_ZTSN9libparest5Slave10Stationary5SlaveILi3EfEE, i32 0, i32 0), i8* bitcast (i8** @_ZTIN9libparest5Slave4BaseE to i8*) }, comdat, align 8
@_ZTVN9libparest5Slave4BaseE = external dso_local unnamed_addr constant { [23 x i8*] }, align 8
@_ZTVN6dealii6VectorIfEE = linkonce_odr dso_local unnamed_addr constant { [6 x i8*] } { [6 x i8*] [i8* null, i8* bitcast ({ i8*, i8*, i8* }* @_ZTIN6dealii6VectorIfEE to i8*), i8* bitcast (void (%"class.dealii::Vector.32"*)* @_ZN6dealii6VectorIfED2Ev to i8*), i8* bitcast (void (%"class.dealii::Vector.32"*)* @_ZN6dealii6VectorIfED0Ev to i8*), i8* bitcast (void (%"class.dealii::Vector.32"*, i32, i1)* @_ZN6dealii6VectorIfE6reinitEjb to i8*), i8* bitcast (void (%"class.dealii::Vector.32"*, %"class.dealii::Vector.32"*)* @_ZN6dealii6VectorIfE4swapERS1_ to i8*)] }, comdat, align 8
@_ZTSN6dealii6VectorIfEE = linkonce_odr dso_local constant [20 x i8] c"N6dealii6VectorIfEE\00", comdat, align 1
@_ZTIN6dealii11SubscriptorE = external dso_local constant i8*
@_ZTIN6dealii6VectorIfEE = linkonce_odr dso_local constant { i8*, i8*, i8* } { i8* bitcast (i8** getelementptr inbounds (i8*, i8** @_ZTVN10__cxxabiv120__si_class_type_infoE, i64 2) to i8*), i8* getelementptr inbounds ([20 x i8], [20 x i8]* @_ZTSN6dealii6VectorIfEE, i32 0, i32 0), i8* bitcast (i8** @_ZTIN6dealii11SubscriptorE to i8*) }, comdat, align 8
@_ZZN5boost9function2IddRN6dealii6VectorIdEEE9assign_toINS_3_bi6bind_tIdNS_4_mfi4cmf2IdN9libparest5Slave10Stationary5SlaveILi3EdEEdS4_EENS7_5list3INS_17reference_wrapperIKSF_EENS_3argILi1EEENSL_ILi2EEEEEEEEEvT_E13stored_vtable = linkonce_odr dso_local global %"struct.boost::detail::function::basic_vtable2" { %"struct.boost::detail::function::vtable_base" { void (%"union.boost::detail::function::function_buffer"*, %"union.boost::detail::function::function_buffer"*, i32)* @_ZN5boost6detail8function15functor_managerINS_3_bi6bind_tIdNS_4_mfi4cmf2IdN9libparest5Slave10Stationary5SlaveILi3EdEEdRN6dealii6VectorIdEEEENS3_5list3INS_17reference_wrapperIKSB_EENS_3argILi1EEENSL_ILi2EEEEEEEE6manageERKNS1_15function_bufferERSR_NS1_30functor_manager_operation_typeE }, double (%"union.boost::detail::function::function_buffer"*, double, %"class.dealii::Vector"*)* @_ZN5boost6detail8function21function_obj_invoker2INS_3_bi6bind_tIdNS_4_mfi4cmf2IdN9libparest5Slave10Stationary5SlaveILi3EdEEdRN6dealii6VectorIdEEEENS3_5list3INS_17reference_wrapperIKSB_EENS_3argILi1EEENSL_ILi2EEEEEEEddSF_E6invokeERNS1_15function_bufferEdSF_ }, comdat, align 8, !dbg !122
@_ZTVN10__cxxabiv117__class_type_infoE = external dso_local global i8*
@_ZTSN5boost3_bi6bind_tIdNS_4_mfi4cmf2IdN9libparest5Slave10Stationary5SlaveILi3EdEEdRN6dealii6VectorIdEEEENS0_5list3INS_17reference_wrapperIKS8_EENS_3argILi1EEENSI_ILi2EEEEEEE = linkonce_odr dso_local constant [171 x i8] c"N5boost3_bi6bind_tIdNS_4_mfi4cmf2IdN9libparest5Slave10Stationary5SlaveILi3EdEEdRN6dealii6VectorIdEEEENS0_5list3INS_17reference_wrapperIKS8_EENS_3argILi1EEENSI_ILi2EEEEEEE\00", comdat, align 1
@_ZTIN5boost3_bi6bind_tIdNS_4_mfi4cmf2IdN9libparest5Slave10Stationary5SlaveILi3EdEEdRN6dealii6VectorIdEEEENS0_5list3INS_17reference_wrapperIKS8_EENS_3argILi1EEENSI_ILi2EEEEEEE = linkonce_odr dso_local constant { i8*, i8* } { i8* bitcast (i8** getelementptr inbounds (i8*, i8** @_ZTVN10__cxxabiv117__class_type_infoE, i64 2) to i8*), i8* getelementptr inbounds ([171 x i8], [171 x i8]* @_ZTSN5boost3_bi6bind_tIdNS_4_mfi4cmf2IdN9libparest5Slave10Stationary5SlaveILi3EdEEdRN6dealii6VectorIdEEEENS0_5list3INS_17reference_wrapperIKS8_EENS_3argILi1EEENSI_ILi2EEEEEEE, i32 0, i32 0) }, comdat, align 8
@_ZZN5boost9function0IdE9assign_toINS_3_bi6bind_tINS3_11unspecifiedENS_8functionIFddRN6dealii6VectorIdEEEEENS3_5list2INS3_5valueIdEENS_17reference_wrapperIS9_EEEEEEEEvT_E13stored_vtable = linkonce_odr dso_local global %"struct.boost::detail::function::basic_vtable0" { %"struct.boost::detail::function::vtable_base" { void (%"union.boost::detail::function::function_buffer"*, %"union.boost::detail::function::function_buffer"*, i32)* @_ZN5boost6detail8function15functor_managerINS_3_bi6bind_tINS3_11unspecifiedENS_8functionIFddRN6dealii6VectorIdEEEEENS3_5list2INS3_5valueIdEENS_17reference_wrapperIS9_EEEEEEE6manageERKNS1_15function_bufferERSL_NS1_30functor_manager_operation_typeE }, double (%"union.boost::detail::function::function_buffer"*)* @_ZN5boost6detail8function21function_obj_invoker0INS_3_bi6bind_tINS3_11unspecifiedENS_8functionIFddRN6dealii6VectorIdEEEEENS3_5list2INS3_5valueIdEENS_17reference_wrapperIS9_EEEEEEdE6invokeERNS1_15function_bufferE }, comdat, align 8, !dbg !4018
@_ZTSN5boost3_bi6bind_tINS0_11unspecifiedENS_8functionIFddRN6dealii6VectorIdEEEEENS0_5list2INS0_5valueIdEENS_17reference_wrapperIS6_EEEEEE = linkonce_odr dso_local constant [134 x i8] c"N5boost3_bi6bind_tINS0_11unspecifiedENS_8functionIFddRN6dealii6VectorIdEEEEENS0_5list2INS0_5valueIdEENS_17reference_wrapperIS6_EEEEEE\00", comdat, align 1
@_ZTIN5boost3_bi6bind_tINS0_11unspecifiedENS_8functionIFddRN6dealii6VectorIdEEEEENS0_5list2INS0_5valueIdEENS_17reference_wrapperIS6_EEEEEE = linkonce_odr dso_local constant { i8*, i8* } { i8* bitcast (i8** getelementptr inbounds (i8*, i8** @_ZTVN10__cxxabiv117__class_type_infoE, i64 2) to i8*), i8* getelementptr inbounds ([134 x i8], [134 x i8]* @_ZTSN5boost3_bi6bind_tINS0_11unspecifiedENS_8functionIFddRN6dealii6VectorIdEEEEENS0_5list2INS0_5valueIdEENS_17reference_wrapperIS6_EEEEEE, i32 0, i32 0) }, comdat, align 8
@_ZTVN10__cxxabiv121__vmi_class_type_infoE = external dso_local global i8*
@_ZTSN5boost16exception_detail10clone_implINS0_19error_info_injectorINS_17bad_function_callEEEEE = linkonce_odr dso_local constant [92 x i8] c"N5boost16exception_detail10clone_implINS0_19error_info_injectorINS_17bad_function_callEEEEE\00", comdat, align 1
@_ZTSN5boost16exception_detail19error_info_injectorINS_17bad_function_callEEE = linkonce_odr dso_local constant [73 x i8] c"N5boost16exception_detail19error_info_injectorINS_17bad_function_callEEE\00", comdat, align 1
@_ZTSN5boost17bad_function_callE = linkonce_odr dso_local constant [28 x i8] c"N5boost17bad_function_callE\00", comdat, align 1
@_ZTISt13runtime_error = external dso_local constant i8*
@_ZTIN5boost17bad_function_callE = linkonce_odr dso_local constant { i8*, i8*, i8* } { i8* bitcast (i8** getelementptr inbounds (i8*, i8** @_ZTVN10__cxxabiv120__si_class_type_infoE, i64 2) to i8*), i8* getelementptr inbounds ([28 x i8], [28 x i8]* @_ZTSN5boost17bad_function_callE, i32 0, i32 0), i8* bitcast (i8** @_ZTISt13runtime_error to i8*) }, comdat, align 8
@_ZTSN5boost9exceptionE = linkonce_odr dso_local constant [19 x i8] c"N5boost9exceptionE\00", comdat, align 1
@_ZTIN5boost9exceptionE = linkonce_odr dso_local constant { i8*, i8* } { i8* bitcast (i8** getelementptr inbounds (i8*, i8** @_ZTVN10__cxxabiv117__class_type_infoE, i64 2) to i8*), i8* getelementptr inbounds ([19 x i8], [19 x i8]* @_ZTSN5boost9exceptionE, i32 0, i32 0) }, comdat, align 8
@_ZTIN5boost16exception_detail19error_info_injectorINS_17bad_function_callEEE = linkonce_odr dso_local constant { i8*, i8*, i32, i32, i8*, i64, i8*, i64 } { i8* bitcast (i8** getelementptr inbounds (i8*, i8** @_ZTVN10__cxxabiv121__vmi_class_type_infoE, i64 2) to i8*), i8* getelementptr inbounds ([73 x i8], [73 x i8]* @_ZTSN5boost16exception_detail19error_info_injectorINS_17bad_function_callEEE, i32 0, i32 0), i32 0, i32 2, i8* bitcast ({ i8*, i8*, i8* }* @_ZTIN5boost17bad_function_callE to i8*), i64 2, i8* bitcast ({ i8*, i8* }* @_ZTIN5boost9exceptionE to i8*), i64 4098 }, comdat, align 8
@_ZTSN5boost16exception_detail10clone_baseE = linkonce_odr dso_local constant [39 x i8] c"N5boost16exception_detail10clone_baseE\00", comdat, align 1
@_ZTIN5boost16exception_detail10clone_baseE = linkonce_odr dso_local constant { i8*, i8* } { i8* bitcast (i8** getelementptr inbounds (i8*, i8** @_ZTVN10__cxxabiv117__class_type_infoE, i64 2) to i8*), i8* getelementptr inbounds ([39 x i8], [39 x i8]* @_ZTSN5boost16exception_detail10clone_baseE, i32 0, i32 0) }, comdat, align 8
@_ZTIN5boost16exception_detail10clone_implINS0_19error_info_injectorINS_17bad_function_callEEEEE = linkonce_odr dso_local constant { i8*, i8*, i32, i32, i8*, i64, i8*, i64 } { i8* bitcast (i8** getelementptr inbounds (i8*, i8** @_ZTVN10__cxxabiv121__vmi_class_type_infoE, i64 2) to i8*), i8* getelementptr inbounds ([92 x i8], [92 x i8]* @_ZTSN5boost16exception_detail10clone_implINS0_19error_info_injectorINS_17bad_function_callEEEEE, i32 0, i32 0), i32 0, i32 2, i8* bitcast ({ i8*, i8*, i32, i32, i8*, i64, i8*, i64 }* @_ZTIN5boost16exception_detail19error_info_injectorINS_17bad_function_callEEE to i8*), i64 2, i8* bitcast ({ i8*, i8* }* @_ZTIN5boost16exception_detail10clone_baseE to i8*), i64 14338 }, comdat, align 8
@_ZTVN5boost16exception_detail10clone_implINS0_19error_info_injectorINS_17bad_function_callEEEEE = linkonce_odr dso_local unnamed_addr constant { [7 x i8*], [4 x i8*], [6 x i8*] } { [7 x i8*] [i8* null, i8* bitcast ({ i8*, i8*, i32, i32, i8*, i64, i8*, i64 }* @_ZTIN5boost16exception_detail10clone_implINS0_19error_info_injectorINS_17bad_function_callEEEEE to i8*), i8* bitcast (void (%"class.boost::exception_detail::clone_impl"*)* @_ZN5boost16exception_detail10clone_implINS0_19error_info_injectorINS_17bad_function_callEEEED2Ev to i8*), i8* bitcast (void (%"class.boost::exception_detail::clone_impl"*)* @_ZN5boost16exception_detail10clone_implINS0_19error_info_injectorINS_17bad_function_callEEEED0Ev to i8*), i8* bitcast (i8* (%"class.std::runtime_error"*)* @_ZNKSt13runtime_error4whatEv to i8*), i8* bitcast (%"class.boost::exception_detail::clone_base"* (%"class.boost::exception_detail::clone_impl"*)* @_ZNK5boost16exception_detail10clone_implINS0_19error_info_injectorINS_17bad_function_callEEEE5cloneEv to i8*), i8* bitcast (void (%"class.boost::exception_detail::clone_impl"*)* @_ZNK5boost16exception_detail10clone_implINS0_19error_info_injectorINS_17bad_function_callEEEE7rethrowEv to i8*)], [4 x i8*] [i8* inttoptr (i64 -16 to i8*), i8* bitcast ({ i8*, i8*, i32, i32, i8*, i64, i8*, i64 }* @_ZTIN5boost16exception_detail10clone_implINS0_19error_info_injectorINS_17bad_function_callEEEEE to i8*), i8* bitcast (void (%"class.boost::exception_detail::clone_impl"*)* @_ZThn16_N5boost16exception_detail10clone_implINS0_19error_info_injectorINS_17bad_function_callEEEED1Ev to i8*), i8* bitcast (void (%"class.boost::exception_detail::clone_impl"*)* @_ZThn16_N5boost16exception_detail10clone_implINS0_19error_info_injectorINS_17bad_function_callEEEED0Ev to i8*)], [6 x i8*] [i8* inttoptr (i64 -56 to i8*), i8* bitcast ({ i8*, i8*, i32, i32, i8*, i64, i8*, i64 }* @_ZTIN5boost16exception_detail10clone_implINS0_19error_info_injectorINS_17bad_function_callEEEEE to i8*), i8* bitcast (%"class.boost::exception_detail::clone_base"* (%"class.boost::exception_detail::clone_impl"*)* @_ZThn56_NK5boost16exception_detail10clone_implINS0_19error_info_injectorINS_17bad_function_callEEEE5cloneEv to i8*), i8* bitcast (void (%"class.boost::exception_detail::clone_impl"*)* @_ZThn56_NK5boost16exception_detail10clone_implINS0_19error_info_injectorINS_17bad_function_callEEEE7rethrowEv to i8*), i8* bitcast (void (%"class.boost::exception_detail::clone_impl"*)* @_ZThn56_N5boost16exception_detail10clone_implINS0_19error_info_injectorINS_17bad_function_callEEEED1Ev to i8*), i8* bitcast (void (%"class.boost::exception_detail::clone_impl"*)* @_ZThn56_N5boost16exception_detail10clone_implINS0_19error_info_injectorINS_17bad_function_callEEEED0Ev to i8*)] }, comdat, align 8
@_ZTVN5boost16exception_detail19error_info_injectorINS_17bad_function_callEEE = linkonce_odr dso_local unnamed_addr constant { [5 x i8*], [4 x i8*] } { [5 x i8*] [i8* null, i8* bitcast ({ i8*, i8*, i32, i32, i8*, i64, i8*, i64 }* @_ZTIN5boost16exception_detail19error_info_injectorINS_17bad_function_callEEE to i8*), i8* bitcast (void (%"struct.boost::exception_detail::error_info_injector"*)* @_ZN5boost16exception_detail19error_info_injectorINS_17bad_function_callEED2Ev to i8*), i8* bitcast (void (%"struct.boost::exception_detail::error_info_injector"*)* @_ZN5boost16exception_detail19error_info_injectorINS_17bad_function_callEED0Ev to i8*), i8* bitcast (i8* (%"class.std::runtime_error"*)* @_ZNKSt13runtime_error4whatEv to i8*)], [4 x i8*] [i8* inttoptr (i64 -16 to i8*), i8* bitcast ({ i8*, i8*, i32, i32, i8*, i64, i8*, i64 }* @_ZTIN5boost16exception_detail19error_info_injectorINS_17bad_function_callEEE to i8*), i8* bitcast (void (%"struct.boost::exception_detail::error_info_injector"*)* @_ZThn16_N5boost16exception_detail19error_info_injectorINS_17bad_function_callEED1Ev to i8*), i8* bitcast (void (%"struct.boost::exception_detail::error_info_injector"*)* @_ZThn16_N5boost16exception_detail19error_info_injectorINS_17bad_function_callEED0Ev to i8*)] }, comdat, align 8
@_ZTVN5boost17bad_function_callE = linkonce_odr dso_local unnamed_addr constant { [5 x i8*] } { [5 x i8*] [i8* null, i8* bitcast ({ i8*, i8*, i8* }* @_ZTIN5boost17bad_function_callE to i8*), i8* bitcast (void (%"class.boost::bad_function_call"*)* @_ZN5boost17bad_function_callD2Ev to i8*), i8* bitcast (void (%"class.boost::bad_function_call"*)* @_ZN5boost17bad_function_callD0Ev to i8*), i8* bitcast (i8* (%"class.std::runtime_error"*)* @_ZNKSt13runtime_error4whatEv to i8*)] }, comdat, align 8
@_ZTVN5boost9exceptionE = linkonce_odr dso_local unnamed_addr constant { [4 x i8*] } { [4 x i8*] [i8* null, i8* bitcast ({ i8*, i8* }* @_ZTIN5boost9exceptionE to i8*), i8* bitcast (void ()* @__cxa_pure_virtual to i8*), i8* bitcast (void ()* @__cxa_pure_virtual to i8*)] }, comdat, align 8
@_ZTVN5boost16exception_detail10clone_baseE = linkonce_odr dso_local unnamed_addr constant { [6 x i8*] } { [6 x i8*] [i8* null, i8* bitcast ({ i8*, i8* }* @_ZTIN5boost16exception_detail10clone_baseE to i8*), i8* bitcast (void ()* @__cxa_pure_virtual to i8*), i8* bitcast (void ()* @__cxa_pure_virtual to i8*), i8* bitcast (void (%"class.boost::exception_detail::clone_base"*)* @_ZN5boost16exception_detail10clone_baseD2Ev to i8*), i8* bitcast (void (%"class.boost::exception_detail::clone_base"*)* @_ZN5boost16exception_detail10clone_baseD0Ev to i8*)] }, comdat, align 8
@.str.18 = private unnamed_addr constant [30 x i8] c"call to empty boost::function\00", align 1
@_ZTVN5boost6detail17sp_counted_impl_pIN6dealii7Threads8internal16ThreadDescriptorIdEEEE = linkonce_odr dso_local unnamed_addr constant { [7 x i8*] } { [7 x i8*] [i8* null, i8* bitcast ({ i8*, i8*, i8* }* @_ZTIN5boost6detail17sp_counted_impl_pIN6dealii7Threads8internal16ThreadDescriptorIdEEEE to i8*), i8* bitcast (void (%"class.boost::detail::sp_counted_impl_p"*)* @_ZN5boost6detail17sp_counted_impl_pIN6dealii7Threads8internal16ThreadDescriptorIdEEED2Ev to i8*), i8* bitcast (void (%"class.boost::detail::sp_counted_impl_p"*)* @_ZN5boost6detail17sp_counted_impl_pIN6dealii7Threads8internal16ThreadDescriptorIdEEED0Ev to i8*), i8* bitcast (void (%"class.boost::detail::sp_counted_impl_p"*)* @_ZN5boost6detail17sp_counted_impl_pIN6dealii7Threads8internal16ThreadDescriptorIdEEE7disposeEv to i8*), i8* bitcast (void (%"class.boost::detail::sp_counted_base"*)* @_ZN5boost6detail15sp_counted_base7destroyEv to i8*), i8* bitcast (i8* (%"class.boost::detail::sp_counted_impl_p"*, %"class.std::type_info"*)* @_ZN5boost6detail17sp_counted_impl_pIN6dealii7Threads8internal16ThreadDescriptorIdEEE11get_deleterERKSt9type_info to i8*)] }, comdat, align 8
@_ZTSN5boost6detail17sp_counted_impl_pIN6dealii7Threads8internal16ThreadDescriptorIdEEEE = linkonce_odr dso_local constant [84 x i8] c"N5boost6detail17sp_counted_impl_pIN6dealii7Threads8internal16ThreadDescriptorIdEEEE\00", comdat, align 1
@_ZTSN5boost6detail15sp_counted_baseE = linkonce_odr dso_local constant [33 x i8] c"N5boost6detail15sp_counted_baseE\00", comdat, align 1
@_ZTIN5boost6detail15sp_counted_baseE = linkonce_odr dso_local constant { i8*, i8* } { i8* bitcast (i8** getelementptr inbounds (i8*, i8** @_ZTVN10__cxxabiv117__class_type_infoE, i64 2) to i8*), i8* getelementptr inbounds ([33 x i8], [33 x i8]* @_ZTSN5boost6detail15sp_counted_baseE, i32 0, i32 0) }, comdat, align 8
@_ZTIN5boost6detail17sp_counted_impl_pIN6dealii7Threads8internal16ThreadDescriptorIdEEEE = linkonce_odr dso_local constant { i8*, i8*, i8* } { i8* bitcast (i8** getelementptr inbounds (i8*, i8** @_ZTVN10__cxxabiv120__si_class_type_infoE, i64 2) to i8*), i8* getelementptr inbounds ([84 x i8], [84 x i8]* @_ZTSN5boost6detail17sp_counted_impl_pIN6dealii7Threads8internal16ThreadDescriptorIdEEEE, i32 0, i32 0), i8* bitcast ({ i8*, i8* }* @_ZTIN5boost6detail15sp_counted_baseE to i8*) }, comdat, align 8
@_ZTVN5boost6detail15sp_counted_baseE = linkonce_odr dso_local unnamed_addr constant { [7 x i8*] } { [7 x i8*] [i8* null, i8* bitcast ({ i8*, i8* }* @_ZTIN5boost6detail15sp_counted_baseE to i8*), i8* bitcast (void (%"class.boost::detail::sp_counted_base"*)* @_ZN5boost6detail15sp_counted_baseD2Ev to i8*), i8* bitcast (void (%"class.boost::detail::sp_counted_base"*)* @_ZN5boost6detail15sp_counted_baseD0Ev to i8*), i8* bitcast (void ()* @__cxa_pure_virtual to i8*), i8* bitcast (void (%"class.boost::detail::sp_counted_base"*)* @_ZN5boost6detail15sp_counted_base7destroyEv to i8*), i8* bitcast (void ()* @__cxa_pure_virtual to i8*)] }, comdat, align 8
@.str.19 = private unnamed_addr constant [26 x i8] c"vector::_M_realloc_insert\00", align 1
@.str.20 = private unnamed_addr constant [33 x i8] c"include/base/thread_management.h\00", align 1
@.str.21 = private unnamed_addr constant [1 x i8] zeroinitializer, align 1
@.str.22 = private unnamed_addr constant [18 x i8] c"thread_descriptor\00", align 1
@.str.23 = private unnamed_addr constant [14 x i8] c"ExcNoThread()\00", align 1
@_ZTSN6dealii7Threads6ThreadIdE11ExcNoThreadE = linkonce_odr dso_local constant [41 x i8] c"N6dealii7Threads6ThreadIdE11ExcNoThreadE\00", comdat, align 1
@_ZTIN6dealii13ExceptionBaseE = external dso_local constant i8*
@_ZTIN6dealii7Threads6ThreadIdE11ExcNoThreadE = linkonce_odr dso_local constant { i8*, i8*, i8* } { i8* bitcast (i8** getelementptr inbounds (i8*, i8** @_ZTVN10__cxxabiv120__si_class_type_infoE, i64 2) to i8*), i8* getelementptr inbounds ([41 x i8], [41 x i8]* @_ZTSN6dealii7Threads6ThreadIdE11ExcNoThreadE, i32 0, i32 0), i8* bitcast (i8** @_ZTIN6dealii13ExceptionBaseE to i8*) }, comdat, align 8
@_ZTVN6dealii7Threads6ThreadIdE11ExcNoThreadE = linkonce_odr dso_local unnamed_addr constant { [6 x i8*] } { [6 x i8*] [i8* null, i8* bitcast ({ i8*, i8*, i8* }* @_ZTIN6dealii7Threads6ThreadIdE11ExcNoThreadE to i8*), i8* bitcast (void (%"class.dealii::Threads::Thread<double>::ExcNoThread"*)* @_ZN6dealii7Threads6ThreadIdE11ExcNoThreadD2Ev to i8*), i8* bitcast (void (%"class.dealii::Threads::Thread<double>::ExcNoThread"*)* @_ZN6dealii7Threads6ThreadIdE11ExcNoThreadD0Ev to i8*), i8* bitcast (i8* (%"class.dealii::ExceptionBase"*)* @_ZNK6dealii13ExceptionBase4whatEv to i8*), i8* bitcast (void (%"class.dealii::ExceptionBase"*, %"class.std::basic_ostream"*)* @_ZNK6dealii13ExceptionBase10print_infoERSo to i8*)] }, comdat, align 8
@_ZTVN6dealii6VectorIdEE = linkonce_odr dso_local unnamed_addr constant { [6 x i8*] } { [6 x i8*] [i8* null, i8* bitcast ({ i8*, i8*, i8* }* @_ZTIN6dealii6VectorIdEE to i8*), i8* bitcast (void (%"class.dealii::Vector"*)* @_ZN6dealii6VectorIdED2Ev to i8*), i8* bitcast (void (%"class.dealii::Vector"*)* @_ZN6dealii6VectorIdED0Ev to i8*), i8* bitcast (void (%"class.dealii::Vector"*, i32, i1)* @_ZN6dealii6VectorIdE6reinitEjb to i8*), i8* bitcast (void (%"class.dealii::Vector"*, %"class.dealii::Vector"*)* @_ZN6dealii6VectorIdE4swapERS1_ to i8*)] }, comdat, align 8
@_ZTSN6dealii6VectorIdEE = linkonce_odr dso_local constant [20 x i8] c"N6dealii6VectorIdEE\00", comdat, align 1
@_ZTIN6dealii6VectorIdEE = linkonce_odr dso_local constant { i8*, i8*, i8* } { i8* bitcast (i8** getelementptr inbounds (i8*, i8** @_ZTVN10__cxxabiv120__si_class_type_infoE, i64 2) to i8*), i8* getelementptr inbounds ([20 x i8], [20 x i8]* @_ZTSN6dealii6VectorIdEE, i32 0, i32 0), i8* bitcast (i8** @_ZTIN6dealii11SubscriptorE to i8*) }, comdat, align 8
@_ZZN5boost9function2IddRN6dealii6VectorIdEEE9assign_toINS_3_bi6bind_tIdNS_4_mfi4cmf2IdN9libparest5Slave10Stationary5SlaveILi3EfEEdS4_EENS7_5list3INS_17reference_wrapperIKSF_EENS_3argILi1EEENSL_ILi2EEEEEEEEEvT_E13stored_vtable = linkonce_odr dso_local global %"struct.boost::detail::function::basic_vtable2" { %"struct.boost::detail::function::vtable_base" { void (%"union.boost::detail::function::function_buffer"*, %"union.boost::detail::function::function_buffer"*, i32)* @_ZN5boost6detail8function15functor_managerINS_3_bi6bind_tIdNS_4_mfi4cmf2IdN9libparest5Slave10Stationary5SlaveILi3EfEEdRN6dealii6VectorIdEEEENS3_5list3INS_17reference_wrapperIKSB_EENS_3argILi1EEENSL_ILi2EEEEEEEE6manageERKNS1_15function_bufferERSR_NS1_30functor_manager_operation_typeE }, double (%"union.boost::detail::function::function_buffer"*, double, %"class.dealii::Vector"*)* @_ZN5boost6detail8function21function_obj_invoker2INS_3_bi6bind_tIdNS_4_mfi4cmf2IdN9libparest5Slave10Stationary5SlaveILi3EfEEdRN6dealii6VectorIdEEEENS3_5list3INS_17reference_wrapperIKSB_EENS_3argILi1EEENSL_ILi2EEEEEEEddSF_E6invokeERNS1_15function_bufferEdSF_ }, comdat, align 8, !dbg !4024
@_ZTSN5boost3_bi6bind_tIdNS_4_mfi4cmf2IdN9libparest5Slave10Stationary5SlaveILi3EfEEdRN6dealii6VectorIdEEEENS0_5list3INS_17reference_wrapperIKS8_EENS_3argILi1EEENSI_ILi2EEEEEEE = linkonce_odr dso_local constant [171 x i8] c"N5boost3_bi6bind_tIdNS_4_mfi4cmf2IdN9libparest5Slave10Stationary5SlaveILi3EfEEdRN6dealii6VectorIdEEEENS0_5list3INS_17reference_wrapperIKS8_EENS_3argILi1EEENSI_ILi2EEEEEEE\00", comdat, align 1
@_ZTIN5boost3_bi6bind_tIdNS_4_mfi4cmf2IdN9libparest5Slave10Stationary5SlaveILi3EfEEdRN6dealii6VectorIdEEEENS0_5list3INS_17reference_wrapperIKS8_EENS_3argILi1EEENSI_ILi2EEEEEEE = linkonce_odr dso_local constant { i8*, i8* } { i8* bitcast (i8** getelementptr inbounds (i8*, i8** @_ZTVN10__cxxabiv117__class_type_infoE, i64 2) to i8*), i8* getelementptr inbounds ([171 x i8], [171 x i8]* @_ZTSN5boost3_bi6bind_tIdNS_4_mfi4cmf2IdN9libparest5Slave10Stationary5SlaveILi3EfEEdRN6dealii6VectorIdEEEENS0_5list3INS_17reference_wrapperIKS8_EENS_3argILi1EEENSI_ILi2EEEEEEE, i32 0, i32 0) }, comdat, align 8
@llvm.global_ctors = appending global [1 x { i32, void ()*, i8* }] [{ i32, void ()*, i8* } { i32 65535, void ()* @_GLOBAL__sub_I_slave.cc, i8* null }]

@_ZN9libparest5Slave10Stationary5SlaveILi3EdED1Ev = weak_odr dso_local unnamed_addr alias void (%"class.libparest::Slave::Stationary::Slave"*), void (%"class.libparest::Slave::Stationary::Slave"*)* @_ZN9libparest5Slave10Stationary5SlaveILi3EdED2Ev
@_ZN9libparest5Slave10Stationary5SlaveILi3EfED1Ev = weak_odr dso_local unnamed_addr alias void (%"class.libparest::Slave::Stationary::Slave.204"*), void (%"class.libparest::Slave::Stationary::Slave.204"*)* @_ZN9libparest5Slave10Stationary5SlaveILi3EfED2Ev

; Function Attrs: noinline uwtable
define internal void @__cxx_global_var_init() #0 section ".text.startup" !dbg !5429 {
entry:
  call void @_ZN5boost3argILi1EEC2Ev(%"struct.boost::arg"* @_ZN12_GLOBAL__N_12_1E), !dbg !5430
  ret void, !dbg !5430
}

; Function Attrs: noinline nounwind uwtable
define linkonce_odr dso_local void @_ZN5boost3argILi1EEC2Ev(%"struct.boost::arg"* %this) unnamed_addr #1 comdat align 2 !dbg !5431 {
entry:
  %this.addr = alloca %"struct.boost::arg"*, align 8
  store %"struct.boost::arg"* %this, %"struct.boost::arg"** %this.addr, align 8
  call void @llvm.dbg.declare(metadata %"struct.boost::arg"** %this.addr, metadata !5432, metadata !DIExpression()), !dbg !5434
  %this1 = load %"struct.boost::arg"*, %"struct.boost::arg"** %this.addr, align 8
  ret void, !dbg !5435
}

; Function Attrs: noinline uwtable
define internal void @__cxx_global_var_init.1() #0 section ".text.startup" !dbg !5436 {
entry:
  call void @_ZN5boost3argILi2EEC2Ev(%"struct.boost::arg.0"* @_ZN12_GLOBAL__N_12_2E), !dbg !5437
  ret void, !dbg !5437
}

; Function Attrs: noinline nounwind uwtable
define linkonce_odr dso_local void @_ZN5boost3argILi2EEC2Ev(%"struct.boost::arg.0"* %this) unnamed_addr #1 comdat align 2 !dbg !5438 {
entry:
  %this.addr = alloca %"struct.boost::arg.0"*, align 8
  store %"struct.boost::arg.0"* %this, %"struct.boost::arg.0"** %this.addr, align 8
  call void @llvm.dbg.declare(metadata %"struct.boost::arg.0"** %this.addr, metadata !5439, metadata !DIExpression()), !dbg !5441
  %this1 = load %"struct.boost::arg.0"*, %"struct.boost::arg.0"** %this.addr, align 8
  ret void, !dbg !5442
}

; Function Attrs: noinline uwtable
define internal void @__cxx_global_var_init.2() #0 section ".text.startup" !dbg !5443 {
entry:
  call void @_ZN5boost3argILi3EEC2Ev(%"struct.boost::arg.2"* @_ZN12_GLOBAL__N_12_3E), !dbg !5444
  ret void, !dbg !5444
}

; Function Attrs: noinline nounwind uwtable
define linkonce_odr dso_local void @_ZN5boost3argILi3EEC2Ev(%"struct.boost::arg.2"* %this) unnamed_addr #1 comdat align 2 !dbg !5445 {
entry:
  %this.addr = alloca %"struct.boost::arg.2"*, align 8
  store %"struct.boost::arg.2"* %this, %"struct.boost::arg.2"** %this.addr, align 8
  call void @llvm.dbg.declare(metadata %"struct.boost::arg.2"** %this.addr, metadata !5446, metadata !DIExpression()), !dbg !5448
  %this1 = load %"struct.boost::arg.2"*, %"struct.boost::arg.2"** %this.addr, align 8
  ret void, !dbg !5449
}

; Function Attrs: noinline uwtable
define internal void @__cxx_global_var_init.3() #0 section ".text.startup" !dbg !5450 {
entry:
  call void @_ZN5boost3argILi4EEC2Ev(%"struct.boost::arg.4"* @_ZN12_GLOBAL__N_12_4E), !dbg !5451
  ret void, !dbg !5451
}

; Function Attrs: noinline nounwind uwtable
define linkonce_odr dso_local void @_ZN5boost3argILi4EEC2Ev(%"struct.boost::arg.4"* %this) unnamed_addr #1 comdat align 2 !dbg !5452 {
entry:
  %this.addr = alloca %"struct.boost::arg.4"*, align 8
  store %"struct.boost::arg.4"* %this, %"struct.boost::arg.4"** %this.addr, align 8
  call void @llvm.dbg.declare(metadata %"struct.boost::arg.4"** %this.addr, metadata !5453, metadata !DIExpression()), !dbg !5455
  %this1 = load %"struct.boost::arg.4"*, %"struct.boost::arg.4"** %this.addr, align 8
  ret void, !dbg !5456
}

; Function Attrs: noinline uwtable
define internal void @__cxx_global_var_init.4() #0 section ".text.startup" !dbg !5457 {
entry:
  call void @_ZN5boost3argILi5EEC2Ev(%"struct.boost::arg.6"* @_ZN12_GLOBAL__N_12_5E), !dbg !5458
  ret void, !dbg !5458
}

; Function Attrs: noinline nounwind uwtable
define linkonce_odr dso_local void @_ZN5boost3argILi5EEC2Ev(%"struct.boost::arg.6"* %this) unnamed_addr #1 comdat align 2 !dbg !5459 {
entry:
  %this.addr = alloca %"struct.boost::arg.6"*, align 8
  store %"struct.boost::arg.6"* %this, %"struct.boost::arg.6"** %this.addr, align 8
  call void @llvm.dbg.declare(metadata %"struct.boost::arg.6"** %this.addr, metadata !5460, metadata !DIExpression()), !dbg !5462
  %this1 = load %"struct.boost::arg.6"*, %"struct.boost::arg.6"** %this.addr, align 8
  ret void, !dbg !5463
}

; Function Attrs: noinline uwtable
define internal void @__cxx_global_var_init.5() #0 section ".text.startup" !dbg !5464 {
entry:
  call void @_ZN5boost3argILi6EEC2Ev(%"struct.boost::arg.8"* @_ZN12_GLOBAL__N_12_6E), !dbg !5465
  ret void, !dbg !5465
}

; Function Attrs: noinline nounwind uwtable
define linkonce_odr dso_local void @_ZN5boost3argILi6EEC2Ev(%"struct.boost::arg.8"* %this) unnamed_addr #1 comdat align 2 !dbg !5466 {
entry:
  %this.addr = alloca %"struct.boost::arg.8"*, align 8
  store %"struct.boost::arg.8"* %this, %"struct.boost::arg.8"** %this.addr, align 8
  call void @llvm.dbg.declare(metadata %"struct.boost::arg.8"** %this.addr, metadata !5467, metadata !DIExpression()), !dbg !5469
  %this1 = load %"struct.boost::arg.8"*, %"struct.boost::arg.8"** %this.addr, align 8
  ret void, !dbg !5470
}

; Function Attrs: noinline uwtable
define internal void @__cxx_global_var_init.6() #0 section ".text.startup" !dbg !5471 {
entry:
  call void @_ZN5boost3argILi7EEC2Ev(%"struct.boost::arg.10"* @_ZN12_GLOBAL__N_12_7E), !dbg !5472
  ret void, !dbg !5472
}

; Function Attrs: noinline nounwind uwtable
define linkonce_odr dso_local void @_ZN5boost3argILi7EEC2Ev(%"struct.boost::arg.10"* %this) unnamed_addr #1 comdat align 2 !dbg !5473 {
entry:
  %this.addr = alloca %"struct.boost::arg.10"*, align 8
  store %"struct.boost::arg.10"* %this, %"struct.boost::arg.10"** %this.addr, align 8
  call void @llvm.dbg.declare(metadata %"struct.boost::arg.10"** %this.addr, metadata !5474, metadata !DIExpression()), !dbg !5476
  %this1 = load %"struct.boost::arg.10"*, %"struct.boost::arg.10"** %this.addr, align 8
  ret void, !dbg !5477
}

; Function Attrs: noinline uwtable
define internal void @__cxx_global_var_init.7() #0 section ".text.startup" !dbg !5478 {
entry:
  call void @_ZN5boost3argILi8EEC2Ev(%"struct.boost::arg.12"* @_ZN12_GLOBAL__N_12_8E), !dbg !5479
  ret void, !dbg !5479
}

; Function Attrs: noinline nounwind uwtable
define linkonce_odr dso_local void @_ZN5boost3argILi8EEC2Ev(%"struct.boost::arg.12"* %this) unnamed_addr #1 comdat align 2 !dbg !5480 {
entry:
  %this.addr = alloca %"struct.boost::arg.12"*, align 8
  store %"struct.boost::arg.12"* %this, %"struct.boost::arg.12"** %this.addr, align 8
  call void @llvm.dbg.declare(metadata %"struct.boost::arg.12"** %this.addr, metadata !5481, metadata !DIExpression()), !dbg !5483
  %this1 = load %"struct.boost::arg.12"*, %"struct.boost::arg.12"** %this.addr, align 8
  ret void, !dbg !5484
}

; Function Attrs: noinline uwtable
define internal void @__cxx_global_var_init.8() #0 section ".text.startup" !dbg !5485 {
entry:
  call void @_ZN5boost3argILi9EEC2Ev(%"struct.boost::arg.14"* @_ZN12_GLOBAL__N_12_9E), !dbg !5486
  ret void, !dbg !5486
}

; Function Attrs: noinline nounwind uwtable
define linkonce_odr dso_local void @_ZN5boost3argILi9EEC2Ev(%"struct.boost::arg.14"* %this) unnamed_addr #1 comdat align 2 !dbg !5487 {
entry:
  %this.addr = alloca %"struct.boost::arg.14"*, align 8
  store %"struct.boost::arg.14"* %this, %"struct.boost::arg.14"** %this.addr, align 8
  call void @llvm.dbg.declare(metadata %"struct.boost::arg.14"** %this.addr, metadata !5488, metadata !DIExpression()), !dbg !5490
  %this1 = load %"struct.boost::arg.14"*, %"struct.boost::arg.14"** %this.addr, align 8
  ret void, !dbg !5491
}

; Function Attrs: noinline uwtable
define internal void @__cxx_global_var_init.9() #0 section ".text.startup" !dbg !5492 {
entry:
  call void @_ZNSt8ios_base4InitC1Ev(%"class.std::ios_base::Init"* @_ZStL8__ioinit), !dbg !5493
  %0 = call i32 @__cxa_atexit(void (i8*)* bitcast (void (%"class.std::ios_base::Init"*)* @_ZNSt8ios_base4InitD1Ev to void (i8*)*), i8* getelementptr inbounds (%"class.std::ios_base::Init", %"class.std::ios_base::Init"* @_ZStL8__ioinit, i32 0, i32 0), i8* @__dso_handle) #4, !dbg !5493
  ret void, !dbg !5493
}

declare dso_local void @_ZNSt8ios_base4InitC1Ev(%"class.std::ios_base::Init"*) unnamed_addr #2

; Function Attrs: nounwind
declare dso_local void @_ZNSt8ios_base4InitD1Ev(%"class.std::ios_base::Init"*) unnamed_addr #3

; Function Attrs: nounwind
declare dso_local i32 @__cxa_atexit(void (i8*)*, i8*, i8*) #4

; Function Attrs: noinline uwtable
define weak_odr dso_local void @_ZN9libparest5Slave10Stationary5SlaveILi3EdEC2ERKNSt7__cxx1112basic_stringIcSt11char_traitsIcESaIcEEEjRNS_10MessageLog10ServerBaseE(%"class.libparest::Slave::Stationary::Slave"* %this, %"class.std::__cxx11::basic_string"* dereferenceable(32) %base_name, i32 %experiment_number, %"class.libparest::MessageLog::ServerBase"* dereferenceable(96) %message_log_server) unnamed_addr #0 comdat($_ZN9libparest5Slave10Stationary5SlaveILi3EdEC5ERKNSt7__cxx1112basic_stringIcSt11char_traitsIcESaIcEEEjRNS_10MessageLog10ServerBaseE) align 2 personality i8* bitcast (i32 (...)* @__gxx_personality_v0 to i8*) !dbg !5494 {
entry:
  %this.addr = alloca %"class.libparest::Slave::Stationary::Slave"*, align 8
  %base_name.addr = alloca %"class.std::__cxx11::basic_string"*, align 8
  %experiment_number.addr = alloca i32, align 4
  %message_log_server.addr = alloca %"class.libparest::MessageLog::ServerBase"*, align 8
  %exn.slot = alloca i8*
  %ehselector.slot = alloca i32
  store %"class.libparest::Slave::Stationary::Slave"* %this, %"class.libparest::Slave::Stationary::Slave"** %this.addr, align 8
  call void @llvm.dbg.declare(metadata %"class.libparest::Slave::Stationary::Slave"** %this.addr, metadata !5495, metadata !DIExpression()), !dbg !5497
  store %"class.std::__cxx11::basic_string"* %base_name, %"class.std::__cxx11::basic_string"** %base_name.addr, align 8
  call void @llvm.dbg.declare(metadata %"class.std::__cxx11::basic_string"** %base_name.addr, metadata !5498, metadata !DIExpression()), !dbg !5499
  store i32 %experiment_number, i32* %experiment_number.addr, align 4
  call void @llvm.dbg.declare(metadata i32* %experiment_number.addr, metadata !5500, metadata !DIExpression()), !dbg !5501
  store %"class.libparest::MessageLog::ServerBase"* %message_log_server, %"class.libparest::MessageLog::ServerBase"** %message_log_server.addr, align 8
  call void @llvm.dbg.declare(metadata %"class.libparest::MessageLog::ServerBase"** %message_log_server.addr, metadata !5502, metadata !DIExpression()), !dbg !5503
  %this1 = load %"class.libparest::Slave::Stationary::Slave"*, %"class.libparest::Slave::Stationary::Slave"** %this.addr, align 8
  %0 = bitcast %"class.libparest::Slave::Stationary::Slave"* %this1 to %"class.libparest::Slave::Base"*, !dbg !5504
  %1 = load %"class.std::__cxx11::basic_string"*, %"class.std::__cxx11::basic_string"** %base_name.addr, align 8, !dbg !5505
  %2 = load i32, i32* %experiment_number.addr, align 4, !dbg !5506
  %3 = load %"class.libparest::MessageLog::ServerBase"*, %"class.libparest::MessageLog::ServerBase"** %message_log_server.addr, align 8, !dbg !5507
  call void @_ZN9libparest5Slave4BaseC2ERKNSt7__cxx1112basic_stringIcSt11char_traitsIcESaIcEEEjRNS_10MessageLog10ServerBaseE(%"class.libparest::Slave::Base"* %0, %"class.std::__cxx11::basic_string"* dereferenceable(32) %1, i32 %2, %"class.libparest::MessageLog::ServerBase"* dereferenceable(96) %3), !dbg !5508
  %4 = bitcast %"class.libparest::Slave::Stationary::Slave"* %this1 to i32 (...)***, !dbg !5504
  store i32 (...)** bitcast (i8** getelementptr inbounds ({ [26 x i8*] }, { [26 x i8*] }* @_ZTVN9libparest5Slave10Stationary5SlaveILi3EdEE, i32 0, inrange i32 0, i32 2) to i32 (...)**), i32 (...)*** %4, align 8, !dbg !5504
  %global_matrix = getelementptr inbounds %"class.libparest::Slave::Stationary::Slave", %"class.libparest::Slave::Stationary::Slave"* %this1, i32 0, i32 1, !dbg !5509
  store %"class.libparest::Slave::Stationary::GlobalMatrix::Matrix"* null, %"class.libparest::Slave::Stationary::GlobalMatrix::Matrix"** %global_matrix, align 8, !dbg !5509
  %present_iterate = getelementptr inbounds %"class.libparest::Slave::Stationary::Slave", %"class.libparest::Slave::Stationary::Slave"* %this1, i32 0, i32 2, !dbg !5510
  invoke void @_ZN6dealii11BlockVectorIdEC1Ejj(%"class.dealii::BlockVector"* %present_iterate, i32 0, i32 0)
          to label %invoke.cont unwind label %lpad, !dbg !5510

invoke.cont:                                      ; preds = %entry
  %update = getelementptr inbounds %"class.libparest::Slave::Stationary::Slave", %"class.libparest::Slave::Stationary::Slave"* %this1, i32 0, i32 3, !dbg !5510
  invoke void @_ZN6dealii11BlockVectorIdEC1Ejj(%"class.dealii::BlockVector"* %update, i32 0, i32 0)
          to label %invoke.cont3 unwind label %lpad2, !dbg !5510

invoke.cont3:                                     ; preds = %invoke.cont
  %cellwise_errors = getelementptr inbounds %"class.libparest::Slave::Stationary::Slave", %"class.libparest::Slave::Stationary::Slave"* %this1, i32 0, i32 4, !dbg !5510
  invoke void @_ZN6dealii6VectorIfEC2Ev(%"class.dealii::Vector.32"* %cellwise_errors)
          to label %invoke.cont5 unwind label %lpad4, !dbg !5510

invoke.cont5:                                     ; preds = %invoke.cont3
  %right_hand_side = getelementptr inbounds %"class.libparest::Slave::Stationary::Slave", %"class.libparest::Slave::Stationary::Slave"* %this1, i32 0, i32 5, !dbg !5510
  invoke void @_ZN6dealii11BlockVectorIdEC1Ejj(%"class.dealii::BlockVector"* %right_hand_side, i32 0, i32 0)
          to label %invoke.cont7 unwind label %lpad6, !dbg !5510

invoke.cont7:                                     ; preds = %invoke.cont5
  %parameter_discretization = getelementptr inbounds %"class.libparest::Slave::Stationary::Slave", %"class.libparest::Slave::Stationary::Slave"* %this1, i32 0, i32 6, !dbg !5510
  invoke void @_ZN6dealii12SmartPointerIN9libparest9Parameter5Field16DiscretizedFieldILi3EEEEC2Ev(%"class.dealii::SmartPointer.33"* %parameter_discretization)
          to label %invoke.cont9 unwind label %lpad8, !dbg !5510

invoke.cont9:                                     ; preds = %invoke.cont7
  %state_discretization = getelementptr inbounds %"class.libparest::Slave::Stationary::Slave", %"class.libparest::Slave::Stationary::Slave"* %this1, i32 0, i32 7, !dbg !5510
  invoke void @_ZN6dealii12SmartPointerIN9libparest5Slave10Stationary14Discretization4BaseILi3EEEEC2Ev(%"class.dealii::SmartPointer.34"* %state_discretization)
          to label %invoke.cont11 unwind label %lpad10, !dbg !5510

invoke.cont11:                                    ; preds = %invoke.cont9
  %present_statistics = getelementptr inbounds %"class.libparest::Slave::Stationary::Slave", %"class.libparest::Slave::Stationary::Slave"* %this1, i32 0, i32 8, !dbg !5510
  invoke void @_ZN6dealii12SmartPointerIN9libparest5Slave10Stationary14Discretization4BaseILi3EE17PerStepStatisticsEEC2Ev(%"class.dealii::SmartPointer.35"* %present_statistics)
          to label %invoke.cont13 unwind label %lpad12, !dbg !5510

invoke.cont13:                                    ; preds = %invoke.cont11
  ret void, !dbg !5512

lpad:                                             ; preds = %entry
  %5 = landingpad { i8*, i32 }
          cleanup, !dbg !5512
  %6 = extractvalue { i8*, i32 } %5, 0, !dbg !5512
  store i8* %6, i8** %exn.slot, align 8, !dbg !5512
  %7 = extractvalue { i8*, i32 } %5, 1, !dbg !5512
  store i32 %7, i32* %ehselector.slot, align 4, !dbg !5512
  br label %ehcleanup18, !dbg !5512

lpad2:                                            ; preds = %invoke.cont
  %8 = landingpad { i8*, i32 }
          cleanup, !dbg !5512
  %9 = extractvalue { i8*, i32 } %8, 0, !dbg !5512
  store i8* %9, i8** %exn.slot, align 8, !dbg !5512
  %10 = extractvalue { i8*, i32 } %8, 1, !dbg !5512
  store i32 %10, i32* %ehselector.slot, align 4, !dbg !5512
  br label %ehcleanup17, !dbg !5512

lpad4:                                            ; preds = %invoke.cont3
  %11 = landingpad { i8*, i32 }
          cleanup, !dbg !5512
  %12 = extractvalue { i8*, i32 } %11, 0, !dbg !5512
  store i8* %12, i8** %exn.slot, align 8, !dbg !5512
  %13 = extractvalue { i8*, i32 } %11, 1, !dbg !5512
  store i32 %13, i32* %ehselector.slot, align 4, !dbg !5512
  br label %ehcleanup16, !dbg !5512

lpad6:                                            ; preds = %invoke.cont5
  %14 = landingpad { i8*, i32 }
          cleanup, !dbg !5512
  %15 = extractvalue { i8*, i32 } %14, 0, !dbg !5512
  store i8* %15, i8** %exn.slot, align 8, !dbg !5512
  %16 = extractvalue { i8*, i32 } %14, 1, !dbg !5512
  store i32 %16, i32* %ehselector.slot, align 4, !dbg !5512
  br label %ehcleanup15, !dbg !5512

lpad8:                                            ; preds = %invoke.cont7
  %17 = landingpad { i8*, i32 }
          cleanup, !dbg !5512
  %18 = extractvalue { i8*, i32 } %17, 0, !dbg !5512
  store i8* %18, i8** %exn.slot, align 8, !dbg !5512
  %19 = extractvalue { i8*, i32 } %17, 1, !dbg !5512
  store i32 %19, i32* %ehselector.slot, align 4, !dbg !5512
  br label %ehcleanup14, !dbg !5512

lpad10:                                           ; preds = %invoke.cont9
  %20 = landingpad { i8*, i32 }
          cleanup, !dbg !5512
  %21 = extractvalue { i8*, i32 } %20, 0, !dbg !5512
  store i8* %21, i8** %exn.slot, align 8, !dbg !5512
  %22 = extractvalue { i8*, i32 } %20, 1, !dbg !5512
  store i32 %22, i32* %ehselector.slot, align 4, !dbg !5512
  br label %ehcleanup, !dbg !5512

lpad12:                                           ; preds = %invoke.cont11
  %23 = landingpad { i8*, i32 }
          cleanup, !dbg !5512
  %24 = extractvalue { i8*, i32 } %23, 0, !dbg !5512
  store i8* %24, i8** %exn.slot, align 8, !dbg !5512
  %25 = extractvalue { i8*, i32 } %23, 1, !dbg !5512
  store i32 %25, i32* %ehselector.slot, align 4, !dbg !5512
  call void @_ZN6dealii12SmartPointerIN9libparest5Slave10Stationary14Discretization4BaseILi3EEEED2Ev(%"class.dealii::SmartPointer.34"* %state_discretization) #4, !dbg !5514
  br label %ehcleanup, !dbg !5514

ehcleanup:                                        ; preds = %lpad12, %lpad10
  call void @_ZN6dealii12SmartPointerIN9libparest9Parameter5Field16DiscretizedFieldILi3EEEED2Ev(%"class.dealii::SmartPointer.33"* %parameter_discretization) #4, !dbg !5514
  br label %ehcleanup14, !dbg !5514

ehcleanup14:                                      ; preds = %ehcleanup, %lpad8
  call void @_ZN6dealii11BlockVectorIdED1Ev(%"class.dealii::BlockVector"* %right_hand_side) #4, !dbg !5514
  br label %ehcleanup15, !dbg !5514

ehcleanup15:                                      ; preds = %ehcleanup14, %lpad6
  call void @_ZN6dealii6VectorIfED2Ev(%"class.dealii::Vector.32"* %cellwise_errors) #4, !dbg !5514
  br label %ehcleanup16, !dbg !5514

ehcleanup16:                                      ; preds = %ehcleanup15, %lpad4
  call void @_ZN6dealii11BlockVectorIdED1Ev(%"class.dealii::BlockVector"* %update) #4, !dbg !5514
  br label %ehcleanup17, !dbg !5514

ehcleanup17:                                      ; preds = %ehcleanup16, %lpad2
  call void @_ZN6dealii11BlockVectorIdED1Ev(%"class.dealii::BlockVector"* %present_iterate) #4, !dbg !5514
  br label %ehcleanup18, !dbg !5514

ehcleanup18:                                      ; preds = %ehcleanup17, %lpad
  %26 = bitcast %"class.libparest::Slave::Stationary::Slave"* %this1 to %"class.libparest::Slave::Base"*, !dbg !5514
  call void @_ZN9libparest5Slave4BaseD2Ev(%"class.libparest::Slave::Base"* %26) #4, !dbg !5514
  br label %eh.resume, !dbg !5514

eh.resume:                                        ; preds = %ehcleanup18
  %exn = load i8*, i8** %exn.slot, align 8, !dbg !5514
  %sel = load i32, i32* %ehselector.slot, align 4, !dbg !5514
  %lpad.val = insertvalue { i8*, i32 } undef, i8* %exn, 0, !dbg !5514
  %lpad.val19 = insertvalue { i8*, i32 } %lpad.val, i32 %sel, 1, !dbg !5514
  resume { i8*, i32 } %lpad.val19, !dbg !5514
}

; Function Attrs: nounwind readnone speculatable willreturn
declare void @llvm.dbg.declare(metadata, metadata, metadata) #5

declare dso_local void @_ZN9libparest5Slave4BaseC2ERKNSt7__cxx1112basic_stringIcSt11char_traitsIcESaIcEEEjRNS_10MessageLog10ServerBaseE(%"class.libparest::Slave::Base"*, %"class.std::__cxx11::basic_string"* dereferenceable(32), i32, %"class.libparest::MessageLog::ServerBase"* dereferenceable(96)) unnamed_addr #2

declare dso_local void @_ZN6dealii11BlockVectorIdEC1Ejj(%"class.dealii::BlockVector"*, i32, i32) unnamed_addr #2

declare dso_local i32 @__gxx_personality_v0(...)

; Function Attrs: noinline uwtable
define linkonce_odr dso_local void @_ZN6dealii6VectorIfEC2Ev(%"class.dealii::Vector.32"* %this) unnamed_addr #0 comdat align 2 !dbg !5516 {
entry:
  %this.addr = alloca %"class.dealii::Vector.32"*, align 8
  store %"class.dealii::Vector.32"* %this, %"class.dealii::Vector.32"** %this.addr, align 8
  call void @llvm.dbg.declare(metadata %"class.dealii::Vector.32"** %this.addr, metadata !5517, metadata !DIExpression()), !dbg !5519
  %this1 = load %"class.dealii::Vector.32"*, %"class.dealii::Vector.32"** %this.addr, align 8
  %0 = bitcast %"class.dealii::Vector.32"* %this1 to %"class.dealii::Subscriptor"*, !dbg !5520
  call void @_ZN6dealii11SubscriptorC2Ev(%"class.dealii::Subscriptor"* %0), !dbg !5521
  %1 = bitcast %"class.dealii::Vector.32"* %this1 to i32 (...)***, !dbg !5520
  store i32 (...)** bitcast (i8** getelementptr inbounds ({ [6 x i8*] }, { [6 x i8*] }* @_ZTVN6dealii6VectorIfEE, i32 0, inrange i32 0, i32 2) to i32 (...)**), i32 (...)*** %1, align 8, !dbg !5520
  %vec_size = getelementptr inbounds %"class.dealii::Vector.32", %"class.dealii::Vector.32"* %this1, i32 0, i32 1, !dbg !5522
  store i32 0, i32* %vec_size, align 8, !dbg !5522
  %max_vec_size = getelementptr inbounds %"class.dealii::Vector.32", %"class.dealii::Vector.32"* %this1, i32 0, i32 2, !dbg !5523
  store i32 0, i32* %max_vec_size, align 4, !dbg !5523
  %val = getelementptr inbounds %"class.dealii::Vector.32", %"class.dealii::Vector.32"* %this1, i32 0, i32 3, !dbg !5524
  store float* null, float** %val, align 8, !dbg !5524
  ret void, !dbg !5525
}

; Function Attrs: noinline nounwind uwtable
define linkonce_odr dso_local void @_ZN6dealii12SmartPointerIN9libparest9Parameter5Field16DiscretizedFieldILi3EEEEC2Ev(%"class.dealii::SmartPointer.33"* %this) unnamed_addr #1 comdat align 2 !dbg !5526 {
entry:
  %this.addr = alloca %"class.dealii::SmartPointer.33"*, align 8
  store %"class.dealii::SmartPointer.33"* %this, %"class.dealii::SmartPointer.33"** %this.addr, align 8
  call void @llvm.dbg.declare(metadata %"class.dealii::SmartPointer.33"** %this.addr, metadata !5527, metadata !DIExpression()), !dbg !5529
  %this1 = load %"class.dealii::SmartPointer.33"*, %"class.dealii::SmartPointer.33"** %this.addr, align 8
  %t = getelementptr inbounds %"class.dealii::SmartPointer.33", %"class.dealii::SmartPointer.33"* %this1, i32 0, i32 0, !dbg !5530
  store %"class.libparest::Parameter::Field::DiscretizedField"* null, %"class.libparest::Parameter::Field::DiscretizedField"** %t, align 8, !dbg !5530
  %id = getelementptr inbounds %"class.dealii::SmartPointer.33", %"class.dealii::SmartPointer.33"* %this1, i32 0, i32 1, !dbg !5531
  store i8* null, i8** %id, align 8, !dbg !5531
  ret void, !dbg !5532
}

; Function Attrs: noinline nounwind uwtable
define linkonce_odr dso_local void @_ZN6dealii12SmartPointerIN9libparest5Slave10Stationary14Discretization4BaseILi3EEEEC2Ev(%"class.dealii::SmartPointer.34"* %this) unnamed_addr #1 comdat align 2 !dbg !5533 {
entry:
  %this.addr = alloca %"class.dealii::SmartPointer.34"*, align 8
  store %"class.dealii::SmartPointer.34"* %this, %"class.dealii::SmartPointer.34"** %this.addr, align 8
  call void @llvm.dbg.declare(metadata %"class.dealii::SmartPointer.34"** %this.addr, metadata !5534, metadata !DIExpression()), !dbg !5536
  %this1 = load %"class.dealii::SmartPointer.34"*, %"class.dealii::SmartPointer.34"** %this.addr, align 8
  %t = getelementptr inbounds %"class.dealii::SmartPointer.34", %"class.dealii::SmartPointer.34"* %this1, i32 0, i32 0, !dbg !5537
  store %"class.libparest::Slave::Stationary::Discretization::Base"* null, %"class.libparest::Slave::Stationary::Discretization::Base"** %t, align 8, !dbg !5537
  %id = getelementptr inbounds %"class.dealii::SmartPointer.34", %"class.dealii::SmartPointer.34"* %this1, i32 0, i32 1, !dbg !5538
  store i8* null, i8** %id, align 8, !dbg !5538
  ret void, !dbg !5539
}

; Function Attrs: noinline nounwind uwtable
define linkonce_odr dso_local void @_ZN6dealii12SmartPointerIN9libparest5Slave10Stationary14Discretization4BaseILi3EE17PerStepStatisticsEEC2Ev(%"class.dealii::SmartPointer.35"* %this) unnamed_addr #1 comdat align 2 !dbg !5540 {
entry:
  %this.addr = alloca %"class.dealii::SmartPointer.35"*, align 8
  store %"class.dealii::SmartPointer.35"* %this, %"class.dealii::SmartPointer.35"** %this.addr, align 8
  call void @llvm.dbg.declare(metadata %"class.dealii::SmartPointer.35"** %this.addr, metadata !5541, metadata !DIExpression()), !dbg !5543
  %this1 = load %"class.dealii::SmartPointer.35"*, %"class.dealii::SmartPointer.35"** %this.addr, align 8
  %t = getelementptr inbounds %"class.dealii::SmartPointer.35", %"class.dealii::SmartPointer.35"* %this1, i32 0, i32 0, !dbg !5544
  store %"class.libparest::Slave::Stationary::Discretization::Base<3>::PerStepStatistics"* null, %"class.libparest::Slave::Stationary::Discretization::Base<3>::PerStepStatistics"** %t, align 8, !dbg !5544
  %id = getelementptr inbounds %"class.dealii::SmartPointer.35", %"class.dealii::SmartPointer.35"* %this1, i32 0, i32 1, !dbg !5545
  store i8* null, i8** %id, align 8, !dbg !5545
  ret void, !dbg !5546
}

; Function Attrs: noinline nounwind uwtable
define linkonce_odr dso_local void @_ZN6dealii12SmartPointerIN9libparest5Slave10Stationary14Discretization4BaseILi3EEEED2Ev(%"class.dealii::SmartPointer.34"* %this) unnamed_addr #1 comdat align 2 personality i8* bitcast (i32 (...)* @__gxx_personality_v0 to i8*) !dbg !5547 {
entry:
  %this.addr = alloca %"class.dealii::SmartPointer.34"*, align 8
  store %"class.dealii::SmartPointer.34"* %this, %"class.dealii::SmartPointer.34"** %this.addr, align 8
  call void @llvm.dbg.declare(metadata %"class.dealii::SmartPointer.34"** %this.addr, metadata !5548, metadata !DIExpression()), !dbg !5549
  %this1 = load %"class.dealii::SmartPointer.34"*, %"class.dealii::SmartPointer.34"** %this.addr, align 8
  %t = getelementptr inbounds %"class.dealii::SmartPointer.34", %"class.dealii::SmartPointer.34"* %this1, i32 0, i32 0, !dbg !5550
  %0 = load %"class.libparest::Slave::Stationary::Discretization::Base"*, %"class.libparest::Slave::Stationary::Discretization::Base"** %t, align 8, !dbg !5550
  %cmp = icmp ne %"class.libparest::Slave::Stationary::Discretization::Base"* %0, null, !dbg !5553
  br i1 %cmp, label %if.then, label %if.end, !dbg !5554

if.then:                                          ; preds = %entry
  %t2 = getelementptr inbounds %"class.dealii::SmartPointer.34", %"class.dealii::SmartPointer.34"* %this1, i32 0, i32 0, !dbg !5555
  %1 = load %"class.libparest::Slave::Stationary::Discretization::Base"*, %"class.libparest::Slave::Stationary::Discretization::Base"** %t2, align 8, !dbg !5555
  %2 = bitcast %"class.libparest::Slave::Stationary::Discretization::Base"* %1 to %"class.dealii::Subscriptor"*, !dbg !5556
  %id = getelementptr inbounds %"class.dealii::SmartPointer.34", %"class.dealii::SmartPointer.34"* %this1, i32 0, i32 1, !dbg !5557
  %3 = load i8*, i8** %id, align 8, !dbg !5557
  invoke void @_ZNK6dealii11Subscriptor11unsubscribeEPKc(%"class.dealii::Subscriptor"* %2, i8* %3)
          to label %invoke.cont unwind label %terminate.lpad, !dbg !5556

invoke.cont:                                      ; preds = %if.then
  br label %if.end, !dbg !5555

if.end:                                           ; preds = %invoke.cont, %entry
  ret void, !dbg !5558

terminate.lpad:                                   ; preds = %if.then
  %4 = landingpad { i8*, i32 }
          catch i8* null, !dbg !5556
  %5 = extractvalue { i8*, i32 } %4, 0, !dbg !5556
  call void @__clang_call_terminate(i8* %5) #13, !dbg !5556
  unreachable, !dbg !5556
}

; Function Attrs: noinline nounwind uwtable
define linkonce_odr dso_local void @_ZN6dealii12SmartPointerIN9libparest9Parameter5Field16DiscretizedFieldILi3EEEED2Ev(%"class.dealii::SmartPointer.33"* %this) unnamed_addr #1 comdat align 2 personality i8* bitcast (i32 (...)* @__gxx_personality_v0 to i8*) !dbg !5559 {
entry:
  %this.addr = alloca %"class.dealii::SmartPointer.33"*, align 8
  store %"class.dealii::SmartPointer.33"* %this, %"class.dealii::SmartPointer.33"** %this.addr, align 8
  call void @llvm.dbg.declare(metadata %"class.dealii::SmartPointer.33"** %this.addr, metadata !5560, metadata !DIExpression()), !dbg !5561
  %this1 = load %"class.dealii::SmartPointer.33"*, %"class.dealii::SmartPointer.33"** %this.addr, align 8
  %t = getelementptr inbounds %"class.dealii::SmartPointer.33", %"class.dealii::SmartPointer.33"* %this1, i32 0, i32 0, !dbg !5562
  %0 = load %"class.libparest::Parameter::Field::DiscretizedField"*, %"class.libparest::Parameter::Field::DiscretizedField"** %t, align 8, !dbg !5562
  %cmp = icmp ne %"class.libparest::Parameter::Field::DiscretizedField"* %0, null, !dbg !5565
  br i1 %cmp, label %if.then, label %if.end, !dbg !5566

if.then:                                          ; preds = %entry
  %t2 = getelementptr inbounds %"class.dealii::SmartPointer.33", %"class.dealii::SmartPointer.33"* %this1, i32 0, i32 0, !dbg !5567
  %1 = load %"class.libparest::Parameter::Field::DiscretizedField"*, %"class.libparest::Parameter::Field::DiscretizedField"** %t2, align 8, !dbg !5567
  %2 = bitcast %"class.libparest::Parameter::Field::DiscretizedField"* %1 to i8**, !dbg !5568
  %vtable = load i8*, i8** %2, align 8, !dbg !5568
  %vbase.offset.ptr = getelementptr i8, i8* %vtable, i64 -24, !dbg !5568
  %3 = bitcast i8* %vbase.offset.ptr to i64*, !dbg !5568
  %vbase.offset = load i64, i64* %3, align 8, !dbg !5568
  %4 = bitcast %"class.libparest::Parameter::Field::DiscretizedField"* %1 to i8*, !dbg !5568
  %add.ptr = getelementptr inbounds i8, i8* %4, i64 %vbase.offset, !dbg !5568
  %5 = bitcast i8* %add.ptr to %"class.dealii::Subscriptor"*, !dbg !5568
  %id = getelementptr inbounds %"class.dealii::SmartPointer.33", %"class.dealii::SmartPointer.33"* %this1, i32 0, i32 1, !dbg !5569
  %6 = load i8*, i8** %id, align 8, !dbg !5569
  invoke void @_ZNK6dealii11Subscriptor11unsubscribeEPKc(%"class.dealii::Subscriptor"* %5, i8* %6)
          to label %invoke.cont unwind label %terminate.lpad, !dbg !5568

invoke.cont:                                      ; preds = %if.then
  br label %if.end, !dbg !5567

if.end:                                           ; preds = %invoke.cont, %entry
  ret void, !dbg !5570

terminate.lpad:                                   ; preds = %if.then
  %7 = landingpad { i8*, i32 }
          catch i8* null, !dbg !5568
  %8 = extractvalue { i8*, i32 } %7, 0, !dbg !5568
  call void @__clang_call_terminate(i8* %8) #13, !dbg !5568
  unreachable, !dbg !5568
}

; Function Attrs: nounwind
declare dso_local void @_ZN6dealii11BlockVectorIdED1Ev(%"class.dealii::BlockVector"*) unnamed_addr #3

; Function Attrs: noinline nounwind uwtable
define linkonce_odr dso_local void @_ZN6dealii6VectorIfED2Ev(%"class.dealii::Vector.32"* %this) unnamed_addr #1 comdat align 2 !dbg !5571 {
entry:
  %this.addr = alloca %"class.dealii::Vector.32"*, align 8
  store %"class.dealii::Vector.32"* %this, %"class.dealii::Vector.32"** %this.addr, align 8
  call void @llvm.dbg.declare(metadata %"class.dealii::Vector.32"** %this.addr, metadata !5572, metadata !DIExpression()), !dbg !5573
  %this1 = load %"class.dealii::Vector.32"*, %"class.dealii::Vector.32"** %this.addr, align 8
  %0 = bitcast %"class.dealii::Vector.32"* %this1 to i32 (...)***, !dbg !5574
  store i32 (...)** bitcast (i8** getelementptr inbounds ({ [6 x i8*] }, { [6 x i8*] }* @_ZTVN6dealii6VectorIfEE, i32 0, inrange i32 0, i32 2) to i32 (...)**), i32 (...)*** %0, align 8, !dbg !5574
  %val = getelementptr inbounds %"class.dealii::Vector.32", %"class.dealii::Vector.32"* %this1, i32 0, i32 3, !dbg !5575
  %1 = load float*, float** %val, align 8, !dbg !5575
  %tobool = icmp ne float* %1, null, !dbg !5575
  br i1 %tobool, label %if.then, label %if.end, !dbg !5578

if.then:                                          ; preds = %entry
  %val2 = getelementptr inbounds %"class.dealii::Vector.32", %"class.dealii::Vector.32"* %this1, i32 0, i32 3, !dbg !5579
  %2 = load float*, float** %val2, align 8, !dbg !5579
  %isnull = icmp eq float* %2, null, !dbg !5581
  br i1 %isnull, label %delete.end, label %delete.notnull, !dbg !5581

delete.notnull:                                   ; preds = %if.then
  %3 = bitcast float* %2 to i8*, !dbg !5581
  call void @_ZdaPv(i8* %3) #14, !dbg !5581
  br label %delete.end, !dbg !5581

delete.end:                                       ; preds = %delete.notnull, %if.then
  %val3 = getelementptr inbounds %"class.dealii::Vector.32", %"class.dealii::Vector.32"* %this1, i32 0, i32 3, !dbg !5582
  store float* null, float** %val3, align 8, !dbg !5583
  br label %if.end, !dbg !5584

if.end:                                           ; preds = %delete.end, %entry
  %4 = bitcast %"class.dealii::Vector.32"* %this1 to %"class.dealii::Subscriptor"*, !dbg !5585
  call void @_ZN6dealii11SubscriptorD2Ev(%"class.dealii::Subscriptor"* %4) #4, !dbg !5585
  ret void, !dbg !5586
}

; Function Attrs: noinline nounwind uwtable
define linkonce_odr dso_local void @_ZN9libparest5Slave4BaseD2Ev(%"class.libparest::Slave::Base"* %this) unnamed_addr #1 comdat align 2 !dbg !5587 {
entry:
  %this.addr = alloca %"class.libparest::Slave::Base"*, align 8
  store %"class.libparest::Slave::Base"* %this, %"class.libparest::Slave::Base"** %this.addr, align 8
  call void @llvm.dbg.declare(metadata %"class.libparest::Slave::Base"** %this.addr, metadata !5592, metadata !DIExpression()), !dbg !5594
  %this1 = load %"class.libparest::Slave::Base"*, %"class.libparest::Slave::Base"** %this.addr, align 8
  %0 = bitcast %"class.libparest::Slave::Base"* %this1 to i32 (...)***, !dbg !5595
  store i32 (...)** bitcast (i8** getelementptr inbounds ({ [23 x i8*] }, { [23 x i8*] }* @_ZTVN9libparest5Slave4BaseE, i32 0, inrange i32 0, i32 2) to i32 (...)**), i32 (...)*** %0, align 8, !dbg !5595
  %message_log = getelementptr inbounds %"class.libparest::Slave::Base", %"class.libparest::Slave::Base"* %this1, i32 0, i32 3, !dbg !5596
  call void @_ZN9libparest10MessageLog6ClientD1Ev(%"class.libparest::MessageLog::Client"* %message_log) #4, !dbg !5596
  %1 = bitcast %"class.libparest::Slave::Base"* %this1 to %"class.dealii::Subscriptor"*, !dbg !5596
  call void @_ZN6dealii11SubscriptorD2Ev(%"class.dealii::Subscriptor"* %1) #4, !dbg !5596
  ret void, !dbg !5595
}

; Function Attrs: noinline nounwind uwtable
define weak_odr dso_local void @_ZN9libparest5Slave10Stationary5SlaveILi3EdED2Ev(%"class.libparest::Slave::Stationary::Slave"* %this) unnamed_addr #1 comdat($_ZN9libparest5Slave10Stationary5SlaveILi3EdED5Ev) align 2 personality i8* bitcast (i32 (...)* @__gxx_personality_v0 to i8*) !dbg !5598 {
entry:
  %this.addr = alloca %"class.libparest::Slave::Stationary::Slave"*, align 8
  %exn.slot = alloca i8*
  %ehselector.slot = alloca i32
  store %"class.libparest::Slave::Stationary::Slave"* %this, %"class.libparest::Slave::Stationary::Slave"** %this.addr, align 8
  call void @llvm.dbg.declare(metadata %"class.libparest::Slave::Stationary::Slave"** %this.addr, metadata !5599, metadata !DIExpression()), !dbg !5600
  %this1 = load %"class.libparest::Slave::Stationary::Slave"*, %"class.libparest::Slave::Stationary::Slave"** %this.addr, align 8
  %0 = bitcast %"class.libparest::Slave::Stationary::Slave"* %this1 to i32 (...)***, !dbg !5601
  store i32 (...)** bitcast (i8** getelementptr inbounds ({ [26 x i8*] }, { [26 x i8*] }* @_ZTVN9libparest5Slave10Stationary5SlaveILi3EdEE, i32 0, inrange i32 0, i32 2) to i32 (...)**), i32 (...)*** %0, align 8, !dbg !5601
  %global_matrix = getelementptr inbounds %"class.libparest::Slave::Stationary::Slave", %"class.libparest::Slave::Stationary::Slave"* %this1, i32 0, i32 1, !dbg !5602
  invoke void @_ZN9libparest10delete_ptrINS_5Slave10Stationary12GlobalMatrix6MatrixIdEEEEvRPT_(%"class.libparest::Slave::Stationary::GlobalMatrix::Matrix"** dereferenceable(8) %global_matrix)
          to label %invoke.cont unwind label %lpad, !dbg !5604

invoke.cont:                                      ; preds = %entry
  %present_statistics = getelementptr inbounds %"class.libparest::Slave::Stationary::Slave", %"class.libparest::Slave::Stationary::Slave"* %this1, i32 0, i32 8, !dbg !5605
  call void @_ZN6dealii12SmartPointerIN9libparest5Slave10Stationary14Discretization4BaseILi3EE17PerStepStatisticsEED2Ev(%"class.dealii::SmartPointer.35"* %present_statistics) #4, !dbg !5605
  %state_discretization = getelementptr inbounds %"class.libparest::Slave::Stationary::Slave", %"class.libparest::Slave::Stationary::Slave"* %this1, i32 0, i32 7, !dbg !5605
  call void @_ZN6dealii12SmartPointerIN9libparest5Slave10Stationary14Discretization4BaseILi3EEEED2Ev(%"class.dealii::SmartPointer.34"* %state_discretization) #4, !dbg !5605
  %parameter_discretization = getelementptr inbounds %"class.libparest::Slave::Stationary::Slave", %"class.libparest::Slave::Stationary::Slave"* %this1, i32 0, i32 6, !dbg !5605
  call void @_ZN6dealii12SmartPointerIN9libparest9Parameter5Field16DiscretizedFieldILi3EEEED2Ev(%"class.dealii::SmartPointer.33"* %parameter_discretization) #4, !dbg !5605
  %right_hand_side = getelementptr inbounds %"class.libparest::Slave::Stationary::Slave", %"class.libparest::Slave::Stationary::Slave"* %this1, i32 0, i32 5, !dbg !5605
  call void @_ZN6dealii11BlockVectorIdED1Ev(%"class.dealii::BlockVector"* %right_hand_side) #4, !dbg !5605
  %cellwise_errors = getelementptr inbounds %"class.libparest::Slave::Stationary::Slave", %"class.libparest::Slave::Stationary::Slave"* %this1, i32 0, i32 4, !dbg !5605
  call void @_ZN6dealii6VectorIfED2Ev(%"class.dealii::Vector.32"* %cellwise_errors) #4, !dbg !5605
  %update = getelementptr inbounds %"class.libparest::Slave::Stationary::Slave", %"class.libparest::Slave::Stationary::Slave"* %this1, i32 0, i32 3, !dbg !5605
  call void @_ZN6dealii11BlockVectorIdED1Ev(%"class.dealii::BlockVector"* %update) #4, !dbg !5605
  %present_iterate = getelementptr inbounds %"class.libparest::Slave::Stationary::Slave", %"class.libparest::Slave::Stationary::Slave"* %this1, i32 0, i32 2, !dbg !5605
  call void @_ZN6dealii11BlockVectorIdED1Ev(%"class.dealii::BlockVector"* %present_iterate) #4, !dbg !5605
  %1 = bitcast %"class.libparest::Slave::Stationary::Slave"* %this1 to %"class.libparest::Slave::Base"*, !dbg !5605
  call void @_ZN9libparest5Slave4BaseD2Ev(%"class.libparest::Slave::Base"* %1) #4, !dbg !5605
  ret void, !dbg !5606

lpad:                                             ; preds = %entry
  %2 = landingpad { i8*, i32 }
          catch i8* null, !dbg !5605
  %3 = extractvalue { i8*, i32 } %2, 0, !dbg !5605
  store i8* %3, i8** %exn.slot, align 8, !dbg !5605
  %4 = extractvalue { i8*, i32 } %2, 1, !dbg !5605
  store i32 %4, i32* %ehselector.slot, align 4, !dbg !5605
  %present_statistics2 = getelementptr inbounds %"class.libparest::Slave::Stationary::Slave", %"class.libparest::Slave::Stationary::Slave"* %this1, i32 0, i32 8, !dbg !5605
  call void @_ZN6dealii12SmartPointerIN9libparest5Slave10Stationary14Discretization4BaseILi3EE17PerStepStatisticsEED2Ev(%"class.dealii::SmartPointer.35"* %present_statistics2) #4, !dbg !5605
  %state_discretization3 = getelementptr inbounds %"class.libparest::Slave::Stationary::Slave", %"class.libparest::Slave::Stationary::Slave"* %this1, i32 0, i32 7, !dbg !5605
  call void @_ZN6dealii12SmartPointerIN9libparest5Slave10Stationary14Discretization4BaseILi3EEEED2Ev(%"class.dealii::SmartPointer.34"* %state_discretization3) #4, !dbg !5605
  %parameter_discretization4 = getelementptr inbounds %"class.libparest::Slave::Stationary::Slave", %"class.libparest::Slave::Stationary::Slave"* %this1, i32 0, i32 6, !dbg !5605
  call void @_ZN6dealii12SmartPointerIN9libparest9Parameter5Field16DiscretizedFieldILi3EEEED2Ev(%"class.dealii::SmartPointer.33"* %parameter_discretization4) #4, !dbg !5605
  %right_hand_side5 = getelementptr inbounds %"class.libparest::Slave::Stationary::Slave", %"class.libparest::Slave::Stationary::Slave"* %this1, i32 0, i32 5, !dbg !5605
  call void @_ZN6dealii11BlockVectorIdED1Ev(%"class.dealii::BlockVector"* %right_hand_side5) #4, !dbg !5605
  %cellwise_errors6 = getelementptr inbounds %"class.libparest::Slave::Stationary::Slave", %"class.libparest::Slave::Stationary::Slave"* %this1, i32 0, i32 4, !dbg !5605
  call void @_ZN6dealii6VectorIfED2Ev(%"class.dealii::Vector.32"* %cellwise_errors6) #4, !dbg !5605
  %update7 = getelementptr inbounds %"class.libparest::Slave::Stationary::Slave", %"class.libparest::Slave::Stationary::Slave"* %this1, i32 0, i32 3, !dbg !5605
  call void @_ZN6dealii11BlockVectorIdED1Ev(%"class.dealii::BlockVector"* %update7) #4, !dbg !5605
  %present_iterate8 = getelementptr inbounds %"class.libparest::Slave::Stationary::Slave", %"class.libparest::Slave::Stationary::Slave"* %this1, i32 0, i32 2, !dbg !5605
  call void @_ZN6dealii11BlockVectorIdED1Ev(%"class.dealii::BlockVector"* %present_iterate8) #4, !dbg !5605
  %5 = bitcast %"class.libparest::Slave::Stationary::Slave"* %this1 to %"class.libparest::Slave::Base"*, !dbg !5605
  call void @_ZN9libparest5Slave4BaseD2Ev(%"class.libparest::Slave::Base"* %5) #4, !dbg !5605
  br label %terminate.handler, !dbg !5605

terminate.handler:                                ; preds = %lpad
  %exn = load i8*, i8** %exn.slot, align 8, !dbg !5605
  call void @__clang_call_terminate(i8* %exn) #13, !dbg !5605
  unreachable, !dbg !5605
}

; Function Attrs: noinline nounwind uwtable
define linkonce_odr dso_local void @_ZN9libparest10delete_ptrINS_5Slave10Stationary12GlobalMatrix6MatrixIdEEEEvRPT_(%"class.libparest::Slave::Stationary::GlobalMatrix::Matrix"** dereferenceable(8) %p) #1 comdat !dbg !5607 {
entry:
  %p.addr = alloca %"class.libparest::Slave::Stationary::GlobalMatrix::Matrix"**, align 8
  store %"class.libparest::Slave::Stationary::GlobalMatrix::Matrix"** %p, %"class.libparest::Slave::Stationary::GlobalMatrix::Matrix"*** %p.addr, align 8
  call void @llvm.dbg.declare(metadata %"class.libparest::Slave::Stationary::GlobalMatrix::Matrix"*** %p.addr, metadata !5613, metadata !DIExpression()), !dbg !5614
  %0 = load %"class.libparest::Slave::Stationary::GlobalMatrix::Matrix"**, %"class.libparest::Slave::Stationary::GlobalMatrix::Matrix"*** %p.addr, align 8, !dbg !5615
  %1 = load %"class.libparest::Slave::Stationary::GlobalMatrix::Matrix"*, %"class.libparest::Slave::Stationary::GlobalMatrix::Matrix"** %0, align 8, !dbg !5615
  %cmp = icmp ne %"class.libparest::Slave::Stationary::GlobalMatrix::Matrix"* %1, null, !dbg !5617
  br i1 %cmp, label %if.then, label %if.end, !dbg !5618

if.then:                                          ; preds = %entry
  %2 = load %"class.libparest::Slave::Stationary::GlobalMatrix::Matrix"**, %"class.libparest::Slave::Stationary::GlobalMatrix::Matrix"*** %p.addr, align 8, !dbg !5619
  %3 = load %"class.libparest::Slave::Stationary::GlobalMatrix::Matrix"*, %"class.libparest::Slave::Stationary::GlobalMatrix::Matrix"** %2, align 8, !dbg !5619
  %isnull = icmp eq %"class.libparest::Slave::Stationary::GlobalMatrix::Matrix"* %3, null, !dbg !5621
  br i1 %isnull, label %delete.end, label %delete.notnull, !dbg !5621

delete.notnull:                                   ; preds = %if.then
  %4 = bitcast %"class.libparest::Slave::Stationary::GlobalMatrix::Matrix"* %3 to void (%"class.libparest::Slave::Stationary::GlobalMatrix::Matrix"*)***, !dbg !5621
  %vtable = load void (%"class.libparest::Slave::Stationary::GlobalMatrix::Matrix"*)**, void (%"class.libparest::Slave::Stationary::GlobalMatrix::Matrix"*)*** %4, align 8, !dbg !5621
  %vfn = getelementptr inbounds void (%"class.libparest::Slave::Stationary::GlobalMatrix::Matrix"*)*, void (%"class.libparest::Slave::Stationary::GlobalMatrix::Matrix"*)** %vtable, i64 1, !dbg !5621
  %5 = load void (%"class.libparest::Slave::Stationary::GlobalMatrix::Matrix"*)*, void (%"class.libparest::Slave::Stationary::GlobalMatrix::Matrix"*)** %vfn, align 8, !dbg !5621
  call void %5(%"class.libparest::Slave::Stationary::GlobalMatrix::Matrix"* %3) #4, !dbg !5621
  br label %delete.end, !dbg !5621

delete.end:                                       ; preds = %delete.notnull, %if.then
  %6 = load %"class.libparest::Slave::Stationary::GlobalMatrix::Matrix"**, %"class.libparest::Slave::Stationary::GlobalMatrix::Matrix"*** %p.addr, align 8, !dbg !5622
  store %"class.libparest::Slave::Stationary::GlobalMatrix::Matrix"* null, %"class.libparest::Slave::Stationary::GlobalMatrix::Matrix"** %6, align 8, !dbg !5623
  br label %if.end, !dbg !5624

if.end:                                           ; preds = %delete.end, %entry
  ret void, !dbg !5625
}

; Function Attrs: noinline nounwind uwtable
define linkonce_odr dso_local void @_ZN6dealii12SmartPointerIN9libparest5Slave10Stationary14Discretization4BaseILi3EE17PerStepStatisticsEED2Ev(%"class.dealii::SmartPointer.35"* %this) unnamed_addr #1 comdat align 2 personality i8* bitcast (i32 (...)* @__gxx_personality_v0 to i8*) !dbg !5626 {
entry:
  %this.addr = alloca %"class.dealii::SmartPointer.35"*, align 8
  store %"class.dealii::SmartPointer.35"* %this, %"class.dealii::SmartPointer.35"** %this.addr, align 8
  call void @llvm.dbg.declare(metadata %"class.dealii::SmartPointer.35"** %this.addr, metadata !5627, metadata !DIExpression()), !dbg !5628
  %this1 = load %"class.dealii::SmartPointer.35"*, %"class.dealii::SmartPointer.35"** %this.addr, align 8
  %t = getelementptr inbounds %"class.dealii::SmartPointer.35", %"class.dealii::SmartPointer.35"* %this1, i32 0, i32 0, !dbg !5629
  %0 = load %"class.libparest::Slave::Stationary::Discretization::Base<3>::PerStepStatistics"*, %"class.libparest::Slave::Stationary::Discretization::Base<3>::PerStepStatistics"** %t, align 8, !dbg !5629
  %cmp = icmp ne %"class.libparest::Slave::Stationary::Discretization::Base<3>::PerStepStatistics"* %0, null, !dbg !5632
  br i1 %cmp, label %if.then, label %if.end, !dbg !5633

if.then:                                          ; preds = %entry
  %t2 = getelementptr inbounds %"class.dealii::SmartPointer.35", %"class.dealii::SmartPointer.35"* %this1, i32 0, i32 0, !dbg !5634
  %1 = load %"class.libparest::Slave::Stationary::Discretization::Base<3>::PerStepStatistics"*, %"class.libparest::Slave::Stationary::Discretization::Base<3>::PerStepStatistics"** %t2, align 8, !dbg !5634
  %2 = bitcast %"class.libparest::Slave::Stationary::Discretization::Base<3>::PerStepStatistics"* %1 to %"class.dealii::Subscriptor"*, !dbg !5635
  %id = getelementptr inbounds %"class.dealii::SmartPointer.35", %"class.dealii::SmartPointer.35"* %this1, i32 0, i32 1, !dbg !5636
  %3 = load i8*, i8** %id, align 8, !dbg !5636
  invoke void @_ZNK6dealii11Subscriptor11unsubscribeEPKc(%"class.dealii::Subscriptor"* %2, i8* %3)
          to label %invoke.cont unwind label %terminate.lpad, !dbg !5635

invoke.cont:                                      ; preds = %if.then
  br label %if.end, !dbg !5634

if.end:                                           ; preds = %invoke.cont, %entry
  ret void, !dbg !5637

terminate.lpad:                                   ; preds = %if.then
  %4 = landingpad { i8*, i32 }
          catch i8* null, !dbg !5635
  %5 = extractvalue { i8*, i32 } %4, 0, !dbg !5635
  call void @__clang_call_terminate(i8* %5) #13, !dbg !5635
  unreachable, !dbg !5635
}

; Function Attrs: noinline noreturn nounwind
define linkonce_odr hidden void @__clang_call_terminate(i8* %0) #6 comdat {
  %2 = call i8* @__cxa_begin_catch(i8* %0) #4
  call void @_ZSt9terminatev() #13
  unreachable
}

declare dso_local i8* @__cxa_begin_catch(i8*)

declare dso_local void @_ZSt9terminatev()

; Function Attrs: noinline nounwind uwtable
define weak_odr dso_local void @_ZN9libparest5Slave10Stationary5SlaveILi3EdED0Ev(%"class.libparest::Slave::Stationary::Slave"* %this) unnamed_addr #1 comdat($_ZN9libparest5Slave10Stationary5SlaveILi3EdED5Ev) align 2 !dbg !5638 {
entry:
  %this.addr = alloca %"class.libparest::Slave::Stationary::Slave"*, align 8
  store %"class.libparest::Slave::Stationary::Slave"* %this, %"class.libparest::Slave::Stationary::Slave"** %this.addr, align 8
  call void @llvm.dbg.declare(metadata %"class.libparest::Slave::Stationary::Slave"** %this.addr, metadata !5639, metadata !DIExpression()), !dbg !5640
  %this1 = load %"class.libparest::Slave::Stationary::Slave"*, %"class.libparest::Slave::Stationary::Slave"** %this.addr, align 8
  call void @llvm.trap() #13, !dbg !5641
  unreachable, !dbg !5641
}

; Function Attrs: cold noreturn nounwind
declare void @llvm.trap() #7

; Function Attrs: noinline uwtable
define weak_odr dso_local void @_ZN9libparest5Slave10Stationary5SlaveILi3EdE28initialize_gauss_newton_stepEj(%"class.libparest::Slave::Stationary::Slave"* %this, i32 %step_no) unnamed_addr #0 comdat align 2 personality i8* bitcast (i32 (...)* @__gxx_personality_v0 to i8*) !dbg !5642 {
entry:
  %this.addr = alloca %"class.libparest::Slave::Stationary::Slave"*, align 8
  %step_no.addr = alloca i32, align 4
  %ref.tmp = alloca %"class.std::__cxx11::basic_string", align 8
  %ref.tmp2 = alloca %"class.std::allocator.19", align 1
  %exn.slot = alloca i8*
  %ehselector.slot = alloca i32
  %ref.tmp5 = alloca %"class.std::__cxx11::basic_string", align 8
  %ref.tmp6 = alloca %"class.std::allocator.19", align 1
  store %"class.libparest::Slave::Stationary::Slave"* %this, %"class.libparest::Slave::Stationary::Slave"** %this.addr, align 8
  call void @llvm.dbg.declare(metadata %"class.libparest::Slave::Stationary::Slave"** %this.addr, metadata !5643, metadata !DIExpression()), !dbg !5644
  store i32 %step_no, i32* %step_no.addr, align 4
  call void @llvm.dbg.declare(metadata i32* %step_no.addr, metadata !5645, metadata !DIExpression()), !dbg !5646
  %this1 = load %"class.libparest::Slave::Stationary::Slave"*, %"class.libparest::Slave::Stationary::Slave"** %this.addr, align 8
  %0 = bitcast %"class.libparest::Slave::Stationary::Slave"* %this1 to %"class.libparest::Slave::Base"*, !dbg !5647
  call void @_ZNSaIcEC1Ev(%"class.std::allocator.19"* %ref.tmp2) #4, !dbg !5648
  invoke void @_ZNSt7__cxx1112basic_stringIcSt11char_traitsIcESaIcEEC1EPKcRKS3_(%"class.std::__cxx11::basic_string"* %ref.tmp, i8* getelementptr inbounds ([8 x i8], [8 x i8]* @.str, i64 0, i64 0), %"class.std::allocator.19"* dereferenceable(1) %ref.tmp2)
          to label %invoke.cont unwind label %lpad, !dbg !5648

invoke.cont:                                      ; preds = %entry
  invoke void @_ZNK9libparest5Slave4Base20write_program_statusERKNSt7__cxx1112basic_stringIcSt11char_traitsIcESaIcEEEb(%"class.libparest::Slave::Base"* %0, %"class.std::__cxx11::basic_string"* dereferenceable(32) %ref.tmp, i1 zeroext true)
          to label %invoke.cont4 unwind label %lpad3, !dbg !5647

invoke.cont4:                                     ; preds = %invoke.cont
  call void @_ZNSt7__cxx1112basic_stringIcSt11char_traitsIcESaIcEED1Ev(%"class.std::__cxx11::basic_string"* %ref.tmp) #4, !dbg !5647
  call void @_ZNSaIcED1Ev(%"class.std::allocator.19"* %ref.tmp2) #4, !dbg !5647
  %1 = bitcast %"class.libparest::Slave::Stationary::Slave"* %this1 to %"class.libparest::Slave::Base"*, !dbg !5649
  %2 = load i32, i32* %step_no.addr, align 4, !dbg !5650
  call void @_ZN9libparest5Slave4Base28initialize_gauss_newton_stepEj(%"class.libparest::Slave::Base"* %1, i32 %2), !dbg !5649
  %3 = bitcast %"class.libparest::Slave::Stationary::Slave"* %this1 to void (%"class.libparest::Slave::Stationary::Slave"*)***, !dbg !5651
  %vtable = load void (%"class.libparest::Slave::Stationary::Slave"*)**, void (%"class.libparest::Slave::Stationary::Slave"*)*** %3, align 8, !dbg !5651
  %vfn = getelementptr inbounds void (%"class.libparest::Slave::Stationary::Slave"*)*, void (%"class.libparest::Slave::Stationary::Slave"*)** %vtable, i64 22, !dbg !5651
  %4 = load void (%"class.libparest::Slave::Stationary::Slave"*)*, void (%"class.libparest::Slave::Stationary::Slave"*)** %vfn, align 8, !dbg !5651
  call void %4(%"class.libparest::Slave::Stationary::Slave"* %this1), !dbg !5651
  %5 = bitcast %"class.libparest::Slave::Stationary::Slave"* %this1 to %"class.libparest::Slave::Base"*, !dbg !5652
  call void @_ZNSaIcEC1Ev(%"class.std::allocator.19"* %ref.tmp6) #4, !dbg !5653
  invoke void @_ZNSt7__cxx1112basic_stringIcSt11char_traitsIcESaIcEEC1EPKcRKS3_(%"class.std::__cxx11::basic_string"* %ref.tmp5, i8* getelementptr inbounds ([8 x i8], [8 x i8]* @.str, i64 0, i64 0), %"class.std::allocator.19"* dereferenceable(1) %ref.tmp6)
          to label %invoke.cont8 unwind label %lpad7, !dbg !5653

invoke.cont8:                                     ; preds = %invoke.cont4
  invoke void @_ZNK9libparest5Slave4Base20write_program_statusERKNSt7__cxx1112basic_stringIcSt11char_traitsIcESaIcEEEb(%"class.libparest::Slave::Base"* %5, %"class.std::__cxx11::basic_string"* dereferenceable(32) %ref.tmp5, i1 zeroext false)
          to label %invoke.cont10 unwind label %lpad9, !dbg !5652

invoke.cont10:                                    ; preds = %invoke.cont8
  call void @_ZNSt7__cxx1112basic_stringIcSt11char_traitsIcESaIcEED1Ev(%"class.std::__cxx11::basic_string"* %ref.tmp5) #4, !dbg !5652
  call void @_ZNSaIcED1Ev(%"class.std::allocator.19"* %ref.tmp6) #4, !dbg !5652
  ret void, !dbg !5654

lpad:                                             ; preds = %entry
  %6 = landingpad { i8*, i32 }
          cleanup, !dbg !5654
  %7 = extractvalue { i8*, i32 } %6, 0, !dbg !5654
  store i8* %7, i8** %exn.slot, align 8, !dbg !5654
  %8 = extractvalue { i8*, i32 } %6, 1, !dbg !5654
  store i32 %8, i32* %ehselector.slot, align 4, !dbg !5654
  br label %ehcleanup, !dbg !5654

lpad3:                                            ; preds = %invoke.cont
  %9 = landingpad { i8*, i32 }
          cleanup, !dbg !5654
  %10 = extractvalue { i8*, i32 } %9, 0, !dbg !5654
  store i8* %10, i8** %exn.slot, align 8, !dbg !5654
  %11 = extractvalue { i8*, i32 } %9, 1, !dbg !5654
  store i32 %11, i32* %ehselector.slot, align 4, !dbg !5654
  call void @_ZNSt7__cxx1112basic_stringIcSt11char_traitsIcESaIcEED1Ev(%"class.std::__cxx11::basic_string"* %ref.tmp) #4, !dbg !5647
  br label %ehcleanup, !dbg !5647

ehcleanup:                                        ; preds = %lpad3, %lpad
  call void @_ZNSaIcED1Ev(%"class.std::allocator.19"* %ref.tmp2) #4, !dbg !5647
  br label %eh.resume, !dbg !5647

lpad7:                                            ; preds = %invoke.cont4
  %12 = landingpad { i8*, i32 }
          cleanup, !dbg !5654
  %13 = extractvalue { i8*, i32 } %12, 0, !dbg !5654
  store i8* %13, i8** %exn.slot, align 8, !dbg !5654
  %14 = extractvalue { i8*, i32 } %12, 1, !dbg !5654
  store i32 %14, i32* %ehselector.slot, align 4, !dbg !5654
  br label %ehcleanup12, !dbg !5654

lpad9:                                            ; preds = %invoke.cont8
  %15 = landingpad { i8*, i32 }
          cleanup, !dbg !5654
  %16 = extractvalue { i8*, i32 } %15, 0, !dbg !5654
  store i8* %16, i8** %exn.slot, align 8, !dbg !5654
  %17 = extractvalue { i8*, i32 } %15, 1, !dbg !5654
  store i32 %17, i32* %ehselector.slot, align 4, !dbg !5654
  call void @_ZNSt7__cxx1112basic_stringIcSt11char_traitsIcESaIcEED1Ev(%"class.std::__cxx11::basic_string"* %ref.tmp5) #4, !dbg !5652
  br label %ehcleanup12, !dbg !5652

ehcleanup12:                                      ; preds = %lpad9, %lpad7
  call void @_ZNSaIcED1Ev(%"class.std::allocator.19"* %ref.tmp6) #4, !dbg !5652
  br label %eh.resume, !dbg !5652

eh.resume:                                        ; preds = %ehcleanup12, %ehcleanup
  %exn = load i8*, i8** %exn.slot, align 8, !dbg !5647
  %sel = load i32, i32* %ehselector.slot, align 4, !dbg !5647
  %lpad.val = insertvalue { i8*, i32 } undef, i8* %exn, 0, !dbg !5647
  %lpad.val13 = insertvalue { i8*, i32 } %lpad.val, i32 %sel, 1, !dbg !5647
  resume { i8*, i32 } %lpad.val13, !dbg !5647
}

declare dso_local void @_ZNK9libparest5Slave4Base20write_program_statusERKNSt7__cxx1112basic_stringIcSt11char_traitsIcESaIcEEEb(%"class.libparest::Slave::Base"*, %"class.std::__cxx11::basic_string"* dereferenceable(32), i1 zeroext) #2

; Function Attrs: nounwind
declare dso_local void @_ZNSaIcEC1Ev(%"class.std::allocator.19"*) unnamed_addr #3

declare dso_local void @_ZNSt7__cxx1112basic_stringIcSt11char_traitsIcESaIcEEC1EPKcRKS3_(%"class.std::__cxx11::basic_string"*, i8*, %"class.std::allocator.19"* dereferenceable(1)) unnamed_addr #2

; Function Attrs: nounwind
declare dso_local void @_ZNSt7__cxx1112basic_stringIcSt11char_traitsIcESaIcEED1Ev(%"class.std::__cxx11::basic_string"*) unnamed_addr #3

; Function Attrs: nounwind
declare dso_local void @_ZNSaIcED1Ev(%"class.std::allocator.19"*) unnamed_addr #3

declare dso_local void @_ZN9libparest5Slave4Base28initialize_gauss_newton_stepEj(%"class.libparest::Slave::Base"*, i32) unnamed_addr #2

; Function Attrs: noinline uwtable
define weak_odr dso_local void @_ZN9libparest5Slave10Stationary5SlaveILi3EdE21end_gauss_newton_stepEv(%"class.libparest::Slave::Stationary::Slave"* %this) unnamed_addr #0 comdat align 2 !dbg !5655 {
entry:
  %this.addr = alloca %"class.libparest::Slave::Stationary::Slave"*, align 8
  store %"class.libparest::Slave::Stationary::Slave"* %this, %"class.libparest::Slave::Stationary::Slave"** %this.addr, align 8
  call void @llvm.dbg.declare(metadata %"class.libparest::Slave::Stationary::Slave"** %this.addr, metadata !5656, metadata !DIExpression()), !dbg !5657
  %this1 = load %"class.libparest::Slave::Stationary::Slave"*, %"class.libparest::Slave::Stationary::Slave"** %this.addr, align 8
  %state_discretization = getelementptr inbounds %"class.libparest::Slave::Stationary::Slave", %"class.libparest::Slave::Stationary::Slave"* %this1, i32 0, i32 7, !dbg !5658
  %call = call %"class.libparest::Slave::Stationary::Discretization::Base"* @_ZNK6dealii12SmartPointerIN9libparest5Slave10Stationary14Discretization4BaseILi3EEEEptEv(%"class.dealii::SmartPointer.34"* %state_discretization), !dbg !5658
  %present_statistics = getelementptr inbounds %"class.libparest::Slave::Stationary::Slave", %"class.libparest::Slave::Stationary::Slave"* %this1, i32 0, i32 8, !dbg !5659
  %call2 = call dereferenceable(88) %"class.libparest::Slave::Stationary::Discretization::Base<3>::PerStepStatistics"* @_ZNK6dealii12SmartPointerIN9libparest5Slave10Stationary14Discretization4BaseILi3EE17PerStepStatisticsEEdeEv(%"class.dealii::SmartPointer.35"* %present_statistics), !dbg !5660
  call void @_ZNK9libparest5Slave10Stationary14Discretization4BaseILi3EE15fill_statisticsERNS4_17PerStepStatisticsE(%"class.libparest::Slave::Stationary::Discretization::Base"* %call, %"class.libparest::Slave::Stationary::Discretization::Base<3>::PerStepStatistics"* dereferenceable(88) %call2), !dbg !5661
  %global_matrix = getelementptr inbounds %"class.libparest::Slave::Stationary::Slave", %"class.libparest::Slave::Stationary::Slave"* %this1, i32 0, i32 1, !dbg !5662
  %0 = load %"class.libparest::Slave::Stationary::GlobalMatrix::Matrix"*, %"class.libparest::Slave::Stationary::GlobalMatrix::Matrix"** %global_matrix, align 8, !dbg !5662
  call void @_ZN9libparest5Slave10Stationary12GlobalMatrix6MatrixIdE5clearEv(%"class.libparest::Slave::Stationary::GlobalMatrix::Matrix"* %0), !dbg !5663
  %right_hand_side = getelementptr inbounds %"class.libparest::Slave::Stationary::Slave", %"class.libparest::Slave::Stationary::Slave"* %this1, i32 0, i32 5, !dbg !5664
  call void @_ZN6dealii11BlockVectorIdE6reinitEjjb(%"class.dealii::BlockVector"* %right_hand_side, i32 0, i32 0, i1 zeroext false), !dbg !5665
  %update = getelementptr inbounds %"class.libparest::Slave::Stationary::Slave", %"class.libparest::Slave::Stationary::Slave"* %this1, i32 0, i32 3, !dbg !5666
  call void @_ZN6dealii11BlockVectorIdE6reinitEjjb(%"class.dealii::BlockVector"* %update, i32 0, i32 0, i1 zeroext false), !dbg !5667
  %present_statistics3 = getelementptr inbounds %"class.libparest::Slave::Stationary::Slave", %"class.libparest::Slave::Stationary::Slave"* %this1, i32 0, i32 8, !dbg !5668
  %call4 = call dereferenceable(16) %"class.dealii::SmartPointer.35"* @_ZN6dealii12SmartPointerIN9libparest5Slave10Stationary14Discretization4BaseILi3EE17PerStepStatisticsEEaSEPS7_(%"class.dealii::SmartPointer.35"* %present_statistics3, %"class.libparest::Slave::Stationary::Discretization::Base<3>::PerStepStatistics"* null), !dbg !5669
  ret void, !dbg !5670
}

; Function Attrs: noinline nounwind uwtable
define linkonce_odr dso_local %"class.libparest::Slave::Stationary::Discretization::Base"* @_ZNK6dealii12SmartPointerIN9libparest5Slave10Stationary14Discretization4BaseILi3EEEEptEv(%"class.dealii::SmartPointer.34"* %this) #1 comdat align 2 !dbg !5671 {
entry:
  %this.addr = alloca %"class.dealii::SmartPointer.34"*, align 8
  store %"class.dealii::SmartPointer.34"* %this, %"class.dealii::SmartPointer.34"** %this.addr, align 8
  call void @llvm.dbg.declare(metadata %"class.dealii::SmartPointer.34"** %this.addr, metadata !5672, metadata !DIExpression()), !dbg !5674
  %this1 = load %"class.dealii::SmartPointer.34"*, %"class.dealii::SmartPointer.34"** %this.addr, align 8
  %t = getelementptr inbounds %"class.dealii::SmartPointer.34", %"class.dealii::SmartPointer.34"* %this1, i32 0, i32 0, !dbg !5675
  %0 = load %"class.libparest::Slave::Stationary::Discretization::Base"*, %"class.libparest::Slave::Stationary::Discretization::Base"** %t, align 8, !dbg !5675
  ret %"class.libparest::Slave::Stationary::Discretization::Base"* %0, !dbg !5676
}

declare dso_local void @_ZNK9libparest5Slave10Stationary14Discretization4BaseILi3EE15fill_statisticsERNS4_17PerStepStatisticsE(%"class.libparest::Slave::Stationary::Discretization::Base"*, %"class.libparest::Slave::Stationary::Discretization::Base<3>::PerStepStatistics"* dereferenceable(88)) #2

; Function Attrs: noinline nounwind uwtable
define linkonce_odr dso_local dereferenceable(88) %"class.libparest::Slave::Stationary::Discretization::Base<3>::PerStepStatistics"* @_ZNK6dealii12SmartPointerIN9libparest5Slave10Stationary14Discretization4BaseILi3EE17PerStepStatisticsEEdeEv(%"class.dealii::SmartPointer.35"* %this) #1 comdat align 2 !dbg !5677 {
entry:
  %this.addr = alloca %"class.dealii::SmartPointer.35"*, align 8
  store %"class.dealii::SmartPointer.35"* %this, %"class.dealii::SmartPointer.35"** %this.addr, align 8
  call void @llvm.dbg.declare(metadata %"class.dealii::SmartPointer.35"** %this.addr, metadata !5678, metadata !DIExpression()), !dbg !5680
  %this1 = load %"class.dealii::SmartPointer.35"*, %"class.dealii::SmartPointer.35"** %this.addr, align 8
  %t = getelementptr inbounds %"class.dealii::SmartPointer.35", %"class.dealii::SmartPointer.35"* %this1, i32 0, i32 0, !dbg !5681
  %0 = load %"class.libparest::Slave::Stationary::Discretization::Base<3>::PerStepStatistics"*, %"class.libparest::Slave::Stationary::Discretization::Base<3>::PerStepStatistics"** %t, align 8, !dbg !5681
  ret %"class.libparest::Slave::Stationary::Discretization::Base<3>::PerStepStatistics"* %0, !dbg !5682
}

declare dso_local void @_ZN9libparest5Slave10Stationary12GlobalMatrix6MatrixIdE5clearEv(%"class.libparest::Slave::Stationary::GlobalMatrix::Matrix"*) #2

declare dso_local void @_ZN6dealii11BlockVectorIdE6reinitEjjb(%"class.dealii::BlockVector"*, i32, i32, i1 zeroext) #2

; Function Attrs: noinline uwtable
define linkonce_odr dso_local dereferenceable(16) %"class.dealii::SmartPointer.35"* @_ZN6dealii12SmartPointerIN9libparest5Slave10Stationary14Discretization4BaseILi3EE17PerStepStatisticsEEaSEPS7_(%"class.dealii::SmartPointer.35"* %this, %"class.libparest::Slave::Stationary::Discretization::Base<3>::PerStepStatistics"* %tt) #0 comdat align 2 !dbg !5683 {
entry:
  %retval = alloca %"class.dealii::SmartPointer.35"*, align 8
  %this.addr = alloca %"class.dealii::SmartPointer.35"*, align 8
  %tt.addr = alloca %"class.libparest::Slave::Stationary::Discretization::Base<3>::PerStepStatistics"*, align 8
  store %"class.dealii::SmartPointer.35"* %this, %"class.dealii::SmartPointer.35"** %this.addr, align 8
  call void @llvm.dbg.declare(metadata %"class.dealii::SmartPointer.35"** %this.addr, metadata !5684, metadata !DIExpression()), !dbg !5685
  store %"class.libparest::Slave::Stationary::Discretization::Base<3>::PerStepStatistics"* %tt, %"class.libparest::Slave::Stationary::Discretization::Base<3>::PerStepStatistics"** %tt.addr, align 8
  call void @llvm.dbg.declare(metadata %"class.libparest::Slave::Stationary::Discretization::Base<3>::PerStepStatistics"** %tt.addr, metadata !5686, metadata !DIExpression()), !dbg !5687
  %this1 = load %"class.dealii::SmartPointer.35"*, %"class.dealii::SmartPointer.35"** %this.addr, align 8
  %t = getelementptr inbounds %"class.dealii::SmartPointer.35", %"class.dealii::SmartPointer.35"* %this1, i32 0, i32 0, !dbg !5688
  %0 = load %"class.libparest::Slave::Stationary::Discretization::Base<3>::PerStepStatistics"*, %"class.libparest::Slave::Stationary::Discretization::Base<3>::PerStepStatistics"** %t, align 8, !dbg !5688
  %1 = load %"class.libparest::Slave::Stationary::Discretization::Base<3>::PerStepStatistics"*, %"class.libparest::Slave::Stationary::Discretization::Base<3>::PerStepStatistics"** %tt.addr, align 8, !dbg !5690
  %cmp = icmp eq %"class.libparest::Slave::Stationary::Discretization::Base<3>::PerStepStatistics"* %0, %1, !dbg !5691
  br i1 %cmp, label %if.then, label %if.end, !dbg !5692

if.then:                                          ; preds = %entry
  store %"class.dealii::SmartPointer.35"* %this1, %"class.dealii::SmartPointer.35"** %retval, align 8, !dbg !5693
  br label %return, !dbg !5693

if.end:                                           ; preds = %entry
  %t2 = getelementptr inbounds %"class.dealii::SmartPointer.35", %"class.dealii::SmartPointer.35"* %this1, i32 0, i32 0, !dbg !5694
  %2 = load %"class.libparest::Slave::Stationary::Discretization::Base<3>::PerStepStatistics"*, %"class.libparest::Slave::Stationary::Discretization::Base<3>::PerStepStatistics"** %t2, align 8, !dbg !5694
  %cmp3 = icmp ne %"class.libparest::Slave::Stationary::Discretization::Base<3>::PerStepStatistics"* %2, null, !dbg !5696
  br i1 %cmp3, label %if.then4, label %if.end6, !dbg !5697

if.then4:                                         ; preds = %if.end
  %t5 = getelementptr inbounds %"class.dealii::SmartPointer.35", %"class.dealii::SmartPointer.35"* %this1, i32 0, i32 0, !dbg !5698
  %3 = load %"class.libparest::Slave::Stationary::Discretization::Base<3>::PerStepStatistics"*, %"class.libparest::Slave::Stationary::Discretization::Base<3>::PerStepStatistics"** %t5, align 8, !dbg !5698
  %4 = bitcast %"class.libparest::Slave::Stationary::Discretization::Base<3>::PerStepStatistics"* %3 to %"class.dealii::Subscriptor"*, !dbg !5699
  %id = getelementptr inbounds %"class.dealii::SmartPointer.35", %"class.dealii::SmartPointer.35"* %this1, i32 0, i32 1, !dbg !5700
  %5 = load i8*, i8** %id, align 8, !dbg !5700
  call void @_ZNK6dealii11Subscriptor11unsubscribeEPKc(%"class.dealii::Subscriptor"* %4, i8* %5), !dbg !5699
  br label %if.end6, !dbg !5698

if.end6:                                          ; preds = %if.then4, %if.end
  %6 = load %"class.libparest::Slave::Stationary::Discretization::Base<3>::PerStepStatistics"*, %"class.libparest::Slave::Stationary::Discretization::Base<3>::PerStepStatistics"** %tt.addr, align 8, !dbg !5701
  %t7 = getelementptr inbounds %"class.dealii::SmartPointer.35", %"class.dealii::SmartPointer.35"* %this1, i32 0, i32 0, !dbg !5702
  store %"class.libparest::Slave::Stationary::Discretization::Base<3>::PerStepStatistics"* %6, %"class.libparest::Slave::Stationary::Discretization::Base<3>::PerStepStatistics"** %t7, align 8, !dbg !5703
  %7 = load %"class.libparest::Slave::Stationary::Discretization::Base<3>::PerStepStatistics"*, %"class.libparest::Slave::Stationary::Discretization::Base<3>::PerStepStatistics"** %tt.addr, align 8, !dbg !5704
  %cmp8 = icmp ne %"class.libparest::Slave::Stationary::Discretization::Base<3>::PerStepStatistics"* %7, null, !dbg !5706
  br i1 %cmp8, label %if.then9, label %if.end11, !dbg !5707

if.then9:                                         ; preds = %if.end6
  %8 = load %"class.libparest::Slave::Stationary::Discretization::Base<3>::PerStepStatistics"*, %"class.libparest::Slave::Stationary::Discretization::Base<3>::PerStepStatistics"** %tt.addr, align 8, !dbg !5708
  %9 = bitcast %"class.libparest::Slave::Stationary::Discretization::Base<3>::PerStepStatistics"* %8 to %"class.dealii::Subscriptor"*, !dbg !5709
  %id10 = getelementptr inbounds %"class.dealii::SmartPointer.35", %"class.dealii::SmartPointer.35"* %this1, i32 0, i32 1, !dbg !5710
  %10 = load i8*, i8** %id10, align 8, !dbg !5710
  call void @_ZNK6dealii11Subscriptor9subscribeEPKc(%"class.dealii::Subscriptor"* %9, i8* %10), !dbg !5709
  br label %if.end11, !dbg !5708

if.end11:                                         ; preds = %if.then9, %if.end6
  store %"class.dealii::SmartPointer.35"* %this1, %"class.dealii::SmartPointer.35"** %retval, align 8, !dbg !5711
  br label %return, !dbg !5711

return:                                           ; preds = %if.end11, %if.then
  %11 = load %"class.dealii::SmartPointer.35"*, %"class.dealii::SmartPointer.35"** %retval, align 8, !dbg !5712
  ret %"class.dealii::SmartPointer.35"* %11, !dbg !5712
}

; Function Attrs: noinline uwtable
define weak_odr dso_local void @_ZN9libparest5Slave10Stationary5SlaveILi3EdE11compute_rhsERN6dealii6VectorIdEES7_(%"class.libparest::Slave::Stationary::Slave"* %this, %"class.dealii::Vector"* dereferenceable(88) %rhs, %"class.dealii::Vector"* dereferenceable(88) %rhs_a) unnamed_addr #0 comdat align 2 personality i8* bitcast (i32 (...)* @__gxx_personality_v0 to i8*) !dbg !5713 {
entry:
  %this.addr = alloca %"class.libparest::Slave::Stationary::Slave"*, align 8
  %rhs.addr = alloca %"class.dealii::Vector"*, align 8
  %rhs_a.addr = alloca %"class.dealii::Vector"*, align 8
  %ref.tmp = alloca %"class.std::__cxx11::basic_string", align 8
  %ref.tmp2 = alloca %"class.std::allocator.19", align 1
  %exn.slot = alloca i8*
  %ehselector.slot = alloca i32
  %tmp = alloca %"class.dealii::BlockVector", align 8
  %ref.tmp64 = alloca %"class.std::__cxx11::basic_string", align 8
  %ref.tmp65 = alloca %"class.std::allocator.19", align 1
  store %"class.libparest::Slave::Stationary::Slave"* %this, %"class.libparest::Slave::Stationary::Slave"** %this.addr, align 8
  call void @llvm.dbg.declare(metadata %"class.libparest::Slave::Stationary::Slave"** %this.addr, metadata !5714, metadata !DIExpression()), !dbg !5715
  store %"class.dealii::Vector"* %rhs, %"class.dealii::Vector"** %rhs.addr, align 8
  call void @llvm.dbg.declare(metadata %"class.dealii::Vector"** %rhs.addr, metadata !5716, metadata !DIExpression()), !dbg !5717
  store %"class.dealii::Vector"* %rhs_a, %"class.dealii::Vector"** %rhs_a.addr, align 8
  call void @llvm.dbg.declare(metadata %"class.dealii::Vector"** %rhs_a.addr, metadata !5718, metadata !DIExpression()), !dbg !5719
  %this1 = load %"class.libparest::Slave::Stationary::Slave"*, %"class.libparest::Slave::Stationary::Slave"** %this.addr, align 8
  %0 = bitcast %"class.libparest::Slave::Stationary::Slave"* %this1 to %"class.libparest::Slave::Base"*, !dbg !5720
  call void @_ZNSaIcEC1Ev(%"class.std::allocator.19"* %ref.tmp2) #4, !dbg !5721
  invoke void @_ZNSt7__cxx1112basic_stringIcSt11char_traitsIcESaIcEEC1EPKcRKS3_(%"class.std::__cxx11::basic_string"* %ref.tmp, i8* getelementptr inbounds ([4 x i8], [4 x i8]* @.str.10, i64 0, i64 0), %"class.std::allocator.19"* dereferenceable(1) %ref.tmp2)
          to label %invoke.cont unwind label %lpad, !dbg !5721

invoke.cont:                                      ; preds = %entry
  invoke void @_ZNK9libparest5Slave4Base20write_program_statusERKNSt7__cxx1112basic_stringIcSt11char_traitsIcESaIcEEEb(%"class.libparest::Slave::Base"* %0, %"class.std::__cxx11::basic_string"* dereferenceable(32) %ref.tmp, i1 zeroext true)
          to label %invoke.cont4 unwind label %lpad3, !dbg !5720

invoke.cont4:                                     ; preds = %invoke.cont
  call void @_ZNSt7__cxx1112basic_stringIcSt11char_traitsIcESaIcEED1Ev(%"class.std::__cxx11::basic_string"* %ref.tmp) #4, !dbg !5720
  call void @_ZNSaIcED1Ev(%"class.std::allocator.19"* %ref.tmp2) #4, !dbg !5720
  call void @llvm.dbg.declare(metadata %"class.dealii::BlockVector"* %tmp, metadata !5722, metadata !DIExpression()), !dbg !5723
  %state_discretization = getelementptr inbounds %"class.libparest::Slave::Stationary::Slave", %"class.libparest::Slave::Stationary::Slave"* %this1, i32 0, i32 7, !dbg !5724
  %call = call %"class.libparest::Slave::Stationary::Discretization::Base"* @_ZNK6dealii12SmartPointerIN9libparest5Slave10Stationary14Discretization4BaseILi3EEEEptEv(%"class.dealii::SmartPointer.34"* %state_discretization), !dbg !5724
  %dof_handlers = getelementptr inbounds %"class.libparest::Slave::Stationary::Discretization::Base", %"class.libparest::Slave::Stationary::Discretization::Base"* %call, i32 0, i32 3, !dbg !5725
  %1 = load %"class.libparest::Slave::Stationary::Discretization::DoFHandlers"*, %"class.libparest::Slave::Stationary::Discretization::DoFHandlers"** %dof_handlers, align 8, !dbg !5725
  %true_block_sizes = getelementptr inbounds %"class.libparest::Slave::Stationary::Discretization::DoFHandlers", %"class.libparest::Slave::Stationary::Discretization::DoFHandlers"* %1, i32 0, i32 8, !dbg !5726
  call void @_ZN6dealii11BlockVectorIdEC1ERKSt6vectorIjSaIjEE(%"class.dealii::BlockVector"* %tmp, %"class.std::vector.27"* dereferenceable(24) %true_block_sizes), !dbg !5723
  %right_hand_side = getelementptr inbounds %"class.libparest::Slave::Stationary::Slave", %"class.libparest::Slave::Stationary::Slave"* %this1, i32 0, i32 5, !dbg !5727
  %2 = bitcast %"class.dealii::BlockVector"* %right_hand_side to %"class.dealii::BlockVectorBase"*, !dbg !5727
  %call7 = invoke dereferenceable(88) %"class.dealii::Vector"* @_ZN6dealii15BlockVectorBaseINS_6VectorIdEEE5blockEj(%"class.dealii::BlockVectorBase"* %2, i32 1)
          to label %invoke.cont6 unwind label %lpad5, !dbg !5728

invoke.cont6:                                     ; preds = %invoke.cont4
  %3 = bitcast %"class.dealii::BlockVector"* %tmp to %"class.dealii::BlockVectorBase"*, !dbg !5729
  %call9 = invoke dereferenceable(88) %"class.dealii::Vector"* @_ZN6dealii15BlockVectorBaseINS_6VectorIdEEE5blockEj(%"class.dealii::BlockVectorBase"* %3, i32 1)
          to label %invoke.cont8 unwind label %lpad5, !dbg !5730

invoke.cont8:                                     ; preds = %invoke.cont6
  %call11 = invoke dereferenceable(88) %"class.dealii::Vector"* @_ZN6dealii6VectorIdEaSERKS1_(%"class.dealii::Vector"* %call9, %"class.dealii::Vector"* dereferenceable(88) %call7)
          to label %invoke.cont10 unwind label %lpad5, !dbg !5731

invoke.cont10:                                    ; preds = %invoke.cont8
  %global_matrix = getelementptr inbounds %"class.libparest::Slave::Stationary::Slave", %"class.libparest::Slave::Stationary::Slave"* %this1, i32 0, i32 1, !dbg !5732
  %4 = load %"class.libparest::Slave::Stationary::GlobalMatrix::Matrix"*, %"class.libparest::Slave::Stationary::GlobalMatrix::Matrix"** %global_matrix, align 8, !dbg !5732
  %A_inverse = getelementptr inbounds %"class.libparest::Slave::Stationary::GlobalMatrix::Matrix", %"class.libparest::Slave::Stationary::GlobalMatrix::Matrix"* %4, i32 0, i32 6, !dbg !5733
  %call13 = invoke %"class.libparest::Slave::Stationary::GlobalMatrix::Matrix_A_Inverse"* @_ZNK6dealii12SmartPointerIN9libparest5Slave10Stationary12GlobalMatrix16Matrix_A_InverseIdEEEptEv(%"class.dealii::SmartPointer.61"* %A_inverse)
          to label %invoke.cont12 unwind label %lpad5, !dbg !5732

invoke.cont12:                                    ; preds = %invoke.cont10
  %5 = bitcast %"class.dealii::BlockVector"* %tmp to %"class.dealii::BlockVectorBase"*, !dbg !5734
  %call15 = invoke dereferenceable(88) %"class.dealii::Vector"* @_ZN6dealii15BlockVectorBaseINS_6VectorIdEEE5blockEj(%"class.dealii::BlockVectorBase"* %5, i32 1)
          to label %invoke.cont14 unwind label %lpad5, !dbg !5735

invoke.cont14:                                    ; preds = %invoke.cont12
  %6 = bitcast %"class.libparest::Slave::Stationary::GlobalMatrix::Matrix_A_Inverse"* %call13 to void (%"class.libparest::Slave::Stationary::GlobalMatrix::Matrix_A_Inverse"*, %"class.dealii::Vector"*)***, !dbg !5736
  %vtable = load void (%"class.libparest::Slave::Stationary::GlobalMatrix::Matrix_A_Inverse"*, %"class.dealii::Vector"*)**, void (%"class.libparest::Slave::Stationary::GlobalMatrix::Matrix_A_Inverse"*, %"class.dealii::Vector"*)*** %6, align 8, !dbg !5736
  %vfn = getelementptr inbounds void (%"class.libparest::Slave::Stationary::GlobalMatrix::Matrix_A_Inverse"*, %"class.dealii::Vector"*)*, void (%"class.libparest::Slave::Stationary::GlobalMatrix::Matrix_A_Inverse"*, %"class.dealii::Vector"*)** %vtable, i64 2, !dbg !5736
  %7 = load void (%"class.libparest::Slave::Stationary::GlobalMatrix::Matrix_A_Inverse"*, %"class.dealii::Vector"*)*, void (%"class.libparest::Slave::Stationary::GlobalMatrix::Matrix_A_Inverse"*, %"class.dealii::Vector"*)** %vfn, align 8, !dbg !5736
  invoke void %7(%"class.libparest::Slave::Stationary::GlobalMatrix::Matrix_A_Inverse"* %call13, %"class.dealii::Vector"* dereferenceable(88) %call15)
          to label %invoke.cont16 unwind label %lpad5, !dbg !5736

invoke.cont16:                                    ; preds = %invoke.cont14
  %global_matrix17 = getelementptr inbounds %"class.libparest::Slave::Stationary::Slave", %"class.libparest::Slave::Stationary::Slave"* %this1, i32 0, i32 1, !dbg !5737
  %8 = load %"class.libparest::Slave::Stationary::GlobalMatrix::Matrix"*, %"class.libparest::Slave::Stationary::GlobalMatrix::Matrix"** %global_matrix17, align 8, !dbg !5737
  %M = getelementptr inbounds %"class.libparest::Slave::Stationary::GlobalMatrix::Matrix", %"class.libparest::Slave::Stationary::GlobalMatrix::Matrix"* %8, i32 0, i32 2, !dbg !5738
  %call19 = invoke %"class.dealii::SparseMatrix"* @_ZNK6dealii12SmartPointerINS_12SparseMatrixIdEEEptEv(%"class.dealii::SmartPointer.36"* %M)
          to label %invoke.cont18 unwind label %lpad5, !dbg !5737

invoke.cont18:                                    ; preds = %invoke.cont16
  %9 = bitcast %"class.dealii::BlockVector"* %tmp to %"class.dealii::BlockVectorBase"*, !dbg !5739
  %call21 = invoke dereferenceable(88) %"class.dealii::Vector"* @_ZN6dealii15BlockVectorBaseINS_6VectorIdEEE5blockEj(%"class.dealii::BlockVectorBase"* %9, i32 0)
          to label %invoke.cont20 unwind label %lpad5, !dbg !5740

invoke.cont20:                                    ; preds = %invoke.cont18
  %10 = bitcast %"class.dealii::BlockVector"* %tmp to %"class.dealii::BlockVectorBase"*, !dbg !5741
  %call23 = invoke dereferenceable(88) %"class.dealii::Vector"* @_ZN6dealii15BlockVectorBaseINS_6VectorIdEEE5blockEj(%"class.dealii::BlockVectorBase"* %10, i32 1)
          to label %invoke.cont22 unwind label %lpad5, !dbg !5742

invoke.cont22:                                    ; preds = %invoke.cont20
  invoke void @_ZNK6dealii12SparseMatrixIdE5vmultINS_6VectorIdEES4_EEvRT_RKT0_(%"class.dealii::SparseMatrix"* %call19, %"class.dealii::Vector"* dereferenceable(88) %call21, %"class.dealii::Vector"* dereferenceable(88) %call23)
          to label %invoke.cont24 unwind label %lpad5, !dbg !5743

invoke.cont24:                                    ; preds = %invoke.cont22
  %right_hand_side25 = getelementptr inbounds %"class.libparest::Slave::Stationary::Slave", %"class.libparest::Slave::Stationary::Slave"* %this1, i32 0, i32 5, !dbg !5744
  %11 = bitcast %"class.dealii::BlockVector"* %right_hand_side25 to %"class.dealii::BlockVectorBase"*, !dbg !5744
  %call27 = invoke dereferenceable(88) %"class.dealii::Vector"* @_ZN6dealii15BlockVectorBaseINS_6VectorIdEEE5blockEj(%"class.dealii::BlockVectorBase"* %11, i32 0)
          to label %invoke.cont26 unwind label %lpad5, !dbg !5745

invoke.cont26:                                    ; preds = %invoke.cont24
  %12 = bitcast %"class.dealii::BlockVector"* %tmp to %"class.dealii::BlockVectorBase"*, !dbg !5746
  %call29 = invoke dereferenceable(88) %"class.dealii::Vector"* @_ZN6dealii15BlockVectorBaseINS_6VectorIdEEE5blockEj(%"class.dealii::BlockVectorBase"* %12, i32 1)
          to label %invoke.cont28 unwind label %lpad5, !dbg !5747

invoke.cont28:                                    ; preds = %invoke.cont26
  %call31 = invoke dereferenceable(88) %"class.dealii::Vector"* @_ZN6dealii6VectorIdEaSERKS1_(%"class.dealii::Vector"* %call29, %"class.dealii::Vector"* dereferenceable(88) %call27)
          to label %invoke.cont30 unwind label %lpad5, !dbg !5748

invoke.cont30:                                    ; preds = %invoke.cont28
  %13 = bitcast %"class.dealii::BlockVector"* %tmp to %"class.dealii::BlockVectorBase"*, !dbg !5749
  %call33 = invoke dereferenceable(88) %"class.dealii::Vector"* @_ZN6dealii15BlockVectorBaseINS_6VectorIdEEE5blockEj(%"class.dealii::BlockVectorBase"* %13, i32 0)
          to label %invoke.cont32 unwind label %lpad5, !dbg !5750

invoke.cont32:                                    ; preds = %invoke.cont30
  %14 = bitcast %"class.dealii::BlockVector"* %tmp to %"class.dealii::BlockVectorBase"*, !dbg !5751
  %call35 = invoke dereferenceable(88) %"class.dealii::Vector"* @_ZN6dealii15BlockVectorBaseINS_6VectorIdEEE5blockEj(%"class.dealii::BlockVectorBase"* %14, i32 1)
          to label %invoke.cont34 unwind label %lpad5, !dbg !5752

invoke.cont34:                                    ; preds = %invoke.cont32
  %call37 = invoke dereferenceable(88) %"class.dealii::Vector"* @_ZN6dealii6VectorIdEmIERKS1_(%"class.dealii::Vector"* %call35, %"class.dealii::Vector"* dereferenceable(88) %call33)
          to label %invoke.cont36 unwind label %lpad5, !dbg !5753

invoke.cont36:                                    ; preds = %invoke.cont34
  %global_matrix38 = getelementptr inbounds %"class.libparest::Slave::Stationary::Slave", %"class.libparest::Slave::Stationary::Slave"* %this1, i32 0, i32 1, !dbg !5754
  %15 = load %"class.libparest::Slave::Stationary::GlobalMatrix::Matrix"*, %"class.libparest::Slave::Stationary::GlobalMatrix::Matrix"** %global_matrix38, align 8, !dbg !5754
  %A_inverse39 = getelementptr inbounds %"class.libparest::Slave::Stationary::GlobalMatrix::Matrix", %"class.libparest::Slave::Stationary::GlobalMatrix::Matrix"* %15, i32 0, i32 6, !dbg !5755
  %call41 = invoke %"class.libparest::Slave::Stationary::GlobalMatrix::Matrix_A_Inverse"* @_ZNK6dealii12SmartPointerIN9libparest5Slave10Stationary12GlobalMatrix16Matrix_A_InverseIdEEEptEv(%"class.dealii::SmartPointer.61"* %A_inverse39)
          to label %invoke.cont40 unwind label %lpad5, !dbg !5754

invoke.cont40:                                    ; preds = %invoke.cont36
  %16 = bitcast %"class.dealii::BlockVector"* %tmp to %"class.dealii::BlockVectorBase"*, !dbg !5756
  %call43 = invoke dereferenceable(88) %"class.dealii::Vector"* @_ZN6dealii15BlockVectorBaseINS_6VectorIdEEE5blockEj(%"class.dealii::BlockVectorBase"* %16, i32 1)
          to label %invoke.cont42 unwind label %lpad5, !dbg !5757

invoke.cont42:                                    ; preds = %invoke.cont40
  %17 = bitcast %"class.libparest::Slave::Stationary::GlobalMatrix::Matrix_A_Inverse"* %call41 to void (%"class.libparest::Slave::Stationary::GlobalMatrix::Matrix_A_Inverse"*, %"class.dealii::Vector"*)***, !dbg !5758
  %vtable44 = load void (%"class.libparest::Slave::Stationary::GlobalMatrix::Matrix_A_Inverse"*, %"class.dealii::Vector"*)**, void (%"class.libparest::Slave::Stationary::GlobalMatrix::Matrix_A_Inverse"*, %"class.dealii::Vector"*)*** %17, align 8, !dbg !5758
  %vfn45 = getelementptr inbounds void (%"class.libparest::Slave::Stationary::GlobalMatrix::Matrix_A_Inverse"*, %"class.dealii::Vector"*)*, void (%"class.libparest::Slave::Stationary::GlobalMatrix::Matrix_A_Inverse"*, %"class.dealii::Vector"*)** %vtable44, i64 4, !dbg !5758
  %18 = load void (%"class.libparest::Slave::Stationary::GlobalMatrix::Matrix_A_Inverse"*, %"class.dealii::Vector"*)*, void (%"class.libparest::Slave::Stationary::GlobalMatrix::Matrix_A_Inverse"*, %"class.dealii::Vector"*)** %vfn45, align 8, !dbg !5758
  invoke void %18(%"class.libparest::Slave::Stationary::GlobalMatrix::Matrix_A_Inverse"* %call41, %"class.dealii::Vector"* dereferenceable(88) %call43)
          to label %invoke.cont46 unwind label %lpad5, !dbg !5758

invoke.cont46:                                    ; preds = %invoke.cont42
  %global_matrix47 = getelementptr inbounds %"class.libparest::Slave::Stationary::Slave", %"class.libparest::Slave::Stationary::Slave"* %this1, i32 0, i32 1, !dbg !5759
  %19 = load %"class.libparest::Slave::Stationary::GlobalMatrix::Matrix"*, %"class.libparest::Slave::Stationary::GlobalMatrix::Matrix"** %global_matrix47, align 8, !dbg !5759
  %C_T = getelementptr inbounds %"class.libparest::Slave::Stationary::GlobalMatrix::Matrix", %"class.libparest::Slave::Stationary::GlobalMatrix::Matrix"* %19, i32 0, i32 4, !dbg !5760
  %call49 = invoke %"class.libparest::Slave::Stationary::GlobalMatrix::C_and_CT::CT"* @_ZNK6dealii12SmartPointerIN9libparest5Slave10Stationary12GlobalMatrix8C_and_CT2CTINS_12SparseMatrixIdEEEEEptEv(%"class.dealii::SmartPointer.39"* %C_T)
          to label %invoke.cont48 unwind label %lpad5, !dbg !5759

invoke.cont48:                                    ; preds = %invoke.cont46
  %20 = load %"class.dealii::Vector"*, %"class.dealii::Vector"** %rhs.addr, align 8, !dbg !5761
  %21 = bitcast %"class.dealii::BlockVector"* %tmp to %"class.dealii::BlockVectorBase"*, !dbg !5762
  %call51 = invoke dereferenceable(88) %"class.dealii::Vector"* @_ZN6dealii15BlockVectorBaseINS_6VectorIdEEE5blockEj(%"class.dealii::BlockVectorBase"* %21, i32 1)
          to label %invoke.cont50 unwind label %lpad5, !dbg !5763

invoke.cont50:                                    ; preds = %invoke.cont48
  invoke void @_ZNK9libparest5Slave10Stationary12GlobalMatrix8C_and_CT2CTIN6dealii12SparseMatrixIdEEE5vmultINS5_6VectorIdEESB_EEvRT0_RKT_(%"class.libparest::Slave::Stationary::GlobalMatrix::C_and_CT::CT"* %call49, %"class.dealii::Vector"* dereferenceable(88) %20, %"class.dealii::Vector"* dereferenceable(88) %call51)
          to label %invoke.cont52 unwind label %lpad5, !dbg !5764

invoke.cont52:                                    ; preds = %invoke.cont50
  %22 = load %"class.dealii::Vector"*, %"class.dealii::Vector"** %rhs.addr, align 8, !dbg !5765
  invoke void @_ZN6dealii6VectorIdE5scaleEd(%"class.dealii::Vector"* %22, double -1.000000e+00)
          to label %invoke.cont53 unwind label %lpad5, !dbg !5766

invoke.cont53:                                    ; preds = %invoke.cont52
  %right_hand_side54 = getelementptr inbounds %"class.libparest::Slave::Stationary::Slave", %"class.libparest::Slave::Stationary::Slave"* %this1, i32 0, i32 5, !dbg !5767
  %23 = bitcast %"class.dealii::BlockVector"* %right_hand_side54 to %"class.dealii::BlockVectorBase"*, !dbg !5767
  %call56 = invoke dereferenceable(88) %"class.dealii::Vector"* @_ZN6dealii15BlockVectorBaseINS_6VectorIdEEE5blockEj(%"class.dealii::BlockVectorBase"* %23, i32 2)
          to label %invoke.cont55 unwind label %lpad5, !dbg !5768

invoke.cont55:                                    ; preds = %invoke.cont53
  %24 = load %"class.dealii::Vector"*, %"class.dealii::Vector"** %rhs.addr, align 8, !dbg !5769
  %call58 = invoke dereferenceable(88) %"class.dealii::Vector"* @_ZN6dealii6VectorIdEpLERKS1_(%"class.dealii::Vector"* %24, %"class.dealii::Vector"* dereferenceable(88) %call56)
          to label %invoke.cont57 unwind label %lpad5, !dbg !5770

invoke.cont57:                                    ; preds = %invoke.cont55
  %right_hand_side59 = getelementptr inbounds %"class.libparest::Slave::Stationary::Slave", %"class.libparest::Slave::Stationary::Slave"* %this1, i32 0, i32 5, !dbg !5771
  %25 = bitcast %"class.dealii::BlockVector"* %right_hand_side59 to %"class.dealii::BlockVectorBase"*, !dbg !5771
  %call61 = invoke dereferenceable(88) %"class.dealii::Vector"* @_ZN6dealii15BlockVectorBaseINS_6VectorIdEEE5blockEj(%"class.dealii::BlockVectorBase"* %25, i32 2)
          to label %invoke.cont60 unwind label %lpad5, !dbg !5772

invoke.cont60:                                    ; preds = %invoke.cont57
  %26 = load %"class.dealii::Vector"*, %"class.dealii::Vector"** %rhs_a.addr, align 8, !dbg !5773
  %call63 = invoke dereferenceable(88) %"class.dealii::Vector"* @_ZN6dealii6VectorIdEaSERKS1_(%"class.dealii::Vector"* %26, %"class.dealii::Vector"* dereferenceable(88) %call61)
          to label %invoke.cont62 unwind label %lpad5, !dbg !5774

invoke.cont62:                                    ; preds = %invoke.cont60
  %27 = bitcast %"class.libparest::Slave::Stationary::Slave"* %this1 to %"class.libparest::Slave::Base"*, !dbg !5775
  call void @_ZNSaIcEC1Ev(%"class.std::allocator.19"* %ref.tmp65) #4, !dbg !5776
  invoke void @_ZNSt7__cxx1112basic_stringIcSt11char_traitsIcESaIcEEC1EPKcRKS3_(%"class.std::__cxx11::basic_string"* %ref.tmp64, i8* getelementptr inbounds ([4 x i8], [4 x i8]* @.str.10, i64 0, i64 0), %"class.std::allocator.19"* dereferenceable(1) %ref.tmp65)
          to label %invoke.cont67 unwind label %lpad66, !dbg !5776

invoke.cont67:                                    ; preds = %invoke.cont62
  invoke void @_ZNK9libparest5Slave4Base20write_program_statusERKNSt7__cxx1112basic_stringIcSt11char_traitsIcESaIcEEEb(%"class.libparest::Slave::Base"* %27, %"class.std::__cxx11::basic_string"* dereferenceable(32) %ref.tmp64, i1 zeroext false)
          to label %invoke.cont69 unwind label %lpad68, !dbg !5775

invoke.cont69:                                    ; preds = %invoke.cont67
  call void @_ZNSt7__cxx1112basic_stringIcSt11char_traitsIcESaIcEED1Ev(%"class.std::__cxx11::basic_string"* %ref.tmp64) #4, !dbg !5775
  call void @_ZNSaIcED1Ev(%"class.std::allocator.19"* %ref.tmp65) #4, !dbg !5775
  call void @_ZN6dealii11BlockVectorIdED1Ev(%"class.dealii::BlockVector"* %tmp) #4, !dbg !5777
  ret void, !dbg !5777

lpad:                                             ; preds = %entry
  %28 = landingpad { i8*, i32 }
          cleanup, !dbg !5777
  %29 = extractvalue { i8*, i32 } %28, 0, !dbg !5777
  store i8* %29, i8** %exn.slot, align 8, !dbg !5777
  %30 = extractvalue { i8*, i32 } %28, 1, !dbg !5777
  store i32 %30, i32* %ehselector.slot, align 4, !dbg !5777
  br label %ehcleanup, !dbg !5777

lpad3:                                            ; preds = %invoke.cont
  %31 = landingpad { i8*, i32 }
          cleanup, !dbg !5777
  %32 = extractvalue { i8*, i32 } %31, 0, !dbg !5777
  store i8* %32, i8** %exn.slot, align 8, !dbg !5777
  %33 = extractvalue { i8*, i32 } %31, 1, !dbg !5777
  store i32 %33, i32* %ehselector.slot, align 4, !dbg !5777
  call void @_ZNSt7__cxx1112basic_stringIcSt11char_traitsIcESaIcEED1Ev(%"class.std::__cxx11::basic_string"* %ref.tmp) #4, !dbg !5720
  br label %ehcleanup, !dbg !5720

ehcleanup:                                        ; preds = %lpad3, %lpad
  call void @_ZNSaIcED1Ev(%"class.std::allocator.19"* %ref.tmp2) #4, !dbg !5720
  br label %eh.resume, !dbg !5720

lpad5:                                            ; preds = %invoke.cont60, %invoke.cont57, %invoke.cont55, %invoke.cont53, %invoke.cont52, %invoke.cont50, %invoke.cont48, %invoke.cont46, %invoke.cont42, %invoke.cont40, %invoke.cont36, %invoke.cont34, %invoke.cont32, %invoke.cont30, %invoke.cont28, %invoke.cont26, %invoke.cont24, %invoke.cont22, %invoke.cont20, %invoke.cont18, %invoke.cont16, %invoke.cont14, %invoke.cont12, %invoke.cont10, %invoke.cont8, %invoke.cont6, %invoke.cont4
  %34 = landingpad { i8*, i32 }
          cleanup, !dbg !5777
  %35 = extractvalue { i8*, i32 } %34, 0, !dbg !5777
  store i8* %35, i8** %exn.slot, align 8, !dbg !5777
  %36 = extractvalue { i8*, i32 } %34, 1, !dbg !5777
  store i32 %36, i32* %ehselector.slot, align 4, !dbg !5777
  br label %ehcleanup72, !dbg !5777

lpad66:                                           ; preds = %invoke.cont62
  %37 = landingpad { i8*, i32 }
          cleanup, !dbg !5777
  %38 = extractvalue { i8*, i32 } %37, 0, !dbg !5777
  store i8* %38, i8** %exn.slot, align 8, !dbg !5777
  %39 = extractvalue { i8*, i32 } %37, 1, !dbg !5777
  store i32 %39, i32* %ehselector.slot, align 4, !dbg !5777
  br label %ehcleanup71, !dbg !5777

lpad68:                                           ; preds = %invoke.cont67
  %40 = landingpad { i8*, i32 }
          cleanup, !dbg !5777
  %41 = extractvalue { i8*, i32 } %40, 0, !dbg !5777
  store i8* %41, i8** %exn.slot, align 8, !dbg !5777
  %42 = extractvalue { i8*, i32 } %40, 1, !dbg !5777
  store i32 %42, i32* %ehselector.slot, align 4, !dbg !5777
  call void @_ZNSt7__cxx1112basic_stringIcSt11char_traitsIcESaIcEED1Ev(%"class.std::__cxx11::basic_string"* %ref.tmp64) #4, !dbg !5775
  br label %ehcleanup71, !dbg !5775

ehcleanup71:                                      ; preds = %lpad68, %lpad66
  call void @_ZNSaIcED1Ev(%"class.std::allocator.19"* %ref.tmp65) #4, !dbg !5775
  br label %ehcleanup72, !dbg !5775

ehcleanup72:                                      ; preds = %ehcleanup71, %lpad5
  call void @_ZN6dealii11BlockVectorIdED1Ev(%"class.dealii::BlockVector"* %tmp) #4, !dbg !5777
  br label %eh.resume, !dbg !5777

eh.resume:                                        ; preds = %ehcleanup72, %ehcleanup
  %exn = load i8*, i8** %exn.slot, align 8, !dbg !5720
  %sel = load i32, i32* %ehselector.slot, align 4, !dbg !5720
  %lpad.val = insertvalue { i8*, i32 } undef, i8* %exn, 0, !dbg !5720
  %lpad.val73 = insertvalue { i8*, i32 } %lpad.val, i32 %sel, 1, !dbg !5720
  resume { i8*, i32 } %lpad.val73, !dbg !5720
}

declare dso_local void @_ZN6dealii11BlockVectorIdEC1ERKSt6vectorIjSaIjEE(%"class.dealii::BlockVector"*, %"class.std::vector.27"* dereferenceable(24)) unnamed_addr #2

; Function Attrs: noinline nounwind uwtable
define linkonce_odr dso_local dereferenceable(88) %"class.dealii::Vector"* @_ZN6dealii15BlockVectorBaseINS_6VectorIdEEE5blockEj(%"class.dealii::BlockVectorBase"* %this, i32 %i) #1 comdat align 2 !dbg !5778 {
entry:
  %this.addr = alloca %"class.dealii::BlockVectorBase"*, align 8
  %i.addr = alloca i32, align 4
  store %"class.dealii::BlockVectorBase"* %this, %"class.dealii::BlockVectorBase"** %this.addr, align 8
  call void @llvm.dbg.declare(metadata %"class.dealii::BlockVectorBase"** %this.addr, metadata !5787, metadata !DIExpression()), !dbg !5789
  store i32 %i, i32* %i.addr, align 4
  call void @llvm.dbg.declare(metadata i32* %i.addr, metadata !5790, metadata !DIExpression()), !dbg !5791
  %this1 = load %"class.dealii::BlockVectorBase"*, %"class.dealii::BlockVectorBase"** %this.addr, align 8
  %components = getelementptr inbounds %"class.dealii::BlockVectorBase", %"class.dealii::BlockVectorBase"* %this1, i32 0, i32 1, !dbg !5792
  %0 = load i32, i32* %i.addr, align 4, !dbg !5793
  %conv = zext i32 %0 to i64, !dbg !5793
  %call = call dereferenceable(88) %"class.dealii::Vector"* @_ZNSt6vectorIN6dealii6VectorIdEESaIS2_EEixEm(%"class.std::vector.22"* %components, i64 %conv) #4, !dbg !5792
  ret %"class.dealii::Vector"* %call, !dbg !5794
}

declare dso_local dereferenceable(88) %"class.dealii::Vector"* @_ZN6dealii6VectorIdEaSERKS1_(%"class.dealii::Vector"*, %"class.dealii::Vector"* dereferenceable(88)) #2

; Function Attrs: noinline nounwind uwtable
define linkonce_odr dso_local %"class.libparest::Slave::Stationary::GlobalMatrix::Matrix_A_Inverse"* @_ZNK6dealii12SmartPointerIN9libparest5Slave10Stationary12GlobalMatrix16Matrix_A_InverseIdEEEptEv(%"class.dealii::SmartPointer.61"* %this) #1 comdat align 2 !dbg !5795 {
entry:
  %this.addr = alloca %"class.dealii::SmartPointer.61"*, align 8
  store %"class.dealii::SmartPointer.61"* %this, %"class.dealii::SmartPointer.61"** %this.addr, align 8
  call void @llvm.dbg.declare(metadata %"class.dealii::SmartPointer.61"** %this.addr, metadata !5843, metadata !DIExpression()), !dbg !5845
  %this1 = load %"class.dealii::SmartPointer.61"*, %"class.dealii::SmartPointer.61"** %this.addr, align 8
  %t = getelementptr inbounds %"class.dealii::SmartPointer.61", %"class.dealii::SmartPointer.61"* %this1, i32 0, i32 0, !dbg !5846
  %0 = load %"class.libparest::Slave::Stationary::GlobalMatrix::Matrix_A_Inverse"*, %"class.libparest::Slave::Stationary::GlobalMatrix::Matrix_A_Inverse"** %t, align 8, !dbg !5846
  ret %"class.libparest::Slave::Stationary::GlobalMatrix::Matrix_A_Inverse"* %0, !dbg !5847
}

; Function Attrs: noinline nounwind uwtable
define linkonce_odr dso_local %"class.dealii::SparseMatrix"* @_ZNK6dealii12SmartPointerINS_12SparseMatrixIdEEEptEv(%"class.dealii::SmartPointer.36"* %this) #1 comdat align 2 !dbg !5848 {
entry:
  %this.addr = alloca %"class.dealii::SmartPointer.36"*, align 8
  store %"class.dealii::SmartPointer.36"* %this, %"class.dealii::SmartPointer.36"** %this.addr, align 8
  call void @llvm.dbg.declare(metadata %"class.dealii::SmartPointer.36"** %this.addr, metadata !5897, metadata !DIExpression()), !dbg !5899
  %this1 = load %"class.dealii::SmartPointer.36"*, %"class.dealii::SmartPointer.36"** %this.addr, align 8
  %t = getelementptr inbounds %"class.dealii::SmartPointer.36", %"class.dealii::SmartPointer.36"* %this1, i32 0, i32 0, !dbg !5900
  %0 = load %"class.dealii::SparseMatrix"*, %"class.dealii::SparseMatrix"** %t, align 8, !dbg !5900
  ret %"class.dealii::SparseMatrix"* %0, !dbg !5901
}

declare dso_local void @_ZNK6dealii12SparseMatrixIdE5vmultINS_6VectorIdEES4_EEvRT_RKT0_(%"class.dealii::SparseMatrix"*, %"class.dealii::Vector"* dereferenceable(88), %"class.dealii::Vector"* dereferenceable(88)) #2

declare dso_local dereferenceable(88) %"class.dealii::Vector"* @_ZN6dealii6VectorIdEmIERKS1_(%"class.dealii::Vector"*, %"class.dealii::Vector"* dereferenceable(88)) #2

; Function Attrs: noinline nounwind uwtable
define linkonce_odr dso_local %"class.libparest::Slave::Stationary::GlobalMatrix::C_and_CT::CT"* @_ZNK6dealii12SmartPointerIN9libparest5Slave10Stationary12GlobalMatrix8C_and_CT2CTINS_12SparseMatrixIdEEEEEptEv(%"class.dealii::SmartPointer.39"* %this) #1 comdat align 2 !dbg !5902 {
entry:
  %this.addr = alloca %"class.dealii::SmartPointer.39"*, align 8
  store %"class.dealii::SmartPointer.39"* %this, %"class.dealii::SmartPointer.39"** %this.addr, align 8
  call void @llvm.dbg.declare(metadata %"class.dealii::SmartPointer.39"** %this.addr, metadata !5951, metadata !DIExpression()), !dbg !5953
  %this1 = load %"class.dealii::SmartPointer.39"*, %"class.dealii::SmartPointer.39"** %this.addr, align 8
  %t = getelementptr inbounds %"class.dealii::SmartPointer.39", %"class.dealii::SmartPointer.39"* %this1, i32 0, i32 0, !dbg !5954
  %0 = load %"class.libparest::Slave::Stationary::GlobalMatrix::C_and_CT::CT"*, %"class.libparest::Slave::Stationary::GlobalMatrix::C_and_CT::CT"** %t, align 8, !dbg !5954
  ret %"class.libparest::Slave::Stationary::GlobalMatrix::C_and_CT::CT"* %0, !dbg !5955
}

; Function Attrs: noinline uwtable
define linkonce_odr dso_local void @_ZNK9libparest5Slave10Stationary12GlobalMatrix8C_and_CT2CTIN6dealii12SparseMatrixIdEEE5vmultINS5_6VectorIdEESB_EEvRT0_RKT_(%"class.libparest::Slave::Stationary::GlobalMatrix::C_and_CT::CT"* %this, %"class.dealii::Vector"* dereferenceable(88) %dst, %"class.dealii::Vector"* dereferenceable(88) %src) #0 comdat align 2 !dbg !5956 {
entry:
  %this.addr = alloca %"class.libparest::Slave::Stationary::GlobalMatrix::C_and_CT::CT"*, align 8
  %dst.addr = alloca %"class.dealii::Vector"*, align 8
  %src.addr = alloca %"class.dealii::Vector"*, align 8
  store %"class.libparest::Slave::Stationary::GlobalMatrix::C_and_CT::CT"* %this, %"class.libparest::Slave::Stationary::GlobalMatrix::C_and_CT::CT"** %this.addr, align 8
  call void @llvm.dbg.declare(metadata %"class.libparest::Slave::Stationary::GlobalMatrix::C_and_CT::CT"** %this.addr, metadata !5965, metadata !DIExpression()), !dbg !5967
  store %"class.dealii::Vector"* %dst, %"class.dealii::Vector"** %dst.addr, align 8
  call void @llvm.dbg.declare(metadata %"class.dealii::Vector"** %dst.addr, metadata !5968, metadata !DIExpression()), !dbg !5969
  store %"class.dealii::Vector"* %src, %"class.dealii::Vector"** %src.addr, align 8
  call void @llvm.dbg.declare(metadata %"class.dealii::Vector"** %src.addr, metadata !5970, metadata !DIExpression()), !dbg !5971
  %this1 = load %"class.libparest::Slave::Stationary::GlobalMatrix::C_and_CT::CT"*, %"class.libparest::Slave::Stationary::GlobalMatrix::C_and_CT::CT"** %this.addr, align 8
  %0 = bitcast %"class.libparest::Slave::Stationary::GlobalMatrix::C_and_CT::CT"* %this1 to %"class.libparest::Slave::Stationary::GlobalMatrix::C_and_CT::Base"*, !dbg !5972
  %mutex = getelementptr inbounds %"class.libparest::Slave::Stationary::GlobalMatrix::C_and_CT::Base", %"class.libparest::Slave::Stationary::GlobalMatrix::C_and_CT::Base"* %0, i32 0, i32 4, !dbg !5972
  %1 = load %"class.dealii::Threads::DummyThreadMutex"*, %"class.dealii::Threads::DummyThreadMutex"** %mutex, align 8, !dbg !5972
  call void @_ZNK6dealii7Threads16DummyThreadMutex7acquireEv(%"class.dealii::Threads::DummyThreadMutex"* %1), !dbg !5973
  %2 = bitcast %"class.libparest::Slave::Stationary::GlobalMatrix::C_and_CT::CT"* %this1 to %"class.libparest::Slave::Stationary::GlobalMatrix::C_and_CT::Base"*, !dbg !5974
  %C = getelementptr inbounds %"class.libparest::Slave::Stationary::GlobalMatrix::C_and_CT::Base", %"class.libparest::Slave::Stationary::GlobalMatrix::C_and_CT::Base"* %2, i32 0, i32 1, !dbg !5974
  %call = call %"class.dealii::SparseMatrix"* @_ZNK6dealii12SmartPointerIKNS_12SparseMatrixIdEEEptEv(%"class.dealii::SmartPointer.99"* %C), !dbg !5975
  %3 = bitcast %"class.libparest::Slave::Stationary::GlobalMatrix::C_and_CT::CT"* %this1 to %"class.libparest::Slave::Stationary::GlobalMatrix::C_and_CT::Base"*, !dbg !5976
  %tmp = getelementptr inbounds %"class.libparest::Slave::Stationary::GlobalMatrix::C_and_CT::Base", %"class.libparest::Slave::Stationary::GlobalMatrix::C_and_CT::Base"* %3, i32 0, i32 3, !dbg !5976
  %4 = load %"class.dealii::Vector"*, %"class.dealii::Vector"** %tmp, align 8, !dbg !5976
  %5 = load %"class.dealii::Vector"*, %"class.dealii::Vector"** %src.addr, align 8, !dbg !5977
  call void @_ZNK6dealii12SparseMatrixIdE6TvmultINS_6VectorIdEES4_EEvRT_RKT0_(%"class.dealii::SparseMatrix"* %call, %"class.dealii::Vector"* dereferenceable(88) %4, %"class.dealii::Vector"* dereferenceable(88) %5), !dbg !5978
  %6 = bitcast %"class.libparest::Slave::Stationary::GlobalMatrix::C_and_CT::CT"* %this1 to %"class.libparest::Slave::Stationary::GlobalMatrix::C_and_CT::Base"*, !dbg !5979
  %transfer_matrix = getelementptr inbounds %"class.libparest::Slave::Stationary::GlobalMatrix::C_and_CT::Base", %"class.libparest::Slave::Stationary::GlobalMatrix::C_and_CT::Base"* %6, i32 0, i32 2, !dbg !5979
  %call2 = call %"class.dealii::SparseMatrix"* @_ZNK6dealii12SmartPointerIKNS_12SparseMatrixIdEEEptEv(%"class.dealii::SmartPointer.99"* %transfer_matrix), !dbg !5980
  %7 = load %"class.dealii::Vector"*, %"class.dealii::Vector"** %dst.addr, align 8, !dbg !5981
  %8 = bitcast %"class.libparest::Slave::Stationary::GlobalMatrix::C_and_CT::CT"* %this1 to %"class.libparest::Slave::Stationary::GlobalMatrix::C_and_CT::Base"*, !dbg !5982
  %tmp3 = getelementptr inbounds %"class.libparest::Slave::Stationary::GlobalMatrix::C_and_CT::Base", %"class.libparest::Slave::Stationary::GlobalMatrix::C_and_CT::Base"* %8, i32 0, i32 3, !dbg !5982
  %9 = load %"class.dealii::Vector"*, %"class.dealii::Vector"** %tmp3, align 8, !dbg !5982
  call void @_ZNK6dealii12SparseMatrixIdE6TvmultINS_6VectorIdEES4_EEvRT_RKT0_(%"class.dealii::SparseMatrix"* %call2, %"class.dealii::Vector"* dereferenceable(88) %7, %"class.dealii::Vector"* dereferenceable(88) %9), !dbg !5983
  %10 = bitcast %"class.libparest::Slave::Stationary::GlobalMatrix::C_and_CT::CT"* %this1 to %"class.libparest::Slave::Stationary::GlobalMatrix::C_and_CT::Base"*, !dbg !5984
  %mutex4 = getelementptr inbounds %"class.libparest::Slave::Stationary::GlobalMatrix::C_and_CT::Base", %"class.libparest::Slave::Stationary::GlobalMatrix::C_and_CT::Base"* %10, i32 0, i32 4, !dbg !5984
  %11 = load %"class.dealii::Threads::DummyThreadMutex"*, %"class.dealii::Threads::DummyThreadMutex"** %mutex4, align 8, !dbg !5984
  call void @_ZNK6dealii7Threads16DummyThreadMutex7releaseEv(%"class.dealii::Threads::DummyThreadMutex"* %11), !dbg !5985
  ret void, !dbg !5986
}

; Function Attrs: noinline uwtable
define linkonce_odr dso_local void @_ZN6dealii6VectorIdE5scaleEd(%"class.dealii::Vector"* %this, double %factor) #0 comdat align 2 !dbg !5987 {
entry:
  %this.addr = alloca %"class.dealii::Vector"*, align 8
  %factor.addr = alloca double, align 8
  %ptr = alloca double*, align 8
  %eptr = alloca double*, align 8
  store %"class.dealii::Vector"* %this, %"class.dealii::Vector"** %this.addr, align 8
  call void @llvm.dbg.declare(metadata %"class.dealii::Vector"** %this.addr, metadata !5988, metadata !DIExpression()), !dbg !5989
  store double %factor, double* %factor.addr, align 8
  call void @llvm.dbg.declare(metadata double* %factor.addr, metadata !5990, metadata !DIExpression()), !dbg !5991
  %this1 = load %"class.dealii::Vector"*, %"class.dealii::Vector"** %this.addr, align 8
  call void @llvm.dbg.declare(metadata double** %ptr, metadata !5992, metadata !DIExpression()), !dbg !5993
  %call = call double* @_ZN6dealii6VectorIdE5beginEv(%"class.dealii::Vector"* %this1), !dbg !5994
  store double* %call, double** %ptr, align 8, !dbg !5993
  call void @llvm.dbg.declare(metadata double** %eptr, metadata !5995, metadata !DIExpression()), !dbg !5997
  %call2 = call double* @_ZN6dealii6VectorIdE3endEv(%"class.dealii::Vector"* %this1), !dbg !5998
  store double* %call2, double** %eptr, align 8, !dbg !5997
  br label %while.cond, !dbg !5999

while.cond:                                       ; preds = %while.body, %entry
  %0 = load double*, double** %ptr, align 8, !dbg !6000
  %1 = load double*, double** %eptr, align 8, !dbg !6001
  %cmp = icmp ne double* %0, %1, !dbg !6002
  br i1 %cmp, label %while.body, label %while.end, !dbg !5999

while.body:                                       ; preds = %while.cond
  %2 = load double, double* %factor.addr, align 8, !dbg !6003
  %3 = load double*, double** %ptr, align 8, !dbg !6004
  %incdec.ptr = getelementptr inbounds double, double* %3, i32 1, !dbg !6004
  store double* %incdec.ptr, double** %ptr, align 8, !dbg !6004
  %4 = load double, double* %3, align 8, !dbg !6005
  %mul = fmul double %4, %2, !dbg !6005
  store double %mul, double* %3, align 8, !dbg !6005
  br label %while.cond, !dbg !5999, !llvm.loop !6006

while.end:                                        ; preds = %while.cond
  ret void, !dbg !6007
}

declare dso_local dereferenceable(88) %"class.dealii::Vector"* @_ZN6dealii6VectorIdEpLERKS1_(%"class.dealii::Vector"*, %"class.dealii::Vector"* dereferenceable(88)) #2

; Function Attrs: noinline uwtable
define weak_odr dso_local void @_ZN9libparest5Slave10Stationary5SlaveILi3EdE16forward_backwardERKN6dealii6VectorIdEERS6_(%"class.libparest::Slave::Stationary::Slave"* %this, %"class.dealii::Vector"* dereferenceable(88) %test_parameter, %"class.dealii::Vector"* dereferenceable(88) %result) unnamed_addr #0 comdat align 2 personality i8* bitcast (i32 (...)* @__gxx_personality_v0 to i8*) !dbg !6008 {
entry:
  %this.addr = alloca %"class.libparest::Slave::Stationary::Slave"*, align 8
  %test_parameter.addr = alloca %"class.dealii::Vector"*, align 8
  %result.addr = alloca %"class.dealii::Vector"*, align 8
  %ref.tmp = alloca %"class.std::__cxx11::basic_string", align 8
  %ref.tmp2 = alloca %"class.std::allocator.19", align 1
  %exn.slot = alloca i8*
  %ehselector.slot = alloca i32
  %tmp = alloca %"class.dealii::BlockVector", align 8
  %ref.tmp40 = alloca %"class.std::__cxx11::basic_string", align 8
  %ref.tmp41 = alloca %"class.std::allocator.19", align 1
  store %"class.libparest::Slave::Stationary::Slave"* %this, %"class.libparest::Slave::Stationary::Slave"** %this.addr, align 8
  call void @llvm.dbg.declare(metadata %"class.libparest::Slave::Stationary::Slave"** %this.addr, metadata !6009, metadata !DIExpression()), !dbg !6010
  store %"class.dealii::Vector"* %test_parameter, %"class.dealii::Vector"** %test_parameter.addr, align 8
  call void @llvm.dbg.declare(metadata %"class.dealii::Vector"** %test_parameter.addr, metadata !6011, metadata !DIExpression()), !dbg !6012
  store %"class.dealii::Vector"* %result, %"class.dealii::Vector"** %result.addr, align 8
  call void @llvm.dbg.declare(metadata %"class.dealii::Vector"** %result.addr, metadata !6013, metadata !DIExpression()), !dbg !6014
  %this1 = load %"class.libparest::Slave::Stationary::Slave"*, %"class.libparest::Slave::Stationary::Slave"** %this.addr, align 8
  %0 = bitcast %"class.libparest::Slave::Stationary::Slave"* %this1 to %"class.libparest::Slave::Base"*, !dbg !6015
  call void @_ZNSaIcEC1Ev(%"class.std::allocator.19"* %ref.tmp2) #4, !dbg !6016
  invoke void @_ZNSt7__cxx1112basic_stringIcSt11char_traitsIcESaIcEEC1EPKcRKS3_(%"class.std::__cxx11::basic_string"* %ref.tmp, i8* getelementptr inbounds ([13 x i8], [13 x i8]* @.str.11, i64 0, i64 0), %"class.std::allocator.19"* dereferenceable(1) %ref.tmp2)
          to label %invoke.cont unwind label %lpad, !dbg !6016

invoke.cont:                                      ; preds = %entry
  invoke void @_ZNK9libparest5Slave4Base20write_program_statusERKNSt7__cxx1112basic_stringIcSt11char_traitsIcESaIcEEEb(%"class.libparest::Slave::Base"* %0, %"class.std::__cxx11::basic_string"* dereferenceable(32) %ref.tmp, i1 zeroext true)
          to label %invoke.cont4 unwind label %lpad3, !dbg !6015

invoke.cont4:                                     ; preds = %invoke.cont
  call void @_ZNSt7__cxx1112basic_stringIcSt11char_traitsIcESaIcEED1Ev(%"class.std::__cxx11::basic_string"* %ref.tmp) #4, !dbg !6015
  call void @_ZNSaIcED1Ev(%"class.std::allocator.19"* %ref.tmp2) #4, !dbg !6015
  call void @llvm.dbg.declare(metadata %"class.dealii::BlockVector"* %tmp, metadata !6017, metadata !DIExpression()), !dbg !6018
  %state_discretization = getelementptr inbounds %"class.libparest::Slave::Stationary::Slave", %"class.libparest::Slave::Stationary::Slave"* %this1, i32 0, i32 7, !dbg !6019
  %call = call %"class.libparest::Slave::Stationary::Discretization::Base"* @_ZNK6dealii12SmartPointerIN9libparest5Slave10Stationary14Discretization4BaseILi3EEEEptEv(%"class.dealii::SmartPointer.34"* %state_discretization), !dbg !6019
  %dof_handlers = getelementptr inbounds %"class.libparest::Slave::Stationary::Discretization::Base", %"class.libparest::Slave::Stationary::Discretization::Base"* %call, i32 0, i32 3, !dbg !6020
  %1 = load %"class.libparest::Slave::Stationary::Discretization::DoFHandlers"*, %"class.libparest::Slave::Stationary::Discretization::DoFHandlers"** %dof_handlers, align 8, !dbg !6020
  %true_block_sizes = getelementptr inbounds %"class.libparest::Slave::Stationary::Discretization::DoFHandlers", %"class.libparest::Slave::Stationary::Discretization::DoFHandlers"* %1, i32 0, i32 8, !dbg !6021
  call void @_ZN6dealii11BlockVectorIdEC1ERKSt6vectorIjSaIjEE(%"class.dealii::BlockVector"* %tmp, %"class.std::vector.27"* dereferenceable(24) %true_block_sizes), !dbg !6018
  %global_matrix = getelementptr inbounds %"class.libparest::Slave::Stationary::Slave", %"class.libparest::Slave::Stationary::Slave"* %this1, i32 0, i32 1, !dbg !6022
  %2 = load %"class.libparest::Slave::Stationary::GlobalMatrix::Matrix"*, %"class.libparest::Slave::Stationary::GlobalMatrix::Matrix"** %global_matrix, align 8, !dbg !6022
  %C = getelementptr inbounds %"class.libparest::Slave::Stationary::GlobalMatrix::Matrix", %"class.libparest::Slave::Stationary::GlobalMatrix::Matrix"* %2, i32 0, i32 3, !dbg !6023
  %call7 = invoke %"class.libparest::Slave::Stationary::GlobalMatrix::C_and_CT::C"* @_ZNK6dealii12SmartPointerIN9libparest5Slave10Stationary12GlobalMatrix8C_and_CT1CINS_12SparseMatrixIdEEEEEptEv(%"class.dealii::SmartPointer.38"* %C)
          to label %invoke.cont6 unwind label %lpad5, !dbg !6022

invoke.cont6:                                     ; preds = %invoke.cont4
  %3 = bitcast %"class.dealii::BlockVector"* %tmp to %"class.dealii::BlockVectorBase"*, !dbg !6024
  %call9 = invoke dereferenceable(88) %"class.dealii::Vector"* @_ZN6dealii15BlockVectorBaseINS_6VectorIdEEE5blockEj(%"class.dealii::BlockVectorBase"* %3, i32 0)
          to label %invoke.cont8 unwind label %lpad5, !dbg !6025

invoke.cont8:                                     ; preds = %invoke.cont6
  %4 = load %"class.dealii::Vector"*, %"class.dealii::Vector"** %test_parameter.addr, align 8, !dbg !6026
  invoke void @_ZNK9libparest5Slave10Stationary12GlobalMatrix8C_and_CT1CIN6dealii12SparseMatrixIdEEE5vmultINS5_6VectorIdEESB_EEvRT0_RKT_(%"class.libparest::Slave::Stationary::GlobalMatrix::C_and_CT::C"* %call7, %"class.dealii::Vector"* dereferenceable(88) %call9, %"class.dealii::Vector"* dereferenceable(88) %4)
          to label %invoke.cont10 unwind label %lpad5, !dbg !6027

invoke.cont10:                                    ; preds = %invoke.cont8
  %global_matrix11 = getelementptr inbounds %"class.libparest::Slave::Stationary::Slave", %"class.libparest::Slave::Stationary::Slave"* %this1, i32 0, i32 1, !dbg !6028
  %5 = load %"class.libparest::Slave::Stationary::GlobalMatrix::Matrix"*, %"class.libparest::Slave::Stationary::GlobalMatrix::Matrix"** %global_matrix11, align 8, !dbg !6028
  %A_inverse = getelementptr inbounds %"class.libparest::Slave::Stationary::GlobalMatrix::Matrix", %"class.libparest::Slave::Stationary::GlobalMatrix::Matrix"* %5, i32 0, i32 6, !dbg !6029
  %call13 = invoke %"class.libparest::Slave::Stationary::GlobalMatrix::Matrix_A_Inverse"* @_ZNK6dealii12SmartPointerIN9libparest5Slave10Stationary12GlobalMatrix16Matrix_A_InverseIdEEEptEv(%"class.dealii::SmartPointer.61"* %A_inverse)
          to label %invoke.cont12 unwind label %lpad5, !dbg !6028

invoke.cont12:                                    ; preds = %invoke.cont10
  %6 = bitcast %"class.dealii::BlockVector"* %tmp to %"class.dealii::BlockVectorBase"*, !dbg !6030
  %call15 = invoke dereferenceable(88) %"class.dealii::Vector"* @_ZN6dealii15BlockVectorBaseINS_6VectorIdEEE5blockEj(%"class.dealii::BlockVectorBase"* %6, i32 0)
          to label %invoke.cont14 unwind label %lpad5, !dbg !6031

invoke.cont14:                                    ; preds = %invoke.cont12
  %7 = bitcast %"class.libparest::Slave::Stationary::GlobalMatrix::Matrix_A_Inverse"* %call13 to void (%"class.libparest::Slave::Stationary::GlobalMatrix::Matrix_A_Inverse"*, %"class.dealii::Vector"*)***, !dbg !6032
  %vtable = load void (%"class.libparest::Slave::Stationary::GlobalMatrix::Matrix_A_Inverse"*, %"class.dealii::Vector"*)**, void (%"class.libparest::Slave::Stationary::GlobalMatrix::Matrix_A_Inverse"*, %"class.dealii::Vector"*)*** %7, align 8, !dbg !6032
  %vfn = getelementptr inbounds void (%"class.libparest::Slave::Stationary::GlobalMatrix::Matrix_A_Inverse"*, %"class.dealii::Vector"*)*, void (%"class.libparest::Slave::Stationary::GlobalMatrix::Matrix_A_Inverse"*, %"class.dealii::Vector"*)** %vtable, i64 2, !dbg !6032
  %8 = load void (%"class.libparest::Slave::Stationary::GlobalMatrix::Matrix_A_Inverse"*, %"class.dealii::Vector"*)*, void (%"class.libparest::Slave::Stationary::GlobalMatrix::Matrix_A_Inverse"*, %"class.dealii::Vector"*)** %vfn, align 8, !dbg !6032
  invoke void %8(%"class.libparest::Slave::Stationary::GlobalMatrix::Matrix_A_Inverse"* %call13, %"class.dealii::Vector"* dereferenceable(88) %call15)
          to label %invoke.cont16 unwind label %lpad5, !dbg !6032

invoke.cont16:                                    ; preds = %invoke.cont14
  %global_matrix17 = getelementptr inbounds %"class.libparest::Slave::Stationary::Slave", %"class.libparest::Slave::Stationary::Slave"* %this1, i32 0, i32 1, !dbg !6033
  %9 = load %"class.libparest::Slave::Stationary::GlobalMatrix::Matrix"*, %"class.libparest::Slave::Stationary::GlobalMatrix::Matrix"** %global_matrix17, align 8, !dbg !6033
  %M = getelementptr inbounds %"class.libparest::Slave::Stationary::GlobalMatrix::Matrix", %"class.libparest::Slave::Stationary::GlobalMatrix::Matrix"* %9, i32 0, i32 2, !dbg !6034
  %call19 = invoke %"class.dealii::SparseMatrix"* @_ZNK6dealii12SmartPointerINS_12SparseMatrixIdEEEptEv(%"class.dealii::SmartPointer.36"* %M)
          to label %invoke.cont18 unwind label %lpad5, !dbg !6033

invoke.cont18:                                    ; preds = %invoke.cont16
  %10 = bitcast %"class.dealii::BlockVector"* %tmp to %"class.dealii::BlockVectorBase"*, !dbg !6035
  %call21 = invoke dereferenceable(88) %"class.dealii::Vector"* @_ZN6dealii15BlockVectorBaseINS_6VectorIdEEE5blockEj(%"class.dealii::BlockVectorBase"* %10, i32 1)
          to label %invoke.cont20 unwind label %lpad5, !dbg !6036

invoke.cont20:                                    ; preds = %invoke.cont18
  %11 = bitcast %"class.dealii::BlockVector"* %tmp to %"class.dealii::BlockVectorBase"*, !dbg !6037
  %call23 = invoke dereferenceable(88) %"class.dealii::Vector"* @_ZN6dealii15BlockVectorBaseINS_6VectorIdEEE5blockEj(%"class.dealii::BlockVectorBase"* %11, i32 0)
          to label %invoke.cont22 unwind label %lpad5, !dbg !6038

invoke.cont22:                                    ; preds = %invoke.cont20
  invoke void @_ZNK6dealii12SparseMatrixIdE5vmultINS_6VectorIdEES4_EEvRT_RKT0_(%"class.dealii::SparseMatrix"* %call19, %"class.dealii::Vector"* dereferenceable(88) %call21, %"class.dealii::Vector"* dereferenceable(88) %call23)
          to label %invoke.cont24 unwind label %lpad5, !dbg !6039

invoke.cont24:                                    ; preds = %invoke.cont22
  %global_matrix25 = getelementptr inbounds %"class.libparest::Slave::Stationary::Slave", %"class.libparest::Slave::Stationary::Slave"* %this1, i32 0, i32 1, !dbg !6040
  %12 = load %"class.libparest::Slave::Stationary::GlobalMatrix::Matrix"*, %"class.libparest::Slave::Stationary::GlobalMatrix::Matrix"** %global_matrix25, align 8, !dbg !6040
  %A_inverse26 = getelementptr inbounds %"class.libparest::Slave::Stationary::GlobalMatrix::Matrix", %"class.libparest::Slave::Stationary::GlobalMatrix::Matrix"* %12, i32 0, i32 6, !dbg !6041
  %call28 = invoke %"class.libparest::Slave::Stationary::GlobalMatrix::Matrix_A_Inverse"* @_ZNK6dealii12SmartPointerIN9libparest5Slave10Stationary12GlobalMatrix16Matrix_A_InverseIdEEEptEv(%"class.dealii::SmartPointer.61"* %A_inverse26)
          to label %invoke.cont27 unwind label %lpad5, !dbg !6040

invoke.cont27:                                    ; preds = %invoke.cont24
  %13 = bitcast %"class.dealii::BlockVector"* %tmp to %"class.dealii::BlockVectorBase"*, !dbg !6042
  %call30 = invoke dereferenceable(88) %"class.dealii::Vector"* @_ZN6dealii15BlockVectorBaseINS_6VectorIdEEE5blockEj(%"class.dealii::BlockVectorBase"* %13, i32 1)
          to label %invoke.cont29 unwind label %lpad5, !dbg !6043

invoke.cont29:                                    ; preds = %invoke.cont27
  %14 = bitcast %"class.libparest::Slave::Stationary::GlobalMatrix::Matrix_A_Inverse"* %call28 to void (%"class.libparest::Slave::Stationary::GlobalMatrix::Matrix_A_Inverse"*, %"class.dealii::Vector"*)***, !dbg !6044
  %vtable31 = load void (%"class.libparest::Slave::Stationary::GlobalMatrix::Matrix_A_Inverse"*, %"class.dealii::Vector"*)**, void (%"class.libparest::Slave::Stationary::GlobalMatrix::Matrix_A_Inverse"*, %"class.dealii::Vector"*)*** %14, align 8, !dbg !6044
  %vfn32 = getelementptr inbounds void (%"class.libparest::Slave::Stationary::GlobalMatrix::Matrix_A_Inverse"*, %"class.dealii::Vector"*)*, void (%"class.libparest::Slave::Stationary::GlobalMatrix::Matrix_A_Inverse"*, %"class.dealii::Vector"*)** %vtable31, i64 4, !dbg !6044
  %15 = load void (%"class.libparest::Slave::Stationary::GlobalMatrix::Matrix_A_Inverse"*, %"class.dealii::Vector"*)*, void (%"class.libparest::Slave::Stationary::GlobalMatrix::Matrix_A_Inverse"*, %"class.dealii::Vector"*)** %vfn32, align 8, !dbg !6044
  invoke void %15(%"class.libparest::Slave::Stationary::GlobalMatrix::Matrix_A_Inverse"* %call28, %"class.dealii::Vector"* dereferenceable(88) %call30)
          to label %invoke.cont33 unwind label %lpad5, !dbg !6044

invoke.cont33:                                    ; preds = %invoke.cont29
  %global_matrix34 = getelementptr inbounds %"class.libparest::Slave::Stationary::Slave", %"class.libparest::Slave::Stationary::Slave"* %this1, i32 0, i32 1, !dbg !6045
  %16 = load %"class.libparest::Slave::Stationary::GlobalMatrix::Matrix"*, %"class.libparest::Slave::Stationary::GlobalMatrix::Matrix"** %global_matrix34, align 8, !dbg !6045
  %C_T = getelementptr inbounds %"class.libparest::Slave::Stationary::GlobalMatrix::Matrix", %"class.libparest::Slave::Stationary::GlobalMatrix::Matrix"* %16, i32 0, i32 4, !dbg !6046
  %call36 = invoke %"class.libparest::Slave::Stationary::GlobalMatrix::C_and_CT::CT"* @_ZNK6dealii12SmartPointerIN9libparest5Slave10Stationary12GlobalMatrix8C_and_CT2CTINS_12SparseMatrixIdEEEEEptEv(%"class.dealii::SmartPointer.39"* %C_T)
          to label %invoke.cont35 unwind label %lpad5, !dbg !6045

invoke.cont35:                                    ; preds = %invoke.cont33
  %17 = load %"class.dealii::Vector"*, %"class.dealii::Vector"** %result.addr, align 8, !dbg !6047
  %18 = bitcast %"class.dealii::BlockVector"* %tmp to %"class.dealii::BlockVectorBase"*, !dbg !6048
  %call38 = invoke dereferenceable(88) %"class.dealii::Vector"* @_ZN6dealii15BlockVectorBaseINS_6VectorIdEEE5blockEj(%"class.dealii::BlockVectorBase"* %18, i32 1)
          to label %invoke.cont37 unwind label %lpad5, !dbg !6049

invoke.cont37:                                    ; preds = %invoke.cont35
  invoke void @_ZNK9libparest5Slave10Stationary12GlobalMatrix8C_and_CT2CTIN6dealii12SparseMatrixIdEEE5vmultINS5_6VectorIdEESB_EEvRT0_RKT_(%"class.libparest::Slave::Stationary::GlobalMatrix::C_and_CT::CT"* %call36, %"class.dealii::Vector"* dereferenceable(88) %17, %"class.dealii::Vector"* dereferenceable(88) %call38)
          to label %invoke.cont39 unwind label %lpad5, !dbg !6050

invoke.cont39:                                    ; preds = %invoke.cont37
  %19 = bitcast %"class.libparest::Slave::Stationary::Slave"* %this1 to %"class.libparest::Slave::Base"*, !dbg !6051
  call void @_ZNSaIcEC1Ev(%"class.std::allocator.19"* %ref.tmp41) #4, !dbg !6052
  invoke void @_ZNSt7__cxx1112basic_stringIcSt11char_traitsIcESaIcEEC1EPKcRKS3_(%"class.std::__cxx11::basic_string"* %ref.tmp40, i8* getelementptr inbounds ([13 x i8], [13 x i8]* @.str.11, i64 0, i64 0), %"class.std::allocator.19"* dereferenceable(1) %ref.tmp41)
          to label %invoke.cont43 unwind label %lpad42, !dbg !6052

invoke.cont43:                                    ; preds = %invoke.cont39
  invoke void @_ZNK9libparest5Slave4Base20write_program_statusERKNSt7__cxx1112basic_stringIcSt11char_traitsIcESaIcEEEb(%"class.libparest::Slave::Base"* %19, %"class.std::__cxx11::basic_string"* dereferenceable(32) %ref.tmp40, i1 zeroext false)
          to label %invoke.cont45 unwind label %lpad44, !dbg !6051

invoke.cont45:                                    ; preds = %invoke.cont43
  call void @_ZNSt7__cxx1112basic_stringIcSt11char_traitsIcESaIcEED1Ev(%"class.std::__cxx11::basic_string"* %ref.tmp40) #4, !dbg !6051
  call void @_ZNSaIcED1Ev(%"class.std::allocator.19"* %ref.tmp41) #4, !dbg !6051
  call void @_ZN6dealii11BlockVectorIdED1Ev(%"class.dealii::BlockVector"* %tmp) #4, !dbg !6053
  ret void, !dbg !6053

lpad:                                             ; preds = %entry
  %20 = landingpad { i8*, i32 }
          cleanup, !dbg !6053
  %21 = extractvalue { i8*, i32 } %20, 0, !dbg !6053
  store i8* %21, i8** %exn.slot, align 8, !dbg !6053
  %22 = extractvalue { i8*, i32 } %20, 1, !dbg !6053
  store i32 %22, i32* %ehselector.slot, align 4, !dbg !6053
  br label %ehcleanup, !dbg !6053

lpad3:                                            ; preds = %invoke.cont
  %23 = landingpad { i8*, i32 }
          cleanup, !dbg !6053
  %24 = extractvalue { i8*, i32 } %23, 0, !dbg !6053
  store i8* %24, i8** %exn.slot, align 8, !dbg !6053
  %25 = extractvalue { i8*, i32 } %23, 1, !dbg !6053
  store i32 %25, i32* %ehselector.slot, align 4, !dbg !6053
  call void @_ZNSt7__cxx1112basic_stringIcSt11char_traitsIcESaIcEED1Ev(%"class.std::__cxx11::basic_string"* %ref.tmp) #4, !dbg !6015
  br label %ehcleanup, !dbg !6015

ehcleanup:                                        ; preds = %lpad3, %lpad
  call void @_ZNSaIcED1Ev(%"class.std::allocator.19"* %ref.tmp2) #4, !dbg !6015
  br label %eh.resume, !dbg !6015

lpad5:                                            ; preds = %invoke.cont37, %invoke.cont35, %invoke.cont33, %invoke.cont29, %invoke.cont27, %invoke.cont24, %invoke.cont22, %invoke.cont20, %invoke.cont18, %invoke.cont16, %invoke.cont14, %invoke.cont12, %invoke.cont10, %invoke.cont8, %invoke.cont6, %invoke.cont4
  %26 = landingpad { i8*, i32 }
          cleanup, !dbg !6053
  %27 = extractvalue { i8*, i32 } %26, 0, !dbg !6053
  store i8* %27, i8** %exn.slot, align 8, !dbg !6053
  %28 = extractvalue { i8*, i32 } %26, 1, !dbg !6053
  store i32 %28, i32* %ehselector.slot, align 4, !dbg !6053
  br label %ehcleanup48, !dbg !6053

lpad42:                                           ; preds = %invoke.cont39
  %29 = landingpad { i8*, i32 }
          cleanup, !dbg !6053
  %30 = extractvalue { i8*, i32 } %29, 0, !dbg !6053
  store i8* %30, i8** %exn.slot, align 8, !dbg !6053
  %31 = extractvalue { i8*, i32 } %29, 1, !dbg !6053
  store i32 %31, i32* %ehselector.slot, align 4, !dbg !6053
  br label %ehcleanup47, !dbg !6053

lpad44:                                           ; preds = %invoke.cont43
  %32 = landingpad { i8*, i32 }
          cleanup, !dbg !6053
  %33 = extractvalue { i8*, i32 } %32, 0, !dbg !6053
  store i8* %33, i8** %exn.slot, align 8, !dbg !6053
  %34 = extractvalue { i8*, i32 } %32, 1, !dbg !6053
  store i32 %34, i32* %ehselector.slot, align 4, !dbg !6053
  call void @_ZNSt7__cxx1112basic_stringIcSt11char_traitsIcESaIcEED1Ev(%"class.std::__cxx11::basic_string"* %ref.tmp40) #4, !dbg !6051
  br label %ehcleanup47, !dbg !6051

ehcleanup47:                                      ; preds = %lpad44, %lpad42
  call void @_ZNSaIcED1Ev(%"class.std::allocator.19"* %ref.tmp41) #4, !dbg !6051
  br label %ehcleanup48, !dbg !6051

ehcleanup48:                                      ; preds = %ehcleanup47, %lpad5
  call void @_ZN6dealii11BlockVectorIdED1Ev(%"class.dealii::BlockVector"* %tmp) #4, !dbg !6053
  br label %eh.resume, !dbg !6053

eh.resume:                                        ; preds = %ehcleanup48, %ehcleanup
  %exn = load i8*, i8** %exn.slot, align 8, !dbg !6015
  %sel = load i32, i32* %ehselector.slot, align 4, !dbg !6015
  %lpad.val = insertvalue { i8*, i32 } undef, i8* %exn, 0, !dbg !6015
  %lpad.val49 = insertvalue { i8*, i32 } %lpad.val, i32 %sel, 1, !dbg !6015
  resume { i8*, i32 } %lpad.val49, !dbg !6015
}

; Function Attrs: noinline nounwind uwtable
define linkonce_odr dso_local %"class.libparest::Slave::Stationary::GlobalMatrix::C_and_CT::C"* @_ZNK6dealii12SmartPointerIN9libparest5Slave10Stationary12GlobalMatrix8C_and_CT1CINS_12SparseMatrixIdEEEEEptEv(%"class.dealii::SmartPointer.38"* %this) #1 comdat align 2 !dbg !6054 {
entry:
  %this.addr = alloca %"class.dealii::SmartPointer.38"*, align 8
  store %"class.dealii::SmartPointer.38"* %this, %"class.dealii::SmartPointer.38"** %this.addr, align 8
  call void @llvm.dbg.declare(metadata %"class.dealii::SmartPointer.38"** %this.addr, metadata !6102, metadata !DIExpression()), !dbg !6104
  %this1 = load %"class.dealii::SmartPointer.38"*, %"class.dealii::SmartPointer.38"** %this.addr, align 8
  %t = getelementptr inbounds %"class.dealii::SmartPointer.38", %"class.dealii::SmartPointer.38"* %this1, i32 0, i32 0, !dbg !6105
  %0 = load %"class.libparest::Slave::Stationary::GlobalMatrix::C_and_CT::C"*, %"class.libparest::Slave::Stationary::GlobalMatrix::C_and_CT::C"** %t, align 8, !dbg !6105
  ret %"class.libparest::Slave::Stationary::GlobalMatrix::C_and_CT::C"* %0, !dbg !6106
}

; Function Attrs: noinline uwtable
define linkonce_odr dso_local void @_ZNK9libparest5Slave10Stationary12GlobalMatrix8C_and_CT1CIN6dealii12SparseMatrixIdEEE5vmultINS5_6VectorIdEESB_EEvRT0_RKT_(%"class.libparest::Slave::Stationary::GlobalMatrix::C_and_CT::C"* %this, %"class.dealii::Vector"* dereferenceable(88) %dst, %"class.dealii::Vector"* dereferenceable(88) %src) #0 comdat align 2 !dbg !6107 {
entry:
  %this.addr = alloca %"class.libparest::Slave::Stationary::GlobalMatrix::C_and_CT::C"*, align 8
  %dst.addr = alloca %"class.dealii::Vector"*, align 8
  %src.addr = alloca %"class.dealii::Vector"*, align 8
  store %"class.libparest::Slave::Stationary::GlobalMatrix::C_and_CT::C"* %this, %"class.libparest::Slave::Stationary::GlobalMatrix::C_and_CT::C"** %this.addr, align 8
  call void @llvm.dbg.declare(metadata %"class.libparest::Slave::Stationary::GlobalMatrix::C_and_CT::C"** %this.addr, metadata !6113, metadata !DIExpression()), !dbg !6115
  store %"class.dealii::Vector"* %dst, %"class.dealii::Vector"** %dst.addr, align 8
  call void @llvm.dbg.declare(metadata %"class.dealii::Vector"** %dst.addr, metadata !6116, metadata !DIExpression()), !dbg !6117
  store %"class.dealii::Vector"* %src, %"class.dealii::Vector"** %src.addr, align 8
  call void @llvm.dbg.declare(metadata %"class.dealii::Vector"** %src.addr, metadata !6118, metadata !DIExpression()), !dbg !6119
  %this1 = load %"class.libparest::Slave::Stationary::GlobalMatrix::C_and_CT::C"*, %"class.libparest::Slave::Stationary::GlobalMatrix::C_and_CT::C"** %this.addr, align 8
  %0 = bitcast %"class.libparest::Slave::Stationary::GlobalMatrix::C_and_CT::C"* %this1 to %"class.libparest::Slave::Stationary::GlobalMatrix::C_and_CT::Base"*, !dbg !6120
  %mutex = getelementptr inbounds %"class.libparest::Slave::Stationary::GlobalMatrix::C_and_CT::Base", %"class.libparest::Slave::Stationary::GlobalMatrix::C_and_CT::Base"* %0, i32 0, i32 4, !dbg !6120
  %1 = load %"class.dealii::Threads::DummyThreadMutex"*, %"class.dealii::Threads::DummyThreadMutex"** %mutex, align 8, !dbg !6120
  call void @_ZNK6dealii7Threads16DummyThreadMutex7acquireEv(%"class.dealii::Threads::DummyThreadMutex"* %1), !dbg !6121
  %2 = bitcast %"class.libparest::Slave::Stationary::GlobalMatrix::C_and_CT::C"* %this1 to %"class.libparest::Slave::Stationary::GlobalMatrix::C_and_CT::Base"*, !dbg !6122
  %transfer_matrix = getelementptr inbounds %"class.libparest::Slave::Stationary::GlobalMatrix::C_and_CT::Base", %"class.libparest::Slave::Stationary::GlobalMatrix::C_and_CT::Base"* %2, i32 0, i32 2, !dbg !6122
  %call = call %"class.dealii::SparseMatrix"* @_ZNK6dealii12SmartPointerIKNS_12SparseMatrixIdEEEptEv(%"class.dealii::SmartPointer.99"* %transfer_matrix), !dbg !6123
  %3 = bitcast %"class.libparest::Slave::Stationary::GlobalMatrix::C_and_CT::C"* %this1 to %"class.libparest::Slave::Stationary::GlobalMatrix::C_and_CT::Base"*, !dbg !6124
  %tmp = getelementptr inbounds %"class.libparest::Slave::Stationary::GlobalMatrix::C_and_CT::Base", %"class.libparest::Slave::Stationary::GlobalMatrix::C_and_CT::Base"* %3, i32 0, i32 3, !dbg !6124
  %4 = load %"class.dealii::Vector"*, %"class.dealii::Vector"** %tmp, align 8, !dbg !6124
  %5 = load %"class.dealii::Vector"*, %"class.dealii::Vector"** %src.addr, align 8, !dbg !6125
  call void @_ZNK6dealii12SparseMatrixIdE5vmultINS_6VectorIdEES4_EEvRT_RKT0_(%"class.dealii::SparseMatrix"* %call, %"class.dealii::Vector"* dereferenceable(88) %4, %"class.dealii::Vector"* dereferenceable(88) %5), !dbg !6126
  %6 = bitcast %"class.libparest::Slave::Stationary::GlobalMatrix::C_and_CT::C"* %this1 to %"class.libparest::Slave::Stationary::GlobalMatrix::C_and_CT::Base"*, !dbg !6127
  %C = getelementptr inbounds %"class.libparest::Slave::Stationary::GlobalMatrix::C_and_CT::Base", %"class.libparest::Slave::Stationary::GlobalMatrix::C_and_CT::Base"* %6, i32 0, i32 1, !dbg !6127
  %call2 = call %"class.dealii::SparseMatrix"* @_ZNK6dealii12SmartPointerIKNS_12SparseMatrixIdEEEptEv(%"class.dealii::SmartPointer.99"* %C), !dbg !6128
  %7 = load %"class.dealii::Vector"*, %"class.dealii::Vector"** %dst.addr, align 8, !dbg !6129
  %8 = bitcast %"class.libparest::Slave::Stationary::GlobalMatrix::C_and_CT::C"* %this1 to %"class.libparest::Slave::Stationary::GlobalMatrix::C_and_CT::Base"*, !dbg !6130
  %tmp3 = getelementptr inbounds %"class.libparest::Slave::Stationary::GlobalMatrix::C_and_CT::Base", %"class.libparest::Slave::Stationary::GlobalMatrix::C_and_CT::Base"* %8, i32 0, i32 3, !dbg !6130
  %9 = load %"class.dealii::Vector"*, %"class.dealii::Vector"** %tmp3, align 8, !dbg !6130
  call void @_ZNK6dealii12SparseMatrixIdE5vmultINS_6VectorIdEES4_EEvRT_RKT0_(%"class.dealii::SparseMatrix"* %call2, %"class.dealii::Vector"* dereferenceable(88) %7, %"class.dealii::Vector"* dereferenceable(88) %9), !dbg !6131
  %10 = bitcast %"class.libparest::Slave::Stationary::GlobalMatrix::C_and_CT::C"* %this1 to %"class.libparest::Slave::Stationary::GlobalMatrix::C_and_CT::Base"*, !dbg !6132
  %mutex4 = getelementptr inbounds %"class.libparest::Slave::Stationary::GlobalMatrix::C_and_CT::Base", %"class.libparest::Slave::Stationary::GlobalMatrix::C_and_CT::Base"* %10, i32 0, i32 4, !dbg !6132
  %11 = load %"class.dealii::Threads::DummyThreadMutex"*, %"class.dealii::Threads::DummyThreadMutex"** %mutex4, align 8, !dbg !6132
  call void @_ZNK6dealii7Threads16DummyThreadMutex7releaseEv(%"class.dealii::Threads::DummyThreadMutex"* %11), !dbg !6133
  ret void, !dbg !6134
}

; Function Attrs: noinline uwtable
define weak_odr dso_local void @_ZN9libparest5Slave10Stationary5SlaveILi3EdE15compute_updatesERKN6dealii6VectorIdEE(%"class.libparest::Slave::Stationary::Slave"* %this, %"class.dealii::Vector"* dereferenceable(88) %delta_a) unnamed_addr #0 comdat align 2 personality i8* bitcast (i32 (...)* @__gxx_personality_v0 to i8*) !dbg !6135 {
entry:
  %this.addr = alloca %"class.libparest::Slave::Stationary::Slave"*, align 8
  %delta_a.addr = alloca %"class.dealii::Vector"*, align 8
  %ref.tmp = alloca %"class.std::__cxx11::basic_string", align 8
  %ref.tmp2 = alloca %"class.std::allocator.19", align 1
  %exn.slot = alloca i8*
  %ehselector.slot = alloca i32
  %tmp = alloca %"class.dealii::BlockVector", align 8
  %ref.tmp99 = alloca %"class.std::__cxx11::basic_string", align 8
  %ref.tmp100 = alloca %"class.std::allocator.19", align 1
  store %"class.libparest::Slave::Stationary::Slave"* %this, %"class.libparest::Slave::Stationary::Slave"** %this.addr, align 8
  call void @llvm.dbg.declare(metadata %"class.libparest::Slave::Stationary::Slave"** %this.addr, metadata !6136, metadata !DIExpression()), !dbg !6137
  store %"class.dealii::Vector"* %delta_a, %"class.dealii::Vector"** %delta_a.addr, align 8
  call void @llvm.dbg.declare(metadata %"class.dealii::Vector"** %delta_a.addr, metadata !6138, metadata !DIExpression()), !dbg !6139
  %this1 = load %"class.libparest::Slave::Stationary::Slave"*, %"class.libparest::Slave::Stationary::Slave"** %this.addr, align 8
  %0 = bitcast %"class.libparest::Slave::Stationary::Slave"* %this1 to %"class.libparest::Slave::Base"*, !dbg !6140
  call void @_ZNSaIcEC1Ev(%"class.std::allocator.19"* %ref.tmp2) #4, !dbg !6141
  invoke void @_ZNSt7__cxx1112basic_stringIcSt11char_traitsIcESaIcEEC1EPKcRKS3_(%"class.std::__cxx11::basic_string"* %ref.tmp, i8* getelementptr inbounds ([13 x i8], [13 x i8]* @.str.12, i64 0, i64 0), %"class.std::allocator.19"* dereferenceable(1) %ref.tmp2)
          to label %invoke.cont unwind label %lpad, !dbg !6141

invoke.cont:                                      ; preds = %entry
  invoke void @_ZNK9libparest5Slave4Base20write_program_statusERKNSt7__cxx1112basic_stringIcSt11char_traitsIcESaIcEEEb(%"class.libparest::Slave::Base"* %0, %"class.std::__cxx11::basic_string"* dereferenceable(32) %ref.tmp, i1 zeroext true)
          to label %invoke.cont4 unwind label %lpad3, !dbg !6140

invoke.cont4:                                     ; preds = %invoke.cont
  call void @_ZNSt7__cxx1112basic_stringIcSt11char_traitsIcESaIcEED1Ev(%"class.std::__cxx11::basic_string"* %ref.tmp) #4, !dbg !6140
  call void @_ZNSaIcED1Ev(%"class.std::allocator.19"* %ref.tmp2) #4, !dbg !6140
  call void @llvm.dbg.declare(metadata %"class.dealii::BlockVector"* %tmp, metadata !6142, metadata !DIExpression()), !dbg !6143
  %state_discretization = getelementptr inbounds %"class.libparest::Slave::Stationary::Slave", %"class.libparest::Slave::Stationary::Slave"* %this1, i32 0, i32 7, !dbg !6144
  %call = call %"class.libparest::Slave::Stationary::Discretization::Base"* @_ZNK6dealii12SmartPointerIN9libparest5Slave10Stationary14Discretization4BaseILi3EEEEptEv(%"class.dealii::SmartPointer.34"* %state_discretization), !dbg !6144
  %dof_handlers = getelementptr inbounds %"class.libparest::Slave::Stationary::Discretization::Base", %"class.libparest::Slave::Stationary::Discretization::Base"* %call, i32 0, i32 3, !dbg !6145
  %1 = load %"class.libparest::Slave::Stationary::Discretization::DoFHandlers"*, %"class.libparest::Slave::Stationary::Discretization::DoFHandlers"** %dof_handlers, align 8, !dbg !6145
  %block_sizes = getelementptr inbounds %"class.libparest::Slave::Stationary::Discretization::DoFHandlers", %"class.libparest::Slave::Stationary::Discretization::DoFHandlers"* %1, i32 0, i32 7, !dbg !6146
  call void @_ZN6dealii11BlockVectorIdEC1ERKSt6vectorIjSaIjEE(%"class.dealii::BlockVector"* %tmp, %"class.std::vector.27"* dereferenceable(24) %block_sizes), !dbg !6143
  %state_discretization5 = getelementptr inbounds %"class.libparest::Slave::Stationary::Slave", %"class.libparest::Slave::Stationary::Slave"* %this1, i32 0, i32 7, !dbg !6147
  %call8 = invoke %"class.libparest::Slave::Stationary::Discretization::Base"* @_ZNK6dealii12SmartPointerIN9libparest5Slave10Stationary14Discretization4BaseILi3EEEEptEv(%"class.dealii::SmartPointer.34"* %state_discretization5)
          to label %invoke.cont7 unwind label %lpad6, !dbg !6147

invoke.cont7:                                     ; preds = %invoke.cont4
  %dof_handlers9 = getelementptr inbounds %"class.libparest::Slave::Stationary::Discretization::Base", %"class.libparest::Slave::Stationary::Discretization::Base"* %call8, i32 0, i32 3, !dbg !6148
  %2 = load %"class.libparest::Slave::Stationary::Discretization::DoFHandlers"*, %"class.libparest::Slave::Stationary::Discretization::DoFHandlers"** %dof_handlers9, align 8, !dbg !6148
  %3 = load %"class.dealii::Vector"*, %"class.dealii::Vector"** %delta_a.addr, align 8, !dbg !6149
  %4 = bitcast %"class.dealii::BlockVector"* %tmp to %"class.dealii::BlockVectorBase"*, !dbg !6150
  %call11 = invoke dereferenceable(88) %"class.dealii::Vector"* @_ZN6dealii15BlockVectorBaseINS_6VectorIdEEE5blockEj(%"class.dealii::BlockVectorBase"* %4, i32 2)
          to label %invoke.cont10 unwind label %lpad6, !dbg !6151

invoke.cont10:                                    ; preds = %invoke.cont7
  invoke void @_ZNK9libparest5Slave10Stationary14Discretization11DoFHandlersILi3EE16expand_parameterERKN6dealii6VectorIdEERS7_(%"class.libparest::Slave::Stationary::Discretization::DoFHandlers"* %2, %"class.dealii::Vector"* dereferenceable(88) %3, %"class.dealii::Vector"* dereferenceable(88) %call11)
          to label %invoke.cont12 unwind label %lpad6, !dbg !6152

invoke.cont12:                                    ; preds = %invoke.cont10
  %update = getelementptr inbounds %"class.libparest::Slave::Stationary::Slave", %"class.libparest::Slave::Stationary::Slave"* %this1, i32 0, i32 3, !dbg !6153
  %state_discretization13 = getelementptr inbounds %"class.libparest::Slave::Stationary::Slave", %"class.libparest::Slave::Stationary::Slave"* %this1, i32 0, i32 7, !dbg !6154
  %call15 = invoke %"class.libparest::Slave::Stationary::Discretization::Base"* @_ZNK6dealii12SmartPointerIN9libparest5Slave10Stationary14Discretization4BaseILi3EEEEptEv(%"class.dealii::SmartPointer.34"* %state_discretization13)
          to label %invoke.cont14 unwind label %lpad6, !dbg !6154

invoke.cont14:                                    ; preds = %invoke.cont12
  %dof_handlers16 = getelementptr inbounds %"class.libparest::Slave::Stationary::Discretization::Base", %"class.libparest::Slave::Stationary::Discretization::Base"* %call15, i32 0, i32 3, !dbg !6155
  %5 = load %"class.libparest::Slave::Stationary::Discretization::DoFHandlers"*, %"class.libparest::Slave::Stationary::Discretization::DoFHandlers"** %dof_handlers16, align 8, !dbg !6155
  %block_sizes17 = getelementptr inbounds %"class.libparest::Slave::Stationary::Discretization::DoFHandlers", %"class.libparest::Slave::Stationary::Discretization::DoFHandlers"* %5, i32 0, i32 7, !dbg !6156
  invoke void @_ZN6dealii11BlockVectorIdE6reinitERKSt6vectorIjSaIjEEb(%"class.dealii::BlockVector"* %update, %"class.std::vector.27"* dereferenceable(24) %block_sizes17, i1 zeroext false)
          to label %invoke.cont18 unwind label %lpad6, !dbg !6157

invoke.cont18:                                    ; preds = %invoke.cont14
  %6 = bitcast %"class.dealii::BlockVector"* %tmp to %"class.dealii::BlockVectorBase"*, !dbg !6158
  %call20 = invoke dereferenceable(88) %"class.dealii::Vector"* @_ZN6dealii15BlockVectorBaseINS_6VectorIdEEE5blockEj(%"class.dealii::BlockVectorBase"* %6, i32 2)
          to label %invoke.cont19 unwind label %lpad6, !dbg !6159

invoke.cont19:                                    ; preds = %invoke.cont18
  %update21 = getelementptr inbounds %"class.libparest::Slave::Stationary::Slave", %"class.libparest::Slave::Stationary::Slave"* %this1, i32 0, i32 3, !dbg !6160
  %7 = bitcast %"class.dealii::BlockVector"* %update21 to %"class.dealii::BlockVectorBase"*, !dbg !6160
  %call23 = invoke dereferenceable(88) %"class.dealii::Vector"* @_ZN6dealii15BlockVectorBaseINS_6VectorIdEEE5blockEj(%"class.dealii::BlockVectorBase"* %7, i32 2)
          to label %invoke.cont22 unwind label %lpad6, !dbg !6161

invoke.cont22:                                    ; preds = %invoke.cont19
  %call25 = invoke dereferenceable(88) %"class.dealii::Vector"* @_ZN6dealii6VectorIdEaSERKS1_(%"class.dealii::Vector"* %call23, %"class.dealii::Vector"* dereferenceable(88) %call20)
          to label %invoke.cont24 unwind label %lpad6, !dbg !6162

invoke.cont24:                                    ; preds = %invoke.cont22
  %global_matrix = getelementptr inbounds %"class.libparest::Slave::Stationary::Slave", %"class.libparest::Slave::Stationary::Slave"* %this1, i32 0, i32 1, !dbg !6163
  %8 = load %"class.libparest::Slave::Stationary::GlobalMatrix::Matrix"*, %"class.libparest::Slave::Stationary::GlobalMatrix::Matrix"** %global_matrix, align 8, !dbg !6163
  %C = getelementptr inbounds %"class.libparest::Slave::Stationary::GlobalMatrix::Matrix", %"class.libparest::Slave::Stationary::GlobalMatrix::Matrix"* %8, i32 0, i32 3, !dbg !6164
  %call27 = invoke %"class.libparest::Slave::Stationary::GlobalMatrix::C_and_CT::C"* @_ZNK6dealii12SmartPointerIN9libparest5Slave10Stationary12GlobalMatrix8C_and_CT1CINS_12SparseMatrixIdEEEEEptEv(%"class.dealii::SmartPointer.38"* %C)
          to label %invoke.cont26 unwind label %lpad6, !dbg !6163

invoke.cont26:                                    ; preds = %invoke.cont24
  %9 = bitcast %"class.dealii::BlockVector"* %tmp to %"class.dealii::BlockVectorBase"*, !dbg !6165
  %call29 = invoke dereferenceable(88) %"class.dealii::Vector"* @_ZN6dealii15BlockVectorBaseINS_6VectorIdEEE5blockEj(%"class.dealii::BlockVectorBase"* %9, i32 0)
          to label %invoke.cont28 unwind label %lpad6, !dbg !6166

invoke.cont28:                                    ; preds = %invoke.cont26
  %10 = load %"class.dealii::Vector"*, %"class.dealii::Vector"** %delta_a.addr, align 8, !dbg !6167
  invoke void @_ZNK9libparest5Slave10Stationary12GlobalMatrix8C_and_CT1CIN6dealii12SparseMatrixIdEEE5vmultINS5_6VectorIdEESB_EEvRT0_RKT_(%"class.libparest::Slave::Stationary::GlobalMatrix::C_and_CT::C"* %call27, %"class.dealii::Vector"* dereferenceable(88) %call29, %"class.dealii::Vector"* dereferenceable(88) %10)
          to label %invoke.cont30 unwind label %lpad6, !dbg !6168

invoke.cont30:                                    ; preds = %invoke.cont28
  %right_hand_side = getelementptr inbounds %"class.libparest::Slave::Stationary::Slave", %"class.libparest::Slave::Stationary::Slave"* %this1, i32 0, i32 5, !dbg !6169
  %11 = bitcast %"class.dealii::BlockVector"* %right_hand_side to %"class.dealii::BlockVectorBase"*, !dbg !6169
  %call32 = invoke dereferenceable(88) %"class.dealii::Vector"* @_ZN6dealii15BlockVectorBaseINS_6VectorIdEEE5blockEj(%"class.dealii::BlockVectorBase"* %11, i32 1)
          to label %invoke.cont31 unwind label %lpad6, !dbg !6170

invoke.cont31:                                    ; preds = %invoke.cont30
  %update33 = getelementptr inbounds %"class.libparest::Slave::Stationary::Slave", %"class.libparest::Slave::Stationary::Slave"* %this1, i32 0, i32 3, !dbg !6171
  %12 = bitcast %"class.dealii::BlockVector"* %update33 to %"class.dealii::BlockVectorBase"*, !dbg !6171
  %call35 = invoke dereferenceable(88) %"class.dealii::Vector"* @_ZN6dealii15BlockVectorBaseINS_6VectorIdEEE5blockEj(%"class.dealii::BlockVectorBase"* %12, i32 0)
          to label %invoke.cont34 unwind label %lpad6, !dbg !6172

invoke.cont34:                                    ; preds = %invoke.cont31
  %call37 = invoke dereferenceable(88) %"class.dealii::Vector"* @_ZN6dealii6VectorIdEaSERKS1_(%"class.dealii::Vector"* %call35, %"class.dealii::Vector"* dereferenceable(88) %call32)
          to label %invoke.cont36 unwind label %lpad6, !dbg !6173

invoke.cont36:                                    ; preds = %invoke.cont34
  %13 = bitcast %"class.dealii::BlockVector"* %tmp to %"class.dealii::BlockVectorBase"*, !dbg !6174
  %call39 = invoke dereferenceable(88) %"class.dealii::Vector"* @_ZN6dealii15BlockVectorBaseINS_6VectorIdEEE5blockEj(%"class.dealii::BlockVectorBase"* %13, i32 0)
          to label %invoke.cont38 unwind label %lpad6, !dbg !6175

invoke.cont38:                                    ; preds = %invoke.cont36
  %update40 = getelementptr inbounds %"class.libparest::Slave::Stationary::Slave", %"class.libparest::Slave::Stationary::Slave"* %this1, i32 0, i32 3, !dbg !6176
  %14 = bitcast %"class.dealii::BlockVector"* %update40 to %"class.dealii::BlockVectorBase"*, !dbg !6176
  %call42 = invoke dereferenceable(88) %"class.dealii::Vector"* @_ZN6dealii15BlockVectorBaseINS_6VectorIdEEE5blockEj(%"class.dealii::BlockVectorBase"* %14, i32 0)
          to label %invoke.cont41 unwind label %lpad6, !dbg !6177

invoke.cont41:                                    ; preds = %invoke.cont38
  %call44 = invoke dereferenceable(88) %"class.dealii::Vector"* @_ZN6dealii6VectorIdEmIERKS1_(%"class.dealii::Vector"* %call42, %"class.dealii::Vector"* dereferenceable(88) %call39)
          to label %invoke.cont43 unwind label %lpad6, !dbg !6178

invoke.cont43:                                    ; preds = %invoke.cont41
  %global_matrix45 = getelementptr inbounds %"class.libparest::Slave::Stationary::Slave", %"class.libparest::Slave::Stationary::Slave"* %this1, i32 0, i32 1, !dbg !6179
  %15 = load %"class.libparest::Slave::Stationary::GlobalMatrix::Matrix"*, %"class.libparest::Slave::Stationary::GlobalMatrix::Matrix"** %global_matrix45, align 8, !dbg !6179
  %A_inverse = getelementptr inbounds %"class.libparest::Slave::Stationary::GlobalMatrix::Matrix", %"class.libparest::Slave::Stationary::GlobalMatrix::Matrix"* %15, i32 0, i32 6, !dbg !6180
  %call47 = invoke %"class.libparest::Slave::Stationary::GlobalMatrix::Matrix_A_Inverse"* @_ZNK6dealii12SmartPointerIN9libparest5Slave10Stationary12GlobalMatrix16Matrix_A_InverseIdEEEptEv(%"class.dealii::SmartPointer.61"* %A_inverse)
          to label %invoke.cont46 unwind label %lpad6, !dbg !6179

invoke.cont46:                                    ; preds = %invoke.cont43
  %update48 = getelementptr inbounds %"class.libparest::Slave::Stationary::Slave", %"class.libparest::Slave::Stationary::Slave"* %this1, i32 0, i32 3, !dbg !6181
  %16 = bitcast %"class.dealii::BlockVector"* %update48 to %"class.dealii::BlockVectorBase"*, !dbg !6181
  %call50 = invoke dereferenceable(88) %"class.dealii::Vector"* @_ZN6dealii15BlockVectorBaseINS_6VectorIdEEE5blockEj(%"class.dealii::BlockVectorBase"* %16, i32 0)
          to label %invoke.cont49 unwind label %lpad6, !dbg !6182

invoke.cont49:                                    ; preds = %invoke.cont46
  %17 = bitcast %"class.libparest::Slave::Stationary::GlobalMatrix::Matrix_A_Inverse"* %call47 to void (%"class.libparest::Slave::Stationary::GlobalMatrix::Matrix_A_Inverse"*, %"class.dealii::Vector"*)***, !dbg !6183
  %vtable = load void (%"class.libparest::Slave::Stationary::GlobalMatrix::Matrix_A_Inverse"*, %"class.dealii::Vector"*)**, void (%"class.libparest::Slave::Stationary::GlobalMatrix::Matrix_A_Inverse"*, %"class.dealii::Vector"*)*** %17, align 8, !dbg !6183
  %vfn = getelementptr inbounds void (%"class.libparest::Slave::Stationary::GlobalMatrix::Matrix_A_Inverse"*, %"class.dealii::Vector"*)*, void (%"class.libparest::Slave::Stationary::GlobalMatrix::Matrix_A_Inverse"*, %"class.dealii::Vector"*)** %vtable, i64 2, !dbg !6183
  %18 = load void (%"class.libparest::Slave::Stationary::GlobalMatrix::Matrix_A_Inverse"*, %"class.dealii::Vector"*)*, void (%"class.libparest::Slave::Stationary::GlobalMatrix::Matrix_A_Inverse"*, %"class.dealii::Vector"*)** %vfn, align 8, !dbg !6183
  invoke void %18(%"class.libparest::Slave::Stationary::GlobalMatrix::Matrix_A_Inverse"* %call47, %"class.dealii::Vector"* dereferenceable(88) %call50)
          to label %invoke.cont51 unwind label %lpad6, !dbg !6183

invoke.cont51:                                    ; preds = %invoke.cont49
  %state_discretization52 = getelementptr inbounds %"class.libparest::Slave::Stationary::Slave", %"class.libparest::Slave::Stationary::Slave"* %this1, i32 0, i32 7, !dbg !6184
  %call54 = invoke %"class.libparest::Slave::Stationary::Discretization::Base"* @_ZNK6dealii12SmartPointerIN9libparest5Slave10Stationary14Discretization4BaseILi3EEEEptEv(%"class.dealii::SmartPointer.34"* %state_discretization52)
          to label %invoke.cont53 unwind label %lpad6, !dbg !6184

invoke.cont53:                                    ; preds = %invoke.cont51
  %dof_handlers55 = getelementptr inbounds %"class.libparest::Slave::Stationary::Discretization::Base", %"class.libparest::Slave::Stationary::Discretization::Base"* %call54, i32 0, i32 3, !dbg !6185
  %19 = load %"class.libparest::Slave::Stationary::Discretization::DoFHandlers"*, %"class.libparest::Slave::Stationary::Discretization::DoFHandlers"** %dof_handlers55, align 8, !dbg !6185
  %constraints = getelementptr inbounds %"class.libparest::Slave::Stationary::Discretization::DoFHandlers", %"class.libparest::Slave::Stationary::Discretization::DoFHandlers"* %19, i32 0, i32 5, !dbg !6186
  %update56 = getelementptr inbounds %"class.libparest::Slave::Stationary::Slave", %"class.libparest::Slave::Stationary::Slave"* %this1, i32 0, i32 3, !dbg !6187
  invoke void @_ZNK6dealii16ConstraintMatrix10distributeINS_11BlockVectorIdEEEEvRT_(%"class.dealii::ConstraintMatrix"* %constraints, %"class.dealii::BlockVector"* dereferenceable(128) %update56)
          to label %invoke.cont57 unwind label %lpad6, !dbg !6188

invoke.cont57:                                    ; preds = %invoke.cont53
  %global_matrix58 = getelementptr inbounds %"class.libparest::Slave::Stationary::Slave", %"class.libparest::Slave::Stationary::Slave"* %this1, i32 0, i32 1, !dbg !6189
  %20 = load %"class.libparest::Slave::Stationary::GlobalMatrix::Matrix"*, %"class.libparest::Slave::Stationary::GlobalMatrix::Matrix"** %global_matrix58, align 8, !dbg !6189
  %M = getelementptr inbounds %"class.libparest::Slave::Stationary::GlobalMatrix::Matrix", %"class.libparest::Slave::Stationary::GlobalMatrix::Matrix"* %20, i32 0, i32 2, !dbg !6190
  %call60 = invoke %"class.dealii::SparseMatrix"* @_ZNK6dealii12SmartPointerINS_12SparseMatrixIdEEEptEv(%"class.dealii::SmartPointer.36"* %M)
          to label %invoke.cont59 unwind label %lpad6, !dbg !6189

invoke.cont59:                                    ; preds = %invoke.cont57
  %21 = bitcast %"class.dealii::BlockVector"* %tmp to %"class.dealii::BlockVectorBase"*, !dbg !6191
  %call62 = invoke dereferenceable(88) %"class.dealii::Vector"* @_ZN6dealii15BlockVectorBaseINS_6VectorIdEEE5blockEj(%"class.dealii::BlockVectorBase"* %21, i32 0)
          to label %invoke.cont61 unwind label %lpad6, !dbg !6192

invoke.cont61:                                    ; preds = %invoke.cont59
  %update63 = getelementptr inbounds %"class.libparest::Slave::Stationary::Slave", %"class.libparest::Slave::Stationary::Slave"* %this1, i32 0, i32 3, !dbg !6193
  %22 = bitcast %"class.dealii::BlockVector"* %update63 to %"class.dealii::BlockVectorBase"*, !dbg !6193
  %call65 = invoke dereferenceable(88) %"class.dealii::Vector"* @_ZN6dealii15BlockVectorBaseINS_6VectorIdEEE5blockEj(%"class.dealii::BlockVectorBase"* %22, i32 0)
          to label %invoke.cont64 unwind label %lpad6, !dbg !6194

invoke.cont64:                                    ; preds = %invoke.cont61
  invoke void @_ZNK6dealii12SparseMatrixIdE5vmultINS_6VectorIdEES4_EEvRT_RKT0_(%"class.dealii::SparseMatrix"* %call60, %"class.dealii::Vector"* dereferenceable(88) %call62, %"class.dealii::Vector"* dereferenceable(88) %call65)
          to label %invoke.cont66 unwind label %lpad6, !dbg !6195

invoke.cont66:                                    ; preds = %invoke.cont64
  %right_hand_side67 = getelementptr inbounds %"class.libparest::Slave::Stationary::Slave", %"class.libparest::Slave::Stationary::Slave"* %this1, i32 0, i32 5, !dbg !6196
  %23 = bitcast %"class.dealii::BlockVector"* %right_hand_side67 to %"class.dealii::BlockVectorBase"*, !dbg !6196
  %call69 = invoke dereferenceable(88) %"class.dealii::Vector"* @_ZN6dealii15BlockVectorBaseINS_6VectorIdEEE5blockEj(%"class.dealii::BlockVectorBase"* %23, i32 0)
          to label %invoke.cont68 unwind label %lpad6, !dbg !6197

invoke.cont68:                                    ; preds = %invoke.cont66
  %update70 = getelementptr inbounds %"class.libparest::Slave::Stationary::Slave", %"class.libparest::Slave::Stationary::Slave"* %this1, i32 0, i32 3, !dbg !6198
  %24 = bitcast %"class.dealii::BlockVector"* %update70 to %"class.dealii::BlockVectorBase"*, !dbg !6198
  %call72 = invoke dereferenceable(88) %"class.dealii::Vector"* @_ZN6dealii15BlockVectorBaseINS_6VectorIdEEE5blockEj(%"class.dealii::BlockVectorBase"* %24, i32 1)
          to label %invoke.cont71 unwind label %lpad6, !dbg !6199

invoke.cont71:                                    ; preds = %invoke.cont68
  %call74 = invoke dereferenceable(88) %"class.dealii::Vector"* @_ZN6dealii6VectorIdEaSERKS1_(%"class.dealii::Vector"* %call72, %"class.dealii::Vector"* dereferenceable(88) %call69)
          to label %invoke.cont73 unwind label %lpad6, !dbg !6200

invoke.cont73:                                    ; preds = %invoke.cont71
  %25 = bitcast %"class.dealii::BlockVector"* %tmp to %"class.dealii::BlockVectorBase"*, !dbg !6201
  %call76 = invoke dereferenceable(88) %"class.dealii::Vector"* @_ZN6dealii15BlockVectorBaseINS_6VectorIdEEE5blockEj(%"class.dealii::BlockVectorBase"* %25, i32 0)
          to label %invoke.cont75 unwind label %lpad6, !dbg !6202

invoke.cont75:                                    ; preds = %invoke.cont73
  %update77 = getelementptr inbounds %"class.libparest::Slave::Stationary::Slave", %"class.libparest::Slave::Stationary::Slave"* %this1, i32 0, i32 3, !dbg !6203
  %26 = bitcast %"class.dealii::BlockVector"* %update77 to %"class.dealii::BlockVectorBase"*, !dbg !6203
  %call79 = invoke dereferenceable(88) %"class.dealii::Vector"* @_ZN6dealii15BlockVectorBaseINS_6VectorIdEEE5blockEj(%"class.dealii::BlockVectorBase"* %26, i32 1)
          to label %invoke.cont78 unwind label %lpad6, !dbg !6204

invoke.cont78:                                    ; preds = %invoke.cont75
  %call81 = invoke dereferenceable(88) %"class.dealii::Vector"* @_ZN6dealii6VectorIdEmIERKS1_(%"class.dealii::Vector"* %call79, %"class.dealii::Vector"* dereferenceable(88) %call76)
          to label %invoke.cont80 unwind label %lpad6, !dbg !6205

invoke.cont80:                                    ; preds = %invoke.cont78
  %global_matrix82 = getelementptr inbounds %"class.libparest::Slave::Stationary::Slave", %"class.libparest::Slave::Stationary::Slave"* %this1, i32 0, i32 1, !dbg !6206
  %27 = load %"class.libparest::Slave::Stationary::GlobalMatrix::Matrix"*, %"class.libparest::Slave::Stationary::GlobalMatrix::Matrix"** %global_matrix82, align 8, !dbg !6206
  %A_inverse83 = getelementptr inbounds %"class.libparest::Slave::Stationary::GlobalMatrix::Matrix", %"class.libparest::Slave::Stationary::GlobalMatrix::Matrix"* %27, i32 0, i32 6, !dbg !6207
  %call85 = invoke %"class.libparest::Slave::Stationary::GlobalMatrix::Matrix_A_Inverse"* @_ZNK6dealii12SmartPointerIN9libparest5Slave10Stationary12GlobalMatrix16Matrix_A_InverseIdEEEptEv(%"class.dealii::SmartPointer.61"* %A_inverse83)
          to label %invoke.cont84 unwind label %lpad6, !dbg !6206

invoke.cont84:                                    ; preds = %invoke.cont80
  %update86 = getelementptr inbounds %"class.libparest::Slave::Stationary::Slave", %"class.libparest::Slave::Stationary::Slave"* %this1, i32 0, i32 3, !dbg !6208
  %28 = bitcast %"class.dealii::BlockVector"* %update86 to %"class.dealii::BlockVectorBase"*, !dbg !6208
  %call88 = invoke dereferenceable(88) %"class.dealii::Vector"* @_ZN6dealii15BlockVectorBaseINS_6VectorIdEEE5blockEj(%"class.dealii::BlockVectorBase"* %28, i32 1)
          to label %invoke.cont87 unwind label %lpad6, !dbg !6209

invoke.cont87:                                    ; preds = %invoke.cont84
  %29 = bitcast %"class.libparest::Slave::Stationary::GlobalMatrix::Matrix_A_Inverse"* %call85 to void (%"class.libparest::Slave::Stationary::GlobalMatrix::Matrix_A_Inverse"*, %"class.dealii::Vector"*)***, !dbg !6210
  %vtable89 = load void (%"class.libparest::Slave::Stationary::GlobalMatrix::Matrix_A_Inverse"*, %"class.dealii::Vector"*)**, void (%"class.libparest::Slave::Stationary::GlobalMatrix::Matrix_A_Inverse"*, %"class.dealii::Vector"*)*** %29, align 8, !dbg !6210
  %vfn90 = getelementptr inbounds void (%"class.libparest::Slave::Stationary::GlobalMatrix::Matrix_A_Inverse"*, %"class.dealii::Vector"*)*, void (%"class.libparest::Slave::Stationary::GlobalMatrix::Matrix_A_Inverse"*, %"class.dealii::Vector"*)** %vtable89, i64 4, !dbg !6210
  %30 = load void (%"class.libparest::Slave::Stationary::GlobalMatrix::Matrix_A_Inverse"*, %"class.dealii::Vector"*)*, void (%"class.libparest::Slave::Stationary::GlobalMatrix::Matrix_A_Inverse"*, %"class.dealii::Vector"*)** %vfn90, align 8, !dbg !6210
  invoke void %30(%"class.libparest::Slave::Stationary::GlobalMatrix::Matrix_A_Inverse"* %call85, %"class.dealii::Vector"* dereferenceable(88) %call88)
          to label %invoke.cont91 unwind label %lpad6, !dbg !6210

invoke.cont91:                                    ; preds = %invoke.cont87
  %state_discretization92 = getelementptr inbounds %"class.libparest::Slave::Stationary::Slave", %"class.libparest::Slave::Stationary::Slave"* %this1, i32 0, i32 7, !dbg !6211
  %call94 = invoke %"class.libparest::Slave::Stationary::Discretization::Base"* @_ZNK6dealii12SmartPointerIN9libparest5Slave10Stationary14Discretization4BaseILi3EEEEptEv(%"class.dealii::SmartPointer.34"* %state_discretization92)
          to label %invoke.cont93 unwind label %lpad6, !dbg !6211

invoke.cont93:                                    ; preds = %invoke.cont91
  %dof_handlers95 = getelementptr inbounds %"class.libparest::Slave::Stationary::Discretization::Base", %"class.libparest::Slave::Stationary::Discretization::Base"* %call94, i32 0, i32 3, !dbg !6212
  %31 = load %"class.libparest::Slave::Stationary::Discretization::DoFHandlers"*, %"class.libparest::Slave::Stationary::Discretization::DoFHandlers"** %dof_handlers95, align 8, !dbg !6212
  %constraints96 = getelementptr inbounds %"class.libparest::Slave::Stationary::Discretization::DoFHandlers", %"class.libparest::Slave::Stationary::Discretization::DoFHandlers"* %31, i32 0, i32 5, !dbg !6213
  %update97 = getelementptr inbounds %"class.libparest::Slave::Stationary::Slave", %"class.libparest::Slave::Stationary::Slave"* %this1, i32 0, i32 3, !dbg !6214
  invoke void @_ZNK6dealii16ConstraintMatrix10distributeINS_11BlockVectorIdEEEEvRT_(%"class.dealii::ConstraintMatrix"* %constraints96, %"class.dealii::BlockVector"* dereferenceable(128) %update97)
          to label %invoke.cont98 unwind label %lpad6, !dbg !6215

invoke.cont98:                                    ; preds = %invoke.cont93
  %32 = bitcast %"class.libparest::Slave::Stationary::Slave"* %this1 to %"class.libparest::Slave::Base"*, !dbg !6216
  call void @_ZNSaIcEC1Ev(%"class.std::allocator.19"* %ref.tmp100) #4, !dbg !6217
  invoke void @_ZNSt7__cxx1112basic_stringIcSt11char_traitsIcESaIcEEC1EPKcRKS3_(%"class.std::__cxx11::basic_string"* %ref.tmp99, i8* getelementptr inbounds ([13 x i8], [13 x i8]* @.str.12, i64 0, i64 0), %"class.std::allocator.19"* dereferenceable(1) %ref.tmp100)
          to label %invoke.cont102 unwind label %lpad101, !dbg !6217

invoke.cont102:                                   ; preds = %invoke.cont98
  invoke void @_ZNK9libparest5Slave4Base20write_program_statusERKNSt7__cxx1112basic_stringIcSt11char_traitsIcESaIcEEEb(%"class.libparest::Slave::Base"* %32, %"class.std::__cxx11::basic_string"* dereferenceable(32) %ref.tmp99, i1 zeroext false)
          to label %invoke.cont104 unwind label %lpad103, !dbg !6216

invoke.cont104:                                   ; preds = %invoke.cont102
  call void @_ZNSt7__cxx1112basic_stringIcSt11char_traitsIcESaIcEED1Ev(%"class.std::__cxx11::basic_string"* %ref.tmp99) #4, !dbg !6216
  call void @_ZNSaIcED1Ev(%"class.std::allocator.19"* %ref.tmp100) #4, !dbg !6216
  call void @_ZN6dealii11BlockVectorIdED1Ev(%"class.dealii::BlockVector"* %tmp) #4, !dbg !6218
  ret void, !dbg !6218

lpad:                                             ; preds = %entry
  %33 = landingpad { i8*, i32 }
          cleanup, !dbg !6218
  %34 = extractvalue { i8*, i32 } %33, 0, !dbg !6218
  store i8* %34, i8** %exn.slot, align 8, !dbg !6218
  %35 = extractvalue { i8*, i32 } %33, 1, !dbg !6218
  store i32 %35, i32* %ehselector.slot, align 4, !dbg !6218
  br label %ehcleanup, !dbg !6218

lpad3:                                            ; preds = %invoke.cont
  %36 = landingpad { i8*, i32 }
          cleanup, !dbg !6218
  %37 = extractvalue { i8*, i32 } %36, 0, !dbg !6218
  store i8* %37, i8** %exn.slot, align 8, !dbg !6218
  %38 = extractvalue { i8*, i32 } %36, 1, !dbg !6218
  store i32 %38, i32* %ehselector.slot, align 4, !dbg !6218
  call void @_ZNSt7__cxx1112basic_stringIcSt11char_traitsIcESaIcEED1Ev(%"class.std::__cxx11::basic_string"* %ref.tmp) #4, !dbg !6140
  br label %ehcleanup, !dbg !6140

ehcleanup:                                        ; preds = %lpad3, %lpad
  call void @_ZNSaIcED1Ev(%"class.std::allocator.19"* %ref.tmp2) #4, !dbg !6140
  br label %eh.resume, !dbg !6140

lpad6:                                            ; preds = %invoke.cont93, %invoke.cont91, %invoke.cont87, %invoke.cont84, %invoke.cont80, %invoke.cont78, %invoke.cont75, %invoke.cont73, %invoke.cont71, %invoke.cont68, %invoke.cont66, %invoke.cont64, %invoke.cont61, %invoke.cont59, %invoke.cont57, %invoke.cont53, %invoke.cont51, %invoke.cont49, %invoke.cont46, %invoke.cont43, %invoke.cont41, %invoke.cont38, %invoke.cont36, %invoke.cont34, %invoke.cont31, %invoke.cont30, %invoke.cont28, %invoke.cont26, %invoke.cont24, %invoke.cont22, %invoke.cont19, %invoke.cont18, %invoke.cont14, %invoke.cont12, %invoke.cont10, %invoke.cont7, %invoke.cont4
  %39 = landingpad { i8*, i32 }
          cleanup, !dbg !6218
  %40 = extractvalue { i8*, i32 } %39, 0, !dbg !6218
  store i8* %40, i8** %exn.slot, align 8, !dbg !6218
  %41 = extractvalue { i8*, i32 } %39, 1, !dbg !6218
  store i32 %41, i32* %ehselector.slot, align 4, !dbg !6218
  br label %ehcleanup107, !dbg !6218

lpad101:                                          ; preds = %invoke.cont98
  %42 = landingpad { i8*, i32 }
          cleanup, !dbg !6218
  %43 = extractvalue { i8*, i32 } %42, 0, !dbg !6218
  store i8* %43, i8** %exn.slot, align 8, !dbg !6218
  %44 = extractvalue { i8*, i32 } %42, 1, !dbg !6218
  store i32 %44, i32* %ehselector.slot, align 4, !dbg !6218
  br label %ehcleanup106, !dbg !6218

lpad103:                                          ; preds = %invoke.cont102
  %45 = landingpad { i8*, i32 }
          cleanup, !dbg !6218
  %46 = extractvalue { i8*, i32 } %45, 0, !dbg !6218
  store i8* %46, i8** %exn.slot, align 8, !dbg !6218
  %47 = extractvalue { i8*, i32 } %45, 1, !dbg !6218
  store i32 %47, i32* %ehselector.slot, align 4, !dbg !6218
  call void @_ZNSt7__cxx1112basic_stringIcSt11char_traitsIcESaIcEED1Ev(%"class.std::__cxx11::basic_string"* %ref.tmp99) #4, !dbg !6216
  br label %ehcleanup106, !dbg !6216

ehcleanup106:                                     ; preds = %lpad103, %lpad101
  call void @_ZNSaIcED1Ev(%"class.std::allocator.19"* %ref.tmp100) #4, !dbg !6216
  br label %ehcleanup107, !dbg !6216

ehcleanup107:                                     ; preds = %ehcleanup106, %lpad6
  call void @_ZN6dealii11BlockVectorIdED1Ev(%"class.dealii::BlockVector"* %tmp) #4, !dbg !6218
  br label %eh.resume, !dbg !6218

eh.resume:                                        ; preds = %ehcleanup107, %ehcleanup
  %exn = load i8*, i8** %exn.slot, align 8, !dbg !6140
  %sel = load i32, i32* %ehselector.slot, align 4, !dbg !6140
  %lpad.val = insertvalue { i8*, i32 } undef, i8* %exn, 0, !dbg !6140
  %lpad.val108 = insertvalue { i8*, i32 } %lpad.val, i32 %sel, 1, !dbg !6140
  resume { i8*, i32 } %lpad.val108, !dbg !6140
}

declare dso_local void @_ZNK9libparest5Slave10Stationary14Discretization11DoFHandlersILi3EE16expand_parameterERKN6dealii6VectorIdEERS7_(%"class.libparest::Slave::Stationary::Discretization::DoFHandlers"*, %"class.dealii::Vector"* dereferenceable(88), %"class.dealii::Vector"* dereferenceable(88)) #2

declare dso_local void @_ZN6dealii11BlockVectorIdE6reinitERKSt6vectorIjSaIjEEb(%"class.dealii::BlockVector"*, %"class.std::vector.27"* dereferenceable(24), i1 zeroext) #2

declare dso_local void @_ZNK6dealii16ConstraintMatrix10distributeINS_11BlockVectorIdEEEEvRT_(%"class.dealii::ConstraintMatrix"*, %"class.dealii::BlockVector"* dereferenceable(128)) #2

; Function Attrs: noinline uwtable
define weak_odr dso_local void @_ZN9libparest5Slave10Stationary5SlaveILi3EdE15perform_updatesERKN6dealii6VectorIdEEd(%"class.libparest::Slave::Stationary::Slave"* %this, %"class.dealii::Vector"* dereferenceable(88) %new_parameter, double %step_length) unnamed_addr #0 comdat align 2 personality i8* bitcast (i32 (...)* @__gxx_personality_v0 to i8*) !dbg !6219 {
entry:
  %this.addr = alloca %"class.libparest::Slave::Stationary::Slave"*, align 8
  %new_parameter.addr = alloca %"class.dealii::Vector"*, align 8
  %step_length.addr = alloca double, align 8
  %ref.tmp = alloca %"class.std::__cxx11::basic_string", align 8
  %ref.tmp2 = alloca %"class.std::allocator.19", align 1
  %exn.slot = alloca i8*
  %ehselector.slot = alloca i32
  %ref.tmp14 = alloca %"class.std::__cxx11::basic_string", align 8
  %ref.tmp15 = alloca %"class.std::allocator.19", align 1
  store %"class.libparest::Slave::Stationary::Slave"* %this, %"class.libparest::Slave::Stationary::Slave"** %this.addr, align 8
  call void @llvm.dbg.declare(metadata %"class.libparest::Slave::Stationary::Slave"** %this.addr, metadata !6220, metadata !DIExpression()), !dbg !6221
  store %"class.dealii::Vector"* %new_parameter, %"class.dealii::Vector"** %new_parameter.addr, align 8
  call void @llvm.dbg.declare(metadata %"class.dealii::Vector"** %new_parameter.addr, metadata !6222, metadata !DIExpression()), !dbg !6223
  store double %step_length, double* %step_length.addr, align 8
  call void @llvm.dbg.declare(metadata double* %step_length.addr, metadata !6224, metadata !DIExpression()), !dbg !6225
  %this1 = load %"class.libparest::Slave::Stationary::Slave"*, %"class.libparest::Slave::Stationary::Slave"** %this.addr, align 8
  %0 = bitcast %"class.libparest::Slave::Stationary::Slave"* %this1 to %"class.libparest::Slave::Base"*, !dbg !6226
  call void @_ZNSaIcEC1Ev(%"class.std::allocator.19"* %ref.tmp2) #4, !dbg !6227
  invoke void @_ZNSt7__cxx1112basic_stringIcSt11char_traitsIcESaIcEEC1EPKcRKS3_(%"class.std::__cxx11::basic_string"* %ref.tmp, i8* getelementptr inbounds ([13 x i8], [13 x i8]* @.str.13, i64 0, i64 0), %"class.std::allocator.19"* dereferenceable(1) %ref.tmp2)
          to label %invoke.cont unwind label %lpad, !dbg !6227

invoke.cont:                                      ; preds = %entry
  invoke void @_ZNK9libparest5Slave4Base20write_program_statusERKNSt7__cxx1112basic_stringIcSt11char_traitsIcESaIcEEEb(%"class.libparest::Slave::Base"* %0, %"class.std::__cxx11::basic_string"* dereferenceable(32) %ref.tmp, i1 zeroext true)
          to label %invoke.cont4 unwind label %lpad3, !dbg !6226

invoke.cont4:                                     ; preds = %invoke.cont
  call void @_ZNSt7__cxx1112basic_stringIcSt11char_traitsIcESaIcEED1Ev(%"class.std::__cxx11::basic_string"* %ref.tmp) #4, !dbg !6226
  call void @_ZNSaIcED1Ev(%"class.std::allocator.19"* %ref.tmp2) #4, !dbg !6226
  %present_iterate = getelementptr inbounds %"class.libparest::Slave::Stationary::Slave", %"class.libparest::Slave::Stationary::Slave"* %this1, i32 0, i32 2, !dbg !6228
  %1 = bitcast %"class.dealii::BlockVector"* %present_iterate to %"class.dealii::BlockVectorBase"*, !dbg !6228
  %call = call dereferenceable(88) %"class.dealii::Vector"* @_ZN6dealii15BlockVectorBaseINS_6VectorIdEEE5blockEj(%"class.dealii::BlockVectorBase"* %1, i32 0), !dbg !6229
  %2 = load double, double* %step_length.addr, align 8, !dbg !6230
  %update = getelementptr inbounds %"class.libparest::Slave::Stationary::Slave", %"class.libparest::Slave::Stationary::Slave"* %this1, i32 0, i32 3, !dbg !6231
  %3 = bitcast %"class.dealii::BlockVector"* %update to %"class.dealii::BlockVectorBase"*, !dbg !6231
  %call5 = call dereferenceable(88) %"class.dealii::Vector"* @_ZN6dealii15BlockVectorBaseINS_6VectorIdEEE5blockEj(%"class.dealii::BlockVectorBase"* %3, i32 0), !dbg !6232
  call void @_ZN6dealii6VectorIdE3addEdRKS1_(%"class.dealii::Vector"* %call, double %2, %"class.dealii::Vector"* dereferenceable(88) %call5), !dbg !6233
  %present_iterate6 = getelementptr inbounds %"class.libparest::Slave::Stationary::Slave", %"class.libparest::Slave::Stationary::Slave"* %this1, i32 0, i32 2, !dbg !6234
  %4 = bitcast %"class.dealii::BlockVector"* %present_iterate6 to %"class.dealii::BlockVectorBase"*, !dbg !6234
  %call7 = call dereferenceable(88) %"class.dealii::Vector"* @_ZN6dealii15BlockVectorBaseINS_6VectorIdEEE5blockEj(%"class.dealii::BlockVectorBase"* %4, i32 1), !dbg !6235
  %5 = load double, double* %step_length.addr, align 8, !dbg !6236
  %update8 = getelementptr inbounds %"class.libparest::Slave::Stationary::Slave", %"class.libparest::Slave::Stationary::Slave"* %this1, i32 0, i32 3, !dbg !6237
  %6 = bitcast %"class.dealii::BlockVector"* %update8 to %"class.dealii::BlockVectorBase"*, !dbg !6237
  %call9 = call dereferenceable(88) %"class.dealii::Vector"* @_ZN6dealii15BlockVectorBaseINS_6VectorIdEEE5blockEj(%"class.dealii::BlockVectorBase"* %6, i32 1), !dbg !6238
  call void @_ZN6dealii6VectorIdE3addEdRKS1_(%"class.dealii::Vector"* %call7, double %5, %"class.dealii::Vector"* dereferenceable(88) %call9), !dbg !6239
  %state_discretization = getelementptr inbounds %"class.libparest::Slave::Stationary::Slave", %"class.libparest::Slave::Stationary::Slave"* %this1, i32 0, i32 7, !dbg !6240
  %call10 = call %"class.libparest::Slave::Stationary::Discretization::Base"* @_ZNK6dealii12SmartPointerIN9libparest5Slave10Stationary14Discretization4BaseILi3EEEEptEv(%"class.dealii::SmartPointer.34"* %state_discretization), !dbg !6240
  %dof_handlers = getelementptr inbounds %"class.libparest::Slave::Stationary::Discretization::Base", %"class.libparest::Slave::Stationary::Discretization::Base"* %call10, i32 0, i32 3, !dbg !6241
  %7 = load %"class.libparest::Slave::Stationary::Discretization::DoFHandlers"*, %"class.libparest::Slave::Stationary::Discretization::DoFHandlers"** %dof_handlers, align 8, !dbg !6241
  %8 = load %"class.dealii::Vector"*, %"class.dealii::Vector"** %new_parameter.addr, align 8, !dbg !6242
  %present_iterate11 = getelementptr inbounds %"class.libparest::Slave::Stationary::Slave", %"class.libparest::Slave::Stationary::Slave"* %this1, i32 0, i32 2, !dbg !6243
  %9 = bitcast %"class.dealii::BlockVector"* %present_iterate11 to %"class.dealii::BlockVectorBase"*, !dbg !6243
  %call12 = call dereferenceable(88) %"class.dealii::Vector"* @_ZN6dealii15BlockVectorBaseINS_6VectorIdEEE5blockEj(%"class.dealii::BlockVectorBase"* %9, i32 2), !dbg !6244
  call void @_ZNK9libparest5Slave10Stationary14Discretization11DoFHandlersILi3EE16expand_parameterERKN6dealii6VectorIdEERS7_(%"class.libparest::Slave::Stationary::Discretization::DoFHandlers"* %7, %"class.dealii::Vector"* dereferenceable(88) %8, %"class.dealii::Vector"* dereferenceable(88) %call12), !dbg !6245
  %update13 = getelementptr inbounds %"class.libparest::Slave::Stationary::Slave", %"class.libparest::Slave::Stationary::Slave"* %this1, i32 0, i32 3, !dbg !6246
  call void @_ZN6dealii11BlockVectorIdE6reinitEjjb(%"class.dealii::BlockVector"* %update13, i32 0, i32 0, i1 zeroext false), !dbg !6247
  %10 = bitcast %"class.libparest::Slave::Stationary::Slave"* %this1 to %"class.libparest::Slave::Base"*, !dbg !6248
  call void @_ZNSaIcEC1Ev(%"class.std::allocator.19"* %ref.tmp15) #4, !dbg !6249
  invoke void @_ZNSt7__cxx1112basic_stringIcSt11char_traitsIcESaIcEEC1EPKcRKS3_(%"class.std::__cxx11::basic_string"* %ref.tmp14, i8* getelementptr inbounds ([13 x i8], [13 x i8]* @.str.13, i64 0, i64 0), %"class.std::allocator.19"* dereferenceable(1) %ref.tmp15)
          to label %invoke.cont17 unwind label %lpad16, !dbg !6249

invoke.cont17:                                    ; preds = %invoke.cont4
  invoke void @_ZNK9libparest5Slave4Base20write_program_statusERKNSt7__cxx1112basic_stringIcSt11char_traitsIcESaIcEEEb(%"class.libparest::Slave::Base"* %10, %"class.std::__cxx11::basic_string"* dereferenceable(32) %ref.tmp14, i1 zeroext false)
          to label %invoke.cont19 unwind label %lpad18, !dbg !6248

invoke.cont19:                                    ; preds = %invoke.cont17
  call void @_ZNSt7__cxx1112basic_stringIcSt11char_traitsIcESaIcEED1Ev(%"class.std::__cxx11::basic_string"* %ref.tmp14) #4, !dbg !6248
  call void @_ZNSaIcED1Ev(%"class.std::allocator.19"* %ref.tmp15) #4, !dbg !6248
  ret void, !dbg !6250

lpad:                                             ; preds = %entry
  %11 = landingpad { i8*, i32 }
          cleanup, !dbg !6250
  %12 = extractvalue { i8*, i32 } %11, 0, !dbg !6250
  store i8* %12, i8** %exn.slot, align 8, !dbg !6250
  %13 = extractvalue { i8*, i32 } %11, 1, !dbg !6250
  store i32 %13, i32* %ehselector.slot, align 4, !dbg !6250
  br label %ehcleanup, !dbg !6250

lpad3:                                            ; preds = %invoke.cont
  %14 = landingpad { i8*, i32 }
          cleanup, !dbg !6250
  %15 = extractvalue { i8*, i32 } %14, 0, !dbg !6250
  store i8* %15, i8** %exn.slot, align 8, !dbg !6250
  %16 = extractvalue { i8*, i32 } %14, 1, !dbg !6250
  store i32 %16, i32* %ehselector.slot, align 4, !dbg !6250
  call void @_ZNSt7__cxx1112basic_stringIcSt11char_traitsIcESaIcEED1Ev(%"class.std::__cxx11::basic_string"* %ref.tmp) #4, !dbg !6226
  br label %ehcleanup, !dbg !6226

ehcleanup:                                        ; preds = %lpad3, %lpad
  call void @_ZNSaIcED1Ev(%"class.std::allocator.19"* %ref.tmp2) #4, !dbg !6226
  br label %eh.resume, !dbg !6226

lpad16:                                           ; preds = %invoke.cont4
  %17 = landingpad { i8*, i32 }
          cleanup, !dbg !6250
  %18 = extractvalue { i8*, i32 } %17, 0, !dbg !6250
  store i8* %18, i8** %exn.slot, align 8, !dbg !6250
  %19 = extractvalue { i8*, i32 } %17, 1, !dbg !6250
  store i32 %19, i32* %ehselector.slot, align 4, !dbg !6250
  br label %ehcleanup21, !dbg !6250

lpad18:                                           ; preds = %invoke.cont17
  %20 = landingpad { i8*, i32 }
          cleanup, !dbg !6250
  %21 = extractvalue { i8*, i32 } %20, 0, !dbg !6250
  store i8* %21, i8** %exn.slot, align 8, !dbg !6250
  %22 = extractvalue { i8*, i32 } %20, 1, !dbg !6250
  store i32 %22, i32* %ehselector.slot, align 4, !dbg !6250
  call void @_ZNSt7__cxx1112basic_stringIcSt11char_traitsIcESaIcEED1Ev(%"class.std::__cxx11::basic_string"* %ref.tmp14) #4, !dbg !6248
  br label %ehcleanup21, !dbg !6248

ehcleanup21:                                      ; preds = %lpad18, %lpad16
  call void @_ZNSaIcED1Ev(%"class.std::allocator.19"* %ref.tmp15) #4, !dbg !6248
  br label %eh.resume, !dbg !6248

eh.resume:                                        ; preds = %ehcleanup21, %ehcleanup
  %exn = load i8*, i8** %exn.slot, align 8, !dbg !6226
  %sel = load i32, i32* %ehselector.slot, align 4, !dbg !6226
  %lpad.val = insertvalue { i8*, i32 } undef, i8* %exn, 0, !dbg !6226
  %lpad.val22 = insertvalue { i8*, i32 } %lpad.val, i32 %sel, 1, !dbg !6226
  resume { i8*, i32 } %lpad.val22, !dbg !6226
}

; Function Attrs: noinline uwtable
define linkonce_odr dso_local void @_ZN6dealii6VectorIdE3addEdRKS1_(%"class.dealii::Vector"* %this, double %a, %"class.dealii::Vector"* dereferenceable(88) %v) #0 comdat align 2 !dbg !6251 {
entry:
  %this.addr = alloca %"class.dealii::Vector"*, align 8
  %a.addr = alloca double, align 8
  %v.addr = alloca %"class.dealii::Vector"*, align 8
  %i_ptr = alloca double*, align 8
  %i_end = alloca double*, align 8
  %v_ptr = alloca double*, align 8
  store %"class.dealii::Vector"* %this, %"class.dealii::Vector"** %this.addr, align 8
  call void @llvm.dbg.declare(metadata %"class.dealii::Vector"** %this.addr, metadata !6252, metadata !DIExpression()), !dbg !6253
  store double %a, double* %a.addr, align 8
  call void @llvm.dbg.declare(metadata double* %a.addr, metadata !6254, metadata !DIExpression()), !dbg !6255
  store %"class.dealii::Vector"* %v, %"class.dealii::Vector"** %v.addr, align 8
  call void @llvm.dbg.declare(metadata %"class.dealii::Vector"** %v.addr, metadata !6256, metadata !DIExpression()), !dbg !6257
  %this1 = load %"class.dealii::Vector"*, %"class.dealii::Vector"** %this.addr, align 8
  call void @llvm.dbg.declare(metadata double** %i_ptr, metadata !6258, metadata !DIExpression()), !dbg !6259
  %call = call double* @_ZN6dealii6VectorIdE5beginEv(%"class.dealii::Vector"* %this1), !dbg !6260
  store double* %call, double** %i_ptr, align 8, !dbg !6259
  call void @llvm.dbg.declare(metadata double** %i_end, metadata !6261, metadata !DIExpression()), !dbg !6262
  %call2 = call double* @_ZN6dealii6VectorIdE3endEv(%"class.dealii::Vector"* %this1), !dbg !6263
  store double* %call2, double** %i_end, align 8, !dbg !6262
  call void @llvm.dbg.declare(metadata double** %v_ptr, metadata !6264, metadata !DIExpression()), !dbg !6265
  %0 = load %"class.dealii::Vector"*, %"class.dealii::Vector"** %v.addr, align 8, !dbg !6266
  %call3 = call double* @_ZNK6dealii6VectorIdE5beginEv(%"class.dealii::Vector"* %0), !dbg !6267
  store double* %call3, double** %v_ptr, align 8, !dbg !6265
  br label %while.cond, !dbg !6268

while.cond:                                       ; preds = %while.body, %entry
  %1 = load double*, double** %i_ptr, align 8, !dbg !6269
  %2 = load double*, double** %i_end, align 8, !dbg !6270
  %cmp = icmp ne double* %1, %2, !dbg !6271
  br i1 %cmp, label %while.body, label %while.end, !dbg !6268

while.body:                                       ; preds = %while.cond
  %3 = load double, double* %a.addr, align 8, !dbg !6272
  %4 = load double*, double** %v_ptr, align 8, !dbg !6273
  %incdec.ptr = getelementptr inbounds double, double* %4, i32 1, !dbg !6273
  store double* %incdec.ptr, double** %v_ptr, align 8, !dbg !6273
  %5 = load double, double* %4, align 8, !dbg !6274
  %mul = fmul double %3, %5, !dbg !6275
  %6 = load double*, double** %i_ptr, align 8, !dbg !6276
  %incdec.ptr4 = getelementptr inbounds double, double* %6, i32 1, !dbg !6276
  store double* %incdec.ptr4, double** %i_ptr, align 8, !dbg !6276
  %7 = load double, double* %6, align 8, !dbg !6277
  %add = fadd double %7, %mul, !dbg !6277
  store double %add, double* %6, align 8, !dbg !6277
  br label %while.cond, !dbg !6268, !llvm.loop !6278

while.end:                                        ; preds = %while.cond
  ret void, !dbg !6279
}

; Function Attrs: noinline uwtable
define weak_odr dso_local void @_ZN9libparest5Slave10Stationary5SlaveILi3EdE23refine_parameterizationERKSt6vectorIbSaIbEES8_(%"class.libparest::Slave::Stationary::Slave"* %this, %"class.std::vector.79"* dereferenceable(40) %refinement_indicators, %"class.std::vector.79"* dereferenceable(40) %coarsening_indicators) unnamed_addr #0 comdat align 2 !dbg !6280 {
entry:
  %this.addr = alloca %"class.libparest::Slave::Stationary::Slave"*, align 8
  %refinement_indicators.addr = alloca %"class.std::vector.79"*, align 8
  %coarsening_indicators.addr = alloca %"class.std::vector.79"*, align 8
  %ref.tmp = alloca %"struct.libparest::MessageLog::Client::PriorityObject", align 4
  store %"class.libparest::Slave::Stationary::Slave"* %this, %"class.libparest::Slave::Stationary::Slave"** %this.addr, align 8
  call void @llvm.dbg.declare(metadata %"class.libparest::Slave::Stationary::Slave"** %this.addr, metadata !6281, metadata !DIExpression()), !dbg !6282
  store %"class.std::vector.79"* %refinement_indicators, %"class.std::vector.79"** %refinement_indicators.addr, align 8
  call void @llvm.dbg.declare(metadata %"class.std::vector.79"** %refinement_indicators.addr, metadata !6283, metadata !DIExpression()), !dbg !6284
  store %"class.std::vector.79"* %coarsening_indicators, %"class.std::vector.79"** %coarsening_indicators.addr, align 8
  call void @llvm.dbg.declare(metadata %"class.std::vector.79"** %coarsening_indicators.addr, metadata !6285, metadata !DIExpression()), !dbg !6286
  %this1 = load %"class.libparest::Slave::Stationary::Slave"*, %"class.libparest::Slave::Stationary::Slave"** %this.addr, align 8
  %parameter_discretization = getelementptr inbounds %"class.libparest::Slave::Stationary::Slave", %"class.libparest::Slave::Stationary::Slave"* %this1, i32 0, i32 6, !dbg !6287
  %call = call %"class.libparest::Parameter::Field::DiscretizedField"* @_ZNK6dealii12SmartPointerIN9libparest9Parameter5Field16DiscretizedFieldILi3EEEEptEv(%"class.dealii::SmartPointer.33"* %parameter_discretization), !dbg !6288
  %0 = load %"class.std::vector.79"*, %"class.std::vector.79"** %refinement_indicators.addr, align 8, !dbg !6289
  %1 = load %"class.std::vector.79"*, %"class.std::vector.79"** %coarsening_indicators.addr, align 8, !dbg !6290
  call void @_ZN9libparest9Parameter5Field16DiscretizedFieldILi3EE23refine_parameterizationERKSt6vectorIbSaIbEES8_(%"class.libparest::Parameter::Field::DiscretizedField"* %call, %"class.std::vector.79"* dereferenceable(40) %0, %"class.std::vector.79"* dereferenceable(40) %1), !dbg !6291
  %2 = bitcast %"class.libparest::Slave::Stationary::Slave"* %this1 to %"class.libparest::Slave::Base"*, !dbg !6292
  %message_log = getelementptr inbounds %"class.libparest::Slave::Base", %"class.libparest::Slave::Base"* %2, i32 0, i32 3, !dbg !6292
  %call2 = call i32 @_ZN9libparest12set_priorityEj(i32 3), !dbg !6293
  %coerce.dive = getelementptr inbounds %"struct.libparest::MessageLog::Client::PriorityObject", %"struct.libparest::MessageLog::Client::PriorityObject"* %ref.tmp, i32 0, i32 0, !dbg !6293
  store i32 %call2, i32* %coerce.dive, align 4, !dbg !6293
  %call3 = call dereferenceable(40) %"class.libparest::MessageLog::Client"* @_ZN9libparest10MessageLog6ClientlsERKNS1_14PriorityObjectE(%"class.libparest::MessageLog::Client"* %message_log, %"struct.libparest::MessageLog::Client::PriorityObject"* dereferenceable(4) %ref.tmp), !dbg !6294
  %call4 = call dereferenceable(40) %"class.libparest::MessageLog::Client"* @_ZN9libparest10MessageLog6ClientlsIPKcEERS1_T_(%"class.libparest::MessageLog::Client"* %call3, i8* getelementptr inbounds ([31 x i8], [31 x i8]* @.str.14, i64 0, i64 0)), !dbg !6295
  %parameter_discretization5 = getelementptr inbounds %"class.libparest::Slave::Stationary::Slave", %"class.libparest::Slave::Stationary::Slave"* %this1, i32 0, i32 6, !dbg !6296
  %call6 = call %"class.libparest::Parameter::Field::DiscretizedField"* @_ZNK6dealii12SmartPointerIN9libparest9Parameter5Field16DiscretizedFieldILi3EEEEptEv(%"class.dealii::SmartPointer.33"* %parameter_discretization5), !dbg !6297
  %triangulations = getelementptr inbounds %"class.libparest::Parameter::Field::DiscretizedField", %"class.libparest::Parameter::Field::DiscretizedField"* %call6, i32 0, i32 1, !dbg !6298
  %call7 = call %"class.libparest::Parameter::Field::Triangulations"* @_ZNK6dealii12SmartPointerIN9libparest9Parameter5Field14TriangulationsILi3EEEEptEv(%"class.dealii::SmartPointer.100"* %triangulations), !dbg !6297
  %parameter = getelementptr inbounds %"class.libparest::Parameter::Field::Triangulations", %"class.libparest::Parameter::Field::Triangulations"* %call7, i32 0, i32 1, !dbg !6299
  %call8 = call i32 @_ZNK6dealii13TriangulationILi3ELi3EE14n_active_cellsEv(%"class.dealii::Triangulation"* %parameter), !dbg !6300
  %call9 = call dereferenceable(40) %"class.libparest::MessageLog::Client"* @_ZN9libparest10MessageLog6ClientlsIjEERS1_T_(%"class.libparest::MessageLog::Client"* %call4, i32 %call8), !dbg !6301
  %call10 = call dereferenceable(40) %"class.libparest::MessageLog::Client"* @_ZN9libparest10MessageLog6ClientlsIPKcEERS1_T_(%"class.libparest::MessageLog::Client"* %call9, i8* getelementptr inbounds ([9 x i8], [9 x i8]* @.str.15, i64 0, i64 0)), !dbg !6302
  %parameter_discretization11 = getelementptr inbounds %"class.libparest::Slave::Stationary::Slave", %"class.libparest::Slave::Stationary::Slave"* %this1, i32 0, i32 6, !dbg !6303
  %call12 = call %"class.libparest::Parameter::Field::DiscretizedField"* @_ZNK6dealii12SmartPointerIN9libparest9Parameter5Field16DiscretizedFieldILi3EEEEptEv(%"class.dealii::SmartPointer.33"* %parameter_discretization11), !dbg !6304
  %dof_handlers = getelementptr inbounds %"class.libparest::Parameter::Field::DiscretizedField", %"class.libparest::Parameter::Field::DiscretizedField"* %call12, i32 0, i32 3, !dbg !6305
  %call13 = call %"class.libparest::Parameter::Field::DoFHandlers"* @_ZNK6dealii12SmartPointerIN9libparest9Parameter5Field11DoFHandlersILi3EEEEptEv(%"class.dealii::SmartPointer.102"* %dof_handlers), !dbg !6304
  %parameter14 = getelementptr inbounds %"class.libparest::Parameter::Field::DoFHandlers", %"class.libparest::Parameter::Field::DoFHandlers"* %call13, i32 0, i32 1, !dbg !6306
  %call15 = call i32 @_ZNK6dealii10DoFHandlerILi3ELi3EE6n_dofsEv(%"class.dealii::DoFHandler"* %parameter14), !dbg !6307
  %call16 = call dereferenceable(40) %"class.libparest::MessageLog::Client"* @_ZN9libparest10MessageLog6ClientlsIjEERS1_T_(%"class.libparest::MessageLog::Client"* %call10, i32 %call15), !dbg !6308
  %call17 = call dereferenceable(40) %"class.libparest::MessageLog::Client"* @_ZN9libparest10MessageLog6ClientlsIPKcEERS1_T_(%"class.libparest::MessageLog::Client"* %call16, i8* getelementptr inbounds ([17 x i8], [17 x i8]* @.str.16, i64 0, i64 0)), !dbg !6309
  %call18 = call dereferenceable(40) %"class.libparest::MessageLog::Client"* @_ZN9libparest10MessageLog6ClientlsEPFRSoS2_E(%"class.libparest::MessageLog::Client"* %call17, %"class.std::basic_ostream"* (%"class.std::basic_ostream"*)* @_ZSt4endlIcSt11char_traitsIcEERSt13basic_ostreamIT_T0_ES6_), !dbg !6310
  %call19 = call dereferenceable(40) %"class.libparest::MessageLog::Client"* @_ZN9libparest10MessageLog6ClientlsEPFRSoS2_E(%"class.libparest::MessageLog::Client"* %call18, %"class.std::basic_ostream"* (%"class.std::basic_ostream"*)* @_ZSt5flushIcSt11char_traitsIcEERSt13basic_ostreamIT_T0_ES6_), !dbg !6311
  ret void, !dbg !6312
}

; Function Attrs: noinline nounwind uwtable
define linkonce_odr dso_local %"class.libparest::Parameter::Field::DiscretizedField"* @_ZNK6dealii12SmartPointerIN9libparest9Parameter5Field16DiscretizedFieldILi3EEEEptEv(%"class.dealii::SmartPointer.33"* %this) #1 comdat align 2 !dbg !6313 {
entry:
  %this.addr = alloca %"class.dealii::SmartPointer.33"*, align 8
  store %"class.dealii::SmartPointer.33"* %this, %"class.dealii::SmartPointer.33"** %this.addr, align 8
  call void @llvm.dbg.declare(metadata %"class.dealii::SmartPointer.33"** %this.addr, metadata !6314, metadata !DIExpression()), !dbg !6316
  %this1 = load %"class.dealii::SmartPointer.33"*, %"class.dealii::SmartPointer.33"** %this.addr, align 8
  %t = getelementptr inbounds %"class.dealii::SmartPointer.33", %"class.dealii::SmartPointer.33"* %this1, i32 0, i32 0, !dbg !6317
  %0 = load %"class.libparest::Parameter::Field::DiscretizedField"*, %"class.libparest::Parameter::Field::DiscretizedField"** %t, align 8, !dbg !6317
  ret %"class.libparest::Parameter::Field::DiscretizedField"* %0, !dbg !6318
}

declare dso_local void @_ZN9libparest9Parameter5Field16DiscretizedFieldILi3EE23refine_parameterizationERKSt6vectorIbSaIbEES8_(%"class.libparest::Parameter::Field::DiscretizedField"*, %"class.std::vector.79"* dereferenceable(40), %"class.std::vector.79"* dereferenceable(40)) #2

declare dso_local dereferenceable(40) %"class.libparest::MessageLog::Client"* @_ZN9libparest10MessageLog6ClientlsERKNS1_14PriorityObjectE(%"class.libparest::MessageLog::Client"*, %"struct.libparest::MessageLog::Client::PriorityObject"* dereferenceable(4)) #2

declare dso_local i32 @_ZN9libparest12set_priorityEj(i32) #2

; Function Attrs: noinline uwtable
define linkonce_odr dso_local dereferenceable(40) %"class.libparest::MessageLog::Client"* @_ZN9libparest10MessageLog6ClientlsIPKcEERS1_T_(%"class.libparest::MessageLog::Client"* %this, i8* %t) #0 comdat align 2 personality i8* bitcast (i32 (...)* @__gxx_personality_v0 to i8*) !dbg !6319 {
entry:
  %this.addr = alloca %"class.libparest::MessageLog::Client"*, align 8
  %t.addr = alloca i8*, align 8
  %lock = alloca %"class.dealii::Threads::DummyThreadMutex::ScopedLock", align 1
  %exn.slot = alloca i8*
  %ehselector.slot = alloca i32
  store %"class.libparest::MessageLog::Client"* %this, %"class.libparest::MessageLog::Client"** %this.addr, align 8
  call void @llvm.dbg.declare(metadata %"class.libparest::MessageLog::Client"** %this.addr, metadata !6421, metadata !DIExpression()), !dbg !6423
  store i8* %t, i8** %t.addr, align 8
  call void @llvm.dbg.declare(metadata i8** %t.addr, metadata !6424, metadata !DIExpression()), !dbg !6425
  %this1 = load %"class.libparest::MessageLog::Client"*, %"class.libparest::MessageLog::Client"** %this.addr, align 8
  call void @llvm.dbg.declare(metadata %"class.dealii::Threads::DummyThreadMutex::ScopedLock"* %lock, metadata !6426, metadata !DIExpression()), !dbg !6437
  %synchronisation_lock = getelementptr inbounds %"class.libparest::MessageLog::Client", %"class.libparest::MessageLog::Client"* %this1, i32 0, i32 5, !dbg !6438
  call void @_ZN6dealii7Threads16DummyThreadMutex10ScopedLockC2ERS1_(%"class.dealii::Threads::DummyThreadMutex::ScopedLock"* %lock, %"class.dealii::Threads::DummyThreadMutex"* dereferenceable(1) %synchronisation_lock), !dbg !6437
  %message_buffer = getelementptr inbounds %"class.libparest::MessageLog::Client", %"class.libparest::MessageLog::Client"* %this1, i32 0, i32 3, !dbg !6439
  %0 = load %"class.std::__cxx11::basic_ostringstream"*, %"class.std::__cxx11::basic_ostringstream"** %message_buffer, align 8, !dbg !6439
  %1 = bitcast %"class.std::__cxx11::basic_ostringstream"* %0 to %"class.std::basic_ostream"*, !dbg !6440
  %2 = load i8*, i8** %t.addr, align 8, !dbg !6441
  %call = invoke dereferenceable(272) %"class.std::basic_ostream"* @_ZStlsISt11char_traitsIcEERSt13basic_ostreamIcT_ES5_PKc(%"class.std::basic_ostream"* dereferenceable(272) %1, i8* %2)
          to label %invoke.cont unwind label %lpad, !dbg !6442

invoke.cont:                                      ; preds = %entry
  call void @_ZN6dealii7Threads16DummyThreadMutex10ScopedLockD2Ev(%"class.dealii::Threads::DummyThreadMutex::ScopedLock"* %lock) #4, !dbg !6443
  ret %"class.libparest::MessageLog::Client"* %this1, !dbg !6443

lpad:                                             ; preds = %entry
  %3 = landingpad { i8*, i32 }
          cleanup, !dbg !6443
  %4 = extractvalue { i8*, i32 } %3, 0, !dbg !6443
  store i8* %4, i8** %exn.slot, align 8, !dbg !6443
  %5 = extractvalue { i8*, i32 } %3, 1, !dbg !6443
  store i32 %5, i32* %ehselector.slot, align 4, !dbg !6443
  call void @_ZN6dealii7Threads16DummyThreadMutex10ScopedLockD2Ev(%"class.dealii::Threads::DummyThreadMutex::ScopedLock"* %lock) #4, !dbg !6443
  br label %eh.resume, !dbg !6443

eh.resume:                                        ; preds = %lpad
  %exn = load i8*, i8** %exn.slot, align 8, !dbg !6443
  %sel = load i32, i32* %ehselector.slot, align 4, !dbg !6443
  %lpad.val = insertvalue { i8*, i32 } undef, i8* %exn, 0, !dbg !6443
  %lpad.val2 = insertvalue { i8*, i32 } %lpad.val, i32 %sel, 1, !dbg !6443
  resume { i8*, i32 } %lpad.val2, !dbg !6443
}

; Function Attrs: noinline uwtable
define linkonce_odr dso_local dereferenceable(40) %"class.libparest::MessageLog::Client"* @_ZN9libparest10MessageLog6ClientlsIjEERS1_T_(%"class.libparest::MessageLog::Client"* %this, i32 %t) #0 comdat align 2 personality i8* bitcast (i32 (...)* @__gxx_personality_v0 to i8*) !dbg !6444 {
entry:
  %this.addr = alloca %"class.libparest::MessageLog::Client"*, align 8
  %t.addr = alloca i32, align 4
  %lock = alloca %"class.dealii::Threads::DummyThreadMutex::ScopedLock", align 1
  %exn.slot = alloca i8*
  %ehselector.slot = alloca i32
  store %"class.libparest::MessageLog::Client"* %this, %"class.libparest::MessageLog::Client"** %this.addr, align 8
  call void @llvm.dbg.declare(metadata %"class.libparest::MessageLog::Client"** %this.addr, metadata !6450, metadata !DIExpression()), !dbg !6451
  store i32 %t, i32* %t.addr, align 4
  call void @llvm.dbg.declare(metadata i32* %t.addr, metadata !6452, metadata !DIExpression()), !dbg !6453
  %this1 = load %"class.libparest::MessageLog::Client"*, %"class.libparest::MessageLog::Client"** %this.addr, align 8
  call void @llvm.dbg.declare(metadata %"class.dealii::Threads::DummyThreadMutex::ScopedLock"* %lock, metadata !6454, metadata !DIExpression()), !dbg !6455
  %synchronisation_lock = getelementptr inbounds %"class.libparest::MessageLog::Client", %"class.libparest::MessageLog::Client"* %this1, i32 0, i32 5, !dbg !6456
  call void @_ZN6dealii7Threads16DummyThreadMutex10ScopedLockC2ERS1_(%"class.dealii::Threads::DummyThreadMutex::ScopedLock"* %lock, %"class.dealii::Threads::DummyThreadMutex"* dereferenceable(1) %synchronisation_lock), !dbg !6455
  %message_buffer = getelementptr inbounds %"class.libparest::MessageLog::Client", %"class.libparest::MessageLog::Client"* %this1, i32 0, i32 3, !dbg !6457
  %0 = load %"class.std::__cxx11::basic_ostringstream"*, %"class.std::__cxx11::basic_ostringstream"** %message_buffer, align 8, !dbg !6457
  %1 = bitcast %"class.std::__cxx11::basic_ostringstream"* %0 to %"class.std::basic_ostream"*, !dbg !6458
  %2 = load i32, i32* %t.addr, align 4, !dbg !6459
  %call = invoke dereferenceable(272) %"class.std::basic_ostream"* @_ZNSolsEj(%"class.std::basic_ostream"* %1, i32 %2)
          to label %invoke.cont unwind label %lpad, !dbg !6460

invoke.cont:                                      ; preds = %entry
  call void @_ZN6dealii7Threads16DummyThreadMutex10ScopedLockD2Ev(%"class.dealii::Threads::DummyThreadMutex::ScopedLock"* %lock) #4, !dbg !6461
  ret %"class.libparest::MessageLog::Client"* %this1, !dbg !6461

lpad:                                             ; preds = %entry
  %3 = landingpad { i8*, i32 }
          cleanup, !dbg !6461
  %4 = extractvalue { i8*, i32 } %3, 0, !dbg !6461
  store i8* %4, i8** %exn.slot, align 8, !dbg !6461
  %5 = extractvalue { i8*, i32 } %3, 1, !dbg !6461
  store i32 %5, i32* %ehselector.slot, align 4, !dbg !6461
  call void @_ZN6dealii7Threads16DummyThreadMutex10ScopedLockD2Ev(%"class.dealii::Threads::DummyThreadMutex::ScopedLock"* %lock) #4, !dbg !6461
  br label %eh.resume, !dbg !6461

eh.resume:                                        ; preds = %lpad
  %exn = load i8*, i8** %exn.slot, align 8, !dbg !6461
  %sel = load i32, i32* %ehselector.slot, align 4, !dbg !6461
  %lpad.val = insertvalue { i8*, i32 } undef, i8* %exn, 0, !dbg !6461
  %lpad.val2 = insertvalue { i8*, i32 } %lpad.val, i32 %sel, 1, !dbg !6461
  resume { i8*, i32 } %lpad.val2, !dbg !6461
}

; Function Attrs: noinline nounwind uwtable
define linkonce_odr dso_local %"class.libparest::Parameter::Field::Triangulations"* @_ZNK6dealii12SmartPointerIN9libparest9Parameter5Field14TriangulationsILi3EEEEptEv(%"class.dealii::SmartPointer.100"* %this) #1 comdat align 2 !dbg !6462 {
entry:
  %this.addr = alloca %"class.dealii::SmartPointer.100"*, align 8
  store %"class.dealii::SmartPointer.100"* %this, %"class.dealii::SmartPointer.100"** %this.addr, align 8
  call void @llvm.dbg.declare(metadata %"class.dealii::SmartPointer.100"** %this.addr, metadata !6510, metadata !DIExpression()), !dbg !6512
  %this1 = load %"class.dealii::SmartPointer.100"*, %"class.dealii::SmartPointer.100"** %this.addr, align 8
  %t = getelementptr inbounds %"class.dealii::SmartPointer.100", %"class.dealii::SmartPointer.100"* %this1, i32 0, i32 0, !dbg !6513
  %0 = load %"class.libparest::Parameter::Field::Triangulations"*, %"class.libparest::Parameter::Field::Triangulations"** %t, align 8, !dbg !6513
  ret %"class.libparest::Parameter::Field::Triangulations"* %0, !dbg !6514
}

declare dso_local i32 @_ZNK6dealii13TriangulationILi3ELi3EE14n_active_cellsEv(%"class.dealii::Triangulation"*) #2

; Function Attrs: noinline nounwind uwtable
define linkonce_odr dso_local %"class.libparest::Parameter::Field::DoFHandlers"* @_ZNK6dealii12SmartPointerIN9libparest9Parameter5Field11DoFHandlersILi3EEEEptEv(%"class.dealii::SmartPointer.102"* %this) #1 comdat align 2 !dbg !6515 {
entry:
  %this.addr = alloca %"class.dealii::SmartPointer.102"*, align 8
  store %"class.dealii::SmartPointer.102"* %this, %"class.dealii::SmartPointer.102"** %this.addr, align 8
  call void @llvm.dbg.declare(metadata %"class.dealii::SmartPointer.102"** %this.addr, metadata !6563, metadata !DIExpression()), !dbg !6565
  %this1 = load %"class.dealii::SmartPointer.102"*, %"class.dealii::SmartPointer.102"** %this.addr, align 8
  %t = getelementptr inbounds %"class.dealii::SmartPointer.102", %"class.dealii::SmartPointer.102"* %this1, i32 0, i32 0, !dbg !6566
  %0 = load %"class.libparest::Parameter::Field::DoFHandlers"*, %"class.libparest::Parameter::Field::DoFHandlers"** %t, align 8, !dbg !6566
  ret %"class.libparest::Parameter::Field::DoFHandlers"* %0, !dbg !6567
}

; Function Attrs: noinline nounwind uwtable
define linkonce_odr dso_local i32 @_ZNK6dealii10DoFHandlerILi3ELi3EE6n_dofsEv(%"class.dealii::DoFHandler"* %this) #1 comdat align 2 !dbg !6568 {
entry:
  %this.addr = alloca %"class.dealii::DoFHandler"*, align 8
  store %"class.dealii::DoFHandler"* %this, %"class.dealii::DoFHandler"** %this.addr, align 8
  call void @llvm.dbg.declare(metadata %"class.dealii::DoFHandler"** %this.addr, metadata !6576, metadata !DIExpression()), !dbg !6578
  %this1 = load %"class.dealii::DoFHandler"*, %"class.dealii::DoFHandler"** %this.addr, align 8
  %used_dofs = getelementptr inbounds %"class.dealii::DoFHandler", %"class.dealii::DoFHandler"* %this1, i32 0, i32 5, !dbg !6579
  %0 = load i32, i32* %used_dofs, align 8, !dbg !6579
  ret i32 %0, !dbg !6580
}

declare dso_local dereferenceable(40) %"class.libparest::MessageLog::Client"* @_ZN9libparest10MessageLog6ClientlsEPFRSoS2_E(%"class.libparest::MessageLog::Client"*, %"class.std::basic_ostream"* (%"class.std::basic_ostream"*)*) #2

declare dso_local dereferenceable(272) %"class.std::basic_ostream"* @_ZSt4endlIcSt11char_traitsIcEERSt13basic_ostreamIT_T0_ES6_(%"class.std::basic_ostream"* dereferenceable(272)) #2

declare dso_local dereferenceable(272) %"class.std::basic_ostream"* @_ZSt5flushIcSt11char_traitsIcEERSt13basic_ostreamIT_T0_ES6_(%"class.std::basic_ostream"* dereferenceable(272)) #2

; Function Attrs: noinline uwtable
define weak_odr dso_local void @_ZNK9libparest5Slave10Stationary5SlaveILi3EdE22compute_trial_residualESt6vectorIdSaIdEERS4_IPN6dealii6VectorIdEESaISA_EERS6_(%"class.libparest::Slave::Stationary::Slave"* %this, %"class.std::vector.50"* %trial_alpha, %"class.std::vector.193"* dereferenceable(24) %slave_contribution, %"class.std::vector.50"* dereferenceable(24) %residual) unnamed_addr #0 comdat align 2 personality i8* bitcast (i32 (...)* @__gxx_personality_v0 to i8*) !dbg !6581 {
entry:
  %this.addr = alloca %"class.libparest::Slave::Stationary::Slave"*, align 8
  %slave_contribution.addr = alloca %"class.std::vector.193"*, align 8
  %residual.addr = alloca %"class.std::vector.50"*, align 8
  %ref.tmp = alloca %"class.std::__cxx11::basic_string", align 8
  %ref.tmp2 = alloca %"class.std::allocator.19", align 1
  %exn.slot = alloca i8*
  %ehselector.slot = alloca i32
  %n_alphas = alloca i32, align 4
  %threads = alloca %"class.std::vector.198", align 8
  %i = alloca i32, align 4
  %ref.tmp5 = alloca %"class.dealii::Threads::Thread", align 8
  %ref.tmp6 = alloca %"class.dealii::Threads::internal::fun_encapsulator", align 8
  %coerce = alloca { i64, i64 }, align 8
  %i19 = alloca i32, align 4
  %ref.tmp32 = alloca %"class.std::__cxx11::basic_string", align 8
  %ref.tmp33 = alloca %"class.std::allocator.19", align 1
  store %"class.libparest::Slave::Stationary::Slave"* %this, %"class.libparest::Slave::Stationary::Slave"** %this.addr, align 8
  call void @llvm.dbg.declare(metadata %"class.libparest::Slave::Stationary::Slave"** %this.addr, metadata !6582, metadata !DIExpression()), !dbg !6583
  call void @llvm.dbg.declare(metadata %"class.std::vector.50"* %trial_alpha, metadata !6584, metadata !DIExpression()), !dbg !6585
  store %"class.std::vector.193"* %slave_contribution, %"class.std::vector.193"** %slave_contribution.addr, align 8
  call void @llvm.dbg.declare(metadata %"class.std::vector.193"** %slave_contribution.addr, metadata !6586, metadata !DIExpression()), !dbg !6587
  store %"class.std::vector.50"* %residual, %"class.std::vector.50"** %residual.addr, align 8
  call void @llvm.dbg.declare(metadata %"class.std::vector.50"** %residual.addr, metadata !6588, metadata !DIExpression()), !dbg !6589
  %this1 = load %"class.libparest::Slave::Stationary::Slave"*, %"class.libparest::Slave::Stationary::Slave"** %this.addr, align 8
  %0 = bitcast %"class.libparest::Slave::Stationary::Slave"* %this1 to %"class.libparest::Slave::Base"*, !dbg !6590
  call void @_ZNSaIcEC1Ev(%"class.std::allocator.19"* %ref.tmp2) #4, !dbg !6591
  invoke void @_ZNSt7__cxx1112basic_stringIcSt11char_traitsIcESaIcEEC1EPKcRKS3_(%"class.std::__cxx11::basic_string"* %ref.tmp, i8* getelementptr inbounds ([9 x i8], [9 x i8]* @.str.17, i64 0, i64 0), %"class.std::allocator.19"* dereferenceable(1) %ref.tmp2)
          to label %invoke.cont unwind label %lpad, !dbg !6591

invoke.cont:                                      ; preds = %entry
  invoke void @_ZNK9libparest5Slave4Base20write_program_statusERKNSt7__cxx1112basic_stringIcSt11char_traitsIcESaIcEEEb(%"class.libparest::Slave::Base"* %0, %"class.std::__cxx11::basic_string"* dereferenceable(32) %ref.tmp, i1 zeroext true)
          to label %invoke.cont4 unwind label %lpad3, !dbg !6590

invoke.cont4:                                     ; preds = %invoke.cont
  call void @_ZNSt7__cxx1112basic_stringIcSt11char_traitsIcESaIcEED1Ev(%"class.std::__cxx11::basic_string"* %ref.tmp) #4, !dbg !6590
  call void @_ZNSaIcED1Ev(%"class.std::allocator.19"* %ref.tmp2) #4, !dbg !6590
  call void @llvm.dbg.declare(metadata i32* %n_alphas, metadata !6592, metadata !DIExpression()), !dbg !6593
  %call = call i64 @_ZNKSt6vectorIdSaIdEE4sizeEv(%"class.std::vector.50"* %trial_alpha) #4, !dbg !6594
  %conv = trunc i64 %call to i32, !dbg !6595
  store i32 %conv, i32* %n_alphas, align 4, !dbg !6593
  call void @llvm.dbg.declare(metadata %"class.std::vector.198"* %threads, metadata !6596, metadata !DIExpression()), !dbg !6597
  call void @_ZNSt6vectorIN6dealii7Threads6ThreadIdEESaIS3_EEC2Ev(%"class.std::vector.198"* %threads) #4, !dbg !6597
  call void @llvm.dbg.declare(metadata i32* %i, metadata !6598, metadata !DIExpression()), !dbg !6600
  store i32 0, i32* %i, align 4, !dbg !6600
  br label %for.cond, !dbg !6601

for.cond:                                         ; preds = %for.inc, %invoke.cont4
  %1 = load i32, i32* %i, align 4, !dbg !6602
  %2 = load i32, i32* %n_alphas, align 4, !dbg !6604
  %cmp = icmp ult i32 %1, %2, !dbg !6605
  br i1 %cmp, label %for.body, label %for.end, !dbg !6606

for.body:                                         ; preds = %for.cond
  store { i64, i64 } { i64 185, i64 0 }, { i64, i64 }* %coerce, align 8, !dbg !6607
  %3 = getelementptr inbounds { i64, i64 }, { i64, i64 }* %coerce, i32 0, i32 0, !dbg !6607
  %4 = load i64, i64* %3, align 8, !dbg !6607
  %5 = getelementptr inbounds { i64, i64 }, { i64, i64 }* %coerce, i32 0, i32 1, !dbg !6607
  %6 = load i64, i64* %5, align 8, !dbg !6607
  invoke void @_ZN6dealii7Threads5spawnIdN9libparest5Slave10Stationary5SlaveILi3EdEEdRNS_6VectorIdEEEENS0_8internal16fun_encapsulatorIT_N5boost6tuples5tupleIT1_T2_NSE_9null_typeESI_SI_SI_SI_SI_SI_SI_EELi2EEERKT0_MSL_KFSC_SG_SH_E(%"class.dealii::Threads::internal::fun_encapsulator"* sret %ref.tmp6, %"class.libparest::Slave::Stationary::Slave"* dereferenceable(648) %this1, i64 %4, i64 %6)
          to label %invoke.cont8 unwind label %lpad7, !dbg !6607

invoke.cont8:                                     ; preds = %for.body
  %7 = load i32, i32* %i, align 4, !dbg !6608
  %conv9 = zext i32 %7 to i64, !dbg !6608
  %call10 = call dereferenceable(8) double* @_ZNKSt6vectorIdSaIdEEixEm(%"class.std::vector.50"* %trial_alpha, i64 %conv9) #4, !dbg !6609
  %8 = load double, double* %call10, align 8, !dbg !6609
  %9 = load %"class.std::vector.193"*, %"class.std::vector.193"** %slave_contribution.addr, align 8, !dbg !6610
  %10 = load i32, i32* %i, align 4, !dbg !6611
  %conv11 = zext i32 %10 to i64, !dbg !6611
  %call12 = call dereferenceable(8) %"class.dealii::Vector"** @_ZNSt6vectorIPN6dealii6VectorIdEESaIS3_EEixEm(%"class.std::vector.193"* %9, i64 %conv11) #4, !dbg !6610
  %11 = load %"class.dealii::Vector"*, %"class.dealii::Vector"** %call12, align 8, !dbg !6610
  invoke void @_ZN6dealii7Threads8internal16fun_encapsulatorIdN5boost6tuples5tupleIdRNS_6VectorIdEENS4_9null_typeES9_S9_S9_S9_S9_S9_S9_EELi2EEclEdS8_(%"class.dealii::Threads::Thread"* sret %ref.tmp5, %"class.dealii::Threads::internal::fun_encapsulator"* %ref.tmp6, double %8, %"class.dealii::Vector"* dereferenceable(88) %11)
          to label %invoke.cont14 unwind label %lpad13, !dbg !6607

invoke.cont14:                                    ; preds = %invoke.cont8
  invoke void @_ZNSt6vectorIN6dealii7Threads6ThreadIdEESaIS3_EE9push_backEOS3_(%"class.std::vector.198"* %threads, %"class.dealii::Threads::Thread"* dereferenceable(16) %ref.tmp5)
          to label %invoke.cont16 unwind label %lpad15, !dbg !6612

invoke.cont16:                                    ; preds = %invoke.cont14
  call void @_ZN6dealii7Threads6ThreadIdED2Ev(%"class.dealii::Threads::Thread"* %ref.tmp5) #4, !dbg !6613
  call void @_ZN6dealii7Threads8internal16fun_encapsulatorIdN5boost6tuples5tupleIdRNS_6VectorIdEENS4_9null_typeES9_S9_S9_S9_S9_S9_S9_EELi2EED2Ev(%"class.dealii::Threads::internal::fun_encapsulator"* %ref.tmp6) #4, !dbg !6613
  br label %for.inc, !dbg !6613

for.inc:                                          ; preds = %invoke.cont16
  %12 = load i32, i32* %i, align 4, !dbg !6614
  %inc = add i32 %12, 1, !dbg !6614
  store i32 %inc, i32* %i, align 4, !dbg !6614
  br label %for.cond, !dbg !6615, !llvm.loop !6616

lpad:                                             ; preds = %entry
  %13 = landingpad { i8*, i32 }
          cleanup, !dbg !6618
  %14 = extractvalue { i8*, i32 } %13, 0, !dbg !6618
  store i8* %14, i8** %exn.slot, align 8, !dbg !6618
  %15 = extractvalue { i8*, i32 } %13, 1, !dbg !6618
  store i32 %15, i32* %ehselector.slot, align 4, !dbg !6618
  br label %ehcleanup, !dbg !6618

lpad3:                                            ; preds = %invoke.cont
  %16 = landingpad { i8*, i32 }
          cleanup, !dbg !6618
  %17 = extractvalue { i8*, i32 } %16, 0, !dbg !6618
  store i8* %17, i8** %exn.slot, align 8, !dbg !6618
  %18 = extractvalue { i8*, i32 } %16, 1, !dbg !6618
  store i32 %18, i32* %ehselector.slot, align 4, !dbg !6618
  call void @_ZNSt7__cxx1112basic_stringIcSt11char_traitsIcESaIcEED1Ev(%"class.std::__cxx11::basic_string"* %ref.tmp) #4, !dbg !6590
  br label %ehcleanup, !dbg !6590

ehcleanup:                                        ; preds = %lpad3, %lpad
  call void @_ZNSaIcED1Ev(%"class.std::allocator.19"* %ref.tmp2) #4, !dbg !6590
  br label %eh.resume, !dbg !6590

lpad7:                                            ; preds = %for.body22, %for.body
  %19 = landingpad { i8*, i32 }
          cleanup, !dbg !6619
  %20 = extractvalue { i8*, i32 } %19, 0, !dbg !6619
  store i8* %20, i8** %exn.slot, align 8, !dbg !6619
  %21 = extractvalue { i8*, i32 } %19, 1, !dbg !6619
  store i32 %21, i32* %ehselector.slot, align 4, !dbg !6619
  br label %ehcleanup40, !dbg !6619

lpad13:                                           ; preds = %invoke.cont8
  %22 = landingpad { i8*, i32 }
          cleanup, !dbg !6619
  %23 = extractvalue { i8*, i32 } %22, 0, !dbg !6619
  store i8* %23, i8** %exn.slot, align 8, !dbg !6619
  %24 = extractvalue { i8*, i32 } %22, 1, !dbg !6619
  store i32 %24, i32* %ehselector.slot, align 4, !dbg !6619
  br label %ehcleanup18, !dbg !6619

lpad15:                                           ; preds = %invoke.cont14
  %25 = landingpad { i8*, i32 }
          cleanup, !dbg !6619
  %26 = extractvalue { i8*, i32 } %25, 0, !dbg !6619
  store i8* %26, i8** %exn.slot, align 8, !dbg !6619
  %27 = extractvalue { i8*, i32 } %25, 1, !dbg !6619
  store i32 %27, i32* %ehselector.slot, align 4, !dbg !6619
  call void @_ZN6dealii7Threads6ThreadIdED2Ev(%"class.dealii::Threads::Thread"* %ref.tmp5) #4, !dbg !6613
  br label %ehcleanup18, !dbg !6613

ehcleanup18:                                      ; preds = %lpad15, %lpad13
  call void @_ZN6dealii7Threads8internal16fun_encapsulatorIdN5boost6tuples5tupleIdRNS_6VectorIdEENS4_9null_typeES9_S9_S9_S9_S9_S9_S9_EELi2EED2Ev(%"class.dealii::Threads::internal::fun_encapsulator"* %ref.tmp6) #4, !dbg !6613
  br label %ehcleanup40, !dbg !6613

for.end:                                          ; preds = %for.cond
  call void @llvm.dbg.declare(metadata i32* %i19, metadata !6620, metadata !DIExpression()), !dbg !6622
  store i32 0, i32* %i19, align 4, !dbg !6622
  br label %for.cond20, !dbg !6623

for.cond20:                                       ; preds = %for.inc29, %for.end
  %28 = load i32, i32* %i19, align 4, !dbg !6624
  %29 = load i32, i32* %n_alphas, align 4, !dbg !6626
  %cmp21 = icmp ult i32 %28, %29, !dbg !6627
  br i1 %cmp21, label %for.body22, label %for.end31, !dbg !6628

for.body22:                                       ; preds = %for.cond20
  %30 = load i32, i32* %i19, align 4, !dbg !6629
  %conv23 = zext i32 %30 to i64, !dbg !6629
  %call24 = call dereferenceable(16) %"class.dealii::Threads::Thread"* @_ZNSt6vectorIN6dealii7Threads6ThreadIdEESaIS3_EEixEm(%"class.std::vector.198"* %threads, i64 %conv23) #4, !dbg !6630
  %call26 = invoke double @_ZN6dealii7Threads6ThreadIdE12return_valueEv(%"class.dealii::Threads::Thread"* %call24)
          to label %invoke.cont25 unwind label %lpad7, !dbg !6631

invoke.cont25:                                    ; preds = %for.body22
  %31 = load %"class.std::vector.50"*, %"class.std::vector.50"** %residual.addr, align 8, !dbg !6632
  %32 = load i32, i32* %i19, align 4, !dbg !6633
  %conv27 = zext i32 %32 to i64, !dbg !6633
  %call28 = call dereferenceable(8) double* @_ZNSt6vectorIdSaIdEEixEm(%"class.std::vector.50"* %31, i64 %conv27) #4, !dbg !6632
  store double %call26, double* %call28, align 8, !dbg !6634
  br label %for.inc29, !dbg !6632

for.inc29:                                        ; preds = %invoke.cont25
  %33 = load i32, i32* %i19, align 4, !dbg !6635
  %inc30 = add i32 %33, 1, !dbg !6635
  store i32 %inc30, i32* %i19, align 4, !dbg !6635
  br label %for.cond20, !dbg !6636, !llvm.loop !6637

for.end31:                                        ; preds = %for.cond20
  %34 = bitcast %"class.libparest::Slave::Stationary::Slave"* %this1 to %"class.libparest::Slave::Base"*, !dbg !6639
  call void @_ZNSaIcEC1Ev(%"class.std::allocator.19"* %ref.tmp33) #4, !dbg !6640
  invoke void @_ZNSt7__cxx1112basic_stringIcSt11char_traitsIcESaIcEEC1EPKcRKS3_(%"class.std::__cxx11::basic_string"* %ref.tmp32, i8* getelementptr inbounds ([9 x i8], [9 x i8]* @.str.17, i64 0, i64 0), %"class.std::allocator.19"* dereferenceable(1) %ref.tmp33)
          to label %invoke.cont35 unwind label %lpad34, !dbg !6640

invoke.cont35:                                    ; preds = %for.end31
  invoke void @_ZNK9libparest5Slave4Base20write_program_statusERKNSt7__cxx1112basic_stringIcSt11char_traitsIcESaIcEEEb(%"class.libparest::Slave::Base"* %34, %"class.std::__cxx11::basic_string"* dereferenceable(32) %ref.tmp32, i1 zeroext false)
          to label %invoke.cont37 unwind label %lpad36, !dbg !6639

invoke.cont37:                                    ; preds = %invoke.cont35
  call void @_ZNSt7__cxx1112basic_stringIcSt11char_traitsIcESaIcEED1Ev(%"class.std::__cxx11::basic_string"* %ref.tmp32) #4, !dbg !6639
  call void @_ZNSaIcED1Ev(%"class.std::allocator.19"* %ref.tmp33) #4, !dbg !6639
  call void @_ZNSt6vectorIN6dealii7Threads6ThreadIdEESaIS3_EED2Ev(%"class.std::vector.198"* %threads) #4, !dbg !6618
  ret void, !dbg !6618

lpad34:                                           ; preds = %for.end31
  %35 = landingpad { i8*, i32 }
          cleanup, !dbg !6618
  %36 = extractvalue { i8*, i32 } %35, 0, !dbg !6618
  store i8* %36, i8** %exn.slot, align 8, !dbg !6618
  %37 = extractvalue { i8*, i32 } %35, 1, !dbg !6618
  store i32 %37, i32* %ehselector.slot, align 4, !dbg !6618
  br label %ehcleanup39, !dbg !6618

lpad36:                                           ; preds = %invoke.cont35
  %38 = landingpad { i8*, i32 }
          cleanup, !dbg !6618
  %39 = extractvalue { i8*, i32 } %38, 0, !dbg !6618
  store i8* %39, i8** %exn.slot, align 8, !dbg !6618
  %40 = extractvalue { i8*, i32 } %38, 1, !dbg !6618
  store i32 %40, i32* %ehselector.slot, align 4, !dbg !6618
  call void @_ZNSt7__cxx1112basic_stringIcSt11char_traitsIcESaIcEED1Ev(%"class.std::__cxx11::basic_string"* %ref.tmp32) #4, !dbg !6639
  br label %ehcleanup39, !dbg !6639

ehcleanup39:                                      ; preds = %lpad36, %lpad34
  call void @_ZNSaIcED1Ev(%"class.std::allocator.19"* %ref.tmp33) #4, !dbg !6639
  br label %ehcleanup40, !dbg !6639

ehcleanup40:                                      ; preds = %ehcleanup39, %ehcleanup18, %lpad7
  call void @_ZNSt6vectorIN6dealii7Threads6ThreadIdEESaIS3_EED2Ev(%"class.std::vector.198"* %threads) #4, !dbg !6618
  br label %eh.resume, !dbg !6618

eh.resume:                                        ; preds = %ehcleanup40, %ehcleanup
  %exn = load i8*, i8** %exn.slot, align 8, !dbg !6590
  %sel = load i32, i32* %ehselector.slot, align 4, !dbg !6590
  %lpad.val = insertvalue { i8*, i32 } undef, i8* %exn, 0, !dbg !6590
  %lpad.val41 = insertvalue { i8*, i32 } %lpad.val, i32 %sel, 1, !dbg !6590
  resume { i8*, i32 } %lpad.val41, !dbg !6590
}

; Function Attrs: noinline nounwind uwtable
define linkonce_odr dso_local i64 @_ZNKSt6vectorIdSaIdEE4sizeEv(%"class.std::vector.50"* %this) #1 comdat align 2 !dbg !6641 {
entry:
  %this.addr = alloca %"class.std::vector.50"*, align 8
  store %"class.std::vector.50"* %this, %"class.std::vector.50"** %this.addr, align 8
  call void @llvm.dbg.declare(metadata %"class.std::vector.50"** %this.addr, metadata !6642, metadata !DIExpression()), !dbg !6644
  %this1 = load %"class.std::vector.50"*, %"class.std::vector.50"** %this.addr, align 8
  %0 = bitcast %"class.std::vector.50"* %this1 to %"struct.std::_Vector_base.51"*, !dbg !6645
  %_M_impl = getelementptr inbounds %"struct.std::_Vector_base.51", %"struct.std::_Vector_base.51"* %0, i32 0, i32 0, !dbg !6645
  %1 = bitcast %"struct.std::_Vector_base<double, std::allocator<double> >::_Vector_impl"* %_M_impl to %"struct.std::_Vector_base<double, std::allocator<double> >::_Vector_impl_data"*, !dbg !6646
  %_M_finish = getelementptr inbounds %"struct.std::_Vector_base<double, std::allocator<double> >::_Vector_impl_data", %"struct.std::_Vector_base<double, std::allocator<double> >::_Vector_impl_data"* %1, i32 0, i32 1, !dbg !6647
  %2 = load double*, double** %_M_finish, align 8, !dbg !6647
  %3 = bitcast %"class.std::vector.50"* %this1 to %"struct.std::_Vector_base.51"*, !dbg !6648
  %_M_impl2 = getelementptr inbounds %"struct.std::_Vector_base.51", %"struct.std::_Vector_base.51"* %3, i32 0, i32 0, !dbg !6648
  %4 = bitcast %"struct.std::_Vector_base<double, std::allocator<double> >::_Vector_impl"* %_M_impl2 to %"struct.std::_Vector_base<double, std::allocator<double> >::_Vector_impl_data"*, !dbg !6649
  %_M_start = getelementptr inbounds %"struct.std::_Vector_base<double, std::allocator<double> >::_Vector_impl_data", %"struct.std::_Vector_base<double, std::allocator<double> >::_Vector_impl_data"* %4, i32 0, i32 0, !dbg !6650
  %5 = load double*, double** %_M_start, align 8, !dbg !6650
  %sub.ptr.lhs.cast = ptrtoint double* %2 to i64, !dbg !6651
  %sub.ptr.rhs.cast = ptrtoint double* %5 to i64, !dbg !6651
  %sub.ptr.sub = sub i64 %sub.ptr.lhs.cast, %sub.ptr.rhs.cast, !dbg !6651
  %sub.ptr.div = sdiv exact i64 %sub.ptr.sub, 8, !dbg !6651
  ret i64 %sub.ptr.div, !dbg !6652
}

; Function Attrs: noinline nounwind uwtable
define linkonce_odr dso_local void @_ZNSt6vectorIN6dealii7Threads6ThreadIdEESaIS3_EEC2Ev(%"class.std::vector.198"* %this) unnamed_addr #1 comdat align 2 !dbg !6653 {
entry:
  %this.addr = alloca %"class.std::vector.198"*, align 8
  store %"class.std::vector.198"* %this, %"class.std::vector.198"** %this.addr, align 8
  call void @llvm.dbg.declare(metadata %"class.std::vector.198"** %this.addr, metadata !6654, metadata !DIExpression()), !dbg !6656
  %this1 = load %"class.std::vector.198"*, %"class.std::vector.198"** %this.addr, align 8
  %0 = bitcast %"class.std::vector.198"* %this1 to %"struct.std::_Vector_base.199"*, !dbg !6657
  call void @_ZNSt12_Vector_baseIN6dealii7Threads6ThreadIdEESaIS3_EEC2Ev(%"struct.std::_Vector_base.199"* %0) #4, !dbg !6658
  ret void, !dbg !6657
}

; Function Attrs: noinline uwtable
define linkonce_odr dso_local void @_ZNSt6vectorIN6dealii7Threads6ThreadIdEESaIS3_EE9push_backEOS3_(%"class.std::vector.198"* %this, %"class.dealii::Threads::Thread"* dereferenceable(16) %__x) #0 comdat align 2 !dbg !6659 {
entry:
  %this.addr = alloca %"class.std::vector.198"*, align 8
  %__x.addr = alloca %"class.dealii::Threads::Thread"*, align 8
  store %"class.std::vector.198"* %this, %"class.std::vector.198"** %this.addr, align 8
  call void @llvm.dbg.declare(metadata %"class.std::vector.198"** %this.addr, metadata !6660, metadata !DIExpression()), !dbg !6661
  store %"class.dealii::Threads::Thread"* %__x, %"class.dealii::Threads::Thread"** %__x.addr, align 8
  call void @llvm.dbg.declare(metadata %"class.dealii::Threads::Thread"** %__x.addr, metadata !6662, metadata !DIExpression()), !dbg !6663
  %this1 = load %"class.std::vector.198"*, %"class.std::vector.198"** %this.addr, align 8
  %0 = load %"class.dealii::Threads::Thread"*, %"class.dealii::Threads::Thread"** %__x.addr, align 8, !dbg !6664
  %call = call dereferenceable(16) %"class.dealii::Threads::Thread"* @_ZSt4moveIRN6dealii7Threads6ThreadIdEEEONSt16remove_referenceIT_E4typeEOS6_(%"class.dealii::Threads::Thread"* dereferenceable(16) %0) #4, !dbg !6665
  call void @_ZNSt6vectorIN6dealii7Threads6ThreadIdEESaIS3_EE12emplace_backIJS3_EEEvDpOT_(%"class.std::vector.198"* %this1, %"class.dealii::Threads::Thread"* dereferenceable(16) %call), !dbg !6666
  ret void, !dbg !6667
}

; Function Attrs: noinline uwtable
define linkonce_odr dso_local void @_ZN6dealii7Threads5spawnIdN9libparest5Slave10Stationary5SlaveILi3EdEEdRNS_6VectorIdEEEENS0_8internal16fun_encapsulatorIT_N5boost6tuples5tupleIT1_T2_NSE_9null_typeESI_SI_SI_SI_SI_SI_SI_EELi2EEERKT0_MSL_KFSC_SG_SH_E(%"class.dealii::Threads::internal::fun_encapsulator"* noalias sret %agg.result, %"class.libparest::Slave::Stationary::Slave"* dereferenceable(648) %c, i64 %fun_ptr.coerce0, i64 %fun_ptr.coerce1) #0 comdat personality i8* bitcast (i32 (...)* @__gxx_personality_v0 to i8*) !dbg !6668 {
entry:
  %result.ptr = alloca i8*, align 8
  %fun_ptr = alloca { i64, i64 }, align 8
  %c.addr = alloca %"class.libparest::Slave::Stationary::Slave"*, align 8
  %fun_ptr.addr = alloca { i64, i64 }, align 8
  %ref.tmp = alloca %"class.boost::function", align 8
  %agg.tmp = alloca %"class.boost::_bi::bind_t", align 8
  %agg.tmp2 = alloca %"class.boost::reference_wrapper", align 8
  %agg.tmp3 = alloca %"struct.boost::arg", align 1
  %agg.tmp4 = alloca %"struct.boost::arg.0", align 1
  %coerce = alloca { i64, i64 }, align 8
  %exn.slot = alloca i8*
  %ehselector.slot = alloca i32
  %0 = bitcast %"class.dealii::Threads::internal::fun_encapsulator"* %agg.result to i8*
  store i8* %0, i8** %result.ptr, align 8
  %1 = getelementptr inbounds { i64, i64 }, { i64, i64 }* %fun_ptr, i32 0, i32 0
  store i64 %fun_ptr.coerce0, i64* %1, align 8
  %2 = getelementptr inbounds { i64, i64 }, { i64, i64 }* %fun_ptr, i32 0, i32 1
  store i64 %fun_ptr.coerce1, i64* %2, align 8
  %fun_ptr1 = load { i64, i64 }, { i64, i64 }* %fun_ptr, align 8
  store %"class.libparest::Slave::Stationary::Slave"* %c, %"class.libparest::Slave::Stationary::Slave"** %c.addr, align 8
  call void @llvm.dbg.declare(metadata %"class.libparest::Slave::Stationary::Slave"** %c.addr, metadata !6910, metadata !DIExpression()), !dbg !6911
  store { i64, i64 } %fun_ptr1, { i64, i64 }* %fun_ptr.addr, align 8
  call void @llvm.dbg.declare(metadata { i64, i64 }* %fun_ptr.addr, metadata !6912, metadata !DIExpression()), !dbg !6913
  %3 = load { i64, i64 }, { i64, i64 }* %fun_ptr.addr, align 8, !dbg !6914
  %4 = load %"class.libparest::Slave::Stationary::Slave"*, %"class.libparest::Slave::Stationary::Slave"** %c.addr, align 8, !dbg !6915
  %call = call %"class.libparest::Slave::Stationary::Slave"* @_ZN5boost4crefIN9libparest5Slave10Stationary5SlaveILi3EdEEEEKNS_17reference_wrapperIKT_EERS8_(%"class.libparest::Slave::Stationary::Slave"* dereferenceable(648) %4), !dbg !6916
  %coerce.dive = getelementptr inbounds %"class.boost::reference_wrapper", %"class.boost::reference_wrapper"* %agg.tmp2, i32 0, i32 0, !dbg !6916
  store %"class.libparest::Slave::Stationary::Slave"* %call, %"class.libparest::Slave::Stationary::Slave"** %coerce.dive, align 8, !dbg !6916
  store { i64, i64 } %3, { i64, i64 }* %coerce, align 8, !dbg !6917
  %5 = getelementptr inbounds { i64, i64 }, { i64, i64 }* %coerce, i32 0, i32 0, !dbg !6917
  %6 = load i64, i64* %5, align 8, !dbg !6917
  %7 = getelementptr inbounds { i64, i64 }, { i64, i64 }* %coerce, i32 0, i32 1, !dbg !6917
  %8 = load i64, i64* %7, align 8, !dbg !6917
  %coerce.dive5 = getelementptr inbounds %"class.boost::reference_wrapper", %"class.boost::reference_wrapper"* %agg.tmp2, i32 0, i32 0, !dbg !6917
  %9 = load %"class.libparest::Slave::Stationary::Slave"*, %"class.libparest::Slave::Stationary::Slave"** %coerce.dive5, align 8, !dbg !6917
  call void @_ZN5boost4bindIdN9libparest5Slave10Stationary5SlaveILi3EdEEdRN6dealii6VectorIdEENS_17reference_wrapperIKS5_EENS_3argILi1EEENSD_ILi2EEEEENS_3_bi6bind_tIT_NS_4_mfi4cmf2ISI_T0_T1_T2_EENSG_9list_av_3IT3_T4_T5_E4typeEEEMSL_KFSI_SM_SN_ESQ_SR_SS_(%"class.boost::_bi::bind_t"* sret %agg.tmp, i64 %6, i64 %8, %"class.libparest::Slave::Stationary::Slave"* %9), !dbg !6917
  call void @_ZN5boost8functionIFddRN6dealii6VectorIdEEEEC2INS_3_bi6bind_tIdNS_4_mfi4cmf2IdN9libparest5Slave10Stationary5SlaveILi3EdEEdS4_EENS8_5list3INS_17reference_wrapperIKSG_EENS_3argILi1EEENSM_ILi2EEEEEEEEET_NS_11enable_if_cIXsr5boost11type_traits7ice_notIXsr11is_integralISR_EE5valueEEE5valueEiE4typeE(%"class.boost::function"* %ref.tmp, %"class.boost::_bi::bind_t"* byval(%"class.boost::_bi::bind_t") align 8 %agg.tmp, i32 0), !dbg !6918
  invoke void @_ZN6dealii7Threads8internal16fun_encapsulatorIdN5boost6tuples5tupleIdRNS_6VectorIdEENS4_9null_typeES9_S9_S9_S9_S9_S9_S9_EELi2EEC2ERKNS3_8functionIFddS8_EEE(%"class.dealii::Threads::internal::fun_encapsulator"* %agg.result, %"class.boost::function"* dereferenceable(32) %ref.tmp)
          to label %invoke.cont unwind label %lpad, !dbg !6918

invoke.cont:                                      ; preds = %entry
  call void @_ZN5boost8functionIFddRN6dealii6VectorIdEEEED2Ev(%"class.boost::function"* %ref.tmp) #4, !dbg !6919
  ret void, !dbg !6919

lpad:                                             ; preds = %entry
  %10 = landingpad { i8*, i32 }
          cleanup, !dbg !6920
  %11 = extractvalue { i8*, i32 } %10, 0, !dbg !6920
  store i8* %11, i8** %exn.slot, align 8, !dbg !6920
  %12 = extractvalue { i8*, i32 } %10, 1, !dbg !6920
  store i32 %12, i32* %ehselector.slot, align 4, !dbg !6920
  call void @_ZN5boost8functionIFddRN6dealii6VectorIdEEEED2Ev(%"class.boost::function"* %ref.tmp) #4, !dbg !6919
  br label %eh.resume, !dbg !6919

eh.resume:                                        ; preds = %lpad
  %exn = load i8*, i8** %exn.slot, align 8, !dbg !6919
  %sel = load i32, i32* %ehselector.slot, align 4, !dbg !6919
  %lpad.val = insertvalue { i8*, i32 } undef, i8* %exn, 0, !dbg !6919
  %lpad.val6 = insertvalue { i8*, i32 } %lpad.val, i32 %sel, 1, !dbg !6919
  resume { i8*, i32 } %lpad.val6, !dbg !6919
}

; Function Attrs: noinline uwtable
define linkonce_odr dso_local void @_ZN6dealii7Threads8internal16fun_encapsulatorIdN5boost6tuples5tupleIdRNS_6VectorIdEENS4_9null_typeES9_S9_S9_S9_S9_S9_S9_EELi2EEclEdS8_(%"class.dealii::Threads::Thread"* noalias sret %agg.result, %"class.dealii::Threads::internal::fun_encapsulator"* %this, double %arg1, %"class.dealii::Vector"* dereferenceable(88) %arg2) #0 comdat align 2 personality i8* bitcast (i32 (...)* @__gxx_personality_v0 to i8*) !dbg !6921 {
entry:
  %result.ptr = alloca i8*, align 8
  %this.addr = alloca %"class.dealii::Threads::internal::fun_encapsulator"*, align 8
  %arg1.addr = alloca double, align 8
  %arg2.addr = alloca %"class.dealii::Vector"*, align 8
  %ref.tmp = alloca %"class.boost::function.233", align 8
  %agg.tmp = alloca %"class.boost::_bi::bind_t.234", align 8
  %agg.tmp2 = alloca %"class.boost::function", align 8
  %exn.slot = alloca i8*
  %ehselector.slot = alloca i32
  %agg.tmp3 = alloca %"class.boost::reference_wrapper.238", align 8
  %0 = bitcast %"class.dealii::Threads::Thread"* %agg.result to i8*
  store i8* %0, i8** %result.ptr, align 8
  store %"class.dealii::Threads::internal::fun_encapsulator"* %this, %"class.dealii::Threads::internal::fun_encapsulator"** %this.addr, align 8
  call void @llvm.dbg.declare(metadata %"class.dealii::Threads::internal::fun_encapsulator"** %this.addr, metadata !6922, metadata !DIExpression()), !dbg !6924
  store double %arg1, double* %arg1.addr, align 8
  call void @llvm.dbg.declare(metadata double* %arg1.addr, metadata !6925, metadata !DIExpression()), !dbg !6926
  store %"class.dealii::Vector"* %arg2, %"class.dealii::Vector"** %arg2.addr, align 8
  call void @llvm.dbg.declare(metadata %"class.dealii::Vector"** %arg2.addr, metadata !6927, metadata !DIExpression()), !dbg !6928
  %this1 = load %"class.dealii::Threads::internal::fun_encapsulator"*, %"class.dealii::Threads::internal::fun_encapsulator"** %this.addr, align 8
  %function = getelementptr inbounds %"class.dealii::Threads::internal::fun_encapsulator", %"class.dealii::Threads::internal::fun_encapsulator"* %this1, i32 0, i32 0, !dbg !6929
  call void @_ZN5boost8functionIFddRN6dealii6VectorIdEEEEC2ERKS6_(%"class.boost::function"* %agg.tmp2, %"class.boost::function"* dereferenceable(32) %function), !dbg !6929
  %call = invoke double @_ZN6dealii7Threads8internal14maybe_make_refIdE3actERd(double* dereferenceable(8) %arg1.addr)
          to label %invoke.cont unwind label %lpad, !dbg !6930

invoke.cont:                                      ; preds = %entry
  %1 = load %"class.dealii::Vector"*, %"class.dealii::Vector"** %arg2.addr, align 8, !dbg !6931
  %call5 = invoke %"class.dealii::Vector"* @_ZN6dealii7Threads8internal14maybe_make_refIRNS_6VectorIdEEE3actES5_(%"class.dealii::Vector"* dereferenceable(88) %1)
          to label %invoke.cont4 unwind label %lpad, !dbg !6932

invoke.cont4:                                     ; preds = %invoke.cont
  %coerce.dive = getelementptr inbounds %"class.boost::reference_wrapper.238", %"class.boost::reference_wrapper.238"* %agg.tmp3, i32 0, i32 0, !dbg !6932
  store %"class.dealii::Vector"* %call5, %"class.dealii::Vector"** %coerce.dive, align 8, !dbg !6932
  %coerce.dive6 = getelementptr inbounds %"class.boost::reference_wrapper.238", %"class.boost::reference_wrapper.238"* %agg.tmp3, i32 0, i32 0, !dbg !6933
  %2 = load %"class.dealii::Vector"*, %"class.dealii::Vector"** %coerce.dive6, align 8, !dbg !6933
  invoke void @_ZN5boost4bindINS_8functionIFddRN6dealii6VectorIdEEEEEdNS_17reference_wrapperIS4_EEEENS_3_bi6bind_tINSA_11unspecifiedET_NSA_9list_av_2IT0_T1_E4typeEEESD_SF_SG_(%"class.boost::_bi::bind_t.234"* sret %agg.tmp, %"class.boost::function"* %agg.tmp2, double %call, %"class.dealii::Vector"* %2)
          to label %invoke.cont7 unwind label %lpad, !dbg !6933

invoke.cont7:                                     ; preds = %invoke.cont4
  invoke void @_ZN5boost8functionIFdvEEC2INS_3_bi6bind_tINS4_11unspecifiedENS0_IFddRN6dealii6VectorIdEEEEENS4_5list2INS4_5valueIdEENS_17reference_wrapperIS9_EEEEEEEET_NS_11enable_if_cIXsr5boost11type_traits7ice_notIXsr11is_integralISK_EE5valueEEE5valueEiE4typeE(%"class.boost::function.233"* %ref.tmp, %"class.boost::_bi::bind_t.234"* %agg.tmp, i32 0)
          to label %invoke.cont9 unwind label %lpad8, !dbg !6933

invoke.cont9:                                     ; preds = %invoke.cont7
  invoke void @_ZN6dealii7Threads6ThreadIdEC2ERKN5boost8functionIFdvEEE(%"class.dealii::Threads::Thread"* %agg.result, %"class.boost::function.233"* dereferenceable(32) %ref.tmp)
          to label %invoke.cont11 unwind label %lpad10, !dbg !6934

invoke.cont11:                                    ; preds = %invoke.cont9
  call void @_ZN5boost8functionIFdvEED2Ev(%"class.boost::function.233"* %ref.tmp) #4, !dbg !6935
  call void @_ZN5boost3_bi6bind_tINS0_11unspecifiedENS_8functionIFddRN6dealii6VectorIdEEEEENS0_5list2INS0_5valueIdEENS_17reference_wrapperIS6_EEEEED2Ev(%"class.boost::_bi::bind_t.234"* %agg.tmp) #4, !dbg !6935
  call void @_ZN5boost8functionIFddRN6dealii6VectorIdEEEED2Ev(%"class.boost::function"* %agg.tmp2) #4, !dbg !6935
  ret void, !dbg !6935

lpad:                                             ; preds = %invoke.cont4, %invoke.cont, %entry
  %3 = landingpad { i8*, i32 }
          cleanup, !dbg !6936
  %4 = extractvalue { i8*, i32 } %3, 0, !dbg !6936
  store i8* %4, i8** %exn.slot, align 8, !dbg !6936
  %5 = extractvalue { i8*, i32 } %3, 1, !dbg !6936
  store i32 %5, i32* %ehselector.slot, align 4, !dbg !6936
  br label %ehcleanup12, !dbg !6936

lpad8:                                            ; preds = %invoke.cont7
  %6 = landingpad { i8*, i32 }
          cleanup, !dbg !6936
  %7 = extractvalue { i8*, i32 } %6, 0, !dbg !6936
  store i8* %7, i8** %exn.slot, align 8, !dbg !6936
  %8 = extractvalue { i8*, i32 } %6, 1, !dbg !6936
  store i32 %8, i32* %ehselector.slot, align 4, !dbg !6936
  br label %ehcleanup, !dbg !6936

lpad10:                                           ; preds = %invoke.cont9
  %9 = landingpad { i8*, i32 }
          cleanup, !dbg !6936
  %10 = extractvalue { i8*, i32 } %9, 0, !dbg !6936
  store i8* %10, i8** %exn.slot, align 8, !dbg !6936
  %11 = extractvalue { i8*, i32 } %9, 1, !dbg !6936
  store i32 %11, i32* %ehselector.slot, align 4, !dbg !6936
  call void @_ZN5boost8functionIFdvEED2Ev(%"class.boost::function.233"* %ref.tmp) #4, !dbg !6935
  br label %ehcleanup, !dbg !6935

ehcleanup:                                        ; preds = %lpad10, %lpad8
  call void @_ZN5boost3_bi6bind_tINS0_11unspecifiedENS_8functionIFddRN6dealii6VectorIdEEEEENS0_5list2INS0_5valueIdEENS_17reference_wrapperIS6_EEEEED2Ev(%"class.boost::_bi::bind_t.234"* %agg.tmp) #4, !dbg !6935
  br label %ehcleanup12, !dbg !6935

ehcleanup12:                                      ; preds = %ehcleanup, %lpad
  call void @_ZN5boost8functionIFddRN6dealii6VectorIdEEEED2Ev(%"class.boost::function"* %agg.tmp2) #4, !dbg !6935
  br label %eh.resume, !dbg !6935

eh.resume:                                        ; preds = %ehcleanup12
  %exn = load i8*, i8** %exn.slot, align 8, !dbg !6935
  %sel = load i32, i32* %ehselector.slot, align 4, !dbg !6935
  %lpad.val = insertvalue { i8*, i32 } undef, i8* %exn, 0, !dbg !6935
  %lpad.val13 = insertvalue { i8*, i32 } %lpad.val, i32 %sel, 1, !dbg !6935
  resume { i8*, i32 } %lpad.val13, !dbg !6935
}

; Function Attrs: noinline nounwind uwtable
define linkonce_odr dso_local dereferenceable(8) double* @_ZNKSt6vectorIdSaIdEEixEm(%"class.std::vector.50"* %this, i64 %__n) #1 comdat align 2 !dbg !6937 {
entry:
  %this.addr = alloca %"class.std::vector.50"*, align 8
  %__n.addr = alloca i64, align 8
  store %"class.std::vector.50"* %this, %"class.std::vector.50"** %this.addr, align 8
  call void @llvm.dbg.declare(metadata %"class.std::vector.50"** %this.addr, metadata !6938, metadata !DIExpression()), !dbg !6939
  store i64 %__n, i64* %__n.addr, align 8
  call void @llvm.dbg.declare(metadata i64* %__n.addr, metadata !6940, metadata !DIExpression()), !dbg !6941
  %this1 = load %"class.std::vector.50"*, %"class.std::vector.50"** %this.addr, align 8
  %0 = bitcast %"class.std::vector.50"* %this1 to %"struct.std::_Vector_base.51"*, !dbg !6942
  %_M_impl = getelementptr inbounds %"struct.std::_Vector_base.51", %"struct.std::_Vector_base.51"* %0, i32 0, i32 0, !dbg !6942
  %1 = bitcast %"struct.std::_Vector_base<double, std::allocator<double> >::_Vector_impl"* %_M_impl to %"struct.std::_Vector_base<double, std::allocator<double> >::_Vector_impl_data"*, !dbg !6943
  %_M_start = getelementptr inbounds %"struct.std::_Vector_base<double, std::allocator<double> >::_Vector_impl_data", %"struct.std::_Vector_base<double, std::allocator<double> >::_Vector_impl_data"* %1, i32 0, i32 0, !dbg !6944
  %2 = load double*, double** %_M_start, align 8, !dbg !6944
  %3 = load i64, i64* %__n.addr, align 8, !dbg !6945
  %add.ptr = getelementptr inbounds double, double* %2, i64 %3, !dbg !6946
  ret double* %add.ptr, !dbg !6947
}

; Function Attrs: noinline nounwind uwtable
define linkonce_odr dso_local dereferenceable(8) %"class.dealii::Vector"** @_ZNSt6vectorIPN6dealii6VectorIdEESaIS3_EEixEm(%"class.std::vector.193"* %this, i64 %__n) #1 comdat align 2 !dbg !6948 {
entry:
  %this.addr = alloca %"class.std::vector.193"*, align 8
  %__n.addr = alloca i64, align 8
  store %"class.std::vector.193"* %this, %"class.std::vector.193"** %this.addr, align 8
  call void @llvm.dbg.declare(metadata %"class.std::vector.193"** %this.addr, metadata !6949, metadata !DIExpression()), !dbg !6951
  store i64 %__n, i64* %__n.addr, align 8
  call void @llvm.dbg.declare(metadata i64* %__n.addr, metadata !6952, metadata !DIExpression()), !dbg !6953
  %this1 = load %"class.std::vector.193"*, %"class.std::vector.193"** %this.addr, align 8
  %0 = bitcast %"class.std::vector.193"* %this1 to %"struct.std::_Vector_base.194"*, !dbg !6954
  %_M_impl = getelementptr inbounds %"struct.std::_Vector_base.194", %"struct.std::_Vector_base.194"* %0, i32 0, i32 0, !dbg !6954
  %1 = bitcast %"struct.std::_Vector_base<dealii::Vector<double> *, std::allocator<dealii::Vector<double> *> >::_Vector_impl"* %_M_impl to %"struct.std::_Vector_base<dealii::Vector<double> *, std::allocator<dealii::Vector<double> *> >::_Vector_impl_data"*, !dbg !6955
  %_M_start = getelementptr inbounds %"struct.std::_Vector_base<dealii::Vector<double> *, std::allocator<dealii::Vector<double> *> >::_Vector_impl_data", %"struct.std::_Vector_base<dealii::Vector<double> *, std::allocator<dealii::Vector<double> *> >::_Vector_impl_data"* %1, i32 0, i32 0, !dbg !6956
  %2 = load %"class.dealii::Vector"**, %"class.dealii::Vector"*** %_M_start, align 8, !dbg !6956
  %3 = load i64, i64* %__n.addr, align 8, !dbg !6957
  %add.ptr = getelementptr inbounds %"class.dealii::Vector"*, %"class.dealii::Vector"** %2, i64 %3, !dbg !6958
  ret %"class.dealii::Vector"** %add.ptr, !dbg !6959
}

; Function Attrs: noinline nounwind uwtable
define linkonce_odr dso_local void @_ZN6dealii7Threads6ThreadIdED2Ev(%"class.dealii::Threads::Thread"* %this) unnamed_addr #1 comdat align 2 !dbg !6960 {
entry:
  %this.addr = alloca %"class.dealii::Threads::Thread"*, align 8
  store %"class.dealii::Threads::Thread"* %this, %"class.dealii::Threads::Thread"** %this.addr, align 8
  call void @llvm.dbg.declare(metadata %"class.dealii::Threads::Thread"** %this.addr, metadata !6962, metadata !DIExpression()), !dbg !6963
  %this1 = load %"class.dealii::Threads::Thread"*, %"class.dealii::Threads::Thread"** %this.addr, align 8
  %thread_descriptor = getelementptr inbounds %"class.dealii::Threads::Thread", %"class.dealii::Threads::Thread"* %this1, i32 0, i32 0, !dbg !6964
  call void @_ZN5boost10shared_ptrIN6dealii7Threads8internal16ThreadDescriptorIdEEED2Ev(%"class.boost::shared_ptr"* %thread_descriptor) #4, !dbg !6964
  ret void, !dbg !6966
}

; Function Attrs: noinline nounwind uwtable
define linkonce_odr dso_local void @_ZN6dealii7Threads8internal16fun_encapsulatorIdN5boost6tuples5tupleIdRNS_6VectorIdEENS4_9null_typeES9_S9_S9_S9_S9_S9_S9_EELi2EED2Ev(%"class.dealii::Threads::internal::fun_encapsulator"* %this) unnamed_addr #1 comdat align 2 !dbg !6967 {
entry:
  %this.addr = alloca %"class.dealii::Threads::internal::fun_encapsulator"*, align 8
  store %"class.dealii::Threads::internal::fun_encapsulator"* %this, %"class.dealii::Threads::internal::fun_encapsulator"** %this.addr, align 8
  call void @llvm.dbg.declare(metadata %"class.dealii::Threads::internal::fun_encapsulator"** %this.addr, metadata !6971, metadata !DIExpression()), !dbg !6972
  %this1 = load %"class.dealii::Threads::internal::fun_encapsulator"*, %"class.dealii::Threads::internal::fun_encapsulator"** %this.addr, align 8
  %function = getelementptr inbounds %"class.dealii::Threads::internal::fun_encapsulator", %"class.dealii::Threads::internal::fun_encapsulator"* %this1, i32 0, i32 0, !dbg !6973
  call void @_ZN5boost8functionIFddRN6dealii6VectorIdEEEED2Ev(%"class.boost::function"* %function) #4, !dbg !6973
  ret void, !dbg !6975
}

; Function Attrs: noinline nounwind uwtable
define linkonce_odr dso_local dereferenceable(16) %"class.dealii::Threads::Thread"* @_ZNSt6vectorIN6dealii7Threads6ThreadIdEESaIS3_EEixEm(%"class.std::vector.198"* %this, i64 %__n) #1 comdat align 2 !dbg !6976 {
entry:
  %this.addr = alloca %"class.std::vector.198"*, align 8
  %__n.addr = alloca i64, align 8
  store %"class.std::vector.198"* %this, %"class.std::vector.198"** %this.addr, align 8
  call void @llvm.dbg.declare(metadata %"class.std::vector.198"** %this.addr, metadata !6977, metadata !DIExpression()), !dbg !6978
  store i64 %__n, i64* %__n.addr, align 8
  call void @llvm.dbg.declare(metadata i64* %__n.addr, metadata !6979, metadata !DIExpression()), !dbg !6980
  %this1 = load %"class.std::vector.198"*, %"class.std::vector.198"** %this.addr, align 8
  %0 = bitcast %"class.std::vector.198"* %this1 to %"struct.std::_Vector_base.199"*, !dbg !6981
  %_M_impl = getelementptr inbounds %"struct.std::_Vector_base.199", %"struct.std::_Vector_base.199"* %0, i32 0, i32 0, !dbg !6981
  %1 = bitcast %"struct.std::_Vector_base<dealii::Threads::Thread<double>, std::allocator<dealii::Threads::Thread<double> > >::_Vector_impl"* %_M_impl to %"struct.std::_Vector_base<dealii::Threads::Thread<double>, std::allocator<dealii::Threads::Thread<double> > >::_Vector_impl_data"*, !dbg !6982
  %_M_start = getelementptr inbounds %"struct.std::_Vector_base<dealii::Threads::Thread<double>, std::allocator<dealii::Threads::Thread<double> > >::_Vector_impl_data", %"struct.std::_Vector_base<dealii::Threads::Thread<double>, std::allocator<dealii::Threads::Thread<double> > >::_Vector_impl_data"* %1, i32 0, i32 0, !dbg !6983
  %2 = load %"class.dealii::Threads::Thread"*, %"class.dealii::Threads::Thread"** %_M_start, align 8, !dbg !6983
  %3 = load i64, i64* %__n.addr, align 8, !dbg !6984
  %add.ptr = getelementptr inbounds %"class.dealii::Threads::Thread", %"class.dealii::Threads::Thread"* %2, i64 %3, !dbg !6985
  ret %"class.dealii::Threads::Thread"* %add.ptr, !dbg !6986
}

; Function Attrs: noinline uwtable
define linkonce_odr dso_local double @_ZN6dealii7Threads6ThreadIdE12return_valueEv(%"class.dealii::Threads::Thread"* %this) #0 comdat align 2 !dbg !6987 {
entry:
  %this.addr = alloca %"class.dealii::Threads::Thread"*, align 8
  store %"class.dealii::Threads::Thread"* %this, %"class.dealii::Threads::Thread"** %this.addr, align 8
  call void @llvm.dbg.declare(metadata %"class.dealii::Threads::Thread"** %this.addr, metadata !6988, metadata !DIExpression()), !dbg !6989
  %this1 = load %"class.dealii::Threads::Thread"*, %"class.dealii::Threads::Thread"** %this.addr, align 8
  call void @_ZNK6dealii7Threads6ThreadIdE4joinEv(%"class.dealii::Threads::Thread"* %this1), !dbg !6990
  %thread_descriptor = getelementptr inbounds %"class.dealii::Threads::Thread", %"class.dealii::Threads::Thread"* %this1, i32 0, i32 0, !dbg !6991
  %call = call %"struct.dealii::Threads::internal::ThreadDescriptor"* @_ZNK5boost10shared_ptrIN6dealii7Threads8internal16ThreadDescriptorIdEEEptEv(%"class.boost::shared_ptr"* %thread_descriptor), !dbg !6991
  %ret_val = getelementptr inbounds %"struct.dealii::Threads::internal::ThreadDescriptor", %"struct.dealii::Threads::internal::ThreadDescriptor"* %call, i32 0, i32 0, !dbg !6992
  %call2 = call double @_ZNK6dealii7Threads8internal12return_valueIdE3getEv(%"struct.dealii::Threads::internal::return_value"* %ret_val), !dbg !6993
  ret double %call2, !dbg !6994
}

; Function Attrs: noinline nounwind uwtable
define linkonce_odr dso_local dereferenceable(8) double* @_ZNSt6vectorIdSaIdEEixEm(%"class.std::vector.50"* %this, i64 %__n) #1 comdat align 2 !dbg !6995 {
entry:
  %this.addr = alloca %"class.std::vector.50"*, align 8
  %__n.addr = alloca i64, align 8
  store %"class.std::vector.50"* %this, %"class.std::vector.50"** %this.addr, align 8
  call void @llvm.dbg.declare(metadata %"class.std::vector.50"** %this.addr, metadata !6996, metadata !DIExpression()), !dbg !6998
  store i64 %__n, i64* %__n.addr, align 8
  call void @llvm.dbg.declare(metadata i64* %__n.addr, metadata !6999, metadata !DIExpression()), !dbg !7000
  %this1 = load %"class.std::vector.50"*, %"class.std::vector.50"** %this.addr, align 8
  %0 = bitcast %"class.std::vector.50"* %this1 to %"struct.std::_Vector_base.51"*, !dbg !7001
  %_M_impl = getelementptr inbounds %"struct.std::_Vector_base.51", %"struct.std::_Vector_base.51"* %0, i32 0, i32 0, !dbg !7001
  %1 = bitcast %"struct.std::_Vector_base<double, std::allocator<double> >::_Vector_impl"* %_M_impl to %"struct.std::_Vector_base<double, std::allocator<double> >::_Vector_impl_data"*, !dbg !7002
  %_M_start = getelementptr inbounds %"struct.std::_Vector_base<double, std::allocator<double> >::_Vector_impl_data", %"struct.std::_Vector_base<double, std::allocator<double> >::_Vector_impl_data"* %1, i32 0, i32 0, !dbg !7003
  %2 = load double*, double** %_M_start, align 8, !dbg !7003
  %3 = load i64, i64* %__n.addr, align 8, !dbg !7004
  %add.ptr = getelementptr inbounds double, double* %2, i64 %3, !dbg !7005
  ret double* %add.ptr, !dbg !7006
}

; Function Attrs: noinline nounwind uwtable
define linkonce_odr dso_local void @_ZNSt6vectorIN6dealii7Threads6ThreadIdEESaIS3_EED2Ev(%"class.std::vector.198"* %this) unnamed_addr #1 comdat align 2 personality i8* bitcast (i32 (...)* @__gxx_personality_v0 to i8*) !dbg !7007 {
entry:
  %this.addr = alloca %"class.std::vector.198"*, align 8
  %exn.slot = alloca i8*
  %ehselector.slot = alloca i32
  store %"class.std::vector.198"* %this, %"class.std::vector.198"** %this.addr, align 8
  call void @llvm.dbg.declare(metadata %"class.std::vector.198"** %this.addr, metadata !7008, metadata !DIExpression()), !dbg !7009
  %this1 = load %"class.std::vector.198"*, %"class.std::vector.198"** %this.addr, align 8
  %0 = bitcast %"class.std::vector.198"* %this1 to %"struct.std::_Vector_base.199"*, !dbg !7010
  %_M_impl = getelementptr inbounds %"struct.std::_Vector_base.199", %"struct.std::_Vector_base.199"* %0, i32 0, i32 0, !dbg !7010
  %1 = bitcast %"struct.std::_Vector_base<dealii::Threads::Thread<double>, std::allocator<dealii::Threads::Thread<double> > >::_Vector_impl"* %_M_impl to %"struct.std::_Vector_base<dealii::Threads::Thread<double>, std::allocator<dealii::Threads::Thread<double> > >::_Vector_impl_data"*, !dbg !7012
  %_M_start = getelementptr inbounds %"struct.std::_Vector_base<dealii::Threads::Thread<double>, std::allocator<dealii::Threads::Thread<double> > >::_Vector_impl_data", %"struct.std::_Vector_base<dealii::Threads::Thread<double>, std::allocator<dealii::Threads::Thread<double> > >::_Vector_impl_data"* %1, i32 0, i32 0, !dbg !7013
  %2 = load %"class.dealii::Threads::Thread"*, %"class.dealii::Threads::Thread"** %_M_start, align 8, !dbg !7013
  %3 = bitcast %"class.std::vector.198"* %this1 to %"struct.std::_Vector_base.199"*, !dbg !7014
  %_M_impl2 = getelementptr inbounds %"struct.std::_Vector_base.199", %"struct.std::_Vector_base.199"* %3, i32 0, i32 0, !dbg !7014
  %4 = bitcast %"struct.std::_Vector_base<dealii::Threads::Thread<double>, std::allocator<dealii::Threads::Thread<double> > >::_Vector_impl"* %_M_impl2 to %"struct.std::_Vector_base<dealii::Threads::Thread<double>, std::allocator<dealii::Threads::Thread<double> > >::_Vector_impl_data"*, !dbg !7015
  %_M_finish = getelementptr inbounds %"struct.std::_Vector_base<dealii::Threads::Thread<double>, std::allocator<dealii::Threads::Thread<double> > >::_Vector_impl_data", %"struct.std::_Vector_base<dealii::Threads::Thread<double>, std::allocator<dealii::Threads::Thread<double> > >::_Vector_impl_data"* %4, i32 0, i32 1, !dbg !7016
  %5 = load %"class.dealii::Threads::Thread"*, %"class.dealii::Threads::Thread"** %_M_finish, align 8, !dbg !7016
  %6 = bitcast %"class.std::vector.198"* %this1 to %"struct.std::_Vector_base.199"*, !dbg !7017
  %call = call dereferenceable(1) %"class.std::allocator.200"* @_ZNSt12_Vector_baseIN6dealii7Threads6ThreadIdEESaIS3_EE19_M_get_Tp_allocatorEv(%"struct.std::_Vector_base.199"* %6) #4, !dbg !7017
  invoke void @_ZSt8_DestroyIPN6dealii7Threads6ThreadIdEES3_EvT_S5_RSaIT0_E(%"class.dealii::Threads::Thread"* %2, %"class.dealii::Threads::Thread"* %5, %"class.std::allocator.200"* dereferenceable(1) %call)
          to label %invoke.cont unwind label %lpad, !dbg !7018

invoke.cont:                                      ; preds = %entry
  %7 = bitcast %"class.std::vector.198"* %this1 to %"struct.std::_Vector_base.199"*, !dbg !7019
  call void @_ZNSt12_Vector_baseIN6dealii7Threads6ThreadIdEESaIS3_EED2Ev(%"struct.std::_Vector_base.199"* %7) #4, !dbg !7019
  ret void, !dbg !7020

lpad:                                             ; preds = %entry
  %8 = landingpad { i8*, i32 }
          catch i8* null, !dbg !7019
  %9 = extractvalue { i8*, i32 } %8, 0, !dbg !7019
  store i8* %9, i8** %exn.slot, align 8, !dbg !7019
  %10 = extractvalue { i8*, i32 } %8, 1, !dbg !7019
  store i32 %10, i32* %ehselector.slot, align 4, !dbg !7019
  %11 = bitcast %"class.std::vector.198"* %this1 to %"struct.std::_Vector_base.199"*, !dbg !7019
  call void @_ZNSt12_Vector_baseIN6dealii7Threads6ThreadIdEESaIS3_EED2Ev(%"struct.std::_Vector_base.199"* %11) #4, !dbg !7019
  br label %terminate.handler, !dbg !7019

terminate.handler:                                ; preds = %lpad
  %exn = load i8*, i8** %exn.slot, align 8, !dbg !7019
  call void @__clang_call_terminate(i8* %exn) #13, !dbg !7019
  unreachable, !dbg !7019
}

; Function Attrs: noinline uwtable
define weak_odr dso_local i32 @_ZNK9libparest5Slave10Stationary5SlaveILi3EdE20n_degrees_of_freedomEv(%"class.libparest::Slave::Stationary::Slave"* %this) unnamed_addr #0 comdat align 2 !dbg !7021 {
entry:
  %this.addr = alloca %"class.libparest::Slave::Stationary::Slave"*, align 8
  store %"class.libparest::Slave::Stationary::Slave"* %this, %"class.libparest::Slave::Stationary::Slave"** %this.addr, align 8
  call void @llvm.dbg.declare(metadata %"class.libparest::Slave::Stationary::Slave"** %this.addr, metadata !7022, metadata !DIExpression()), !dbg !7023
  %this1 = load %"class.libparest::Slave::Stationary::Slave"*, %"class.libparest::Slave::Stationary::Slave"** %this.addr, align 8
  %state_discretization = getelementptr inbounds %"class.libparest::Slave::Stationary::Slave", %"class.libparest::Slave::Stationary::Slave"* %this1, i32 0, i32 7, !dbg !7024
  %call = call %"class.libparest::Slave::Stationary::Discretization::Base"* @_ZNK6dealii12SmartPointerIN9libparest5Slave10Stationary14Discretization4BaseILi3EEEEptEv(%"class.dealii::SmartPointer.34"* %state_discretization), !dbg !7024
  %dof_handlers = getelementptr inbounds %"class.libparest::Slave::Stationary::Discretization::Base", %"class.libparest::Slave::Stationary::Discretization::Base"* %call, i32 0, i32 3, !dbg !7025
  %0 = load %"class.libparest::Slave::Stationary::Discretization::DoFHandlers"*, %"class.libparest::Slave::Stationary::Discretization::DoFHandlers"** %dof_handlers, align 8, !dbg !7025
  %global = getelementptr inbounds %"class.libparest::Slave::Stationary::Discretization::DoFHandlers", %"class.libparest::Slave::Stationary::Discretization::DoFHandlers"* %0, i32 0, i32 1, !dbg !7026
  %call2 = call i32 @_ZNK6dealii10DoFHandlerILi3ELi3EE6n_dofsEv(%"class.dealii::DoFHandler"* %global), !dbg !7027
  ret i32 %call2, !dbg !7028
}

; Function Attrs: noinline nounwind uwtable
define weak_odr dso_local dereferenceable(504) %"class.libparest::Slave::Stationary::GlobalMatrix::Matrix"* @_ZNK9libparest5Slave10Stationary5SlaveILi3EdE17get_global_matrixEv(%"class.libparest::Slave::Stationary::Slave"* %this) #1 comdat align 2 !dbg !7029 {
entry:
  %this.addr = alloca %"class.libparest::Slave::Stationary::Slave"*, align 8
  store %"class.libparest::Slave::Stationary::Slave"* %this, %"class.libparest::Slave::Stationary::Slave"** %this.addr, align 8
  call void @llvm.dbg.declare(metadata %"class.libparest::Slave::Stationary::Slave"** %this.addr, metadata !7030, metadata !DIExpression()), !dbg !7031
  %this1 = load %"class.libparest::Slave::Stationary::Slave"*, %"class.libparest::Slave::Stationary::Slave"** %this.addr, align 8
  %global_matrix = getelementptr inbounds %"class.libparest::Slave::Stationary::Slave", %"class.libparest::Slave::Stationary::Slave"* %this1, i32 0, i32 1, !dbg !7032
  %0 = load %"class.libparest::Slave::Stationary::GlobalMatrix::Matrix"*, %"class.libparest::Slave::Stationary::GlobalMatrix::Matrix"** %global_matrix, align 8, !dbg !7032
  ret %"class.libparest::Slave::Stationary::GlobalMatrix::Matrix"* %0, !dbg !7033
}

; Function Attrs: noinline uwtable
define weak_odr dso_local double @_ZNK9libparest5Slave10Stationary5SlaveILi3EdE24compute_trial_residual_1EdRN6dealii6VectorIdEE(%"class.libparest::Slave::Stationary::Slave"* %this, double %trial_alpha, %"class.dealii::Vector"* dereferenceable(88) %slave_contribution) unnamed_addr #0 comdat align 2 personality i8* bitcast (i32 (...)* @__gxx_personality_v0 to i8*) !dbg !7034 {
entry:
  %this.addr = alloca %"class.libparest::Slave::Stationary::Slave"*, align 8
  %trial_alpha.addr = alloca double, align 8
  %slave_contribution.addr = alloca %"class.dealii::Vector"*, align 8
  %block_sizes = alloca %"class.std::vector.27"*, align 8
  %trial_residual = alloca %"class.dealii::BlockVector", align 8
  %trial_iterate = alloca %"class.dealii::BlockVector", align 8
  %exn.slot = alloca i8*
  %ehselector.slot = alloca i32
  %tmp = alloca %"class.dealii::Vector", align 8
  %residual = alloca double, align 8
  store %"class.libparest::Slave::Stationary::Slave"* %this, %"class.libparest::Slave::Stationary::Slave"** %this.addr, align 8
  call void @llvm.dbg.declare(metadata %"class.libparest::Slave::Stationary::Slave"** %this.addr, metadata !7035, metadata !DIExpression()), !dbg !7036
  store double %trial_alpha, double* %trial_alpha.addr, align 8
  call void @llvm.dbg.declare(metadata double* %trial_alpha.addr, metadata !7037, metadata !DIExpression()), !dbg !7038
  store %"class.dealii::Vector"* %slave_contribution, %"class.dealii::Vector"** %slave_contribution.addr, align 8
  call void @llvm.dbg.declare(metadata %"class.dealii::Vector"** %slave_contribution.addr, metadata !7039, metadata !DIExpression()), !dbg !7040
  %this1 = load %"class.libparest::Slave::Stationary::Slave"*, %"class.libparest::Slave::Stationary::Slave"** %this.addr, align 8
  call void @llvm.dbg.declare(metadata %"class.std::vector.27"** %block_sizes, metadata !7041, metadata !DIExpression()), !dbg !7575
  %state_discretization = getelementptr inbounds %"class.libparest::Slave::Stationary::Slave", %"class.libparest::Slave::Stationary::Slave"* %this1, i32 0, i32 7, !dbg !7576
  %call = call %"class.libparest::Slave::Stationary::Discretization::Base"* @_ZNK6dealii12SmartPointerIN9libparest5Slave10Stationary14Discretization4BaseILi3EEEEptEv(%"class.dealii::SmartPointer.34"* %state_discretization), !dbg !7576
  %dof_handlers = getelementptr inbounds %"class.libparest::Slave::Stationary::Discretization::Base", %"class.libparest::Slave::Stationary::Discretization::Base"* %call, i32 0, i32 3, !dbg !7577
  %0 = load %"class.libparest::Slave::Stationary::Discretization::DoFHandlers"*, %"class.libparest::Slave::Stationary::Discretization::DoFHandlers"** %dof_handlers, align 8, !dbg !7577
  %block_sizes2 = getelementptr inbounds %"class.libparest::Slave::Stationary::Discretization::DoFHandlers", %"class.libparest::Slave::Stationary::Discretization::DoFHandlers"* %0, i32 0, i32 7, !dbg !7578
  store %"class.std::vector.27"* %block_sizes2, %"class.std::vector.27"** %block_sizes, align 8, !dbg !7575
  call void @llvm.dbg.declare(metadata %"class.dealii::BlockVector"* %trial_residual, metadata !7579, metadata !DIExpression()), !dbg !7580
  call void @_ZN6dealii11BlockVectorIdEC1Ejj(%"class.dealii::BlockVector"* %trial_residual, i32 0, i32 0), !dbg !7580
  call void @llvm.dbg.declare(metadata %"class.dealii::BlockVector"* %trial_iterate, metadata !7581, metadata !DIExpression()), !dbg !7582
  %1 = load %"class.std::vector.27"*, %"class.std::vector.27"** %block_sizes, align 8, !dbg !7583
  invoke void @_ZN6dealii11BlockVectorIdEC1ERKSt6vectorIjSaIjEE(%"class.dealii::BlockVector"* %trial_iterate, %"class.std::vector.27"* dereferenceable(24) %1)
          to label %invoke.cont unwind label %lpad, !dbg !7582

invoke.cont:                                      ; preds = %entry
  %present_iterate = getelementptr inbounds %"class.libparest::Slave::Stationary::Slave", %"class.libparest::Slave::Stationary::Slave"* %this1, i32 0, i32 2, !dbg !7584
  %call5 = invoke dereferenceable(128) %"class.dealii::BlockVector"* @_ZN6dealii11BlockVectorIdEaSERKS1_(%"class.dealii::BlockVector"* %trial_iterate, %"class.dealii::BlockVector"* dereferenceable(128) %present_iterate)
          to label %invoke.cont4 unwind label %lpad3, !dbg !7585

invoke.cont4:                                     ; preds = %invoke.cont
  %2 = load double, double* %trial_alpha.addr, align 8, !dbg !7586
  %cmp = fcmp une double %2, 0.000000e+00, !dbg !7588
  br i1 %cmp, label %if.then, label %if.end, !dbg !7589

if.then:                                          ; preds = %invoke.cont4
  %3 = bitcast %"class.dealii::BlockVector"* %trial_iterate to %"class.dealii::BlockVectorBase"*, !dbg !7590
  %4 = load double, double* %trial_alpha.addr, align 8, !dbg !7591
  %update = getelementptr inbounds %"class.libparest::Slave::Stationary::Slave", %"class.libparest::Slave::Stationary::Slave"* %this1, i32 0, i32 3, !dbg !7592
  %5 = bitcast %"class.dealii::BlockVector"* %update to %"class.dealii::BlockVectorBase"*, !dbg !7592
  invoke void @_ZN6dealii15BlockVectorBaseINS_6VectorIdEEE3addEdRKS3_(%"class.dealii::BlockVectorBase"* %3, double %4, %"class.dealii::BlockVectorBase"* dereferenceable(128) %5)
          to label %invoke.cont6 unwind label %lpad3, !dbg !7593

invoke.cont6:                                     ; preds = %if.then
  br label %if.end, !dbg !7590

lpad:                                             ; preds = %entry
  %6 = landingpad { i8*, i32 }
          cleanup, !dbg !7594
  %7 = extractvalue { i8*, i32 } %6, 0, !dbg !7594
  store i8* %7, i8** %exn.slot, align 8, !dbg !7594
  %8 = extractvalue { i8*, i32 } %6, 1, !dbg !7594
  store i32 %8, i32* %ehselector.slot, align 4, !dbg !7594
  br label %ehcleanup72, !dbg !7594

lpad3:                                            ; preds = %invoke.cont68, %invoke.cont66, %invoke.cont64, %invoke.cont62, %invoke.cont60, %invoke.cont58, %invoke.cont56, %invoke.cont55, %invoke.cont52, %invoke.cont50, %invoke.cont46, %invoke.cont44, %invoke.cont41, %invoke.cont37, %invoke.cont35, %invoke.cont33, %invoke.cont32, %invoke.cont31, %invoke.cont12, %invoke.cont10, %invoke.cont7, %if.end, %if.then, %invoke.cont
  %9 = landingpad { i8*, i32 }
          cleanup, !dbg !7594
  %10 = extractvalue { i8*, i32 } %9, 0, !dbg !7594
  store i8* %10, i8** %exn.slot, align 8, !dbg !7594
  %11 = extractvalue { i8*, i32 } %9, 1, !dbg !7594
  store i32 %11, i32* %ehselector.slot, align 4, !dbg !7594
  br label %ehcleanup, !dbg !7594

if.end:                                           ; preds = %invoke.cont6, %invoke.cont4
  call void @llvm.dbg.declare(metadata %"class.dealii::Vector"* %tmp, metadata !7595, metadata !DIExpression()), !dbg !7598
  %parameter_discretization = getelementptr inbounds %"class.libparest::Slave::Stationary::Slave", %"class.libparest::Slave::Stationary::Slave"* %this1, i32 0, i32 6, !dbg !7599
  %call8 = invoke %"class.libparest::Parameter::Field::DiscretizedField"* @_ZNK6dealii12SmartPointerIN9libparest9Parameter5Field16DiscretizedFieldILi3EEEEptEv(%"class.dealii::SmartPointer.33"* %parameter_discretization)
          to label %invoke.cont7 unwind label %lpad3, !dbg !7599

invoke.cont7:                                     ; preds = %if.end
  %dof_handlers9 = getelementptr inbounds %"class.libparest::Parameter::Field::DiscretizedField", %"class.libparest::Parameter::Field::DiscretizedField"* %call8, i32 0, i32 3, !dbg !7600
  %call11 = invoke %"class.libparest::Parameter::Field::DoFHandlers"* @_ZNK6dealii12SmartPointerIN9libparest9Parameter5Field11DoFHandlersILi3EEEEptEv(%"class.dealii::SmartPointer.102"* %dof_handlers9)
          to label %invoke.cont10 unwind label %lpad3, !dbg !7599

invoke.cont10:                                    ; preds = %invoke.cont7
  %parameter = getelementptr inbounds %"class.libparest::Parameter::Field::DoFHandlers", %"class.libparest::Parameter::Field::DoFHandlers"* %call11, i32 0, i32 1, !dbg !7601
  %call13 = invoke i32 @_ZNK6dealii10DoFHandlerILi3ELi3EE6n_dofsEv(%"class.dealii::DoFHandler"* %parameter)
          to label %invoke.cont12 unwind label %lpad3, !dbg !7602

invoke.cont12:                                    ; preds = %invoke.cont10
  invoke void @_ZN6dealii6VectorIdEC2Ej(%"class.dealii::Vector"* %tmp, i32 %call13)
          to label %invoke.cont14 unwind label %lpad3, !dbg !7598

invoke.cont14:                                    ; preds = %invoke.cont12
  %state_discretization15 = getelementptr inbounds %"class.libparest::Slave::Stationary::Slave", %"class.libparest::Slave::Stationary::Slave"* %this1, i32 0, i32 7, !dbg !7603
  %call18 = invoke %"class.libparest::Slave::Stationary::Discretization::Base"* @_ZNK6dealii12SmartPointerIN9libparest5Slave10Stationary14Discretization4BaseILi3EEEEptEv(%"class.dealii::SmartPointer.34"* %state_discretization15)
          to label %invoke.cont17 unwind label %lpad16, !dbg !7603

invoke.cont17:                                    ; preds = %invoke.cont14
  %dof_handlers19 = getelementptr inbounds %"class.libparest::Slave::Stationary::Discretization::Base", %"class.libparest::Slave::Stationary::Discretization::Base"* %call18, i32 0, i32 3, !dbg !7604
  %12 = load %"class.libparest::Slave::Stationary::Discretization::DoFHandlers"*, %"class.libparest::Slave::Stationary::Discretization::DoFHandlers"** %dof_handlers19, align 8, !dbg !7604
  invoke void @_ZNK9libparest5Slave10Stationary14Discretization11DoFHandlersILi3EE21interpolate_parameterERKN6dealii11BlockVectorIdEERNS5_6VectorIdEE(%"class.libparest::Slave::Stationary::Discretization::DoFHandlers"* %12, %"class.dealii::BlockVector"* dereferenceable(128) %trial_iterate, %"class.dealii::Vector"* dereferenceable(88) %tmp)
          to label %invoke.cont20 unwind label %lpad16, !dbg !7605

invoke.cont20:                                    ; preds = %invoke.cont17
  %parameter_discretization21 = getelementptr inbounds %"class.libparest::Slave::Stationary::Slave", %"class.libparest::Slave::Stationary::Slave"* %this1, i32 0, i32 6, !dbg !7606
  %call23 = invoke %"class.libparest::Parameter::Field::DiscretizedField"* @_ZNK6dealii12SmartPointerIN9libparest9Parameter5Field16DiscretizedFieldILi3EEEEptEv(%"class.dealii::SmartPointer.33"* %parameter_discretization21)
          to label %invoke.cont22 unwind label %lpad16, !dbg !7606

invoke.cont22:                                    ; preds = %invoke.cont20
  invoke void @_ZNK9libparest9Parameter5Field16DiscretizedFieldILi3EE18set_back_to_boundsERN6dealii6VectorIdEE(%"class.libparest::Parameter::Field::DiscretizedField"* %call23, %"class.dealii::Vector"* dereferenceable(88) %tmp)
          to label %invoke.cont24 unwind label %lpad16, !dbg !7607

invoke.cont24:                                    ; preds = %invoke.cont22
  %state_discretization25 = getelementptr inbounds %"class.libparest::Slave::Stationary::Slave", %"class.libparest::Slave::Stationary::Slave"* %this1, i32 0, i32 7, !dbg !7608
  %call27 = invoke %"class.libparest::Slave::Stationary::Discretization::Base"* @_ZNK6dealii12SmartPointerIN9libparest5Slave10Stationary14Discretization4BaseILi3EEEEptEv(%"class.dealii::SmartPointer.34"* %state_discretization25)
          to label %invoke.cont26 unwind label %lpad16, !dbg !7608

invoke.cont26:                                    ; preds = %invoke.cont24
  %dof_handlers28 = getelementptr inbounds %"class.libparest::Slave::Stationary::Discretization::Base", %"class.libparest::Slave::Stationary::Discretization::Base"* %call27, i32 0, i32 3, !dbg !7609
  %13 = load %"class.libparest::Slave::Stationary::Discretization::DoFHandlers"*, %"class.libparest::Slave::Stationary::Discretization::DoFHandlers"** %dof_handlers28, align 8, !dbg !7609
  %14 = bitcast %"class.dealii::BlockVector"* %trial_iterate to %"class.dealii::BlockVectorBase"*, !dbg !7610
  %call30 = invoke dereferenceable(88) %"class.dealii::Vector"* @_ZN6dealii15BlockVectorBaseINS_6VectorIdEEE5blockEj(%"class.dealii::BlockVectorBase"* %14, i32 2)
          to label %invoke.cont29 unwind label %lpad16, !dbg !7611

invoke.cont29:                                    ; preds = %invoke.cont26
  invoke void @_ZNK9libparest5Slave10Stationary14Discretization11DoFHandlersILi3EE16expand_parameterERKN6dealii6VectorIdEERS7_(%"class.libparest::Slave::Stationary::Discretization::DoFHandlers"* %13, %"class.dealii::Vector"* dereferenceable(88) %tmp, %"class.dealii::Vector"* dereferenceable(88) %call30)
          to label %invoke.cont31 unwind label %lpad16, !dbg !7612

invoke.cont31:                                    ; preds = %invoke.cont29
  call void @_ZN6dealii6VectorIdED2Ev(%"class.dealii::Vector"* %tmp) #4, !dbg !7613
  %15 = bitcast %"class.libparest::Slave::Stationary::Slave"* %this1 to void (%"class.libparest::Slave::Stationary::Slave"*, %"class.dealii::BlockVector"*, %"class.dealii::BlockVector"*)***, !dbg !7614
  %vtable = load void (%"class.libparest::Slave::Stationary::Slave"*, %"class.dealii::BlockVector"*, %"class.dealii::BlockVector"*)**, void (%"class.libparest::Slave::Stationary::Slave"*, %"class.dealii::BlockVector"*, %"class.dealii::BlockVector"*)*** %15, align 8, !dbg !7614
  %vfn = getelementptr inbounds void (%"class.libparest::Slave::Stationary::Slave"*, %"class.dealii::BlockVector"*, %"class.dealii::BlockVector"*)*, void (%"class.libparest::Slave::Stationary::Slave"*, %"class.dealii::BlockVector"*, %"class.dealii::BlockVector"*)** %vtable, i64 21, !dbg !7614
  %16 = load void (%"class.libparest::Slave::Stationary::Slave"*, %"class.dealii::BlockVector"*, %"class.dealii::BlockVector"*)*, void (%"class.libparest::Slave::Stationary::Slave"*, %"class.dealii::BlockVector"*, %"class.dealii::BlockVector"*)** %vfn, align 8, !dbg !7614
  invoke void %16(%"class.libparest::Slave::Stationary::Slave"* %this1, %"class.dealii::BlockVector"* dereferenceable(128) %trial_iterate, %"class.dealii::BlockVector"* dereferenceable(128) %trial_residual)
          to label %invoke.cont32 unwind label %lpad3, !dbg !7614

invoke.cont32:                                    ; preds = %invoke.cont31
  %call34 = invoke dereferenceable(128) %"class.dealii::BlockVector"* @_ZN6dealii11BlockVectorIdEaSERKS1_(%"class.dealii::BlockVector"* %trial_iterate, %"class.dealii::BlockVector"* dereferenceable(128) %trial_residual)
          to label %invoke.cont33 unwind label %lpad3, !dbg !7615

invoke.cont33:                                    ; preds = %invoke.cont32
  %global_matrix = getelementptr inbounds %"class.libparest::Slave::Stationary::Slave", %"class.libparest::Slave::Stationary::Slave"* %this1, i32 0, i32 1, !dbg !7616
  %17 = load %"class.libparest::Slave::Stationary::GlobalMatrix::Matrix"*, %"class.libparest::Slave::Stationary::GlobalMatrix::Matrix"** %global_matrix, align 8, !dbg !7616
  %A_inverse = getelementptr inbounds %"class.libparest::Slave::Stationary::GlobalMatrix::Matrix", %"class.libparest::Slave::Stationary::GlobalMatrix::Matrix"* %17, i32 0, i32 6, !dbg !7617
  %call36 = invoke %"class.libparest::Slave::Stationary::GlobalMatrix::Matrix_A_Inverse"* @_ZNK6dealii12SmartPointerIN9libparest5Slave10Stationary12GlobalMatrix16Matrix_A_InverseIdEEEptEv(%"class.dealii::SmartPointer.61"* %A_inverse)
          to label %invoke.cont35 unwind label %lpad3, !dbg !7616

invoke.cont35:                                    ; preds = %invoke.cont33
  %18 = bitcast %"class.dealii::BlockVector"* %trial_residual to %"class.dealii::BlockVectorBase"*, !dbg !7618
  %call38 = invoke dereferenceable(88) %"class.dealii::Vector"* @_ZN6dealii15BlockVectorBaseINS_6VectorIdEEE5blockEj(%"class.dealii::BlockVectorBase"* %18, i32 0)
          to label %invoke.cont37 unwind label %lpad3, !dbg !7619

invoke.cont37:                                    ; preds = %invoke.cont35
  %19 = bitcast %"class.libparest::Slave::Stationary::GlobalMatrix::Matrix_A_Inverse"* %call36 to void (%"class.libparest::Slave::Stationary::GlobalMatrix::Matrix_A_Inverse"*, %"class.dealii::Vector"*)***, !dbg !7620
  %vtable39 = load void (%"class.libparest::Slave::Stationary::GlobalMatrix::Matrix_A_Inverse"*, %"class.dealii::Vector"*)**, void (%"class.libparest::Slave::Stationary::GlobalMatrix::Matrix_A_Inverse"*, %"class.dealii::Vector"*)*** %19, align 8, !dbg !7620
  %vfn40 = getelementptr inbounds void (%"class.libparest::Slave::Stationary::GlobalMatrix::Matrix_A_Inverse"*, %"class.dealii::Vector"*)*, void (%"class.libparest::Slave::Stationary::GlobalMatrix::Matrix_A_Inverse"*, %"class.dealii::Vector"*)** %vtable39, i64 2, !dbg !7620
  %20 = load void (%"class.libparest::Slave::Stationary::GlobalMatrix::Matrix_A_Inverse"*, %"class.dealii::Vector"*)*, void (%"class.libparest::Slave::Stationary::GlobalMatrix::Matrix_A_Inverse"*, %"class.dealii::Vector"*)** %vfn40, align 8, !dbg !7620
  invoke void %20(%"class.libparest::Slave::Stationary::GlobalMatrix::Matrix_A_Inverse"* %call36, %"class.dealii::Vector"* dereferenceable(88) %call38)
          to label %invoke.cont41 unwind label %lpad3, !dbg !7620

invoke.cont41:                                    ; preds = %invoke.cont37
  %global_matrix42 = getelementptr inbounds %"class.libparest::Slave::Stationary::Slave", %"class.libparest::Slave::Stationary::Slave"* %this1, i32 0, i32 1, !dbg !7621
  %21 = load %"class.libparest::Slave::Stationary::GlobalMatrix::Matrix"*, %"class.libparest::Slave::Stationary::GlobalMatrix::Matrix"** %global_matrix42, align 8, !dbg !7621
  %A_inverse43 = getelementptr inbounds %"class.libparest::Slave::Stationary::GlobalMatrix::Matrix", %"class.libparest::Slave::Stationary::GlobalMatrix::Matrix"* %21, i32 0, i32 6, !dbg !7622
  %call45 = invoke %"class.libparest::Slave::Stationary::GlobalMatrix::Matrix_A_Inverse"* @_ZNK6dealii12SmartPointerIN9libparest5Slave10Stationary12GlobalMatrix16Matrix_A_InverseIdEEEptEv(%"class.dealii::SmartPointer.61"* %A_inverse43)
          to label %invoke.cont44 unwind label %lpad3, !dbg !7621

invoke.cont44:                                    ; preds = %invoke.cont41
  %22 = bitcast %"class.dealii::BlockVector"* %trial_residual to %"class.dealii::BlockVectorBase"*, !dbg !7623
  %call47 = invoke dereferenceable(88) %"class.dealii::Vector"* @_ZN6dealii15BlockVectorBaseINS_6VectorIdEEE5blockEj(%"class.dealii::BlockVectorBase"* %22, i32 1)
          to label %invoke.cont46 unwind label %lpad3, !dbg !7624

invoke.cont46:                                    ; preds = %invoke.cont44
  %23 = bitcast %"class.libparest::Slave::Stationary::GlobalMatrix::Matrix_A_Inverse"* %call45 to void (%"class.libparest::Slave::Stationary::GlobalMatrix::Matrix_A_Inverse"*, %"class.dealii::Vector"*)***, !dbg !7625
  %vtable48 = load void (%"class.libparest::Slave::Stationary::GlobalMatrix::Matrix_A_Inverse"*, %"class.dealii::Vector"*)**, void (%"class.libparest::Slave::Stationary::GlobalMatrix::Matrix_A_Inverse"*, %"class.dealii::Vector"*)*** %23, align 8, !dbg !7625
  %vfn49 = getelementptr inbounds void (%"class.libparest::Slave::Stationary::GlobalMatrix::Matrix_A_Inverse"*, %"class.dealii::Vector"*)*, void (%"class.libparest::Slave::Stationary::GlobalMatrix::Matrix_A_Inverse"*, %"class.dealii::Vector"*)** %vtable48, i64 2, !dbg !7625
  %24 = load void (%"class.libparest::Slave::Stationary::GlobalMatrix::Matrix_A_Inverse"*, %"class.dealii::Vector"*)*, void (%"class.libparest::Slave::Stationary::GlobalMatrix::Matrix_A_Inverse"*, %"class.dealii::Vector"*)** %vfn49, align 8, !dbg !7625
  invoke void %24(%"class.libparest::Slave::Stationary::GlobalMatrix::Matrix_A_Inverse"* %call45, %"class.dealii::Vector"* dereferenceable(88) %call47)
          to label %invoke.cont50 unwind label %lpad3, !dbg !7625

invoke.cont50:                                    ; preds = %invoke.cont46
  %state_discretization51 = getelementptr inbounds %"class.libparest::Slave::Stationary::Slave", %"class.libparest::Slave::Stationary::Slave"* %this1, i32 0, i32 7, !dbg !7626
  %call53 = invoke %"class.libparest::Slave::Stationary::Discretization::Base"* @_ZNK6dealii12SmartPointerIN9libparest5Slave10Stationary14Discretization4BaseILi3EEEEptEv(%"class.dealii::SmartPointer.34"* %state_discretization51)
          to label %invoke.cont52 unwind label %lpad3, !dbg !7626

invoke.cont52:                                    ; preds = %invoke.cont50
  %dof_handlers54 = getelementptr inbounds %"class.libparest::Slave::Stationary::Discretization::Base", %"class.libparest::Slave::Stationary::Discretization::Base"* %call53, i32 0, i32 3, !dbg !7627
  %25 = load %"class.libparest::Slave::Stationary::Discretization::DoFHandlers"*, %"class.libparest::Slave::Stationary::Discretization::DoFHandlers"** %dof_handlers54, align 8, !dbg !7627
  %constraints = getelementptr inbounds %"class.libparest::Slave::Stationary::Discretization::DoFHandlers", %"class.libparest::Slave::Stationary::Discretization::DoFHandlers"* %25, i32 0, i32 5, !dbg !7628
  invoke void @_ZNK6dealii16ConstraintMatrix10distributeINS_11BlockVectorIdEEEEvRT_(%"class.dealii::ConstraintMatrix"* %constraints, %"class.dealii::BlockVector"* dereferenceable(128) %trial_residual)
          to label %invoke.cont55 unwind label %lpad3, !dbg !7629

invoke.cont55:                                    ; preds = %invoke.cont52
  call void @llvm.dbg.declare(metadata double* %residual, metadata !7630, metadata !DIExpression()), !dbg !7631
  %26 = bitcast %"class.dealii::BlockVector"* %trial_iterate to %"class.dealii::BlockVectorBase"*, !dbg !7632
  %call57 = invoke dereferenceable(88) %"class.dealii::Vector"* @_ZN6dealii15BlockVectorBaseINS_6VectorIdEEE5blockEj(%"class.dealii::BlockVectorBase"* %26, i32 0)
          to label %invoke.cont56 unwind label %lpad3, !dbg !7633

invoke.cont56:                                    ; preds = %invoke.cont55
  %27 = bitcast %"class.dealii::BlockVector"* %trial_residual to %"class.dealii::BlockVectorBase"*, !dbg !7634
  %call59 = invoke dereferenceable(88) %"class.dealii::Vector"* @_ZN6dealii15BlockVectorBaseINS_6VectorIdEEE5blockEj(%"class.dealii::BlockVectorBase"* %27, i32 0)
          to label %invoke.cont58 unwind label %lpad3, !dbg !7635

invoke.cont58:                                    ; preds = %invoke.cont56
  %call61 = invoke double @_ZNK6dealii6VectorIdEmlIdEEdRKNS0_IT_EE(%"class.dealii::Vector"* %call57, %"class.dealii::Vector"* dereferenceable(88) %call59)
          to label %invoke.cont60 unwind label %lpad3, !dbg !7636

invoke.cont60:                                    ; preds = %invoke.cont58
  %28 = bitcast %"class.dealii::BlockVector"* %trial_iterate to %"class.dealii::BlockVectorBase"*, !dbg !7637
  %call63 = invoke dereferenceable(88) %"class.dealii::Vector"* @_ZN6dealii15BlockVectorBaseINS_6VectorIdEEE5blockEj(%"class.dealii::BlockVectorBase"* %28, i32 1)
          to label %invoke.cont62 unwind label %lpad3, !dbg !7638

invoke.cont62:                                    ; preds = %invoke.cont60
  %29 = bitcast %"class.dealii::BlockVector"* %trial_residual to %"class.dealii::BlockVectorBase"*, !dbg !7639
  %call65 = invoke dereferenceable(88) %"class.dealii::Vector"* @_ZN6dealii15BlockVectorBaseINS_6VectorIdEEE5blockEj(%"class.dealii::BlockVectorBase"* %29, i32 1)
          to label %invoke.cont64 unwind label %lpad3, !dbg !7640

invoke.cont64:                                    ; preds = %invoke.cont62
  %call67 = invoke double @_ZNK6dealii6VectorIdEmlIdEEdRKNS0_IT_EE(%"class.dealii::Vector"* %call63, %"class.dealii::Vector"* dereferenceable(88) %call65)
          to label %invoke.cont66 unwind label %lpad3, !dbg !7641

invoke.cont66:                                    ; preds = %invoke.cont64
  %add = fadd double %call61, %call67, !dbg !7642
  store double %add, double* %residual, align 8, !dbg !7631
  %30 = bitcast %"class.dealii::BlockVector"* %trial_residual to %"class.dealii::BlockVectorBase"*, !dbg !7643
  %call69 = invoke dereferenceable(88) %"class.dealii::Vector"* @_ZN6dealii15BlockVectorBaseINS_6VectorIdEEE5blockEj(%"class.dealii::BlockVectorBase"* %30, i32 2)
          to label %invoke.cont68 unwind label %lpad3, !dbg !7644

invoke.cont68:                                    ; preds = %invoke.cont66
  %31 = load %"class.dealii::Vector"*, %"class.dealii::Vector"** %slave_contribution.addr, align 8, !dbg !7645
  %call71 = invoke dereferenceable(88) %"class.dealii::Vector"* @_ZN6dealii6VectorIdEaSERKS1_(%"class.dealii::Vector"* %31, %"class.dealii::Vector"* dereferenceable(88) %call69)
          to label %invoke.cont70 unwind label %lpad3, !dbg !7646

invoke.cont70:                                    ; preds = %invoke.cont68
  %32 = load double, double* %residual, align 8, !dbg !7647
  call void @_ZN6dealii11BlockVectorIdED1Ev(%"class.dealii::BlockVector"* %trial_iterate) #4, !dbg !7594
  call void @_ZN6dealii11BlockVectorIdED1Ev(%"class.dealii::BlockVector"* %trial_residual) #4, !dbg !7594
  ret double %32, !dbg !7594

lpad16:                                           ; preds = %invoke.cont29, %invoke.cont26, %invoke.cont24, %invoke.cont22, %invoke.cont20, %invoke.cont17, %invoke.cont14
  %33 = landingpad { i8*, i32 }
          cleanup, !dbg !7648
  %34 = extractvalue { i8*, i32 } %33, 0, !dbg !7648
  store i8* %34, i8** %exn.slot, align 8, !dbg !7648
  %35 = extractvalue { i8*, i32 } %33, 1, !dbg !7648
  store i32 %35, i32* %ehselector.slot, align 4, !dbg !7648
  call void @_ZN6dealii6VectorIdED2Ev(%"class.dealii::Vector"* %tmp) #4, !dbg !7613
  br label %ehcleanup, !dbg !7613

ehcleanup:                                        ; preds = %lpad16, %lpad3
  call void @_ZN6dealii11BlockVectorIdED1Ev(%"class.dealii::BlockVector"* %trial_iterate) #4, !dbg !7594
  br label %ehcleanup72, !dbg !7594

ehcleanup72:                                      ; preds = %ehcleanup, %lpad
  call void @_ZN6dealii11BlockVectorIdED1Ev(%"class.dealii::BlockVector"* %trial_residual) #4, !dbg !7594
  br label %eh.resume, !dbg !7594

eh.resume:                                        ; preds = %ehcleanup72
  %exn = load i8*, i8** %exn.slot, align 8, !dbg !7594
  %sel = load i32, i32* %ehselector.slot, align 4, !dbg !7594
  %lpad.val = insertvalue { i8*, i32 } undef, i8* %exn, 0, !dbg !7594
  %lpad.val73 = insertvalue { i8*, i32 } %lpad.val, i32 %sel, 1, !dbg !7594
  resume { i8*, i32 } %lpad.val73, !dbg !7594
}

; Function Attrs: noinline uwtable
define linkonce_odr dso_local dereferenceable(128) %"class.dealii::BlockVector"* @_ZN6dealii11BlockVectorIdEaSERKS1_(%"class.dealii::BlockVector"* %this, %"class.dealii::BlockVector"* dereferenceable(128) %v) #0 comdat align 2 !dbg !7649 {
entry:
  %this.addr = alloca %"class.dealii::BlockVector"*, align 8
  %v.addr = alloca %"class.dealii::BlockVector"*, align 8
  store %"class.dealii::BlockVector"* %this, %"class.dealii::BlockVector"** %this.addr, align 8
  call void @llvm.dbg.declare(metadata %"class.dealii::BlockVector"** %this.addr, metadata !7654, metadata !DIExpression()), !dbg !7656
  store %"class.dealii::BlockVector"* %v, %"class.dealii::BlockVector"** %v.addr, align 8
  call void @llvm.dbg.declare(metadata %"class.dealii::BlockVector"** %v.addr, metadata !7657, metadata !DIExpression()), !dbg !7658
  %this1 = load %"class.dealii::BlockVector"*, %"class.dealii::BlockVector"** %this.addr, align 8
  %0 = load %"class.dealii::BlockVector"*, %"class.dealii::BlockVector"** %v.addr, align 8, !dbg !7659
  call void @_ZN6dealii11BlockVectorIdE6reinitIdEEvRKNS0_IT_EEb(%"class.dealii::BlockVector"* %this1, %"class.dealii::BlockVector"* dereferenceable(128) %0, i1 zeroext true), !dbg !7660
  %1 = bitcast %"class.dealii::BlockVector"* %this1 to %"class.dealii::BlockVectorBase"*, !dbg !7661
  %2 = load %"class.dealii::BlockVector"*, %"class.dealii::BlockVector"** %v.addr, align 8, !dbg !7662
  %3 = bitcast %"class.dealii::BlockVector"* %2 to %"class.dealii::BlockVectorBase"*, !dbg !7662
  %call = call dereferenceable(128) %"class.dealii::BlockVectorBase"* @_ZN6dealii15BlockVectorBaseINS_6VectorIdEEEaSERKS3_(%"class.dealii::BlockVectorBase"* %1, %"class.dealii::BlockVectorBase"* dereferenceable(128) %3), !dbg !7661
  ret %"class.dealii::BlockVector"* %this1, !dbg !7663
}

; Function Attrs: noinline uwtable
define linkonce_odr dso_local void @_ZN6dealii15BlockVectorBaseINS_6VectorIdEEE3addEdRKS3_(%"class.dealii::BlockVectorBase"* %this, double %a, %"class.dealii::BlockVectorBase"* dereferenceable(128) %v) #0 comdat align 2 !dbg !7664 {
entry:
  %this.addr = alloca %"class.dealii::BlockVectorBase"*, align 8
  %a.addr = alloca double, align 8
  %v.addr = alloca %"class.dealii::BlockVectorBase"*, align 8
  %i = alloca i32, align 4
  store %"class.dealii::BlockVectorBase"* %this, %"class.dealii::BlockVectorBase"** %this.addr, align 8
  call void @llvm.dbg.declare(metadata %"class.dealii::BlockVectorBase"** %this.addr, metadata !7672, metadata !DIExpression()), !dbg !7673
  store double %a, double* %a.addr, align 8
  call void @llvm.dbg.declare(metadata double* %a.addr, metadata !7674, metadata !DIExpression()), !dbg !7675
  store %"class.dealii::BlockVectorBase"* %v, %"class.dealii::BlockVectorBase"** %v.addr, align 8
  call void @llvm.dbg.declare(metadata %"class.dealii::BlockVectorBase"** %v.addr, metadata !7676, metadata !DIExpression()), !dbg !7677
  %this1 = load %"class.dealii::BlockVectorBase"*, %"class.dealii::BlockVectorBase"** %this.addr, align 8
  call void @llvm.dbg.declare(metadata i32* %i, metadata !7678, metadata !DIExpression()), !dbg !7680
  store i32 0, i32* %i, align 4, !dbg !7680
  br label %for.cond, !dbg !7681

for.cond:                                         ; preds = %for.inc, %entry
  %0 = load i32, i32* %i, align 4, !dbg !7682
  %call = call i32 @_ZNK6dealii15BlockVectorBaseINS_6VectorIdEEE8n_blocksEv(%"class.dealii::BlockVectorBase"* %this1), !dbg !7684
  %cmp = icmp ult i32 %0, %call, !dbg !7685
  br i1 %cmp, label %for.body, label %for.end, !dbg !7686

for.body:                                         ; preds = %for.cond
  %components = getelementptr inbounds %"class.dealii::BlockVectorBase", %"class.dealii::BlockVectorBase"* %this1, i32 0, i32 1, !dbg !7687
  %1 = load i32, i32* %i, align 4, !dbg !7689
  %conv = zext i32 %1 to i64, !dbg !7689
  %call2 = call dereferenceable(88) %"class.dealii::Vector"* @_ZNSt6vectorIN6dealii6VectorIdEESaIS2_EEixEm(%"class.std::vector.22"* %components, i64 %conv) #4, !dbg !7687
  %2 = load double, double* %a.addr, align 8, !dbg !7690
  %3 = load %"class.dealii::BlockVectorBase"*, %"class.dealii::BlockVectorBase"** %v.addr, align 8, !dbg !7691
  %components3 = getelementptr inbounds %"class.dealii::BlockVectorBase", %"class.dealii::BlockVectorBase"* %3, i32 0, i32 1, !dbg !7692
  %4 = load i32, i32* %i, align 4, !dbg !7693
  %conv4 = zext i32 %4 to i64, !dbg !7693
  %call5 = call dereferenceable(88) %"class.dealii::Vector"* @_ZNKSt6vectorIN6dealii6VectorIdEESaIS2_EEixEm(%"class.std::vector.22"* %components3, i64 %conv4) #4, !dbg !7691
  call void @_ZN6dealii6VectorIdE3addEdRKS1_(%"class.dealii::Vector"* %call2, double %2, %"class.dealii::Vector"* dereferenceable(88) %call5), !dbg !7694
  br label %for.inc, !dbg !7695

for.inc:                                          ; preds = %for.body
  %5 = load i32, i32* %i, align 4, !dbg !7696
  %inc = add i32 %5, 1, !dbg !7696
  store i32 %inc, i32* %i, align 4, !dbg !7696
  br label %for.cond, !dbg !7697, !llvm.loop !7698

for.end:                                          ; preds = %for.cond
  ret void, !dbg !7700
}

; Function Attrs: noinline uwtable
define linkonce_odr dso_local void @_ZN6dealii6VectorIdEC2Ej(%"class.dealii::Vector"* %this, i32 %n) unnamed_addr #0 comdat align 2 personality i8* bitcast (i32 (...)* @__gxx_personality_v0 to i8*) !dbg !7701 {
entry:
  %this.addr = alloca %"class.dealii::Vector"*, align 8
  %n.addr = alloca i32, align 4
  %exn.slot = alloca i8*
  %ehselector.slot = alloca i32
  store %"class.dealii::Vector"* %this, %"class.dealii::Vector"** %this.addr, align 8
  call void @llvm.dbg.declare(metadata %"class.dealii::Vector"** %this.addr, metadata !7702, metadata !DIExpression()), !dbg !7703
  store i32 %n, i32* %n.addr, align 4
  call void @llvm.dbg.declare(metadata i32* %n.addr, metadata !7704, metadata !DIExpression()), !dbg !7705
  %this1 = load %"class.dealii::Vector"*, %"class.dealii::Vector"** %this.addr, align 8
  %0 = bitcast %"class.dealii::Vector"* %this1 to %"class.dealii::Subscriptor"*, !dbg !7706
  call void @_ZN6dealii11SubscriptorC2Ev(%"class.dealii::Subscriptor"* %0), !dbg !7707
  %1 = bitcast %"class.dealii::Vector"* %this1 to i32 (...)***, !dbg !7706
  store i32 (...)** bitcast (i8** getelementptr inbounds ({ [6 x i8*] }, { [6 x i8*] }* @_ZTVN6dealii6VectorIdEE, i32 0, inrange i32 0, i32 2) to i32 (...)**), i32 (...)*** %1, align 8, !dbg !7706
  %vec_size = getelementptr inbounds %"class.dealii::Vector", %"class.dealii::Vector"* %this1, i32 0, i32 1, !dbg !7708
  store i32 0, i32* %vec_size, align 8, !dbg !7708
  %max_vec_size = getelementptr inbounds %"class.dealii::Vector", %"class.dealii::Vector"* %this1, i32 0, i32 2, !dbg !7709
  store i32 0, i32* %max_vec_size, align 4, !dbg !7709
  %val = getelementptr inbounds %"class.dealii::Vector", %"class.dealii::Vector"* %this1, i32 0, i32 3, !dbg !7710
  store double* null, double** %val, align 8, !dbg !7710
  %2 = load i32, i32* %n.addr, align 4, !dbg !7711
  %3 = bitcast %"class.dealii::Vector"* %this1 to void (%"class.dealii::Vector"*, i32, i1)***, !dbg !7713
  %vtable = load void (%"class.dealii::Vector"*, i32, i1)**, void (%"class.dealii::Vector"*, i32, i1)*** %3, align 8, !dbg !7713
  %vfn = getelementptr inbounds void (%"class.dealii::Vector"*, i32, i1)*, void (%"class.dealii::Vector"*, i32, i1)** %vtable, i64 2, !dbg !7713
  %4 = load void (%"class.dealii::Vector"*, i32, i1)*, void (%"class.dealii::Vector"*, i32, i1)** %vfn, align 8, !dbg !7713
  invoke void %4(%"class.dealii::Vector"* %this1, i32 %2, i1 zeroext false)
          to label %invoke.cont unwind label %lpad, !dbg !7713

invoke.cont:                                      ; preds = %entry
  ret void, !dbg !7714

lpad:                                             ; preds = %entry
  %5 = landingpad { i8*, i32 }
          cleanup, !dbg !7715
  %6 = extractvalue { i8*, i32 } %5, 0, !dbg !7715
  store i8* %6, i8** %exn.slot, align 8, !dbg !7715
  %7 = extractvalue { i8*, i32 } %5, 1, !dbg !7715
  store i32 %7, i32* %ehselector.slot, align 4, !dbg !7715
  %8 = bitcast %"class.dealii::Vector"* %this1 to %"class.dealii::Subscriptor"*, !dbg !7715
  call void @_ZN6dealii11SubscriptorD2Ev(%"class.dealii::Subscriptor"* %8) #4, !dbg !7715
  br label %eh.resume, !dbg !7715

eh.resume:                                        ; preds = %lpad
  %exn = load i8*, i8** %exn.slot, align 8, !dbg !7715
  %sel = load i32, i32* %ehselector.slot, align 4, !dbg !7715
  %lpad.val = insertvalue { i8*, i32 } undef, i8* %exn, 0, !dbg !7715
  %lpad.val2 = insertvalue { i8*, i32 } %lpad.val, i32 %sel, 1, !dbg !7715
  resume { i8*, i32 } %lpad.val2, !dbg !7715
}

declare dso_local void @_ZNK9libparest5Slave10Stationary14Discretization11DoFHandlersILi3EE21interpolate_parameterERKN6dealii11BlockVectorIdEERNS5_6VectorIdEE(%"class.libparest::Slave::Stationary::Discretization::DoFHandlers"*, %"class.dealii::BlockVector"* dereferenceable(128), %"class.dealii::Vector"* dereferenceable(88)) #2

declare dso_local void @_ZNK9libparest9Parameter5Field16DiscretizedFieldILi3EE18set_back_to_boundsERN6dealii6VectorIdEE(%"class.libparest::Parameter::Field::DiscretizedField"*, %"class.dealii::Vector"* dereferenceable(88)) #2

; Function Attrs: noinline nounwind uwtable
define linkonce_odr dso_local void @_ZN6dealii6VectorIdED2Ev(%"class.dealii::Vector"* %this) unnamed_addr #1 comdat align 2 !dbg !7716 {
entry:
  %this.addr = alloca %"class.dealii::Vector"*, align 8
  store %"class.dealii::Vector"* %this, %"class.dealii::Vector"** %this.addr, align 8
  call void @llvm.dbg.declare(metadata %"class.dealii::Vector"** %this.addr, metadata !7717, metadata !DIExpression()), !dbg !7718
  %this1 = load %"class.dealii::Vector"*, %"class.dealii::Vector"** %this.addr, align 8
  %0 = bitcast %"class.dealii::Vector"* %this1 to i32 (...)***, !dbg !7719
  store i32 (...)** bitcast (i8** getelementptr inbounds ({ [6 x i8*] }, { [6 x i8*] }* @_ZTVN6dealii6VectorIdEE, i32 0, inrange i32 0, i32 2) to i32 (...)**), i32 (...)*** %0, align 8, !dbg !7719
  %val = getelementptr inbounds %"class.dealii::Vector", %"class.dealii::Vector"* %this1, i32 0, i32 3, !dbg !7720
  %1 = load double*, double** %val, align 8, !dbg !7720
  %tobool = icmp ne double* %1, null, !dbg !7720
  br i1 %tobool, label %if.then, label %if.end, !dbg !7723

if.then:                                          ; preds = %entry
  %val2 = getelementptr inbounds %"class.dealii::Vector", %"class.dealii::Vector"* %this1, i32 0, i32 3, !dbg !7724
  %2 = load double*, double** %val2, align 8, !dbg !7724
  %isnull = icmp eq double* %2, null, !dbg !7726
  br i1 %isnull, label %delete.end, label %delete.notnull, !dbg !7726

delete.notnull:                                   ; preds = %if.then
  %3 = bitcast double* %2 to i8*, !dbg !7726
  call void @_ZdaPv(i8* %3) #14, !dbg !7726
  br label %delete.end, !dbg !7726

delete.end:                                       ; preds = %delete.notnull, %if.then
  %val3 = getelementptr inbounds %"class.dealii::Vector", %"class.dealii::Vector"* %this1, i32 0, i32 3, !dbg !7727
  store double* null, double** %val3, align 8, !dbg !7728
  br label %if.end, !dbg !7729

if.end:                                           ; preds = %delete.end, %entry
  %4 = bitcast %"class.dealii::Vector"* %this1 to %"class.dealii::Subscriptor"*, !dbg !7730
  call void @_ZN6dealii11SubscriptorD2Ev(%"class.dealii::Subscriptor"* %4) #4, !dbg !7730
  ret void, !dbg !7731
}

declare dso_local double @_ZNK6dealii6VectorIdEmlIdEEdRKNS0_IT_EE(%"class.dealii::Vector"*, %"class.dealii::Vector"* dereferenceable(88)) #2

; Function Attrs: noinline uwtable
define weak_odr dso_local void @_ZN9libparest5Slave10Stationary5SlaveILi3EfEC2ERKNSt7__cxx1112basic_stringIcSt11char_traitsIcESaIcEEEjRNS_10MessageLog10ServerBaseE(%"class.libparest::Slave::Stationary::Slave.204"* %this, %"class.std::__cxx11::basic_string"* dereferenceable(32) %base_name, i32 %experiment_number, %"class.libparest::MessageLog::ServerBase"* dereferenceable(96) %message_log_server) unnamed_addr #0 comdat($_ZN9libparest5Slave10Stationary5SlaveILi3EfEC5ERKNSt7__cxx1112basic_stringIcSt11char_traitsIcESaIcEEEjRNS_10MessageLog10ServerBaseE) align 2 personality i8* bitcast (i32 (...)* @__gxx_personality_v0 to i8*) !dbg !7732 {
entry:
  %this.addr = alloca %"class.libparest::Slave::Stationary::Slave.204"*, align 8
  %base_name.addr = alloca %"class.std::__cxx11::basic_string"*, align 8
  %experiment_number.addr = alloca i32, align 4
  %message_log_server.addr = alloca %"class.libparest::MessageLog::ServerBase"*, align 8
  %exn.slot = alloca i8*
  %ehselector.slot = alloca i32
  store %"class.libparest::Slave::Stationary::Slave.204"* %this, %"class.libparest::Slave::Stationary::Slave.204"** %this.addr, align 8
  call void @llvm.dbg.declare(metadata %"class.libparest::Slave::Stationary::Slave.204"** %this.addr, metadata !7733, metadata !DIExpression()), !dbg !7735
  store %"class.std::__cxx11::basic_string"* %base_name, %"class.std::__cxx11::basic_string"** %base_name.addr, align 8
  call void @llvm.dbg.declare(metadata %"class.std::__cxx11::basic_string"** %base_name.addr, metadata !7736, metadata !DIExpression()), !dbg !7737
  store i32 %experiment_number, i32* %experiment_number.addr, align 4
  call void @llvm.dbg.declare(metadata i32* %experiment_number.addr, metadata !7738, metadata !DIExpression()), !dbg !7739
  store %"class.libparest::MessageLog::ServerBase"* %message_log_server, %"class.libparest::MessageLog::ServerBase"** %message_log_server.addr, align 8
  call void @llvm.dbg.declare(metadata %"class.libparest::MessageLog::ServerBase"** %message_log_server.addr, metadata !7740, metadata !DIExpression()), !dbg !7741
  %this1 = load %"class.libparest::Slave::Stationary::Slave.204"*, %"class.libparest::Slave::Stationary::Slave.204"** %this.addr, align 8
  %0 = bitcast %"class.libparest::Slave::Stationary::Slave.204"* %this1 to %"class.libparest::Slave::Base"*, !dbg !7742
  %1 = load %"class.std::__cxx11::basic_string"*, %"class.std::__cxx11::basic_string"** %base_name.addr, align 8, !dbg !7743
  %2 = load i32, i32* %experiment_number.addr, align 4, !dbg !7744
  %3 = load %"class.libparest::MessageLog::ServerBase"*, %"class.libparest::MessageLog::ServerBase"** %message_log_server.addr, align 8, !dbg !7745
  call void @_ZN9libparest5Slave4BaseC2ERKNSt7__cxx1112basic_stringIcSt11char_traitsIcESaIcEEEjRNS_10MessageLog10ServerBaseE(%"class.libparest::Slave::Base"* %0, %"class.std::__cxx11::basic_string"* dereferenceable(32) %1, i32 %2, %"class.libparest::MessageLog::ServerBase"* dereferenceable(96) %3), !dbg !7746
  %4 = bitcast %"class.libparest::Slave::Stationary::Slave.204"* %this1 to i32 (...)***, !dbg !7742
  store i32 (...)** bitcast (i8** getelementptr inbounds ({ [26 x i8*] }, { [26 x i8*] }* @_ZTVN9libparest5Slave10Stationary5SlaveILi3EfEE, i32 0, inrange i32 0, i32 2) to i32 (...)**), i32 (...)*** %4, align 8, !dbg !7742
  %global_matrix = getelementptr inbounds %"class.libparest::Slave::Stationary::Slave.204", %"class.libparest::Slave::Stationary::Slave.204"* %this1, i32 0, i32 1, !dbg !7747
  store %"class.libparest::Slave::Stationary::GlobalMatrix::Matrix.205"* null, %"class.libparest::Slave::Stationary::GlobalMatrix::Matrix.205"** %global_matrix, align 8, !dbg !7747
  %present_iterate = getelementptr inbounds %"class.libparest::Slave::Stationary::Slave.204", %"class.libparest::Slave::Stationary::Slave.204"* %this1, i32 0, i32 2, !dbg !7748
  invoke void @_ZN6dealii11BlockVectorIdEC1Ejj(%"class.dealii::BlockVector"* %present_iterate, i32 0, i32 0)
          to label %invoke.cont unwind label %lpad, !dbg !7748

invoke.cont:                                      ; preds = %entry
  %update = getelementptr inbounds %"class.libparest::Slave::Stationary::Slave.204", %"class.libparest::Slave::Stationary::Slave.204"* %this1, i32 0, i32 3, !dbg !7748
  invoke void @_ZN6dealii11BlockVectorIdEC1Ejj(%"class.dealii::BlockVector"* %update, i32 0, i32 0)
          to label %invoke.cont3 unwind label %lpad2, !dbg !7748

invoke.cont3:                                     ; preds = %invoke.cont
  %cellwise_errors = getelementptr inbounds %"class.libparest::Slave::Stationary::Slave.204", %"class.libparest::Slave::Stationary::Slave.204"* %this1, i32 0, i32 4, !dbg !7748
  invoke void @_ZN6dealii6VectorIfEC2Ev(%"class.dealii::Vector.32"* %cellwise_errors)
          to label %invoke.cont5 unwind label %lpad4, !dbg !7748

invoke.cont5:                                     ; preds = %invoke.cont3
  %right_hand_side = getelementptr inbounds %"class.libparest::Slave::Stationary::Slave.204", %"class.libparest::Slave::Stationary::Slave.204"* %this1, i32 0, i32 5, !dbg !7748
  invoke void @_ZN6dealii11BlockVectorIdEC1Ejj(%"class.dealii::BlockVector"* %right_hand_side, i32 0, i32 0)
          to label %invoke.cont7 unwind label %lpad6, !dbg !7748

invoke.cont7:                                     ; preds = %invoke.cont5
  %parameter_discretization = getelementptr inbounds %"class.libparest::Slave::Stationary::Slave.204", %"class.libparest::Slave::Stationary::Slave.204"* %this1, i32 0, i32 6, !dbg !7748
  invoke void @_ZN6dealii12SmartPointerIN9libparest9Parameter5Field16DiscretizedFieldILi3EEEEC2Ev(%"class.dealii::SmartPointer.33"* %parameter_discretization)
          to label %invoke.cont9 unwind label %lpad8, !dbg !7748

invoke.cont9:                                     ; preds = %invoke.cont7
  %state_discretization = getelementptr inbounds %"class.libparest::Slave::Stationary::Slave.204", %"class.libparest::Slave::Stationary::Slave.204"* %this1, i32 0, i32 7, !dbg !7748
  invoke void @_ZN6dealii12SmartPointerIN9libparest5Slave10Stationary14Discretization4BaseILi3EEEEC2Ev(%"class.dealii::SmartPointer.34"* %state_discretization)
          to label %invoke.cont11 unwind label %lpad10, !dbg !7748

invoke.cont11:                                    ; preds = %invoke.cont9
  %present_statistics = getelementptr inbounds %"class.libparest::Slave::Stationary::Slave.204", %"class.libparest::Slave::Stationary::Slave.204"* %this1, i32 0, i32 8, !dbg !7748
  invoke void @_ZN6dealii12SmartPointerIN9libparest5Slave10Stationary14Discretization4BaseILi3EE17PerStepStatisticsEEC2Ev(%"class.dealii::SmartPointer.35"* %present_statistics)
          to label %invoke.cont13 unwind label %lpad12, !dbg !7748

invoke.cont13:                                    ; preds = %invoke.cont11
  ret void, !dbg !7750

lpad:                                             ; preds = %entry
  %5 = landingpad { i8*, i32 }
          cleanup, !dbg !7750
  %6 = extractvalue { i8*, i32 } %5, 0, !dbg !7750
  store i8* %6, i8** %exn.slot, align 8, !dbg !7750
  %7 = extractvalue { i8*, i32 } %5, 1, !dbg !7750
  store i32 %7, i32* %ehselector.slot, align 4, !dbg !7750
  br label %ehcleanup18, !dbg !7750

lpad2:                                            ; preds = %invoke.cont
  %8 = landingpad { i8*, i32 }
          cleanup, !dbg !7750
  %9 = extractvalue { i8*, i32 } %8, 0, !dbg !7750
  store i8* %9, i8** %exn.slot, align 8, !dbg !7750
  %10 = extractvalue { i8*, i32 } %8, 1, !dbg !7750
  store i32 %10, i32* %ehselector.slot, align 4, !dbg !7750
  br label %ehcleanup17, !dbg !7750

lpad4:                                            ; preds = %invoke.cont3
  %11 = landingpad { i8*, i32 }
          cleanup, !dbg !7750
  %12 = extractvalue { i8*, i32 } %11, 0, !dbg !7750
  store i8* %12, i8** %exn.slot, align 8, !dbg !7750
  %13 = extractvalue { i8*, i32 } %11, 1, !dbg !7750
  store i32 %13, i32* %ehselector.slot, align 4, !dbg !7750
  br label %ehcleanup16, !dbg !7750

lpad6:                                            ; preds = %invoke.cont5
  %14 = landingpad { i8*, i32 }
          cleanup, !dbg !7750
  %15 = extractvalue { i8*, i32 } %14, 0, !dbg !7750
  store i8* %15, i8** %exn.slot, align 8, !dbg !7750
  %16 = extractvalue { i8*, i32 } %14, 1, !dbg !7750
  store i32 %16, i32* %ehselector.slot, align 4, !dbg !7750
  br label %ehcleanup15, !dbg !7750

lpad8:                                            ; preds = %invoke.cont7
  %17 = landingpad { i8*, i32 }
          cleanup, !dbg !7750
  %18 = extractvalue { i8*, i32 } %17, 0, !dbg !7750
  store i8* %18, i8** %exn.slot, align 8, !dbg !7750
  %19 = extractvalue { i8*, i32 } %17, 1, !dbg !7750
  store i32 %19, i32* %ehselector.slot, align 4, !dbg !7750
  br label %ehcleanup14, !dbg !7750

lpad10:                                           ; preds = %invoke.cont9
  %20 = landingpad { i8*, i32 }
          cleanup, !dbg !7750
  %21 = extractvalue { i8*, i32 } %20, 0, !dbg !7750
  store i8* %21, i8** %exn.slot, align 8, !dbg !7750
  %22 = extractvalue { i8*, i32 } %20, 1, !dbg !7750
  store i32 %22, i32* %ehselector.slot, align 4, !dbg !7750
  br label %ehcleanup, !dbg !7750

lpad12:                                           ; preds = %invoke.cont11
  %23 = landingpad { i8*, i32 }
          cleanup, !dbg !7750
  %24 = extractvalue { i8*, i32 } %23, 0, !dbg !7750
  store i8* %24, i8** %exn.slot, align 8, !dbg !7750
  %25 = extractvalue { i8*, i32 } %23, 1, !dbg !7750
  store i32 %25, i32* %ehselector.slot, align 4, !dbg !7750
  call void @_ZN6dealii12SmartPointerIN9libparest5Slave10Stationary14Discretization4BaseILi3EEEED2Ev(%"class.dealii::SmartPointer.34"* %state_discretization) #4, !dbg !7752
  br label %ehcleanup, !dbg !7752

ehcleanup:                                        ; preds = %lpad12, %lpad10
  call void @_ZN6dealii12SmartPointerIN9libparest9Parameter5Field16DiscretizedFieldILi3EEEED2Ev(%"class.dealii::SmartPointer.33"* %parameter_discretization) #4, !dbg !7752
  br label %ehcleanup14, !dbg !7752

ehcleanup14:                                      ; preds = %ehcleanup, %lpad8
  call void @_ZN6dealii11BlockVectorIdED1Ev(%"class.dealii::BlockVector"* %right_hand_side) #4, !dbg !7752
  br label %ehcleanup15, !dbg !7752

ehcleanup15:                                      ; preds = %ehcleanup14, %lpad6
  call void @_ZN6dealii6VectorIfED2Ev(%"class.dealii::Vector.32"* %cellwise_errors) #4, !dbg !7752
  br label %ehcleanup16, !dbg !7752

ehcleanup16:                                      ; preds = %ehcleanup15, %lpad4
  call void @_ZN6dealii11BlockVectorIdED1Ev(%"class.dealii::BlockVector"* %update) #4, !dbg !7752
  br label %ehcleanup17, !dbg !7752

ehcleanup17:                                      ; preds = %ehcleanup16, %lpad2
  call void @_ZN6dealii11BlockVectorIdED1Ev(%"class.dealii::BlockVector"* %present_iterate) #4, !dbg !7752
  br label %ehcleanup18, !dbg !7752

ehcleanup18:                                      ; preds = %ehcleanup17, %lpad
  %26 = bitcast %"class.libparest::Slave::Stationary::Slave.204"* %this1 to %"class.libparest::Slave::Base"*, !dbg !7752
  call void @_ZN9libparest5Slave4BaseD2Ev(%"class.libparest::Slave::Base"* %26) #4, !dbg !7752
  br label %eh.resume, !dbg !7752

eh.resume:                                        ; preds = %ehcleanup18
  %exn = load i8*, i8** %exn.slot, align 8, !dbg !7752
  %sel = load i32, i32* %ehselector.slot, align 4, !dbg !7752
  %lpad.val = insertvalue { i8*, i32 } undef, i8* %exn, 0, !dbg !7752
  %lpad.val19 = insertvalue { i8*, i32 } %lpad.val, i32 %sel, 1, !dbg !7752
  resume { i8*, i32 } %lpad.val19, !dbg !7752
}

; Function Attrs: noinline nounwind uwtable
define weak_odr dso_local void @_ZN9libparest5Slave10Stationary5SlaveILi3EfED2Ev(%"class.libparest::Slave::Stationary::Slave.204"* %this) unnamed_addr #1 comdat($_ZN9libparest5Slave10Stationary5SlaveILi3EfED5Ev) align 2 personality i8* bitcast (i32 (...)* @__gxx_personality_v0 to i8*) !dbg !7754 {
entry:
  %this.addr = alloca %"class.libparest::Slave::Stationary::Slave.204"*, align 8
  %exn.slot = alloca i8*
  %ehselector.slot = alloca i32
  store %"class.libparest::Slave::Stationary::Slave.204"* %this, %"class.libparest::Slave::Stationary::Slave.204"** %this.addr, align 8
  call void @llvm.dbg.declare(metadata %"class.libparest::Slave::Stationary::Slave.204"** %this.addr, metadata !7755, metadata !DIExpression()), !dbg !7756
  %this1 = load %"class.libparest::Slave::Stationary::Slave.204"*, %"class.libparest::Slave::Stationary::Slave.204"** %this.addr, align 8
  %0 = bitcast %"class.libparest::Slave::Stationary::Slave.204"* %this1 to i32 (...)***, !dbg !7757
  store i32 (...)** bitcast (i8** getelementptr inbounds ({ [26 x i8*] }, { [26 x i8*] }* @_ZTVN9libparest5Slave10Stationary5SlaveILi3EfEE, i32 0, inrange i32 0, i32 2) to i32 (...)**), i32 (...)*** %0, align 8, !dbg !7757
  %global_matrix = getelementptr inbounds %"class.libparest::Slave::Stationary::Slave.204", %"class.libparest::Slave::Stationary::Slave.204"* %this1, i32 0, i32 1, !dbg !7758
  invoke void @_ZN9libparest10delete_ptrINS_5Slave10Stationary12GlobalMatrix6MatrixIfEEEEvRPT_(%"class.libparest::Slave::Stationary::GlobalMatrix::Matrix.205"** dereferenceable(8) %global_matrix)
          to label %invoke.cont unwind label %lpad, !dbg !7760

invoke.cont:                                      ; preds = %entry
  %present_statistics = getelementptr inbounds %"class.libparest::Slave::Stationary::Slave.204", %"class.libparest::Slave::Stationary::Slave.204"* %this1, i32 0, i32 8, !dbg !7761
  call void @_ZN6dealii12SmartPointerIN9libparest5Slave10Stationary14Discretization4BaseILi3EE17PerStepStatisticsEED2Ev(%"class.dealii::SmartPointer.35"* %present_statistics) #4, !dbg !7761
  %state_discretization = getelementptr inbounds %"class.libparest::Slave::Stationary::Slave.204", %"class.libparest::Slave::Stationary::Slave.204"* %this1, i32 0, i32 7, !dbg !7761
  call void @_ZN6dealii12SmartPointerIN9libparest5Slave10Stationary14Discretization4BaseILi3EEEED2Ev(%"class.dealii::SmartPointer.34"* %state_discretization) #4, !dbg !7761
  %parameter_discretization = getelementptr inbounds %"class.libparest::Slave::Stationary::Slave.204", %"class.libparest::Slave::Stationary::Slave.204"* %this1, i32 0, i32 6, !dbg !7761
  call void @_ZN6dealii12SmartPointerIN9libparest9Parameter5Field16DiscretizedFieldILi3EEEED2Ev(%"class.dealii::SmartPointer.33"* %parameter_discretization) #4, !dbg !7761
  %right_hand_side = getelementptr inbounds %"class.libparest::Slave::Stationary::Slave.204", %"class.libparest::Slave::Stationary::Slave.204"* %this1, i32 0, i32 5, !dbg !7761
  call void @_ZN6dealii11BlockVectorIdED1Ev(%"class.dealii::BlockVector"* %right_hand_side) #4, !dbg !7761
  %cellwise_errors = getelementptr inbounds %"class.libparest::Slave::Stationary::Slave.204", %"class.libparest::Slave::Stationary::Slave.204"* %this1, i32 0, i32 4, !dbg !7761
  call void @_ZN6dealii6VectorIfED2Ev(%"class.dealii::Vector.32"* %cellwise_errors) #4, !dbg !7761
  %update = getelementptr inbounds %"class.libparest::Slave::Stationary::Slave.204", %"class.libparest::Slave::Stationary::Slave.204"* %this1, i32 0, i32 3, !dbg !7761
  call void @_ZN6dealii11BlockVectorIdED1Ev(%"class.dealii::BlockVector"* %update) #4, !dbg !7761
  %present_iterate = getelementptr inbounds %"class.libparest::Slave::Stationary::Slave.204", %"class.libparest::Slave::Stationary::Slave.204"* %this1, i32 0, i32 2, !dbg !7761
  call void @_ZN6dealii11BlockVectorIdED1Ev(%"class.dealii::BlockVector"* %present_iterate) #4, !dbg !7761
  %1 = bitcast %"class.libparest::Slave::Stationary::Slave.204"* %this1 to %"class.libparest::Slave::Base"*, !dbg !7761
  call void @_ZN9libparest5Slave4BaseD2Ev(%"class.libparest::Slave::Base"* %1) #4, !dbg !7761
  ret void, !dbg !7762

lpad:                                             ; preds = %entry
  %2 = landingpad { i8*, i32 }
          catch i8* null, !dbg !7761
  %3 = extractvalue { i8*, i32 } %2, 0, !dbg !7761
  store i8* %3, i8** %exn.slot, align 8, !dbg !7761
  %4 = extractvalue { i8*, i32 } %2, 1, !dbg !7761
  store i32 %4, i32* %ehselector.slot, align 4, !dbg !7761
  %present_statistics2 = getelementptr inbounds %"class.libparest::Slave::Stationary::Slave.204", %"class.libparest::Slave::Stationary::Slave.204"* %this1, i32 0, i32 8, !dbg !7761
  call void @_ZN6dealii12SmartPointerIN9libparest5Slave10Stationary14Discretization4BaseILi3EE17PerStepStatisticsEED2Ev(%"class.dealii::SmartPointer.35"* %present_statistics2) #4, !dbg !7761
  %state_discretization3 = getelementptr inbounds %"class.libparest::Slave::Stationary::Slave.204", %"class.libparest::Slave::Stationary::Slave.204"* %this1, i32 0, i32 7, !dbg !7761
  call void @_ZN6dealii12SmartPointerIN9libparest5Slave10Stationary14Discretization4BaseILi3EEEED2Ev(%"class.dealii::SmartPointer.34"* %state_discretization3) #4, !dbg !7761
  %parameter_discretization4 = getelementptr inbounds %"class.libparest::Slave::Stationary::Slave.204", %"class.libparest::Slave::Stationary::Slave.204"* %this1, i32 0, i32 6, !dbg !7761
  call void @_ZN6dealii12SmartPointerIN9libparest9Parameter5Field16DiscretizedFieldILi3EEEED2Ev(%"class.dealii::SmartPointer.33"* %parameter_discretization4) #4, !dbg !7761
  %right_hand_side5 = getelementptr inbounds %"class.libparest::Slave::Stationary::Slave.204", %"class.libparest::Slave::Stationary::Slave.204"* %this1, i32 0, i32 5, !dbg !7761
  call void @_ZN6dealii11BlockVectorIdED1Ev(%"class.dealii::BlockVector"* %right_hand_side5) #4, !dbg !7761
  %cellwise_errors6 = getelementptr inbounds %"class.libparest::Slave::Stationary::Slave.204", %"class.libparest::Slave::Stationary::Slave.204"* %this1, i32 0, i32 4, !dbg !7761
  call void @_ZN6dealii6VectorIfED2Ev(%"class.dealii::Vector.32"* %cellwise_errors6) #4, !dbg !7761
  %update7 = getelementptr inbounds %"class.libparest::Slave::Stationary::Slave.204", %"class.libparest::Slave::Stationary::Slave.204"* %this1, i32 0, i32 3, !dbg !7761
  call void @_ZN6dealii11BlockVectorIdED1Ev(%"class.dealii::BlockVector"* %update7) #4, !dbg !7761
  %present_iterate8 = getelementptr inbounds %"class.libparest::Slave::Stationary::Slave.204", %"class.libparest::Slave::Stationary::Slave.204"* %this1, i32 0, i32 2, !dbg !7761
  call void @_ZN6dealii11BlockVectorIdED1Ev(%"class.dealii::BlockVector"* %present_iterate8) #4, !dbg !7761
  %5 = bitcast %"class.libparest::Slave::Stationary::Slave.204"* %this1 to %"class.libparest::Slave::Base"*, !dbg !7761
  call void @_ZN9libparest5Slave4BaseD2Ev(%"class.libparest::Slave::Base"* %5) #4, !dbg !7761
  br label %terminate.handler, !dbg !7761

terminate.handler:                                ; preds = %lpad
  %exn = load i8*, i8** %exn.slot, align 8, !dbg !7761
  call void @__clang_call_terminate(i8* %exn) #13, !dbg !7761
  unreachable, !dbg !7761
}

; Function Attrs: noinline nounwind uwtable
define linkonce_odr dso_local void @_ZN9libparest10delete_ptrINS_5Slave10Stationary12GlobalMatrix6MatrixIfEEEEvRPT_(%"class.libparest::Slave::Stationary::GlobalMatrix::Matrix.205"** dereferenceable(8) %p) #1 comdat !dbg !7763 {
entry:
  %p.addr = alloca %"class.libparest::Slave::Stationary::GlobalMatrix::Matrix.205"**, align 8
  store %"class.libparest::Slave::Stationary::GlobalMatrix::Matrix.205"** %p, %"class.libparest::Slave::Stationary::GlobalMatrix::Matrix.205"*** %p.addr, align 8
  call void @llvm.dbg.declare(metadata %"class.libparest::Slave::Stationary::GlobalMatrix::Matrix.205"*** %p.addr, metadata !7769, metadata !DIExpression()), !dbg !7770
  %0 = load %"class.libparest::Slave::Stationary::GlobalMatrix::Matrix.205"**, %"class.libparest::Slave::Stationary::GlobalMatrix::Matrix.205"*** %p.addr, align 8, !dbg !7771
  %1 = load %"class.libparest::Slave::Stationary::GlobalMatrix::Matrix.205"*, %"class.libparest::Slave::Stationary::GlobalMatrix::Matrix.205"** %0, align 8, !dbg !7771
  %cmp = icmp ne %"class.libparest::Slave::Stationary::GlobalMatrix::Matrix.205"* %1, null, !dbg !7773
  br i1 %cmp, label %if.then, label %if.end, !dbg !7774

if.then:                                          ; preds = %entry
  %2 = load %"class.libparest::Slave::Stationary::GlobalMatrix::Matrix.205"**, %"class.libparest::Slave::Stationary::GlobalMatrix::Matrix.205"*** %p.addr, align 8, !dbg !7775
  %3 = load %"class.libparest::Slave::Stationary::GlobalMatrix::Matrix.205"*, %"class.libparest::Slave::Stationary::GlobalMatrix::Matrix.205"** %2, align 8, !dbg !7775
  %isnull = icmp eq %"class.libparest::Slave::Stationary::GlobalMatrix::Matrix.205"* %3, null, !dbg !7777
  br i1 %isnull, label %delete.end, label %delete.notnull, !dbg !7777

delete.notnull:                                   ; preds = %if.then
  %4 = bitcast %"class.libparest::Slave::Stationary::GlobalMatrix::Matrix.205"* %3 to void (%"class.libparest::Slave::Stationary::GlobalMatrix::Matrix.205"*)***, !dbg !7777
  %vtable = load void (%"class.libparest::Slave::Stationary::GlobalMatrix::Matrix.205"*)**, void (%"class.libparest::Slave::Stationary::GlobalMatrix::Matrix.205"*)*** %4, align 8, !dbg !7777
  %vfn = getelementptr inbounds void (%"class.libparest::Slave::Stationary::GlobalMatrix::Matrix.205"*)*, void (%"class.libparest::Slave::Stationary::GlobalMatrix::Matrix.205"*)** %vtable, i64 1, !dbg !7777
  %5 = load void (%"class.libparest::Slave::Stationary::GlobalMatrix::Matrix.205"*)*, void (%"class.libparest::Slave::Stationary::GlobalMatrix::Matrix.205"*)** %vfn, align 8, !dbg !7777
  call void %5(%"class.libparest::Slave::Stationary::GlobalMatrix::Matrix.205"* %3) #4, !dbg !7777
  br label %delete.end, !dbg !7777

delete.end:                                       ; preds = %delete.notnull, %if.then
  %6 = load %"class.libparest::Slave::Stationary::GlobalMatrix::Matrix.205"**, %"class.libparest::Slave::Stationary::GlobalMatrix::Matrix.205"*** %p.addr, align 8, !dbg !7778
  store %"class.libparest::Slave::Stationary::GlobalMatrix::Matrix.205"* null, %"class.libparest::Slave::Stationary::GlobalMatrix::Matrix.205"** %6, align 8, !dbg !7779
  br label %if.end, !dbg !7780

if.end:                                           ; preds = %delete.end, %entry
  ret void, !dbg !7781
}

; Function Attrs: noinline nounwind uwtable
define weak_odr dso_local void @_ZN9libparest5Slave10Stationary5SlaveILi3EfED0Ev(%"class.libparest::Slave::Stationary::Slave.204"* %this) unnamed_addr #1 comdat($_ZN9libparest5Slave10Stationary5SlaveILi3EfED5Ev) align 2 !dbg !7782 {
entry:
  %this.addr = alloca %"class.libparest::Slave::Stationary::Slave.204"*, align 8
  store %"class.libparest::Slave::Stationary::Slave.204"* %this, %"class.libparest::Slave::Stationary::Slave.204"** %this.addr, align 8
  call void @llvm.dbg.declare(metadata %"class.libparest::Slave::Stationary::Slave.204"** %this.addr, metadata !7783, metadata !DIExpression()), !dbg !7784
  %this1 = load %"class.libparest::Slave::Stationary::Slave.204"*, %"class.libparest::Slave::Stationary::Slave.204"** %this.addr, align 8
  call void @llvm.trap() #13, !dbg !7785
  unreachable, !dbg !7785
}

; Function Attrs: noinline uwtable
define weak_odr dso_local void @_ZN9libparest5Slave10Stationary5SlaveILi3EfE28initialize_gauss_newton_stepEj(%"class.libparest::Slave::Stationary::Slave.204"* %this, i32 %step_no) unnamed_addr #0 comdat align 2 personality i8* bitcast (i32 (...)* @__gxx_personality_v0 to i8*) !dbg !7786 {
entry:
  %this.addr = alloca %"class.libparest::Slave::Stationary::Slave.204"*, align 8
  %step_no.addr = alloca i32, align 4
  %ref.tmp = alloca %"class.std::__cxx11::basic_string", align 8
  %ref.tmp2 = alloca %"class.std::allocator.19", align 1
  %exn.slot = alloca i8*
  %ehselector.slot = alloca i32
  %ref.tmp5 = alloca %"class.std::__cxx11::basic_string", align 8
  %ref.tmp6 = alloca %"class.std::allocator.19", align 1
  store %"class.libparest::Slave::Stationary::Slave.204"* %this, %"class.libparest::Slave::Stationary::Slave.204"** %this.addr, align 8
  call void @llvm.dbg.declare(metadata %"class.libparest::Slave::Stationary::Slave.204"** %this.addr, metadata !7787, metadata !DIExpression()), !dbg !7788
  store i32 %step_no, i32* %step_no.addr, align 4
  call void @llvm.dbg.declare(metadata i32* %step_no.addr, metadata !7789, metadata !DIExpression()), !dbg !7790
  %this1 = load %"class.libparest::Slave::Stationary::Slave.204"*, %"class.libparest::Slave::Stationary::Slave.204"** %this.addr, align 8
  %0 = bitcast %"class.libparest::Slave::Stationary::Slave.204"* %this1 to %"class.libparest::Slave::Base"*, !dbg !7791
  call void @_ZNSaIcEC1Ev(%"class.std::allocator.19"* %ref.tmp2) #4, !dbg !7792
  invoke void @_ZNSt7__cxx1112basic_stringIcSt11char_traitsIcESaIcEEC1EPKcRKS3_(%"class.std::__cxx11::basic_string"* %ref.tmp, i8* getelementptr inbounds ([8 x i8], [8 x i8]* @.str, i64 0, i64 0), %"class.std::allocator.19"* dereferenceable(1) %ref.tmp2)
          to label %invoke.cont unwind label %lpad, !dbg !7792

invoke.cont:                                      ; preds = %entry
  invoke void @_ZNK9libparest5Slave4Base20write_program_statusERKNSt7__cxx1112basic_stringIcSt11char_traitsIcESaIcEEEb(%"class.libparest::Slave::Base"* %0, %"class.std::__cxx11::basic_string"* dereferenceable(32) %ref.tmp, i1 zeroext true)
          to label %invoke.cont4 unwind label %lpad3, !dbg !7791

invoke.cont4:                                     ; preds = %invoke.cont
  call void @_ZNSt7__cxx1112basic_stringIcSt11char_traitsIcESaIcEED1Ev(%"class.std::__cxx11::basic_string"* %ref.tmp) #4, !dbg !7791
  call void @_ZNSaIcED1Ev(%"class.std::allocator.19"* %ref.tmp2) #4, !dbg !7791
  %1 = bitcast %"class.libparest::Slave::Stationary::Slave.204"* %this1 to %"class.libparest::Slave::Base"*, !dbg !7793
  %2 = load i32, i32* %step_no.addr, align 4, !dbg !7794
  call void @_ZN9libparest5Slave4Base28initialize_gauss_newton_stepEj(%"class.libparest::Slave::Base"* %1, i32 %2), !dbg !7793
  %3 = bitcast %"class.libparest::Slave::Stationary::Slave.204"* %this1 to void (%"class.libparest::Slave::Stationary::Slave.204"*)***, !dbg !7795
  %vtable = load void (%"class.libparest::Slave::Stationary::Slave.204"*)**, void (%"class.libparest::Slave::Stationary::Slave.204"*)*** %3, align 8, !dbg !7795
  %vfn = getelementptr inbounds void (%"class.libparest::Slave::Stationary::Slave.204"*)*, void (%"class.libparest::Slave::Stationary::Slave.204"*)** %vtable, i64 22, !dbg !7795
  %4 = load void (%"class.libparest::Slave::Stationary::Slave.204"*)*, void (%"class.libparest::Slave::Stationary::Slave.204"*)** %vfn, align 8, !dbg !7795
  call void %4(%"class.libparest::Slave::Stationary::Slave.204"* %this1), !dbg !7795
  %5 = bitcast %"class.libparest::Slave::Stationary::Slave.204"* %this1 to %"class.libparest::Slave::Base"*, !dbg !7796
  call void @_ZNSaIcEC1Ev(%"class.std::allocator.19"* %ref.tmp6) #4, !dbg !7797
  invoke void @_ZNSt7__cxx1112basic_stringIcSt11char_traitsIcESaIcEEC1EPKcRKS3_(%"class.std::__cxx11::basic_string"* %ref.tmp5, i8* getelementptr inbounds ([8 x i8], [8 x i8]* @.str, i64 0, i64 0), %"class.std::allocator.19"* dereferenceable(1) %ref.tmp6)
          to label %invoke.cont8 unwind label %lpad7, !dbg !7797

invoke.cont8:                                     ; preds = %invoke.cont4
  invoke void @_ZNK9libparest5Slave4Base20write_program_statusERKNSt7__cxx1112basic_stringIcSt11char_traitsIcESaIcEEEb(%"class.libparest::Slave::Base"* %5, %"class.std::__cxx11::basic_string"* dereferenceable(32) %ref.tmp5, i1 zeroext false)
          to label %invoke.cont10 unwind label %lpad9, !dbg !7796

invoke.cont10:                                    ; preds = %invoke.cont8
  call void @_ZNSt7__cxx1112basic_stringIcSt11char_traitsIcESaIcEED1Ev(%"class.std::__cxx11::basic_string"* %ref.tmp5) #4, !dbg !7796
  call void @_ZNSaIcED1Ev(%"class.std::allocator.19"* %ref.tmp6) #4, !dbg !7796
  ret void, !dbg !7798

lpad:                                             ; preds = %entry
  %6 = landingpad { i8*, i32 }
          cleanup, !dbg !7798
  %7 = extractvalue { i8*, i32 } %6, 0, !dbg !7798
  store i8* %7, i8** %exn.slot, align 8, !dbg !7798
  %8 = extractvalue { i8*, i32 } %6, 1, !dbg !7798
  store i32 %8, i32* %ehselector.slot, align 4, !dbg !7798
  br label %ehcleanup, !dbg !7798

lpad3:                                            ; preds = %invoke.cont
  %9 = landingpad { i8*, i32 }
          cleanup, !dbg !7798
  %10 = extractvalue { i8*, i32 } %9, 0, !dbg !7798
  store i8* %10, i8** %exn.slot, align 8, !dbg !7798
  %11 = extractvalue { i8*, i32 } %9, 1, !dbg !7798
  store i32 %11, i32* %ehselector.slot, align 4, !dbg !7798
  call void @_ZNSt7__cxx1112basic_stringIcSt11char_traitsIcESaIcEED1Ev(%"class.std::__cxx11::basic_string"* %ref.tmp) #4, !dbg !7791
  br label %ehcleanup, !dbg !7791

ehcleanup:                                        ; preds = %lpad3, %lpad
  call void @_ZNSaIcED1Ev(%"class.std::allocator.19"* %ref.tmp2) #4, !dbg !7791
  br label %eh.resume, !dbg !7791

lpad7:                                            ; preds = %invoke.cont4
  %12 = landingpad { i8*, i32 }
          cleanup, !dbg !7798
  %13 = extractvalue { i8*, i32 } %12, 0, !dbg !7798
  store i8* %13, i8** %exn.slot, align 8, !dbg !7798
  %14 = extractvalue { i8*, i32 } %12, 1, !dbg !7798
  store i32 %14, i32* %ehselector.slot, align 4, !dbg !7798
  br label %ehcleanup12, !dbg !7798

lpad9:                                            ; preds = %invoke.cont8
  %15 = landingpad { i8*, i32 }
          cleanup, !dbg !7798
  %16 = extractvalue { i8*, i32 } %15, 0, !dbg !7798
  store i8* %16, i8** %exn.slot, align 8, !dbg !7798
  %17 = extractvalue { i8*, i32 } %15, 1, !dbg !7798
  store i32 %17, i32* %ehselector.slot, align 4, !dbg !7798
  call void @_ZNSt7__cxx1112basic_stringIcSt11char_traitsIcESaIcEED1Ev(%"class.std::__cxx11::basic_string"* %ref.tmp5) #4, !dbg !7796
  br label %ehcleanup12, !dbg !7796

ehcleanup12:                                      ; preds = %lpad9, %lpad7
  call void @_ZNSaIcED1Ev(%"class.std::allocator.19"* %ref.tmp6) #4, !dbg !7796
  br label %eh.resume, !dbg !7796

eh.resume:                                        ; preds = %ehcleanup12, %ehcleanup
  %exn = load i8*, i8** %exn.slot, align 8, !dbg !7791
  %sel = load i32, i32* %ehselector.slot, align 4, !dbg !7791
  %lpad.val = insertvalue { i8*, i32 } undef, i8* %exn, 0, !dbg !7791
  %lpad.val13 = insertvalue { i8*, i32 } %lpad.val, i32 %sel, 1, !dbg !7791
  resume { i8*, i32 } %lpad.val13, !dbg !7791
}

; Function Attrs: noinline uwtable
define weak_odr dso_local void @_ZN9libparest5Slave10Stationary5SlaveILi3EfE21end_gauss_newton_stepEv(%"class.libparest::Slave::Stationary::Slave.204"* %this) unnamed_addr #0 comdat align 2 !dbg !7799 {
entry:
  %this.addr = alloca %"class.libparest::Slave::Stationary::Slave.204"*, align 8
  store %"class.libparest::Slave::Stationary::Slave.204"* %this, %"class.libparest::Slave::Stationary::Slave.204"** %this.addr, align 8
  call void @llvm.dbg.declare(metadata %"class.libparest::Slave::Stationary::Slave.204"** %this.addr, metadata !7800, metadata !DIExpression()), !dbg !7801
  %this1 = load %"class.libparest::Slave::Stationary::Slave.204"*, %"class.libparest::Slave::Stationary::Slave.204"** %this.addr, align 8
  %state_discretization = getelementptr inbounds %"class.libparest::Slave::Stationary::Slave.204", %"class.libparest::Slave::Stationary::Slave.204"* %this1, i32 0, i32 7, !dbg !7802
  %call = call %"class.libparest::Slave::Stationary::Discretization::Base"* @_ZNK6dealii12SmartPointerIN9libparest5Slave10Stationary14Discretization4BaseILi3EEEEptEv(%"class.dealii::SmartPointer.34"* %state_discretization), !dbg !7802
  %present_statistics = getelementptr inbounds %"class.libparest::Slave::Stationary::Slave.204", %"class.libparest::Slave::Stationary::Slave.204"* %this1, i32 0, i32 8, !dbg !7803
  %call2 = call dereferenceable(88) %"class.libparest::Slave::Stationary::Discretization::Base<3>::PerStepStatistics"* @_ZNK6dealii12SmartPointerIN9libparest5Slave10Stationary14Discretization4BaseILi3EE17PerStepStatisticsEEdeEv(%"class.dealii::SmartPointer.35"* %present_statistics), !dbg !7804
  call void @_ZNK9libparest5Slave10Stationary14Discretization4BaseILi3EE15fill_statisticsERNS4_17PerStepStatisticsE(%"class.libparest::Slave::Stationary::Discretization::Base"* %call, %"class.libparest::Slave::Stationary::Discretization::Base<3>::PerStepStatistics"* dereferenceable(88) %call2), !dbg !7805
  %global_matrix = getelementptr inbounds %"class.libparest::Slave::Stationary::Slave.204", %"class.libparest::Slave::Stationary::Slave.204"* %this1, i32 0, i32 1, !dbg !7806
  %0 = load %"class.libparest::Slave::Stationary::GlobalMatrix::Matrix.205"*, %"class.libparest::Slave::Stationary::GlobalMatrix::Matrix.205"** %global_matrix, align 8, !dbg !7806
  call void @_ZN9libparest5Slave10Stationary12GlobalMatrix6MatrixIfE5clearEv(%"class.libparest::Slave::Stationary::GlobalMatrix::Matrix.205"* %0), !dbg !7807
  %right_hand_side = getelementptr inbounds %"class.libparest::Slave::Stationary::Slave.204", %"class.libparest::Slave::Stationary::Slave.204"* %this1, i32 0, i32 5, !dbg !7808
  call void @_ZN6dealii11BlockVectorIdE6reinitEjjb(%"class.dealii::BlockVector"* %right_hand_side, i32 0, i32 0, i1 zeroext false), !dbg !7809
  %update = getelementptr inbounds %"class.libparest::Slave::Stationary::Slave.204", %"class.libparest::Slave::Stationary::Slave.204"* %this1, i32 0, i32 3, !dbg !7810
  call void @_ZN6dealii11BlockVectorIdE6reinitEjjb(%"class.dealii::BlockVector"* %update, i32 0, i32 0, i1 zeroext false), !dbg !7811
  %present_statistics3 = getelementptr inbounds %"class.libparest::Slave::Stationary::Slave.204", %"class.libparest::Slave::Stationary::Slave.204"* %this1, i32 0, i32 8, !dbg !7812
  %call4 = call dereferenceable(16) %"class.dealii::SmartPointer.35"* @_ZN6dealii12SmartPointerIN9libparest5Slave10Stationary14Discretization4BaseILi3EE17PerStepStatisticsEEaSEPS7_(%"class.dealii::SmartPointer.35"* %present_statistics3, %"class.libparest::Slave::Stationary::Discretization::Base<3>::PerStepStatistics"* null), !dbg !7813
  ret void, !dbg !7814
}

declare dso_local void @_ZN9libparest5Slave10Stationary12GlobalMatrix6MatrixIfE5clearEv(%"class.libparest::Slave::Stationary::GlobalMatrix::Matrix.205"*) #2

; Function Attrs: noinline uwtable
define weak_odr dso_local void @_ZN9libparest5Slave10Stationary5SlaveILi3EfE11compute_rhsERN6dealii6VectorIdEES7_(%"class.libparest::Slave::Stationary::Slave.204"* %this, %"class.dealii::Vector"* dereferenceable(88) %rhs, %"class.dealii::Vector"* dereferenceable(88) %rhs_a) unnamed_addr #0 comdat align 2 personality i8* bitcast (i32 (...)* @__gxx_personality_v0 to i8*) !dbg !7815 {
entry:
  %this.addr = alloca %"class.libparest::Slave::Stationary::Slave.204"*, align 8
  %rhs.addr = alloca %"class.dealii::Vector"*, align 8
  %rhs_a.addr = alloca %"class.dealii::Vector"*, align 8
  %ref.tmp = alloca %"class.std::__cxx11::basic_string", align 8
  %ref.tmp2 = alloca %"class.std::allocator.19", align 1
  %exn.slot = alloca i8*
  %ehselector.slot = alloca i32
  %tmp = alloca %"class.dealii::BlockVector.224", align 8
  %ref.tmp64 = alloca %"class.std::__cxx11::basic_string", align 8
  %ref.tmp65 = alloca %"class.std::allocator.19", align 1
  store %"class.libparest::Slave::Stationary::Slave.204"* %this, %"class.libparest::Slave::Stationary::Slave.204"** %this.addr, align 8
  call void @llvm.dbg.declare(metadata %"class.libparest::Slave::Stationary::Slave.204"** %this.addr, metadata !7816, metadata !DIExpression()), !dbg !7817
  store %"class.dealii::Vector"* %rhs, %"class.dealii::Vector"** %rhs.addr, align 8
  call void @llvm.dbg.declare(metadata %"class.dealii::Vector"** %rhs.addr, metadata !7818, metadata !DIExpression()), !dbg !7819
  store %"class.dealii::Vector"* %rhs_a, %"class.dealii::Vector"** %rhs_a.addr, align 8
  call void @llvm.dbg.declare(metadata %"class.dealii::Vector"** %rhs_a.addr, metadata !7820, metadata !DIExpression()), !dbg !7821
  %this1 = load %"class.libparest::Slave::Stationary::Slave.204"*, %"class.libparest::Slave::Stationary::Slave.204"** %this.addr, align 8
  %0 = bitcast %"class.libparest::Slave::Stationary::Slave.204"* %this1 to %"class.libparest::Slave::Base"*, !dbg !7822
  call void @_ZNSaIcEC1Ev(%"class.std::allocator.19"* %ref.tmp2) #4, !dbg !7823
  invoke void @_ZNSt7__cxx1112basic_stringIcSt11char_traitsIcESaIcEEC1EPKcRKS3_(%"class.std::__cxx11::basic_string"* %ref.tmp, i8* getelementptr inbounds ([4 x i8], [4 x i8]* @.str.10, i64 0, i64 0), %"class.std::allocator.19"* dereferenceable(1) %ref.tmp2)
          to label %invoke.cont unwind label %lpad, !dbg !7823

invoke.cont:                                      ; preds = %entry
  invoke void @_ZNK9libparest5Slave4Base20write_program_statusERKNSt7__cxx1112basic_stringIcSt11char_traitsIcESaIcEEEb(%"class.libparest::Slave::Base"* %0, %"class.std::__cxx11::basic_string"* dereferenceable(32) %ref.tmp, i1 zeroext true)
          to label %invoke.cont4 unwind label %lpad3, !dbg !7822

invoke.cont4:                                     ; preds = %invoke.cont
  call void @_ZNSt7__cxx1112basic_stringIcSt11char_traitsIcESaIcEED1Ev(%"class.std::__cxx11::basic_string"* %ref.tmp) #4, !dbg !7822
  call void @_ZNSaIcED1Ev(%"class.std::allocator.19"* %ref.tmp2) #4, !dbg !7822
  call void @llvm.dbg.declare(metadata %"class.dealii::BlockVector.224"* %tmp, metadata !7824, metadata !DIExpression()), !dbg !7825
  %state_discretization = getelementptr inbounds %"class.libparest::Slave::Stationary::Slave.204", %"class.libparest::Slave::Stationary::Slave.204"* %this1, i32 0, i32 7, !dbg !7826
  %call = call %"class.libparest::Slave::Stationary::Discretization::Base"* @_ZNK6dealii12SmartPointerIN9libparest5Slave10Stationary14Discretization4BaseILi3EEEEptEv(%"class.dealii::SmartPointer.34"* %state_discretization), !dbg !7826
  %dof_handlers = getelementptr inbounds %"class.libparest::Slave::Stationary::Discretization::Base", %"class.libparest::Slave::Stationary::Discretization::Base"* %call, i32 0, i32 3, !dbg !7827
  %1 = load %"class.libparest::Slave::Stationary::Discretization::DoFHandlers"*, %"class.libparest::Slave::Stationary::Discretization::DoFHandlers"** %dof_handlers, align 8, !dbg !7827
  %true_block_sizes = getelementptr inbounds %"class.libparest::Slave::Stationary::Discretization::DoFHandlers", %"class.libparest::Slave::Stationary::Discretization::DoFHandlers"* %1, i32 0, i32 8, !dbg !7828
  call void @_ZN6dealii11BlockVectorIfEC1ERKSt6vectorIjSaIjEE(%"class.dealii::BlockVector.224"* %tmp, %"class.std::vector.27"* dereferenceable(24) %true_block_sizes), !dbg !7825
  %right_hand_side = getelementptr inbounds %"class.libparest::Slave::Stationary::Slave.204", %"class.libparest::Slave::Stationary::Slave.204"* %this1, i32 0, i32 5, !dbg !7829
  %2 = bitcast %"class.dealii::BlockVector"* %right_hand_side to %"class.dealii::BlockVectorBase"*, !dbg !7829
  %call7 = invoke dereferenceable(88) %"class.dealii::Vector"* @_ZN6dealii15BlockVectorBaseINS_6VectorIdEEE5blockEj(%"class.dealii::BlockVectorBase"* %2, i32 1)
          to label %invoke.cont6 unwind label %lpad5, !dbg !7830

invoke.cont6:                                     ; preds = %invoke.cont4
  %3 = bitcast %"class.dealii::BlockVector.224"* %tmp to %"class.dealii::BlockVectorBase.225"*, !dbg !7831
  %call9 = invoke dereferenceable(88) %"class.dealii::Vector.32"* @_ZN6dealii15BlockVectorBaseINS_6VectorIfEEE5blockEj(%"class.dealii::BlockVectorBase.225"* %3, i32 1)
          to label %invoke.cont8 unwind label %lpad5, !dbg !7832

invoke.cont8:                                     ; preds = %invoke.cont6
  %call11 = invoke dereferenceable(88) %"class.dealii::Vector.32"* @_ZN6dealii6VectorIfEaSIdEERS1_RKNS0_IT_EE(%"class.dealii::Vector.32"* %call9, %"class.dealii::Vector"* dereferenceable(88) %call7)
          to label %invoke.cont10 unwind label %lpad5, !dbg !7833

invoke.cont10:                                    ; preds = %invoke.cont8
  %global_matrix = getelementptr inbounds %"class.libparest::Slave::Stationary::Slave.204", %"class.libparest::Slave::Stationary::Slave.204"* %this1, i32 0, i32 1, !dbg !7834
  %4 = load %"class.libparest::Slave::Stationary::GlobalMatrix::Matrix.205"*, %"class.libparest::Slave::Stationary::GlobalMatrix::Matrix.205"** %global_matrix, align 8, !dbg !7834
  %A_inverse = getelementptr inbounds %"class.libparest::Slave::Stationary::GlobalMatrix::Matrix.205", %"class.libparest::Slave::Stationary::GlobalMatrix::Matrix.205"* %4, i32 0, i32 6, !dbg !7835
  %call13 = invoke %"class.libparest::Slave::Stationary::GlobalMatrix::Matrix_A_Inverse.220"* @_ZNK6dealii12SmartPointerIN9libparest5Slave10Stationary12GlobalMatrix16Matrix_A_InverseIfEEEptEv(%"class.dealii::SmartPointer.219"* %A_inverse)
          to label %invoke.cont12 unwind label %lpad5, !dbg !7834

invoke.cont12:                                    ; preds = %invoke.cont10
  %5 = bitcast %"class.dealii::BlockVector.224"* %tmp to %"class.dealii::BlockVectorBase.225"*, !dbg !7836
  %call15 = invoke dereferenceable(88) %"class.dealii::Vector.32"* @_ZN6dealii15BlockVectorBaseINS_6VectorIfEEE5blockEj(%"class.dealii::BlockVectorBase.225"* %5, i32 1)
          to label %invoke.cont14 unwind label %lpad5, !dbg !7837

invoke.cont14:                                    ; preds = %invoke.cont12
  %6 = bitcast %"class.libparest::Slave::Stationary::GlobalMatrix::Matrix_A_Inverse.220"* %call13 to void (%"class.libparest::Slave::Stationary::GlobalMatrix::Matrix_A_Inverse.220"*, %"class.dealii::Vector.32"*)***, !dbg !7838
  %vtable = load void (%"class.libparest::Slave::Stationary::GlobalMatrix::Matrix_A_Inverse.220"*, %"class.dealii::Vector.32"*)**, void (%"class.libparest::Slave::Stationary::GlobalMatrix::Matrix_A_Inverse.220"*, %"class.dealii::Vector.32"*)*** %6, align 8, !dbg !7838
  %vfn = getelementptr inbounds void (%"class.libparest::Slave::Stationary::GlobalMatrix::Matrix_A_Inverse.220"*, %"class.dealii::Vector.32"*)*, void (%"class.libparest::Slave::Stationary::GlobalMatrix::Matrix_A_Inverse.220"*, %"class.dealii::Vector.32"*)** %vtable, i64 3, !dbg !7838
  %7 = load void (%"class.libparest::Slave::Stationary::GlobalMatrix::Matrix_A_Inverse.220"*, %"class.dealii::Vector.32"*)*, void (%"class.libparest::Slave::Stationary::GlobalMatrix::Matrix_A_Inverse.220"*, %"class.dealii::Vector.32"*)** %vfn, align 8, !dbg !7838
  invoke void %7(%"class.libparest::Slave::Stationary::GlobalMatrix::Matrix_A_Inverse.220"* %call13, %"class.dealii::Vector.32"* dereferenceable(88) %call15)
          to label %invoke.cont16 unwind label %lpad5, !dbg !7838

invoke.cont16:                                    ; preds = %invoke.cont14
  %global_matrix17 = getelementptr inbounds %"class.libparest::Slave::Stationary::Slave.204", %"class.libparest::Slave::Stationary::Slave.204"* %this1, i32 0, i32 1, !dbg !7839
  %8 = load %"class.libparest::Slave::Stationary::GlobalMatrix::Matrix.205"*, %"class.libparest::Slave::Stationary::GlobalMatrix::Matrix.205"** %global_matrix17, align 8, !dbg !7839
  %M = getelementptr inbounds %"class.libparest::Slave::Stationary::GlobalMatrix::Matrix.205", %"class.libparest::Slave::Stationary::GlobalMatrix::Matrix.205"* %8, i32 0, i32 2, !dbg !7840
  %call19 = invoke %"class.dealii::SparseMatrix.207"* @_ZNK6dealii12SmartPointerINS_12SparseMatrixIfEEEptEv(%"class.dealii::SmartPointer.206"* %M)
          to label %invoke.cont18 unwind label %lpad5, !dbg !7839

invoke.cont18:                                    ; preds = %invoke.cont16
  %9 = bitcast %"class.dealii::BlockVector.224"* %tmp to %"class.dealii::BlockVectorBase.225"*, !dbg !7841
  %call21 = invoke dereferenceable(88) %"class.dealii::Vector.32"* @_ZN6dealii15BlockVectorBaseINS_6VectorIfEEE5blockEj(%"class.dealii::BlockVectorBase.225"* %9, i32 0)
          to label %invoke.cont20 unwind label %lpad5, !dbg !7842

invoke.cont20:                                    ; preds = %invoke.cont18
  %10 = bitcast %"class.dealii::BlockVector.224"* %tmp to %"class.dealii::BlockVectorBase.225"*, !dbg !7843
  %call23 = invoke dereferenceable(88) %"class.dealii::Vector.32"* @_ZN6dealii15BlockVectorBaseINS_6VectorIfEEE5blockEj(%"class.dealii::BlockVectorBase.225"* %10, i32 1)
          to label %invoke.cont22 unwind label %lpad5, !dbg !7844

invoke.cont22:                                    ; preds = %invoke.cont20
  invoke void @_ZNK6dealii12SparseMatrixIfE5vmultINS_6VectorIfEES4_EEvRT_RKT0_(%"class.dealii::SparseMatrix.207"* %call19, %"class.dealii::Vector.32"* dereferenceable(88) %call21, %"class.dealii::Vector.32"* dereferenceable(88) %call23)
          to label %invoke.cont24 unwind label %lpad5, !dbg !7845

invoke.cont24:                                    ; preds = %invoke.cont22
  %right_hand_side25 = getelementptr inbounds %"class.libparest::Slave::Stationary::Slave.204", %"class.libparest::Slave::Stationary::Slave.204"* %this1, i32 0, i32 5, !dbg !7846
  %11 = bitcast %"class.dealii::BlockVector"* %right_hand_side25 to %"class.dealii::BlockVectorBase"*, !dbg !7846
  %call27 = invoke dereferenceable(88) %"class.dealii::Vector"* @_ZN6dealii15BlockVectorBaseINS_6VectorIdEEE5blockEj(%"class.dealii::BlockVectorBase"* %11, i32 0)
          to label %invoke.cont26 unwind label %lpad5, !dbg !7847

invoke.cont26:                                    ; preds = %invoke.cont24
  %12 = bitcast %"class.dealii::BlockVector.224"* %tmp to %"class.dealii::BlockVectorBase.225"*, !dbg !7848
  %call29 = invoke dereferenceable(88) %"class.dealii::Vector.32"* @_ZN6dealii15BlockVectorBaseINS_6VectorIfEEE5blockEj(%"class.dealii::BlockVectorBase.225"* %12, i32 1)
          to label %invoke.cont28 unwind label %lpad5, !dbg !7849

invoke.cont28:                                    ; preds = %invoke.cont26
  %call31 = invoke dereferenceable(88) %"class.dealii::Vector.32"* @_ZN6dealii6VectorIfEaSIdEERS1_RKNS0_IT_EE(%"class.dealii::Vector.32"* %call29, %"class.dealii::Vector"* dereferenceable(88) %call27)
          to label %invoke.cont30 unwind label %lpad5, !dbg !7850

invoke.cont30:                                    ; preds = %invoke.cont28
  %13 = bitcast %"class.dealii::BlockVector.224"* %tmp to %"class.dealii::BlockVectorBase.225"*, !dbg !7851
  %call33 = invoke dereferenceable(88) %"class.dealii::Vector.32"* @_ZN6dealii15BlockVectorBaseINS_6VectorIfEEE5blockEj(%"class.dealii::BlockVectorBase.225"* %13, i32 0)
          to label %invoke.cont32 unwind label %lpad5, !dbg !7852

invoke.cont32:                                    ; preds = %invoke.cont30
  %14 = bitcast %"class.dealii::BlockVector.224"* %tmp to %"class.dealii::BlockVectorBase.225"*, !dbg !7853
  %call35 = invoke dereferenceable(88) %"class.dealii::Vector.32"* @_ZN6dealii15BlockVectorBaseINS_6VectorIfEEE5blockEj(%"class.dealii::BlockVectorBase.225"* %14, i32 1)
          to label %invoke.cont34 unwind label %lpad5, !dbg !7854

invoke.cont34:                                    ; preds = %invoke.cont32
  %call37 = invoke dereferenceable(88) %"class.dealii::Vector.32"* @_ZN6dealii6VectorIfEmIERKS1_(%"class.dealii::Vector.32"* %call35, %"class.dealii::Vector.32"* dereferenceable(88) %call33)
          to label %invoke.cont36 unwind label %lpad5, !dbg !7855

invoke.cont36:                                    ; preds = %invoke.cont34
  %global_matrix38 = getelementptr inbounds %"class.libparest::Slave::Stationary::Slave.204", %"class.libparest::Slave::Stationary::Slave.204"* %this1, i32 0, i32 1, !dbg !7856
  %15 = load %"class.libparest::Slave::Stationary::GlobalMatrix::Matrix.205"*, %"class.libparest::Slave::Stationary::GlobalMatrix::Matrix.205"** %global_matrix38, align 8, !dbg !7856
  %A_inverse39 = getelementptr inbounds %"class.libparest::Slave::Stationary::GlobalMatrix::Matrix.205", %"class.libparest::Slave::Stationary::GlobalMatrix::Matrix.205"* %15, i32 0, i32 6, !dbg !7857
  %call41 = invoke %"class.libparest::Slave::Stationary::GlobalMatrix::Matrix_A_Inverse.220"* @_ZNK6dealii12SmartPointerIN9libparest5Slave10Stationary12GlobalMatrix16Matrix_A_InverseIfEEEptEv(%"class.dealii::SmartPointer.219"* %A_inverse39)
          to label %invoke.cont40 unwind label %lpad5, !dbg !7856

invoke.cont40:                                    ; preds = %invoke.cont36
  %16 = bitcast %"class.dealii::BlockVector.224"* %tmp to %"class.dealii::BlockVectorBase.225"*, !dbg !7858
  %call43 = invoke dereferenceable(88) %"class.dealii::Vector.32"* @_ZN6dealii15BlockVectorBaseINS_6VectorIfEEE5blockEj(%"class.dealii::BlockVectorBase.225"* %16, i32 1)
          to label %invoke.cont42 unwind label %lpad5, !dbg !7859

invoke.cont42:                                    ; preds = %invoke.cont40
  %17 = bitcast %"class.libparest::Slave::Stationary::GlobalMatrix::Matrix_A_Inverse.220"* %call41 to void (%"class.libparest::Slave::Stationary::GlobalMatrix::Matrix_A_Inverse.220"*, %"class.dealii::Vector.32"*)***, !dbg !7860
  %vtable44 = load void (%"class.libparest::Slave::Stationary::GlobalMatrix::Matrix_A_Inverse.220"*, %"class.dealii::Vector.32"*)**, void (%"class.libparest::Slave::Stationary::GlobalMatrix::Matrix_A_Inverse.220"*, %"class.dealii::Vector.32"*)*** %17, align 8, !dbg !7860
  %vfn45 = getelementptr inbounds void (%"class.libparest::Slave::Stationary::GlobalMatrix::Matrix_A_Inverse.220"*, %"class.dealii::Vector.32"*)*, void (%"class.libparest::Slave::Stationary::GlobalMatrix::Matrix_A_Inverse.220"*, %"class.dealii::Vector.32"*)** %vtable44, i64 5, !dbg !7860
  %18 = load void (%"class.libparest::Slave::Stationary::GlobalMatrix::Matrix_A_Inverse.220"*, %"class.dealii::Vector.32"*)*, void (%"class.libparest::Slave::Stationary::GlobalMatrix::Matrix_A_Inverse.220"*, %"class.dealii::Vector.32"*)** %vfn45, align 8, !dbg !7860
  invoke void %18(%"class.libparest::Slave::Stationary::GlobalMatrix::Matrix_A_Inverse.220"* %call41, %"class.dealii::Vector.32"* dereferenceable(88) %call43)
          to label %invoke.cont46 unwind label %lpad5, !dbg !7860

invoke.cont46:                                    ; preds = %invoke.cont42
  %global_matrix47 = getelementptr inbounds %"class.libparest::Slave::Stationary::Slave.204", %"class.libparest::Slave::Stationary::Slave.204"* %this1, i32 0, i32 1, !dbg !7861
  %19 = load %"class.libparest::Slave::Stationary::GlobalMatrix::Matrix.205"*, %"class.libparest::Slave::Stationary::GlobalMatrix::Matrix.205"** %global_matrix47, align 8, !dbg !7861
  %C_T = getelementptr inbounds %"class.libparest::Slave::Stationary::GlobalMatrix::Matrix.205", %"class.libparest::Slave::Stationary::GlobalMatrix::Matrix.205"* %19, i32 0, i32 4, !dbg !7862
  %call49 = invoke %"class.libparest::Slave::Stationary::GlobalMatrix::C_and_CT::CT.212"* @_ZNK6dealii12SmartPointerIN9libparest5Slave10Stationary12GlobalMatrix8C_and_CT2CTINS_12SparseMatrixIfEEEEEptEv(%"class.dealii::SmartPointer.211"* %C_T)
          to label %invoke.cont48 unwind label %lpad5, !dbg !7861

invoke.cont48:                                    ; preds = %invoke.cont46
  %20 = load %"class.dealii::Vector"*, %"class.dealii::Vector"** %rhs.addr, align 8, !dbg !7863
  %21 = bitcast %"class.dealii::BlockVector.224"* %tmp to %"class.dealii::BlockVectorBase.225"*, !dbg !7864
  %call51 = invoke dereferenceable(88) %"class.dealii::Vector.32"* @_ZN6dealii15BlockVectorBaseINS_6VectorIfEEE5blockEj(%"class.dealii::BlockVectorBase.225"* %21, i32 1)
          to label %invoke.cont50 unwind label %lpad5, !dbg !7865

invoke.cont50:                                    ; preds = %invoke.cont48
  invoke void @_ZNK9libparest5Slave10Stationary12GlobalMatrix8C_and_CT2CTIN6dealii12SparseMatrixIfEEE5vmultINS5_6VectorIfEENSA_IdEEEEvRT0_RKT_(%"class.libparest::Slave::Stationary::GlobalMatrix::C_and_CT::CT.212"* %call49, %"class.dealii::Vector"* dereferenceable(88) %20, %"class.dealii::Vector.32"* dereferenceable(88) %call51)
          to label %invoke.cont52 unwind label %lpad5, !dbg !7866

invoke.cont52:                                    ; preds = %invoke.cont50
  %22 = load %"class.dealii::Vector"*, %"class.dealii::Vector"** %rhs.addr, align 8, !dbg !7867
  invoke void @_ZN6dealii6VectorIdE5scaleEd(%"class.dealii::Vector"* %22, double -1.000000e+00)
          to label %invoke.cont53 unwind label %lpad5, !dbg !7868

invoke.cont53:                                    ; preds = %invoke.cont52
  %right_hand_side54 = getelementptr inbounds %"class.libparest::Slave::Stationary::Slave.204", %"class.libparest::Slave::Stationary::Slave.204"* %this1, i32 0, i32 5, !dbg !7869
  %23 = bitcast %"class.dealii::BlockVector"* %right_hand_side54 to %"class.dealii::BlockVectorBase"*, !dbg !7869
  %call56 = invoke dereferenceable(88) %"class.dealii::Vector"* @_ZN6dealii15BlockVectorBaseINS_6VectorIdEEE5blockEj(%"class.dealii::BlockVectorBase"* %23, i32 2)
          to label %invoke.cont55 unwind label %lpad5, !dbg !7870

invoke.cont55:                                    ; preds = %invoke.cont53
  %24 = load %"class.dealii::Vector"*, %"class.dealii::Vector"** %rhs.addr, align 8, !dbg !7871
  %call58 = invoke dereferenceable(88) %"class.dealii::Vector"* @_ZN6dealii6VectorIdEpLERKS1_(%"class.dealii::Vector"* %24, %"class.dealii::Vector"* dereferenceable(88) %call56)
          to label %invoke.cont57 unwind label %lpad5, !dbg !7872

invoke.cont57:                                    ; preds = %invoke.cont55
  %right_hand_side59 = getelementptr inbounds %"class.libparest::Slave::Stationary::Slave.204", %"class.libparest::Slave::Stationary::Slave.204"* %this1, i32 0, i32 5, !dbg !7873
  %25 = bitcast %"class.dealii::BlockVector"* %right_hand_side59 to %"class.dealii::BlockVectorBase"*, !dbg !7873
  %call61 = invoke dereferenceable(88) %"class.dealii::Vector"* @_ZN6dealii15BlockVectorBaseINS_6VectorIdEEE5blockEj(%"class.dealii::BlockVectorBase"* %25, i32 2)
          to label %invoke.cont60 unwind label %lpad5, !dbg !7874

invoke.cont60:                                    ; preds = %invoke.cont57
  %26 = load %"class.dealii::Vector"*, %"class.dealii::Vector"** %rhs_a.addr, align 8, !dbg !7875
  %call63 = invoke dereferenceable(88) %"class.dealii::Vector"* @_ZN6dealii6VectorIdEaSERKS1_(%"class.dealii::Vector"* %26, %"class.dealii::Vector"* dereferenceable(88) %call61)
          to label %invoke.cont62 unwind label %lpad5, !dbg !7876

invoke.cont62:                                    ; preds = %invoke.cont60
  %27 = bitcast %"class.libparest::Slave::Stationary::Slave.204"* %this1 to %"class.libparest::Slave::Base"*, !dbg !7877
  call void @_ZNSaIcEC1Ev(%"class.std::allocator.19"* %ref.tmp65) #4, !dbg !7878
  invoke void @_ZNSt7__cxx1112basic_stringIcSt11char_traitsIcESaIcEEC1EPKcRKS3_(%"class.std::__cxx11::basic_string"* %ref.tmp64, i8* getelementptr inbounds ([4 x i8], [4 x i8]* @.str.10, i64 0, i64 0), %"class.std::allocator.19"* dereferenceable(1) %ref.tmp65)
          to label %invoke.cont67 unwind label %lpad66, !dbg !7878

invoke.cont67:                                    ; preds = %invoke.cont62
  invoke void @_ZNK9libparest5Slave4Base20write_program_statusERKNSt7__cxx1112basic_stringIcSt11char_traitsIcESaIcEEEb(%"class.libparest::Slave::Base"* %27, %"class.std::__cxx11::basic_string"* dereferenceable(32) %ref.tmp64, i1 zeroext false)
          to label %invoke.cont69 unwind label %lpad68, !dbg !7877

invoke.cont69:                                    ; preds = %invoke.cont67
  call void @_ZNSt7__cxx1112basic_stringIcSt11char_traitsIcESaIcEED1Ev(%"class.std::__cxx11::basic_string"* %ref.tmp64) #4, !dbg !7877
  call void @_ZNSaIcED1Ev(%"class.std::allocator.19"* %ref.tmp65) #4, !dbg !7877
  call void @_ZN6dealii11BlockVectorIfED1Ev(%"class.dealii::BlockVector.224"* %tmp) #4, !dbg !7879
  ret void, !dbg !7879

lpad:                                             ; preds = %entry
  %28 = landingpad { i8*, i32 }
          cleanup, !dbg !7879
  %29 = extractvalue { i8*, i32 } %28, 0, !dbg !7879
  store i8* %29, i8** %exn.slot, align 8, !dbg !7879
  %30 = extractvalue { i8*, i32 } %28, 1, !dbg !7879
  store i32 %30, i32* %ehselector.slot, align 4, !dbg !7879
  br label %ehcleanup, !dbg !7879

lpad3:                                            ; preds = %invoke.cont
  %31 = landingpad { i8*, i32 }
          cleanup, !dbg !7879
  %32 = extractvalue { i8*, i32 } %31, 0, !dbg !7879
  store i8* %32, i8** %exn.slot, align 8, !dbg !7879
  %33 = extractvalue { i8*, i32 } %31, 1, !dbg !7879
  store i32 %33, i32* %ehselector.slot, align 4, !dbg !7879
  call void @_ZNSt7__cxx1112basic_stringIcSt11char_traitsIcESaIcEED1Ev(%"class.std::__cxx11::basic_string"* %ref.tmp) #4, !dbg !7822
  br label %ehcleanup, !dbg !7822

ehcleanup:                                        ; preds = %lpad3, %lpad
  call void @_ZNSaIcED1Ev(%"class.std::allocator.19"* %ref.tmp2) #4, !dbg !7822
  br label %eh.resume, !dbg !7822

lpad5:                                            ; preds = %invoke.cont60, %invoke.cont57, %invoke.cont55, %invoke.cont53, %invoke.cont52, %invoke.cont50, %invoke.cont48, %invoke.cont46, %invoke.cont42, %invoke.cont40, %invoke.cont36, %invoke.cont34, %invoke.cont32, %invoke.cont30, %invoke.cont28, %invoke.cont26, %invoke.cont24, %invoke.cont22, %invoke.cont20, %invoke.cont18, %invoke.cont16, %invoke.cont14, %invoke.cont12, %invoke.cont10, %invoke.cont8, %invoke.cont6, %invoke.cont4
  %34 = landingpad { i8*, i32 }
          cleanup, !dbg !7879
  %35 = extractvalue { i8*, i32 } %34, 0, !dbg !7879
  store i8* %35, i8** %exn.slot, align 8, !dbg !7879
  %36 = extractvalue { i8*, i32 } %34, 1, !dbg !7879
  store i32 %36, i32* %ehselector.slot, align 4, !dbg !7879
  br label %ehcleanup72, !dbg !7879

lpad66:                                           ; preds = %invoke.cont62
  %37 = landingpad { i8*, i32 }
          cleanup, !dbg !7879
  %38 = extractvalue { i8*, i32 } %37, 0, !dbg !7879
  store i8* %38, i8** %exn.slot, align 8, !dbg !7879
  %39 = extractvalue { i8*, i32 } %37, 1, !dbg !7879
  store i32 %39, i32* %ehselector.slot, align 4, !dbg !7879
  br label %ehcleanup71, !dbg !7879

lpad68:                                           ; preds = %invoke.cont67
  %40 = landingpad { i8*, i32 }
          cleanup, !dbg !7879
  %41 = extractvalue { i8*, i32 } %40, 0, !dbg !7879
  store i8* %41, i8** %exn.slot, align 8, !dbg !7879
  %42 = extractvalue { i8*, i32 } %40, 1, !dbg !7879
  store i32 %42, i32* %ehselector.slot, align 4, !dbg !7879
  call void @_ZNSt7__cxx1112basic_stringIcSt11char_traitsIcESaIcEED1Ev(%"class.std::__cxx11::basic_string"* %ref.tmp64) #4, !dbg !7877
  br label %ehcleanup71, !dbg !7877

ehcleanup71:                                      ; preds = %lpad68, %lpad66
  call void @_ZNSaIcED1Ev(%"class.std::allocator.19"* %ref.tmp65) #4, !dbg !7877
  br label %ehcleanup72, !dbg !7877

ehcleanup72:                                      ; preds = %ehcleanup71, %lpad5
  call void @_ZN6dealii11BlockVectorIfED1Ev(%"class.dealii::BlockVector.224"* %tmp) #4, !dbg !7879
  br label %eh.resume, !dbg !7879

eh.resume:                                        ; preds = %ehcleanup72, %ehcleanup
  %exn = load i8*, i8** %exn.slot, align 8, !dbg !7822
  %sel = load i32, i32* %ehselector.slot, align 4, !dbg !7822
  %lpad.val = insertvalue { i8*, i32 } undef, i8* %exn, 0, !dbg !7822
  %lpad.val73 = insertvalue { i8*, i32 } %lpad.val, i32 %sel, 1, !dbg !7822
  resume { i8*, i32 } %lpad.val73, !dbg !7822
}

declare dso_local void @_ZN6dealii11BlockVectorIfEC1ERKSt6vectorIjSaIjEE(%"class.dealii::BlockVector.224"*, %"class.std::vector.27"* dereferenceable(24)) unnamed_addr #2

; Function Attrs: noinline nounwind uwtable
define linkonce_odr dso_local dereferenceable(88) %"class.dealii::Vector.32"* @_ZN6dealii15BlockVectorBaseINS_6VectorIfEEE5blockEj(%"class.dealii::BlockVectorBase.225"* %this, i32 %i) #1 comdat align 2 !dbg !7880 {
entry:
  %this.addr = alloca %"class.dealii::BlockVectorBase.225"*, align 8
  %i.addr = alloca i32, align 4
  store %"class.dealii::BlockVectorBase.225"* %this, %"class.dealii::BlockVectorBase.225"** %this.addr, align 8
  call void @llvm.dbg.declare(metadata %"class.dealii::BlockVectorBase.225"** %this.addr, metadata !7888, metadata !DIExpression()), !dbg !7890
  store i32 %i, i32* %i.addr, align 4
  call void @llvm.dbg.declare(metadata i32* %i.addr, metadata !7891, metadata !DIExpression()), !dbg !7892
  %this1 = load %"class.dealii::BlockVectorBase.225"*, %"class.dealii::BlockVectorBase.225"** %this.addr, align 8
  %components = getelementptr inbounds %"class.dealii::BlockVectorBase.225", %"class.dealii::BlockVectorBase.225"* %this1, i32 0, i32 1, !dbg !7893
  %0 = load i32, i32* %i.addr, align 4, !dbg !7894
  %conv = zext i32 %0 to i64, !dbg !7894
  %call = call dereferenceable(88) %"class.dealii::Vector.32"* @_ZNSt6vectorIN6dealii6VectorIfEESaIS2_EEixEm(%"class.std::vector.226"* %components, i64 %conv) #4, !dbg !7893
  ret %"class.dealii::Vector.32"* %call, !dbg !7895
}

declare dso_local dereferenceable(88) %"class.dealii::Vector.32"* @_ZN6dealii6VectorIfEaSIdEERS1_RKNS0_IT_EE(%"class.dealii::Vector.32"*, %"class.dealii::Vector"* dereferenceable(88)) #2

; Function Attrs: noinline nounwind uwtable
define linkonce_odr dso_local %"class.libparest::Slave::Stationary::GlobalMatrix::Matrix_A_Inverse.220"* @_ZNK6dealii12SmartPointerIN9libparest5Slave10Stationary12GlobalMatrix16Matrix_A_InverseIfEEEptEv(%"class.dealii::SmartPointer.219"* %this) #1 comdat align 2 !dbg !7896 {
entry:
  %this.addr = alloca %"class.dealii::SmartPointer.219"*, align 8
  store %"class.dealii::SmartPointer.219"* %this, %"class.dealii::SmartPointer.219"** %this.addr, align 8
  call void @llvm.dbg.declare(metadata %"class.dealii::SmartPointer.219"** %this.addr, metadata !7944, metadata !DIExpression()), !dbg !7946
  %this1 = load %"class.dealii::SmartPointer.219"*, %"class.dealii::SmartPointer.219"** %this.addr, align 8
  %t = getelementptr inbounds %"class.dealii::SmartPointer.219", %"class.dealii::SmartPointer.219"* %this1, i32 0, i32 0, !dbg !7947
  %0 = load %"class.libparest::Slave::Stationary::GlobalMatrix::Matrix_A_Inverse.220"*, %"class.libparest::Slave::Stationary::GlobalMatrix::Matrix_A_Inverse.220"** %t, align 8, !dbg !7947
  ret %"class.libparest::Slave::Stationary::GlobalMatrix::Matrix_A_Inverse.220"* %0, !dbg !7948
}

; Function Attrs: noinline nounwind uwtable
define linkonce_odr dso_local %"class.dealii::SparseMatrix.207"* @_ZNK6dealii12SmartPointerINS_12SparseMatrixIfEEEptEv(%"class.dealii::SmartPointer.206"* %this) #1 comdat align 2 !dbg !7949 {
entry:
  %this.addr = alloca %"class.dealii::SmartPointer.206"*, align 8
  store %"class.dealii::SmartPointer.206"* %this, %"class.dealii::SmartPointer.206"** %this.addr, align 8
  call void @llvm.dbg.declare(metadata %"class.dealii::SmartPointer.206"** %this.addr, metadata !7997, metadata !DIExpression()), !dbg !7999
  %this1 = load %"class.dealii::SmartPointer.206"*, %"class.dealii::SmartPointer.206"** %this.addr, align 8
  %t = getelementptr inbounds %"class.dealii::SmartPointer.206", %"class.dealii::SmartPointer.206"* %this1, i32 0, i32 0, !dbg !8000
  %0 = load %"class.dealii::SparseMatrix.207"*, %"class.dealii::SparseMatrix.207"** %t, align 8, !dbg !8000
  ret %"class.dealii::SparseMatrix.207"* %0, !dbg !8001
}

declare dso_local void @_ZNK6dealii12SparseMatrixIfE5vmultINS_6VectorIfEES4_EEvRT_RKT0_(%"class.dealii::SparseMatrix.207"*, %"class.dealii::Vector.32"* dereferenceable(88), %"class.dealii::Vector.32"* dereferenceable(88)) #2

declare dso_local dereferenceable(88) %"class.dealii::Vector.32"* @_ZN6dealii6VectorIfEmIERKS1_(%"class.dealii::Vector.32"*, %"class.dealii::Vector.32"* dereferenceable(88)) #2

; Function Attrs: noinline nounwind uwtable
define linkonce_odr dso_local %"class.libparest::Slave::Stationary::GlobalMatrix::C_and_CT::CT.212"* @_ZNK6dealii12SmartPointerIN9libparest5Slave10Stationary12GlobalMatrix8C_and_CT2CTINS_12SparseMatrixIfEEEEEptEv(%"class.dealii::SmartPointer.211"* %this) #1 comdat align 2 !dbg !8002 {
entry:
  %this.addr = alloca %"class.dealii::SmartPointer.211"*, align 8
  store %"class.dealii::SmartPointer.211"* %this, %"class.dealii::SmartPointer.211"** %this.addr, align 8
  call void @llvm.dbg.declare(metadata %"class.dealii::SmartPointer.211"** %this.addr, metadata !8050, metadata !DIExpression()), !dbg !8052
  %this1 = load %"class.dealii::SmartPointer.211"*, %"class.dealii::SmartPointer.211"** %this.addr, align 8
  %t = getelementptr inbounds %"class.dealii::SmartPointer.211", %"class.dealii::SmartPointer.211"* %this1, i32 0, i32 0, !dbg !8053
  %0 = load %"class.libparest::Slave::Stationary::GlobalMatrix::C_and_CT::CT.212"*, %"class.libparest::Slave::Stationary::GlobalMatrix::C_and_CT::CT.212"** %t, align 8, !dbg !8053
  ret %"class.libparest::Slave::Stationary::GlobalMatrix::C_and_CT::CT.212"* %0, !dbg !8054
}

; Function Attrs: noinline uwtable
define linkonce_odr dso_local void @_ZNK9libparest5Slave10Stationary12GlobalMatrix8C_and_CT2CTIN6dealii12SparseMatrixIfEEE5vmultINS5_6VectorIfEENSA_IdEEEEvRT0_RKT_(%"class.libparest::Slave::Stationary::GlobalMatrix::C_and_CT::CT.212"* %this, %"class.dealii::Vector"* dereferenceable(88) %dst, %"class.dealii::Vector.32"* dereferenceable(88) %src) #0 comdat align 2 !dbg !8055 {
entry:
  %this.addr = alloca %"class.libparest::Slave::Stationary::GlobalMatrix::C_and_CT::CT.212"*, align 8
  %dst.addr = alloca %"class.dealii::Vector"*, align 8
  %src.addr = alloca %"class.dealii::Vector.32"*, align 8
  store %"class.libparest::Slave::Stationary::GlobalMatrix::C_and_CT::CT.212"* %this, %"class.libparest::Slave::Stationary::GlobalMatrix::C_and_CT::CT.212"** %this.addr, align 8
  call void @llvm.dbg.declare(metadata %"class.libparest::Slave::Stationary::GlobalMatrix::C_and_CT::CT.212"** %this.addr, metadata !8063, metadata !DIExpression()), !dbg !8065
  store %"class.dealii::Vector"* %dst, %"class.dealii::Vector"** %dst.addr, align 8
  call void @llvm.dbg.declare(metadata %"class.dealii::Vector"** %dst.addr, metadata !8066, metadata !DIExpression()), !dbg !8067
  store %"class.dealii::Vector.32"* %src, %"class.dealii::Vector.32"** %src.addr, align 8
  call void @llvm.dbg.declare(metadata %"class.dealii::Vector.32"** %src.addr, metadata !8068, metadata !DIExpression()), !dbg !8069
  %this1 = load %"class.libparest::Slave::Stationary::GlobalMatrix::C_and_CT::CT.212"*, %"class.libparest::Slave::Stationary::GlobalMatrix::C_and_CT::CT.212"** %this.addr, align 8
  %0 = bitcast %"class.libparest::Slave::Stationary::GlobalMatrix::C_and_CT::CT.212"* %this1 to %"class.libparest::Slave::Stationary::GlobalMatrix::C_and_CT::Base.222"*, !dbg !8070
  %mutex = getelementptr inbounds %"class.libparest::Slave::Stationary::GlobalMatrix::C_and_CT::Base.222", %"class.libparest::Slave::Stationary::GlobalMatrix::C_and_CT::Base.222"* %0, i32 0, i32 4, !dbg !8070
  %1 = load %"class.dealii::Threads::DummyThreadMutex"*, %"class.dealii::Threads::DummyThreadMutex"** %mutex, align 8, !dbg !8070
  call void @_ZNK6dealii7Threads16DummyThreadMutex7acquireEv(%"class.dealii::Threads::DummyThreadMutex"* %1), !dbg !8071
  %2 = bitcast %"class.libparest::Slave::Stationary::GlobalMatrix::C_and_CT::CT.212"* %this1 to %"class.libparest::Slave::Stationary::GlobalMatrix::C_and_CT::Base.222"*, !dbg !8072
  %C = getelementptr inbounds %"class.libparest::Slave::Stationary::GlobalMatrix::C_and_CT::Base.222", %"class.libparest::Slave::Stationary::GlobalMatrix::C_and_CT::Base.222"* %2, i32 0, i32 1, !dbg !8072
  %call = call %"class.dealii::SparseMatrix.207"* @_ZNK6dealii12SmartPointerIKNS_12SparseMatrixIfEEEptEv(%"class.dealii::SmartPointer.223"* %C), !dbg !8073
  %3 = bitcast %"class.libparest::Slave::Stationary::GlobalMatrix::C_and_CT::CT.212"* %this1 to %"class.libparest::Slave::Stationary::GlobalMatrix::C_and_CT::Base.222"*, !dbg !8074
  %tmp = getelementptr inbounds %"class.libparest::Slave::Stationary::GlobalMatrix::C_and_CT::Base.222", %"class.libparest::Slave::Stationary::GlobalMatrix::C_and_CT::Base.222"* %3, i32 0, i32 3, !dbg !8074
  %4 = load %"class.dealii::Vector.32"*, %"class.dealii::Vector.32"** %tmp, align 8, !dbg !8074
  %5 = load %"class.dealii::Vector.32"*, %"class.dealii::Vector.32"** %src.addr, align 8, !dbg !8075
  call void @_ZNK6dealii12SparseMatrixIfE6TvmultINS_6VectorIfEES4_EEvRT_RKT0_(%"class.dealii::SparseMatrix.207"* %call, %"class.dealii::Vector.32"* dereferenceable(88) %4, %"class.dealii::Vector.32"* dereferenceable(88) %5), !dbg !8076
  %6 = bitcast %"class.libparest::Slave::Stationary::GlobalMatrix::C_and_CT::CT.212"* %this1 to %"class.libparest::Slave::Stationary::GlobalMatrix::C_and_CT::Base.222"*, !dbg !8077
  %transfer_matrix = getelementptr inbounds %"class.libparest::Slave::Stationary::GlobalMatrix::C_and_CT::Base.222", %"class.libparest::Slave::Stationary::GlobalMatrix::C_and_CT::Base.222"* %6, i32 0, i32 2, !dbg !8077
  %call2 = call %"class.dealii::SparseMatrix"* @_ZNK6dealii12SmartPointerIKNS_12SparseMatrixIdEEEptEv(%"class.dealii::SmartPointer.99"* %transfer_matrix), !dbg !8078
  %7 = load %"class.dealii::Vector"*, %"class.dealii::Vector"** %dst.addr, align 8, !dbg !8079
  %8 = bitcast %"class.libparest::Slave::Stationary::GlobalMatrix::C_and_CT::CT.212"* %this1 to %"class.libparest::Slave::Stationary::GlobalMatrix::C_and_CT::Base.222"*, !dbg !8080
  %tmp3 = getelementptr inbounds %"class.libparest::Slave::Stationary::GlobalMatrix::C_and_CT::Base.222", %"class.libparest::Slave::Stationary::GlobalMatrix::C_and_CT::Base.222"* %8, i32 0, i32 3, !dbg !8080
  %9 = load %"class.dealii::Vector.32"*, %"class.dealii::Vector.32"** %tmp3, align 8, !dbg !8080
  call void @_ZNK6dealii12SparseMatrixIdE6TvmultINS_6VectorIdEENS3_IfEEEEvRT_RKT0_(%"class.dealii::SparseMatrix"* %call2, %"class.dealii::Vector"* dereferenceable(88) %7, %"class.dealii::Vector.32"* dereferenceable(88) %9), !dbg !8081
  %10 = bitcast %"class.libparest::Slave::Stationary::GlobalMatrix::C_and_CT::CT.212"* %this1 to %"class.libparest::Slave::Stationary::GlobalMatrix::C_and_CT::Base.222"*, !dbg !8082
  %mutex4 = getelementptr inbounds %"class.libparest::Slave::Stationary::GlobalMatrix::C_and_CT::Base.222", %"class.libparest::Slave::Stationary::GlobalMatrix::C_and_CT::Base.222"* %10, i32 0, i32 4, !dbg !8082
  %11 = load %"class.dealii::Threads::DummyThreadMutex"*, %"class.dealii::Threads::DummyThreadMutex"** %mutex4, align 8, !dbg !8082
  call void @_ZNK6dealii7Threads16DummyThreadMutex7releaseEv(%"class.dealii::Threads::DummyThreadMutex"* %11), !dbg !8083
  ret void, !dbg !8084
}

; Function Attrs: nounwind
declare dso_local void @_ZN6dealii11BlockVectorIfED1Ev(%"class.dealii::BlockVector.224"*) unnamed_addr #3

; Function Attrs: noinline uwtable
define weak_odr dso_local void @_ZN9libparest5Slave10Stationary5SlaveILi3EfE16forward_backwardERKN6dealii6VectorIdEERS6_(%"class.libparest::Slave::Stationary::Slave.204"* %this, %"class.dealii::Vector"* dereferenceable(88) %test_parameter, %"class.dealii::Vector"* dereferenceable(88) %result) unnamed_addr #0 comdat align 2 personality i8* bitcast (i32 (...)* @__gxx_personality_v0 to i8*) !dbg !8085 {
entry:
  %this.addr = alloca %"class.libparest::Slave::Stationary::Slave.204"*, align 8
  %test_parameter.addr = alloca %"class.dealii::Vector"*, align 8
  %result.addr = alloca %"class.dealii::Vector"*, align 8
  %ref.tmp = alloca %"class.std::__cxx11::basic_string", align 8
  %ref.tmp2 = alloca %"class.std::allocator.19", align 1
  %exn.slot = alloca i8*
  %ehselector.slot = alloca i32
  %tmp = alloca %"class.dealii::BlockVector.224", align 8
  %ref.tmp40 = alloca %"class.std::__cxx11::basic_string", align 8
  %ref.tmp41 = alloca %"class.std::allocator.19", align 1
  store %"class.libparest::Slave::Stationary::Slave.204"* %this, %"class.libparest::Slave::Stationary::Slave.204"** %this.addr, align 8
  call void @llvm.dbg.declare(metadata %"class.libparest::Slave::Stationary::Slave.204"** %this.addr, metadata !8086, metadata !DIExpression()), !dbg !8087
  store %"class.dealii::Vector"* %test_parameter, %"class.dealii::Vector"** %test_parameter.addr, align 8
  call void @llvm.dbg.declare(metadata %"class.dealii::Vector"** %test_parameter.addr, metadata !8088, metadata !DIExpression()), !dbg !8089
  store %"class.dealii::Vector"* %result, %"class.dealii::Vector"** %result.addr, align 8
  call void @llvm.dbg.declare(metadata %"class.dealii::Vector"** %result.addr, metadata !8090, metadata !DIExpression()), !dbg !8091
  %this1 = load %"class.libparest::Slave::Stationary::Slave.204"*, %"class.libparest::Slave::Stationary::Slave.204"** %this.addr, align 8
  %0 = bitcast %"class.libparest::Slave::Stationary::Slave.204"* %this1 to %"class.libparest::Slave::Base"*, !dbg !8092
  call void @_ZNSaIcEC1Ev(%"class.std::allocator.19"* %ref.tmp2) #4, !dbg !8093
  invoke void @_ZNSt7__cxx1112basic_stringIcSt11char_traitsIcESaIcEEC1EPKcRKS3_(%"class.std::__cxx11::basic_string"* %ref.tmp, i8* getelementptr inbounds ([13 x i8], [13 x i8]* @.str.11, i64 0, i64 0), %"class.std::allocator.19"* dereferenceable(1) %ref.tmp2)
          to label %invoke.cont unwind label %lpad, !dbg !8093

invoke.cont:                                      ; preds = %entry
  invoke void @_ZNK9libparest5Slave4Base20write_program_statusERKNSt7__cxx1112basic_stringIcSt11char_traitsIcESaIcEEEb(%"class.libparest::Slave::Base"* %0, %"class.std::__cxx11::basic_string"* dereferenceable(32) %ref.tmp, i1 zeroext true)
          to label %invoke.cont4 unwind label %lpad3, !dbg !8092

invoke.cont4:                                     ; preds = %invoke.cont
  call void @_ZNSt7__cxx1112basic_stringIcSt11char_traitsIcESaIcEED1Ev(%"class.std::__cxx11::basic_string"* %ref.tmp) #4, !dbg !8092
  call void @_ZNSaIcED1Ev(%"class.std::allocator.19"* %ref.tmp2) #4, !dbg !8092
  call void @llvm.dbg.declare(metadata %"class.dealii::BlockVector.224"* %tmp, metadata !8094, metadata !DIExpression()), !dbg !8095
  %state_discretization = getelementptr inbounds %"class.libparest::Slave::Stationary::Slave.204", %"class.libparest::Slave::Stationary::Slave.204"* %this1, i32 0, i32 7, !dbg !8096
  %call = call %"class.libparest::Slave::Stationary::Discretization::Base"* @_ZNK6dealii12SmartPointerIN9libparest5Slave10Stationary14Discretization4BaseILi3EEEEptEv(%"class.dealii::SmartPointer.34"* %state_discretization), !dbg !8096
  %dof_handlers = getelementptr inbounds %"class.libparest::Slave::Stationary::Discretization::Base", %"class.libparest::Slave::Stationary::Discretization::Base"* %call, i32 0, i32 3, !dbg !8097
  %1 = load %"class.libparest::Slave::Stationary::Discretization::DoFHandlers"*, %"class.libparest::Slave::Stationary::Discretization::DoFHandlers"** %dof_handlers, align 8, !dbg !8097
  %true_block_sizes = getelementptr inbounds %"class.libparest::Slave::Stationary::Discretization::DoFHandlers", %"class.libparest::Slave::Stationary::Discretization::DoFHandlers"* %1, i32 0, i32 8, !dbg !8098
  call void @_ZN6dealii11BlockVectorIfEC1ERKSt6vectorIjSaIjEE(%"class.dealii::BlockVector.224"* %tmp, %"class.std::vector.27"* dereferenceable(24) %true_block_sizes), !dbg !8095
  %global_matrix = getelementptr inbounds %"class.libparest::Slave::Stationary::Slave.204", %"class.libparest::Slave::Stationary::Slave.204"* %this1, i32 0, i32 1, !dbg !8099
  %2 = load %"class.libparest::Slave::Stationary::GlobalMatrix::Matrix.205"*, %"class.libparest::Slave::Stationary::GlobalMatrix::Matrix.205"** %global_matrix, align 8, !dbg !8099
  %C = getelementptr inbounds %"class.libparest::Slave::Stationary::GlobalMatrix::Matrix.205", %"class.libparest::Slave::Stationary::GlobalMatrix::Matrix.205"* %2, i32 0, i32 3, !dbg !8100
  %call7 = invoke %"class.libparest::Slave::Stationary::GlobalMatrix::C_and_CT::C.210"* @_ZNK6dealii12SmartPointerIN9libparest5Slave10Stationary12GlobalMatrix8C_and_CT1CINS_12SparseMatrixIfEEEEEptEv(%"class.dealii::SmartPointer.209"* %C)
          to label %invoke.cont6 unwind label %lpad5, !dbg !8099

invoke.cont6:                                     ; preds = %invoke.cont4
  %3 = bitcast %"class.dealii::BlockVector.224"* %tmp to %"class.dealii::BlockVectorBase.225"*, !dbg !8101
  %call9 = invoke dereferenceable(88) %"class.dealii::Vector.32"* @_ZN6dealii15BlockVectorBaseINS_6VectorIfEEE5blockEj(%"class.dealii::BlockVectorBase.225"* %3, i32 0)
          to label %invoke.cont8 unwind label %lpad5, !dbg !8102

invoke.cont8:                                     ; preds = %invoke.cont6
  %4 = load %"class.dealii::Vector"*, %"class.dealii::Vector"** %test_parameter.addr, align 8, !dbg !8103
  invoke void @_ZNK9libparest5Slave10Stationary12GlobalMatrix8C_and_CT1CIN6dealii12SparseMatrixIfEEE5vmultINS5_6VectorIdEENSA_IfEEEEvRT0_RKT_(%"class.libparest::Slave::Stationary::GlobalMatrix::C_and_CT::C.210"* %call7, %"class.dealii::Vector.32"* dereferenceable(88) %call9, %"class.dealii::Vector"* dereferenceable(88) %4)
          to label %invoke.cont10 unwind label %lpad5, !dbg !8104

invoke.cont10:                                    ; preds = %invoke.cont8
  %global_matrix11 = getelementptr inbounds %"class.libparest::Slave::Stationary::Slave.204", %"class.libparest::Slave::Stationary::Slave.204"* %this1, i32 0, i32 1, !dbg !8105
  %5 = load %"class.libparest::Slave::Stationary::GlobalMatrix::Matrix.205"*, %"class.libparest::Slave::Stationary::GlobalMatrix::Matrix.205"** %global_matrix11, align 8, !dbg !8105
  %A_inverse = getelementptr inbounds %"class.libparest::Slave::Stationary::GlobalMatrix::Matrix.205", %"class.libparest::Slave::Stationary::GlobalMatrix::Matrix.205"* %5, i32 0, i32 6, !dbg !8106
  %call13 = invoke %"class.libparest::Slave::Stationary::GlobalMatrix::Matrix_A_Inverse.220"* @_ZNK6dealii12SmartPointerIN9libparest5Slave10Stationary12GlobalMatrix16Matrix_A_InverseIfEEEptEv(%"class.dealii::SmartPointer.219"* %A_inverse)
          to label %invoke.cont12 unwind label %lpad5, !dbg !8105

invoke.cont12:                                    ; preds = %invoke.cont10
  %6 = bitcast %"class.dealii::BlockVector.224"* %tmp to %"class.dealii::BlockVectorBase.225"*, !dbg !8107
  %call15 = invoke dereferenceable(88) %"class.dealii::Vector.32"* @_ZN6dealii15BlockVectorBaseINS_6VectorIfEEE5blockEj(%"class.dealii::BlockVectorBase.225"* %6, i32 0)
          to label %invoke.cont14 unwind label %lpad5, !dbg !8108

invoke.cont14:                                    ; preds = %invoke.cont12
  %7 = bitcast %"class.libparest::Slave::Stationary::GlobalMatrix::Matrix_A_Inverse.220"* %call13 to void (%"class.libparest::Slave::Stationary::GlobalMatrix::Matrix_A_Inverse.220"*, %"class.dealii::Vector.32"*)***, !dbg !8109
  %vtable = load void (%"class.libparest::Slave::Stationary::GlobalMatrix::Matrix_A_Inverse.220"*, %"class.dealii::Vector.32"*)**, void (%"class.libparest::Slave::Stationary::GlobalMatrix::Matrix_A_Inverse.220"*, %"class.dealii::Vector.32"*)*** %7, align 8, !dbg !8109
  %vfn = getelementptr inbounds void (%"class.libparest::Slave::Stationary::GlobalMatrix::Matrix_A_Inverse.220"*, %"class.dealii::Vector.32"*)*, void (%"class.libparest::Slave::Stationary::GlobalMatrix::Matrix_A_Inverse.220"*, %"class.dealii::Vector.32"*)** %vtable, i64 3, !dbg !8109
  %8 = load void (%"class.libparest::Slave::Stationary::GlobalMatrix::Matrix_A_Inverse.220"*, %"class.dealii::Vector.32"*)*, void (%"class.libparest::Slave::Stationary::GlobalMatrix::Matrix_A_Inverse.220"*, %"class.dealii::Vector.32"*)** %vfn, align 8, !dbg !8109
  invoke void %8(%"class.libparest::Slave::Stationary::GlobalMatrix::Matrix_A_Inverse.220"* %call13, %"class.dealii::Vector.32"* dereferenceable(88) %call15)
          to label %invoke.cont16 unwind label %lpad5, !dbg !8109

invoke.cont16:                                    ; preds = %invoke.cont14
  %global_matrix17 = getelementptr inbounds %"class.libparest::Slave::Stationary::Slave.204", %"class.libparest::Slave::Stationary::Slave.204"* %this1, i32 0, i32 1, !dbg !8110
  %9 = load %"class.libparest::Slave::Stationary::GlobalMatrix::Matrix.205"*, %"class.libparest::Slave::Stationary::GlobalMatrix::Matrix.205"** %global_matrix17, align 8, !dbg !8110
  %M = getelementptr inbounds %"class.libparest::Slave::Stationary::GlobalMatrix::Matrix.205", %"class.libparest::Slave::Stationary::GlobalMatrix::Matrix.205"* %9, i32 0, i32 2, !dbg !8111
  %call19 = invoke %"class.dealii::SparseMatrix.207"* @_ZNK6dealii12SmartPointerINS_12SparseMatrixIfEEEptEv(%"class.dealii::SmartPointer.206"* %M)
          to label %invoke.cont18 unwind label %lpad5, !dbg !8110

invoke.cont18:                                    ; preds = %invoke.cont16
  %10 = bitcast %"class.dealii::BlockVector.224"* %tmp to %"class.dealii::BlockVectorBase.225"*, !dbg !8112
  %call21 = invoke dereferenceable(88) %"class.dealii::Vector.32"* @_ZN6dealii15BlockVectorBaseINS_6VectorIfEEE5blockEj(%"class.dealii::BlockVectorBase.225"* %10, i32 1)
          to label %invoke.cont20 unwind label %lpad5, !dbg !8113

invoke.cont20:                                    ; preds = %invoke.cont18
  %11 = bitcast %"class.dealii::BlockVector.224"* %tmp to %"class.dealii::BlockVectorBase.225"*, !dbg !8114
  %call23 = invoke dereferenceable(88) %"class.dealii::Vector.32"* @_ZN6dealii15BlockVectorBaseINS_6VectorIfEEE5blockEj(%"class.dealii::BlockVectorBase.225"* %11, i32 0)
          to label %invoke.cont22 unwind label %lpad5, !dbg !8115

invoke.cont22:                                    ; preds = %invoke.cont20
