; ModuleID = 'source/dofs/dof_objects.cc'
source_filename = "source/dofs/dof_objects.cc"
target datalayout = "e-m:e-p270:32:32-p271:32:32-p272:64:64-i64:64-f80:128-n8:16:32:64-S128"
target triple = "x86_64-unknown-linux-gnu"

%"struct.boost::arg" = type { i8 }
%"struct.boost::arg.0" = type { i8 }
%"struct.boost::arg.2" = type { i8 }
%"struct.boost::arg.4" = type { i8 }
%"struct.boost::arg.6" = type { i8 }
%"struct.boost::arg.8" = type { i8 }
%"struct.boost::arg.10" = type { i8 }
%"struct.boost::arg.12" = type { i8 }
%"struct.boost::arg.14" = type { i8 }
%"class.std::ios_base::Init" = type { i8 }
%"class.dealii::internal::DoFHandler::DoFObjects" = type { %"class.std::vector" }
%"class.std::vector" = type { %"struct.std::_Vector_base" }
%"struct.std::_Vector_base" = type { %"struct.std::_Vector_base<unsigned int, std::allocator<unsigned int> >::_Vector_impl" }
%"struct.std::_Vector_base<unsigned int, std::allocator<unsigned int> >::_Vector_impl" = type { %"struct.std::_Vector_base<unsigned int, std::allocator<unsigned int> >::_Vector_impl_data" }
%"struct.std::_Vector_base<unsigned int, std::allocator<unsigned int> >::_Vector_impl_data" = type { i32*, i32*, i32* }
%"class.dealii::DoFHandler" = type { %"class.dealii::Subscriptor", %"class.dealii::SmartPointer", %"class.dealii::SmartPointer.39", %"class.std::vector.80", %"class.dealii::internal::DoFHandler::DoFFaces"*, i32, %"class.std::vector" }
%"class.dealii::Subscriptor" = type { i32 (...)**, i32, %"class.std::map", %"class.std::type_info"* }
%"class.std::map" = type { %"class.std::_Rb_tree" }
%"class.std::_Rb_tree" = type { %"struct.std::_Rb_tree<const char *, std::pair<const char *const, unsigned int>, std::_Select1st<std::pair<const char *const, unsigned int> >, std::less<const char *>, std::allocator<std::pair<const char *const, unsigned int> > >::_Rb_tree_impl" }
%"struct.std::_Rb_tree<const char *, std::pair<const char *const, unsigned int>, std::_Select1st<std::pair<const char *const, unsigned int> >, std::less<const char *>, std::allocator<std::pair<const char *const, unsigned int> > >::_Rb_tree_impl" = type { %"struct.std::_Rb_tree_key_compare", %"struct.std::_Rb_tree_header" }
%"struct.std::_Rb_tree_key_compare" = type { %"struct.std::less" }
%"struct.std::less" = type { i8 }
%"struct.std::_Rb_tree_header" = type { %"struct.std::_Rb_tree_node_base", i64 }
%"struct.std::_Rb_tree_node_base" = type { i32, %"struct.std::_Rb_tree_node_base"*, %"struct.std::_Rb_tree_node_base"*, %"struct.std::_Rb_tree_node_base"* }
%"class.std::type_info" = type { i32 (...)**, i8* }
%"class.dealii::SmartPointer" = type { %"class.dealii::Triangulation"*, i8* }
%"class.dealii::Triangulation" = type { %"class.dealii::Subscriptor", %"class.std::vector.19", %"class.dealii::internal::Triangulation::TriaFaces"*, %"class.std::vector.24", %"class.std::vector.29", [255 x %"class.dealii::SmartPointer.33"], [255 x %"class.dealii::SmartPointer.33"], i8, i32, %"struct.dealii::internal::Triangulation::NumberCache", %"class.std::__cxx11::list" }
%"class.std::vector.19" = type { %"struct.std::_Vector_base.20" }
%"struct.std::_Vector_base.20" = type { %"struct.std::_Vector_base<dealii::internal::Triangulation::TriaLevel<3> *, std::allocator<dealii::internal::Triangulation::TriaLevel<3> *> >::_Vector_impl" }
%"struct.std::_Vector_base<dealii::internal::Triangulation::TriaLevel<3> *, std::allocator<dealii::internal::Triangulation::TriaLevel<3> *> >::_Vector_impl" = type { %"struct.std::_Vector_base<dealii::internal::Triangulation::TriaLevel<3> *, std::allocator<dealii::internal::Triangulation::TriaLevel<3> *> >::_Vector_impl_data" }
%"struct.std::_Vector_base<dealii::internal::Triangulation::TriaLevel<3> *, std::allocator<dealii::internal::Triangulation::TriaLevel<3> *> >::_Vector_impl_data" = type { %"class.dealii::internal::Triangulation::TriaLevel"**, %"class.dealii::internal::Triangulation::TriaLevel"**, %"class.dealii::internal::Triangulation::TriaLevel"** }
%"class.dealii::internal::Triangulation::TriaLevel" = type opaque
%"class.dealii::internal::Triangulation::TriaFaces" = type opaque
%"class.std::vector.24" = type { %"struct.std::_Vector_base.25" }
%"struct.std::_Vector_base.25" = type { %"struct.std::_Vector_base<dealii::Point<3>, std::allocator<dealii::Point<3> > >::_Vector_impl" }
%"struct.std::_Vector_base<dealii::Point<3>, std::allocator<dealii::Point<3> > >::_Vector_impl" = type { %"struct.std::_Vector_base<dealii::Point<3>, std::allocator<dealii::Point<3> > >::_Vector_impl_data" }
%"struct.std::_Vector_base<dealii::Point<3>, std::allocator<dealii::Point<3> > >::_Vector_impl_data" = type { %"class.dealii::Point"*, %"class.dealii::Point"*, %"class.dealii::Point"* }
%"class.dealii::Point" = type { %"class.dealii::Tensor" }
%"class.dealii::Tensor" = type { [3 x double] }
%"class.std::vector.29" = type { %"struct.std::_Bvector_base" }
%"struct.std::_Bvector_base" = type { %"struct.std::_Bvector_base<std::allocator<bool> >::_Bvector_impl" }
%"struct.std::_Bvector_base<std::allocator<bool> >::_Bvector_impl" = type { %"struct.std::_Bvector_base<std::allocator<bool> >::_Bvector_impl_data" }
%"struct.std::_Bvector_base<std::allocator<bool> >::_Bvector_impl_data" = type { %"struct.std::_Bit_iterator", %"struct.std::_Bit_iterator", i64* }
%"struct.std::_Bit_iterator" = type { %"struct.std::_Bit_iterator_base.base", [4 x i8] }
%"struct.std::_Bit_iterator_base.base" = type <{ i64*, i32 }>
%"class.dealii::SmartPointer.33" = type { %"class.dealii::Boundary"*, i8* }
%"class.dealii::Boundary" = type opaque
%"struct.dealii::internal::Triangulation::NumberCache" = type { %"struct.dealii::internal::Triangulation::NumberCache.34", i32, %"class.std::vector", i32, %"class.std::vector" }
%"struct.dealii::internal::Triangulation::NumberCache.34" = type { %"struct.dealii::internal::Triangulation::NumberCache.35", i32, %"class.std::vector", i32, %"class.std::vector" }
%"struct.dealii::internal::Triangulation::NumberCache.35" = type { i32, %"class.std::vector", i32, %"class.std::vector" }
%"class.std::__cxx11::list" = type { %"class.std::__cxx11::_List_base" }
%"class.std::__cxx11::_List_base" = type { %"struct.std::__cxx11::_List_base<dealii::Triangulation<3, 3>::RefinementListener *, std::allocator<dealii::Triangulation<3, 3>::RefinementListener *> >::_List_impl" }
%"struct.std::__cxx11::_List_base<dealii::Triangulation<3, 3>::RefinementListener *, std::allocator<dealii::Triangulation<3, 3>::RefinementListener *> >::_List_impl" = type { %"struct.std::__detail::_List_node_header" }
%"struct.std::__detail::_List_node_header" = type { %"struct.std::__detail::_List_node_base", i64 }
%"struct.std::__detail::_List_node_base" = type { %"struct.std::__detail::_List_node_base"*, %"struct.std::__detail::_List_node_base"* }
%"class.dealii::SmartPointer.39" = type { %"class.dealii::FiniteElement"*, i8* }
%"class.dealii::FiniteElement" = type { %"class.dealii::Subscriptor", %"class.dealii::FiniteElementData", i8, %"class.std::vector.40", %"class.std::vector.40", %"class.dealii::FullMatrix", %"class.std::vector.24", %"class.std::vector.46", %"class.std::vector.24", %"class.std::vector.46", %"class.dealii::Table.53", %"class.std::vector.57", %"class.std::vector.62", %"class.std::vector.62", %"class.std::vector.67", %"class.std::vector.67", %"class.std::vector", %"class.std::vector.67", %"class.std::vector.29", %"class.std::vector.75", %"class.std::vector" }
%"class.dealii::FiniteElementData" = type { i32, i32, i32, i32, i32, i32, i32, i32, i32, i32, i32, i32, i32, i32, i32 }
%"class.std::vector.40" = type { %"struct.std::_Vector_base.41" }
%"struct.std::_Vector_base.41" = type { %"struct.std::_Vector_base<std::vector<dealii::FullMatrix<double>, std::allocator<dealii::FullMatrix<double> > >, std::allocator<std::vector<dealii::FullMatrix<double>, std::allocator<dealii::FullMatrix<double> > > > >::_Vector_impl" }
%"struct.std::_Vector_base<std::vector<dealii::FullMatrix<double>, std::allocator<dealii::FullMatrix<double> > >, std::allocator<std::vector<dealii::FullMatrix<double>, std::allocator<dealii::FullMatrix<double> > > > >::_Vector_impl" = type { %"struct.std::_Vector_base<std::vector<dealii::FullMatrix<double>, std::allocator<dealii::FullMatrix<double> > >, std::allocator<std::vector<dealii::FullMatrix<double>, std::allocator<dealii::FullMatrix<double> > > > >::_Vector_impl_data" }
%"struct.std::_Vector_base<std::vector<dealii::FullMatrix<double>, std::allocator<dealii::FullMatrix<double> > >, std::allocator<std::vector<dealii::FullMatrix<double>, std::allocator<dealii::FullMatrix<double> > > > >::_Vector_impl_data" = type { %"class.std::vector.45"*, %"class.std::vector.45"*, %"class.std::vector.45"* }
%"class.std::vector.45" = type opaque
%"class.dealii::FullMatrix" = type { %"class.dealii::Table.base", [4 x i8] }
%"class.dealii::Table.base" = type { %"class.dealii::TableBase.base" }
%"class.dealii::TableBase.base" = type <{ %"class.dealii::Subscriptor", double*, i32, %"class.dealii::TableIndices" }>
%"class.dealii::TableIndices" = type { %"class.dealii::TableIndicesBase" }
%"class.dealii::TableIndicesBase" = type { [2 x i32] }
%"class.std::vector.46" = type { %"struct.std::_Vector_base.47" }
%"struct.std::_Vector_base.47" = type { %"struct.std::_Vector_base<dealii::Point<2>, std::allocator<dealii::Point<2> > >::_Vector_impl" }
%"struct.std::_Vector_base<dealii::Point<2>, std::allocator<dealii::Point<2> > >::_Vector_impl" = type { %"struct.std::_Vector_base<dealii::Point<2>, std::allocator<dealii::Point<2> > >::_Vector_impl_data" }
%"struct.std::_Vector_base<dealii::Point<2>, std::allocator<dealii::Point<2> > >::_Vector_impl_data" = type { %"class.dealii::Point.51"*, %"class.dealii::Point.51"*, %"class.dealii::Point.51"* }
%"class.dealii::Point.51" = type { %"class.dealii::Tensor.52" }
%"class.dealii::Tensor.52" = type { [2 x double] }
%"class.dealii::Table.53" = type { %"class.dealii::TableBase.base.55", [4 x i8] }
%"class.dealii::TableBase.base.55" = type <{ %"class.dealii::Subscriptor", i32*, i32, %"class.dealii::TableIndices" }>
%"class.std::vector.57" = type { %"struct.std::_Vector_base.58" }
%"struct.std::_Vector_base.58" = type { %"struct.std::_Vector_base<int, std::allocator<int> >::_Vector_impl" }
%"struct.std::_Vector_base<int, std::allocator<int> >::_Vector_impl" = type { %"struct.std::_Vector_base<int, std::allocator<int> >::_Vector_impl_data" }
%"struct.std::_Vector_base<int, std::allocator<int> >::_Vector_impl_data" = type { i32*, i32*, i32* }
%"class.std::vector.62" = type { %"struct.std::_Vector_base.63" }
%"struct.std::_Vector_base.63" = type { %"struct.std::_Vector_base<std::pair<unsigned int, unsigned int>, std::allocator<std::pair<unsigned int, unsigned int> > >::_Vector_impl" }
%"struct.std::_Vector_base<std::pair<unsigned int, unsigned int>, std::allocator<std::pair<unsigned int, unsigned int> > >::_Vector_impl" = type { %"struct.std::_Vector_base<std::pair<unsigned int, unsigned int>, std::allocator<std::pair<unsigned int, unsigned int> > >::_Vector_impl_data" }
%"struct.std::_Vector_base<std::pair<unsigned int, unsigned int>, std::allocator<std::pair<unsigned int, unsigned int> > >::_Vector_impl_data" = type { %"struct.std::pair"*, %"struct.std::pair"*, %"struct.std::pair"* }
%"struct.std::pair" = type { i32, i32 }
%"class.std::vector.67" = type { %"struct.std::_Vector_base.68" }
%"struct.std::_Vector_base.68" = type { %"struct.std::_Vector_base<std::pair<std::pair<unsigned int, unsigned int>, unsigned int>, std::allocator<std::pair<std::pair<unsigned int, unsigned int>, unsigned int> > >::_Vector_impl" }
%"struct.std::_Vector_base<std::pair<std::pair<unsigned int, unsigned int>, unsigned int>, std::allocator<std::pair<std::pair<unsigned int, unsigned int>, unsigned int> > >::_Vector_impl" = type { %"struct.std::_Vector_base<std::pair<std::pair<unsigned int, unsigned int>, unsigned int>, std::allocator<std::pair<std::pair<unsigned int, unsigned int>, unsigned int> > >::_Vector_impl_data" }
%"struct.std::_Vector_base<std::pair<std::pair<unsigned int, unsigned int>, unsigned int>, std::allocator<std::pair<std::pair<unsigned int, unsigned int>, unsigned int> > >::_Vector_impl_data" = type { %"struct.std::pair.72"*, %"struct.std::pair.72"*, %"struct.std::pair.72"* }
%"struct.std::pair.72" = type { %"struct.std::pair", i32 }
%"class.std::vector.75" = type { %"struct.std::_Vector_base.76" }
%"struct.std::_Vector_base.76" = type { %"struct.std::_Vector_base<std::vector<bool, std::allocator<bool> >, std::allocator<std::vector<bool, std::allocator<bool> > > >::_Vector_impl" }
%"struct.std::_Vector_base<std::vector<bool, std::allocator<bool> >, std::allocator<std::vector<bool, std::allocator<bool> > > >::_Vector_impl" = type { %"struct.std::_Vector_base<std::vector<bool, std::allocator<bool> >, std::allocator<std::vector<bool, std::allocator<bool> > > >::_Vector_impl_data" }
%"struct.std::_Vector_base<std::vector<bool, std::allocator<bool> >, std::allocator<std::vector<bool, std::allocator<bool> > > >::_Vector_impl_data" = type { %"class.std::vector.29"*, %"class.std::vector.29"*, %"class.std::vector.29"* }
%"class.std::vector.80" = type { %"struct.std::_Vector_base.81" }
%"struct.std::_Vector_base.81" = type { %"struct.std::_Vector_base<dealii::internal::DoFHandler::DoFLevel<3> *, std::allocator<dealii::internal::DoFHandler::DoFLevel<3> *> >::_Vector_impl" }
%"struct.std::_Vector_base<dealii::internal::DoFHandler::DoFLevel<3> *, std::allocator<dealii::internal::DoFHandler::DoFLevel<3> *> >::_Vector_impl" = type { %"struct.std::_Vector_base<dealii::internal::DoFHandler::DoFLevel<3> *, std::allocator<dealii::internal::DoFHandler::DoFLevel<3> *> >::_Vector_impl_data" }
%"struct.std::_Vector_base<dealii::internal::DoFHandler::DoFLevel<3> *, std::allocator<dealii::internal::DoFHandler::DoFLevel<3> *> >::_Vector_impl_data" = type { %"class.dealii::internal::DoFHandler::DoFLevel"**, %"class.dealii::internal::DoFHandler::DoFLevel"**, %"class.dealii::internal::DoFHandler::DoFLevel"** }
%"class.dealii::internal::DoFHandler::DoFLevel" = type opaque
%"class.dealii::internal::DoFHandler::DoFFaces" = type opaque
%"class.dealii::internal::DoFHandler::DoFObjects.85" = type { %"class.std::vector" }
%"class.dealii::internal::DoFHandler::DoFObjects.86" = type { %"class.std::vector" }

$_ZN5boost3argILi1EEC2Ev = comdat any

$_ZN5boost3argILi2EEC2Ev = comdat any

$_ZN5boost3argILi3EEC2Ev = comdat any

$_ZN5boost3argILi4EEC2Ev = comdat any

$_ZN5boost3argILi5EEC2Ev = comdat any

$_ZN5boost3argILi6EEC2Ev = comdat any

$_ZN5boost3argILi7EEC2Ev = comdat any

$_ZN5boost3argILi8EEC2Ev = comdat any

$_ZN5boost3argILi9EEC2Ev = comdat any

$_ZNK6dealii8internal10DoFHandler10DoFObjectsILi1EE13get_dof_indexILi3ELi3EEEjRKNS_10DoFHandlerIXT_EXT0_EEEjjj = comdat any

$_ZNKSt6vectorIjSaIjEEixEm = comdat any

$_ZNK6dealii10DoFHandlerILi3ELi3EE6get_feEv = comdat any

$_ZNK6dealii17FiniteElementDataILi3EE17n_dofs_per_objectILi1EEEjv = comdat any

$_ZN6dealii8internal10DoFHandler10DoFObjectsILi1EE13set_dof_indexILi3ELi3EEEvRKNS_10DoFHandlerIXT_EXT0_EEEjjjj = comdat any

$_ZNSt6vectorIjSaIjEEixEm = comdat any

$_ZNK6dealii8internal10DoFHandler10DoFObjectsILi2EE13get_dof_indexILi3ELi3EEEjRKNS_10DoFHandlerIXT_EXT0_EEEjjj = comdat any

$_ZNK6dealii17FiniteElementDataILi3EE17n_dofs_per_objectILi2EEEjv = comdat any

$_ZN6dealii8internal10DoFHandler10DoFObjectsILi2EE13set_dof_indexILi3ELi3EEEvRKNS_10DoFHandlerIXT_EXT0_EEEjjjj = comdat any

$_ZNK6dealii8internal10DoFHandler10DoFObjectsILi3EE13get_dof_indexILi3ELi3EEEjRKNS_10DoFHandlerIXT_EXT0_EEEjjj = comdat any

$_ZNK6dealii17FiniteElementDataILi3EE17n_dofs_per_objectILi3EEEjv = comdat any

$_ZN6dealii8internal10DoFHandler10DoFObjectsILi3EE13set_dof_indexILi3ELi3EEEvRKNS_10DoFHandlerIXT_EXT0_EEEjjjj = comdat any

$_ZNK6dealii12SmartPointerIKNS_13FiniteElementILi3ELi3EEEEdeEv = comdat any

@_ZN12_GLOBAL__N_12_1E = internal global %"struct.boost::arg" zeroinitializer, align 1, !dbg !0
@_ZN12_GLOBAL__N_12_2E = internal global %"struct.boost::arg.0" zeroinitializer, align 1, !dbg !15
@_ZN12_GLOBAL__N_12_3E = internal global %"struct.boost::arg.2" zeroinitializer, align 1, !dbg !25
@_ZN12_GLOBAL__N_12_4E = internal global %"struct.boost::arg.4" zeroinitializer, align 1, !dbg !35
@_ZN12_GLOBAL__N_12_5E = internal global %"struct.boost::arg.6" zeroinitializer, align 1, !dbg !45
@_ZN12_GLOBAL__N_12_6E = internal global %"struct.boost::arg.8" zeroinitializer, align 1, !dbg !55
@_ZN12_GLOBAL__N_12_7E = internal global %"struct.boost::arg.10" zeroinitializer, align 1, !dbg !65
@_ZN12_GLOBAL__N_12_8E = internal global %"struct.boost::arg.12" zeroinitializer, align 1, !dbg !75
@_ZN12_GLOBAL__N_12_9E = internal global %"struct.boost::arg.14" zeroinitializer, align 1, !dbg !85
@_ZStL8__ioinit = internal global %"class.std::ios_base::Init" zeroinitializer, align 1, !dbg !95
@__dso_handle = external hidden global i8
@llvm.global_ctors = appending global [1 x { i32, void ()*, i8* }] [{ i32, void ()*, i8* } { i32 65535, void ()* @_GLOBAL__sub_I_dof_objects.cc, i8* null }]

; Function Attrs: noinline uwtable
define internal void @__cxx_global_var_init() #0 section ".text.startup" !dbg !2124 {
entry:
  call void @_ZN5boost3argILi1EEC2Ev(%"struct.boost::arg"* @_ZN12_GLOBAL__N_12_1E), !dbg !2125
  ret void, !dbg !2125
}

; Function Attrs: noinline nounwind uwtable
define linkonce_odr dso_local void @_ZN5boost3argILi1EEC2Ev(%"struct.boost::arg"* %this) unnamed_addr #1 comdat align 2 !dbg !2126 {
entry:
  %this.addr = alloca %"struct.boost::arg"*, align 8
  store %"struct.boost::arg"* %this, %"struct.boost::arg"** %this.addr, align 8
  call void @llvm.dbg.declare(metadata %"struct.boost::arg"** %this.addr, metadata !2127, metadata !DIExpression()), !dbg !2129
  %this1 = load %"struct.boost::arg"*, %"struct.boost::arg"** %this.addr, align 8
  ret void, !dbg !2130
}

; Function Attrs: noinline uwtable
define internal void @__cxx_global_var_init.1() #0 section ".text.startup" !dbg !2131 {
entry:
  call void @_ZN5boost3argILi2EEC2Ev(%"struct.boost::arg.0"* @_ZN12_GLOBAL__N_12_2E), !dbg !2132
  ret void, !dbg !2132
}

; Function Attrs: noinline nounwind uwtable
define linkonce_odr dso_local void @_ZN5boost3argILi2EEC2Ev(%"struct.boost::arg.0"* %this) unnamed_addr #1 comdat align 2 !dbg !2133 {
entry:
  %this.addr = alloca %"struct.boost::arg.0"*, align 8
  store %"struct.boost::arg.0"* %this, %"struct.boost::arg.0"** %this.addr, align 8
  call void @llvm.dbg.declare(metadata %"struct.boost::arg.0"** %this.addr, metadata !2134, metadata !DIExpression()), !dbg !2136
  %this1 = load %"struct.boost::arg.0"*, %"struct.boost::arg.0"** %this.addr, align 8
  ret void, !dbg !2137
}

; Function Attrs: noinline uwtable
define internal void @__cxx_global_var_init.2() #0 section ".text.startup" !dbg !2138 {
entry:
  call void @_ZN5boost3argILi3EEC2Ev(%"struct.boost::arg.2"* @_ZN12_GLOBAL__N_12_3E), !dbg !2139
  ret void, !dbg !2139
}

; Function Attrs: noinline nounwind uwtable
define linkonce_odr dso_local void @_ZN5boost3argILi3EEC2Ev(%"struct.boost::arg.2"* %this) unnamed_addr #1 comdat align 2 !dbg !2140 {
entry:
  %this.addr = alloca %"struct.boost::arg.2"*, align 8
  store %"struct.boost::arg.2"* %this, %"struct.boost::arg.2"** %this.addr, align 8
  call void @llvm.dbg.declare(metadata %"struct.boost::arg.2"** %this.addr, metadata !2141, metadata !DIExpression()), !dbg !2143
  %this1 = load %"struct.boost::arg.2"*, %"struct.boost::arg.2"** %this.addr, align 8
  ret void, !dbg !2144
}

; Function Attrs: noinline uwtable
define internal void @__cxx_global_var_init.3() #0 section ".text.startup" !dbg !2145 {
entry:
  call void @_ZN5boost3argILi4EEC2Ev(%"struct.boost::arg.4"* @_ZN12_GLOBAL__N_12_4E), !dbg !2146
  ret void, !dbg !2146
}

; Function Attrs: noinline nounwind uwtable
define linkonce_odr dso_local void @_ZN5boost3argILi4EEC2Ev(%"struct.boost::arg.4"* %this) unnamed_addr #1 comdat align 2 !dbg !2147 {
entry:
  %this.addr = alloca %"struct.boost::arg.4"*, align 8
  store %"struct.boost::arg.4"* %this, %"struct.boost::arg.4"** %this.addr, align 8
  call void @llvm.dbg.declare(metadata %"struct.boost::arg.4"** %this.addr, metadata !2148, metadata !DIExpression()), !dbg !2150
  %this1 = load %"struct.boost::arg.4"*, %"struct.boost::arg.4"** %this.addr, align 8
  ret void, !dbg !2151
}

; Function Attrs: noinline uwtable
define internal void @__cxx_global_var_init.4() #0 section ".text.startup" !dbg !2152 {
entry:
  call void @_ZN5boost3argILi5EEC2Ev(%"struct.boost::arg.6"* @_ZN12_GLOBAL__N_12_5E), !dbg !2153
  ret void, !dbg !2153
}

; Function Attrs: noinline nounwind uwtable
define linkonce_odr dso_local void @_ZN5boost3argILi5EEC2Ev(%"struct.boost::arg.6"* %this) unnamed_addr #1 comdat align 2 !dbg !2154 {
entry:
  %this.addr = alloca %"struct.boost::arg.6"*, align 8
  store %"struct.boost::arg.6"* %this, %"struct.boost::arg.6"** %this.addr, align 8
  call void @llvm.dbg.declare(metadata %"struct.boost::arg.6"** %this.addr, metadata !2155, metadata !DIExpression()), !dbg !2157
  %this1 = load %"struct.boost::arg.6"*, %"struct.boost::arg.6"** %this.addr, align 8
  ret void, !dbg !2158
}

; Function Attrs: noinline uwtable
define internal void @__cxx_global_var_init.5() #0 section ".text.startup" !dbg !2159 {
entry:
  call void @_ZN5boost3argILi6EEC2Ev(%"struct.boost::arg.8"* @_ZN12_GLOBAL__N_12_6E), !dbg !2160
  ret void, !dbg !2160
}

; Function Attrs: noinline nounwind uwtable
define linkonce_odr dso_local void @_ZN5boost3argILi6EEC2Ev(%"struct.boost::arg.8"* %this) unnamed_addr #1 comdat align 2 !dbg !2161 {
entry:
  %this.addr = alloca %"struct.boost::arg.8"*, align 8
  store %"struct.boost::arg.8"* %this, %"struct.boost::arg.8"** %this.addr, align 8
  call void @llvm.dbg.declare(metadata %"struct.boost::arg.8"** %this.addr, metadata !2162, metadata !DIExpression()), !dbg !2164
  %this1 = load %"struct.boost::arg.8"*, %"struct.boost::arg.8"** %this.addr, align 8
  ret void, !dbg !2165
}

; Function Attrs: noinline uwtable
define internal void @__cxx_global_var_init.6() #0 section ".text.startup" !dbg !2166 {
entry:
  call void @_ZN5boost3argILi7EEC2Ev(%"struct.boost::arg.10"* @_ZN12_GLOBAL__N_12_7E), !dbg !2167
  ret void, !dbg !2167
}

; Function Attrs: noinline nounwind uwtable
define linkonce_odr dso_local void @_ZN5boost3argILi7EEC2Ev(%"struct.boost::arg.10"* %this) unnamed_addr #1 comdat align 2 !dbg !2168 {
entry:
  %this.addr = alloca %"struct.boost::arg.10"*, align 8
  store %"struct.boost::arg.10"* %this, %"struct.boost::arg.10"** %this.addr, align 8
  call void @llvm.dbg.declare(metadata %"struct.boost::arg.10"** %this.addr, metadata !2169, metadata !DIExpression()), !dbg !2171
  %this1 = load %"struct.boost::arg.10"*, %"struct.boost::arg.10"** %this.addr, align 8
  ret void, !dbg !2172
}

; Function Attrs: noinline uwtable
define internal void @__cxx_global_var_init.7() #0 section ".text.startup" !dbg !2173 {
entry:
  call void @_ZN5boost3argILi8EEC2Ev(%"struct.boost::arg.12"* @_ZN12_GLOBAL__N_12_8E), !dbg !2174
  ret void, !dbg !2174
}

; Function Attrs: noinline nounwind uwtable
define linkonce_odr dso_local void @_ZN5boost3argILi8EEC2Ev(%"struct.boost::arg.12"* %this) unnamed_addr #1 comdat align 2 !dbg !2175 {
entry:
  %this.addr = alloca %"struct.boost::arg.12"*, align 8
  store %"struct.boost::arg.12"* %this, %"struct.boost::arg.12"** %this.addr, align 8
  call void @llvm.dbg.declare(metadata %"struct.boost::arg.12"** %this.addr, metadata !2176, metadata !DIExpression()), !dbg !2178
  %this1 = load %"struct.boost::arg.12"*, %"struct.boost::arg.12"** %this.addr, align 8
  ret void, !dbg !2179
}

; Function Attrs: noinline uwtable
define internal void @__cxx_global_var_init.8() #0 section ".text.startup" !dbg !2180 {
entry:
  call void @_ZN5boost3argILi9EEC2Ev(%"struct.boost::arg.14"* @_ZN12_GLOBAL__N_12_9E), !dbg !2181
  ret void, !dbg !2181
}

; Function Attrs: noinline nounwind uwtable
define linkonce_odr dso_local void @_ZN5boost3argILi9EEC2Ev(%"struct.boost::arg.14"* %this) unnamed_addr #1 comdat align 2 !dbg !2182 {
entry:
  %this.addr = alloca %"struct.boost::arg.14"*, align 8
  store %"struct.boost::arg.14"* %this, %"struct.boost::arg.14"** %this.addr, align 8
  call void @llvm.dbg.declare(metadata %"struct.boost::arg.14"** %this.addr, metadata !2183, metadata !DIExpression()), !dbg !2185
  %this1 = load %"struct.boost::arg.14"*, %"struct.boost::arg.14"** %this.addr, align 8
  ret void, !dbg !2186
}

; Function Attrs: noinline uwtable
define internal void @__cxx_global_var_init.9() #0 section ".text.startup" !dbg !2187 {
entry:
  call void @_ZNSt8ios_base4InitC1Ev(%"class.std::ios_base::Init"* @_ZStL8__ioinit), !dbg !2188
  %0 = call i32 @__cxa_atexit(void (i8*)* bitcast (void (%"class.std::ios_base::Init"*)* @_ZNSt8ios_base4InitD1Ev to void (i8*)*), i8* getelementptr inbounds (%"class.std::ios_base::Init", %"class.std::ios_base::Init"* @_ZStL8__ioinit, i32 0, i32 0), i8* @__dso_handle) #4, !dbg !2188
  ret void, !dbg !2188
}

declare dso_local void @_ZNSt8ios_base4InitC1Ev(%"class.std::ios_base::Init"*) unnamed_addr #2

; Function Attrs: nounwind
declare dso_local void @_ZNSt8ios_base4InitD1Ev(%"class.std::ios_base::Init"*) unnamed_addr #3

; Function Attrs: nounwind
declare dso_local i32 @__cxa_atexit(void (i8*)*, i8*, i8*) #4

; Function Attrs: noinline uwtable
define weak_odr dso_local i32 @_ZNK6dealii8internal10DoFHandler10DoFObjectsILi1EE13get_dof_indexILi3ELi3EEEjRKNS_10DoFHandlerIXT_EXT0_EEEjjj(%"class.dealii::internal::DoFHandler::DoFObjects"* %this, %"class.dealii::DoFHandler"* dereferenceable(168) %dof_handler, i32 %obj_index, i32 %fe_index, i32 %local_index) #0 comdat align 2 !dbg !2189 {
entry:
  %this.addr = alloca %"class.dealii::internal::DoFHandler::DoFObjects"*, align 8
  %dof_handler.addr = alloca %"class.dealii::DoFHandler"*, align 8
  %obj_index.addr = alloca i32, align 4
  %fe_index.addr = alloca i32, align 4
  %local_index.addr = alloca i32, align 4
  store %"class.dealii::internal::DoFHandler::DoFObjects"* %this, %"class.dealii::internal::DoFHandler::DoFObjects"** %this.addr, align 8
  call void @llvm.dbg.declare(metadata %"class.dealii::internal::DoFHandler::DoFObjects"** %this.addr, metadata !2200, metadata !DIExpression()), !dbg !2202
  store %"class.dealii::DoFHandler"* %dof_handler, %"class.dealii::DoFHandler"** %dof_handler.addr, align 8
  call void @llvm.dbg.declare(metadata %"class.dealii::DoFHandler"** %dof_handler.addr, metadata !2203, metadata !DIExpression()), !dbg !2204
  store i32 %obj_index, i32* %obj_index.addr, align 4
  call void @llvm.dbg.declare(metadata i32* %obj_index.addr, metadata !2205, metadata !DIExpression()), !dbg !2206
  store i32 %fe_index, i32* %fe_index.addr, align 4
  call void @llvm.dbg.declare(metadata i32* %fe_index.addr, metadata !2207, metadata !DIExpression()), !dbg !2208
  store i32 %local_index, i32* %local_index.addr, align 4
  call void @llvm.dbg.declare(metadata i32* %local_index.addr, metadata !2209, metadata !DIExpression()), !dbg !2210
  %this1 = load %"class.dealii::internal::DoFHandler::DoFObjects"*, %"class.dealii::internal::DoFHandler::DoFObjects"** %this.addr, align 8
  %dofs = getelementptr inbounds %"class.dealii::internal::DoFHandler::DoFObjects", %"class.dealii::internal::DoFHandler::DoFObjects"* %this1, i32 0, i32 0, !dbg !2211
  %0 = load i32, i32* %obj_index.addr, align 4, !dbg !2212
  %1 = load %"class.dealii::DoFHandler"*, %"class.dealii::DoFHandler"** %dof_handler.addr, align 8, !dbg !2213
  %call = call dereferenceable(728) %"class.dealii::FiniteElement"* @_ZNK6dealii10DoFHandlerILi3ELi3EE6get_feEv(%"class.dealii::DoFHandler"* %1), !dbg !2214
  %2 = bitcast %"class.dealii::FiniteElement"* %call to i8*, !dbg !2213
  %add.ptr = getelementptr inbounds i8, i8* %2, i64 72, !dbg !2213
  %3 = bitcast i8* %add.ptr to %"class.dealii::FiniteElementData"*, !dbg !2213
  %call2 = call i32 @_ZNK6dealii17FiniteElementDataILi3EE17n_dofs_per_objectILi1EEEjv(%"class.dealii::FiniteElementData"* %3), !dbg !2215
  %mul = mul i32 %0, %call2, !dbg !2216
  %4 = load i32, i32* %local_index.addr, align 4, !dbg !2217
  %add = add i32 %mul, %4, !dbg !2218
  %conv = zext i32 %add to i64, !dbg !2212
  %call3 = call dereferenceable(4) i32* @_ZNKSt6vectorIjSaIjEEixEm(%"class.std::vector"* %dofs, i64 %conv) #4, !dbg !2211
  %5 = load i32, i32* %call3, align 4, !dbg !2211
  ret i32 %5, !dbg !2219
}

; Function Attrs: nounwind readnone speculatable willreturn
declare void @llvm.dbg.declare(metadata, metadata, metadata) #5

; Function Attrs: noinline nounwind uwtable
define linkonce_odr dso_local dereferenceable(4) i32* @_ZNKSt6vectorIjSaIjEEixEm(%"class.std::vector"* %this, i64 %__n) #1 comdat align 2 !dbg !2220 {
entry:
  %this.addr = alloca %"class.std::vector"*, align 8
  %__n.addr = alloca i64, align 8
  store %"class.std::vector"* %this, %"class.std::vector"** %this.addr, align 8
  call void @llvm.dbg.declare(metadata %"class.std::vector"** %this.addr, metadata !2221, metadata !DIExpression()), !dbg !2223
  store i64 %__n, i64* %__n.addr, align 8
  call void @llvm.dbg.declare(metadata i64* %__n.addr, metadata !2224, metadata !DIExpression()), !dbg !2225
  %this1 = load %"class.std::vector"*, %"class.std::vector"** %this.addr, align 8
  %0 = bitcast %"class.std::vector"* %this1 to %"struct.std::_Vector_base"*, !dbg !2226
  %_M_impl = getelementptr inbounds %"struct.std::_Vector_base", %"struct.std::_Vector_base"* %0, i32 0, i32 0, !dbg !2226
  %1 = bitcast %"struct.std::_Vector_base<unsigned int, std::allocator<unsigned int> >::_Vector_impl"* %_M_impl to %"struct.std::_Vector_base<unsigned int, std::allocator<unsigned int> >::_Vector_impl_data"*, !dbg !2227
  %_M_start = getelementptr inbounds %"struct.std::_Vector_base<unsigned int, std::allocator<unsigned int> >::_Vector_impl_data", %"struct.std::_Vector_base<unsigned int, std::allocator<unsigned int> >::_Vector_impl_data"* %1, i32 0, i32 0, !dbg !2228
  %2 = load i32*, i32** %_M_start, align 8, !dbg !2228
  %3 = load i64, i64* %__n.addr, align 8, !dbg !2229
  %add.ptr = getelementptr inbounds i32, i32* %2, i64 %3, !dbg !2230
  ret i32* %add.ptr, !dbg !2231
}

; Function Attrs: noinline uwtable
define linkonce_odr dso_local dereferenceable(728) %"class.dealii::FiniteElement"* @_ZNK6dealii10DoFHandlerILi3ELi3EE6get_feEv(%"class.dealii::DoFHandler"* %this) #0 comdat align 2 !dbg !2232 {
entry:
  %this.addr = alloca %"class.dealii::DoFHandler"*, align 8
  store %"class.dealii::DoFHandler"* %this, %"class.dealii::DoFHandler"** %this.addr, align 8
  call void @llvm.dbg.declare(metadata %"class.dealii::DoFHandler"** %this.addr, metadata !2241, metadata !DIExpression()), !dbg !2243
  %this1 = load %"class.dealii::DoFHandler"*, %"class.dealii::DoFHandler"** %this.addr, align 8
  %selected_fe = getelementptr inbounds %"class.dealii::DoFHandler", %"class.dealii::DoFHandler"* %this1, i32 0, i32 2, !dbg !2244
  %call = call dereferenceable(728) %"class.dealii::FiniteElement"* @_ZNK6dealii12SmartPointerIKNS_13FiniteElementILi3ELi3EEEEdeEv(%"class.dealii::SmartPointer.39"* %selected_fe), !dbg !2245
  ret %"class.dealii::FiniteElement"* %call, !dbg !2246
}

; Function Attrs: noinline nounwind uwtable
define linkonce_odr dso_local i32 @_ZNK6dealii17FiniteElementDataILi3EE17n_dofs_per_objectILi1EEEjv(%"class.dealii::FiniteElementData"* %this) #1 comdat align 2 !dbg !2247 {
entry:
  %this.addr = alloca %"class.dealii::FiniteElementData"*, align 8
  store %"class.dealii::FiniteElementData"* %this, %"class.dealii::FiniteElementData"** %this.addr, align 8
  call void @llvm.dbg.declare(metadata %"class.dealii::FiniteElementData"** %this.addr, metadata !2251, metadata !DIExpression()), !dbg !2253
  %this1 = load %"class.dealii::FiniteElementData"*, %"class.dealii::FiniteElementData"** %this.addr, align 8
  %dofs_per_line = getelementptr inbounds %"class.dealii::FiniteElementData", %"class.dealii::FiniteElementData"* %this1, i32 0, i32 1, !dbg !2254
  %0 = load i32, i32* %dofs_per_line, align 4, !dbg !2254
  ret i32 %0, !dbg !2255
}

; Function Attrs: noinline uwtable
define weak_odr dso_local void @_ZN6dealii8internal10DoFHandler10DoFObjectsILi1EE13set_dof_indexILi3ELi3EEEvRKNS_10DoFHandlerIXT_EXT0_EEEjjjj(%"class.dealii::internal::DoFHandler::DoFObjects"* %this, %"class.dealii::DoFHandler"* dereferenceable(168) %dof_handler, i32 %obj_index, i32 %fe_index, i32 %local_index, i32 %global_index) #0 comdat align 2 !dbg !2256 {
entry:
  %this.addr = alloca %"class.dealii::internal::DoFHandler::DoFObjects"*, align 8
  %dof_handler.addr = alloca %"class.dealii::DoFHandler"*, align 8
  %obj_index.addr = alloca i32, align 4
  %fe_index.addr = alloca i32, align 4
  %local_index.addr = alloca i32, align 4
  %global_index.addr = alloca i32, align 4
  store %"class.dealii::internal::DoFHandler::DoFObjects"* %this, %"class.dealii::internal::DoFHandler::DoFObjects"** %this.addr, align 8
  call void @llvm.dbg.declare(metadata %"class.dealii::internal::DoFHandler::DoFObjects"** %this.addr, metadata !2261, metadata !DIExpression()), !dbg !2263
  store %"class.dealii::DoFHandler"* %dof_handler, %"class.dealii::DoFHandler"** %dof_handler.addr, align 8
  call void @llvm.dbg.declare(metadata %"class.dealii::DoFHandler"** %dof_handler.addr, metadata !2264, metadata !DIExpression()), !dbg !2265
  store i32 %obj_index, i32* %obj_index.addr, align 4
  call void @llvm.dbg.declare(metadata i32* %obj_index.addr, metadata !2266, metadata !DIExpression()), !dbg !2267
  store i32 %fe_index, i32* %fe_index.addr, align 4
  call void @llvm.dbg.declare(metadata i32* %fe_index.addr, metadata !2268, metadata !DIExpression()), !dbg !2269
  store i32 %local_index, i32* %local_index.addr, align 4
  call void @llvm.dbg.declare(metadata i32* %local_index.addr, metadata !2270, metadata !DIExpression()), !dbg !2271
  store i32 %global_index, i32* %global_index.addr, align 4
  call void @llvm.dbg.declare(metadata i32* %global_index.addr, metadata !2272, metadata !DIExpression()), !dbg !2273
  %this1 = load %"class.dealii::internal::DoFHandler::DoFObjects"*, %"class.dealii::internal::DoFHandler::DoFObjects"** %this.addr, align 8
  %0 = load i32, i32* %global_index.addr, align 4, !dbg !2274
  %dofs = getelementptr inbounds %"class.dealii::internal::DoFHandler::DoFObjects", %"class.dealii::internal::DoFHandler::DoFObjects"* %this1, i32 0, i32 0, !dbg !2275
  %1 = load i32, i32* %obj_index.addr, align 4, !dbg !2276
  %2 = load %"class.dealii::DoFHandler"*, %"class.dealii::DoFHandler"** %dof_handler.addr, align 8, !dbg !2277
  %call = call dereferenceable(728) %"class.dealii::FiniteElement"* @_ZNK6dealii10DoFHandlerILi3ELi3EE6get_feEv(%"class.dealii::DoFHandler"* %2), !dbg !2278
  %3 = bitcast %"class.dealii::FiniteElement"* %call to i8*, !dbg !2277
  %add.ptr = getelementptr inbounds i8, i8* %3, i64 72, !dbg !2277
  %4 = bitcast i8* %add.ptr to %"class.dealii::FiniteElementData"*, !dbg !2277
  %call2 = call i32 @_ZNK6dealii17FiniteElementDataILi3EE17n_dofs_per_objectILi1EEEjv(%"class.dealii::FiniteElementData"* %4), !dbg !2279
  %mul = mul i32 %1, %call2, !dbg !2280
  %5 = load i32, i32* %local_index.addr, align 4, !dbg !2281
  %add = add i32 %mul, %5, !dbg !2282
  %conv = zext i32 %add to i64, !dbg !2276
  %call3 = call dereferenceable(4) i32* @_ZNSt6vectorIjSaIjEEixEm(%"class.std::vector"* %dofs, i64 %conv) #4, !dbg !2275
  store i32 %0, i32* %call3, align 4, !dbg !2283
  ret void, !dbg !2284
}

; Function Attrs: noinline nounwind uwtable
define linkonce_odr dso_local dereferenceable(4) i32* @_ZNSt6vectorIjSaIjEEixEm(%"class.std::vector"* %this, i64 %__n) #1 comdat align 2 !dbg !2285 {
entry:
  %this.addr = alloca %"class.std::vector"*, align 8
  %__n.addr = alloca i64, align 8
  store %"class.std::vector"* %this, %"class.std::vector"** %this.addr, align 8
  call void @llvm.dbg.declare(metadata %"class.std::vector"** %this.addr, metadata !2286, metadata !DIExpression()), !dbg !2288
  store i64 %__n, i64* %__n.addr, align 8
  call void @llvm.dbg.declare(metadata i64* %__n.addr, metadata !2289, metadata !DIExpression()), !dbg !2290
  %this1 = load %"class.std::vector"*, %"class.std::vector"** %this.addr, align 8
  %0 = bitcast %"class.std::vector"* %this1 to %"struct.std::_Vector_base"*, !dbg !2291
  %_M_impl = getelementptr inbounds %"struct.std::_Vector_base", %"struct.std::_Vector_base"* %0, i32 0, i32 0, !dbg !2291
  %1 = bitcast %"struct.std::_Vector_base<unsigned int, std::allocator<unsigned int> >::_Vector_impl"* %_M_impl to %"struct.std::_Vector_base<unsigned int, std::allocator<unsigned int> >::_Vector_impl_data"*, !dbg !2292
  %_M_start = getelementptr inbounds %"struct.std::_Vector_base<unsigned int, std::allocator<unsigned int> >::_Vector_impl_data", %"struct.std::_Vector_base<unsigned int, std::allocator<unsigned int> >::_Vector_impl_data"* %1, i32 0, i32 0, !dbg !2293
  %2 = load i32*, i32** %_M_start, align 8, !dbg !2293
  %3 = load i64, i64* %__n.addr, align 8, !dbg !2294
  %add.ptr = getelementptr inbounds i32, i32* %2, i64 %3, !dbg !2295
  ret i32* %add.ptr, !dbg !2296
}

; Function Attrs: noinline uwtable
define weak_odr dso_local i32 @_ZNK6dealii8internal10DoFHandler10DoFObjectsILi2EE13get_dof_indexILi3ELi3EEEjRKNS_10DoFHandlerIXT_EXT0_EEEjjj(%"class.dealii::internal::DoFHandler::DoFObjects.85"* %this, %"class.dealii::DoFHandler"* dereferenceable(168) %dof_handler, i32 %obj_index, i32 %fe_index, i32 %local_index) #0 comdat align 2 !dbg !2297 {
entry:
  %this.addr = alloca %"class.dealii::internal::DoFHandler::DoFObjects.85"*, align 8
  %dof_handler.addr = alloca %"class.dealii::DoFHandler"*, align 8
  %obj_index.addr = alloca i32, align 4
  %fe_index.addr = alloca i32, align 4
  %local_index.addr = alloca i32, align 4
  store %"class.dealii::internal::DoFHandler::DoFObjects.85"* %this, %"class.dealii::internal::DoFHandler::DoFObjects.85"** %this.addr, align 8
  call void @llvm.dbg.declare(metadata %"class.dealii::internal::DoFHandler::DoFObjects.85"** %this.addr, metadata !2301, metadata !DIExpression()), !dbg !2303
  store %"class.dealii::DoFHandler"* %dof_handler, %"class.dealii::DoFHandler"** %dof_handler.addr, align 8
  call void @llvm.dbg.declare(metadata %"class.dealii::DoFHandler"** %dof_handler.addr, metadata !2304, metadata !DIExpression()), !dbg !2305
  store i32 %obj_index, i32* %obj_index.addr, align 4
  call void @llvm.dbg.declare(metadata i32* %obj_index.addr, metadata !2306, metadata !DIExpression()), !dbg !2307
  store i32 %fe_index, i32* %fe_index.addr, align 4
  call void @llvm.dbg.declare(metadata i32* %fe_index.addr, metadata !2308, metadata !DIExpression()), !dbg !2309
  store i32 %local_index, i32* %local_index.addr, align 4
  call void @llvm.dbg.declare(metadata i32* %local_index.addr, metadata !2310, metadata !DIExpression()), !dbg !2311
  %this1 = load %"class.dealii::internal::DoFHandler::DoFObjects.85"*, %"class.dealii::internal::DoFHandler::DoFObjects.85"** %this.addr, align 8
  %dofs = getelementptr inbounds %"class.dealii::internal::DoFHandler::DoFObjects.85", %"class.dealii::internal::DoFHandler::DoFObjects.85"* %this1, i32 0, i32 0, !dbg !2312
  %0 = load i32, i32* %obj_index.addr, align 4, !dbg !2313
  %1 = load %"class.dealii::DoFHandler"*, %"class.dealii::DoFHandler"** %dof_handler.addr, align 8, !dbg !2314
  %call = call dereferenceable(728) %"class.dealii::FiniteElement"* @_ZNK6dealii10DoFHandlerILi3ELi3EE6get_feEv(%"class.dealii::DoFHandler"* %1), !dbg !2315
  %2 = bitcast %"class.dealii::FiniteElement"* %call to i8*, !dbg !2314
  %add.ptr = getelementptr inbounds i8, i8* %2, i64 72, !dbg !2314
  %3 = bitcast i8* %add.ptr to %"class.dealii::FiniteElementData"*, !dbg !2314
  %call2 = call i32 @_ZNK6dealii17FiniteElementDataILi3EE17n_dofs_per_objectILi2EEEjv(%"class.dealii::FiniteElementData"* %3), !dbg !2316
  %mul = mul i32 %0, %call2, !dbg !2317
  %4 = load i32, i32* %local_index.addr, align 4, !dbg !2318
  %add = add i32 %mul, %4, !dbg !2319
  %conv = zext i32 %add to i64, !dbg !2313
  %call3 = call dereferenceable(4) i32* @_ZNKSt6vectorIjSaIjEEixEm(%"class.std::vector"* %dofs, i64 %conv) #4, !dbg !2312
  %5 = load i32, i32* %call3, align 4, !dbg !2312
  ret i32 %5, !dbg !2320
}

; Function Attrs: noinline nounwind uwtable
define linkonce_odr dso_local i32 @_ZNK6dealii17FiniteElementDataILi3EE17n_dofs_per_objectILi2EEEjv(%"class.dealii::FiniteElementData"* %this) #1 comdat align 2 !dbg !2321 {
entry:
  %this.addr = alloca %"class.dealii::FiniteElementData"*, align 8
  store %"class.dealii::FiniteElementData"* %this, %"class.dealii::FiniteElementData"** %this.addr, align 8
  call void @llvm.dbg.declare(metadata %"class.dealii::FiniteElementData"** %this.addr, metadata !2325, metadata !DIExpression()), !dbg !2326
  %this1 = load %"class.dealii::FiniteElementData"*, %"class.dealii::FiniteElementData"** %this.addr, align 8
  %dofs_per_quad = getelementptr inbounds %"class.dealii::FiniteElementData", %"class.dealii::FiniteElementData"* %this1, i32 0, i32 2, !dbg !2327
  %0 = load i32, i32* %dofs_per_quad, align 4, !dbg !2327
  ret i32 %0, !dbg !2328
}

; Function Attrs: noinline uwtable
define weak_odr dso_local void @_ZN6dealii8internal10DoFHandler10DoFObjectsILi2EE13set_dof_indexILi3ELi3EEEvRKNS_10DoFHandlerIXT_EXT0_EEEjjjj(%"class.dealii::internal::DoFHandler::DoFObjects.85"* %this, %"class.dealii::DoFHandler"* dereferenceable(168) %dof_handler, i32 %obj_index, i32 %fe_index, i32 %local_index, i32 %global_index) #0 comdat align 2 !dbg !2329 {
entry:
  %this.addr = alloca %"class.dealii::internal::DoFHandler::DoFObjects.85"*, align 8
  %dof_handler.addr = alloca %"class.dealii::DoFHandler"*, align 8
  %obj_index.addr = alloca i32, align 4
  %fe_index.addr = alloca i32, align 4
  %local_index.addr = alloca i32, align 4
  %global_index.addr = alloca i32, align 4
  store %"class.dealii::internal::DoFHandler::DoFObjects.85"* %this, %"class.dealii::internal::DoFHandler::DoFObjects.85"** %this.addr, align 8
  call void @llvm.dbg.declare(metadata %"class.dealii::internal::DoFHandler::DoFObjects.85"** %this.addr, metadata !2334, metadata !DIExpression()), !dbg !2336
  store %"class.dealii::DoFHandler"* %dof_handler, %"class.dealii::DoFHandler"** %dof_handler.addr, align 8
  call void @llvm.dbg.declare(metadata %"class.dealii::DoFHandler"** %dof_handler.addr, metadata !2337, metadata !DIExpression()), !dbg !2338
  store i32 %obj_index, i32* %obj_index.addr, align 4
  call void @llvm.dbg.declare(metadata i32* %obj_index.addr, metadata !2339, metadata !DIExpression()), !dbg !2340
  store i32 %fe_index, i32* %fe_index.addr, align 4
  call void @llvm.dbg.declare(metadata i32* %fe_index.addr, metadata !2341, metadata !DIExpression()), !dbg !2342
  store i32 %local_index, i32* %local_index.addr, align 4
  call void @llvm.dbg.declare(metadata i32* %local_index.addr, metadata !2343, metadata !DIExpression()), !dbg !2344
  store i32 %global_index, i32* %global_index.addr, align 4
  call void @llvm.dbg.declare(metadata i32* %global_index.addr, metadata !2345, metadata !DIExpression()), !dbg !2346
  %this1 = load %"class.dealii::internal::DoFHandler::DoFObjects.85"*, %"class.dealii::internal::DoFHandler::DoFObjects.85"** %this.addr, align 8
  %0 = load i32, i32* %global_index.addr, align 4, !dbg !2347
  %dofs = getelementptr inbounds %"class.dealii::internal::DoFHandler::DoFObjects.85", %"class.dealii::internal::DoFHandler::DoFObjects.85"* %this1, i32 0, i32 0, !dbg !2348
  %1 = load i32, i32* %obj_index.addr, align 4, !dbg !2349
  %2 = load %"class.dealii::DoFHandler"*, %"class.dealii::DoFHandler"** %dof_handler.addr, align 8, !dbg !2350
  %call = call dereferenceable(728) %"class.dealii::FiniteElement"* @_ZNK6dealii10DoFHandlerILi3ELi3EE6get_feEv(%"class.dealii::DoFHandler"* %2), !dbg !2351
  %3 = bitcast %"class.dealii::FiniteElement"* %call to i8*, !dbg !2350
  %add.ptr = getelementptr inbounds i8, i8* %3, i64 72, !dbg !2350
  %4 = bitcast i8* %add.ptr to %"class.dealii::FiniteElementData"*, !dbg !2350
  %call2 = call i32 @_ZNK6dealii17FiniteElementDataILi3EE17n_dofs_per_objectILi2EEEjv(%"class.dealii::FiniteElementData"* %4), !dbg !2352
  %mul = mul i32 %1, %call2, !dbg !2353
  %5 = load i32, i32* %local_index.addr, align 4, !dbg !2354
  %add = add i32 %mul, %5, !dbg !2355
  %conv = zext i32 %add to i64, !dbg !2349
  %call3 = call dereferenceable(4) i32* @_ZNSt6vectorIjSaIjEEixEm(%"class.std::vector"* %dofs, i64 %conv) #4, !dbg !2348
  store i32 %0, i32* %call3, align 4, !dbg !2356
  ret void, !dbg !2357
}

; Function Attrs: noinline uwtable
define weak_odr dso_local i32 @_ZNK6dealii8internal10DoFHandler10DoFObjectsILi3EE13get_dof_indexILi3ELi3EEEjRKNS_10DoFHandlerIXT_EXT0_EEEjjj(%"class.dealii::internal::DoFHandler::DoFObjects.86"* %this, %"class.dealii::DoFHandler"* dereferenceable(168) %dof_handler, i32 %obj_index, i32 %fe_index, i32 %local_index) #0 comdat align 2 !dbg !2358 {
entry:
  %this.addr = alloca %"class.dealii::internal::DoFHandler::DoFObjects.86"*, align 8
  %dof_handler.addr = alloca %"class.dealii::DoFHandler"*, align 8
  %obj_index.addr = alloca i32, align 4
  %fe_index.addr = alloca i32, align 4
  %local_index.addr = alloca i32, align 4
  store %"class.dealii::internal::DoFHandler::DoFObjects.86"* %this, %"class.dealii::internal::DoFHandler::DoFObjects.86"** %this.addr, align 8
  call void @llvm.dbg.declare(metadata %"class.dealii::internal::DoFHandler::DoFObjects.86"** %this.addr, metadata !2362, metadata !DIExpression()), !dbg !2364
  store %"class.dealii::DoFHandler"* %dof_handler, %"class.dealii::DoFHandler"** %dof_handler.addr, align 8
  call void @llvm.dbg.declare(metadata %"class.dealii::DoFHandler"** %dof_handler.addr, metadata !2365, metadata !DIExpression()), !dbg !2366
  store i32 %obj_index, i32* %obj_index.addr, align 4
  call void @llvm.dbg.declare(metadata i32* %obj_index.addr, metadata !2367, metadata !DIExpression()), !dbg !2368
  store i32 %fe_index, i32* %fe_index.addr, align 4
  call void @llvm.dbg.declare(metadata i32* %fe_index.addr, metadata !2369, metadata !DIExpression()), !dbg !2370
  store i32 %local_index, i32* %local_index.addr, align 4
  call void @llvm.dbg.declare(metadata i32* %local_index.addr, metadata !2371, metadata !DIExpression()), !dbg !2372
  %this1 = load %"class.dealii::internal::DoFHandler::DoFObjects.86"*, %"class.dealii::internal::DoFHandler::DoFObjects.86"** %this.addr, align 8
  %dofs = getelementptr inbounds %"class.dealii::internal::DoFHandler::DoFObjects.86", %"class.dealii::internal::DoFHandler::DoFObjects.86"* %this1, i32 0, i32 0, !dbg !2373
  %0 = load i32, i32* %obj_index.addr, align 4, !dbg !2374
  %1 = load %"class.dealii::DoFHandler"*, %"class.dealii::DoFHandler"** %dof_handler.addr, align 8, !dbg !2375
  %call = call dereferenceable(728) %"class.dealii::FiniteElement"* @_ZNK6dealii10DoFHandlerILi3ELi3EE6get_feEv(%"class.dealii::DoFHandler"* %1), !dbg !2376
  %2 = bitcast %"class.dealii::FiniteElement"* %call to i8*, !dbg !2375
  %add.ptr = getelementptr inbounds i8, i8* %2, i64 72, !dbg !2375
  %3 = bitcast i8* %add.ptr to %"class.dealii::FiniteElementData"*, !dbg !2375
  %call2 = call i32 @_ZNK6dealii17FiniteElementDataILi3EE17n_dofs_per_objectILi3EEEjv(%"class.dealii::FiniteElementData"* %3), !dbg !2377
  %mul = mul i32 %0, %call2, !dbg !2378
  %4 = load i32, i32* %local_index.addr, align 4, !dbg !2379
  %add = add i32 %mul, %4, !dbg !2380
  %conv = zext i32 %add to i64, !dbg !2374
  %call3 = call dereferenceable(4) i32* @_ZNKSt6vectorIjSaIjEEixEm(%"class.std::vector"* %dofs, i64 %conv) #4, !dbg !2373
  %5 = load i32, i32* %call3, align 4, !dbg !2373
  ret i32 %5, !dbg !2381
}

; Function Attrs: noinline nounwind uwtable
define linkonce_odr dso_local i32 @_ZNK6dealii17FiniteElementDataILi3EE17n_dofs_per_objectILi3EEEjv(%"class.dealii::FiniteElementData"* %this) #1 comdat align 2 !dbg !2382 {
entry:
  %this.addr = alloca %"class.dealii::FiniteElementData"*, align 8
  store %"class.dealii::FiniteElementData"* %this, %"class.dealii::FiniteElementData"** %this.addr, align 8
  call void @llvm.dbg.declare(metadata %"class.dealii::FiniteElementData"** %this.addr, metadata !2386, metadata !DIExpression()), !dbg !2387
  %this1 = load %"class.dealii::FiniteElementData"*, %"class.dealii::FiniteElementData"** %this.addr, align 8
  %dofs_per_hex = getelementptr inbounds %"class.dealii::FiniteElementData", %"class.dealii::FiniteElementData"* %this1, i32 0, i32 3, !dbg !2388
  %0 = load i32, i32* %dofs_per_hex, align 4, !dbg !2388
  ret i32 %0, !dbg !2389
}

; Function Attrs: noinline uwtable
define weak_odr dso_local void @_ZN6dealii8internal10DoFHandler10DoFObjectsILi3EE13set_dof_indexILi3ELi3EEEvRKNS_10DoFHandlerIXT_EXT0_EEEjjjj(%"class.dealii::internal::DoFHandler::DoFObjects.86"* %this, %"class.dealii::DoFHandler"* dereferenceable(168) %dof_handler, i32 %obj_index, i32 %fe_index, i32 %local_index, i32 %global_index) #0 comdat align 2 !dbg !2390 {
entry:
  %this.addr = alloca %"class.dealii::internal::DoFHandler::DoFObjects.86"*, align 8
  %dof_handler.addr = alloca %"class.dealii::DoFHandler"*, align 8
  %obj_index.addr = alloca i32, align 4
  %fe_index.addr = alloca i32, align 4
  %local_index.addr = alloca i32, align 4
  %global_index.addr = alloca i32, align 4
  store %"class.dealii::internal::DoFHandler::DoFObjects.86"* %this, %"class.dealii::internal::DoFHandler::DoFObjects.86"** %this.addr, align 8
  call void @llvm.dbg.declare(metadata %"class.dealii::internal::DoFHandler::DoFObjects.86"** %this.addr, metadata !2395, metadata !DIExpression()), !dbg !2397
  store %"class.dealii::DoFHandler"* %dof_handler, %"class.dealii::DoFHandler"** %dof_handler.addr, align 8
  call void @llvm.dbg.declare(metadata %"class.dealii::DoFHandler"** %dof_handler.addr, metadata !2398, metadata !DIExpression()), !dbg !2399
  store i32 %obj_index, i32* %obj_index.addr, align 4
  call void @llvm.dbg.declare(metadata i32* %obj_index.addr, metadata !2400, metadata !DIExpression()), !dbg !2401
  store i32 %fe_index, i32* %fe_index.addr, align 4
  call void @llvm.dbg.declare(metadata i32* %fe_index.addr, metadata !2402, metadata !DIExpression()), !dbg !2403
  store i32 %local_index, i32* %local_index.addr, align 4
  call void @llvm.dbg.declare(metadata i32* %local_index.addr, metadata !2404, metadata !DIExpression()), !dbg !2405
  store i32 %global_index, i32* %global_index.addr, align 4
  call void @llvm.dbg.declare(metadata i32* %global_index.addr, metadata !2406, metadata !DIExpression()), !dbg !2407
  %this1 = load %"class.dealii::internal::DoFHandler::DoFObjects.86"*, %"class.dealii::internal::DoFHandler::DoFObjects.86"** %this.addr, align 8
  %0 = load i32, i32* %global_index.addr, align 4, !dbg !2408
  %dofs = getelementptr inbounds %"class.dealii::internal::DoFHandler::DoFObjects.86", %"class.dealii::internal::DoFHandler::DoFObjects.86"* %this1, i32 0, i32 0, !dbg !2409
  %1 = load i32, i32* %obj_index.addr, align 4, !dbg !2410
  %2 = load %"class.dealii::DoFHandler"*, %"class.dealii::DoFHandler"** %dof_handler.addr, align 8, !dbg !2411
  %call = call dereferenceable(728) %"class.dealii::FiniteElement"* @_ZNK6dealii10DoFHandlerILi3ELi3EE6get_feEv(%"class.dealii::DoFHandler"* %2), !dbg !2412
  %3 = bitcast %"class.dealii::FiniteElement"* %call to i8*, !dbg !2411
  %add.ptr = getelementptr inbounds i8, i8* %3, i64 72, !dbg !2411
  %4 = bitcast i8* %add.ptr to %"class.dealii::FiniteElementData"*, !dbg !2411
  %call2 = call i32 @_ZNK6dealii17FiniteElementDataILi3EE17n_dofs_per_objectILi3EEEjv(%"class.dealii::FiniteElementData"* %4), !dbg !2413
  %mul = mul i32 %1, %call2, !dbg !2414
  %5 = load i32, i32* %local_index.addr, align 4, !dbg !2415
  %add = add i32 %mul, %5, !dbg !2416
  %conv = zext i32 %add to i64, !dbg !2410
  %call3 = call dereferenceable(4) i32* @_ZNSt6vectorIjSaIjEEixEm(%"class.std::vector"* %dofs, i64 %conv) #4, !dbg !2409
  store i32 %0, i32* %call3, align 4, !dbg !2417
  ret void, !dbg !2418
}

; Function Attrs: noinline nounwind uwtable
define linkonce_odr dso_local dereferenceable(728) %"class.dealii::FiniteElement"* @_ZNK6dealii12SmartPointerIKNS_13FiniteElementILi3ELi3EEEEdeEv(%"class.dealii::SmartPointer.39"* %this) #1 comdat align 2 !dbg !2419 {
entry:
  %this.addr = alloca %"class.dealii::SmartPointer.39"*, align 8
  store %"class.dealii::SmartPointer.39"* %this, %"class.dealii::SmartPointer.39"** %this.addr, align 8
  call void @llvm.dbg.declare(metadata %"class.dealii::SmartPointer.39"** %this.addr, metadata !2467, metadata !DIExpression()), !dbg !2469
  %this1 = load %"class.dealii::SmartPointer.39"*, %"class.dealii::SmartPointer.39"** %this.addr, align 8
  %t = getelementptr inbounds %"class.dealii::SmartPointer.39", %"class.dealii::SmartPointer.39"* %this1, i32 0, i32 0, !dbg !2470
  %0 = load %"class.dealii::FiniteElement"*, %"class.dealii::FiniteElement"** %t, align 8, !dbg !2470
  ret %"class.dealii::FiniteElement"* %0, !dbg !2471
}

; Function Attrs: noinline uwtable
define internal void @_GLOBAL__sub_I_dof_objects.cc() #0 section ".text.startup" !dbg !2472 {
entry:
  call void @__cxx_global_var_init(), !dbg !2474
  call void @__cxx_global_var_init.1(), !dbg !2474
  call void @__cxx_global_var_init.2(), !dbg !2474
  call void @__cxx_global_var_init.3(), !dbg !2474
  call void @__cxx_global_var_init.4(), !dbg !2474
  call void @__cxx_global_var_init.5(), !dbg !2474
  call void @__cxx_global_var_init.6(), !dbg !2474
  call void @__cxx_global_var_init.7(), !dbg !2474
  call void @__cxx_global_var_init.8(), !dbg !2474
  call void @__cxx_global_var_init.9(), !dbg !2474
  ret void
}

attributes #0 = { noinline uwtable "correctly-rounded-divide-sqrt-fp-math"="false" "disable-tail-calls"="false" "frame-pointer"="all" "less-precise-fpmad"="false" "min-legal-vector-width"="0" "no-infs-fp-math"="false" "no-jump-tables"="false" "no-nans-fp-math"="false" "no-signed-zeros-fp-math"="false" "no-trapping-math"="false" "stack-protector-buffer-size"="8" "target-cpu"="x86-64" "target-features"="+cx8,+fxsr,+mmx,+sse,+sse2,+x87" "unsafe-fp-math"="false" "use-soft-float"="false" }
attributes #1 = { noinline nounwind uwtable "correctly-rounded-divide-sqrt-fp-math"="false" "disable-tail-calls"="false" "frame-pointer"="all" "less-precise-fpmad"="false" "min-legal-vector-width"="0" "no-infs-fp-math"="false" "no-jump-tables"="false" "no-nans-fp-math"="false" "no-signed-zeros-fp-math"="false" "no-trapping-math"="false" "stack-protector-buffer-size"="8" "target-cpu"="x86-64" "target-features"="+cx8,+fxsr,+mmx,+sse,+sse2,+x87" "unsafe-fp-math"="false" "use-soft-float"="false" }
attributes #2 = { "correctly-rounded-divide-sqrt-fp-math"="false" "disable-tail-calls"="false" "frame-pointer"="all" "less-precise-fpmad"="false" "no-infs-fp-math"="false" "no-nans-fp-math"="false" "no-signed-zeros-fp-math"="false" "no-trapping-math"="false" "stack-protector-buffer-size"="8" "target-cpu"="x86-64" "target-features"="+cx8,+fxsr,+mmx,+sse,+sse2,+x87" "unsafe-fp-math"="false" "use-soft-float"="false" }
attributes #3 = { nounwind "correctly-rounded-divide-sqrt-fp-math"="false" "disable-tail-calls"="false" "frame-pointer"="all" "less-precise-fpmad"="false" "no-infs-fp-math"="false" "no-nans-fp-math"="false" "no-signed-zeros-fp-math"="false" "no-trapping-math"="false" "stack-protector-buffer-size"="8" "target-cpu"="x86-64" "target-features"="+cx8,+fxsr,+mmx,+sse,+sse2,+x87" "unsafe-fp-math"="false" "use-soft-float"="false" }
attributes #4 = { nounwind }
attributes #5 = { nounwind readnone speculatable willreturn }

!llvm.dbg.cu = !{!122}
!llvm.module.flags = !{!2120, !2121, !2122}
!llvm.ident = !{!2123}

!0 = !DIGlobalVariableExpression(var: !1, expr: !DIExpression())
!1 = distinct !DIGlobalVariable(name: "_1", linkageName: "_ZN12_GLOBAL__N_12_1E", scope: !2, file: !3, line: 54, type: !4, isLocal: true, isDefinition: true)
!2 = !DINamespace(scope: null)
!3 = !DIFile(filename: "./boost/bind/placeholders.hpp", directory: "/home/venkat/IF-DV/spec_build_release/CPU_2017/benchspec/CPU/510.parest_r/build/build_base_ld-loop-ext-m64.0000")
!4 = distinct !DICompositeType(tag: DW_TAG_structure_type, name: "arg<1>", scope: !6, file: !5, line: 28, size: 8, flags: DIFlagTypePassByValue | DIFlagNonTrivial, elements: !7, templateParams: !12, identifier: "_ZTSN5boost3argILi1EEE")
!5 = !DIFile(filename: "./boost/bind/arg.hpp", directory: "/home/venkat/IF-DV/spec_build_release/CPU_2017/benchspec/CPU/510.parest_r/build/build_base_ld-loop-ext-m64.0000")
!6 = !DINamespace(name: "boost", scope: null)
!7 = !{!8}
!8 = !DISubprogram(name: "arg", scope: !4, file: !5, line: 30, type: !9, scopeLine: 30, flags: DIFlagPrototyped, spFlags: 0)
!9 = !DISubroutineType(types: !10)
!10 = !{null, !11}
!11 = !DIDerivedType(tag: DW_TAG_pointer_type, baseType: !4, size: 64, flags: DIFlagArtificial | DIFlagObjectPointer)
!12 = !{!13}
!13 = !DITemplateValueParameter(name: "I", type: !14, value: i32 1)
!14 = !DIBasicType(name: "int", size: 32, encoding: DW_ATE_signed)
!15 = !DIGlobalVariableExpression(var: !16, expr: !DIExpression())
!16 = distinct !DIGlobalVariable(name: "_2", linkageName: "_ZN12_GLOBAL__N_12_2E", scope: !2, file: !3, line: 55, type: !17, isLocal: true, isDefinition: true)
!17 = distinct !DICompositeType(tag: DW_TAG_structure_type, name: "arg<2>", scope: !6, file: !5, line: 28, size: 8, flags: DIFlagTypePassByValue | DIFlagNonTrivial, elements: !18, templateParams: !23, identifier: "_ZTSN5boost3argILi2EEE")
!18 = !{!19}
!19 = !DISubprogram(name: "arg", scope: !17, file: !5, line: 30, type: !20, scopeLine: 30, flags: DIFlagPrototyped, spFlags: 0)
!20 = !DISubroutineType(types: !21)
!21 = !{null, !22}
!22 = !DIDerivedType(tag: DW_TAG_pointer_type, baseType: !17, size: 64, flags: DIFlagArtificial | DIFlagObjectPointer)
!23 = !{!24}
!24 = !DITemplateValueParameter(name: "I", type: !14, value: i32 2)
!25 = !DIGlobalVariableExpression(var: !26, expr: !DIExpression())
!26 = distinct !DIGlobalVariable(name: "_3", linkageName: "_ZN12_GLOBAL__N_12_3E", scope: !2, file: !3, line: 56, type: !27, isLocal: true, isDefinition: true)
!27 = distinct !DICompositeType(tag: DW_TAG_structure_type, name: "arg<3>", scope: !6, file: !5, line: 28, size: 8, flags: DIFlagTypePassByValue | DIFlagNonTrivial, elements: !28, templateParams: !33, identifier: "_ZTSN5boost3argILi3EEE")
!28 = !{!29}
!29 = !DISubprogram(name: "arg", scope: !27, file: !5, line: 30, type: !30, scopeLine: 30, flags: DIFlagPrototyped, spFlags: 0)
!30 = !DISubroutineType(types: !31)
!31 = !{null, !32}
!32 = !DIDerivedType(tag: DW_TAG_pointer_type, baseType: !27, size: 64, flags: DIFlagArtificial | DIFlagObjectPointer)
!33 = !{!34}
!34 = !DITemplateValueParameter(name: "I", type: !14, value: i32 3)
!35 = !DIGlobalVariableExpression(var: !36, expr: !DIExpression())
!36 = distinct !DIGlobalVariable(name: "_4", linkageName: "_ZN12_GLOBAL__N_12_4E", scope: !2, file: !3, line: 57, type: !37, isLocal: true, isDefinition: true)
!37 = distinct !DICompositeType(tag: DW_TAG_structure_type, name: "arg<4>", scope: !6, file: !5, line: 28, size: 8, flags: DIFlagTypePassByValue | DIFlagNonTrivial, elements: !38, templateParams: !43, identifier: "_ZTSN5boost3argILi4EEE")
!38 = !{!39}
!39 = !DISubprogram(name: "arg", scope: !37, file: !5, line: 30, type: !40, scopeLine: 30, flags: DIFlagPrototyped, spFlags: 0)
!40 = !DISubroutineType(types: !41)
!41 = !{null, !42}
!42 = !DIDerivedType(tag: DW_TAG_pointer_type, baseType: !37, size: 64, flags: DIFlagArtificial | DIFlagObjectPointer)
!43 = !{!44}
!44 = !DITemplateValueParameter(name: "I", type: !14, value: i32 4)
!45 = !DIGlobalVariableExpression(var: !46, expr: !DIExpression())
!46 = distinct !DIGlobalVariable(name: "_5", linkageName: "_ZN12_GLOBAL__N_12_5E", scope: !2, file: !3, line: 58, type: !47, isLocal: true, isDefinition: true)
!47 = distinct !DICompositeType(tag: DW_TAG_structure_type, name: "arg<5>", scope: !6, file: !5, line: 28, size: 8, flags: DIFlagTypePassByValue | DIFlagNonTrivial, elements: !48, templateParams: !53, identifier: "_ZTSN5boost3argILi5EEE")
!48 = !{!49}
!49 = !DISubprogram(name: "arg", scope: !47, file: !5, line: 30, type: !50, scopeLine: 30, flags: DIFlagPrototyped, spFlags: 0)
!50 = !DISubroutineType(types: !51)
!51 = !{null, !52}
!52 = !DIDerivedType(tag: DW_TAG_pointer_type, baseType: !47, size: 64, flags: DIFlagArtificial | DIFlagObjectPointer)
!53 = !{!54}
!54 = !DITemplateValueParameter(name: "I", type: !14, value: i32 5)
!55 = !DIGlobalVariableExpression(var: !56, expr: !DIExpression())
!56 = distinct !DIGlobalVariable(name: "_6", linkageName: "_ZN12_GLOBAL__N_12_6E", scope: !2, file: !3, line: 59, type: !57, isLocal: true, isDefinition: true)
!57 = distinct !DICompositeType(tag: DW_TAG_structure_type, name: "arg<6>", scope: !6, file: !5, line: 28, size: 8, flags: DIFlagTypePassByValue | DIFlagNonTrivial, elements: !58, templateParams: !63, identifier: "_ZTSN5boost3argILi6EEE")
!58 = !{!59}
!59 = !DISubprogram(name: "arg", scope: !57, file: !5, line: 30, type: !60, scopeLine: 30, flags: DIFlagPrototyped, spFlags: 0)
!60 = !DISubroutineType(types: !61)
!61 = !{null, !62}
!62 = !DIDerivedType(tag: DW_TAG_pointer_type, baseType: !57, size: 64, flags: DIFlagArtificial | DIFlagObjectPointer)
!63 = !{!64}
!64 = !DITemplateValueParameter(name: "I", type: !14, value: i32 6)
!65 = !DIGlobalVariableExpression(var: !66, expr: !DIExpression())
!66 = distinct !DIGlobalVariable(name: "_7", linkageName: "_ZN12_GLOBAL__N_12_7E", scope: !2, file: !3, line: 60, type: !67, isLocal: true, isDefinition: true)
!67 = distinct !DICompositeType(tag: DW_TAG_structure_type, name: "arg<7>", scope: !6, file: !5, line: 28, size: 8, flags: DIFlagTypePassByValue | DIFlagNonTrivial, elements: !68, templateParams: !73, identifier: "_ZTSN5boost3argILi7EEE")
!68 = !{!69}
!69 = !DISubprogram(name: "arg", scope: !67, file: !5, line: 30, type: !70, scopeLine: 30, flags: DIFlagPrototyped, spFlags: 0)
!70 = !DISubroutineType(types: !71)
!71 = !{null, !72}
!72 = !DIDerivedType(tag: DW_TAG_pointer_type, baseType: !67, size: 64, flags: DIFlagArtificial | DIFlagObjectPointer)
!73 = !{!74}
!74 = !DITemplateValueParameter(name: "I", type: !14, value: i32 7)
!75 = !DIGlobalVariableExpression(var: !76, expr: !DIExpression())
!76 = distinct !DIGlobalVariable(name: "_8", linkageName: "_ZN12_GLOBAL__N_12_8E", scope: !2, file: !3, line: 61, type: !77, isLocal: true, isDefinition: true)
!77 = distinct !DICompositeType(tag: DW_TAG_structure_type, name: "arg<8>", scope: !6, file: !5, line: 28, size: 8, flags: DIFlagTypePassByValue | DIFlagNonTrivial, elements: !78, templateParams: !83, identifier: "_ZTSN5boost3argILi8EEE")
!78 = !{!79}
!79 = !DISubprogram(name: "arg", scope: !77, file: !5, line: 30, type: !80, scopeLine: 30, flags: DIFlagPrototyped, spFlags: 0)
!80 = !DISubroutineType(types: !81)
!81 = !{null, !82}
!82 = !DIDerivedType(tag: DW_TAG_pointer_type, baseType: !77, size: 64, flags: DIFlagArtificial | DIFlagObjectPointer)
!83 = !{!84}
!84 = !DITemplateValueParameter(name: "I", type: !14, value: i32 8)
!85 = !DIGlobalVariableExpression(var: !86, expr: !DIExpression())
!86 = distinct !DIGlobalVariable(name: "_9", linkageName: "_ZN12_GLOBAL__N_12_9E", scope: !2, file: !3, line: 62, type: !87, isLocal: true, isDefinition: true)
!87 = distinct !DICompositeType(tag: DW_TAG_structure_type, name: "arg<9>", scope: !6, file: !5, line: 28, size: 8, flags: DIFlagTypePassByValue | DIFlagNonTrivial, elements: !88, templateParams: !93, identifier: "_ZTSN5boost3argILi9EEE")
!88 = !{!89}
!89 = !DISubprogram(name: "arg", scope: !87, file: !5, line: 30, type: !90, scopeLine: 30, flags: DIFlagPrototyped, spFlags: 0)
!90 = !DISubroutineType(types: !91)
!91 = !{null, !92}
!92 = !DIDerivedType(tag: DW_TAG_pointer_type, baseType: !87, size: 64, flags: DIFlagArtificial | DIFlagObjectPointer)
!93 = !{!94}
!94 = !DITemplateValueParameter(name: "I", type: !14, value: i32 9)
!95 = !DIGlobalVariableExpression(var: !96, expr: !DIExpression())
!96 = distinct !DIGlobalVariable(name: "__ioinit", linkageName: "_ZStL8__ioinit", scope: !97, file: !98, line: 74, type: !99, isLocal: true, isDefinition: true)
!97 = !DINamespace(name: "std", scope: null)
!98 = !DIFile(filename: "/usr/lib/gcc/x86_64-linux-gnu/10/../../../../include/c++/10/iostream", directory: "")
!99 = distinct !DICompositeType(tag: DW_TAG_class_type, name: "Init", scope: !101, file: !100, line: 603, size: 8, flags: DIFlagTypePassByReference | DIFlagNonTrivial, elements: !102, identifier: "_ZTSNSt8ios_base4InitE")
!100 = !DIFile(filename: "/usr/lib/gcc/x86_64-linux-gnu/10/../../../../include/c++/10/bits/ios_base.h", directory: "")
!101 = !DICompositeType(tag: DW_TAG_class_type, name: "ios_base", scope: !97, file: !100, line: 228, flags: DIFlagFwdDecl)
!102 = !{!103, !106, !108, !112, !113, !118}
!103 = !DIDerivedType(tag: DW_TAG_member, name: "_S_refcount", scope: !99, file: !100, line: 616, baseType: !104, flags: DIFlagStaticMember)
!104 = !DIDerivedType(tag: DW_TAG_typedef, name: "_Atomic_word", file: !105, line: 32, baseType: !14)
!105 = !DIFile(filename: "/usr/lib/gcc/x86_64-linux-gnu/10/../../../../include/x86_64-linux-gnu/c++/10/bits/atomic_word.h", directory: "")
!106 = !DIDerivedType(tag: DW_TAG_member, name: "_S_synced_with_stdio", scope: !99, file: !100, line: 617, baseType: !107, flags: DIFlagStaticMember)
!107 = !DIBasicType(name: "bool", size: 8, encoding: DW_ATE_boolean)
!108 = !DISubprogram(name: "Init", scope: !99, file: !100, line: 607, type: !109, scopeLine: 607, flags: DIFlagPublic | DIFlagPrototyped, spFlags: 0)
!109 = !DISubroutineType(types: !110)
!110 = !{null, !111}
!111 = !DIDerivedType(tag: DW_TAG_pointer_type, baseType: !99, size: 64, flags: DIFlagArtificial | DIFlagObjectPointer)
!112 = !DISubprogram(name: "~Init", scope: !99, file: !100, line: 608, type: !109, scopeLine: 608, flags: DIFlagPublic | DIFlagPrototyped, spFlags: 0)
!113 = !DISubprogram(name: "Init", scope: !99, file: !100, line: 611, type: !114, scopeLine: 611, flags: DIFlagPublic | DIFlagPrototyped, spFlags: 0)
!114 = !DISubroutineType(types: !115)
!115 = !{null, !111, !116}
!116 = !DIDerivedType(tag: DW_TAG_reference_type, baseType: !117, size: 64)
!117 = !DIDerivedType(tag: DW_TAG_const_type, baseType: !99)
!118 = !DISubprogram(name: "operator=", linkageName: "_ZNSt8ios_base4InitaSERKS0_", scope: !99, file: !100, line: 612, type: !119, scopeLine: 612, flags: DIFlagPublic | DIFlagPrototyped, spFlags: 0)
!119 = !DISubroutineType(types: !120)
!120 = !{!121, !111, !116}
!121 = !DIDerivedType(tag: DW_TAG_reference_type, baseType: !99, size: 64)
!122 = distinct !DICompileUnit(language: DW_LANG_C_plus_plus_14, file: !123, producer: "clang version 10.0.1 (https://github.com/svkeerthy/IR2Vec-LoopOptimizationFramework.git 561ac470e63b728263a0ac06ef987886ac648486)", isOptimized: false, runtimeVersion: 0, emissionKind: FullDebug, enums: !124, retainedTypes: !682, globals: !714, imports: !715, splitDebugInlining: false, nameTableKind: None)
!123 = !DIFile(filename: "source/dofs/dof_objects.cc", directory: "/home/venkat/IF-DV/spec_build_release/CPU_2017/benchspec/CPU/510.parest_r/build/build_base_ld-loop-ext-m64.0000")
!124 = !{!125, !133}
!125 = !DICompositeType(tag: DW_TAG_enumeration_type, name: "_Lock_policy", scope: !127, file: !126, line: 49, baseType: !128, size: 32, elements: !129, identifier: "_ZTSN9__gnu_cxx12_Lock_policyE")
!126 = !DIFile(filename: "/usr/lib/gcc/x86_64-linux-gnu/10/../../../../include/c++/10/ext/concurrence.h", directory: "")
!127 = !DINamespace(name: "__gnu_cxx", scope: null)
!128 = !DIBasicType(name: "unsigned int", size: 32, encoding: DW_ATE_unsigned)
!129 = !{!130, !131, !132}
!130 = !DIEnumerator(name: "_S_single", value: 0, isUnsigned: true)
!131 = !DIEnumerator(name: "_S_mutex", value: 1, isUnsigned: true)
!132 = !DIEnumerator(name: "_S_atomic", value: 2, isUnsigned: true)
!133 = !DICompositeType(tag: DW_TAG_enumeration_type, name: "Conformity", scope: !135, file: !134, line: 227, baseType: !128, size: 32, elements: !675, identifier: "_ZTSN6dealii17FiniteElementDataILi3EE10ConformityE")
!134 = !DIFile(filename: "include/fe/fe_base.h", directory: "/home/venkat/IF-DV/spec_build_release/CPU_2017/benchspec/CPU/510.parest_r/build/build_base_ld-loop-ext-m64.0000")
!135 = distinct !DICompositeType(tag: DW_TAG_class_type, name: "FiniteElementData<3>", scope: !136, file: !134, line: 170, size: 480, flags: DIFlagTypePassByValue | DIFlagNonTrivial, elements: !137, templateParams: !673, identifier: "_ZTSN6dealii17FiniteElementDataILi3EEE")
!136 = !DINamespace(name: "dealii", scope: null)
!137 = !{!138, !140, !141, !142, !143, !144, !145, !146, !147, !148, !149, !150, !151, !152, !153, !154, !156, !160, !647, !652, !653, !654, !655, !656, !657, !658, !659, !660, !663, !666, !669}
!138 = !DIDerivedType(tag: DW_TAG_member, name: "dimension", scope: !135, file: !134, line: 285, baseType: !139, flags: DIFlagPublic | DIFlagStaticMember, extraData: i32 3)
!139 = !DIDerivedType(tag: DW_TAG_const_type, baseType: !128)
!140 = !DIDerivedType(tag: DW_TAG_member, name: "dofs_per_vertex", scope: !135, file: !134, line: 291, baseType: !139, size: 32, flags: DIFlagPublic)
!141 = !DIDerivedType(tag: DW_TAG_member, name: "dofs_per_line", scope: !135, file: !134, line: 298, baseType: !139, size: 32, offset: 32, flags: DIFlagPublic)
!142 = !DIDerivedType(tag: DW_TAG_member, name: "dofs_per_quad", scope: !135, file: !134, line: 307, baseType: !139, size: 32, offset: 64, flags: DIFlagPublic)
!143 = !DIDerivedType(tag: DW_TAG_member, name: "dofs_per_hex", scope: !135, file: !134, line: 316, baseType: !139, size: 32, offset: 96, flags: DIFlagPublic)
!144 = !DIDerivedType(tag: DW_TAG_member, name: "first_line_index", scope: !135, file: !134, line: 321, baseType: !139, size: 32, offset: 128, flags: DIFlagPublic)
!145 = !DIDerivedType(tag: DW_TAG_member, name: "first_quad_index", scope: !135, file: !134, line: 326, baseType: !139, size: 32, offset: 160, flags: DIFlagPublic)
!146 = !DIDerivedType(tag: DW_TAG_member, name: "first_hex_index", scope: !135, file: !134, line: 331, baseType: !139, size: 32, offset: 192, flags: DIFlagPublic)
!147 = !DIDerivedType(tag: DW_TAG_member, name: "first_face_line_index", scope: !135, file: !134, line: 336, baseType: !139, size: 32, offset: 224, flags: DIFlagPublic)
!148 = !DIDerivedType(tag: DW_TAG_member, name: "first_face_quad_index", scope: !135, file: !134, line: 341, baseType: !139, size: 32, offset: 256, flags: DIFlagPublic)
!149 = !DIDerivedType(tag: DW_TAG_member, name: "dofs_per_face", scope: !135, file: !134, line: 352, baseType: !139, size: 32, offset: 288, flags: DIFlagPublic)
!150 = !DIDerivedType(tag: DW_TAG_member, name: "dofs_per_cell", scope: !135, file: !134, line: 363, baseType: !139, size: 32, offset: 320, flags: DIFlagPublic)
!151 = !DIDerivedType(tag: DW_TAG_member, name: "components", scope: !135, file: !134, line: 383, baseType: !139, size: 32, offset: 352, flags: DIFlagPublic)
!152 = !DIDerivedType(tag: DW_TAG_member, name: "blocks", scope: !135, file: !134, line: 395, baseType: !139, size: 32, offset: 384, flags: DIFlagPublic)
!153 = !DIDerivedType(tag: DW_TAG_member, name: "degree", scope: !135, file: !134, line: 402, baseType: !139, size: 32, offset: 416, flags: DIFlagPublic)
!154 = !DIDerivedType(tag: DW_TAG_member, name: "conforming_space", scope: !135, file: !134, line: 407, baseType: !155, size: 32, offset: 448, flags: DIFlagPublic)
!155 = !DIDerivedType(tag: DW_TAG_const_type, baseType: !133)
!156 = !DISubprogram(name: "FiniteElementData", scope: !135, file: !134, line: 417, type: !157, scopeLine: 417, flags: DIFlagPublic | DIFlagPrototyped, spFlags: 0)
!157 = !DISubroutineType(types: !158)
!158 = !{null, !159}
!159 = !DIDerivedType(tag: DW_TAG_pointer_type, baseType: !135, size: 64, flags: DIFlagArtificial | DIFlagObjectPointer)
!160 = !DISubprogram(name: "FiniteElementData", scope: !135, file: !134, line: 444, type: !161, scopeLine: 444, flags: DIFlagPublic | DIFlagPrototyped, spFlags: 0)
!161 = !DISubroutineType(types: !162)
!162 = !{null, !159, !163, !139, !139, !155, !139}
!163 = !DIDerivedType(tag: DW_TAG_reference_type, baseType: !164, size: 64)
!164 = !DIDerivedType(tag: DW_TAG_const_type, baseType: !165)
!165 = distinct !DICompositeType(tag: DW_TAG_class_type, name: "vector<unsigned int, std::allocator<unsigned int> >", scope: !97, file: !166, line: 389, size: 192, flags: DIFlagTypePassByReference | DIFlagNonTrivial, elements: !167, templateParams: !387, identifier: "_ZTSSt6vectorIjSaIjEE")
!166 = !DIFile(filename: "/usr/lib/gcc/x86_64-linux-gnu/10/../../../../include/c++/10/bits/stl_vector.h", directory: "")
!167 = !{!168, !388, !407, !423, !424, !430, !433, !436, !440, !446, !450, !456, !459, !463, !466, !469, !472, !475, !480, !481, !485, !488, !491, !494, !497, !503, !509, !510, !511, !516, !521, !522, !523, !524, !525, !526, !527, !530, !531, !534, !535, !536, !537, !540, !541, !549, !556, !559, !560, !561, !564, !567, !568, !569, !572, !575, !578, !582, !583, !586, !589, !592, !595, !598, !601, !604, !605, !606, !607, !608, !611, !612, !615, !616, !617, !624, !627, !632, !635, !638, !641, !644}
!168 = !DIDerivedType(tag: DW_TAG_inheritance, scope: !165, baseType: !169, flags: DIFlagProtected, extraData: i32 0)
!169 = distinct !DICompositeType(tag: DW_TAG_structure_type, name: "_Vector_base<unsigned int, std::allocator<unsigned int> >", scope: !97, file: !166, line: 84, size: 192, flags: DIFlagTypePassByReference | DIFlagNonTrivial, elements: !170, templateParams: !387, identifier: "_ZTSSt12_Vector_baseIjSaIjEE")
!170 = !{!171, !338, !343, !348, !352, !355, !360, !363, !366, !370, !373, !376, !379, !380, !383, !386}
!171 = !DIDerivedType(tag: DW_TAG_member, name: "_M_impl", scope: !169, file: !166, line: 340, baseType: !172, size: 192)
!172 = distinct !DICompositeType(tag: DW_TAG_structure_type, name: "_Vector_impl", scope: !169, file: !166, line: 128, size: 192, flags: DIFlagTypePassByReference | DIFlagNonTrivial, elements: !173, identifier: "_ZTSNSt12_Vector_baseIjSaIjEE12_Vector_implE")
!173 = !{!174, !293, !318, !322, !327, !331, !335}
!174 = !DIDerivedType(tag: DW_TAG_inheritance, scope: !172, baseType: !175, extraData: i32 0)
!175 = !DIDerivedType(tag: DW_TAG_typedef, name: "_Tp_alloc_type", scope: !169, file: !166, line: 87, baseType: !176)
!176 = !DIDerivedType(tag: DW_TAG_typedef, name: "other", scope: !178, file: !177, line: 120, baseType: !292)
!177 = !DIFile(filename: "/usr/lib/gcc/x86_64-linux-gnu/10/../../../../include/c++/10/ext/alloc_traits.h", directory: "")
!178 = distinct !DICompositeType(tag: DW_TAG_structure_type, name: "rebind<unsigned int>", scope: !179, file: !177, line: 119, size: 8, flags: DIFlagTypePassByValue, elements: !291, templateParams: !241, identifier: "_ZTSN9__gnu_cxx14__alloc_traitsISaIjEjE6rebindIjEE")
!179 = distinct !DICompositeType(tag: DW_TAG_structure_type, name: "__alloc_traits<std::allocator<unsigned int>, unsigned int>", scope: !127, file: !177, line: 48, size: 8, flags: DIFlagTypePassByValue, elements: !180, templateParams: !289, identifier: "_ZTSN9__gnu_cxx14__alloc_traitsISaIjEjEE")
!180 = !{!181, !276, !279, !282, !285, !286, !287, !288}
!181 = !DIDerivedType(tag: DW_TAG_inheritance, scope: !179, baseType: !182, extraData: i32 0)
!182 = distinct !DICompositeType(tag: DW_TAG_structure_type, name: "allocator_traits<std::allocator<unsigned int> >", scope: !97, file: !183, line: 407, size: 8, flags: DIFlagTypePassByValue, elements: !184, templateParams: !274, identifier: "_ZTSSt16allocator_traitsISaIjEE")
!183 = !DIFile(filename: "/usr/lib/gcc/x86_64-linux-gnu/10/../../../../include/c++/10/bits/alloc_traits.h", directory: "")
!184 = !{!185, !258, !262, !265, !271}
!185 = !DISubprogram(name: "allocate", linkageName: "_ZNSt16allocator_traitsISaIjEE8allocateERS0_m", scope: !182, file: !183, line: 459, type: !186, scopeLine: 459, flags: DIFlagPrototyped | DIFlagStaticMember, spFlags: 0)
!186 = !DISubroutineType(types: !187)
!187 = !{!188, !190, !257}
!188 = !DIDerivedType(tag: DW_TAG_typedef, name: "pointer", scope: !182, file: !183, line: 416, baseType: !189)
!189 = !DIDerivedType(tag: DW_TAG_pointer_type, baseType: !128, size: 64)
!190 = !DIDerivedType(tag: DW_TAG_reference_type, baseType: !191, size: 64)
!191 = !DIDerivedType(tag: DW_TAG_typedef, name: "allocator_type", scope: !182, file: !183, line: 410, baseType: !192)
!192 = distinct !DICompositeType(tag: DW_TAG_class_type, name: "allocator<unsigned int>", scope: !97, file: !193, line: 116, size: 8, flags: DIFlagTypePassByReference | DIFlagNonTrivial, elements: !194, templateParams: !241, identifier: "_ZTSSaIjE")
!193 = !DIFile(filename: "/usr/lib/gcc/x86_64-linux-gnu/10/../../../../include/c++/10/bits/allocator.h", directory: "")
!194 = !{!195, !243, !247, !252, !256}
!195 = !DIDerivedType(tag: DW_TAG_inheritance, scope: !192, baseType: !196, flags: DIFlagPublic, extraData: i32 0)
!196 = !DIDerivedType(tag: DW_TAG_typedef, name: "__allocator_base<unsigned int>", scope: !97, file: !197, line: 48, baseType: !198)
!197 = !DIFile(filename: "/usr/lib/gcc/x86_64-linux-gnu/10/../../../../include/x86_64-linux-gnu/c++/10/bits/c++allocator.h", directory: "")
!198 = distinct !DICompositeType(tag: DW_TAG_class_type, name: "new_allocator<unsigned int>", scope: !127, file: !199, line: 55, size: 8, flags: DIFlagTypePassByReference | DIFlagNonTrivial, elements: !200, templateParams: !241, identifier: "_ZTSN9__gnu_cxx13new_allocatorIjEE")
!199 = !DIFile(filename: "/usr/lib/gcc/x86_64-linux-gnu/10/../../../../include/c++/10/ext/new_allocator.h", directory: "")
!200 = !{!201, !205, !210, !211, !218, !225, !234, !237, !240}
!201 = !DISubprogram(name: "new_allocator", scope: !198, file: !199, line: 79, type: !202, scopeLine: 79, flags: DIFlagPublic | DIFlagPrototyped, spFlags: 0)
!202 = !DISubroutineType(types: !203)
!203 = !{null, !204}
!204 = !DIDerivedType(tag: DW_TAG_pointer_type, baseType: !198, size: 64, flags: DIFlagArtificial | DIFlagObjectPointer)
!205 = !DISubprogram(name: "new_allocator", scope: !198, file: !199, line: 82, type: !206, scopeLine: 82, flags: DIFlagPublic | DIFlagPrototyped, spFlags: 0)
!206 = !DISubroutineType(types: !207)
!207 = !{null, !204, !208}
!208 = !DIDerivedType(tag: DW_TAG_reference_type, baseType: !209, size: 64)
!209 = !DIDerivedType(tag: DW_TAG_const_type, baseType: !198)
!210 = !DISubprogram(name: "~new_allocator", scope: !198, file: !199, line: 89, type: !202, scopeLine: 89, flags: DIFlagPublic | DIFlagPrototyped, spFlags: 0)
!211 = !DISubprogram(name: "address", linkageName: "_ZNK9__gnu_cxx13new_allocatorIjE7addressERj", scope: !198, file: !199, line: 92, type: !212, scopeLine: 92, flags: DIFlagPublic | DIFlagPrototyped, spFlags: 0)
!212 = !DISubroutineType(types: !213)
!213 = !{!214, !215, !216}
!214 = !DIDerivedType(tag: DW_TAG_typedef, name: "pointer", scope: !198, file: !199, line: 62, baseType: !189)
!215 = !DIDerivedType(tag: DW_TAG_pointer_type, baseType: !209, size: 64, flags: DIFlagArtificial | DIFlagObjectPointer)
!216 = !DIDerivedType(tag: DW_TAG_typedef, name: "reference", scope: !198, file: !199, line: 64, baseType: !217)
!217 = !DIDerivedType(tag: DW_TAG_reference_type, baseType: !128, size: 64)
!218 = !DISubprogram(name: "address", linkageName: "_ZNK9__gnu_cxx13new_allocatorIjE7addressERKj", scope: !198, file: !199, line: 96, type: !219, scopeLine: 96, flags: DIFlagPublic | DIFlagPrototyped, spFlags: 0)
!219 = !DISubroutineType(types: !220)
!220 = !{!221, !215, !223}
!221 = !DIDerivedType(tag: DW_TAG_typedef, name: "const_pointer", scope: !198, file: !199, line: 63, baseType: !222)
!222 = !DIDerivedType(tag: DW_TAG_pointer_type, baseType: !139, size: 64)
!223 = !DIDerivedType(tag: DW_TAG_typedef, name: "const_reference", scope: !198, file: !199, line: 65, baseType: !224)
!224 = !DIDerivedType(tag: DW_TAG_reference_type, baseType: !139, size: 64)
!225 = !DISubprogram(name: "allocate", linkageName: "_ZN9__gnu_cxx13new_allocatorIjE8allocateEmPKv", scope: !198, file: !199, line: 103, type: !226, scopeLine: 103, flags: DIFlagPublic | DIFlagPrototyped, spFlags: 0)
!226 = !DISubroutineType(types: !227)
!227 = !{!189, !204, !228, !232}
!228 = !DIDerivedType(tag: DW_TAG_typedef, name: "size_type", file: !199, line: 59, baseType: !229)
!229 = !DIDerivedType(tag: DW_TAG_typedef, name: "size_t", scope: !97, file: !230, line: 260, baseType: !231)
!230 = !DIFile(filename: "/usr/lib/gcc/x86_64-linux-gnu/10/../../../../include/x86_64-linux-gnu/c++/10/bits/c++config.h", directory: "")
!231 = !DIBasicType(name: "long unsigned int", size: 64, encoding: DW_ATE_unsigned)
!232 = !DIDerivedType(tag: DW_TAG_pointer_type, baseType: !233, size: 64)
!233 = !DIDerivedType(tag: DW_TAG_const_type, baseType: null)
!234 = !DISubprogram(name: "deallocate", linkageName: "_ZN9__gnu_cxx13new_allocatorIjE10deallocateEPjm", scope: !198, file: !199, line: 120, type: !235, scopeLine: 120, flags: DIFlagPublic | DIFlagPrototyped, spFlags: 0)
!235 = !DISubroutineType(types: !236)
!236 = !{null, !204, !189, !228}
!237 = !DISubprogram(name: "max_size", linkageName: "_ZNK9__gnu_cxx13new_allocatorIjE8max_sizeEv", scope: !198, file: !199, line: 142, type: !238, scopeLine: 142, flags: DIFlagPublic | DIFlagPrototyped, spFlags: 0)
!238 = !DISubroutineType(types: !239)
!239 = !{!228, !215}
!240 = !DISubprogram(name: "_M_max_size", linkageName: "_ZNK9__gnu_cxx13new_allocatorIjE11_M_max_sizeEv", scope: !198, file: !199, line: 185, type: !238, scopeLine: 185, flags: DIFlagPrototyped, spFlags: 0)
!241 = !{!242}
!242 = !DITemplateTypeParameter(name: "_Tp", type: !128)
!243 = !DISubprogram(name: "allocator", scope: !192, file: !193, line: 144, type: !244, scopeLine: 144, flags: DIFlagPublic | DIFlagPrototyped, spFlags: 0)
!244 = !DISubroutineType(types: !245)
!245 = !{null, !246}
!246 = !DIDerivedType(tag: DW_TAG_pointer_type, baseType: !192, size: 64, flags: DIFlagArtificial | DIFlagObjectPointer)
!247 = !DISubprogram(name: "allocator", scope: !192, file: !193, line: 147, type: !248, scopeLine: 147, flags: DIFlagPublic | DIFlagPrototyped, spFlags: 0)
!248 = !DISubroutineType(types: !249)
!249 = !{null, !246, !250}
!250 = !DIDerivedType(tag: DW_TAG_reference_type, baseType: !251, size: 64)
!251 = !DIDerivedType(tag: DW_TAG_const_type, baseType: !192)
!252 = !DISubprogram(name: "operator=", linkageName: "_ZNSaIjEaSERKS_", scope: !192, file: !193, line: 152, type: !253, scopeLine: 152, flags: DIFlagPublic | DIFlagPrototyped, spFlags: 0)
!253 = !DISubroutineType(types: !254)
!254 = !{!255, !246, !250}
!255 = !DIDerivedType(tag: DW_TAG_reference_type, baseType: !192, size: 64)
!256 = !DISubprogram(name: "~allocator", scope: !192, file: !193, line: 162, type: !244, scopeLine: 162, flags: DIFlagPublic | DIFlagPrototyped, spFlags: 0)
!257 = !DIDerivedType(tag: DW_TAG_typedef, name: "size_type", file: !183, line: 431, baseType: !229)
!258 = !DISubprogram(name: "allocate", linkageName: "_ZNSt16allocator_traitsISaIjEE8allocateERS0_mPKv", scope: !182, file: !183, line: 473, type: !259, scopeLine: 473, flags: DIFlagPrototyped | DIFlagStaticMember, spFlags: 0)
!259 = !DISubroutineType(types: !260)
!260 = !{!188, !190, !257, !261}
!261 = !DIDerivedType(tag: DW_TAG_typedef, name: "const_void_pointer", file: !183, line: 425, baseType: !232)
!262 = !DISubprogram(name: "deallocate", linkageName: "_ZNSt16allocator_traitsISaIjEE10deallocateERS0_Pjm", scope: !182, file: !183, line: 491, type: !263, scopeLine: 491, flags: DIFlagPrototyped | DIFlagStaticMember, spFlags: 0)
!263 = !DISubroutineType(types: !264)
!264 = !{null, !190, !188, !257}
!265 = !DISubprogram(name: "max_size", linkageName: "_ZNSt16allocator_traitsISaIjEE8max_sizeERKS0_", scope: !182, file: !183, line: 543, type: !266, scopeLine: 543, flags: DIFlagPrototyped | DIFlagStaticMember, spFlags: 0)
!266 = !DISubroutineType(types: !267)
!267 = !{!268, !269}
!268 = !DIDerivedType(tag: DW_TAG_typedef, name: "size_type", scope: !182, file: !183, line: 431, baseType: !229)
!269 = !DIDerivedType(tag: DW_TAG_reference_type, baseType: !270, size: 64)
!270 = !DIDerivedType(tag: DW_TAG_const_type, baseType: !191)
!271 = !DISubprogram(name: "select_on_container_copy_construction", linkageName: "_ZNSt16allocator_traitsISaIjEE37select_on_container_copy_constructionERKS0_", scope: !182, file: !183, line: 558, type: !272, scopeLine: 558, flags: DIFlagPrototyped | DIFlagStaticMember, spFlags: 0)
!272 = !DISubroutineType(types: !273)
!273 = !{!191, !269}
!274 = !{!275}
!275 = !DITemplateTypeParameter(name: "_Alloc", type: !192)
!276 = !DISubprogram(name: "_S_select_on_copy", linkageName: "_ZN9__gnu_cxx14__alloc_traitsISaIjEjE17_S_select_on_copyERKS1_", scope: !179, file: !177, line: 97, type: !277, scopeLine: 97, flags: DIFlagPrototyped | DIFlagStaticMember, spFlags: 0)
!277 = !DISubroutineType(types: !278)
!278 = !{!192, !250}
!279 = !DISubprogram(name: "_S_on_swap", linkageName: "_ZN9__gnu_cxx14__alloc_traitsISaIjEjE10_S_on_swapERS1_S3_", scope: !179, file: !177, line: 100, type: !280, scopeLine: 100, flags: DIFlagPrototyped | DIFlagStaticMember, spFlags: 0)
!280 = !DISubroutineType(types: !281)
!281 = !{null, !255, !255}
!282 = !DISubprogram(name: "_S_propagate_on_copy_assign", linkageName: "_ZN9__gnu_cxx14__alloc_traitsISaIjEjE27_S_propagate_on_copy_assignEv", scope: !179, file: !177, line: 103, type: !283, scopeLine: 103, flags: DIFlagPrototyped | DIFlagStaticMember, spFlags: 0)
!283 = !DISubroutineType(types: !284)
!284 = !{!107}
!285 = !DISubprogram(name: "_S_propagate_on_move_assign", linkageName: "_ZN9__gnu_cxx14__alloc_traitsISaIjEjE27_S_propagate_on_move_assignEv", scope: !179, file: !177, line: 106, type: !283, scopeLine: 106, flags: DIFlagPrototyped | DIFlagStaticMember, spFlags: 0)
!286 = !DISubprogram(name: "_S_propagate_on_swap", linkageName: "_ZN9__gnu_cxx14__alloc_traitsISaIjEjE20_S_propagate_on_swapEv", scope: !179, file: !177, line: 109, type: !283, scopeLine: 109, flags: DIFlagPrototyped | DIFlagStaticMember, spFlags: 0)
!287 = !DISubprogram(name: "_S_always_equal", linkageName: "_ZN9__gnu_cxx14__alloc_traitsISaIjEjE15_S_always_equalEv", scope: !179, file: !177, line: 112, type: !283, scopeLine: 112, flags: DIFlagPrototyped | DIFlagStaticMember, spFlags: 0)
!288 = !DISubprogram(name: "_S_nothrow_move", linkageName: "_ZN9__gnu_cxx14__alloc_traitsISaIjEjE15_S_nothrow_moveEv", scope: !179, file: !177, line: 115, type: !283, scopeLine: 115, flags: DIFlagPrototyped | DIFlagStaticMember, spFlags: 0)
!289 = !{!275, !290}
!290 = !DITemplateTypeParameter(type: !128)
!291 = !{}
!292 = !DIDerivedType(tag: DW_TAG_typedef, name: "rebind_alloc<unsigned int>", scope: !182, file: !183, line: 446, baseType: !192)
!293 = !DIDerivedType(tag: DW_TAG_inheritance, scope: !172, baseType: !294, extraData: i32 0)
!294 = distinct !DICompositeType(tag: DW_TAG_structure_type, name: "_Vector_impl_data", scope: !169, file: !166, line: 91, size: 192, flags: DIFlagTypePassByReference | DIFlagNonTrivial, elements: !295, identifier: "_ZTSNSt12_Vector_baseIjSaIjEE17_Vector_impl_dataE")
!295 = !{!296, !299, !300, !301, !305, !309, !314}
!296 = !DIDerivedType(tag: DW_TAG_member, name: "_M_start", scope: !294, file: !166, line: 93, baseType: !297, size: 64)
!297 = !DIDerivedType(tag: DW_TAG_typedef, name: "pointer", scope: !169, file: !166, line: 89, baseType: !298)
!298 = !DIDerivedType(tag: DW_TAG_typedef, name: "pointer", scope: !179, file: !177, line: 57, baseType: !188)
!299 = !DIDerivedType(tag: DW_TAG_member, name: "_M_finish", scope: !294, file: !166, line: 94, baseType: !297, size: 64, offset: 64)
!300 = !DIDerivedType(tag: DW_TAG_member, name: "_M_end_of_storage", scope: !294, file: !166, line: 95, baseType: !297, size: 64, offset: 128)
!301 = !DISubprogram(name: "_Vector_impl_data", scope: !294, file: !166, line: 97, type: !302, scopeLine: 97, flags: DIFlagPrototyped, spFlags: 0)
!302 = !DISubroutineType(types: !303)
!303 = !{null, !304}
!304 = !DIDerivedType(tag: DW_TAG_pointer_type, baseType: !294, size: 64, flags: DIFlagArtificial | DIFlagObjectPointer)
!305 = !DISubprogram(name: "_Vector_impl_data", scope: !294, file: !166, line: 102, type: !306, scopeLine: 102, flags: DIFlagPrototyped, spFlags: 0)
!306 = !DISubroutineType(types: !307)
!307 = !{null, !304, !308}
!308 = !DIDerivedType(tag: DW_TAG_rvalue_reference_type, baseType: !294, size: 64)
!309 = !DISubprogram(name: "_M_copy_data", linkageName: "_ZNSt12_Vector_baseIjSaIjEE17_Vector_impl_data12_M_copy_dataERKS2_", scope: !294, file: !166, line: 109, type: !310, scopeLine: 109, flags: DIFlagPrototyped, spFlags: 0)
!310 = !DISubroutineType(types: !311)
!311 = !{null, !304, !312}
!312 = !DIDerivedType(tag: DW_TAG_reference_type, baseType: !313, size: 64)
!313 = !DIDerivedType(tag: DW_TAG_const_type, baseType: !294)
!314 = !DISubprogram(name: "_M_swap_data", linkageName: "_ZNSt12_Vector_baseIjSaIjEE17_Vector_impl_data12_M_swap_dataERS2_", scope: !294, file: !166, line: 117, type: !315, scopeLine: 117, flags: DIFlagPrototyped, spFlags: 0)
!315 = !DISubroutineType(types: !316)
!316 = !{null, !304, !317}
!317 = !DIDerivedType(tag: DW_TAG_reference_type, baseType: !294, size: 64)
!318 = !DISubprogram(name: "_Vector_impl", scope: !172, file: !166, line: 131, type: !319, scopeLine: 131, flags: DIFlagPrototyped, spFlags: 0)
!319 = !DISubroutineType(types: !320)
!320 = !{null, !321}
!321 = !DIDerivedType(tag: DW_TAG_pointer_type, baseType: !172, size: 64, flags: DIFlagArtificial | DIFlagObjectPointer)
!322 = !DISubprogram(name: "_Vector_impl", scope: !172, file: !166, line: 136, type: !323, scopeLine: 136, flags: DIFlagPrototyped, spFlags: 0)
!323 = !DISubroutineType(types: !324)
!324 = !{null, !321, !325}
!325 = !DIDerivedType(tag: DW_TAG_reference_type, baseType: !326, size: 64)
!326 = !DIDerivedType(tag: DW_TAG_const_type, baseType: !175)
!327 = !DISubprogram(name: "_Vector_impl", scope: !172, file: !166, line: 143, type: !328, scopeLine: 143, flags: DIFlagPrototyped, spFlags: 0)
!328 = !DISubroutineType(types: !329)
!329 = !{null, !321, !330}
!330 = !DIDerivedType(tag: DW_TAG_rvalue_reference_type, baseType: !172, size: 64)
!331 = !DISubprogram(name: "_Vector_impl", scope: !172, file: !166, line: 147, type: !332, scopeLine: 147, flags: DIFlagPrototyped, spFlags: 0)
!332 = !DISubroutineType(types: !333)
!333 = !{null, !321, !334}
!334 = !DIDerivedType(tag: DW_TAG_rvalue_reference_type, baseType: !175, size: 64)
!335 = !DISubprogram(name: "_Vector_impl", scope: !172, file: !166, line: 151, type: !336, scopeLine: 151, flags: DIFlagPrototyped, spFlags: 0)
!336 = !DISubroutineType(types: !337)
!337 = !{null, !321, !334, !330}
!338 = !DISubprogram(name: "_M_get_Tp_allocator", linkageName: "_ZNSt12_Vector_baseIjSaIjEE19_M_get_Tp_allocatorEv", scope: !169, file: !166, line: 276, type: !339, scopeLine: 276, flags: DIFlagPrototyped, spFlags: 0)
!339 = !DISubroutineType(types: !340)
!340 = !{!341, !342}
!341 = !DIDerivedType(tag: DW_TAG_reference_type, baseType: !175, size: 64)
!342 = !DIDerivedType(tag: DW_TAG_pointer_type, baseType: !169, size: 64, flags: DIFlagArtificial | DIFlagObjectPointer)
!343 = !DISubprogram(name: "_M_get_Tp_allocator", linkageName: "_ZNKSt12_Vector_baseIjSaIjEE19_M_get_Tp_allocatorEv", scope: !169, file: !166, line: 280, type: !344, scopeLine: 280, flags: DIFlagPrototyped, spFlags: 0)
!344 = !DISubroutineType(types: !345)
!345 = !{!325, !346}
!346 = !DIDerivedType(tag: DW_TAG_pointer_type, baseType: !347, size: 64, flags: DIFlagArtificial | DIFlagObjectPointer)
!347 = !DIDerivedType(tag: DW_TAG_const_type, baseType: !169)
!348 = !DISubprogram(name: "get_allocator", linkageName: "_ZNKSt12_Vector_baseIjSaIjEE13get_allocatorEv", scope: !169, file: !166, line: 284, type: !349, scopeLine: 284, flags: DIFlagPrototyped, spFlags: 0)
!349 = !DISubroutineType(types: !350)
!350 = !{!351, !346}
!351 = !DIDerivedType(tag: DW_TAG_typedef, name: "allocator_type", scope: !169, file: !166, line: 273, baseType: !192)
!352 = !DISubprogram(name: "_Vector_base", scope: !169, file: !166, line: 288, type: !353, scopeLine: 288, flags: DIFlagPrototyped, spFlags: 0)
!353 = !DISubroutineType(types: !354)
!354 = !{null, !342}
!355 = !DISubprogram(name: "_Vector_base", scope: !169, file: !166, line: 293, type: !356, scopeLine: 293, flags: DIFlagPrototyped, spFlags: 0)
!356 = !DISubroutineType(types: !357)
!357 = !{null, !342, !358}
!358 = !DIDerivedType(tag: DW_TAG_reference_type, baseType: !359, size: 64)
!359 = !DIDerivedType(tag: DW_TAG_const_type, baseType: !351)
!360 = !DISubprogram(name: "_Vector_base", scope: !169, file: !166, line: 298, type: !361, scopeLine: 298, flags: DIFlagPrototyped, spFlags: 0)
!361 = !DISubroutineType(types: !362)
!362 = !{null, !342, !229}
!363 = !DISubprogram(name: "_Vector_base", scope: !169, file: !166, line: 303, type: !364, scopeLine: 303, flags: DIFlagPrototyped, spFlags: 0)
!364 = !DISubroutineType(types: !365)
!365 = !{null, !342, !229, !358}
!366 = !DISubprogram(name: "_Vector_base", scope: !169, file: !166, line: 308, type: !367, scopeLine: 308, flags: DIFlagPrototyped, spFlags: 0)
!367 = !DISubroutineType(types: !368)
!368 = !{null, !342, !369}
!369 = !DIDerivedType(tag: DW_TAG_rvalue_reference_type, baseType: !169, size: 64)
!370 = !DISubprogram(name: "_Vector_base", scope: !169, file: !166, line: 312, type: !371, scopeLine: 312, flags: DIFlagPrototyped, spFlags: 0)
!371 = !DISubroutineType(types: !372)
!372 = !{null, !342, !334}
!373 = !DISubprogram(name: "_Vector_base", scope: !169, file: !166, line: 315, type: !374, scopeLine: 315, flags: DIFlagPrototyped, spFlags: 0)
!374 = !DISubroutineType(types: !375)
!375 = !{null, !342, !369, !358}
!376 = !DISubprogram(name: "_Vector_base", scope: !169, file: !166, line: 328, type: !377, scopeLine: 328, flags: DIFlagPrototyped, spFlags: 0)
!377 = !DISubroutineType(types: !378)
!378 = !{null, !342, !358, !369}
!379 = !DISubprogram(name: "~_Vector_base", scope: !169, file: !166, line: 333, type: !353, scopeLine: 333, flags: DIFlagPrototyped, spFlags: 0)
!380 = !DISubprogram(name: "_M_allocate", linkageName: "_ZNSt12_Vector_baseIjSaIjEE11_M_allocateEm", scope: !169, file: !166, line: 343, type: !381, scopeLine: 343, flags: DIFlagPrototyped, spFlags: 0)
!381 = !DISubroutineType(types: !382)
!382 = !{!297, !342, !229}
!383 = !DISubprogram(name: "_M_deallocate", linkageName: "_ZNSt12_Vector_baseIjSaIjEE13_M_deallocateEPjm", scope: !169, file: !166, line: 350, type: !384, scopeLine: 350, flags: DIFlagPrototyped, spFlags: 0)
!384 = !DISubroutineType(types: !385)
!385 = !{null, !342, !297, !229}
!386 = !DISubprogram(name: "_M_create_storage", linkageName: "_ZNSt12_Vector_baseIjSaIjEE17_M_create_storageEm", scope: !169, file: !166, line: 359, type: !361, scopeLine: 359, flags: DIFlagProtected | DIFlagPrototyped, spFlags: 0)
!387 = !{!242, !275}
!388 = !DISubprogram(name: "_S_nothrow_relocate", linkageName: "_ZNSt6vectorIjSaIjEE19_S_nothrow_relocateESt17integral_constantIbLb1EE", scope: !165, file: !166, line: 431, type: !389, scopeLine: 431, flags: DIFlagPrototyped | DIFlagStaticMember, spFlags: 0)
!389 = !DISubroutineType(types: !390)
!390 = !{!107, !391}
!391 = !DIDerivedType(tag: DW_TAG_typedef, name: "true_type", scope: !97, file: !392, line: 75, baseType: !393)
!392 = !DIFile(filename: "/usr/lib/gcc/x86_64-linux-gnu/10/../../../../include/c++/10/type_traits", directory: "")
!393 = distinct !DICompositeType(tag: DW_TAG_structure_type, name: "integral_constant<bool, true>", scope: !97, file: !392, line: 57, size: 8, flags: DIFlagTypePassByValue, elements: !394, templateParams: !404, identifier: "_ZTSSt17integral_constantIbLb1EE")
!394 = !{!395, !397, !403}
!395 = !DIDerivedType(tag: DW_TAG_member, name: "value", scope: !393, file: !392, line: 59, baseType: !396, flags: DIFlagStaticMember, extraData: i1 true)
!396 = !DIDerivedType(tag: DW_TAG_const_type, baseType: !107)
!397 = !DISubprogram(name: "operator bool", linkageName: "_ZNKSt17integral_constantIbLb1EEcvbEv", scope: !393, file: !392, line: 62, type: !398, scopeLine: 62, flags: DIFlagPrototyped, spFlags: 0)
!398 = !DISubroutineType(types: !399)
!399 = !{!400, !401}
!400 = !DIDerivedType(tag: DW_TAG_typedef, name: "value_type", scope: !393, file: !392, line: 60, baseType: !107)
!401 = !DIDerivedType(tag: DW_TAG_pointer_type, baseType: !402, size: 64, flags: DIFlagArtificial | DIFlagObjectPointer)
!402 = !DIDerivedType(tag: DW_TAG_const_type, baseType: !393)
!403 = !DISubprogram(name: "operator()", linkageName: "_ZNKSt17integral_constantIbLb1EEclEv", scope: !393, file: !392, line: 67, type: !398, scopeLine: 67, flags: DIFlagPrototyped, spFlags: 0)
!404 = !{!405, !406}
!405 = !DITemplateTypeParameter(name: "_Tp", type: !107)
!406 = !DITemplateValueParameter(name: "__v", type: !107, value: i8 1)
!407 = !DISubprogram(name: "_S_nothrow_relocate", linkageName: "_ZNSt6vectorIjSaIjEE19_S_nothrow_relocateESt17integral_constantIbLb0EE", scope: !165, file: !166, line: 440, type: !408, scopeLine: 440, flags: DIFlagPrototyped | DIFlagStaticMember, spFlags: 0)
!408 = !DISubroutineType(types: !409)
!409 = !{!107, !410}
!410 = !DIDerivedType(tag: DW_TAG_typedef, name: "false_type", scope: !97, file: !392, line: 78, baseType: !411)
!411 = distinct !DICompositeType(tag: DW_TAG_structure_type, name: "integral_constant<bool, false>", scope: !97, file: !392, line: 57, size: 8, flags: DIFlagTypePassByValue, elements: !412, templateParams: !421, identifier: "_ZTSSt17integral_constantIbLb0EE")
!412 = !{!413, !414, !420}
!413 = !DIDerivedType(tag: DW_TAG_member, name: "value", scope: !411, file: !392, line: 59, baseType: !396, flags: DIFlagStaticMember, extraData: i1 false)
!414 = !DISubprogram(name: "operator bool", linkageName: "_ZNKSt17integral_constantIbLb0EEcvbEv", scope: !411, file: !392, line: 62, type: !415, scopeLine: 62, flags: DIFlagPrototyped, spFlags: 0)
!415 = !DISubroutineType(types: !416)
!416 = !{!417, !418}
!417 = !DIDerivedType(tag: DW_TAG_typedef, name: "value_type", scope: !411, file: !392, line: 60, baseType: !107)
!418 = !DIDerivedType(tag: DW_TAG_pointer_type, baseType: !419, size: 64, flags: DIFlagArtificial | DIFlagObjectPointer)
!419 = !DIDerivedType(tag: DW_TAG_const_type, baseType: !411)
!420 = !DISubprogram(name: "operator()", linkageName: "_ZNKSt17integral_constantIbLb0EEclEv", scope: !411, file: !392, line: 67, type: !415, scopeLine: 67, flags: DIFlagPrototyped, spFlags: 0)
!421 = !{!405, !422}
!422 = !DITemplateValueParameter(name: "__v", type: !107, value: i8 0)
!423 = !DISubprogram(name: "_S_use_relocate", linkageName: "_ZNSt6vectorIjSaIjEE15_S_use_relocateEv", scope: !165, file: !166, line: 444, type: !283, scopeLine: 444, flags: DIFlagPrototyped | DIFlagStaticMember, spFlags: 0)
!424 = !DISubprogram(name: "_S_do_relocate", linkageName: "_ZNSt6vectorIjSaIjEE14_S_do_relocateEPjS2_S2_RS0_St17integral_constantIbLb1EE", scope: !165, file: !166, line: 453, type: !425, scopeLine: 453, flags: DIFlagPrototyped | DIFlagStaticMember, spFlags: 0)
!425 = !DISubroutineType(types: !426)
!426 = !{!427, !427, !427, !427, !428, !391}
!427 = !DIDerivedType(tag: DW_TAG_typedef, name: "pointer", scope: !165, file: !166, line: 415, baseType: !297)
!428 = !DIDerivedType(tag: DW_TAG_reference_type, baseType: !429, size: 64)
!429 = !DIDerivedType(tag: DW_TAG_typedef, name: "_Tp_alloc_type", scope: !165, file: !166, line: 410, baseType: !175)
!430 = !DISubprogram(name: "_S_do_relocate", linkageName: "_ZNSt6vectorIjSaIjEE14_S_do_relocateEPjS2_S2_RS0_St17integral_constantIbLb0EE", scope: !165, file: !166, line: 460, type: !431, scopeLine: 460, flags: DIFlagPrototyped | DIFlagStaticMember, spFlags: 0)
!431 = !DISubroutineType(types: !432)
!432 = !{!427, !427, !427, !427, !428, !410}
!433 = !DISubprogram(name: "_S_relocate", linkageName: "_ZNSt6vectorIjSaIjEE11_S_relocateEPjS2_S2_RS0_", scope: !165, file: !166, line: 465, type: !434, scopeLine: 465, flags: DIFlagPrototyped | DIFlagStaticMember, spFlags: 0)
!434 = !DISubroutineType(types: !435)
!435 = !{!427, !427, !427, !427, !428}
!436 = !DISubprogram(name: "vector", scope: !165, file: !166, line: 487, type: !437, scopeLine: 487, flags: DIFlagPublic | DIFlagPrototyped, spFlags: 0)
!437 = !DISubroutineType(types: !438)
!438 = !{null, !439}
!439 = !DIDerivedType(tag: DW_TAG_pointer_type, baseType: !165, size: 64, flags: DIFlagArtificial | DIFlagObjectPointer)
!440 = !DISubprogram(name: "vector", scope: !165, file: !166, line: 497, type: !441, scopeLine: 497, flags: DIFlagPublic | DIFlagExplicit | DIFlagPrototyped, spFlags: 0)
!441 = !DISubroutineType(types: !442)
!442 = !{null, !439, !443}
!443 = !DIDerivedType(tag: DW_TAG_reference_type, baseType: !444, size: 64)
!444 = !DIDerivedType(tag: DW_TAG_const_type, baseType: !445)
!445 = !DIDerivedType(tag: DW_TAG_typedef, name: "allocator_type", scope: !165, file: !166, line: 426, baseType: !192)
!446 = !DISubprogram(name: "vector", scope: !165, file: !166, line: 510, type: !447, scopeLine: 510, flags: DIFlagPublic | DIFlagExplicit | DIFlagPrototyped, spFlags: 0)
!447 = !DISubroutineType(types: !448)
!448 = !{null, !439, !449, !443}
!449 = !DIDerivedType(tag: DW_TAG_typedef, name: "size_type", file: !166, line: 424, baseType: !229)
!450 = !DISubprogram(name: "vector", scope: !165, file: !166, line: 522, type: !451, scopeLine: 522, flags: DIFlagPublic | DIFlagPrototyped, spFlags: 0)
!451 = !DISubroutineType(types: !452)
!452 = !{null, !439, !449, !453, !443}
!453 = !DIDerivedType(tag: DW_TAG_reference_type, baseType: !454, size: 64)
!454 = !DIDerivedType(tag: DW_TAG_const_type, baseType: !455)
!455 = !DIDerivedType(tag: DW_TAG_typedef, name: "value_type", scope: !165, file: !166, line: 414, baseType: !128)
!456 = !DISubprogram(name: "vector", scope: !165, file: !166, line: 553, type: !457, scopeLine: 553, flags: DIFlagPublic | DIFlagPrototyped, spFlags: 0)
!457 = !DISubroutineType(types: !458)
!458 = !{null, !439, !163}
!459 = !DISubprogram(name: "vector", scope: !165, file: !166, line: 572, type: !460, scopeLine: 572, flags: DIFlagPublic | DIFlagPrototyped, spFlags: 0)
!460 = !DISubroutineType(types: !461)
!461 = !{null, !439, !462}
!462 = !DIDerivedType(tag: DW_TAG_rvalue_reference_type, baseType: !165, size: 64)
!463 = !DISubprogram(name: "vector", scope: !165, file: !166, line: 575, type: !464, scopeLine: 575, flags: DIFlagPublic | DIFlagPrototyped, spFlags: 0)
!464 = !DISubroutineType(types: !465)
!465 = !{null, !439, !163, !443}
!466 = !DISubprogram(name: "vector", scope: !165, file: !166, line: 585, type: !467, scopeLine: 585, flags: DIFlagPrototyped, spFlags: 0)
!467 = !DISubroutineType(types: !468)
!468 = !{null, !439, !462, !443, !391}
!469 = !DISubprogram(name: "vector", scope: !165, file: !166, line: 589, type: !470, scopeLine: 589, flags: DIFlagPrototyped, spFlags: 0)
!470 = !DISubroutineType(types: !471)
!471 = !{null, !439, !462, !443, !410}
!472 = !DISubprogram(name: "vector", scope: !165, file: !166, line: 607, type: !473, scopeLine: 607, flags: DIFlagPublic | DIFlagPrototyped, spFlags: 0)
!473 = !DISubroutineType(types: !474)
!474 = !{null, !439, !462, !443}
!475 = !DISubprogram(name: "vector", scope: !165, file: !166, line: 625, type: !476, scopeLine: 625, flags: DIFlagPublic | DIFlagPrototyped, spFlags: 0)
!476 = !DISubroutineType(types: !477)
!477 = !{null, !439, !478, !443}
!478 = !DICompositeType(tag: DW_TAG_class_type, name: "initializer_list<unsigned int>", scope: !97, file: !479, line: 47, flags: DIFlagFwdDecl, identifier: "_ZTSSt16initializer_listIjE")
!479 = !DIFile(filename: "/usr/lib/gcc/x86_64-linux-gnu/10/../../../../include/c++/10/initializer_list", directory: "")
!480 = !DISubprogram(name: "~vector", scope: !165, file: !166, line: 678, type: !437, scopeLine: 678, flags: DIFlagPublic | DIFlagPrototyped, spFlags: 0)
!481 = !DISubprogram(name: "operator=", linkageName: "_ZNSt6vectorIjSaIjEEaSERKS1_", scope: !165, file: !166, line: 695, type: !482, scopeLine: 695, flags: DIFlagPublic | DIFlagPrototyped, spFlags: 0)
!482 = !DISubroutineType(types: !483)
!483 = !{!484, !439, !163}
!484 = !DIDerivedType(tag: DW_TAG_reference_type, baseType: !165, size: 64)
!485 = !DISubprogram(name: "operator=", linkageName: "_ZNSt6vectorIjSaIjEEaSEOS1_", scope: !165, file: !166, line: 709, type: !486, scopeLine: 709, flags: DIFlagPublic | DIFlagPrototyped, spFlags: 0)
!486 = !DISubroutineType(types: !487)
!487 = !{!484, !439, !462}
!488 = !DISubprogram(name: "operator=", linkageName: "_ZNSt6vectorIjSaIjEEaSESt16initializer_listIjE", scope: !165, file: !166, line: 730, type: !489, scopeLine: 730, flags: DIFlagPublic | DIFlagPrototyped, spFlags: 0)
!489 = !DISubroutineType(types: !490)
!490 = !{!484, !439, !478}
!491 = !DISubprogram(name: "assign", linkageName: "_ZNSt6vectorIjSaIjEE6assignEmRKj", scope: !165, file: !166, line: 749, type: !492, scopeLine: 749, flags: DIFlagPublic | DIFlagPrototyped, spFlags: 0)
!492 = !DISubroutineType(types: !493)
!493 = !{null, !439, !449, !453}
!494 = !DISubprogram(name: "assign", linkageName: "_ZNSt6vectorIjSaIjEE6assignESt16initializer_listIjE", scope: !165, file: !166, line: 794, type: !495, scopeLine: 794, flags: DIFlagPublic | DIFlagPrototyped, spFlags: 0)
!495 = !DISubroutineType(types: !496)
!496 = !{null, !439, !478}
!497 = !DISubprogram(name: "begin", linkageName: "_ZNSt6vectorIjSaIjEE5beginEv", scope: !165, file: !166, line: 811, type: !498, scopeLine: 811, flags: DIFlagPublic | DIFlagPrototyped, spFlags: 0)
!498 = !DISubroutineType(types: !499)
!499 = !{!500, !439}
!500 = !DIDerivedType(tag: DW_TAG_typedef, name: "iterator", scope: !165, file: !166, line: 419, baseType: !501)
!501 = !DICompositeType(tag: DW_TAG_class_type, name: "__normal_iterator<unsigned int *, std::vector<unsigned int, std::allocator<unsigned int> > >", scope: !127, file: !502, line: 930, flags: DIFlagFwdDecl, identifier: "_ZTSN9__gnu_cxx17__normal_iteratorIPjSt6vectorIjSaIjEEEE")
!502 = !DIFile(filename: "/usr/lib/gcc/x86_64-linux-gnu/10/../../../../include/c++/10/bits/stl_iterator.h", directory: "")
!503 = !DISubprogram(name: "begin", linkageName: "_ZNKSt6vectorIjSaIjEE5beginEv", scope: !165, file: !166, line: 820, type: !504, scopeLine: 820, flags: DIFlagPublic | DIFlagPrototyped, spFlags: 0)
!504 = !DISubroutineType(types: !505)
!505 = !{!506, !508}
!506 = !DIDerivedType(tag: DW_TAG_typedef, name: "const_iterator", scope: !165, file: !166, line: 421, baseType: !507)
!507 = !DICompositeType(tag: DW_TAG_class_type, name: "__normal_iterator<const unsigned int *, std::vector<unsigned int, std::allocator<unsigned int> > >", scope: !127, file: !502, line: 930, flags: DIFlagFwdDecl, identifier: "_ZTSN9__gnu_cxx17__normal_iteratorIPKjSt6vectorIjSaIjEEEE")
!508 = !DIDerivedType(tag: DW_TAG_pointer_type, baseType: !164, size: 64, flags: DIFlagArtificial | DIFlagObjectPointer)
!509 = !DISubprogram(name: "end", linkageName: "_ZNSt6vectorIjSaIjEE3endEv", scope: !165, file: !166, line: 829, type: !498, scopeLine: 829, flags: DIFlagPublic | DIFlagPrototyped, spFlags: 0)
!510 = !DISubprogram(name: "end", linkageName: "_ZNKSt6vectorIjSaIjEE3endEv", scope: !165, file: !166, line: 838, type: !504, scopeLine: 838, flags: DIFlagPublic | DIFlagPrototyped, spFlags: 0)
!511 = !DISubprogram(name: "rbegin", linkageName: "_ZNSt6vectorIjSaIjEE6rbeginEv", scope: !165, file: !166, line: 847, type: !512, scopeLine: 847, flags: DIFlagPublic | DIFlagPrototyped, spFlags: 0)
!512 = !DISubroutineType(types: !513)
!513 = !{!514, !439}
!514 = !DIDerivedType(tag: DW_TAG_typedef, name: "reverse_iterator", scope: !165, file: !166, line: 423, baseType: !515)
!515 = !DICompositeType(tag: DW_TAG_class_type, name: "reverse_iterator<__gnu_cxx::__normal_iterator<unsigned int *, std::vector<unsigned int, std::allocator<unsigned int> > > >", scope: !97, file: !502, line: 125, flags: DIFlagFwdDecl, identifier: "_ZTSSt16reverse_iteratorIN9__gnu_cxx17__normal_iteratorIPjSt6vectorIjSaIjEEEEE")
!516 = !DISubprogram(name: "rbegin", linkageName: "_ZNKSt6vectorIjSaIjEE6rbeginEv", scope: !165, file: !166, line: 856, type: !517, scopeLine: 856, flags: DIFlagPublic | DIFlagPrototyped, spFlags: 0)
!517 = !DISubroutineType(types: !518)
!518 = !{!519, !508}
!519 = !DIDerivedType(tag: DW_TAG_typedef, name: "const_reverse_iterator", scope: !165, file: !166, line: 422, baseType: !520)
!520 = !DICompositeType(tag: DW_TAG_class_type, name: "reverse_iterator<__gnu_cxx::__normal_iterator<const unsigned int *, std::vector<unsigned int, std::allocator<unsigned int> > > >", scope: !97, file: !502, line: 125, flags: DIFlagFwdDecl, identifier: "_ZTSSt16reverse_iteratorIN9__gnu_cxx17__normal_iteratorIPKjSt6vectorIjSaIjEEEEE")
!521 = !DISubprogram(name: "rend", linkageName: "_ZNSt6vectorIjSaIjEE4rendEv", scope: !165, file: !166, line: 865, type: !512, scopeLine: 865, flags: DIFlagPublic | DIFlagPrototyped, spFlags: 0)
!522 = !DISubprogram(name: "rend", linkageName: "_ZNKSt6vectorIjSaIjEE4rendEv", scope: !165, file: !166, line: 874, type: !517, scopeLine: 874, flags: DIFlagPublic | DIFlagPrototyped, spFlags: 0)
!523 = !DISubprogram(name: "cbegin", linkageName: "_ZNKSt6vectorIjSaIjEE6cbeginEv", scope: !165, file: !166, line: 884, type: !504, scopeLine: 884, flags: DIFlagPublic | DIFlagPrototyped, spFlags: 0)
!524 = !DISubprogram(name: "cend", linkageName: "_ZNKSt6vectorIjSaIjEE4cendEv", scope: !165, file: !166, line: 893, type: !504, scopeLine: 893, flags: DIFlagPublic | DIFlagPrototyped, spFlags: 0)
!525 = !DISubprogram(name: "crbegin", linkageName: "_ZNKSt6vectorIjSaIjEE7crbeginEv", scope: !165, file: !166, line: 902, type: !517, scopeLine: 902, flags: DIFlagPublic | DIFlagPrototyped, spFlags: 0)
!526 = !DISubprogram(name: "crend", linkageName: "_ZNKSt6vectorIjSaIjEE5crendEv", scope: !165, file: !166, line: 911, type: !517, scopeLine: 911, flags: DIFlagPublic | DIFlagPrototyped, spFlags: 0)
!527 = !DISubprogram(name: "size", linkageName: "_ZNKSt6vectorIjSaIjEE4sizeEv", scope: !165, file: !166, line: 918, type: !528, scopeLine: 918, flags: DIFlagPublic | DIFlagPrototyped, spFlags: 0)
!528 = !DISubroutineType(types: !529)
!529 = !{!449, !508}
!530 = !DISubprogram(name: "max_size", linkageName: "_ZNKSt6vectorIjSaIjEE8max_sizeEv", scope: !165, file: !166, line: 923, type: !528, scopeLine: 923, flags: DIFlagPublic | DIFlagPrototyped, spFlags: 0)
!531 = !DISubprogram(name: "resize", linkageName: "_ZNSt6vectorIjSaIjEE6resizeEm", scope: !165, file: !166, line: 937, type: !532, scopeLine: 937, flags: DIFlagPublic | DIFlagPrototyped, spFlags: 0)
!532 = !DISubroutineType(types: !533)
!533 = !{null, !439, !449}
!534 = !DISubprogram(name: "resize", linkageName: "_ZNSt6vectorIjSaIjEE6resizeEmRKj", scope: !165, file: !166, line: 957, type: !492, scopeLine: 957, flags: DIFlagPublic | DIFlagPrototyped, spFlags: 0)
!535 = !DISubprogram(name: "shrink_to_fit", linkageName: "_ZNSt6vectorIjSaIjEE13shrink_to_fitEv", scope: !165, file: !166, line: 989, type: !437, scopeLine: 989, flags: DIFlagPublic | DIFlagPrototyped, spFlags: 0)
!536 = !DISubprogram(name: "capacity", linkageName: "_ZNKSt6vectorIjSaIjEE8capacityEv", scope: !165, file: !166, line: 998, type: !528, scopeLine: 998, flags: DIFlagPublic | DIFlagPrototyped, spFlags: 0)
!537 = !DISubprogram(name: "empty", linkageName: "_ZNKSt6vectorIjSaIjEE5emptyEv", scope: !165, file: !166, line: 1007, type: !538, scopeLine: 1007, flags: DIFlagPublic | DIFlagPrototyped, spFlags: 0)
!538 = !DISubroutineType(types: !539)
!539 = !{!107, !508}
!540 = !DISubprogram(name: "reserve", linkageName: "_ZNSt6vectorIjSaIjEE7reserveEm", scope: !165, file: !166, line: 1028, type: !532, scopeLine: 1028, flags: DIFlagPublic | DIFlagPrototyped, spFlags: 0)
!541 = !DISubprogram(name: "operator[]", linkageName: "_ZNSt6vectorIjSaIjEEixEm", scope: !165, file: !166, line: 1043, type: !542, scopeLine: 1043, flags: DIFlagPublic | DIFlagPrototyped, spFlags: 0)
!542 = !DISubroutineType(types: !543)
!543 = !{!544, !439, !449}
!544 = !DIDerivedType(tag: DW_TAG_typedef, name: "reference", scope: !165, file: !166, line: 417, baseType: !545)
!545 = !DIDerivedType(tag: DW_TAG_typedef, name: "reference", scope: !179, file: !177, line: 62, baseType: !546)
!546 = !DIDerivedType(tag: DW_TAG_reference_type, baseType: !547, size: 64)
!547 = !DIDerivedType(tag: DW_TAG_typedef, name: "value_type", scope: !179, file: !177, line: 56, baseType: !548)
!548 = !DIDerivedType(tag: DW_TAG_typedef, name: "value_type", scope: !182, file: !183, line: 413, baseType: !128)
!549 = !DISubprogram(name: "operator[]", linkageName: "_ZNKSt6vectorIjSaIjEEixEm", scope: !165, file: !166, line: 1061, type: !550, scopeLine: 1061, flags: DIFlagPublic | DIFlagPrototyped, spFlags: 0)
!550 = !DISubroutineType(types: !551)
!551 = !{!552, !508, !449}
!552 = !DIDerivedType(tag: DW_TAG_typedef, name: "const_reference", scope: !165, file: !166, line: 418, baseType: !553)
!553 = !DIDerivedType(tag: DW_TAG_typedef, name: "const_reference", scope: !179, file: !177, line: 63, baseType: !554)
!554 = !DIDerivedType(tag: DW_TAG_reference_type, baseType: !555, size: 64)
!555 = !DIDerivedType(tag: DW_TAG_const_type, baseType: !547)
!556 = !DISubprogram(name: "_M_range_check", linkageName: "_ZNKSt6vectorIjSaIjEE14_M_range_checkEm", scope: !165, file: !166, line: 1070, type: !557, scopeLine: 1070, flags: DIFlagProtected | DIFlagPrototyped, spFlags: 0)
!557 = !DISubroutineType(types: !558)
!558 = !{null, !508, !449}
!559 = !DISubprogram(name: "at", linkageName: "_ZNSt6vectorIjSaIjEE2atEm", scope: !165, file: !166, line: 1092, type: !542, scopeLine: 1092, flags: DIFlagPublic | DIFlagPrototyped, spFlags: 0)
!560 = !DISubprogram(name: "at", linkageName: "_ZNKSt6vectorIjSaIjEE2atEm", scope: !165, file: !166, line: 1110, type: !550, scopeLine: 1110, flags: DIFlagPublic | DIFlagPrototyped, spFlags: 0)
!561 = !DISubprogram(name: "front", linkageName: "_ZNSt6vectorIjSaIjEE5frontEv", scope: !165, file: !166, line: 1121, type: !562, scopeLine: 1121, flags: DIFlagPublic | DIFlagPrototyped, spFlags: 0)
!562 = !DISubroutineType(types: !563)
!563 = !{!544, !439}
!564 = !DISubprogram(name: "front", linkageName: "_ZNKSt6vectorIjSaIjEE5frontEv", scope: !165, file: !166, line: 1132, type: !565, scopeLine: 1132, flags: DIFlagPublic | DIFlagPrototyped, spFlags: 0)
!565 = !DISubroutineType(types: !566)
!566 = !{!552, !508}
!567 = !DISubprogram(name: "back", linkageName: "_ZNSt6vectorIjSaIjEE4backEv", scope: !165, file: !166, line: 1143, type: !562, scopeLine: 1143, flags: DIFlagPublic | DIFlagPrototyped, spFlags: 0)
!568 = !DISubprogram(name: "back", linkageName: "_ZNKSt6vectorIjSaIjEE4backEv", scope: !165, file: !166, line: 1154, type: !565, scopeLine: 1154, flags: DIFlagPublic | DIFlagPrototyped, spFlags: 0)
!569 = !DISubprogram(name: "data", linkageName: "_ZNSt6vectorIjSaIjEE4dataEv", scope: !165, file: !166, line: 1168, type: !570, scopeLine: 1168, flags: DIFlagPublic | DIFlagPrototyped, spFlags: 0)
!570 = !DISubroutineType(types: !571)
!571 = !{!189, !439}
!572 = !DISubprogram(name: "data", linkageName: "_ZNKSt6vectorIjSaIjEE4dataEv", scope: !165, file: !166, line: 1172, type: !573, scopeLine: 1172, flags: DIFlagPublic | DIFlagPrototyped, spFlags: 0)
!573 = !DISubroutineType(types: !574)
!574 = !{!222, !508}
!575 = !DISubprogram(name: "push_back", linkageName: "_ZNSt6vectorIjSaIjEE9push_backERKj", scope: !165, file: !166, line: 1187, type: !576, scopeLine: 1187, flags: DIFlagPublic | DIFlagPrototyped, spFlags: 0)
!576 = !DISubroutineType(types: !577)
!577 = !{null, !439, !453}
!578 = !DISubprogram(name: "push_back", linkageName: "_ZNSt6vectorIjSaIjEE9push_backEOj", scope: !165, file: !166, line: 1203, type: !579, scopeLine: 1203, flags: DIFlagPublic | DIFlagPrototyped, spFlags: 0)
!579 = !DISubroutineType(types: !580)
!580 = !{null, !439, !581}
!581 = !DIDerivedType(tag: DW_TAG_rvalue_reference_type, baseType: !455, size: 64)
!582 = !DISubprogram(name: "pop_back", linkageName: "_ZNSt6vectorIjSaIjEE8pop_backEv", scope: !165, file: !166, line: 1225, type: !437, scopeLine: 1225, flags: DIFlagPublic | DIFlagPrototyped, spFlags: 0)
!583 = !DISubprogram(name: "insert", linkageName: "_ZNSt6vectorIjSaIjEE6insertEN9__gnu_cxx17__normal_iteratorIPKjS1_EERS4_", scope: !165, file: !166, line: 1263, type: !584, scopeLine: 1263, flags: DIFlagPublic | DIFlagPrototyped, spFlags: 0)
!584 = !DISubroutineType(types: !585)
!585 = !{!500, !439, !506, !453}
!586 = !DISubprogram(name: "insert", linkageName: "_ZNSt6vectorIjSaIjEE6insertEN9__gnu_cxx17__normal_iteratorIPKjS1_EEOj", scope: !165, file: !166, line: 1293, type: !587, scopeLine: 1293, flags: DIFlagPublic | DIFlagPrototyped, spFlags: 0)
!587 = !DISubroutineType(types: !588)
!588 = !{!500, !439, !506, !581}
!589 = !DISubprogram(name: "insert", linkageName: "_ZNSt6vectorIjSaIjEE6insertEN9__gnu_cxx17__normal_iteratorIPKjS1_EESt16initializer_listIjE", scope: !165, file: !166, line: 1310, type: !590, scopeLine: 1310, flags: DIFlagPublic | DIFlagPrototyped, spFlags: 0)
!590 = !DISubroutineType(types: !591)
!591 = !{!500, !439, !506, !478}
!592 = !DISubprogram(name: "insert", linkageName: "_ZNSt6vectorIjSaIjEE6insertEN9__gnu_cxx17__normal_iteratorIPKjS1_EEmRS4_", scope: !165, file: !166, line: 1335, type: !593, scopeLine: 1335, flags: DIFlagPublic | DIFlagPrototyped, spFlags: 0)
!593 = !DISubroutineType(types: !594)
!594 = !{!500, !439, !506, !449, !453}
!595 = !DISubprogram(name: "erase", linkageName: "_ZNSt6vectorIjSaIjEE5eraseEN9__gnu_cxx17__normal_iteratorIPKjS1_EE", scope: !165, file: !166, line: 1430, type: !596, scopeLine: 1430, flags: DIFlagPublic | DIFlagPrototyped, spFlags: 0)
!596 = !DISubroutineType(types: !597)
!597 = !{!500, !439, !506}
!598 = !DISubprogram(name: "erase", linkageName: "_ZNSt6vectorIjSaIjEE5eraseEN9__gnu_cxx17__normal_iteratorIPKjS1_EES6_", scope: !165, file: !166, line: 1457, type: !599, scopeLine: 1457, flags: DIFlagPublic | DIFlagPrototyped, spFlags: 0)
!599 = !DISubroutineType(types: !600)
!600 = !{!500, !439, !506, !506}
!601 = !DISubprogram(name: "swap", linkageName: "_ZNSt6vectorIjSaIjEE4swapERS1_", scope: !165, file: !166, line: 1480, type: !602, scopeLine: 1480, flags: DIFlagPublic | DIFlagPrototyped, spFlags: 0)
!602 = !DISubroutineType(types: !603)
!603 = !{null, !439, !484}
!604 = !DISubprogram(name: "clear", linkageName: "_ZNSt6vectorIjSaIjEE5clearEv", scope: !165, file: !166, line: 1498, type: !437, scopeLine: 1498, flags: DIFlagPublic | DIFlagPrototyped, spFlags: 0)
!605 = !DISubprogram(name: "_M_fill_initialize", linkageName: "_ZNSt6vectorIjSaIjEE18_M_fill_initializeEmRKj", scope: !165, file: !166, line: 1593, type: !492, scopeLine: 1593, flags: DIFlagProtected | DIFlagPrototyped, spFlags: 0)
!606 = !DISubprogram(name: "_M_default_initialize", linkageName: "_ZNSt6vectorIjSaIjEE21_M_default_initializeEm", scope: !165, file: !166, line: 1603, type: !532, scopeLine: 1603, flags: DIFlagProtected | DIFlagPrototyped, spFlags: 0)
!607 = !DISubprogram(name: "_M_fill_assign", linkageName: "_ZNSt6vectorIjSaIjEE14_M_fill_assignEmRKj", scope: !165, file: !166, line: 1645, type: !492, scopeLine: 1645, flags: DIFlagProtected | DIFlagPrototyped, spFlags: 0)
!608 = !DISubprogram(name: "_M_fill_insert", linkageName: "_ZNSt6vectorIjSaIjEE14_M_fill_insertEN9__gnu_cxx17__normal_iteratorIPjS1_EEmRKj", scope: !165, file: !166, line: 1684, type: !609, scopeLine: 1684, flags: DIFlagProtected | DIFlagPrototyped, spFlags: 0)
!609 = !DISubroutineType(types: !610)
!610 = !{null, !439, !500, !449, !453}
!611 = !DISubprogram(name: "_M_default_append", linkageName: "_ZNSt6vectorIjSaIjEE17_M_default_appendEm", scope: !165, file: !166, line: 1689, type: !532, scopeLine: 1689, flags: DIFlagProtected | DIFlagPrototyped, spFlags: 0)
!612 = !DISubprogram(name: "_M_shrink_to_fit", linkageName: "_ZNSt6vectorIjSaIjEE16_M_shrink_to_fitEv", scope: !165, file: !166, line: 1692, type: !613, scopeLine: 1692, flags: DIFlagProtected | DIFlagPrototyped, spFlags: 0)
!613 = !DISubroutineType(types: !614)
!614 = !{!107, !439}
!615 = !DISubprogram(name: "_M_insert_rval", linkageName: "_ZNSt6vectorIjSaIjEE14_M_insert_rvalEN9__gnu_cxx17__normal_iteratorIPKjS1_EEOj", scope: !165, file: !166, line: 1741, type: !587, scopeLine: 1741, flags: DIFlagProtected | DIFlagPrototyped, spFlags: 0)
!616 = !DISubprogram(name: "_M_emplace_aux", linkageName: "_ZNSt6vectorIjSaIjEE14_M_emplace_auxEN9__gnu_cxx17__normal_iteratorIPKjS1_EEOj", scope: !165, file: !166, line: 1750, type: !587, scopeLine: 1750, flags: DIFlagProtected | DIFlagPrototyped, spFlags: 0)
!617 = !DISubprogram(name: "_M_check_len", linkageName: "_ZNKSt6vectorIjSaIjEE12_M_check_lenEmPKc", scope: !165, file: !166, line: 1756, type: !618, scopeLine: 1756, flags: DIFlagProtected | DIFlagPrototyped, spFlags: 0)
!618 = !DISubroutineType(types: !619)
!619 = !{!620, !508, !449, !621}
!620 = !DIDerivedType(tag: DW_TAG_typedef, name: "size_type", scope: !165, file: !166, line: 424, baseType: !229)
!621 = !DIDerivedType(tag: DW_TAG_pointer_type, baseType: !622, size: 64)
!622 = !DIDerivedType(tag: DW_TAG_const_type, baseType: !623)
!623 = !DIBasicType(name: "char", size: 8, encoding: DW_ATE_signed_char)
!624 = !DISubprogram(name: "_S_check_init_len", linkageName: "_ZNSt6vectorIjSaIjEE17_S_check_init_lenEmRKS0_", scope: !165, file: !166, line: 1767, type: !625, scopeLine: 1767, flags: DIFlagProtected | DIFlagPrototyped | DIFlagStaticMember, spFlags: 0)
!625 = !DISubroutineType(types: !626)
!626 = !{!620, !449, !443}
!627 = !DISubprogram(name: "_S_max_size", linkageName: "_ZNSt6vectorIjSaIjEE11_S_max_sizeERKS0_", scope: !165, file: !166, line: 1776, type: !628, scopeLine: 1776, flags: DIFlagProtected | DIFlagPrototyped | DIFlagStaticMember, spFlags: 0)
!628 = !DISubroutineType(types: !629)
!629 = !{!620, !630}
!630 = !DIDerivedType(tag: DW_TAG_reference_type, baseType: !631, size: 64)
!631 = !DIDerivedType(tag: DW_TAG_const_type, baseType: !429)
!632 = !DISubprogram(name: "_M_erase_at_end", linkageName: "_ZNSt6vectorIjSaIjEE15_M_erase_at_endEPj", scope: !165, file: !166, line: 1792, type: !633, scopeLine: 1792, flags: DIFlagProtected | DIFlagPrototyped, spFlags: 0)
!633 = !DISubroutineType(types: !634)
!634 = !{null, !439, !427}
!635 = !DISubprogram(name: "_M_erase", linkageName: "_ZNSt6vectorIjSaIjEE8_M_eraseEN9__gnu_cxx17__normal_iteratorIPjS1_EE", scope: !165, file: !166, line: 1804, type: !636, scopeLine: 1804, flags: DIFlagProtected | DIFlagPrototyped, spFlags: 0)
!636 = !DISubroutineType(types: !637)
!637 = !{!500, !439, !500}
!638 = !DISubprogram(name: "_M_erase", linkageName: "_ZNSt6vectorIjSaIjEE8_M_eraseEN9__gnu_cxx17__normal_iteratorIPjS1_EES5_", scope: !165, file: !166, line: 1807, type: !639, scopeLine: 1807, flags: DIFlagProtected | DIFlagPrototyped, spFlags: 0)
!639 = !DISubroutineType(types: !640)
!640 = !{!500, !439, !500, !500}
!641 = !DISubprogram(name: "_M_move_assign", linkageName: "_ZNSt6vectorIjSaIjEE14_M_move_assignEOS1_St17integral_constantIbLb1EE", scope: !165, file: !166, line: 1815, type: !642, scopeLine: 1815, flags: DIFlagPrototyped, spFlags: 0)
!642 = !DISubroutineType(types: !643)
!643 = !{null, !439, !462, !391}
!644 = !DISubprogram(name: "_M_move_assign", linkageName: "_ZNSt6vectorIjSaIjEE14_M_move_assignEOS1_St17integral_constantIbLb0EE", scope: !165, file: !166, line: 1826, type: !645, scopeLine: 1826, flags: DIFlagPrototyped, spFlags: 0)
!645 = !DISubroutineType(types: !646)
!646 = !{null, !439, !462, !410}
!647 = !DISubprogram(name: "n_dofs_per_vertex", linkageName: "_ZNK6dealii17FiniteElementDataILi3EE17n_dofs_per_vertexEv", scope: !135, file: !134, line: 453, type: !648, scopeLine: 453, flags: DIFlagPublic | DIFlagPrototyped, spFlags: 0)
!648 = !DISubroutineType(types: !649)
!649 = !{!128, !650}
!650 = !DIDerivedType(tag: DW_TAG_pointer_type, baseType: !651, size: 64, flags: DIFlagArtificial | DIFlagObjectPointer)
!651 = !DIDerivedType(tag: DW_TAG_const_type, baseType: !135)
!652 = !DISubprogram(name: "n_dofs_per_line", linkageName: "_ZNK6dealii17FiniteElementDataILi3EE15n_dofs_per_lineEv", scope: !135, file: !134, line: 460, type: !648, scopeLine: 460, flags: DIFlagPublic | DIFlagPrototyped, spFlags: 0)
!653 = !DISubprogram(name: "n_dofs_per_quad", linkageName: "_ZNK6dealii17FiniteElementDataILi3EE15n_dofs_per_quadEv", scope: !135, file: !134, line: 467, type: !648, scopeLine: 467, flags: DIFlagPublic | DIFlagPrototyped, spFlags: 0)
!654 = !DISubprogram(name: "n_dofs_per_hex", linkageName: "_ZNK6dealii17FiniteElementDataILi3EE14n_dofs_per_hexEv", scope: !135, file: !134, line: 474, type: !648, scopeLine: 474, flags: DIFlagPublic | DIFlagPrototyped, spFlags: 0)
!655 = !DISubprogram(name: "n_dofs_per_face", linkageName: "_ZNK6dealii17FiniteElementDataILi3EE15n_dofs_per_faceEv", scope: !135, file: !134, line: 482, type: !648, scopeLine: 482, flags: DIFlagPublic | DIFlagPrototyped, spFlags: 0)
!656 = !DISubprogram(name: "n_dofs_per_cell", linkageName: "_ZNK6dealii17FiniteElementDataILi3EE15n_dofs_per_cellEv", scope: !135, file: !134, line: 490, type: !648, scopeLine: 490, flags: DIFlagPublic | DIFlagPrototyped, spFlags: 0)
!657 = !DISubprogram(name: "n_components", linkageName: "_ZNK6dealii17FiniteElementDataILi3EE12n_componentsEv", scope: !135, file: !134, line: 514, type: !648, scopeLine: 514, flags: DIFlagPublic | DIFlagPrototyped, spFlags: 0)
!658 = !DISubprogram(name: "n_blocks", linkageName: "_ZNK6dealii17FiniteElementDataILi3EE8n_blocksEv", scope: !135, file: !134, line: 519, type: !648, scopeLine: 519, flags: DIFlagPublic | DIFlagPrototyped, spFlags: 0)
!659 = !DISubprogram(name: "tensor_degree", linkageName: "_ZNK6dealii17FiniteElementDataILi3EE13tensor_degreeEv", scope: !135, file: !134, line: 530, type: !648, scopeLine: 530, flags: DIFlagPublic | DIFlagPrototyped, spFlags: 0)
!660 = !DISubprogram(name: "conforms", linkageName: "_ZNK6dealii17FiniteElementDataILi3EE8conformsENS1_10ConformityE", scope: !135, file: !134, line: 543, type: !661, scopeLine: 543, flags: DIFlagPublic | DIFlagPrototyped, spFlags: 0)
!661 = !DISubroutineType(types: !662)
!662 = !{!107, !650, !155}
!663 = !DISubprogram(name: "face_to_cell_index", linkageName: "_ZNK6dealii17FiniteElementDataILi3EE18face_to_cell_indexEjjbbb", scope: !135, file: !134, line: 552, type: !664, scopeLine: 552, flags: DIFlagPublic | DIFlagPrototyped, spFlags: 0)
!664 = !DISubroutineType(types: !665)
!665 = !{!128, !650, !139, !139, !396, !396, !396}
!666 = !DISubprogram(name: "face_to_equivalent_cell_index", linkageName: "_ZNK6dealii17FiniteElementDataILi3EE29face_to_equivalent_cell_indexEj", scope: !135, file: !134, line: 824, type: !667, scopeLine: 824, flags: DIFlagPublic | DIFlagPrototyped, spFlags: 0)
!667 = !DISubroutineType(types: !668)
!668 = !{!128, !650, !139}
!669 = !DISubprogram(name: "operator==", linkageName: "_ZNK6dealii17FiniteElementDataILi3EEeqERKS1_", scope: !135, file: !134, line: 601, type: !670, scopeLine: 601, flags: DIFlagPublic | DIFlagPrototyped, spFlags: 0)
!670 = !DISubroutineType(types: !671)
!671 = !{!107, !650, !672}
!672 = !DIDerivedType(tag: DW_TAG_reference_type, baseType: !651, size: 64)
!673 = !{!674}
!674 = !DITemplateValueParameter(name: "dim", type: !14, value: i32 3)
!675 = !{!676, !677, !678, !679, !680, !681}
!676 = !DIEnumerator(name: "unknown", value: 0, isUnsigned: true)
!677 = !DIEnumerator(name: "L2", value: 1, isUnsigned: true)
!678 = !DIEnumerator(name: "Hcurl", value: 2, isUnsigned: true)
!679 = !DIEnumerator(name: "Hdiv", value: 4, isUnsigned: true)
!680 = !DIEnumerator(name: "H1", value: 6, isUnsigned: true)
!681 = !DIEnumerator(name: "H2", value: 14, isUnsigned: true)
!682 = !{!683, !696, !706}
!683 = distinct !DICompositeType(tag: DW_TAG_class_type, name: "DoFObjects<1>", scope: !684, file: !123, line: 52, size: 192, flags: DIFlagTypePassByReference | DIFlagNonTrivial, elements: !686, templateParams: !694, identifier: "_ZTSN6dealii8internal10DoFHandler10DoFObjectsILi1EEE")
!684 = !DINamespace(name: "DoFHandler", scope: !685)
!685 = !DINamespace(name: "internal", scope: !136)
!686 = !{!687, !689}
!687 = !DIDerivedType(tag: DW_TAG_member, name: "dofs", scope: !683, file: !688, line: 67, baseType: !165, size: 192, flags: DIFlagPublic)
!688 = !DIFile(filename: "include/dofs/dof_objects.h", directory: "/home/venkat/IF-DV/spec_build_release/CPU_2017/benchspec/CPU/510.parest_r/build/build_base_ld-loop-ext-m64.0000")
!689 = !DISubprogram(name: "memory_consumption", linkageName: "_ZNK6dealii8internal10DoFHandler10DoFObjectsILi1EE18memory_consumptionEv", scope: !683, file: !688, line: 167, type: !690, scopeLine: 167, flags: DIFlagPublic | DIFlagPrototyped, spFlags: 0)
!690 = !DISubroutineType(types: !691)
!691 = !{!128, !692}
!692 = !DIDerivedType(tag: DW_TAG_pointer_type, baseType: !693, size: 64, flags: DIFlagArtificial | DIFlagObjectPointer)
!693 = !DIDerivedType(tag: DW_TAG_const_type, baseType: !683)
!694 = !{!695}
!695 = !DITemplateValueParameter(name: "dim", type: !14, value: i32 1)
!696 = distinct !DICompositeType(tag: DW_TAG_class_type, name: "DoFObjects<2>", scope: !684, file: !123, line: 72, size: 192, flags: DIFlagTypePassByReference | DIFlagNonTrivial, elements: !697, templateParams: !704, identifier: "_ZTSN6dealii8internal10DoFHandler10DoFObjectsILi2EEE")
!697 = !{!698, !699}
!698 = !DIDerivedType(tag: DW_TAG_member, name: "dofs", scope: !696, file: !688, line: 67, baseType: !165, size: 192, flags: DIFlagPublic)
!699 = !DISubprogram(name: "memory_consumption", linkageName: "_ZNK6dealii8internal10DoFHandler10DoFObjectsILi2EE18memory_consumptionEv", scope: !696, file: !688, line: 167, type: !700, scopeLine: 167, flags: DIFlagPublic | DIFlagPrototyped, spFlags: 0)
!700 = !DISubroutineType(types: !701)
!701 = !{!128, !702}
!702 = !DIDerivedType(tag: DW_TAG_pointer_type, baseType: !703, size: 64, flags: DIFlagArtificial | DIFlagObjectPointer)
!703 = !DIDerivedType(tag: DW_TAG_const_type, baseType: !696)
!704 = !{!705}
!705 = !DITemplateValueParameter(name: "dim", type: !14, value: i32 2)
!706 = distinct !DICompositeType(tag: DW_TAG_class_type, name: "DoFObjects<3>", scope: !684, file: !123, line: 91, size: 192, flags: DIFlagTypePassByReference | DIFlagNonTrivial, elements: !707, templateParams: !673, identifier: "_ZTSN6dealii8internal10DoFHandler10DoFObjectsILi3EEE")
!707 = !{!708, !709}
!708 = !DIDerivedType(tag: DW_TAG_member, name: "dofs", scope: !706, file: !688, line: 67, baseType: !165, size: 192, flags: DIFlagPublic)
!709 = !DISubprogram(name: "memory_consumption", linkageName: "_ZNK6dealii8internal10DoFHandler10DoFObjectsILi3EE18memory_consumptionEv", scope: !706, file: !688, line: 167, type: !710, scopeLine: 167, flags: DIFlagPublic | DIFlagPrototyped, spFlags: 0)
!710 = !DISubroutineType(types: !711)
!711 = !{!128, !712}
!712 = !DIDerivedType(tag: DW_TAG_pointer_type, baseType: !713, size: 64, flags: DIFlagArtificial | DIFlagObjectPointer)
!713 = !DIDerivedType(tag: DW_TAG_const_type, baseType: !706)
!714 = !{!0, !15, !25, !35, !45, !55, !65, !75, !85, !95}
!715 = !{!716, !722, !729, !731, !733, !737, !739, !741, !743, !745, !747, !749, !751, !756, !760, !762, !764, !769, !771, !773, !775, !777, !779, !781, !784, !787, !789, !793, !798, !800, !802, !804, !806, !808, !810, !812, !814, !816, !818, !822, !826, !828, !830, !832, !834, !836, !838, !840, !842, !844, !846, !848, !850, !852, !854, !856, !860, !864, !868, !870, !872, !874, !876, !878, !880, !882, !884, !886, !890, !894, !898, !900, !902, !904, !909, !913, !917, !919, !921, !923, !925, !927, !929, !931, !933, !935, !937, !939, !941, !946, !950, !954, !956, !958, !960, !964, !968, !972, !974, !976, !978, !980, !982, !984, !988, !992, !994, !996, !998, !1000, !1004, !1008, !1012, !1014, !1016, !1018, !1020, !1022, !1024, !1028, !1032, !1036, !1038, !1042, !1046, !1048, !1050, !1052, !1054, !1056, !1058, !1075, !1078, !1083, !1091, !1099, !1103, !1110, !1114, !1118, !1120, !1122, !1126, !1135, !1139, !1145, !1151, !1153, !1157, !1161, !1165, !1169, !1181, !1183, !1187, !1191, !1195, !1197, !1203, !1207, !1211, !1213, !1215, !1219, !1240, !1244, !1248, !1252, !1254, !1260, !1262, !1268, !1272, !1276, !1280, !1284, !1288, !1292, !1294, !1296, !1300, !1304, !1308, !1310, !1314, !1318, !1320, !1322, !1326, !1330, !1334, !1339, !1340, !1341, !1342, !1343, !1344, !1345, !1346, !1347, !1348, !1349, !1403, !1407, !1411, !1418, !1422, !1425, !1428, !1431, !1433, !1435, !1437, !1440, !1443, !1446, !1449, !1452, !1454, !1459, !1463, !1466, !1469, !1471, !1473, !1475, !1477, !1480, !1483, !1486, !1489, !1492, !1494, !1498, !1502, !1507, !1511, !1513, !1515, !1517, !1519, !1521, !1523, !1525, !1527, !1529, !1531, !1533, !1535, !1537, !1541, !1547, !1551, !1556, !1558, !1560, !1564, !1568, !1576, !1580, !1584, !1588, !1592, !1596, !1600, !1604, !1608, !1612, !1616, !1620, !1624, !1626, !1630, !1634, !1638, !1644, !1648, !1652, !1654, !1658, !1662, !1668, !1670, !1674, !1678, !1682, !1686, !1690, !1694, !1698, !1699, !1700, !1701, !1703, !1704, !1705, !1706, !1707, !1708, !1709, !1713, !1719, !1724, !1728, !1730, !1732, !1734, !1736, !1743, !1747, !1751, !1755, !1759, !1763, !1768, !1772, !1774, !1778, !1784, !1788, !1793, !1795, !1797, !1801, !1805, !1807, !1809, !1811, !1813, !1817, !1819, !1821, !1825, !1829, !1833, !1837, !1841, !1845, !1847, !1851, !1855, !1859, !1863, !1865, !1867, !1871, !1875, !1876, !1877, !1878, !1879, !1880, !1886, !1889, !1890, !1892, !1894, !1896, !1898, !1902, !1904, !1906, !1908, !1910, !1912, !1914, !1916, !1918, !1922, !1926, !1928, !1932, !1936, !1939, !1942, !1944, !1947, !1952, !1955, !1959, !1962, !1976, !1988, !1991, !1994, !1997, !2003, !2007, !2011, !2015, !2019, !2023, !2025, !2027, !2029, !2033, !2037, !2041, !2045, !2049, !2051, !2053, !2055, !2059, !2063, !2067, !2069, !2071, !2076, !2080, !2081, !2086, !2090, !2095, !2100, !2104, !2110, !2114, !2116}
!716 = !DIImportedEntity(tag: DW_TAG_imported_declaration, scope: !97, entity: !717, file: !721, line: 52)
!717 = !DISubprogram(name: "abs", scope: !718, file: !718, line: 840, type: !719, flags: DIFlagPrototyped, spFlags: 0)
!718 = !DIFile(filename: "/usr/include/stdlib.h", directory: "")
!719 = !DISubroutineType(types: !720)
!720 = !{!14, !14}
!721 = !DIFile(filename: "/usr/lib/gcc/x86_64-linux-gnu/10/../../../../include/c++/10/bits/std_abs.h", directory: "")
!722 = !DIImportedEntity(tag: DW_TAG_imported_declaration, scope: !97, entity: !723, file: !728, line: 83)
!723 = !DISubprogram(name: "acos", scope: !724, file: !724, line: 53, type: !725, flags: DIFlagPrototyped, spFlags: 0)
!724 = !DIFile(filename: "/usr/include/x86_64-linux-gnu/bits/mathcalls.h", directory: "")
!725 = !DISubroutineType(types: !726)
!726 = !{!727, !727}
!727 = !DIBasicType(name: "double", size: 64, encoding: DW_ATE_float)
!728 = !DIFile(filename: "/usr/lib/gcc/x86_64-linux-gnu/10/../../../../include/c++/10/cmath", directory: "")
!729 = !DIImportedEntity(tag: DW_TAG_imported_declaration, scope: !97, entity: !730, file: !728, line: 102)
!730 = !DISubprogram(name: "asin", scope: !724, file: !724, line: 55, type: !725, flags: DIFlagPrototyped, spFlags: 0)
!731 = !DIImportedEntity(tag: DW_TAG_imported_declaration, scope: !97, entity: !732, file: !728, line: 121)
!732 = !DISubprogram(name: "atan", scope: !724, file: !724, line: 57, type: !725, flags: DIFlagPrototyped, spFlags: 0)
!733 = !DIImportedEntity(tag: DW_TAG_imported_declaration, scope: !97, entity: !734, file: !728, line: 140)
!734 = !DISubprogram(name: "atan2", scope: !724, file: !724, line: 59, type: !735, flags: DIFlagPrototyped, spFlags: 0)
!735 = !DISubroutineType(types: !736)
!736 = !{!727, !727, !727}
!737 = !DIImportedEntity(tag: DW_TAG_imported_declaration, scope: !97, entity: !738, file: !728, line: 161)
!738 = !DISubprogram(name: "ceil", scope: !724, file: !724, line: 159, type: !725, flags: DIFlagPrototyped, spFlags: 0)
!739 = !DIImportedEntity(tag: DW_TAG_imported_declaration, scope: !97, entity: !740, file: !728, line: 180)
!740 = !DISubprogram(name: "cos", scope: !724, file: !724, line: 62, type: !725, flags: DIFlagPrototyped, spFlags: 0)
!741 = !DIImportedEntity(tag: DW_TAG_imported_declaration, scope: !97, entity: !742, file: !728, line: 199)
!742 = !DISubprogram(name: "cosh", scope: !724, file: !724, line: 71, type: !725, flags: DIFlagPrototyped, spFlags: 0)
!743 = !DIImportedEntity(tag: DW_TAG_imported_declaration, scope: !97, entity: !744, file: !728, line: 218)
!744 = !DISubprogram(name: "exp", scope: !724, file: !724, line: 95, type: !725, flags: DIFlagPrototyped, spFlags: 0)
!745 = !DIImportedEntity(tag: DW_TAG_imported_declaration, scope: !97, entity: !746, file: !728, line: 237)
!746 = !DISubprogram(name: "fabs", scope: !724, file: !724, line: 162, type: !725, flags: DIFlagPrototyped, spFlags: 0)
!747 = !DIImportedEntity(tag: DW_TAG_imported_declaration, scope: !97, entity: !748, file: !728, line: 256)
!748 = !DISubprogram(name: "floor", scope: !724, file: !724, line: 165, type: !725, flags: DIFlagPrototyped, spFlags: 0)
!749 = !DIImportedEntity(tag: DW_TAG_imported_declaration, scope: !97, entity: !750, file: !728, line: 275)
!750 = !DISubprogram(name: "fmod", scope: !724, file: !724, line: 168, type: !735, flags: DIFlagPrototyped, spFlags: 0)
!751 = !DIImportedEntity(tag: DW_TAG_imported_declaration, scope: !97, entity: !752, file: !728, line: 296)
!752 = !DISubprogram(name: "frexp", scope: !724, file: !724, line: 98, type: !753, flags: DIFlagPrototyped, spFlags: 0)
!753 = !DISubroutineType(types: !754)
!754 = !{!727, !727, !755}
!755 = !DIDerivedType(tag: DW_TAG_pointer_type, baseType: !14, size: 64)
!756 = !DIImportedEntity(tag: DW_TAG_imported_declaration, scope: !97, entity: !757, file: !728, line: 315)
!757 = !DISubprogram(name: "ldexp", scope: !724, file: !724, line: 101, type: !758, flags: DIFlagPrototyped, spFlags: 0)
!758 = !DISubroutineType(types: !759)
!759 = !{!727, !727, !14}
!760 = !DIImportedEntity(tag: DW_TAG_imported_declaration, scope: !97, entity: !761, file: !728, line: 334)
!761 = !DISubprogram(name: "log", scope: !724, file: !724, line: 104, type: !725, flags: DIFlagPrototyped, spFlags: 0)
!762 = !DIImportedEntity(tag: DW_TAG_imported_declaration, scope: !97, entity: !763, file: !728, line: 353)
!763 = !DISubprogram(name: "log10", scope: !724, file: !724, line: 107, type: !725, flags: DIFlagPrototyped, spFlags: 0)
!764 = !DIImportedEntity(tag: DW_TAG_imported_declaration, scope: !97, entity: !765, file: !728, line: 372)
!765 = !DISubprogram(name: "modf", scope: !724, file: !724, line: 110, type: !766, flags: DIFlagPrototyped, spFlags: 0)
!766 = !DISubroutineType(types: !767)
!767 = !{!727, !727, !768}
!768 = !DIDerivedType(tag: DW_TAG_pointer_type, baseType: !727, size: 64)
!769 = !DIImportedEntity(tag: DW_TAG_imported_declaration, scope: !97, entity: !770, file: !728, line: 384)
!770 = !DISubprogram(name: "pow", scope: !724, file: !724, line: 140, type: !735, flags: DIFlagPrototyped, spFlags: 0)
!771 = !DIImportedEntity(tag: DW_TAG_imported_declaration, scope: !97, entity: !772, file: !728, line: 421)
!772 = !DISubprogram(name: "sin", scope: !724, file: !724, line: 64, type: !725, flags: DIFlagPrototyped, spFlags: 0)
!773 = !DIImportedEntity(tag: DW_TAG_imported_declaration, scope: !97, entity: !774, file: !728, line: 440)
!774 = !DISubprogram(name: "sinh", scope: !724, file: !724, line: 73, type: !725, flags: DIFlagPrototyped, spFlags: 0)
!775 = !DIImportedEntity(tag: DW_TAG_imported_declaration, scope: !97, entity: !776, file: !728, line: 459)
!776 = !DISubprogram(name: "sqrt", scope: !724, file: !724, line: 143, type: !725, flags: DIFlagPrototyped, spFlags: 0)
!777 = !DIImportedEntity(tag: DW_TAG_imported_declaration, scope: !97, entity: !778, file: !728, line: 478)
!778 = !DISubprogram(name: "tan", scope: !724, file: !724, line: 66, type: !725, flags: DIFlagPrototyped, spFlags: 0)
!779 = !DIImportedEntity(tag: DW_TAG_imported_declaration, scope: !97, entity: !780, file: !728, line: 497)
!780 = !DISubprogram(name: "tanh", scope: !724, file: !724, line: 75, type: !725, flags: DIFlagPrototyped, spFlags: 0)
!781 = !DIImportedEntity(tag: DW_TAG_imported_declaration, scope: !97, entity: !782, file: !728, line: 1065)
!782 = !DIDerivedType(tag: DW_TAG_typedef, name: "double_t", file: !783, line: 150, baseType: !727)
!783 = !DIFile(filename: "/usr/include/math.h", directory: "")
!784 = !DIImportedEntity(tag: DW_TAG_imported_declaration, scope: !97, entity: !785, file: !728, line: 1066)
!785 = !DIDerivedType(tag: DW_TAG_typedef, name: "float_t", file: !783, line: 149, baseType: !786)
!786 = !DIBasicType(name: "float", size: 32, encoding: DW_ATE_float)
!787 = !DIImportedEntity(tag: DW_TAG_imported_declaration, scope: !97, entity: !788, file: !728, line: 1069)
!788 = !DISubprogram(name: "acosh", scope: !724, file: !724, line: 85, type: !725, flags: DIFlagPrototyped, spFlags: 0)
!789 = !DIImportedEntity(tag: DW_TAG_imported_declaration, scope: !97, entity: !790, file: !728, line: 1070)
!790 = !DISubprogram(name: "acoshf", scope: !724, file: !724, line: 85, type: !791, flags: DIFlagPrototyped, spFlags: 0)
!791 = !DISubroutineType(types: !792)
!792 = !{!786, !786}
!793 = !DIImportedEntity(tag: DW_TAG_imported_declaration, scope: !97, entity: !794, file: !728, line: 1071)
!794 = !DISubprogram(name: "acoshl", scope: !724, file: !724, line: 85, type: !795, flags: DIFlagPrototyped, spFlags: 0)
!795 = !DISubroutineType(types: !796)
!796 = !{!797, !797}
!797 = !DIBasicType(name: "long double", size: 128, encoding: DW_ATE_float)
!798 = !DIImportedEntity(tag: DW_TAG_imported_declaration, scope: !97, entity: !799, file: !728, line: 1073)
!799 = !DISubprogram(name: "asinh", scope: !724, file: !724, line: 87, type: !725, flags: DIFlagPrototyped, spFlags: 0)
!800 = !DIImportedEntity(tag: DW_TAG_imported_declaration, scope: !97, entity: !801, file: !728, line: 1074)
!801 = !DISubprogram(name: "asinhf", scope: !724, file: !724, line: 87, type: !791, flags: DIFlagPrototyped, spFlags: 0)
!802 = !DIImportedEntity(tag: DW_TAG_imported_declaration, scope: !97, entity: !803, file: !728, line: 1075)
!803 = !DISubprogram(name: "asinhl", scope: !724, file: !724, line: 87, type: !795, flags: DIFlagPrototyped, spFlags: 0)
!804 = !DIImportedEntity(tag: DW_TAG_imported_declaration, scope: !97, entity: !805, file: !728, line: 1077)
!805 = !DISubprogram(name: "atanh", scope: !724, file: !724, line: 89, type: !725, flags: DIFlagPrototyped, spFlags: 0)
!806 = !DIImportedEntity(tag: DW_TAG_imported_declaration, scope: !97, entity: !807, file: !728, line: 1078)
!807 = !DISubprogram(name: "atanhf", scope: !724, file: !724, line: 89, type: !791, flags: DIFlagPrototyped, spFlags: 0)
!808 = !DIImportedEntity(tag: DW_TAG_imported_declaration, scope: !97, entity: !809, file: !728, line: 1079)
!809 = !DISubprogram(name: "atanhl", scope: !724, file: !724, line: 89, type: !795, flags: DIFlagPrototyped, spFlags: 0)
!810 = !DIImportedEntity(tag: DW_TAG_imported_declaration, scope: !97, entity: !811, file: !728, line: 1081)
!811 = !DISubprogram(name: "cbrt", scope: !724, file: !724, line: 152, type: !725, flags: DIFlagPrototyped, spFlags: 0)
!812 = !DIImportedEntity(tag: DW_TAG_imported_declaration, scope: !97, entity: !813, file: !728, line: 1082)
!813 = !DISubprogram(name: "cbrtf", scope: !724, file: !724, line: 152, type: !791, flags: DIFlagPrototyped, spFlags: 0)
!814 = !DIImportedEntity(tag: DW_TAG_imported_declaration, scope: !97, entity: !815, file: !728, line: 1083)
!815 = !DISubprogram(name: "cbrtl", scope: !724, file: !724, line: 152, type: !795, flags: DIFlagPrototyped, spFlags: 0)
!816 = !DIImportedEntity(tag: DW_TAG_imported_declaration, scope: !97, entity: !817, file: !728, line: 1085)
!817 = !DISubprogram(name: "copysign", scope: !724, file: !724, line: 196, type: !735, flags: DIFlagPrototyped, spFlags: 0)
!818 = !DIImportedEntity(tag: DW_TAG_imported_declaration, scope: !97, entity: !819, file: !728, line: 1086)
!819 = !DISubprogram(name: "copysignf", scope: !724, file: !724, line: 196, type: !820, flags: DIFlagPrototyped, spFlags: 0)
!820 = !DISubroutineType(types: !821)
!821 = !{!786, !786, !786}
!822 = !DIImportedEntity(tag: DW_TAG_imported_declaration, scope: !97, entity: !823, file: !728, line: 1087)
!823 = !DISubprogram(name: "copysignl", scope: !724, file: !724, line: 196, type: !824, flags: DIFlagPrototyped, spFlags: 0)
!824 = !DISubroutineType(types: !825)
!825 = !{!797, !797, !797}
!826 = !DIImportedEntity(tag: DW_TAG_imported_declaration, scope: !97, entity: !827, file: !728, line: 1089)
!827 = !DISubprogram(name: "erf", scope: !724, file: !724, line: 228, type: !725, flags: DIFlagPrototyped, spFlags: 0)
!828 = !DIImportedEntity(tag: DW_TAG_imported_declaration, scope: !97, entity: !829, file: !728, line: 1090)
!829 = !DISubprogram(name: "erff", scope: !724, file: !724, line: 228, type: !791, flags: DIFlagPrototyped, spFlags: 0)
!830 = !DIImportedEntity(tag: DW_TAG_imported_declaration, scope: !97, entity: !831, file: !728, line: 1091)
!831 = !DISubprogram(name: "erfl", scope: !724, file: !724, line: 228, type: !795, flags: DIFlagPrototyped, spFlags: 0)
!832 = !DIImportedEntity(tag: DW_TAG_imported_declaration, scope: !97, entity: !833, file: !728, line: 1093)
!833 = !DISubprogram(name: "erfc", scope: !724, file: !724, line: 229, type: !725, flags: DIFlagPrototyped, spFlags: 0)
!834 = !DIImportedEntity(tag: DW_TAG_imported_declaration, scope: !97, entity: !835, file: !728, line: 1094)
!835 = !DISubprogram(name: "erfcf", scope: !724, file: !724, line: 229, type: !791, flags: DIFlagPrototyped, spFlags: 0)
!836 = !DIImportedEntity(tag: DW_TAG_imported_declaration, scope: !97, entity: !837, file: !728, line: 1095)
!837 = !DISubprogram(name: "erfcl", scope: !724, file: !724, line: 229, type: !795, flags: DIFlagPrototyped, spFlags: 0)
!838 = !DIImportedEntity(tag: DW_TAG_imported_declaration, scope: !97, entity: !839, file: !728, line: 1097)
!839 = !DISubprogram(name: "exp2", scope: !724, file: !724, line: 130, type: !725, flags: DIFlagPrototyped, spFlags: 0)
!840 = !DIImportedEntity(tag: DW_TAG_imported_declaration, scope: !97, entity: !841, file: !728, line: 1098)
!841 = !DISubprogram(name: "exp2f", scope: !724, file: !724, line: 130, type: !791, flags: DIFlagPrototyped, spFlags: 0)
!842 = !DIImportedEntity(tag: DW_TAG_imported_declaration, scope: !97, entity: !843, file: !728, line: 1099)
!843 = !DISubprogram(name: "exp2l", scope: !724, file: !724, line: 130, type: !795, flags: DIFlagPrototyped, spFlags: 0)
!844 = !DIImportedEntity(tag: DW_TAG_imported_declaration, scope: !97, entity: !845, file: !728, line: 1101)
!845 = !DISubprogram(name: "expm1", scope: !724, file: !724, line: 119, type: !725, flags: DIFlagPrototyped, spFlags: 0)
!846 = !DIImportedEntity(tag: DW_TAG_imported_declaration, scope: !97, entity: !847, file: !728, line: 1102)
!847 = !DISubprogram(name: "expm1f", scope: !724, file: !724, line: 119, type: !791, flags: DIFlagPrototyped, spFlags: 0)
!848 = !DIImportedEntity(tag: DW_TAG_imported_declaration, scope: !97, entity: !849, file: !728, line: 1103)
!849 = !DISubprogram(name: "expm1l", scope: !724, file: !724, line: 119, type: !795, flags: DIFlagPrototyped, spFlags: 0)
!850 = !DIImportedEntity(tag: DW_TAG_imported_declaration, scope: !97, entity: !851, file: !728, line: 1105)
!851 = !DISubprogram(name: "fdim", scope: !724, file: !724, line: 326, type: !735, flags: DIFlagPrototyped, spFlags: 0)
!852 = !DIImportedEntity(tag: DW_TAG_imported_declaration, scope: !97, entity: !853, file: !728, line: 1106)
!853 = !DISubprogram(name: "fdimf", scope: !724, file: !724, line: 326, type: !820, flags: DIFlagPrototyped, spFlags: 0)
!854 = !DIImportedEntity(tag: DW_TAG_imported_declaration, scope: !97, entity: !855, file: !728, line: 1107)
!855 = !DISubprogram(name: "fdiml", scope: !724, file: !724, line: 326, type: !824, flags: DIFlagPrototyped, spFlags: 0)
!856 = !DIImportedEntity(tag: DW_TAG_imported_declaration, scope: !97, entity: !857, file: !728, line: 1109)
!857 = !DISubprogram(name: "fma", scope: !724, file: !724, line: 335, type: !858, flags: DIFlagPrototyped, spFlags: 0)
!858 = !DISubroutineType(types: !859)
!859 = !{!727, !727, !727, !727}
!860 = !DIImportedEntity(tag: DW_TAG_imported_declaration, scope: !97, entity: !861, file: !728, line: 1110)
!861 = !DISubprogram(name: "fmaf", scope: !724, file: !724, line: 335, type: !862, flags: DIFlagPrototyped, spFlags: 0)
!862 = !DISubroutineType(types: !863)
!863 = !{!786, !786, !786, !786}
!864 = !DIImportedEntity(tag: DW_TAG_imported_declaration, scope: !97, entity: !865, file: !728, line: 1111)
!865 = !DISubprogram(name: "fmal", scope: !724, file: !724, line: 335, type: !866, flags: DIFlagPrototyped, spFlags: 0)
!866 = !DISubroutineType(types: !867)
!867 = !{!797, !797, !797, !797}
!868 = !DIImportedEntity(tag: DW_TAG_imported_declaration, scope: !97, entity: !869, file: !728, line: 1113)
!869 = !DISubprogram(name: "fmax", scope: !724, file: !724, line: 329, type: !735, flags: DIFlagPrototyped, spFlags: 0)
!870 = !DIImportedEntity(tag: DW_TAG_imported_declaration, scope: !97, entity: !871, file: !728, line: 1114)
!871 = !DISubprogram(name: "fmaxf", scope: !724, file: !724, line: 329, type: !820, flags: DIFlagPrototyped, spFlags: 0)
!872 = !DIImportedEntity(tag: DW_TAG_imported_declaration, scope: !97, entity: !873, file: !728, line: 1115)
!873 = !DISubprogram(name: "fmaxl", scope: !724, file: !724, line: 329, type: !824, flags: DIFlagPrototyped, spFlags: 0)
!874 = !DIImportedEntity(tag: DW_TAG_imported_declaration, scope: !97, entity: !875, file: !728, line: 1117)
!875 = !DISubprogram(name: "fmin", scope: !724, file: !724, line: 332, type: !735, flags: DIFlagPrototyped, spFlags: 0)
!876 = !DIImportedEntity(tag: DW_TAG_imported_declaration, scope: !97, entity: !877, file: !728, line: 1118)
!877 = !DISubprogram(name: "fminf", scope: !724, file: !724, line: 332, type: !820, flags: DIFlagPrototyped, spFlags: 0)
!878 = !DIImportedEntity(tag: DW_TAG_imported_declaration, scope: !97, entity: !879, file: !728, line: 1119)
!879 = !DISubprogram(name: "fminl", scope: !724, file: !724, line: 332, type: !824, flags: DIFlagPrototyped, spFlags: 0)
!880 = !DIImportedEntity(tag: DW_TAG_imported_declaration, scope: !97, entity: !881, file: !728, line: 1121)
!881 = !DISubprogram(name: "hypot", scope: !724, file: !724, line: 147, type: !735, flags: DIFlagPrototyped, spFlags: 0)
!882 = !DIImportedEntity(tag: DW_TAG_imported_declaration, scope: !97, entity: !883, file: !728, line: 1122)
!883 = !DISubprogram(name: "hypotf", scope: !724, file: !724, line: 147, type: !820, flags: DIFlagPrototyped, spFlags: 0)
!884 = !DIImportedEntity(tag: DW_TAG_imported_declaration, scope: !97, entity: !885, file: !728, line: 1123)
!885 = !DISubprogram(name: "hypotl", scope: !724, file: !724, line: 147, type: !824, flags: DIFlagPrototyped, spFlags: 0)
!886 = !DIImportedEntity(tag: DW_TAG_imported_declaration, scope: !97, entity: !887, file: !728, line: 1125)
!887 = !DISubprogram(name: "ilogb", scope: !724, file: !724, line: 280, type: !888, flags: DIFlagPrototyped, spFlags: 0)
!888 = !DISubroutineType(types: !889)
!889 = !{!14, !727}
!890 = !DIImportedEntity(tag: DW_TAG_imported_declaration, scope: !97, entity: !891, file: !728, line: 1126)
!891 = !DISubprogram(name: "ilogbf", scope: !724, file: !724, line: 280, type: !892, flags: DIFlagPrototyped, spFlags: 0)
!892 = !DISubroutineType(types: !893)
!893 = !{!14, !786}
!894 = !DIImportedEntity(tag: DW_TAG_imported_declaration, scope: !97, entity: !895, file: !728, line: 1127)
!895 = !DISubprogram(name: "ilogbl", scope: !724, file: !724, line: 280, type: !896, flags: DIFlagPrototyped, spFlags: 0)
!896 = !DISubroutineType(types: !897)
!897 = !{!14, !797}
!898 = !DIImportedEntity(tag: DW_TAG_imported_declaration, scope: !97, entity: !899, file: !728, line: 1129)
!899 = !DISubprogram(name: "lgamma", scope: !724, file: !724, line: 230, type: !725, flags: DIFlagPrototyped, spFlags: 0)
!900 = !DIImportedEntity(tag: DW_TAG_imported_declaration, scope: !97, entity: !901, file: !728, line: 1130)
!901 = !DISubprogram(name: "lgammaf", scope: !724, file: !724, line: 230, type: !791, flags: DIFlagPrototyped, spFlags: 0)
!902 = !DIImportedEntity(tag: DW_TAG_imported_declaration, scope: !97, entity: !903, file: !728, line: 1131)
!903 = !DISubprogram(name: "lgammal", scope: !724, file: !724, line: 230, type: !795, flags: DIFlagPrototyped, spFlags: 0)
!904 = !DIImportedEntity(tag: DW_TAG_imported_declaration, scope: !97, entity: !905, file: !728, line: 1134)
!905 = !DISubprogram(name: "llrint", scope: !724, file: !724, line: 316, type: !906, flags: DIFlagPrototyped, spFlags: 0)
!906 = !DISubroutineType(types: !907)
!907 = !{!908, !727}
!908 = !DIBasicType(name: "long long int", size: 64, encoding: DW_ATE_signed)
!909 = !DIImportedEntity(tag: DW_TAG_imported_declaration, scope: !97, entity: !910, file: !728, line: 1135)
!910 = !DISubprogram(name: "llrintf", scope: !724, file: !724, line: 316, type: !911, flags: DIFlagPrototyped, spFlags: 0)
!911 = !DISubroutineType(types: !912)
!912 = !{!908, !786}
!913 = !DIImportedEntity(tag: DW_TAG_imported_declaration, scope: !97, entity: !914, file: !728, line: 1136)
!914 = !DISubprogram(name: "llrintl", scope: !724, file: !724, line: 316, type: !915, flags: DIFlagPrototyped, spFlags: 0)
!915 = !DISubroutineType(types: !916)
!916 = !{!908, !797}
!917 = !DIImportedEntity(tag: DW_TAG_imported_declaration, scope: !97, entity: !918, file: !728, line: 1138)
!918 = !DISubprogram(name: "llround", scope: !724, file: !724, line: 322, type: !906, flags: DIFlagPrototyped, spFlags: 0)
!919 = !DIImportedEntity(tag: DW_TAG_imported_declaration, scope: !97, entity: !920, file: !728, line: 1139)
!920 = !DISubprogram(name: "llroundf", scope: !724, file: !724, line: 322, type: !911, flags: DIFlagPrototyped, spFlags: 0)
!921 = !DIImportedEntity(tag: DW_TAG_imported_declaration, scope: !97, entity: !922, file: !728, line: 1140)
!922 = !DISubprogram(name: "llroundl", scope: !724, file: !724, line: 322, type: !915, flags: DIFlagPrototyped, spFlags: 0)
!923 = !DIImportedEntity(tag: DW_TAG_imported_declaration, scope: !97, entity: !924, file: !728, line: 1143)
!924 = !DISubprogram(name: "log1p", scope: !724, file: !724, line: 122, type: !725, flags: DIFlagPrototyped, spFlags: 0)
!925 = !DIImportedEntity(tag: DW_TAG_imported_declaration, scope: !97, entity: !926, file: !728, line: 1144)
!926 = !DISubprogram(name: "log1pf", scope: !724, file: !724, line: 122, type: !791, flags: DIFlagPrototyped, spFlags: 0)
!927 = !DIImportedEntity(tag: DW_TAG_imported_declaration, scope: !97, entity: !928, file: !728, line: 1145)
!928 = !DISubprogram(name: "log1pl", scope: !724, file: !724, line: 122, type: !795, flags: DIFlagPrototyped, spFlags: 0)
!929 = !DIImportedEntity(tag: DW_TAG_imported_declaration, scope: !97, entity: !930, file: !728, line: 1147)
!930 = !DISubprogram(name: "log2", scope: !724, file: !724, line: 133, type: !725, flags: DIFlagPrototyped, spFlags: 0)
!931 = !DIImportedEntity(tag: DW_TAG_imported_declaration, scope: !97, entity: !932, file: !728, line: 1148)
!932 = !DISubprogram(name: "log2f", scope: !724, file: !724, line: 133, type: !791, flags: DIFlagPrototyped, spFlags: 0)
!933 = !DIImportedEntity(tag: DW_TAG_imported_declaration, scope: !97, entity: !934, file: !728, line: 1149)
!934 = !DISubprogram(name: "log2l", scope: !724, file: !724, line: 133, type: !795, flags: DIFlagPrototyped, spFlags: 0)
!935 = !DIImportedEntity(tag: DW_TAG_imported_declaration, scope: !97, entity: !936, file: !728, line: 1151)
!936 = !DISubprogram(name: "logb", scope: !724, file: !724, line: 125, type: !725, flags: DIFlagPrototyped, spFlags: 0)
!937 = !DIImportedEntity(tag: DW_TAG_imported_declaration, scope: !97, entity: !938, file: !728, line: 1152)
!938 = !DISubprogram(name: "logbf", scope: !724, file: !724, line: 125, type: !791, flags: DIFlagPrototyped, spFlags: 0)
!939 = !DIImportedEntity(tag: DW_TAG_imported_declaration, scope: !97, entity: !940, file: !728, line: 1153)
!940 = !DISubprogram(name: "logbl", scope: !724, file: !724, line: 125, type: !795, flags: DIFlagPrototyped, spFlags: 0)
!941 = !DIImportedEntity(tag: DW_TAG_imported_declaration, scope: !97, entity: !942, file: !728, line: 1155)
!942 = !DISubprogram(name: "lrint", scope: !724, file: !724, line: 314, type: !943, flags: DIFlagPrototyped, spFlags: 0)
!943 = !DISubroutineType(types: !944)
!944 = !{!945, !727}
!945 = !DIBasicType(name: "long int", size: 64, encoding: DW_ATE_signed)
!946 = !DIImportedEntity(tag: DW_TAG_imported_declaration, scope: !97, entity: !947, file: !728, line: 1156)
!947 = !DISubprogram(name: "lrintf", scope: !724, file: !724, line: 314, type: !948, flags: DIFlagPrototyped, spFlags: 0)
!948 = !DISubroutineType(types: !949)
!949 = !{!945, !786}
!950 = !DIImportedEntity(tag: DW_TAG_imported_declaration, scope: !97, entity: !951, file: !728, line: 1157)
!951 = !DISubprogram(name: "lrintl", scope: !724, file: !724, line: 314, type: !952, flags: DIFlagPrototyped, spFlags: 0)
!952 = !DISubroutineType(types: !953)
!953 = !{!945, !797}
!954 = !DIImportedEntity(tag: DW_TAG_imported_declaration, scope: !97, entity: !955, file: !728, line: 1159)
!955 = !DISubprogram(name: "lround", scope: !724, file: !724, line: 320, type: !943, flags: DIFlagPrototyped, spFlags: 0)
!956 = !DIImportedEntity(tag: DW_TAG_imported_declaration, scope: !97, entity: !957, file: !728, line: 1160)
!957 = !DISubprogram(name: "lroundf", scope: !724, file: !724, line: 320, type: !948, flags: DIFlagPrototyped, spFlags: 0)
!958 = !DIImportedEntity(tag: DW_TAG_imported_declaration, scope: !97, entity: !959, file: !728, line: 1161)
!959 = !DISubprogram(name: "lroundl", scope: !724, file: !724, line: 320, type: !952, flags: DIFlagPrototyped, spFlags: 0)
!960 = !DIImportedEntity(tag: DW_TAG_imported_declaration, scope: !97, entity: !961, file: !728, line: 1163)
!961 = !DISubprogram(name: "nan", scope: !724, file: !724, line: 201, type: !962, flags: DIFlagPrototyped, spFlags: 0)
!962 = !DISubroutineType(types: !963)
!963 = !{!727, !621}
!964 = !DIImportedEntity(tag: DW_TAG_imported_declaration, scope: !97, entity: !965, file: !728, line: 1164)
!965 = !DISubprogram(name: "nanf", scope: !724, file: !724, line: 201, type: !966, flags: DIFlagPrototyped, spFlags: 0)
!966 = !DISubroutineType(types: !967)
!967 = !{!786, !621}
!968 = !DIImportedEntity(tag: DW_TAG_imported_declaration, scope: !97, entity: !969, file: !728, line: 1165)
!969 = !DISubprogram(name: "nanl", scope: !724, file: !724, line: 201, type: !970, flags: DIFlagPrototyped, spFlags: 0)
!970 = !DISubroutineType(types: !971)
!971 = !{!797, !621}
!972 = !DIImportedEntity(tag: DW_TAG_imported_declaration, scope: !97, entity: !973, file: !728, line: 1167)
!973 = !DISubprogram(name: "nearbyint", scope: !724, file: !724, line: 294, type: !725, flags: DIFlagPrototyped, spFlags: 0)
!974 = !DIImportedEntity(tag: DW_TAG_imported_declaration, scope: !97, entity: !975, file: !728, line: 1168)
!975 = !DISubprogram(name: "nearbyintf", scope: !724, file: !724, line: 294, type: !791, flags: DIFlagPrototyped, spFlags: 0)
!976 = !DIImportedEntity(tag: DW_TAG_imported_declaration, scope: !97, entity: !977, file: !728, line: 1169)
!977 = !DISubprogram(name: "nearbyintl", scope: !724, file: !724, line: 294, type: !795, flags: DIFlagPrototyped, spFlags: 0)
!978 = !DIImportedEntity(tag: DW_TAG_imported_declaration, scope: !97, entity: !979, file: !728, line: 1171)
!979 = !DISubprogram(name: "nextafter", scope: !724, file: !724, line: 259, type: !735, flags: DIFlagPrototyped, spFlags: 0)
!980 = !DIImportedEntity(tag: DW_TAG_imported_declaration, scope: !97, entity: !981, file: !728, line: 1172)
!981 = !DISubprogram(name: "nextafterf", scope: !724, file: !724, line: 259, type: !820, flags: DIFlagPrototyped, spFlags: 0)
!982 = !DIImportedEntity(tag: DW_TAG_imported_declaration, scope: !97, entity: !983, file: !728, line: 1173)
!983 = !DISubprogram(name: "nextafterl", scope: !724, file: !724, line: 259, type: !824, flags: DIFlagPrototyped, spFlags: 0)
!984 = !DIImportedEntity(tag: DW_TAG_imported_declaration, scope: !97, entity: !985, file: !728, line: 1175)
!985 = !DISubprogram(name: "nexttoward", scope: !724, file: !724, line: 261, type: !986, flags: DIFlagPrototyped, spFlags: 0)
!986 = !DISubroutineType(types: !987)
!987 = !{!727, !727, !797}
!988 = !DIImportedEntity(tag: DW_TAG_imported_declaration, scope: !97, entity: !989, file: !728, line: 1176)
!989 = !DISubprogram(name: "nexttowardf", scope: !724, file: !724, line: 261, type: !990, flags: DIFlagPrototyped, spFlags: 0)
!990 = !DISubroutineType(types: !991)
!991 = !{!786, !786, !797}
!992 = !DIImportedEntity(tag: DW_TAG_imported_declaration, scope: !97, entity: !993, file: !728, line: 1177)
!993 = !DISubprogram(name: "nexttowardl", scope: !724, file: !724, line: 261, type: !824, flags: DIFlagPrototyped, spFlags: 0)
!994 = !DIImportedEntity(tag: DW_TAG_imported_declaration, scope: !97, entity: !995, file: !728, line: 1179)
!995 = !DISubprogram(name: "remainder", scope: !724, file: !724, line: 272, type: !735, flags: DIFlagPrototyped, spFlags: 0)
!996 = !DIImportedEntity(tag: DW_TAG_imported_declaration, scope: !97, entity: !997, file: !728, line: 1180)
!997 = !DISubprogram(name: "remainderf", scope: !724, file: !724, line: 272, type: !820, flags: DIFlagPrototyped, spFlags: 0)
!998 = !DIImportedEntity(tag: DW_TAG_imported_declaration, scope: !97, entity: !999, file: !728, line: 1181)
!999 = !DISubprogram(name: "remainderl", scope: !724, file: !724, line: 272, type: !824, flags: DIFlagPrototyped, spFlags: 0)
!1000 = !DIImportedEntity(tag: DW_TAG_imported_declaration, scope: !97, entity: !1001, file: !728, line: 1183)
!1001 = !DISubprogram(name: "remquo", scope: !724, file: !724, line: 307, type: !1002, flags: DIFlagPrototyped, spFlags: 0)
!1002 = !DISubroutineType(types: !1003)
!1003 = !{!727, !727, !727, !755}
!1004 = !DIImportedEntity(tag: DW_TAG_imported_declaration, scope: !97, entity: !1005, file: !728, line: 1184)
!1005 = !DISubprogram(name: "remquof", scope: !724, file: !724, line: 307, type: !1006, flags: DIFlagPrototyped, spFlags: 0)
!1006 = !DISubroutineType(types: !1007)
!1007 = !{!786, !786, !786, !755}
!1008 = !DIImportedEntity(tag: DW_TAG_imported_declaration, scope: !97, entity: !1009, file: !728, line: 1185)
!1009 = !DISubprogram(name: "remquol", scope: !724, file: !724, line: 307, type: !1010, flags: DIFlagPrototyped, spFlags: 0)
!1010 = !DISubroutineType(types: !1011)
!1011 = !{!797, !797, !797, !755}
!1012 = !DIImportedEntity(tag: DW_TAG_imported_declaration, scope: !97, entity: !1013, file: !728, line: 1187)
!1013 = !DISubprogram(name: "rint", scope: !724, file: !724, line: 256, type: !725, flags: DIFlagPrototyped, spFlags: 0)
!1014 = !DIImportedEntity(tag: DW_TAG_imported_declaration, scope: !97, entity: !1015, file: !728, line: 1188)
!1015 = !DISubprogram(name: "rintf", scope: !724, file: !724, line: 256, type: !791, flags: DIFlagPrototyped, spFlags: 0)
!1016 = !DIImportedEntity(tag: DW_TAG_imported_declaration, scope: !97, entity: !1017, file: !728, line: 1189)
!1017 = !DISubprogram(name: "rintl", scope: !724, file: !724, line: 256, type: !795, flags: DIFlagPrototyped, spFlags: 0)
!1018 = !DIImportedEntity(tag: DW_TAG_imported_declaration, scope: !97, entity: !1019, file: !728, line: 1191)
!1019 = !DISubprogram(name: "round", scope: !724, file: !724, line: 298, type: !725, flags: DIFlagPrototyped, spFlags: 0)
!1020 = !DIImportedEntity(tag: DW_TAG_imported_declaration, scope: !97, entity: !1021, file: !728, line: 1192)
!1021 = !DISubprogram(name: "roundf", scope: !724, file: !724, line: 298, type: !791, flags: DIFlagPrototyped, spFlags: 0)
!1022 = !DIImportedEntity(tag: DW_TAG_imported_declaration, scope: !97, entity: !1023, file: !728, line: 1193)
!1023 = !DISubprogram(name: "roundl", scope: !724, file: !724, line: 298, type: !795, flags: DIFlagPrototyped, spFlags: 0)
!1024 = !DIImportedEntity(tag: DW_TAG_imported_declaration, scope: !97, entity: !1025, file: !728, line: 1195)
!1025 = !DISubprogram(name: "scalbln", scope: !724, file: !724, line: 290, type: !1026, flags: DIFlagPrototyped, spFlags: 0)
!1026 = !DISubroutineType(types: !1027)
!1027 = !{!727, !727, !945}
!1028 = !DIImportedEntity(tag: DW_TAG_imported_declaration, scope: !97, entity: !1029, file: !728, line: 1196)
!1029 = !DISubprogram(name: "scalblnf", scope: !724, file: !724, line: 290, type: !1030, flags: DIFlagPrototyped, spFlags: 0)
!1030 = !DISubroutineType(types: !1031)
!1031 = !{!786, !786, !945}
!1032 = !DIImportedEntity(tag: DW_TAG_imported_declaration, scope: !97, entity: !1033, file: !728, line: 1197)
!1033 = !DISubprogram(name: "scalblnl", scope: !724, file: !724, line: 290, type: !1034, flags: DIFlagPrototyped, spFlags: 0)
!1034 = !DISubroutineType(types: !1035)
!1035 = !{!797, !797, !945}
!1036 = !DIImportedEntity(tag: DW_TAG_imported_declaration, scope: !97, entity: !1037, file: !728, line: 1199)
!1037 = !DISubprogram(name: "scalbn", scope: !724, file: !724, line: 276, type: !758, flags: DIFlagPrototyped, spFlags: 0)
!1038 = !DIImportedEntity(tag: DW_TAG_imported_declaration, scope: !97, entity: !1039, file: !728, line: 1200)
!1039 = !DISubprogram(name: "scalbnf", scope: !724, file: !724, line: 276, type: !1040, flags: DIFlagPrototyped, spFlags: 0)
!1040 = !DISubroutineType(types: !1041)
!1041 = !{!786, !786, !14}
!1042 = !DIImportedEntity(tag: DW_TAG_imported_declaration, scope: !97, entity: !1043, file: !728, line: 1201)
!1043 = !DISubprogram(name: "scalbnl", scope: !724, file: !724, line: 276, type: !1044, flags: DIFlagPrototyped, spFlags: 0)
!1044 = !DISubroutineType(types: !1045)
!1045 = !{!797, !797, !14}
!1046 = !DIImportedEntity(tag: DW_TAG_imported_declaration, scope: !97, entity: !1047, file: !728, line: 1203)
!1047 = !DISubprogram(name: "tgamma", scope: !724, file: !724, line: 235, type: !725, flags: DIFlagPrototyped, spFlags: 0)
!1048 = !DIImportedEntity(tag: DW_TAG_imported_declaration, scope: !97, entity: !1049, file: !728, line: 1204)
!1049 = !DISubprogram(name: "tgammaf", scope: !724, file: !724, line: 235, type: !791, flags: DIFlagPrototyped, spFlags: 0)
!1050 = !DIImportedEntity(tag: DW_TAG_imported_declaration, scope: !97, entity: !1051, file: !728, line: 1205)
!1051 = !DISubprogram(name: "tgammal", scope: !724, file: !724, line: 235, type: !795, flags: DIFlagPrototyped, spFlags: 0)
!1052 = !DIImportedEntity(tag: DW_TAG_imported_declaration, scope: !97, entity: !1053, file: !728, line: 1207)
!1053 = !DISubprogram(name: "trunc", scope: !724, file: !724, line: 302, type: !725, flags: DIFlagPrototyped, spFlags: 0)
!1054 = !DIImportedEntity(tag: DW_TAG_imported_declaration, scope: !97, entity: !1055, file: !728, line: 1208)
!1055 = !DISubprogram(name: "truncf", scope: !724, file: !724, line: 302, type: !791, flags: DIFlagPrototyped, spFlags: 0)
!1056 = !DIImportedEntity(tag: DW_TAG_imported_declaration, scope: !97, entity: !1057, file: !728, line: 1209)
!1057 = !DISubprogram(name: "truncl", scope: !724, file: !724, line: 302, type: !795, flags: DIFlagPrototyped, spFlags: 0)
!1058 = !DIImportedEntity(tag: DW_TAG_imported_declaration, scope: !97, entity: !1059, file: !1074, line: 64)
!1059 = !DIDerivedType(tag: DW_TAG_typedef, name: "mbstate_t", file: !1060, line: 6, baseType: !1061)
!1060 = !DIFile(filename: "/usr/include/x86_64-linux-gnu/bits/types/mbstate_t.h", directory: "")
!1061 = !DIDerivedType(tag: DW_TAG_typedef, name: "__mbstate_t", file: !1062, line: 21, baseType: !1063)
!1062 = !DIFile(filename: "/usr/include/x86_64-linux-gnu/bits/types/__mbstate_t.h", directory: "")
!1063 = distinct !DICompositeType(tag: DW_TAG_structure_type, file: !1062, line: 13, size: 64, flags: DIFlagTypePassByValue, elements: !1064, identifier: "_ZTS11__mbstate_t")
!1064 = !{!1065, !1066}
!1065 = !DIDerivedType(tag: DW_TAG_member, name: "__count", scope: !1063, file: !1062, line: 15, baseType: !14, size: 32)
!1066 = !DIDerivedType(tag: DW_TAG_member, name: "__value", scope: !1063, file: !1062, line: 20, baseType: !1067, size: 32, offset: 32)
!1067 = distinct !DICompositeType(tag: DW_TAG_union_type, scope: !1063, file: !1062, line: 16, size: 32, flags: DIFlagTypePassByValue, elements: !1068, identifier: "_ZTSN11__mbstate_tUt_E")
!1068 = !{!1069, !1070}
!1069 = !DIDerivedType(tag: DW_TAG_member, name: "__wch", scope: !1067, file: !1062, line: 18, baseType: !128, size: 32)
!1070 = !DIDerivedType(tag: DW_TAG_member, name: "__wchb", scope: !1067, file: !1062, line: 19, baseType: !1071, size: 32)
!1071 = !DICompositeType(tag: DW_TAG_array_type, baseType: !623, size: 32, elements: !1072)
!1072 = !{!1073}
!1073 = !DISubrange(count: 4)
!1074 = !DIFile(filename: "/usr/lib/gcc/x86_64-linux-gnu/10/../../../../include/c++/10/cwchar", directory: "")
!1075 = !DIImportedEntity(tag: DW_TAG_imported_declaration, scope: !97, entity: !1076, file: !1074, line: 141)
!1076 = !DIDerivedType(tag: DW_TAG_typedef, name: "wint_t", file: !1077, line: 20, baseType: !128)
!1077 = !DIFile(filename: "/usr/include/x86_64-linux-gnu/bits/types/wint_t.h", directory: "")
!1078 = !DIImportedEntity(tag: DW_TAG_imported_declaration, scope: !97, entity: !1079, file: !1074, line: 143)
!1079 = !DISubprogram(name: "btowc", scope: !1080, file: !1080, line: 284, type: !1081, flags: DIFlagPrototyped, spFlags: 0)
!1080 = !DIFile(filename: "/usr/include/wchar.h", directory: "")
!1081 = !DISubroutineType(types: !1082)
!1082 = !{!1076, !14}
!1083 = !DIImportedEntity(tag: DW_TAG_imported_declaration, scope: !97, entity: !1084, file: !1074, line: 144)
!1084 = !DISubprogram(name: "fgetwc", scope: !1080, file: !1080, line: 726, type: !1085, flags: DIFlagPrototyped, spFlags: 0)
!1085 = !DISubroutineType(types: !1086)
!1086 = !{!1076, !1087}
!1087 = !DIDerivedType(tag: DW_TAG_pointer_type, baseType: !1088, size: 64)
!1088 = !DIDerivedType(tag: DW_TAG_typedef, name: "__FILE", file: !1089, line: 5, baseType: !1090)
!1089 = !DIFile(filename: "/usr/include/x86_64-linux-gnu/bits/types/__FILE.h", directory: "")
!1090 = !DICompositeType(tag: DW_TAG_structure_type, name: "_IO_FILE", file: !1089, line: 4, flags: DIFlagFwdDecl, identifier: "_ZTS8_IO_FILE")
!1091 = !DIImportedEntity(tag: DW_TAG_imported_declaration, scope: !97, entity: !1092, file: !1074, line: 145)
!1092 = !DISubprogram(name: "fgetws", scope: !1080, file: !1080, line: 755, type: !1093, flags: DIFlagPrototyped, spFlags: 0)
!1093 = !DISubroutineType(types: !1094)
!1094 = !{!1095, !1097, !14, !1098}
!1095 = !DIDerivedType(tag: DW_TAG_pointer_type, baseType: !1096, size: 64)
!1096 = !DIBasicType(name: "wchar_t", size: 32, encoding: DW_ATE_signed)
!1097 = !DIDerivedType(tag: DW_TAG_restrict_type, baseType: !1095)
!1098 = !DIDerivedType(tag: DW_TAG_restrict_type, baseType: !1087)
!1099 = !DIImportedEntity(tag: DW_TAG_imported_declaration, scope: !97, entity: !1100, file: !1074, line: 146)
!1100 = !DISubprogram(name: "fputwc", scope: !1080, file: !1080, line: 740, type: !1101, flags: DIFlagPrototyped, spFlags: 0)
!1101 = !DISubroutineType(types: !1102)
!1102 = !{!1076, !1096, !1087}
!1103 = !DIImportedEntity(tag: DW_TAG_imported_declaration, scope: !97, entity: !1104, file: !1074, line: 147)
!1104 = !DISubprogram(name: "fputws", scope: !1080, file: !1080, line: 762, type: !1105, flags: DIFlagPrototyped, spFlags: 0)
!1105 = !DISubroutineType(types: !1106)
!1106 = !{!14, !1107, !1098}
!1107 = !DIDerivedType(tag: DW_TAG_restrict_type, baseType: !1108)
!1108 = !DIDerivedType(tag: DW_TAG_pointer_type, baseType: !1109, size: 64)
!1109 = !DIDerivedType(tag: DW_TAG_const_type, baseType: !1096)
!1110 = !DIImportedEntity(tag: DW_TAG_imported_declaration, scope: !97, entity: !1111, file: !1074, line: 148)
!1111 = !DISubprogram(name: "fwide", scope: !1080, file: !1080, line: 573, type: !1112, flags: DIFlagPrototyped, spFlags: 0)
!1112 = !DISubroutineType(types: !1113)
!1113 = !{!14, !1087, !14}
!1114 = !DIImportedEntity(tag: DW_TAG_imported_declaration, scope: !97, entity: !1115, file: !1074, line: 149)
!1115 = !DISubprogram(name: "fwprintf", scope: !1080, file: !1080, line: 580, type: !1116, flags: DIFlagPrototyped, spFlags: 0)
!1116 = !DISubroutineType(types: !1117)
!1117 = !{!14, !1098, !1107, null}
!1118 = !DIImportedEntity(tag: DW_TAG_imported_declaration, scope: !97, entity: !1119, file: !1074, line: 150)
!1119 = !DISubprogram(name: "fwscanf", linkageName: "__isoc99_fwscanf", scope: !1080, file: !1080, line: 640, type: !1116, flags: DIFlagPrototyped, spFlags: 0)
!1120 = !DIImportedEntity(tag: DW_TAG_imported_declaration, scope: !97, entity: !1121, file: !1074, line: 151)
!1121 = !DISubprogram(name: "getwc", scope: !1080, file: !1080, line: 727, type: !1085, flags: DIFlagPrototyped, spFlags: 0)
!1122 = !DIImportedEntity(tag: DW_TAG_imported_declaration, scope: !97, entity: !1123, file: !1074, line: 152)
!1123 = !DISubprogram(name: "getwchar", scope: !1080, file: !1080, line: 733, type: !1124, flags: DIFlagPrototyped, spFlags: 0)
!1124 = !DISubroutineType(types: !1125)
!1125 = !{!1076}
!1126 = !DIImportedEntity(tag: DW_TAG_imported_declaration, scope: !97, entity: !1127, file: !1074, line: 153)
!1127 = !DISubprogram(name: "mbrlen", scope: !1080, file: !1080, line: 307, type: !1128, flags: DIFlagPrototyped, spFlags: 0)
!1128 = !DISubroutineType(types: !1129)
!1129 = !{!1130, !1132, !1130, !1133}
!1130 = !DIDerivedType(tag: DW_TAG_typedef, name: "size_t", file: !1131, line: 46, baseType: !231)
!1131 = !DIFile(filename: "Rohit/IR2Vec-LoopOptimizationFramework/build_REL_AsrtON/lib/clang/10.0.1/include/stddef.h", directory: "/home/venkat/IF-DV")
!1132 = !DIDerivedType(tag: DW_TAG_restrict_type, baseType: !621)
!1133 = !DIDerivedType(tag: DW_TAG_restrict_type, baseType: !1134)
!1134 = !DIDerivedType(tag: DW_TAG_pointer_type, baseType: !1059, size: 64)
!1135 = !DIImportedEntity(tag: DW_TAG_imported_declaration, scope: !97, entity: !1136, file: !1074, line: 154)
!1136 = !DISubprogram(name: "mbrtowc", scope: !1080, file: !1080, line: 296, type: !1137, flags: DIFlagPrototyped, spFlags: 0)
!1137 = !DISubroutineType(types: !1138)
!1138 = !{!1130, !1097, !1132, !1130, !1133}
!1139 = !DIImportedEntity(tag: DW_TAG_imported_declaration, scope: !97, entity: !1140, file: !1074, line: 155)
!1140 = !DISubprogram(name: "mbsinit", scope: !1080, file: !1080, line: 292, type: !1141, flags: DIFlagPrototyped, spFlags: 0)
!1141 = !DISubroutineType(types: !1142)
!1142 = !{!14, !1143}
!1143 = !DIDerivedType(tag: DW_TAG_pointer_type, baseType: !1144, size: 64)
!1144 = !DIDerivedType(tag: DW_TAG_const_type, baseType: !1059)
!1145 = !DIImportedEntity(tag: DW_TAG_imported_declaration, scope: !97, entity: !1146, file: !1074, line: 156)
!1146 = !DISubprogram(name: "mbsrtowcs", scope: !1080, file: !1080, line: 337, type: !1147, flags: DIFlagPrototyped, spFlags: 0)
!1147 = !DISubroutineType(types: !1148)
!1148 = !{!1130, !1097, !1149, !1130, !1133}
!1149 = !DIDerivedType(tag: DW_TAG_restrict_type, baseType: !1150)
!1150 = !DIDerivedType(tag: DW_TAG_pointer_type, baseType: !621, size: 64)
!1151 = !DIImportedEntity(tag: DW_TAG_imported_declaration, scope: !97, entity: !1152, file: !1074, line: 157)
!1152 = !DISubprogram(name: "putwc", scope: !1080, file: !1080, line: 741, type: !1101, flags: DIFlagPrototyped, spFlags: 0)
!1153 = !DIImportedEntity(tag: DW_TAG_imported_declaration, scope: !97, entity: !1154, file: !1074, line: 158)
!1154 = !DISubprogram(name: "putwchar", scope: !1080, file: !1080, line: 747, type: !1155, flags: DIFlagPrototyped, spFlags: 0)
!1155 = !DISubroutineType(types: !1156)
!1156 = !{!1076, !1096}
!1157 = !DIImportedEntity(tag: DW_TAG_imported_declaration, scope: !97, entity: !1158, file: !1074, line: 160)
!1158 = !DISubprogram(name: "swprintf", scope: !1080, file: !1080, line: 590, type: !1159, flags: DIFlagPrototyped, spFlags: 0)
!1159 = !DISubroutineType(types: !1160)
!1160 = !{!14, !1097, !1130, !1107, null}
!1161 = !DIImportedEntity(tag: DW_TAG_imported_declaration, scope: !97, entity: !1162, file: !1074, line: 162)
!1162 = !DISubprogram(name: "swscanf", linkageName: "__isoc99_swscanf", scope: !1080, file: !1080, line: 647, type: !1163, flags: DIFlagPrototyped, spFlags: 0)
!1163 = !DISubroutineType(types: !1164)
!1164 = !{!14, !1107, !1107, null}
!1165 = !DIImportedEntity(tag: DW_TAG_imported_declaration, scope: !97, entity: !1166, file: !1074, line: 163)
!1166 = !DISubprogram(name: "ungetwc", scope: !1080, file: !1080, line: 770, type: !1167, flags: DIFlagPrototyped, spFlags: 0)
!1167 = !DISubroutineType(types: !1168)
!1168 = !{!1076, !1076, !1087}
!1169 = !DIImportedEntity(tag: DW_TAG_imported_declaration, scope: !97, entity: !1170, file: !1074, line: 164)
!1170 = !DISubprogram(name: "vfwprintf", scope: !1080, file: !1080, line: 598, type: !1171, flags: DIFlagPrototyped, spFlags: 0)
!1171 = !DISubroutineType(types: !1172)
!1172 = !{!14, !1098, !1107, !1173}
!1173 = !DIDerivedType(tag: DW_TAG_pointer_type, baseType: !1174, size: 64)
!1174 = distinct !DICompositeType(tag: DW_TAG_structure_type, name: "__va_list_tag", file: !123, size: 192, flags: DIFlagTypePassByValue, elements: !1175, identifier: "_ZTS13__va_list_tag")
!1175 = !{!1176, !1177, !1178, !1180}
!1176 = !DIDerivedType(tag: DW_TAG_member, name: "gp_offset", scope: !1174, file: !123, baseType: !128, size: 32)
!1177 = !DIDerivedType(tag: DW_TAG_member, name: "fp_offset", scope: !1174, file: !123, baseType: !128, size: 32, offset: 32)
!1178 = !DIDerivedType(tag: DW_TAG_member, name: "overflow_arg_area", scope: !1174, file: !123, baseType: !1179, size: 64, offset: 64)
!1179 = !DIDerivedType(tag: DW_TAG_pointer_type, baseType: null, size: 64)
!1180 = !DIDerivedType(tag: DW_TAG_member, name: "reg_save_area", scope: !1174, file: !123, baseType: !1179, size: 64, offset: 128)
!1181 = !DIImportedEntity(tag: DW_TAG_imported_declaration, scope: !97, entity: !1182, file: !1074, line: 166)
!1182 = !DISubprogram(name: "vfwscanf", linkageName: "__isoc99_vfwscanf", scope: !1080, file: !1080, line: 693, type: !1171, flags: DIFlagPrototyped, spFlags: 0)
!1183 = !DIImportedEntity(tag: DW_TAG_imported_declaration, scope: !97, entity: !1184, file: !1074, line: 169)
!1184 = !DISubprogram(name: "vswprintf", scope: !1080, file: !1080, line: 611, type: !1185, flags: DIFlagPrototyped, spFlags: 0)
!1185 = !DISubroutineType(types: !1186)
!1186 = !{!14, !1097, !1130, !1107, !1173}
!1187 = !DIImportedEntity(tag: DW_TAG_imported_declaration, scope: !97, entity: !1188, file: !1074, line: 172)
!1188 = !DISubprogram(name: "vswscanf", linkageName: "__isoc99_vswscanf", scope: !1080, file: !1080, line: 700, type: !1189, flags: DIFlagPrototyped, spFlags: 0)
!1189 = !DISubroutineType(types: !1190)
!1190 = !{!14, !1107, !1107, !1173}
!1191 = !DIImportedEntity(tag: DW_TAG_imported_declaration, scope: !97, entity: !1192, file: !1074, line: 174)
!1192 = !DISubprogram(name: "vwprintf", scope: !1080, file: !1080, line: 606, type: !1193, flags: DIFlagPrototyped, spFlags: 0)
!1193 = !DISubroutineType(types: !1194)
!1194 = !{!14, !1107, !1173}
!1195 = !DIImportedEntity(tag: DW_TAG_imported_declaration, scope: !97, entity: !1196, file: !1074, line: 176)
!1196 = !DISubprogram(name: "vwscanf", linkageName: "__isoc99_vwscanf", scope: !1080, file: !1080, line: 697, type: !1193, flags: DIFlagPrototyped, spFlags: 0)
!1197 = !DIImportedEntity(tag: DW_TAG_imported_declaration, scope: !97, entity: !1198, file: !1074, line: 178)
!1198 = !DISubprogram(name: "wcrtomb", scope: !1080, file: !1080, line: 301, type: !1199, flags: DIFlagPrototyped, spFlags: 0)
!1199 = !DISubroutineType(types: !1200)
!1200 = !{!1130, !1201, !1096, !1133}
!1201 = !DIDerivedType(tag: DW_TAG_restrict_type, baseType: !1202)
!1202 = !DIDerivedType(tag: DW_TAG_pointer_type, baseType: !623, size: 64)
!1203 = !DIImportedEntity(tag: DW_TAG_imported_declaration, scope: !97, entity: !1204, file: !1074, line: 179)
!1204 = !DISubprogram(name: "wcscat", scope: !1080, file: !1080, line: 97, type: !1205, flags: DIFlagPrototyped, spFlags: 0)
!1205 = !DISubroutineType(types: !1206)
!1206 = !{!1095, !1097, !1107}
!1207 = !DIImportedEntity(tag: DW_TAG_imported_declaration, scope: !97, entity: !1208, file: !1074, line: 180)
!1208 = !DISubprogram(name: "wcscmp", scope: !1080, file: !1080, line: 106, type: !1209, flags: DIFlagPrototyped, spFlags: 0)
!1209 = !DISubroutineType(types: !1210)
!1210 = !{!14, !1108, !1108}
!1211 = !DIImportedEntity(tag: DW_TAG_imported_declaration, scope: !97, entity: !1212, file: !1074, line: 181)
!1212 = !DISubprogram(name: "wcscoll", scope: !1080, file: !1080, line: 131, type: !1209, flags: DIFlagPrototyped, spFlags: 0)
!1213 = !DIImportedEntity(tag: DW_TAG_imported_declaration, scope: !97, entity: !1214, file: !1074, line: 182)
!1214 = !DISubprogram(name: "wcscpy", scope: !1080, file: !1080, line: 87, type: !1205, flags: DIFlagPrototyped, spFlags: 0)
!1215 = !DIImportedEntity(tag: DW_TAG_imported_declaration, scope: !97, entity: !1216, file: !1074, line: 183)
!1216 = !DISubprogram(name: "wcscspn", scope: !1080, file: !1080, line: 187, type: !1217, flags: DIFlagPrototyped, spFlags: 0)
!1217 = !DISubroutineType(types: !1218)
!1218 = !{!1130, !1108, !1108}
!1219 = !DIImportedEntity(tag: DW_TAG_imported_declaration, scope: !97, entity: !1220, file: !1074, line: 184)
!1220 = !DISubprogram(name: "wcsftime", scope: !1080, file: !1080, line: 834, type: !1221, flags: DIFlagPrototyped, spFlags: 0)
!1221 = !DISubroutineType(types: !1222)
!1222 = !{!1130, !1097, !1130, !1107, !1223}
!1223 = !DIDerivedType(tag: DW_TAG_restrict_type, baseType: !1224)
!1224 = !DIDerivedType(tag: DW_TAG_pointer_type, baseType: !1225, size: 64)
!1225 = !DIDerivedType(tag: DW_TAG_const_type, baseType: !1226)
!1226 = distinct !DICompositeType(tag: DW_TAG_structure_type, name: "tm", file: !1227, line: 7, size: 448, flags: DIFlagTypePassByValue, elements: !1228, identifier: "_ZTS2tm")
!1227 = !DIFile(filename: "/usr/include/x86_64-linux-gnu/bits/types/struct_tm.h", directory: "")
!1228 = !{!1229, !1230, !1231, !1232, !1233, !1234, !1235, !1236, !1237, !1238, !1239}
!1229 = !DIDerivedType(tag: DW_TAG_member, name: "tm_sec", scope: !1226, file: !1227, line: 9, baseType: !14, size: 32)
!1230 = !DIDerivedType(tag: DW_TAG_member, name: "tm_min", scope: !1226, file: !1227, line: 10, baseType: !14, size: 32, offset: 32)
!1231 = !DIDerivedType(tag: DW_TAG_member, name: "tm_hour", scope: !1226, file: !1227, line: 11, baseType: !14, size: 32, offset: 64)
!1232 = !DIDerivedType(tag: DW_TAG_member, name: "tm_mday", scope: !1226, file: !1227, line: 12, baseType: !14, size: 32, offset: 96)
!1233 = !DIDerivedType(tag: DW_TAG_member, name: "tm_mon", scope: !1226, file: !1227, line: 13, baseType: !14, size: 32, offset: 128)
!1234 = !DIDerivedType(tag: DW_TAG_member, name: "tm_year", scope: !1226, file: !1227, line: 14, baseType: !14, size: 32, offset: 160)
!1235 = !DIDerivedType(tag: DW_TAG_member, name: "tm_wday", scope: !1226, file: !1227, line: 15, baseType: !14, size: 32, offset: 192)
!1236 = !DIDerivedType(tag: DW_TAG_member, name: "tm_yday", scope: !1226, file: !1227, line: 16, baseType: !14, size: 32, offset: 224)
!1237 = !DIDerivedType(tag: DW_TAG_member, name: "tm_isdst", scope: !1226, file: !1227, line: 17, baseType: !14, size: 32, offset: 256)
!1238 = !DIDerivedType(tag: DW_TAG_member, name: "tm_gmtoff", scope: !1226, file: !1227, line: 20, baseType: !945, size: 64, offset: 320)
!1239 = !DIDerivedType(tag: DW_TAG_member, name: "tm_zone", scope: !1226, file: !1227, line: 21, baseType: !621, size: 64, offset: 384)
!1240 = !DIImportedEntity(tag: DW_TAG_imported_declaration, scope: !97, entity: !1241, file: !1074, line: 185)
!1241 = !DISubprogram(name: "wcslen", scope: !1080, file: !1080, line: 222, type: !1242, flags: DIFlagPrototyped, spFlags: 0)
!1242 = !DISubroutineType(types: !1243)
!1243 = !{!1130, !1108}
!1244 = !DIImportedEntity(tag: DW_TAG_imported_declaration, scope: !97, entity: !1245, file: !1074, line: 186)
!1245 = !DISubprogram(name: "wcsncat", scope: !1080, file: !1080, line: 101, type: !1246, flags: DIFlagPrototyped, spFlags: 0)
!1246 = !DISubroutineType(types: !1247)
!1247 = !{!1095, !1097, !1107, !1130}
!1248 = !DIImportedEntity(tag: DW_TAG_imported_declaration, scope: !97, entity: !1249, file: !1074, line: 187)
!1249 = !DISubprogram(name: "wcsncmp", scope: !1080, file: !1080, line: 109, type: !1250, flags: DIFlagPrototyped, spFlags: 0)
!1250 = !DISubroutineType(types: !1251)
!1251 = !{!14, !1108, !1108, !1130}
!1252 = !DIImportedEntity(tag: DW_TAG_imported_declaration, scope: !97, entity: !1253, file: !1074, line: 188)
!1253 = !DISubprogram(name: "wcsncpy", scope: !1080, file: !1080, line: 92, type: !1246, flags: DIFlagPrototyped, spFlags: 0)
!1254 = !DIImportedEntity(tag: DW_TAG_imported_declaration, scope: !97, entity: !1255, file: !1074, line: 189)
!1255 = !DISubprogram(name: "wcsrtombs", scope: !1080, file: !1080, line: 343, type: !1256, flags: DIFlagPrototyped, spFlags: 0)
!1256 = !DISubroutineType(types: !1257)
!1257 = !{!1130, !1201, !1258, !1130, !1133}
!1258 = !DIDerivedType(tag: DW_TAG_restrict_type, baseType: !1259)
!1259 = !DIDerivedType(tag: DW_TAG_pointer_type, baseType: !1108, size: 64)
!1260 = !DIImportedEntity(tag: DW_TAG_imported_declaration, scope: !97, entity: !1261, file: !1074, line: 190)
!1261 = !DISubprogram(name: "wcsspn", scope: !1080, file: !1080, line: 191, type: !1217, flags: DIFlagPrototyped, spFlags: 0)
!1262 = !DIImportedEntity(tag: DW_TAG_imported_declaration, scope: !97, entity: !1263, file: !1074, line: 191)
!1263 = !DISubprogram(name: "wcstod", scope: !1080, file: !1080, line: 377, type: !1264, flags: DIFlagPrototyped, spFlags: 0)
!1264 = !DISubroutineType(types: !1265)
!1265 = !{!727, !1107, !1266}
!1266 = !DIDerivedType(tag: DW_TAG_restrict_type, baseType: !1267)
!1267 = !DIDerivedType(tag: DW_TAG_pointer_type, baseType: !1095, size: 64)
!1268 = !DIImportedEntity(tag: DW_TAG_imported_declaration, scope: !97, entity: !1269, file: !1074, line: 193)
!1269 = !DISubprogram(name: "wcstof", scope: !1080, file: !1080, line: 382, type: !1270, flags: DIFlagPrototyped, spFlags: 0)
!1270 = !DISubroutineType(types: !1271)
!1271 = !{!786, !1107, !1266}
!1272 = !DIImportedEntity(tag: DW_TAG_imported_declaration, scope: !97, entity: !1273, file: !1074, line: 195)
!1273 = !DISubprogram(name: "wcstok", scope: !1080, file: !1080, line: 217, type: !1274, flags: DIFlagPrototyped, spFlags: 0)
!1274 = !DISubroutineType(types: !1275)
!1275 = !{!1095, !1097, !1107, !1266}
!1276 = !DIImportedEntity(tag: DW_TAG_imported_declaration, scope: !97, entity: !1277, file: !1074, line: 196)
!1277 = !DISubprogram(name: "wcstol", scope: !1080, file: !1080, line: 428, type: !1278, flags: DIFlagPrototyped, spFlags: 0)
!1278 = !DISubroutineType(types: !1279)
!1279 = !{!945, !1107, !1266, !14}
!1280 = !DIImportedEntity(tag: DW_TAG_imported_declaration, scope: !97, entity: !1281, file: !1074, line: 197)
!1281 = !DISubprogram(name: "wcstoul", scope: !1080, file: !1080, line: 433, type: !1282, flags: DIFlagPrototyped, spFlags: 0)
!1282 = !DISubroutineType(types: !1283)
!1283 = !{!231, !1107, !1266, !14}
!1284 = !DIImportedEntity(tag: DW_TAG_imported_declaration, scope: !97, entity: !1285, file: !1074, line: 198)
!1285 = !DISubprogram(name: "wcsxfrm", scope: !1080, file: !1080, line: 135, type: !1286, flags: DIFlagPrototyped, spFlags: 0)
!1286 = !DISubroutineType(types: !1287)
!1287 = !{!1130, !1097, !1107, !1130}
!1288 = !DIImportedEntity(tag: DW_TAG_imported_declaration, scope: !97, entity: !1289, file: !1074, line: 199)
!1289 = !DISubprogram(name: "wctob", scope: !1080, file: !1080, line: 288, type: !1290, flags: DIFlagPrototyped, spFlags: 0)
!1290 = !DISubroutineType(types: !1291)
!1291 = !{!14, !1076}
!1292 = !DIImportedEntity(tag: DW_TAG_imported_declaration, scope: !97, entity: !1293, file: !1074, line: 200)
!1293 = !DISubprogram(name: "wmemcmp", scope: !1080, file: !1080, line: 258, type: !1250, flags: DIFlagPrototyped, spFlags: 0)
!1294 = !DIImportedEntity(tag: DW_TAG_imported_declaration, scope: !97, entity: !1295, file: !1074, line: 201)
!1295 = !DISubprogram(name: "wmemcpy", scope: !1080, file: !1080, line: 262, type: !1246, flags: DIFlagPrototyped, spFlags: 0)
!1296 = !DIImportedEntity(tag: DW_TAG_imported_declaration, scope: !97, entity: !1297, file: !1074, line: 202)
!1297 = !DISubprogram(name: "wmemmove", scope: !1080, file: !1080, line: 267, type: !1298, flags: DIFlagPrototyped, spFlags: 0)
!1298 = !DISubroutineType(types: !1299)
!1299 = !{!1095, !1095, !1108, !1130}
!1300 = !DIImportedEntity(tag: DW_TAG_imported_declaration, scope: !97, entity: !1301, file: !1074, line: 203)
!1301 = !DISubprogram(name: "wmemset", scope: !1080, file: !1080, line: 271, type: !1302, flags: DIFlagPrototyped, spFlags: 0)
!1302 = !DISubroutineType(types: !1303)
!1303 = !{!1095, !1095, !1096, !1130}
!1304 = !DIImportedEntity(tag: DW_TAG_imported_declaration, scope: !97, entity: !1305, file: !1074, line: 204)
!1305 = !DISubprogram(name: "wprintf", scope: !1080, file: !1080, line: 587, type: !1306, flags: DIFlagPrototyped, spFlags: 0)
!1306 = !DISubroutineType(types: !1307)
!1307 = !{!14, !1107, null}
!1308 = !DIImportedEntity(tag: DW_TAG_imported_declaration, scope: !97, entity: !1309, file: !1074, line: 205)
!1309 = !DISubprogram(name: "wscanf", linkageName: "__isoc99_wscanf", scope: !1080, file: !1080, line: 644, type: !1306, flags: DIFlagPrototyped, spFlags: 0)
!1310 = !DIImportedEntity(tag: DW_TAG_imported_declaration, scope: !97, entity: !1311, file: !1074, line: 206)
!1311 = !DISubprogram(name: "wcschr", scope: !1080, file: !1080, line: 164, type: !1312, flags: DIFlagPrototyped, spFlags: 0)
!1312 = !DISubroutineType(types: !1313)
!1313 = !{!1095, !1108, !1096}
!1314 = !DIImportedEntity(tag: DW_TAG_imported_declaration, scope: !97, entity: !1315, file: !1074, line: 207)
!1315 = !DISubprogram(name: "wcspbrk", scope: !1080, file: !1080, line: 201, type: !1316, flags: DIFlagPrototyped, spFlags: 0)
!1316 = !DISubroutineType(types: !1317)
!1317 = !{!1095, !1108, !1108}
!1318 = !DIImportedEntity(tag: DW_TAG_imported_declaration, scope: !97, entity: !1319, file: !1074, line: 208)
!1319 = !DISubprogram(name: "wcsrchr", scope: !1080, file: !1080, line: 174, type: !1312, flags: DIFlagPrototyped, spFlags: 0)
!1320 = !DIImportedEntity(tag: DW_TAG_imported_declaration, scope: !97, entity: !1321, file: !1074, line: 209)
!1321 = !DISubprogram(name: "wcsstr", scope: !1080, file: !1080, line: 212, type: !1316, flags: DIFlagPrototyped, spFlags: 0)
!1322 = !DIImportedEntity(tag: DW_TAG_imported_declaration, scope: !97, entity: !1323, file: !1074, line: 210)
!1323 = !DISubprogram(name: "wmemchr", scope: !1080, file: !1080, line: 253, type: !1324, flags: DIFlagPrototyped, spFlags: 0)
!1324 = !DISubroutineType(types: !1325)
!1325 = !{!1095, !1108, !1096, !1130}
!1326 = !DIImportedEntity(tag: DW_TAG_imported_declaration, scope: !127, entity: !1327, file: !1074, line: 251)
!1327 = !DISubprogram(name: "wcstold", scope: !1080, file: !1080, line: 384, type: !1328, flags: DIFlagPrototyped, spFlags: 0)
!1328 = !DISubroutineType(types: !1329)
!1329 = !{!797, !1107, !1266}
!1330 = !DIImportedEntity(tag: DW_TAG_imported_declaration, scope: !127, entity: !1331, file: !1074, line: 260)
!1331 = !DISubprogram(name: "wcstoll", scope: !1080, file: !1080, line: 441, type: !1332, flags: DIFlagPrototyped, spFlags: 0)
!1332 = !DISubroutineType(types: !1333)
!1333 = !{!908, !1107, !1266, !14}
!1334 = !DIImportedEntity(tag: DW_TAG_imported_declaration, scope: !127, entity: !1335, file: !1074, line: 261)
!1335 = !DISubprogram(name: "wcstoull", scope: !1080, file: !1080, line: 448, type: !1336, flags: DIFlagPrototyped, spFlags: 0)
!1336 = !DISubroutineType(types: !1337)
!1337 = !{!1338, !1107, !1266, !14}
!1338 = !DIBasicType(name: "long long unsigned int", size: 64, encoding: DW_ATE_unsigned)
!1339 = !DIImportedEntity(tag: DW_TAG_imported_declaration, scope: !97, entity: !1327, file: !1074, line: 267)
!1340 = !DIImportedEntity(tag: DW_TAG_imported_declaration, scope: !97, entity: !1331, file: !1074, line: 268)
!1341 = !DIImportedEntity(tag: DW_TAG_imported_declaration, scope: !97, entity: !1335, file: !1074, line: 269)
!1342 = !DIImportedEntity(tag: DW_TAG_imported_declaration, scope: !97, entity: !1269, file: !1074, line: 283)
!1343 = !DIImportedEntity(tag: DW_TAG_imported_declaration, scope: !97, entity: !1182, file: !1074, line: 286)
!1344 = !DIImportedEntity(tag: DW_TAG_imported_declaration, scope: !97, entity: !1188, file: !1074, line: 289)
!1345 = !DIImportedEntity(tag: DW_TAG_imported_declaration, scope: !97, entity: !1196, file: !1074, line: 292)
!1346 = !DIImportedEntity(tag: DW_TAG_imported_declaration, scope: !97, entity: !1327, file: !1074, line: 296)
!1347 = !DIImportedEntity(tag: DW_TAG_imported_declaration, scope: !97, entity: !1331, file: !1074, line: 297)
!1348 = !DIImportedEntity(tag: DW_TAG_imported_declaration, scope: !97, entity: !1335, file: !1074, line: 298)
!1349 = !DIImportedEntity(tag: DW_TAG_imported_declaration, scope: !97, entity: !1350, file: !1351, line: 58)
!1350 = distinct !DICompositeType(tag: DW_TAG_class_type, name: "exception_ptr", scope: !1352, file: !1351, line: 80, size: 64, flags: DIFlagTypePassByReference | DIFlagNonTrivial, elements: !1353, identifier: "_ZTSNSt15__exception_ptr13exception_ptrE")
!1351 = !DIFile(filename: "/usr/lib/gcc/x86_64-linux-gnu/10/../../../../include/c++/10/bits/exception_ptr.h", directory: "")
!1352 = !DINamespace(name: "__exception_ptr", scope: !97)
!1353 = !{!1354, !1355, !1359, !1362, !1363, !1368, !1369, !1373, !1378, !1382, !1386, !1389, !1390, !1393, !1396}
!1354 = !DIDerivedType(tag: DW_TAG_member, name: "_M_exception_object", scope: !1350, file: !1351, line: 82, baseType: !1179, size: 64)
!1355 = !DISubprogram(name: "exception_ptr", scope: !1350, file: !1351, line: 84, type: !1356, scopeLine: 84, flags: DIFlagExplicit | DIFlagPrototyped, spFlags: 0)
!1356 = !DISubroutineType(types: !1357)
!1357 = !{null, !1358, !1179}
!1358 = !DIDerivedType(tag: DW_TAG_pointer_type, baseType: !1350, size: 64, flags: DIFlagArtificial | DIFlagObjectPointer)
!1359 = !DISubprogram(name: "_M_addref", linkageName: "_ZNSt15__exception_ptr13exception_ptr9_M_addrefEv", scope: !1350, file: !1351, line: 86, type: !1360, scopeLine: 86, flags: DIFlagPrototyped, spFlags: 0)
!1360 = !DISubroutineType(types: !1361)
!1361 = !{null, !1358}
!1362 = !DISubprogram(name: "_M_release", linkageName: "_ZNSt15__exception_ptr13exception_ptr10_M_releaseEv", scope: !1350, file: !1351, line: 87, type: !1360, scopeLine: 87, flags: DIFlagPrototyped, spFlags: 0)
!1363 = !DISubprogram(name: "_M_get", linkageName: "_ZNKSt15__exception_ptr13exception_ptr6_M_getEv", scope: !1350, file: !1351, line: 89, type: !1364, scopeLine: 89, flags: DIFlagPrototyped, spFlags: 0)
!1364 = !DISubroutineType(types: !1365)
!1365 = !{!1179, !1366}
!1366 = !DIDerivedType(tag: DW_TAG_pointer_type, baseType: !1367, size: 64, flags: DIFlagArtificial | DIFlagObjectPointer)
!1367 = !DIDerivedType(tag: DW_TAG_const_type, baseType: !1350)
!1368 = !DISubprogram(name: "exception_ptr", scope: !1350, file: !1351, line: 97, type: !1360, scopeLine: 97, flags: DIFlagPublic | DIFlagPrototyped, spFlags: 0)
!1369 = !DISubprogram(name: "exception_ptr", scope: !1350, file: !1351, line: 99, type: !1370, scopeLine: 99, flags: DIFlagPublic | DIFlagPrototyped, spFlags: 0)
!1370 = !DISubroutineType(types: !1371)
!1371 = !{null, !1358, !1372}
!1372 = !DIDerivedType(tag: DW_TAG_reference_type, baseType: !1367, size: 64)
!1373 = !DISubprogram(name: "exception_ptr", scope: !1350, file: !1351, line: 102, type: !1374, scopeLine: 102, flags: DIFlagPublic | DIFlagPrototyped, spFlags: 0)
!1374 = !DISubroutineType(types: !1375)
!1375 = !{null, !1358, !1376}
!1376 = !DIDerivedType(tag: DW_TAG_typedef, name: "nullptr_t", scope: !97, file: !230, line: 264, baseType: !1377)
!1377 = !DIBasicType(tag: DW_TAG_unspecified_type, name: "decltype(nullptr)")
!1378 = !DISubprogram(name: "exception_ptr", scope: !1350, file: !1351, line: 106, type: !1379, scopeLine: 106, flags: DIFlagPublic | DIFlagPrototyped, spFlags: 0)
!1379 = !DISubroutineType(types: !1380)
!1380 = !{null, !1358, !1381}
!1381 = !DIDerivedType(tag: DW_TAG_rvalue_reference_type, baseType: !1350, size: 64)
!1382 = !DISubprogram(name: "operator=", linkageName: "_ZNSt15__exception_ptr13exception_ptraSERKS0_", scope: !1350, file: !1351, line: 119, type: !1383, scopeLine: 119, flags: DIFlagPublic | DIFlagPrototyped, spFlags: 0)
!1383 = !DISubroutineType(types: !1384)
!1384 = !{!1385, !1358, !1372}
!1385 = !DIDerivedType(tag: DW_TAG_reference_type, baseType: !1350, size: 64)
!1386 = !DISubprogram(name: "operator=", linkageName: "_ZNSt15__exception_ptr13exception_ptraSEOS0_", scope: !1350, file: !1351, line: 123, type: !1387, scopeLine: 123, flags: DIFlagPublic | DIFlagPrototyped, spFlags: 0)
!1387 = !DISubroutineType(types: !1388)
!1388 = !{!1385, !1358, !1381}
!1389 = !DISubprogram(name: "~exception_ptr", scope: !1350, file: !1351, line: 130, type: !1360, scopeLine: 130, flags: DIFlagPublic | DIFlagPrototyped, spFlags: 0)
!1390 = !DISubprogram(name: "swap", linkageName: "_ZNSt15__exception_ptr13exception_ptr4swapERS0_", scope: !1350, file: !1351, line: 133, type: !1391, scopeLine: 133, flags: DIFlagPublic | DIFlagPrototyped, spFlags: 0)
!1391 = !DISubroutineType(types: !1392)
!1392 = !{null, !1358, !1385}
!1393 = !DISubprogram(name: "operator bool", linkageName: "_ZNKSt15__exception_ptr13exception_ptrcvbEv", scope: !1350, file: !1351, line: 145, type: !1394, scopeLine: 145, flags: DIFlagPublic | DIFlagExplicit | DIFlagPrototyped, spFlags: 0)
!1394 = !DISubroutineType(types: !1395)
!1395 = !{!107, !1366}
!1396 = !DISubprogram(name: "__cxa_exception_type", linkageName: "_ZNKSt15__exception_ptr13exception_ptr20__cxa_exception_typeEv", scope: !1350, file: !1351, line: 154, type: !1397, scopeLine: 154, flags: DIFlagPublic | DIFlagPrototyped, spFlags: 0)
!1397 = !DISubroutineType(types: !1398)
!1398 = !{!1399, !1366}
!1399 = !DIDerivedType(tag: DW_TAG_pointer_type, baseType: !1400, size: 64)
!1400 = !DIDerivedType(tag: DW_TAG_const_type, baseType: !1401)
!1401 = !DICompositeType(tag: DW_TAG_class_type, name: "type_info", scope: !97, file: !1402, line: 88, flags: DIFlagFwdDecl)
!1402 = !DIFile(filename: "/usr/lib/gcc/x86_64-linux-gnu/10/../../../../include/c++/10/typeinfo", directory: "")
!1403 = !DIImportedEntity(tag: DW_TAG_imported_declaration, scope: !1352, entity: !1404, file: !1351, line: 74)
!1404 = !DISubprogram(name: "rethrow_exception", linkageName: "_ZSt17rethrow_exceptionNSt15__exception_ptr13exception_ptrE", scope: !97, file: !1351, line: 70, type: !1405, flags: DIFlagPrototyped | DIFlagNoReturn, spFlags: 0)
!1405 = !DISubroutineType(types: !1406)
!1406 = !{null, !1350}
!1407 = !DIImportedEntity(tag: DW_TAG_imported_module, scope: !1408, entity: !1409, file: !1410, line: 58)
!1408 = !DINamespace(name: "__gnu_debug", scope: null)
!1409 = !DINamespace(name: "__debug", scope: !97)
!1410 = !DIFile(filename: "/usr/lib/gcc/x86_64-linux-gnu/10/../../../../include/c++/10/debug/debug.h", directory: "")
!1411 = !DIImportedEntity(tag: DW_TAG_imported_declaration, scope: !97, entity: !1412, file: !1417, line: 47)
!1412 = !DIDerivedType(tag: DW_TAG_typedef, name: "int8_t", file: !1413, line: 24, baseType: !1414)
!1413 = !DIFile(filename: "/usr/include/x86_64-linux-gnu/bits/stdint-intn.h", directory: "")
!1414 = !DIDerivedType(tag: DW_TAG_typedef, name: "__int8_t", file: !1415, line: 37, baseType: !1416)
!1415 = !DIFile(filename: "/usr/include/x86_64-linux-gnu/bits/types.h", directory: "")
!1416 = !DIBasicType(name: "signed char", size: 8, encoding: DW_ATE_signed_char)
!1417 = !DIFile(filename: "/usr/lib/gcc/x86_64-linux-gnu/10/../../../../include/c++/10/cstdint", directory: "")
!1418 = !DIImportedEntity(tag: DW_TAG_imported_declaration, scope: !97, entity: !1419, file: !1417, line: 48)
!1419 = !DIDerivedType(tag: DW_TAG_typedef, name: "int16_t", file: !1413, line: 25, baseType: !1420)
!1420 = !DIDerivedType(tag: DW_TAG_typedef, name: "__int16_t", file: !1415, line: 39, baseType: !1421)
!1421 = !DIBasicType(name: "short", size: 16, encoding: DW_ATE_signed)
!1422 = !DIImportedEntity(tag: DW_TAG_imported_declaration, scope: !97, entity: !1423, file: !1417, line: 49)
!1423 = !DIDerivedType(tag: DW_TAG_typedef, name: "int32_t", file: !1413, line: 26, baseType: !1424)
!1424 = !DIDerivedType(tag: DW_TAG_typedef, name: "__int32_t", file: !1415, line: 41, baseType: !14)
!1425 = !DIImportedEntity(tag: DW_TAG_imported_declaration, scope: !97, entity: !1426, file: !1417, line: 50)
!1426 = !DIDerivedType(tag: DW_TAG_typedef, name: "int64_t", file: !1413, line: 27, baseType: !1427)
!1427 = !DIDerivedType(tag: DW_TAG_typedef, name: "__int64_t", file: !1415, line: 44, baseType: !945)
!1428 = !DIImportedEntity(tag: DW_TAG_imported_declaration, scope: !97, entity: !1429, file: !1417, line: 52)
!1429 = !DIDerivedType(tag: DW_TAG_typedef, name: "int_fast8_t", file: !1430, line: 58, baseType: !1416)
!1430 = !DIFile(filename: "/usr/include/stdint.h", directory: "")
!1431 = !DIImportedEntity(tag: DW_TAG_imported_declaration, scope: !97, entity: !1432, file: !1417, line: 53)
!1432 = !DIDerivedType(tag: DW_TAG_typedef, name: "int_fast16_t", file: !1430, line: 60, baseType: !945)
!1433 = !DIImportedEntity(tag: DW_TAG_imported_declaration, scope: !97, entity: !1434, file: !1417, line: 54)
!1434 = !DIDerivedType(tag: DW_TAG_typedef, name: "int_fast32_t", file: !1430, line: 61, baseType: !945)
!1435 = !DIImportedEntity(tag: DW_TAG_imported_declaration, scope: !97, entity: !1436, file: !1417, line: 55)
!1436 = !DIDerivedType(tag: DW_TAG_typedef, name: "int_fast64_t", file: !1430, line: 62, baseType: !945)
!1437 = !DIImportedEntity(tag: DW_TAG_imported_declaration, scope: !97, entity: !1438, file: !1417, line: 57)
!1438 = !DIDerivedType(tag: DW_TAG_typedef, name: "int_least8_t", file: !1430, line: 43, baseType: !1439)
!1439 = !DIDerivedType(tag: DW_TAG_typedef, name: "__int_least8_t", file: !1415, line: 52, baseType: !1414)
!1440 = !DIImportedEntity(tag: DW_TAG_imported_declaration, scope: !97, entity: !1441, file: !1417, line: 58)
!1441 = !DIDerivedType(tag: DW_TAG_typedef, name: "int_least16_t", file: !1430, line: 44, baseType: !1442)
!1442 = !DIDerivedType(tag: DW_TAG_typedef, name: "__int_least16_t", file: !1415, line: 54, baseType: !1420)
!1443 = !DIImportedEntity(tag: DW_TAG_imported_declaration, scope: !97, entity: !1444, file: !1417, line: 59)
!1444 = !DIDerivedType(tag: DW_TAG_typedef, name: "int_least32_t", file: !1430, line: 45, baseType: !1445)
!1445 = !DIDerivedType(tag: DW_TAG_typedef, name: "__int_least32_t", file: !1415, line: 56, baseType: !1424)
!1446 = !DIImportedEntity(tag: DW_TAG_imported_declaration, scope: !97, entity: !1447, file: !1417, line: 60)
!1447 = !DIDerivedType(tag: DW_TAG_typedef, name: "int_least64_t", file: !1430, line: 46, baseType: !1448)
!1448 = !DIDerivedType(tag: DW_TAG_typedef, name: "__int_least64_t", file: !1415, line: 58, baseType: !1427)
!1449 = !DIImportedEntity(tag: DW_TAG_imported_declaration, scope: !97, entity: !1450, file: !1417, line: 62)
!1450 = !DIDerivedType(tag: DW_TAG_typedef, name: "intmax_t", file: !1430, line: 101, baseType: !1451)
!1451 = !DIDerivedType(tag: DW_TAG_typedef, name: "__intmax_t", file: !1415, line: 72, baseType: !945)
!1452 = !DIImportedEntity(tag: DW_TAG_imported_declaration, scope: !97, entity: !1453, file: !1417, line: 63)
!1453 = !DIDerivedType(tag: DW_TAG_typedef, name: "intptr_t", file: !1430, line: 87, baseType: !945)
!1454 = !DIImportedEntity(tag: DW_TAG_imported_declaration, scope: !97, entity: !1455, file: !1417, line: 65)
!1455 = !DIDerivedType(tag: DW_TAG_typedef, name: "uint8_t", file: !1456, line: 24, baseType: !1457)
!1456 = !DIFile(filename: "/usr/include/x86_64-linux-gnu/bits/stdint-uintn.h", directory: "")
!1457 = !DIDerivedType(tag: DW_TAG_typedef, name: "__uint8_t", file: !1415, line: 38, baseType: !1458)
!1458 = !DIBasicType(name: "unsigned char", size: 8, encoding: DW_ATE_unsigned_char)
!1459 = !DIImportedEntity(tag: DW_TAG_imported_declaration, scope: !97, entity: !1460, file: !1417, line: 66)
!1460 = !DIDerivedType(tag: DW_TAG_typedef, name: "uint16_t", file: !1456, line: 25, baseType: !1461)
!1461 = !DIDerivedType(tag: DW_TAG_typedef, name: "__uint16_t", file: !1415, line: 40, baseType: !1462)
!1462 = !DIBasicType(name: "unsigned short", size: 16, encoding: DW_ATE_unsigned)
!1463 = !DIImportedEntity(tag: DW_TAG_imported_declaration, scope: !97, entity: !1464, file: !1417, line: 67)
!1464 = !DIDerivedType(tag: DW_TAG_typedef, name: "uint32_t", file: !1456, line: 26, baseType: !1465)
!1465 = !DIDerivedType(tag: DW_TAG_typedef, name: "__uint32_t", file: !1415, line: 42, baseType: !128)
!1466 = !DIImportedEntity(tag: DW_TAG_imported_declaration, scope: !97, entity: !1467, file: !1417, line: 68)
!1467 = !DIDerivedType(tag: DW_TAG_typedef, name: "uint64_t", file: !1456, line: 27, baseType: !1468)
!1468 = !DIDerivedType(tag: DW_TAG_typedef, name: "__uint64_t", file: !1415, line: 45, baseType: !231)
!1469 = !DIImportedEntity(tag: DW_TAG_imported_declaration, scope: !97, entity: !1470, file: !1417, line: 70)
!1470 = !DIDerivedType(tag: DW_TAG_typedef, name: "uint_fast8_t", file: !1430, line: 71, baseType: !1458)
!1471 = !DIImportedEntity(tag: DW_TAG_imported_declaration, scope: !97, entity: !1472, file: !1417, line: 71)
!1472 = !DIDerivedType(tag: DW_TAG_typedef, name: "uint_fast16_t", file: !1430, line: 73, baseType: !231)
!1473 = !DIImportedEntity(tag: DW_TAG_imported_declaration, scope: !97, entity: !1474, file: !1417, line: 72)
!1474 = !DIDerivedType(tag: DW_TAG_typedef, name: "uint_fast32_t", file: !1430, line: 74, baseType: !231)
!1475 = !DIImportedEntity(tag: DW_TAG_imported_declaration, scope: !97, entity: !1476, file: !1417, line: 73)
!1476 = !DIDerivedType(tag: DW_TAG_typedef, name: "uint_fast64_t", file: !1430, line: 75, baseType: !231)
!1477 = !DIImportedEntity(tag: DW_TAG_imported_declaration, scope: !97, entity: !1478, file: !1417, line: 75)
!1478 = !DIDerivedType(tag: DW_TAG_typedef, name: "uint_least8_t", file: !1430, line: 49, baseType: !1479)
!1479 = !DIDerivedType(tag: DW_TAG_typedef, name: "__uint_least8_t", file: !1415, line: 53, baseType: !1457)
!1480 = !DIImportedEntity(tag: DW_TAG_imported_declaration, scope: !97, entity: !1481, file: !1417, line: 76)
!1481 = !DIDerivedType(tag: DW_TAG_typedef, name: "uint_least16_t", file: !1430, line: 50, baseType: !1482)
!1482 = !DIDerivedType(tag: DW_TAG_typedef, name: "__uint_least16_t", file: !1415, line: 55, baseType: !1461)
!1483 = !DIImportedEntity(tag: DW_TAG_imported_declaration, scope: !97, entity: !1484, file: !1417, line: 77)
!1484 = !DIDerivedType(tag: DW_TAG_typedef, name: "uint_least32_t", file: !1430, line: 51, baseType: !1485)
!1485 = !DIDerivedType(tag: DW_TAG_typedef, name: "__uint_least32_t", file: !1415, line: 57, baseType: !1465)
!1486 = !DIImportedEntity(tag: DW_TAG_imported_declaration, scope: !97, entity: !1487, file: !1417, line: 78)
!1487 = !DIDerivedType(tag: DW_TAG_typedef, name: "uint_least64_t", file: !1430, line: 52, baseType: !1488)
!1488 = !DIDerivedType(tag: DW_TAG_typedef, name: "__uint_least64_t", file: !1415, line: 59, baseType: !1468)
!1489 = !DIImportedEntity(tag: DW_TAG_imported_declaration, scope: !97, entity: !1490, file: !1417, line: 80)
!1490 = !DIDerivedType(tag: DW_TAG_typedef, name: "uintmax_t", file: !1430, line: 102, baseType: !1491)
!1491 = !DIDerivedType(tag: DW_TAG_typedef, name: "__uintmax_t", file: !1415, line: 73, baseType: !231)
!1492 = !DIImportedEntity(tag: DW_TAG_imported_declaration, scope: !97, entity: !1493, file: !1417, line: 81)
!1493 = !DIDerivedType(tag: DW_TAG_typedef, name: "uintptr_t", file: !1430, line: 90, baseType: !231)
!1494 = !DIImportedEntity(tag: DW_TAG_imported_declaration, scope: !97, entity: !1495, file: !1497, line: 53)
!1495 = !DICompositeType(tag: DW_TAG_structure_type, name: "lconv", file: !1496, line: 51, flags: DIFlagFwdDecl, identifier: "_ZTS5lconv")
!1496 = !DIFile(filename: "/usr/include/locale.h", directory: "")
!1497 = !DIFile(filename: "/usr/lib/gcc/x86_64-linux-gnu/10/../../../../include/c++/10/clocale", directory: "")
!1498 = !DIImportedEntity(tag: DW_TAG_imported_declaration, scope: !97, entity: !1499, file: !1497, line: 54)
!1499 = !DISubprogram(name: "setlocale", scope: !1496, file: !1496, line: 122, type: !1500, flags: DIFlagPrototyped, spFlags: 0)
!1500 = !DISubroutineType(types: !1501)
!1501 = !{!1202, !14, !621}
!1502 = !DIImportedEntity(tag: DW_TAG_imported_declaration, scope: !97, entity: !1503, file: !1497, line: 55)
!1503 = !DISubprogram(name: "localeconv", scope: !1496, file: !1496, line: 125, type: !1504, flags: DIFlagPrototyped, spFlags: 0)
!1504 = !DISubroutineType(types: !1505)
!1505 = !{!1506}
!1506 = !DIDerivedType(tag: DW_TAG_pointer_type, baseType: !1495, size: 64)
!1507 = !DIImportedEntity(tag: DW_TAG_imported_declaration, scope: !97, entity: !1508, file: !1510, line: 64)
!1508 = !DISubprogram(name: "isalnum", scope: !1509, file: !1509, line: 108, type: !719, flags: DIFlagPrototyped, spFlags: 0)
!1509 = !DIFile(filename: "/usr/include/ctype.h", directory: "")
!1510 = !DIFile(filename: "/usr/lib/gcc/x86_64-linux-gnu/10/../../../../include/c++/10/cctype", directory: "")
!1511 = !DIImportedEntity(tag: DW_TAG_imported_declaration, scope: !97, entity: !1512, file: !1510, line: 65)
!1512 = !DISubprogram(name: "isalpha", scope: !1509, file: !1509, line: 109, type: !719, flags: DIFlagPrototyped, spFlags: 0)
!1513 = !DIImportedEntity(tag: DW_TAG_imported_declaration, scope: !97, entity: !1514, file: !1510, line: 66)
!1514 = !DISubprogram(name: "iscntrl", scope: !1509, file: !1509, line: 110, type: !719, flags: DIFlagPrototyped, spFlags: 0)
!1515 = !DIImportedEntity(tag: DW_TAG_imported_declaration, scope: !97, entity: !1516, file: !1510, line: 67)
!1516 = !DISubprogram(name: "isdigit", scope: !1509, file: !1509, line: 111, type: !719, flags: DIFlagPrototyped, spFlags: 0)
!1517 = !DIImportedEntity(tag: DW_TAG_imported_declaration, scope: !97, entity: !1518, file: !1510, line: 68)
!1518 = !DISubprogram(name: "isgraph", scope: !1509, file: !1509, line: 113, type: !719, flags: DIFlagPrototyped, spFlags: 0)
!1519 = !DIImportedEntity(tag: DW_TAG_imported_declaration, scope: !97, entity: !1520, file: !1510, line: 69)
!1520 = !DISubprogram(name: "islower", scope: !1509, file: !1509, line: 112, type: !719, flags: DIFlagPrototyped, spFlags: 0)
!1521 = !DIImportedEntity(tag: DW_TAG_imported_declaration, scope: !97, entity: !1522, file: !1510, line: 70)
!1522 = !DISubprogram(name: "isprint", scope: !1509, file: !1509, line: 114, type: !719, flags: DIFlagPrototyped, spFlags: 0)
!1523 = !DIImportedEntity(tag: DW_TAG_imported_declaration, scope: !97, entity: !1524, file: !1510, line: 71)
!1524 = !DISubprogram(name: "ispunct", scope: !1509, file: !1509, line: 115, type: !719, flags: DIFlagPrototyped, spFlags: 0)
!1525 = !DIImportedEntity(tag: DW_TAG_imported_declaration, scope: !97, entity: !1526, file: !1510, line: 72)
!1526 = !DISubprogram(name: "isspace", scope: !1509, file: !1509, line: 116, type: !719, flags: DIFlagPrototyped, spFlags: 0)
!1527 = !DIImportedEntity(tag: DW_TAG_imported_declaration, scope: !97, entity: !1528, file: !1510, line: 73)
!1528 = !DISubprogram(name: "isupper", scope: !1509, file: !1509, line: 117, type: !719, flags: DIFlagPrototyped, spFlags: 0)
!1529 = !DIImportedEntity(tag: DW_TAG_imported_declaration, scope: !97, entity: !1530, file: !1510, line: 74)
!1530 = !DISubprogram(name: "isxdigit", scope: !1509, file: !1509, line: 118, type: !719, flags: DIFlagPrototyped, spFlags: 0)
!1531 = !DIImportedEntity(tag: DW_TAG_imported_declaration, scope: !97, entity: !1532, file: !1510, line: 75)
!1532 = !DISubprogram(name: "tolower", scope: !1509, file: !1509, line: 122, type: !719, flags: DIFlagPrototyped, spFlags: 0)
!1533 = !DIImportedEntity(tag: DW_TAG_imported_declaration, scope: !97, entity: !1534, file: !1510, line: 76)
!1534 = !DISubprogram(name: "toupper", scope: !1509, file: !1509, line: 125, type: !719, flags: DIFlagPrototyped, spFlags: 0)
!1535 = !DIImportedEntity(tag: DW_TAG_imported_declaration, scope: !97, entity: !1536, file: !1510, line: 87)
!1536 = !DISubprogram(name: "isblank", scope: !1509, file: !1509, line: 130, type: !719, flags: DIFlagPrototyped, spFlags: 0)
!1537 = !DIImportedEntity(tag: DW_TAG_imported_declaration, scope: !97, entity: !1538, file: !1540, line: 127)
!1538 = !DIDerivedType(tag: DW_TAG_typedef, name: "div_t", file: !718, line: 62, baseType: !1539)
!1539 = !DICompositeType(tag: DW_TAG_structure_type, file: !718, line: 58, flags: DIFlagFwdDecl, identifier: "_ZTS5div_t")
!1540 = !DIFile(filename: "/usr/lib/gcc/x86_64-linux-gnu/10/../../../../include/c++/10/cstdlib", directory: "")
!1541 = !DIImportedEntity(tag: DW_TAG_imported_declaration, scope: !97, entity: !1542, file: !1540, line: 128)
!1542 = !DIDerivedType(tag: DW_TAG_typedef, name: "ldiv_t", file: !718, line: 70, baseType: !1543)
!1543 = distinct !DICompositeType(tag: DW_TAG_structure_type, file: !718, line: 66, size: 128, flags: DIFlagTypePassByValue, elements: !1544, identifier: "_ZTS6ldiv_t")
!1544 = !{!1545, !1546}
!1545 = !DIDerivedType(tag: DW_TAG_member, name: "quot", scope: !1543, file: !718, line: 68, baseType: !945, size: 64)
!1546 = !DIDerivedType(tag: DW_TAG_member, name: "rem", scope: !1543, file: !718, line: 69, baseType: !945, size: 64, offset: 64)
!1547 = !DIImportedEntity(tag: DW_TAG_imported_declaration, scope: !97, entity: !1548, file: !1540, line: 130)
!1548 = !DISubprogram(name: "abort", scope: !718, file: !718, line: 591, type: !1549, flags: DIFlagPrototyped | DIFlagNoReturn, spFlags: 0)
!1549 = !DISubroutineType(types: !1550)
!1550 = !{null}
!1551 = !DIImportedEntity(tag: DW_TAG_imported_declaration, scope: !97, entity: !1552, file: !1540, line: 134)
!1552 = !DISubprogram(name: "atexit", scope: !718, file: !718, line: 595, type: !1553, flags: DIFlagPrototyped, spFlags: 0)
!1553 = !DISubroutineType(types: !1554)
!1554 = !{!14, !1555}
!1555 = !DIDerivedType(tag: DW_TAG_pointer_type, baseType: !1549, size: 64)
!1556 = !DIImportedEntity(tag: DW_TAG_imported_declaration, scope: !97, entity: !1557, file: !1540, line: 137)
!1557 = !DISubprogram(name: "at_quick_exit", scope: !718, file: !718, line: 600, type: !1553, flags: DIFlagPrototyped, spFlags: 0)
!1558 = !DIImportedEntity(tag: DW_TAG_imported_declaration, scope: !97, entity: !1559, file: !1540, line: 140)
!1559 = !DISubprogram(name: "atof", scope: !718, file: !718, line: 101, type: !962, flags: DIFlagPrototyped, spFlags: 0)
!1560 = !DIImportedEntity(tag: DW_TAG_imported_declaration, scope: !97, entity: !1561, file: !1540, line: 141)
!1561 = !DISubprogram(name: "atoi", scope: !718, file: !718, line: 104, type: !1562, flags: DIFlagPrototyped, spFlags: 0)
!1562 = !DISubroutineType(types: !1563)
!1563 = !{!14, !621}
!1564 = !DIImportedEntity(tag: DW_TAG_imported_declaration, scope: !97, entity: !1565, file: !1540, line: 142)
!1565 = !DISubprogram(name: "atol", scope: !718, file: !718, line: 107, type: !1566, flags: DIFlagPrototyped, spFlags: 0)
!1566 = !DISubroutineType(types: !1567)
!1567 = !{!945, !621}
!1568 = !DIImportedEntity(tag: DW_TAG_imported_declaration, scope: !97, entity: !1569, file: !1540, line: 143)
!1569 = !DISubprogram(name: "bsearch", scope: !718, file: !718, line: 820, type: !1570, flags: DIFlagPrototyped, spFlags: 0)
!1570 = !DISubroutineType(types: !1571)
!1571 = !{!1179, !232, !232, !1130, !1130, !1572}
!1572 = !DIDerivedType(tag: DW_TAG_typedef, name: "__compar_fn_t", file: !718, line: 808, baseType: !1573)
!1573 = !DIDerivedType(tag: DW_TAG_pointer_type, baseType: !1574, size: 64)
!1574 = !DISubroutineType(types: !1575)
!1575 = !{!14, !232, !232}
!1576 = !DIImportedEntity(tag: DW_TAG_imported_declaration, scope: !97, entity: !1577, file: !1540, line: 144)
!1577 = !DISubprogram(name: "calloc", scope: !718, file: !718, line: 542, type: !1578, flags: DIFlagPrototyped, spFlags: 0)
!1578 = !DISubroutineType(types: !1579)
!1579 = !{!1179, !1130, !1130}
!1580 = !DIImportedEntity(tag: DW_TAG_imported_declaration, scope: !97, entity: !1581, file: !1540, line: 145)
!1581 = !DISubprogram(name: "div", scope: !718, file: !718, line: 852, type: !1582, flags: DIFlagPrototyped, spFlags: 0)
!1582 = !DISubroutineType(types: !1583)
!1583 = !{!1538, !14, !14}
!1584 = !DIImportedEntity(tag: DW_TAG_imported_declaration, scope: !97, entity: !1585, file: !1540, line: 146)
!1585 = !DISubprogram(name: "exit", scope: !718, file: !718, line: 617, type: !1586, flags: DIFlagPrototyped | DIFlagNoReturn, spFlags: 0)
!1586 = !DISubroutineType(types: !1587)
!1587 = !{null, !14}
!1588 = !DIImportedEntity(tag: DW_TAG_imported_declaration, scope: !97, entity: !1589, file: !1540, line: 147)
!1589 = !DISubprogram(name: "free", scope: !718, file: !718, line: 565, type: !1590, flags: DIFlagPrototyped, spFlags: 0)
!1590 = !DISubroutineType(types: !1591)
!1591 = !{null, !1179}
!1592 = !DIImportedEntity(tag: DW_TAG_imported_declaration, scope: !97, entity: !1593, file: !1540, line: 148)
!1593 = !DISubprogram(name: "getenv", scope: !718, file: !718, line: 634, type: !1594, flags: DIFlagPrototyped, spFlags: 0)
!1594 = !DISubroutineType(types: !1595)
!1595 = !{!1202, !621}
!1596 = !DIImportedEntity(tag: DW_TAG_imported_declaration, scope: !97, entity: !1597, file: !1540, line: 149)
!1597 = !DISubprogram(name: "labs", scope: !718, file: !718, line: 841, type: !1598, flags: DIFlagPrototyped, spFlags: 0)
!1598 = !DISubroutineType(types: !1599)
!1599 = !{!945, !945}
!1600 = !DIImportedEntity(tag: DW_TAG_imported_declaration, scope: !97, entity: !1601, file: !1540, line: 150)
!1601 = !DISubprogram(name: "ldiv", scope: !718, file: !718, line: 854, type: !1602, flags: DIFlagPrototyped, spFlags: 0)
!1602 = !DISubroutineType(types: !1603)
!1603 = !{!1542, !945, !945}
!1604 = !DIImportedEntity(tag: DW_TAG_imported_declaration, scope: !97, entity: !1605, file: !1540, line: 151)
!1605 = !DISubprogram(name: "malloc", scope: !718, file: !718, line: 539, type: !1606, flags: DIFlagPrototyped, spFlags: 0)
!1606 = !DISubroutineType(types: !1607)
!1607 = !{!1179, !1130}
!1608 = !DIImportedEntity(tag: DW_TAG_imported_declaration, scope: !97, entity: !1609, file: !1540, line: 153)
!1609 = !DISubprogram(name: "mblen", scope: !718, file: !718, line: 922, type: !1610, flags: DIFlagPrototyped, spFlags: 0)
!1610 = !DISubroutineType(types: !1611)
!1611 = !{!14, !621, !1130}
!1612 = !DIImportedEntity(tag: DW_TAG_imported_declaration, scope: !97, entity: !1613, file: !1540, line: 154)
!1613 = !DISubprogram(name: "mbstowcs", scope: !718, file: !718, line: 933, type: !1614, flags: DIFlagPrototyped, spFlags: 0)
!1614 = !DISubroutineType(types: !1615)
!1615 = !{!1130, !1097, !1132, !1130}
!1616 = !DIImportedEntity(tag: DW_TAG_imported_declaration, scope: !97, entity: !1617, file: !1540, line: 155)
!1617 = !DISubprogram(name: "mbtowc", scope: !718, file: !718, line: 925, type: !1618, flags: DIFlagPrototyped, spFlags: 0)
!1618 = !DISubroutineType(types: !1619)
!1619 = !{!14, !1097, !1132, !1130}
!1620 = !DIImportedEntity(tag: DW_TAG_imported_declaration, scope: !97, entity: !1621, file: !1540, line: 157)
!1621 = !DISubprogram(name: "qsort", scope: !718, file: !718, line: 830, type: !1622, flags: DIFlagPrototyped, spFlags: 0)
!1622 = !DISubroutineType(types: !1623)
!1623 = !{null, !1179, !1130, !1130, !1572}
!1624 = !DIImportedEntity(tag: DW_TAG_imported_declaration, scope: !97, entity: !1625, file: !1540, line: 160)
!1625 = !DISubprogram(name: "quick_exit", scope: !718, file: !718, line: 623, type: !1586, flags: DIFlagPrototyped | DIFlagNoReturn, spFlags: 0)
!1626 = !DIImportedEntity(tag: DW_TAG_imported_declaration, scope: !97, entity: !1627, file: !1540, line: 163)
!1627 = !DISubprogram(name: "rand", scope: !718, file: !718, line: 453, type: !1628, flags: DIFlagPrototyped, spFlags: 0)
!1628 = !DISubroutineType(types: !1629)
!1629 = !{!14}
!1630 = !DIImportedEntity(tag: DW_TAG_imported_declaration, scope: !97, entity: !1631, file: !1540, line: 164)
!1631 = !DISubprogram(name: "realloc", scope: !718, file: !718, line: 550, type: !1632, flags: DIFlagPrototyped, spFlags: 0)
!1632 = !DISubroutineType(types: !1633)
!1633 = !{!1179, !1179, !1130}
!1634 = !DIImportedEntity(tag: DW_TAG_imported_declaration, scope: !97, entity: !1635, file: !1540, line: 165)
!1635 = !DISubprogram(name: "srand", scope: !718, file: !718, line: 455, type: !1636, flags: DIFlagPrototyped, spFlags: 0)
!1636 = !DISubroutineType(types: !1637)
!1637 = !{null, !128}
!1638 = !DIImportedEntity(tag: DW_TAG_imported_declaration, scope: !97, entity: !1639, file: !1540, line: 166)
!1639 = !DISubprogram(name: "strtod", scope: !718, file: !718, line: 117, type: !1640, flags: DIFlagPrototyped, spFlags: 0)
!1640 = !DISubroutineType(types: !1641)
!1641 = !{!727, !1132, !1642}
!1642 = !DIDerivedType(tag: DW_TAG_restrict_type, baseType: !1643)
!1643 = !DIDerivedType(tag: DW_TAG_pointer_type, baseType: !1202, size: 64)
!1644 = !DIImportedEntity(tag: DW_TAG_imported_declaration, scope: !97, entity: !1645, file: !1540, line: 167)
!1645 = !DISubprogram(name: "strtol", scope: !718, file: !718, line: 176, type: !1646, flags: DIFlagPrototyped, spFlags: 0)
!1646 = !DISubroutineType(types: !1647)
!1647 = !{!945, !1132, !1642, !14}
!1648 = !DIImportedEntity(tag: DW_TAG_imported_declaration, scope: !97, entity: !1649, file: !1540, line: 168)
!1649 = !DISubprogram(name: "strtoul", scope: !718, file: !718, line: 180, type: !1650, flags: DIFlagPrototyped, spFlags: 0)
!1650 = !DISubroutineType(types: !1651)
!1651 = !{!231, !1132, !1642, !14}
!1652 = !DIImportedEntity(tag: DW_TAG_imported_declaration, scope: !97, entity: !1653, file: !1540, line: 169)
!1653 = !DISubprogram(name: "system", scope: !718, file: !718, line: 784, type: !1562, flags: DIFlagPrototyped, spFlags: 0)
!1654 = !DIImportedEntity(tag: DW_TAG_imported_declaration, scope: !97, entity: !1655, file: !1540, line: 171)
!1655 = !DISubprogram(name: "wcstombs", scope: !718, file: !718, line: 936, type: !1656, flags: DIFlagPrototyped, spFlags: 0)
!1656 = !DISubroutineType(types: !1657)
!1657 = !{!1130, !1201, !1107, !1130}
!1658 = !DIImportedEntity(tag: DW_TAG_imported_declaration, scope: !97, entity: !1659, file: !1540, line: 172)
!1659 = !DISubprogram(name: "wctomb", scope: !718, file: !718, line: 929, type: !1660, flags: DIFlagPrototyped, spFlags: 0)
!1660 = !DISubroutineType(types: !1661)
!1661 = !{!14, !1202, !1096}
!1662 = !DIImportedEntity(tag: DW_TAG_imported_declaration, scope: !127, entity: !1663, file: !1540, line: 200)
!1663 = !DIDerivedType(tag: DW_TAG_typedef, name: "lldiv_t", file: !718, line: 80, baseType: !1664)
!1664 = distinct !DICompositeType(tag: DW_TAG_structure_type, file: !718, line: 76, size: 128, flags: DIFlagTypePassByValue, elements: !1665, identifier: "_ZTS7lldiv_t")
!1665 = !{!1666, !1667}
!1666 = !DIDerivedType(tag: DW_TAG_member, name: "quot", scope: !1664, file: !718, line: 78, baseType: !908, size: 64)
!1667 = !DIDerivedType(tag: DW_TAG_member, name: "rem", scope: !1664, file: !718, line: 79, baseType: !908, size: 64, offset: 64)
!1668 = !DIImportedEntity(tag: DW_TAG_imported_declaration, scope: !127, entity: !1669, file: !1540, line: 206)
!1669 = !DISubprogram(name: "_Exit", scope: !718, file: !718, line: 629, type: !1586, flags: DIFlagPrototyped | DIFlagNoReturn, spFlags: 0)
!1670 = !DIImportedEntity(tag: DW_TAG_imported_declaration, scope: !127, entity: !1671, file: !1540, line: 210)
!1671 = !DISubprogram(name: "llabs", scope: !718, file: !718, line: 844, type: !1672, flags: DIFlagPrototyped, spFlags: 0)
!1672 = !DISubroutineType(types: !1673)
!1673 = !{!908, !908}
!1674 = !DIImportedEntity(tag: DW_TAG_imported_declaration, scope: !127, entity: !1675, file: !1540, line: 216)
!1675 = !DISubprogram(name: "lldiv", scope: !718, file: !718, line: 858, type: !1676, flags: DIFlagPrototyped, spFlags: 0)
!1676 = !DISubroutineType(types: !1677)
!1677 = !{!1663, !908, !908}
!1678 = !DIImportedEntity(tag: DW_TAG_imported_declaration, scope: !127, entity: !1679, file: !1540, line: 227)
!1679 = !DISubprogram(name: "atoll", scope: !718, file: !718, line: 112, type: !1680, flags: DIFlagPrototyped, spFlags: 0)
!1680 = !DISubroutineType(types: !1681)
!1681 = !{!908, !621}
!1682 = !DIImportedEntity(tag: DW_TAG_imported_declaration, scope: !127, entity: !1683, file: !1540, line: 228)
!1683 = !DISubprogram(name: "strtoll", scope: !718, file: !718, line: 200, type: !1684, flags: DIFlagPrototyped, spFlags: 0)
!1684 = !DISubroutineType(types: !1685)
!1685 = !{!908, !1132, !1642, !14}
!1686 = !DIImportedEntity(tag: DW_TAG_imported_declaration, scope: !127, entity: !1687, file: !1540, line: 229)
!1687 = !DISubprogram(name: "strtoull", scope: !718, file: !718, line: 205, type: !1688, flags: DIFlagPrototyped, spFlags: 0)
!1688 = !DISubroutineType(types: !1689)
!1689 = !{!1338, !1132, !1642, !14}
!1690 = !DIImportedEntity(tag: DW_TAG_imported_declaration, scope: !127, entity: !1691, file: !1540, line: 231)
!1691 = !DISubprogram(name: "strtof", scope: !718, file: !718, line: 123, type: !1692, flags: DIFlagPrototyped, spFlags: 0)
!1692 = !DISubroutineType(types: !1693)
!1693 = !{!786, !1132, !1642}
!1694 = !DIImportedEntity(tag: DW_TAG_imported_declaration, scope: !127, entity: !1695, file: !1540, line: 232)
!1695 = !DISubprogram(name: "strtold", scope: !718, file: !718, line: 126, type: !1696, flags: DIFlagPrototyped, spFlags: 0)
!1696 = !DISubroutineType(types: !1697)
!1697 = !{!797, !1132, !1642}
!1698 = !DIImportedEntity(tag: DW_TAG_imported_declaration, scope: !97, entity: !1663, file: !1540, line: 240)
!1699 = !DIImportedEntity(tag: DW_TAG_imported_declaration, scope: !97, entity: !1669, file: !1540, line: 242)
!1700 = !DIImportedEntity(tag: DW_TAG_imported_declaration, scope: !97, entity: !1671, file: !1540, line: 244)
!1701 = !DIImportedEntity(tag: DW_TAG_imported_declaration, scope: !97, entity: !1702, file: !1540, line: 245)
!1702 = !DISubprogram(name: "div", linkageName: "_ZN9__gnu_cxx3divExx", scope: !127, file: !1540, line: 213, type: !1676, flags: DIFlagPrototyped, spFlags: 0)
!1703 = !DIImportedEntity(tag: DW_TAG_imported_declaration, scope: !97, entity: !1675, file: !1540, line: 246)
!1704 = !DIImportedEntity(tag: DW_TAG_imported_declaration, scope: !97, entity: !1679, file: !1540, line: 248)
!1705 = !DIImportedEntity(tag: DW_TAG_imported_declaration, scope: !97, entity: !1691, file: !1540, line: 249)
!1706 = !DIImportedEntity(tag: DW_TAG_imported_declaration, scope: !97, entity: !1683, file: !1540, line: 250)
!1707 = !DIImportedEntity(tag: DW_TAG_imported_declaration, scope: !97, entity: !1687, file: !1540, line: 251)
!1708 = !DIImportedEntity(tag: DW_TAG_imported_declaration, scope: !97, entity: !1695, file: !1540, line: 252)
!1709 = !DIImportedEntity(tag: DW_TAG_imported_declaration, scope: !97, entity: !1710, file: !1712, line: 98)
!1710 = !DIDerivedType(tag: DW_TAG_typedef, name: "FILE", file: !1711, line: 7, baseType: !1090)
!1711 = !DIFile(filename: "/usr/include/x86_64-linux-gnu/bits/types/FILE.h", directory: "")
!1712 = !DIFile(filename: "/usr/lib/gcc/x86_64-linux-gnu/10/../../../../include/c++/10/cstdio", directory: "")
!1713 = !DIImportedEntity(tag: DW_TAG_imported_declaration, scope: !97, entity: !1714, file: !1712, line: 99)
!1714 = !DIDerivedType(tag: DW_TAG_typedef, name: "fpos_t", file: !1715, line: 84, baseType: !1716)
!1715 = !DIFile(filename: "/usr/include/stdio.h", directory: "")
!1716 = !DIDerivedType(tag: DW_TAG_typedef, name: "__fpos_t", file: !1717, line: 14, baseType: !1718)
!1717 = !DIFile(filename: "/usr/include/x86_64-linux-gnu/bits/types/__fpos_t.h", directory: "")
!1718 = !DICompositeType(tag: DW_TAG_structure_type, name: "_G_fpos_t", file: !1717, line: 10, flags: DIFlagFwdDecl, identifier: "_ZTS9_G_fpos_t")
!1719 = !DIImportedEntity(tag: DW_TAG_imported_declaration, scope: !97, entity: !1720, file: !1712, line: 101)
!1720 = !DISubprogram(name: "clearerr", scope: !1715, file: !1715, line: 757, type: !1721, flags: DIFlagPrototyped, spFlags: 0)
!1721 = !DISubroutineType(types: !1722)
!1722 = !{null, !1723}
!1723 = !DIDerivedType(tag: DW_TAG_pointer_type, baseType: !1710, size: 64)
!1724 = !DIImportedEntity(tag: DW_TAG_imported_declaration, scope: !97, entity: !1725, file: !1712, line: 102)
!1725 = !DISubprogram(name: "fclose", scope: !1715, file: !1715, line: 213, type: !1726, flags: DIFlagPrototyped, spFlags: 0)
!1726 = !DISubroutineType(types: !1727)
!1727 = !{!14, !1723}
!1728 = !DIImportedEntity(tag: DW_TAG_imported_declaration, scope: !97, entity: !1729, file: !1712, line: 103)
!1729 = !DISubprogram(name: "feof", scope: !1715, file: !1715, line: 759, type: !1726, flags: DIFlagPrototyped, spFlags: 0)
!1730 = !DIImportedEntity(tag: DW_TAG_imported_declaration, scope: !97, entity: !1731, file: !1712, line: 104)
!1731 = !DISubprogram(name: "ferror", scope: !1715, file: !1715, line: 761, type: !1726, flags: DIFlagPrototyped, spFlags: 0)
!1732 = !DIImportedEntity(tag: DW_TAG_imported_declaration, scope: !97, entity: !1733, file: !1712, line: 105)
!1733 = !DISubprogram(name: "fflush", scope: !1715, file: !1715, line: 218, type: !1726, flags: DIFlagPrototyped, spFlags: 0)
!1734 = !DIImportedEntity(tag: DW_TAG_imported_declaration, scope: !97, entity: !1735, file: !1712, line: 106)
!1735 = !DISubprogram(name: "fgetc", scope: !1715, file: !1715, line: 485, type: !1726, flags: DIFlagPrototyped, spFlags: 0)
!1736 = !DIImportedEntity(tag: DW_TAG_imported_declaration, scope: !97, entity: !1737, file: !1712, line: 107)
!1737 = !DISubprogram(name: "fgetpos", scope: !1715, file: !1715, line: 731, type: !1738, flags: DIFlagPrototyped, spFlags: 0)
!1738 = !DISubroutineType(types: !1739)
!1739 = !{!14, !1740, !1741}
!1740 = !DIDerivedType(tag: DW_TAG_restrict_type, baseType: !1723)
!1741 = !DIDerivedType(tag: DW_TAG_restrict_type, baseType: !1742)
!1742 = !DIDerivedType(tag: DW_TAG_pointer_type, baseType: !1714, size: 64)
!1743 = !DIImportedEntity(tag: DW_TAG_imported_declaration, scope: !97, entity: !1744, file: !1712, line: 108)
!1744 = !DISubprogram(name: "fgets", scope: !1715, file: !1715, line: 564, type: !1745, flags: DIFlagPrototyped, spFlags: 0)
!1745 = !DISubroutineType(types: !1746)
!1746 = !{!1202, !1201, !14, !1740}
!1747 = !DIImportedEntity(tag: DW_TAG_imported_declaration, scope: !97, entity: !1748, file: !1712, line: 109)
!1748 = !DISubprogram(name: "fopen", scope: !1715, file: !1715, line: 246, type: !1749, flags: DIFlagPrototyped, spFlags: 0)
!1749 = !DISubroutineType(types: !1750)
!1750 = !{!1723, !1132, !1132}
!1751 = !DIImportedEntity(tag: DW_TAG_imported_declaration, scope: !97, entity: !1752, file: !1712, line: 110)
!1752 = !DISubprogram(name: "fprintf", scope: !1715, file: !1715, line: 326, type: !1753, flags: DIFlagPrototyped, spFlags: 0)
!1753 = !DISubroutineType(types: !1754)
!1754 = !{!14, !1740, !1132, null}
!1755 = !DIImportedEntity(tag: DW_TAG_imported_declaration, scope: !97, entity: !1756, file: !1712, line: 111)
!1756 = !DISubprogram(name: "fputc", scope: !1715, file: !1715, line: 521, type: !1757, flags: DIFlagPrototyped, spFlags: 0)
!1757 = !DISubroutineType(types: !1758)
!1758 = !{!14, !14, !1723}
!1759 = !DIImportedEntity(tag: DW_TAG_imported_declaration, scope: !97, entity: !1760, file: !1712, line: 112)
!1760 = !DISubprogram(name: "fputs", scope: !1715, file: !1715, line: 626, type: !1761, flags: DIFlagPrototyped, spFlags: 0)
!1761 = !DISubroutineType(types: !1762)
!1762 = !{!14, !1132, !1740}
!1763 = !DIImportedEntity(tag: DW_TAG_imported_declaration, scope: !97, entity: !1764, file: !1712, line: 113)
!1764 = !DISubprogram(name: "fread", scope: !1715, file: !1715, line: 646, type: !1765, flags: DIFlagPrototyped, spFlags: 0)
!1765 = !DISubroutineType(types: !1766)
!1766 = !{!1130, !1767, !1130, !1130, !1740}
!1767 = !DIDerivedType(tag: DW_TAG_restrict_type, baseType: !1179)
!1768 = !DIImportedEntity(tag: DW_TAG_imported_declaration, scope: !97, entity: !1769, file: !1712, line: 114)
!1769 = !DISubprogram(name: "freopen", scope: !1715, file: !1715, line: 252, type: !1770, flags: DIFlagPrototyped, spFlags: 0)
!1770 = !DISubroutineType(types: !1771)
!1771 = !{!1723, !1132, !1132, !1740}
!1772 = !DIImportedEntity(tag: DW_TAG_imported_declaration, scope: !97, entity: !1773, file: !1712, line: 115)
!1773 = !DISubprogram(name: "fscanf", linkageName: "__isoc99_fscanf", scope: !1715, file: !1715, line: 407, type: !1753, flags: DIFlagPrototyped, spFlags: 0)
!1774 = !DIImportedEntity(tag: DW_TAG_imported_declaration, scope: !97, entity: !1775, file: !1712, line: 116)
!1775 = !DISubprogram(name: "fseek", scope: !1715, file: !1715, line: 684, type: !1776, flags: DIFlagPrototyped, spFlags: 0)
!1776 = !DISubroutineType(types: !1777)
!1777 = !{!14, !1723, !945, !14}
!1778 = !DIImportedEntity(tag: DW_TAG_imported_declaration, scope: !97, entity: !1779, file: !1712, line: 117)
!1779 = !DISubprogram(name: "fsetpos", scope: !1715, file: !1715, line: 736, type: !1780, flags: DIFlagPrototyped, spFlags: 0)
!1780 = !DISubroutineType(types: !1781)
!1781 = !{!14, !1723, !1782}
!1782 = !DIDerivedType(tag: DW_TAG_pointer_type, baseType: !1783, size: 64)
!1783 = !DIDerivedType(tag: DW_TAG_const_type, baseType: !1714)
!1784 = !DIImportedEntity(tag: DW_TAG_imported_declaration, scope: !97, entity: !1785, file: !1712, line: 118)
!1785 = !DISubprogram(name: "ftell", scope: !1715, file: !1715, line: 689, type: !1786, flags: DIFlagPrototyped, spFlags: 0)
!1786 = !DISubroutineType(types: !1787)
!1787 = !{!945, !1723}
!1788 = !DIImportedEntity(tag: DW_TAG_imported_declaration, scope: !97, entity: !1789, file: !1712, line: 119)
!1789 = !DISubprogram(name: "fwrite", scope: !1715, file: !1715, line: 652, type: !1790, flags: DIFlagPrototyped, spFlags: 0)
!1790 = !DISubroutineType(types: !1791)
!1791 = !{!1130, !1792, !1130, !1130, !1740}
!1792 = !DIDerivedType(tag: DW_TAG_restrict_type, baseType: !232)
!1793 = !DIImportedEntity(tag: DW_TAG_imported_declaration, scope: !97, entity: !1794, file: !1712, line: 120)
!1794 = !DISubprogram(name: "getc", scope: !1715, file: !1715, line: 486, type: !1726, flags: DIFlagPrototyped, spFlags: 0)
!1795 = !DIImportedEntity(tag: DW_TAG_imported_declaration, scope: !97, entity: !1796, file: !1712, line: 121)
!1796 = !DISubprogram(name: "getchar", scope: !1715, file: !1715, line: 492, type: !1628, flags: DIFlagPrototyped, spFlags: 0)
!1797 = !DIImportedEntity(tag: DW_TAG_imported_declaration, scope: !97, entity: !1798, file: !1712, line: 126)
!1798 = !DISubprogram(name: "perror", scope: !1715, file: !1715, line: 775, type: !1799, flags: DIFlagPrototyped, spFlags: 0)
!1799 = !DISubroutineType(types: !1800)
!1800 = !{null, !621}
!1801 = !DIImportedEntity(tag: DW_TAG_imported_declaration, scope: !97, entity: !1802, file: !1712, line: 127)
!1802 = !DISubprogram(name: "printf", scope: !1715, file: !1715, line: 332, type: !1803, flags: DIFlagPrototyped, spFlags: 0)
!1803 = !DISubroutineType(types: !1804)
!1804 = !{!14, !1132, null}
!1805 = !DIImportedEntity(tag: DW_TAG_imported_declaration, scope: !97, entity: !1806, file: !1712, line: 128)
!1806 = !DISubprogram(name: "putc", scope: !1715, file: !1715, line: 522, type: !1757, flags: DIFlagPrototyped, spFlags: 0)
!1807 = !DIImportedEntity(tag: DW_TAG_imported_declaration, scope: !97, entity: !1808, file: !1712, line: 129)
!1808 = !DISubprogram(name: "putchar", scope: !1715, file: !1715, line: 528, type: !719, flags: DIFlagPrototyped, spFlags: 0)
!1809 = !DIImportedEntity(tag: DW_TAG_imported_declaration, scope: !97, entity: !1810, file: !1712, line: 130)
!1810 = !DISubprogram(name: "puts", scope: !1715, file: !1715, line: 632, type: !1562, flags: DIFlagPrototyped, spFlags: 0)
!1811 = !DIImportedEntity(tag: DW_TAG_imported_declaration, scope: !97, entity: !1812, file: !1712, line: 131)
!1812 = !DISubprogram(name: "remove", scope: !1715, file: !1715, line: 146, type: !1562, flags: DIFlagPrototyped, spFlags: 0)
!1813 = !DIImportedEntity(tag: DW_TAG_imported_declaration, scope: !97, entity: !1814, file: !1712, line: 132)
!1814 = !DISubprogram(name: "rename", scope: !1715, file: !1715, line: 148, type: !1815, flags: DIFlagPrototyped, spFlags: 0)
!1815 = !DISubroutineType(types: !1816)
!1816 = !{!14, !621, !621}
!1817 = !DIImportedEntity(tag: DW_TAG_imported_declaration, scope: !97, entity: !1818, file: !1712, line: 133)
!1818 = !DISubprogram(name: "rewind", scope: !1715, file: !1715, line: 694, type: !1721, flags: DIFlagPrototyped, spFlags: 0)
!1819 = !DIImportedEntity(tag: DW_TAG_imported_declaration, scope: !97, entity: !1820, file: !1712, line: 134)
!1820 = !DISubprogram(name: "scanf", linkageName: "__isoc99_scanf", scope: !1715, file: !1715, line: 410, type: !1803, flags: DIFlagPrototyped, spFlags: 0)
!1821 = !DIImportedEntity(tag: DW_TAG_imported_declaration, scope: !97, entity: !1822, file: !1712, line: 135)
!1822 = !DISubprogram(name: "setbuf", scope: !1715, file: !1715, line: 304, type: !1823, flags: DIFlagPrototyped, spFlags: 0)
!1823 = !DISubroutineType(types: !1824)
!1824 = !{null, !1740, !1201}
!1825 = !DIImportedEntity(tag: DW_TAG_imported_declaration, scope: !97, entity: !1826, file: !1712, line: 136)
!1826 = !DISubprogram(name: "setvbuf", scope: !1715, file: !1715, line: 308, type: !1827, flags: DIFlagPrototyped, spFlags: 0)
!1827 = !DISubroutineType(types: !1828)
!1828 = !{!14, !1740, !1201, !14, !1130}
!1829 = !DIImportedEntity(tag: DW_TAG_imported_declaration, scope: !97, entity: !1830, file: !1712, line: 137)
!1830 = !DISubprogram(name: "sprintf", scope: !1715, file: !1715, line: 334, type: !1831, flags: DIFlagPrototyped, spFlags: 0)
!1831 = !DISubroutineType(types: !1832)
!1832 = !{!14, !1201, !1132, null}
!1833 = !DIImportedEntity(tag: DW_TAG_imported_declaration, scope: !97, entity: !1834, file: !1712, line: 138)
!1834 = !DISubprogram(name: "sscanf", linkageName: "__isoc99_sscanf", scope: !1715, file: !1715, line: 412, type: !1835, flags: DIFlagPrototyped, spFlags: 0)
!1835 = !DISubroutineType(types: !1836)
!1836 = !{!14, !1132, !1132, null}
!1837 = !DIImportedEntity(tag: DW_TAG_imported_declaration, scope: !97, entity: !1838, file: !1712, line: 139)
!1838 = !DISubprogram(name: "tmpfile", scope: !1715, file: !1715, line: 173, type: !1839, flags: DIFlagPrototyped, spFlags: 0)
!1839 = !DISubroutineType(types: !1840)
!1840 = !{!1723}
!1841 = !DIImportedEntity(tag: DW_TAG_imported_declaration, scope: !97, entity: !1842, file: !1712, line: 141)
!1842 = !DISubprogram(name: "tmpnam", scope: !1715, file: !1715, line: 187, type: !1843, flags: DIFlagPrototyped, spFlags: 0)
!1843 = !DISubroutineType(types: !1844)
!1844 = !{!1202, !1202}
!1845 = !DIImportedEntity(tag: DW_TAG_imported_declaration, scope: !97, entity: !1846, file: !1712, line: 143)
!1846 = !DISubprogram(name: "ungetc", scope: !1715, file: !1715, line: 639, type: !1757, flags: DIFlagPrototyped, spFlags: 0)
!1847 = !DIImportedEntity(tag: DW_TAG_imported_declaration, scope: !97, entity: !1848, file: !1712, line: 144)
!1848 = !DISubprogram(name: "vfprintf", scope: !1715, file: !1715, line: 341, type: !1849, flags: DIFlagPrototyped, spFlags: 0)
!1849 = !DISubroutineType(types: !1850)
!1850 = !{!14, !1740, !1132, !1173}
!1851 = !DIImportedEntity(tag: DW_TAG_imported_declaration, scope: !97, entity: !1852, file: !1712, line: 145)
!1852 = !DISubprogram(name: "vprintf", scope: !1715, file: !1715, line: 347, type: !1853, flags: DIFlagPrototyped, spFlags: 0)
!1853 = !DISubroutineType(types: !1854)
!1854 = !{!14, !1132, !1173}
!1855 = !DIImportedEntity(tag: DW_TAG_imported_declaration, scope: !97, entity: !1856, file: !1712, line: 146)
!1856 = !DISubprogram(name: "vsprintf", scope: !1715, file: !1715, line: 349, type: !1857, flags: DIFlagPrototyped, spFlags: 0)
!1857 = !DISubroutineType(types: !1858)
!1858 = !{!14, !1201, !1132, !1173}
!1859 = !DIImportedEntity(tag: DW_TAG_imported_declaration, scope: !127, entity: !1860, file: !1712, line: 175)
!1860 = !DISubprogram(name: "snprintf", scope: !1715, file: !1715, line: 354, type: !1861, flags: DIFlagPrototyped, spFlags: 0)
!1861 = !DISubroutineType(types: !1862)
!1862 = !{!14, !1201, !1130, !1132, null}
!1863 = !DIImportedEntity(tag: DW_TAG_imported_declaration, scope: !127, entity: !1864, file: !1712, line: 176)
!1864 = !DISubprogram(name: "vfscanf", linkageName: "__isoc99_vfscanf", scope: !1715, file: !1715, line: 451, type: !1849, flags: DIFlagPrototyped, spFlags: 0)
!1865 = !DIImportedEntity(tag: DW_TAG_imported_declaration, scope: !127, entity: !1866, file: !1712, line: 177)
!1866 = !DISubprogram(name: "vscanf", linkageName: "__isoc99_vscanf", scope: !1715, file: !1715, line: 456, type: !1853, flags: DIFlagPrototyped, spFlags: 0)
!1867 = !DIImportedEntity(tag: DW_TAG_imported_declaration, scope: !127, entity: !1868, file: !1712, line: 178)
!1868 = !DISubprogram(name: "vsnprintf", scope: !1715, file: !1715, line: 358, type: !1869, flags: DIFlagPrototyped, spFlags: 0)
!1869 = !DISubroutineType(types: !1870)
!1870 = !{!14, !1201, !1130, !1132, !1173}
!1871 = !DIImportedEntity(tag: DW_TAG_imported_declaration, scope: !127, entity: !1872, file: !1712, line: 179)
!1872 = !DISubprogram(name: "vsscanf", linkageName: "__isoc99_vsscanf", scope: !1715, file: !1715, line: 459, type: !1873, flags: DIFlagPrototyped, spFlags: 0)
!1873 = !DISubroutineType(types: !1874)
!1874 = !{!14, !1132, !1132, !1173}
!1875 = !DIImportedEntity(tag: DW_TAG_imported_declaration, scope: !97, entity: !1860, file: !1712, line: 185)
!1876 = !DIImportedEntity(tag: DW_TAG_imported_declaration, scope: !97, entity: !1864, file: !1712, line: 186)
!1877 = !DIImportedEntity(tag: DW_TAG_imported_declaration, scope: !97, entity: !1866, file: !1712, line: 187)
!1878 = !DIImportedEntity(tag: DW_TAG_imported_declaration, scope: !97, entity: !1868, file: !1712, line: 188)
!1879 = !DIImportedEntity(tag: DW_TAG_imported_declaration, scope: !97, entity: !1872, file: !1712, line: 189)
!1880 = !DIImportedEntity(tag: DW_TAG_imported_declaration, scope: !97, entity: !1881, file: !1885, line: 82)
!1881 = !DIDerivedType(tag: DW_TAG_typedef, name: "wctrans_t", file: !1882, line: 48, baseType: !1883)
!1882 = !DIFile(filename: "/usr/include/wctype.h", directory: "")
!1883 = !DIDerivedType(tag: DW_TAG_pointer_type, baseType: !1884, size: 64)
!1884 = !DIDerivedType(tag: DW_TAG_const_type, baseType: !1424)
!1885 = !DIFile(filename: "/usr/lib/gcc/x86_64-linux-gnu/10/../../../../include/c++/10/cwctype", directory: "")
!1886 = !DIImportedEntity(tag: DW_TAG_imported_declaration, scope: !97, entity: !1887, file: !1885, line: 83)
!1887 = !DIDerivedType(tag: DW_TAG_typedef, name: "wctype_t", file: !1888, line: 38, baseType: !231)
!1888 = !DIFile(filename: "/usr/include/x86_64-linux-gnu/bits/wctype-wchar.h", directory: "")
!1889 = !DIImportedEntity(tag: DW_TAG_imported_declaration, scope: !97, entity: !1076, file: !1885, line: 84)
!1890 = !DIImportedEntity(tag: DW_TAG_imported_declaration, scope: !97, entity: !1891, file: !1885, line: 86)
!1891 = !DISubprogram(name: "iswalnum", scope: !1888, file: !1888, line: 95, type: !1290, flags: DIFlagPrototyped, spFlags: 0)
!1892 = !DIImportedEntity(tag: DW_TAG_imported_declaration, scope: !97, entity: !1893, file: !1885, line: 87)
!1893 = !DISubprogram(name: "iswalpha", scope: !1888, file: !1888, line: 101, type: !1290, flags: DIFlagPrototyped, spFlags: 0)
!1894 = !DIImportedEntity(tag: DW_TAG_imported_declaration, scope: !97, entity: !1895, file: !1885, line: 89)
!1895 = !DISubprogram(name: "iswblank", scope: !1888, file: !1888, line: 146, type: !1290, flags: DIFlagPrototyped, spFlags: 0)
!1896 = !DIImportedEntity(tag: DW_TAG_imported_declaration, scope: !97, entity: !1897, file: !1885, line: 91)
!1897 = !DISubprogram(name: "iswcntrl", scope: !1888, file: !1888, line: 104, type: !1290, flags: DIFlagPrototyped, spFlags: 0)
!1898 = !DIImportedEntity(tag: DW_TAG_imported_declaration, scope: !97, entity: !1899, file: !1885, line: 92)
!1899 = !DISubprogram(name: "iswctype", scope: !1888, file: !1888, line: 159, type: !1900, flags: DIFlagPrototyped, spFlags: 0)
!1900 = !DISubroutineType(types: !1901)
!1901 = !{!14, !1076, !1887}
!1902 = !DIImportedEntity(tag: DW_TAG_imported_declaration, scope: !97, entity: !1903, file: !1885, line: 93)
!1903 = !DISubprogram(name: "iswdigit", scope: !1888, file: !1888, line: 108, type: !1290, flags: DIFlagPrototyped, spFlags: 0)
!1904 = !DIImportedEntity(tag: DW_TAG_imported_declaration, scope: !97, entity: !1905, file: !1885, line: 94)
!1905 = !DISubprogram(name: "iswgraph", scope: !1888, file: !1888, line: 112, type: !1290, flags: DIFlagPrototyped, spFlags: 0)
!1906 = !DIImportedEntity(tag: DW_TAG_imported_declaration, scope: !97, entity: !1907, file: !1885, line: 95)
!1907 = !DISubprogram(name: "iswlower", scope: !1888, file: !1888, line: 117, type: !1290, flags: DIFlagPrototyped, spFlags: 0)
!1908 = !DIImportedEntity(tag: DW_TAG_imported_declaration, scope: !97, entity: !1909, file: !1885, line: 96)
!1909 = !DISubprogram(name: "iswprint", scope: !1888, file: !1888, line: 120, type: !1290, flags: DIFlagPrototyped, spFlags: 0)
!1910 = !DIImportedEntity(tag: DW_TAG_imported_declaration, scope: !97, entity: !1911, file: !1885, line: 97)
!1911 = !DISubprogram(name: "iswpunct", scope: !1888, file: !1888, line: 125, type: !1290, flags: DIFlagPrototyped, spFlags: 0)
!1912 = !DIImportedEntity(tag: DW_TAG_imported_declaration, scope: !97, entity: !1913, file: !1885, line: 98)
!1913 = !DISubprogram(name: "iswspace", scope: !1888, file: !1888, line: 130, type: !1290, flags: DIFlagPrototyped, spFlags: 0)
!1914 = !DIImportedEntity(tag: DW_TAG_imported_declaration, scope: !97, entity: !1915, file: !1885, line: 99)
!1915 = !DISubprogram(name: "iswupper", scope: !1888, file: !1888, line: 135, type: !1290, flags: DIFlagPrototyped, spFlags: 0)
!1916 = !DIImportedEntity(tag: DW_TAG_imported_declaration, scope: !97, entity: !1917, file: !1885, line: 100)
!1917 = !DISubprogram(name: "iswxdigit", scope: !1888, file: !1888, line: 140, type: !1290, flags: DIFlagPrototyped, spFlags: 0)
!1918 = !DIImportedEntity(tag: DW_TAG_imported_declaration, scope: !97, entity: !1919, file: !1885, line: 101)
!1919 = !DISubprogram(name: "towctrans", scope: !1882, file: !1882, line: 55, type: !1920, flags: DIFlagPrototyped, spFlags: 0)
!1920 = !DISubroutineType(types: !1921)
!1921 = !{!1076, !1076, !1881}
!1922 = !DIImportedEntity(tag: DW_TAG_imported_declaration, scope: !97, entity: !1923, file: !1885, line: 102)
!1923 = !DISubprogram(name: "towlower", scope: !1888, file: !1888, line: 166, type: !1924, flags: DIFlagPrototyped, spFlags: 0)
!1924 = !DISubroutineType(types: !1925)
!1925 = !{!1076, !1076}
!1926 = !DIImportedEntity(tag: DW_TAG_imported_declaration, scope: !97, entity: !1927, file: !1885, line: 103)
!1927 = !DISubprogram(name: "towupper", scope: !1888, file: !1888, line: 169, type: !1924, flags: DIFlagPrototyped, spFlags: 0)
!1928 = !DIImportedEntity(tag: DW_TAG_imported_declaration, scope: !97, entity: !1929, file: !1885, line: 104)
!1929 = !DISubprogram(name: "wctrans", scope: !1882, file: !1882, line: 52, type: !1930, flags: DIFlagPrototyped, spFlags: 0)
!1930 = !DISubroutineType(types: !1931)
!1931 = !{!1881, !621}
!1932 = !DIImportedEntity(tag: DW_TAG_imported_declaration, scope: !97, entity: !1933, file: !1885, line: 105)
!1933 = !DISubprogram(name: "wctype", scope: !1888, file: !1888, line: 155, type: !1934, flags: DIFlagPrototyped, spFlags: 0)
!1934 = !DISubroutineType(types: !1935)
!1935 = !{!1887, !621}
!1936 = !DIImportedEntity(tag: DW_TAG_imported_declaration, name: "deal_II_numbers", scope: !136, entity: !1937, file: !1938, line: 302)
!1937 = !DINamespace(name: "numbers", scope: !136)
!1938 = !DIFile(filename: "include/base/numbers.h", directory: "/home/venkat/IF-DV/spec_build_release/CPU_2017/benchspec/CPU/510.parest_r/build/build_base_ld-loop-ext-m64.0000")
!1939 = !DIImportedEntity(tag: DW_TAG_imported_module, scope: !136, entity: !1940, file: !1941, line: 991)
!1940 = !DINamespace(name: "StandardExceptions", scope: !136)
!1941 = !DIFile(filename: "include/base/exceptions.h", directory: "/home/venkat/IF-DV/spec_build_release/CPU_2017/benchspec/CPU/510.parest_r/build/build_base_ld-loop-ext-m64.0000")
!1942 = !DIImportedEntity(tag: DW_TAG_imported_declaration, scope: !97, entity: !125, file: !1943, line: 89)
!1943 = !DIFile(filename: "/usr/lib/gcc/x86_64-linux-gnu/10/../../../../include/c++/10/bits/shared_ptr_base.h", directory: "")
!1944 = !DIImportedEntity(tag: DW_TAG_imported_declaration, scope: !97, entity: !1945, file: !1943, line: 90)
!1945 = !DIGlobalVariable(name: "__default_lock_policy", linkageName: "_ZN9__gnu_cxxL21__default_lock_policyE", scope: !127, file: !126, line: 53, type: !1946, isLocal: true, isDefinition: false)
!1946 = !DIDerivedType(tag: DW_TAG_const_type, baseType: !125)
!1947 = !DIImportedEntity(tag: DW_TAG_imported_declaration, scope: !97, entity: !1948, file: !1951, line: 58)
!1948 = !DIDerivedType(tag: DW_TAG_typedef, name: "max_align_t", file: !1949, line: 24, baseType: !1950)
!1949 = !DIFile(filename: "Rohit/IR2Vec-LoopOptimizationFramework/build_REL_AsrtON/lib/clang/10.0.1/include/__stddef_max_align_t.h", directory: "/home/venkat/IF-DV")
!1950 = !DICompositeType(tag: DW_TAG_structure_type, file: !1949, line: 19, flags: DIFlagFwdDecl, identifier: "_ZTS11max_align_t")
!1951 = !DIFile(filename: "/usr/lib/gcc/x86_64-linux-gnu/10/../../../../include/c++/10/cstddef", directory: "")
!1952 = !DIImportedEntity(tag: DW_TAG_imported_module, scope: !136, entity: !1953, file: !1954, line: 69)
!1953 = !DINamespace(name: "LACExceptions", scope: !136)
!1954 = !DIFile(filename: "include/lac/exceptions.h", directory: "/home/venkat/IF-DV/spec_build_release/CPU_2017/benchspec/CPU/510.parest_r/build/build_base_ld-loop-ext-m64.0000")
!1955 = !DIImportedEntity(tag: DW_TAG_imported_module, scope: !1956, entity: !1957, file: !1958, line: 34)
!1956 = !DINamespace(name: "mpl", scope: !6)
!1957 = !DINamespace(name: "mpl_", scope: null)
!1958 = !DIFile(filename: "./boost/mpl/aux_/adl_barrier.hpp", directory: "/home/venkat/IF-DV/spec_build_release/CPU_2017/benchspec/CPU/510.parest_r/build/build_base_ld-loop-ext-m64.0000")
!1959 = !DIImportedEntity(tag: DW_TAG_imported_module, scope: !1960, entity: !1961, file: !1958, line: 35)
!1960 = !DINamespace(name: "aux", scope: !1956)
!1961 = !DINamespace(name: "aux", scope: !1957)
!1962 = !DIImportedEntity(tag: DW_TAG_imported_declaration, scope: !1956, entity: !1963, file: !1964, line: 30)
!1963 = !DIDerivedType(tag: DW_TAG_typedef, name: "true_", scope: !1957, file: !1964, line: 24, baseType: !1965)
!1964 = !DIFile(filename: "./boost/mpl/bool_fwd.hpp", directory: "/home/venkat/IF-DV/spec_build_release/CPU_2017/benchspec/CPU/510.parest_r/build/build_base_ld-loop-ext-m64.0000")
