; ModuleID = 'source/base/log.cc'
source_filename = "source/base/log.cc"
target datalayout = "e-m:e-p270:32:32-p271:32:32-p272:64:64-i64:64-f80:128-n8:16:32:64-S128"
target triple = "x86_64-unknown-linux-gnu"

%"struct.boost::arg" = type { i8 }
%"struct.boost::arg.0" = type { i8 }
%"struct.boost::arg.2" = type { i8 }
%"struct.boost::arg.4" = type { i8 }
%"struct.boost::arg.6" = type { i8 }
%"struct.boost::arg.8" = type { i8 }
%"struct.boost::arg.10" = type { i8 }
%"struct.boost::arg.12" = type { i8 }
%"struct.boost::arg.14" = type { i8 }
%"class.std::ios_base::Init" = type { i8 }
%"class.dealii::LogStream" = type { %"class.std::stack", %"class.std::basic_ostream"*, %"class.std::basic_ostream"*, i32, i32, i8, i8, double, double, i8, %"class.std::basic_streambuf"*, %"class.std::map" }
%"class.std::stack" = type { %"class.std::deque" }
%"class.std::deque" = type { %"class.std::_Deque_base" }
%"class.std::_Deque_base" = type { %"struct.std::_Deque_base<std::__cxx11::basic_string<char>, std::allocator<std::__cxx11::basic_string<char> > >::_Deque_impl" }
%"struct.std::_Deque_base<std::__cxx11::basic_string<char>, std::allocator<std::__cxx11::basic_string<char> > >::_Deque_impl" = type { %"struct.std::_Deque_base<std::__cxx11::basic_string<char>, std::allocator<std::__cxx11::basic_string<char> > >::_Deque_impl_data" }
%"struct.std::_Deque_base<std::__cxx11::basic_string<char>, std::allocator<std::__cxx11::basic_string<char> > >::_Deque_impl_data" = type { %"class.std::__cxx11::basic_string"**, i64, %"struct.std::_Deque_iterator", %"struct.std::_Deque_iterator" }
%"class.std::__cxx11::basic_string" = type { %"struct.std::__cxx11::basic_string<char, std::char_traits<char>, std::allocator<char> >::_Alloc_hider", i64, %union.anon }
%"struct.std::__cxx11::basic_string<char, std::char_traits<char>, std::allocator<char> >::_Alloc_hider" = type { i8* }
%union.anon = type { i64, [8 x i8] }
%"struct.std::_Deque_iterator" = type { %"class.std::__cxx11::basic_string"*, %"class.std::__cxx11::basic_string"*, %"class.std::__cxx11::basic_string"*, %"class.std::__cxx11::basic_string"** }
%"class.std::basic_ostream" = type { i32 (...)**, %"class.std::basic_ios" }
%"class.std::basic_ios" = type { %"class.std::ios_base", %"class.std::basic_ostream"*, i8, i8, %"class.std::basic_streambuf"*, %"class.std::ctype"*, %"class.std::num_put"*, %"class.std::num_get"* }
%"class.std::ios_base" = type { i32 (...)**, i64, i64, i32, i32, i32, %"struct.std::ios_base::_Callback_list"*, %"struct.std::ios_base::_Words", [8 x %"struct.std::ios_base::_Words"], i32, %"struct.std::ios_base::_Words"*, %"class.std::locale" }
%"struct.std::ios_base::_Callback_list" = type { %"struct.std::ios_base::_Callback_list"*, void (i32, %"class.std::ios_base"*, i32)*, i32, i32 }
%"struct.std::ios_base::_Words" = type { i8*, i64 }
%"class.std::locale" = type { %"class.std::locale::_Impl"* }
%"class.std::locale::_Impl" = type { i32, %"class.std::locale::facet"**, i64, %"class.std::locale::facet"**, i8** }
%"class.std::locale::facet" = type <{ i32 (...)**, i32, [4 x i8] }>
%"class.std::ctype" = type <{ %"class.std::locale::facet.base", [4 x i8], %struct.__locale_struct*, i8, [7 x i8], i32*, i32*, i16*, i8, [256 x i8], [256 x i8], i8, [6 x i8] }>
%"class.std::locale::facet.base" = type <{ i32 (...)**, i32 }>
%struct.__locale_struct = type { [13 x %struct.__locale_data*], i16*, i32*, i32*, [13 x i8*] }
%struct.__locale_data = type opaque
%"class.std::num_put" = type { %"class.std::locale::facet.base", [4 x i8] }
%"class.std::num_get" = type { %"class.std::locale::facet.base", [4 x i8] }
%"class.std::basic_streambuf" = type { i32 (...)**, i8*, i8*, i8*, i8*, i8*, i8*, %"class.std::locale" }
%"class.std::map" = type { %"class.std::_Rb_tree" }
%"class.std::_Rb_tree" = type { %"struct.std::_Rb_tree<unsigned int, std::pair<const unsigned int, boost::shared_ptr<std::__cxx11::basic_ostringstream<char> > >, std::_Select1st<std::pair<const unsigned int, boost::shared_ptr<std::__cxx11::basic_ostringstream<char> > > >, std::less<unsigned int>, std::allocator<std::pair<const unsigned int, boost::shared_ptr<std::__cxx11::basic_ostringstream<char> > > > >::_Rb_tree_impl" }
%"struct.std::_Rb_tree<unsigned int, std::pair<const unsigned int, boost::shared_ptr<std::__cxx11::basic_ostringstream<char> > >, std::_Select1st<std::pair<const unsigned int, boost::shared_ptr<std::__cxx11::basic_ostringstream<char> > > >, std::less<unsigned int>, std::allocator<std::pair<const unsigned int, boost::shared_ptr<std::__cxx11::basic_ostringstream<char> > > > >::_Rb_tree_impl" = type { %"struct.std::_Rb_tree_key_compare", %"struct.std::_Rb_tree_header" }
%"struct.std::_Rb_tree_key_compare" = type { %"struct.std::less" }
%"struct.std::less" = type { i8 }
%"struct.std::_Rb_tree_header" = type { %"struct.std::_Rb_tree_node_base", i64 }
%"struct.std::_Rb_tree_node_base" = type { i32, %"struct.std::_Rb_tree_node_base"*, %"struct.std::_Rb_tree_node_base"*, %"struct.std::_Rb_tree_node_base"* }
%"class.dealii::Threads::DummyThreadMutex" = type { i8 }
%"class.dealii::JobIdentifier" = type { %"class.std::__cxx11::basic_string" }
%"struct.std::piecewise_construct_t" = type { i8 }
%"class.std::allocator.16" = type { i8 }
%"class.dealii::Threads::DummyThreadMutex::ScopedLock" = type { i8 }
%"class.std::__cxx11::basic_ostringstream" = type { %"class.std::basic_ostream.base", %"class.std::__cxx11::basic_stringbuf", %"class.std::basic_ios" }
%"class.std::basic_ostream.base" = type { i32 (...)** }
%"class.std::__cxx11::basic_stringbuf" = type { %"class.std::basic_streambuf", i32, %"class.std::__cxx11::basic_string" }
%"class.boost::shared_ptr" = type { %"class.std::__cxx11::basic_ostringstream"*, %"class.boost::detail::shared_count" }
%"class.boost::detail::shared_count" = type { %"class.boost::detail::sp_counted_base"* }
%"class.boost::detail::sp_counted_base" = type { i32 (...)**, i64, i64 }
%"struct.std::_Rb_tree_iterator" = type { %"struct.std::_Rb_tree_node_base"* }
%"struct.std::_Rb_tree_const_iterator" = type { %"struct.std::_Rb_tree_node_base"* }
%"class.std::tuple" = type { %"struct.std::_Tuple_impl" }
%"struct.std::_Tuple_impl" = type { %"struct.std::_Head_base" }
%"struct.std::_Head_base" = type { i32* }
%"class.std::tuple.25" = type { i8 }
%"struct.std::pair" = type { i32, %"class.boost::shared_ptr" }
%"class.std::allocator.19" = type { i8 }
%"class.__gnu_cxx::new_allocator.20" = type { i8 }
%"struct.std::_Rb_tree_node" = type { %"struct.std::_Rb_tree_node_base", %"struct.__gnu_cxx::__aligned_membuf" }
%"struct.__gnu_cxx::__aligned_membuf" = type { [24 x i8] }
%"class.std::allocator" = type { i8 }
%"class.std::allocator.22" = type { i8 }
%"class.__gnu_cxx::new_allocator" = type { i8 }
%"class.__gnu_cxx::new_allocator.23" = type { i8 }
%"struct.std::pair.26" = type { %"struct.std::_Rb_tree_node_base"*, %"struct.std::_Rb_tree_node_base"* }
%"struct.std::_Select1st" = type { i8 }
%"struct.std::_Index_tuple" = type { i8 }
%"struct.std::_Index_tuple.29" = type { i8 }
%"class.std::__pair_base" = type { i8 }
%"class.std::__pair_base.27" = type { i8 }
%"class.boost::detail::sp_counted_impl_p" = type { %"class.boost::detail::sp_counted_base", %"class.std::__cxx11::basic_ostringstream"* }
%"class.std::type_info" = type { i32 (...)**, i8* }
%"struct.std::_Deque_iterator.30" = type { %"class.std::__cxx11::basic_string"*, %"class.std::__cxx11::basic_string"*, %"class.std::__cxx11::basic_string"*, %"class.std::__cxx11::basic_string"** }

$_ZN5boost3argILi1EEC2Ev = comdat any

$_ZN5boost3argILi2EEC2Ev = comdat any

$_ZN5boost3argILi3EEC2Ev = comdat any

$_ZN5boost3argILi4EEC2Ev = comdat any

$_ZN5boost3argILi5EEC2Ev = comdat any

$_ZN5boost3argILi6EEC2Ev = comdat any

$_ZN5boost3argILi7EEC2Ev = comdat any

$_ZN5boost3argILi8EEC2Ev = comdat any

$_ZN5boost3argILi9EEC2Ev = comdat any

$_ZNSt5stackINSt7__cxx1112basic_stringIcSt11char_traitsIcESaIcEEESt5dequeIS5_SaIS5_EEEC2IS8_vEEv = comdat any

$_ZNSt3mapIjN5boost10shared_ptrINSt7__cxx1119basic_ostringstreamIcSt11char_traitsIcESaIcEEEEESt4lessIjESaISt4pairIKjS8_EEEC2Ev = comdat any

$_ZNSt5stackINSt7__cxx1112basic_stringIcSt11char_traitsIcESaIcEEESt5dequeIS5_SaIS5_EEE4pushEOS5_ = comdat any

$_ZNSt8ios_base4setfESt13_Ios_Fmtflags = comdat any

$_ZStorSt13_Ios_FmtflagsS_ = comdat any

$_ZNSt3mapIjN5boost10shared_ptrINSt7__cxx1119basic_ostringstreamIcSt11char_traitsIcESaIcEEEEESt4lessIjESaISt4pairIKjS8_EEED2Ev = comdat any

$_ZNSt5stackINSt7__cxx1112basic_stringIcSt11char_traitsIcESaIcEEESt5dequeIS5_SaIS5_EEED2Ev = comdat any

$__clang_call_terminate = comdat any

$_ZN6dealii9LogStream5printIPFRSoS2_EEEvRKT_ = comdat any

$_ZN6dealii7Threads16DummyThreadMutex10ScopedLockC2ERS1_ = comdat any

$_ZNKSt5stackINSt7__cxx1112basic_stringIcSt11char_traitsIcESaIcEEESt5dequeIS5_SaIS5_EEE4sizeEv = comdat any

$_ZN6dealii7Threads16DummyThreadMutex10ScopedLockD2Ev = comdat any

$_ZNSt3mapIjN5boost10shared_ptrINSt7__cxx1119basic_ostringstreamIcSt11char_traitsIcESaIcEEEEESt4lessIjESaISt4pairIKjS8_EEEixERSC_ = comdat any

$_ZNK5boost10shared_ptrINSt7__cxx1119basic_ostringstreamIcSt11char_traitsIcESaIcEEEEcvMS7_PS6_Ev = comdat any

$_ZN5boost10shared_ptrINSt7__cxx1119basic_ostringstreamIcSt11char_traitsIcESaIcEEEEC2IS6_EEPT_ = comdat any

$_ZN5boost10shared_ptrINSt7__cxx1119basic_ostringstreamIcSt11char_traitsIcESaIcEEEEaSERKS7_ = comdat any

$_ZN5boost10shared_ptrINSt7__cxx1119basic_ostringstreamIcSt11char_traitsIcESaIcEEEED2Ev = comdat any

$_ZNK5boost10shared_ptrINSt7__cxx1119basic_ostringstreamIcSt11char_traitsIcESaIcEEEEptEv = comdat any

$_ZNK5boost10shared_ptrINSt7__cxx1119basic_ostringstreamIcSt11char_traitsIcESaIcEEEEdeEv = comdat any

$_ZNKSt5stackINSt7__cxx1112basic_stringIcSt11char_traitsIcESaIcEEESt5dequeIS5_SaIS5_EEE3topEv = comdat any

$_ZNSt5stackINSt7__cxx1112basic_stringIcSt11char_traitsIcESaIcEEESt5dequeIS5_SaIS5_EEE3topEv = comdat any

$_ZNSt5stackINSt7__cxx1112basic_stringIcSt11char_traitsIcESaIcEEESt5dequeIS5_SaIS5_EEE4pushERKS5_ = comdat any

$_ZNSt5stackINSt7__cxx1112basic_stringIcSt11char_traitsIcESaIcEEESt5dequeIS5_SaIS5_EEE3popEv = comdat any

$_ZNSt8ios_base5widthEl = comdat any

$_ZN6dealii17MemoryConsumption18memory_consumptionERKNSt7__cxx1112basic_stringIcSt11char_traitsIcESaIcEEE = comdat any

$_ZNSt8_Rb_treeIjSt4pairIKjN5boost10shared_ptrINSt7__cxx1119basic_ostringstreamIcSt11char_traitsIcESaIcEEEEEESt10_Select1stISB_ESt4lessIjESaISB_EEC2Ev = comdat any

$_ZNSt8_Rb_treeIjSt4pairIKjN5boost10shared_ptrINSt7__cxx1119basic_ostringstreamIcSt11char_traitsIcESaIcEEEEEESt10_Select1stISB_ESt4lessIjESaISB_EE13_Rb_tree_implISF_Lb1EEC2Ev = comdat any

$_ZNSaISt13_Rb_tree_nodeISt4pairIKjN5boost10shared_ptrINSt7__cxx1119basic_ostringstreamIcSt11char_traitsIcESaIcEEEEEEEEC2Ev = comdat any

$_ZNSt20_Rb_tree_key_compareISt4lessIjEEC2Ev = comdat any

$_ZNSt15_Rb_tree_headerC2Ev = comdat any

$_ZN9__gnu_cxx13new_allocatorISt13_Rb_tree_nodeISt4pairIKjN5boost10shared_ptrINSt7__cxx1119basic_ostringstreamIcSt11char_traitsIcESaIcEEEEEEEEC2Ev = comdat any

$_ZNSt15_Rb_tree_header8_M_resetEv = comdat any

$_ZStoRRSt13_Ios_FmtflagsS_ = comdat any

$_ZNSt8_Rb_treeIjSt4pairIKjN5boost10shared_ptrINSt7__cxx1119basic_ostringstreamIcSt11char_traitsIcESaIcEEEEEESt10_Select1stISB_ESt4lessIjESaISB_EED2Ev = comdat any

$_ZNSt8_Rb_treeIjSt4pairIKjN5boost10shared_ptrINSt7__cxx1119basic_ostringstreamIcSt11char_traitsIcESaIcEEEEEESt10_Select1stISB_ESt4lessIjESaISB_EE8_M_eraseEPSt13_Rb_tree_nodeISB_E = comdat any

$_ZNSt8_Rb_treeIjSt4pairIKjN5boost10shared_ptrINSt7__cxx1119basic_ostringstreamIcSt11char_traitsIcESaIcEEEEEESt10_Select1stISB_ESt4lessIjESaISB_EE8_M_beginEv = comdat any

$_ZNSt8_Rb_treeIjSt4pairIKjN5boost10shared_ptrINSt7__cxx1119basic_ostringstreamIcSt11char_traitsIcESaIcEEEEEESt10_Select1stISB_ESt4lessIjESaISB_EE13_Rb_tree_implISF_Lb1EED2Ev = comdat any

$_ZNSt8_Rb_treeIjSt4pairIKjN5boost10shared_ptrINSt7__cxx1119basic_ostringstreamIcSt11char_traitsIcESaIcEEEEEESt10_Select1stISB_ESt4lessIjESaISB_EE8_S_rightEPSt18_Rb_tree_node_base = comdat any

$_ZNSt8_Rb_treeIjSt4pairIKjN5boost10shared_ptrINSt7__cxx1119basic_ostringstreamIcSt11char_traitsIcESaIcEEEEEESt10_Select1stISB_ESt4lessIjESaISB_EE7_S_leftEPSt18_Rb_tree_node_base = comdat any

$_ZNSt8_Rb_treeIjSt4pairIKjN5boost10shared_ptrINSt7__cxx1119basic_ostringstreamIcSt11char_traitsIcESaIcEEEEEESt10_Select1stISB_ESt4lessIjESaISB_EE12_M_drop_nodeEPSt13_Rb_tree_nodeISB_E = comdat any

$_ZNSt8_Rb_treeIjSt4pairIKjN5boost10shared_ptrINSt7__cxx1119basic_ostringstreamIcSt11char_traitsIcESaIcEEEEEESt10_Select1stISB_ESt4lessIjESaISB_EE15_M_destroy_nodeEPSt13_Rb_tree_nodeISB_E = comdat any

$_ZNSt8_Rb_treeIjSt4pairIKjN5boost10shared_ptrINSt7__cxx1119basic_ostringstreamIcSt11char_traitsIcESaIcEEEEEESt10_Select1stISB_ESt4lessIjESaISB_EE11_M_put_nodeEPSt13_Rb_tree_nodeISB_E = comdat any

$_ZNSt16allocator_traitsISaISt13_Rb_tree_nodeISt4pairIKjN5boost10shared_ptrINSt7__cxx1119basic_ostringstreamIcSt11char_traitsIcESaIcEEEEEEEEE7destroyISC_EEvRSE_PT_ = comdat any

$_ZNSt8_Rb_treeIjSt4pairIKjN5boost10shared_ptrINSt7__cxx1119basic_ostringstreamIcSt11char_traitsIcESaIcEEEEEESt10_Select1stISB_ESt4lessIjESaISB_EE21_M_get_Node_allocatorEv = comdat any

$_ZNSt13_Rb_tree_nodeISt4pairIKjN5boost10shared_ptrINSt7__cxx1119basic_ostringstreamIcSt11char_traitsIcESaIcEEEEEEE9_M_valptrEv = comdat any

$_ZN9__gnu_cxx13new_allocatorISt13_Rb_tree_nodeISt4pairIKjN5boost10shared_ptrINSt7__cxx1119basic_ostringstreamIcSt11char_traitsIcESaIcEEEEEEEE7destroyISD_EEvPT_ = comdat any

$_ZNSt4pairIKjN5boost10shared_ptrINSt7__cxx1119basic_ostringstreamIcSt11char_traitsIcESaIcEEEEEED2Ev = comdat any

$_ZN9__gnu_cxx16__aligned_membufISt4pairIKjN5boost10shared_ptrINSt7__cxx1119basic_ostringstreamIcSt11char_traitsIcESaIcEEEEEEE6_M_ptrEv = comdat any

$_ZN9__gnu_cxx16__aligned_membufISt4pairIKjN5boost10shared_ptrINSt7__cxx1119basic_ostringstreamIcSt11char_traitsIcESaIcEEEEEEE7_M_addrEv = comdat any

$_ZNSt16allocator_traitsISaISt13_Rb_tree_nodeISt4pairIKjN5boost10shared_ptrINSt7__cxx1119basic_ostringstreamIcSt11char_traitsIcESaIcEEEEEEEEE10deallocateERSE_PSD_m = comdat any

$_ZN9__gnu_cxx13new_allocatorISt13_Rb_tree_nodeISt4pairIKjN5boost10shared_ptrINSt7__cxx1119basic_ostringstreamIcSt11char_traitsIcESaIcEEEEEEEE10deallocateEPSE_m = comdat any

$_ZNSaISt13_Rb_tree_nodeISt4pairIKjN5boost10shared_ptrINSt7__cxx1119basic_ostringstreamIcSt11char_traitsIcESaIcEEEEEEEED2Ev = comdat any

$_ZN9__gnu_cxx13new_allocatorISt13_Rb_tree_nodeISt4pairIKjN5boost10shared_ptrINSt7__cxx1119basic_ostringstreamIcSt11char_traitsIcESaIcEEEEEEEED2Ev = comdat any

$_ZNSt5dequeINSt7__cxx1112basic_stringIcSt11char_traitsIcESaIcEEESaIS5_EED2Ev = comdat any

$_ZNSt5dequeINSt7__cxx1112basic_stringIcSt11char_traitsIcESaIcEEESaIS5_EE15_M_destroy_dataESt15_Deque_iteratorIS5_RS5_PS5_ESB_RKS6_ = comdat any

$_ZNSt5dequeINSt7__cxx1112basic_stringIcSt11char_traitsIcESaIcEEESaIS5_EE5beginEv = comdat any

$_ZNSt5dequeINSt7__cxx1112basic_stringIcSt11char_traitsIcESaIcEEESaIS5_EE3endEv = comdat any

$_ZNSt11_Deque_baseINSt7__cxx1112basic_stringIcSt11char_traitsIcESaIcEEESaIS5_EE19_M_get_Tp_allocatorEv = comdat any

$_ZNSt11_Deque_baseINSt7__cxx1112basic_stringIcSt11char_traitsIcESaIcEEESaIS5_EED2Ev = comdat any

$_ZNSt5dequeINSt7__cxx1112basic_stringIcSt11char_traitsIcESaIcEEESaIS5_EE19_M_destroy_data_auxESt15_Deque_iteratorIS5_RS5_PS5_ESB_ = comdat any

$_ZNSt15_Deque_iteratorINSt7__cxx1112basic_stringIcSt11char_traitsIcESaIcEEERS5_PS5_EC2ERKS8_ = comdat any

$_ZSt8_DestroyIPNSt7__cxx1112basic_stringIcSt11char_traitsIcESaIcEEES5_EvT_S7_RSaIT0_E = comdat any

$_ZNSt5dequeINSt7__cxx1112basic_stringIcSt11char_traitsIcESaIcEEESaIS5_EE14_S_buffer_sizeEv = comdat any

$_ZSt8_DestroyIPNSt7__cxx1112basic_stringIcSt11char_traitsIcESaIcEEEEvT_S7_ = comdat any

$_ZNSt12_Destroy_auxILb0EE9__destroyIPNSt7__cxx1112basic_stringIcSt11char_traitsIcESaIcEEEEEvT_S9_ = comdat any

$_ZSt8_DestroyINSt7__cxx1112basic_stringIcSt11char_traitsIcESaIcEEEEvPT_ = comdat any

$_ZSt11__addressofINSt7__cxx1112basic_stringIcSt11char_traitsIcESaIcEEEEPT_RS6_ = comdat any

$_ZSt16__deque_buf_sizem = comdat any

$_ZNSt11_Deque_baseINSt7__cxx1112basic_stringIcSt11char_traitsIcESaIcEEESaIS5_EE16_M_destroy_nodesEPPS5_S9_ = comdat any

$_ZNSt11_Deque_baseINSt7__cxx1112basic_stringIcSt11char_traitsIcESaIcEEESaIS5_EE17_M_deallocate_mapEPPS5_m = comdat any

$_ZNSt11_Deque_baseINSt7__cxx1112basic_stringIcSt11char_traitsIcESaIcEEESaIS5_EE11_Deque_implD2Ev = comdat any

$_ZNSt11_Deque_baseINSt7__cxx1112basic_stringIcSt11char_traitsIcESaIcEEESaIS5_EE18_M_deallocate_nodeEPS5_ = comdat any

$_ZNSt16allocator_traitsISaINSt7__cxx1112basic_stringIcSt11char_traitsIcESaIcEEEEE10deallocateERS6_PS5_m = comdat any

$_ZN9__gnu_cxx13new_allocatorINSt7__cxx1112basic_stringIcSt11char_traitsIcESaIcEEEE10deallocateEPS6_m = comdat any

$_ZNKSt11_Deque_baseINSt7__cxx1112basic_stringIcSt11char_traitsIcESaIcEEESaIS5_EE20_M_get_map_allocatorEv = comdat any

$_ZNSt16allocator_traitsISaIPNSt7__cxx1112basic_stringIcSt11char_traitsIcESaIcEEEEE10deallocateERS7_PS6_m = comdat any

$_ZNSaIPNSt7__cxx1112basic_stringIcSt11char_traitsIcESaIcEEEED2Ev = comdat any

$_ZNKSt11_Deque_baseINSt7__cxx1112basic_stringIcSt11char_traitsIcESaIcEEESaIS5_EE19_M_get_Tp_allocatorEv = comdat any

$_ZNSaIPNSt7__cxx1112basic_stringIcSt11char_traitsIcESaIcEEEEC2IS4_EERKSaIT_E = comdat any

$_ZN9__gnu_cxx13new_allocatorIPNSt7__cxx1112basic_stringIcSt11char_traitsIcESaIcEEEEC2Ev = comdat any

$_ZN9__gnu_cxx13new_allocatorIPNSt7__cxx1112basic_stringIcSt11char_traitsIcESaIcEEEE10deallocateEPS7_m = comdat any

$_ZN9__gnu_cxx13new_allocatorIPNSt7__cxx1112basic_stringIcSt11char_traitsIcESaIcEEEED2Ev = comdat any

$_ZNSaINSt7__cxx1112basic_stringIcSt11char_traitsIcESaIcEEEED2Ev = comdat any

$_ZN9__gnu_cxx13new_allocatorINSt7__cxx1112basic_stringIcSt11char_traitsIcESaIcEEEED2Ev = comdat any

$_ZN5boost6detail12shared_countD2Ev = comdat any

$_ZN5boost6detail15sp_counted_base7releaseEv = comdat any

$_ZN5boost6detail15sp_counted_base12weak_releaseEv = comdat any

$_ZNSt5dequeINSt7__cxx1112basic_stringIcSt11char_traitsIcESaIcEEESaIS5_EEC2Ev = comdat any

$_ZNSt11_Deque_baseINSt7__cxx1112basic_stringIcSt11char_traitsIcESaIcEEESaIS5_EEC2Ev = comdat any

$_ZNSt11_Deque_baseINSt7__cxx1112basic_stringIcSt11char_traitsIcESaIcEEESaIS5_EE11_Deque_implC2Ev = comdat any

$_ZNSt11_Deque_baseINSt7__cxx1112basic_stringIcSt11char_traitsIcESaIcEEESaIS5_EE17_M_initialize_mapEm = comdat any

$_ZNSaINSt7__cxx1112basic_stringIcSt11char_traitsIcESaIcEEEEC2Ev = comdat any

$_ZNSt11_Deque_baseINSt7__cxx1112basic_stringIcSt11char_traitsIcESaIcEEESaIS5_EE16_Deque_impl_dataC2Ev = comdat any

$_ZN9__gnu_cxx13new_allocatorINSt7__cxx1112basic_stringIcSt11char_traitsIcESaIcEEEEC2Ev = comdat any

$_ZNSt15_Deque_iteratorINSt7__cxx1112basic_stringIcSt11char_traitsIcESaIcEEERS5_PS5_EC2Ev = comdat any

$_ZSt3maxImERKT_S2_S2_ = comdat any

$_ZNSt11_Deque_baseINSt7__cxx1112basic_stringIcSt11char_traitsIcESaIcEEESaIS5_EE15_M_allocate_mapEm = comdat any

$_ZNSt11_Deque_baseINSt7__cxx1112basic_stringIcSt11char_traitsIcESaIcEEESaIS5_EE15_M_create_nodesEPPS5_S9_ = comdat any

$_ZNSt15_Deque_iteratorINSt7__cxx1112basic_stringIcSt11char_traitsIcESaIcEEERS5_PS5_E11_M_set_nodeEPS7_ = comdat any

$_ZNSt16allocator_traitsISaIPNSt7__cxx1112basic_stringIcSt11char_traitsIcESaIcEEEEE8allocateERS7_m = comdat any

$_ZN9__gnu_cxx13new_allocatorIPNSt7__cxx1112basic_stringIcSt11char_traitsIcESaIcEEEE8allocateEmPKv = comdat any

$_ZNK9__gnu_cxx13new_allocatorIPNSt7__cxx1112basic_stringIcSt11char_traitsIcESaIcEEEE11_M_max_sizeEv = comdat any

$_ZNSt11_Deque_baseINSt7__cxx1112basic_stringIcSt11char_traitsIcESaIcEEESaIS5_EE16_M_allocate_nodeEv = comdat any

$_ZNSt16allocator_traitsISaINSt7__cxx1112basic_stringIcSt11char_traitsIcESaIcEEEEE8allocateERS6_m = comdat any

$_ZN9__gnu_cxx13new_allocatorINSt7__cxx1112basic_stringIcSt11char_traitsIcESaIcEEEE8allocateEmPKv = comdat any

$_ZNK9__gnu_cxx13new_allocatorINSt7__cxx1112basic_stringIcSt11char_traitsIcESaIcEEEE11_M_max_sizeEv = comdat any

$_ZNSt15_Deque_iteratorINSt7__cxx1112basic_stringIcSt11char_traitsIcESaIcEEERS5_PS5_E14_S_buffer_sizeEv = comdat any

$_ZNSt5dequeINSt7__cxx1112basic_stringIcSt11char_traitsIcESaIcEEESaIS5_EE9push_backEOS5_ = comdat any

$_ZSt4moveIRNSt7__cxx1112basic_stringIcSt11char_traitsIcESaIcEEEEONSt16remove_referenceIT_E4typeEOS8_ = comdat any

$_ZNSt5dequeINSt7__cxx1112basic_stringIcSt11char_traitsIcESaIcEEESaIS5_EE12emplace_backIJS5_EEEvDpOT_ = comdat any

$_ZNSt16allocator_traitsISaINSt7__cxx1112basic_stringIcSt11char_traitsIcESaIcEEEEE9constructIS5_JS5_EEEvRS6_PT_DpOT0_ = comdat any

$_ZSt7forwardINSt7__cxx1112basic_stringIcSt11char_traitsIcESaIcEEEEOT_RNSt16remove_referenceIS6_E4typeE = comdat any

$_ZNSt5dequeINSt7__cxx1112basic_stringIcSt11char_traitsIcESaIcEEESaIS5_EE16_M_push_back_auxIJS5_EEEvDpOT_ = comdat any

$_ZN9__gnu_cxx13new_allocatorINSt7__cxx1112basic_stringIcSt11char_traitsIcESaIcEEEE9constructIS6_JS6_EEEvPT_DpOT0_ = comdat any

$_ZNKSt5dequeINSt7__cxx1112basic_stringIcSt11char_traitsIcESaIcEEESaIS5_EE4sizeEv = comdat any

$_ZNKSt5dequeINSt7__cxx1112basic_stringIcSt11char_traitsIcESaIcEEESaIS5_EE8max_sizeEv = comdat any

$_ZNSt5dequeINSt7__cxx1112basic_stringIcSt11char_traitsIcESaIcEEESaIS5_EE22_M_reserve_map_at_backEm = comdat any

$_ZStmiRKSt15_Deque_iteratorINSt7__cxx1112basic_stringIcSt11char_traitsIcESaIcEEERS5_PS5_ESA_ = comdat any

$_ZNSt5dequeINSt7__cxx1112basic_stringIcSt11char_traitsIcESaIcEEESaIS5_EE11_S_max_sizeERKS6_ = comdat any

$_ZNSt16allocator_traitsISaINSt7__cxx1112basic_stringIcSt11char_traitsIcESaIcEEEEE8max_sizeERKS6_ = comdat any

$_ZSt3minImERKT_S2_S2_ = comdat any

$_ZNK9__gnu_cxx13new_allocatorINSt7__cxx1112basic_stringIcSt11char_traitsIcESaIcEEEE8max_sizeEv = comdat any

$_ZNSt5dequeINSt7__cxx1112basic_stringIcSt11char_traitsIcESaIcEEESaIS5_EE17_M_reallocate_mapEmb = comdat any

$_ZSt4copyIPPNSt7__cxx1112basic_stringIcSt11char_traitsIcESaIcEEES7_ET0_T_S9_S8_ = comdat any

$_ZSt13copy_backwardIPPNSt7__cxx1112basic_stringIcSt11char_traitsIcESaIcEEES7_ET0_T_S9_S8_ = comdat any

$_ZSt13__copy_move_aILb0EPPNSt7__cxx1112basic_stringIcSt11char_traitsIcESaIcEEES7_ET1_T0_S9_S8_ = comdat any

$_ZSt12__miter_baseIPPNSt7__cxx1112basic_stringIcSt11char_traitsIcESaIcEEEET_S8_ = comdat any

$_ZSt12__niter_wrapIPPNSt7__cxx1112basic_stringIcSt11char_traitsIcESaIcEEEET_RKS8_S8_ = comdat any

$_ZSt14__copy_move_a1ILb0EPPNSt7__cxx1112basic_stringIcSt11char_traitsIcESaIcEEES7_ET1_T0_S9_S8_ = comdat any

$_ZSt12__niter_baseIPPNSt7__cxx1112basic_stringIcSt11char_traitsIcESaIcEEEET_S8_ = comdat any

$_ZSt14__copy_move_a2ILb0EPPNSt7__cxx1112basic_stringIcSt11char_traitsIcESaIcEEES7_ET1_T0_S9_S8_ = comdat any

$_ZNSt11__copy_moveILb0ELb1ESt26random_access_iterator_tagE8__copy_mIPNSt7__cxx1112basic_stringIcSt11char_traitsIcESaIcEEEEEPT_PKSA_SD_SB_ = comdat any

$_ZSt22__copy_move_backward_aILb0EPPNSt7__cxx1112basic_stringIcSt11char_traitsIcESaIcEEES7_ET1_T0_S9_S8_ = comdat any

$_ZSt23__copy_move_backward_a1ILb0EPPNSt7__cxx1112basic_stringIcSt11char_traitsIcESaIcEEES7_ET1_T0_S9_S8_ = comdat any

$_ZSt23__copy_move_backward_a2ILb0EPPNSt7__cxx1112basic_stringIcSt11char_traitsIcESaIcEEES7_ET1_T0_S9_S8_ = comdat any

$_ZNSt20__copy_move_backwardILb0ELb1ESt26random_access_iterator_tagE13__copy_move_bIPNSt7__cxx1112basic_stringIcSt11char_traitsIcESaIcEEEEEPT_PKSA_SD_SB_ = comdat any

$_ZNSt3mapIjN5boost10shared_ptrINSt7__cxx1119basic_ostringstreamIcSt11char_traitsIcESaIcEEEEESt4lessIjESaISt4pairIKjS8_EEE11lower_boundERSC_ = comdat any

$_ZSteqRKSt17_Rb_tree_iteratorISt4pairIKjN5boost10shared_ptrINSt7__cxx1119basic_ostringstreamIcSt11char_traitsIcESaIcEEEEEEESE_ = comdat any

$_ZNSt3mapIjN5boost10shared_ptrINSt7__cxx1119basic_ostringstreamIcSt11char_traitsIcESaIcEEEEESt4lessIjESaISt4pairIKjS8_EEE3endEv = comdat any

$_ZNKSt3mapIjN5boost10shared_ptrINSt7__cxx1119basic_ostringstreamIcSt11char_traitsIcESaIcEEEEESt4lessIjESaISt4pairIKjS8_EEE8key_compEv = comdat any

$_ZNKSt4lessIjEclERKjS2_ = comdat any

$_ZNKSt17_Rb_tree_iteratorISt4pairIKjN5boost10shared_ptrINSt7__cxx1119basic_ostringstreamIcSt11char_traitsIcESaIcEEEEEEEdeEv = comdat any

$_ZNSt8_Rb_treeIjSt4pairIKjN5boost10shared_ptrINSt7__cxx1119basic_ostringstreamIcSt11char_traitsIcESaIcEEEEEESt10_Select1stISB_ESt4lessIjESaISB_EE22_M_emplace_hint_uniqueIJRKSt21piecewise_construct_tSt5tupleIJRS1_EESM_IJEEEEESt17_Rb_tree_iteratorISB_ESt23_Rb_tree_const_iteratorISB_EDpOT_ = comdat any

$_ZNSt23_Rb_tree_const_iteratorISt4pairIKjN5boost10shared_ptrINSt7__cxx1119basic_ostringstreamIcSt11char_traitsIcESaIcEEEEEEEC2ERKSt17_Rb_tree_iteratorISB_E = comdat any

$_ZNSt5tupleIJRKjEEC2ILb1ELb1EEES1_ = comdat any

$_ZNSt8_Rb_treeIjSt4pairIKjN5boost10shared_ptrINSt7__cxx1119basic_ostringstreamIcSt11char_traitsIcESaIcEEEEEESt10_Select1stISB_ESt4lessIjESaISB_EE11lower_boundERS1_ = comdat any

$_ZNSt8_Rb_treeIjSt4pairIKjN5boost10shared_ptrINSt7__cxx1119basic_ostringstreamIcSt11char_traitsIcESaIcEEEEEESt10_Select1stISB_ESt4lessIjESaISB_EE14_M_lower_boundEPSt13_Rb_tree_nodeISB_EPSt18_Rb_tree_node_baseRS1_ = comdat any

$_ZNSt8_Rb_treeIjSt4pairIKjN5boost10shared_ptrINSt7__cxx1119basic_ostringstreamIcSt11char_traitsIcESaIcEEEEEESt10_Select1stISB_ESt4lessIjESaISB_EE6_M_endEv = comdat any

$_ZNSt8_Rb_treeIjSt4pairIKjN5boost10shared_ptrINSt7__cxx1119basic_ostringstreamIcSt11char_traitsIcESaIcEEEEEESt10_Select1stISB_ESt4lessIjESaISB_EE6_S_keyEPKSt13_Rb_tree_nodeISB_E = comdat any

$_ZNSt17_Rb_tree_iteratorISt4pairIKjN5boost10shared_ptrINSt7__cxx1119basic_ostringstreamIcSt11char_traitsIcESaIcEEEEEEEC2EPSt18_Rb_tree_node_base = comdat any

$_ZNKSt10_Select1stISt4pairIKjN5boost10shared_ptrINSt7__cxx1119basic_ostringstreamIcSt11char_traitsIcESaIcEEEEEEEclERKSB_ = comdat any

$_ZNKSt13_Rb_tree_nodeISt4pairIKjN5boost10shared_ptrINSt7__cxx1119basic_ostringstreamIcSt11char_traitsIcESaIcEEEEEEE9_M_valptrEv = comdat any

$_ZNK9__gnu_cxx16__aligned_membufISt4pairIKjN5boost10shared_ptrINSt7__cxx1119basic_ostringstreamIcSt11char_traitsIcESaIcEEEEEEE6_M_ptrEv = comdat any

$_ZNK9__gnu_cxx16__aligned_membufISt4pairIKjN5boost10shared_ptrINSt7__cxx1119basic_ostringstreamIcSt11char_traitsIcESaIcEEEEEEE7_M_addrEv = comdat any

$_ZNSt8_Rb_treeIjSt4pairIKjN5boost10shared_ptrINSt7__cxx1119basic_ostringstreamIcSt11char_traitsIcESaIcEEEEEESt10_Select1stISB_ESt4lessIjESaISB_EE3endEv = comdat any

$_ZNKSt8_Rb_treeIjSt4pairIKjN5boost10shared_ptrINSt7__cxx1119basic_ostringstreamIcSt11char_traitsIcESaIcEEEEEESt10_Select1stISB_ESt4lessIjESaISB_EE8key_compEv = comdat any

$_ZNSt8_Rb_treeIjSt4pairIKjN5boost10shared_ptrINSt7__cxx1119basic_ostringstreamIcSt11char_traitsIcESaIcEEEEEESt10_Select1stISB_ESt4lessIjESaISB_EE14_M_create_nodeIJRKSt21piecewise_construct_tSt5tupleIJRS1_EESM_IJEEEEEPSt13_Rb_tree_nodeISB_EDpOT_ = comdat any

$_ZSt7forwardIRKSt21piecewise_construct_tEOT_RNSt16remove_referenceIS3_E4typeE = comdat any

$_ZSt7forwardISt5tupleIJRKjEEEOT_RNSt16remove_referenceIS4_E4typeE = comdat any

$_ZSt7forwardISt5tupleIJEEEOT_RNSt16remove_referenceIS2_E4typeE = comdat any

$_ZNSt8_Rb_treeIjSt4pairIKjN5boost10shared_ptrINSt7__cxx1119basic_ostringstreamIcSt11char_traitsIcESaIcEEEEEESt10_Select1stISB_ESt4lessIjESaISB_EE29_M_get_insert_hint_unique_posESt23_Rb_tree_const_iteratorISB_ERS1_ = comdat any

$_ZNSt8_Rb_treeIjSt4pairIKjN5boost10shared_ptrINSt7__cxx1119basic_ostringstreamIcSt11char_traitsIcESaIcEEEEEESt10_Select1stISB_ESt4lessIjESaISB_EE14_M_insert_nodeEPSt18_Rb_tree_node_baseSJ_PSt13_Rb_tree_nodeISB_E = comdat any

$_ZNSt8_Rb_treeIjSt4pairIKjN5boost10shared_ptrINSt7__cxx1119basic_ostringstreamIcSt11char_traitsIcESaIcEEEEEESt10_Select1stISB_ESt4lessIjESaISB_EE11_M_get_nodeEv = comdat any

$_ZNSt8_Rb_treeIjSt4pairIKjN5boost10shared_ptrINSt7__cxx1119basic_ostringstreamIcSt11char_traitsIcESaIcEEEEEESt10_Select1stISB_ESt4lessIjESaISB_EE17_M_construct_nodeIJRKSt21piecewise_construct_tSt5tupleIJRS1_EESM_IJEEEEEvPSt13_Rb_tree_nodeISB_EDpOT_ = comdat any

$_ZNSt16allocator_traitsISaISt13_Rb_tree_nodeISt4pairIKjN5boost10shared_ptrINSt7__cxx1119basic_ostringstreamIcSt11char_traitsIcESaIcEEEEEEEEE8allocateERSE_m = comdat any

$_ZN9__gnu_cxx13new_allocatorISt13_Rb_tree_nodeISt4pairIKjN5boost10shared_ptrINSt7__cxx1119basic_ostringstreamIcSt11char_traitsIcESaIcEEEEEEEE8allocateEmPKv = comdat any

$_ZNK9__gnu_cxx13new_allocatorISt13_Rb_tree_nodeISt4pairIKjN5boost10shared_ptrINSt7__cxx1119basic_ostringstreamIcSt11char_traitsIcESaIcEEEEEEEE11_M_max_sizeEv = comdat any

$_ZNSt16allocator_traitsISaISt13_Rb_tree_nodeISt4pairIKjN5boost10shared_ptrINSt7__cxx1119basic_ostringstreamIcSt11char_traitsIcESaIcEEEEEEEEE9constructISC_JRKSt21piecewise_construct_tSt5tupleIJRS2_EESK_IJEEEEEvRSE_PT_DpOT0_ = comdat any

$_ZN9__gnu_cxx13new_allocatorISt13_Rb_tree_nodeISt4pairIKjN5boost10shared_ptrINSt7__cxx1119basic_ostringstreamIcSt11char_traitsIcESaIcEEEEEEEE9constructISD_JRKSt21piecewise_construct_tSt5tupleIJRS3_EESK_IJEEEEEvPT_DpOT0_ = comdat any

$_ZNSt5tupleIJRKjEEC2EOS2_ = comdat any

$_ZNSt4pairIKjN5boost10shared_ptrINSt7__cxx1119basic_ostringstreamIcSt11char_traitsIcESaIcEEEEEEC2IJRS0_EJEEESt21piecewise_construct_tSt5tupleIJDpT_EESE_IJDpT0_EE = comdat any

$_ZNSt11_Tuple_implILm0EJRKjEEC2EOS2_ = comdat any

$_ZSt7forwardIRKjEOT_RNSt16remove_referenceIS2_E4typeE = comdat any

$_ZNSt11_Tuple_implILm0EJRKjEE7_M_headERS2_ = comdat any

$_ZNSt10_Head_baseILm0ERKjLb0EEC2ES1_ = comdat any

$_ZNSt10_Head_baseILm0ERKjLb0EE7_M_headERS2_ = comdat any

$_ZNSt4pairIKjN5boost10shared_ptrINSt7__cxx1119basic_ostringstreamIcSt11char_traitsIcESaIcEEEEEEC2IJRS0_EJLm0EEJEJEEERSt5tupleIJDpT_EERSD_IJDpT1_EESt12_Index_tupleIJXspT0_EEESM_IJXspT2_EEE = comdat any

$_ZSt3getILm0EJRKjEERNSt13tuple_elementIXT_ESt5tupleIJDpT0_EEE4typeERS6_ = comdat any

$_ZN5boost10shared_ptrINSt7__cxx1119basic_ostringstreamIcSt11char_traitsIcESaIcEEEEC2Ev = comdat any

$_ZSt12__get_helperILm0ERKjJEERT0_RSt11_Tuple_implIXT_EJS2_DpT1_EE = comdat any

$_ZN5boost6detail12shared_countC2Ev = comdat any

$_ZNKSt23_Rb_tree_const_iteratorISt4pairIKjN5boost10shared_ptrINSt7__cxx1119basic_ostringstreamIcSt11char_traitsIcESaIcEEEEEEE13_M_const_castEv = comdat any

$_ZNKSt8_Rb_treeIjSt4pairIKjN5boost10shared_ptrINSt7__cxx1119basic_ostringstreamIcSt11char_traitsIcESaIcEEEEEESt10_Select1stISB_ESt4lessIjESaISB_EE4sizeEv = comdat any

$_ZNSt8_Rb_treeIjSt4pairIKjN5boost10shared_ptrINSt7__cxx1119basic_ostringstreamIcSt11char_traitsIcESaIcEEEEEESt10_Select1stISB_ESt4lessIjESaISB_EE6_S_keyEPKSt18_Rb_tree_node_base = comdat any

$_ZNSt8_Rb_treeIjSt4pairIKjN5boost10shared_ptrINSt7__cxx1119basic_ostringstreamIcSt11char_traitsIcESaIcEEEEEESt10_Select1stISB_ESt4lessIjESaISB_EE12_M_rightmostEv = comdat any

$_ZNSt4pairIPSt18_Rb_tree_node_baseS1_EC2IRS1_Lb1EEERKS1_OT_ = comdat any

$_ZNSt8_Rb_treeIjSt4pairIKjN5boost10shared_ptrINSt7__cxx1119basic_ostringstreamIcSt11char_traitsIcESaIcEEEEEESt10_Select1stISB_ESt4lessIjESaISB_EE24_M_get_insert_unique_posERS1_ = comdat any

$_ZNSt8_Rb_treeIjSt4pairIKjN5boost10shared_ptrINSt7__cxx1119basic_ostringstreamIcSt11char_traitsIcESaIcEEEEEESt10_Select1stISB_ESt4lessIjESaISB_EE11_M_leftmostEv = comdat any

$_ZNSt4pairIPSt18_Rb_tree_node_baseS1_EC2IRS1_S4_Lb1EEEOT_OT0_ = comdat any

$_ZNSt17_Rb_tree_iteratorISt4pairIKjN5boost10shared_ptrINSt7__cxx1119basic_ostringstreamIcSt11char_traitsIcESaIcEEEEEEEmmEv = comdat any

$_ZNSt17_Rb_tree_iteratorISt4pairIKjN5boost10shared_ptrINSt7__cxx1119basic_ostringstreamIcSt11char_traitsIcESaIcEEEEEEEppEv = comdat any

$_ZNSt4pairIPSt18_Rb_tree_node_baseS1_EC2IRS1_Lb1EEEOT_RKS1_ = comdat any

$_ZSt7forwardIRPSt18_Rb_tree_node_baseEOT_RNSt16remove_referenceIS3_E4typeE = comdat any

$_ZNSt8_Rb_treeIjSt4pairIKjN5boost10shared_ptrINSt7__cxx1119basic_ostringstreamIcSt11char_traitsIcESaIcEEEEEESt10_Select1stISB_ESt4lessIjESaISB_EE5beginEv = comdat any

$_ZNSt4pairIPSt18_Rb_tree_node_baseS1_EC2IRPSt13_Rb_tree_nodeIS_IKjN5boost10shared_ptrINSt7__cxx1119basic_ostringstreamIcSt11char_traitsIcESaIcEEEEEEERS1_Lb1EEEOT_OT0_ = comdat any

$_ZSt7forwardIRPSt13_Rb_tree_nodeISt4pairIKjN5boost10shared_ptrINSt7__cxx1119basic_ostringstreamIcSt11char_traitsIcESaIcEEEEEEEEOT_RNSt16remove_referenceISG_E4typeE = comdat any

$_ZNSt11_Tuple_implILm0EJRKjEEC2ES1_ = comdat any

$_ZN5boost6detail12shared_countC2INSt7__cxx1119basic_ostringstreamIcSt11char_traitsIcESaIcEEEEEPT_ = comdat any

$_ZN5boost6detail26sp_enable_shared_from_thisERKNS0_12shared_countEz = comdat any

$_ZN5boost6detail17sp_counted_impl_pINSt7__cxx1119basic_ostringstreamIcSt11char_traitsIcESaIcEEEEC2EPS7_ = comdat any

$_ZN5boost14checked_deleteINSt7__cxx1119basic_ostringstreamIcSt11char_traitsIcESaIcEEEEEvPT_ = comdat any

$_ZN5boost6detail15sp_counted_baseC2Ev = comdat any

$_ZN5boost6detail17sp_counted_impl_pINSt7__cxx1119basic_ostringstreamIcSt11char_traitsIcESaIcEEEED2Ev = comdat any

$_ZN5boost6detail17sp_counted_impl_pINSt7__cxx1119basic_ostringstreamIcSt11char_traitsIcESaIcEEEED0Ev = comdat any

$_ZN5boost6detail17sp_counted_impl_pINSt7__cxx1119basic_ostringstreamIcSt11char_traitsIcESaIcEEEE7disposeEv = comdat any

$_ZN5boost6detail15sp_counted_base7destroyEv = comdat any

$_ZN5boost6detail17sp_counted_impl_pINSt7__cxx1119basic_ostringstreamIcSt11char_traitsIcESaIcEEEE11get_deleterERKSt9type_info = comdat any

$_ZN5boost6detail15sp_counted_baseD2Ev = comdat any

$_ZN5boost6detail15sp_counted_baseD0Ev = comdat any

$_ZN5boost6detail12shared_countaSERKS1_ = comdat any

$_ZN5boost6detail15sp_counted_base12add_ref_copyEv = comdat any

$_ZNKSt5dequeINSt7__cxx1112basic_stringIcSt11char_traitsIcESaIcEEESaIS5_EE4backEv = comdat any

$_ZNKSt5dequeINSt7__cxx1112basic_stringIcSt11char_traitsIcESaIcEEESaIS5_EE3endEv = comdat any

$_ZNSt15_Deque_iteratorINSt7__cxx1112basic_stringIcSt11char_traitsIcESaIcEEERKS5_PS6_EmmEv = comdat any

$_ZNKSt15_Deque_iteratorINSt7__cxx1112basic_stringIcSt11char_traitsIcESaIcEEERKS5_PS6_EdeEv = comdat any

$_ZNSt15_Deque_iteratorINSt7__cxx1112basic_stringIcSt11char_traitsIcESaIcEEERKS5_PS6_EC2IS_IS5_RS5_PS5_EvEERKT_ = comdat any

$_ZNSt15_Deque_iteratorINSt7__cxx1112basic_stringIcSt11char_traitsIcESaIcEEERKS5_PS6_E11_M_set_nodeEPPS5_ = comdat any

$_ZNSt15_Deque_iteratorINSt7__cxx1112basic_stringIcSt11char_traitsIcESaIcEEERKS5_PS6_E14_S_buffer_sizeEv = comdat any

$_ZNSt5dequeINSt7__cxx1112basic_stringIcSt11char_traitsIcESaIcEEESaIS5_EE4backEv = comdat any

$_ZNSt15_Deque_iteratorINSt7__cxx1112basic_stringIcSt11char_traitsIcESaIcEEERS5_PS5_EmmEv = comdat any

$_ZNKSt15_Deque_iteratorINSt7__cxx1112basic_stringIcSt11char_traitsIcESaIcEEERS5_PS5_EdeEv = comdat any

$_ZNSt5dequeINSt7__cxx1112basic_stringIcSt11char_traitsIcESaIcEEESaIS5_EE9push_backERKS5_ = comdat any

$_ZNSt16allocator_traitsISaINSt7__cxx1112basic_stringIcSt11char_traitsIcESaIcEEEEE9constructIS5_JRKS5_EEEvRS6_PT_DpOT0_ = comdat any

$_ZNSt5dequeINSt7__cxx1112basic_stringIcSt11char_traitsIcESaIcEEESaIS5_EE16_M_push_back_auxIJRKS5_EEEvDpOT_ = comdat any

$_ZN9__gnu_cxx13new_allocatorINSt7__cxx1112basic_stringIcSt11char_traitsIcESaIcEEEE9constructIS6_JRKS6_EEEvPT_DpOT0_ = comdat any

$_ZSt7forwardIRKNSt7__cxx1112basic_stringIcSt11char_traitsIcESaIcEEEEOT_RNSt16remove_referenceIS8_E4typeE = comdat any

$_ZNSt5dequeINSt7__cxx1112basic_stringIcSt11char_traitsIcESaIcEEESaIS5_EE8pop_backEv = comdat any

$_ZNSt16allocator_traitsISaINSt7__cxx1112basic_stringIcSt11char_traitsIcESaIcEEEEE7destroyIS5_EEvRS6_PT_ = comdat any

$_ZNSt5dequeINSt7__cxx1112basic_stringIcSt11char_traitsIcESaIcEEESaIS5_EE15_M_pop_back_auxEv = comdat any

$_ZN9__gnu_cxx13new_allocatorINSt7__cxx1112basic_stringIcSt11char_traitsIcESaIcEEEE7destroyIS6_EEvPT_ = comdat any

$_ZTVN5boost6detail17sp_counted_impl_pINSt7__cxx1119basic_ostringstreamIcSt11char_traitsIcESaIcEEEEE = comdat any

$_ZTSN5boost6detail17sp_counted_impl_pINSt7__cxx1119basic_ostringstreamIcSt11char_traitsIcESaIcEEEEE = comdat any

$_ZTSN5boost6detail15sp_counted_baseE = comdat any

$_ZTIN5boost6detail15sp_counted_baseE = comdat any

$_ZTIN5boost6detail17sp_counted_impl_pINSt7__cxx1119basic_ostringstreamIcSt11char_traitsIcESaIcEEEEE = comdat any

$_ZTVN5boost6detail15sp_counted_baseE = comdat any

@_ZN12_GLOBAL__N_12_1E = internal global %"struct.boost::arg" zeroinitializer, align 1, !dbg !0
@_ZN12_GLOBAL__N_12_2E = internal global %"struct.boost::arg.0" zeroinitializer, align 1, !dbg !15
@_ZN12_GLOBAL__N_12_3E = internal global %"struct.boost::arg.2" zeroinitializer, align 1, !dbg !25
@_ZN12_GLOBAL__N_12_4E = internal global %"struct.boost::arg.4" zeroinitializer, align 1, !dbg !35
@_ZN12_GLOBAL__N_12_5E = internal global %"struct.boost::arg.6" zeroinitializer, align 1, !dbg !45
@_ZN12_GLOBAL__N_12_6E = internal global %"struct.boost::arg.8" zeroinitializer, align 1, !dbg !55
@_ZN12_GLOBAL__N_12_7E = internal global %"struct.boost::arg.10" zeroinitializer, align 1, !dbg !65
@_ZN12_GLOBAL__N_12_8E = internal global %"struct.boost::arg.12" zeroinitializer, align 1, !dbg !75
@_ZN12_GLOBAL__N_12_9E = internal global %"struct.boost::arg.14" zeroinitializer, align 1, !dbg !85
@_ZStL8__ioinit = internal global %"class.std::ios_base::Init" zeroinitializer, align 1, !dbg !95
@__dso_handle = external hidden global i8
@_ZN6dealii7deallogE = dso_local global %"class.dealii::LogStream" zeroinitializer, align 8, !dbg !122
@_ZSt4cerr = external dso_local global %"class.std::basic_ostream", align 8
@.str = private unnamed_addr constant [6 x i8] c"DEAL:\00", align 1
@_ZN6dealii12_GLOBAL__N_110write_lockE = internal global %"class.dealii::Threads::DummyThreadMutex" zeroinitializer, align 1, !dbg !2097
@.str.11 = private unnamed_addr constant [1 x i8] zeroinitializer, align 1
@_ZN6dealii12_GLOBAL__N_18log_lockE = internal global %"class.dealii::Threads::DummyThreadMutex" zeroinitializer, align 1, !dbg !2111
@_ZN6dealii9dealjobidE = external dso_local global %"class.dealii::JobIdentifier", align 8
@.str.12 = private unnamed_addr constant [2 x i8] c":\00", align 1
@.str.13 = private unnamed_addr constant [48 x i8] c"cannot create std::deque larger than max_size()\00", align 1
@_ZStL19piecewise_construct = internal constant %"struct.std::piecewise_construct_t" undef, align 1, !dbg !2113
@_ZTVN5boost6detail17sp_counted_impl_pINSt7__cxx1119basic_ostringstreamIcSt11char_traitsIcESaIcEEEEE = linkonce_odr dso_local unnamed_addr constant { [7 x i8*] } { [7 x i8*] [i8* null, i8* bitcast ({ i8*, i8*, i8* }* @_ZTIN5boost6detail17sp_counted_impl_pINSt7__cxx1119basic_ostringstreamIcSt11char_traitsIcESaIcEEEEE to i8*), i8* bitcast (void (%"class.boost::detail::sp_counted_impl_p"*)* @_ZN5boost6detail17sp_counted_impl_pINSt7__cxx1119basic_ostringstreamIcSt11char_traitsIcESaIcEEEED2Ev to i8*), i8* bitcast (void (%"class.boost::detail::sp_counted_impl_p"*)* @_ZN5boost6detail17sp_counted_impl_pINSt7__cxx1119basic_ostringstreamIcSt11char_traitsIcESaIcEEEED0Ev to i8*), i8* bitcast (void (%"class.boost::detail::sp_counted_impl_p"*)* @_ZN5boost6detail17sp_counted_impl_pINSt7__cxx1119basic_ostringstreamIcSt11char_traitsIcESaIcEEEE7disposeEv to i8*), i8* bitcast (void (%"class.boost::detail::sp_counted_base"*)* @_ZN5boost6detail15sp_counted_base7destroyEv to i8*), i8* bitcast (i8* (%"class.boost::detail::sp_counted_impl_p"*, %"class.std::type_info"*)* @_ZN5boost6detail17sp_counted_impl_pINSt7__cxx1119basic_ostringstreamIcSt11char_traitsIcESaIcEEEE11get_deleterERKSt9type_info to i8*)] }, comdat, align 8
@_ZTVN10__cxxabiv120__si_class_type_infoE = external dso_local global i8*
@_ZTSN5boost6detail17sp_counted_impl_pINSt7__cxx1119basic_ostringstreamIcSt11char_traitsIcESaIcEEEEE = linkonce_odr dso_local constant [96 x i8] c"N5boost6detail17sp_counted_impl_pINSt7__cxx1119basic_ostringstreamIcSt11char_traitsIcESaIcEEEEE\00", comdat, align 1
@_ZTVN10__cxxabiv117__class_type_infoE = external dso_local global i8*
@_ZTSN5boost6detail15sp_counted_baseE = linkonce_odr dso_local constant [33 x i8] c"N5boost6detail15sp_counted_baseE\00", comdat, align 1
@_ZTIN5boost6detail15sp_counted_baseE = linkonce_odr dso_local constant { i8*, i8* } { i8* bitcast (i8** getelementptr inbounds (i8*, i8** @_ZTVN10__cxxabiv117__class_type_infoE, i64 2) to i8*), i8* getelementptr inbounds ([33 x i8], [33 x i8]* @_ZTSN5boost6detail15sp_counted_baseE, i32 0, i32 0) }, comdat, align 8
@_ZTIN5boost6detail17sp_counted_impl_pINSt7__cxx1119basic_ostringstreamIcSt11char_traitsIcESaIcEEEEE = linkonce_odr dso_local constant { i8*, i8*, i8* } { i8* bitcast (i8** getelementptr inbounds (i8*, i8** @_ZTVN10__cxxabiv120__si_class_type_infoE, i64 2) to i8*), i8* getelementptr inbounds ([96 x i8], [96 x i8]* @_ZTSN5boost6detail17sp_counted_impl_pINSt7__cxx1119basic_ostringstreamIcSt11char_traitsIcESaIcEEEEE, i32 0, i32 0), i8* bitcast ({ i8*, i8* }* @_ZTIN5boost6detail15sp_counted_baseE to i8*) }, comdat, align 8
@_ZTVN5boost6detail15sp_counted_baseE = linkonce_odr dso_local unnamed_addr constant { [7 x i8*] } { [7 x i8*] [i8* null, i8* bitcast ({ i8*, i8* }* @_ZTIN5boost6detail15sp_counted_baseE to i8*), i8* bitcast (void (%"class.boost::detail::sp_counted_base"*)* @_ZN5boost6detail15sp_counted_baseD2Ev to i8*), i8* bitcast (void (%"class.boost::detail::sp_counted_base"*)* @_ZN5boost6detail15sp_counted_baseD0Ev to i8*), i8* bitcast (void ()* @__cxa_pure_virtual to i8*), i8* bitcast (void (%"class.boost::detail::sp_counted_base"*)* @_ZN5boost6detail15sp_counted_base7destroyEv to i8*), i8* bitcast (void ()* @__cxa_pure_virtual to i8*)] }, comdat, align 8
@llvm.global_ctors = appending global [1 x { i32, void ()*, i8* }] [{ i32, void ()*, i8* } { i32 65535, void ()* @_GLOBAL__sub_I_log.cc, i8* null }]

@_ZN6dealii9LogStreamC1Ev = dso_local unnamed_addr alias void (%"class.dealii::LogStream"*), void (%"class.dealii::LogStream"*)* @_ZN6dealii9LogStreamC2Ev
@_ZN6dealii9LogStreamD1Ev = dso_local unnamed_addr alias void (%"class.dealii::LogStream"*), void (%"class.dealii::LogStream"*)* @_ZN6dealii9LogStreamD2Ev

; Function Attrs: noinline uwtable
define internal void @__cxx_global_var_init() #0 section ".text.startup" !dbg !3679 {
entry:
  call void @_ZN5boost3argILi1EEC2Ev(%"struct.boost::arg"* @_ZN12_GLOBAL__N_12_1E), !dbg !3680
  ret void, !dbg !3680
}

; Function Attrs: noinline nounwind uwtable
define linkonce_odr dso_local void @_ZN5boost3argILi1EEC2Ev(%"struct.boost::arg"* %this) unnamed_addr #1 comdat align 2 !dbg !3681 {
entry:
  %this.addr = alloca %"struct.boost::arg"*, align 8
  store %"struct.boost::arg"* %this, %"struct.boost::arg"** %this.addr, align 8
  call void @llvm.dbg.declare(metadata %"struct.boost::arg"** %this.addr, metadata !3682, metadata !DIExpression()), !dbg !3684
  %this1 = load %"struct.boost::arg"*, %"struct.boost::arg"** %this.addr, align 8
  ret void, !dbg !3685
}

; Function Attrs: noinline uwtable
define internal void @__cxx_global_var_init.1() #0 section ".text.startup" !dbg !3686 {
entry:
  call void @_ZN5boost3argILi2EEC2Ev(%"struct.boost::arg.0"* @_ZN12_GLOBAL__N_12_2E), !dbg !3687
  ret void, !dbg !3687
}

; Function Attrs: noinline nounwind uwtable
define linkonce_odr dso_local void @_ZN5boost3argILi2EEC2Ev(%"struct.boost::arg.0"* %this) unnamed_addr #1 comdat align 2 !dbg !3688 {
entry:
  %this.addr = alloca %"struct.boost::arg.0"*, align 8
  store %"struct.boost::arg.0"* %this, %"struct.boost::arg.0"** %this.addr, align 8
  call void @llvm.dbg.declare(metadata %"struct.boost::arg.0"** %this.addr, metadata !3689, metadata !DIExpression()), !dbg !3691
  %this1 = load %"struct.boost::arg.0"*, %"struct.boost::arg.0"** %this.addr, align 8
  ret void, !dbg !3692
}

; Function Attrs: noinline uwtable
define internal void @__cxx_global_var_init.2() #0 section ".text.startup" !dbg !3693 {
entry:
  call void @_ZN5boost3argILi3EEC2Ev(%"struct.boost::arg.2"* @_ZN12_GLOBAL__N_12_3E), !dbg !3694
  ret void, !dbg !3694
}

; Function Attrs: noinline nounwind uwtable
define linkonce_odr dso_local void @_ZN5boost3argILi3EEC2Ev(%"struct.boost::arg.2"* %this) unnamed_addr #1 comdat align 2 !dbg !3695 {
entry:
  %this.addr = alloca %"struct.boost::arg.2"*, align 8
  store %"struct.boost::arg.2"* %this, %"struct.boost::arg.2"** %this.addr, align 8
  call void @llvm.dbg.declare(metadata %"struct.boost::arg.2"** %this.addr, metadata !3696, metadata !DIExpression()), !dbg !3698
  %this1 = load %"struct.boost::arg.2"*, %"struct.boost::arg.2"** %this.addr, align 8
  ret void, !dbg !3699
}

; Function Attrs: noinline uwtable
define internal void @__cxx_global_var_init.3() #0 section ".text.startup" !dbg !3700 {
entry:
  call void @_ZN5boost3argILi4EEC2Ev(%"struct.boost::arg.4"* @_ZN12_GLOBAL__N_12_4E), !dbg !3701
  ret void, !dbg !3701
}

; Function Attrs: noinline nounwind uwtable
define linkonce_odr dso_local void @_ZN5boost3argILi4EEC2Ev(%"struct.boost::arg.4"* %this) unnamed_addr #1 comdat align 2 !dbg !3702 {
entry:
  %this.addr = alloca %"struct.boost::arg.4"*, align 8
  store %"struct.boost::arg.4"* %this, %"struct.boost::arg.4"** %this.addr, align 8
  call void @llvm.dbg.declare(metadata %"struct.boost::arg.4"** %this.addr, metadata !3703, metadata !DIExpression()), !dbg !3705
  %this1 = load %"struct.boost::arg.4"*, %"struct.boost::arg.4"** %this.addr, align 8
  ret void, !dbg !3706
}

; Function Attrs: noinline uwtable
define internal void @__cxx_global_var_init.4() #0 section ".text.startup" !dbg !3707 {
entry:
  call void @_ZN5boost3argILi5EEC2Ev(%"struct.boost::arg.6"* @_ZN12_GLOBAL__N_12_5E), !dbg !3708
  ret void, !dbg !3708
}

; Function Attrs: noinline nounwind uwtable
define linkonce_odr dso_local void @_ZN5boost3argILi5EEC2Ev(%"struct.boost::arg.6"* %this) unnamed_addr #1 comdat align 2 !dbg !3709 {
entry:
  %this.addr = alloca %"struct.boost::arg.6"*, align 8
  store %"struct.boost::arg.6"* %this, %"struct.boost::arg.6"** %this.addr, align 8
  call void @llvm.dbg.declare(metadata %"struct.boost::arg.6"** %this.addr, metadata !3710, metadata !DIExpression()), !dbg !3712
  %this1 = load %"struct.boost::arg.6"*, %"struct.boost::arg.6"** %this.addr, align 8
  ret void, !dbg !3713
}

; Function Attrs: noinline uwtable
define internal void @__cxx_global_var_init.5() #0 section ".text.startup" !dbg !3714 {
entry:
  call void @_ZN5boost3argILi6EEC2Ev(%"struct.boost::arg.8"* @_ZN12_GLOBAL__N_12_6E), !dbg !3715
  ret void, !dbg !3715
}

; Function Attrs: noinline nounwind uwtable
define linkonce_odr dso_local void @_ZN5boost3argILi6EEC2Ev(%"struct.boost::arg.8"* %this) unnamed_addr #1 comdat align 2 !dbg !3716 {
entry:
  %this.addr = alloca %"struct.boost::arg.8"*, align 8
  store %"struct.boost::arg.8"* %this, %"struct.boost::arg.8"** %this.addr, align 8
  call void @llvm.dbg.declare(metadata %"struct.boost::arg.8"** %this.addr, metadata !3717, metadata !DIExpression()), !dbg !3719
  %this1 = load %"struct.boost::arg.8"*, %"struct.boost::arg.8"** %this.addr, align 8
  ret void, !dbg !3720
}

; Function Attrs: noinline uwtable
define internal void @__cxx_global_var_init.6() #0 section ".text.startup" !dbg !3721 {
entry:
  call void @_ZN5boost3argILi7EEC2Ev(%"struct.boost::arg.10"* @_ZN12_GLOBAL__N_12_7E), !dbg !3722
  ret void, !dbg !3722
}

; Function Attrs: noinline nounwind uwtable
define linkonce_odr dso_local void @_ZN5boost3argILi7EEC2Ev(%"struct.boost::arg.10"* %this) unnamed_addr #1 comdat align 2 !dbg !3723 {
entry:
  %this.addr = alloca %"struct.boost::arg.10"*, align 8
  store %"struct.boost::arg.10"* %this, %"struct.boost::arg.10"** %this.addr, align 8
  call void @llvm.dbg.declare(metadata %"struct.boost::arg.10"** %this.addr, metadata !3724, metadata !DIExpression()), !dbg !3726
  %this1 = load %"struct.boost::arg.10"*, %"struct.boost::arg.10"** %this.addr, align 8
  ret void, !dbg !3727
}

; Function Attrs: noinline uwtable
define internal void @__cxx_global_var_init.7() #0 section ".text.startup" !dbg !3728 {
entry:
  call void @_ZN5boost3argILi8EEC2Ev(%"struct.boost::arg.12"* @_ZN12_GLOBAL__N_12_8E), !dbg !3729
  ret void, !dbg !3729
}

; Function Attrs: noinline nounwind uwtable
define linkonce_odr dso_local void @_ZN5boost3argILi8EEC2Ev(%"struct.boost::arg.12"* %this) unnamed_addr #1 comdat align 2 !dbg !3730 {
entry:
  %this.addr = alloca %"struct.boost::arg.12"*, align 8
  store %"struct.boost::arg.12"* %this, %"struct.boost::arg.12"** %this.addr, align 8
  call void @llvm.dbg.declare(metadata %"struct.boost::arg.12"** %this.addr, metadata !3731, metadata !DIExpression()), !dbg !3733
  %this1 = load %"struct.boost::arg.12"*, %"struct.boost::arg.12"** %this.addr, align 8
  ret void, !dbg !3734
}

; Function Attrs: noinline uwtable
define internal void @__cxx_global_var_init.8() #0 section ".text.startup" !dbg !3735 {
entry:
  call void @_ZN5boost3argILi9EEC2Ev(%"struct.boost::arg.14"* @_ZN12_GLOBAL__N_12_9E), !dbg !3736
  ret void, !dbg !3736
}

; Function Attrs: noinline nounwind uwtable
define linkonce_odr dso_local void @_ZN5boost3argILi9EEC2Ev(%"struct.boost::arg.14"* %this) unnamed_addr #1 comdat align 2 !dbg !3737 {
entry:
  %this.addr = alloca %"struct.boost::arg.14"*, align 8
  store %"struct.boost::arg.14"* %this, %"struct.boost::arg.14"** %this.addr, align 8
  call void @llvm.dbg.declare(metadata %"struct.boost::arg.14"** %this.addr, metadata !3738, metadata !DIExpression()), !dbg !3740
  %this1 = load %"struct.boost::arg.14"*, %"struct.boost::arg.14"** %this.addr, align 8
  ret void, !dbg !3741
}

; Function Attrs: noinline uwtable
define internal void @__cxx_global_var_init.9() #0 section ".text.startup" !dbg !3742 {
entry:
  call void @_ZNSt8ios_base4InitC1Ev(%"class.std::ios_base::Init"* @_ZStL8__ioinit), !dbg !3743
  %0 = call i32 @__cxa_atexit(void (i8*)* bitcast (void (%"class.std::ios_base::Init"*)* @_ZNSt8ios_base4InitD1Ev to void (i8*)*), i8* getelementptr inbounds (%"class.std::ios_base::Init", %"class.std::ios_base::Init"* @_ZStL8__ioinit, i32 0, i32 0), i8* @__dso_handle) #4, !dbg !3743
  ret void, !dbg !3743
}

declare dso_local void @_ZNSt8ios_base4InitC1Ev(%"class.std::ios_base::Init"*) unnamed_addr #2

; Function Attrs: nounwind
declare dso_local void @_ZNSt8ios_base4InitD1Ev(%"class.std::ios_base::Init"*) unnamed_addr #3

; Function Attrs: nounwind
declare dso_local i32 @__cxa_atexit(void (i8*)*, i8*, i8*) #4

; Function Attrs: noinline uwtable
define internal void @__cxx_global_var_init.10() #0 section ".text.startup" !dbg !3744 {
entry:
  call void @_ZN6dealii9LogStreamC1Ev(%"class.dealii::LogStream"* @_ZN6dealii7deallogE), !dbg !3745
  %0 = call i32 @__cxa_atexit(void (i8*)* bitcast (void (%"class.dealii::LogStream"*)* @_ZN6dealii9LogStreamD1Ev to void (i8*)*), i8* bitcast (%"class.dealii::LogStream"* @_ZN6dealii7deallogE to i8*), i8* @__dso_handle) #4, !dbg !3745
  ret void, !dbg !3745
}

; Function Attrs: noinline uwtable
define dso_local void @_ZN6dealii9LogStreamC2Ev(%"class.dealii::LogStream"* %this) unnamed_addr #0 align 2 personality i8* bitcast (i32 (...)* @__gxx_personality_v0 to i8*) !dbg !3746 {
entry:
  %this.addr = alloca %"class.dealii::LogStream"*, align 8
  %ref.tmp = alloca %"class.std::__cxx11::basic_string", align 8
  %ref.tmp3 = alloca %"class.std::allocator.16", align 1
  %exn.slot = alloca i8*
  %ehselector.slot = alloca i32
  store %"class.dealii::LogStream"* %this, %"class.dealii::LogStream"** %this.addr, align 8
  call void @llvm.dbg.declare(metadata %"class.dealii::LogStream"** %this.addr, metadata !3747, metadata !DIExpression()), !dbg !3749
  %this1 = load %"class.dealii::LogStream"*, %"class.dealii::LogStream"** %this.addr, align 8
  %prefixes = getelementptr inbounds %"class.dealii::LogStream", %"class.dealii::LogStream"* %this1, i32 0, i32 0, !dbg !3750
  call void @_ZNSt5stackINSt7__cxx1112basic_stringIcSt11char_traitsIcESaIcEEESt5dequeIS5_SaIS5_EEEC2IS8_vEEv(%"class.std::stack"* %prefixes), !dbg !3750
  %std_out = getelementptr inbounds %"class.dealii::LogStream", %"class.dealii::LogStream"* %this1, i32 0, i32 1, !dbg !3751
  store %"class.std::basic_ostream"* @_ZSt4cerr, %"class.std::basic_ostream"** %std_out, align 8, !dbg !3751
  %file = getelementptr inbounds %"class.dealii::LogStream", %"class.dealii::LogStream"* %this1, i32 0, i32 2, !dbg !3752
  store %"class.std::basic_ostream"* null, %"class.std::basic_ostream"** %file, align 8, !dbg !3752
  %std_depth = getelementptr inbounds %"class.dealii::LogStream", %"class.dealii::LogStream"* %this1, i32 0, i32 3, !dbg !3753
  store i32 10000, i32* %std_depth, align 8, !dbg !3753
  %file_depth = getelementptr inbounds %"class.dealii::LogStream", %"class.dealii::LogStream"* %this1, i32 0, i32 4, !dbg !3754
  store i32 10000, i32* %file_depth, align 4, !dbg !3754
  %print_utime = getelementptr inbounds %"class.dealii::LogStream", %"class.dealii::LogStream"* %this1, i32 0, i32 5, !dbg !3755
  store i8 0, i8* %print_utime, align 8, !dbg !3755
  %diff_utime = getelementptr inbounds %"class.dealii::LogStream", %"class.dealii::LogStream"* %this1, i32 0, i32 6, !dbg !3756
  store i8 0, i8* %diff_utime, align 1, !dbg !3756
  %last_time = getelementptr inbounds %"class.dealii::LogStream", %"class.dealii::LogStream"* %this1, i32 0, i32 7, !dbg !3757
  store double 0.000000e+00, double* %last_time, align 8, !dbg !3757
  %double_threshold = getelementptr inbounds %"class.dealii::LogStream", %"class.dealii::LogStream"* %this1, i32 0, i32 8, !dbg !3758
  store double 0.000000e+00, double* %double_threshold, align 8, !dbg !3758
  %old_cerr = getelementptr inbounds %"class.dealii::LogStream", %"class.dealii::LogStream"* %this1, i32 0, i32 10, !dbg !3759
  store %"class.std::basic_streambuf"* null, %"class.std::basic_streambuf"** %old_cerr, align 8, !dbg !3759
  %outstreams = getelementptr inbounds %"class.dealii::LogStream", %"class.dealii::LogStream"* %this1, i32 0, i32 11, !dbg !3750
  call void @_ZNSt3mapIjN5boost10shared_ptrINSt7__cxx1119basic_ostringstreamIcSt11char_traitsIcESaIcEEEEESt4lessIjESaISt4pairIKjS8_EEEC2Ev(%"class.std::map"* %outstreams) #4, !dbg !3750
  %prefixes2 = getelementptr inbounds %"class.dealii::LogStream", %"class.dealii::LogStream"* %this1, i32 0, i32 0, !dbg !3760
  call void @_ZNSaIcEC1Ev(%"class.std::allocator.16"* %ref.tmp3) #4, !dbg !3762
  invoke void @_ZNSt7__cxx1112basic_stringIcSt11char_traitsIcESaIcEEC1EPKcRKS3_(%"class.std::__cxx11::basic_string"* %ref.tmp, i8* getelementptr inbounds ([6 x i8], [6 x i8]* @.str, i64 0, i64 0), %"class.std::allocator.16"* dereferenceable(1) %ref.tmp3)
          to label %invoke.cont unwind label %lpad, !dbg !3762

invoke.cont:                                      ; preds = %entry
  invoke void @_ZNSt5stackINSt7__cxx1112basic_stringIcSt11char_traitsIcESaIcEEESt5dequeIS5_SaIS5_EEE4pushEOS5_(%"class.std::stack"* %prefixes2, %"class.std::__cxx11::basic_string"* dereferenceable(32) %ref.tmp)
          to label %invoke.cont5 unwind label %lpad4, !dbg !3763

invoke.cont5:                                     ; preds = %invoke.cont
  call void @_ZNSt7__cxx1112basic_stringIcSt11char_traitsIcESaIcEED1Ev(%"class.std::__cxx11::basic_string"* %ref.tmp) #4, !dbg !3760
  call void @_ZNSaIcED1Ev(%"class.std::allocator.16"* %ref.tmp3) #4, !dbg !3760
  %std_out6 = getelementptr inbounds %"class.dealii::LogStream", %"class.dealii::LogStream"* %this1, i32 0, i32 1, !dbg !3764
  %0 = load %"class.std::basic_ostream"*, %"class.std::basic_ostream"** %std_out6, align 8, !dbg !3764
  %1 = bitcast %"class.std::basic_ostream"* %0 to i8**, !dbg !3765
  %vtable = load i8*, i8** %1, align 8, !dbg !3765
  %vbase.offset.ptr = getelementptr i8, i8* %vtable, i64 -24, !dbg !3765
  %2 = bitcast i8* %vbase.offset.ptr to i64*, !dbg !3765
  %vbase.offset = load i64, i64* %2, align 8, !dbg !3765
  %3 = bitcast %"class.std::basic_ostream"* %0 to i8*, !dbg !3765
  %add.ptr = getelementptr inbounds i8, i8* %3, i64 %vbase.offset, !dbg !3765
  %4 = bitcast i8* %add.ptr to %"class.std::ios_base"*, !dbg !3765
  %call = invoke i32 @_ZStorSt13_Ios_FmtflagsS_(i32 1024, i32 32)
          to label %invoke.cont8 unwind label %lpad7, !dbg !3766

invoke.cont8:                                     ; preds = %invoke.cont5
  %call10 = invoke i32 @_ZNSt8ios_base4setfESt13_Ios_Fmtflags(%"class.std::ios_base"* %4, i32 %call)
          to label %invoke.cont9 unwind label %lpad7, !dbg !3765

invoke.cont9:                                     ; preds = %invoke.cont8
  ret void, !dbg !3767

lpad:                                             ; preds = %entry
  %5 = landingpad { i8*, i32 }
          cleanup, !dbg !3768
  %6 = extractvalue { i8*, i32 } %5, 0, !dbg !3768
  store i8* %6, i8** %exn.slot, align 8, !dbg !3768
  %7 = extractvalue { i8*, i32 } %5, 1, !dbg !3768
  store i32 %7, i32* %ehselector.slot, align 4, !dbg !3768
  br label %ehcleanup, !dbg !3768

lpad4:                                            ; preds = %invoke.cont
  %8 = landingpad { i8*, i32 }
          cleanup, !dbg !3768
  %9 = extractvalue { i8*, i32 } %8, 0, !dbg !3768
  store i8* %9, i8** %exn.slot, align 8, !dbg !3768
  %10 = extractvalue { i8*, i32 } %8, 1, !dbg !3768
  store i32 %10, i32* %ehselector.slot, align 4, !dbg !3768
  call void @_ZNSt7__cxx1112basic_stringIcSt11char_traitsIcESaIcEED1Ev(%"class.std::__cxx11::basic_string"* %ref.tmp) #4, !dbg !3760
  br label %ehcleanup, !dbg !3760

ehcleanup:                                        ; preds = %lpad4, %lpad
  call void @_ZNSaIcED1Ev(%"class.std::allocator.16"* %ref.tmp3) #4, !dbg !3760
  br label %ehcleanup11, !dbg !3760

lpad7:                                            ; preds = %invoke.cont8, %invoke.cont5
  %11 = landingpad { i8*, i32 }
          cleanup, !dbg !3768
  %12 = extractvalue { i8*, i32 } %11, 0, !dbg !3768
  store i8* %12, i8** %exn.slot, align 8, !dbg !3768
  %13 = extractvalue { i8*, i32 } %11, 1, !dbg !3768
  store i32 %13, i32* %ehselector.slot, align 4, !dbg !3768
  br label %ehcleanup11, !dbg !3768

ehcleanup11:                                      ; preds = %lpad7, %ehcleanup
  call void @_ZNSt3mapIjN5boost10shared_ptrINSt7__cxx1119basic_ostringstreamIcSt11char_traitsIcESaIcEEEEESt4lessIjESaISt4pairIKjS8_EEED2Ev(%"class.std::map"* %outstreams) #4, !dbg !3768
  call void @_ZNSt5stackINSt7__cxx1112basic_stringIcSt11char_traitsIcESaIcEEESt5dequeIS5_SaIS5_EEED2Ev(%"class.std::stack"* %prefixes) #4, !dbg !3768
  br label %eh.resume, !dbg !3768

eh.resume:                                        ; preds = %ehcleanup11
  %exn = load i8*, i8** %exn.slot, align 8, !dbg !3768
  %sel = load i32, i32* %ehselector.slot, align 4, !dbg !3768
  %lpad.val = insertvalue { i8*, i32 } undef, i8* %exn, 0, !dbg !3768
  %lpad.val13 = insertvalue { i8*, i32 } %lpad.val, i32 %sel, 1, !dbg !3768
  resume { i8*, i32 } %lpad.val13, !dbg !3768
}

; Function Attrs: nounwind readnone speculatable willreturn
declare void @llvm.dbg.declare(metadata, metadata, metadata) #5

; Function Attrs: noinline uwtable
define linkonce_odr dso_local void @_ZNSt5stackINSt7__cxx1112basic_stringIcSt11char_traitsIcESaIcEEESt5dequeIS5_SaIS5_EEEC2IS8_vEEv(%"class.std::stack"* %this) unnamed_addr #0 comdat align 2 !dbg !3769 {
entry:
  %this.addr = alloca %"class.std::stack"*, align 8
  store %"class.std::stack"* %this, %"class.std::stack"** %this.addr, align 8
  call void @llvm.dbg.declare(metadata %"class.std::stack"** %this.addr, metadata !3774, metadata !DIExpression()), !dbg !3776
  %this1 = load %"class.std::stack"*, %"class.std::stack"** %this.addr, align 8
  %c = getelementptr inbounds %"class.std::stack", %"class.std::stack"* %this1, i32 0, i32 0, !dbg !3777
  %0 = bitcast %"class.std::deque"* %c to i8*, !dbg !3777
  call void @llvm.memset.p0i8.i64(i8* align 8 %0, i8 0, i64 80, i1 false), !dbg !3777
  call void @_ZNSt5dequeINSt7__cxx1112basic_stringIcSt11char_traitsIcESaIcEEESaIS5_EEC2Ev(%"class.std::deque"* %c), !dbg !3777
  ret void, !dbg !3778
}

; Function Attrs: noinline nounwind uwtable
define linkonce_odr dso_local void @_ZNSt3mapIjN5boost10shared_ptrINSt7__cxx1119basic_ostringstreamIcSt11char_traitsIcESaIcEEEEESt4lessIjESaISt4pairIKjS8_EEEC2Ev(%"class.std::map"* %this) unnamed_addr #1 comdat align 2 !dbg !3779 {
entry:
  %this.addr = alloca %"class.std::map"*, align 8
  store %"class.std::map"* %this, %"class.std::map"** %this.addr, align 8
  call void @llvm.dbg.declare(metadata %"class.std::map"** %this.addr, metadata !3780, metadata !DIExpression()), !dbg !3782
  %this1 = load %"class.std::map"*, %"class.std::map"** %this.addr, align 8
  %_M_t = getelementptr inbounds %"class.std::map", %"class.std::map"* %this1, i32 0, i32 0, !dbg !3783
  call void @_ZNSt8_Rb_treeIjSt4pairIKjN5boost10shared_ptrINSt7__cxx1119basic_ostringstreamIcSt11char_traitsIcESaIcEEEEEESt10_Select1stISB_ESt4lessIjESaISB_EEC2Ev(%"class.std::_Rb_tree"* %_M_t) #4, !dbg !3783
  ret void, !dbg !3784
}

; Function Attrs: noinline uwtable
define linkonce_odr dso_local void @_ZNSt5stackINSt7__cxx1112basic_stringIcSt11char_traitsIcESaIcEEESt5dequeIS5_SaIS5_EEE4pushEOS5_(%"class.std::stack"* %this, %"class.std::__cxx11::basic_string"* dereferenceable(32) %__x) #0 comdat align 2 !dbg !3785 {
entry:
  %this.addr = alloca %"class.std::stack"*, align 8
  %__x.addr = alloca %"class.std::__cxx11::basic_string"*, align 8
  store %"class.std::stack"* %this, %"class.std::stack"** %this.addr, align 8
  call void @llvm.dbg.declare(metadata %"class.std::stack"** %this.addr, metadata !3786, metadata !DIExpression()), !dbg !3787
  store %"class.std::__cxx11::basic_string"* %__x, %"class.std::__cxx11::basic_string"** %__x.addr, align 8
  call void @llvm.dbg.declare(metadata %"class.std::__cxx11::basic_string"** %__x.addr, metadata !3788, metadata !DIExpression()), !dbg !3789
  %this1 = load %"class.std::stack"*, %"class.std::stack"** %this.addr, align 8
  %c = getelementptr inbounds %"class.std::stack", %"class.std::stack"* %this1, i32 0, i32 0, !dbg !3790
  %0 = load %"class.std::__cxx11::basic_string"*, %"class.std::__cxx11::basic_string"** %__x.addr, align 8, !dbg !3791
  %call = call dereferenceable(32) %"class.std::__cxx11::basic_string"* @_ZSt4moveIRNSt7__cxx1112basic_stringIcSt11char_traitsIcESaIcEEEEONSt16remove_referenceIT_E4typeEOS8_(%"class.std::__cxx11::basic_string"* dereferenceable(32) %0) #4, !dbg !3792
  call void @_ZNSt5dequeINSt7__cxx1112basic_stringIcSt11char_traitsIcESaIcEEESaIS5_EE9push_backEOS5_(%"class.std::deque"* %c, %"class.std::__cxx11::basic_string"* dereferenceable(32) %call), !dbg !3793
  ret void, !dbg !3794
}

; Function Attrs: nounwind
declare dso_local void @_ZNSaIcEC1Ev(%"class.std::allocator.16"*) unnamed_addr #3

declare dso_local void @_ZNSt7__cxx1112basic_stringIcSt11char_traitsIcESaIcEEC1EPKcRKS3_(%"class.std::__cxx11::basic_string"*, i8*, %"class.std::allocator.16"* dereferenceable(1)) unnamed_addr #2

declare dso_local i32 @__gxx_personality_v0(...)

; Function Attrs: nounwind
declare dso_local void @_ZNSt7__cxx1112basic_stringIcSt11char_traitsIcESaIcEED1Ev(%"class.std::__cxx11::basic_string"*) unnamed_addr #3

; Function Attrs: nounwind
declare dso_local void @_ZNSaIcED1Ev(%"class.std::allocator.16"*) unnamed_addr #3

; Function Attrs: noinline uwtable
define linkonce_odr dso_local i32 @_ZNSt8ios_base4setfESt13_Ios_Fmtflags(%"class.std::ios_base"* %this, i32 %__fmtfl) #0 comdat align 2 !dbg !3795 {
entry:
  %this.addr = alloca %"class.std::ios_base"*, align 8
  %__fmtfl.addr = alloca i32, align 4
  %__old = alloca i32, align 4
  store %"class.std::ios_base"* %this, %"class.std::ios_base"** %this.addr, align 8
  call void @llvm.dbg.declare(metadata %"class.std::ios_base"** %this.addr, metadata !3801, metadata !DIExpression()), !dbg !3803
  store i32 %__fmtfl, i32* %__fmtfl.addr, align 4
  call void @llvm.dbg.declare(metadata i32* %__fmtfl.addr, metadata !3804, metadata !DIExpression()), !dbg !3805
  %this1 = load %"class.std::ios_base"*, %"class.std::ios_base"** %this.addr, align 8
  call void @llvm.dbg.declare(metadata i32* %__old, metadata !3806, metadata !DIExpression()), !dbg !3807
  %_M_flags = getelementptr inbounds %"class.std::ios_base", %"class.std::ios_base"* %this1, i32 0, i32 3, !dbg !3808
  %0 = load i32, i32* %_M_flags, align 8, !dbg !3808
  store i32 %0, i32* %__old, align 4, !dbg !3807
  %1 = load i32, i32* %__fmtfl.addr, align 4, !dbg !3809
  %_M_flags2 = getelementptr inbounds %"class.std::ios_base", %"class.std::ios_base"* %this1, i32 0, i32 3, !dbg !3810
  %call = call dereferenceable(4) i32* @_ZStoRRSt13_Ios_FmtflagsS_(i32* dereferenceable(4) %_M_flags2, i32 %1), !dbg !3811
  %2 = load i32, i32* %__old, align 4, !dbg !3812
  ret i32 %2, !dbg !3813
}

; Function Attrs: noinline nounwind uwtable
define linkonce_odr dso_local i32 @_ZStorSt13_Ios_FmtflagsS_(i32 %__a, i32 %__b) #1 comdat !dbg !3814 {
entry:
  %__a.addr = alloca i32, align 4
  %__b.addr = alloca i32, align 4
  store i32 %__a, i32* %__a.addr, align 4
  call void @llvm.dbg.declare(metadata i32* %__a.addr, metadata !3817, metadata !DIExpression()), !dbg !3818
  store i32 %__b, i32* %__b.addr, align 4
  call void @llvm.dbg.declare(metadata i32* %__b.addr, metadata !3819, metadata !DIExpression()), !dbg !3820
  %0 = load i32, i32* %__a.addr, align 4, !dbg !3821
  %1 = load i32, i32* %__b.addr, align 4, !dbg !3822
  %or = or i32 %0, %1, !dbg !3823
  ret i32 %or, !dbg !3824
}

; Function Attrs: noinline nounwind uwtable
define linkonce_odr dso_local void @_ZNSt3mapIjN5boost10shared_ptrINSt7__cxx1119basic_ostringstreamIcSt11char_traitsIcESaIcEEEEESt4lessIjESaISt4pairIKjS8_EEED2Ev(%"class.std::map"* %this) unnamed_addr #1 comdat align 2 !dbg !3825 {
entry:
  %this.addr = alloca %"class.std::map"*, align 8
  store %"class.std::map"* %this, %"class.std::map"** %this.addr, align 8
  call void @llvm.dbg.declare(metadata %"class.std::map"** %this.addr, metadata !3826, metadata !DIExpression()), !dbg !3827
  %this1 = load %"class.std::map"*, %"class.std::map"** %this.addr, align 8
  %_M_t = getelementptr inbounds %"class.std::map", %"class.std::map"* %this1, i32 0, i32 0, !dbg !3828
  call void @_ZNSt8_Rb_treeIjSt4pairIKjN5boost10shared_ptrINSt7__cxx1119basic_ostringstreamIcSt11char_traitsIcESaIcEEEEEESt10_Select1stISB_ESt4lessIjESaISB_EED2Ev(%"class.std::_Rb_tree"* %_M_t) #4, !dbg !3828
  ret void, !dbg !3830
}

; Function Attrs: noinline nounwind uwtable
define linkonce_odr dso_local void @_ZNSt5stackINSt7__cxx1112basic_stringIcSt11char_traitsIcESaIcEEESt5dequeIS5_SaIS5_EEED2Ev(%"class.std::stack"* %this) unnamed_addr #1 comdat align 2 !dbg !3831 {
entry:
  %this.addr = alloca %"class.std::stack"*, align 8
  store %"class.std::stack"* %this, %"class.std::stack"** %this.addr, align 8
  call void @llvm.dbg.declare(metadata %"class.std::stack"** %this.addr, metadata !3833, metadata !DIExpression()), !dbg !3834
  %this1 = load %"class.std::stack"*, %"class.std::stack"** %this.addr, align 8
  %c = getelementptr inbounds %"class.std::stack", %"class.std::stack"* %this1, i32 0, i32 0, !dbg !3835
  call void @_ZNSt5dequeINSt7__cxx1112basic_stringIcSt11char_traitsIcESaIcEEESaIS5_EED2Ev(%"class.std::deque"* %c) #4, !dbg !3835
  ret void, !dbg !3837
}

; Function Attrs: noinline nounwind uwtable
define dso_local void @_ZN6dealii9LogStreamD2Ev(%"class.dealii::LogStream"* %this) unnamed_addr #1 align 2 personality i8* bitcast (i32 (...)* @__gxx_personality_v0 to i8*) !dbg !3838 {
entry:
  %this.addr = alloca %"class.dealii::LogStream"*, align 8
  %exn.slot = alloca i8*
  %ehselector.slot = alloca i32
  store %"class.dealii::LogStream"* %this, %"class.dealii::LogStream"** %this.addr, align 8
  call void @llvm.dbg.declare(metadata %"class.dealii::LogStream"** %this.addr, metadata !3839, metadata !DIExpression()), !dbg !3840
  %this1 = load %"class.dealii::LogStream"*, %"class.dealii::LogStream"** %this.addr, align 8
  %old_cerr = getelementptr inbounds %"class.dealii::LogStream", %"class.dealii::LogStream"* %this1, i32 0, i32 10, !dbg !3841
  %0 = load %"class.std::basic_streambuf"*, %"class.std::basic_streambuf"** %old_cerr, align 8, !dbg !3841
  %tobool = icmp ne %"class.std::basic_streambuf"* %0, null, !dbg !3841
  br i1 %tobool, label %if.then, label %if.end, !dbg !3844

if.then:                                          ; preds = %entry
  %vtable = load i8*, i8** bitcast (%"class.std::basic_ostream"* @_ZSt4cerr to i8**), align 8, !dbg !3845
  %vbase.offset.ptr = getelementptr i8, i8* %vtable, i64 -24, !dbg !3845
  %1 = bitcast i8* %vbase.offset.ptr to i64*, !dbg !3845
  %vbase.offset = load i64, i64* %1, align 8, !dbg !3845
  %add.ptr = getelementptr inbounds i8, i8* bitcast (%"class.std::basic_ostream"* @_ZSt4cerr to i8*), i64 %vbase.offset, !dbg !3845
  %2 = bitcast i8* %add.ptr to %"class.std::basic_ios"*, !dbg !3845
  %old_cerr2 = getelementptr inbounds %"class.dealii::LogStream", %"class.dealii::LogStream"* %this1, i32 0, i32 10, !dbg !3846
  %3 = load %"class.std::basic_streambuf"*, %"class.std::basic_streambuf"** %old_cerr2, align 8, !dbg !3846
  %call = invoke %"class.std::basic_streambuf"* @_ZNSt9basic_iosIcSt11char_traitsIcEE5rdbufEPSt15basic_streambufIcS1_E(%"class.std::basic_ios"* %2, %"class.std::basic_streambuf"* %3)
          to label %invoke.cont unwind label %lpad, !dbg !3847

invoke.cont:                                      ; preds = %if.then
  br label %if.end, !dbg !3845

lpad:                                             ; preds = %if.then
  %4 = landingpad { i8*, i32 }
          catch i8* null, !dbg !3848
  %5 = extractvalue { i8*, i32 } %4, 0, !dbg !3848
  store i8* %5, i8** %exn.slot, align 8, !dbg !3848
  %6 = extractvalue { i8*, i32 } %4, 1, !dbg !3848
  store i32 %6, i32* %ehselector.slot, align 4, !dbg !3848
  %outstreams3 = getelementptr inbounds %"class.dealii::LogStream", %"class.dealii::LogStream"* %this1, i32 0, i32 11, !dbg !3849
  call void @_ZNSt3mapIjN5boost10shared_ptrINSt7__cxx1119basic_ostringstreamIcSt11char_traitsIcESaIcEEEEESt4lessIjESaISt4pairIKjS8_EEED2Ev(%"class.std::map"* %outstreams3) #4, !dbg !3849
  %prefixes4 = getelementptr inbounds %"class.dealii::LogStream", %"class.dealii::LogStream"* %this1, i32 0, i32 0, !dbg !3849
  call void @_ZNSt5stackINSt7__cxx1112basic_stringIcSt11char_traitsIcESaIcEEESt5dequeIS5_SaIS5_EEED2Ev(%"class.std::stack"* %prefixes4) #4, !dbg !3849
  br label %terminate.handler, !dbg !3849

if.end:                                           ; preds = %invoke.cont, %entry
  %outstreams = getelementptr inbounds %"class.dealii::LogStream", %"class.dealii::LogStream"* %this1, i32 0, i32 11, !dbg !3849
  call void @_ZNSt3mapIjN5boost10shared_ptrINSt7__cxx1119basic_ostringstreamIcSt11char_traitsIcESaIcEEEEESt4lessIjESaISt4pairIKjS8_EEED2Ev(%"class.std::map"* %outstreams) #4, !dbg !3849
  %prefixes = getelementptr inbounds %"class.dealii::LogStream", %"class.dealii::LogStream"* %this1, i32 0, i32 0, !dbg !3849
  call void @_ZNSt5stackINSt7__cxx1112basic_stringIcSt11char_traitsIcESaIcEEESt5dequeIS5_SaIS5_EEED2Ev(%"class.std::stack"* %prefixes) #4, !dbg !3849
  ret void, !dbg !3850

terminate.handler:                                ; preds = %lpad
  %exn = load i8*, i8** %exn.slot, align 8, !dbg !3849
  call void @__clang_call_terminate(i8* %exn) #13, !dbg !3849
  unreachable, !dbg !3849
}

declare dso_local %"class.std::basic_streambuf"* @_ZNSt9basic_iosIcSt11char_traitsIcEE5rdbufEPSt15basic_streambufIcS1_E(%"class.std::basic_ios"*, %"class.std::basic_streambuf"*) #2

; Function Attrs: noinline noreturn nounwind
define linkonce_odr hidden void @__clang_call_terminate(i8* %0) #6 comdat {
  %2 = call i8* @__cxa_begin_catch(i8* %0) #4
  call void @_ZSt9terminatev() #13
  unreachable
}

declare dso_local i8* @__cxa_begin_catch(i8*)

declare dso_local void @_ZSt9terminatev()

; Function Attrs: noinline uwtable
define dso_local dereferenceable(192) %"class.dealii::LogStream"* @_ZN6dealii9LogStreamlsEPFRSoS1_E(%"class.dealii::LogStream"* %this, %"class.std::basic_ostream"* (%"class.std::basic_ostream"*)* %p) #0 align 2 personality i8* bitcast (i32 (...)* @__gxx_personality_v0 to i8*) !dbg !3851 {
entry:
  %this.addr = alloca %"class.dealii::LogStream"*, align 8
  %p.addr = alloca %"class.std::basic_ostream"* (%"class.std::basic_ostream"*)*, align 8
  %p_endl = alloca %"class.std::basic_ostream"* (%"class.std::basic_ostream"*)*, align 8
  %lock = alloca %"class.dealii::Threads::DummyThreadMutex::ScopedLock", align 1
  %exn.slot = alloca i8*
  %ehselector.slot = alloca i32
  %stream = alloca %"class.std::__cxx11::basic_ostringstream"*, align 8
  %ref.tmp = alloca %"class.std::__cxx11::basic_string", align 8
  %ref.tmp18 = alloca %"class.std::__cxx11::basic_string", align 8
  %ref.tmp26 = alloca %"class.std::__cxx11::basic_string", align 8
  %ref.tmp27 = alloca %"class.std::allocator.16", align 1
  store %"class.dealii::LogStream"* %this, %"class.dealii::LogStream"** %this.addr, align 8
  call void @llvm.dbg.declare(metadata %"class.dealii::LogStream"** %this.addr, metadata !3852, metadata !DIExpression()), !dbg !3853
  store %"class.std::basic_ostream"* (%"class.std::basic_ostream"*)* %p, %"class.std::basic_ostream"* (%"class.std::basic_ostream"*)** %p.addr, align 8
  call void @llvm.dbg.declare(metadata %"class.std::basic_ostream"* (%"class.std::basic_ostream"*)** %p.addr, metadata !3854, metadata !DIExpression()), !dbg !3855
  %this1 = load %"class.dealii::LogStream"*, %"class.dealii::LogStream"** %this.addr, align 8
  call void @_ZN6dealii9LogStream5printIPFRSoS2_EEEvRKT_(%"class.dealii::LogStream"* %this1, %"class.std::basic_ostream"* (%"class.std::basic_ostream"*)** dereferenceable(8) %p.addr), !dbg !3856
  call void @llvm.dbg.declare(metadata %"class.std::basic_ostream"* (%"class.std::basic_ostream"*)** %p_endl, metadata !3857, metadata !DIExpression()), !dbg !3859
  store %"class.std::basic_ostream"* (%"class.std::basic_ostream"*)* @_ZSt4endlIcSt11char_traitsIcEERSt13basic_ostreamIT_T0_ES6_, %"class.std::basic_ostream"* (%"class.std::basic_ostream"*)** %p_endl, align 8, !dbg !3859
  %0 = load %"class.std::basic_ostream"* (%"class.std::basic_ostream"*)*, %"class.std::basic_ostream"* (%"class.std::basic_ostream"*)** %p.addr, align 8, !dbg !3860
  %cmp = icmp eq %"class.std::basic_ostream"* (%"class.std::basic_ostream"*)* %0, @_ZSt4endlIcSt11char_traitsIcEERSt13basic_ostreamIT_T0_ES6_, !dbg !3862
  br i1 %cmp, label %if.then, label %if.end33, !dbg !3863

if.then:                                          ; preds = %entry
  call void @llvm.dbg.declare(metadata %"class.dealii::Threads::DummyThreadMutex::ScopedLock"* %lock, metadata !3864, metadata !DIExpression()), !dbg !3876
  call void @_ZN6dealii7Threads16DummyThreadMutex10ScopedLockC2ERS1_(%"class.dealii::Threads::DummyThreadMutex::ScopedLock"* %lock, %"class.dealii::Threads::DummyThreadMutex"* dereferenceable(1) @_ZN6dealii12_GLOBAL__N_110write_lockE), !dbg !3876
  invoke void @_ZN6dealii9LogStream15print_line_headEv(%"class.dealii::LogStream"* %this1)
          to label %invoke.cont unwind label %lpad, !dbg !3877

invoke.cont:                                      ; preds = %if.then
  call void @llvm.dbg.declare(metadata %"class.std::__cxx11::basic_ostringstream"** %stream, metadata !3878, metadata !DIExpression()), !dbg !3879
  %call = invoke dereferenceable(376) %"class.std::__cxx11::basic_ostringstream"* @_ZN6dealii9LogStream10get_streamB5cxx11Ev(%"class.dealii::LogStream"* %this1)
          to label %invoke.cont2 unwind label %lpad, !dbg !3880

invoke.cont2:                                     ; preds = %invoke.cont
  store %"class.std::__cxx11::basic_ostringstream"* %call, %"class.std::__cxx11::basic_ostringstream"** %stream, align 8, !dbg !3879
  %prefixes = getelementptr inbounds %"class.dealii::LogStream", %"class.dealii::LogStream"* %this1, i32 0, i32 0, !dbg !3881
  %call4 = invoke i64 @_ZNKSt5stackINSt7__cxx1112basic_stringIcSt11char_traitsIcESaIcEEESt5dequeIS5_SaIS5_EEE4sizeEv(%"class.std::stack"* %prefixes)
          to label %invoke.cont3 unwind label %lpad, !dbg !3883

invoke.cont3:                                     ; preds = %invoke.cont2
  %std_depth = getelementptr inbounds %"class.dealii::LogStream", %"class.dealii::LogStream"* %this1, i32 0, i32 3, !dbg !3884
  %1 = load i32, i32* %std_depth, align 8, !dbg !3884
  %conv = zext i32 %1 to i64, !dbg !3884
  %cmp5 = icmp ule i64 %call4, %conv, !dbg !3885
  br i1 %cmp5, label %if.then6, label %if.end, !dbg !3886

if.then6:                                         ; preds = %invoke.cont3
  %std_out = getelementptr inbounds %"class.dealii::LogStream", %"class.dealii::LogStream"* %this1, i32 0, i32 1, !dbg !3887
  %2 = load %"class.std::basic_ostream"*, %"class.std::basic_ostream"** %std_out, align 8, !dbg !3887
  %3 = load %"class.std::__cxx11::basic_ostringstream"*, %"class.std::__cxx11::basic_ostringstream"** %stream, align 8, !dbg !3888
  invoke void @_ZNKSt7__cxx1119basic_ostringstreamIcSt11char_traitsIcESaIcEE3strEv(%"class.std::__cxx11::basic_string"* sret %ref.tmp, %"class.std::__cxx11::basic_ostringstream"* %3)
          to label %invoke.cont7 unwind label %lpad, !dbg !3889

invoke.cont7:                                     ; preds = %if.then6
  %call10 = invoke dereferenceable(272) %"class.std::basic_ostream"* @_ZStlsIcSt11char_traitsIcESaIcEERSt13basic_ostreamIT_T0_ES7_RKNSt7__cxx1112basic_stringIS4_S5_T1_EE(%"class.std::basic_ostream"* dereferenceable(272) %2, %"class.std::__cxx11::basic_string"* dereferenceable(32) %ref.tmp)
          to label %invoke.cont9 unwind label %lpad8, !dbg !3890

invoke.cont9:                                     ; preds = %invoke.cont7
  call void @_ZNSt7__cxx1112basic_stringIcSt11char_traitsIcESaIcEED1Ev(%"class.std::__cxx11::basic_string"* %ref.tmp) #4, !dbg !3891
  br label %if.end, !dbg !3891

lpad:                                             ; preds = %if.then16, %land.lhs.true, %if.then6, %invoke.cont2, %invoke.cont, %if.then
  %4 = landingpad { i8*, i32 }
          cleanup, !dbg !3892
  %5 = extractvalue { i8*, i32 } %4, 0, !dbg !3892
  store i8* %5, i8** %exn.slot, align 8, !dbg !3892
  %6 = extractvalue { i8*, i32 } %4, 1, !dbg !3892
  store i32 %6, i32* %ehselector.slot, align 4, !dbg !3892
  br label %ehcleanup32, !dbg !3892

lpad8:                                            ; preds = %invoke.cont7
  %7 = landingpad { i8*, i32 }
          cleanup, !dbg !3893
  %8 = extractvalue { i8*, i32 } %7, 0, !dbg !3893
  store i8* %8, i8** %exn.slot, align 8, !dbg !3893
  %9 = extractvalue { i8*, i32 } %7, 1, !dbg !3893
  store i32 %9, i32* %ehselector.slot, align 4, !dbg !3893
  call void @_ZNSt7__cxx1112basic_stringIcSt11char_traitsIcESaIcEED1Ev(%"class.std::__cxx11::basic_string"* %ref.tmp) #4, !dbg !3891
  br label %ehcleanup32, !dbg !3891

if.end:                                           ; preds = %invoke.cont9, %invoke.cont3
  %file = getelementptr inbounds %"class.dealii::LogStream", %"class.dealii::LogStream"* %this1, i32 0, i32 2, !dbg !3894
  %10 = load %"class.std::basic_ostream"*, %"class.std::basic_ostream"** %file, align 8, !dbg !3894
  %tobool = icmp ne %"class.std::basic_ostream"* %10, null, !dbg !3894
  br i1 %tobool, label %land.lhs.true, label %if.end25, !dbg !3896

land.lhs.true:                                    ; preds = %if.end
  %prefixes11 = getelementptr inbounds %"class.dealii::LogStream", %"class.dealii::LogStream"* %this1, i32 0, i32 0, !dbg !3897
  %call13 = invoke i64 @_ZNKSt5stackINSt7__cxx1112basic_stringIcSt11char_traitsIcESaIcEEESt5dequeIS5_SaIS5_EEE4sizeEv(%"class.std::stack"* %prefixes11)
          to label %invoke.cont12 unwind label %lpad, !dbg !3898

invoke.cont12:                                    ; preds = %land.lhs.true
  %file_depth = getelementptr inbounds %"class.dealii::LogStream", %"class.dealii::LogStream"* %this1, i32 0, i32 4, !dbg !3899
  %11 = load i32, i32* %file_depth, align 4, !dbg !3899
  %conv14 = zext i32 %11 to i64, !dbg !3899
  %cmp15 = icmp ule i64 %call13, %conv14, !dbg !3900
  br i1 %cmp15, label %if.then16, label %if.end25, !dbg !3901

if.then16:                                        ; preds = %invoke.cont12
  %file17 = getelementptr inbounds %"class.dealii::LogStream", %"class.dealii::LogStream"* %this1, i32 0, i32 2, !dbg !3902
  %12 = load %"class.std::basic_ostream"*, %"class.std::basic_ostream"** %file17, align 8, !dbg !3902
  %13 = load %"class.std::__cxx11::basic_ostringstream"*, %"class.std::__cxx11::basic_ostringstream"** %stream, align 8, !dbg !3903
  invoke void @_ZNKSt7__cxx1119basic_ostringstreamIcSt11char_traitsIcESaIcEE3strEv(%"class.std::__cxx11::basic_string"* sret %ref.tmp18, %"class.std::__cxx11::basic_ostringstream"* %13)
          to label %invoke.cont19 unwind label %lpad, !dbg !3904

invoke.cont19:                                    ; preds = %if.then16
  %call22 = invoke dereferenceable(272) %"class.std::basic_ostream"* @_ZStlsIcSt11char_traitsIcESaIcEERSt13basic_ostreamIT_T0_ES7_RKNSt7__cxx1112basic_stringIS4_S5_T1_EE(%"class.std::basic_ostream"* dereferenceable(272) %12, %"class.std::__cxx11::basic_string"* dereferenceable(32) %ref.tmp18)
          to label %invoke.cont21 unwind label %lpad20, !dbg !3905

invoke.cont21:                                    ; preds = %invoke.cont19
  %call24 = invoke dereferenceable(272) %"class.std::basic_ostream"* @_ZNSolsEPFRSoS_E(%"class.std::basic_ostream"* %call22, %"class.std::basic_ostream"* (%"class.std::basic_ostream"*)* @_ZSt5flushIcSt11char_traitsIcEERSt13basic_ostreamIT_T0_ES6_)
          to label %invoke.cont23 unwind label %lpad20, !dbg !3906

invoke.cont23:                                    ; preds = %invoke.cont21
  call void @_ZNSt7__cxx1112basic_stringIcSt11char_traitsIcESaIcEED1Ev(%"class.std::__cxx11::basic_string"* %ref.tmp18) #4, !dbg !3907
  br label %if.end25, !dbg !3907

lpad20:                                           ; preds = %invoke.cont21, %invoke.cont19
  %14 = landingpad { i8*, i32 }
          cleanup, !dbg !3908
  %15 = extractvalue { i8*, i32 } %14, 0, !dbg !3908
  store i8* %15, i8** %exn.slot, align 8, !dbg !3908
  %16 = extractvalue { i8*, i32 } %14, 1, !dbg !3908
  store i32 %16, i32* %ehselector.slot, align 4, !dbg !3908
  call void @_ZNSt7__cxx1112basic_stringIcSt11char_traitsIcESaIcEED1Ev(%"class.std::__cxx11::basic_string"* %ref.tmp18) #4, !dbg !3907
  br label %ehcleanup32, !dbg !3907

if.end25:                                         ; preds = %invoke.cont23, %invoke.cont12, %if.end
  %17 = load %"class.std::__cxx11::basic_ostringstream"*, %"class.std::__cxx11::basic_ostringstream"** %stream, align 8, !dbg !3909
  call void @_ZNSaIcEC1Ev(%"class.std::allocator.16"* %ref.tmp27) #4, !dbg !3910
  invoke void @_ZNSt7__cxx1112basic_stringIcSt11char_traitsIcESaIcEEC1EPKcRKS3_(%"class.std::__cxx11::basic_string"* %ref.tmp26, i8* getelementptr inbounds ([1 x i8], [1 x i8]* @.str.11, i64 0, i64 0), %"class.std::allocator.16"* dereferenceable(1) %ref.tmp27)
          to label %invoke.cont29 unwind label %lpad28, !dbg !3910

invoke.cont29:                                    ; preds = %if.end25
  invoke void @_ZNSt7__cxx1119basic_ostringstreamIcSt11char_traitsIcESaIcEE3strERKNS_12basic_stringIcS2_S3_EE(%"class.std::__cxx11::basic_ostringstream"* %17, %"class.std::__cxx11::basic_string"* dereferenceable(32) %ref.tmp26)
          to label %invoke.cont31 unwind label %lpad30, !dbg !3911

invoke.cont31:                                    ; preds = %invoke.cont29
  call void @_ZNSt7__cxx1112basic_stringIcSt11char_traitsIcESaIcEED1Ev(%"class.std::__cxx11::basic_string"* %ref.tmp26) #4, !dbg !3909
  call void @_ZNSaIcED1Ev(%"class.std::allocator.16"* %ref.tmp27) #4, !dbg !3909
  call void @_ZN6dealii7Threads16DummyThreadMutex10ScopedLockD2Ev(%"class.dealii::Threads::DummyThreadMutex::ScopedLock"* %lock) #4, !dbg !3912
  br label %if.end33, !dbg !3913

lpad28:                                           ; preds = %if.end25
  %18 = landingpad { i8*, i32 }
          cleanup, !dbg !3892
  %19 = extractvalue { i8*, i32 } %18, 0, !dbg !3892
  store i8* %19, i8** %exn.slot, align 8, !dbg !3892
  %20 = extractvalue { i8*, i32 } %18, 1, !dbg !3892
  store i32 %20, i32* %ehselector.slot, align 4, !dbg !3892
  br label %ehcleanup, !dbg !3892

lpad30:                                           ; preds = %invoke.cont29
  %21 = landingpad { i8*, i32 }
          cleanup, !dbg !3892
  %22 = extractvalue { i8*, i32 } %21, 0, !dbg !3892
  store i8* %22, i8** %exn.slot, align 8, !dbg !3892
  %23 = extractvalue { i8*, i32 } %21, 1, !dbg !3892
  store i32 %23, i32* %ehselector.slot, align 4, !dbg !3892
  call void @_ZNSt7__cxx1112basic_stringIcSt11char_traitsIcESaIcEED1Ev(%"class.std::__cxx11::basic_string"* %ref.tmp26) #4, !dbg !3909
  br label %ehcleanup, !dbg !3909

ehcleanup:                                        ; preds = %lpad30, %lpad28
  call void @_ZNSaIcED1Ev(%"class.std::allocator.16"* %ref.tmp27) #4, !dbg !3909
  br label %ehcleanup32, !dbg !3909

ehcleanup32:                                      ; preds = %ehcleanup, %lpad20, %lpad8, %lpad
  call void @_ZN6dealii7Threads16DummyThreadMutex10ScopedLockD2Ev(%"class.dealii::Threads::DummyThreadMutex::ScopedLock"* %lock) #4, !dbg !3912
  br label %eh.resume, !dbg !3912

if.end33:                                         ; preds = %invoke.cont31, %entry
  ret %"class.dealii::LogStream"* %this1, !dbg !3914

eh.resume:                                        ; preds = %ehcleanup32
  %exn = load i8*, i8** %exn.slot, align 8, !dbg !3912
  %sel = load i32, i32* %ehselector.slot, align 4, !dbg !3912
  %lpad.val = insertvalue { i8*, i32 } undef, i8* %exn, 0, !dbg !3912
  %lpad.val34 = insertvalue { i8*, i32 } %lpad.val, i32 %sel, 1, !dbg !3912
  resume { i8*, i32 } %lpad.val34, !dbg !3912
}

; Function Attrs: noinline uwtable
define linkonce_odr dso_local void @_ZN6dealii9LogStream5printIPFRSoS2_EEEvRKT_(%"class.dealii::LogStream"* %this, %"class.std::basic_ostream"* (%"class.std::basic_ostream"*)** dereferenceable(8) %t) #0 comdat align 2 !dbg !3915 {
entry:
  %this.addr = alloca %"class.dealii::LogStream"*, align 8
  %t.addr = alloca %"class.std::basic_ostream"* (%"class.std::basic_ostream"*)**, align 8
  %stream = alloca %"class.std::__cxx11::basic_ostringstream"*, align 8
  store %"class.dealii::LogStream"* %this, %"class.dealii::LogStream"** %this.addr, align 8
  call void @llvm.dbg.declare(metadata %"class.dealii::LogStream"** %this.addr, metadata !3927, metadata !DIExpression()), !dbg !3928
  store %"class.std::basic_ostream"* (%"class.std::basic_ostream"*)** %t, %"class.std::basic_ostream"* (%"class.std::basic_ostream"*)*** %t.addr, align 8
  call void @llvm.dbg.declare(metadata %"class.std::basic_ostream"* (%"class.std::basic_ostream"*)*** %t.addr, metadata !3929, metadata !DIExpression()), !dbg !3930
  %this1 = load %"class.dealii::LogStream"*, %"class.dealii::LogStream"** %this.addr, align 8
  call void @llvm.dbg.declare(metadata %"class.std::__cxx11::basic_ostringstream"** %stream, metadata !3931, metadata !DIExpression()), !dbg !3932
  %call = call dereferenceable(376) %"class.std::__cxx11::basic_ostringstream"* @_ZN6dealii9LogStream10get_streamB5cxx11Ev(%"class.dealii::LogStream"* %this1), !dbg !3933
  store %"class.std::__cxx11::basic_ostringstream"* %call, %"class.std::__cxx11::basic_ostringstream"** %stream, align 8, !dbg !3932
  %0 = load %"class.std::__cxx11::basic_ostringstream"*, %"class.std::__cxx11::basic_ostringstream"** %stream, align 8, !dbg !3934
  %1 = bitcast %"class.std::__cxx11::basic_ostringstream"* %0 to %"class.std::basic_ostream"*, !dbg !3934
  %2 = load %"class.std::basic_ostream"* (%"class.std::basic_ostream"*)**, %"class.std::basic_ostream"* (%"class.std::basic_ostream"*)*** %t.addr, align 8, !dbg !3935
  %3 = load %"class.std::basic_ostream"* (%"class.std::basic_ostream"*)*, %"class.std::basic_ostream"* (%"class.std::basic_ostream"*)** %2, align 8, !dbg !3935
  %call2 = call dereferenceable(272) %"class.std::basic_ostream"* @_ZNSolsEPFRSoS_E(%"class.std::basic_ostream"* %1, %"class.std::basic_ostream"* (%"class.std::basic_ostream"*)* %3), !dbg !3936
  ret void, !dbg !3937
}

declare dso_local dereferenceable(272) %"class.std::basic_ostream"* @_ZSt4endlIcSt11char_traitsIcEERSt13basic_ostreamIT_T0_ES6_(%"class.std::basic_ostream"* dereferenceable(272)) #2

; Function Attrs: noinline nounwind uwtable
define linkonce_odr dso_local void @_ZN6dealii7Threads16DummyThreadMutex10ScopedLockC2ERS1_(%"class.dealii::Threads::DummyThreadMutex::ScopedLock"* %this, %"class.dealii::Threads::DummyThreadMutex"* dereferenceable(1) %0) unnamed_addr #1 comdat align 2 !dbg !3938 {
entry:
  %this.addr = alloca %"class.dealii::Threads::DummyThreadMutex::ScopedLock"*, align 8
  %.addr = alloca %"class.dealii::Threads::DummyThreadMutex"*, align 8
  store %"class.dealii::Threads::DummyThreadMutex::ScopedLock"* %this, %"class.dealii::Threads::DummyThreadMutex::ScopedLock"** %this.addr, align 8
  call void @llvm.dbg.declare(metadata %"class.dealii::Threads::DummyThreadMutex::ScopedLock"** %this.addr, metadata !3939, metadata !DIExpression()), !dbg !3941
  store %"class.dealii::Threads::DummyThreadMutex"* %0, %"class.dealii::Threads::DummyThreadMutex"** %.addr, align 8
  call void @llvm.dbg.declare(metadata %"class.dealii::Threads::DummyThreadMutex"** %.addr, metadata !3942, metadata !DIExpression()), !dbg !3943
  %this1 = load %"class.dealii::Threads::DummyThreadMutex::ScopedLock"*, %"class.dealii::Threads::DummyThreadMutex::ScopedLock"** %this.addr, align 8
  ret void, !dbg !3944
}

; Function Attrs: noinline uwtable
define dso_local void @_ZN6dealii9LogStream15print_line_headEv(%"class.dealii::LogStream"* %this) #0 align 2 !dbg !3945 {
entry:
  %this.addr = alloca %"class.dealii::LogStream"*, align 8
  %utime = alloca double, align 8
  %head = alloca %"class.std::__cxx11::basic_string"*, align 8
  %thread = alloca i32, align 4
  %p = alloca i32, align 4
  %p37 = alloca i32, align 4
  store %"class.dealii::LogStream"* %this, %"class.dealii::LogStream"** %this.addr, align 8
  call void @llvm.dbg.declare(metadata %"class.dealii::LogStream"** %this.addr, metadata !3946, metadata !DIExpression()), !dbg !3947
  %this1 = load %"class.dealii::LogStream"*, %"class.dealii::LogStream"** %this.addr, align 8
  call void @llvm.dbg.declare(metadata double* %utime, metadata !3948, metadata !DIExpression()), !dbg !3949
  store double 0.000000e+00, double* %utime, align 8, !dbg !3949
  call void @llvm.dbg.declare(metadata %"class.std::__cxx11::basic_string"** %head, metadata !3950, metadata !DIExpression()), !dbg !3951
  %call = call dereferenceable(32) %"class.std::__cxx11::basic_string"* @_ZNK6dealii9LogStream10get_prefixB5cxx11Ev(%"class.dealii::LogStream"* %this1), !dbg !3952
  store %"class.std::__cxx11::basic_string"* %call, %"class.std::__cxx11::basic_string"** %head, align 8, !dbg !3951
  call void @llvm.dbg.declare(metadata i32* %thread, metadata !3953, metadata !DIExpression()), !dbg !3954
  %call2 = call i32 @_ZN6dealii7Threads14this_thread_idEv(), !dbg !3955
  store i32 %call2, i32* %thread, align 4, !dbg !3954
  %prefixes = getelementptr inbounds %"class.dealii::LogStream", %"class.dealii::LogStream"* %this1, i32 0, i32 0, !dbg !3956
  %call3 = call i64 @_ZNKSt5stackINSt7__cxx1112basic_stringIcSt11char_traitsIcESaIcEEESt5dequeIS5_SaIS5_EEE4sizeEv(%"class.std::stack"* %prefixes), !dbg !3958
  %std_depth = getelementptr inbounds %"class.dealii::LogStream", %"class.dealii::LogStream"* %this1, i32 0, i32 3, !dbg !3959
  %0 = load i32, i32* %std_depth, align 8, !dbg !3959
  %conv = zext i32 %0 to i64, !dbg !3959
  %cmp = icmp ule i64 %call3, %conv, !dbg !3960
  br i1 %cmp, label %if.then, label %if.end27, !dbg !3961

if.then:                                          ; preds = %entry
  %print_utime = getelementptr inbounds %"class.dealii::LogStream", %"class.dealii::LogStream"* %this1, i32 0, i32 5, !dbg !3962
  %1 = load i8, i8* %print_utime, align 8, !dbg !3962
  %tobool = trunc i8 %1 to i1, !dbg !3962
  br i1 %tobool, label %if.then4, label %if.end, !dbg !3965

if.then4:                                         ; preds = %if.then
  call void @llvm.dbg.declare(metadata i32* %p, metadata !3966, metadata !DIExpression()), !dbg !3968
  %std_out = getelementptr inbounds %"class.dealii::LogStream", %"class.dealii::LogStream"* %this1, i32 0, i32 1, !dbg !3969
  %2 = load %"class.std::basic_ostream"*, %"class.std::basic_ostream"** %std_out, align 8, !dbg !3969
  %3 = bitcast %"class.std::basic_ostream"* %2 to i8**, !dbg !3970
  %vtable = load i8*, i8** %3, align 8, !dbg !3970
  %vbase.offset.ptr = getelementptr i8, i8* %vtable, i64 -24, !dbg !3970
  %4 = bitcast i8* %vbase.offset.ptr to i64*, !dbg !3970
  %vbase.offset = load i64, i64* %4, align 8, !dbg !3970
  %5 = bitcast %"class.std::basic_ostream"* %2 to i8*, !dbg !3970
  %add.ptr = getelementptr inbounds i8, i8* %5, i64 %vbase.offset, !dbg !3970
  %6 = bitcast i8* %add.ptr to %"class.std::ios_base"*, !dbg !3970
  %call5 = call i64 @_ZNSt8ios_base5widthEl(%"class.std::ios_base"* %6, i64 5), !dbg !3970
  %conv6 = trunc i64 %call5 to i32, !dbg !3969
  store i32 %conv6, i32* %p, align 4, !dbg !3968
  %std_out7 = getelementptr inbounds %"class.dealii::LogStream", %"class.dealii::LogStream"* %this1, i32 0, i32 1, !dbg !3971
  %7 = load %"class.std::basic_ostream"*, %"class.std::basic_ostream"** %std_out7, align 8, !dbg !3971
  %8 = load double, double* %utime, align 8, !dbg !3972
  %call8 = call dereferenceable(272) %"class.std::basic_ostream"* @_ZNSolsEd(%"class.std::basic_ostream"* %7, double %8), !dbg !3973
  %call9 = call dereferenceable(272) %"class.std::basic_ostream"* @_ZStlsISt11char_traitsIcEERSt13basic_ostreamIcT_ES5_c(%"class.std::basic_ostream"* dereferenceable(272) %call8, i8 signext 58), !dbg !3974
  %std_out10 = getelementptr inbounds %"class.dealii::LogStream", %"class.dealii::LogStream"* %this1, i32 0, i32 1, !dbg !3975
  %9 = load %"class.std::basic_ostream"*, %"class.std::basic_ostream"** %std_out10, align 8, !dbg !3975
  %10 = bitcast %"class.std::basic_ostream"* %9 to i8**, !dbg !3976
  %vtable11 = load i8*, i8** %10, align 8, !dbg !3976
  %vbase.offset.ptr12 = getelementptr i8, i8* %vtable11, i64 -24, !dbg !3976
  %11 = bitcast i8* %vbase.offset.ptr12 to i64*, !dbg !3976
  %vbase.offset13 = load i64, i64* %11, align 8, !dbg !3976
  %12 = bitcast %"class.std::basic_ostream"* %9 to i8*, !dbg !3976
  %add.ptr14 = getelementptr inbounds i8, i8* %12, i64 %vbase.offset13, !dbg !3976
  %13 = bitcast i8* %add.ptr14 to %"class.std::ios_base"*, !dbg !3976
  %14 = load i32, i32* %p, align 4, !dbg !3977
  %conv15 = sext i32 %14 to i64, !dbg !3977
  %call16 = call i64 @_ZNSt8ios_base5widthEl(%"class.std::ios_base"* %13, i64 %conv15), !dbg !3976
  br label %if.end, !dbg !3978

if.end:                                           ; preds = %if.then4, %if.then
  %print_thread_id = getelementptr inbounds %"class.dealii::LogStream", %"class.dealii::LogStream"* %this1, i32 0, i32 9, !dbg !3979
  %15 = load i8, i8* %print_thread_id, align 8, !dbg !3979
  %tobool17 = trunc i8 %15 to i1, !dbg !3979
  br i1 %tobool17, label %if.then18, label %if.end23, !dbg !3981

if.then18:                                        ; preds = %if.end
  %std_out19 = getelementptr inbounds %"class.dealii::LogStream", %"class.dealii::LogStream"* %this1, i32 0, i32 1, !dbg !3982
  %16 = load %"class.std::basic_ostream"*, %"class.std::basic_ostream"** %std_out19, align 8, !dbg !3982
  %call20 = call dereferenceable(272) %"class.std::basic_ostream"* @_ZStlsISt11char_traitsIcEERSt13basic_ostreamIcT_ES5_c(%"class.std::basic_ostream"* dereferenceable(272) %16, i8 signext 91), !dbg !3983
  %17 = load i32, i32* %thread, align 4, !dbg !3984
  %call21 = call dereferenceable(272) %"class.std::basic_ostream"* @_ZNSolsEj(%"class.std::basic_ostream"* %call20, i32 %17), !dbg !3985
  %call22 = call dereferenceable(272) %"class.std::basic_ostream"* @_ZStlsISt11char_traitsIcEERSt13basic_ostreamIcT_ES5_c(%"class.std::basic_ostream"* dereferenceable(272) %call21, i8 signext 93), !dbg !3986
  br label %if.end23, !dbg !3987

if.end23:                                         ; preds = %if.then18, %if.end
  %std_out24 = getelementptr inbounds %"class.dealii::LogStream", %"class.dealii::LogStream"* %this1, i32 0, i32 1, !dbg !3988
  %18 = load %"class.std::basic_ostream"*, %"class.std::basic_ostream"** %std_out24, align 8, !dbg !3988
  %19 = load %"class.std::__cxx11::basic_string"*, %"class.std::__cxx11::basic_string"** %head, align 8, !dbg !3989
  %call25 = call dereferenceable(272) %"class.std::basic_ostream"* @_ZStlsIcSt11char_traitsIcESaIcEERSt13basic_ostreamIT_T0_ES7_RKNSt7__cxx1112basic_stringIS4_S5_T1_EE(%"class.std::basic_ostream"* dereferenceable(272) %18, %"class.std::__cxx11::basic_string"* dereferenceable(32) %19), !dbg !3990
  %call26 = call dereferenceable(272) %"class.std::basic_ostream"* @_ZStlsISt11char_traitsIcEERSt13basic_ostreamIcT_ES5_c(%"class.std::basic_ostream"* dereferenceable(272) %call25, i8 signext 58), !dbg !3991
  br label %if.end27, !dbg !3992

if.end27:                                         ; preds = %if.end23, %entry
  %file = getelementptr inbounds %"class.dealii::LogStream", %"class.dealii::LogStream"* %this1, i32 0, i32 2, !dbg !3993
  %20 = load %"class.std::basic_ostream"*, %"class.std::basic_ostream"** %file, align 8, !dbg !3993
  %tobool28 = icmp ne %"class.std::basic_ostream"* %20, null, !dbg !3993
  br i1 %tobool28, label %land.lhs.true, label %if.end67, !dbg !3995

land.lhs.true:                                    ; preds = %if.end27
  %prefixes29 = getelementptr inbounds %"class.dealii::LogStream", %"class.dealii::LogStream"* %this1, i32 0, i32 0, !dbg !3996
  %call30 = call i64 @_ZNKSt5stackINSt7__cxx1112basic_stringIcSt11char_traitsIcESaIcEEESt5dequeIS5_SaIS5_EEE4sizeEv(%"class.std::stack"* %prefixes29), !dbg !3997
  %file_depth = getelementptr inbounds %"class.dealii::LogStream", %"class.dealii::LogStream"* %this1, i32 0, i32 4, !dbg !3998
  %21 = load i32, i32* %file_depth, align 4, !dbg !3998
  %conv31 = zext i32 %21 to i64, !dbg !3998
  %cmp32 = icmp ule i64 %call30, %conv31, !dbg !3999
  br i1 %cmp32, label %if.then33, label %if.end67, !dbg !4000

if.then33:                                        ; preds = %land.lhs.true
  %print_utime34 = getelementptr inbounds %"class.dealii::LogStream", %"class.dealii::LogStream"* %this1, i32 0, i32 5, !dbg !4001
  %22 = load i8, i8* %print_utime34, align 8, !dbg !4001
  %tobool35 = trunc i8 %22 to i1, !dbg !4001
  br i1 %tobool35, label %if.then36, label %if.end55, !dbg !4004

if.then36:                                        ; preds = %if.then33
  call void @llvm.dbg.declare(metadata i32* %p37, metadata !4005, metadata !DIExpression()), !dbg !4007
  %file38 = getelementptr inbounds %"class.dealii::LogStream", %"class.dealii::LogStream"* %this1, i32 0, i32 2, !dbg !4008
  %23 = load %"class.std::basic_ostream"*, %"class.std::basic_ostream"** %file38, align 8, !dbg !4008
  %24 = bitcast %"class.std::basic_ostream"* %23 to i8**, !dbg !4009
  %vtable39 = load i8*, i8** %24, align 8, !dbg !4009
  %vbase.offset.ptr40 = getelementptr i8, i8* %vtable39, i64 -24, !dbg !4009
  %25 = bitcast i8* %vbase.offset.ptr40 to i64*, !dbg !4009
  %vbase.offset41 = load i64, i64* %25, align 8, !dbg !4009
  %26 = bitcast %"class.std::basic_ostream"* %23 to i8*, !dbg !4009
  %add.ptr42 = getelementptr inbounds i8, i8* %26, i64 %vbase.offset41, !dbg !4009
  %27 = bitcast i8* %add.ptr42 to %"class.std::ios_base"*, !dbg !4009
  %call43 = call i64 @_ZNSt8ios_base5widthEl(%"class.std::ios_base"* %27, i64 6), !dbg !4009
  %conv44 = trunc i64 %call43 to i32, !dbg !4008
  store i32 %conv44, i32* %p37, align 4, !dbg !4007
  %file45 = getelementptr inbounds %"class.dealii::LogStream", %"class.dealii::LogStream"* %this1, i32 0, i32 2, !dbg !4010
  %28 = load %"class.std::basic_ostream"*, %"class.std::basic_ostream"** %file45, align 8, !dbg !4010
  %29 = load double, double* %utime, align 8, !dbg !4011
  %call46 = call dereferenceable(272) %"class.std::basic_ostream"* @_ZNSolsEd(%"class.std::basic_ostream"* %28, double %29), !dbg !4012
  %call47 = call dereferenceable(272) %"class.std::basic_ostream"* @_ZStlsISt11char_traitsIcEERSt13basic_ostreamIcT_ES5_c(%"class.std::basic_ostream"* dereferenceable(272) %call46, i8 signext 58), !dbg !4013
  %file48 = getelementptr inbounds %"class.dealii::LogStream", %"class.dealii::LogStream"* %this1, i32 0, i32 2, !dbg !4014
  %30 = load %"class.std::basic_ostream"*, %"class.std::basic_ostream"** %file48, align 8, !dbg !4014
  %31 = bitcast %"class.std::basic_ostream"* %30 to i8**, !dbg !4015
  %vtable49 = load i8*, i8** %31, align 8, !dbg !4015
  %vbase.offset.ptr50 = getelementptr i8, i8* %vtable49, i64 -24, !dbg !4015
  %32 = bitcast i8* %vbase.offset.ptr50 to i64*, !dbg !4015
  %vbase.offset51 = load i64, i64* %32, align 8, !dbg !4015
  %33 = bitcast %"class.std::basic_ostream"* %30 to i8*, !dbg !4015
  %add.ptr52 = getelementptr inbounds i8, i8* %33, i64 %vbase.offset51, !dbg !4015
  %34 = bitcast i8* %add.ptr52 to %"class.std::ios_base"*, !dbg !4015
  %35 = load i32, i32* %p37, align 4, !dbg !4016
  %conv53 = sext i32 %35 to i64, !dbg !4016
  %call54 = call i64 @_ZNSt8ios_base5widthEl(%"class.std::ios_base"* %34, i64 %conv53), !dbg !4015
  br label %if.end55, !dbg !4017

if.end55:                                         ; preds = %if.then36, %if.then33
  %print_thread_id56 = getelementptr inbounds %"class.dealii::LogStream", %"class.dealii::LogStream"* %this1, i32 0, i32 9, !dbg !4018
  %36 = load i8, i8* %print_thread_id56, align 8, !dbg !4018
  %tobool57 = trunc i8 %36 to i1, !dbg !4018
  br i1 %tobool57, label %if.then58, label %if.end63, !dbg !4020

if.then58:                                        ; preds = %if.end55
  %file59 = getelementptr inbounds %"class.dealii::LogStream", %"class.dealii::LogStream"* %this1, i32 0, i32 2, !dbg !4021
  %37 = load %"class.std::basic_ostream"*, %"class.std::basic_ostream"** %file59, align 8, !dbg !4021
  %call60 = call dereferenceable(272) %"class.std::basic_ostream"* @_ZStlsISt11char_traitsIcEERSt13basic_ostreamIcT_ES5_c(%"class.std::basic_ostream"* dereferenceable(272) %37, i8 signext 91), !dbg !4022
  %38 = load i32, i32* %thread, align 4, !dbg !4023
  %call61 = call dereferenceable(272) %"class.std::basic_ostream"* @_ZNSolsEj(%"class.std::basic_ostream"* %call60, i32 %38), !dbg !4024
  %call62 = call dereferenceable(272) %"class.std::basic_ostream"* @_ZStlsISt11char_traitsIcEERSt13basic_ostreamIcT_ES5_c(%"class.std::basic_ostream"* dereferenceable(272) %call61, i8 signext 93), !dbg !4025
  br label %if.end63, !dbg !4026

if.end63:                                         ; preds = %if.then58, %if.end55
  %file64 = getelementptr inbounds %"class.dealii::LogStream", %"class.dealii::LogStream"* %this1, i32 0, i32 2, !dbg !4027
  %39 = load %"class.std::basic_ostream"*, %"class.std::basic_ostream"** %file64, align 8, !dbg !4027
  %40 = load %"class.std::__cxx11::basic_string"*, %"class.std::__cxx11::basic_string"** %head, align 8, !dbg !4028
  %call65 = call dereferenceable(272) %"class.std::basic_ostream"* @_ZStlsIcSt11char_traitsIcESaIcEERSt13basic_ostreamIT_T0_ES7_RKNSt7__cxx1112basic_stringIS4_S5_T1_EE(%"class.std::basic_ostream"* dereferenceable(272) %39, %"class.std::__cxx11::basic_string"* dereferenceable(32) %40), !dbg !4029
  %call66 = call dereferenceable(272) %"class.std::basic_ostream"* @_ZStlsISt11char_traitsIcEERSt13basic_ostreamIcT_ES5_c(%"class.std::basic_ostream"* dereferenceable(272) %call65, i8 signext 58), !dbg !4030
  br label %if.end67, !dbg !4031

if.end67:                                         ; preds = %if.end63, %land.lhs.true, %if.end27
  ret void, !dbg !4032
}

; Function Attrs: noinline uwtable
define dso_local dereferenceable(376) %"class.std::__cxx11::basic_ostringstream"* @_ZN6dealii9LogStream10get_streamB5cxx11Ev(%"class.dealii::LogStream"* %this) #0 align 2 personality i8* bitcast (i32 (...)* @__gxx_personality_v0 to i8*) !dbg !4033 {
entry:
  %this.addr = alloca %"class.dealii::LogStream"*, align 8
  %lock = alloca %"class.dealii::Threads::DummyThreadMutex::ScopedLock", align 1
  %id = alloca i32, align 4
  %exn.slot = alloca i8*
  %ehselector.slot = alloca i32
  %sptr = alloca %"class.boost::shared_ptr"*, align 8
  %ref.tmp = alloca %"class.boost::shared_ptr", align 8
  store %"class.dealii::LogStream"* %this, %"class.dealii::LogStream"** %this.addr, align 8
  call void @llvm.dbg.declare(metadata %"class.dealii::LogStream"** %this.addr, metadata !4034, metadata !DIExpression()), !dbg !4035
  %this1 = load %"class.dealii::LogStream"*, %"class.dealii::LogStream"** %this.addr, align 8
  call void @llvm.dbg.declare(metadata %"class.dealii::Threads::DummyThreadMutex::ScopedLock"* %lock, metadata !4036, metadata !DIExpression()), !dbg !4037
  call void @_ZN6dealii7Threads16DummyThreadMutex10ScopedLockC2ERS1_(%"class.dealii::Threads::DummyThreadMutex::ScopedLock"* %lock, %"class.dealii::Threads::DummyThreadMutex"* dereferenceable(1) @_ZN6dealii12_GLOBAL__N_18log_lockE), !dbg !4037
  call void @llvm.dbg.declare(metadata i32* %id, metadata !4038, metadata !DIExpression()), !dbg !4039
  %call = invoke i32 @_ZN6dealii7Threads14this_thread_idEv()
          to label %invoke.cont unwind label %lpad, !dbg !4040

invoke.cont:                                      ; preds = %entry
  store i32 %call, i32* %id, align 4, !dbg !4039
  call void @llvm.dbg.declare(metadata %"class.boost::shared_ptr"** %sptr, metadata !4041, metadata !DIExpression()), !dbg !4042
  %outstreams = getelementptr inbounds %"class.dealii::LogStream", %"class.dealii::LogStream"* %this1, i32 0, i32 11, !dbg !4043
  %call3 = invoke dereferenceable(16) %"class.boost::shared_ptr"* @_ZNSt3mapIjN5boost10shared_ptrINSt7__cxx1119basic_ostringstreamIcSt11char_traitsIcESaIcEEEEESt4lessIjESaISt4pairIKjS8_EEEixERSC_(%"class.std::map"* %outstreams, i32* dereferenceable(4) %id)
          to label %invoke.cont2 unwind label %lpad, !dbg !4043

invoke.cont2:                                     ; preds = %invoke.cont
  store %"class.boost::shared_ptr"* %call3, %"class.boost::shared_ptr"** %sptr, align 8, !dbg !4042
  %0 = load %"class.boost::shared_ptr"*, %"class.boost::shared_ptr"** %sptr, align 8, !dbg !4044
  %call5 = invoke i64 @_ZNK5boost10shared_ptrINSt7__cxx1119basic_ostringstreamIcSt11char_traitsIcESaIcEEEEcvMS7_PS6_Ev(%"class.boost::shared_ptr"* %0)
          to label %invoke.cont4 unwind label %lpad, !dbg !4044

invoke.cont4:                                     ; preds = %invoke.cont2
  %1 = icmp eq i64 %call5, -1, !dbg !4046
  br i1 %1, label %if.then, label %if.end, !dbg !4047

if.then:                                          ; preds = %invoke.cont4
  %call7 = invoke i8* @_Znwm(i64 376) #14
          to label %invoke.cont6 unwind label %lpad, !dbg !4048

invoke.cont6:                                     ; preds = %if.then
  %2 = bitcast i8* %call7 to %"class.std::__cxx11::basic_ostringstream"*, !dbg !4048
  invoke void @_ZNSt7__cxx1119basic_ostringstreamIcSt11char_traitsIcESaIcEEC1Ev(%"class.std::__cxx11::basic_ostringstream"* %2)
          to label %invoke.cont9 unwind label %lpad8, !dbg !4050

invoke.cont9:                                     ; preds = %invoke.cont6
  invoke void @_ZN5boost10shared_ptrINSt7__cxx1119basic_ostringstreamIcSt11char_traitsIcESaIcEEEEC2IS6_EEPT_(%"class.boost::shared_ptr"* %ref.tmp, %"class.std::__cxx11::basic_ostringstream"* %2)
          to label %invoke.cont10 unwind label %lpad, !dbg !4051

invoke.cont10:                                    ; preds = %invoke.cont9
  %3 = load %"class.boost::shared_ptr"*, %"class.boost::shared_ptr"** %sptr, align 8, !dbg !4052
  %call13 = invoke dereferenceable(16) %"class.boost::shared_ptr"* @_ZN5boost10shared_ptrINSt7__cxx1119basic_ostringstreamIcSt11char_traitsIcESaIcEEEEaSERKS7_(%"class.boost::shared_ptr"* %3, %"class.boost::shared_ptr"* dereferenceable(16) %ref.tmp)
          to label %invoke.cont12 unwind label %lpad11, !dbg !4053

invoke.cont12:                                    ; preds = %invoke.cont10
  call void @_ZN5boost10shared_ptrINSt7__cxx1119basic_ostringstreamIcSt11char_traitsIcESaIcEEEED2Ev(%"class.boost::shared_ptr"* %ref.tmp) #4, !dbg !4052
  %4 = load %"class.boost::shared_ptr"*, %"class.boost::shared_ptr"** %sptr, align 8, !dbg !4054
  %call15 = invoke %"class.std::__cxx11::basic_ostringstream"* @_ZNK5boost10shared_ptrINSt7__cxx1119basic_ostringstreamIcSt11char_traitsIcESaIcEEEEptEv(%"class.boost::shared_ptr"* %4)
          to label %invoke.cont14 unwind label %lpad, !dbg !4054

invoke.cont14:                                    ; preds = %invoke.cont12
  %5 = bitcast %"class.std::__cxx11::basic_ostringstream"* %call15 to i8**, !dbg !4055
  %vtable = load i8*, i8** %5, align 8, !dbg !4055
  %vbase.offset.ptr = getelementptr i8, i8* %vtable, i64 -24, !dbg !4055
  %6 = bitcast i8* %vbase.offset.ptr to i64*, !dbg !4055
  %vbase.offset = load i64, i64* %6, align 8, !dbg !4055
  %7 = bitcast %"class.std::__cxx11::basic_ostringstream"* %call15 to i8*, !dbg !4055
  %add.ptr = getelementptr inbounds i8, i8* %7, i64 %vbase.offset, !dbg !4055
  %8 = bitcast i8* %add.ptr to %"class.std::ios_base"*, !dbg !4055
  %call17 = invoke i32 @_ZStorSt13_Ios_FmtflagsS_(i32 1024, i32 32)
          to label %invoke.cont16 unwind label %lpad, !dbg !4056

invoke.cont16:                                    ; preds = %invoke.cont14
  %call19 = invoke i32 @_ZNSt8ios_base4setfESt13_Ios_Fmtflags(%"class.std::ios_base"* %8, i32 %call17)
          to label %invoke.cont18 unwind label %lpad, !dbg !4055

invoke.cont18:                                    ; preds = %invoke.cont16
  br label %if.end, !dbg !4057

lpad:                                             ; preds = %if.end, %invoke.cont16, %invoke.cont14, %invoke.cont12, %invoke.cont9, %if.then, %invoke.cont2, %invoke.cont, %entry
  %9 = landingpad { i8*, i32 }
          cleanup, !dbg !4058
  %10 = extractvalue { i8*, i32 } %9, 0, !dbg !4058
  store i8* %10, i8** %exn.slot, align 8, !dbg !4058
  %11 = extractvalue { i8*, i32 } %9, 1, !dbg !4058
  store i32 %11, i32* %ehselector.slot, align 4, !dbg !4058
  br label %ehcleanup, !dbg !4058

lpad8:                                            ; preds = %invoke.cont6
  %12 = landingpad { i8*, i32 }
          cleanup, !dbg !4059
  %13 = extractvalue { i8*, i32 } %12, 0, !dbg !4059
  store i8* %13, i8** %exn.slot, align 8, !dbg !4059
  %14 = extractvalue { i8*, i32 } %12, 1, !dbg !4059
  store i32 %14, i32* %ehselector.slot, align 4, !dbg !4059
  call void @_ZdlPv(i8* %call7) #15, !dbg !4048
  br label %ehcleanup, !dbg !4048

lpad11:                                           ; preds = %invoke.cont10
  %15 = landingpad { i8*, i32 }
          cleanup, !dbg !4059
  %16 = extractvalue { i8*, i32 } %15, 0, !dbg !4059
  store i8* %16, i8** %exn.slot, align 8, !dbg !4059
  %17 = extractvalue { i8*, i32 } %15, 1, !dbg !4059
  store i32 %17, i32* %ehselector.slot, align 4, !dbg !4059
  call void @_ZN5boost10shared_ptrINSt7__cxx1119basic_ostringstreamIcSt11char_traitsIcESaIcEEEED2Ev(%"class.boost::shared_ptr"* %ref.tmp) #4, !dbg !4052
  br label %ehcleanup, !dbg !4052

if.end:                                           ; preds = %invoke.cont18, %invoke.cont4
  %18 = load %"class.boost::shared_ptr"*, %"class.boost::shared_ptr"** %sptr, align 8, !dbg !4060
  %call21 = invoke dereferenceable(376) %"class.std::__cxx11::basic_ostringstream"* @_ZNK5boost10shared_ptrINSt7__cxx1119basic_ostringstreamIcSt11char_traitsIcESaIcEEEEdeEv(%"class.boost::shared_ptr"* %18)
          to label %invoke.cont20 unwind label %lpad, !dbg !4061

invoke.cont20:                                    ; preds = %if.end
  call void @_ZN6dealii7Threads16DummyThreadMutex10ScopedLockD2Ev(%"class.dealii::Threads::DummyThreadMutex::ScopedLock"* %lock) #4, !dbg !4058
  ret %"class.std::__cxx11::basic_ostringstream"* %call21, !dbg !4058

ehcleanup:                                        ; preds = %lpad11, %lpad8, %lpad
  call void @_ZN6dealii7Threads16DummyThreadMutex10ScopedLockD2Ev(%"class.dealii::Threads::DummyThreadMutex::ScopedLock"* %lock) #4, !dbg !4058
  br label %eh.resume, !dbg !4058

eh.resume:                                        ; preds = %ehcleanup
  %exn = load i8*, i8** %exn.slot, align 8, !dbg !4058
  %sel = load i32, i32* %ehselector.slot, align 4, !dbg !4058
  %lpad.val = insertvalue { i8*, i32 } undef, i8* %exn, 0, !dbg !4058
  %lpad.val22 = insertvalue { i8*, i32 } %lpad.val, i32 %sel, 1, !dbg !4058
  resume { i8*, i32 } %lpad.val22, !dbg !4058
}

; Function Attrs: noinline nounwind uwtable
define linkonce_odr dso_local i64 @_ZNKSt5stackINSt7__cxx1112basic_stringIcSt11char_traitsIcESaIcEEESt5dequeIS5_SaIS5_EEE4sizeEv(%"class.std::stack"* %this) #1 comdat align 2 !dbg !4062 {
entry:
  %this.addr = alloca %"class.std::stack"*, align 8
  store %"class.std::stack"* %this, %"class.std::stack"** %this.addr, align 8
  call void @llvm.dbg.declare(metadata %"class.std::stack"** %this.addr, metadata !4063, metadata !DIExpression()), !dbg !4065
  %this1 = load %"class.std::stack"*, %"class.std::stack"** %this.addr, align 8
  %c = getelementptr inbounds %"class.std::stack", %"class.std::stack"* %this1, i32 0, i32 0, !dbg !4066
  %call = call i64 @_ZNKSt5dequeINSt7__cxx1112basic_stringIcSt11char_traitsIcESaIcEEESaIS5_EE4sizeEv(%"class.std::deque"* %c) #4, !dbg !4067
  ret i64 %call, !dbg !4068
}

declare dso_local dereferenceable(272) %"class.std::basic_ostream"* @_ZStlsIcSt11char_traitsIcESaIcEERSt13basic_ostreamIT_T0_ES7_RKNSt7__cxx1112basic_stringIS4_S5_T1_EE(%"class.std::basic_ostream"* dereferenceable(272), %"class.std::__cxx11::basic_string"* dereferenceable(32)) #2

declare dso_local void @_ZNKSt7__cxx1119basic_ostringstreamIcSt11char_traitsIcESaIcEE3strEv(%"class.std::__cxx11::basic_string"* sret, %"class.std::__cxx11::basic_ostringstream"*) #2

declare dso_local dereferenceable(272) %"class.std::basic_ostream"* @_ZNSolsEPFRSoS_E(%"class.std::basic_ostream"*, %"class.std::basic_ostream"* (%"class.std::basic_ostream"*)*) #2

declare dso_local dereferenceable(272) %"class.std::basic_ostream"* @_ZSt5flushIcSt11char_traitsIcEERSt13basic_ostreamIT_T0_ES6_(%"class.std::basic_ostream"* dereferenceable(272)) #2

declare dso_local void @_ZNSt7__cxx1119basic_ostringstreamIcSt11char_traitsIcESaIcEE3strERKNS_12basic_stringIcS2_S3_EE(%"class.std::__cxx11::basic_ostringstream"*, %"class.std::__cxx11::basic_string"* dereferenceable(32)) #2

; Function Attrs: noinline nounwind uwtable
define linkonce_odr dso_local void @_ZN6dealii7Threads16DummyThreadMutex10ScopedLockD2Ev(%"class.dealii::Threads::DummyThreadMutex::ScopedLock"* %this) unnamed_addr #1 comdat align 2 !dbg !4069 {
entry:
  %this.addr = alloca %"class.dealii::Threads::DummyThreadMutex::ScopedLock"*, align 8
  store %"class.dealii::Threads::DummyThreadMutex::ScopedLock"* %this, %"class.dealii::Threads::DummyThreadMutex::ScopedLock"** %this.addr, align 8
  call void @llvm.dbg.declare(metadata %"class.dealii::Threads::DummyThreadMutex::ScopedLock"** %this.addr, metadata !4070, metadata !DIExpression()), !dbg !4071
  %this1 = load %"class.dealii::Threads::DummyThreadMutex::ScopedLock"*, %"class.dealii::Threads::DummyThreadMutex::ScopedLock"** %this.addr, align 8
  ret void, !dbg !4072
}

declare dso_local i32 @_ZN6dealii7Threads14this_thread_idEv() #2

; Function Attrs: noinline uwtable
define linkonce_odr dso_local dereferenceable(16) %"class.boost::shared_ptr"* @_ZNSt3mapIjN5boost10shared_ptrINSt7__cxx1119basic_ostringstreamIcSt11char_traitsIcESaIcEEEEESt4lessIjESaISt4pairIKjS8_EEEixERSC_(%"class.std::map"* %this, i32* dereferenceable(4) %__k) #0 comdat align 2 !dbg !4073 {
entry:
  %this.addr = alloca %"class.std::map"*, align 8
  %__k.addr = alloca i32*, align 8
  %__i = alloca %"struct.std::_Rb_tree_iterator", align 8
  %ref.tmp = alloca %"struct.std::_Rb_tree_iterator", align 8
  %ref.tmp5 = alloca %"struct.std::less", align 1
  %undef.agg.tmp = alloca %"struct.std::less", align 1
  %ref.tmp8 = alloca %"struct.std::_Rb_tree_iterator", align 8
  %agg.tmp = alloca %"struct.std::_Rb_tree_const_iterator", align 8
  %ref.tmp9 = alloca %"class.std::tuple", align 8
  %ref.tmp10 = alloca %"class.std::tuple.25", align 1
  store %"class.std::map"* %this, %"class.std::map"** %this.addr, align 8
  call void @llvm.dbg.declare(metadata %"class.std::map"** %this.addr, metadata !4074, metadata !DIExpression()), !dbg !4075
  store i32* %__k, i32** %__k.addr, align 8
  call void @llvm.dbg.declare(metadata i32** %__k.addr, metadata !4076, metadata !DIExpression()), !dbg !4077
  %this1 = load %"class.std::map"*, %"class.std::map"** %this.addr, align 8
  call void @llvm.dbg.declare(metadata %"struct.std::_Rb_tree_iterator"* %__i, metadata !4078, metadata !DIExpression()), !dbg !4079
  %0 = load i32*, i32** %__k.addr, align 8, !dbg !4080
  %call = call %"struct.std::_Rb_tree_node_base"* @_ZNSt3mapIjN5boost10shared_ptrINSt7__cxx1119basic_ostringstreamIcSt11char_traitsIcESaIcEEEEESt4lessIjESaISt4pairIKjS8_EEE11lower_boundERSC_(%"class.std::map"* %this1, i32* dereferenceable(4) %0), !dbg !4081
  %coerce.dive = getelementptr inbounds %"struct.std::_Rb_tree_iterator", %"struct.std::_Rb_tree_iterator"* %__i, i32 0, i32 0, !dbg !4081
  store %"struct.std::_Rb_tree_node_base"* %call, %"struct.std::_Rb_tree_node_base"** %coerce.dive, align 8, !dbg !4081
  %call2 = call %"struct.std::_Rb_tree_node_base"* @_ZNSt3mapIjN5boost10shared_ptrINSt7__cxx1119basic_ostringstreamIcSt11char_traitsIcESaIcEEEEESt4lessIjESaISt4pairIKjS8_EEE3endEv(%"class.std::map"* %this1) #4, !dbg !4082
  %coerce.dive3 = getelementptr inbounds %"struct.std::_Rb_tree_iterator", %"struct.std::_Rb_tree_iterator"* %ref.tmp, i32 0, i32 0, !dbg !4082
  store %"struct.std::_Rb_tree_node_base"* %call2, %"struct.std::_Rb_tree_node_base"** %coerce.dive3, align 8, !dbg !4082
  %call4 = call zeroext i1 @_ZSteqRKSt17_Rb_tree_iteratorISt4pairIKjN5boost10shared_ptrINSt7__cxx1119basic_ostringstreamIcSt11char_traitsIcESaIcEEEEEEESE_(%"struct.std::_Rb_tree_iterator"* dereferenceable(8) %__i, %"struct.std::_Rb_tree_iterator"* dereferenceable(8) %ref.tmp) #4, !dbg !4084
  br i1 %call4, label %lor.end, label %lor.rhs, !dbg !4085

lor.rhs:                                          ; preds = %entry
  call void @_ZNKSt3mapIjN5boost10shared_ptrINSt7__cxx1119basic_ostringstreamIcSt11char_traitsIcESaIcEEEEESt4lessIjESaISt4pairIKjS8_EEE8key_compEv(%"class.std::map"* %this1), !dbg !4086
  %1 = load i32*, i32** %__k.addr, align 8, !dbg !4087
  %call6 = call dereferenceable(24) %"struct.std::pair"* @_ZNKSt17_Rb_tree_iteratorISt4pairIKjN5boost10shared_ptrINSt7__cxx1119basic_ostringstreamIcSt11char_traitsIcESaIcEEEEEEEdeEv(%"struct.std::_Rb_tree_iterator"* %__i) #4, !dbg !4088
  %first = getelementptr inbounds %"struct.std::pair", %"struct.std::pair"* %call6, i32 0, i32 0, !dbg !4089
  %call7 = call zeroext i1 @_ZNKSt4lessIjEclERKjS2_(%"struct.std::less"* %ref.tmp5, i32* dereferenceable(4) %1, i32* dereferenceable(4) %first), !dbg !4086
  br label %lor.end, !dbg !4085

lor.end:                                          ; preds = %lor.rhs, %entry
  %2 = phi i1 [ true, %entry ], [ %call7, %lor.rhs ]
  br i1 %2, label %if.then, label %if.end, !dbg !4090

if.then:                                          ; preds = %lor.end
  %_M_t = getelementptr inbounds %"class.std::map", %"class.std::map"* %this1, i32 0, i32 0, !dbg !4091
  call void @_ZNSt23_Rb_tree_const_iteratorISt4pairIKjN5boost10shared_ptrINSt7__cxx1119basic_ostringstreamIcSt11char_traitsIcESaIcEEEEEEEC2ERKSt17_Rb_tree_iteratorISB_E(%"struct.std::_Rb_tree_const_iterator"* %agg.tmp, %"struct.std::_Rb_tree_iterator"* dereferenceable(8) %__i) #4, !dbg !4092
  %3 = load i32*, i32** %__k.addr, align 8, !dbg !4093
  call void @_ZNSt5tupleIJRKjEEC2ILb1ELb1EEES1_(%"class.std::tuple"* %ref.tmp9, i32* dereferenceable(4) %3) #4, !dbg !4094
  %coerce.dive11 = getelementptr inbounds %"struct.std::_Rb_tree_const_iterator", %"struct.std::_Rb_tree_const_iterator"* %agg.tmp, i32 0, i32 0, !dbg !4095
  %4 = load %"struct.std::_Rb_tree_node_base"*, %"struct.std::_Rb_tree_node_base"** %coerce.dive11, align 8, !dbg !4095
  %call12 = call %"struct.std::_Rb_tree_node_base"* @_ZNSt8_Rb_treeIjSt4pairIKjN5boost10shared_ptrINSt7__cxx1119basic_ostringstreamIcSt11char_traitsIcESaIcEEEEEESt10_Select1stISB_ESt4lessIjESaISB_EE22_M_emplace_hint_uniqueIJRKSt21piecewise_construct_tSt5tupleIJRS1_EESM_IJEEEEESt17_Rb_tree_iteratorISB_ESt23_Rb_tree_const_iteratorISB_EDpOT_(%"class.std::_Rb_tree"* %_M_t, %"struct.std::_Rb_tree_node_base"* %4, %"struct.std::piecewise_construct_t"* dereferenceable(1) @_ZStL19piecewise_construct, %"class.std::tuple"* dereferenceable(8) %ref.tmp9, %"class.std::tuple.25"* dereferenceable(1) %ref.tmp10), !dbg !4095
  %coerce.dive13 = getelementptr inbounds %"struct.std::_Rb_tree_iterator", %"struct.std::_Rb_tree_iterator"* %ref.tmp8, i32 0, i32 0, !dbg !4095
  store %"struct.std::_Rb_tree_node_base"* %call12, %"struct.std::_Rb_tree_node_base"** %coerce.dive13, align 8, !dbg !4095
  %5 = bitcast %"struct.std::_Rb_tree_iterator"* %__i to i8*, !dbg !4096
  %6 = bitcast %"struct.std::_Rb_tree_iterator"* %ref.tmp8 to i8*, !dbg !4096
  call void @llvm.memcpy.p0i8.p0i8.i64(i8* align 8 %5, i8* align 8 %6, i64 8, i1 false), !dbg !4096
  br label %if.end, !dbg !4097

if.end:                                           ; preds = %if.then, %lor.end
  %call14 = call dereferenceable(24) %"struct.std::pair"* @_ZNKSt17_Rb_tree_iteratorISt4pairIKjN5boost10shared_ptrINSt7__cxx1119basic_ostringstreamIcSt11char_traitsIcESaIcEEEEEEEdeEv(%"struct.std::_Rb_tree_iterator"* %__i) #4, !dbg !4098
  %second = getelementptr inbounds %"struct.std::pair", %"struct.std::pair"* %call14, i32 0, i32 1, !dbg !4099
  ret %"class.boost::shared_ptr"* %second, !dbg !4100
}

; Function Attrs: noinline nounwind uwtable
define linkonce_odr dso_local i64 @_ZNK5boost10shared_ptrINSt7__cxx1119basic_ostringstreamIcSt11char_traitsIcESaIcEEEEcvMS7_PS6_Ev(%"class.boost::shared_ptr"* %this) #1 comdat align 2 !dbg !4101 {
entry:
  %this.addr = alloca %"class.boost::shared_ptr"*, align 8
  store %"class.boost::shared_ptr"* %this, %"class.boost::shared_ptr"** %this.addr, align 8
  call void @llvm.dbg.declare(metadata %"class.boost::shared_ptr"** %this.addr, metadata !4102, metadata !DIExpression()), !dbg !4104
  %this1 = load %"class.boost::shared_ptr"*, %"class.boost::shared_ptr"** %this.addr, align 8
  %px = getelementptr inbounds %"class.boost::shared_ptr", %"class.boost::shared_ptr"* %this1, i32 0, i32 0, !dbg !4105
  %0 = load %"class.std::__cxx11::basic_ostringstream"*, %"class.std::__cxx11::basic_ostringstream"** %px, align 8, !dbg !4105
  %cmp = icmp eq %"class.std::__cxx11::basic_ostringstream"* %0, null, !dbg !4106
  %1 = zext i1 %cmp to i64, !dbg !4105
  %cond = select i1 %cmp, i64 -1, i64 0, !dbg !4105
  ret i64 %cond, !dbg !4107
}

; Function Attrs: nobuiltin
declare dso_local noalias i8* @_Znwm(i64) #7

declare dso_local void @_ZNSt7__cxx1119basic_ostringstreamIcSt11char_traitsIcESaIcEEC1Ev(%"class.std::__cxx11::basic_ostringstream"*) unnamed_addr #2

; Function Attrs: nobuiltin nounwind
declare dso_local void @_ZdlPv(i8*) #8

; Function Attrs: noinline uwtable
define linkonce_odr dso_local void @_ZN5boost10shared_ptrINSt7__cxx1119basic_ostringstreamIcSt11char_traitsIcESaIcEEEEC2IS6_EEPT_(%"class.boost::shared_ptr"* %this, %"class.std::__cxx11::basic_ostringstream"* %p) unnamed_addr #0 comdat align 2 personality i8* bitcast (i32 (...)* @__gxx_personality_v0 to i8*) !dbg !4108 {
entry:
  %this.addr = alloca %"class.boost::shared_ptr"*, align 8
  %p.addr = alloca %"class.std::__cxx11::basic_ostringstream"*, align 8
  %exn.slot = alloca i8*
  %ehselector.slot = alloca i32
  store %"class.boost::shared_ptr"* %this, %"class.boost::shared_ptr"** %this.addr, align 8
  call void @llvm.dbg.declare(metadata %"class.boost::shared_ptr"** %this.addr, metadata !4114, metadata !DIExpression()), !dbg !4116
  store %"class.std::__cxx11::basic_ostringstream"* %p, %"class.std::__cxx11::basic_ostringstream"** %p.addr, align 8
  call void @llvm.dbg.declare(metadata %"class.std::__cxx11::basic_ostringstream"** %p.addr, metadata !4117, metadata !DIExpression()), !dbg !4118
  %this1 = load %"class.boost::shared_ptr"*, %"class.boost::shared_ptr"** %this.addr, align 8
  %px = getelementptr inbounds %"class.boost::shared_ptr", %"class.boost::shared_ptr"* %this1, i32 0, i32 0, !dbg !4119
  %0 = load %"class.std::__cxx11::basic_ostringstream"*, %"class.std::__cxx11::basic_ostringstream"** %p.addr, align 8, !dbg !4120
  store %"class.std::__cxx11::basic_ostringstream"* %0, %"class.std::__cxx11::basic_ostringstream"** %px, align 8, !dbg !4119
  %pn = getelementptr inbounds %"class.boost::shared_ptr", %"class.boost::shared_ptr"* %this1, i32 0, i32 1, !dbg !4121
  %1 = load %"class.std::__cxx11::basic_ostringstream"*, %"class.std::__cxx11::basic_ostringstream"** %p.addr, align 8, !dbg !4122
  call void @_ZN5boost6detail12shared_countC2INSt7__cxx1119basic_ostringstreamIcSt11char_traitsIcESaIcEEEEEPT_(%"class.boost::detail::shared_count"* %pn, %"class.std::__cxx11::basic_ostringstream"* %1), !dbg !4121
  %pn2 = getelementptr inbounds %"class.boost::shared_ptr", %"class.boost::shared_ptr"* %this1, i32 0, i32 1, !dbg !4123
  %2 = load %"class.std::__cxx11::basic_ostringstream"*, %"class.std::__cxx11::basic_ostringstream"** %p.addr, align 8, !dbg !4125
  %3 = load %"class.std::__cxx11::basic_ostringstream"*, %"class.std::__cxx11::basic_ostringstream"** %p.addr, align 8, !dbg !4126
  invoke void (%"class.boost::detail::shared_count"*, ...) @_ZN5boost6detail26sp_enable_shared_from_thisERKNS0_12shared_countEz(%"class.boost::detail::shared_count"* dereferenceable(8) %pn2, %"class.std::__cxx11::basic_ostringstream"* %2, %"class.std::__cxx11::basic_ostringstream"* %3)
          to label %invoke.cont unwind label %lpad, !dbg !4127

invoke.cont:                                      ; preds = %entry
  ret void, !dbg !4128

lpad:                                             ; preds = %entry
  %4 = landingpad { i8*, i32 }
          cleanup, !dbg !4129
  %5 = extractvalue { i8*, i32 } %4, 0, !dbg !4129
  store i8* %5, i8** %exn.slot, align 8, !dbg !4129
  %6 = extractvalue { i8*, i32 } %4, 1, !dbg !4129
  store i32 %6, i32* %ehselector.slot, align 4, !dbg !4129
  call void @_ZN5boost6detail12shared_countD2Ev(%"class.boost::detail::shared_count"* %pn) #4, !dbg !4129
  br label %eh.resume, !dbg !4129

eh.resume:                                        ; preds = %lpad
  %exn = load i8*, i8** %exn.slot, align 8, !dbg !4129
  %sel = load i32, i32* %ehselector.slot, align 4, !dbg !4129
  %lpad.val = insertvalue { i8*, i32 } undef, i8* %exn, 0, !dbg !4129
  %lpad.val3 = insertvalue { i8*, i32 } %lpad.val, i32 %sel, 1, !dbg !4129
  resume { i8*, i32 } %lpad.val3, !dbg !4129
}

; Function Attrs: noinline uwtable
define linkonce_odr dso_local dereferenceable(16) %"class.boost::shared_ptr"* @_ZN5boost10shared_ptrINSt7__cxx1119basic_ostringstreamIcSt11char_traitsIcESaIcEEEEaSERKS7_(%"class.boost::shared_ptr"* %this, %"class.boost::shared_ptr"* dereferenceable(16) %r) #0 comdat align 2 !dbg !4130 {
entry:
  %this.addr = alloca %"class.boost::shared_ptr"*, align 8
  %r.addr = alloca %"class.boost::shared_ptr"*, align 8
  store %"class.boost::shared_ptr"* %this, %"class.boost::shared_ptr"** %this.addr, align 8
  call void @llvm.dbg.declare(metadata %"class.boost::shared_ptr"** %this.addr, metadata !4131, metadata !DIExpression()), !dbg !4132
  store %"class.boost::shared_ptr"* %r, %"class.boost::shared_ptr"** %r.addr, align 8
  call void @llvm.dbg.declare(metadata %"class.boost::shared_ptr"** %r.addr, metadata !4133, metadata !DIExpression()), !dbg !4134
  %this1 = load %"class.boost::shared_ptr"*, %"class.boost::shared_ptr"** %this.addr, align 8
  %0 = load %"class.boost::shared_ptr"*, %"class.boost::shared_ptr"** %r.addr, align 8, !dbg !4135
  %px = getelementptr inbounds %"class.boost::shared_ptr", %"class.boost::shared_ptr"* %0, i32 0, i32 0, !dbg !4136
  %1 = load %"class.std::__cxx11::basic_ostringstream"*, %"class.std::__cxx11::basic_ostringstream"** %px, align 8, !dbg !4136
  %px2 = getelementptr inbounds %"class.boost::shared_ptr", %"class.boost::shared_ptr"* %this1, i32 0, i32 0, !dbg !4137
  store %"class.std::__cxx11::basic_ostringstream"* %1, %"class.std::__cxx11::basic_ostringstream"** %px2, align 8, !dbg !4138
  %2 = load %"class.boost::shared_ptr"*, %"class.boost::shared_ptr"** %r.addr, align 8, !dbg !4139
  %pn = getelementptr inbounds %"class.boost::shared_ptr", %"class.boost::shared_ptr"* %2, i32 0, i32 1, !dbg !4140
  %pn3 = getelementptr inbounds %"class.boost::shared_ptr", %"class.boost::shared_ptr"* %this1, i32 0, i32 1, !dbg !4141
  %call = call dereferenceable(8) %"class.boost::detail::shared_count"* @_ZN5boost6detail12shared_countaSERKS1_(%"class.boost::detail::shared_count"* %pn3, %"class.boost::detail::shared_count"* dereferenceable(8) %pn), !dbg !4142
  ret %"class.boost::shared_ptr"* %this1, !dbg !4143
}

; Function Attrs: noinline nounwind uwtable
define linkonce_odr dso_local void @_ZN5boost10shared_ptrINSt7__cxx1119basic_ostringstreamIcSt11char_traitsIcESaIcEEEED2Ev(%"class.boost::shared_ptr"* %this) unnamed_addr #1 comdat align 2 !dbg !4144 {
entry:
  %this.addr = alloca %"class.boost::shared_ptr"*, align 8
  store %"class.boost::shared_ptr"* %this, %"class.boost::shared_ptr"** %this.addr, align 8
  call void @llvm.dbg.declare(metadata %"class.boost::shared_ptr"** %this.addr, metadata !4146, metadata !DIExpression()), !dbg !4147
  %this1 = load %"class.boost::shared_ptr"*, %"class.boost::shared_ptr"** %this.addr, align 8
  %pn = getelementptr inbounds %"class.boost::shared_ptr", %"class.boost::shared_ptr"* %this1, i32 0, i32 1, !dbg !4148
  call void @_ZN5boost6detail12shared_countD2Ev(%"class.boost::detail::shared_count"* %pn) #4, !dbg !4148
  ret void, !dbg !4150
}

; Function Attrs: noinline nounwind uwtable
define linkonce_odr dso_local %"class.std::__cxx11::basic_ostringstream"* @_ZNK5boost10shared_ptrINSt7__cxx1119basic_ostringstreamIcSt11char_traitsIcESaIcEEEEptEv(%"class.boost::shared_ptr"* %this) #1 comdat align 2 !dbg !4151 {
entry:
  %this.addr = alloca %"class.boost::shared_ptr"*, align 8
  store %"class.boost::shared_ptr"* %this, %"class.boost::shared_ptr"** %this.addr, align 8
  call void @llvm.dbg.declare(metadata %"class.boost::shared_ptr"** %this.addr, metadata !4152, metadata !DIExpression()), !dbg !4153
  %this1 = load %"class.boost::shared_ptr"*, %"class.boost::shared_ptr"** %this.addr, align 8
  %px = getelementptr inbounds %"class.boost::shared_ptr", %"class.boost::shared_ptr"* %this1, i32 0, i32 0, !dbg !4154
  %0 = load %"class.std::__cxx11::basic_ostringstream"*, %"class.std::__cxx11::basic_ostringstream"** %px, align 8, !dbg !4154
  ret %"class.std::__cxx11::basic_ostringstream"* %0, !dbg !4155
}

; Function Attrs: noinline nounwind uwtable
define linkonce_odr dso_local dereferenceable(376) %"class.std::__cxx11::basic_ostringstream"* @_ZNK5boost10shared_ptrINSt7__cxx1119basic_ostringstreamIcSt11char_traitsIcESaIcEEEEdeEv(%"class.boost::shared_ptr"* %this) #1 comdat align 2 !dbg !4156 {
entry:
  %this.addr = alloca %"class.boost::shared_ptr"*, align 8
  store %"class.boost::shared_ptr"* %this, %"class.boost::shared_ptr"** %this.addr, align 8
  call void @llvm.dbg.declare(metadata %"class.boost::shared_ptr"** %this.addr, metadata !4157, metadata !DIExpression()), !dbg !4158
  %this1 = load %"class.boost::shared_ptr"*, %"class.boost::shared_ptr"** %this.addr, align 8
  %px = getelementptr inbounds %"class.boost::shared_ptr", %"class.boost::shared_ptr"* %this1, i32 0, i32 0, !dbg !4159
  %0 = load %"class.std::__cxx11::basic_ostringstream"*, %"class.std::__cxx11::basic_ostringstream"** %px, align 8, !dbg !4159
  ret %"class.std::__cxx11::basic_ostringstream"* %0, !dbg !4160
}

; Function Attrs: noinline uwtable
define dso_local void @_ZN6dealii9LogStream6attachERSo(%"class.dealii::LogStream"* %this, %"class.std::basic_ostream"* dereferenceable(272) %o) #0 align 2 personality i8* bitcast (i32 (...)* @__gxx_personality_v0 to i8*) !dbg !4161 {
entry:
  %this.addr = alloca %"class.dealii::LogStream"*, align 8
  %o.addr = alloca %"class.std::basic_ostream"*, align 8
  %lock = alloca %"class.dealii::Threads::DummyThreadMutex::ScopedLock", align 1
  %exn.slot = alloca i8*
  %ehselector.slot = alloca i32
  %ref.tmp = alloca %"class.std::__cxx11::basic_string", align 8
  store %"class.dealii::LogStream"* %this, %"class.dealii::LogStream"** %this.addr, align 8
  call void @llvm.dbg.declare(metadata %"class.dealii::LogStream"** %this.addr, metadata !4162, metadata !DIExpression()), !dbg !4163
  store %"class.std::basic_ostream"* %o, %"class.std::basic_ostream"** %o.addr, align 8
  call void @llvm.dbg.declare(metadata %"class.std::basic_ostream"** %o.addr, metadata !4164, metadata !DIExpression()), !dbg !4165
  %this1 = load %"class.dealii::LogStream"*, %"class.dealii::LogStream"** %this.addr, align 8
  call void @llvm.dbg.declare(metadata %"class.dealii::Threads::DummyThreadMutex::ScopedLock"* %lock, metadata !4166, metadata !DIExpression()), !dbg !4167
  call void @_ZN6dealii7Threads16DummyThreadMutex10ScopedLockC2ERS1_(%"class.dealii::Threads::DummyThreadMutex::ScopedLock"* %lock, %"class.dealii::Threads::DummyThreadMutex"* dereferenceable(1) @_ZN6dealii12_GLOBAL__N_18log_lockE), !dbg !4167
  %0 = load %"class.std::basic_ostream"*, %"class.std::basic_ostream"** %o.addr, align 8, !dbg !4168
  %file = getelementptr inbounds %"class.dealii::LogStream", %"class.dealii::LogStream"* %this1, i32 0, i32 2, !dbg !4169
  store %"class.std::basic_ostream"* %0, %"class.std::basic_ostream"** %file, align 8, !dbg !4170
  %1 = load %"class.std::basic_ostream"*, %"class.std::basic_ostream"** %o.addr, align 8, !dbg !4171
  %2 = bitcast %"class.std::basic_ostream"* %1 to i8**, !dbg !4171
  %vtable = load i8*, i8** %2, align 8, !dbg !4171
  %vbase.offset.ptr = getelementptr i8, i8* %vtable, i64 -24, !dbg !4171
  %3 = bitcast i8* %vbase.offset.ptr to i64*, !dbg !4171
  %vbase.offset = load i64, i64* %3, align 8, !dbg !4171
  %4 = bitcast %"class.std::basic_ostream"* %1 to i8*, !dbg !4171
  %add.ptr = getelementptr inbounds i8, i8* %4, i64 %vbase.offset, !dbg !4171
  %5 = bitcast i8* %add.ptr to %"class.std::ios_base"*, !dbg !4171
  %call = invoke i32 @_ZStorSt13_Ios_FmtflagsS_(i32 1024, i32 32)
          to label %invoke.cont unwind label %lpad, !dbg !4172

invoke.cont:                                      ; preds = %entry
  %call3 = invoke i32 @_ZNSt8ios_base4setfESt13_Ios_Fmtflags(%"class.std::ios_base"* %5, i32 %call)
          to label %invoke.cont2 unwind label %lpad, !dbg !4173

invoke.cont2:                                     ; preds = %invoke.cont
  %6 = load %"class.std::basic_ostream"*, %"class.std::basic_ostream"** %o.addr, align 8, !dbg !4174
  invoke void @_ZNK6dealii13JobIdentifierclB5cxx11Ev(%"class.std::__cxx11::basic_string"* sret %ref.tmp, %"class.dealii::JobIdentifier"* @_ZN6dealii9dealjobidE)
          to label %invoke.cont4 unwind label %lpad, !dbg !4175

invoke.cont4:                                     ; preds = %invoke.cont2
  %call7 = invoke dereferenceable(272) %"class.std::basic_ostream"* @_ZStlsIcSt11char_traitsIcESaIcEERSt13basic_ostreamIT_T0_ES7_RKNSt7__cxx1112basic_stringIS4_S5_T1_EE(%"class.std::basic_ostream"* dereferenceable(272) %6, %"class.std::__cxx11::basic_string"* dereferenceable(32) %ref.tmp)
          to label %invoke.cont6 unwind label %lpad5, !dbg !4176

invoke.cont6:                                     ; preds = %invoke.cont4
  call void @_ZNSt7__cxx1112basic_stringIcSt11char_traitsIcESaIcEED1Ev(%"class.std::__cxx11::basic_string"* %ref.tmp) #4, !dbg !4174
  call void @_ZN6dealii7Threads16DummyThreadMutex10ScopedLockD2Ev(%"class.dealii::Threads::DummyThreadMutex::ScopedLock"* %lock) #4, !dbg !4177
  ret void, !dbg !4177

lpad:                                             ; preds = %invoke.cont2, %invoke.cont, %entry
  %7 = landingpad { i8*, i32 }
          cleanup, !dbg !4177
  %8 = extractvalue { i8*, i32 } %7, 0, !dbg !4177
  store i8* %8, i8** %exn.slot, align 8, !dbg !4177
  %9 = extractvalue { i8*, i32 } %7, 1, !dbg !4177
  store i32 %9, i32* %ehselector.slot, align 4, !dbg !4177
  br label %ehcleanup, !dbg !4177

lpad5:                                            ; preds = %invoke.cont4
  %10 = landingpad { i8*, i32 }
          cleanup, !dbg !4177
  %11 = extractvalue { i8*, i32 } %10, 0, !dbg !4177
  store i8* %11, i8** %exn.slot, align 8, !dbg !4177
  %12 = extractvalue { i8*, i32 } %10, 1, !dbg !4177
  store i32 %12, i32* %ehselector.slot, align 4, !dbg !4177
  call void @_ZNSt7__cxx1112basic_stringIcSt11char_traitsIcESaIcEED1Ev(%"class.std::__cxx11::basic_string"* %ref.tmp) #4, !dbg !4174
  br label %ehcleanup, !dbg !4174

ehcleanup:                                        ; preds = %lpad5, %lpad
  call void @_ZN6dealii7Threads16DummyThreadMutex10ScopedLockD2Ev(%"class.dealii::Threads::DummyThreadMutex::ScopedLock"* %lock) #4, !dbg !4177
  br label %eh.resume, !dbg !4177

eh.resume:                                        ; preds = %ehcleanup
  %exn = load i8*, i8** %exn.slot, align 8, !dbg !4177
  %sel = load i32, i32* %ehselector.slot, align 4, !dbg !4177
  %lpad.val = insertvalue { i8*, i32 } undef, i8* %exn, 0, !dbg !4177
  %lpad.val8 = insertvalue { i8*, i32 } %lpad.val, i32 %sel, 1, !dbg !4177
  resume { i8*, i32 } %lpad.val8, !dbg !4177
}

declare dso_local void @_ZNK6dealii13JobIdentifierclB5cxx11Ev(%"class.std::__cxx11::basic_string"* sret, %"class.dealii::JobIdentifier"*) #2

; Function Attrs: noinline uwtable
define dso_local void @_ZN6dealii9LogStream6detachEv(%"class.dealii::LogStream"* %this) #0 align 2 !dbg !4178 {
entry:
  %this.addr = alloca %"class.dealii::LogStream"*, align 8
  %lock = alloca %"class.dealii::Threads::DummyThreadMutex::ScopedLock", align 1
  store %"class.dealii::LogStream"* %this, %"class.dealii::LogStream"** %this.addr, align 8
  call void @llvm.dbg.declare(metadata %"class.dealii::LogStream"** %this.addr, metadata !4179, metadata !DIExpression()), !dbg !4180
  %this1 = load %"class.dealii::LogStream"*, %"class.dealii::LogStream"** %this.addr, align 8
  call void @llvm.dbg.declare(metadata %"class.dealii::Threads::DummyThreadMutex::ScopedLock"* %lock, metadata !4181, metadata !DIExpression()), !dbg !4182
  call void @_ZN6dealii7Threads16DummyThreadMutex10ScopedLockC2ERS1_(%"class.dealii::Threads::DummyThreadMutex::ScopedLock"* %lock, %"class.dealii::Threads::DummyThreadMutex"* dereferenceable(1) @_ZN6dealii12_GLOBAL__N_18log_lockE), !dbg !4182
  %file = getelementptr inbounds %"class.dealii::LogStream", %"class.dealii::LogStream"* %this1, i32 0, i32 2, !dbg !4183
  store %"class.std::basic_ostream"* null, %"class.std::basic_ostream"** %file, align 8, !dbg !4184
  call void @_ZN6dealii7Threads16DummyThreadMutex10ScopedLockD2Ev(%"class.dealii::Threads::DummyThreadMutex::ScopedLock"* %lock) #4, !dbg !4185
  ret void, !dbg !4185
}

; Function Attrs: noinline uwtable
define dso_local void @_ZN6dealii9LogStream8log_cerrEv(%"class.dealii::LogStream"* %this) #0 align 2 personality i8* bitcast (i32 (...)* @__gxx_personality_v0 to i8*) !dbg !4186 {
entry:
  %this.addr = alloca %"class.dealii::LogStream"*, align 8
  %lock = alloca %"class.dealii::Threads::DummyThreadMutex::ScopedLock", align 1
  %exn.slot = alloca i8*
  %ehselector.slot = alloca i32
  store %"class.dealii::LogStream"* %this, %"class.dealii::LogStream"** %this.addr, align 8
  call void @llvm.dbg.declare(metadata %"class.dealii::LogStream"** %this.addr, metadata !4187, metadata !DIExpression()), !dbg !4188
  %this1 = load %"class.dealii::LogStream"*, %"class.dealii::LogStream"** %this.addr, align 8
  call void @llvm.dbg.declare(metadata %"class.dealii::Threads::DummyThreadMutex::ScopedLock"* %lock, metadata !4189, metadata !DIExpression()), !dbg !4190
  call void @_ZN6dealii7Threads16DummyThreadMutex10ScopedLockC2ERS1_(%"class.dealii::Threads::DummyThreadMutex::ScopedLock"* %lock, %"class.dealii::Threads::DummyThreadMutex"* dereferenceable(1) @_ZN6dealii12_GLOBAL__N_18log_lockE), !dbg !4190
  %old_cerr = getelementptr inbounds %"class.dealii::LogStream", %"class.dealii::LogStream"* %this1, i32 0, i32 10, !dbg !4191
  %0 = load %"class.std::basic_streambuf"*, %"class.std::basic_streambuf"** %old_cerr, align 8, !dbg !4191
  %cmp = icmp eq %"class.std::basic_streambuf"* %0, null, !dbg !4193
  br i1 %cmp, label %if.then, label %if.else, !dbg !4194

if.then:                                          ; preds = %entry
  %vtable = load i8*, i8** bitcast (%"class.std::basic_ostream"* @_ZSt4cerr to i8**), align 8, !dbg !4195
  %vbase.offset.ptr = getelementptr i8, i8* %vtable, i64 -24, !dbg !4195
  %1 = bitcast i8* %vbase.offset.ptr to i64*, !dbg !4195
  %vbase.offset = load i64, i64* %1, align 8, !dbg !4195
  %add.ptr = getelementptr inbounds i8, i8* bitcast (%"class.std::basic_ostream"* @_ZSt4cerr to i8*), i64 %vbase.offset, !dbg !4195
  %2 = bitcast i8* %add.ptr to %"class.std::basic_ios"*, !dbg !4195
  %file = getelementptr inbounds %"class.dealii::LogStream", %"class.dealii::LogStream"* %this1, i32 0, i32 2, !dbg !4197
  %3 = load %"class.std::basic_ostream"*, %"class.std::basic_ostream"** %file, align 8, !dbg !4197
  %4 = bitcast %"class.std::basic_ostream"* %3 to i8**, !dbg !4198
  %vtable2 = load i8*, i8** %4, align 8, !dbg !4198
  %vbase.offset.ptr3 = getelementptr i8, i8* %vtable2, i64 -24, !dbg !4198
  %5 = bitcast i8* %vbase.offset.ptr3 to i64*, !dbg !4198
  %vbase.offset4 = load i64, i64* %5, align 8, !dbg !4198
  %6 = bitcast %"class.std::basic_ostream"* %3 to i8*, !dbg !4198
  %add.ptr5 = getelementptr inbounds i8, i8* %6, i64 %vbase.offset4, !dbg !4198
  %7 = bitcast i8* %add.ptr5 to %"class.std::basic_ios"*, !dbg !4198
  %call = invoke %"class.std::basic_streambuf"* @_ZNKSt9basic_iosIcSt11char_traitsIcEE5rdbufEv(%"class.std::basic_ios"* %7)
          to label %invoke.cont unwind label %lpad, !dbg !4198

invoke.cont:                                      ; preds = %if.then
  %call7 = invoke %"class.std::basic_streambuf"* @_ZNSt9basic_iosIcSt11char_traitsIcEE5rdbufEPSt15basic_streambufIcS1_E(%"class.std::basic_ios"* %2, %"class.std::basic_streambuf"* %call)
          to label %invoke.cont6 unwind label %lpad, !dbg !4199

invoke.cont6:                                     ; preds = %invoke.cont
  %old_cerr8 = getelementptr inbounds %"class.dealii::LogStream", %"class.dealii::LogStream"* %this1, i32 0, i32 10, !dbg !4200
  store %"class.std::basic_streambuf"* %call7, %"class.std::basic_streambuf"** %old_cerr8, align 8, !dbg !4201
  br label %if.end, !dbg !4202

lpad:                                             ; preds = %if.else, %invoke.cont, %if.then
  %8 = landingpad { i8*, i32 }
          cleanup, !dbg !4203
  %9 = extractvalue { i8*, i32 } %8, 0, !dbg !4203
  store i8* %9, i8** %exn.slot, align 8, !dbg !4203
  %10 = extractvalue { i8*, i32 } %8, 1, !dbg !4203
  store i32 %10, i32* %ehselector.slot, align 4, !dbg !4203
  call void @_ZN6dealii7Threads16DummyThreadMutex10ScopedLockD2Ev(%"class.dealii::Threads::DummyThreadMutex::ScopedLock"* %lock) #4, !dbg !4204
  br label %eh.resume, !dbg !4204

if.else:                                          ; preds = %entry
  %vtable9 = load i8*, i8** bitcast (%"class.std::basic_ostream"* @_ZSt4cerr to i8**), align 8, !dbg !4205
  %vbase.offset.ptr10 = getelementptr i8, i8* %vtable9, i64 -24, !dbg !4205
  %11 = bitcast i8* %vbase.offset.ptr10 to i64*, !dbg !4205
  %vbase.offset11 = load i64, i64* %11, align 8, !dbg !4205
  %add.ptr12 = getelementptr inbounds i8, i8* bitcast (%"class.std::basic_ostream"* @_ZSt4cerr to i8*), i64 %vbase.offset11, !dbg !4205
  %12 = bitcast i8* %add.ptr12 to %"class.std::basic_ios"*, !dbg !4205
  %old_cerr13 = getelementptr inbounds %"class.dealii::LogStream", %"class.dealii::LogStream"* %this1, i32 0, i32 10, !dbg !4207
  %13 = load %"class.std::basic_streambuf"*, %"class.std::basic_streambuf"** %old_cerr13, align 8, !dbg !4207
  %call15 = invoke %"class.std::basic_streambuf"* @_ZNSt9basic_iosIcSt11char_traitsIcEE5rdbufEPSt15basic_streambufIcS1_E(%"class.std::basic_ios"* %12, %"class.std::basic_streambuf"* %13)
          to label %invoke.cont14 unwind label %lpad, !dbg !4208

invoke.cont14:                                    ; preds = %if.else
  %old_cerr16 = getelementptr inbounds %"class.dealii::LogStream", %"class.dealii::LogStream"* %this1, i32 0, i32 10, !dbg !4209
  store %"class.std::basic_streambuf"* null, %"class.std::basic_streambuf"** %old_cerr16, align 8, !dbg !4210
  br label %if.end

if.end:                                           ; preds = %invoke.cont14, %invoke.cont6
  call void @_ZN6dealii7Threads16DummyThreadMutex10ScopedLockD2Ev(%"class.dealii::Threads::DummyThreadMutex::ScopedLock"* %lock) #4, !dbg !4204
  ret void, !dbg !4204

eh.resume:                                        ; preds = %lpad
  %exn = load i8*, i8** %exn.slot, align 8, !dbg !4204
  %sel = load i32, i32* %ehselector.slot, align 4, !dbg !4204
  %lpad.val = insertvalue { i8*, i32 } undef, i8* %exn, 0, !dbg !4204
  %lpad.val17 = insertvalue { i8*, i32 } %lpad.val, i32 %sel, 1, !dbg !4204
  resume { i8*, i32 } %lpad.val17, !dbg !4204
}

declare dso_local %"class.std::basic_streambuf"* @_ZNKSt9basic_iosIcSt11char_traitsIcEE5rdbufEv(%"class.std::basic_ios"*) #2

; Function Attrs: noinline nounwind uwtable
define dso_local dereferenceable(272) %"class.std::basic_ostream"* @_ZN6dealii9LogStream11get_consoleEv(%"class.dealii::LogStream"* %this) #1 align 2 !dbg !4211 {
entry:
  %this.addr = alloca %"class.dealii::LogStream"*, align 8
  store %"class.dealii::LogStream"* %this, %"class.dealii::LogStream"** %this.addr, align 8
  call void @llvm.dbg.declare(metadata %"class.dealii::LogStream"** %this.addr, metadata !4212, metadata !DIExpression()), !dbg !4213
  %this1 = load %"class.dealii::LogStream"*, %"class.dealii::LogStream"** %this.addr, align 8
  %std_out = getelementptr inbounds %"class.dealii::LogStream", %"class.dealii::LogStream"* %this1, i32 0, i32 1, !dbg !4214
  %0 = load %"class.std::basic_ostream"*, %"class.std::basic_ostream"** %std_out, align 8, !dbg !4214
  ret %"class.std::basic_ostream"* %0, !dbg !4215
}

; Function Attrs: noinline nounwind uwtable
define dso_local dereferenceable(272) %"class.std::basic_ostream"* @_ZN6dealii9LogStream15get_file_streamEv(%"class.dealii::LogStream"* %this) #1 align 2 !dbg !4216 {
entry:
  %this.addr = alloca %"class.dealii::LogStream"*, align 8
  store %"class.dealii::LogStream"* %this, %"class.dealii::LogStream"** %this.addr, align 8
  call void @llvm.dbg.declare(metadata %"class.dealii::LogStream"** %this.addr, metadata !4217, metadata !DIExpression()), !dbg !4218
  %this1 = load %"class.dealii::LogStream"*, %"class.dealii::LogStream"** %this.addr, align 8
  %file = getelementptr inbounds %"class.dealii::LogStream", %"class.dealii::LogStream"* %this1, i32 0, i32 2, !dbg !4219
  %0 = load %"class.std::basic_ostream"*, %"class.std::basic_ostream"** %file, align 8, !dbg !4219
  ret %"class.std::basic_ostream"* %0, !dbg !4220
}

; Function Attrs: noinline nounwind uwtable
define dso_local zeroext i1 @_ZNK6dealii9LogStream8has_fileEv(%"class.dealii::LogStream"* %this) #1 align 2 !dbg !4221 {
entry:
  %this.addr = alloca %"class.dealii::LogStream"*, align 8
  store %"class.dealii::LogStream"* %this, %"class.dealii::LogStream"** %this.addr, align 8
  call void @llvm.dbg.declare(metadata %"class.dealii::LogStream"** %this.addr, metadata !4222, metadata !DIExpression()), !dbg !4224
  %this1 = load %"class.dealii::LogStream"*, %"class.dealii::LogStream"** %this.addr, align 8
  %file = getelementptr inbounds %"class.dealii::LogStream", %"class.dealii::LogStream"* %this1, i32 0, i32 2, !dbg !4225
  %0 = load %"class.std::basic_ostream"*, %"class.std::basic_ostream"** %file, align 8, !dbg !4225
  %cmp = icmp ne %"class.std::basic_ostream"* %0, null, !dbg !4226
  ret i1 %cmp, !dbg !4227
}

; Function Attrs: noinline uwtable
define dso_local dereferenceable(32) %"class.std::__cxx11::basic_string"* @_ZNK6dealii9LogStream10get_prefixB5cxx11Ev(%"class.dealii::LogStream"* %this) #0 align 2 !dbg !4228 {
entry:
  %this.addr = alloca %"class.dealii::LogStream"*, align 8
  store %"class.dealii::LogStream"* %this, %"class.dealii::LogStream"** %this.addr, align 8
  call void @llvm.dbg.declare(metadata %"class.dealii::LogStream"** %this.addr, metadata !4229, metadata !DIExpression()), !dbg !4230
  %this1 = load %"class.dealii::LogStream"*, %"class.dealii::LogStream"** %this.addr, align 8
  %prefixes = getelementptr inbounds %"class.dealii::LogStream", %"class.dealii::LogStream"* %this1, i32 0, i32 0, !dbg !4231
  %call = call dereferenceable(32) %"class.std::__cxx11::basic_string"* @_ZNKSt5stackINSt7__cxx1112basic_stringIcSt11char_traitsIcESaIcEEESt5dequeIS5_SaIS5_EEE3topEv(%"class.std::stack"* %prefixes), !dbg !4232
  ret %"class.std::__cxx11::basic_string"* %call, !dbg !4233
}

; Function Attrs: noinline nounwind uwtable
define linkonce_odr dso_local dereferenceable(32) %"class.std::__cxx11::basic_string"* @_ZNKSt5stackINSt7__cxx1112basic_stringIcSt11char_traitsIcESaIcEEESt5dequeIS5_SaIS5_EEE3topEv(%"class.std::stack"* %this) #1 comdat align 2 !dbg !4234 {
entry:
  %this.addr = alloca %"class.std::stack"*, align 8
  store %"class.std::stack"* %this, %"class.std::stack"** %this.addr, align 8
  call void @llvm.dbg.declare(metadata %"class.std::stack"** %this.addr, metadata !4235, metadata !DIExpression()), !dbg !4236
  %this1 = load %"class.std::stack"*, %"class.std::stack"** %this.addr, align 8
  %c = getelementptr inbounds %"class.std::stack", %"class.std::stack"* %this1, i32 0, i32 0, !dbg !4237
  %call = call dereferenceable(32) %"class.std::__cxx11::basic_string"* @_ZNKSt5dequeINSt7__cxx1112basic_stringIcSt11char_traitsIcESaIcEEESaIS5_EE4backEv(%"class.std::deque"* %c) #4, !dbg !4238
  ret %"class.std::__cxx11::basic_string"* %call, !dbg !4239
}

; Function Attrs: noinline uwtable
define dso_local void @_ZN6dealii9LogStream4pushERKNSt7__cxx1112basic_stringIcSt11char_traitsIcESaIcEEE(%"class.dealii::LogStream"* %this, %"class.std::__cxx11::basic_string"* dereferenceable(32) %text) #0 align 2 personality i8* bitcast (i32 (...)* @__gxx_personality_v0 to i8*) !dbg !4240 {
entry:
  %this.addr = alloca %"class.dealii::LogStream"*, align 8
  %text.addr = alloca %"class.std::__cxx11::basic_string"*, align 8
  %lock = alloca %"class.dealii::Threads::DummyThreadMutex::ScopedLock", align 1
  %pre = alloca %"class.std::__cxx11::basic_string", align 8
  %exn.slot = alloca i8*
  %ehselector.slot = alloca i32
  %ref.tmp = alloca %"class.std::__cxx11::basic_string", align 8
  %ref.tmp6 = alloca %"class.std::allocator.16", align 1
  store %"class.dealii::LogStream"* %this, %"class.dealii::LogStream"** %this.addr, align 8
  call void @llvm.dbg.declare(metadata %"class.dealii::LogStream"** %this.addr, metadata !4241, metadata !DIExpression()), !dbg !4242
  store %"class.std::__cxx11::basic_string"* %text, %"class.std::__cxx11::basic_string"** %text.addr, align 8
  call void @llvm.dbg.declare(metadata %"class.std::__cxx11::basic_string"** %text.addr, metadata !4243, metadata !DIExpression()), !dbg !4244
  %this1 = load %"class.dealii::LogStream"*, %"class.dealii::LogStream"** %this.addr, align 8
  call void @llvm.dbg.declare(metadata %"class.dealii::Threads::DummyThreadMutex::ScopedLock"* %lock, metadata !4245, metadata !DIExpression()), !dbg !4246
  call void @_ZN6dealii7Threads16DummyThreadMutex10ScopedLockC2ERS1_(%"class.dealii::Threads::DummyThreadMutex::ScopedLock"* %lock, %"class.dealii::Threads::DummyThreadMutex"* dereferenceable(1) @_ZN6dealii12_GLOBAL__N_18log_lockE), !dbg !4246
  call void @llvm.dbg.declare(metadata %"class.std::__cxx11::basic_string"* %pre, metadata !4247, metadata !DIExpression()), !dbg !4248
  %prefixes = getelementptr inbounds %"class.dealii::LogStream", %"class.dealii::LogStream"* %this1, i32 0, i32 0, !dbg !4249
  %call = invoke dereferenceable(32) %"class.std::__cxx11::basic_string"* @_ZNSt5stackINSt7__cxx1112basic_stringIcSt11char_traitsIcESaIcEEESt5dequeIS5_SaIS5_EEE3topEv(%"class.std::stack"* %prefixes)
          to label %invoke.cont unwind label %lpad, !dbg !4250

invoke.cont:                                      ; preds = %entry
  invoke void @_ZNSt7__cxx1112basic_stringIcSt11char_traitsIcESaIcEEC1ERKS4_(%"class.std::__cxx11::basic_string"* %pre, %"class.std::__cxx11::basic_string"* dereferenceable(32) %call)
          to label %invoke.cont2 unwind label %lpad, !dbg !4249

invoke.cont2:                                     ; preds = %invoke.cont
  %0 = load %"class.std::__cxx11::basic_string"*, %"class.std::__cxx11::basic_string"** %text.addr, align 8, !dbg !4251
  %call5 = invoke dereferenceable(32) %"class.std::__cxx11::basic_string"* @_ZNSt7__cxx1112basic_stringIcSt11char_traitsIcESaIcEEpLERKS4_(%"class.std::__cxx11::basic_string"* %pre, %"class.std::__cxx11::basic_string"* dereferenceable(32) %0)
          to label %invoke.cont4 unwind label %lpad3, !dbg !4252

invoke.cont4:                                     ; preds = %invoke.cont2
  call void @_ZNSaIcEC1Ev(%"class.std::allocator.16"* %ref.tmp6) #4, !dbg !4253
  invoke void @_ZNSt7__cxx1112basic_stringIcSt11char_traitsIcESaIcEEC1EPKcRKS3_(%"class.std::__cxx11::basic_string"* %ref.tmp, i8* getelementptr inbounds ([2 x i8], [2 x i8]* @.str.12, i64 0, i64 0), %"class.std::allocator.16"* dereferenceable(1) %ref.tmp6)
          to label %invoke.cont8 unwind label %lpad7, !dbg !4253

invoke.cont8:                                     ; preds = %invoke.cont4
  %call11 = invoke dereferenceable(32) %"class.std::__cxx11::basic_string"* @_ZNSt7__cxx1112basic_stringIcSt11char_traitsIcESaIcEEpLERKS4_(%"class.std::__cxx11::basic_string"* %pre, %"class.std::__cxx11::basic_string"* dereferenceable(32) %ref.tmp)
          to label %invoke.cont10 unwind label %lpad9, !dbg !4254

invoke.cont10:                                    ; preds = %invoke.cont8
  call void @_ZNSt7__cxx1112basic_stringIcSt11char_traitsIcESaIcEED1Ev(%"class.std::__cxx11::basic_string"* %ref.tmp) #4, !dbg !4255
  call void @_ZNSaIcED1Ev(%"class.std::allocator.16"* %ref.tmp6) #4, !dbg !4255
  %prefixes12 = getelementptr inbounds %"class.dealii::LogStream", %"class.dealii::LogStream"* %this1, i32 0, i32 0, !dbg !4256
  invoke void @_ZNSt5stackINSt7__cxx1112basic_stringIcSt11char_traitsIcESaIcEEESt5dequeIS5_SaIS5_EEE4pushERKS5_(%"class.std::stack"* %prefixes12, %"class.std::__cxx11::basic_string"* dereferenceable(32) %pre)
          to label %invoke.cont13 unwind label %lpad3, !dbg !4257

invoke.cont13:                                    ; preds = %invoke.cont10
  call void @_ZNSt7__cxx1112basic_stringIcSt11char_traitsIcESaIcEED1Ev(%"class.std::__cxx11::basic_string"* %pre) #4, !dbg !4258
  call void @_ZN6dealii7Threads16DummyThreadMutex10ScopedLockD2Ev(%"class.dealii::Threads::DummyThreadMutex::ScopedLock"* %lock) #4, !dbg !4258
  ret void, !dbg !4258

lpad:                                             ; preds = %invoke.cont, %entry
  %1 = landingpad { i8*, i32 }
          cleanup, !dbg !4258
  %2 = extractvalue { i8*, i32 } %1, 0, !dbg !4258
  store i8* %2, i8** %exn.slot, align 8, !dbg !4258
  %3 = extractvalue { i8*, i32 } %1, 1, !dbg !4258
  store i32 %3, i32* %ehselector.slot, align 4, !dbg !4258
  br label %ehcleanup15, !dbg !4258

lpad3:                                            ; preds = %invoke.cont10, %invoke.cont2
  %4 = landingpad { i8*, i32 }
          cleanup, !dbg !4258
  %5 = extractvalue { i8*, i32 } %4, 0, !dbg !4258
  store i8* %5, i8** %exn.slot, align 8, !dbg !4258
  %6 = extractvalue { i8*, i32 } %4, 1, !dbg !4258
  store i32 %6, i32* %ehselector.slot, align 4, !dbg !4258
  br label %ehcleanup14, !dbg !4258

lpad7:                                            ; preds = %invoke.cont4
  %7 = landingpad { i8*, i32 }
          cleanup, !dbg !4258
  %8 = extractvalue { i8*, i32 } %7, 0, !dbg !4258
  store i8* %8, i8** %exn.slot, align 8, !dbg !4258
  %9 = extractvalue { i8*, i32 } %7, 1, !dbg !4258
  store i32 %9, i32* %ehselector.slot, align 4, !dbg !4258
  br label %ehcleanup, !dbg !4258

lpad9:                                            ; preds = %invoke.cont8
  %10 = landingpad { i8*, i32 }
          cleanup, !dbg !4258
  %11 = extractvalue { i8*, i32 } %10, 0, !dbg !4258
  store i8* %11, i8** %exn.slot, align 8, !dbg !4258
  %12 = extractvalue { i8*, i32 } %10, 1, !dbg !4258
  store i32 %12, i32* %ehselector.slot, align 4, !dbg !4258
  call void @_ZNSt7__cxx1112basic_stringIcSt11char_traitsIcESaIcEED1Ev(%"class.std::__cxx11::basic_string"* %ref.tmp) #4, !dbg !4255
  br label %ehcleanup, !dbg !4255

ehcleanup:                                        ; preds = %lpad9, %lpad7
  call void @_ZNSaIcED1Ev(%"class.std::allocator.16"* %ref.tmp6) #4, !dbg !4255
  br label %ehcleanup14, !dbg !4255

ehcleanup14:                                      ; preds = %ehcleanup, %lpad3
  call void @_ZNSt7__cxx1112basic_stringIcSt11char_traitsIcESaIcEED1Ev(%"class.std::__cxx11::basic_string"* %pre) #4, !dbg !4258
  br label %ehcleanup15, !dbg !4258

ehcleanup15:                                      ; preds = %ehcleanup14, %lpad
  call void @_ZN6dealii7Threads16DummyThreadMutex10ScopedLockD2Ev(%"class.dealii::Threads::DummyThreadMutex::ScopedLock"* %lock) #4, !dbg !4258
  br label %eh.resume, !dbg !4258

eh.resume:                                        ; preds = %ehcleanup15
  %exn = load i8*, i8** %exn.slot, align 8, !dbg !4258
  %sel = load i32, i32* %ehselector.slot, align 4, !dbg !4258
  %lpad.val = insertvalue { i8*, i32 } undef, i8* %exn, 0, !dbg !4258
  %lpad.val16 = insertvalue { i8*, i32 } %lpad.val, i32 %sel, 1, !dbg !4258
  resume { i8*, i32 } %lpad.val16, !dbg !4258
}

; Function Attrs: noinline nounwind uwtable
define linkonce_odr dso_local dereferenceable(32) %"class.std::__cxx11::basic_string"* @_ZNSt5stackINSt7__cxx1112basic_stringIcSt11char_traitsIcESaIcEEESt5dequeIS5_SaIS5_EEE3topEv(%"class.std::stack"* %this) #1 comdat align 2 !dbg !4259 {
entry:
  %this.addr = alloca %"class.std::stack"*, align 8
  store %"class.std::stack"* %this, %"class.std::stack"** %this.addr, align 8
  call void @llvm.dbg.declare(metadata %"class.std::stack"** %this.addr, metadata !4260, metadata !DIExpression()), !dbg !4261
  %this1 = load %"class.std::stack"*, %"class.std::stack"** %this.addr, align 8
  %c = getelementptr inbounds %"class.std::stack", %"class.std::stack"* %this1, i32 0, i32 0, !dbg !4262
  %call = call dereferenceable(32) %"class.std::__cxx11::basic_string"* @_ZNSt5dequeINSt7__cxx1112basic_stringIcSt11char_traitsIcESaIcEEESaIS5_EE4backEv(%"class.std::deque"* %c) #4, !dbg !4263
  ret %"class.std::__cxx11::basic_string"* %call, !dbg !4264
}

declare dso_local void @_ZNSt7__cxx1112basic_stringIcSt11char_traitsIcESaIcEEC1ERKS4_(%"class.std::__cxx11::basic_string"*, %"class.std::__cxx11::basic_string"* dereferenceable(32)) unnamed_addr #2

declare dso_local dereferenceable(32) %"class.std::__cxx11::basic_string"* @_ZNSt7__cxx1112basic_stringIcSt11char_traitsIcESaIcEEpLERKS4_(%"class.std::__cxx11::basic_string"*, %"class.std::__cxx11::basic_string"* dereferenceable(32)) #2

; Function Attrs: noinline uwtable
define linkonce_odr dso_local void @_ZNSt5stackINSt7__cxx1112basic_stringIcSt11char_traitsIcESaIcEEESt5dequeIS5_SaIS5_EEE4pushERKS5_(%"class.std::stack"* %this, %"class.std::__cxx11::basic_string"* dereferenceable(32) %__x) #0 comdat align 2 !dbg !4265 {
entry:
  %this.addr = alloca %"class.std::stack"*, align 8
  %__x.addr = alloca %"class.std::__cxx11::basic_string"*, align 8
  store %"class.std::stack"* %this, %"class.std::stack"** %this.addr, align 8
  call void @llvm.dbg.declare(metadata %"class.std::stack"** %this.addr, metadata !4266, metadata !DIExpression()), !dbg !4267
  store %"class.std::__cxx11::basic_string"* %__x, %"class.std::__cxx11::basic_string"** %__x.addr, align 8
  call void @llvm.dbg.declare(metadata %"class.std::__cxx11::basic_string"** %__x.addr, metadata !4268, metadata !DIExpression()), !dbg !4269
  %this1 = load %"class.std::stack"*, %"class.std::stack"** %this.addr, align 8
  %c = getelementptr inbounds %"class.std::stack", %"class.std::stack"* %this1, i32 0, i32 0, !dbg !4270
  %0 = load %"class.std::__cxx11::basic_string"*, %"class.std::__cxx11::basic_string"** %__x.addr, align 8, !dbg !4271
  call void @_ZNSt5dequeINSt7__cxx1112basic_stringIcSt11char_traitsIcESaIcEEESaIS5_EE9push_backERKS5_(%"class.std::deque"* %c, %"class.std::__cxx11::basic_string"* dereferenceable(32) %0), !dbg !4272
  ret void, !dbg !4273
}

; Function Attrs: noinline uwtable
define dso_local void @_ZN6dealii9LogStream3popEv(%"class.dealii::LogStream"* %this) #0 align 2 personality i8* bitcast (i32 (...)* @__gxx_personality_v0 to i8*) !dbg !4274 {
entry:
  %this.addr = alloca %"class.dealii::LogStream"*, align 8
  %lock = alloca %"class.dealii::Threads::DummyThreadMutex::ScopedLock", align 1
  %exn.slot = alloca i8*
  %ehselector.slot = alloca i32
  store %"class.dealii::LogStream"* %this, %"class.dealii::LogStream"** %this.addr, align 8
  call void @llvm.dbg.declare(metadata %"class.dealii::LogStream"** %this.addr, metadata !4275, metadata !DIExpression()), !dbg !4276
  %this1 = load %"class.dealii::LogStream"*, %"class.dealii::LogStream"** %this.addr, align 8
  call void @llvm.dbg.declare(metadata %"class.dealii::Threads::DummyThreadMutex::ScopedLock"* %lock, metadata !4277, metadata !DIExpression()), !dbg !4278
  call void @_ZN6dealii7Threads16DummyThreadMutex10ScopedLockC2ERS1_(%"class.dealii::Threads::DummyThreadMutex::ScopedLock"* %lock, %"class.dealii::Threads::DummyThreadMutex"* dereferenceable(1) @_ZN6dealii12_GLOBAL__N_18log_lockE), !dbg !4278
  %prefixes = getelementptr inbounds %"class.dealii::LogStream", %"class.dealii::LogStream"* %this1, i32 0, i32 0, !dbg !4279
  %call = invoke i64 @_ZNKSt5stackINSt7__cxx1112basic_stringIcSt11char_traitsIcESaIcEEESt5dequeIS5_SaIS5_EEE4sizeEv(%"class.std::stack"* %prefixes)
          to label %invoke.cont unwind label %lpad, !dbg !4281

invoke.cont:                                      ; preds = %entry
  %cmp = icmp ugt i64 %call, 1, !dbg !4282
  br i1 %cmp, label %if.then, label %if.end, !dbg !4283

if.then:                                          ; preds = %invoke.cont
  %prefixes2 = getelementptr inbounds %"class.dealii::LogStream", %"class.dealii::LogStream"* %this1, i32 0, i32 0, !dbg !4284
  invoke void @_ZNSt5stackINSt7__cxx1112basic_stringIcSt11char_traitsIcESaIcEEESt5dequeIS5_SaIS5_EEE3popEv(%"class.std::stack"* %prefixes2)
          to label %invoke.cont3 unwind label %lpad, !dbg !4285

invoke.cont3:                                     ; preds = %if.then
  br label %if.end, !dbg !4284

lpad:                                             ; preds = %if.then, %entry
  %0 = landingpad { i8*, i32 }
          cleanup, !dbg !4286
  %1 = extractvalue { i8*, i32 } %0, 0, !dbg !4286
  store i8* %1, i8** %exn.slot, align 8, !dbg !4286
  %2 = extractvalue { i8*, i32 } %0, 1, !dbg !4286
  store i32 %2, i32* %ehselector.slot, align 4, !dbg !4286
  call void @_ZN6dealii7Threads16DummyThreadMutex10ScopedLockD2Ev(%"class.dealii::Threads::DummyThreadMutex::ScopedLock"* %lock) #4, !dbg !4287
  br label %eh.resume, !dbg !4287

if.end:                                           ; preds = %invoke.cont3, %invoke.cont
  call void @_ZN6dealii7Threads16DummyThreadMutex10ScopedLockD2Ev(%"class.dealii::Threads::DummyThreadMutex::ScopedLock"* %lock) #4, !dbg !4287
  ret void, !dbg !4287

eh.resume:                                        ; preds = %lpad
  %exn = load i8*, i8** %exn.slot, align 8, !dbg !4287
  %sel = load i32, i32* %ehselector.slot, align 4, !dbg !4287
  %lpad.val = insertvalue { i8*, i32 } undef, i8* %exn, 0, !dbg !4287
  %lpad.val4 = insertvalue { i8*, i32 } %lpad.val, i32 %sel, 1, !dbg !4287
  resume { i8*, i32 } %lpad.val4, !dbg !4287
}

; Function Attrs: noinline nounwind uwtable
define linkonce_odr dso_local void @_ZNSt5stackINSt7__cxx1112basic_stringIcSt11char_traitsIcESaIcEEESt5dequeIS5_SaIS5_EEE3popEv(%"class.std::stack"* %this) #1 comdat align 2 !dbg !4288 {
entry:
  %this.addr = alloca %"class.std::stack"*, align 8
  store %"class.std::stack"* %this, %"class.std::stack"** %this.addr, align 8
  call void @llvm.dbg.declare(metadata %"class.std::stack"** %this.addr, metadata !4289, metadata !DIExpression()), !dbg !4290
  %this1 = load %"class.std::stack"*, %"class.std::stack"** %this.addr, align 8
  %c = getelementptr inbounds %"class.std::stack", %"class.std::stack"* %this1, i32 0, i32 0, !dbg !4291
  call void @_ZNSt5dequeINSt7__cxx1112basic_stringIcSt11char_traitsIcESaIcEEESaIS5_EE8pop_backEv(%"class.std::deque"* %c) #4, !dbg !4292
  ret void, !dbg !4293
}

; Function Attrs: noinline uwtable
define dso_local i32 @_ZN6dealii9LogStream13depth_consoleEj(%"class.dealii::LogStream"* %this, i32 %n) #0 align 2 !dbg !4294 {
entry:
  %this.addr = alloca %"class.dealii::LogStream"*, align 8
  %n.addr = alloca i32, align 4
  %lock = alloca %"class.dealii::Threads::DummyThreadMutex::ScopedLock", align 1
  %h = alloca i32, align 4
  store %"class.dealii::LogStream"* %this, %"class.dealii::LogStream"** %this.addr, align 8
  call void @llvm.dbg.declare(metadata %"class.dealii::LogStream"** %this.addr, metadata !4295, metadata !DIExpression()), !dbg !4296
  store i32 %n, i32* %n.addr, align 4
  call void @llvm.dbg.declare(metadata i32* %n.addr, metadata !4297, metadata !DIExpression()), !dbg !4298
  %this1 = load %"class.dealii::LogStream"*, %"class.dealii::LogStream"** %this.addr, align 8
  call void @llvm.dbg.declare(metadata %"class.dealii::Threads::DummyThreadMutex::ScopedLock"* %lock, metadata !4299, metadata !DIExpression()), !dbg !4300
  call void @_ZN6dealii7Threads16DummyThreadMutex10ScopedLockC2ERS1_(%"class.dealii::Threads::DummyThreadMutex::ScopedLock"* %lock, %"class.dealii::Threads::DummyThreadMutex"* dereferenceable(1) @_ZN6dealii12_GLOBAL__N_18log_lockE), !dbg !4300
  call void @llvm.dbg.declare(metadata i32* %h, metadata !4301, metadata !DIExpression()), !dbg !4302
  %std_depth = getelementptr inbounds %"class.dealii::LogStream", %"class.dealii::LogStream"* %this1, i32 0, i32 3, !dbg !4303
  %0 = load i32, i32* %std_depth, align 8, !dbg !4303
  store i32 %0, i32* %h, align 4, !dbg !4302
  %1 = load i32, i32* %n.addr, align 4, !dbg !4304
  %std_depth2 = getelementptr inbounds %"class.dealii::LogStream", %"class.dealii::LogStream"* %this1, i32 0, i32 3, !dbg !4305
  store i32 %1, i32* %std_depth2, align 8, !dbg !4306
  %2 = load i32, i32* %h, align 4, !dbg !4307
  call void @_ZN6dealii7Threads16DummyThreadMutex10ScopedLockD2Ev(%"class.dealii::Threads::DummyThreadMutex::ScopedLock"* %lock) #4, !dbg !4308
  ret i32 %2, !dbg !4308
}

; Function Attrs: noinline uwtable
define dso_local i32 @_ZN6dealii9LogStream10depth_fileEj(%"class.dealii::LogStream"* %this, i32 %n) #0 align 2 !dbg !4309 {
entry:
  %this.addr = alloca %"class.dealii::LogStream"*, align 8
  %n.addr = alloca i32, align 4
  %lock = alloca %"class.dealii::Threads::DummyThreadMutex::ScopedLock", align 1
  %h = alloca i32, align 4
  store %"class.dealii::LogStream"* %this, %"class.dealii::LogStream"** %this.addr, align 8
  call void @llvm.dbg.declare(metadata %"class.dealii::LogStream"** %this.addr, metadata !4310, metadata !DIExpression()), !dbg !4311
  store i32 %n, i32* %n.addr, align 4
  call void @llvm.dbg.declare(metadata i32* %n.addr, metadata !4312, metadata !DIExpression()), !dbg !4313
  %this1 = load %"class.dealii::LogStream"*, %"class.dealii::LogStream"** %this.addr, align 8
  call void @llvm.dbg.declare(metadata %"class.dealii::Threads::DummyThreadMutex::ScopedLock"* %lock, metadata !4314, metadata !DIExpression()), !dbg !4315
  call void @_ZN6dealii7Threads16DummyThreadMutex10ScopedLockC2ERS1_(%"class.dealii::Threads::DummyThreadMutex::ScopedLock"* %lock, %"class.dealii::Threads::DummyThreadMutex"* dereferenceable(1) @_ZN6dealii12_GLOBAL__N_18log_lockE), !dbg !4315
  call void @llvm.dbg.declare(metadata i32* %h, metadata !4316, metadata !DIExpression()), !dbg !4317
  %file_depth = getelementptr inbounds %"class.dealii::LogStream", %"class.dealii::LogStream"* %this1, i32 0, i32 4, !dbg !4318
  %0 = load i32, i32* %file_depth, align 4, !dbg !4318
  store i32 %0, i32* %h, align 4, !dbg !4317
  %1 = load i32, i32* %n.addr, align 4, !dbg !4319
  %file_depth2 = getelementptr inbounds %"class.dealii::LogStream", %"class.dealii::LogStream"* %this1, i32 0, i32 4, !dbg !4320
  store i32 %1, i32* %file_depth2, align 4, !dbg !4321
  %2 = load i32, i32* %h, align 4, !dbg !4322
  call void @_ZN6dealii7Threads16DummyThreadMutex10ScopedLockD2Ev(%"class.dealii::Threads::DummyThreadMutex::ScopedLock"* %lock) #4, !dbg !4323
  ret i32 %2, !dbg !4323
}

; Function Attrs: noinline uwtable
define dso_local void @_ZN6dealii9LogStream16threshold_doubleEd(%"class.dealii::LogStream"* %this, double %t) #0 align 2 !dbg !4324 {
entry:
  %this.addr = alloca %"class.dealii::LogStream"*, align 8
  %t.addr = alloca double, align 8
  %lock = alloca %"class.dealii::Threads::DummyThreadMutex::ScopedLock", align 1
  store %"class.dealii::LogStream"* %this, %"class.dealii::LogStream"** %this.addr, align 8
  call void @llvm.dbg.declare(metadata %"class.dealii::LogStream"** %this.addr, metadata !4325, metadata !DIExpression()), !dbg !4326
  store double %t, double* %t.addr, align 8
  call void @llvm.dbg.declare(metadata double* %t.addr, metadata !4327, metadata !DIExpression()), !dbg !4328
  %this1 = load %"class.dealii::LogStream"*, %"class.dealii::LogStream"** %this.addr, align 8
  call void @llvm.dbg.declare(metadata %"class.dealii::Threads::DummyThreadMutex::ScopedLock"* %lock, metadata !4329, metadata !DIExpression()), !dbg !4330
  call void @_ZN6dealii7Threads16DummyThreadMutex10ScopedLockC2ERS1_(%"class.dealii::Threads::DummyThreadMutex::ScopedLock"* %lock, %"class.dealii::Threads::DummyThreadMutex"* dereferenceable(1) @_ZN6dealii12_GLOBAL__N_18log_lockE), !dbg !4330
  %0 = load double, double* %t.addr, align 8, !dbg !4331
  %double_threshold = getelementptr inbounds %"class.dealii::LogStream", %"class.dealii::LogStream"* %this1, i32 0, i32 8, !dbg !4332
  store double %0, double* %double_threshold, align 8, !dbg !4333
  call void @_ZN6dealii7Threads16DummyThreadMutex10ScopedLockD2Ev(%"class.dealii::Threads::DummyThreadMutex::ScopedLock"* %lock) #4, !dbg !4334
  ret void, !dbg !4334
}

; Function Attrs: noinline uwtable
define dso_local zeroext i1 @_ZN6dealii9LogStream18log_execution_timeEb(%"class.dealii::LogStream"* %this, i1 zeroext %flag) #0 align 2 !dbg !4335 {
entry:
  %this.addr = alloca %"class.dealii::LogStream"*, align 8
  %flag.addr = alloca i8, align 1
  %lock = alloca %"class.dealii::Threads::DummyThreadMutex::ScopedLock", align 1
  %h = alloca i8, align 1
  store %"class.dealii::LogStream"* %this, %"class.dealii::LogStream"** %this.addr, align 8
  call void @llvm.dbg.declare(metadata %"class.dealii::LogStream"** %this.addr, metadata !4336, metadata !DIExpression()), !dbg !4337
  %frombool = zext i1 %flag to i8
  store i8 %frombool, i8* %flag.addr, align 1
  call void @llvm.dbg.declare(metadata i8* %flag.addr, metadata !4338, metadata !DIExpression()), !dbg !4339
  %this1 = load %"class.dealii::LogStream"*, %"class.dealii::LogStream"** %this.addr, align 8
  call void @llvm.dbg.declare(metadata %"class.dealii::Threads::DummyThreadMutex::ScopedLock"* %lock, metadata !4340, metadata !DIExpression()), !dbg !4341
  call void @_ZN6dealii7Threads16DummyThreadMutex10ScopedLockC2ERS1_(%"class.dealii::Threads::DummyThreadMutex::ScopedLock"* %lock, %"class.dealii::Threads::DummyThreadMutex"* dereferenceable(1) @_ZN6dealii12_GLOBAL__N_18log_lockE), !dbg !4341
  call void @llvm.dbg.declare(metadata i8* %h, metadata !4342, metadata !DIExpression()), !dbg !4343
  %print_utime = getelementptr inbounds %"class.dealii::LogStream", %"class.dealii::LogStream"* %this1, i32 0, i32 5, !dbg !4344
  %0 = load i8, i8* %print_utime, align 8, !dbg !4344
  %tobool = trunc i8 %0 to i1, !dbg !4344
  %frombool2 = zext i1 %tobool to i8, !dbg !4343
  store i8 %frombool2, i8* %h, align 1, !dbg !4343
  %1 = load i8, i8* %flag.addr, align 1, !dbg !4345
  %tobool3 = trunc i8 %1 to i1, !dbg !4345
  %print_utime4 = getelementptr inbounds %"class.dealii::LogStream", %"class.dealii::LogStream"* %this1, i32 0, i32 5, !dbg !4346
  %frombool5 = zext i1 %tobool3 to i8, !dbg !4347
  store i8 %frombool5, i8* %print_utime4, align 8, !dbg !4347
  %2 = load i8, i8* %h, align 1, !dbg !4348
  %tobool6 = trunc i8 %2 to i1, !dbg !4348
  call void @_ZN6dealii7Threads16DummyThreadMutex10ScopedLockD2Ev(%"class.dealii::Threads::DummyThreadMutex::ScopedLock"* %lock) #4, !dbg !4349
  ret i1 %tobool6, !dbg !4349
}

; Function Attrs: noinline uwtable
define dso_local zeroext i1 @_ZN6dealii9LogStream20log_time_differencesEb(%"class.dealii::LogStream"* %this, i1 zeroext %flag) #0 align 2 !dbg !4350 {
entry:
  %this.addr = alloca %"class.dealii::LogStream"*, align 8
  %flag.addr = alloca i8, align 1
  %lock = alloca %"class.dealii::Threads::DummyThreadMutex::ScopedLock", align 1
  %h = alloca i8, align 1
  store %"class.dealii::LogStream"* %this, %"class.dealii::LogStream"** %this.addr, align 8
  call void @llvm.dbg.declare(metadata %"class.dealii::LogStream"** %this.addr, metadata !4351, metadata !DIExpression()), !dbg !4352
  %frombool = zext i1 %flag to i8
  store i8 %frombool, i8* %flag.addr, align 1
  call void @llvm.dbg.declare(metadata i8* %flag.addr, metadata !4353, metadata !DIExpression()), !dbg !4354
  %this1 = load %"class.dealii::LogStream"*, %"class.dealii::LogStream"** %this.addr, align 8
  call void @llvm.dbg.declare(metadata %"class.dealii::Threads::DummyThreadMutex::ScopedLock"* %lock, metadata !4355, metadata !DIExpression()), !dbg !4356
  call void @_ZN6dealii7Threads16DummyThreadMutex10ScopedLockC2ERS1_(%"class.dealii::Threads::DummyThreadMutex::ScopedLock"* %lock, %"class.dealii::Threads::DummyThreadMutex"* dereferenceable(1) @_ZN6dealii12_GLOBAL__N_18log_lockE), !dbg !4356
  call void @llvm.dbg.declare(metadata i8* %h, metadata !4357, metadata !DIExpression()), !dbg !4358
  %diff_utime = getelementptr inbounds %"class.dealii::LogStream", %"class.dealii::LogStream"* %this1, i32 0, i32 6, !dbg !4359
  %0 = load i8, i8* %diff_utime, align 1, !dbg !4359
  %tobool = trunc i8 %0 to i1, !dbg !4359
  %frombool2 = zext i1 %tobool to i8, !dbg !4358
  store i8 %frombool2, i8* %h, align 1, !dbg !4358
  %1 = load i8, i8* %flag.addr, align 1, !dbg !4360
  %tobool3 = trunc i8 %1 to i1, !dbg !4360
  %diff_utime4 = getelementptr inbounds %"class.dealii::LogStream", %"class.dealii::LogStream"* %this1, i32 0, i32 6, !dbg !4361
  %frombool5 = zext i1 %tobool3 to i8, !dbg !4362
  store i8 %frombool5, i8* %diff_utime4, align 1, !dbg !4362
  %2 = load i8, i8* %h, align 1, !dbg !4363
  %tobool6 = trunc i8 %2 to i1, !dbg !4363
  call void @_ZN6dealii7Threads16DummyThreadMutex10ScopedLockD2Ev(%"class.dealii::Threads::DummyThreadMutex::ScopedLock"* %lock) #4, !dbg !4364
  ret i1 %tobool6, !dbg !4364
}

; Function Attrs: noinline uwtable
define dso_local zeroext i1 @_ZN6dealii9LogStream13log_thread_idEb(%"class.dealii::LogStream"* %this, i1 zeroext %flag) #0 align 2 !dbg !4365 {
entry:
  %this.addr = alloca %"class.dealii::LogStream"*, align 8
  %flag.addr = alloca i8, align 1
  %lock = alloca %"class.dealii::Threads::DummyThreadMutex::ScopedLock", align 1
  %h = alloca i8, align 1
  store %"class.dealii::LogStream"* %this, %"class.dealii::LogStream"** %this.addr, align 8
  call void @llvm.dbg.declare(metadata %"class.dealii::LogStream"** %this.addr, metadata !4366, metadata !DIExpression()), !dbg !4367
  %frombool = zext i1 %flag to i8
  store i8 %frombool, i8* %flag.addr, align 1
  call void @llvm.dbg.declare(metadata i8* %flag.addr, metadata !4368, metadata !DIExpression()), !dbg !4369
  %this1 = load %"class.dealii::LogStream"*, %"class.dealii::LogStream"** %this.addr, align 8
  call void @llvm.dbg.declare(metadata %"class.dealii::Threads::DummyThreadMutex::ScopedLock"* %lock, metadata !4370, metadata !DIExpression()), !dbg !4371
  call void @_ZN6dealii7Threads16DummyThreadMutex10ScopedLockC2ERS1_(%"class.dealii::Threads::DummyThreadMutex::ScopedLock"* %lock, %"class.dealii::Threads::DummyThreadMutex"* dereferenceable(1) @_ZN6dealii12_GLOBAL__N_18log_lockE), !dbg !4371
  call void @llvm.dbg.declare(metadata i8* %h, metadata !4372, metadata !DIExpression()), !dbg !4373
  %print_thread_id = getelementptr inbounds %"class.dealii::LogStream", %"class.dealii::LogStream"* %this1, i32 0, i32 9, !dbg !4374
  %0 = load i8, i8* %print_thread_id, align 8, !dbg !4374
  %tobool = trunc i8 %0 to i1, !dbg !4374
  %frombool2 = zext i1 %tobool to i8, !dbg !4373
  store i8 %frombool2, i8* %h, align 1, !dbg !4373
  %1 = load i8, i8* %flag.addr, align 1, !dbg !4375
  %tobool3 = trunc i8 %1 to i1, !dbg !4375
  %print_thread_id4 = getelementptr inbounds %"class.dealii::LogStream", %"class.dealii::LogStream"* %this1, i32 0, i32 9, !dbg !4376
  %frombool5 = zext i1 %tobool3 to i8, !dbg !4377
  store i8 %frombool5, i8* %print_thread_id4, align 8, !dbg !4377
  %2 = load i8, i8* %h, align 1, !dbg !4378
  %tobool6 = trunc i8 %2 to i1, !dbg !4378
  call void @_ZN6dealii7Threads16DummyThreadMutex10ScopedLockD2Ev(%"class.dealii::Threads::DummyThreadMutex::ScopedLock"* %lock) #4, !dbg !4379
  ret i1 %tobool6, !dbg !4379
}

; Function Attrs: noinline nounwind uwtable
define linkonce_odr dso_local i64 @_ZNSt8ios_base5widthEl(%"class.std::ios_base"* %this, i64 %__wide) #1 comdat align 2 !dbg !4380 {
entry:
  %this.addr = alloca %"class.std::ios_base"*, align 8
  %__wide.addr = alloca i64, align 8
  %__old = alloca i64, align 8
  store %"class.std::ios_base"* %this, %"class.std::ios_base"** %this.addr, align 8
  call void @llvm.dbg.declare(metadata %"class.std::ios_base"** %this.addr, metadata !4386, metadata !DIExpression()), !dbg !4387
  store i64 %__wide, i64* %__wide.addr, align 8
  call void @llvm.dbg.declare(metadata i64* %__wide.addr, metadata !4388, metadata !DIExpression()), !dbg !4389
  %this1 = load %"class.std::ios_base"*, %"class.std::ios_base"** %this.addr, align 8
  call void @llvm.dbg.declare(metadata i64* %__old, metadata !4390, metadata !DIExpression()), !dbg !4391
  %_M_width = getelementptr inbounds %"class.std::ios_base", %"class.std::ios_base"* %this1, i32 0, i32 2, !dbg !4392
  %0 = load i64, i64* %_M_width, align 8, !dbg !4392
  store i64 %0, i64* %__old, align 8, !dbg !4391
  %1 = load i64, i64* %__wide.addr, align 8, !dbg !4393
  %_M_width2 = getelementptr inbounds %"class.std::ios_base", %"class.std::ios_base"* %this1, i32 0, i32 2, !dbg !4394
  store i64 %1, i64* %_M_width2, align 8, !dbg !4395
  %2 = load i64, i64* %__old, align 8, !dbg !4396
  ret i64 %2, !dbg !4397
}

declare dso_local dereferenceable(272) %"class.std::basic_ostream"* @_ZStlsISt11char_traitsIcEERSt13basic_ostreamIcT_ES5_c(%"class.std::basic_ostream"* dereferenceable(272), i8 signext) #2

declare dso_local dereferenceable(272) %"class.std::basic_ostream"* @_ZNSolsEd(%"class.std::basic_ostream"*, double) #2

declare dso_local dereferenceable(272) %"class.std::basic_ostream"* @_ZNSolsEj(%"class.std::basic_ostream"*, i32) #2

; Function Attrs: noinline uwtable
define dso_local i32 @_ZNK6dealii9LogStream18memory_consumptionEv(%"class.dealii::LogStream"* %this) #0 align 2 personality i8* bitcast (i32 (...)* @__gxx_personality_v0 to i8*) !dbg !4398 {
entry:
  %this.addr = alloca %"class.dealii::LogStream"*, align 8
  %mem = alloca i32, align 4
  %tmp = alloca %"class.std::stack", align 8
  %exn.slot = alloca i8*
  %ehselector.slot = alloca i32
  store %"class.dealii::LogStream"* %this, %"class.dealii::LogStream"** %this.addr, align 8
  call void @llvm.dbg.declare(metadata %"class.dealii::LogStream"** %this.addr, metadata !4399, metadata !DIExpression()), !dbg !4400
  %this1 = load %"class.dealii::LogStream"*, %"class.dealii::LogStream"** %this.addr, align 8
  call void @llvm.dbg.declare(metadata i32* %mem, metadata !4401, metadata !DIExpression()), !dbg !4402
  store i32 192, i32* %mem, align 4, !dbg !4402
  call void @llvm.dbg.declare(metadata %"class.std::stack"* %tmp, metadata !4403, metadata !DIExpression()), !dbg !4404
  call void @_ZNSt5stackINSt7__cxx1112basic_stringIcSt11char_traitsIcESaIcEEESt5dequeIS5_SaIS5_EEEC2IS8_vEEv(%"class.std::stack"* %tmp), !dbg !4404
  br label %while.cond, !dbg !4405

while.cond:                                       ; preds = %invoke.cont6, %entry
  %call = invoke i64 @_ZNKSt5stackINSt7__cxx1112basic_stringIcSt11char_traitsIcESaIcEEESt5dequeIS5_SaIS5_EEE4sizeEv(%"class.std::stack"* %tmp)
          to label %invoke.cont unwind label %lpad, !dbg !4406

invoke.cont:                                      ; preds = %while.cond
  %cmp = icmp ugt i64 %call, 0, !dbg !4407
  br i1 %cmp, label %while.body, label %while.end, !dbg !4405

while.body:                                       ; preds = %invoke.cont
  %call3 = invoke dereferenceable(32) %"class.std::__cxx11::basic_string"* @_ZNSt5stackINSt7__cxx1112basic_stringIcSt11char_traitsIcESaIcEEESt5dequeIS5_SaIS5_EEE3topEv(%"class.std::stack"* %tmp)
          to label %invoke.cont2 unwind label %lpad, !dbg !4408

invoke.cont2:                                     ; preds = %while.body
  %call5 = invoke i32 @_ZN6dealii17MemoryConsumption18memory_consumptionERKNSt7__cxx1112basic_stringIcSt11char_traitsIcESaIcEEE(%"class.std::__cxx11::basic_string"* dereferenceable(32) %call3)
          to label %invoke.cont4 unwind label %lpad, !dbg !4410

invoke.cont4:                                     ; preds = %invoke.cont2
  %0 = load i32, i32* %mem, align 4, !dbg !4411
  %add = add i32 %0, %call5, !dbg !4411
  store i32 %add, i32* %mem, align 4, !dbg !4411
  invoke void @_ZNSt5stackINSt7__cxx1112basic_stringIcSt11char_traitsIcESaIcEEESt5dequeIS5_SaIS5_EEE3popEv(%"class.std::stack"* %tmp)
          to label %invoke.cont6 unwind label %lpad, !dbg !4412

invoke.cont6:                                     ; preds = %invoke.cont4
  br label %while.cond, !dbg !4405, !llvm.loop !4413

lpad:                                             ; preds = %invoke.cont4, %invoke.cont2, %while.body, %while.cond
  %1 = landingpad { i8*, i32 }
          cleanup, !dbg !4415
  %2 = extractvalue { i8*, i32 } %1, 0, !dbg !4415
  store i8* %2, i8** %exn.slot, align 8, !dbg !4415
  %3 = extractvalue { i8*, i32 } %1, 1, !dbg !4415
  store i32 %3, i32* %ehselector.slot, align 4, !dbg !4415
  call void @_ZNSt5stackINSt7__cxx1112basic_stringIcSt11char_traitsIcESaIcEEESt5dequeIS5_SaIS5_EEED2Ev(%"class.std::stack"* %tmp) #4, !dbg !4415
  br label %eh.resume, !dbg !4415

while.end:                                        ; preds = %invoke.cont
  %4 = load i32, i32* %mem, align 4, !dbg !4416
  call void @_ZNSt5stackINSt7__cxx1112basic_stringIcSt11char_traitsIcESaIcEEESt5dequeIS5_SaIS5_EEED2Ev(%"class.std::stack"* %tmp) #4, !dbg !4415
  ret i32 %4, !dbg !4415

eh.resume:                                        ; preds = %lpad
  %exn = load i8*, i8** %exn.slot, align 8, !dbg !4415
  %sel = load i32, i32* %ehselector.slot, align 4, !dbg !4415
  %lpad.val = insertvalue { i8*, i32 } undef, i8* %exn, 0, !dbg !4415
  %lpad.val7 = insertvalue { i8*, i32 } %lpad.val, i32 %sel, 1, !dbg !4415
  resume { i8*, i32 } %lpad.val7, !dbg !4415
}

; Function Attrs: noinline nounwind uwtable
define linkonce_odr dso_local i32 @_ZN6dealii17MemoryConsumption18memory_consumptionERKNSt7__cxx1112basic_stringIcSt11char_traitsIcESaIcEEE(%"class.std::__cxx11::basic_string"* dereferenceable(32) %s) #1 comdat !dbg !4417 {
entry:
  %s.addr = alloca %"class.std::__cxx11::basic_string"*, align 8
  store %"class.std::__cxx11::basic_string"* %s, %"class.std::__cxx11::basic_string"** %s.addr, align 8
  call void @llvm.dbg.declare(metadata %"class.std::__cxx11::basic_string"** %s.addr, metadata !4422, metadata !DIExpression()), !dbg !4423
  %0 = load %"class.std::__cxx11::basic_string"*, %"class.std::__cxx11::basic_string"** %s.addr, align 8, !dbg !4424
  %call = call i64 @_ZNKSt7__cxx1112basic_stringIcSt11char_traitsIcESaIcEE6lengthEv(%"class.std::__cxx11::basic_string"* %0) #4, !dbg !4425
  %add = add i64 32, %call, !dbg !4426
  %conv = trunc i64 %add to i32, !dbg !4427
  ret i32 %conv, !dbg !4428
}

; Function Attrs: noinline nounwind uwtable
define linkonce_odr dso_local void @_ZNSt8_Rb_treeIjSt4pairIKjN5boost10shared_ptrINSt7__cxx1119basic_ostringstreamIcSt11char_traitsIcESaIcEEEEEESt10_Select1stISB_ESt4lessIjESaISB_EEC2Ev(%"class.std::_Rb_tree"* %this) unnamed_addr #1 comdat align 2 !dbg !4429 {
entry:
  %this.addr = alloca %"class.std::_Rb_tree"*, align 8
  store %"class.std::_Rb_tree"* %this, %"class.std::_Rb_tree"** %this.addr, align 8
  call void @llvm.dbg.declare(metadata %"class.std::_Rb_tree"** %this.addr, metadata !4430, metadata !DIExpression()), !dbg !4432
  %this1 = load %"class.std::_Rb_tree"*, %"class.std::_Rb_tree"** %this.addr, align 8
  %_M_impl = getelementptr inbounds %"class.std::_Rb_tree", %"class.std::_Rb_tree"* %this1, i32 0, i32 0, !dbg !4433
  call void @_ZNSt8_Rb_treeIjSt4pairIKjN5boost10shared_ptrINSt7__cxx1119basic_ostringstreamIcSt11char_traitsIcESaIcEEEEEESt10_Select1stISB_ESt4lessIjESaISB_EE13_Rb_tree_implISF_Lb1EEC2Ev(%"struct.std::_Rb_tree<unsigned int, std::pair<const unsigned int, boost::shared_ptr<std::__cxx11::basic_ostringstream<char> > >, std::_Select1st<std::pair<const unsigned int, boost::shared_ptr<std::__cxx11::basic_ostringstream<char> > > >, std::less<unsigned int>, std::allocator<std::pair<const unsigned int, boost::shared_ptr<std::__cxx11::basic_ostringstream<char> > > > >::_Rb_tree_impl"* %_M_impl) #4, !dbg !4433
  ret void, !dbg !4434
}

; Function Attrs: noinline nounwind uwtable
define linkonce_odr dso_local void @_ZNSt8_Rb_treeIjSt4pairIKjN5boost10shared_ptrINSt7__cxx1119basic_ostringstreamIcSt11char_traitsIcESaIcEEEEEESt10_Select1stISB_ESt4lessIjESaISB_EE13_Rb_tree_implISF_Lb1EEC2Ev(%"struct.std::_Rb_tree<unsigned int, std::pair<const unsigned int, boost::shared_ptr<std::__cxx11::basic_ostringstream<char> > >, std::_Select1st<std::pair<const unsigned int, boost::shared_ptr<std::__cxx11::basic_ostringstream<char> > > >, std::less<unsigned int>, std::allocator<std::pair<const unsigned int, boost::shared_ptr<std::__cxx11::basic_ostringstream<char> > > > >::_Rb_tree_impl"* %this) unnamed_addr #1 comdat align 2 !dbg !4435 {
entry:
  %this.addr = alloca %"struct.std::_Rb_tree<unsigned int, std::pair<const unsigned int, boost::shared_ptr<std::__cxx11::basic_ostringstream<char> > >, std::_Select1st<std::pair<const unsigned int, boost::shared_ptr<std::__cxx11::basic_ostringstream<char> > > >, std::less<unsigned int>, std::allocator<std::pair<const unsigned int, boost::shared_ptr<std::__cxx11::basic_ostringstream<char> > > > >::_Rb_tree_impl"*, align 8
  store %"struct.std::_Rb_tree<unsigned int, std::pair<const unsigned int, boost::shared_ptr<std::__cxx11::basic_ostringstream<char> > >, std::_Select1st<std::pair<const unsigned int, boost::shared_ptr<std::__cxx11::basic_ostringstream<char> > > >, std::less<unsigned int>, std::allocator<std::pair<const unsigned int, boost::shared_ptr<std::__cxx11::basic_ostringstream<char> > > > >::_Rb_tree_impl"* %this, %"struct.std::_Rb_tree<unsigned int, std::pair<const unsigned int, boost::shared_ptr<std::__cxx11::basic_ostringstream<char> > >, std::_Select1st<std::pair<const unsigned int, boost::shared_ptr<std::__cxx11::basic_ostringstream<char> > > >, std::less<unsigned int>, std::allocator<std::pair<const unsigned int, boost::shared_ptr<std::__cxx11::basic_ostringstream<char> > > > >::_Rb_tree_impl"** %this.addr, align 8
  call void @llvm.dbg.declare(metadata %"struct.std::_Rb_tree<unsigned int, std::pair<const unsigned int, boost::shared_ptr<std::__cxx11::basic_ostringstream<char> > >, std::_Select1st<std::pair<const unsigned int, boost::shared_ptr<std::__cxx11::basic_ostringstream<char> > > >, std::less<unsigned int>, std::allocator<std::pair<const unsigned int, boost::shared_ptr<std::__cxx11::basic_ostringstream<char> > > > >::_Rb_tree_impl"** %this.addr, metadata !4436, metadata !DIExpression()), !dbg !4438
  %this1 = load %"struct.std::_Rb_tree<unsigned int, std::pair<const unsigned int, boost::shared_ptr<std::__cxx11::basic_ostringstream<char> > >, std::_Select1st<std::pair<const unsigned int, boost::shared_ptr<std::__cxx11::basic_ostringstream<char> > > >, std::less<unsigned int>, std::allocator<std::pair<const unsigned int, boost::shared_ptr<std::__cxx11::basic_ostringstream<char> > > > >::_Rb_tree_impl"*, %"struct.std::_Rb_tree<unsigned int, std::pair<const unsigned int, boost::shared_ptr<std::__cxx11::basic_ostringstream<char> > >, std::_Select1st<std::pair<const unsigned int, boost::shared_ptr<std::__cxx11::basic_ostringstream<char> > > >, std::less<unsigned int>, std::allocator<std::pair<const unsigned int, boost::shared_ptr<std::__cxx11::basic_ostringstream<char> > > > >::_Rb_tree_impl"** %this.addr, align 8
  %0 = bitcast %"struct.std::_Rb_tree<unsigned int, std::pair<const unsigned int, boost::shared_ptr<std::__cxx11::basic_ostringstream<char> > >, std::_Select1st<std::pair<const unsigned int, boost::shared_ptr<std::__cxx11::basic_ostringstream<char> > > >, std::less<unsigned int>, std::allocator<std::pair<const unsigned int, boost::shared_ptr<std::__cxx11::basic_ostringstream<char> > > > >::_Rb_tree_impl"* %this1 to %"class.std::allocator.19"*, !dbg !4439
  call void @_ZNSaISt13_Rb_tree_nodeISt4pairIKjN5boost10shared_ptrINSt7__cxx1119basic_ostringstreamIcSt11char_traitsIcESaIcEEEEEEEEC2Ev(%"class.std::allocator.19"* %0) #4, !dbg !4440
  %1 = bitcast %"struct.std::_Rb_tree<unsigned int, std::pair<const unsigned int, boost::shared_ptr<std::__cxx11::basic_ostringstream<char> > >, std::_Select1st<std::pair<const unsigned int, boost::shared_ptr<std::__cxx11::basic_ostringstream<char> > > >, std::less<unsigned int>, std::allocator<std::pair<const unsigned int, boost::shared_ptr<std::__cxx11::basic_ostringstream<char> > > > >::_Rb_tree_impl"* %this1 to %"struct.std::_Rb_tree_key_compare"*, !dbg !4439
  call void @_ZNSt20_Rb_tree_key_compareISt4lessIjEEC2Ev(%"struct.std::_Rb_tree_key_compare"* %1) #4, !dbg !4441
  %2 = bitcast %"struct.std::_Rb_tree<unsigned int, std::pair<const unsigned int, boost::shared_ptr<std::__cxx11::basic_ostringstream<char> > >, std::_Select1st<std::pair<const unsigned int, boost::shared_ptr<std::__cxx11::basic_ostringstream<char> > > >, std::less<unsigned int>, std::allocator<std::pair<const unsigned int, boost::shared_ptr<std::__cxx11::basic_ostringstream<char> > > > >::_Rb_tree_impl"* %this1 to i8*, !dbg !4439
  %3 = getelementptr inbounds i8, i8* %2, i64 8, !dbg !4439
  %4 = bitcast i8* %3 to %"struct.std::_Rb_tree_header"*, !dbg !4439
  call void @_ZNSt15_Rb_tree_headerC2Ev(%"struct.std::_Rb_tree_header"* %4) #4, !dbg !4441
  ret void, !dbg !4442
}

; Function Attrs: noinline nounwind uwtable
define linkonce_odr dso_local void @_ZNSaISt13_Rb_tree_nodeISt4pairIKjN5boost10shared_ptrINSt7__cxx1119basic_ostringstreamIcSt11char_traitsIcESaIcEEEEEEEEC2Ev(%"class.std::allocator.19"* %this) unnamed_addr #1 comdat align 2 !dbg !4443 {
entry:
  %this.addr = alloca %"class.std::allocator.19"*, align 8
  store %"class.std::allocator.19"* %this, %"class.std::allocator.19"** %this.addr, align 8
  call void @llvm.dbg.declare(metadata %"class.std::allocator.19"** %this.addr, metadata !4444, metadata !DIExpression()), !dbg !4446
  %this1 = load %"class.std::allocator.19"*, %"class.std::allocator.19"** %this.addr, align 8
  %0 = bitcast %"class.std::allocator.19"* %this1 to %"class.__gnu_cxx::new_allocator.20"*, !dbg !4447
  call void @_ZN9__gnu_cxx13new_allocatorISt13_Rb_tree_nodeISt4pairIKjN5boost10shared_ptrINSt7__cxx1119basic_ostringstreamIcSt11char_traitsIcESaIcEEEEEEEEC2Ev(%"class.__gnu_cxx::new_allocator.20"* %0) #4, !dbg !4448
  ret void, !dbg !4449
}

; Function Attrs: noinline nounwind uwtable
define linkonce_odr dso_local void @_ZNSt20_Rb_tree_key_compareISt4lessIjEEC2Ev(%"struct.std::_Rb_tree_key_compare"* %this) unnamed_addr #1 comdat align 2 !dbg !4450 {
entry:
  %this.addr = alloca %"struct.std::_Rb_tree_key_compare"*, align 8
  store %"struct.std::_Rb_tree_key_compare"* %this, %"struct.std::_Rb_tree_key_compare"** %this.addr, align 8
  call void @llvm.dbg.declare(metadata %"struct.std::_Rb_tree_key_compare"** %this.addr, metadata !4451, metadata !DIExpression()), !dbg !4453
  %this1 = load %"struct.std::_Rb_tree_key_compare"*, %"struct.std::_Rb_tree_key_compare"** %this.addr, align 8
  %_M_key_compare = getelementptr inbounds %"struct.std::_Rb_tree_key_compare", %"struct.std::_Rb_tree_key_compare"* %this1, i32 0, i32 0, !dbg !4454
  ret void, !dbg !4455
}

; Function Attrs: noinline nounwind uwtable
define linkonce_odr dso_local void @_ZNSt15_Rb_tree_headerC2Ev(%"struct.std::_Rb_tree_header"* %this) unnamed_addr #1 comdat align 2 personality i8* bitcast (i32 (...)* @__gxx_personality_v0 to i8*) !dbg !4456 {
entry:
  %this.addr = alloca %"struct.std::_Rb_tree_header"*, align 8
  store %"struct.std::_Rb_tree_header"* %this, %"struct.std::_Rb_tree_header"** %this.addr, align 8
  call void @llvm.dbg.declare(metadata %"struct.std::_Rb_tree_header"** %this.addr, metadata !4457, metadata !DIExpression()), !dbg !4459
  %this1 = load %"struct.std::_Rb_tree_header"*, %"struct.std::_Rb_tree_header"** %this.addr, align 8
  %_M_header = getelementptr inbounds %"struct.std::_Rb_tree_header", %"struct.std::_Rb_tree_header"* %this1, i32 0, i32 0, !dbg !4460
  %_M_header2 = getelementptr inbounds %"struct.std::_Rb_tree_header", %"struct.std::_Rb_tree_header"* %this1, i32 0, i32 0, !dbg !4461
  %_M_color = getelementptr inbounds %"struct.std::_Rb_tree_node_base", %"struct.std::_Rb_tree_node_base"* %_M_header2, i32 0, i32 0, !dbg !4463
  store i32 0, i32* %_M_color, align 8, !dbg !4464
  invoke void @_ZNSt15_Rb_tree_header8_M_resetEv(%"struct.std::_Rb_tree_header"* %this1)
          to label %invoke.cont unwind label %terminate.lpad, !dbg !4465

invoke.cont:                                      ; preds = %entry
  ret void, !dbg !4466

terminate.lpad:                                   ; preds = %entry
  %0 = landingpad { i8*, i32 }
          catch i8* null, !dbg !4465
  %1 = extractvalue { i8*, i32 } %0, 0, !dbg !4465
  call void @__clang_call_terminate(i8* %1) #13, !dbg !4465
  unreachable, !dbg !4465
}

; Function Attrs: noinline nounwind uwtable
define linkonce_odr dso_local void @_ZN9__gnu_cxx13new_allocatorISt13_Rb_tree_nodeISt4pairIKjN5boost10shared_ptrINSt7__cxx1119basic_ostringstreamIcSt11char_traitsIcESaIcEEEEEEEEC2Ev(%"class.__gnu_cxx::new_allocator.20"* %this) unnamed_addr #1 comdat align 2 !dbg !4467 {
entry:
  %this.addr = alloca %"class.__gnu_cxx::new_allocator.20"*, align 8
  store %"class.__gnu_cxx::new_allocator.20"* %this, %"class.__gnu_cxx::new_allocator.20"** %this.addr, align 8
  call void @llvm.dbg.declare(metadata %"class.__gnu_cxx::new_allocator.20"** %this.addr, metadata !4468, metadata !DIExpression()), !dbg !4470
  %this1 = load %"class.__gnu_cxx::new_allocator.20"*, %"class.__gnu_cxx::new_allocator.20"** %this.addr, align 8
  ret void, !dbg !4471
}

; Function Attrs: noinline nounwind uwtable
define linkonce_odr dso_local void @_ZNSt15_Rb_tree_header8_M_resetEv(%"struct.std::_Rb_tree_header"* %this) #1 comdat align 2 !dbg !4472 {
entry:
  %this.addr = alloca %"struct.std::_Rb_tree_header"*, align 8
  store %"struct.std::_Rb_tree_header"* %this, %"struct.std::_Rb_tree_header"** %this.addr, align 8
  call void @llvm.dbg.declare(metadata %"struct.std::_Rb_tree_header"** %this.addr, metadata !4473, metadata !DIExpression()), !dbg !4474
  %this1 = load %"struct.std::_Rb_tree_header"*, %"struct.std::_Rb_tree_header"** %this.addr, align 8
  %_M_header = getelementptr inbounds %"struct.std::_Rb_tree_header", %"struct.std::_Rb_tree_header"* %this1, i32 0, i32 0, !dbg !4475
  %_M_parent = getelementptr inbounds %"struct.std::_Rb_tree_node_base", %"struct.std::_Rb_tree_node_base"* %_M_header, i32 0, i32 1, !dbg !4476
  store %"struct.std::_Rb_tree_node_base"* null, %"struct.std::_Rb_tree_node_base"** %_M_parent, align 8, !dbg !4477
  %_M_header2 = getelementptr inbounds %"struct.std::_Rb_tree_header", %"struct.std::_Rb_tree_header"* %this1, i32 0, i32 0, !dbg !4478
  %_M_header3 = getelementptr inbounds %"struct.std::_Rb_tree_header", %"struct.std::_Rb_tree_header"* %this1, i32 0, i32 0, !dbg !4479
  %_M_left = getelementptr inbounds %"struct.std::_Rb_tree_node_base", %"struct.std::_Rb_tree_node_base"* %_M_header3, i32 0, i32 2, !dbg !4480
  store %"struct.std::_Rb_tree_node_base"* %_M_header2, %"struct.std::_Rb_tree_node_base"** %_M_left, align 8, !dbg !4481
  %_M_header4 = getelementptr inbounds %"struct.std::_Rb_tree_header", %"struct.std::_Rb_tree_header"* %this1, i32 0, i32 0, !dbg !4482
  %_M_header5 = getelementptr inbounds %"struct.std::_Rb_tree_header", %"struct.std::_Rb_tree_header"* %this1, i32 0, i32 0, !dbg !4483
  %_M_right = getelementptr inbounds %"struct.std::_Rb_tree_node_base", %"struct.std::_Rb_tree_node_base"* %_M_header5, i32 0, i32 3, !dbg !4484
  store %"struct.std::_Rb_tree_node_base"* %_M_header4, %"struct.std::_Rb_tree_node_base"** %_M_right, align 8, !dbg !4485
  %_M_node_count = getelementptr inbounds %"struct.std::_Rb_tree_header", %"struct.std::_Rb_tree_header"* %this1, i32 0, i32 1, !dbg !4486
  store i64 0, i64* %_M_node_count, align 8, !dbg !4487
  ret void, !dbg !4488
}

; Function Attrs: noinline uwtable
define linkonce_odr dso_local dereferenceable(4) i32* @_ZStoRRSt13_Ios_FmtflagsS_(i32* dereferenceable(4) %__a, i32 %__b) #0 comdat !dbg !4489 {
entry:
  %__a.addr = alloca i32*, align 8
  %__b.addr = alloca i32, align 4
  store i32* %__a, i32** %__a.addr, align 8
  call void @llvm.dbg.declare(metadata i32** %__a.addr, metadata !4495, metadata !DIExpression()), !dbg !4496
  store i32 %__b, i32* %__b.addr, align 4
  call void @llvm.dbg.declare(metadata i32* %__b.addr, metadata !4497, metadata !DIExpression()), !dbg !4498
  %0 = load i32*, i32** %__a.addr, align 8, !dbg !4499
  %1 = load i32, i32* %0, align 4, !dbg !4499
  %2 = load i32, i32* %__b.addr, align 4, !dbg !4500
  %call = call i32 @_ZStorSt13_Ios_FmtflagsS_(i32 %1, i32 %2), !dbg !4501
  %3 = load i32*, i32** %__a.addr, align 8, !dbg !4502
  store i32 %call, i32* %3, align 4, !dbg !4503
  ret i32* %3, !dbg !4504
}

; Function Attrs: noinline nounwind uwtable
define linkonce_odr dso_local void @_ZNSt8_Rb_treeIjSt4pairIKjN5boost10shared_ptrINSt7__cxx1119basic_ostringstreamIcSt11char_traitsIcESaIcEEEEEESt10_Select1stISB_ESt4lessIjESaISB_EED2Ev(%"class.std::_Rb_tree"* %this) unnamed_addr #1 comdat align 2 personality i8* bitcast (i32 (...)* @__gxx_personality_v0 to i8*) !dbg !4505 {
entry:
  %this.addr = alloca %"class.std::_Rb_tree"*, align 8
  %exn.slot = alloca i8*
  %ehselector.slot = alloca i32
  store %"class.std::_Rb_tree"* %this, %"class.std::_Rb_tree"** %this.addr, align 8
  call void @llvm.dbg.declare(metadata %"class.std::_Rb_tree"** %this.addr, metadata !4506, metadata !DIExpression()), !dbg !4507
  %this1 = load %"class.std::_Rb_tree"*, %"class.std::_Rb_tree"** %this.addr, align 8
  %call = call %"struct.std::_Rb_tree_node"* @_ZNSt8_Rb_treeIjSt4pairIKjN5boost10shared_ptrINSt7__cxx1119basic_ostringstreamIcSt11char_traitsIcESaIcEEEEEESt10_Select1stISB_ESt4lessIjESaISB_EE8_M_beginEv(%"class.std::_Rb_tree"* %this1) #4, !dbg !4508
  invoke void @_ZNSt8_Rb_treeIjSt4pairIKjN5boost10shared_ptrINSt7__cxx1119basic_ostringstreamIcSt11char_traitsIcESaIcEEEEEESt10_Select1stISB_ESt4lessIjESaISB_EE8_M_eraseEPSt13_Rb_tree_nodeISB_E(%"class.std::_Rb_tree"* %this1, %"struct.std::_Rb_tree_node"* %call)
          to label %invoke.cont unwind label %lpad, !dbg !4510

invoke.cont:                                      ; preds = %entry
  %_M_impl = getelementptr inbounds %"class.std::_Rb_tree", %"class.std::_Rb_tree"* %this1, i32 0, i32 0, !dbg !4511
  call void @_ZNSt8_Rb_treeIjSt4pairIKjN5boost10shared_ptrINSt7__cxx1119basic_ostringstreamIcSt11char_traitsIcESaIcEEEEEESt10_Select1stISB_ESt4lessIjESaISB_EE13_Rb_tree_implISF_Lb1EED2Ev(%"struct.std::_Rb_tree<unsigned int, std::pair<const unsigned int, boost::shared_ptr<std::__cxx11::basic_ostringstream<char> > >, std::_Select1st<std::pair<const unsigned int, boost::shared_ptr<std::__cxx11::basic_ostringstream<char> > > >, std::less<unsigned int>, std::allocator<std::pair<const unsigned int, boost::shared_ptr<std::__cxx11::basic_ostringstream<char> > > > >::_Rb_tree_impl"* %_M_impl) #4, !dbg !4511
  ret void, !dbg !4512

lpad:                                             ; preds = %entry
  %0 = landingpad { i8*, i32 }
          catch i8* null, !dbg !4511
  %1 = extractvalue { i8*, i32 } %0, 0, !dbg !4511
  store i8* %1, i8** %exn.slot, align 8, !dbg !4511
  %2 = extractvalue { i8*, i32 } %0, 1, !dbg !4511
  store i32 %2, i32* %ehselector.slot, align 4, !dbg !4511
  %_M_impl2 = getelementptr inbounds %"class.std::_Rb_tree", %"class.std::_Rb_tree"* %this1, i32 0, i32 0, !dbg !4511
  call void @_ZNSt8_Rb_treeIjSt4pairIKjN5boost10shared_ptrINSt7__cxx1119basic_ostringstreamIcSt11char_traitsIcESaIcEEEEEESt10_Select1stISB_ESt4lessIjESaISB_EE13_Rb_tree_implISF_Lb1EED2Ev(%"struct.std::_Rb_tree<unsigned int, std::pair<const unsigned int, boost::shared_ptr<std::__cxx11::basic_ostringstream<char> > >, std::_Select1st<std::pair<const unsigned int, boost::shared_ptr<std::__cxx11::basic_ostringstream<char> > > >, std::less<unsigned int>, std::allocator<std::pair<const unsigned int, boost::shared_ptr<std::__cxx11::basic_ostringstream<char> > > > >::_Rb_tree_impl"* %_M_impl2) #4, !dbg !4511
  br label %terminate.handler, !dbg !4511

terminate.handler:                                ; preds = %lpad
  %exn = load i8*, i8** %exn.slot, align 8, !dbg !4511
  call void @__clang_call_terminate(i8* %exn) #13, !dbg !4511
  unreachable, !dbg !4511
}

; Function Attrs: noinline uwtable
define linkonce_odr dso_local void @_ZNSt8_Rb_treeIjSt4pairIKjN5boost10shared_ptrINSt7__cxx1119basic_ostringstreamIcSt11char_traitsIcESaIcEEEEEESt10_Select1stISB_ESt4lessIjESaISB_EE8_M_eraseEPSt13_Rb_tree_nodeISB_E(%"class.std::_Rb_tree"* %this, %"struct.std::_Rb_tree_node"* %__x) #0 comdat align 2 !dbg !4513 {
entry:
  %this.addr = alloca %"class.std::_Rb_tree"*, align 8
  %__x.addr = alloca %"struct.std::_Rb_tree_node"*, align 8
  %__y = alloca %"struct.std::_Rb_tree_node"*, align 8
  store %"class.std::_Rb_tree"* %this, %"class.std::_Rb_tree"** %this.addr, align 8
  call void @llvm.dbg.declare(metadata %"class.std::_Rb_tree"** %this.addr, metadata !4514, metadata !DIExpression()), !dbg !4515
  store %"struct.std::_Rb_tree_node"* %__x, %"struct.std::_Rb_tree_node"** %__x.addr, align 8
  call void @llvm.dbg.declare(metadata %"struct.std::_Rb_tree_node"** %__x.addr, metadata !4516, metadata !DIExpression()), !dbg !4517
  %this1 = load %"class.std::_Rb_tree"*, %"class.std::_Rb_tree"** %this.addr, align 8
  br label %while.cond, !dbg !4518

while.cond:                                       ; preds = %while.body, %entry
  %0 = load %"struct.std::_Rb_tree_node"*, %"struct.std::_Rb_tree_node"** %__x.addr, align 8, !dbg !4519
  %cmp = icmp ne %"struct.std::_Rb_tree_node"* %0, null, !dbg !4520
  br i1 %cmp, label %while.body, label %while.end, !dbg !4518

while.body:                                       ; preds = %while.cond
  %1 = load %"struct.std::_Rb_tree_node"*, %"struct.std::_Rb_tree_node"** %__x.addr, align 8, !dbg !4521
  %2 = bitcast %"struct.std::_Rb_tree_node"* %1 to %"struct.std::_Rb_tree_node_base"*, !dbg !4521
  %call = call %"struct.std::_Rb_tree_node"* @_ZNSt8_Rb_treeIjSt4pairIKjN5boost10shared_ptrINSt7__cxx1119basic_ostringstreamIcSt11char_traitsIcESaIcEEEEEESt10_Select1stISB_ESt4lessIjESaISB_EE8_S_rightEPSt18_Rb_tree_node_base(%"struct.std::_Rb_tree_node_base"* %2) #4, !dbg !4523
  call void @_ZNSt8_Rb_treeIjSt4pairIKjN5boost10shared_ptrINSt7__cxx1119basic_ostringstreamIcSt11char_traitsIcESaIcEEEEEESt10_Select1stISB_ESt4lessIjESaISB_EE8_M_eraseEPSt13_Rb_tree_nodeISB_E(%"class.std::_Rb_tree"* %this1, %"struct.std::_Rb_tree_node"* %call), !dbg !4524
  call void @llvm.dbg.declare(metadata %"struct.std::_Rb_tree_node"** %__y, metadata !4525, metadata !DIExpression()), !dbg !4526
  %3 = load %"struct.std::_Rb_tree_node"*, %"struct.std::_Rb_tree_node"** %__x.addr, align 8, !dbg !4527
  %4 = bitcast %"struct.std::_Rb_tree_node"* %3 to %"struct.std::_Rb_tree_node_base"*, !dbg !4527
  %call2 = call %"struct.std::_Rb_tree_node"* @_ZNSt8_Rb_treeIjSt4pairIKjN5boost10shared_ptrINSt7__cxx1119basic_ostringstreamIcSt11char_traitsIcESaIcEEEEEESt10_Select1stISB_ESt4lessIjESaISB_EE7_S_leftEPSt18_Rb_tree_node_base(%"struct.std::_Rb_tree_node_base"* %4) #4, !dbg !4528
  store %"struct.std::_Rb_tree_node"* %call2, %"struct.std::_Rb_tree_node"** %__y, align 8, !dbg !4526
  %5 = load %"struct.std::_Rb_tree_node"*, %"struct.std::_Rb_tree_node"** %__x.addr, align 8, !dbg !4529
  call void @_ZNSt8_Rb_treeIjSt4pairIKjN5boost10shared_ptrINSt7__cxx1119basic_ostringstreamIcSt11char_traitsIcESaIcEEEEEESt10_Select1stISB_ESt4lessIjESaISB_EE12_M_drop_nodeEPSt13_Rb_tree_nodeISB_E(%"class.std::_Rb_tree"* %this1, %"struct.std::_Rb_tree_node"* %5) #4, !dbg !4530
  %6 = load %"struct.std::_Rb_tree_node"*, %"struct.std::_Rb_tree_node"** %__y, align 8, !dbg !4531
  store %"struct.std::_Rb_tree_node"* %6, %"struct.std::_Rb_tree_node"** %__x.addr, align 8, !dbg !4532
  br label %while.cond, !dbg !4518, !llvm.loop !4533

while.end:                                        ; preds = %while.cond
  ret void, !dbg !4535
}

; Function Attrs: noinline nounwind uwtable
define linkonce_odr dso_local %"struct.std::_Rb_tree_node"* @_ZNSt8_Rb_treeIjSt4pairIKjN5boost10shared_ptrINSt7__cxx1119basic_ostringstreamIcSt11char_traitsIcESaIcEEEEEESt10_Select1stISB_ESt4lessIjESaISB_EE8_M_beginEv(%"class.std::_Rb_tree"* %this) #1 comdat align 2 !dbg !4536 {
entry:
  %this.addr = alloca %"class.std::_Rb_tree"*, align 8
  store %"class.std::_Rb_tree"* %this, %"class.std::_Rb_tree"** %this.addr, align 8
  call void @llvm.dbg.declare(metadata %"class.std::_Rb_tree"** %this.addr, metadata !4537, metadata !DIExpression()), !dbg !4538
  %this1 = load %"class.std::_Rb_tree"*, %"class.std::_Rb_tree"** %this.addr, align 8
  %_M_impl = getelementptr inbounds %"class.std::_Rb_tree", %"class.std::_Rb_tree"* %this1, i32 0, i32 0, !dbg !4539
  %0 = bitcast %"struct.std::_Rb_tree<unsigned int, std::pair<const unsigned int, boost::shared_ptr<std::__cxx11::basic_ostringstream<char> > >, std::_Select1st<std::pair<const unsigned int, boost::shared_ptr<std::__cxx11::basic_ostringstream<char> > > >, std::less<unsigned int>, std::allocator<std::pair<const unsigned int, boost::shared_ptr<std::__cxx11::basic_ostringstream<char> > > > >::_Rb_tree_impl"* %_M_impl to i8*, !dbg !4540
  %add.ptr = getelementptr inbounds i8, i8* %0, i64 8, !dbg !4540
  %1 = bitcast i8* %add.ptr to %"struct.std::_Rb_tree_header"*, !dbg !4540
  %_M_header = getelementptr inbounds %"struct.std::_Rb_tree_header", %"struct.std::_Rb_tree_header"* %1, i32 0, i32 0, !dbg !4541
  %_M_parent = getelementptr inbounds %"struct.std::_Rb_tree_node_base", %"struct.std::_Rb_tree_node_base"* %_M_header, i32 0, i32 1, !dbg !4542
  %2 = load %"struct.std::_Rb_tree_node_base"*, %"struct.std::_Rb_tree_node_base"** %_M_parent, align 8, !dbg !4542
  %3 = bitcast %"struct.std::_Rb_tree_node_base"* %2 to %"struct.std::_Rb_tree_node"*, !dbg !4543
  ret %"struct.std::_Rb_tree_node"* %3, !dbg !4544
}

; Function Attrs: noinline nounwind uwtable
define linkonce_odr dso_local void @_ZNSt8_Rb_treeIjSt4pairIKjN5boost10shared_ptrINSt7__cxx1119basic_ostringstreamIcSt11char_traitsIcESaIcEEEEEESt10_Select1stISB_ESt4lessIjESaISB_EE13_Rb_tree_implISF_Lb1EED2Ev(%"struct.std::_Rb_tree<unsigned int, std::pair<const unsigned int, boost::shared_ptr<std::__cxx11::basic_ostringstream<char> > >, std::_Select1st<std::pair<const unsigned int, boost::shared_ptr<std::__cxx11::basic_ostringstream<char> > > >, std::less<unsigned int>, std::allocator<std::pair<const unsigned int, boost::shared_ptr<std::__cxx11::basic_ostringstream<char> > > > >::_Rb_tree_impl"* %this) unnamed_addr #1 comdat align 2 !dbg !4545 {
entry:
  %this.addr = alloca %"struct.std::_Rb_tree<unsigned int, std::pair<const unsigned int, boost::shared_ptr<std::__cxx11::basic_ostringstream<char> > >, std::_Select1st<std::pair<const unsigned int, boost::shared_ptr<std::__cxx11::basic_ostringstream<char> > > >, std::less<unsigned int>, std::allocator<std::pair<const unsigned int, boost::shared_ptr<std::__cxx11::basic_ostringstream<char> > > > >::_Rb_tree_impl"*, align 8
  store %"struct.std::_Rb_tree<unsigned int, std::pair<const unsigned int, boost::shared_ptr<std::__cxx11::basic_ostringstream<char> > >, std::_Select1st<std::pair<const unsigned int, boost::shared_ptr<std::__cxx11::basic_ostringstream<char> > > >, std::less<unsigned int>, std::allocator<std::pair<const unsigned int, boost::shared_ptr<std::__cxx11::basic_ostringstream<char> > > > >::_Rb_tree_impl"* %this, %"struct.std::_Rb_tree<unsigned int, std::pair<const unsigned int, boost::shared_ptr<std::__cxx11::basic_ostringstream<char> > >, std::_Select1st<std::pair<const unsigned int, boost::shared_ptr<std::__cxx11::basic_ostringstream<char> > > >, std::less<unsigned int>, std::allocator<std::pair<const unsigned int, boost::shared_ptr<std::__cxx11::basic_ostringstream<char> > > > >::_Rb_tree_impl"** %this.addr, align 8
  call void @llvm.dbg.declare(metadata %"struct.std::_Rb_tree<unsigned int, std::pair<const unsigned int, boost::shared_ptr<std::__cxx11::basic_ostringstream<char> > >, std::_Select1st<std::pair<const unsigned int, boost::shared_ptr<std::__cxx11::basic_ostringstream<char> > > >, std::less<unsigned int>, std::allocator<std::pair<const unsigned int, boost::shared_ptr<std::__cxx11::basic_ostringstream<char> > > > >::_Rb_tree_impl"** %this.addr, metadata !4547, metadata !DIExpression()), !dbg !4548
  %this1 = load %"struct.std::_Rb_tree<unsigned int, std::pair<const unsigned int, boost::shared_ptr<std::__cxx11::basic_ostringstream<char> > >, std::_Select1st<std::pair<const unsigned int, boost::shared_ptr<std::__cxx11::basic_ostringstream<char> > > >, std::less<unsigned int>, std::allocator<std::pair<const unsigned int, boost::shared_ptr<std::__cxx11::basic_ostringstream<char> > > > >::_Rb_tree_impl"*, %"struct.std::_Rb_tree<unsigned int, std::pair<const unsigned int, boost::shared_ptr<std::__cxx11::basic_ostringstream<char> > >, std::_Select1st<std::pair<const unsigned int, boost::shared_ptr<std::__cxx11::basic_ostringstream<char> > > >, std::less<unsigned int>, std::allocator<std::pair<const unsigned int, boost::shared_ptr<std::__cxx11::basic_ostringstream<char> > > > >::_Rb_tree_impl"** %this.addr, align 8
  %0 = bitcast %"struct.std::_Rb_tree<unsigned int, std::pair<const unsigned int, boost::shared_ptr<std::__cxx11::basic_ostringstream<char> > >, std::_Select1st<std::pair<const unsigned int, boost::shared_ptr<std::__cxx11::basic_ostringstream<char> > > >, std::less<unsigned int>, std::allocator<std::pair<const unsigned int, boost::shared_ptr<std::__cxx11::basic_ostringstream<char> > > > >::_Rb_tree_impl"* %this1 to %"class.std::allocator.19"*, !dbg !4549
  call void @_ZNSaISt13_Rb_tree_nodeISt4pairIKjN5boost10shared_ptrINSt7__cxx1119basic_ostringstreamIcSt11char_traitsIcESaIcEEEEEEEED2Ev(%"class.std::allocator.19"* %0) #4, !dbg !4549
  ret void, !dbg !4551
}

; Function Attrs: noinline nounwind uwtable
define linkonce_odr dso_local %"struct.std::_Rb_tree_node"* @_ZNSt8_Rb_treeIjSt4pairIKjN5boost10shared_ptrINSt7__cxx1119basic_ostringstreamIcSt11char_traitsIcESaIcEEEEEESt10_Select1stISB_ESt4lessIjESaISB_EE8_S_rightEPSt18_Rb_tree_node_base(%"struct.std::_Rb_tree_node_base"* %__x) #1 comdat align 2 !dbg !4552 {
entry:
  %__x.addr = alloca %"struct.std::_Rb_tree_node_base"*, align 8
  store %"struct.std::_Rb_tree_node_base"* %__x, %"struct.std::_Rb_tree_node_base"** %__x.addr, align 8
  call void @llvm.dbg.declare(metadata %"struct.std::_Rb_tree_node_base"** %__x.addr, metadata !4553, metadata !DIExpression()), !dbg !4554
  %0 = load %"struct.std::_Rb_tree_node_base"*, %"struct.std::_Rb_tree_node_base"** %__x.addr, align 8, !dbg !4555
  %_M_right = getelementptr inbounds %"struct.std::_Rb_tree_node_base", %"struct.std::_Rb_tree_node_base"* %0, i32 0, i32 3, !dbg !4556
  %1 = load %"struct.std::_Rb_tree_node_base"*, %"struct.std::_Rb_tree_node_base"** %_M_right, align 8, !dbg !4556
  %2 = bitcast %"struct.std::_Rb_tree_node_base"* %1 to %"struct.std::_Rb_tree_node"*, !dbg !4557
  ret %"struct.std::_Rb_tree_node"* %2, !dbg !4558
}

; Function Attrs: noinline nounwind uwtable
define linkonce_odr dso_local %"struct.std::_Rb_tree_node"* @_ZNSt8_Rb_treeIjSt4pairIKjN5boost10shared_ptrINSt7__cxx1119basic_ostringstreamIcSt11char_traitsIcESaIcEEEEEESt10_Select1stISB_ESt4lessIjESaISB_EE7_S_leftEPSt18_Rb_tree_node_base(%"struct.std::_Rb_tree_node_base"* %__x) #1 comdat align 2 !dbg !4559 {
entry:
  %__x.addr = alloca %"struct.std::_Rb_tree_node_base"*, align 8
  store %"struct.std::_Rb_tree_node_base"* %__x, %"struct.std::_Rb_tree_node_base"** %__x.addr, align 8
  call void @llvm.dbg.declare(metadata %"struct.std::_Rb_tree_node_base"** %__x.addr, metadata !4560, metadata !DIExpression()), !dbg !4561
  %0 = load %"struct.std::_Rb_tree_node_base"*, %"struct.std::_Rb_tree_node_base"** %__x.addr, align 8, !dbg !4562
  %_M_left = getelementptr inbounds %"struct.std::_Rb_tree_node_base", %"struct.std::_Rb_tree_node_base"* %0, i32 0, i32 2, !dbg !4563
  %1 = load %"struct.std::_Rb_tree_node_base"*, %"struct.std::_Rb_tree_node_base"** %_M_left, align 8, !dbg !4563
  %2 = bitcast %"struct.std::_Rb_tree_node_base"* %1 to %"struct.std::_Rb_tree_node"*, !dbg !4564
  ret %"struct.std::_Rb_tree_node"* %2, !dbg !4565
}

; Function Attrs: noinline nounwind uwtable
define linkonce_odr dso_local void @_ZNSt8_Rb_treeIjSt4pairIKjN5boost10shared_ptrINSt7__cxx1119basic_ostringstreamIcSt11char_traitsIcESaIcEEEEEESt10_Select1stISB_ESt4lessIjESaISB_EE12_M_drop_nodeEPSt13_Rb_tree_nodeISB_E(%"class.std::_Rb_tree"* %this, %"struct.std::_Rb_tree_node"* %__p) #1 comdat align 2 !dbg !4566 {
entry:
  %this.addr = alloca %"class.std::_Rb_tree"*, align 8
  %__p.addr = alloca %"struct.std::_Rb_tree_node"*, align 8
  store %"class.std::_Rb_tree"* %this, %"class.std::_Rb_tree"** %this.addr, align 8
  call void @llvm.dbg.declare(metadata %"class.std::_Rb_tree"** %this.addr, metadata !4567, metadata !DIExpression()), !dbg !4568
  store %"struct.std::_Rb_tree_node"* %__p, %"struct.std::_Rb_tree_node"** %__p.addr, align 8
  call void @llvm.dbg.declare(metadata %"struct.std::_Rb_tree_node"** %__p.addr, metadata !4569, metadata !DIExpression()), !dbg !4570
  %this1 = load %"class.std::_Rb_tree"*, %"class.std::_Rb_tree"** %this.addr, align 8
  %0 = load %"struct.std::_Rb_tree_node"*, %"struct.std::_Rb_tree_node"** %__p.addr, align 8, !dbg !4571
  call void @_ZNSt8_Rb_treeIjSt4pairIKjN5boost10shared_ptrINSt7__cxx1119basic_ostringstreamIcSt11char_traitsIcESaIcEEEEEESt10_Select1stISB_ESt4lessIjESaISB_EE15_M_destroy_nodeEPSt13_Rb_tree_nodeISB_E(%"class.std::_Rb_tree"* %this1, %"struct.std::_Rb_tree_node"* %0) #4, !dbg !4572
  %1 = load %"struct.std::_Rb_tree_node"*, %"struct.std::_Rb_tree_node"** %__p.addr, align 8, !dbg !4573
  call void @_ZNSt8_Rb_treeIjSt4pairIKjN5boost10shared_ptrINSt7__cxx1119basic_ostringstreamIcSt11char_traitsIcESaIcEEEEEESt10_Select1stISB_ESt4lessIjESaISB_EE11_M_put_nodeEPSt13_Rb_tree_nodeISB_E(%"class.std::_Rb_tree"* %this1, %"struct.std::_Rb_tree_node"* %1) #4, !dbg !4574
  ret void, !dbg !4575
}

; Function Attrs: noinline nounwind uwtable
define linkonce_odr dso_local void @_ZNSt8_Rb_treeIjSt4pairIKjN5boost10shared_ptrINSt7__cxx1119basic_ostringstreamIcSt11char_traitsIcESaIcEEEEEESt10_Select1stISB_ESt4lessIjESaISB_EE15_M_destroy_nodeEPSt13_Rb_tree_nodeISB_E(%"class.std::_Rb_tree"* %this, %"struct.std::_Rb_tree_node"* %__p) #1 comdat align 2 personality i8* bitcast (i32 (...)* @__gxx_personality_v0 to i8*) !dbg !4576 {
entry:
  %this.addr = alloca %"class.std::_Rb_tree"*, align 8
  %__p.addr = alloca %"struct.std::_Rb_tree_node"*, align 8
  store %"class.std::_Rb_tree"* %this, %"class.std::_Rb_tree"** %this.addr, align 8
  call void @llvm.dbg.declare(metadata %"class.std::_Rb_tree"** %this.addr, metadata !4577, metadata !DIExpression()), !dbg !4578
  store %"struct.std::_Rb_tree_node"* %__p, %"struct.std::_Rb_tree_node"** %__p.addr, align 8
  call void @llvm.dbg.declare(metadata %"struct.std::_Rb_tree_node"** %__p.addr, metadata !4579, metadata !DIExpression()), !dbg !4580
  %this1 = load %"class.std::_Rb_tree"*, %"class.std::_Rb_tree"** %this.addr, align 8
  %call = call dereferenceable(1) %"class.std::allocator.19"* @_ZNSt8_Rb_treeIjSt4pairIKjN5boost10shared_ptrINSt7__cxx1119basic_ostringstreamIcSt11char_traitsIcESaIcEEEEEESt10_Select1stISB_ESt4lessIjESaISB_EE21_M_get_Node_allocatorEv(%"class.std::_Rb_tree"* %this1) #4, !dbg !4581
  %0 = load %"struct.std::_Rb_tree_node"*, %"struct.std::_Rb_tree_node"** %__p.addr, align 8, !dbg !4582
  %call2 = invoke %"struct.std::pair"* @_ZNSt13_Rb_tree_nodeISt4pairIKjN5boost10shared_ptrINSt7__cxx1119basic_ostringstreamIcSt11char_traitsIcESaIcEEEEEEE9_M_valptrEv(%"struct.std::_Rb_tree_node"* %0)
          to label %invoke.cont unwind label %terminate.lpad, !dbg !4583

invoke.cont:                                      ; preds = %entry
  call void @_ZNSt16allocator_traitsISaISt13_Rb_tree_nodeISt4pairIKjN5boost10shared_ptrINSt7__cxx1119basic_ostringstreamIcSt11char_traitsIcESaIcEEEEEEEEE7destroyISC_EEvRSE_PT_(%"class.std::allocator.19"* dereferenceable(1) %call, %"struct.std::pair"* %call2) #4, !dbg !4584
  %1 = load %"struct.std::_Rb_tree_node"*, %"struct.std::_Rb_tree_node"** %__p.addr, align 8, !dbg !4585
  ret void, !dbg !4586

terminate.lpad:                                   ; preds = %entry
  %2 = landingpad { i8*, i32 }
          catch i8* null, !dbg !4583
  %3 = extractvalue { i8*, i32 } %2, 0, !dbg !4583
  call void @__clang_call_terminate(i8* %3) #13, !dbg !4583
  unreachable, !dbg !4583
}

; Function Attrs: noinline nounwind uwtable
define linkonce_odr dso_local void @_ZNSt8_Rb_treeIjSt4pairIKjN5boost10shared_ptrINSt7__cxx1119basic_ostringstreamIcSt11char_traitsIcESaIcEEEEEESt10_Select1stISB_ESt4lessIjESaISB_EE11_M_put_nodeEPSt13_Rb_tree_nodeISB_E(%"class.std::_Rb_tree"* %this, %"struct.std::_Rb_tree_node"* %__p) #1 comdat align 2 personality i8* bitcast (i32 (...)* @__gxx_personality_v0 to i8*) !dbg !4587 {
entry:
  %this.addr = alloca %"class.std::_Rb_tree"*, align 8
  %__p.addr = alloca %"struct.std::_Rb_tree_node"*, align 8
  store %"class.std::_Rb_tree"* %this, %"class.std::_Rb_tree"** %this.addr, align 8
  call void @llvm.dbg.declare(metadata %"class.std::_Rb_tree"** %this.addr, metadata !4588, metadata !DIExpression()), !dbg !4589
  store %"struct.std::_Rb_tree_node"* %__p, %"struct.std::_Rb_tree_node"** %__p.addr, align 8
  call void @llvm.dbg.declare(metadata %"struct.std::_Rb_tree_node"** %__p.addr, metadata !4590, metadata !DIExpression()), !dbg !4591
  %this1 = load %"class.std::_Rb_tree"*, %"class.std::_Rb_tree"** %this.addr, align 8
  %call = call dereferenceable(1) %"class.std::allocator.19"* @_ZNSt8_Rb_treeIjSt4pairIKjN5boost10shared_ptrINSt7__cxx1119basic_ostringstreamIcSt11char_traitsIcESaIcEEEEEESt10_Select1stISB_ESt4lessIjESaISB_EE21_M_get_Node_allocatorEv(%"class.std::_Rb_tree"* %this1) #4, !dbg !4592
  %0 = load %"struct.std::_Rb_tree_node"*, %"struct.std::_Rb_tree_node"** %__p.addr, align 8, !dbg !4593
  invoke void @_ZNSt16allocator_traitsISaISt13_Rb_tree_nodeISt4pairIKjN5boost10shared_ptrINSt7__cxx1119basic_ostringstreamIcSt11char_traitsIcESaIcEEEEEEEEE10deallocateERSE_PSD_m(%"class.std::allocator.19"* dereferenceable(1) %call, %"struct.std::_Rb_tree_node"* %0, i64 1)
          to label %invoke.cont unwind label %terminate.lpad, !dbg !4594

invoke.cont:                                      ; preds = %entry
  ret void, !dbg !4595

terminate.lpad:                                   ; preds = %entry
  %1 = landingpad { i8*, i32 }
          catch i8* null, !dbg !4594
  %2 = extractvalue { i8*, i32 } %1, 0, !dbg !4594
  call void @__clang_call_terminate(i8* %2) #13, !dbg !4594
  unreachable, !dbg !4594
}

; Function Attrs: noinline nounwind uwtable
define linkonce_odr dso_local void @_ZNSt16allocator_traitsISaISt13_Rb_tree_nodeISt4pairIKjN5boost10shared_ptrINSt7__cxx1119basic_ostringstreamIcSt11char_traitsIcESaIcEEEEEEEEE7destroyISC_EEvRSE_PT_(%"class.std::allocator.19"* dereferenceable(1) %__a, %"struct.std::pair"* %__p) #1 comdat align 2 !dbg !4596 {
entry:
  %__a.addr = alloca %"class.std::allocator.19"*, align 8
  %__p.addr = alloca %"struct.std::pair"*, align 8
  store %"class.std::allocator.19"* %__a, %"class.std::allocator.19"** %__a.addr, align 8
  call void @llvm.dbg.declare(metadata %"class.std::allocator.19"** %__a.addr, metadata !4627, metadata !DIExpression()), !dbg !4628
  store %"struct.std::pair"* %__p, %"struct.std::pair"** %__p.addr, align 8
  call void @llvm.dbg.declare(metadata %"struct.std::pair"** %__p.addr, metadata !4629, metadata !DIExpression()), !dbg !4630
  %0 = load %"class.std::allocator.19"*, %"class.std::allocator.19"** %__a.addr, align 8, !dbg !4631
  %1 = bitcast %"class.std::allocator.19"* %0 to %"class.__gnu_cxx::new_allocator.20"*, !dbg !4631
  %2 = load %"struct.std::pair"*, %"struct.std::pair"** %__p.addr, align 8, !dbg !4632
  call void @_ZN9__gnu_cxx13new_allocatorISt13_Rb_tree_nodeISt4pairIKjN5boost10shared_ptrINSt7__cxx1119basic_ostringstreamIcSt11char_traitsIcESaIcEEEEEEEE7destroyISD_EEvPT_(%"class.__gnu_cxx::new_allocator.20"* %1, %"struct.std::pair"* %2) #4, !dbg !4633
  ret void, !dbg !4634
}

; Function Attrs: noinline nounwind uwtable
define linkonce_odr dso_local dereferenceable(1) %"class.std::allocator.19"* @_ZNSt8_Rb_treeIjSt4pairIKjN5boost10shared_ptrINSt7__cxx1119basic_ostringstreamIcSt11char_traitsIcESaIcEEEEEESt10_Select1stISB_ESt4lessIjESaISB_EE21_M_get_Node_allocatorEv(%"class.std::_Rb_tree"* %this) #1 comdat align 2 !dbg !4635 {
entry:
  %this.addr = alloca %"class.std::_Rb_tree"*, align 8
  store %"class.std::_Rb_tree"* %this, %"class.std::_Rb_tree"** %this.addr, align 8
  call void @llvm.dbg.declare(metadata %"class.std::_Rb_tree"** %this.addr, metadata !4636, metadata !DIExpression()), !dbg !4637
  %this1 = load %"class.std::_Rb_tree"*, %"class.std::_Rb_tree"** %this.addr, align 8
  %_M_impl = getelementptr inbounds %"class.std::_Rb_tree", %"class.std::_Rb_tree"* %this1, i32 0, i32 0, !dbg !4638
  %0 = bitcast %"struct.std::_Rb_tree<unsigned int, std::pair<const unsigned int, boost::shared_ptr<std::__cxx11::basic_ostringstream<char> > >, std::_Select1st<std::pair<const unsigned int, boost::shared_ptr<std::__cxx11::basic_ostringstream<char> > > >, std::less<unsigned int>, std::allocator<std::pair<const unsigned int, boost::shared_ptr<std::__cxx11::basic_ostringstream<char> > > > >::_Rb_tree_impl"* %_M_impl to %"class.std::allocator.19"*, !dbg !4639
  ret %"class.std::allocator.19"* %0, !dbg !4640
}

; Function Attrs: noinline nounwind uwtable
define linkonce_odr dso_local %"struct.std::pair"* @_ZNSt13_Rb_tree_nodeISt4pairIKjN5boost10shared_ptrINSt7__cxx1119basic_ostringstreamIcSt11char_traitsIcESaIcEEEEEEE9_M_valptrEv(%"struct.std::_Rb_tree_node"* %this) #1 comdat align 2 !dbg !4641 {
entry:
  %this.addr = alloca %"struct.std::_Rb_tree_node"*, align 8
  store %"struct.std::_Rb_tree_node"* %this, %"struct.std::_Rb_tree_node"** %this.addr, align 8
  call void @llvm.dbg.declare(metadata %"struct.std::_Rb_tree_node"** %this.addr, metadata !4642, metadata !DIExpression()), !dbg !4643
  %this1 = load %"struct.std::_Rb_tree_node"*, %"struct.std::_Rb_tree_node"** %this.addr, align 8
  %_M_storage = getelementptr inbounds %"struct.std::_Rb_tree_node", %"struct.std::_Rb_tree_node"* %this1, i32 0, i32 1, !dbg !4644
  %call = call %"struct.std::pair"* @_ZN9__gnu_cxx16__aligned_membufISt4pairIKjN5boost10shared_ptrINSt7__cxx1119basic_ostringstreamIcSt11char_traitsIcESaIcEEEEEEE6_M_ptrEv(%"struct.__gnu_cxx::__aligned_membuf"* %_M_storage) #4, !dbg !4645
  ret %"struct.std::pair"* %call, !dbg !4646
}

; Function Attrs: noinline nounwind uwtable
define linkonce_odr dso_local void @_ZN9__gnu_cxx13new_allocatorISt13_Rb_tree_nodeISt4pairIKjN5boost10shared_ptrINSt7__cxx1119basic_ostringstreamIcSt11char_traitsIcESaIcEEEEEEEE7destroyISD_EEvPT_(%"class.__gnu_cxx::new_allocator.20"* %this, %"struct.std::pair"* %__p) #1 comdat align 2 !dbg !4647 {
entry:
  %this.addr = alloca %"class.__gnu_cxx::new_allocator.20"*, align 8
  %__p.addr = alloca %"struct.std::pair"*, align 8
  store %"class.__gnu_cxx::new_allocator.20"* %this, %"class.__gnu_cxx::new_allocator.20"** %this.addr, align 8
  call void @llvm.dbg.declare(metadata %"class.__gnu_cxx::new_allocator.20"** %this.addr, metadata !4651, metadata !DIExpression()), !dbg !4652
  store %"struct.std::pair"* %__p, %"struct.std::pair"** %__p.addr, align 8
  call void @llvm.dbg.declare(metadata %"struct.std::pair"** %__p.addr, metadata !4653, metadata !DIExpression()), !dbg !4654
  %this1 = load %"class.__gnu_cxx::new_allocator.20"*, %"class.__gnu_cxx::new_allocator.20"** %this.addr, align 8
  %0 = load %"struct.std::pair"*, %"struct.std::pair"** %__p.addr, align 8, !dbg !4655
  call void @_ZNSt4pairIKjN5boost10shared_ptrINSt7__cxx1119basic_ostringstreamIcSt11char_traitsIcESaIcEEEEEED2Ev(%"struct.std::pair"* %0) #4, !dbg !4656
  ret void, !dbg !4657
}

; Function Attrs: noinline nounwind uwtable
define linkonce_odr dso_local void @_ZNSt4pairIKjN5boost10shared_ptrINSt7__cxx1119basic_ostringstreamIcSt11char_traitsIcESaIcEEEEEED2Ev(%"struct.std::pair"* %this) unnamed_addr #1 comdat align 2 !dbg !4658 {
entry:
  %this.addr = alloca %"struct.std::pair"*, align 8
  store %"struct.std::pair"* %this, %"struct.std::pair"** %this.addr, align 8
  call void @llvm.dbg.declare(metadata %"struct.std::pair"** %this.addr, metadata !4662, metadata !DIExpression()), !dbg !4663
  %this1 = load %"struct.std::pair"*, %"struct.std::pair"** %this.addr, align 8
  %second = getelementptr inbounds %"struct.std::pair", %"struct.std::pair"* %this1, i32 0, i32 1, !dbg !4664
  call void @_ZN5boost10shared_ptrINSt7__cxx1119basic_ostringstreamIcSt11char_traitsIcESaIcEEEED2Ev(%"class.boost::shared_ptr"* %second) #4, !dbg !4664
  ret void, !dbg !4666
}

; Function Attrs: noinline nounwind uwtable
define linkonce_odr dso_local %"struct.std::pair"* @_ZN9__gnu_cxx16__aligned_membufISt4pairIKjN5boost10shared_ptrINSt7__cxx1119basic_ostringstreamIcSt11char_traitsIcESaIcEEEEEEE6_M_ptrEv(%"struct.__gnu_cxx::__aligned_membuf"* %this) #1 comdat align 2 !dbg !4667 {
entry:
  %this.addr = alloca %"struct.__gnu_cxx::__aligned_membuf"*, align 8
  store %"struct.__gnu_cxx::__aligned_membuf"* %this, %"struct.__gnu_cxx::__aligned_membuf"** %this.addr, align 8
  call void @llvm.dbg.declare(metadata %"struct.__gnu_cxx::__aligned_membuf"** %this.addr, metadata !4668, metadata !DIExpression()), !dbg !4670
  %this1 = load %"struct.__gnu_cxx::__aligned_membuf"*, %"struct.__gnu_cxx::__aligned_membuf"** %this.addr, align 8
  %call = call i8* @_ZN9__gnu_cxx16__aligned_membufISt4pairIKjN5boost10shared_ptrINSt7__cxx1119basic_ostringstreamIcSt11char_traitsIcESaIcEEEEEEE7_M_addrEv(%"struct.__gnu_cxx::__aligned_membuf"* %this1) #4, !dbg !4671
  %0 = bitcast i8* %call to %"struct.std::pair"*, !dbg !4672
  ret %"struct.std::pair"* %0, !dbg !4673
}

; Function Attrs: noinline nounwind uwtable
define linkonce_odr dso_local i8* @_ZN9__gnu_cxx16__aligned_membufISt4pairIKjN5boost10shared_ptrINSt7__cxx1119basic_ostringstreamIcSt11char_traitsIcESaIcEEEEEEE7_M_addrEv(%"struct.__gnu_cxx::__aligned_membuf"* %this) #1 comdat align 2 !dbg !4674 {
entry:
  %this.addr = alloca %"struct.__gnu_cxx::__aligned_membuf"*, align 8
  store %"struct.__gnu_cxx::__aligned_membuf"* %this, %"struct.__gnu_cxx::__aligned_membuf"** %this.addr, align 8
  call void @llvm.dbg.declare(metadata %"struct.__gnu_cxx::__aligned_membuf"** %this.addr, metadata !4675, metadata !DIExpression()), !dbg !4676
  %this1 = load %"struct.__gnu_cxx::__aligned_membuf"*, %"struct.__gnu_cxx::__aligned_membuf"** %this.addr, align 8
  %_M_storage = getelementptr inbounds %"struct.__gnu_cxx::__aligned_membuf", %"struct.__gnu_cxx::__aligned_membuf"* %this1, i32 0, i32 0, !dbg !4677
  %0 = bitcast [24 x i8]* %_M_storage to i8*, !dbg !4678
  ret i8* %0, !dbg !4679
}

; Function Attrs: noinline uwtable
define linkonce_odr dso_local void @_ZNSt16allocator_traitsISaISt13_Rb_tree_nodeISt4pairIKjN5boost10shared_ptrINSt7__cxx1119basic_ostringstreamIcSt11char_traitsIcESaIcEEEEEEEEE10deallocateERSE_PSD_m(%"class.std::allocator.19"* dereferenceable(1) %__a, %"struct.std::_Rb_tree_node"* %__p, i64 %__n) #0 comdat align 2 !dbg !4680 {
entry:
  %__a.addr = alloca %"class.std::allocator.19"*, align 8
  %__p.addr = alloca %"struct.std::_Rb_tree_node"*, align 8
  %__n.addr = alloca i64, align 8
  store %"class.std::allocator.19"* %__a, %"class.std::allocator.19"** %__a.addr, align 8
  call void @llvm.dbg.declare(metadata %"class.std::allocator.19"** %__a.addr, metadata !4681, metadata !DIExpression()), !dbg !4682
  store %"struct.std::_Rb_tree_node"* %__p, %"struct.std::_Rb_tree_node"** %__p.addr, align 8
  call void @llvm.dbg.declare(metadata %"struct.std::_Rb_tree_node"** %__p.addr, metadata !4683, metadata !DIExpression()), !dbg !4684
  store i64 %__n, i64* %__n.addr, align 8
  call void @llvm.dbg.declare(metadata i64* %__n.addr, metadata !4685, metadata !DIExpression()), !dbg !4686
  %0 = load %"class.std::allocator.19"*, %"class.std::allocator.19"** %__a.addr, align 8, !dbg !4687
  %1 = bitcast %"class.std::allocator.19"* %0 to %"class.__gnu_cxx::new_allocator.20"*, !dbg !4687
  %2 = load %"struct.std::_Rb_tree_node"*, %"struct.std::_Rb_tree_node"** %__p.addr, align 8, !dbg !4688
  %3 = load i64, i64* %__n.addr, align 8, !dbg !4689
  call void @_ZN9__gnu_cxx13new_allocatorISt13_Rb_tree_nodeISt4pairIKjN5boost10shared_ptrINSt7__cxx1119basic_ostringstreamIcSt11char_traitsIcESaIcEEEEEEEE10deallocateEPSE_m(%"class.__gnu_cxx::new_allocator.20"* %1, %"struct.std::_Rb_tree_node"* %2, i64 %3), !dbg !4690
  ret void, !dbg !4691
}

; Function Attrs: noinline nounwind uwtable
define linkonce_odr dso_local void @_ZN9__gnu_cxx13new_allocatorISt13_Rb_tree_nodeISt4pairIKjN5boost10shared_ptrINSt7__cxx1119basic_ostringstreamIcSt11char_traitsIcESaIcEEEEEEEE10deallocateEPSE_m(%"class.__gnu_cxx::new_allocator.20"* %this, %"struct.std::_Rb_tree_node"* %__p, i64 %__t) #1 comdat align 2 !dbg !4692 {
entry:
  %this.addr = alloca %"class.__gnu_cxx::new_allocator.20"*, align 8
  %__p.addr = alloca %"struct.std::_Rb_tree_node"*, align 8
  %__t.addr = alloca i64, align 8
  store %"class.__gnu_cxx::new_allocator.20"* %this, %"class.__gnu_cxx::new_allocator.20"** %this.addr, align 8
  call void @llvm.dbg.declare(metadata %"class.__gnu_cxx::new_allocator.20"** %this.addr, metadata !4693, metadata !DIExpression()), !dbg !4694
  store %"struct.std::_Rb_tree_node"* %__p, %"struct.std::_Rb_tree_node"** %__p.addr, align 8
  call void @llvm.dbg.declare(metadata %"struct.std::_Rb_tree_node"** %__p.addr, metadata !4695, metadata !DIExpression()), !dbg !4696
  store i64 %__t, i64* %__t.addr, align 8
  call void @llvm.dbg.declare(metadata i64* %__t.addr, metadata !4697, metadata !DIExpression()), !dbg !4698
  %this1 = load %"class.__gnu_cxx::new_allocator.20"*, %"class.__gnu_cxx::new_allocator.20"** %this.addr, align 8
  %0 = load %"struct.std::_Rb_tree_node"*, %"struct.std::_Rb_tree_node"** %__p.addr, align 8, !dbg !4699
  %1 = bitcast %"struct.std::_Rb_tree_node"* %0 to i8*, !dbg !4699
  call void @_ZdlPv(i8* %1) #4, !dbg !4700
  ret void, !dbg !4701
}

; Function Attrs: noinline nounwind uwtable
define linkonce_odr dso_local void @_ZNSaISt13_Rb_tree_nodeISt4pairIKjN5boost10shared_ptrINSt7__cxx1119basic_ostringstreamIcSt11char_traitsIcESaIcEEEEEEEED2Ev(%"class.std::allocator.19"* %this) unnamed_addr #1 comdat align 2 !dbg !4702 {
entry:
  %this.addr = alloca %"class.std::allocator.19"*, align 8
  store %"class.std::allocator.19"* %this, %"class.std::allocator.19"** %this.addr, align 8
  call void @llvm.dbg.declare(metadata %"class.std::allocator.19"** %this.addr, metadata !4703, metadata !DIExpression()), !dbg !4704
  %this1 = load %"class.std::allocator.19"*, %"class.std::allocator.19"** %this.addr, align 8
  %0 = bitcast %"class.std::allocator.19"* %this1 to %"class.__gnu_cxx::new_allocator.20"*, !dbg !4705
  call void @_ZN9__gnu_cxx13new_allocatorISt13_Rb_tree_nodeISt4pairIKjN5boost10shared_ptrINSt7__cxx1119basic_ostringstreamIcSt11char_traitsIcESaIcEEEEEEEED2Ev(%"class.__gnu_cxx::new_allocator.20"* %0) #4, !dbg !4705
  ret void, !dbg !4707
}

; Function Attrs: noinline nounwind uwtable
define linkonce_odr dso_local void @_ZN9__gnu_cxx13new_allocatorISt13_Rb_tree_nodeISt4pairIKjN5boost10shared_ptrINSt7__cxx1119basic_ostringstreamIcSt11char_traitsIcESaIcEEEEEEEED2Ev(%"class.__gnu_cxx::new_allocator.20"* %this) unnamed_addr #1 comdat align 2 !dbg !4708 {
entry:
  %this.addr = alloca %"class.__gnu_cxx::new_allocator.20"*, align 8
  store %"class.__gnu_cxx::new_allocator.20"* %this, %"class.__gnu_cxx::new_allocator.20"** %this.addr, align 8
  call void @llvm.dbg.declare(metadata %"class.__gnu_cxx::new_allocator.20"** %this.addr, metadata !4709, metadata !DIExpression()), !dbg !4710
  %this1 = load %"class.__gnu_cxx::new_allocator.20"*, %"class.__gnu_cxx::new_allocator.20"** %this.addr, align 8
  ret void, !dbg !4711
}

; Function Attrs: noinline nounwind uwtable
define linkonce_odr dso_local void @_ZNSt5dequeINSt7__cxx1112basic_stringIcSt11char_traitsIcESaIcEEESaIS5_EED2Ev(%"class.std::deque"* %this) unnamed_addr #1 comdat align 2 personality i8* bitcast (i32 (...)* @__gxx_personality_v0 to i8*) !dbg !4712 {
entry:
  %this.addr = alloca %"class.std::deque"*, align 8
  %agg.tmp = alloca %"struct.std::_Deque_iterator", align 8
  %agg.tmp2 = alloca %"struct.std::_Deque_iterator", align 8
  %exn.slot = alloca i8*
  %ehselector.slot = alloca i32
  store %"class.std::deque"* %this, %"class.std::deque"** %this.addr, align 8
  call void @llvm.dbg.declare(metadata %"class.std::deque"** %this.addr, metadata !4713, metadata !DIExpression()), !dbg !4715
  %this1 = load %"class.std::deque"*, %"class.std::deque"** %this.addr, align 8
  call void @_ZNSt5dequeINSt7__cxx1112basic_stringIcSt11char_traitsIcESaIcEEESaIS5_EE5beginEv(%"struct.std::_Deque_iterator"* sret %agg.tmp, %"class.std::deque"* %this1) #4, !dbg !4716
  call void @_ZNSt5dequeINSt7__cxx1112basic_stringIcSt11char_traitsIcESaIcEEESaIS5_EE3endEv(%"struct.std::_Deque_iterator"* sret %agg.tmp2, %"class.std::deque"* %this1) #4, !dbg !4718
  %0 = bitcast %"class.std::deque"* %this1 to %"class.std::_Deque_base"*, !dbg !4719
  %call = call dereferenceable(1) %"class.std::allocator"* @_ZNSt11_Deque_baseINSt7__cxx1112basic_stringIcSt11char_traitsIcESaIcEEESaIS5_EE19_M_get_Tp_allocatorEv(%"class.std::_Deque_base"* %0) #4, !dbg !4719
  invoke void @_ZNSt5dequeINSt7__cxx1112basic_stringIcSt11char_traitsIcESaIcEEESaIS5_EE15_M_destroy_dataESt15_Deque_iteratorIS5_RS5_PS5_ESB_RKS6_(%"class.std::deque"* %this1, %"struct.std::_Deque_iterator"* %agg.tmp, %"struct.std::_Deque_iterator"* %agg.tmp2, %"class.std::allocator"* dereferenceable(1) %call)
          to label %invoke.cont unwind label %lpad, !dbg !4720

invoke.cont:                                      ; preds = %entry
  %1 = bitcast %"class.std::deque"* %this1 to %"class.std::_Deque_base"*, !dbg !4721
  call void @_ZNSt11_Deque_baseINSt7__cxx1112basic_stringIcSt11char_traitsIcESaIcEEESaIS5_EED2Ev(%"class.std::_Deque_base"* %1) #4, !dbg !4721
  ret void, !dbg !4722

lpad:                                             ; preds = %entry
  %2 = landingpad { i8*, i32 }
          catch i8* null, !dbg !4721
  %3 = extractvalue { i8*, i32 } %2, 0, !dbg !4721
  store i8* %3, i8** %exn.slot, align 8, !dbg !4721
  %4 = extractvalue { i8*, i32 } %2, 1, !dbg !4721
  store i32 %4, i32* %ehselector.slot, align 4, !dbg !4721
  %5 = bitcast %"class.std::deque"* %this1 to %"class.std::_Deque_base"*, !dbg !4721
  call void @_ZNSt11_Deque_baseINSt7__cxx1112basic_stringIcSt11char_traitsIcESaIcEEESaIS5_EED2Ev(%"class.std::_Deque_base"* %5) #4, !dbg !4721
  br label %terminate.handler, !dbg !4721

terminate.handler:                                ; preds = %lpad
  %exn = load i8*, i8** %exn.slot, align 8, !dbg !4721
  call void @__clang_call_terminate(i8* %exn) #13, !dbg !4721
  unreachable, !dbg !4721
}

; Function Attrs: noinline uwtable
define linkonce_odr dso_local void @_ZNSt5dequeINSt7__cxx1112basic_stringIcSt11char_traitsIcESaIcEEESaIS5_EE15_M_destroy_dataESt15_Deque_iteratorIS5_RS5_PS5_ESB_RKS6_(%"class.std::deque"* %this, %"struct.std::_Deque_iterator"* %__first, %"struct.std::_Deque_iterator"* %__last, %"class.std::allocator"* dereferenceable(1) %0) #0 comdat align 2 !dbg !4723 {
entry:
  %this.addr = alloca %"class.std::deque"*, align 8
  %.addr = alloca %"class.std::allocator"*, align 8
  %agg.tmp = alloca %"struct.std::_Deque_iterator", align 8
  %agg.tmp2 = alloca %"struct.std::_Deque_iterator", align 8
  store %"class.std::deque"* %this, %"class.std::deque"** %this.addr, align 8
  call void @llvm.dbg.declare(metadata %"class.std::deque"** %this.addr, metadata !4724, metadata !DIExpression()), !dbg !4725
  call void @llvm.dbg.declare(metadata %"struct.std::_Deque_iterator"* %__first, metadata !4726, metadata !DIExpression()), !dbg !4727
  call void @llvm.dbg.declare(metadata %"struct.std::_Deque_iterator"* %__last, metadata !4728, metadata !DIExpression()), !dbg !4729
  store %"class.std::allocator"* %0, %"class.std::allocator"** %.addr, align 8
  call void @llvm.dbg.declare(metadata %"class.std::allocator"** %.addr, metadata !4730, metadata !DIExpression()), !dbg !4731
  %this1 = load %"class.std::deque"*, %"class.std::deque"** %this.addr, align 8
  call void @_ZNSt15_Deque_iteratorINSt7__cxx1112basic_stringIcSt11char_traitsIcESaIcEEERS5_PS5_EC2ERKS8_(%"struct.std::_Deque_iterator"* %agg.tmp, %"struct.std::_Deque_iterator"* dereferenceable(32) %__first) #4, !dbg !4732
  call void @_ZNSt15_Deque_iteratorINSt7__cxx1112basic_stringIcSt11char_traitsIcESaIcEEERS5_PS5_EC2ERKS8_(%"struct.std::_Deque_iterator"* %agg.tmp2, %"struct.std::_Deque_iterator"* dereferenceable(32) %__last) #4, !dbg !4734
  call void @_ZNSt5dequeINSt7__cxx1112basic_stringIcSt11char_traitsIcESaIcEEESaIS5_EE19_M_destroy_data_auxESt15_Deque_iteratorIS5_RS5_PS5_ESB_(%"class.std::deque"* %this1, %"struct.std::_Deque_iterator"* %agg.tmp, %"struct.std::_Deque_iterator"* %agg.tmp2), !dbg !4735
  ret void, !dbg !4736
}

; Function Attrs: noinline nounwind uwtable
define linkonce_odr dso_local void @_ZNSt5dequeINSt7__cxx1112basic_stringIcSt11char_traitsIcESaIcEEESaIS5_EE5beginEv(%"struct.std::_Deque_iterator"* noalias sret %agg.result, %"class.std::deque"* %this) #1 comdat align 2 !dbg !4737 {
entry:
  %result.ptr = alloca i8*, align 8
  %this.addr = alloca %"class.std::deque"*, align 8
  %0 = bitcast %"struct.std::_Deque_iterator"* %agg.result to i8*
  store i8* %0, i8** %result.ptr, align 8
  store %"class.std::deque"* %this, %"class.std::deque"** %this.addr, align 8
  call void @llvm.dbg.declare(metadata %"class.std::deque"** %this.addr, metadata !4738, metadata !DIExpression()), !dbg !4739
  %this1 = load %"class.std::deque"*, %"class.std::deque"** %this.addr, align 8
  %1 = bitcast %"class.std::deque"* %this1 to %"class.std::_Deque_base"*, !dbg !4740
  %_M_impl = getelementptr inbounds %"class.std::_Deque_base", %"class.std::_Deque_base"* %1, i32 0, i32 0, !dbg !4740
  %2 = bitcast %"struct.std::_Deque_base<std::__cxx11::basic_string<char>, std::allocator<std::__cxx11::basic_string<char> > >::_Deque_impl"* %_M_impl to %"struct.std::_Deque_base<std::__cxx11::basic_string<char>, std::allocator<std::__cxx11::basic_string<char> > >::_Deque_impl_data"*, !dbg !4741
  %_M_start = getelementptr inbounds %"struct.std::_Deque_base<std::__cxx11::basic_string<char>, std::allocator<std::__cxx11::basic_string<char> > >::_Deque_impl_data", %"struct.std::_Deque_base<std::__cxx11::basic_string<char>, std::allocator<std::__cxx11::basic_string<char> > >::_Deque_impl_data"* %2, i32 0, i32 2, !dbg !4742
  call void @_ZNSt15_Deque_iteratorINSt7__cxx1112basic_stringIcSt11char_traitsIcESaIcEEERS5_PS5_EC2ERKS8_(%"struct.std::_Deque_iterator"* %agg.result, %"struct.std::_Deque_iterator"* dereferenceable(32) %_M_start) #4, !dbg !4741
  ret void, !dbg !4743
}

; Function Attrs: noinline nounwind uwtable
define linkonce_odr dso_local void @_ZNSt5dequeINSt7__cxx1112basic_stringIcSt11char_traitsIcESaIcEEESaIS5_EE3endEv(%"struct.std::_Deque_iterator"* noalias sret %agg.result, %"class.std::deque"* %this) #1 comdat align 2 !dbg !4744 {
entry:
  %result.ptr = alloca i8*, align 8
  %this.addr = alloca %"class.std::deque"*, align 8
  %0 = bitcast %"struct.std::_Deque_iterator"* %agg.result to i8*
  store i8* %0, i8** %result.ptr, align 8
  store %"class.std::deque"* %this, %"class.std::deque"** %this.addr, align 8
  call void @llvm.dbg.declare(metadata %"class.std::deque"** %this.addr, metadata !4745, metadata !DIExpression()), !dbg !4746
  %this1 = load %"class.std::deque"*, %"class.std::deque"** %this.addr, align 8
  %1 = bitcast %"class.std::deque"* %this1 to %"class.std::_Deque_base"*, !dbg !4747
  %_M_impl = getelementptr inbounds %"class.std::_Deque_base", %"class.std::_Deque_base"* %1, i32 0, i32 0, !dbg !4747
  %2 = bitcast %"struct.std::_Deque_base<std::__cxx11::basic_string<char>, std::allocator<std::__cxx11::basic_string<char> > >::_Deque_impl"* %_M_impl to %"struct.std::_Deque_base<std::__cxx11::basic_string<char>, std::allocator<std::__cxx11::basic_string<char> > >::_Deque_impl_data"*, !dbg !4748
  %_M_finish = getelementptr inbounds %"struct.std::_Deque_base<std::__cxx11::basic_string<char>, std::allocator<std::__cxx11::basic_string<char> > >::_Deque_impl_data", %"struct.std::_Deque_base<std::__cxx11::basic_string<char>, std::allocator<std::__cxx11::basic_string<char> > >::_Deque_impl_data"* %2, i32 0, i32 3, !dbg !4749
  call void @_ZNSt15_Deque_iteratorINSt7__cxx1112basic_stringIcSt11char_traitsIcESaIcEEERS5_PS5_EC2ERKS8_(%"struct.std::_Deque_iterator"* %agg.result, %"struct.std::_Deque_iterator"* dereferenceable(32) %_M_finish) #4, !dbg !4748
  ret void, !dbg !4750
}

; Function Attrs: noinline nounwind uwtable
define linkonce_odr dso_local dereferenceable(1) %"class.std::allocator"* @_ZNSt11_Deque_baseINSt7__cxx1112basic_stringIcSt11char_traitsIcESaIcEEESaIS5_EE19_M_get_Tp_allocatorEv(%"class.std::_Deque_base"* %this) #1 comdat align 2 !dbg !4751 {
entry:
  %this.addr = alloca %"class.std::_Deque_base"*, align 8
  store %"class.std::_Deque_base"* %this, %"class.std::_Deque_base"** %this.addr, align 8
  call void @llvm.dbg.declare(metadata %"class.std::_Deque_base"** %this.addr, metadata !4752, metadata !DIExpression()), !dbg !4754
  %this1 = load %"class.std::_Deque_base"*, %"class.std::_Deque_base"** %this.addr, align 8
  %_M_impl = getelementptr inbounds %"class.std::_Deque_base", %"class.std::_Deque_base"* %this1, i32 0, i32 0, !dbg !4755
  %0 = bitcast %"struct.std::_Deque_base<std::__cxx11::basic_string<char>, std::allocator<std::__cxx11::basic_string<char> > >::_Deque_impl"* %_M_impl to %"class.std::allocator"*, !dbg !4756
  ret %"class.std::allocator"* %0, !dbg !4757
}

; Function Attrs: noinline nounwind uwtable
define linkonce_odr dso_local void @_ZNSt11_Deque_baseINSt7__cxx1112basic_stringIcSt11char_traitsIcESaIcEEESaIS5_EED2Ev(%"class.std::_Deque_base"* %this) unnamed_addr #1 comdat align 2 !dbg !4758 {
entry:
  %this.addr = alloca %"class.std::_Deque_base"*, align 8
  store %"class.std::_Deque_base"* %this, %"class.std::_Deque_base"** %this.addr, align 8
  call void @llvm.dbg.declare(metadata %"class.std::_Deque_base"** %this.addr, metadata !4759, metadata !DIExpression()), !dbg !4760
  %this1 = load %"class.std::_Deque_base"*, %"class.std::_Deque_base"** %this.addr, align 8
  %_M_impl = getelementptr inbounds %"class.std::_Deque_base", %"class.std::_Deque_base"* %this1, i32 0, i32 0, !dbg !4761
  %0 = bitcast %"struct.std::_Deque_base<std::__cxx11::basic_string<char>, std::allocator<std::__cxx11::basic_string<char> > >::_Deque_impl"* %_M_impl to %"struct.std::_Deque_base<std::__cxx11::basic_string<char>, std::allocator<std::__cxx11::basic_string<char> > >::_Deque_impl_data"*, !dbg !4764
  %_M_map = getelementptr inbounds %"struct.std::_Deque_base<std::__cxx11::basic_string<char>, std::allocator<std::__cxx11::basic_string<char> > >::_Deque_impl_data", %"struct.std::_Deque_base<std::__cxx11::basic_string<char>, std::allocator<std::__cxx11::basic_string<char> > >::_Deque_impl_data"* %0, i32 0, i32 0, !dbg !4765
  %1 = load %"class.std::__cxx11::basic_string"**, %"class.std::__cxx11::basic_string"*** %_M_map, align 8, !dbg !4765
  %tobool = icmp ne %"class.std::__cxx11::basic_string"** %1, null, !dbg !4764
  br i1 %tobool, label %if.then, label %if.end, !dbg !4766

if.then:                                          ; preds = %entry
  %_M_impl2 = getelementptr inbounds %"class.std::_Deque_base", %"class.std::_Deque_base"* %this1, i32 0, i32 0, !dbg !4767
  %2 = bitcast %"struct.std::_Deque_base<std::__cxx11::basic_string<char>, std::allocator<std::__cxx11::basic_string<char> > >::_Deque_impl"* %_M_impl2 to %"struct.std::_Deque_base<std::__cxx11::basic_string<char>, std::allocator<std::__cxx11::basic_string<char> > >::_Deque_impl_data"*, !dbg !4769
  %_M_start = getelementptr inbounds %"struct.std::_Deque_base<std::__cxx11::basic_string<char>, std::allocator<std::__cxx11::basic_string<char> > >::_Deque_impl_data", %"struct.std::_Deque_base<std::__cxx11::basic_string<char>, std::allocator<std::__cxx11::basic_string<char> > >::_Deque_impl_data"* %2, i32 0, i32 2, !dbg !4770
  %_M_node = getelementptr inbounds %"struct.std::_Deque_iterator", %"struct.std::_Deque_iterator"* %_M_start, i32 0, i32 3, !dbg !4771
  %3 = load %"class.std::__cxx11::basic_string"**, %"class.std::__cxx11::basic_string"*** %_M_node, align 8, !dbg !4771
  %_M_impl3 = getelementptr inbounds %"class.std::_Deque_base", %"class.std::_Deque_base"* %this1, i32 0, i32 0, !dbg !4772
  %4 = bitcast %"struct.std::_Deque_base<std::__cxx11::basic_string<char>, std::allocator<std::__cxx11::basic_string<char> > >::_Deque_impl"* %_M_impl3 to %"struct.std::_Deque_base<std::__cxx11::basic_string<char>, std::allocator<std::__cxx11::basic_string<char> > >::_Deque_impl_data"*, !dbg !4773
  %_M_finish = getelementptr inbounds %"struct.std::_Deque_base<std::__cxx11::basic_string<char>, std::allocator<std::__cxx11::basic_string<char> > >::_Deque_impl_data", %"struct.std::_Deque_base<std::__cxx11::basic_string<char>, std::allocator<std::__cxx11::basic_string<char> > >::_Deque_impl_data"* %4, i32 0, i32 3, !dbg !4774
  %_M_node4 = getelementptr inbounds %"struct.std::_Deque_iterator", %"struct.std::_Deque_iterator"* %_M_finish, i32 0, i32 3, !dbg !4775
  %5 = load %"class.std::__cxx11::basic_string"**, %"class.std::__cxx11::basic_string"*** %_M_node4, align 8, !dbg !4775
  %add.ptr = getelementptr inbounds %"class.std::__cxx11::basic_string"*, %"class.std::__cxx11::basic_string"** %5, i64 1, !dbg !4776
  call void @_ZNSt11_Deque_baseINSt7__cxx1112basic_stringIcSt11char_traitsIcESaIcEEESaIS5_EE16_M_destroy_nodesEPPS5_S9_(%"class.std::_Deque_base"* %this1, %"class.std::__cxx11::basic_string"** %3, %"class.std::__cxx11::basic_string"** %add.ptr) #4, !dbg !4777
  %_M_impl5 = getelementptr inbounds %"class.std::_Deque_base", %"class.std::_Deque_base"* %this1, i32 0, i32 0, !dbg !4778
  %6 = bitcast %"struct.std::_Deque_base<std::__cxx11::basic_string<char>, std::allocator<std::__cxx11::basic_string<char> > >::_Deque_impl"* %_M_impl5 to %"struct.std::_Deque_base<std::__cxx11::basic_string<char>, std::allocator<std::__cxx11::basic_string<char> > >::_Deque_impl_data"*, !dbg !4779
  %_M_map6 = getelementptr inbounds %"struct.std::_Deque_base<std::__cxx11::basic_string<char>, std::allocator<std::__cxx11::basic_string<char> > >::_Deque_impl_data", %"struct.std::_Deque_base<std::__cxx11::basic_string<char>, std::allocator<std::__cxx11::basic_string<char> > >::_Deque_impl_data"* %6, i32 0, i32 0, !dbg !4780
  %7 = load %"class.std::__cxx11::basic_string"**, %"class.std::__cxx11::basic_string"*** %_M_map6, align 8, !dbg !4780
  %_M_impl7 = getelementptr inbounds %"class.std::_Deque_base", %"class.std::_Deque_base"* %this1, i32 0, i32 0, !dbg !4781
  %8 = bitcast %"struct.std::_Deque_base<std::__cxx11::basic_string<char>, std::allocator<std::__cxx11::basic_string<char> > >::_Deque_impl"* %_M_impl7 to %"struct.std::_Deque_base<std::__cxx11::basic_string<char>, std::allocator<std::__cxx11::basic_string<char> > >::_Deque_impl_data"*, !dbg !4782
  %_M_map_size = getelementptr inbounds %"struct.std::_Deque_base<std::__cxx11::basic_string<char>, std::allocator<std::__cxx11::basic_string<char> > >::_Deque_impl_data", %"struct.std::_Deque_base<std::__cxx11::basic_string<char>, std::allocator<std::__cxx11::basic_string<char> > >::_Deque_impl_data"* %8, i32 0, i32 1, !dbg !4783
  %9 = load i64, i64* %_M_map_size, align 8, !dbg !4783
  call void @_ZNSt11_Deque_baseINSt7__cxx1112basic_stringIcSt11char_traitsIcESaIcEEESaIS5_EE17_M_deallocate_mapEPPS5_m(%"class.std::_Deque_base"* %this1, %"class.std::__cxx11::basic_string"** %7, i64 %9) #4, !dbg !4784
  br label %if.end, !dbg !4785

if.end:                                           ; preds = %if.then, %entry
  %_M_impl8 = getelementptr inbounds %"class.std::_Deque_base", %"class.std::_Deque_base"* %this1, i32 0, i32 0, !dbg !4786
  call void @_ZNSt11_Deque_baseINSt7__cxx1112basic_stringIcSt11char_traitsIcESaIcEEESaIS5_EE11_Deque_implD2Ev(%"struct.std::_Deque_base<std::__cxx11::basic_string<char>, std::allocator<std::__cxx11::basic_string<char> > >::_Deque_impl"* %_M_impl8) #4, !dbg !4786
  ret void, !dbg !4787
}

; Function Attrs: noinline uwtable
define linkonce_odr dso_local void @_ZNSt5dequeINSt7__cxx1112basic_stringIcSt11char_traitsIcESaIcEEESaIS5_EE19_M_destroy_data_auxESt15_Deque_iteratorIS5_RS5_PS5_ESB_(%"class.std::deque"* %this, %"struct.std::_Deque_iterator"* %__first, %"struct.std::_Deque_iterator"* %__last) #0 comdat align 2 !dbg !4788 {
entry:
  %this.addr = alloca %"class.std::deque"*, align 8
  %__node = alloca %"class.std::__cxx11::basic_string"**, align 8
