; ModuleID = 'source/grid/grid_in.cc'
source_filename = "source/grid/grid_in.cc"
target datalayout = "e-m:e-p270:32:32-p271:32:32-p272:64:64-i64:64-f80:128-n8:16:32:64-S128"
target triple = "x86_64-unknown-linux-gnu"

%"class.std::ios_base::Init" = type { i8 }
%"class.std::__cxx11::basic_string" = type { %"struct.std::__cxx11::basic_string<char, std::char_traits<char>, std::allocator<char> >::_Alloc_hider", i64, %union.anon }
%"struct.std::__cxx11::basic_string<char, std::char_traits<char>, std::allocator<char> >::_Alloc_hider" = type { i8* }
%union.anon = type { i64, [8 x i8] }
%"struct.std::piecewise_construct_t" = type { i8 }
%"class.dealii::GridIn" = type <{ %"class.dealii::SmartPointer", i32, [4 x i8] }>
%"class.dealii::SmartPointer" = type { %"class.dealii::Triangulation"*, i8* }
%"class.dealii::Triangulation" = type { %"class.dealii::Subscriptor", %"class.std::vector", %"class.dealii::internal::Triangulation::TriaFaces"*, %"class.std::vector.82", %"class.std::vector.8", [255 x %"class.dealii::SmartPointer.87"], [255 x %"class.dealii::SmartPointer.87"], i8, i32, %"struct.dealii::internal::Triangulation::NumberCache", %"class.std::__cxx11::list" }
%"class.dealii::Subscriptor" = type { i32 (...)**, i32, %"class.std::map", %"class.std::type_info"* }
%"class.std::map" = type { %"class.std::_Rb_tree" }
%"class.std::_Rb_tree" = type { %"struct.std::_Rb_tree<const char *, std::pair<const char *const, unsigned int>, std::_Select1st<std::pair<const char *const, unsigned int> >, std::less<const char *>, std::allocator<std::pair<const char *const, unsigned int> > >::_Rb_tree_impl" }
%"struct.std::_Rb_tree<const char *, std::pair<const char *const, unsigned int>, std::_Select1st<std::pair<const char *const, unsigned int> >, std::less<const char *>, std::allocator<std::pair<const char *const, unsigned int> > >::_Rb_tree_impl" = type { %"struct.std::_Rb_tree_key_compare", %"struct.std::_Rb_tree_header" }
%"struct.std::_Rb_tree_key_compare" = type { %"struct.std::less" }
%"struct.std::less" = type { i8 }
%"struct.std::_Rb_tree_header" = type { %"struct.std::_Rb_tree_node_base", i64 }
%"struct.std::_Rb_tree_node_base" = type { i32, %"struct.std::_Rb_tree_node_base"*, %"struct.std::_Rb_tree_node_base"*, %"struct.std::_Rb_tree_node_base"* }
%"class.std::type_info" = type { i32 (...)**, i8* }
%"class.std::vector" = type { %"struct.std::_Vector_base" }
%"struct.std::_Vector_base" = type { %"struct.std::_Vector_base<dealii::internal::Triangulation::TriaLevel<3> *, std::allocator<dealii::internal::Triangulation::TriaLevel<3> *> >::_Vector_impl" }
%"struct.std::_Vector_base<dealii::internal::Triangulation::TriaLevel<3> *, std::allocator<dealii::internal::Triangulation::TriaLevel<3> *> >::_Vector_impl" = type { %"struct.std::_Vector_base<dealii::internal::Triangulation::TriaLevel<3> *, std::allocator<dealii::internal::Triangulation::TriaLevel<3> *> >::_Vector_impl_data" }
%"struct.std::_Vector_base<dealii::internal::Triangulation::TriaLevel<3> *, std::allocator<dealii::internal::Triangulation::TriaLevel<3> *> >::_Vector_impl_data" = type { %"class.dealii::internal::Triangulation::TriaLevel"**, %"class.dealii::internal::Triangulation::TriaLevel"**, %"class.dealii::internal::Triangulation::TriaLevel"** }
%"class.dealii::internal::Triangulation::TriaLevel" = type { %"class.std::vector.3", %"class.std::vector.8", %"class.std::vector.12", %"class.std::vector.17", %"class.dealii::internal::Triangulation::TriaObjectsHex" }
%"class.std::vector.3" = type { %"struct.std::_Vector_base.4" }
%"struct.std::_Vector_base.4" = type { %"struct.std::_Vector_base<unsigned char, std::allocator<unsigned char> >::_Vector_impl" }
%"struct.std::_Vector_base<unsigned char, std::allocator<unsigned char> >::_Vector_impl" = type { %"struct.std::_Vector_base<unsigned char, std::allocator<unsigned char> >::_Vector_impl_data" }
%"struct.std::_Vector_base<unsigned char, std::allocator<unsigned char> >::_Vector_impl_data" = type { i8*, i8*, i8* }
%"class.std::vector.12" = type { %"struct.std::_Vector_base.13" }
%"struct.std::_Vector_base.13" = type { %"struct.std::_Vector_base<std::pair<int, int>, std::allocator<std::pair<int, int> > >::_Vector_impl" }
%"struct.std::_Vector_base<std::pair<int, int>, std::allocator<std::pair<int, int> > >::_Vector_impl" = type { %"struct.std::_Vector_base<std::pair<int, int>, std::allocator<std::pair<int, int> > >::_Vector_impl_data" }
%"struct.std::_Vector_base<std::pair<int, int>, std::allocator<std::pair<int, int> > >::_Vector_impl_data" = type { %"struct.std::pair"*, %"struct.std::pair"*, %"struct.std::pair"* }
%"struct.std::pair" = type opaque
%"class.std::vector.17" = type { %"struct.std::_Vector_base.18" }
%"struct.std::_Vector_base.18" = type { %"struct.std::_Vector_base<unsigned int, std::allocator<unsigned int> >::_Vector_impl" }
%"struct.std::_Vector_base<unsigned int, std::allocator<unsigned int> >::_Vector_impl" = type { %"struct.std::_Vector_base<unsigned int, std::allocator<unsigned int> >::_Vector_impl_data" }
%"struct.std::_Vector_base<unsigned int, std::allocator<unsigned int> >::_Vector_impl_data" = type { i32*, i32*, i32* }
%"class.dealii::internal::Triangulation::TriaObjectsHex" = type { %"class.dealii::internal::Triangulation::TriaObjects.base", %"class.std::vector.8", %"class.std::vector.8", %"class.std::vector.8" }
%"class.dealii::internal::Triangulation::TriaObjects.base" = type <{ %"class.std::vector.22", %"class.std::vector.27", %"class.std::vector.32", %"class.std::vector.8", %"class.std::vector.8", %"class.std::vector.3", i32, i32, i8, [7 x i8], %"class.std::vector.37", i32 }>
%"class.std::vector.22" = type { %"struct.std::_Vector_base.23" }
%"struct.std::_Vector_base.23" = type { %"struct.std::_Vector_base<dealii::internal::Triangulation::TriaObject<3>, std::allocator<dealii::internal::Triangulation::TriaObject<3> > >::_Vector_impl" }
%"struct.std::_Vector_base<dealii::internal::Triangulation::TriaObject<3>, std::allocator<dealii::internal::Triangulation::TriaObject<3> > >::_Vector_impl" = type { %"struct.std::_Vector_base<dealii::internal::Triangulation::TriaObject<3>, std::allocator<dealii::internal::Triangulation::TriaObject<3> > >::_Vector_impl_data" }
%"struct.std::_Vector_base<dealii::internal::Triangulation::TriaObject<3>, std::allocator<dealii::internal::Triangulation::TriaObject<3> > >::_Vector_impl_data" = type { %"class.dealii::internal::Triangulation::TriaObject"*, %"class.dealii::internal::Triangulation::TriaObject"*, %"class.dealii::internal::Triangulation::TriaObject"* }
%"class.dealii::internal::Triangulation::TriaObject" = type { [6 x i32] }
%"class.std::vector.27" = type { %"struct.std::_Vector_base.28" }
%"struct.std::_Vector_base.28" = type { %"struct.std::_Vector_base<int, std::allocator<int> >::_Vector_impl" }
%"struct.std::_Vector_base<int, std::allocator<int> >::_Vector_impl" = type { %"struct.std::_Vector_base<int, std::allocator<int> >::_Vector_impl_data" }
%"struct.std::_Vector_base<int, std::allocator<int> >::_Vector_impl_data" = type { i32*, i32*, i32* }
%"class.std::vector.32" = type { %"struct.std::_Vector_base.33" }
%"struct.std::_Vector_base.33" = type { %"struct.std::_Vector_base<dealii::RefinementCase<3>, std::allocator<dealii::RefinementCase<3> > >::_Vector_impl" }
%"struct.std::_Vector_base<dealii::RefinementCase<3>, std::allocator<dealii::RefinementCase<3> > >::_Vector_impl" = type { %"struct.std::_Vector_base<dealii::RefinementCase<3>, std::allocator<dealii::RefinementCase<3> > >::_Vector_impl_data" }
%"struct.std::_Vector_base<dealii::RefinementCase<3>, std::allocator<dealii::RefinementCase<3> > >::_Vector_impl_data" = type { %"class.dealii::RefinementCase"*, %"class.dealii::RefinementCase"*, %"class.dealii::RefinementCase"* }
%"class.dealii::RefinementCase" = type { i8 }
%"class.std::vector.37" = type { %"struct.std::_Vector_base.38" }
%"struct.std::_Vector_base.38" = type { %"struct.std::_Vector_base<dealii::internal::Triangulation::TriaObjects<dealii::internal::Triangulation::TriaObject<3> >::UserData, std::allocator<dealii::internal::Triangulation::TriaObjects<dealii::internal::Triangulation::TriaObject<3> >::UserData> >::_Vector_impl" }
%"struct.std::_Vector_base<dealii::internal::Triangulation::TriaObjects<dealii::internal::Triangulation::TriaObject<3> >::UserData, std::allocator<dealii::internal::Triangulation::TriaObjects<dealii::internal::Triangulation::TriaObject<3> >::UserData> >::_Vector_impl" = type { %"struct.std::_Vector_base<dealii::internal::Triangulation::TriaObjects<dealii::internal::Triangulation::TriaObject<3> >::UserData, std::allocator<dealii::internal::Triangulation::TriaObjects<dealii::internal::Triangulation::TriaObject<3> >::UserData> >::_Vector_impl_data" }
%"struct.std::_Vector_base<dealii::internal::Triangulation::TriaObjects<dealii::internal::Triangulation::TriaObject<3> >::UserData, std::allocator<dealii::internal::Triangulation::TriaObjects<dealii::internal::Triangulation::TriaObject<3> >::UserData> >::_Vector_impl_data" = type { %"union.dealii::internal::Triangulation::TriaObjects<dealii::internal::Triangulation::TriaObject<3> >::UserData"*, %"union.dealii::internal::Triangulation::TriaObjects<dealii::internal::Triangulation::TriaObject<3> >::UserData"*, %"union.dealii::internal::Triangulation::TriaObjects<dealii::internal::Triangulation::TriaObject<3> >::UserData"* }
%"union.dealii::internal::Triangulation::TriaObjects<dealii::internal::Triangulation::TriaObject<3> >::UserData" = type opaque
%"class.dealii::internal::Triangulation::TriaFaces" = type { %"class.dealii::internal::Triangulation::TriaObjectsQuad3D", %"class.dealii::internal::Triangulation::TriaObjects.62" }
%"class.dealii::internal::Triangulation::TriaObjectsQuad3D" = type { %"class.dealii::internal::Triangulation::TriaObjects.base.61", %"class.std::vector.8" }
%"class.dealii::internal::Triangulation::TriaObjects.base.61" = type <{ %"class.std::vector.43", %"class.std::vector.27", %"class.std::vector.49", %"class.std::vector.8", %"class.std::vector.8", %"class.std::vector.3", i32, i32, i8, [7 x i8], %"class.std::vector.56", i32 }>
%"class.std::vector.43" = type { %"struct.std::_Vector_base.44" }
%"struct.std::_Vector_base.44" = type { %"struct.std::_Vector_base<dealii::internal::Triangulation::TriaObject<2>, std::allocator<dealii::internal::Triangulation::TriaObject<2> > >::_Vector_impl" }
%"struct.std::_Vector_base<dealii::internal::Triangulation::TriaObject<2>, std::allocator<dealii::internal::Triangulation::TriaObject<2> > >::_Vector_impl" = type { %"struct.std::_Vector_base<dealii::internal::Triangulation::TriaObject<2>, std::allocator<dealii::internal::Triangulation::TriaObject<2> > >::_Vector_impl_data" }
%"struct.std::_Vector_base<dealii::internal::Triangulation::TriaObject<2>, std::allocator<dealii::internal::Triangulation::TriaObject<2> > >::_Vector_impl_data" = type { %"class.dealii::internal::Triangulation::TriaObject.48"*, %"class.dealii::internal::Triangulation::TriaObject.48"*, %"class.dealii::internal::Triangulation::TriaObject.48"* }
%"class.dealii::internal::Triangulation::TriaObject.48" = type { [4 x i32] }
%"class.std::vector.49" = type { %"struct.std::_Vector_base.50" }
%"struct.std::_Vector_base.50" = type { %"struct.std::_Vector_base<dealii::RefinementCase<2>, std::allocator<dealii::RefinementCase<2> > >::_Vector_impl" }
%"struct.std::_Vector_base<dealii::RefinementCase<2>, std::allocator<dealii::RefinementCase<2> > >::_Vector_impl" = type { %"struct.std::_Vector_base<dealii::RefinementCase<2>, std::allocator<dealii::RefinementCase<2> > >::_Vector_impl_data" }
%"struct.std::_Vector_base<dealii::RefinementCase<2>, std::allocator<dealii::RefinementCase<2> > >::_Vector_impl_data" = type { %"class.dealii::RefinementCase.54"*, %"class.dealii::RefinementCase.54"*, %"class.dealii::RefinementCase.54"* }
%"class.dealii::RefinementCase.54" = type { i8 }
%"class.std::vector.56" = type { %"struct.std::_Vector_base.57" }
%"struct.std::_Vector_base.57" = type { %"struct.std::_Vector_base<dealii::internal::Triangulation::TriaObjects<dealii::internal::Triangulation::TriaObject<2> >::UserData, std::allocator<dealii::internal::Triangulation::TriaObjects<dealii::internal::Triangulation::TriaObject<2> >::UserData> >::_Vector_impl" }
%"struct.std::_Vector_base<dealii::internal::Triangulation::TriaObjects<dealii::internal::Triangulation::TriaObject<2> >::UserData, std::allocator<dealii::internal::Triangulation::TriaObjects<dealii::internal::Triangulation::TriaObject<2> >::UserData> >::_Vector_impl" = type { %"struct.std::_Vector_base<dealii::internal::Triangulation::TriaObjects<dealii::internal::Triangulation::TriaObject<2> >::UserData, std::allocator<dealii::internal::Triangulation::TriaObjects<dealii::internal::Triangulation::TriaObject<2> >::UserData> >::_Vector_impl_data" }
%"struct.std::_Vector_base<dealii::internal::Triangulation::TriaObjects<dealii::internal::Triangulation::TriaObject<2> >::UserData, std::allocator<dealii::internal::Triangulation::TriaObjects<dealii::internal::Triangulation::TriaObject<2> >::UserData> >::_Vector_impl_data" = type { %"union.dealii::internal::Triangulation::TriaObjects<dealii::internal::Triangulation::TriaObject<2> >::UserData"*, %"union.dealii::internal::Triangulation::TriaObjects<dealii::internal::Triangulation::TriaObject<2> >::UserData"*, %"union.dealii::internal::Triangulation::TriaObjects<dealii::internal::Triangulation::TriaObject<2> >::UserData"* }
%"union.dealii::internal::Triangulation::TriaObjects<dealii::internal::Triangulation::TriaObject<2> >::UserData" = type opaque
%"class.dealii::internal::Triangulation::TriaObjects.62" = type <{ %"class.std::vector.63", %"class.std::vector.27", %"class.std::vector.69", %"class.std::vector.8", %"class.std::vector.8", %"class.std::vector.3", i32, i32, i8, [7 x i8], %"class.std::vector.76", i32, [4 x i8] }>
%"class.std::vector.63" = type { %"struct.std::_Vector_base.64" }
%"struct.std::_Vector_base.64" = type { %"struct.std::_Vector_base<dealii::internal::Triangulation::TriaObject<1>, std::allocator<dealii::internal::Triangulation::TriaObject<1> > >::_Vector_impl" }
%"struct.std::_Vector_base<dealii::internal::Triangulation::TriaObject<1>, std::allocator<dealii::internal::Triangulation::TriaObject<1> > >::_Vector_impl" = type { %"struct.std::_Vector_base<dealii::internal::Triangulation::TriaObject<1>, std::allocator<dealii::internal::Triangulation::TriaObject<1> > >::_Vector_impl_data" }
%"struct.std::_Vector_base<dealii::internal::Triangulation::TriaObject<1>, std::allocator<dealii::internal::Triangulation::TriaObject<1> > >::_Vector_impl_data" = type { %"class.dealii::internal::Triangulation::TriaObject.68"*, %"class.dealii::internal::Triangulation::TriaObject.68"*, %"class.dealii::internal::Triangulation::TriaObject.68"* }
%"class.dealii::internal::Triangulation::TriaObject.68" = type { [2 x i32] }
%"class.std::vector.69" = type { %"struct.std::_Vector_base.70" }
%"struct.std::_Vector_base.70" = type { %"struct.std::_Vector_base<dealii::RefinementCase<1>, std::allocator<dealii::RefinementCase<1> > >::_Vector_impl" }
%"struct.std::_Vector_base<dealii::RefinementCase<1>, std::allocator<dealii::RefinementCase<1> > >::_Vector_impl" = type { %"struct.std::_Vector_base<dealii::RefinementCase<1>, std::allocator<dealii::RefinementCase<1> > >::_Vector_impl_data" }
%"struct.std::_Vector_base<dealii::RefinementCase<1>, std::allocator<dealii::RefinementCase<1> > >::_Vector_impl_data" = type { %"class.dealii::RefinementCase.74"*, %"class.dealii::RefinementCase.74"*, %"class.dealii::RefinementCase.74"* }
%"class.dealii::RefinementCase.74" = type { i8 }
%"class.std::vector.76" = type { %"struct.std::_Vector_base.77" }
%"struct.std::_Vector_base.77" = type { %"struct.std::_Vector_base<dealii::internal::Triangulation::TriaObjects<dealii::internal::Triangulation::TriaObject<1> >::UserData, std::allocator<dealii::internal::Triangulation::TriaObjects<dealii::internal::Triangulation::TriaObject<1> >::UserData> >::_Vector_impl" }
%"struct.std::_Vector_base<dealii::internal::Triangulation::TriaObjects<dealii::internal::Triangulation::TriaObject<1> >::UserData, std::allocator<dealii::internal::Triangulation::TriaObjects<dealii::internal::Triangulation::TriaObject<1> >::UserData> >::_Vector_impl" = type { %"struct.std::_Vector_base<dealii::internal::Triangulation::TriaObjects<dealii::internal::Triangulation::TriaObject<1> >::UserData, std::allocator<dealii::internal::Triangulation::TriaObjects<dealii::internal::Triangulation::TriaObject<1> >::UserData> >::_Vector_impl_data" }
%"struct.std::_Vector_base<dealii::internal::Triangulation::TriaObjects<dealii::internal::Triangulation::TriaObject<1> >::UserData, std::allocator<dealii::internal::Triangulation::TriaObjects<dealii::internal::Triangulation::TriaObject<1> >::UserData> >::_Vector_impl_data" = type { %"union.dealii::internal::Triangulation::TriaObjects<dealii::internal::Triangulation::TriaObject<1> >::UserData"*, %"union.dealii::internal::Triangulation::TriaObjects<dealii::internal::Triangulation::TriaObject<1> >::UserData"*, %"union.dealii::internal::Triangulation::TriaObjects<dealii::internal::Triangulation::TriaObject<1> >::UserData"* }
%"union.dealii::internal::Triangulation::TriaObjects<dealii::internal::Triangulation::TriaObject<1> >::UserData" = type opaque
%"class.std::vector.82" = type { %"struct.std::_Vector_base.83" }
%"struct.std::_Vector_base.83" = type { %"struct.std::_Vector_base<dealii::Point<3>, std::allocator<dealii::Point<3> > >::_Vector_impl" }
%"struct.std::_Vector_base<dealii::Point<3>, std::allocator<dealii::Point<3> > >::_Vector_impl" = type { %"struct.std::_Vector_base<dealii::Point<3>, std::allocator<dealii::Point<3> > >::_Vector_impl_data" }
%"struct.std::_Vector_base<dealii::Point<3>, std::allocator<dealii::Point<3> > >::_Vector_impl_data" = type { %"class.dealii::Point"*, %"class.dealii::Point"*, %"class.dealii::Point"* }
%"class.dealii::Point" = type { %"class.dealii::Tensor" }
%"class.dealii::Tensor" = type { [3 x double] }
%"class.std::vector.8" = type { %"struct.std::_Bvector_base" }
%"struct.std::_Bvector_base" = type { %"struct.std::_Bvector_base<std::allocator<bool> >::_Bvector_impl" }
%"struct.std::_Bvector_base<std::allocator<bool> >::_Bvector_impl" = type { %"struct.std::_Bvector_base<std::allocator<bool> >::_Bvector_impl_data" }
%"struct.std::_Bvector_base<std::allocator<bool> >::_Bvector_impl_data" = type { %"struct.std::_Bit_iterator", %"struct.std::_Bit_iterator", i64* }
%"struct.std::_Bit_iterator" = type { %"struct.std::_Bit_iterator_base.base", [4 x i8] }
%"struct.std::_Bit_iterator_base.base" = type <{ i64*, i32 }>
%"class.dealii::SmartPointer.87" = type { %"class.dealii::Boundary"*, i8* }
%"class.dealii::Boundary" = type opaque
%"struct.dealii::internal::Triangulation::NumberCache" = type { %"struct.dealii::internal::Triangulation::NumberCache.88", i32, %"class.std::vector.17", i32, %"class.std::vector.17" }
%"struct.dealii::internal::Triangulation::NumberCache.88" = type { %"struct.dealii::internal::Triangulation::NumberCache.89", i32, %"class.std::vector.17", i32, %"class.std::vector.17" }
%"struct.dealii::internal::Triangulation::NumberCache.89" = type { i32, %"class.std::vector.17", i32, %"class.std::vector.17" }
%"class.std::__cxx11::list" = type { %"class.std::__cxx11::_List_base" }
%"class.std::__cxx11::_List_base" = type { %"struct.std::__cxx11::_List_base<dealii::Triangulation<3, 3>::RefinementListener *, std::allocator<dealii::Triangulation<3, 3>::RefinementListener *> >::_List_impl" }
%"struct.std::__cxx11::_List_base<dealii::Triangulation<3, 3>::RefinementListener *, std::allocator<dealii::Triangulation<3, 3>::RefinementListener *> >::_List_impl" = type { %"struct.std::__detail::_List_node_header" }
%"struct.std::__detail::_List_node_header" = type { %"struct.std::__detail::_List_node_base", i64 }
%"struct.std::__detail::_List_node_base" = type { %"struct.std::__detail::_List_node_base"*, %"struct.std::__detail::_List_node_base"* }
%"class.dealii::GridIn<3, 3>::ExcUnknownIdentifier" = type { %"class.dealii::ExceptionBase.base", %"class.std::__cxx11::basic_string" }
%"class.dealii::ExceptionBase.base" = type <{ %"class.std::exception", i8*, i32, [4 x i8], i8*, i8*, i8*, i8**, i32 }>
%"class.std::exception" = type { i32 (...)** }
%"class.dealii::GridIn<3, 3>::ExcInvalidVertexIndex" = type { %"class.dealii::ExceptionBase.base", i32, i32, [4 x i8] }
%"class.dealii::GridIn<3, 3>::ExcInvalidDBMESHInput" = type { %"class.dealii::ExceptionBase.base", %"class.std::__cxx11::basic_string" }
%"class.dealii::GridIn<3, 3>::ExcDBMESHWrongDimension" = type { %"class.dealii::ExceptionBase.base", i32 }
%"class.dealii::GridIn<3, 3>::ExcInvalidGMSHInput" = type { %"class.dealii::ExceptionBase.base", %"class.std::__cxx11::basic_string" }
%"class.dealii::GridIn<3, 3>::ExcGmshUnsupportedGeometry" = type { %"class.dealii::ExceptionBase.base", i32 }
%"class.std::basic_istream" = type { i32 (...)**, i64, %"class.std::basic_ios" }
%"class.std::basic_ios" = type { %"class.std::ios_base", %"class.std::basic_ostream"*, i8, i8, %"class.std::basic_streambuf"*, %"class.std::ctype"*, %"class.std::num_put"*, %"class.std::num_get"* }
%"class.std::ios_base" = type { i32 (...)**, i64, i64, i32, i32, i32, %"struct.std::ios_base::_Callback_list"*, %"struct.std::ios_base::_Words", [8 x %"struct.std::ios_base::_Words"], i32, %"struct.std::ios_base::_Words"*, %"class.std::locale" }
%"struct.std::ios_base::_Callback_list" = type { %"struct.std::ios_base::_Callback_list"*, void (i32, %"class.std::ios_base"*, i32)*, i32, i32 }
%"struct.std::ios_base::_Words" = type { i8*, i64 }
%"class.std::locale" = type { %"class.std::locale::_Impl"* }
%"class.std::locale::_Impl" = type { i32, %"class.std::locale::facet"**, i64, %"class.std::locale::facet"**, i8** }
%"class.std::locale::facet" = type <{ i32 (...)**, i32, [4 x i8] }>
%"class.std::basic_ostream" = type { i32 (...)**, %"class.std::basic_ios" }
%"class.std::basic_streambuf" = type { i32 (...)**, i8*, i8*, i8*, i8*, i8*, i8*, %"class.std::locale" }
%"class.std::ctype" = type <{ %"class.std::locale::facet.base", [4 x i8], %struct.__locale_struct*, i8, [7 x i8], i32*, i32*, i16*, i8, [256 x i8], [256 x i8], i8, [6 x i8] }>
%"class.std::locale::facet.base" = type <{ i32 (...)**, i32 }>
%struct.__locale_struct = type { [13 x %struct.__locale_data*], i16*, i32*, i32*, [13 x i8*] }
%struct.__locale_data = type opaque
%"class.std::num_put" = type { %"class.std::locale::facet.base", [4 x i8] }
%"class.std::num_get" = type { %"class.std::locale::facet.base", [4 x i8] }
%"class.dealii::StandardExceptions::ExcIO" = type { %"class.dealii::ExceptionBase.base", [4 x i8] }
%"class.std::allocator.84" = type { i8 }
%"class.dealii::GridIn<3, 3>::ExcInvalidDBMeshFormat" = type { %"class.dealii::ExceptionBase.base", [4 x i8] }
%"class.std::vector.110" = type { %"struct.std::_Vector_base.111" }
%"struct.std::_Vector_base.111" = type { %"struct.std::_Vector_base<dealii::CellData<3>, std::allocator<dealii::CellData<3> > >::_Vector_impl" }
%"struct.std::_Vector_base<dealii::CellData<3>, std::allocator<dealii::CellData<3> > >::_Vector_impl" = type { %"struct.std::_Vector_base<dealii::CellData<3>, std::allocator<dealii::CellData<3> > >::_Vector_impl_data" }
%"struct.std::_Vector_base<dealii::CellData<3>, std::allocator<dealii::CellData<3> > >::_Vector_impl_data" = type { %"struct.dealii::CellData"*, %"struct.dealii::CellData"*, %"struct.dealii::CellData"* }
%"struct.dealii::CellData" = type { [8 x i32], i8 }
%"struct.dealii::SubCellData" = type { %"class.std::vector.115", %"class.std::vector.121" }
%"class.std::vector.115" = type { %"struct.std::_Vector_base.116" }
%"struct.std::_Vector_base.116" = type { %"struct.std::_Vector_base<dealii::CellData<1>, std::allocator<dealii::CellData<1> > >::_Vector_impl" }
%"struct.std::_Vector_base<dealii::CellData<1>, std::allocator<dealii::CellData<1> > >::_Vector_impl" = type { %"struct.std::_Vector_base<dealii::CellData<1>, std::allocator<dealii::CellData<1> > >::_Vector_impl_data" }
%"struct.std::_Vector_base<dealii::CellData<1>, std::allocator<dealii::CellData<1> > >::_Vector_impl_data" = type { %"struct.dealii::CellData.120"*, %"struct.dealii::CellData.120"*, %"struct.dealii::CellData.120"* }
%"struct.dealii::CellData.120" = type { [2 x i32], i8 }
%"class.std::vector.121" = type { %"struct.std::_Vector_base.122" }
%"struct.std::_Vector_base.122" = type { %"struct.std::_Vector_base<dealii::CellData<2>, std::allocator<dealii::CellData<2> > >::_Vector_impl" }
%"struct.std::_Vector_base<dealii::CellData<2>, std::allocator<dealii::CellData<2> > >::_Vector_impl" = type { %"struct.std::_Vector_base<dealii::CellData<2>, std::allocator<dealii::CellData<2> > >::_Vector_impl_data" }
%"struct.std::_Vector_base<dealii::CellData<2>, std::allocator<dealii::CellData<2> > >::_Vector_impl_data" = type { %"struct.dealii::CellData.126"*, %"struct.dealii::CellData.126"*, %"struct.dealii::CellData.126"* }
%"struct.dealii::CellData.126" = type { [4 x i32], i8 }
%"class.std::map.102" = type { %"class.std::_Rb_tree.103" }
%"class.std::_Rb_tree.103" = type { %"struct.std::_Rb_tree<int, std::pair<const int, int>, std::_Select1st<std::pair<const int, int> >, std::less<int>, std::allocator<std::pair<const int, int> > >::_Rb_tree_impl" }
%"struct.std::_Rb_tree<int, std::pair<const int, int>, std::_Select1st<std::pair<const int, int> >, std::less<int>, std::allocator<std::pair<const int, int> > >::_Rb_tree_impl" = type { %"struct.std::_Rb_tree_key_compare.107", %"struct.std::_Rb_tree_header" }
%"struct.std::_Rb_tree_key_compare.107" = type { %"struct.std::less.108" }
%"struct.std::less.108" = type { i8 }
%"class.std::allocator.93" = type { i8 }
%"class.dealii::StandardExceptions::ExcNotImplemented" = type { %"class.dealii::ExceptionBase.base", [4 x i8] }
%"class.dealii::StandardExceptions::ExcMessage" = type { %"class.dealii::ExceptionBase.base", i8* }
%"struct.std::_Rb_tree_iterator" = type { %"struct.std::_Rb_tree_node_base"* }
%"class.std::allocator.112" = type { i8 }
%"class.dealii::PathSearch" = type <{ %"class.std::__cxx11::basic_string", %"class.std::vector.96"*, %"class.std::vector.96"*, i32, [4 x i8] }>
%"class.std::vector.96" = type { %"struct.std::_Vector_base.97" }
%"struct.std::_Vector_base.97" = type { %"struct.std::_Vector_base<std::__cxx11::basic_string<char>, std::allocator<std::__cxx11::basic_string<char> > >::_Vector_impl" }
%"struct.std::_Vector_base<std::__cxx11::basic_string<char>, std::allocator<std::__cxx11::basic_string<char> > >::_Vector_impl" = type { %"struct.std::_Vector_base<std::__cxx11::basic_string<char>, std::allocator<std::__cxx11::basic_string<char> > >::_Vector_impl_data" }
%"struct.std::_Vector_base<std::__cxx11::basic_string<char>, std::allocator<std::__cxx11::basic_string<char> > >::_Vector_impl_data" = type { %"class.std::__cxx11::basic_string"*, %"class.std::__cxx11::basic_string"*, %"class.std::__cxx11::basic_string"* }
%"class.std::basic_ifstream" = type { %"class.std::basic_istream.base", %"class.std::basic_filebuf", %"class.std::basic_ios" }
%"class.std::basic_istream.base" = type { i32 (...)**, i64 }
%"class.std::basic_filebuf" = type { %"class.std::basic_streambuf", %union.pthread_mutex_t, %"class.std::__basic_file", i32, %struct.__mbstate_t, %struct.__mbstate_t, %struct.__mbstate_t, i8*, i64, i8, i8, i8, i8, i8*, i8*, i8, %"class.std::codecvt"*, i8*, i64, i8*, i8* }
%union.pthread_mutex_t = type { %struct.__pthread_mutex_s }
%struct.__pthread_mutex_s = type { i32, i32, i32, i32, i32, i16, i16, %struct.__pthread_internal_list }
%struct.__pthread_internal_list = type { %struct.__pthread_internal_list*, %struct.__pthread_internal_list* }
%"class.std::__basic_file" = type <{ %struct._IO_FILE*, i8, [7 x i8] }>
%struct._IO_FILE = type { i32, i8*, i8*, i8*, i8*, i8*, i8*, i8*, i8*, i8*, i8*, i8*, %struct._IO_marker*, %struct._IO_FILE*, i32, i32, i64, i16, i8, [1 x i8], i8*, i64, %struct._IO_codecvt*, %struct._IO_wide_data*, %struct._IO_FILE*, i8*, i64, i32, [20 x i8] }
%struct._IO_marker = type opaque
%struct._IO_codecvt = type opaque
%struct._IO_wide_data = type opaque
%struct.__mbstate_t = type { i32, %union.anon.101 }
%union.anon.101 = type { i32 }
%"class.std::codecvt" = type { %"class.std::__codecvt_abstract_base.base", %struct.__locale_struct* }
%"class.std::__codecvt_abstract_base.base" = type { %"class.std::locale::facet.base" }
%"class.dealii::StandardExceptions::ExcInvalidState" = type { %"class.dealii::ExceptionBase.base", [4 x i8] }
%"class.dealii::StandardExceptions::ExcNeedsNetCDF" = type { %"class.dealii::ExceptionBase.base", [4 x i8] }
%"class.dealii::ExceptionBase" = type <{ %"class.std::exception", i8*, i32, [4 x i8], i8*, i8*, i8*, i8**, i32, [4 x i8] }>
%"class.__gnu_cxx::new_allocator.85" = type { i8 }
%"struct.std::_Rb_tree_const_iterator" = type { %"struct.std::_Rb_tree_node_base"* }
%"class.std::tuple" = type { %"struct.std::_Tuple_impl" }
%"struct.std::_Tuple_impl" = type { %"struct.std::_Head_base" }
%"struct.std::_Head_base" = type { i32* }
%"class.std::tuple.132" = type { i8 }
%"struct.std::pair.129" = type { i32, i32 }
%"class.__gnu_cxx::__normal_iterator.137" = type { %"struct.dealii::CellData"* }
%"class.std::tuple.138" = type { %"struct.std::_Tuple_impl.139" }
%"struct.std::_Tuple_impl.139" = type { %"struct.std::_Head_base.140" }
%"struct.std::_Head_base.140" = type { i32* }
%"class.__gnu_cxx::__normal_iterator.141" = type { %"struct.dealii::CellData.120"* }
%"class.__gnu_cxx::__normal_iterator.142" = type { %"struct.dealii::CellData.126"* }
%"class.__gnu_cxx::__normal_iterator" = type { i8* }
%"struct.std::pair.127" = type { i32, i32 }
%"class.__gnu_cxx::__normal_iterator.128" = type { i32* }
%"struct.__gnu_cxx::__ops::_Iter_less_iter" = type { i8 }
%"class.std::allocator.98" = type { i8 }
%"class.__gnu_cxx::new_allocator.113" = type { i8 }
%"class.dealii::GridIn<3, 3>::ExcNoTriangulationSelected" = type { %"class.dealii::ExceptionBase.base", [4 x i8] }
%"class.std::allocator.104" = type { i8 }
%"class.__gnu_cxx::new_allocator.105" = type { i8 }
%"class.std::allocator.117" = type { i8 }
%"class.__gnu_cxx::new_allocator.118" = type { i8 }
%"class.std::allocator.123" = type { i8 }
%"class.__gnu_cxx::new_allocator.124" = type { i8 }
%"struct.std::_Rb_tree_node" = type { %"struct.std::_Rb_tree_node_base", %"struct.__gnu_cxx::__aligned_membuf" }
%"struct.__gnu_cxx::__aligned_membuf" = type { [8 x i8] }
%"struct.std::random_access_iterator_tag" = type { i8 }
%"struct.std::pair.133" = type { %"struct.std::_Rb_tree_node_base"*, %"struct.std::_Rb_tree_node_base"* }
%"struct.std::_Select1st" = type { i8 }
%"struct.std::_Index_tuple" = type { i8 }
%"struct.std::_Index_tuple.136" = type { i8 }
%"class.std::__pair_base.130" = type { i8 }
%"class.std::__pair_base.134" = type { i8 }
%"struct.std::integral_constant" = type { i8 }
%"class.__gnu_cxx::new_allocator.99" = type { i8 }

$_ZN6dealii6GridInILi3ELi3EEC5Ev = comdat any

$_ZN6dealii12SmartPointerINS_13TriangulationILi3ELi3EEEEC2EPS2_PKc = comdat any

$_ZN6dealii6GridInILi3ELi3EE20attach_triangulationERNS_13TriangulationILi3ELi3EEE = comdat any

$_ZN6dealii12SmartPointerINS_13TriangulationILi3ELi3EEEEaSEPS2_ = comdat any

$_ZN6dealii6GridInILi3ELi3EE4readERSiNS1_6FormatE = comdat any

$_ZN6dealii6GridInILi3ELi3EE11read_dbmeshERSi = comdat any

$_ZN6dealii6GridInILi3ELi3EE8read_mshERSi = comdat any

$_ZN6dealii6GridInILi3ELi3EE8read_ucdERSi = comdat any

$_ZN6dealii6GridInILi3ELi3EE12read_tecplotERSi = comdat any

$_ZN6dealii6GridInILi3ELi3EE4readERKNSt7__cxx1112basic_stringIcSt11char_traitsIcESaIcEEENS1_6FormatE = comdat any

$_ZN6dealii6GridInILi3ELi3EE14default_suffixB5cxx11ENS1_6FormatE = comdat any

$_ZN6dealii6GridInILi3ELi3EE12parse_formatERKNSt7__cxx1112basic_stringIcSt11char_traitsIcESaIcEEE = comdat any

$_ZN6dealii10PathSearchD2Ev = comdat any

$_ZN6dealii18deal_II_exceptions9internals17issue_error_throwINS_18StandardExceptions5ExcIOEEEvPKciS6_S6_S6_T_ = comdat any

$_ZN6dealii18StandardExceptions5ExcIOC2Ev = comdat any

$_ZN6dealii18StandardExceptions5ExcIOD2Ev = comdat any

$_ZN6dealii6GridInILi3ELi3EE18skip_comment_linesERSic = comdat any

$_ZNSaIN6dealii5PointILi3EEEEC2Ev = comdat any

$_ZNSt6vectorIN6dealii5PointILi3EEESaIS2_EEC2EmRKS3_ = comdat any

$_ZNSaIN6dealii5PointILi3EEEED2Ev = comdat any

$_ZNSt3mapIiiSt4lessIiESaISt4pairIKiiEEEC2Ev = comdat any

$_ZNSt6vectorIN6dealii5PointILi3EEESaIS2_EEixEm = comdat any

$_ZN6dealii5PointILi3EEclEj = comdat any

$_ZNSt3mapIiiSt4lessIiESaISt4pairIKiiEEEixERS3_ = comdat any

$_ZNSt6vectorIN6dealii8CellDataILi3EEESaIS2_EEC2Ev = comdat any

$_ZN6dealii11SubCellDataC2Ev = comdat any

$_ZSteqIcSt11char_traitsIcESaIcEEbRKNSt7__cxx1112basic_stringIT_T0_T1_EEPKS5_ = comdat any

$_ZNSt6vectorIN6dealii8CellDataILi3EEESaIS2_EE9push_backEOS2_ = comdat any

$_ZNSt6vectorIN6dealii8CellDataILi3EEESaIS2_EE4backEv = comdat any

$_ZStneRKSt17_Rb_tree_iteratorISt4pairIKiiEES5_ = comdat any

$_ZNSt3mapIiiSt4lessIiESaISt4pairIKiiEEE4findERS3_ = comdat any

$_ZNSt3mapIiiSt4lessIiESaISt4pairIKiiEEE3endEv = comdat any

$_ZNSt3mapIiiSt4lessIiESaISt4pairIKiiEEEixEOi = comdat any

$_ZN6dealii18deal_II_exceptions9internals17issue_error_throwINS_6GridInILi3ELi3EE21ExcInvalidVertexIndexEEEvPKciS7_S7_S7_T_ = comdat any

$_ZNSt6vectorIN6dealii8CellDataILi1EEESaIS2_EE9push_backEOS2_ = comdat any

$_ZNSt6vectorIN6dealii8CellDataILi1EEESaIS2_EE4backEv = comdat any

$_ZNSt6vectorIN6dealii8CellDataILi2EEESaIS2_EE9push_backEOS2_ = comdat any

$_ZNSt6vectorIN6dealii8CellDataILi2EEESaIS2_EE4backEv = comdat any

$_ZN6dealii18deal_II_exceptions9internals17issue_error_throwINS_6GridInILi3ELi3EE20ExcUnknownIdentifierEEEvPKciS7_S7_S7_T_ = comdat any

$_ZNK6dealii12SmartPointerINS_13TriangulationILi3ELi3EEEEptEv = comdat any

$_ZN6dealii11SubCellDataD2Ev = comdat any

$_ZNSt6vectorIN6dealii8CellDataILi3EEESaIS2_EED2Ev = comdat any

$_ZNSt3mapIiiSt4lessIiESaISt4pairIKiiEEED2Ev = comdat any

$_ZNSt6vectorIN6dealii5PointILi3EEESaIS2_EED2Ev = comdat any

$_ZN6dealii18deal_II_exceptions9internals17issue_error_throwINS_6GridInILi3ELi3EE21ExcInvalidDBMESHInputEEEvPKciS7_S7_S7_T_ = comdat any

$_ZN6dealii6GridInILi3ELi3EE16skip_empty_linesERSi = comdat any

$_ZN6dealii18deal_II_exceptions9internals17issue_error_throwINS_6GridInILi3ELi3EE23ExcDBMESHWrongDimensionEEEvPKciS7_S7_S7_T_ = comdat any

$_ZN6dealii6TensorILi1ELi3EEixEj = comdat any

$_ZN6dealii18deal_II_exceptions9internals17issue_error_throwINS_6GridInILi3ELi3EE22ExcInvalidDBMeshFormatEEEvPKciS7_S7_S7_T_ = comdat any

$_ZN6dealii6GridInILi3ELi3EE22ExcInvalidDBMeshFormatC2Ev = comdat any

$_ZN6dealii6GridInILi3ELi3EE22ExcInvalidDBMeshFormatD2Ev = comdat any

$_ZNKSt6vectorIN6dealii5PointILi3EEESaIS2_EE4sizeEv = comdat any

$_ZN6dealii18deal_II_exceptions9internals17issue_error_throwINS_6GridInILi3ELi3EE19ExcInvalidGMSHInputEEEvPKciS7_S7_S7_T_ = comdat any

$_ZSteqIcEN9__gnu_cxx11__enable_ifIXsr9__is_charIT_EE7__valueEbE6__typeERKNSt7__cxx1112basic_stringIS2_St11char_traitsIS2_ESaIS2_EEESC_ = comdat any

$_ZN6dealii18deal_II_exceptions9internals17issue_error_throwINS_18StandardExceptions17ExcNotImplementedEEEvPKciS6_S6_S6_T_ = comdat any

$_ZN6dealii18StandardExceptions17ExcNotImplementedC2Ev = comdat any

$_ZN6dealii18StandardExceptions17ExcNotImplementedD2Ev = comdat any

$_ZN6dealii18deal_II_exceptions9internals17issue_error_throwINS_18StandardExceptions10ExcMessageEEEvPKciS6_S6_S6_T_ = comdat any

$_ZN6dealii18StandardExceptions10ExcMessageC2EPKc = comdat any

$_ZN6dealii18StandardExceptions10ExcMessageD2Ev = comdat any

$_ZN6dealii18deal_II_exceptions9internals17issue_error_throwINS_6GridInILi3ELi3EE26ExcGmshUnsupportedGeometryEEEvPKciS7_S7_S7_T_ = comdat any

$_ZN6dealii18deal_II_exceptions9internals17issue_error_throwINS_18StandardExceptions15ExcInvalidStateEEEvPKciS6_S6_S6_T_ = comdat any

$_ZN6dealii18StandardExceptions15ExcInvalidStateC2Ev = comdat any

$_ZN6dealii18StandardExceptions15ExcInvalidStateD2Ev = comdat any

$_ZN6dealii6GridInILi3ELi3EE16get_format_namesB5cxx11Ev = comdat any

$_ZN6dealii6GridInILi3ELi3EE20ExcUnknownIdentifierC5ENSt7__cxx1112basic_stringIcSt11char_traitsIcESaIcEEE = comdat any

$_ZN6dealii6GridInILi3ELi3EE20ExcUnknownIdentifierD5Ev = comdat any

$_ZNK6dealii6GridInILi3ELi3EE20ExcUnknownIdentifier10print_infoERSo = comdat any

$_ZN6dealii6GridInILi3ELi3EE21ExcInvalidVertexIndexC5Eii = comdat any

$_ZN6dealii6GridInILi3ELi3EE21ExcInvalidVertexIndexD5Ev = comdat any

$_ZNK6dealii6GridInILi3ELi3EE21ExcInvalidVertexIndex10print_infoERSo = comdat any

$_ZN6dealii6GridInILi3ELi3EE21ExcInvalidDBMESHInputC5ENSt7__cxx1112basic_stringIcSt11char_traitsIcESaIcEEE = comdat any

$_ZN6dealii6GridInILi3ELi3EE21ExcInvalidDBMESHInputD5Ev = comdat any

$_ZNK6dealii6GridInILi3ELi3EE21ExcInvalidDBMESHInput10print_infoERSo = comdat any

$_ZN6dealii6GridInILi3ELi3EE23ExcDBMESHWrongDimensionC5Ei = comdat any

$_ZN6dealii6GridInILi3ELi3EE23ExcDBMESHWrongDimensionD5Ev = comdat any

$_ZNK6dealii6GridInILi3ELi3EE23ExcDBMESHWrongDimension10print_infoERSo = comdat any

$_ZN6dealii6GridInILi3ELi3EE19ExcInvalidGMSHInputC5ENSt7__cxx1112basic_stringIcSt11char_traitsIcESaIcEEE = comdat any

$_ZN6dealii6GridInILi3ELi3EE19ExcInvalidGMSHInputD5Ev = comdat any

$_ZNK6dealii6GridInILi3ELi3EE19ExcInvalidGMSHInput10print_infoERSo = comdat any

$_ZN6dealii6GridInILi3ELi3EE26ExcGmshUnsupportedGeometryC5Ei = comdat any

$_ZN6dealii6GridInILi3ELi3EE26ExcGmshUnsupportedGeometryD5Ev = comdat any

$_ZNK6dealii6GridInILi3ELi3EE26ExcGmshUnsupportedGeometry10print_infoERSo = comdat any

$_ZN6dealii6GridInILi3ELi3EE20parse_tecplot_headerERNSt7__cxx1112basic_stringIcSt11char_traitsIcESaIcEEERSt6vectorIjSaIjEERjSD_SD_SC_RbSE_ = comdat any

$_ZNSt6vectorIjSaIjEEixEm = comdat any

$_ZSt9transformIN9__gnu_cxx17__normal_iteratorIPcNSt7__cxx1112basic_stringIcSt11char_traitsIcESaIcEEEEES9_PFiiEET0_T_SD_SC_T1_ = comdat any

$_ZSt7replaceIN9__gnu_cxx17__normal_iteratorIPcNSt7__cxx1112basic_stringIcSt11char_traitsIcESaIcEEEEEcEvT_SA_RKT0_SD_ = comdat any

$_ZNKSt6vectorINSt7__cxx1112basic_stringIcSt11char_traitsIcESaIcEEESaIS5_EE4sizeEv = comdat any

$_ZNSt6vectorINSt7__cxx1112basic_stringIcSt11char_traitsIcESaIcEEESaIS5_EEixEm = comdat any

$_ZSt11max_elementIN9__gnu_cxx17__normal_iteratorIPjSt6vectorIjSaIjEEEEET_S7_S7_ = comdat any

$_ZNSt6vectorIjSaIjEE5beginEv = comdat any

$_ZNSt6vectorIjSaIjEE3endEv = comdat any

$_ZNK9__gnu_cxx17__normal_iteratorIPjSt6vectorIjSaIjEEEdeEv = comdat any

$_ZNSt6vectorINSt7__cxx1112basic_stringIcSt11char_traitsIcESaIcEEESaIS5_EED2Ev = comdat any

$_ZNSaIN6dealii8CellDataILi3EEEEC2Ev = comdat any

$_ZNSt6vectorIN6dealii8CellDataILi3EEESaIS2_EEC2EmRKS3_ = comdat any

$_ZNSaIN6dealii8CellDataILi3EEEED2Ev = comdat any

$_ZNSt6vectorIN6dealii8CellDataILi3EEESaIS2_EEixEm = comdat any

$_ZN6dealii18deal_II_exceptions9internals17issue_error_throwINS_18StandardExceptions14ExcNeedsNetCDFEEEvPKciS6_S6_S6_T_ = comdat any

$_ZN6dealii18StandardExceptions14ExcNeedsNetCDFC2Ev = comdat any

$_ZN6dealii18StandardExceptions14ExcNeedsNetCDFD2Ev = comdat any

$_ZNKSt6vectorIN6dealii8CellDataILi3EEESaIS2_EE4sizeEv = comdat any

$_ZN6dealiilsILi3EEERSoS1_RKNS_5PointIXT_EEE = comdat any

$_ZNKSt6vectorIN6dealii5PointILi3EEESaIS2_EEixEm = comdat any

$_ZNKSt6vectorIN6dealii8CellDataILi3EEESaIS2_EEixEm = comdat any

$_ZN6dealii6GridInILi3ELi3EE26ExcNoTriangulationSelectedD2Ev = comdat any

$_ZN6dealii6GridInILi3ELi3EE26ExcNoTriangulationSelectedD0Ev = comdat any

$_ZN6dealii18StandardExceptions5ExcIOD0Ev = comdat any

$_ZNSt8_Rb_treeIiSt4pairIKiiESt10_Select1stIS2_ESt4lessIiESaIS2_EEC2Ev = comdat any

$_ZNSt8_Rb_treeIiSt4pairIKiiESt10_Select1stIS2_ESt4lessIiESaIS2_EE13_Rb_tree_implIS6_Lb1EEC2Ev = comdat any

$_ZNSaISt13_Rb_tree_nodeISt4pairIKiiEEEC2Ev = comdat any

$_ZNSt20_Rb_tree_key_compareISt4lessIiEEC2Ev = comdat any

$_ZNSt15_Rb_tree_headerC2Ev = comdat any

$_ZN9__gnu_cxx13new_allocatorISt13_Rb_tree_nodeISt4pairIKiiEEEC2Ev = comdat any

$_ZNSt15_Rb_tree_header8_M_resetEv = comdat any

$__clang_call_terminate = comdat any

$_ZNSt12_Vector_baseIN6dealii8CellDataILi3EEESaIS2_EEC2Ev = comdat any

$_ZNSt12_Vector_baseIN6dealii8CellDataILi3EEESaIS2_EE12_Vector_implC2Ev = comdat any

$_ZNSt12_Vector_baseIN6dealii8CellDataILi3EEESaIS2_EE17_Vector_impl_dataC2Ev = comdat any

$_ZN9__gnu_cxx13new_allocatorIN6dealii8CellDataILi3EEEEC2Ev = comdat any

$_ZNSt6vectorIN6dealii8CellDataILi1EEESaIS2_EEC2Ev = comdat any

$_ZNSt6vectorIN6dealii8CellDataILi2EEESaIS2_EEC2Ev = comdat any

$_ZNSt12_Vector_baseIN6dealii8CellDataILi1EEESaIS2_EEC2Ev = comdat any

$_ZNSt12_Vector_baseIN6dealii8CellDataILi1EEESaIS2_EE12_Vector_implC2Ev = comdat any

$_ZNSaIN6dealii8CellDataILi1EEEEC2Ev = comdat any

$_ZNSt12_Vector_baseIN6dealii8CellDataILi1EEESaIS2_EE17_Vector_impl_dataC2Ev = comdat any

$_ZN9__gnu_cxx13new_allocatorIN6dealii8CellDataILi1EEEEC2Ev = comdat any

$_ZNSt12_Vector_baseIN6dealii8CellDataILi2EEESaIS2_EEC2Ev = comdat any

$_ZNSt12_Vector_baseIN6dealii8CellDataILi2EEESaIS2_EE12_Vector_implC2Ev = comdat any

$_ZNSaIN6dealii8CellDataILi2EEEEC2Ev = comdat any

$_ZNSt12_Vector_baseIN6dealii8CellDataILi2EEESaIS2_EE17_Vector_impl_dataC2Ev = comdat any

$_ZN9__gnu_cxx13new_allocatorIN6dealii8CellDataILi2EEEEC2Ev = comdat any

$_ZNSt6vectorIN6dealii8CellDataILi2EEESaIS2_EED2Ev = comdat any

$_ZNSt6vectorIN6dealii8CellDataILi1EEESaIS2_EED2Ev = comdat any

$_ZSt8_DestroyIPN6dealii8CellDataILi2EEES2_EvT_S4_RSaIT0_E = comdat any

$_ZNSt12_Vector_baseIN6dealii8CellDataILi2EEESaIS2_EE19_M_get_Tp_allocatorEv = comdat any

$_ZNSt12_Vector_baseIN6dealii8CellDataILi2EEESaIS2_EED2Ev = comdat any

$_ZSt8_DestroyIPN6dealii8CellDataILi2EEEEvT_S4_ = comdat any

$_ZNSt12_Destroy_auxILb1EE9__destroyIPN6dealii8CellDataILi2EEEEEvT_S6_ = comdat any

$_ZNSt12_Vector_baseIN6dealii8CellDataILi2EEESaIS2_EE13_M_deallocateEPS2_m = comdat any

$_ZNSt12_Vector_baseIN6dealii8CellDataILi2EEESaIS2_EE12_Vector_implD2Ev = comdat any

$_ZNSt16allocator_traitsISaIN6dealii8CellDataILi2EEEEE10deallocateERS3_PS2_m = comdat any

$_ZN9__gnu_cxx13new_allocatorIN6dealii8CellDataILi2EEEE10deallocateEPS3_m = comdat any

$_ZNSaIN6dealii8CellDataILi2EEEED2Ev = comdat any

$_ZN9__gnu_cxx13new_allocatorIN6dealii8CellDataILi2EEEED2Ev = comdat any

$_ZSt8_DestroyIPN6dealii8CellDataILi1EEES2_EvT_S4_RSaIT0_E = comdat any

$_ZNSt12_Vector_baseIN6dealii8CellDataILi1EEESaIS2_EE19_M_get_Tp_allocatorEv = comdat any

$_ZNSt12_Vector_baseIN6dealii8CellDataILi1EEESaIS2_EED2Ev = comdat any

$_ZSt8_DestroyIPN6dealii8CellDataILi1EEEEvT_S4_ = comdat any

$_ZNSt12_Destroy_auxILb1EE9__destroyIPN6dealii8CellDataILi1EEEEEvT_S6_ = comdat any

$_ZNSt12_Vector_baseIN6dealii8CellDataILi1EEESaIS2_EE13_M_deallocateEPS2_m = comdat any

$_ZNSt12_Vector_baseIN6dealii8CellDataILi1EEESaIS2_EE12_Vector_implD2Ev = comdat any

$_ZNSt16allocator_traitsISaIN6dealii8CellDataILi1EEEEE10deallocateERS3_PS2_m = comdat any

$_ZN9__gnu_cxx13new_allocatorIN6dealii8CellDataILi1EEEE10deallocateEPS3_m = comdat any

$_ZNSaIN6dealii8CellDataILi1EEEED2Ev = comdat any

$_ZN9__gnu_cxx13new_allocatorIN6dealii8CellDataILi1EEEED2Ev = comdat any

$_ZNSt8_Rb_treeIiSt4pairIKiiESt10_Select1stIS2_ESt4lessIiESaIS2_EED2Ev = comdat any

$_ZNSt8_Rb_treeIiSt4pairIKiiESt10_Select1stIS2_ESt4lessIiESaIS2_EE8_M_eraseEPSt13_Rb_tree_nodeIS2_E = comdat any

$_ZNSt8_Rb_treeIiSt4pairIKiiESt10_Select1stIS2_ESt4lessIiESaIS2_EE8_M_beginEv = comdat any

$_ZNSt8_Rb_treeIiSt4pairIKiiESt10_Select1stIS2_ESt4lessIiESaIS2_EE13_Rb_tree_implIS6_Lb1EED2Ev = comdat any

$_ZNSt8_Rb_treeIiSt4pairIKiiESt10_Select1stIS2_ESt4lessIiESaIS2_EE8_S_rightEPSt18_Rb_tree_node_base = comdat any

$_ZNSt8_Rb_treeIiSt4pairIKiiESt10_Select1stIS2_ESt4lessIiESaIS2_EE7_S_leftEPSt18_Rb_tree_node_base = comdat any

$_ZNSt8_Rb_treeIiSt4pairIKiiESt10_Select1stIS2_ESt4lessIiESaIS2_EE12_M_drop_nodeEPSt13_Rb_tree_nodeIS2_E = comdat any

$_ZNSt8_Rb_treeIiSt4pairIKiiESt10_Select1stIS2_ESt4lessIiESaIS2_EE15_M_destroy_nodeEPSt13_Rb_tree_nodeIS2_E = comdat any

$_ZNSt8_Rb_treeIiSt4pairIKiiESt10_Select1stIS2_ESt4lessIiESaIS2_EE11_M_put_nodeEPSt13_Rb_tree_nodeIS2_E = comdat any

$_ZNSt16allocator_traitsISaISt13_Rb_tree_nodeISt4pairIKiiEEEE7destroyIS3_EEvRS5_PT_ = comdat any

$_ZNSt8_Rb_treeIiSt4pairIKiiESt10_Select1stIS2_ESt4lessIiESaIS2_EE21_M_get_Node_allocatorEv = comdat any

$_ZNSt13_Rb_tree_nodeISt4pairIKiiEE9_M_valptrEv = comdat any

$_ZN9__gnu_cxx13new_allocatorISt13_Rb_tree_nodeISt4pairIKiiEEE7destroyIS4_EEvPT_ = comdat any

$_ZN9__gnu_cxx16__aligned_membufISt4pairIKiiEE6_M_ptrEv = comdat any

$_ZN9__gnu_cxx16__aligned_membufISt4pairIKiiEE7_M_addrEv = comdat any

$_ZNSt16allocator_traitsISaISt13_Rb_tree_nodeISt4pairIKiiEEEE10deallocateERS5_PS4_m = comdat any

$_ZN9__gnu_cxx13new_allocatorISt13_Rb_tree_nodeISt4pairIKiiEEE10deallocateEPS5_m = comdat any

$_ZNSaISt13_Rb_tree_nodeISt4pairIKiiEEED2Ev = comdat any

$_ZN9__gnu_cxx13new_allocatorISt13_Rb_tree_nodeISt4pairIKiiEEED2Ev = comdat any

$_ZN6dealii6GridInILi3ELi3EE22ExcInvalidDBMeshFormatD0Ev = comdat any

$_ZN6dealii18StandardExceptions17ExcNotImplementedD0Ev = comdat any

$_ZN6dealii18StandardExceptions10ExcMessageD0Ev = comdat any

$_ZNK6dealii18StandardExceptions10ExcMessage10print_infoERSo = comdat any

$_ZN6dealii18StandardExceptions15ExcInvalidStateD0Ev = comdat any

$_ZSt13__max_elementIN9__gnu_cxx17__normal_iteratorIPjSt6vectorIjSaIjEEEENS0_5__ops15_Iter_less_iterEET_S9_S9_T0_ = comdat any

$_ZN9__gnu_cxx5__ops16__iter_less_iterEv = comdat any

$_ZN9__gnu_cxxeqIPjSt6vectorIjSaIjEEEEbRKNS_17__normal_iteratorIT_T0_EESA_ = comdat any

$_ZN9__gnu_cxxneIPjSt6vectorIjSaIjEEEEbRKNS_17__normal_iteratorIT_T0_EESA_ = comdat any

$_ZN9__gnu_cxx17__normal_iteratorIPjSt6vectorIjSaIjEEEppEv = comdat any

$_ZNK9__gnu_cxx5__ops15_Iter_less_iterclINS_17__normal_iteratorIPjSt6vectorIjSaIjEEEES8_EEbT_T0_ = comdat any

$_ZNK9__gnu_cxx17__normal_iteratorIPjSt6vectorIjSaIjEEE4baseEv = comdat any

$_ZN6dealii18StandardExceptions14ExcNeedsNetCDFD0Ev = comdat any

$_ZN6dealii18StandardExceptions5ExcIOC2EOS1_ = comdat any

$_ZN9__gnu_cxx13new_allocatorIN6dealii8CellDataILi3EEEED2Ev = comdat any

$_ZNSt6vectorIN6dealii8CellDataILi3EEESaIS2_EE17_S_check_init_lenEmRKS3_ = comdat any

$_ZNSt12_Vector_baseIN6dealii8CellDataILi3EEESaIS2_EEC2EmRKS3_ = comdat any

$_ZNSt6vectorIN6dealii8CellDataILi3EEESaIS2_EE21_M_default_initializeEm = comdat any

$_ZNSt12_Vector_baseIN6dealii8CellDataILi3EEESaIS2_EED2Ev = comdat any

$_ZNSt6vectorIN6dealii8CellDataILi3EEESaIS2_EE11_S_max_sizeERKS3_ = comdat any

$_ZNSaIN6dealii8CellDataILi3EEEEC2ERKS2_ = comdat any

$_ZNSt16allocator_traitsISaIN6dealii8CellDataILi3EEEEE8max_sizeERKS3_ = comdat any

$_ZSt3minImERKT_S2_S2_ = comdat any

$_ZNK9__gnu_cxx13new_allocatorIN6dealii8CellDataILi3EEEE8max_sizeEv = comdat any

$_ZNK9__gnu_cxx13new_allocatorIN6dealii8CellDataILi3EEEE11_M_max_sizeEv = comdat any

$_ZN9__gnu_cxx13new_allocatorIN6dealii8CellDataILi3EEEEC2ERKS4_ = comdat any

$_ZNSt12_Vector_baseIN6dealii8CellDataILi3EEESaIS2_EE12_Vector_implC2ERKS3_ = comdat any

$_ZNSt12_Vector_baseIN6dealii8CellDataILi3EEESaIS2_EE17_M_create_storageEm = comdat any

$_ZNSt12_Vector_baseIN6dealii8CellDataILi3EEESaIS2_EE12_Vector_implD2Ev = comdat any

$_ZNSt12_Vector_baseIN6dealii8CellDataILi3EEESaIS2_EE11_M_allocateEm = comdat any

$_ZNSt16allocator_traitsISaIN6dealii8CellDataILi3EEEEE8allocateERS3_m = comdat any

$_ZN9__gnu_cxx13new_allocatorIN6dealii8CellDataILi3EEEE8allocateEmPKv = comdat any

$_ZSt27__uninitialized_default_n_aIPN6dealii8CellDataILi3EEEmS2_ET_S4_T0_RSaIT1_E = comdat any

$_ZNSt12_Vector_baseIN6dealii8CellDataILi3EEESaIS2_EE19_M_get_Tp_allocatorEv = comdat any

$_ZSt25__uninitialized_default_nIPN6dealii8CellDataILi3EEEmET_S4_T0_ = comdat any

$_ZNSt27__uninitialized_default_n_1ILb1EE18__uninit_default_nIPN6dealii8CellDataILi3EEEmEET_S6_T0_ = comdat any

$_ZSt6fill_nIPN6dealii8CellDataILi3EEEmS2_ET_S4_T0_RKT1_ = comdat any

$_ZSt10__fill_n_aIPN6dealii8CellDataILi3EEEmS2_ET_S4_T0_RKT1_St26random_access_iterator_tag = comdat any

$_ZSt17__size_to_integerm = comdat any

$_ZSt19__iterator_categoryIPN6dealii8CellDataILi3EEEENSt15iterator_traitsIT_E17iterator_categoryERKS5_ = comdat any

$_ZSt8__fill_aIPN6dealii8CellDataILi3EEES2_EvT_S4_RKT0_ = comdat any

$_ZSt9__fill_a1IPN6dealii8CellDataILi3EEES2_EN9__gnu_cxx11__enable_ifIXntsr11__is_scalarIT0_EE7__valueEvE6__typeET_S9_RKS6_ = comdat any

$_ZNSt12_Vector_baseIN6dealii8CellDataILi3EEESaIS2_EE13_M_deallocateEPS2_m = comdat any

$_ZNSt16allocator_traitsISaIN6dealii8CellDataILi3EEEEE10deallocateERS3_PS2_m = comdat any

$_ZN9__gnu_cxx13new_allocatorIN6dealii8CellDataILi3EEEE10deallocateEPS3_m = comdat any

$_ZSt8_DestroyIPN6dealii8CellDataILi3EEES2_EvT_S4_RSaIT0_E = comdat any

$_ZSt8_DestroyIPN6dealii8CellDataILi3EEEEvT_S4_ = comdat any

$_ZNSt12_Destroy_auxILb1EE9__destroyIPN6dealii8CellDataILi3EEEEEvT_S6_ = comdat any

$_ZN9__gnu_cxx13new_allocatorIN6dealii5PointILi3EEEEC2Ev = comdat any

$_ZN9__gnu_cxx13new_allocatorIN6dealii5PointILi3EEEED2Ev = comdat any

$_ZNSt6vectorIN6dealii5PointILi3EEESaIS2_EE17_S_check_init_lenEmRKS3_ = comdat any

$_ZNSt12_Vector_baseIN6dealii5PointILi3EEESaIS2_EEC2EmRKS3_ = comdat any

$_ZNSt6vectorIN6dealii5PointILi3EEESaIS2_EE21_M_default_initializeEm = comdat any

$_ZNSt12_Vector_baseIN6dealii5PointILi3EEESaIS2_EED2Ev = comdat any

$_ZNSt6vectorIN6dealii5PointILi3EEESaIS2_EE11_S_max_sizeERKS3_ = comdat any

$_ZNSaIN6dealii5PointILi3EEEEC2ERKS2_ = comdat any

$_ZNSt16allocator_traitsISaIN6dealii5PointILi3EEEEE8max_sizeERKS3_ = comdat any

$_ZNK9__gnu_cxx13new_allocatorIN6dealii5PointILi3EEEE8max_sizeEv = comdat any

$_ZNK9__gnu_cxx13new_allocatorIN6dealii5PointILi3EEEE11_M_max_sizeEv = comdat any

$_ZN9__gnu_cxx13new_allocatorIN6dealii5PointILi3EEEEC2ERKS4_ = comdat any

$_ZNSt12_Vector_baseIN6dealii5PointILi3EEESaIS2_EE12_Vector_implC2ERKS3_ = comdat any

$_ZNSt12_Vector_baseIN6dealii5PointILi3EEESaIS2_EE17_M_create_storageEm = comdat any

$_ZNSt12_Vector_baseIN6dealii5PointILi3EEESaIS2_EE12_Vector_implD2Ev = comdat any

$_ZNSt12_Vector_baseIN6dealii5PointILi3EEESaIS2_EE17_Vector_impl_dataC2Ev = comdat any

$_ZNSt12_Vector_baseIN6dealii5PointILi3EEESaIS2_EE11_M_allocateEm = comdat any

$_ZNSt16allocator_traitsISaIN6dealii5PointILi3EEEEE8allocateERS3_m = comdat any

$_ZN9__gnu_cxx13new_allocatorIN6dealii5PointILi3EEEE8allocateEmPKv = comdat any

$_ZSt27__uninitialized_default_n_aIPN6dealii5PointILi3EEEmS2_ET_S4_T0_RSaIT1_E = comdat any

$_ZNSt12_Vector_baseIN6dealii5PointILi3EEESaIS2_EE19_M_get_Tp_allocatorEv = comdat any

$_ZSt25__uninitialized_default_nIPN6dealii5PointILi3EEEmET_S4_T0_ = comdat any

$_ZNSt27__uninitialized_default_n_1ILb0EE18__uninit_default_nIPN6dealii5PointILi3EEEmEET_S6_T0_ = comdat any

$_ZSt10_ConstructIN6dealii5PointILi3EEEJEEvPT_DpOT0_ = comdat any

$_ZSt11__addressofIN6dealii5PointILi3EEEEPT_RS3_ = comdat any

$_ZSt8_DestroyIPN6dealii5PointILi3EEEEvT_S4_ = comdat any

$_ZN6dealii5PointILi3EEC2Ev = comdat any

$_ZN6dealii6TensorILi1ELi3EEC2Eb = comdat any

$_ZNSt12_Destroy_auxILb1EE9__destroyIPN6dealii5PointILi3EEEEEvT_S6_ = comdat any

$_ZNSt12_Vector_baseIN6dealii5PointILi3EEESaIS2_EE13_M_deallocateEPS2_m = comdat any

$_ZNSt16allocator_traitsISaIN6dealii5PointILi3EEEEE10deallocateERS3_PS2_m = comdat any

$_ZN9__gnu_cxx13new_allocatorIN6dealii5PointILi3EEEE10deallocateEPS3_m = comdat any

$_ZSt8_DestroyIPN6dealii5PointILi3EEES2_EvT_S4_RSaIT0_E = comdat any

$_ZN6dealii18StandardExceptions14ExcNeedsNetCDFC2EOS1_ = comdat any

$_ZNK6dealii6TensorILi1ELi3EEixEj = comdat any

$_ZNK6dealii11Subscriptor9subscribeEPKc = comdat any

$_ZNK6dealii11Subscriptor11unsubscribeEPKc = comdat any

$_ZNSt3mapIiiSt4lessIiESaISt4pairIKiiEEE11lower_boundERS3_ = comdat any

$_ZSteqRKSt17_Rb_tree_iteratorISt4pairIKiiEES5_ = comdat any

$_ZNKSt3mapIiiSt4lessIiESaISt4pairIKiiEEE8key_compEv = comdat any

$_ZNKSt4lessIiEclERKiS2_ = comdat any

$_ZNKSt17_Rb_tree_iteratorISt4pairIKiiEEdeEv = comdat any

$_ZNSt8_Rb_treeIiSt4pairIKiiESt10_Select1stIS2_ESt4lessIiESaIS2_EE22_M_emplace_hint_uniqueIJRKSt21piecewise_construct_tSt5tupleIJRS1_EESD_IJEEEEESt17_Rb_tree_iteratorIS2_ESt23_Rb_tree_const_iteratorIS2_EDpOT_ = comdat any

$_ZNSt23_Rb_tree_const_iteratorISt4pairIKiiEEC2ERKSt17_Rb_tree_iteratorIS2_E = comdat any

$_ZNSt5tupleIJRKiEEC2ILb1ELb1EEES1_ = comdat any

$_ZNSt8_Rb_treeIiSt4pairIKiiESt10_Select1stIS2_ESt4lessIiESaIS2_EE11lower_boundERS1_ = comdat any

$_ZNSt8_Rb_treeIiSt4pairIKiiESt10_Select1stIS2_ESt4lessIiESaIS2_EE14_M_lower_boundEPSt13_Rb_tree_nodeIS2_EPSt18_Rb_tree_node_baseRS1_ = comdat any

$_ZNSt8_Rb_treeIiSt4pairIKiiESt10_Select1stIS2_ESt4lessIiESaIS2_EE6_M_endEv = comdat any

$_ZNSt8_Rb_treeIiSt4pairIKiiESt10_Select1stIS2_ESt4lessIiESaIS2_EE6_S_keyEPKSt13_Rb_tree_nodeIS2_E = comdat any

$_ZNSt17_Rb_tree_iteratorISt4pairIKiiEEC2EPSt18_Rb_tree_node_base = comdat any

$_ZNKSt10_Select1stISt4pairIKiiEEclERKS2_ = comdat any

$_ZNKSt13_Rb_tree_nodeISt4pairIKiiEE9_M_valptrEv = comdat any

$_ZNK9__gnu_cxx16__aligned_membufISt4pairIKiiEE6_M_ptrEv = comdat any

$_ZNK9__gnu_cxx16__aligned_membufISt4pairIKiiEE7_M_addrEv = comdat any

$_ZNKSt8_Rb_treeIiSt4pairIKiiESt10_Select1stIS2_ESt4lessIiESaIS2_EE8key_compEv = comdat any

$_ZNSt8_Rb_treeIiSt4pairIKiiESt10_Select1stIS2_ESt4lessIiESaIS2_EE14_M_create_nodeIJRKSt21piecewise_construct_tSt5tupleIJRS1_EESD_IJEEEEEPSt13_Rb_tree_nodeIS2_EDpOT_ = comdat any

$_ZSt7forwardIRKSt21piecewise_construct_tEOT_RNSt16remove_referenceIS3_E4typeE = comdat any

$_ZSt7forwardISt5tupleIJRKiEEEOT_RNSt16remove_referenceIS4_E4typeE = comdat any

$_ZSt7forwardISt5tupleIJEEEOT_RNSt16remove_referenceIS2_E4typeE = comdat any

$_ZNSt8_Rb_treeIiSt4pairIKiiESt10_Select1stIS2_ESt4lessIiESaIS2_EE29_M_get_insert_hint_unique_posESt23_Rb_tree_const_iteratorIS2_ERS1_ = comdat any

$_ZNSt8_Rb_treeIiSt4pairIKiiESt10_Select1stIS2_ESt4lessIiESaIS2_EE14_M_insert_nodeEPSt18_Rb_tree_node_baseSA_PSt13_Rb_tree_nodeIS2_E = comdat any

$_ZNSt8_Rb_treeIiSt4pairIKiiESt10_Select1stIS2_ESt4lessIiESaIS2_EE11_M_get_nodeEv = comdat any

$_ZNSt8_Rb_treeIiSt4pairIKiiESt10_Select1stIS2_ESt4lessIiESaIS2_EE17_M_construct_nodeIJRKSt21piecewise_construct_tSt5tupleIJRS1_EESD_IJEEEEEvPSt13_Rb_tree_nodeIS2_EDpOT_ = comdat any

$_ZNSt16allocator_traitsISaISt13_Rb_tree_nodeISt4pairIKiiEEEE8allocateERS5_m = comdat any

$_ZN9__gnu_cxx13new_allocatorISt13_Rb_tree_nodeISt4pairIKiiEEE8allocateEmPKv = comdat any

$_ZNK9__gnu_cxx13new_allocatorISt13_Rb_tree_nodeISt4pairIKiiEEE11_M_max_sizeEv = comdat any

$_ZNSt16allocator_traitsISaISt13_Rb_tree_nodeISt4pairIKiiEEEE9constructIS3_JRKSt21piecewise_construct_tSt5tupleIJRS2_EESB_IJEEEEEvRS5_PT_DpOT0_ = comdat any

$_ZN9__gnu_cxx13new_allocatorISt13_Rb_tree_nodeISt4pairIKiiEEE9constructIS4_JRKSt21piecewise_construct_tSt5tupleIJRS3_EESB_IJEEEEEvPT_DpOT0_ = comdat any

$_ZNSt5tupleIJRKiEEC2EOS2_ = comdat any

$_ZNSt4pairIKiiEC2IJRS0_EJEEESt21piecewise_construct_tSt5tupleIJDpT_EES5_IJDpT0_EE = comdat any

$_ZNSt11_Tuple_implILm0EJRKiEEC2EOS2_ = comdat any

$_ZSt7forwardIRKiEOT_RNSt16remove_referenceIS2_E4typeE = comdat any

$_ZNSt11_Tuple_implILm0EJRKiEE7_M_headERS2_ = comdat any

$_ZNSt10_Head_baseILm0ERKiLb0EEC2ES1_ = comdat any

$_ZNSt10_Head_baseILm0ERKiLb0EE7_M_headERS2_ = comdat any

$_ZNSt4pairIKiiEC2IJRS0_EJLm0EEJEJEEERSt5tupleIJDpT_EERS4_IJDpT1_EESt12_Index_tupleIJXspT0_EEESD_IJXspT2_EEE = comdat any

$_ZSt3getILm0EJRKiEERNSt13tuple_elementIXT_ESt5tupleIJDpT0_EEE4typeERS6_ = comdat any

$_ZSt12__get_helperILm0ERKiJEERT0_RSt11_Tuple_implIXT_EJS2_DpT1_EE = comdat any

$_ZNKSt23_Rb_tree_const_iteratorISt4pairIKiiEE13_M_const_castEv = comdat any

$_ZNKSt8_Rb_treeIiSt4pairIKiiESt10_Select1stIS2_ESt4lessIiESaIS2_EE4sizeEv = comdat any

$_ZNSt8_Rb_treeIiSt4pairIKiiESt10_Select1stIS2_ESt4lessIiESaIS2_EE6_S_keyEPKSt18_Rb_tree_node_base = comdat any

$_ZNSt8_Rb_treeIiSt4pairIKiiESt10_Select1stIS2_ESt4lessIiESaIS2_EE12_M_rightmostEv = comdat any

$_ZNSt4pairIPSt18_Rb_tree_node_baseS1_EC2IRS1_Lb1EEERKS1_OT_ = comdat any

$_ZNSt8_Rb_treeIiSt4pairIKiiESt10_Select1stIS2_ESt4lessIiESaIS2_EE24_M_get_insert_unique_posERS1_ = comdat any

$_ZNSt8_Rb_treeIiSt4pairIKiiESt10_Select1stIS2_ESt4lessIiESaIS2_EE11_M_leftmostEv = comdat any

$_ZNSt4pairIPSt18_Rb_tree_node_baseS1_EC2IRS1_S4_Lb1EEEOT_OT0_ = comdat any

$_ZNSt17_Rb_tree_iteratorISt4pairIKiiEEmmEv = comdat any

$_ZNSt17_Rb_tree_iteratorISt4pairIKiiEEppEv = comdat any

$_ZNSt4pairIPSt18_Rb_tree_node_baseS1_EC2IRS1_Lb1EEEOT_RKS1_ = comdat any

$_ZSt7forwardIRPSt18_Rb_tree_node_baseEOT_RNSt16remove_referenceIS3_E4typeE = comdat any

$_ZNSt8_Rb_treeIiSt4pairIKiiESt10_Select1stIS2_ESt4lessIiESaIS2_EE5beginEv = comdat any

$_ZNSt4pairIPSt18_Rb_tree_node_baseS1_EC2IRPSt13_Rb_tree_nodeIS_IKiiEERS1_Lb1EEEOT_OT0_ = comdat any

$_ZSt7forwardIRPSt13_Rb_tree_nodeISt4pairIKiiEEEOT_RNSt16remove_referenceIS7_E4typeE = comdat any

$_ZNSt11_Tuple_implILm0EJRKiEEC2ES1_ = comdat any

$_ZNSt6vectorIN6dealii8CellDataILi3EEESaIS2_EE12emplace_backIJS2_EEEvDpOT_ = comdat any

$_ZSt4moveIRN6dealii8CellDataILi3EEEEONSt16remove_referenceIT_E4typeEOS5_ = comdat any

$_ZNSt16allocator_traitsISaIN6dealii8CellDataILi3EEEEE9constructIS2_JS2_EEEvRS3_PT_DpOT0_ = comdat any

$_ZSt7forwardIN6dealii8CellDataILi3EEEEOT_RNSt16remove_referenceIS3_E4typeE = comdat any

$_ZNSt6vectorIN6dealii8CellDataILi3EEESaIS2_EE17_M_realloc_insertIJS2_EEEvN9__gnu_cxx17__normal_iteratorIPS2_S4_EEDpOT_ = comdat any

$_ZNSt6vectorIN6dealii8CellDataILi3EEESaIS2_EE3endEv = comdat any

$_ZN9__gnu_cxx13new_allocatorIN6dealii8CellDataILi3EEEE9constructIS3_JS3_EEEvPT_DpOT0_ = comdat any

$_ZNKSt6vectorIN6dealii8CellDataILi3EEESaIS2_EE12_M_check_lenEmPKc = comdat any

$_ZN9__gnu_cxxmiIPN6dealii8CellDataILi3EEESt6vectorIS3_SaIS3_EEEENS_17__normal_iteratorIT_T0_E15difference_typeERKSB_SE_ = comdat any

$_ZNSt6vectorIN6dealii8CellDataILi3EEESaIS2_EE5beginEv = comdat any

$_ZNSt6vectorIN6dealii8CellDataILi3EEESaIS2_EE11_S_relocateEPS2_S5_S5_RS3_ = comdat any

$_ZNK9__gnu_cxx17__normal_iteratorIPN6dealii8CellDataILi3EEESt6vectorIS3_SaIS3_EEE4baseEv = comdat any

$_ZNKSt6vectorIN6dealii8CellDataILi3EEESaIS2_EE8max_sizeEv = comdat any

$_ZSt3maxImERKT_S2_S2_ = comdat any

$_ZNKSt12_Vector_baseIN6dealii8CellDataILi3EEESaIS2_EE19_M_get_Tp_allocatorEv = comdat any

$_ZN9__gnu_cxx17__normal_iteratorIPN6dealii8CellDataILi3EEESt6vectorIS3_SaIS3_EEEC2ERKS4_ = comdat any

$_ZNSt6vectorIN6dealii8CellDataILi3EEESaIS2_EE14_S_do_relocateEPS2_S5_S5_RS3_St17integral_constantIbLb1EE = comdat any

$_ZSt12__relocate_aIPN6dealii8CellDataILi3EEES3_SaIS2_EET0_T_S6_S5_RT1_ = comdat any

$_ZSt14__relocate_a_1IN6dealii8CellDataILi3EEES2_ENSt9enable_ifIXsr3std24__is_bitwise_relocatableIT_EE5valueEPS4_E4typeES5_S5_S5_RSaIT0_E = comdat any

$_ZSt12__niter_baseIPN6dealii8CellDataILi3EEEET_S4_ = comdat any

$_ZNK9__gnu_cxx17__normal_iteratorIPN6dealii8CellDataILi3EEESt6vectorIS3_SaIS3_EEEmiEl = comdat any

$_ZNK9__gnu_cxx17__normal_iteratorIPN6dealii8CellDataILi3EEESt6vectorIS3_SaIS3_EEEdeEv = comdat any

$_ZNSt8_Rb_treeIiSt4pairIKiiESt10_Select1stIS2_ESt4lessIiESaIS2_EE4findERS1_ = comdat any

$_ZNSt8_Rb_treeIiSt4pairIKiiESt10_Select1stIS2_ESt4lessIiESaIS2_EE3endEv = comdat any

$_ZNSt8_Rb_treeIiSt4pairIKiiESt10_Select1stIS2_ESt4lessIiESaIS2_EE22_M_emplace_hint_uniqueIJRKSt21piecewise_construct_tSt5tupleIJOiEESD_IJEEEEESt17_Rb_tree_iteratorIS2_ESt23_Rb_tree_const_iteratorIS2_EDpOT_ = comdat any

$_ZSt16forward_as_tupleIJiEESt5tupleIJDpOT_EES3_ = comdat any

$_ZSt4moveIRiEONSt16remove_referenceIT_E4typeEOS2_ = comdat any

$_ZNSt8_Rb_treeIiSt4pairIKiiESt10_Select1stIS2_ESt4lessIiESaIS2_EE14_M_create_nodeIJRKSt21piecewise_construct_tSt5tupleIJOiEESD_IJEEEEEPSt13_Rb_tree_nodeIS2_EDpOT_ = comdat any

$_ZSt7forwardISt5tupleIJOiEEEOT_RNSt16remove_referenceIS3_E4typeE = comdat any

$_ZNSt8_Rb_treeIiSt4pairIKiiESt10_Select1stIS2_ESt4lessIiESaIS2_EE17_M_construct_nodeIJRKSt21piecewise_construct_tSt5tupleIJOiEESD_IJEEEEEvPSt13_Rb_tree_nodeIS2_EDpOT_ = comdat any

$_ZNSt16allocator_traitsISaISt13_Rb_tree_nodeISt4pairIKiiEEEE9constructIS3_JRKSt21piecewise_construct_tSt5tupleIJOiEESB_IJEEEEEvRS5_PT_DpOT0_ = comdat any

$_ZN9__gnu_cxx13new_allocatorISt13_Rb_tree_nodeISt4pairIKiiEEE9constructIS4_JRKSt21piecewise_construct_tSt5tupleIJOiEESB_IJEEEEEvPT_DpOT0_ = comdat any

$_ZNSt5tupleIJOiEEC2EOS1_ = comdat any

$_ZNSt4pairIKiiEC2IJOiEJEEESt21piecewise_construct_tSt5tupleIJDpT_EES5_IJDpT0_EE = comdat any

$_ZNSt11_Tuple_implILm0EJOiEEC2EOS1_ = comdat any

$_ZSt7forwardIOiEOT_RNSt16remove_referenceIS1_E4typeE = comdat any

$_ZNSt11_Tuple_implILm0EJOiEE7_M_headERS1_ = comdat any

$_ZNSt10_Head_baseILm0EOiLb0EEC2IiEEOT_ = comdat any

$_ZNSt10_Head_baseILm0EOiLb0EE7_M_headERS1_ = comdat any

$_ZSt7forwardIiEOT_RNSt16remove_referenceIS0_E4typeE = comdat any

$_ZNSt4pairIKiiEC2IJOiEJLm0EEJEJEEERSt5tupleIJDpT_EERS4_IJDpT1_EESt12_Index_tupleIJXspT0_EEESD_IJXspT2_EEE = comdat any

$_ZSt3getILm0EJOiEERNSt13tuple_elementIXT_ESt5tupleIJDpT0_EEE4typeERS5_ = comdat any

$_ZSt12__get_helperILm0EOiJEERT0_RSt11_Tuple_implIXT_EJS1_DpT1_EE = comdat any

$_ZNSt5tupleIJOiEEC2IJiELb1ELb1EEEDpOT_ = comdat any

$_ZNSt11_Tuple_implILm0EJOiEEC2IiEEOT_ = comdat any

$_ZN6dealii6GridInILi3ELi3EE21ExcInvalidVertexIndexC2ERKS2_ = comdat any

$_ZNSt6vectorIN6dealii8CellDataILi1EEESaIS2_EE12emplace_backIJS2_EEEvDpOT_ = comdat any

$_ZSt4moveIRN6dealii8CellDataILi1EEEEONSt16remove_referenceIT_E4typeEOS5_ = comdat any

$_ZNSt16allocator_traitsISaIN6dealii8CellDataILi1EEEEE9constructIS2_JS2_EEEvRS3_PT_DpOT0_ = comdat any

$_ZSt7forwardIN6dealii8CellDataILi1EEEEOT_RNSt16remove_referenceIS3_E4typeE = comdat any

$_ZNSt6vectorIN6dealii8CellDataILi1EEESaIS2_EE17_M_realloc_insertIJS2_EEEvN9__gnu_cxx17__normal_iteratorIPS2_S4_EEDpOT_ = comdat any

$_ZNSt6vectorIN6dealii8CellDataILi1EEESaIS2_EE3endEv = comdat any

$_ZN9__gnu_cxx13new_allocatorIN6dealii8CellDataILi1EEEE9constructIS3_JS3_EEEvPT_DpOT0_ = comdat any

$_ZNKSt6vectorIN6dealii8CellDataILi1EEESaIS2_EE12_M_check_lenEmPKc = comdat any

$_ZN9__gnu_cxxmiIPN6dealii8CellDataILi1EEESt6vectorIS3_SaIS3_EEEENS_17__normal_iteratorIT_T0_E15difference_typeERKSB_SE_ = comdat any

$_ZNSt6vectorIN6dealii8CellDataILi1EEESaIS2_EE5beginEv = comdat any

$_ZNSt12_Vector_baseIN6dealii8CellDataILi1EEESaIS2_EE11_M_allocateEm = comdat any

$_ZNSt6vectorIN6dealii8CellDataILi1EEESaIS2_EE11_S_relocateEPS2_S5_S5_RS3_ = comdat any

$_ZNK9__gnu_cxx17__normal_iteratorIPN6dealii8CellDataILi1EEESt6vectorIS3_SaIS3_EEE4baseEv = comdat any

$_ZNKSt6vectorIN6dealii8CellDataILi1EEESaIS2_EE8max_sizeEv = comdat any

$_ZNKSt6vectorIN6dealii8CellDataILi1EEESaIS2_EE4sizeEv = comdat any

$_ZNSt6vectorIN6dealii8CellDataILi1EEESaIS2_EE11_S_max_sizeERKS3_ = comdat any

$_ZNKSt12_Vector_baseIN6dealii8CellDataILi1EEESaIS2_EE19_M_get_Tp_allocatorEv = comdat any

$_ZNSt16allocator_traitsISaIN6dealii8CellDataILi1EEEEE8max_sizeERKS3_ = comdat any

$_ZNK9__gnu_cxx13new_allocatorIN6dealii8CellDataILi1EEEE8max_sizeEv = comdat any

$_ZNK9__gnu_cxx13new_allocatorIN6dealii8CellDataILi1EEEE11_M_max_sizeEv = comdat any

$_ZN9__gnu_cxx17__normal_iteratorIPN6dealii8CellDataILi1EEESt6vectorIS3_SaIS3_EEEC2ERKS4_ = comdat any

$_ZNSt16allocator_traitsISaIN6dealii8CellDataILi1EEEEE8allocateERS3_m = comdat any

$_ZN9__gnu_cxx13new_allocatorIN6dealii8CellDataILi1EEEE8allocateEmPKv = comdat any

$_ZNSt6vectorIN6dealii8CellDataILi1EEESaIS2_EE14_S_do_relocateEPS2_S5_S5_RS3_St17integral_constantIbLb1EE = comdat any

$_ZSt12__relocate_aIPN6dealii8CellDataILi1EEES3_SaIS2_EET0_T_S6_S5_RT1_ = comdat any

$_ZSt14__relocate_a_1IN6dealii8CellDataILi1EEES2_ENSt9enable_ifIXsr3std24__is_bitwise_relocatableIT_EE5valueEPS4_E4typeES5_S5_S5_RSaIT0_E = comdat any

$_ZSt12__niter_baseIPN6dealii8CellDataILi1EEEET_S4_ = comdat any

$_ZNK9__gnu_cxx17__normal_iteratorIPN6dealii8CellDataILi1EEESt6vectorIS3_SaIS3_EEEmiEl = comdat any

$_ZNK9__gnu_cxx17__normal_iteratorIPN6dealii8CellDataILi1EEESt6vectorIS3_SaIS3_EEEdeEv = comdat any

$_ZNSt6vectorIN6dealii8CellDataILi2EEESaIS2_EE12emplace_backIJS2_EEEvDpOT_ = comdat any

$_ZSt4moveIRN6dealii8CellDataILi2EEEEONSt16remove_referenceIT_E4typeEOS5_ = comdat any

$_ZNSt16allocator_traitsISaIN6dealii8CellDataILi2EEEEE9constructIS2_JS2_EEEvRS3_PT_DpOT0_ = comdat any

$_ZSt7forwardIN6dealii8CellDataILi2EEEEOT_RNSt16remove_referenceIS3_E4typeE = comdat any

$_ZNSt6vectorIN6dealii8CellDataILi2EEESaIS2_EE17_M_realloc_insertIJS2_EEEvN9__gnu_cxx17__normal_iteratorIPS2_S4_EEDpOT_ = comdat any

$_ZNSt6vectorIN6dealii8CellDataILi2EEESaIS2_EE3endEv = comdat any

$_ZN9__gnu_cxx13new_allocatorIN6dealii8CellDataILi2EEEE9constructIS3_JS3_EEEvPT_DpOT0_ = comdat any

$_ZNKSt6vectorIN6dealii8CellDataILi2EEESaIS2_EE12_M_check_lenEmPKc = comdat any

$_ZN9__gnu_cxxmiIPN6dealii8CellDataILi2EEESt6vectorIS3_SaIS3_EEEENS_17__normal_iteratorIT_T0_E15difference_typeERKSB_SE_ = comdat any

$_ZNSt6vectorIN6dealii8CellDataILi2EEESaIS2_EE5beginEv = comdat any

$_ZNSt12_Vector_baseIN6dealii8CellDataILi2EEESaIS2_EE11_M_allocateEm = comdat any

$_ZNSt6vectorIN6dealii8CellDataILi2EEESaIS2_EE11_S_relocateEPS2_S5_S5_RS3_ = comdat any

$_ZNK9__gnu_cxx17__normal_iteratorIPN6dealii8CellDataILi2EEESt6vectorIS3_SaIS3_EEE4baseEv = comdat any

$_ZNKSt6vectorIN6dealii8CellDataILi2EEESaIS2_EE8max_sizeEv = comdat any

$_ZNKSt6vectorIN6dealii8CellDataILi2EEESaIS2_EE4sizeEv = comdat any

$_ZNSt6vectorIN6dealii8CellDataILi2EEESaIS2_EE11_S_max_sizeERKS3_ = comdat any

$_ZNKSt12_Vector_baseIN6dealii8CellDataILi2EEESaIS2_EE19_M_get_Tp_allocatorEv = comdat any

$_ZNSt16allocator_traitsISaIN6dealii8CellDataILi2EEEEE8max_sizeERKS3_ = comdat any

$_ZNK9__gnu_cxx13new_allocatorIN6dealii8CellDataILi2EEEE8max_sizeEv = comdat any

$_ZNK9__gnu_cxx13new_allocatorIN6dealii8CellDataILi2EEEE11_M_max_sizeEv = comdat any

$_ZN9__gnu_cxx17__normal_iteratorIPN6dealii8CellDataILi2EEESt6vectorIS3_SaIS3_EEEC2ERKS4_ = comdat any

$_ZNSt16allocator_traitsISaIN6dealii8CellDataILi2EEEEE8allocateERS3_m = comdat any

$_ZN9__gnu_cxx13new_allocatorIN6dealii8CellDataILi2EEEE8allocateEmPKv = comdat any

$_ZNSt6vectorIN6dealii8CellDataILi2EEESaIS2_EE14_S_do_relocateEPS2_S5_S5_RS3_St17integral_constantIbLb1EE = comdat any

$_ZSt12__relocate_aIPN6dealii8CellDataILi2EEES3_SaIS2_EET0_T_S6_S5_RT1_ = comdat any

$_ZSt14__relocate_a_1IN6dealii8CellDataILi2EEES2_ENSt9enable_ifIXsr3std24__is_bitwise_relocatableIT_EE5valueEPS4_E4typeES5_S5_S5_RSaIT0_E = comdat any

$_ZSt12__niter_baseIPN6dealii8CellDataILi2EEEET_S4_ = comdat any

$_ZNK9__gnu_cxx17__normal_iteratorIPN6dealii8CellDataILi2EEESt6vectorIS3_SaIS3_EEEmiEl = comdat any

$_ZNK9__gnu_cxx17__normal_iteratorIPN6dealii8CellDataILi2EEESt6vectorIS3_SaIS3_EEEdeEv = comdat any

$_ZN6dealii6GridInILi3ELi3EE20ExcUnknownIdentifierC2ERKS2_ = comdat any

$_ZN6dealii6GridInILi3ELi3EE21ExcInvalidDBMESHInputC2ERKS2_ = comdat any

$_ZN6dealii6GridInILi3ELi3EE23ExcDBMESHWrongDimensionC2ERKS2_ = comdat any

$_ZN6dealii6GridInILi3ELi3EE22ExcInvalidDBMeshFormatC2EOS2_ = comdat any

$_ZN6dealii6GridInILi3ELi3EE19ExcInvalidGMSHInputC2ERKS2_ = comdat any

$_ZNSt11char_traitsIcE7compareEPKcS2_m = comdat any

$_ZN6dealii18StandardExceptions17ExcNotImplementedC2EOS1_ = comdat any

$_ZN6dealii18StandardExceptions10ExcMessageC2ERKS1_ = comdat any

$_ZN6dealii6GridInILi3ELi3EE26ExcGmshUnsupportedGeometryC2ERKS2_ = comdat any

$_ZN6dealii18StandardExceptions15ExcInvalidStateC2EOS1_ = comdat any

$_ZN9__gnu_cxxneIPcNSt7__cxx1112basic_stringIcSt11char_traitsIcESaIcEEEEEbRKNS_17__normal_iteratorIT_T0_EESD_ = comdat any

$_ZNK9__gnu_cxx17__normal_iteratorIPcNSt7__cxx1112basic_stringIcSt11char_traitsIcESaIcEEEEdeEv = comdat any

$_ZN9__gnu_cxx17__normal_iteratorIPcNSt7__cxx1112basic_stringIcSt11char_traitsIcESaIcEEEEppEv = comdat any

$_ZNK9__gnu_cxx17__normal_iteratorIPcNSt7__cxx1112basic_stringIcSt11char_traitsIcESaIcEEEE4baseEv = comdat any

$_ZSt8_DestroyIPNSt7__cxx1112basic_stringIcSt11char_traitsIcESaIcEEES5_EvT_S7_RSaIT0_E = comdat any

$_ZNSt12_Vector_baseINSt7__cxx1112basic_stringIcSt11char_traitsIcESaIcEEESaIS5_EE19_M_get_Tp_allocatorEv = comdat any

$_ZNSt12_Vector_baseINSt7__cxx1112basic_stringIcSt11char_traitsIcESaIcEEESaIS5_EED2Ev = comdat any

$_ZSt8_DestroyIPNSt7__cxx1112basic_stringIcSt11char_traitsIcESaIcEEEEvT_S7_ = comdat any

$_ZNSt12_Destroy_auxILb0EE9__destroyIPNSt7__cxx1112basic_stringIcSt11char_traitsIcESaIcEEEEEvT_S9_ = comdat any

$_ZSt8_DestroyINSt7__cxx1112basic_stringIcSt11char_traitsIcESaIcEEEEvPT_ = comdat any

$_ZSt11__addressofINSt7__cxx1112basic_stringIcSt11char_traitsIcESaIcEEEEPT_RS6_ = comdat any

$_ZNSt12_Vector_baseINSt7__cxx1112basic_stringIcSt11char_traitsIcESaIcEEESaIS5_EE13_M_deallocateEPS5_m = comdat any

$_ZNSt12_Vector_baseINSt7__cxx1112basic_stringIcSt11char_traitsIcESaIcEEESaIS5_EE12_Vector_implD2Ev = comdat any

$_ZNSt16allocator_traitsISaINSt7__cxx1112basic_stringIcSt11char_traitsIcESaIcEEEEE10deallocateERS6_PS5_m = comdat any

$_ZN9__gnu_cxx13new_allocatorINSt7__cxx1112basic_stringIcSt11char_traitsIcESaIcEEEE10deallocateEPS6_m = comdat any

$_ZNSaINSt7__cxx1112basic_stringIcSt11char_traitsIcESaIcEEEED2Ev = comdat any

$_ZN9__gnu_cxx13new_allocatorINSt7__cxx1112basic_stringIcSt11char_traitsIcESaIcEEEED2Ev = comdat any

$_ZN9__gnu_cxx17__normal_iteratorIPjSt6vectorIjSaIjEEEC2ERKS1_ = comdat any

$_ZZN6dealii6GridInILi3ELi3EE8read_mshERSiE16end_nodes_markerB5cxx11 = comdat any

$_ZGVZN6dealii6GridInILi3ELi3EE8read_mshERSiE16end_nodes_markerB5cxx11 = comdat any

$_ZZN6dealii6GridInILi3ELi3EE8read_mshERSiE21begin_elements_markerB5cxx11 = comdat any

$_ZGVZN6dealii6GridInILi3ELi3EE8read_mshERSiE21begin_elements_markerB5cxx11 = comdat any

$_ZZN6dealii6GridInILi3ELi3EE8read_mshERSiE19end_elements_markerB5cxx11 = comdat any

$_ZGVZN6dealii6GridInILi3ELi3EE8read_mshERSiE19end_elements_markerB5cxx11 = comdat any

$_ZTVN6dealii6GridInILi3ELi3EE20ExcUnknownIdentifierE = comdat any

$_ZTVN6dealii6GridInILi3ELi3EE21ExcInvalidVertexIndexE = comdat any

$_ZTVN6dealii6GridInILi3ELi3EE21ExcInvalidDBMESHInputE = comdat any

$_ZTVN6dealii6GridInILi3ELi3EE23ExcDBMESHWrongDimensionE = comdat any

$_ZTVN6dealii6GridInILi3ELi3EE19ExcInvalidGMSHInputE = comdat any

$_ZTVN6dealii6GridInILi3ELi3EE26ExcGmshUnsupportedGeometryE = comdat any

$_ZTVN6dealii6GridInILi3ELi3EE26ExcNoTriangulationSelectedE = comdat any

$_ZTSN6dealii6GridInILi3ELi3EE26ExcNoTriangulationSelectedE = comdat any

$_ZTIN6dealii6GridInILi3ELi3EE26ExcNoTriangulationSelectedE = comdat any

$_ZTSN6dealii6GridInILi3ELi3EE20ExcUnknownIdentifierE = comdat any

$_ZTIN6dealii6GridInILi3ELi3EE20ExcUnknownIdentifierE = comdat any

$_ZTSN6dealii6GridInILi3ELi3EE21ExcInvalidVertexIndexE = comdat any

$_ZTIN6dealii6GridInILi3ELi3EE21ExcInvalidVertexIndexE = comdat any

$_ZTSN6dealii6GridInILi3ELi3EE21ExcInvalidDBMESHInputE = comdat any

$_ZTIN6dealii6GridInILi3ELi3EE21ExcInvalidDBMESHInputE = comdat any

$_ZTSN6dealii6GridInILi3ELi3EE23ExcDBMESHWrongDimensionE = comdat any

$_ZTIN6dealii6GridInILi3ELi3EE23ExcDBMESHWrongDimensionE = comdat any

$_ZTSN6dealii6GridInILi3ELi3EE19ExcInvalidGMSHInputE = comdat any

$_ZTIN6dealii6GridInILi3ELi3EE19ExcInvalidGMSHInputE = comdat any

$_ZTSN6dealii6GridInILi3ELi3EE26ExcGmshUnsupportedGeometryE = comdat any

$_ZTIN6dealii6GridInILi3ELi3EE26ExcGmshUnsupportedGeometryE = comdat any

$_ZTVN6dealii18StandardExceptions5ExcIOE = comdat any

$_ZTSN6dealii18StandardExceptions5ExcIOE = comdat any

$_ZTIN6dealii18StandardExceptions5ExcIOE = comdat any

$_ZTVN6dealii6GridInILi3ELi3EE22ExcInvalidDBMeshFormatE = comdat any

$_ZTSN6dealii6GridInILi3ELi3EE22ExcInvalidDBMeshFormatE = comdat any

$_ZTIN6dealii6GridInILi3ELi3EE22ExcInvalidDBMeshFormatE = comdat any

$_ZTVN6dealii18StandardExceptions17ExcNotImplementedE = comdat any

$_ZTSN6dealii18StandardExceptions17ExcNotImplementedE = comdat any

$_ZTIN6dealii18StandardExceptions17ExcNotImplementedE = comdat any

$_ZTVN6dealii18StandardExceptions10ExcMessageE = comdat any

$_ZTSN6dealii18StandardExceptions10ExcMessageE = comdat any

$_ZTIN6dealii18StandardExceptions10ExcMessageE = comdat any

$_ZTVN6dealii18StandardExceptions15ExcInvalidStateE = comdat any

$_ZTSN6dealii18StandardExceptions15ExcInvalidStateE = comdat any

$_ZTIN6dealii18StandardExceptions15ExcInvalidStateE = comdat any

$_ZTVN6dealii18StandardExceptions14ExcNeedsNetCDFE = comdat any

$_ZTSN6dealii18StandardExceptions14ExcNeedsNetCDFE = comdat any

$_ZTIN6dealii18StandardExceptions14ExcNeedsNetCDFE = comdat any

@_ZStL8__ioinit = internal global %"class.std::ios_base::Init" zeroinitializer, align 1, !dbg !0
@__dso_handle = external hidden global i8
@.str = private unnamed_addr constant [5 x i8] c"MESH\00", align 1
@.str.1 = private unnamed_addr constant [2 x i8] c"r\00", align 1
@.str.2 = private unnamed_addr constant [23 x i8] c"source/grid/grid_in.cc\00", align 1
@.str.3 = private unnamed_addr constant [1 x i8] zeroinitializer, align 1
@.str.4 = private unnamed_addr constant [3 x i8] c"in\00", align 1
@.str.5 = private unnamed_addr constant [8 x i8] c"ExcIO()\00", align 1
@.str.6 = private unnamed_addr constant [5 x i8] c"line\00", align 1
@.str.7 = private unnamed_addr constant [5 x i8] c"quad\00", align 1
@.str.8 = private unnamed_addr constant [4 x i8] c"hex\00", align 1
@.str.9 = private unnamed_addr constant [6 x i8] c"false\00", align 1
@.str.10 = private unnamed_addr constant [54 x i8] c"ExcInvalidVertexIndex(cell, cells.back().vertices[i])\00", align 1
@.str.11 = private unnamed_addr constant [75 x i8] c"ExcInvalidVertexIndex(cell, subcelldata.boundary_lines.back().vertices[i])\00", align 1
@.str.12 = private unnamed_addr constant [32 x i8] c"ExcUnknownIdentifier(cell_type)\00", align 1
@.str.13 = private unnamed_addr constant [23 x i8] c"MeshVersionFormatted 0\00", align 1
@.str.14 = private unnamed_addr constant [31 x i8] c"line==\22MeshVersionFormatted 0\22\00", align 1
@.str.15 = private unnamed_addr constant [28 x i8] c"ExcInvalidDBMESHInput(line)\00", align 1
@.str.16 = private unnamed_addr constant [10 x i8] c"Dimension\00", align 1
@.str.17 = private unnamed_addr constant [18 x i8] c"line==\22Dimension\22\00", align 1
@.str.18 = private unnamed_addr constant [17 x i8] c"dimension == dim\00", align 1
@.str.19 = private unnamed_addr constant [35 x i8] c"ExcDBMESHWrongDimension(dimension)\00", align 1
@.str.20 = private unnamed_addr constant [6 x i8] c"# END\00", align 1
@.str.21 = private unnamed_addr constant [9 x i8] c"Vertices\00", align 1
@.str.22 = private unnamed_addr constant [17 x i8] c"line==\22Vertices\22\00", align 1
@.str.23 = private unnamed_addr constant [25 x i8] c"ExcInvalidDBMeshFormat()\00", align 1
@.str.24 = private unnamed_addr constant [6 x i8] c"Edges\00", align 1
@.str.25 = private unnamed_addr constant [14 x i8] c"line==\22Edges\22\00", align 1
@.str.26 = private unnamed_addr constant [13 x i8] c"CrackedEdges\00", align 1
@.str.27 = private unnamed_addr constant [21 x i8] c"line==\22CrackedEdges\22\00", align 1
@.str.28 = private unnamed_addr constant [15 x i8] c"Quadrilaterals\00", align 1
@.str.29 = private unnamed_addr constant [23 x i8] c"line==\22Quadrilaterals\22\00", align 1
@.str.30 = private unnamed_addr constant [108 x i8] c"(cells.back().vertices[i] >= 1) && (static_cast<unsigned int>(cells.back().vertices[i]) <= vertices.size())\00", align 1
@.str.31 = private unnamed_addr constant [4 x i8] c"End\00", align 1
@.str.32 = private unnamed_addr constant [5 x i8] c"$NOD\00", align 1
@.str.33 = private unnamed_addr constant [12 x i8] c"$MeshFormat\00", align 1
@.str.34 = private unnamed_addr constant [26 x i8] c"ExcInvalidGMSHInput(line)\00", align 1
@.str.35 = private unnamed_addr constant [15 x i8] c"$EndMeshFormat\00", align 1
@.str.36 = private unnamed_addr constant [25 x i8] c"line == \22$EndMeshFormat\22\00", align 1
@.str.37 = private unnamed_addr constant [7 x i8] c"$Nodes\00", align 1
@.str.38 = private unnamed_addr constant [17 x i8] c"line == \22$Nodes\22\00", align 1
@_ZZN6dealii6GridInILi3ELi3EE8read_mshERSiE16end_nodes_markerB5cxx11 = linkonce_odr dso_local global [2 x %"class.std::__cxx11::basic_string"] zeroinitializer, comdat, align 16, !dbg !28
@_ZGVZN6dealii6GridInILi3ELi3EE8read_mshERSiE16end_nodes_markerB5cxx11 = linkonce_odr dso_local global i64 0, comdat, align 8
@.str.39 = private unnamed_addr constant [8 x i8] c"$ENDNOD\00", align 1
@.str.40 = private unnamed_addr constant [10 x i8] c"$EndNodes\00", align 1
@.str.41 = private unnamed_addr constant [43 x i8] c"line==end_nodes_marker[gmsh_file_format-1]\00", align 1
@_ZZN6dealii6GridInILi3ELi3EE8read_mshERSiE21begin_elements_markerB5cxx11 = linkonce_odr dso_local global [2 x %"class.std::__cxx11::basic_string"] zeroinitializer, comdat, align 16, !dbg !5269
@_ZGVZN6dealii6GridInILi3ELi3EE8read_mshERSiE21begin_elements_markerB5cxx11 = linkonce_odr dso_local global i64 0, comdat, align 8
@.str.42 = private unnamed_addr constant [5 x i8] c"$ELM\00", align 1
@.str.43 = private unnamed_addr constant [10 x i8] c"$Elements\00", align 1
@.str.45 = private unnamed_addr constant [48 x i8] c"line==begin_elements_marker[gmsh_file_format-1]\00", align 1
@.str.46 = private unnamed_addr constant [20 x i8] c"ExcNotImplemented()\00", align 1
@.str.47 = private unnamed_addr constant [48 x i8] c"nod_num == GeometryInfo<dim>::vertices_per_cell\00", align 1
@.str.48 = private unnamed_addr constant [93 x i8] c"ExcMessage (\22Number of nodes does not coincide with the \22 \22number required for this object\22)\00", align 1
@.str.49 = private unnamed_addr constant [75 x i8] c"Number of nodes does not coincide with the number required for this object\00", align 1
@.str.50 = private unnamed_addr constant [71 x i8] c"vertex_indices.find (cells.back().vertices[i]) != vertex_indices.end()\00", align 1
@.str.51 = private unnamed_addr constant [38 x i8] c"ExcGmshUnsupportedGeometry(cell_type)\00", align 1
@_ZZN6dealii6GridInILi3ELi3EE8read_mshERSiE19end_elements_markerB5cxx11 = linkonce_odr dso_local global [2 x %"class.std::__cxx11::basic_string"] zeroinitializer, comdat, align 16, !dbg !5272
@_ZGVZN6dealii6GridInILi3ELi3EE8read_mshERSiE19end_elements_markerB5cxx11 = linkonce_odr dso_local global i64 0, comdat, align 8
@.str.52 = private unnamed_addr constant [8 x i8] c"$ENDELM\00", align 1
@.str.53 = private unnamed_addr constant [13 x i8] c"$EndElements\00", align 1
@.str.55 = private unnamed_addr constant [46 x i8] c"line==end_elements_marker[gmsh_file_format-1]\00", align 1
@.str.56 = private unnamed_addr constant [8 x i8] c".dbmesh\00", align 1
@.str.57 = private unnamed_addr constant [5 x i8] c".msh\00", align 1
@.str.58 = private unnamed_addr constant [5 x i8] c".inp\00", align 1
@.str.59 = private unnamed_addr constant [5 x i8] c".xda\00", align 1
@.str.60 = private unnamed_addr constant [4 x i8] c".nc\00", align 1
@.str.61 = private unnamed_addr constant [5 x i8] c".dat\00", align 1
@.str.62 = private unnamed_addr constant [16 x i8] c".unknown_format\00", align 1
@.str.63 = private unnamed_addr constant [7 x i8] c"dbmesh\00", align 1
@.str.64 = private unnamed_addr constant [4 x i8] c"msh\00", align 1
@.str.65 = private unnamed_addr constant [4 x i8] c"inp\00", align 1
@.str.66 = private unnamed_addr constant [4 x i8] c"ucd\00", align 1
@.str.67 = private unnamed_addr constant [4 x i8] c"xda\00", align 1
@.str.68 = private unnamed_addr constant [7 x i8] c"netcdf\00", align 1
@.str.69 = private unnamed_addr constant [3 x i8] c"nc\00", align 1
@.str.70 = private unnamed_addr constant [8 x i8] c"tecplot\00", align 1
@.str.71 = private unnamed_addr constant [4 x i8] c"dat\00", align 1
@.str.72 = private unnamed_addr constant [4 x i8] c"plt\00", align 1
@.str.73 = private unnamed_addr constant [19 x i8] c"ExcInvalidState ()\00", align 1
@.str.74 = private unnamed_addr constant [34 x i8] c"dbmesh|msh|ucd|xda|netcdf|tecplot\00", align 1
@_ZTVN6dealii6GridInILi3ELi3EE20ExcUnknownIdentifierE = linkonce_odr dso_local unnamed_addr constant { [6 x i8*] } { [6 x i8*] [i8* null, i8* bitcast ({ i8*, i8*, i8* }* @_ZTIN6dealii6GridInILi3ELi3EE20ExcUnknownIdentifierE to i8*), i8* bitcast (void (%"class.dealii::GridIn<3, 3>::ExcUnknownIdentifier"*)* @_ZN6dealii6GridInILi3ELi3EE20ExcUnknownIdentifierD1Ev to i8*), i8* bitcast (void (%"class.dealii::GridIn<3, 3>::ExcUnknownIdentifier"*)* @_ZN6dealii6GridInILi3ELi3EE20ExcUnknownIdentifierD0Ev to i8*), i8* bitcast (i8* (%"class.dealii::ExceptionBase"*)* @_ZNK6dealii13ExceptionBase4whatEv to i8*), i8* bitcast (void (%"class.dealii::GridIn<3, 3>::ExcUnknownIdentifier"*, %"class.std::basic_ostream"*)* @_ZNK6dealii6GridInILi3ELi3EE20ExcUnknownIdentifier10print_infoERSo to i8*)] }, comdat, align 8
@.str.75 = private unnamed_addr constant [17 x i8] c"The identifier <\00", align 1
@.str.76 = private unnamed_addr constant [16 x i8] c"> as name of a \00", align 1
@.str.77 = private unnamed_addr constant [45 x i8] c"part in an UCD input file is unknown or the \00", align 1
@.str.78 = private unnamed_addr constant [45 x i8] c"respective input routine is not implemented.\00", align 1
@.str.79 = private unnamed_addr constant [49 x i8] c"(Maybe the space dimension of triangulation and \00", align 1
@.str.80 = private unnamed_addr constant [25 x i8] c"input file do not match?\00", align 1
@_ZTVN6dealii6GridInILi3ELi3EE21ExcInvalidVertexIndexE = linkonce_odr dso_local unnamed_addr constant { [6 x i8*] } { [6 x i8*] [i8* null, i8* bitcast ({ i8*, i8*, i8* }* @_ZTIN6dealii6GridInILi3ELi3EE21ExcInvalidVertexIndexE to i8*), i8* bitcast (void (%"class.dealii::GridIn<3, 3>::ExcInvalidVertexIndex"*)* @_ZN6dealii6GridInILi3ELi3EE21ExcInvalidVertexIndexD1Ev to i8*), i8* bitcast (void (%"class.dealii::GridIn<3, 3>::ExcInvalidVertexIndex"*)* @_ZN6dealii6GridInILi3ELi3EE21ExcInvalidVertexIndexD0Ev to i8*), i8* bitcast (i8* (%"class.dealii::ExceptionBase"*)* @_ZNK6dealii13ExceptionBase4whatEv to i8*), i8* bitcast (void (%"class.dealii::GridIn<3, 3>::ExcInvalidVertexIndex"*, %"class.std::basic_ostream"*)* @_ZNK6dealii6GridInILi3ELi3EE21ExcInvalidVertexIndex10print_infoERSo to i8*)] }, comdat, align 8
@.str.81 = private unnamed_addr constant [39 x i8] c"Trying to access invalid vertex index \00", align 1
@.str.82 = private unnamed_addr constant [22 x i8] c" while creating cell \00", align 1
@_ZTVN6dealii6GridInILi3ELi3EE21ExcInvalidDBMESHInputE = linkonce_odr dso_local unnamed_addr constant { [6 x i8*] } { [6 x i8*] [i8* null, i8* bitcast ({ i8*, i8*, i8* }* @_ZTIN6dealii6GridInILi3ELi3EE21ExcInvalidDBMESHInputE to i8*), i8* bitcast (void (%"class.dealii::GridIn<3, 3>::ExcInvalidDBMESHInput"*)* @_ZN6dealii6GridInILi3ELi3EE21ExcInvalidDBMESHInputD1Ev to i8*), i8* bitcast (void (%"class.dealii::GridIn<3, 3>::ExcInvalidDBMESHInput"*)* @_ZN6dealii6GridInILi3ELi3EE21ExcInvalidDBMESHInputD0Ev to i8*), i8* bitcast (i8* (%"class.dealii::ExceptionBase"*)* @_ZNK6dealii13ExceptionBase4whatEv to i8*), i8* bitcast (void (%"class.dealii::GridIn<3, 3>::ExcInvalidDBMESHInput"*, %"class.std::basic_ostream"*)* @_ZNK6dealii6GridInILi3ELi3EE21ExcInvalidDBMESHInput10print_infoERSo to i8*)] }, comdat, align 8
@.str.83 = private unnamed_addr constant [13 x i8] c"The string <\00", align 1
@.str.84 = private unnamed_addr constant [35 x i8] c"> is not recognized at the present\00", align 1
@.str.85 = private unnamed_addr constant [29 x i8] c" position of a DB Mesh file.\00", align 1
@_ZTVN6dealii6GridInILi3ELi3EE23ExcDBMESHWrongDimensionE = linkonce_odr dso_local unnamed_addr constant { [6 x i8*] } { [6 x i8*] [i8* null, i8* bitcast ({ i8*, i8*, i8* }* @_ZTIN6dealii6GridInILi3ELi3EE23ExcDBMESHWrongDimensionE to i8*), i8* bitcast (void (%"class.dealii::GridIn<3, 3>::ExcDBMESHWrongDimension"*)* @_ZN6dealii6GridInILi3ELi3EE23ExcDBMESHWrongDimensionD1Ev to i8*), i8* bitcast (void (%"class.dealii::GridIn<3, 3>::ExcDBMESHWrongDimension"*)* @_ZN6dealii6GridInILi3ELi3EE23ExcDBMESHWrongDimensionD0Ev to i8*), i8* bitcast (i8* (%"class.dealii::ExceptionBase"*)* @_ZNK6dealii13ExceptionBase4whatEv to i8*), i8* bitcast (void (%"class.dealii::GridIn<3, 3>::ExcDBMESHWrongDimension"*, %"class.std::basic_ostream"*)* @_ZNK6dealii6GridInILi3ELi3EE23ExcDBMESHWrongDimension10print_infoERSo to i8*)] }, comdat, align 8
@.str.86 = private unnamed_addr constant [25 x i8] c"The specified dimension \00", align 1
@.str.87 = private unnamed_addr constant [61 x i8] c" is not the same as that of the triangulation to be created.\00", align 1
@_ZTVN6dealii6GridInILi3ELi3EE19ExcInvalidGMSHInputE = linkonce_odr dso_local unnamed_addr constant { [6 x i8*] } { [6 x i8*] [i8* null, i8* bitcast ({ i8*, i8*, i8* }* @_ZTIN6dealii6GridInILi3ELi3EE19ExcInvalidGMSHInputE to i8*), i8* bitcast (void (%"class.dealii::GridIn<3, 3>::ExcInvalidGMSHInput"*)* @_ZN6dealii6GridInILi3ELi3EE19ExcInvalidGMSHInputD1Ev to i8*), i8* bitcast (void (%"class.dealii::GridIn<3, 3>::ExcInvalidGMSHInput"*)* @_ZN6dealii6GridInILi3ELi3EE19ExcInvalidGMSHInputD0Ev to i8*), i8* bitcast (i8* (%"class.dealii::ExceptionBase"*)* @_ZNK6dealii13ExceptionBase4whatEv to i8*), i8* bitcast (void (%"class.dealii::GridIn<3, 3>::ExcInvalidGMSHInput"*, %"class.std::basic_ostream"*)* @_ZNK6dealii6GridInILi3ELi3EE19ExcInvalidGMSHInput10print_infoERSo to i8*)] }, comdat, align 8
@.str.88 = private unnamed_addr constant [31 x i8] c" position of a Gmsh Mesh file.\00", align 1
@_ZTVN6dealii6GridInILi3ELi3EE26ExcGmshUnsupportedGeometryE = linkonce_odr dso_local unnamed_addr constant { [6 x i8*] } { [6 x i8*] [i8* null, i8* bitcast ({ i8*, i8*, i8* }* @_ZTIN6dealii6GridInILi3ELi3EE26ExcGmshUnsupportedGeometryE to i8*), i8* bitcast (void (%"class.dealii::GridIn<3, 3>::ExcGmshUnsupportedGeometry"*)* @_ZN6dealii6GridInILi3ELi3EE26ExcGmshUnsupportedGeometryD1Ev to i8*), i8* bitcast (void (%"class.dealii::GridIn<3, 3>::ExcGmshUnsupportedGeometry"*)* @_ZN6dealii6GridInILi3ELi3EE26ExcGmshUnsupportedGeometryD0Ev to i8*), i8* bitcast (i8* (%"class.dealii::ExceptionBase"*)* @_ZNK6dealii13ExceptionBase4whatEv to i8*), i8* bitcast (void (%"class.dealii::GridIn<3, 3>::ExcGmshUnsupportedGeometry"*, %"class.std::basic_ostream"*)* @_ZNK6dealii6GridInILi3ELi3EE26ExcGmshUnsupportedGeometry10print_infoERSo to i8*)] }, comdat, align 8
@.str.89 = private unnamed_addr constant [25 x i8] c"The Element Identifier <\00", align 1
@.str.90 = private unnamed_addr constant [10 x i8] c"> is not \00", align 1
@.str.91 = private unnamed_addr constant [35 x i8] c"supported in the Deal.II Library.\0A\00", align 1
@.str.92 = private unnamed_addr constant [26 x i8] c"Supported elements are: \0A\00", align 1
@.str.93 = private unnamed_addr constant [10 x i8] c"ELM-TYPE\0A\00", align 1
@.str.94 = private unnamed_addr constant [27 x i8] c"1 Line (2 nodes, 1 edge).\0A\00", align 1
@.str.95 = private unnamed_addr constant [37 x i8] c"3 Quadrilateral (4 nodes, 4 edges).\0A\00", align 1
@.str.96 = private unnamed_addr constant [44 x i8] c"5 Hexahedron (8 nodes, 12 edges, 6 faces).\0A\00", align 1
@.str.97 = private unnamed_addr constant [37 x i8] c"15 Point (1 node, ignored when read)\00", align 1
@.str.98 = private unnamed_addr constant [2 x i8] c"=\00", align 1
@.str.99 = private unnamed_addr constant [12 x i8] c"VARIABLES=\22\00", align 1
@.str.100 = private unnamed_addr constant [14 x i8] c"VARIABLES=\22X\22\00", align 1
@.str.101 = private unnamed_addr constant [4 x i8] c"\22X\22\00", align 1
@.str.102 = private unnamed_addr constant [4 x i8] c"\22Y\22\00", align 1
@.str.103 = private unnamed_addr constant [4 x i8] c"\22Z\22\00", align 1
@.str.104 = private unnamed_addr constant [12 x i8] c"n_vars>=dim\00", align 1
@.str.105 = private unnamed_addr constant [81 x i8] c"ExcMessage(\22Tecplot file must contain at least one variable for each dimension\22)\00", align 1
@.str.106 = private unnamed_addr constant [67 x i8] c"Tecplot file must contain at least one variable for each dimension\00", align 1
@.str.107 = private unnamed_addr constant [18 x i8] c"tecplot2deal[i]>0\00", align 1
@.str.108 = private unnamed_addr constant [82 x i8] c"ExcMessage(\22Tecplot file must contain at least one variable for each dimension.\22)\00", align 1
@.str.109 = private unnamed_addr constant [68 x i8] c"Tecplot file must contain at least one variable for each dimension.\00", align 1
@.str.110 = private unnamed_addr constant [17 x i8] c"ZONETYPE=ORDERED\00", align 1
@.str.111 = private unnamed_addr constant [19 x i8] c"ZONETYPE=FELINESEG\00", align 1
@.str.112 = private unnamed_addr constant [25 x i8] c"ZONETYPE=FEQUADRILATERAL\00", align 1
@.str.113 = private unnamed_addr constant [17 x i8] c"ZONETYPE=FEBRICK\00", align 1
@.str.114 = private unnamed_addr constant [10 x i8] c"ZONETYPE=\00", align 1
@.str.115 = private unnamed_addr constant [65 x i8] c"ExcMessage(\22The tecplot file contains an unsupported ZONETYPE.\22)\00", align 1
@.str.116 = private unnamed_addr constant [51 x i8] c"The tecplot file contains an unsupported ZONETYPE.\00", align 1
@.str.117 = private unnamed_addr constant [18 x i8] c"DATAPACKING=POINT\00", align 1
@.str.118 = private unnamed_addr constant [18 x i8] c"DATAPACKING=BLOCK\00", align 1
@.str.119 = private unnamed_addr constant [8 x i8] c"F=POINT\00", align 1
@.str.120 = private unnamed_addr constant [8 x i8] c"F=BLOCK\00", align 1
@.str.121 = private unnamed_addr constant [10 x i8] c"F=FEPOINT\00", align 1
@.str.122 = private unnamed_addr constant [10 x i8] c"F=FEBLOCK\00", align 1
@.str.123 = private unnamed_addr constant [17 x i8] c"ET=QUADRILATERAL\00", align 1
@.str.124 = private unnamed_addr constant [9 x i8] c"ET=BRICK\00", align 1
@.str.125 = private unnamed_addr constant [4 x i8] c"ET=\00", align 1
@.str.126 = private unnamed_addr constant [68 x i8] c"ExcMessage(\22The tecplot file contains an unsupported ElementType.\22)\00", align 1
@.str.127 = private unnamed_addr constant [54 x i8] c"The tecplot file contains an unsupported ElementType.\00", align 1
@.str.128 = private unnamed_addr constant [3 x i8] c"I=\00", align 1
@.str.129 = private unnamed_addr constant [3 x i8] c"J=\00", align 1
@.str.130 = private unnamed_addr constant [3 x i8] c"K=\00", align 1
@.str.131 = private unnamed_addr constant [3 x i8] c"N=\00", align 1
@.str.132 = private unnamed_addr constant [3 x i8] c"E=\00", align 1
@.str.133 = private unnamed_addr constant [9 x i8] c"IJK[d]>0\00", align 1
@.str.134 = private unnamed_addr constant [88 x i8] c"ExcMessage(\22Tecplot file does not contain a complete and consistent set of parameters\22)\00", align 1
@.str.135 = private unnamed_addr constant [74 x i8] c"Tecplot file does not contain a complete and consistent set of parameters\00", align 1
@.str.136 = private unnamed_addr constant [13 x i8] c"n_vertices>0\00", align 1
@.str.137 = private unnamed_addr constant [10 x i8] c"n_cells>0\00", align 1
@_ZZN6dealii6GridInILi3ELi3EE8read_xdaERSiE17xda_to_dealII_map = internal constant [8 x i32] [i32 0, i32 1, i32 5, i32 4, i32 3, i32 2, i32 6, i32 7], align 16, !dbg !5274
@.str.138 = private unnamed_addr constant [17 x i8] c"ExcNeedsNetCDF()\00", align 1
@_ZTVN6dealii6GridInILi3ELi3EE26ExcNoTriangulationSelectedE = weak_odr dso_local unnamed_addr constant { [6 x i8*] } { [6 x i8*] [i8* null, i8* bitcast ({ i8*, i8*, i8* }* @_ZTIN6dealii6GridInILi3ELi3EE26ExcNoTriangulationSelectedE to i8*), i8* bitcast (void (%"class.dealii::GridIn<3, 3>::ExcNoTriangulationSelected"*)* @_ZN6dealii6GridInILi3ELi3EE26ExcNoTriangulationSelectedD2Ev to i8*), i8* bitcast (void (%"class.dealii::GridIn<3, 3>::ExcNoTriangulationSelected"*)* @_ZN6dealii6GridInILi3ELi3EE26ExcNoTriangulationSelectedD0Ev to i8*), i8* bitcast (i8* (%"class.dealii::ExceptionBase"*)* @_ZNK6dealii13ExceptionBase4whatEv to i8*), i8* bitcast (void (%"class.dealii::ExceptionBase"*, %"class.std::basic_ostream"*)* @_ZNK6dealii13ExceptionBase10print_infoERSo to i8*)] }, comdat, align 8
@_ZTVN10__cxxabiv120__si_class_type_infoE = external dso_local global i8*
@_ZTSN6dealii6GridInILi3ELi3EE26ExcNoTriangulationSelectedE = weak_odr dso_local constant [55 x i8] c"N6dealii6GridInILi3ELi3EE26ExcNoTriangulationSelectedE\00", comdat, align 1
@_ZTIN6dealii13ExceptionBaseE = external dso_local constant i8*
@_ZTIN6dealii6GridInILi3ELi3EE26ExcNoTriangulationSelectedE = weak_odr dso_local constant { i8*, i8*, i8* } { i8* bitcast (i8** getelementptr inbounds (i8*, i8** @_ZTVN10__cxxabiv120__si_class_type_infoE, i64 2) to i8*), i8* getelementptr inbounds ([55 x i8], [55 x i8]* @_ZTSN6dealii6GridInILi3ELi3EE26ExcNoTriangulationSelectedE, i32 0, i32 0), i8* bitcast (i8** @_ZTIN6dealii13ExceptionBaseE to i8*) }, comdat, align 8
@_ZTSN6dealii6GridInILi3ELi3EE20ExcUnknownIdentifierE = linkonce_odr dso_local constant [49 x i8] c"N6dealii6GridInILi3ELi3EE20ExcUnknownIdentifierE\00", comdat, align 1
@_ZTIN6dealii6GridInILi3ELi3EE20ExcUnknownIdentifierE = linkonce_odr dso_local constant { i8*, i8*, i8* } { i8* bitcast (i8** getelementptr inbounds (i8*, i8** @_ZTVN10__cxxabiv120__si_class_type_infoE, i64 2) to i8*), i8* getelementptr inbounds ([49 x i8], [49 x i8]* @_ZTSN6dealii6GridInILi3ELi3EE20ExcUnknownIdentifierE, i32 0, i32 0), i8* bitcast (i8** @_ZTIN6dealii13ExceptionBaseE to i8*) }, comdat, align 8
@_ZTSN6dealii6GridInILi3ELi3EE21ExcInvalidVertexIndexE = linkonce_odr dso_local constant [50 x i8] c"N6dealii6GridInILi3ELi3EE21ExcInvalidVertexIndexE\00", comdat, align 1
@_ZTIN6dealii6GridInILi3ELi3EE21ExcInvalidVertexIndexE = linkonce_odr dso_local constant { i8*, i8*, i8* } { i8* bitcast (i8** getelementptr inbounds (i8*, i8** @_ZTVN10__cxxabiv120__si_class_type_infoE, i64 2) to i8*), i8* getelementptr inbounds ([50 x i8], [50 x i8]* @_ZTSN6dealii6GridInILi3ELi3EE21ExcInvalidVertexIndexE, i32 0, i32 0), i8* bitcast (i8** @_ZTIN6dealii13ExceptionBaseE to i8*) }, comdat, align 8
@_ZTSN6dealii6GridInILi3ELi3EE21ExcInvalidDBMESHInputE = linkonce_odr dso_local constant [50 x i8] c"N6dealii6GridInILi3ELi3EE21ExcInvalidDBMESHInputE\00", comdat, align 1
@_ZTIN6dealii6GridInILi3ELi3EE21ExcInvalidDBMESHInputE = linkonce_odr dso_local constant { i8*, i8*, i8* } { i8* bitcast (i8** getelementptr inbounds (i8*, i8** @_ZTVN10__cxxabiv120__si_class_type_infoE, i64 2) to i8*), i8* getelementptr inbounds ([50 x i8], [50 x i8]* @_ZTSN6dealii6GridInILi3ELi3EE21ExcInvalidDBMESHInputE, i32 0, i32 0), i8* bitcast (i8** @_ZTIN6dealii13ExceptionBaseE to i8*) }, comdat, align 8
@_ZTSN6dealii6GridInILi3ELi3EE23ExcDBMESHWrongDimensionE = linkonce_odr dso_local constant [52 x i8] c"N6dealii6GridInILi3ELi3EE23ExcDBMESHWrongDimensionE\00", comdat, align 1
@_ZTIN6dealii6GridInILi3ELi3EE23ExcDBMESHWrongDimensionE = linkonce_odr dso_local constant { i8*, i8*, i8* } { i8* bitcast (i8** getelementptr inbounds (i8*, i8** @_ZTVN10__cxxabiv120__si_class_type_infoE, i64 2) to i8*), i8* getelementptr inbounds ([52 x i8], [52 x i8]* @_ZTSN6dealii6GridInILi3ELi3EE23ExcDBMESHWrongDimensionE, i32 0, i32 0), i8* bitcast (i8** @_ZTIN6dealii13ExceptionBaseE to i8*) }, comdat, align 8
@_ZTSN6dealii6GridInILi3ELi3EE19ExcInvalidGMSHInputE = linkonce_odr dso_local constant [48 x i8] c"N6dealii6GridInILi3ELi3EE19ExcInvalidGMSHInputE\00", comdat, align 1
@_ZTIN6dealii6GridInILi3ELi3EE19ExcInvalidGMSHInputE = linkonce_odr dso_local constant { i8*, i8*, i8* } { i8* bitcast (i8** getelementptr inbounds (i8*, i8** @_ZTVN10__cxxabiv120__si_class_type_infoE, i64 2) to i8*), i8* getelementptr inbounds ([48 x i8], [48 x i8]* @_ZTSN6dealii6GridInILi3ELi3EE19ExcInvalidGMSHInputE, i32 0, i32 0), i8* bitcast (i8** @_ZTIN6dealii13ExceptionBaseE to i8*) }, comdat, align 8
@_ZTSN6dealii6GridInILi3ELi3EE26ExcGmshUnsupportedGeometryE = linkonce_odr dso_local constant [55 x i8] c"N6dealii6GridInILi3ELi3EE26ExcGmshUnsupportedGeometryE\00", comdat, align 1
@_ZTIN6dealii6GridInILi3ELi3EE26ExcGmshUnsupportedGeometryE = linkonce_odr dso_local constant { i8*, i8*, i8* } { i8* bitcast (i8** getelementptr inbounds (i8*, i8** @_ZTVN10__cxxabiv120__si_class_type_infoE, i64 2) to i8*), i8* getelementptr inbounds ([55 x i8], [55 x i8]* @_ZTSN6dealii6GridInILi3ELi3EE26ExcGmshUnsupportedGeometryE, i32 0, i32 0), i8* bitcast (i8** @_ZTIN6dealii13ExceptionBaseE to i8*) }, comdat, align 8
@_ZTVN6dealii18StandardExceptions5ExcIOE = linkonce_odr dso_local unnamed_addr constant { [6 x i8*] } { [6 x i8*] [i8* null, i8* bitcast ({ i8*, i8*, i8* }* @_ZTIN6dealii18StandardExceptions5ExcIOE to i8*), i8* bitcast (void (%"class.dealii::StandardExceptions::ExcIO"*)* @_ZN6dealii18StandardExceptions5ExcIOD2Ev to i8*), i8* bitcast (void (%"class.dealii::StandardExceptions::ExcIO"*)* @_ZN6dealii18StandardExceptions5ExcIOD0Ev to i8*), i8* bitcast (i8* (%"class.dealii::ExceptionBase"*)* @_ZNK6dealii13ExceptionBase4whatEv to i8*), i8* bitcast (void (%"class.dealii::ExceptionBase"*, %"class.std::basic_ostream"*)* @_ZNK6dealii13ExceptionBase10print_infoERSo to i8*)] }, comdat, align 8
@_ZTSN6dealii18StandardExceptions5ExcIOE = linkonce_odr dso_local constant [36 x i8] c"N6dealii18StandardExceptions5ExcIOE\00", comdat, align 1
@_ZTIN6dealii18StandardExceptions5ExcIOE = linkonce_odr dso_local constant { i8*, i8*, i8* } { i8* bitcast (i8** getelementptr inbounds (i8*, i8** @_ZTVN10__cxxabiv120__si_class_type_infoE, i64 2) to i8*), i8* getelementptr inbounds ([36 x i8], [36 x i8]* @_ZTSN6dealii18StandardExceptions5ExcIOE, i32 0, i32 0), i8* bitcast (i8** @_ZTIN6dealii13ExceptionBaseE to i8*) }, comdat, align 8
@_ZTVN6dealii6GridInILi3ELi3EE22ExcInvalidDBMeshFormatE = linkonce_odr dso_local unnamed_addr constant { [6 x i8*] } { [6 x i8*] [i8* null, i8* bitcast ({ i8*, i8*, i8* }* @_ZTIN6dealii6GridInILi3ELi3EE22ExcInvalidDBMeshFormatE to i8*), i8* bitcast (void (%"class.dealii::GridIn<3, 3>::ExcInvalidDBMeshFormat"*)* @_ZN6dealii6GridInILi3ELi3EE22ExcInvalidDBMeshFormatD2Ev to i8*), i8* bitcast (void (%"class.dealii::GridIn<3, 3>::ExcInvalidDBMeshFormat"*)* @_ZN6dealii6GridInILi3ELi3EE22ExcInvalidDBMeshFormatD0Ev to i8*), i8* bitcast (i8* (%"class.dealii::ExceptionBase"*)* @_ZNK6dealii13ExceptionBase4whatEv to i8*), i8* bitcast (void (%"class.dealii::ExceptionBase"*, %"class.std::basic_ostream"*)* @_ZNK6dealii13ExceptionBase10print_infoERSo to i8*)] }, comdat, align 8
@_ZTSN6dealii6GridInILi3ELi3EE22ExcInvalidDBMeshFormatE = linkonce_odr dso_local constant [51 x i8] c"N6dealii6GridInILi3ELi3EE22ExcInvalidDBMeshFormatE\00", comdat, align 1
@_ZTIN6dealii6GridInILi3ELi3EE22ExcInvalidDBMeshFormatE = linkonce_odr dso_local constant { i8*, i8*, i8* } { i8* bitcast (i8** getelementptr inbounds (i8*, i8** @_ZTVN10__cxxabiv120__si_class_type_infoE, i64 2) to i8*), i8* getelementptr inbounds ([51 x i8], [51 x i8]* @_ZTSN6dealii6GridInILi3ELi3EE22ExcInvalidDBMeshFormatE, i32 0, i32 0), i8* bitcast (i8** @_ZTIN6dealii13ExceptionBaseE to i8*) }, comdat, align 8
@_ZTVN6dealii18StandardExceptions17ExcNotImplementedE = linkonce_odr dso_local unnamed_addr constant { [6 x i8*] } { [6 x i8*] [i8* null, i8* bitcast ({ i8*, i8*, i8* }* @_ZTIN6dealii18StandardExceptions17ExcNotImplementedE to i8*), i8* bitcast (void (%"class.dealii::StandardExceptions::ExcNotImplemented"*)* @_ZN6dealii18StandardExceptions17ExcNotImplementedD2Ev to i8*), i8* bitcast (void (%"class.dealii::StandardExceptions::ExcNotImplemented"*)* @_ZN6dealii18StandardExceptions17ExcNotImplementedD0Ev to i8*), i8* bitcast (i8* (%"class.dealii::ExceptionBase"*)* @_ZNK6dealii13ExceptionBase4whatEv to i8*), i8* bitcast (void (%"class.dealii::ExceptionBase"*, %"class.std::basic_ostream"*)* @_ZNK6dealii13ExceptionBase10print_infoERSo to i8*)] }, comdat, align 8
@_ZTSN6dealii18StandardExceptions17ExcNotImplementedE = linkonce_odr dso_local constant [49 x i8] c"N6dealii18StandardExceptions17ExcNotImplementedE\00", comdat, align 1
@_ZTIN6dealii18StandardExceptions17ExcNotImplementedE = linkonce_odr dso_local constant { i8*, i8*, i8* } { i8* bitcast (i8** getelementptr inbounds (i8*, i8** @_ZTVN10__cxxabiv120__si_class_type_infoE, i64 2) to i8*), i8* getelementptr inbounds ([49 x i8], [49 x i8]* @_ZTSN6dealii18StandardExceptions17ExcNotImplementedE, i32 0, i32 0), i8* bitcast (i8** @_ZTIN6dealii13ExceptionBaseE to i8*) }, comdat, align 8
@_ZTVN6dealii18StandardExceptions10ExcMessageE = linkonce_odr dso_local unnamed_addr constant { [6 x i8*] } { [6 x i8*] [i8* null, i8* bitcast ({ i8*, i8*, i8* }* @_ZTIN6dealii18StandardExceptions10ExcMessageE to i8*), i8* bitcast (void (%"class.dealii::StandardExceptions::ExcMessage"*)* @_ZN6dealii18StandardExceptions10ExcMessageD2Ev to i8*), i8* bitcast (void (%"class.dealii::StandardExceptions::ExcMessage"*)* @_ZN6dealii18StandardExceptions10ExcMessageD0Ev to i8*), i8* bitcast (i8* (%"class.dealii::ExceptionBase"*)* @_ZNK6dealii13ExceptionBase4whatEv to i8*), i8* bitcast (void (%"class.dealii::StandardExceptions::ExcMessage"*, %"class.std::basic_ostream"*)* @_ZNK6dealii18StandardExceptions10ExcMessage10print_infoERSo to i8*)] }, comdat, align 8
@_ZTSN6dealii18StandardExceptions10ExcMessageE = linkonce_odr dso_local constant [42 x i8] c"N6dealii18StandardExceptions10ExcMessageE\00", comdat, align 1
@_ZTIN6dealii18StandardExceptions10ExcMessageE = linkonce_odr dso_local constant { i8*, i8*, i8* } { i8* bitcast (i8** getelementptr inbounds (i8*, i8** @_ZTVN10__cxxabiv120__si_class_type_infoE, i64 2) to i8*), i8* getelementptr inbounds ([42 x i8], [42 x i8]* @_ZTSN6dealii18StandardExceptions10ExcMessageE, i32 0, i32 0), i8* bitcast (i8** @_ZTIN6dealii13ExceptionBaseE to i8*) }, comdat, align 8
@_ZTVN6dealii18StandardExceptions15ExcInvalidStateE = linkonce_odr dso_local unnamed_addr constant { [6 x i8*] } { [6 x i8*] [i8* null, i8* bitcast ({ i8*, i8*, i8* }* @_ZTIN6dealii18StandardExceptions15ExcInvalidStateE to i8*), i8* bitcast (void (%"class.dealii::StandardExceptions::ExcInvalidState"*)* @_ZN6dealii18StandardExceptions15ExcInvalidStateD2Ev to i8*), i8* bitcast (void (%"class.dealii::StandardExceptions::ExcInvalidState"*)* @_ZN6dealii18StandardExceptions15ExcInvalidStateD0Ev to i8*), i8* bitcast (i8* (%"class.dealii::ExceptionBase"*)* @_ZNK6dealii13ExceptionBase4whatEv to i8*), i8* bitcast (void (%"class.dealii::ExceptionBase"*, %"class.std::basic_ostream"*)* @_ZNK6dealii13ExceptionBase10print_infoERSo to i8*)] }, comdat, align 8
@_ZTSN6dealii18StandardExceptions15ExcInvalidStateE = linkonce_odr dso_local constant [47 x i8] c"N6dealii18StandardExceptions15ExcInvalidStateE\00", comdat, align 1
@_ZTIN6dealii18StandardExceptions15ExcInvalidStateE = linkonce_odr dso_local constant { i8*, i8*, i8* } { i8* bitcast (i8** getelementptr inbounds (i8*, i8** @_ZTVN10__cxxabiv120__si_class_type_infoE, i64 2) to i8*), i8* getelementptr inbounds ([47 x i8], [47 x i8]* @_ZTSN6dealii18StandardExceptions15ExcInvalidStateE, i32 0, i32 0), i8* bitcast (i8** @_ZTIN6dealii13ExceptionBaseE to i8*) }, comdat, align 8
@_ZTVN6dealii18StandardExceptions14ExcNeedsNetCDFE = linkonce_odr dso_local unnamed_addr constant { [6 x i8*] } { [6 x i8*] [i8* null, i8* bitcast ({ i8*, i8*, i8* }* @_ZTIN6dealii18StandardExceptions14ExcNeedsNetCDFE to i8*), i8* bitcast (void (%"class.dealii::StandardExceptions::ExcNeedsNetCDF"*)* @_ZN6dealii18StandardExceptions14ExcNeedsNetCDFD2Ev to i8*), i8* bitcast (void (%"class.dealii::StandardExceptions::ExcNeedsNetCDF"*)* @_ZN6dealii18StandardExceptions14ExcNeedsNetCDFD0Ev to i8*), i8* bitcast (i8* (%"class.dealii::ExceptionBase"*)* @_ZNK6dealii13ExceptionBase4whatEv to i8*), i8* bitcast (void (%"class.dealii::ExceptionBase"*, %"class.std::basic_ostream"*)* @_ZNK6dealii13ExceptionBase10print_infoERSo to i8*)] }, comdat, align 8
@_ZTSN6dealii18StandardExceptions14ExcNeedsNetCDFE = linkonce_odr dso_local constant [46 x i8] c"N6dealii18StandardExceptions14ExcNeedsNetCDFE\00", comdat, align 1
@_ZTIN6dealii18StandardExceptions14ExcNeedsNetCDFE = linkonce_odr dso_local constant { i8*, i8*, i8* } { i8* bitcast (i8** getelementptr inbounds (i8*, i8** @_ZTVN10__cxxabiv120__si_class_type_infoE, i64 2) to i8*), i8* getelementptr inbounds ([46 x i8], [46 x i8]* @_ZTSN6dealii18StandardExceptions14ExcNeedsNetCDFE, i32 0, i32 0), i8* bitcast (i8** @_ZTIN6dealii13ExceptionBaseE to i8*) }, comdat, align 8
@.str.139 = private unnamed_addr constant [49 x i8] c"cannot create std::vector larger than max_size()\00", align 1
@_ZStL19piecewise_construct = internal constant %"struct.std::piecewise_construct_t" undef, align 1, !dbg !5277
@.str.140 = private unnamed_addr constant [26 x i8] c"vector::_M_realloc_insert\00", align 1
@llvm.global_ctors = appending global [1 x { i32, void ()*, i8* }] [{ i32, void ()*, i8* } { i32 65535, void ()* @_GLOBAL__sub_I_grid_in.cc, i8* null }]

@_ZN6dealii6GridInILi3ELi3EEC1Ev = weak_odr dso_local unnamed_addr alias void (%"class.dealii::GridIn"*), void (%"class.dealii::GridIn"*)* @_ZN6dealii6GridInILi3ELi3EEC2Ev
@_ZN6dealii6GridInILi3ELi3EE20ExcUnknownIdentifierC1ENSt7__cxx1112basic_stringIcSt11char_traitsIcESaIcEEE = weak_odr dso_local unnamed_addr alias void (%"class.dealii::GridIn<3, 3>::ExcUnknownIdentifier"*, %"class.std::__cxx11::basic_string"*), void (%"class.dealii::GridIn<3, 3>::ExcUnknownIdentifier"*, %"class.std::__cxx11::basic_string"*)* @_ZN6dealii6GridInILi3ELi3EE20ExcUnknownIdentifierC2ENSt7__cxx1112basic_stringIcSt11char_traitsIcESaIcEEE
@_ZN6dealii6GridInILi3ELi3EE20ExcUnknownIdentifierD1Ev = weak_odr dso_local unnamed_addr alias void (%"class.dealii::GridIn<3, 3>::ExcUnknownIdentifier"*), void (%"class.dealii::GridIn<3, 3>::ExcUnknownIdentifier"*)* @_ZN6dealii6GridInILi3ELi3EE20ExcUnknownIdentifierD2Ev
@_ZN6dealii6GridInILi3ELi3EE21ExcInvalidVertexIndexC1Eii = weak_odr dso_local unnamed_addr alias void (%"class.dealii::GridIn<3, 3>::ExcInvalidVertexIndex"*, i32, i32), void (%"class.dealii::GridIn<3, 3>::ExcInvalidVertexIndex"*, i32, i32)* @_ZN6dealii6GridInILi3ELi3EE21ExcInvalidVertexIndexC2Eii
@_ZN6dealii6GridInILi3ELi3EE21ExcInvalidVertexIndexD1Ev = weak_odr dso_local unnamed_addr alias void (%"class.dealii::GridIn<3, 3>::ExcInvalidVertexIndex"*), void (%"class.dealii::GridIn<3, 3>::ExcInvalidVertexIndex"*)* @_ZN6dealii6GridInILi3ELi3EE21ExcInvalidVertexIndexD2Ev
@_ZN6dealii6GridInILi3ELi3EE21ExcInvalidDBMESHInputC1ENSt7__cxx1112basic_stringIcSt11char_traitsIcESaIcEEE = weak_odr dso_local unnamed_addr alias void (%"class.dealii::GridIn<3, 3>::ExcInvalidDBMESHInput"*, %"class.std::__cxx11::basic_string"*), void (%"class.dealii::GridIn<3, 3>::ExcInvalidDBMESHInput"*, %"class.std::__cxx11::basic_string"*)* @_ZN6dealii6GridInILi3ELi3EE21ExcInvalidDBMESHInputC2ENSt7__cxx1112basic_stringIcSt11char_traitsIcESaIcEEE
@_ZN6dealii6GridInILi3ELi3EE21ExcInvalidDBMESHInputD1Ev = weak_odr dso_local unnamed_addr alias void (%"class.dealii::GridIn<3, 3>::ExcInvalidDBMESHInput"*), void (%"class.dealii::GridIn<3, 3>::ExcInvalidDBMESHInput"*)* @_ZN6dealii6GridInILi3ELi3EE21ExcInvalidDBMESHInputD2Ev
@_ZN6dealii6GridInILi3ELi3EE23ExcDBMESHWrongDimensionC1Ei = weak_odr dso_local unnamed_addr alias void (%"class.dealii::GridIn<3, 3>::ExcDBMESHWrongDimension"*, i32), void (%"class.dealii::GridIn<3, 3>::ExcDBMESHWrongDimension"*, i32)* @_ZN6dealii6GridInILi3ELi3EE23ExcDBMESHWrongDimensionC2Ei
@_ZN6dealii6GridInILi3ELi3EE23ExcDBMESHWrongDimensionD1Ev = weak_odr dso_local unnamed_addr alias void (%"class.dealii::GridIn<3, 3>::ExcDBMESHWrongDimension"*), void (%"class.dealii::GridIn<3, 3>::ExcDBMESHWrongDimension"*)* @_ZN6dealii6GridInILi3ELi3EE23ExcDBMESHWrongDimensionD2Ev
@_ZN6dealii6GridInILi3ELi3EE19ExcInvalidGMSHInputC1ENSt7__cxx1112basic_stringIcSt11char_traitsIcESaIcEEE = weak_odr dso_local unnamed_addr alias void (%"class.dealii::GridIn<3, 3>::ExcInvalidGMSHInput"*, %"class.std::__cxx11::basic_string"*), void (%"class.dealii::GridIn<3, 3>::ExcInvalidGMSHInput"*, %"class.std::__cxx11::basic_string"*)* @_ZN6dealii6GridInILi3ELi3EE19ExcInvalidGMSHInputC2ENSt7__cxx1112basic_stringIcSt11char_traitsIcESaIcEEE
@_ZN6dealii6GridInILi3ELi3EE19ExcInvalidGMSHInputD1Ev = weak_odr dso_local unnamed_addr alias void (%"class.dealii::GridIn<3, 3>::ExcInvalidGMSHInput"*), void (%"class.dealii::GridIn<3, 3>::ExcInvalidGMSHInput"*)* @_ZN6dealii6GridInILi3ELi3EE19ExcInvalidGMSHInputD2Ev
@_ZN6dealii6GridInILi3ELi3EE26ExcGmshUnsupportedGeometryC1Ei = weak_odr dso_local unnamed_addr alias void (%"class.dealii::GridIn<3, 3>::ExcGmshUnsupportedGeometry"*, i32), void (%"class.dealii::GridIn<3, 3>::ExcGmshUnsupportedGeometry"*, i32)* @_ZN6dealii6GridInILi3ELi3EE26ExcGmshUnsupportedGeometryC2Ei
@_ZN6dealii6GridInILi3ELi3EE26ExcGmshUnsupportedGeometryD1Ev = weak_odr dso_local unnamed_addr alias void (%"class.dealii::GridIn<3, 3>::ExcGmshUnsupportedGeometry"*), void (%"class.dealii::GridIn<3, 3>::ExcGmshUnsupportedGeometry"*)* @_ZN6dealii6GridInILi3ELi3EE26ExcGmshUnsupportedGeometryD2Ev

; Function Attrs: noinline uwtable
define internal void @__cxx_global_var_init() #0 section ".text.startup" !dbg !6494 {
entry:
  call void @_ZNSt8ios_base4InitC1Ev(%"class.std::ios_base::Init"* @_ZStL8__ioinit), !dbg !6495
  %0 = call i32 @__cxa_atexit(void (i8*)* bitcast (void (%"class.std::ios_base::Init"*)* @_ZNSt8ios_base4InitD1Ev to void (i8*)*), i8* getelementptr inbounds (%"class.std::ios_base::Init", %"class.std::ios_base::Init"* @_ZStL8__ioinit, i32 0, i32 0), i8* @__dso_handle) #3, !dbg !6495
  ret void, !dbg !6495
}

declare dso_local void @_ZNSt8ios_base4InitC1Ev(%"class.std::ios_base::Init"*) unnamed_addr #1

; Function Attrs: nounwind
declare dso_local void @_ZNSt8ios_base4InitD1Ev(%"class.std::ios_base::Init"*) unnamed_addr #2

; Function Attrs: nounwind
declare dso_local i32 @__cxa_atexit(void (i8*)*, i8*, i8*) #3

; Function Attrs: noinline uwtable
define weak_odr dso_local void @_ZN6dealii6GridInILi3ELi3EEC2Ev(%"class.dealii::GridIn"* %this) unnamed_addr #0 comdat($_ZN6dealii6GridInILi3ELi3EEC5Ev) align 2 !dbg !6496 {
entry:
  %this.addr = alloca %"class.dealii::GridIn"*, align 8
  store %"class.dealii::GridIn"* %this, %"class.dealii::GridIn"** %this.addr, align 8
  call void @llvm.dbg.declare(metadata %"class.dealii::GridIn"** %this.addr, metadata !6497, metadata !DIExpression()), !dbg !6499
  %this1 = load %"class.dealii::GridIn"*, %"class.dealii::GridIn"** %this.addr, align 8
  %tria = getelementptr inbounds %"class.dealii::GridIn", %"class.dealii::GridIn"* %this1, i32 0, i32 0, !dbg !6500
  call void @_ZN6dealii12SmartPointerINS_13TriangulationILi3ELi3EEEEC2EPS2_PKc(%"class.dealii::SmartPointer"* %tria, %"class.dealii::Triangulation"* null, i8* null), !dbg !6500
  %default_format = getelementptr inbounds %"class.dealii::GridIn", %"class.dealii::GridIn"* %this1, i32 0, i32 1, !dbg !6501
  store i32 1, i32* %default_format, align 8, !dbg !6501
  ret void, !dbg !6502
}

; Function Attrs: nounwind readnone speculatable willreturn
declare void @llvm.dbg.declare(metadata, metadata, metadata) #4

; Function Attrs: noinline uwtable
define linkonce_odr dso_local void @_ZN6dealii12SmartPointerINS_13TriangulationILi3ELi3EEEEC2EPS2_PKc(%"class.dealii::SmartPointer"* %this, %"class.dealii::Triangulation"* %t, i8* %id) unnamed_addr #0 comdat align 2 !dbg !6503 {
entry:
  %this.addr = alloca %"class.dealii::SmartPointer"*, align 8
  %t.addr = alloca %"class.dealii::Triangulation"*, align 8
  %id.addr = alloca i8*, align 8
  store %"class.dealii::SmartPointer"* %this, %"class.dealii::SmartPointer"** %this.addr, align 8
  call void @llvm.dbg.declare(metadata %"class.dealii::SmartPointer"** %this.addr, metadata !6504, metadata !DIExpression()), !dbg !6506
  store %"class.dealii::Triangulation"* %t, %"class.dealii::Triangulation"** %t.addr, align 8
  call void @llvm.dbg.declare(metadata %"class.dealii::Triangulation"** %t.addr, metadata !6507, metadata !DIExpression()), !dbg !6508
  store i8* %id, i8** %id.addr, align 8
  call void @llvm.dbg.declare(metadata i8** %id.addr, metadata !6509, metadata !DIExpression()), !dbg !6510
  %this1 = load %"class.dealii::SmartPointer"*, %"class.dealii::SmartPointer"** %this.addr, align 8
  %t2 = getelementptr inbounds %"class.dealii::SmartPointer", %"class.dealii::SmartPointer"* %this1, i32 0, i32 0, !dbg !6511
  %0 = load %"class.dealii::Triangulation"*, %"class.dealii::Triangulation"** %t.addr, align 8, !dbg !6512
  store %"class.dealii::Triangulation"* %0, %"class.dealii::Triangulation"** %t2, align 8, !dbg !6511
  %id3 = getelementptr inbounds %"class.dealii::SmartPointer", %"class.dealii::SmartPointer"* %this1, i32 0, i32 1, !dbg !6513
  %1 = load i8*, i8** %id.addr, align 8, !dbg !6514
  store i8* %1, i8** %id3, align 8, !dbg !6513
  %2 = load %"class.dealii::Triangulation"*, %"class.dealii::Triangulation"** %t.addr, align 8, !dbg !6515
  %cmp = icmp ne %"class.dealii::Triangulation"* %2, null, !dbg !6518
  br i1 %cmp, label %if.then, label %if.end, !dbg !6519

if.then:                                          ; preds = %entry
  %3 = load %"class.dealii::Triangulation"*, %"class.dealii::Triangulation"** %t.addr, align 8, !dbg !6520
  %4 = bitcast %"class.dealii::Triangulation"* %3 to %"class.dealii::Subscriptor"*, !dbg !6521
  %5 = load i8*, i8** %id.addr, align 8, !dbg !6522
  call void @_ZNK6dealii11Subscriptor9subscribeEPKc(%"class.dealii::Subscriptor"* %4, i8* %5), !dbg !6521
  br label %if.end, !dbg !6520

if.end:                                           ; preds = %if.then, %entry
  ret void, !dbg !6523
}

; Function Attrs: noinline uwtable
define weak_odr dso_local void @_ZN6dealii6GridInILi3ELi3EE20attach_triangulationERNS_13TriangulationILi3ELi3EEE(%"class.dealii::GridIn"* %this, %"class.dealii::Triangulation"* dereferenceable(8552) %t) #0 comdat align 2 !dbg !6524 {
entry:
  %this.addr = alloca %"class.dealii::GridIn"*, align 8
  %t.addr = alloca %"class.dealii::Triangulation"*, align 8
  store %"class.dealii::GridIn"* %this, %"class.dealii::GridIn"** %this.addr, align 8
  call void @llvm.dbg.declare(metadata %"class.dealii::GridIn"** %this.addr, metadata !6525, metadata !DIExpression()), !dbg !6526
  store %"class.dealii::Triangulation"* %t, %"class.dealii::Triangulation"** %t.addr, align 8
  call void @llvm.dbg.declare(metadata %"class.dealii::Triangulation"** %t.addr, metadata !6527, metadata !DIExpression()), !dbg !6528
  %this1 = load %"class.dealii::GridIn"*, %"class.dealii::GridIn"** %this.addr, align 8
  %0 = load %"class.dealii::Triangulation"*, %"class.dealii::Triangulation"** %t.addr, align 8, !dbg !6529
  %tria = getelementptr inbounds %"class.dealii::GridIn", %"class.dealii::GridIn"* %this1, i32 0, i32 0, !dbg !6530
  %call = call dereferenceable(16) %"class.dealii::SmartPointer"* @_ZN6dealii12SmartPointerINS_13TriangulationILi3ELi3EEEEaSEPS2_(%"class.dealii::SmartPointer"* %tria, %"class.dealii::Triangulation"* %0), !dbg !6531
  ret void, !dbg !6532
}

; Function Attrs: noinline uwtable
define linkonce_odr dso_local dereferenceable(16) %"class.dealii::SmartPointer"* @_ZN6dealii12SmartPointerINS_13TriangulationILi3ELi3EEEEaSEPS2_(%"class.dealii::SmartPointer"* %this, %"class.dealii::Triangulation"* %tt) #0 comdat align 2 !dbg !6533 {
entry:
  %retval = alloca %"class.dealii::SmartPointer"*, align 8
  %this.addr = alloca %"class.dealii::SmartPointer"*, align 8
  %tt.addr = alloca %"class.dealii::Triangulation"*, align 8
  store %"class.dealii::SmartPointer"* %this, %"class.dealii::SmartPointer"** %this.addr, align 8
  call void @llvm.dbg.declare(metadata %"class.dealii::SmartPointer"** %this.addr, metadata !6534, metadata !DIExpression()), !dbg !6535
  store %"class.dealii::Triangulation"* %tt, %"class.dealii::Triangulation"** %tt.addr, align 8
  call void @llvm.dbg.declare(metadata %"class.dealii::Triangulation"** %tt.addr, metadata !6536, metadata !DIExpression()), !dbg !6537
  %this1 = load %"class.dealii::SmartPointer"*, %"class.dealii::SmartPointer"** %this.addr, align 8
  %t = getelementptr inbounds %"class.dealii::SmartPointer", %"class.dealii::SmartPointer"* %this1, i32 0, i32 0, !dbg !6538
  %0 = load %"class.dealii::Triangulation"*, %"class.dealii::Triangulation"** %t, align 8, !dbg !6538
  %1 = load %"class.dealii::Triangulation"*, %"class.dealii::Triangulation"** %tt.addr, align 8, !dbg !6540
  %cmp = icmp eq %"class.dealii::Triangulation"* %0, %1, !dbg !6541
  br i1 %cmp, label %if.then, label %if.end, !dbg !6542

if.then:                                          ; preds = %entry
  store %"class.dealii::SmartPointer"* %this1, %"class.dealii::SmartPointer"** %retval, align 8, !dbg !6543
  br label %return, !dbg !6543

if.end:                                           ; preds = %entry
  %t2 = getelementptr inbounds %"class.dealii::SmartPointer", %"class.dealii::SmartPointer"* %this1, i32 0, i32 0, !dbg !6544
  %2 = load %"class.dealii::Triangulation"*, %"class.dealii::Triangulation"** %t2, align 8, !dbg !6544
  %cmp3 = icmp ne %"class.dealii::Triangulation"* %2, null, !dbg !6546
  br i1 %cmp3, label %if.then4, label %if.end6, !dbg !6547

if.then4:                                         ; preds = %if.end
  %t5 = getelementptr inbounds %"class.dealii::SmartPointer", %"class.dealii::SmartPointer"* %this1, i32 0, i32 0, !dbg !6548
  %3 = load %"class.dealii::Triangulation"*, %"class.dealii::Triangulation"** %t5, align 8, !dbg !6548
  %4 = bitcast %"class.dealii::Triangulation"* %3 to %"class.dealii::Subscriptor"*, !dbg !6549
  %id = getelementptr inbounds %"class.dealii::SmartPointer", %"class.dealii::SmartPointer"* %this1, i32 0, i32 1, !dbg !6550
  %5 = load i8*, i8** %id, align 8, !dbg !6550
  call void @_ZNK6dealii11Subscriptor11unsubscribeEPKc(%"class.dealii::Subscriptor"* %4, i8* %5), !dbg !6549
  br label %if.end6, !dbg !6548

if.end6:                                          ; preds = %if.then4, %if.end
  %6 = load %"class.dealii::Triangulation"*, %"class.dealii::Triangulation"** %tt.addr, align 8, !dbg !6551
  %t7 = getelementptr inbounds %"class.dealii::SmartPointer", %"class.dealii::SmartPointer"* %this1, i32 0, i32 0, !dbg !6552
  store %"class.dealii::Triangulation"* %6, %"class.dealii::Triangulation"** %t7, align 8, !dbg !6553
  %7 = load %"class.dealii::Triangulation"*, %"class.dealii::Triangulation"** %tt.addr, align 8, !dbg !6554
  %cmp8 = icmp ne %"class.dealii::Triangulation"* %7, null, !dbg !6556
  br i1 %cmp8, label %if.then9, label %if.end11, !dbg !6557

if.then9:                                         ; preds = %if.end6
  %8 = load %"class.dealii::Triangulation"*, %"class.dealii::Triangulation"** %tt.addr, align 8, !dbg !6558
  %9 = bitcast %"class.dealii::Triangulation"* %8 to %"class.dealii::Subscriptor"*, !dbg !6559
  %id10 = getelementptr inbounds %"class.dealii::SmartPointer", %"class.dealii::SmartPointer"* %this1, i32 0, i32 1, !dbg !6560
  %10 = load i8*, i8** %id10, align 8, !dbg !6560
  call void @_ZNK6dealii11Subscriptor9subscribeEPKc(%"class.dealii::Subscriptor"* %9, i8* %10), !dbg !6559
  br label %if.end11, !dbg !6558

if.end11:                                         ; preds = %if.then9, %if.end6
  store %"class.dealii::SmartPointer"* %this1, %"class.dealii::SmartPointer"** %retval, align 8, !dbg !6561
  br label %return, !dbg !6561

return:                                           ; preds = %if.end11, %if.then
  %11 = load %"class.dealii::SmartPointer"*, %"class.dealii::SmartPointer"** %retval, align 8, !dbg !6562
  ret %"class.dealii::SmartPointer"* %11, !dbg !6562
}

; Function Attrs: noinline uwtable
define weak_odr dso_local void @_ZN6dealii6GridInILi3ELi3EE4readERSiNS1_6FormatE(%"class.dealii::GridIn"* %this, %"class.std::basic_istream"* dereferenceable(280) %in, i32 %format) #0 comdat align 2 !dbg !6563 {
entry:
  %this.addr = alloca %"class.dealii::GridIn"*, align 8
  %in.addr = alloca %"class.std::basic_istream"*, align 8
  %format.addr = alloca i32, align 4
  store %"class.dealii::GridIn"* %this, %"class.dealii::GridIn"** %this.addr, align 8
  call void @llvm.dbg.declare(metadata %"class.dealii::GridIn"** %this.addr, metadata !6564, metadata !DIExpression()), !dbg !6565
  store %"class.std::basic_istream"* %in, %"class.std::basic_istream"** %in.addr, align 8
  call void @llvm.dbg.declare(metadata %"class.std::basic_istream"** %in.addr, metadata !6566, metadata !DIExpression()), !dbg !6567
  store i32 %format, i32* %format.addr, align 4
  call void @llvm.dbg.declare(metadata i32* %format.addr, metadata !6568, metadata !DIExpression()), !dbg !6569
  %this1 = load %"class.dealii::GridIn"*, %"class.dealii::GridIn"** %this.addr, align 8
  %0 = load i32, i32* %format.addr, align 4, !dbg !6570
  %cmp = icmp eq i32 %0, 0, !dbg !6572
  br i1 %cmp, label %if.then, label %if.end, !dbg !6573

if.then:                                          ; preds = %entry
  %default_format = getelementptr inbounds %"class.dealii::GridIn", %"class.dealii::GridIn"* %this1, i32 0, i32 1, !dbg !6574
  %1 = load i32, i32* %default_format, align 8, !dbg !6574
  store i32 %1, i32* %format.addr, align 4, !dbg !6575
  br label %if.end, !dbg !6576

if.end:                                           ; preds = %if.then, %entry
  %2 = load i32, i32* %format.addr, align 4, !dbg !6577
  switch i32 %2, label %sw.epilog [
    i32 2, label %sw.bb
    i32 4, label %sw.bb2
    i32 1, label %sw.bb3
    i32 3, label %sw.bb4
    i32 5, label %sw.bb5
    i32 6, label %sw.bb6
    i32 0, label %sw.bb7
  ], !dbg !6578

sw.bb:                                            ; preds = %if.end
  %3 = load %"class.std::basic_istream"*, %"class.std::basic_istream"** %in.addr, align 8, !dbg !6579
  call void @_ZN6dealii6GridInILi3ELi3EE11read_dbmeshERSi(%"class.dealii::GridIn"* %this1, %"class.std::basic_istream"* dereferenceable(280) %3), !dbg !6581
  br label %sw.epilog, !dbg !6582

sw.bb2:                                           ; preds = %if.end
  %4 = load %"class.std::basic_istream"*, %"class.std::basic_istream"** %in.addr, align 8, !dbg !6583
  call void @_ZN6dealii6GridInILi3ELi3EE8read_mshERSi(%"class.dealii::GridIn"* %this1, %"class.std::basic_istream"* dereferenceable(280) %4), !dbg !6584
  br label %sw.epilog, !dbg !6585

sw.bb3:                                           ; preds = %if.end
  %5 = load %"class.std::basic_istream"*, %"class.std::basic_istream"** %in.addr, align 8, !dbg !6586
  call void @_ZN6dealii6GridInILi3ELi3EE8read_ucdERSi(%"class.dealii::GridIn"* %this1, %"class.std::basic_istream"* dereferenceable(280) %5), !dbg !6587
  br label %sw.epilog, !dbg !6588

sw.bb4:                                           ; preds = %if.end
  %6 = load %"class.std::basic_istream"*, %"class.std::basic_istream"** %in.addr, align 8, !dbg !6589
  call void @_ZN6dealii6GridInILi3ELi3EE8read_xdaERSi(%"class.dealii::GridIn"* %this1, %"class.std::basic_istream"* dereferenceable(280) %6), !dbg !6590
  br label %sw.epilog, !dbg !6591

sw.bb5:                                           ; preds = %if.end
  br label %sw.epilog, !dbg !6592

sw.bb6:                                           ; preds = %if.end
  %7 = load %"class.std::basic_istream"*, %"class.std::basic_istream"** %in.addr, align 8, !dbg !6593
  call void @_ZN6dealii6GridInILi3ELi3EE12read_tecplotERSi(%"class.dealii::GridIn"* %this1, %"class.std::basic_istream"* dereferenceable(280) %7), !dbg !6594
  br label %sw.epilog, !dbg !6595

sw.bb7:                                           ; preds = %if.end
  br label %sw.epilog, !dbg !6596

sw.epilog:                                        ; preds = %sw.bb, %sw.bb2, %sw.bb3, %sw.bb4, %sw.bb5, %sw.bb6, %if.end, %sw.bb7
  ret void, !dbg !6597
}

; Function Attrs: noinline uwtable
define weak_odr dso_local void @_ZN6dealii6GridInILi3ELi3EE11read_dbmeshERSi(%"class.dealii::GridIn"* %this, %"class.std::basic_istream"* dereferenceable(280) %in) #0 comdat align 2 personality i8* bitcast (i32 (...)* @__gxx_personality_v0 to i8*) !dbg !6598 {
entry:
  %this.addr = alloca %"class.dealii::GridIn"*, align 8
  %in.addr = alloca %"class.std::basic_istream"*, align 8
  %agg.tmp = alloca %"class.dealii::StandardExceptions::ExcIO", align 8
  %exn.slot = alloca i8*
  %ehselector.slot = alloca i32
  %line = alloca %"class.std::__cxx11::basic_string", align 8
  %agg.tmp8 = alloca %"class.dealii::GridIn<3, 3>::ExcInvalidDBMESHInput", align 8
  %agg.tmp9 = alloca %"class.std::__cxx11::basic_string", align 8
  %agg.tmp22 = alloca %"class.dealii::GridIn<3, 3>::ExcInvalidDBMESHInput", align 8
  %agg.tmp23 = alloca %"class.std::__cxx11::basic_string", align 8
  %dimension = alloca i32, align 4
  %agg.tmp35 = alloca %"class.dealii::GridIn<3, 3>::ExcDBMESHWrongDimension", align 8
  %agg.tmp52 = alloca %"class.dealii::GridIn<3, 3>::ExcInvalidDBMESHInput", align 8
  %agg.tmp53 = alloca %"class.std::__cxx11::basic_string", align 8
  %n_vertices = alloca i32, align 4
  %dummy = alloca double, align 8
  %vertices = alloca %"class.std::vector.82", align 8
  %ref.tmp = alloca %"class.std::allocator.84", align 1
  %vertex = alloca i32, align 4
  %d = alloca i32, align 4
  %agg.tmp90 = alloca %"class.dealii::GridIn<3, 3>::ExcInvalidDBMeshFormat", align 8
  %agg.tmp102 = alloca %"class.dealii::GridIn<3, 3>::ExcInvalidDBMESHInput", align 8
  %agg.tmp103 = alloca %"class.std::__cxx11::basic_string", align 8
  %n_edges = alloca i32, align 4
  %edge = alloca i32, align 4
  %agg.tmp133 = alloca %"class.dealii::GridIn<3, 3>::ExcInvalidDBMeshFormat", align 8
  %agg.tmp145 = alloca %"class.dealii::GridIn<3, 3>::ExcInvalidDBMESHInput", align 8
  %agg.tmp146 = alloca %"class.std::__cxx11::basic_string", align 8
  %edge157 = alloca i32, align 4
  %agg.tmp177 = alloca %"class.dealii::GridIn<3, 3>::ExcInvalidDBMeshFormat", align 8
  %agg.tmp189 = alloca %"class.dealii::GridIn<3, 3>::ExcInvalidDBMESHInput", align 8
  %agg.tmp190 = alloca %"class.std::__cxx11::basic_string", align 8
  %cells = alloca %"class.std::vector.110", align 8
  %subcelldata = alloca %"struct.dealii::SubCellData", align 8
  %n_cells = alloca i32, align 4
  %cell = alloca i32, align 4
  %ref.tmp205 = alloca %"struct.dealii::CellData", align 4
  %i = alloca i32, align 4
  %agg.tmp227 = alloca %"class.dealii::GridIn<3, 3>::ExcInvalidVertexIndex", align 8
  %agg.tmp256 = alloca %"class.dealii::GridIn<3, 3>::ExcInvalidDBMeshFormat", align 8
  %agg.tmp283 = alloca %"class.dealii::StandardExceptions::ExcIO", align 8
  store %"class.dealii::GridIn"* %this, %"class.dealii::GridIn"** %this.addr, align 8
  call void @llvm.dbg.declare(metadata %"class.dealii::GridIn"** %this.addr, metadata !6599, metadata !DIExpression()), !dbg !6600
  store %"class.std::basic_istream"* %in, %"class.std::basic_istream"** %in.addr, align 8
  call void @llvm.dbg.declare(metadata %"class.std::basic_istream"** %in.addr, metadata !6601, metadata !DIExpression()), !dbg !6602
  %this1 = load %"class.dealii::GridIn"*, %"class.dealii::GridIn"** %this.addr, align 8
  %0 = load %"class.std::basic_istream"*, %"class.std::basic_istream"** %in.addr, align 8, !dbg !6603
  %1 = bitcast %"class.std::basic_istream"* %0 to i8**, !dbg !6603
  %vtable = load i8*, i8** %1, align 8, !dbg !6603
  %vbase.offset.ptr = getelementptr i8, i8* %vtable, i64 -24, !dbg !6603
  %2 = bitcast i8* %vbase.offset.ptr to i64*, !dbg !6603
  %vbase.offset = load i64, i64* %2, align 8, !dbg !6603
  %3 = bitcast %"class.std::basic_istream"* %0 to i8*, !dbg !6603
  %add.ptr = getelementptr inbounds i8, i8* %3, i64 %vbase.offset, !dbg !6603
  %4 = bitcast i8* %add.ptr to %"class.std::basic_ios"*, !dbg !6603
  %call = call zeroext i1 @_ZNKSt9basic_iosIcSt11char_traitsIcEEntEv(%"class.std::basic_ios"* %4), !dbg !6603
  br i1 %call, label %if.then, label %if.end, !dbg !6606

if.then:                                          ; preds = %entry
  %5 = bitcast %"class.dealii::StandardExceptions::ExcIO"* %agg.tmp to i8*, !dbg !6603
  call void @llvm.memset.p0i8.i64(i8* align 8 %5, i8 0, i64 64, i1 false), !dbg !6603
  call void @_ZN6dealii18StandardExceptions5ExcIOC2Ev(%"class.dealii::StandardExceptions::ExcIO"* %agg.tmp), !dbg !6603
  invoke void @_ZN6dealii18deal_II_exceptions9internals17issue_error_throwINS_18StandardExceptions5ExcIOEEEvPKciS6_S6_S6_T_(i8* getelementptr inbounds ([23 x i8], [23 x i8]* @.str.2, i64 0, i64 0), i32 221, i8* getelementptr inbounds ([1 x i8], [1 x i8]* @.str.3, i64 0, i64 0), i8* getelementptr inbounds ([3 x i8], [3 x i8]* @.str.4, i64 0, i64 0), i8* getelementptr inbounds ([8 x i8], [8 x i8]* @.str.5, i64 0, i64 0), %"class.dealii::StandardExceptions::ExcIO"* %agg.tmp)
          to label %invoke.cont unwind label %lpad, !dbg !6603

invoke.cont:                                      ; preds = %if.then
  call void @_ZN6dealii18StandardExceptions5ExcIOD2Ev(%"class.dealii::StandardExceptions::ExcIO"* %agg.tmp) #3, !dbg !6603
  br label %if.end, !dbg !6603

lpad:                                             ; preds = %if.then
  %6 = landingpad { i8*, i32 }
          cleanup, !dbg !6607
  %7 = extractvalue { i8*, i32 } %6, 0, !dbg !6607
  store i8* %7, i8** %exn.slot, align 8, !dbg !6607
  %8 = extractvalue { i8*, i32 } %6, 1, !dbg !6607
  store i32 %8, i32* %ehselector.slot, align 4, !dbg !6607
  call void @_ZN6dealii18StandardExceptions5ExcIOD2Ev(%"class.dealii::StandardExceptions::ExcIO"* %agg.tmp) #3, !dbg !6603
  br label %eh.resume, !dbg !6603

if.end:                                           ; preds = %invoke.cont, %entry
  %9 = load %"class.std::basic_istream"*, %"class.std::basic_istream"** %in.addr, align 8, !dbg !6608
  call void @_ZN6dealii6GridInILi3ELi3EE18skip_comment_linesERSic(%"class.std::basic_istream"* dereferenceable(280) %9, i8 signext 35), !dbg !6609
  call void @llvm.dbg.declare(metadata %"class.std::__cxx11::basic_string"* %line, metadata !6610, metadata !DIExpression()), !dbg !6611
  call void @_ZNSt7__cxx1112basic_stringIcSt11char_traitsIcESaIcEEC1Ev(%"class.std::__cxx11::basic_string"* %line) #3, !dbg !6611
  %10 = load %"class.std::basic_istream"*, %"class.std::basic_istream"** %in.addr, align 8, !dbg !6612
  %call4 = invoke dereferenceable(280) %"class.std::basic_istream"* @_ZSt7getlineIcSt11char_traitsIcESaIcEERSt13basic_istreamIT_T0_ES7_RNSt7__cxx1112basic_stringIS4_S5_T1_EE(%"class.std::basic_istream"* dereferenceable(280) %10, %"class.std::__cxx11::basic_string"* dereferenceable(32) %line)
          to label %invoke.cont3 unwind label %lpad2, !dbg !6613

invoke.cont3:                                     ; preds = %if.end
  %call6 = invoke zeroext i1 @_ZSteqIcSt11char_traitsIcESaIcEEbRKNSt7__cxx1112basic_stringIT_T0_T1_EEPKS5_(%"class.std::__cxx11::basic_string"* dereferenceable(32) %line, i8* getelementptr inbounds ([23 x i8], [23 x i8]* @.str.13, i64 0, i64 0))
          to label %invoke.cont5 unwind label %lpad2, !dbg !6614

invoke.cont5:                                     ; preds = %invoke.cont3
  br i1 %call6, label %if.end15, label %if.then7, !dbg !6617

if.then7:                                         ; preds = %invoke.cont5
  invoke void @_ZNSt7__cxx1112basic_stringIcSt11char_traitsIcESaIcEEC1ERKS4_(%"class.std::__cxx11::basic_string"* %agg.tmp9, %"class.std::__cxx11::basic_string"* dereferenceable(32) %line)
          to label %invoke.cont10 unwind label %lpad2, !dbg !6614

invoke.cont10:                                    ; preds = %if.then7
  invoke void @_ZN6dealii6GridInILi3ELi3EE21ExcInvalidDBMESHInputC1ENSt7__cxx1112basic_stringIcSt11char_traitsIcESaIcEEE(%"class.dealii::GridIn<3, 3>::ExcInvalidDBMESHInput"* %agg.tmp8, %"class.std::__cxx11::basic_string"* %agg.tmp9)
          to label %invoke.cont12 unwind label %lpad11, !dbg !6614

invoke.cont12:                                    ; preds = %invoke.cont10
  invoke void @_ZN6dealii18deal_II_exceptions9internals17issue_error_throwINS_6GridInILi3ELi3EE21ExcInvalidDBMESHInputEEEvPKciS7_S7_S7_T_(i8* getelementptr inbounds ([23 x i8], [23 x i8]* @.str.2, i64 0, i64 0), i32 232, i8* getelementptr inbounds ([1 x i8], [1 x i8]* @.str.3, i64 0, i64 0), i8* getelementptr inbounds ([31 x i8], [31 x i8]* @.str.14, i64 0, i64 0), i8* getelementptr inbounds ([28 x i8], [28 x i8]* @.str.15, i64 0, i64 0), %"class.dealii::GridIn<3, 3>::ExcInvalidDBMESHInput"* %agg.tmp8)
          to label %invoke.cont14 unwind label %lpad13, !dbg !6614

invoke.cont14:                                    ; preds = %invoke.cont12
  call void @_ZN6dealii6GridInILi3ELi3EE21ExcInvalidDBMESHInputD1Ev(%"class.dealii::GridIn<3, 3>::ExcInvalidDBMESHInput"* %agg.tmp8) #3, !dbg !6614
  call void @_ZNSt7__cxx1112basic_stringIcSt11char_traitsIcESaIcEED1Ev(%"class.std::__cxx11::basic_string"* %agg.tmp9) #3, !dbg !6614
  br label %if.end15, !dbg !6614

lpad2:                                            ; preds = %if.end61, %if.then51, %invoke.cont47, %invoke.cont46, %while.end, %while.cond, %if.end40, %if.then34, %if.end31, %if.then21, %invoke.cont17, %invoke.cont16, %if.end15, %if.then7, %invoke.cont3, %if.end
  %11 = landingpad { i8*, i32 }
          cleanup, !dbg !6618
  %12 = extractvalue { i8*, i32 } %11, 0, !dbg !6618
  store i8* %12, i8** %exn.slot, align 8, !dbg !6618
  %13 = extractvalue { i8*, i32 } %11, 1, !dbg !6618
  store i32 %13, i32* %ehselector.slot, align 4, !dbg !6618
  br label %ehcleanup299, !dbg !6618

lpad11:                                           ; preds = %invoke.cont10
  %14 = landingpad { i8*, i32 }
          cleanup, !dbg !6619
  %15 = extractvalue { i8*, i32 } %14, 0, !dbg !6619
  store i8* %15, i8** %exn.slot, align 8, !dbg !6619
  %16 = extractvalue { i8*, i32 } %14, 1, !dbg !6619
  store i32 %16, i32* %ehselector.slot, align 4, !dbg !6619
  br label %ehcleanup, !dbg !6619

lpad13:                                           ; preds = %invoke.cont12
  %17 = landingpad { i8*, i32 }
          cleanup, !dbg !6619
  %18 = extractvalue { i8*, i32 } %17, 0, !dbg !6619
  store i8* %18, i8** %exn.slot, align 8, !dbg !6619
  %19 = extractvalue { i8*, i32 } %17, 1, !dbg !6619
  store i32 %19, i32* %ehselector.slot, align 4, !dbg !6619
  call void @_ZN6dealii6GridInILi3ELi3EE21ExcInvalidDBMESHInputD1Ev(%"class.dealii::GridIn<3, 3>::ExcInvalidDBMESHInput"* %agg.tmp8) #3, !dbg !6614
  br label %ehcleanup, !dbg !6614

ehcleanup:                                        ; preds = %lpad13, %lpad11
  call void @_ZNSt7__cxx1112basic_stringIcSt11char_traitsIcESaIcEED1Ev(%"class.std::__cxx11::basic_string"* %agg.tmp9) #3, !dbg !6614
  br label %ehcleanup299, !dbg !6614

if.end15:                                         ; preds = %invoke.cont14, %invoke.cont5
  %20 = load %"class.std::basic_istream"*, %"class.std::basic_istream"** %in.addr, align 8, !dbg !6620
  invoke void @_ZN6dealii6GridInILi3ELi3EE16skip_empty_linesERSi(%"class.std::basic_istream"* dereferenceable(280) %20)
          to label %invoke.cont16 unwind label %lpad2, !dbg !6621

invoke.cont16:                                    ; preds = %if.end15
  %21 = load %"class.std::basic_istream"*, %"class.std::basic_istream"** %in.addr, align 8, !dbg !6622
  %call18 = invoke dereferenceable(280) %"class.std::basic_istream"* @_ZSt7getlineIcSt11char_traitsIcESaIcEERSt13basic_istreamIT_T0_ES7_RNSt7__cxx1112basic_stringIS4_S5_T1_EE(%"class.std::basic_istream"* dereferenceable(280) %21, %"class.std::__cxx11::basic_string"* dereferenceable(32) %line)
          to label %invoke.cont17 unwind label %lpad2, !dbg !6623

invoke.cont17:                                    ; preds = %invoke.cont16
  %call20 = invoke zeroext i1 @_ZSteqIcSt11char_traitsIcESaIcEEbRKNSt7__cxx1112basic_stringIT_T0_T1_EEPKS5_(%"class.std::__cxx11::basic_string"* dereferenceable(32) %line, i8* getelementptr inbounds ([10 x i8], [10 x i8]* @.str.16, i64 0, i64 0))
          to label %invoke.cont19 unwind label %lpad2, !dbg !6624

invoke.cont19:                                    ; preds = %invoke.cont17
  br i1 %call20, label %if.end31, label %if.then21, !dbg !6627

if.then21:                                        ; preds = %invoke.cont19
  invoke void @_ZNSt7__cxx1112basic_stringIcSt11char_traitsIcESaIcEEC1ERKS4_(%"class.std::__cxx11::basic_string"* %agg.tmp23, %"class.std::__cxx11::basic_string"* dereferenceable(32) %line)
          to label %invoke.cont24 unwind label %lpad2, !dbg !6624

invoke.cont24:                                    ; preds = %if.then21
  invoke void @_ZN6dealii6GridInILi3ELi3EE21ExcInvalidDBMESHInputC1ENSt7__cxx1112basic_stringIcSt11char_traitsIcESaIcEEE(%"class.dealii::GridIn<3, 3>::ExcInvalidDBMESHInput"* %agg.tmp22, %"class.std::__cxx11::basic_string"* %agg.tmp23)
          to label %invoke.cont26 unwind label %lpad25, !dbg !6624

invoke.cont26:                                    ; preds = %invoke.cont24
  invoke void @_ZN6dealii18deal_II_exceptions9internals17issue_error_throwINS_6GridInILi3ELi3EE21ExcInvalidDBMESHInputEEEvPKciS7_S7_S7_T_(i8* getelementptr inbounds ([23 x i8], [23 x i8]* @.str.2, i64 0, i64 0), i32 238, i8* getelementptr inbounds ([1 x i8], [1 x i8]* @.str.3, i64 0, i64 0), i8* getelementptr inbounds ([18 x i8], [18 x i8]* @.str.17, i64 0, i64 0), i8* getelementptr inbounds ([28 x i8], [28 x i8]* @.str.15, i64 0, i64 0), %"class.dealii::GridIn<3, 3>::ExcInvalidDBMESHInput"* %agg.tmp22)
          to label %invoke.cont28 unwind label %lpad27, !dbg !6624

invoke.cont28:                                    ; preds = %invoke.cont26
  call void @_ZN6dealii6GridInILi3ELi3EE21ExcInvalidDBMESHInputD1Ev(%"class.dealii::GridIn<3, 3>::ExcInvalidDBMESHInput"* %agg.tmp22) #3, !dbg !6624
  call void @_ZNSt7__cxx1112basic_stringIcSt11char_traitsIcESaIcEED1Ev(%"class.std::__cxx11::basic_string"* %agg.tmp23) #3, !dbg !6624
  br label %if.end31, !dbg !6624

lpad25:                                           ; preds = %invoke.cont24
  %22 = landingpad { i8*, i32 }
          cleanup, !dbg !6628
  %23 = extractvalue { i8*, i32 } %22, 0, !dbg !6628
  store i8* %23, i8** %exn.slot, align 8, !dbg !6628
  %24 = extractvalue { i8*, i32 } %22, 1, !dbg !6628
  store i32 %24, i32* %ehselector.slot, align 4, !dbg !6628
  br label %ehcleanup30, !dbg !6628

lpad27:                                           ; preds = %invoke.cont26
  %25 = landingpad { i8*, i32 }
          cleanup, !dbg !6628
  %26 = extractvalue { i8*, i32 } %25, 0, !dbg !6628
  store i8* %26, i8** %exn.slot, align 8, !dbg !6628
  %27 = extractvalue { i8*, i32 } %25, 1, !dbg !6628
  store i32 %27, i32* %ehselector.slot, align 4, !dbg !6628
  call void @_ZN6dealii6GridInILi3ELi3EE21ExcInvalidDBMESHInputD1Ev(%"class.dealii::GridIn<3, 3>::ExcInvalidDBMESHInput"* %agg.tmp22) #3, !dbg !6624
  br label %ehcleanup30, !dbg !6624

ehcleanup30:                                      ; preds = %lpad27, %lpad25
  call void @_ZNSt7__cxx1112basic_stringIcSt11char_traitsIcESaIcEED1Ev(%"class.std::__cxx11::basic_string"* %agg.tmp23) #3, !dbg !6624
  br label %ehcleanup299, !dbg !6624

if.end31:                                         ; preds = %invoke.cont28, %invoke.cont19
  call void @llvm.dbg.declare(metadata i32* %dimension, metadata !6629, metadata !DIExpression()), !dbg !6630
  %28 = load %"class.std::basic_istream"*, %"class.std::basic_istream"** %in.addr, align 8, !dbg !6631
  %call33 = invoke dereferenceable(280) %"class.std::basic_istream"* @_ZNSirsERj(%"class.std::basic_istream"* %28, i32* dereferenceable(4) %dimension)
          to label %invoke.cont32 unwind label %lpad2, !dbg !6632

invoke.cont32:                                    ; preds = %if.end31
  %29 = load i32, i32* %dimension, align 4, !dbg !6633
  %cmp = icmp eq i32 %29, 3, !dbg !6633
  br i1 %cmp, label %if.end40, label %if.then34, !dbg !6636

if.then34:                                        ; preds = %invoke.cont32
  %30 = load i32, i32* %dimension, align 4, !dbg !6633
  invoke void @_ZN6dealii6GridInILi3ELi3EE23ExcDBMESHWrongDimensionC1Ei(%"class.dealii::GridIn<3, 3>::ExcDBMESHWrongDimension"* %agg.tmp35, i32 %30)
          to label %invoke.cont36 unwind label %lpad2, !dbg !6633

invoke.cont36:                                    ; preds = %if.then34
  invoke void @_ZN6dealii18deal_II_exceptions9internals17issue_error_throwINS_6GridInILi3ELi3EE23ExcDBMESHWrongDimensionEEEvPKciS7_S7_S7_T_(i8* getelementptr inbounds ([23 x i8], [23 x i8]* @.str.2, i64 0, i64 0), i32 241, i8* getelementptr inbounds ([1 x i8], [1 x i8]* @.str.3, i64 0, i64 0), i8* getelementptr inbounds ([17 x i8], [17 x i8]* @.str.18, i64 0, i64 0), i8* getelementptr inbounds ([35 x i8], [35 x i8]* @.str.19, i64 0, i64 0), %"class.dealii::GridIn<3, 3>::ExcDBMESHWrongDimension"* %agg.tmp35)
          to label %invoke.cont38 unwind label %lpad37, !dbg !6633

invoke.cont38:                                    ; preds = %invoke.cont36
  call void @_ZN6dealii6GridInILi3ELi3EE23ExcDBMESHWrongDimensionD1Ev(%"class.dealii::GridIn<3, 3>::ExcDBMESHWrongDimension"* %agg.tmp35) #3, !dbg !6633
  br label %if.end40, !dbg !6633

lpad37:                                           ; preds = %invoke.cont36
  %31 = landingpad { i8*, i32 }
          cleanup, !dbg !6637
  %32 = extractvalue { i8*, i32 } %31, 0, !dbg !6637
  store i8* %32, i8** %exn.slot, align 8, !dbg !6637
  %33 = extractvalue { i8*, i32 } %31, 1, !dbg !6637
  store i32 %33, i32* %ehselector.slot, align 4, !dbg !6637
  call void @_ZN6dealii6GridInILi3ELi3EE23ExcDBMESHWrongDimensionD1Ev(%"class.dealii::GridIn<3, 3>::ExcDBMESHWrongDimension"* %agg.tmp35) #3, !dbg !6633
  br label %ehcleanup299, !dbg !6633

if.end40:                                         ; preds = %invoke.cont38, %invoke.cont32
  %34 = load %"class.std::basic_istream"*, %"class.std::basic_istream"** %in.addr, align 8, !dbg !6638
  invoke void @_ZN6dealii6GridInILi3ELi3EE16skip_empty_linesERSi(%"class.std::basic_istream"* dereferenceable(280) %34)
          to label %invoke.cont41 unwind label %lpad2, !dbg !6639

invoke.cont41:                                    ; preds = %if.end40
  br label %while.cond, !dbg !6640

while.cond:                                       ; preds = %while.body, %invoke.cont41
  %35 = load %"class.std::basic_istream"*, %"class.std::basic_istream"** %in.addr, align 8, !dbg !6641
  %call43 = invoke dereferenceable(280) %"class.std::basic_istream"* @_ZSt7getlineIcSt11char_traitsIcESaIcEERSt13basic_istreamIT_T0_ES7_RNSt7__cxx1112basic_stringIS4_S5_T1_EE(%"class.std::basic_istream"* dereferenceable(280) %35, %"class.std::__cxx11::basic_string"* dereferenceable(32) %line)
          to label %invoke.cont42 unwind label %lpad2, !dbg !6642

invoke.cont42:                                    ; preds = %while.cond
  %call44 = call i64 @_ZNKSt7__cxx1112basic_stringIcSt11char_traitsIcESaIcEE4findEPKcm(%"class.std::__cxx11::basic_string"* %line, i8* getelementptr inbounds ([6 x i8], [6 x i8]* @.str.20, i64 0, i64 0), i64 0) #3, !dbg !6643
  %cmp45 = icmp eq i64 %call44, -1, !dbg !6644
  br i1 %cmp45, label %while.body, label %while.end, !dbg !6640

while.body:                                       ; preds = %invoke.cont42
  br label %while.cond, !dbg !6640, !llvm.loop !6645

while.end:                                        ; preds = %invoke.cont42
  %36 = load %"class.std::basic_istream"*, %"class.std::basic_istream"** %in.addr, align 8, !dbg !6647
  invoke void @_ZN6dealii6GridInILi3ELi3EE16skip_empty_linesERSi(%"class.std::basic_istream"* dereferenceable(280) %36)
          to label %invoke.cont46 unwind label %lpad2, !dbg !6648

invoke.cont46:                                    ; preds = %while.end
  %37 = load %"class.std::basic_istream"*, %"class.std::basic_istream"** %in.addr, align 8, !dbg !6649
  %call48 = invoke dereferenceable(280) %"class.std::basic_istream"* @_ZSt7getlineIcSt11char_traitsIcESaIcEERSt13basic_istreamIT_T0_ES7_RNSt7__cxx1112basic_stringIS4_S5_T1_EE(%"class.std::basic_istream"* dereferenceable(280) %37, %"class.std::__cxx11::basic_string"* dereferenceable(32) %line)
          to label %invoke.cont47 unwind label %lpad2, !dbg !6650

invoke.cont47:                                    ; preds = %invoke.cont46
  %call50 = invoke zeroext i1 @_ZSteqIcSt11char_traitsIcESaIcEEbRKNSt7__cxx1112basic_stringIT_T0_T1_EEPKS5_(%"class.std::__cxx11::basic_string"* dereferenceable(32) %line, i8* getelementptr inbounds ([9 x i8], [9 x i8]* @.str.21, i64 0, i64 0))
          to label %invoke.cont49 unwind label %lpad2, !dbg !6651

invoke.cont49:                                    ; preds = %invoke.cont47
  br i1 %call50, label %if.end61, label %if.then51, !dbg !6654

if.then51:                                        ; preds = %invoke.cont49
  invoke void @_ZNSt7__cxx1112basic_stringIcSt11char_traitsIcESaIcEEC1ERKS4_(%"class.std::__cxx11::basic_string"* %agg.tmp53, %"class.std::__cxx11::basic_string"* dereferenceable(32) %line)
          to label %invoke.cont54 unwind label %lpad2, !dbg !6651

invoke.cont54:                                    ; preds = %if.then51
  invoke void @_ZN6dealii6GridInILi3ELi3EE21ExcInvalidDBMESHInputC1ENSt7__cxx1112basic_stringIcSt11char_traitsIcESaIcEEE(%"class.dealii::GridIn<3, 3>::ExcInvalidDBMESHInput"* %agg.tmp52, %"class.std::__cxx11::basic_string"* %agg.tmp53)
          to label %invoke.cont56 unwind label %lpad55, !dbg !6651

invoke.cont56:                                    ; preds = %invoke.cont54
  invoke void @_ZN6dealii18deal_II_exceptions9internals17issue_error_throwINS_6GridInILi3ELi3EE21ExcInvalidDBMESHInputEEEvPKciS7_S7_S7_T_(i8* getelementptr inbounds ([23 x i8], [23 x i8]* @.str.2, i64 0, i64 0), i32 262, i8* getelementptr inbounds ([1 x i8], [1 x i8]* @.str.3, i64 0, i64 0), i8* getelementptr inbounds ([17 x i8], [17 x i8]* @.str.22, i64 0, i64 0), i8* getelementptr inbounds ([28 x i8], [28 x i8]* @.str.15, i64 0, i64 0), %"class.dealii::GridIn<3, 3>::ExcInvalidDBMESHInput"* %agg.tmp52)
          to label %invoke.cont58 unwind label %lpad57, !dbg !6651

invoke.cont58:                                    ; preds = %invoke.cont56
  call void @_ZN6dealii6GridInILi3ELi3EE21ExcInvalidDBMESHInputD1Ev(%"class.dealii::GridIn<3, 3>::ExcInvalidDBMESHInput"* %agg.tmp52) #3, !dbg !6651
  call void @_ZNSt7__cxx1112basic_stringIcSt11char_traitsIcESaIcEED1Ev(%"class.std::__cxx11::basic_string"* %agg.tmp53) #3, !dbg !6651
  br label %if.end61, !dbg !6651

lpad55:                                           ; preds = %invoke.cont54
  %38 = landingpad { i8*, i32 }
          cleanup, !dbg !6655
  %39 = extractvalue { i8*, i32 } %38, 0, !dbg !6655
  store i8* %39, i8** %exn.slot, align 8, !dbg !6655
  %40 = extractvalue { i8*, i32 } %38, 1, !dbg !6655
  store i32 %40, i32* %ehselector.slot, align 4, !dbg !6655
  br label %ehcleanup60, !dbg !6655

lpad57:                                           ; preds = %invoke.cont56
  %41 = landingpad { i8*, i32 }
          cleanup, !dbg !6655
  %42 = extractvalue { i8*, i32 } %41, 0, !dbg !6655
  store i8* %42, i8** %exn.slot, align 8, !dbg !6655
  %43 = extractvalue { i8*, i32 } %41, 1, !dbg !6655
  store i32 %43, i32* %ehselector.slot, align 4, !dbg !6655
  call void @_ZN6dealii6GridInILi3ELi3EE21ExcInvalidDBMESHInputD1Ev(%"class.dealii::GridIn<3, 3>::ExcInvalidDBMESHInput"* %agg.tmp52) #3, !dbg !6651
  br label %ehcleanup60, !dbg !6651

ehcleanup60:                                      ; preds = %lpad57, %lpad55
  call void @_ZNSt7__cxx1112basic_stringIcSt11char_traitsIcESaIcEED1Ev(%"class.std::__cxx11::basic_string"* %agg.tmp53) #3, !dbg !6651
  br label %ehcleanup299, !dbg !6651

if.end61:                                         ; preds = %invoke.cont58, %invoke.cont49
  call void @llvm.dbg.declare(metadata i32* %n_vertices, metadata !6656, metadata !DIExpression()), !dbg !6657
  call void @llvm.dbg.declare(metadata double* %dummy, metadata !6658, metadata !DIExpression()), !dbg !6659
  %44 = load %"class.std::basic_istream"*, %"class.std::basic_istream"** %in.addr, align 8, !dbg !6660
  %call63 = invoke dereferenceable(280) %"class.std::basic_istream"* @_ZNSirsERj(%"class.std::basic_istream"* %44, i32* dereferenceable(4) %n_vertices)
          to label %invoke.cont62 unwind label %lpad2, !dbg !6661

invoke.cont62:                                    ; preds = %if.end61
  call void @llvm.dbg.declare(metadata %"class.std::vector.82"* %vertices, metadata !6662, metadata !DIExpression()), !dbg !6663
  %45 = load i32, i32* %n_vertices, align 4, !dbg !6664
  %conv = zext i32 %45 to i64, !dbg !6664
  call void @_ZNSaIN6dealii5PointILi3EEEEC2Ev(%"class.std::allocator.84"* %ref.tmp) #3, !dbg !6663
  invoke void @_ZNSt6vectorIN6dealii5PointILi3EEESaIS2_EEC2EmRKS3_(%"class.std::vector.82"* %vertices, i64 %conv, %"class.std::allocator.84"* dereferenceable(1) %ref.tmp)
          to label %invoke.cont65 unwind label %lpad64, !dbg !6663

invoke.cont65:                                    ; preds = %invoke.cont62
  call void @_ZNSaIN6dealii5PointILi3EEEED2Ev(%"class.std::allocator.84"* %ref.tmp) #3, !dbg !6663
  call void @llvm.dbg.declare(metadata i32* %vertex, metadata !6665, metadata !DIExpression()), !dbg !6667
  store i32 0, i32* %vertex, align 4, !dbg !6667
  br label %for.cond, !dbg !6668

for.cond:                                         ; preds = %for.inc80, %invoke.cont65
  %46 = load i32, i32* %vertex, align 4, !dbg !6669
  %47 = load i32, i32* %n_vertices, align 4, !dbg !6671
  %cmp67 = icmp ult i32 %46, %47, !dbg !6672
  br i1 %cmp67, label %for.body, label %for.end82, !dbg !6673

for.body:                                         ; preds = %for.cond
  call void @llvm.dbg.declare(metadata i32* %d, metadata !6674, metadata !DIExpression()), !dbg !6677
  store i32 0, i32* %d, align 4, !dbg !6677
  br label %for.cond68, !dbg !6678

for.cond68:                                       ; preds = %for.inc, %for.body
  %48 = load i32, i32* %d, align 4, !dbg !6679
  %cmp69 = icmp ult i32 %48, 3, !dbg !6681
  br i1 %cmp69, label %for.body70, label %for.end, !dbg !6682

for.body70:                                       ; preds = %for.cond68
  %49 = load %"class.std::basic_istream"*, %"class.std::basic_istream"** %in.addr, align 8, !dbg !6683
  %50 = load i32, i32* %vertex, align 4, !dbg !6684
  %conv71 = zext i32 %50 to i64, !dbg !6684
  %call72 = call dereferenceable(24) %"class.dealii::Point"* @_ZNSt6vectorIN6dealii5PointILi3EEESaIS2_EEixEm(%"class.std::vector.82"* %vertices, i64 %conv71) #3, !dbg !6685
  %51 = bitcast %"class.dealii::Point"* %call72 to %"class.dealii::Tensor"*, !dbg !6685
  %52 = load i32, i32* %d, align 4, !dbg !6686
  %call75 = invoke dereferenceable(8) double* @_ZN6dealii6TensorILi1ELi3EEixEj(%"class.dealii::Tensor"* %51, i32 %52)
          to label %invoke.cont74 unwind label %lpad73, !dbg !6685

invoke.cont74:                                    ; preds = %for.body70
  %call77 = invoke dereferenceable(280) %"class.std::basic_istream"* @_ZNSirsERd(%"class.std::basic_istream"* %49, double* dereferenceable(8) %call75)
          to label %invoke.cont76 unwind label %lpad73, !dbg !6687

invoke.cont76:                                    ; preds = %invoke.cont74
  br label %for.inc, !dbg !6683

for.inc:                                          ; preds = %invoke.cont76
  %53 = load i32, i32* %d, align 4, !dbg !6688
  %inc = add i32 %53, 1, !dbg !6688
  store i32 %inc, i32* %d, align 4, !dbg !6688
  br label %for.cond68, !dbg !6689, !llvm.loop !6690

lpad64:                                           ; preds = %invoke.cont62
  %54 = landingpad { i8*, i32 }
          cleanup, !dbg !6618
  %55 = extractvalue { i8*, i32 } %54, 0, !dbg !6618
  store i8* %55, i8** %exn.slot, align 8, !dbg !6618
  %56 = extractvalue { i8*, i32 } %54, 1, !dbg !6618
  store i32 %56, i32* %ehselector.slot, align 4, !dbg !6618
  call void @_ZNSaIN6dealii5PointILi3EEEED2Ev(%"class.std::allocator.84"* %ref.tmp) #3, !dbg !6663
  br label %ehcleanup299, !dbg !6663

lpad73:                                           ; preds = %if.then188, %invoke.cont184, %invoke.cont183, %if.end182, %if.then176, %for.end169, %invoke.cont163, %invoke.cont161, %for.body160, %if.end154, %if.then144, %invoke.cont140, %invoke.cont139, %if.end138, %if.then132, %for.end125, %invoke.cont119, %invoke.cont117, %for.body116, %if.end111, %if.then101, %invoke.cont97, %invoke.cont96, %if.end95, %if.then89, %for.end82, %for.end, %invoke.cont74, %for.body70
  %57 = landingpad { i8*, i32 }
          cleanup, !dbg !6692
  %58 = extractvalue { i8*, i32 } %57, 0, !dbg !6692
  store i8* %58, i8** %exn.slot, align 8, !dbg !6692
  %59 = extractvalue { i8*, i32 } %57, 1, !dbg !6692
  store i32 %59, i32* %ehselector.slot, align 4, !dbg !6692
  br label %ehcleanup298, !dbg !6692

for.end:                                          ; preds = %for.cond68
  %60 = load %"class.std::basic_istream"*, %"class.std::basic_istream"** %in.addr, align 8, !dbg !6693
  %call79 = invoke dereferenceable(280) %"class.std::basic_istream"* @_ZNSirsERd(%"class.std::basic_istream"* %60, double* dereferenceable(8) %dummy)
          to label %invoke.cont78 unwind label %lpad73, !dbg !6694

invoke.cont78:                                    ; preds = %for.end
  br label %for.inc80, !dbg !6695

for.inc80:                                        ; preds = %invoke.cont78
  %61 = load i32, i32* %vertex, align 4, !dbg !6696
  %inc81 = add i32 %61, 1, !dbg !6696
  store i32 %inc81, i32* %vertex, align 4, !dbg !6696
  br label %for.cond, !dbg !6697, !llvm.loop !6698

for.end82:                                        ; preds = %for.cond
  %62 = load %"class.std::basic_istream"*, %"class.std::basic_istream"** %in.addr, align 8, !dbg !6700
  %63 = bitcast %"class.std::basic_istream"* %62 to i8**, !dbg !6700
  %vtable83 = load i8*, i8** %63, align 8, !dbg !6700
  %vbase.offset.ptr84 = getelementptr i8, i8* %vtable83, i64 -24, !dbg !6700
  %64 = bitcast i8* %vbase.offset.ptr84 to i64*, !dbg !6700
  %vbase.offset85 = load i64, i64* %64, align 8, !dbg !6700
  %65 = bitcast %"class.std::basic_istream"* %62 to i8*, !dbg !6700
  %add.ptr86 = getelementptr inbounds i8, i8* %65, i64 %vbase.offset85, !dbg !6700
  %66 = bitcast i8* %add.ptr86 to %"class.std::basic_ios"*, !dbg !6700
  %call88 = invoke zeroext i1 @_ZNKSt9basic_iosIcSt11char_traitsIcEEntEv(%"class.std::basic_ios"* %66)
          to label %invoke.cont87 unwind label %lpad73, !dbg !6700

invoke.cont87:                                    ; preds = %for.end82
  br i1 %call88, label %if.then89, label %if.end95, !dbg !6703

if.then89:                                        ; preds = %invoke.cont87
  %67 = bitcast %"class.dealii::GridIn<3, 3>::ExcInvalidDBMeshFormat"* %agg.tmp90 to i8*, !dbg !6700
  call void @llvm.memset.p0i8.i64(i8* align 8 %67, i8 0, i64 64, i1 false), !dbg !6700
  invoke void @_ZN6dealii6GridInILi3ELi3EE22ExcInvalidDBMeshFormatC2Ev(%"class.dealii::GridIn<3, 3>::ExcInvalidDBMeshFormat"* %agg.tmp90)
          to label %invoke.cont91 unwind label %lpad73, !dbg !6700

invoke.cont91:                                    ; preds = %if.then89
  invoke void @_ZN6dealii18deal_II_exceptions9internals17issue_error_throwINS_6GridInILi3ELi3EE22ExcInvalidDBMeshFormatEEEvPKciS7_S7_S7_T_(i8* getelementptr inbounds ([23 x i8], [23 x i8]* @.str.2, i64 0, i64 0), i32 277, i8* getelementptr inbounds ([1 x i8], [1 x i8]* @.str.3, i64 0, i64 0), i8* getelementptr inbounds ([3 x i8], [3 x i8]* @.str.4, i64 0, i64 0), i8* getelementptr inbounds ([25 x i8], [25 x i8]* @.str.23, i64 0, i64 0), %"class.dealii::GridIn<3, 3>::ExcInvalidDBMeshFormat"* %agg.tmp90)
          to label %invoke.cont93 unwind label %lpad92, !dbg !6700

invoke.cont93:                                    ; preds = %invoke.cont91
  call void @_ZN6dealii6GridInILi3ELi3EE22ExcInvalidDBMeshFormatD2Ev(%"class.dealii::GridIn<3, 3>::ExcInvalidDBMeshFormat"* %agg.tmp90) #3, !dbg !6700
  br label %if.end95, !dbg !6700

lpad92:                                           ; preds = %invoke.cont91
  %68 = landingpad { i8*, i32 }
          cleanup, !dbg !6704
  %69 = extractvalue { i8*, i32 } %68, 0, !dbg !6704
  store i8* %69, i8** %exn.slot, align 8, !dbg !6704
  %70 = extractvalue { i8*, i32 } %68, 1, !dbg !6704
  store i32 %70, i32* %ehselector.slot, align 4, !dbg !6704
  call void @_ZN6dealii6GridInILi3ELi3EE22ExcInvalidDBMeshFormatD2Ev(%"class.dealii::GridIn<3, 3>::ExcInvalidDBMeshFormat"* %agg.tmp90) #3, !dbg !6700
  br label %ehcleanup298, !dbg !6700

if.end95:                                         ; preds = %invoke.cont93, %invoke.cont87
  %71 = load %"class.std::basic_istream"*, %"class.std::basic_istream"** %in.addr, align 8, !dbg !6705
  invoke void @_ZN6dealii6GridInILi3ELi3EE16skip_empty_linesERSi(%"class.std::basic_istream"* dereferenceable(280) %71)
          to label %invoke.cont96 unwind label %lpad73, !dbg !6706

invoke.cont96:                                    ; preds = %if.end95
  %72 = load %"class.std::basic_istream"*, %"class.std::basic_istream"** %in.addr, align 8, !dbg !6707
  %call98 = invoke dereferenceable(280) %"class.std::basic_istream"* @_ZSt7getlineIcSt11char_traitsIcESaIcEERSt13basic_istreamIT_T0_ES7_RNSt7__cxx1112basic_stringIS4_S5_T1_EE(%"class.std::basic_istream"* dereferenceable(280) %72, %"class.std::__cxx11::basic_string"* dereferenceable(32) %line)
          to label %invoke.cont97 unwind label %lpad73, !dbg !6708

invoke.cont97:                                    ; preds = %invoke.cont96
  %call100 = invoke zeroext i1 @_ZSteqIcSt11char_traitsIcESaIcEEbRKNSt7__cxx1112basic_stringIT_T0_T1_EEPKS5_(%"class.std::__cxx11::basic_string"* dereferenceable(32) %line, i8* getelementptr inbounds ([6 x i8], [6 x i8]* @.str.24, i64 0, i64 0))
          to label %invoke.cont99 unwind label %lpad73, !dbg !6709

invoke.cont99:                                    ; preds = %invoke.cont97
  br i1 %call100, label %if.end111, label %if.then101, !dbg !6712

if.then101:                                       ; preds = %invoke.cont99
  invoke void @_ZNSt7__cxx1112basic_stringIcSt11char_traitsIcESaIcEEC1ERKS4_(%"class.std::__cxx11::basic_string"* %agg.tmp103, %"class.std::__cxx11::basic_string"* dereferenceable(32) %line)
          to label %invoke.cont104 unwind label %lpad73, !dbg !6709

invoke.cont104:                                   ; preds = %if.then101
  invoke void @_ZN6dealii6GridInILi3ELi3EE21ExcInvalidDBMESHInputC1ENSt7__cxx1112basic_stringIcSt11char_traitsIcESaIcEEE(%"class.dealii::GridIn<3, 3>::ExcInvalidDBMESHInput"* %agg.tmp102, %"class.std::__cxx11::basic_string"* %agg.tmp103)
          to label %invoke.cont106 unwind label %lpad105, !dbg !6709

invoke.cont106:                                   ; preds = %invoke.cont104
  invoke void @_ZN6dealii18deal_II_exceptions9internals17issue_error_throwINS_6GridInILi3ELi3EE21ExcInvalidDBMESHInputEEEvPKciS7_S7_S7_T_(i8* getelementptr inbounds ([23 x i8], [23 x i8]* @.str.2, i64 0, i64 0), i32 285, i8* getelementptr inbounds ([1 x i8], [1 x i8]* @.str.3, i64 0, i64 0), i8* getelementptr inbounds ([14 x i8], [14 x i8]* @.str.25, i64 0, i64 0), i8* getelementptr inbounds ([28 x i8], [28 x i8]* @.str.15, i64 0, i64 0), %"class.dealii::GridIn<3, 3>::ExcInvalidDBMESHInput"* %agg.tmp102)
          to label %invoke.cont108 unwind label %lpad107, !dbg !6709

invoke.cont108:                                   ; preds = %invoke.cont106
  call void @_ZN6dealii6GridInILi3ELi3EE21ExcInvalidDBMESHInputD1Ev(%"class.dealii::GridIn<3, 3>::ExcInvalidDBMESHInput"* %agg.tmp102) #3, !dbg !6709
  call void @_ZNSt7__cxx1112basic_stringIcSt11char_traitsIcESaIcEED1Ev(%"class.std::__cxx11::basic_string"* %agg.tmp103) #3, !dbg !6709
  br label %if.end111, !dbg !6709

lpad105:                                          ; preds = %invoke.cont104
  %73 = landingpad { i8*, i32 }
          cleanup, !dbg !6713
  %74 = extractvalue { i8*, i32 } %73, 0, !dbg !6713
  store i8* %74, i8** %exn.slot, align 8, !dbg !6713
  %75 = extractvalue { i8*, i32 } %73, 1, !dbg !6713
  store i32 %75, i32* %ehselector.slot, align 4, !dbg !6713
  br label %ehcleanup110, !dbg !6713

lpad107:                                          ; preds = %invoke.cont106
  %76 = landingpad { i8*, i32 }
          cleanup, !dbg !6713
  %77 = extractvalue { i8*, i32 } %76, 0, !dbg !6713
  store i8* %77, i8** %exn.slot, align 8, !dbg !6713
  %78 = extractvalue { i8*, i32 } %76, 1, !dbg !6713
  store i32 %78, i32* %ehselector.slot, align 4, !dbg !6713
  call void @_ZN6dealii6GridInILi3ELi3EE21ExcInvalidDBMESHInputD1Ev(%"class.dealii::GridIn<3, 3>::ExcInvalidDBMESHInput"* %agg.tmp102) #3, !dbg !6709
  br label %ehcleanup110, !dbg !6709

ehcleanup110:                                     ; preds = %lpad107, %lpad105
  call void @_ZNSt7__cxx1112basic_stringIcSt11char_traitsIcESaIcEED1Ev(%"class.std::__cxx11::basic_string"* %agg.tmp103) #3, !dbg !6709
  br label %ehcleanup298, !dbg !6709

if.end111:                                        ; preds = %invoke.cont108, %invoke.cont99
  call void @llvm.dbg.declare(metadata i32* %n_edges, metadata !6714, metadata !DIExpression()), !dbg !6715
  %79 = load %"class.std::basic_istream"*, %"class.std::basic_istream"** %in.addr, align 8, !dbg !6716
  %call113 = invoke dereferenceable(280) %"class.std::basic_istream"* @_ZNSirsERj(%"class.std::basic_istream"* %79, i32* dereferenceable(4) %n_edges)
          to label %invoke.cont112 unwind label %lpad73, !dbg !6717

invoke.cont112:                                   ; preds = %if.end111
  call void @llvm.dbg.declare(metadata i32* %edge, metadata !6718, metadata !DIExpression()), !dbg !6720
  store i32 0, i32* %edge, align 4, !dbg !6720
  br label %for.cond114, !dbg !6721

for.cond114:                                      ; preds = %for.inc123, %invoke.cont112
  %80 = load i32, i32* %edge, align 4, !dbg !6722
  %81 = load i32, i32* %n_edges, align 4, !dbg !6724
  %cmp115 = icmp ult i32 %80, %81, !dbg !6725
  br i1 %cmp115, label %for.body116, label %for.end125, !dbg !6726

for.body116:                                      ; preds = %for.cond114
  %82 = load %"class.std::basic_istream"*, %"class.std::basic_istream"** %in.addr, align 8, !dbg !6727
  %call118 = invoke dereferenceable(280) %"class.std::basic_istream"* @_ZNSirsERd(%"class.std::basic_istream"* %82, double* dereferenceable(8) %dummy)
          to label %invoke.cont117 unwind label %lpad73, !dbg !6729

invoke.cont117:                                   ; preds = %for.body116
  %call120 = invoke dereferenceable(280) %"class.std::basic_istream"* @_ZNSirsERd(%"class.std::basic_istream"* %call118, double* dereferenceable(8) %dummy)
          to label %invoke.cont119 unwind label %lpad73, !dbg !6730

invoke.cont119:                                   ; preds = %invoke.cont117
  %83 = load %"class.std::basic_istream"*, %"class.std::basic_istream"** %in.addr, align 8, !dbg !6731
  %call122 = invoke dereferenceable(280) %"class.std::basic_istream"* @_ZNSirsERd(%"class.std::basic_istream"* %83, double* dereferenceable(8) %dummy)
          to label %invoke.cont121 unwind label %lpad73, !dbg !6732

invoke.cont121:                                   ; preds = %invoke.cont119
  br label %for.inc123, !dbg !6733

for.inc123:                                       ; preds = %invoke.cont121
  %84 = load i32, i32* %edge, align 4, !dbg !6734
  %inc124 = add i32 %84, 1, !dbg !6734
  store i32 %inc124, i32* %edge, align 4, !dbg !6734
  br label %for.cond114, !dbg !6735, !llvm.loop !6736

for.end125:                                       ; preds = %for.cond114
  %85 = load %"class.std::basic_istream"*, %"class.std::basic_istream"** %in.addr, align 8, !dbg !6738
  %86 = bitcast %"class.std::basic_istream"* %85 to i8**, !dbg !6738
  %vtable126 = load i8*, i8** %86, align 8, !dbg !6738
  %vbase.offset.ptr127 = getelementptr i8, i8* %vtable126, i64 -24, !dbg !6738
  %87 = bitcast i8* %vbase.offset.ptr127 to i64*, !dbg !6738
  %vbase.offset128 = load i64, i64* %87, align 8, !dbg !6738
  %88 = bitcast %"class.std::basic_istream"* %85 to i8*, !dbg !6738
  %add.ptr129 = getelementptr inbounds i8, i8* %88, i64 %vbase.offset128, !dbg !6738
  %89 = bitcast i8* %add.ptr129 to %"class.std::basic_ios"*, !dbg !6738
  %call131 = invoke zeroext i1 @_ZNKSt9basic_iosIcSt11char_traitsIcEEntEv(%"class.std::basic_ios"* %89)
          to label %invoke.cont130 unwind label %lpad73, !dbg !6738

invoke.cont130:                                   ; preds = %for.end125
  br i1 %call131, label %if.then132, label %if.end138, !dbg !6741

if.then132:                                       ; preds = %invoke.cont130
  %90 = bitcast %"class.dealii::GridIn<3, 3>::ExcInvalidDBMeshFormat"* %agg.tmp133 to i8*, !dbg !6738
  call void @llvm.memset.p0i8.i64(i8* align 8 %90, i8 0, i64 64, i1 false), !dbg !6738
  invoke void @_ZN6dealii6GridInILi3ELi3EE22ExcInvalidDBMeshFormatC2Ev(%"class.dealii::GridIn<3, 3>::ExcInvalidDBMeshFormat"* %agg.tmp133)
          to label %invoke.cont134 unwind label %lpad73, !dbg !6738

invoke.cont134:                                   ; preds = %if.then132
  invoke void @_ZN6dealii18deal_II_exceptions9internals17issue_error_throwINS_6GridInILi3ELi3EE22ExcInvalidDBMeshFormatEEEvPKciS7_S7_S7_T_(i8* getelementptr inbounds ([23 x i8], [23 x i8]* @.str.2, i64 0, i64 0), i32 296, i8* getelementptr inbounds ([1 x i8], [1 x i8]* @.str.3, i64 0, i64 0), i8* getelementptr inbounds ([3 x i8], [3 x i8]* @.str.4, i64 0, i64 0), i8* getelementptr inbounds ([25 x i8], [25 x i8]* @.str.23, i64 0, i64 0), %"class.dealii::GridIn<3, 3>::ExcInvalidDBMeshFormat"* %agg.tmp133)
          to label %invoke.cont136 unwind label %lpad135, !dbg !6738

invoke.cont136:                                   ; preds = %invoke.cont134
  call void @_ZN6dealii6GridInILi3ELi3EE22ExcInvalidDBMeshFormatD2Ev(%"class.dealii::GridIn<3, 3>::ExcInvalidDBMeshFormat"* %agg.tmp133) #3, !dbg !6738
  br label %if.end138, !dbg !6738

lpad135:                                          ; preds = %invoke.cont134
  %91 = landingpad { i8*, i32 }
          cleanup, !dbg !6742
  %92 = extractvalue { i8*, i32 } %91, 0, !dbg !6742
  store i8* %92, i8** %exn.slot, align 8, !dbg !6742
  %93 = extractvalue { i8*, i32 } %91, 1, !dbg !6742
  store i32 %93, i32* %ehselector.slot, align 4, !dbg !6742
  call void @_ZN6dealii6GridInILi3ELi3EE22ExcInvalidDBMeshFormatD2Ev(%"class.dealii::GridIn<3, 3>::ExcInvalidDBMeshFormat"* %agg.tmp133) #3, !dbg !6738
  br label %ehcleanup298, !dbg !6738

if.end138:                                        ; preds = %invoke.cont136, %invoke.cont130
  %94 = load %"class.std::basic_istream"*, %"class.std::basic_istream"** %in.addr, align 8, !dbg !6743
  invoke void @_ZN6dealii6GridInILi3ELi3EE16skip_empty_linesERSi(%"class.std::basic_istream"* dereferenceable(280) %94)
          to label %invoke.cont139 unwind label %lpad73, !dbg !6744

invoke.cont139:                                   ; preds = %if.end138
  %95 = load %"class.std::basic_istream"*, %"class.std::basic_istream"** %in.addr, align 8, !dbg !6745
  %call141 = invoke dereferenceable(280) %"class.std::basic_istream"* @_ZSt7getlineIcSt11char_traitsIcESaIcEERSt13basic_istreamIT_T0_ES7_RNSt7__cxx1112basic_stringIS4_S5_T1_EE(%"class.std::basic_istream"* dereferenceable(280) %95, %"class.std::__cxx11::basic_string"* dereferenceable(32) %line)
          to label %invoke.cont140 unwind label %lpad73, !dbg !6746

invoke.cont140:                                   ; preds = %invoke.cont139
  %call143 = invoke zeroext i1 @_ZSteqIcSt11char_traitsIcESaIcEEbRKNSt7__cxx1112basic_stringIT_T0_T1_EEPKS5_(%"class.std::__cxx11::basic_string"* dereferenceable(32) %line, i8* getelementptr inbounds ([13 x i8], [13 x i8]* @.str.26, i64 0, i64 0))
          to label %invoke.cont142 unwind label %lpad73, !dbg !6747

invoke.cont142:                                   ; preds = %invoke.cont140
  br i1 %call143, label %if.end154, label %if.then144, !dbg !6750

if.then144:                                       ; preds = %invoke.cont142
  invoke void @_ZNSt7__cxx1112basic_stringIcSt11char_traitsIcESaIcEEC1ERKS4_(%"class.std::__cxx11::basic_string"* %agg.tmp146, %"class.std::__cxx11::basic_string"* dereferenceable(32) %line)
          to label %invoke.cont147 unwind label %lpad73, !dbg !6747

invoke.cont147:                                   ; preds = %if.then144
  invoke void @_ZN6dealii6GridInILi3ELi3EE21ExcInvalidDBMESHInputC1ENSt7__cxx1112basic_stringIcSt11char_traitsIcESaIcEEE(%"class.dealii::GridIn<3, 3>::ExcInvalidDBMESHInput"* %agg.tmp145, %"class.std::__cxx11::basic_string"* %agg.tmp146)
          to label %invoke.cont149 unwind label %lpad148, !dbg !6747

invoke.cont149:                                   ; preds = %invoke.cont147
  invoke void @_ZN6dealii18deal_II_exceptions9internals17issue_error_throwINS_6GridInILi3ELi3EE21ExcInvalidDBMESHInputEEEvPKciS7_S7_S7_T_(i8* getelementptr inbounds ([23 x i8], [23 x i8]* @.str.2, i64 0, i64 0), i32 307, i8* getelementptr inbounds ([1 x i8], [1 x i8]* @.str.3, i64 0, i64 0), i8* getelementptr inbounds ([21 x i8], [21 x i8]* @.str.27, i64 0, i64 0), i8* getelementptr inbounds ([28 x i8], [28 x i8]* @.str.15, i64 0, i64 0), %"class.dealii::GridIn<3, 3>::ExcInvalidDBMESHInput"* %agg.tmp145)
          to label %invoke.cont151 unwind label %lpad150, !dbg !6747

invoke.cont151:                                   ; preds = %invoke.cont149
  call void @_ZN6dealii6GridInILi3ELi3EE21ExcInvalidDBMESHInputD1Ev(%"class.dealii::GridIn<3, 3>::ExcInvalidDBMESHInput"* %agg.tmp145) #3, !dbg !6747
  call void @_ZNSt7__cxx1112basic_stringIcSt11char_traitsIcESaIcEED1Ev(%"class.std::__cxx11::basic_string"* %agg.tmp146) #3, !dbg !6747
  br label %if.end154, !dbg !6747

lpad148:                                          ; preds = %invoke.cont147
  %96 = landingpad { i8*, i32 }
          cleanup, !dbg !6751
  %97 = extractvalue { i8*, i32 } %96, 0, !dbg !6751
  store i8* %97, i8** %exn.slot, align 8, !dbg !6751
  %98 = extractvalue { i8*, i32 } %96, 1, !dbg !6751
  store i32 %98, i32* %ehselector.slot, align 4, !dbg !6751
  br label %ehcleanup153, !dbg !6751

lpad150:                                          ; preds = %invoke.cont149
  %99 = landingpad { i8*, i32 }
          cleanup, !dbg !6751
  %100 = extractvalue { i8*, i32 } %99, 0, !dbg !6751
  store i8* %100, i8** %exn.slot, align 8, !dbg !6751
  %101 = extractvalue { i8*, i32 } %99, 1, !dbg !6751
  store i32 %101, i32* %ehselector.slot, align 4, !dbg !6751
  call void @_ZN6dealii6GridInILi3ELi3EE21ExcInvalidDBMESHInputD1Ev(%"class.dealii::GridIn<3, 3>::ExcInvalidDBMESHInput"* %agg.tmp145) #3, !dbg !6747
  br label %ehcleanup153, !dbg !6747

ehcleanup153:                                     ; preds = %lpad150, %lpad148
  call void @_ZNSt7__cxx1112basic_stringIcSt11char_traitsIcESaIcEED1Ev(%"class.std::__cxx11::basic_string"* %agg.tmp146) #3, !dbg !6747
  br label %ehcleanup298, !dbg !6747

if.end154:                                        ; preds = %invoke.cont151, %invoke.cont142
  %102 = load %"class.std::basic_istream"*, %"class.std::basic_istream"** %in.addr, align 8, !dbg !6752
  %call156 = invoke dereferenceable(280) %"class.std::basic_istream"* @_ZNSirsERj(%"class.std::basic_istream"* %102, i32* dereferenceable(4) %n_edges)
          to label %invoke.cont155 unwind label %lpad73, !dbg !6753

invoke.cont155:                                   ; preds = %if.end154
  call void @llvm.dbg.declare(metadata i32* %edge157, metadata !6754, metadata !DIExpression()), !dbg !6756
  store i32 0, i32* %edge157, align 4, !dbg !6756
  br label %for.cond158, !dbg !6757

for.cond158:                                      ; preds = %for.inc167, %invoke.cont155
  %103 = load i32, i32* %edge157, align 4, !dbg !6758
  %104 = load i32, i32* %n_edges, align 4, !dbg !6760
  %cmp159 = icmp ult i32 %103, %104, !dbg !6761
  br i1 %cmp159, label %for.body160, label %for.end169, !dbg !6762

for.body160:                                      ; preds = %for.cond158
  %105 = load %"class.std::basic_istream"*, %"class.std::basic_istream"** %in.addr, align 8, !dbg !6763
  %call162 = invoke dereferenceable(280) %"class.std::basic_istream"* @_ZNSirsERd(%"class.std::basic_istream"* %105, double* dereferenceable(8) %dummy)
          to label %invoke.cont161 unwind label %lpad73, !dbg !6765

invoke.cont161:                                   ; preds = %for.body160
  %call164 = invoke dereferenceable(280) %"class.std::basic_istream"* @_ZNSirsERd(%"class.std::basic_istream"* %call162, double* dereferenceable(8) %dummy)
          to label %invoke.cont163 unwind label %lpad73, !dbg !6766

invoke.cont163:                                   ; preds = %invoke.cont161
  %106 = load %"class.std::basic_istream"*, %"class.std::basic_istream"** %in.addr, align 8, !dbg !6767
  %call166 = invoke dereferenceable(280) %"class.std::basic_istream"* @_ZNSirsERd(%"class.std::basic_istream"* %106, double* dereferenceable(8) %dummy)
          to label %invoke.cont165 unwind label %lpad73, !dbg !6768

invoke.cont165:                                   ; preds = %invoke.cont163
  br label %for.inc167, !dbg !6769

for.inc167:                                       ; preds = %invoke.cont165
  %107 = load i32, i32* %edge157, align 4, !dbg !6770
  %inc168 = add i32 %107, 1, !dbg !6770
  store i32 %inc168, i32* %edge157, align 4, !dbg !6770
  br label %for.cond158, !dbg !6771, !llvm.loop !6772

for.end169:                                       ; preds = %for.cond158
  %108 = load %"class.std::basic_istream"*, %"class.std::basic_istream"** %in.addr, align 8, !dbg !6774
  %109 = bitcast %"class.std::basic_istream"* %108 to i8**, !dbg !6774
  %vtable170 = load i8*, i8** %109, align 8, !dbg !6774
  %vbase.offset.ptr171 = getelementptr i8, i8* %vtable170, i64 -24, !dbg !6774
  %110 = bitcast i8* %vbase.offset.ptr171 to i64*, !dbg !6774
  %vbase.offset172 = load i64, i64* %110, align 8, !dbg !6774
  %111 = bitcast %"class.std::basic_istream"* %108 to i8*, !dbg !6774
  %add.ptr173 = getelementptr inbounds i8, i8* %111, i64 %vbase.offset172, !dbg !6774
  %112 = bitcast i8* %add.ptr173 to %"class.std::basic_ios"*, !dbg !6774
  %call175 = invoke zeroext i1 @_ZNKSt9basic_iosIcSt11char_traitsIcEEntEv(%"class.std::basic_ios"* %112)
          to label %invoke.cont174 unwind label %lpad73, !dbg !6774

invoke.cont174:                                   ; preds = %for.end169
  br i1 %call175, label %if.then176, label %if.end182, !dbg !6777

if.then176:                                       ; preds = %invoke.cont174
  %113 = bitcast %"class.dealii::GridIn<3, 3>::ExcInvalidDBMeshFormat"* %agg.tmp177 to i8*, !dbg !6774
  call void @llvm.memset.p0i8.i64(i8* align 8 %113, i8 0, i64 64, i1 false), !dbg !6774
  invoke void @_ZN6dealii6GridInILi3ELi3EE22ExcInvalidDBMeshFormatC2Ev(%"class.dealii::GridIn<3, 3>::ExcInvalidDBMeshFormat"* %agg.tmp177)
          to label %invoke.cont178 unwind label %lpad73, !dbg !6774

invoke.cont178:                                   ; preds = %if.then176
  invoke void @_ZN6dealii18deal_II_exceptions9internals17issue_error_throwINS_6GridInILi3ELi3EE22ExcInvalidDBMeshFormatEEEvPKciS7_S7_S7_T_(i8* getelementptr inbounds ([23 x i8], [23 x i8]* @.str.2, i64 0, i64 0), i32 317, i8* getelementptr inbounds ([1 x i8], [1 x i8]* @.str.3, i64 0, i64 0), i8* getelementptr inbounds ([3 x i8], [3 x i8]* @.str.4, i64 0, i64 0), i8* getelementptr inbounds ([25 x i8], [25 x i8]* @.str.23, i64 0, i64 0), %"class.dealii::GridIn<3, 3>::ExcInvalidDBMeshFormat"* %agg.tmp177)
          to label %invoke.cont180 unwind label %lpad179, !dbg !6774

invoke.cont180:                                   ; preds = %invoke.cont178
  call void @_ZN6dealii6GridInILi3ELi3EE22ExcInvalidDBMeshFormatD2Ev(%"class.dealii::GridIn<3, 3>::ExcInvalidDBMeshFormat"* %agg.tmp177) #3, !dbg !6774
  br label %if.end182, !dbg !6774

lpad179:                                          ; preds = %invoke.cont178
  %114 = landingpad { i8*, i32 }
          cleanup, !dbg !6778
  %115 = extractvalue { i8*, i32 } %114, 0, !dbg !6778
  store i8* %115, i8** %exn.slot, align 8, !dbg !6778
  %116 = extractvalue { i8*, i32 } %114, 1, !dbg !6778
  store i32 %116, i32* %ehselector.slot, align 4, !dbg !6778
  call void @_ZN6dealii6GridInILi3ELi3EE22ExcInvalidDBMeshFormatD2Ev(%"class.dealii::GridIn<3, 3>::ExcInvalidDBMeshFormat"* %agg.tmp177) #3, !dbg !6774
  br label %ehcleanup298, !dbg !6774

if.end182:                                        ; preds = %invoke.cont180, %invoke.cont174
  %117 = load %"class.std::basic_istream"*, %"class.std::basic_istream"** %in.addr, align 8, !dbg !6779
  invoke void @_ZN6dealii6GridInILi3ELi3EE16skip_empty_linesERSi(%"class.std::basic_istream"* dereferenceable(280) %117)
          to label %invoke.cont183 unwind label %lpad73, !dbg !6780

invoke.cont183:                                   ; preds = %if.end182
  %118 = load %"class.std::basic_istream"*, %"class.std::basic_istream"** %in.addr, align 8, !dbg !6781
  %call185 = invoke dereferenceable(280) %"class.std::basic_istream"* @_ZSt7getlineIcSt11char_traitsIcESaIcEERSt13basic_istreamIT_T0_ES7_RNSt7__cxx1112basic_stringIS4_S5_T1_EE(%"class.std::basic_istream"* dereferenceable(280) %118, %"class.std::__cxx11::basic_string"* dereferenceable(32) %line)
          to label %invoke.cont184 unwind label %lpad73, !dbg !6782

invoke.cont184:                                   ; preds = %invoke.cont183
  %call187 = invoke zeroext i1 @_ZSteqIcSt11char_traitsIcESaIcEEbRKNSt7__cxx1112basic_stringIT_T0_T1_EEPKS5_(%"class.std::__cxx11::basic_string"* dereferenceable(32) %line, i8* getelementptr inbounds ([15 x i8], [15 x i8]* @.str.28, i64 0, i64 0))
          to label %invoke.cont186 unwind label %lpad73, !dbg !6783

invoke.cont186:                                   ; preds = %invoke.cont184
  br i1 %call187, label %if.end198, label %if.then188, !dbg !6786

if.then188:                                       ; preds = %invoke.cont186
  invoke void @_ZNSt7__cxx1112basic_stringIcSt11char_traitsIcESaIcEEC1ERKS4_(%"class.std::__cxx11::basic_string"* %agg.tmp190, %"class.std::__cxx11::basic_string"* dereferenceable(32) %line)
          to label %invoke.cont191 unwind label %lpad73, !dbg !6783

invoke.cont191:                                   ; preds = %if.then188
  invoke void @_ZN6dealii6GridInILi3ELi3EE21ExcInvalidDBMESHInputC1ENSt7__cxx1112basic_stringIcSt11char_traitsIcESaIcEEE(%"class.dealii::GridIn<3, 3>::ExcInvalidDBMESHInput"* %agg.tmp189, %"class.std::__cxx11::basic_string"* %agg.tmp190)
          to label %invoke.cont193 unwind label %lpad192, !dbg !6783

invoke.cont193:                                   ; preds = %invoke.cont191
  invoke void @_ZN6dealii18deal_II_exceptions9internals17issue_error_throwINS_6GridInILi3ELi3EE21ExcInvalidDBMESHInputEEEvPKciS7_S7_S7_T_(i8* getelementptr inbounds ([23 x i8], [23 x i8]* @.str.2, i64 0, i64 0), i32 325, i8* getelementptr inbounds ([1 x i8], [1 x i8]* @.str.3, i64 0, i64 0), i8* getelementptr inbounds ([23 x i8], [23 x i8]* @.str.29, i64 0, i64 0), i8* getelementptr inbounds ([28 x i8], [28 x i8]* @.str.15, i64 0, i64 0), %"class.dealii::GridIn<3, 3>::ExcInvalidDBMESHInput"* %agg.tmp189)
          to label %invoke.cont195 unwind label %lpad194, !dbg !6783

invoke.cont195:                                   ; preds = %invoke.cont193
  call void @_ZN6dealii6GridInILi3ELi3EE21ExcInvalidDBMESHInputD1Ev(%"class.dealii::GridIn<3, 3>::ExcInvalidDBMESHInput"* %agg.tmp189) #3, !dbg !6783
  call void @_ZNSt7__cxx1112basic_stringIcSt11char_traitsIcESaIcEED1Ev(%"class.std::__cxx11::basic_string"* %agg.tmp190) #3, !dbg !6783
  br label %if.end198, !dbg !6783

lpad192:                                          ; preds = %invoke.cont191
  %119 = landingpad { i8*, i32 }
          cleanup, !dbg !6787
  %120 = extractvalue { i8*, i32 } %119, 0, !dbg !6787
  store i8* %120, i8** %exn.slot, align 8, !dbg !6787
  %121 = extractvalue { i8*, i32 } %119, 1, !dbg !6787
  store i32 %121, i32* %ehselector.slot, align 4, !dbg !6787
  br label %ehcleanup197, !dbg !6787

lpad194:                                          ; preds = %invoke.cont193
  %122 = landingpad { i8*, i32 }
          cleanup, !dbg !6787
  %123 = extractvalue { i8*, i32 } %122, 0, !dbg !6787
  store i8* %123, i8** %exn.slot, align 8, !dbg !6787
  %124 = extractvalue { i8*, i32 } %122, 1, !dbg !6787
  store i32 %124, i32* %ehselector.slot, align 4, !dbg !6787
  call void @_ZN6dealii6GridInILi3ELi3EE21ExcInvalidDBMESHInputD1Ev(%"class.dealii::GridIn<3, 3>::ExcInvalidDBMESHInput"* %agg.tmp189) #3, !dbg !6783
  br label %ehcleanup197, !dbg !6783

ehcleanup197:                                     ; preds = %lpad194, %lpad192
  call void @_ZNSt7__cxx1112basic_stringIcSt11char_traitsIcESaIcEED1Ev(%"class.std::__cxx11::basic_string"* %agg.tmp190) #3, !dbg !6783
  br label %ehcleanup298, !dbg !6783

if.end198:                                        ; preds = %invoke.cont195, %invoke.cont186
  call void @llvm.dbg.declare(metadata %"class.std::vector.110"* %cells, metadata !6788, metadata !DIExpression()), !dbg !6789
  call void @_ZNSt6vectorIN6dealii8CellDataILi3EEESaIS2_EEC2Ev(%"class.std::vector.110"* %cells) #3, !dbg !6789
  call void @llvm.dbg.declare(metadata %"struct.dealii::SubCellData"* %subcelldata, metadata !6790, metadata !DIExpression()), !dbg !6800
  call void @_ZN6dealii11SubCellDataC2Ev(%"struct.dealii::SubCellData"* %subcelldata) #3, !dbg !6800
  call void @llvm.dbg.declare(metadata i32* %n_cells, metadata !6801, metadata !DIExpression()), !dbg !6802
  %125 = load %"class.std::basic_istream"*, %"class.std::basic_istream"** %in.addr, align 8, !dbg !6803
  %call201 = invoke dereferenceable(280) %"class.std::basic_istream"* @_ZNSirsERj(%"class.std::basic_istream"* %125, i32* dereferenceable(4) %n_cells)
          to label %invoke.cont200 unwind label %lpad199, !dbg !6804

invoke.cont200:                                   ; preds = %if.end198
  call void @llvm.dbg.declare(metadata i32* %cell, metadata !6805, metadata !DIExpression()), !dbg !6807
  store i32 0, i32* %cell, align 4, !dbg !6807
  br label %for.cond202, !dbg !6808

for.cond202:                                      ; preds = %for.inc246, %invoke.cont200
  %126 = load i32, i32* %cell, align 4, !dbg !6809
  %127 = load i32, i32* %n_cells, align 4, !dbg !6811
  %cmp203 = icmp ult i32 %126, %127, !dbg !6812
  br i1 %cmp203, label %for.body204, label %for.end248, !dbg !6813

for.body204:                                      ; preds = %for.cond202
  %128 = bitcast %"struct.dealii::CellData"* %ref.tmp205 to i8*, !dbg !6814
  call void @llvm.memset.p0i8.i64(i8* align 4 %128, i8 0, i64 36, i1 false), !dbg !6814
  invoke void @_ZNSt6vectorIN6dealii8CellDataILi3EEESaIS2_EE9push_backEOS2_(%"class.std::vector.110"* %cells, %"struct.dealii::CellData"* dereferenceable(36) %ref.tmp205)
          to label %invoke.cont206 unwind label %lpad199, !dbg !6816

invoke.cont206:                                   ; preds = %for.body204
  call void @llvm.dbg.declare(metadata i32* %i, metadata !6817, metadata !DIExpression()), !dbg !6819
  store i32 0, i32* %i, align 4, !dbg !6819
  br label %for.cond207, !dbg !6820

for.cond207:                                      ; preds = %for.inc241, %invoke.cont206
  %129 = load i32, i32* %i, align 4, !dbg !6821
  %cmp208 = icmp ult i32 %129, 8, !dbg !6823
  br i1 %cmp208, label %for.body209, label %for.end243, !dbg !6824

for.body209:                                      ; preds = %for.cond207
  %130 = load %"class.std::basic_istream"*, %"class.std::basic_istream"** %in.addr, align 8, !dbg !6825
  %call210 = call dereferenceable(36) %"struct.dealii::CellData"* @_ZNSt6vectorIN6dealii8CellDataILi3EEESaIS2_EE4backEv(%"class.std::vector.110"* %cells) #3, !dbg !6827
  %vertices211 = getelementptr inbounds %"struct.dealii::CellData", %"struct.dealii::CellData"* %call210, i32 0, i32 0, !dbg !6828
  %131 = load i32, i32* %i, align 4, !dbg !6829
  %idxprom = zext i32 %131 to i64, !dbg !6830
  %arrayidx = getelementptr inbounds [8 x i32], [8 x i32]* %vertices211, i64 0, i64 %idxprom, !dbg !6830
  %call213 = invoke dereferenceable(280) %"class.std::basic_istream"* @_ZNSirsERj(%"class.std::basic_istream"* %130, i32* dereferenceable(4) %arrayidx)
          to label %invoke.cont212 unwind label %lpad199, !dbg !6831

invoke.cont212:                                   ; preds = %for.body209
  %call214 = call dereferenceable(36) %"struct.dealii::CellData"* @_ZNSt6vectorIN6dealii8CellDataILi3EEESaIS2_EE4backEv(%"class.std::vector.110"* %cells) #3, !dbg !6832
  %vertices215 = getelementptr inbounds %"struct.dealii::CellData", %"struct.dealii::CellData"* %call214, i32 0, i32 0, !dbg !6832
  %132 = load i32, i32* %i, align 4, !dbg !6832
  %idxprom216 = zext i32 %132 to i64, !dbg !6832
  %arrayidx217 = getelementptr inbounds [8 x i32], [8 x i32]* %vertices215, i64 0, i64 %idxprom216, !dbg !6832
  %133 = load i32, i32* %arrayidx217, align 4, !dbg !6832
  %cmp218 = icmp uge i32 %133, 1, !dbg !6832
  br i1 %cmp218, label %land.lhs.true, label %if.then226, !dbg !6832

land.lhs.true:                                    ; preds = %invoke.cont212
  %call219 = call dereferenceable(36) %"struct.dealii::CellData"* @_ZNSt6vectorIN6dealii8CellDataILi3EEESaIS2_EE4backEv(%"class.std::vector.110"* %cells) #3, !dbg !6832
  %vertices220 = getelementptr inbounds %"struct.dealii::CellData", %"struct.dealii::CellData"* %call219, i32 0, i32 0, !dbg !6832
  %134 = load i32, i32* %i, align 4, !dbg !6832
  %idxprom221 = zext i32 %134 to i64, !dbg !6832
  %arrayidx222 = getelementptr inbounds [8 x i32], [8 x i32]* %vertices220, i64 0, i64 %idxprom221, !dbg !6832
  %135 = load i32, i32* %arrayidx222, align 4, !dbg !6832
  %conv223 = zext i32 %135 to i64, !dbg !6832
  %call224 = call i64 @_ZNKSt6vectorIN6dealii5PointILi3EEESaIS2_EE4sizeEv(%"class.std::vector.82"* %vertices) #3, !dbg !6832
  %cmp225 = icmp ule i64 %conv223, %call224, !dbg !6832
  br i1 %cmp225, label %if.end236, label %if.then226, !dbg !6835

if.then226:                                       ; preds = %land.lhs.true, %invoke.cont212
  %136 = load i32, i32* %cell, align 4, !dbg !6832
  %call228 = call dereferenceable(36) %"struct.dealii::CellData"* @_ZNSt6vectorIN6dealii8CellDataILi3EEESaIS2_EE4backEv(%"class.std::vector.110"* %cells) #3, !dbg !6832
  %vertices229 = getelementptr inbounds %"struct.dealii::CellData", %"struct.dealii::CellData"* %call228, i32 0, i32 0, !dbg !6832
  %137 = load i32, i32* %i, align 4, !dbg !6832
  %idxprom230 = zext i32 %137 to i64, !dbg !6832
  %arrayidx231 = getelementptr inbounds [8 x i32], [8 x i32]* %vertices229, i64 0, i64 %idxprom230, !dbg !6832
  %138 = load i32, i32* %arrayidx231, align 4, !dbg !6832
  invoke void @_ZN6dealii6GridInILi3ELi3EE21ExcInvalidVertexIndexC1Eii(%"class.dealii::GridIn<3, 3>::ExcInvalidVertexIndex"* %agg.tmp227, i32 %136, i32 %138)
          to label %invoke.cont232 unwind label %lpad199, !dbg !6832

invoke.cont232:                                   ; preds = %if.then226
  invoke void @_ZN6dealii18deal_II_exceptions9internals17issue_error_throwINS_6GridInILi3ELi3EE21ExcInvalidVertexIndexEEEvPKciS7_S7_S7_T_(i8* getelementptr inbounds ([23 x i8], [23 x i8]* @.str.2, i64 0, i64 0), i32 343, i8* getelementptr inbounds ([1 x i8], [1 x i8]* @.str.3, i64 0, i64 0), i8* getelementptr inbounds ([108 x i8], [108 x i8]* @.str.30, i64 0, i64 0), i8* getelementptr inbounds ([54 x i8], [54 x i8]* @.str.10, i64 0, i64 0), %"class.dealii::GridIn<3, 3>::ExcInvalidVertexIndex"* %agg.tmp227)
          to label %invoke.cont234 unwind label %lpad233, !dbg !6832

invoke.cont234:                                   ; preds = %invoke.cont232
  call void @_ZN6dealii6GridInILi3ELi3EE21ExcInvalidVertexIndexD1Ev(%"class.dealii::GridIn<3, 3>::ExcInvalidVertexIndex"* %agg.tmp227) #3, !dbg !6832
  br label %if.end236, !dbg !6832

lpad199:                                          ; preds = %invoke.cont292, %invoke.cont291, %invoke.cont290, %invoke.cont289, %if.end288, %if.then282, %while.end275, %land.rhs, %while.cond263, %if.end261, %if.then255, %for.end248, %for.end243, %if.then226, %for.body209, %for.body204, %if.end198
  %139 = landingpad { i8*, i32 }
          cleanup, !dbg !6618
  %140 = extractvalue { i8*, i32 } %139, 0, !dbg !6618
  store i8* %140, i8** %exn.slot, align 8, !dbg !6618
  %141 = extractvalue { i8*, i32 } %139, 1, !dbg !6618
  store i32 %141, i32* %ehselector.slot, align 4, !dbg !6618
  br label %ehcleanup296, !dbg !6618

lpad233:                                          ; preds = %invoke.cont232
  %142 = landingpad { i8*, i32 }
          cleanup, !dbg !6836
  %143 = extractvalue { i8*, i32 } %142, 0, !dbg !6836
  store i8* %143, i8** %exn.slot, align 8, !dbg !6836
  %144 = extractvalue { i8*, i32 } %142, 1, !dbg !6836
  store i32 %144, i32* %ehselector.slot, align 4, !dbg !6836
  call void @_ZN6dealii6GridInILi3ELi3EE21ExcInvalidVertexIndexD1Ev(%"class.dealii::GridIn<3, 3>::ExcInvalidVertexIndex"* %agg.tmp227) #3, !dbg !6832
  br label %ehcleanup296, !dbg !6832

if.end236:                                        ; preds = %invoke.cont234, %land.lhs.true
  %call237 = call dereferenceable(36) %"struct.dealii::CellData"* @_ZNSt6vectorIN6dealii8CellDataILi3EEESaIS2_EE4backEv(%"class.std::vector.110"* %cells) #3, !dbg !6837
  %vertices238 = getelementptr inbounds %"struct.dealii::CellData", %"struct.dealii::CellData"* %call237, i32 0, i32 0, !dbg !6838
  %145 = load i32, i32* %i, align 4, !dbg !6839
  %idxprom239 = zext i32 %145 to i64, !dbg !6840
  %arrayidx240 = getelementptr inbounds [8 x i32], [8 x i32]* %vertices238, i64 0, i64 %idxprom239, !dbg !6840
  %146 = load i32, i32* %arrayidx240, align 4, !dbg !6841
  %dec = add i32 %146, -1, !dbg !6841
  store i32 %dec, i32* %arrayidx240, align 4, !dbg !6841
  br label %for.inc241, !dbg !6842

for.inc241:                                       ; preds = %if.end236
  %147 = load i32, i32* %i, align 4, !dbg !6843
  %inc242 = add i32 %147, 1, !dbg !6843
  store i32 %inc242, i32* %i, align 4, !dbg !6843
  br label %for.cond207, !dbg !6844, !llvm.loop !6845

for.end243:                                       ; preds = %for.cond207
  %148 = load %"class.std::basic_istream"*, %"class.std::basic_istream"** %in.addr, align 8, !dbg !6847
  %call245 = invoke dereferenceable(280) %"class.std::basic_istream"* @_ZNSirsERd(%"class.std::basic_istream"* %148, double* dereferenceable(8) %dummy)
          to label %invoke.cont244 unwind label %lpad199, !dbg !6848

invoke.cont244:                                   ; preds = %for.end243
  br label %for.inc246, !dbg !6849

for.inc246:                                       ; preds = %invoke.cont244
  %149 = load i32, i32* %cell, align 4, !dbg !6850
  %inc247 = add i32 %149, 1, !dbg !6850
  store i32 %inc247, i32* %cell, align 4, !dbg !6850
  br label %for.cond202, !dbg !6851, !llvm.loop !6852

for.end248:                                       ; preds = %for.cond202
  %150 = load %"class.std::basic_istream"*, %"class.std::basic_istream"** %in.addr, align 8, !dbg !6854
  %151 = bitcast %"class.std::basic_istream"* %150 to i8**, !dbg !6854
  %vtable249 = load i8*, i8** %151, align 8, !dbg !6854
  %vbase.offset.ptr250 = getelementptr i8, i8* %vtable249, i64 -24, !dbg !6854
  %152 = bitcast i8* %vbase.offset.ptr250 to i64*, !dbg !6854
  %vbase.offset251 = load i64, i64* %152, align 8, !dbg !6854
  %153 = bitcast %"class.std::basic_istream"* %150 to i8*, !dbg !6854
  %add.ptr252 = getelementptr inbounds i8, i8* %153, i64 %vbase.offset251, !dbg !6854
  %154 = bitcast i8* %add.ptr252 to %"class.std::basic_ios"*, !dbg !6854
  %call254 = invoke zeroext i1 @_ZNKSt9basic_iosIcSt11char_traitsIcEEntEv(%"class.std::basic_ios"* %154)
          to label %invoke.cont253 unwind label %lpad199, !dbg !6854

invoke.cont253:                                   ; preds = %for.end248
  br i1 %call254, label %if.then255, label %if.end261, !dbg !6857

if.then255:                                       ; preds = %invoke.cont253
  %155 = bitcast %"class.dealii::GridIn<3, 3>::ExcInvalidDBMeshFormat"* %agg.tmp256 to i8*, !dbg !6854
  call void @llvm.memset.p0i8.i64(i8* align 8 %155, i8 0, i64 64, i1 false), !dbg !6854
  invoke void @_ZN6dealii6GridInILi3ELi3EE22ExcInvalidDBMeshFormatC2Ev(%"class.dealii::GridIn<3, 3>::ExcInvalidDBMeshFormat"* %agg.tmp256)
          to label %invoke.cont257 unwind label %lpad199, !dbg !6854

invoke.cont257:                                   ; preds = %if.then255
  invoke void @_ZN6dealii18deal_II_exceptions9internals17issue_error_throwINS_6GridInILi3ELi3EE22ExcInvalidDBMeshFormatEEEvPKciS7_S7_S7_T_(i8* getelementptr inbounds ([23 x i8], [23 x i8]* @.str.2, i64 0, i64 0), i32 351, i8* getelementptr inbounds ([1 x i8], [1 x i8]* @.str.3, i64 0, i64 0), i8* getelementptr inbounds ([3 x i8], [3 x i8]* @.str.4, i64 0, i64 0), i8* getelementptr inbounds ([25 x i8], [25 x i8]* @.str.23, i64 0, i64 0), %"class.dealii::GridIn<3, 3>::ExcInvalidDBMeshFormat"* %agg.tmp256)
          to label %invoke.cont259 unwind label %lpad258, !dbg !6854

invoke.cont259:                                   ; preds = %invoke.cont257
  call void @_ZN6dealii6GridInILi3ELi3EE22ExcInvalidDBMeshFormatD2Ev(%"class.dealii::GridIn<3, 3>::ExcInvalidDBMeshFormat"* %agg.tmp256) #3, !dbg !6854
  br label %if.end261, !dbg !6854

lpad258:                                          ; preds = %invoke.cont257
  %156 = landingpad { i8*, i32 }
          cleanup, !dbg !6858
  %157 = extractvalue { i8*, i32 } %156, 0, !dbg !6858
  store i8* %157, i8** %exn.slot, align 8, !dbg !6858
  %158 = extractvalue { i8*, i32 } %156, 1, !dbg !6858
  store i32 %158, i32* %ehselector.slot, align 4, !dbg !6858
  call void @_ZN6dealii6GridInILi3ELi3EE22ExcInvalidDBMeshFormatD2Ev(%"class.dealii::GridIn<3, 3>::ExcInvalidDBMeshFormat"* %agg.tmp256) #3, !dbg !6854
  br label %ehcleanup296, !dbg !6854

if.end261:                                        ; preds = %invoke.cont259, %invoke.cont253
  %159 = load %"class.std::basic_istream"*, %"class.std::basic_istream"** %in.addr, align 8, !dbg !6859
  invoke void @_ZN6dealii6GridInILi3ELi3EE16skip_empty_linesERSi(%"class.std::basic_istream"* dereferenceable(280) %159)
          to label %invoke.cont262 unwind label %lpad199, !dbg !6860

invoke.cont262:                                   ; preds = %if.end261
  br label %while.cond263, !dbg !6861

while.cond263:                                    ; preds = %while.body274, %invoke.cont262
  %160 = load %"class.std::basic_istream"*, %"class.std::basic_istream"** %in.addr, align 8, !dbg !6862
  %call265 = invoke dereferenceable(280) %"class.std::basic_istream"* @_ZSt7getlineIcSt11char_traitsIcESaIcEERSt13basic_istreamIT_T0_ES7_RNSt7__cxx1112basic_stringIS4_S5_T1_EE(%"class.std::basic_istream"* dereferenceable(280) %160, %"class.std::__cxx11::basic_string"* dereferenceable(32) %line)
          to label %invoke.cont264 unwind label %lpad199, !dbg !6863

invoke.cont264:                                   ; preds = %while.cond263
  %call266 = call i64 @_ZNKSt7__cxx1112basic_stringIcSt11char_traitsIcESaIcEE4findEPKcm(%"class.std::__cxx11::basic_string"* %line, i8* getelementptr inbounds ([4 x i8], [4 x i8]* @.str.31, i64 0, i64 0), i64 0) #3, !dbg !6864
  %cmp267 = icmp eq i64 %call266, -1, !dbg !6865
  br i1 %cmp267, label %land.rhs, label %land.end, !dbg !6866

land.rhs:                                         ; preds = %invoke.cont264
  %161 = load %"class.std::basic_istream"*, %"class.std::basic_istream"** %in.addr, align 8, !dbg !6867
  %162 = bitcast %"class.std::basic_istream"* %161 to i8**, !dbg !6868
  %vtable268 = load i8*, i8** %162, align 8, !dbg !6868
  %vbase.offset.ptr269 = getelementptr i8, i8* %vtable268, i64 -24, !dbg !6868
  %163 = bitcast i8* %vbase.offset.ptr269 to i64*, !dbg !6868
  %vbase.offset270 = load i64, i64* %163, align 8, !dbg !6868
  %164 = bitcast %"class.std::basic_istream"* %161 to i8*, !dbg !6868
  %add.ptr271 = getelementptr inbounds i8, i8* %164, i64 %vbase.offset270, !dbg !6868
  %165 = bitcast i8* %add.ptr271 to %"class.std::basic_ios"*, !dbg !6868
  %call273 = invoke zeroext i1 @_ZNKSt9basic_iosIcSt11char_traitsIcEEcvbEv(%"class.std::basic_ios"* %165)
          to label %invoke.cont272 unwind label %lpad199, !dbg !6868

invoke.cont272:                                   ; preds = %land.rhs
  br label %land.end

land.end:                                         ; preds = %invoke.cont272, %invoke.cont264
  %166 = phi i1 [ false, %invoke.cont264 ], [ %call273, %invoke.cont272 ], !dbg !6600
  br i1 %166, label %while.body274, label %while.end275, !dbg !6861

while.body274:                                    ; preds = %land.end
  br label %while.cond263, !dbg !6861, !llvm.loop !6869

while.end275:                                     ; preds = %land.end
  %167 = load %"class.std::basic_istream"*, %"class.std::basic_istream"** %in.addr, align 8, !dbg !6871
  %168 = bitcast %"class.std::basic_istream"* %167 to i8**, !dbg !6871
  %vtable276 = load i8*, i8** %168, align 8, !dbg !6871
  %vbase.offset.ptr277 = getelementptr i8, i8* %vtable276, i64 -24, !dbg !6871
  %169 = bitcast i8* %vbase.offset.ptr277 to i64*, !dbg !6871
  %vbase.offset278 = load i64, i64* %169, align 8, !dbg !6871
  %170 = bitcast %"class.std::basic_istream"* %167 to i8*, !dbg !6871
  %add.ptr279 = getelementptr inbounds i8, i8* %170, i64 %vbase.offset278, !dbg !6871
  %171 = bitcast i8* %add.ptr279 to %"class.std::basic_ios"*, !dbg !6871
  %call281 = invoke zeroext i1 @_ZNKSt9basic_iosIcSt11char_traitsIcEEntEv(%"class.std::basic_ios"* %171)
          to label %invoke.cont280 unwind label %lpad199, !dbg !6871

invoke.cont280:                                   ; preds = %while.end275
  br i1 %call281, label %if.then282, label %if.end288, !dbg !6874

if.then282:                                       ; preds = %invoke.cont280
  %172 = bitcast %"class.dealii::StandardExceptions::ExcIO"* %agg.tmp283 to i8*, !dbg !6871
  call void @llvm.memset.p0i8.i64(i8* align 8 %172, i8 0, i64 64, i1 false), !dbg !6871
  invoke void @_ZN6dealii18StandardExceptions5ExcIOC2Ev(%"class.dealii::StandardExceptions::ExcIO"* %agg.tmp283)
          to label %invoke.cont284 unwind label %lpad199, !dbg !6871

invoke.cont284:                                   ; preds = %if.then282
  invoke void @_ZN6dealii18deal_II_exceptions9internals17issue_error_throwINS_18StandardExceptions5ExcIOEEEvPKciS6_S6_S6_T_(i8* getelementptr inbounds ([23 x i8], [23 x i8]* @.str.2, i64 0, i64 0), i32 370, i8* getelementptr inbounds ([1 x i8], [1 x i8]* @.str.3, i64 0, i64 0), i8* getelementptr inbounds ([3 x i8], [3 x i8]* @.str.4, i64 0, i64 0), i8* getelementptr inbounds ([8 x i8], [8 x i8]* @.str.5, i64 0, i64 0), %"class.dealii::StandardExceptions::ExcIO"* %agg.tmp283)
          to label %invoke.cont286 unwind label %lpad285, !dbg !6871

invoke.cont286:                                   ; preds = %invoke.cont284
  call void @_ZN6dealii18StandardExceptions5ExcIOD2Ev(%"class.dealii::StandardExceptions::ExcIO"* %agg.tmp283) #3, !dbg !6871
  br label %if.end288, !dbg !6871

lpad285:                                          ; preds = %invoke.cont284
  %173 = landingpad { i8*, i32 }
          cleanup, !dbg !6875
  %174 = extractvalue { i8*, i32 } %173, 0, !dbg !6875
  store i8* %174, i8** %exn.slot, align 8, !dbg !6875
  %175 = extractvalue { i8*, i32 } %173, 1, !dbg !6875
  store i32 %175, i32* %ehselector.slot, align 4, !dbg !6875
  call void @_ZN6dealii18StandardExceptions5ExcIOD2Ev(%"class.dealii::StandardExceptions::ExcIO"* %agg.tmp283) #3, !dbg !6871
  br label %ehcleanup296, !dbg !6871

if.end288:                                        ; preds = %invoke.cont286, %invoke.cont280
  invoke void @_ZN6dealii9GridTools22delete_unused_verticesILi3ELi3EEEvRSt6vectorINS_5PointIXT0_EEESaIS4_EERS2_INS_8CellDataIXT_EEESaIS9_EERNS_11SubCellDataE(%"class.std::vector.82"* dereferenceable(24) %vertices, %"class.std::vector.110"* dereferenceable(24) %cells, %"struct.dealii::SubCellData"* dereferenceable(48) %subcelldata)
          to label %invoke.cont289 unwind label %lpad199, !dbg !6876

invoke.cont289:                                   ; preds = %if.end288
  invoke void @_ZN6dealii14GridReorderingILi3ELi3EE33invert_all_cells_of_negative_gridERKSt6vectorINS_5PointILi3EEESaIS4_EERS2_INS_8CellDataILi3EEESaISA_EE(%"class.std::vector.82"* dereferenceable(24) %vertices, %"class.std::vector.110"* dereferenceable(24) %cells)
          to label %invoke.cont290 unwind label %lpad199, !dbg !6877

invoke.cont290:                                   ; preds = %invoke.cont289
  invoke void @_ZN6dealii14GridReorderingILi3ELi3EE13reorder_cellsERSt6vectorINS_8CellDataILi3EEESaIS4_EE(%"class.std::vector.110"* dereferenceable(24) %cells)
          to label %invoke.cont291 unwind label %lpad199, !dbg !6878

invoke.cont291:                                   ; preds = %invoke.cont290
  %tria = getelementptr inbounds %"class.dealii::GridIn", %"class.dealii::GridIn"* %this1, i32 0, i32 0, !dbg !6879
  %call293 = invoke %"class.dealii::Triangulation"* @_ZNK6dealii12SmartPointerINS_13TriangulationILi3ELi3EEEEptEv(%"class.dealii::SmartPointer"* %tria)
          to label %invoke.cont292 unwind label %lpad199, !dbg !6879

invoke.cont292:                                   ; preds = %invoke.cont291
  %176 = bitcast %"class.dealii::Triangulation"* %call293 to void (%"class.dealii::Triangulation"*, %"class.std::vector.82"*, %"class.std::vector.110"*, %"struct.dealii::SubCellData"*)***, !dbg !6880
  %vtable294 = load void (%"class.dealii::Triangulation"*, %"class.std::vector.82"*, %"class.std::vector.110"*, %"struct.dealii::SubCellData"*)**, void (%"class.dealii::Triangulation"*, %"class.std::vector.82"*, %"class.std::vector.110"*, %"struct.dealii::SubCellData"*)*** %176, align 8, !dbg !6880
  %vfn = getelementptr inbounds void (%"class.dealii::Triangulation"*, %"class.std::vector.82"*, %"class.std::vector.110"*, %"struct.dealii::SubCellData"*)*, void (%"class.dealii::Triangulation"*, %"class.std::vector.82"*, %"class.std::vector.110"*, %"struct.dealii::SubCellData"*)** %vtable294, i64 4, !dbg !6880
  %177 = load void (%"class.dealii::Triangulation"*, %"class.std::vector.82"*, %"class.std::vector.110"*, %"struct.dealii::SubCellData"*)*, void (%"class.dealii::Triangulation"*, %"class.std::vector.82"*, %"class.std::vector.110"*, %"struct.dealii::SubCellData"*)** %vfn, align 8, !dbg !6880
  invoke void %177(%"class.dealii::Triangulation"* %call293, %"class.std::vector.82"* dereferenceable(24) %vertices, %"class.std::vector.110"* dereferenceable(24) %cells, %"struct.dealii::SubCellData"* dereferenceable(48) %subcelldata)
          to label %invoke.cont295 unwind label %lpad199, !dbg !6880

invoke.cont295:                                   ; preds = %invoke.cont292
  call void @_ZN6dealii11SubCellDataD2Ev(%"struct.dealii::SubCellData"* %subcelldata) #3, !dbg !6618
  call void @_ZNSt6vectorIN6dealii8CellDataILi3EEESaIS2_EED2Ev(%"class.std::vector.110"* %cells) #3, !dbg !6618
  call void @_ZNSt6vectorIN6dealii5PointILi3EEESaIS2_EED2Ev(%"class.std::vector.82"* %vertices) #3, !dbg !6618
  call void @_ZNSt7__cxx1112basic_stringIcSt11char_traitsIcESaIcEED1Ev(%"class.std::__cxx11::basic_string"* %line) #3, !dbg !6618
  ret void, !dbg !6618

ehcleanup296:                                     ; preds = %lpad285, %lpad258, %lpad233, %lpad199
  call void @_ZN6dealii11SubCellDataD2Ev(%"struct.dealii::SubCellData"* %subcelldata) #3, !dbg !6618
  call void @_ZNSt6vectorIN6dealii8CellDataILi3EEESaIS2_EED2Ev(%"class.std::vector.110"* %cells) #3, !dbg !6618
  br label %ehcleanup298, !dbg !6618

ehcleanup298:                                     ; preds = %ehcleanup296, %ehcleanup197, %lpad179, %ehcleanup153, %lpad135, %ehcleanup110, %lpad92, %lpad73
  call void @_ZNSt6vectorIN6dealii5PointILi3EEESaIS2_EED2Ev(%"class.std::vector.82"* %vertices) #3, !dbg !6618
  br label %ehcleanup299, !dbg !6618

ehcleanup299:                                     ; preds = %ehcleanup298, %lpad64, %ehcleanup60, %lpad37, %ehcleanup30, %ehcleanup, %lpad2
  call void @_ZNSt7__cxx1112basic_stringIcSt11char_traitsIcESaIcEED1Ev(%"class.std::__cxx11::basic_string"* %line) #3, !dbg !6618
  br label %eh.resume, !dbg !6618

eh.resume:                                        ; preds = %ehcleanup299, %lpad
  %exn = load i8*, i8** %exn.slot, align 8, !dbg !6603
  %sel = load i32, i32* %ehselector.slot, align 4, !dbg !6603
  %lpad.val = insertvalue { i8*, i32 } undef, i8* %exn, 0, !dbg !6603
  %lpad.val300 = insertvalue { i8*, i32 } %lpad.val, i32 %sel, 1, !dbg !6603
  resume { i8*, i32 } %lpad.val300, !dbg !6603
}

; Function Attrs: noinline uwtable
define weak_odr dso_local void @_ZN6dealii6GridInILi3ELi3EE8read_mshERSi(%"class.dealii::GridIn"* %this, %"class.std::basic_istream"* dereferenceable(280) %in) #0 comdat align 2 personality i8* bitcast (i32 (...)* @__gxx_personality_v0 to i8*) !dbg !30 {
entry:
  %this.addr = alloca %"class.dealii::GridIn"*, align 8
  %in.addr = alloca %"class.std::basic_istream"*, align 8
  %agg.tmp = alloca %"class.dealii::StandardExceptions::ExcIO", align 8
  %exn.slot = alloca i8*
  %ehselector.slot = alloca i32
  %n_vertices = alloca i32, align 4
  %n_cells = alloca i32, align 4
  %dummy = alloca i32, align 4
  %line = alloca %"class.std::__cxx11::basic_string", align 8
  %gmsh_file_format = alloca i32, align 4
  %agg.tmp12 = alloca %"class.dealii::GridIn<3, 3>::ExcInvalidGMSHInput", align 8
  %agg.tmp13 = alloca %"class.std::__cxx11::basic_string", align 8
  %version = alloca double, align 8
  %file_type = alloca i32, align 4
  %data_size = alloca i32, align 4
  %agg.tmp33 = alloca %"class.dealii::GridIn<3, 3>::ExcInvalidGMSHInput", align 8
  %agg.tmp34 = alloca %"class.std::__cxx11::basic_string", align 8
  %agg.tmp48 = alloca %"class.dealii::GridIn<3, 3>::ExcInvalidGMSHInput", align 8
  %agg.tmp49 = alloca %"class.std::__cxx11::basic_string", align 8
  %vertices = alloca %"class.std::vector.82", align 8
  %ref.tmp = alloca %"class.std::allocator.84", align 1
  %vertex_indices = alloca %"class.std::map.102", align 8
  %vertex = alloca i32, align 4
  %vertex_number = alloca i32, align 4
  %x = alloca [3 x double], align 16
  %d = alloca i32, align 4
  %arrayinit.endOfInit = alloca %"class.std::__cxx11::basic_string"*, align 8
  %ref.tmp91 = alloca %"class.std::allocator.93", align 1
  %ref.tmp94 = alloca %"class.std::allocator.93", align 1
  %cleanup.isactive = alloca i1, align 1
  %agg.tmp106 = alloca %"class.dealii::GridIn<3, 3>::ExcInvalidGMSHInput", align 8
  %agg.tmp107 = alloca %"class.std::__cxx11::basic_string", align 8
  %arrayinit.endOfInit122 = alloca %"class.std::__cxx11::basic_string"*, align 8
  %ref.tmp123 = alloca %"class.std::allocator.93", align 1
  %ref.tmp126 = alloca %"class.std::allocator.93", align 1
  %cleanup.isactive129 = alloca i1, align 1
  %agg.tmp149 = alloca %"class.dealii::GridIn<3, 3>::ExcInvalidGMSHInput", align 8
  %agg.tmp150 = alloca %"class.std::__cxx11::basic_string", align 8
  %cells = alloca %"class.std::vector.110", align 8
  %subcelldata = alloca %"struct.dealii::SubCellData", align 8
  %cell = alloca i32, align 4
  %agg.tmp172 = alloca %"class.dealii::StandardExceptions::ExcIO", align 8
  %cell_type = alloca i32, align 4
  %material_id = alloca i32, align 4
  %nod_num = alloca i32, align 4
  %n_tags = alloca i32, align 4
  %i = alloca i32, align 4
  %agg.tmp205 = alloca %"class.dealii::StandardExceptions::ExcNotImplemented", align 8
  %agg.tmp218 = alloca %"class.dealii::StandardExceptions::ExcMessage", align 8
  %ref.tmp224 = alloca %"struct.dealii::CellData", align 4
  %i226 = alloca i32, align 4
  %i242 = alloca i32, align 4
  %ref.tmp246 = alloca %"struct.std::_Rb_tree_iterator", align 8
  %ref.tmp247 = alloca i32, align 4
  %ref.tmp254 = alloca %"struct.std::_Rb_tree_iterator", align 8
  %agg.tmp259 = alloca %"class.dealii::GridIn<3, 3>::ExcInvalidVertexIndex", align 8
  %ref.tmp269 = alloca i32, align 4
  %ref.tmp286 = alloca %"struct.dealii::CellData.120", align 4
  %i304 = alloca i32, align 4
  %ref.tmp308 = alloca %"struct.std::_Rb_tree_iterator", align 8
  %ref.tmp309 = alloca i32, align 4
  %ref.tmp318 = alloca %"struct.std::_Rb_tree_iterator", align 8
  %ref.tmp323 = alloca i32, align 4
  %agg.tmp337 = alloca %"class.dealii::GridIn<3, 3>::ExcInvalidVertexIndex", align 8
  %ref.tmp359 = alloca %"struct.dealii::CellData.126", align 4
  %i389 = alloca i32, align 4
  %ref.tmp393 = alloca %"struct.std::_Rb_tree_iterator", align 8
  %ref.tmp394 = alloca i32, align 4
  %ref.tmp403 = alloca %"struct.std::_Rb_tree_iterator", align 8
  %ref.tmp408 = alloca i32, align 4
  %i435 = alloca i32, align 4
  %agg.tmp449 = alloca %"class.dealii::GridIn<3, 3>::ExcGmshUnsupportedGeometry", align 8
  %arrayinit.endOfInit467 = alloca %"class.std::__cxx11::basic_string"*, align 8
  %ref.tmp468 = alloca %"class.std::allocator.93", align 1
  %ref.tmp471 = alloca %"class.std::allocator.93", align 1
  %cleanup.isactive474 = alloca i1, align 1
  %agg.tmp494 = alloca %"class.dealii::GridIn<3, 3>::ExcInvalidGMSHInput", align 8
  %agg.tmp495 = alloca %"class.std::__cxx11::basic_string", align 8
  %agg.tmp511 = alloca %"class.dealii::StandardExceptions::ExcIO", align 8
  store %"class.dealii::GridIn"* %this, %"class.dealii::GridIn"** %this.addr, align 8
  call void @llvm.dbg.declare(metadata %"class.dealii::GridIn"** %this.addr, metadata !6881, metadata !DIExpression()), !dbg !6882
  store %"class.std::basic_istream"* %in, %"class.std::basic_istream"** %in.addr, align 8
  call void @llvm.dbg.declare(metadata %"class.std::basic_istream"** %in.addr, metadata !6883, metadata !DIExpression()), !dbg !6884
  %this1 = load %"class.dealii::GridIn"*, %"class.dealii::GridIn"** %this.addr, align 8
  %0 = load %"class.std::basic_istream"*, %"class.std::basic_istream"** %in.addr, align 8, !dbg !6885
  %1 = bitcast %"class.std::basic_istream"* %0 to i8**, !dbg !6885
  %vtable = load i8*, i8** %1, align 8, !dbg !6885
  %vbase.offset.ptr = getelementptr i8, i8* %vtable, i64 -24, !dbg !6885
  %2 = bitcast i8* %vbase.offset.ptr to i64*, !dbg !6885
  %vbase.offset = load i64, i64* %2, align 8, !dbg !6885
  %3 = bitcast %"class.std::basic_istream"* %0 to i8*, !dbg !6885
  %add.ptr = getelementptr inbounds i8, i8* %3, i64 %vbase.offset, !dbg !6885
  %4 = bitcast i8* %add.ptr to %"class.std::basic_ios"*, !dbg !6885
  %call = call zeroext i1 @_ZNKSt9basic_iosIcSt11char_traitsIcEEntEv(%"class.std::basic_ios"* %4), !dbg !6885
  br i1 %call, label %if.then, label %if.end, !dbg !6888

if.then:                                          ; preds = %entry
  %5 = bitcast %"class.dealii::StandardExceptions::ExcIO"* %agg.tmp to i8*, !dbg !6885
  call void @llvm.memset.p0i8.i64(i8* align 8 %5, i8 0, i64 64, i1 false), !dbg !6885
  call void @_ZN6dealii18StandardExceptions5ExcIOC2Ev(%"class.dealii::StandardExceptions::ExcIO"* %agg.tmp), !dbg !6885
  invoke void @_ZN6dealii18deal_II_exceptions9internals17issue_error_throwINS_18StandardExceptions5ExcIOEEEvPKciS6_S6_S6_T_(i8* getelementptr inbounds ([23 x i8], [23 x i8]* @.str.2, i64 0, i64 0), i32 553, i8* getelementptr inbounds ([1 x i8], [1 x i8]* @.str.3, i64 0, i64 0), i8* getelementptr inbounds ([3 x i8], [3 x i8]* @.str.4, i64 0, i64 0), i8* getelementptr inbounds ([8 x i8], [8 x i8]* @.str.5, i64 0, i64 0), %"class.dealii::StandardExceptions::ExcIO"* %agg.tmp)
          to label %invoke.cont unwind label %lpad, !dbg !6885

invoke.cont:                                      ; preds = %if.then
  call void @_ZN6dealii18StandardExceptions5ExcIOD2Ev(%"class.dealii::StandardExceptions::ExcIO"* %agg.tmp) #3, !dbg !6885
  br label %if.end, !dbg !6885

lpad:                                             ; preds = %if.then
  %6 = landingpad { i8*, i32 }
          cleanup, !dbg !6889
  %7 = extractvalue { i8*, i32 } %6, 0, !dbg !6889
  store i8* %7, i8** %exn.slot, align 8, !dbg !6889
  %8 = extractvalue { i8*, i32 } %6, 1, !dbg !6889
  store i32 %8, i32* %ehselector.slot, align 4, !dbg !6889
  call void @_ZN6dealii18StandardExceptions5ExcIOD2Ev(%"class.dealii::StandardExceptions::ExcIO"* %agg.tmp) #3, !dbg !6885
  br label %eh.resume, !dbg !6885

if.end:                                           ; preds = %invoke.cont, %entry
  call void @llvm.dbg.declare(metadata i32* %n_vertices, metadata !6890, metadata !DIExpression()), !dbg !6891
  call void @llvm.dbg.declare(metadata i32* %n_cells, metadata !6892, metadata !DIExpression()), !dbg !6893
  call void @llvm.dbg.declare(metadata i32* %dummy, metadata !6894, metadata !DIExpression()), !dbg !6895
  call void @llvm.dbg.declare(metadata %"class.std::__cxx11::basic_string"* %line, metadata !6896, metadata !DIExpression()), !dbg !6897
  call void @_ZNSt7__cxx1112basic_stringIcSt11char_traitsIcESaIcEEC1Ev(%"class.std::__cxx11::basic_string"* %line) #3, !dbg !6897
  %9 = load %"class.std::basic_istream"*, %"class.std::basic_istream"** %in.addr, align 8, !dbg !6898
  %call4 = invoke dereferenceable(280) %"class.std::basic_istream"* @_ZStrsIcSt11char_traitsIcESaIcEERSt13basic_istreamIT_T0_ES7_RNSt7__cxx1112basic_stringIS4_S5_T1_EE(%"class.std::basic_istream"* dereferenceable(280) %9, %"class.std::__cxx11::basic_string"* dereferenceable(32) %line)
          to label %invoke.cont3 unwind label %lpad2, !dbg !6899

invoke.cont3:                                     ; preds = %if.end
  call void @llvm.dbg.declare(metadata i32* %gmsh_file_format, metadata !6900, metadata !DIExpression()), !dbg !6901
  store i32 0, i32* %gmsh_file_format, align 4, !dbg !6901
  %call6 = invoke zeroext i1 @_ZSteqIcSt11char_traitsIcESaIcEEbRKNSt7__cxx1112basic_stringIT_T0_T1_EEPKS5_(%"class.std::__cxx11::basic_string"* dereferenceable(32) %line, i8* getelementptr inbounds ([5 x i8], [5 x i8]* @.str.32, i64 0, i64 0))
          to label %invoke.cont5 unwind label %lpad2, !dbg !6902

invoke.cont5:                                     ; preds = %invoke.cont3
  br i1 %call6, label %if.then7, label %if.else, !dbg !6904

if.then7:                                         ; preds = %invoke.cont5
  store i32 1, i32* %gmsh_file_format, align 4, !dbg !6905
  br label %if.end20, !dbg !6906

lpad2:                                            ; preds = %if.end58, %if.then47, %invoke.cont43, %if.end42, %if.then32, %invoke.cont28, %invoke.cont26, %invoke.cont24, %invoke.cont22, %if.then21, %if.else11, %if.else, %invoke.cont3, %if.end
  %10 = landingpad { i8*, i32 }
          cleanup, !dbg !6907
  %11 = extractvalue { i8*, i32 } %10, 0, !dbg !6907
  store i8* %11, i8** %exn.slot, align 8, !dbg !6907
  %12 = extractvalue { i8*, i32 } %10, 1, !dbg !6907
  store i32 %12, i32* %ehselector.slot, align 4, !dbg !6907
  br label %ehcleanup528, !dbg !6907

if.else:                                          ; preds = %invoke.cont5
  %call9 = invoke zeroext i1 @_ZSteqIcSt11char_traitsIcESaIcEEbRKNSt7__cxx1112basic_stringIT_T0_T1_EEPKS5_(%"class.std::__cxx11::basic_string"* dereferenceable(32) %line, i8* getelementptr inbounds ([12 x i8], [12 x i8]* @.str.33, i64 0, i64 0))
          to label %invoke.cont8 unwind label %lpad2, !dbg !6908

invoke.cont8:                                     ; preds = %if.else
  br i1 %call9, label %if.then10, label %if.else11, !dbg !6910

if.then10:                                        ; preds = %invoke.cont8
  store i32 2, i32* %gmsh_file_format, align 4, !dbg !6911
  br label %if.end19, !dbg !6912

if.else11:                                        ; preds = %invoke.cont8
  invoke void @_ZNSt7__cxx1112basic_stringIcSt11char_traitsIcESaIcEEC1ERKS4_(%"class.std::__cxx11::basic_string"* %agg.tmp13, %"class.std::__cxx11::basic_string"* dereferenceable(32) %line)
          to label %invoke.cont14 unwind label %lpad2, !dbg !6913

invoke.cont14:                                    ; preds = %if.else11
  invoke void @_ZN6dealii6GridInILi3ELi3EE19ExcInvalidGMSHInputC1ENSt7__cxx1112basic_stringIcSt11char_traitsIcESaIcEEE(%"class.dealii::GridIn<3, 3>::ExcInvalidGMSHInput"* %agg.tmp12, %"class.std::__cxx11::basic_string"* %agg.tmp13)
          to label %invoke.cont16 unwind label %lpad15, !dbg !6913

invoke.cont16:                                    ; preds = %invoke.cont14
  invoke void @_ZN6dealii18deal_II_exceptions9internals17issue_error_throwINS_6GridInILi3ELi3EE19ExcInvalidGMSHInputEEEvPKciS7_S7_S7_T_(i8* getelementptr inbounds ([23 x i8], [23 x i8]* @.str.2, i64 0, i64 0), i32 569, i8* getelementptr inbounds ([1 x i8], [1 x i8]* @.str.3, i64 0, i64 0), i8* getelementptr inbounds ([6 x i8], [6 x i8]* @.str.9, i64 0, i64 0), i8* getelementptr inbounds ([26 x i8], [26 x i8]* @.str.34, i64 0, i64 0), %"class.dealii::GridIn<3, 3>::ExcInvalidGMSHInput"* %agg.tmp12)
          to label %invoke.cont18 unwind label %lpad17, !dbg !6913

invoke.cont18:                                    ; preds = %invoke.cont16
  call void @_ZN6dealii6GridInILi3ELi3EE19ExcInvalidGMSHInputD1Ev(%"class.dealii::GridIn<3, 3>::ExcInvalidGMSHInput"* %agg.tmp12) #3, !dbg !6913
  call void @_ZNSt7__cxx1112basic_stringIcSt11char_traitsIcESaIcEED1Ev(%"class.std::__cxx11::basic_string"* %agg.tmp13) #3, !dbg !6913
  br label %if.end19

lpad15:                                           ; preds = %invoke.cont14
  %13 = landingpad { i8*, i32 }
          cleanup, !dbg !6916
  %14 = extractvalue { i8*, i32 } %13, 0, !dbg !6916
  store i8* %14, i8** %exn.slot, align 8, !dbg !6916
  %15 = extractvalue { i8*, i32 } %13, 1, !dbg !6916
  store i32 %15, i32* %ehselector.slot, align 4, !dbg !6916
  br label %ehcleanup, !dbg !6916

lpad17:                                           ; preds = %invoke.cont16
  %16 = landingpad { i8*, i32 }
          cleanup, !dbg !6916
  %17 = extractvalue { i8*, i32 } %16, 0, !dbg !6916
  store i8* %17, i8** %exn.slot, align 8, !dbg !6916
  %18 = extractvalue { i8*, i32 } %16, 1, !dbg !6916
  store i32 %18, i32* %ehselector.slot, align 4, !dbg !6916
  call void @_ZN6dealii6GridInILi3ELi3EE19ExcInvalidGMSHInputD1Ev(%"class.dealii::GridIn<3, 3>::ExcInvalidGMSHInput"* %agg.tmp12) #3, !dbg !6913
  br label %ehcleanup, !dbg !6913

ehcleanup:                                        ; preds = %lpad17, %lpad15
  call void @_ZNSt7__cxx1112basic_stringIcSt11char_traitsIcESaIcEED1Ev(%"class.std::__cxx11::basic_string"* %agg.tmp13) #3, !dbg !6913
  br label %ehcleanup528, !dbg !6913

if.end19:                                         ; preds = %invoke.cont18, %if.then10
  br label %if.end20

if.end20:                                         ; preds = %if.end19, %if.then7
  %19 = load i32, i32* %gmsh_file_format, align 4, !dbg !6917
  %cmp = icmp eq i32 %19, 2, !dbg !6919
  br i1 %cmp, label %if.then21, label %if.end58, !dbg !6920

if.then21:                                        ; preds = %if.end20
  call void @llvm.dbg.declare(metadata double* %version, metadata !6921, metadata !DIExpression()), !dbg !6923
  call void @llvm.dbg.declare(metadata i32* %file_type, metadata !6924, metadata !DIExpression()), !dbg !6925
  call void @llvm.dbg.declare(metadata i32* %data_size, metadata !6926, metadata !DIExpression()), !dbg !6927
  %20 = load %"class.std::basic_istream"*, %"class.std::basic_istream"** %in.addr, align 8, !dbg !6928
  %call23 = invoke dereferenceable(280) %"class.std::basic_istream"* @_ZNSirsERd(%"class.std::basic_istream"* %20, double* dereferenceable(8) %version)
          to label %invoke.cont22 unwind label %lpad2, !dbg !6929

invoke.cont22:                                    ; preds = %if.then21
  %call25 = invoke dereferenceable(280) %"class.std::basic_istream"* @_ZNSirsERj(%"class.std::basic_istream"* %call23, i32* dereferenceable(4) %file_type)
          to label %invoke.cont24 unwind label %lpad2, !dbg !6930

invoke.cont24:                                    ; preds = %invoke.cont22
  %call27 = invoke dereferenceable(280) %"class.std::basic_istream"* @_ZNSirsERj(%"class.std::basic_istream"* %call25, i32* dereferenceable(4) %data_size)
          to label %invoke.cont26 unwind label %lpad2, !dbg !6931

invoke.cont26:                                    ; preds = %invoke.cont24
  %21 = load %"class.std::basic_istream"*, %"class.std::basic_istream"** %in.addr, align 8, !dbg !6932
  %call29 = invoke dereferenceable(280) %"class.std::basic_istream"* @_ZStrsIcSt11char_traitsIcESaIcEERSt13basic_istreamIT_T0_ES7_RNSt7__cxx1112basic_stringIS4_S5_T1_EE(%"class.std::basic_istream"* dereferenceable(280) %21, %"class.std::__cxx11::basic_string"* dereferenceable(32) %line)
          to label %invoke.cont28 unwind label %lpad2, !dbg !6933

invoke.cont28:                                    ; preds = %invoke.cont26
  %call31 = invoke zeroext i1 @_ZSteqIcSt11char_traitsIcESaIcEEbRKNSt7__cxx1112basic_stringIT_T0_T1_EEPKS5_(%"class.std::__cxx11::basic_string"* dereferenceable(32) %line, i8* getelementptr inbounds ([15 x i8], [15 x i8]* @.str.35, i64 0, i64 0))
          to label %invoke.cont30 unwind label %lpad2, !dbg !6934

invoke.cont30:                                    ; preds = %invoke.cont28
  br i1 %call31, label %if.end42, label %if.then32, !dbg !6937

if.then32:                                        ; preds = %invoke.cont30
  invoke void @_ZNSt7__cxx1112basic_stringIcSt11char_traitsIcESaIcEEC1ERKS4_(%"class.std::__cxx11::basic_string"* %agg.tmp34, %"class.std::__cxx11::basic_string"* dereferenceable(32) %line)
          to label %invoke.cont35 unwind label %lpad2, !dbg !6934

invoke.cont35:                                    ; preds = %if.then32
  invoke void @_ZN6dealii6GridInILi3ELi3EE19ExcInvalidGMSHInputC1ENSt7__cxx1112basic_stringIcSt11char_traitsIcESaIcEEE(%"class.dealii::GridIn<3, 3>::ExcInvalidGMSHInput"* %agg.tmp33, %"class.std::__cxx11::basic_string"* %agg.tmp34)
          to label %invoke.cont37 unwind label %lpad36, !dbg !6934

invoke.cont37:                                    ; preds = %invoke.cont35
  invoke void @_ZN6dealii18deal_II_exceptions9internals17issue_error_throwINS_6GridInILi3ELi3EE19ExcInvalidGMSHInputEEEvPKciS7_S7_S7_T_(i8* getelementptr inbounds ([23 x i8], [23 x i8]* @.str.2, i64 0, i64 0), i32 592, i8* getelementptr inbounds ([1 x i8], [1 x i8]* @.str.3, i64 0, i64 0), i8* getelementptr inbounds ([25 x i8], [25 x i8]* @.str.36, i64 0, i64 0), i8* getelementptr inbounds ([26 x i8], [26 x i8]* @.str.34, i64 0, i64 0), %"class.dealii::GridIn<3, 3>::ExcInvalidGMSHInput"* %agg.tmp33)
          to label %invoke.cont39 unwind label %lpad38, !dbg !6934

invoke.cont39:                                    ; preds = %invoke.cont37
  call void @_ZN6dealii6GridInILi3ELi3EE19ExcInvalidGMSHInputD1Ev(%"class.dealii::GridIn<3, 3>::ExcInvalidGMSHInput"* %agg.tmp33) #3, !dbg !6934
  call void @_ZNSt7__cxx1112basic_stringIcSt11char_traitsIcESaIcEED1Ev(%"class.std::__cxx11::basic_string"* %agg.tmp34) #3, !dbg !6934
  br label %if.end42, !dbg !6934

lpad36:                                           ; preds = %invoke.cont35
  %22 = landingpad { i8*, i32 }
          cleanup, !dbg !6938
  %23 = extractvalue { i8*, i32 } %22, 0, !dbg !6938
  store i8* %23, i8** %exn.slot, align 8, !dbg !6938
  %24 = extractvalue { i8*, i32 } %22, 1, !dbg !6938
  store i32 %24, i32* %ehselector.slot, align 4, !dbg !6938
  br label %ehcleanup41, !dbg !6938

lpad38:                                           ; preds = %invoke.cont37
  %25 = landingpad { i8*, i32 }
          cleanup, !dbg !6938
  %26 = extractvalue { i8*, i32 } %25, 0, !dbg !6938
  store i8* %26, i8** %exn.slot, align 8, !dbg !6938
  %27 = extractvalue { i8*, i32 } %25, 1, !dbg !6938
  store i32 %27, i32* %ehselector.slot, align 4, !dbg !6938
  call void @_ZN6dealii6GridInILi3ELi3EE19ExcInvalidGMSHInputD1Ev(%"class.dealii::GridIn<3, 3>::ExcInvalidGMSHInput"* %agg.tmp33) #3, !dbg !6934
  br label %ehcleanup41, !dbg !6934

ehcleanup41:                                      ; preds = %lpad38, %lpad36
  call void @_ZNSt7__cxx1112basic_stringIcSt11char_traitsIcESaIcEED1Ev(%"class.std::__cxx11::basic_string"* %agg.tmp34) #3, !dbg !6934
  br label %ehcleanup528, !dbg !6934

if.end42:                                         ; preds = %invoke.cont39, %invoke.cont30
  %28 = load %"class.std::basic_istream"*, %"class.std::basic_istream"** %in.addr, align 8, !dbg !6939
  %call44 = invoke dereferenceable(280) %"class.std::basic_istream"* @_ZStrsIcSt11char_traitsIcESaIcEERSt13basic_istreamIT_T0_ES7_RNSt7__cxx1112basic_stringIS4_S5_T1_EE(%"class.std::basic_istream"* dereferenceable(280) %28, %"class.std::__cxx11::basic_string"* dereferenceable(32) %line)
          to label %invoke.cont43 unwind label %lpad2, !dbg !6940

invoke.cont43:                                    ; preds = %if.end42
  %call46 = invoke zeroext i1 @_ZSteqIcSt11char_traitsIcESaIcEEbRKNSt7__cxx1112basic_stringIT_T0_T1_EEPKS5_(%"class.std::__cxx11::basic_string"* dereferenceable(32) %line, i8* getelementptr inbounds ([7 x i8], [7 x i8]* @.str.37, i64 0, i64 0))
          to label %invoke.cont45 unwind label %lpad2, !dbg !6941

invoke.cont45:                                    ; preds = %invoke.cont43
  br i1 %call46, label %if.end57, label %if.then47, !dbg !6944

if.then47:                                        ; preds = %invoke.cont45
  invoke void @_ZNSt7__cxx1112basic_stringIcSt11char_traitsIcESaIcEEC1ERKS4_(%"class.std::__cxx11::basic_string"* %agg.tmp49, %"class.std::__cxx11::basic_string"* dereferenceable(32) %line)
          to label %invoke.cont50 unwind label %lpad2, !dbg !6941

invoke.cont50:                                    ; preds = %if.then47
  invoke void @_ZN6dealii6GridInILi3ELi3EE19ExcInvalidGMSHInputC1ENSt7__cxx1112basic_stringIcSt11char_traitsIcESaIcEEE(%"class.dealii::GridIn<3, 3>::ExcInvalidGMSHInput"* %agg.tmp48, %"class.std::__cxx11::basic_string"* %agg.tmp49)
          to label %invoke.cont52 unwind label %lpad51, !dbg !6941

invoke.cont52:                                    ; preds = %invoke.cont50
  invoke void @_ZN6dealii18deal_II_exceptions9internals17issue_error_throwINS_6GridInILi3ELi3EE19ExcInvalidGMSHInputEEEvPKciS7_S7_S7_T_(i8* getelementptr inbounds ([23 x i8], [23 x i8]* @.str.2, i64 0, i64 0), i32 596, i8* getelementptr inbounds ([1 x i8], [1 x i8]* @.str.3, i64 0, i64 0), i8* getelementptr inbounds ([17 x i8], [17 x i8]* @.str.38, i64 0, i64 0), i8* getelementptr inbounds ([26 x i8], [26 x i8]* @.str.34, i64 0, i64 0), %"class.dealii::GridIn<3, 3>::ExcInvalidGMSHInput"* %agg.tmp48)
          to label %invoke.cont54 unwind label %lpad53, !dbg !6941

invoke.cont54:                                    ; preds = %invoke.cont52
  call void @_ZN6dealii6GridInILi3ELi3EE19ExcInvalidGMSHInputD1Ev(%"class.dealii::GridIn<3, 3>::ExcInvalidGMSHInput"* %agg.tmp48) #3, !dbg !6941
  call void @_ZNSt7__cxx1112basic_stringIcSt11char_traitsIcESaIcEED1Ev(%"class.std::__cxx11::basic_string"* %agg.tmp49) #3, !dbg !6941
  br label %if.end57, !dbg !6941

lpad51:                                           ; preds = %invoke.cont50
  %29 = landingpad { i8*, i32 }
          cleanup, !dbg !6945
  %30 = extractvalue { i8*, i32 } %29, 0, !dbg !6945
  store i8* %30, i8** %exn.slot, align 8, !dbg !6945
  %31 = extractvalue { i8*, i32 } %29, 1, !dbg !6945
  store i32 %31, i32* %ehselector.slot, align 4, !dbg !6945
  br label %ehcleanup56, !dbg !6945

lpad53:                                           ; preds = %invoke.cont52
  %32 = landingpad { i8*, i32 }
          cleanup, !dbg !6945
  %33 = extractvalue { i8*, i32 } %32, 0, !dbg !6945
  store i8* %33, i8** %exn.slot, align 8, !dbg !6945
  %34 = extractvalue { i8*, i32 } %32, 1, !dbg !6945
  store i32 %34, i32* %ehselector.slot, align 4, !dbg !6945
  call void @_ZN6dealii6GridInILi3ELi3EE19ExcInvalidGMSHInputD1Ev(%"class.dealii::GridIn<3, 3>::ExcInvalidGMSHInput"* %agg.tmp48) #3, !dbg !6941
  br label %ehcleanup56, !dbg !6941

ehcleanup56:                                      ; preds = %lpad53, %lpad51
  call void @_ZNSt7__cxx1112basic_stringIcSt11char_traitsIcESaIcEED1Ev(%"class.std::__cxx11::basic_string"* %agg.tmp49) #3, !dbg !6941
  br label %ehcleanup528, !dbg !6941

if.end57:                                         ; preds = %invoke.cont54, %invoke.cont45
  br label %if.end58, !dbg !6946

if.end58:                                         ; preds = %if.end57, %if.end20
  %35 = load %"class.std::basic_istream"*, %"class.std::basic_istream"** %in.addr, align 8, !dbg !6947
  %call60 = invoke dereferenceable(280) %"class.std::basic_istream"* @_ZNSirsERj(%"class.std::basic_istream"* %35, i32* dereferenceable(4) %n_vertices)
          to label %invoke.cont59 unwind label %lpad2, !dbg !6948

invoke.cont59:                                    ; preds = %if.end58
  call void @llvm.dbg.declare(metadata %"class.std::vector.82"* %vertices, metadata !6949, metadata !DIExpression()), !dbg !6950
  %36 = load i32, i32* %n_vertices, align 4, !dbg !6951
  %conv = zext i32 %36 to i64, !dbg !6951
  call void @_ZNSaIN6dealii5PointILi3EEEEC2Ev(%"class.std::allocator.84"* %ref.tmp) #3, !dbg !6950
  invoke void @_ZNSt6vectorIN6dealii5PointILi3EEESaIS2_EEC2EmRKS3_(%"class.std::vector.82"* %vertices, i64 %conv, %"class.std::allocator.84"* dereferenceable(1) %ref.tmp)
          to label %invoke.cont62 unwind label %lpad61, !dbg !6950

invoke.cont62:                                    ; preds = %invoke.cont59
  call void @_ZNSaIN6dealii5PointILi3EEEED2Ev(%"class.std::allocator.84"* %ref.tmp) #3, !dbg !6950
  call void @llvm.dbg.declare(metadata %"class.std::map.102"* %vertex_indices, metadata !6952, metadata !DIExpression()), !dbg !7121
  call void @_ZNSt3mapIiiSt4lessIiESaISt4pairIKiiEEEC2Ev(%"class.std::map.102"* %vertex_indices) #3, !dbg !7121
  call void @llvm.dbg.declare(metadata i32* %vertex, metadata !7122, metadata !DIExpression()), !dbg !7124
  store i32 0, i32* %vertex, align 4, !dbg !7124
  br label %for.cond, !dbg !7125

for.cond:                                         ; preds = %for.inc86, %invoke.cont62
  %37 = load i32, i32* %vertex, align 4, !dbg !7126
  %38 = load i32, i32* %n_vertices, align 4, !dbg !7128
  %cmp64 = icmp ult i32 %37, %38, !dbg !7129
  br i1 %cmp64, label %for.body, label %for.end88, !dbg !7130

for.body:                                         ; preds = %for.cond
  call void @llvm.dbg.declare(metadata i32* %vertex_number, metadata !7131, metadata !DIExpression()), !dbg !7133
  call void @llvm.dbg.declare(metadata [3 x double]* %x, metadata !7134, metadata !DIExpression()), !dbg !7135
  %39 = load %"class.std::basic_istream"*, %"class.std::basic_istream"** %in.addr, align 8, !dbg !7136
  %call67 = invoke dereferenceable(280) %"class.std::basic_istream"* @_ZNSirsERi(%"class.std::basic_istream"* %39, i32* dereferenceable(4) %vertex_number)
          to label %invoke.cont66 unwind label %lpad65, !dbg !7137

invoke.cont66:                                    ; preds = %for.body
  %arrayidx = getelementptr inbounds [3 x double], [3 x double]* %x, i64 0, i64 0, !dbg !7138
  %call69 = invoke dereferenceable(280) %"class.std::basic_istream"* @_ZNSirsERd(%"class.std::basic_istream"* %call67, double* dereferenceable(8) %arrayidx)
          to label %invoke.cont68 unwind label %lpad65, !dbg !7139

invoke.cont68:                                    ; preds = %invoke.cont66
  %arrayidx70 = getelementptr inbounds [3 x double], [3 x double]* %x, i64 0, i64 1, !dbg !7140
  %call72 = invoke dereferenceable(280) %"class.std::basic_istream"* @_ZNSirsERd(%"class.std::basic_istream"* %call69, double* dereferenceable(8) %arrayidx70)
          to label %invoke.cont71 unwind label %lpad65, !dbg !7141

invoke.cont71:                                    ; preds = %invoke.cont68
  %arrayidx73 = getelementptr inbounds [3 x double], [3 x double]* %x, i64 0, i64 2, !dbg !7142
  %call75 = invoke dereferenceable(280) %"class.std::basic_istream"* @_ZNSirsERd(%"class.std::basic_istream"* %call72, double* dereferenceable(8) %arrayidx73)
          to label %invoke.cont74 unwind label %lpad65, !dbg !7143

invoke.cont74:                                    ; preds = %invoke.cont71
  call void @llvm.dbg.declare(metadata i32* %d, metadata !7144, metadata !DIExpression()), !dbg !7146
  store i32 0, i32* %d, align 4, !dbg !7146
  br label %for.cond76, !dbg !7147

for.cond76:                                       ; preds = %for.inc, %invoke.cont74
  %40 = load i32, i32* %d, align 4, !dbg !7148
  %cmp77 = icmp ult i32 %40, 3, !dbg !7150
  br i1 %cmp77, label %for.body78, label %for.end, !dbg !7151

for.body78:                                       ; preds = %for.cond76
  %41 = load i32, i32* %d, align 4, !dbg !7152
  %idxprom = zext i32 %41 to i64, !dbg !7153
  %arrayidx79 = getelementptr inbounds [3 x double], [3 x double]* %x, i64 0, i64 %idxprom, !dbg !7153
  %42 = load double, double* %arrayidx79, align 8, !dbg !7153
  %43 = load i32, i32* %vertex, align 4, !dbg !7154
  %conv80 = zext i32 %43 to i64, !dbg !7154
  %call81 = call dereferenceable(24) %"class.dealii::Point"* @_ZNSt6vectorIN6dealii5PointILi3EEESaIS2_EEixEm(%"class.std::vector.82"* %vertices, i64 %conv80) #3, !dbg !7155
  %44 = load i32, i32* %d, align 4, !dbg !7156
  %call83 = invoke dereferenceable(8) double* @_ZN6dealii5PointILi3EEclEj(%"class.dealii::Point"* %call81, i32 %44)
          to label %invoke.cont82 unwind label %lpad65, !dbg !7155

invoke.cont82:                                    ; preds = %for.body78
  store double %42, double* %call83, align 8, !dbg !7157
  br label %for.inc, !dbg !7155

for.inc:                                          ; preds = %invoke.cont82
  %45 = load i32, i32* %d, align 4, !dbg !7158
  %inc = add i32 %45, 1, !dbg !7158
  store i32 %inc, i32* %d, align 4, !dbg !7158
  br label %for.cond76, !dbg !7159, !llvm.loop !7160

lpad61:                                           ; preds = %invoke.cont59
  %46 = landingpad { i8*, i32 }
          cleanup, !dbg !6907
  %47 = extractvalue { i8*, i32 } %46, 0, !dbg !6907
  store i8* %47, i8** %exn.slot, align 8, !dbg !6907
  %48 = extractvalue { i8*, i32 } %46, 1, !dbg !6907
  store i32 %48, i32* %ehselector.slot, align 4, !dbg !6907
  call void @_ZNSaIN6dealii5PointILi3EEEED2Ev(%"class.std::allocator.84"* %ref.tmp) #3, !dbg !6950
  br label %ehcleanup528, !dbg !6950

lpad65:                                           ; preds = %if.end158, %if.then148, %if.end115, %if.then105, %for.end88, %for.end, %for.body78, %invoke.cont71, %invoke.cont68, %invoke.cont66, %for.body
  %49 = landingpad { i8*, i32 }
          cleanup, !dbg !7162
  %50 = extractvalue { i8*, i32 } %49, 0, !dbg !7162
  store i8* %50, i8** %exn.slot, align 8, !dbg !7162
  %51 = extractvalue { i8*, i32 } %49, 1, !dbg !7162
  store i32 %51, i32* %ehselector.slot, align 4, !dbg !7162
  br label %ehcleanup526, !dbg !7162

for.end:                                          ; preds = %for.cond76
  %52 = load i32, i32* %vertex, align 4, !dbg !7163
  %call85 = invoke dereferenceable(4) i32* @_ZNSt3mapIiiSt4lessIiESaISt4pairIKiiEEEixERS3_(%"class.std::map.102"* %vertex_indices, i32* dereferenceable(4) %vertex_number)
          to label %invoke.cont84 unwind label %lpad65, !dbg !7164

invoke.cont84:                                    ; preds = %for.end
  store i32 %52, i32* %call85, align 4, !dbg !7165
  br label %for.inc86, !dbg !7166

for.inc86:                                        ; preds = %invoke.cont84
  %53 = load i32, i32* %vertex, align 4, !dbg !7167
  %inc87 = add i32 %53, 1, !dbg !7167
  store i32 %inc87, i32* %vertex, align 4, !dbg !7167
  br label %for.cond, !dbg !7168, !llvm.loop !7169

for.end88:                                        ; preds = %for.cond
  %54 = load %"class.std::basic_istream"*, %"class.std::basic_istream"** %in.addr, align 8, !dbg !7171
  %call90 = invoke dereferenceable(280) %"class.std::basic_istream"* @_ZStrsIcSt11char_traitsIcESaIcEERSt13basic_istreamIT_T0_ES7_RNSt7__cxx1112basic_stringIS4_S5_T1_EE(%"class.std::basic_istream"* dereferenceable(280) %54, %"class.std::__cxx11::basic_string"* dereferenceable(32) %line)
          to label %invoke.cont89 unwind label %lpad65, !dbg !7172

invoke.cont89:                                    ; preds = %for.end88
  %55 = load atomic i8, i8* bitcast (i64* @_ZGVZN6dealii6GridInILi3ELi3EE8read_mshERSiE16end_nodes_markerB5cxx11 to i8*) acquire, align 8, !dbg !7173
  %guard.uninitialized = icmp eq i8 %55, 0, !dbg !7173
  br i1 %guard.uninitialized, label %init.check, label %init.end, !dbg !7173, !prof !7174

init.check:                                       ; preds = %invoke.cont89
  %56 = call i32 @__cxa_guard_acquire(i64* @_ZGVZN6dealii6GridInILi3ELi3EE8read_mshERSiE16end_nodes_markerB5cxx11) #3, !dbg !7173
  %tobool = icmp ne i32 %56, 0, !dbg !7173
  br i1 %tobool, label %init, label %init.end, !dbg !7173

init:                                             ; preds = %init.check
  store i1 true, i1* %cleanup.isactive, align 1
  store %"class.std::__cxx11::basic_string"* getelementptr inbounds ([2 x %"class.std::__cxx11::basic_string"], [2 x %"class.std::__cxx11::basic_string"]* @_ZZN6dealii6GridInILi3ELi3EE8read_mshERSiE16end_nodes_markerB5cxx11, i64 0, i64 0), %"class.std::__cxx11::basic_string"** %arrayinit.endOfInit, align 8, !dbg !7175
  call void @_ZNSaIcEC1Ev(%"class.std::allocator.93"* %ref.tmp91) #3, !dbg !7176
  invoke void @_ZNSt7__cxx1112basic_stringIcSt11char_traitsIcESaIcEEC1EPKcRKS3_(%"class.std::__cxx11::basic_string"* getelementptr inbounds ([2 x %"class.std::__cxx11::basic_string"], [2 x %"class.std::__cxx11::basic_string"]* @_ZZN6dealii6GridInILi3ELi3EE8read_mshERSiE16end_nodes_markerB5cxx11, i64 0, i64 0), i8* getelementptr inbounds ([8 x i8], [8 x i8]* @.str.39, i64 0, i64 0), %"class.std::allocator.93"* dereferenceable(1) %ref.tmp91)
          to label %invoke.cont93 unwind label %lpad92, !dbg !7176

invoke.cont93:                                    ; preds = %init
  store %"class.std::__cxx11::basic_string"* getelementptr inbounds ([2 x %"class.std::__cxx11::basic_string"], [2 x %"class.std::__cxx11::basic_string"]* @_ZZN6dealii6GridInILi3ELi3EE8read_mshERSiE16end_nodes_markerB5cxx11, i64 0, i64 1), %"class.std::__cxx11::basic_string"** %arrayinit.endOfInit, align 8, !dbg !7175
  call void @_ZNSaIcEC1Ev(%"class.std::allocator.93"* %ref.tmp94) #3, !dbg !7177
  invoke void @_ZNSt7__cxx1112basic_stringIcSt11char_traitsIcESaIcEEC1EPKcRKS3_(%"class.std::__cxx11::basic_string"* getelementptr inbounds ([2 x %"class.std::__cxx11::basic_string"], [2 x %"class.std::__cxx11::basic_string"]* @_ZZN6dealii6GridInILi3ELi3EE8read_mshERSiE16end_nodes_markerB5cxx11, i64 0, i64 1), i8* getelementptr inbounds ([10 x i8], [10 x i8]* @.str.40, i64 0, i64 0), %"class.std::allocator.93"* dereferenceable(1) %ref.tmp94)
          to label %invoke.cont96 unwind label %lpad95, !dbg !7177

invoke.cont96:                                    ; preds = %invoke.cont93
  store i1 false, i1* %cleanup.isactive, align 1, !dbg !7175
  call void @_ZNSaIcED1Ev(%"class.std::allocator.93"* %ref.tmp94) #3, !dbg !7175
  call void @_ZNSaIcED1Ev(%"class.std::allocator.93"* %ref.tmp91) #3, !dbg !7175
  %57 = call i32 @__cxa_atexit(void (i8*)* @__cxx_global_array_dtor, i8* null, i8* @__dso_handle) #3, !dbg !7173
  call void @__cxa_guard_release(i64* @_ZGVZN6dealii6GridInILi3ELi3EE8read_mshERSiE16end_nodes_markerB5cxx11) #3, !dbg !7173
  br label %init.end, !dbg !7173

init.end:                                         ; preds = %invoke.cont96, %init.check, %invoke.cont89
  %58 = load i32, i32* %gmsh_file_format, align 4, !dbg !7178
  %sub = sub i32 %58, 1, !dbg !7178
  %idxprom102 = zext i32 %sub to i64, !dbg !7178
  %arrayidx103 = getelementptr inbounds [2 x %"class.std::__cxx11::basic_string"], [2 x %"class.std::__cxx11::basic_string"]* @_ZZN6dealii6GridInILi3ELi3EE8read_mshERSiE16end_nodes_markerB5cxx11, i64 0, i64 %idxprom102, !dbg !7178
  %call104 = call zeroext i1 @_ZSteqIcEN9__gnu_cxx11__enable_ifIXsr9__is_charIT_EE7__valueEbE6__typeERKNSt7__cxx1112basic_stringIS2_St11char_traitsIS2_ESaIS2_EEESC_(%"class.std::__cxx11::basic_string"* dereferenceable(32) %line, %"class.std::__cxx11::basic_string"* dereferenceable(32) %arrayidx103) #3, !dbg !7178
  br i1 %call104, label %if.end115, label %if.then105, !dbg !7181

if.then105:                                       ; preds = %init.end
  invoke void @_ZNSt7__cxx1112basic_stringIcSt11char_traitsIcESaIcEEC1ERKS4_(%"class.std::__cxx11::basic_string"* %agg.tmp107, %"class.std::__cxx11::basic_string"* dereferenceable(32) %line)
          to label %invoke.cont108 unwind label %lpad65, !dbg !7178

invoke.cont108:                                   ; preds = %if.then105
  invoke void @_ZN6dealii6GridInILi3ELi3EE19ExcInvalidGMSHInputC1ENSt7__cxx1112basic_stringIcSt11char_traitsIcESaIcEEE(%"class.dealii::GridIn<3, 3>::ExcInvalidGMSHInput"* %agg.tmp106, %"class.std::__cxx11::basic_string"* %agg.tmp107)
          to label %invoke.cont110 unwind label %lpad109, !dbg !7178

invoke.cont110:                                   ; preds = %invoke.cont108
  invoke void @_ZN6dealii18deal_II_exceptions9internals17issue_error_throwINS_6GridInILi3ELi3EE19ExcInvalidGMSHInputEEEvPKciS7_S7_S7_T_(i8* getelementptr inbounds ([23 x i8], [23 x i8]* @.str.2, i64 0, i64 0), i32 626, i8* getelementptr inbounds ([1 x i8], [1 x i8]* @.str.3, i64 0, i64 0), i8* getelementptr inbounds ([43 x i8], [43 x i8]* @.str.41, i64 0, i64 0), i8* getelementptr inbounds ([26 x i8], [26 x i8]* @.str.34, i64 0, i64 0), %"class.dealii::GridIn<3, 3>::ExcInvalidGMSHInput"* %agg.tmp106)
          to label %invoke.cont112 unwind label %lpad111, !dbg !7178

invoke.cont112:                                   ; preds = %invoke.cont110
  call void @_ZN6dealii6GridInILi3ELi3EE19ExcInvalidGMSHInputD1Ev(%"class.dealii::GridIn<3, 3>::ExcInvalidGMSHInput"* %agg.tmp106) #3, !dbg !7178
  call void @_ZNSt7__cxx1112basic_stringIcSt11char_traitsIcESaIcEED1Ev(%"class.std::__cxx11::basic_string"* %agg.tmp107) #3, !dbg !7178
  br label %if.end115, !dbg !7178

lpad92:                                           ; preds = %init
  %59 = landingpad { i8*, i32 }
          cleanup, !dbg !6907
  %60 = extractvalue { i8*, i32 } %59, 0, !dbg !6907
  store i8* %60, i8** %exn.slot, align 8, !dbg !6907
  %61 = extractvalue { i8*, i32 } %59, 1, !dbg !6907
  store i32 %61, i32* %ehselector.slot, align 4, !dbg !6907
  br label %ehcleanup98, !dbg !6907

lpad95:                                           ; preds = %invoke.cont93
  %62 = landingpad { i8*, i32 }
          cleanup, !dbg !6907
  %63 = extractvalue { i8*, i32 } %62, 0, !dbg !6907
  store i8* %63, i8** %exn.slot, align 8, !dbg !6907
  %64 = extractvalue { i8*, i32 } %62, 1, !dbg !6907
  store i32 %64, i32* %ehselector.slot, align 4, !dbg !6907
  call void @_ZNSaIcED1Ev(%"class.std::allocator.93"* %ref.tmp94) #3, !dbg !7175
  br label %ehcleanup98, !dbg !7175

ehcleanup98:                                      ; preds = %lpad95, %lpad92
  call void @_ZNSaIcED1Ev(%"class.std::allocator.93"* %ref.tmp91) #3, !dbg !7175
  %cleanup.is_active = load i1, i1* %cleanup.isactive, align 1, !dbg !7175
  br i1 %cleanup.is_active, label %cleanup.action, label %cleanup.done, !dbg !7175

cleanup.action:                                   ; preds = %ehcleanup98
  %65 = load %"class.std::__cxx11::basic_string"*, %"class.std::__cxx11::basic_string"** %arrayinit.endOfInit, align 8, !dbg !7175
  %arraydestroy.isempty = icmp eq %"class.std::__cxx11::basic_string"* getelementptr inbounds ([2 x %"class.std::__cxx11::basic_string"], [2 x %"class.std::__cxx11::basic_string"]* @_ZZN6dealii6GridInILi3ELi3EE8read_mshERSiE16end_nodes_markerB5cxx11, i64 0, i64 0), %65, !dbg !7175
  br i1 %arraydestroy.isempty, label %arraydestroy.done100, label %arraydestroy.body, !dbg !7175

arraydestroy.body:                                ; preds = %arraydestroy.body, %cleanup.action
  %arraydestroy.elementPast = phi %"class.std::__cxx11::basic_string"* [ %65, %cleanup.action ], [ %arraydestroy.element, %arraydestroy.body ], !dbg !7175
  %arraydestroy.element = getelementptr inbounds %"class.std::__cxx11::basic_string", %"class.std::__cxx11::basic_string"* %arraydestroy.elementPast, i64 -1, !dbg !7175
  call void @_ZNSt7__cxx1112basic_stringIcSt11char_traitsIcESaIcEED1Ev(%"class.std::__cxx11::basic_string"* %arraydestroy.element) #3, !dbg !7175
  %arraydestroy.done = icmp eq %"class.std::__cxx11::basic_string"* %arraydestroy.element, getelementptr inbounds ([2 x %"class.std::__cxx11::basic_string"], [2 x %"class.std::__cxx11::basic_string"]* @_ZZN6dealii6GridInILi3ELi3EE8read_mshERSiE16end_nodes_markerB5cxx11, i64 0, i64 0), !dbg !7175
  br i1 %arraydestroy.done, label %arraydestroy.done100, label %arraydestroy.body, !dbg !7175

arraydestroy.done100:                             ; preds = %arraydestroy.body, %cleanup.action
  br label %cleanup.done, !dbg !7175

cleanup.done:                                     ; preds = %arraydestroy.done100, %ehcleanup98
  call void @__cxa_guard_abort(i64* @_ZGVZN6dealii6GridInILi3ELi3EE8read_mshERSiE16end_nodes_markerB5cxx11) #3, !dbg !7173
  br label %ehcleanup526, !dbg !7173

lpad109:                                          ; preds = %invoke.cont108
  %66 = landingpad { i8*, i32 }
          cleanup, !dbg !7182
  %67 = extractvalue { i8*, i32 } %66, 0, !dbg !7182
  store i8* %67, i8** %exn.slot, align 8, !dbg !7182
  %68 = extractvalue { i8*, i32 } %66, 1, !dbg !7182
  store i32 %68, i32* %ehselector.slot, align 4, !dbg !7182
  br label %ehcleanup114, !dbg !7182

lpad111:                                          ; preds = %invoke.cont110
  %69 = landingpad { i8*, i32 }
          cleanup, !dbg !7182
  %70 = extractvalue { i8*, i32 } %69, 0, !dbg !7182
  store i8* %70, i8** %exn.slot, align 8, !dbg !7182
  %71 = extractvalue { i8*, i32 } %69, 1, !dbg !7182
  store i32 %71, i32* %ehselector.slot, align 4, !dbg !7182
  call void @_ZN6dealii6GridInILi3ELi3EE19ExcInvalidGMSHInputD1Ev(%"class.dealii::GridIn<3, 3>::ExcInvalidGMSHInput"* %agg.tmp106) #3, !dbg !7178
  br label %ehcleanup114, !dbg !7178

ehcleanup114:                                     ; preds = %lpad111, %lpad109
  call void @_ZNSt7__cxx1112basic_stringIcSt11char_traitsIcESaIcEED1Ev(%"class.std::__cxx11::basic_string"* %agg.tmp107) #3, !dbg !7178
  br label %ehcleanup526, !dbg !7178

if.end115:                                        ; preds = %invoke.cont112, %init.end
  %72 = load %"class.std::basic_istream"*, %"class.std::basic_istream"** %in.addr, align 8, !dbg !7183
  %call117 = invoke dereferenceable(280) %"class.std::basic_istream"* @_ZStrsIcSt11char_traitsIcESaIcEERSt13basic_istreamIT_T0_ES7_RNSt7__cxx1112basic_stringIS4_S5_T1_EE(%"class.std::basic_istream"* dereferenceable(280) %72, %"class.std::__cxx11::basic_string"* dereferenceable(32) %line)
          to label %invoke.cont116 unwind label %lpad65, !dbg !7184

invoke.cont116:                                   ; preds = %if.end115
  %73 = load atomic i8, i8* bitcast (i64* @_ZGVZN6dealii6GridInILi3ELi3EE8read_mshERSiE21begin_elements_markerB5cxx11 to i8*) acquire, align 8, !dbg !7185
  %guard.uninitialized118 = icmp eq i8 %73, 0, !dbg !7185
  br i1 %guard.uninitialized118, label %init.check119, label %init.end143, !dbg !7185, !prof !7174

init.check119:                                    ; preds = %invoke.cont116
  %74 = call i32 @__cxa_guard_acquire(i64* @_ZGVZN6dealii6GridInILi3ELi3EE8read_mshERSiE21begin_elements_markerB5cxx11) #3, !dbg !7185
  %tobool120 = icmp ne i32 %74, 0, !dbg !7185
  br i1 %tobool120, label %init121, label %init.end143, !dbg !7185

init121:                                          ; preds = %init.check119
  store i1 true, i1* %cleanup.isactive129, align 1
  store %"class.std::__cxx11::basic_string"* getelementptr inbounds ([2 x %"class.std::__cxx11::basic_string"], [2 x %"class.std::__cxx11::basic_string"]* @_ZZN6dealii6GridInILi3ELi3EE8read_mshERSiE21begin_elements_markerB5cxx11, i64 0, i64 0), %"class.std::__cxx11::basic_string"** %arrayinit.endOfInit122, align 8, !dbg !7186
  call void @_ZNSaIcEC1Ev(%"class.std::allocator.93"* %ref.tmp123) #3, !dbg !7187
  invoke void @_ZNSt7__cxx1112basic_stringIcSt11char_traitsIcESaIcEEC1EPKcRKS3_(%"class.std::__cxx11::basic_string"* getelementptr inbounds ([2 x %"class.std::__cxx11::basic_string"], [2 x %"class.std::__cxx11::basic_string"]* @_ZZN6dealii6GridInILi3ELi3EE8read_mshERSiE21begin_elements_markerB5cxx11, i64 0, i64 0), i8* getelementptr inbounds ([5 x i8], [5 x i8]* @.str.42, i64 0, i64 0), %"class.std::allocator.93"* dereferenceable(1) %ref.tmp123)
          to label %invoke.cont125 unwind label %lpad124, !dbg !7187

invoke.cont125:                                   ; preds = %init121
  store %"class.std::__cxx11::basic_string"* getelementptr inbounds ([2 x %"class.std::__cxx11::basic_string"], [2 x %"class.std::__cxx11::basic_string"]* @_ZZN6dealii6GridInILi3ELi3EE8read_mshERSiE21begin_elements_markerB5cxx11, i64 0, i64 1), %"class.std::__cxx11::basic_string"** %arrayinit.endOfInit122, align 8, !dbg !7186
  call void @_ZNSaIcEC1Ev(%"class.std::allocator.93"* %ref.tmp126) #3, !dbg !7188
  invoke void @_ZNSt7__cxx1112basic_stringIcSt11char_traitsIcESaIcEEC1EPKcRKS3_(%"class.std::__cxx11::basic_string"* getelementptr inbounds ([2 x %"class.std::__cxx11::basic_string"], [2 x %"class.std::__cxx11::basic_string"]* @_ZZN6dealii6GridInILi3ELi3EE8read_mshERSiE21begin_elements_markerB5cxx11, i64 0, i64 1), i8* getelementptr inbounds ([10 x i8], [10 x i8]* @.str.43, i64 0, i64 0), %"class.std::allocator.93"* dereferenceable(1) %ref.tmp126)
          to label %invoke.cont128 unwind label %lpad127, !dbg !7188

invoke.cont128:                                   ; preds = %invoke.cont125
  store i1 false, i1* %cleanup.isactive129, align 1, !dbg !7186
  call void @_ZNSaIcED1Ev(%"class.std::allocator.93"* %ref.tmp126) #3, !dbg !7186
  call void @_ZNSaIcED1Ev(%"class.std::allocator.93"* %ref.tmp123) #3, !dbg !7186
  %75 = call i32 @__cxa_atexit(void (i8*)* @__cxx_global_array_dtor.44, i8* null, i8* @__dso_handle) #3, !dbg !7185
  call void @__cxa_guard_release(i64* @_ZGVZN6dealii6GridInILi3ELi3EE8read_mshERSiE21begin_elements_markerB5cxx11) #3, !dbg !7185
  br label %init.end143, !dbg !7185

init.end143:                                      ; preds = %invoke.cont128, %init.check119, %invoke.cont116
  %76 = load i32, i32* %gmsh_file_format, align 4, !dbg !7189
  %sub144 = sub i32 %76, 1, !dbg !7189
  %idxprom145 = zext i32 %sub144 to i64, !dbg !7189
  %arrayidx146 = getelementptr inbounds [2 x %"class.std::__cxx11::basic_string"], [2 x %"class.std::__cxx11::basic_string"]* @_ZZN6dealii6GridInILi3ELi3EE8read_mshERSiE21begin_elements_markerB5cxx11, i64 0, i64 %idxprom145, !dbg !7189
  %call147 = call zeroext i1 @_ZSteqIcEN9__gnu_cxx11__enable_ifIXsr9__is_charIT_EE7__valueEbE6__typeERKNSt7__cxx1112basic_stringIS2_St11char_traitsIS2_ESaIS2_EEESC_(%"class.std::__cxx11::basic_string"* dereferenceable(32) %line, %"class.std::__cxx11::basic_string"* dereferenceable(32) %arrayidx146) #3, !dbg !7189
  br i1 %call147, label %if.end158, label %if.then148, !dbg !7192

if.then148:                                       ; preds = %init.end143
  invoke void @_ZNSt7__cxx1112basic_stringIcSt11char_traitsIcESaIcEEC1ERKS4_(%"class.std::__cxx11::basic_string"* %agg.tmp150, %"class.std::__cxx11::basic_string"* dereferenceable(32) %line)
          to label %invoke.cont151 unwind label %lpad65, !dbg !7189

invoke.cont151:                                   ; preds = %if.then148
  invoke void @_ZN6dealii6GridInILi3ELi3EE19ExcInvalidGMSHInputC1ENSt7__cxx1112basic_stringIcSt11char_traitsIcESaIcEEE(%"class.dealii::GridIn<3, 3>::ExcInvalidGMSHInput"* %agg.tmp149, %"class.std::__cxx11::basic_string"* %agg.tmp150)
          to label %invoke.cont153 unwind label %lpad152, !dbg !7189

invoke.cont153:                                   ; preds = %invoke.cont151
  invoke void @_ZN6dealii18deal_II_exceptions9internals17issue_error_throwINS_6GridInILi3ELi3EE19ExcInvalidGMSHInputEEEvPKciS7_S7_S7_T_(i8* getelementptr inbounds ([23 x i8], [23 x i8]* @.str.2, i64 0, i64 0), i32 632, i8* getelementptr inbounds ([1 x i8], [1 x i8]* @.str.3, i64 0, i64 0), i8* getelementptr inbounds ([48 x i8], [48 x i8]* @.str.45, i64 0, i64 0), i8* getelementptr inbounds ([26 x i8], [26 x i8]* @.str.34, i64 0, i64 0), %"class.dealii::GridIn<3, 3>::ExcInvalidGMSHInput"* %agg.tmp149)
          to label %invoke.cont155 unwind label %lpad154, !dbg !7189

invoke.cont155:                                   ; preds = %invoke.cont153
  call void @_ZN6dealii6GridInILi3ELi3EE19ExcInvalidGMSHInputD1Ev(%"class.dealii::GridIn<3, 3>::ExcInvalidGMSHInput"* %agg.tmp149) #3, !dbg !7189
  call void @_ZNSt7__cxx1112basic_stringIcSt11char_traitsIcESaIcEED1Ev(%"class.std::__cxx11::basic_string"* %agg.tmp150) #3, !dbg !7189
  br label %if.end158, !dbg !7189

lpad124:                                          ; preds = %init121
  %77 = landingpad { i8*, i32 }
          cleanup, !dbg !6907
  %78 = extractvalue { i8*, i32 } %77, 0, !dbg !6907
  store i8* %78, i8** %exn.slot, align 8, !dbg !6907
  %79 = extractvalue { i8*, i32 } %77, 1, !dbg !6907
  store i32 %79, i32* %ehselector.slot, align 4, !dbg !6907
  br label %ehcleanup131, !dbg !6907

lpad127:                                          ; preds = %invoke.cont125
  %80 = landingpad { i8*, i32 }
          cleanup, !dbg !6907
  %81 = extractvalue { i8*, i32 } %80, 0, !dbg !6907
  store i8* %81, i8** %exn.slot, align 8, !dbg !6907
  %82 = extractvalue { i8*, i32 } %80, 1, !dbg !6907
  store i32 %82, i32* %ehselector.slot, align 4, !dbg !6907
  call void @_ZNSaIcED1Ev(%"class.std::allocator.93"* %ref.tmp126) #3, !dbg !7186
  br label %ehcleanup131, !dbg !7186

ehcleanup131:                                     ; preds = %lpad127, %lpad124
  call void @_ZNSaIcED1Ev(%"class.std::allocator.93"* %ref.tmp123) #3, !dbg !7186
  %cleanup.is_active133 = load i1, i1* %cleanup.isactive129, align 1, !dbg !7186
  br i1 %cleanup.is_active133, label %cleanup.action134, label %cleanup.done141, !dbg !7186

cleanup.action134:                                ; preds = %ehcleanup131
  %83 = load %"class.std::__cxx11::basic_string"*, %"class.std::__cxx11::basic_string"** %arrayinit.endOfInit122, align 8, !dbg !7186
  %arraydestroy.isempty135 = icmp eq %"class.std::__cxx11::basic_string"* getelementptr inbounds ([2 x %"class.std::__cxx11::basic_string"], [2 x %"class.std::__cxx11::basic_string"]* @_ZZN6dealii6GridInILi3ELi3EE8read_mshERSiE21begin_elements_markerB5cxx11, i64 0, i64 0), %83, !dbg !7186
  br i1 %arraydestroy.isempty135, label %arraydestroy.done140, label %arraydestroy.body136, !dbg !7186

arraydestroy.body136:                             ; preds = %arraydestroy.body136, %cleanup.action134
  %arraydestroy.elementPast137 = phi %"class.std::__cxx11::basic_string"* [ %83, %cleanup.action134 ], [ %arraydestroy.element138, %arraydestroy.body136 ], !dbg !7186
  %arraydestroy.element138 = getelementptr inbounds %"class.std::__cxx11::basic_string", %"class.std::__cxx11::basic_string"* %arraydestroy.elementPast137, i64 -1, !dbg !7186
  call void @_ZNSt7__cxx1112basic_stringIcSt11char_traitsIcESaIcEED1Ev(%"class.std::__cxx11::basic_string"* %arraydestroy.element138) #3, !dbg !7186
  %arraydestroy.done139 = icmp eq %"class.std::__cxx11::basic_string"* %arraydestroy.element138, getelementptr inbounds ([2 x %"class.std::__cxx11::basic_string"], [2 x %"class.std::__cxx11::basic_string"]* @_ZZN6dealii6GridInILi3ELi3EE8read_mshERSiE21begin_elements_markerB5cxx11, i64 0, i64 0), !dbg !7186
  br i1 %arraydestroy.done139, label %arraydestroy.done140, label %arraydestroy.body136, !dbg !7186

arraydestroy.done140:                             ; preds = %arraydestroy.body136, %cleanup.action134
  br label %cleanup.done141, !dbg !7186

cleanup.done141:                                  ; preds = %arraydestroy.done140, %ehcleanup131
  call void @__cxa_guard_abort(i64* @_ZGVZN6dealii6GridInILi3ELi3EE8read_mshERSiE21begin_elements_markerB5cxx11) #3, !dbg !7185
  br label %ehcleanup526, !dbg !7185

lpad152:                                          ; preds = %invoke.cont151
  %84 = landingpad { i8*, i32 }
          cleanup, !dbg !7193
  %85 = extractvalue { i8*, i32 } %84, 0, !dbg !7193
  store i8* %85, i8** %exn.slot, align 8, !dbg !7193
  %86 = extractvalue { i8*, i32 } %84, 1, !dbg !7193
  store i32 %86, i32* %ehselector.slot, align 4, !dbg !7193
  br label %ehcleanup157, !dbg !7193

lpad154:                                          ; preds = %invoke.cont153
  %87 = landingpad { i8*, i32 }
          cleanup, !dbg !7193
  %88 = extractvalue { i8*, i32 } %87, 0, !dbg !7193
  store i8* %88, i8** %exn.slot, align 8, !dbg !7193
  %89 = extractvalue { i8*, i32 } %87, 1, !dbg !7193
  store i32 %89, i32* %ehselector.slot, align 4, !dbg !7193
  call void @_ZN6dealii6GridInILi3ELi3EE19ExcInvalidGMSHInputD1Ev(%"class.dealii::GridIn<3, 3>::ExcInvalidGMSHInput"* %agg.tmp149) #3, !dbg !7189
  br label %ehcleanup157, !dbg !7189

ehcleanup157:                                     ; preds = %lpad154, %lpad152
  call void @_ZNSt7__cxx1112basic_stringIcSt11char_traitsIcESaIcEED1Ev(%"class.std::__cxx11::basic_string"* %agg.tmp150) #3, !dbg !7189
  br label %ehcleanup526, !dbg !7189

if.end158:                                        ; preds = %invoke.cont155, %init.end143
  %90 = load %"class.std::basic_istream"*, %"class.std::basic_istream"** %in.addr, align 8, !dbg !7194
  %call160 = invoke dereferenceable(280) %"class.std::basic_istream"* @_ZNSirsERj(%"class.std::basic_istream"* %90, i32* dereferenceable(4) %n_cells)
          to label %invoke.cont159 unwind label %lpad65, !dbg !7195

invoke.cont159:                                   ; preds = %if.end158
  call void @llvm.dbg.declare(metadata %"class.std::vector.110"* %cells, metadata !7196, metadata !DIExpression()), !dbg !7197
  call void @_ZNSt6vectorIN6dealii8CellDataILi3EEESaIS2_EEC2Ev(%"class.std::vector.110"* %cells) #3, !dbg !7197
  call void @llvm.dbg.declare(metadata %"struct.dealii::SubCellData"* %subcelldata, metadata !7198, metadata !DIExpression()), !dbg !7199
  call void @_ZN6dealii11SubCellDataC2Ev(%"struct.dealii::SubCellData"* %subcelldata) #3, !dbg !7199
  call void @llvm.dbg.declare(metadata i32* %cell, metadata !7200, metadata !DIExpression()), !dbg !7202
  store i32 0, i32* %cell, align 4, !dbg !7202
  br label %for.cond161, !dbg !7203

for.cond161:                                      ; preds = %for.inc458, %invoke.cont159
  %91 = load i32, i32* %cell, align 4, !dbg !7204
  %92 = load i32, i32* %n_cells, align 4, !dbg !7206
  %cmp162 = icmp ult i32 %91, %92, !dbg !7207
  br i1 %cmp162, label %for.body163, label %for.end460, !dbg !7208

for.body163:                                      ; preds = %for.cond161
  %93 = load %"class.std::basic_istream"*, %"class.std::basic_istream"** %in.addr, align 8, !dbg !7209
  %94 = bitcast %"class.std::basic_istream"* %93 to i8**, !dbg !7209
  %vtable164 = load i8*, i8** %94, align 8, !dbg !7209
  %vbase.offset.ptr165 = getelementptr i8, i8* %vtable164, i64 -24, !dbg !7209
  %95 = bitcast i8* %vbase.offset.ptr165 to i64*, !dbg !7209
  %vbase.offset166 = load i64, i64* %95, align 8, !dbg !7209
  %96 = bitcast %"class.std::basic_istream"* %93 to i8*, !dbg !7209
  %add.ptr167 = getelementptr inbounds i8, i8* %96, i64 %vbase.offset166, !dbg !7209
  %97 = bitcast i8* %add.ptr167 to %"class.std::basic_ios"*, !dbg !7209
  %call170 = invoke zeroext i1 @_ZNKSt9basic_iosIcSt11char_traitsIcEEntEv(%"class.std::basic_ios"* %97)
          to label %invoke.cont169 unwind label %lpad168, !dbg !7209

invoke.cont169:                                   ; preds = %for.body163
  br i1 %call170, label %if.then171, label %if.end177, !dbg !7213

if.then171:                                       ; preds = %invoke.cont169
  %98 = bitcast %"class.dealii::StandardExceptions::ExcIO"* %agg.tmp172 to i8*, !dbg !7209
  call void @llvm.memset.p0i8.i64(i8* align 8 %98, i8 0, i64 64, i1 false), !dbg !7209
  invoke void @_ZN6dealii18StandardExceptions5ExcIOC2Ev(%"class.dealii::StandardExceptions::ExcIO"* %agg.tmp172)
          to label %invoke.cont173 unwind label %lpad168, !dbg !7209

invoke.cont173:                                   ; preds = %if.then171
  invoke void @_ZN6dealii18deal_II_exceptions9internals17issue_error_throwINS_18StandardExceptions5ExcIOEEEvPKciS6_S6_S6_T_(i8* getelementptr inbounds ([23 x i8], [23 x i8]* @.str.2, i64 0, i64 0), i32 646, i8* getelementptr inbounds ([1 x i8], [1 x i8]* @.str.3, i64 0, i64 0), i8* getelementptr inbounds ([3 x i8], [3 x i8]* @.str.4, i64 0, i64 0), i8* getelementptr inbounds ([8 x i8], [8 x i8]* @.str.5, i64 0, i64 0), %"class.dealii::StandardExceptions::ExcIO"* %agg.tmp172)
          to label %invoke.cont175 unwind label %lpad174, !dbg !7209

invoke.cont175:                                   ; preds = %invoke.cont173
  call void @_ZN6dealii18StandardExceptions5ExcIOD2Ev(%"class.dealii::StandardExceptions::ExcIO"* %agg.tmp172) #3, !dbg !7209
  br label %if.end177, !dbg !7209

lpad168:                                          ; preds = %invoke.cont520, %invoke.cont519, %invoke.cont518, %invoke.cont517, %if.end516, %if.then510, %if.end503, %if.then493, %for.end460, %if.else448, %sw.bb444, %for.body438, %if.then407, %for.body392, %invoke.cont377, %invoke.cont371, %invoke.cont365, %invoke.cont360, %if.then358, %if.else336, %if.then322, %for.body307, %invoke.cont292, %invoke.cont287, %if.then285, %if.end268, %if.then258, %for.body245, %for.body229, %if.end223, %if.then217, %sw.default, %for.body199, %if.then192, %sw.bb188, %invoke.cont184, %invoke.cont182, %sw.bb, %invoke.cont178, %if.end177, %if.then171, %for.body163
  %99 = landingpad { i8*, i32 }
          cleanup, !dbg !7214
  %100 = extractvalue { i8*, i32 } %99, 0, !dbg !7214
  store i8* %100, i8** %exn.slot, align 8, !dbg !7214
  %101 = extractvalue { i8*, i32 } %99, 1, !dbg !7214
  store i32 %101, i32* %ehselector.slot, align 4, !dbg !7214
  br label %ehcleanup524, !dbg !7214

lpad174:                                          ; preds = %invoke.cont173
  %102 = landingpad { i8*, i32 }
          cleanup, !dbg !7214
  %103 = extractvalue { i8*, i32 } %102, 0, !dbg !7214
  store i8* %103, i8** %exn.slot, align 8, !dbg !7214
  %104 = extractvalue { i8*, i32 } %102, 1, !dbg !7214
  store i32 %104, i32* %ehselector.slot, align 4, !dbg !7214
  call void @_ZN6dealii18StandardExceptions5ExcIOD2Ev(%"class.dealii::StandardExceptions::ExcIO"* %agg.tmp172) #3, !dbg !7209
  br label %ehcleanup524, !dbg !7209

if.end177:                                        ; preds = %invoke.cont175, %invoke.cont169
  call void @llvm.dbg.declare(metadata i32* %cell_type, metadata !7215, metadata !DIExpression()), !dbg !7216
  call void @llvm.dbg.declare(metadata i32* %material_id, metadata !7217, metadata !DIExpression()), !dbg !7218
  call void @llvm.dbg.declare(metadata i32* %nod_num, metadata !7219, metadata !DIExpression()), !dbg !7220
  %105 = load %"class.std::basic_istream"*, %"class.std::basic_istream"** %in.addr, align 8, !dbg !7221
  %call179 = invoke dereferenceable(280) %"class.std::basic_istream"* @_ZNSirsERj(%"class.std::basic_istream"* %105, i32* dereferenceable(4) %dummy)
          to label %invoke.cont178 unwind label %lpad168, !dbg !7222

invoke.cont178:                                   ; preds = %if.end177
  %call181 = invoke dereferenceable(280) %"class.std::basic_istream"* @_ZNSirsERj(%"class.std::basic_istream"* %call179, i32* dereferenceable(4) %cell_type)
          to label %invoke.cont180 unwind label %lpad168, !dbg !7223

invoke.cont180:                                   ; preds = %invoke.cont178
  %106 = load i32, i32* %gmsh_file_format, align 4, !dbg !7224
  switch i32 %106, label %sw.default [
    i32 1, label %sw.bb
    i32 2, label %sw.bb188
  ], !dbg !7225

sw.bb:                                            ; preds = %invoke.cont180
  %107 = load %"class.std::basic_istream"*, %"class.std::basic_istream"** %in.addr, align 8, !dbg !7226
  %call183 = invoke dereferenceable(280) %"class.std::basic_istream"* @_ZNSirsERj(%"class.std::basic_istream"* %107, i32* dereferenceable(4) %material_id)
          to label %invoke.cont182 unwind label %lpad168, !dbg !7229

invoke.cont182:                                   ; preds = %sw.bb
  %call185 = invoke dereferenceable(280) %"class.std::basic_istream"* @_ZNSirsERj(%"class.std::basic_istream"* %call183, i32* dereferenceable(4) %dummy)
          to label %invoke.cont184 unwind label %lpad168, !dbg !7230

invoke.cont184:                                   ; preds = %invoke.cont182
  %call187 = invoke dereferenceable(280) %"class.std::basic_istream"* @_ZNSirsERj(%"class.std::basic_istream"* %call185, i32* dereferenceable(4) %nod_num)
          to label %invoke.cont186 unwind label %lpad168, !dbg !7231

invoke.cont186:                                   ; preds = %invoke.cont184
  br label %sw.epilog, !dbg !7232

sw.bb188:                                         ; preds = %invoke.cont180
  call void @llvm.dbg.declare(metadata i32* %n_tags, metadata !7233, metadata !DIExpression()), !dbg !7235
  %108 = load %"class.std::basic_istream"*, %"class.std::basic_istream"** %in.addr, align 8, !dbg !7236
  %call190 = invoke dereferenceable(280) %"class.std::basic_istream"* @_ZNSirsERj(%"class.std::basic_istream"* %108, i32* dereferenceable(4) %n_tags)
          to label %invoke.cont189 unwind label %lpad168, !dbg !7237

invoke.cont189:                                   ; preds = %sw.bb188
  %109 = load i32, i32* %n_tags, align 4, !dbg !7238
  %cmp191 = icmp ugt i32 %109, 0, !dbg !7240
  br i1 %cmp191, label %if.then192, label %if.else195, !dbg !7241

if.then192:                                       ; preds = %invoke.cont189
  %110 = load %"class.std::basic_istream"*, %"class.std::basic_istream"** %in.addr, align 8, !dbg !7242
  %call194 = invoke dereferenceable(280) %"class.std::basic_istream"* @_ZNSirsERj(%"class.std::basic_istream"* %110, i32* dereferenceable(4) %material_id)
          to label %invoke.cont193 unwind label %lpad168, !dbg !7243

invoke.cont193:                                   ; preds = %if.then192
  br label %if.end196, !dbg !7242

if.else195:                                       ; preds = %invoke.cont189
  store i32 0, i32* %material_id, align 4, !dbg !7244
  br label %if.end196

if.end196:                                        ; preds = %if.else195, %invoke.cont193
  call void @llvm.dbg.declare(metadata i32* %i, metadata !7245, metadata !DIExpression()), !dbg !7247
  store i32 1, i32* %i, align 4, !dbg !7247
  br label %for.cond197, !dbg !7248

for.cond197:                                      ; preds = %for.inc202, %if.end196
  %111 = load i32, i32* %i, align 4, !dbg !7249
  %112 = load i32, i32* %n_tags, align 4, !dbg !7251
  %cmp198 = icmp ult i32 %111, %112, !dbg !7252
  br i1 %cmp198, label %for.body199, label %for.end204, !dbg !7253

for.body199:                                      ; preds = %for.cond197
  %113 = load %"class.std::basic_istream"*, %"class.std::basic_istream"** %in.addr, align 8, !dbg !7254
  %call201 = invoke dereferenceable(280) %"class.std::basic_istream"* @_ZNSirsERj(%"class.std::basic_istream"* %113, i32* dereferenceable(4) %dummy)
          to label %invoke.cont200 unwind label %lpad168, !dbg !7255

invoke.cont200:                                   ; preds = %for.body199
  br label %for.inc202, !dbg !7254

for.inc202:                                       ; preds = %invoke.cont200
  %114 = load i32, i32* %i, align 4, !dbg !7256
  %inc203 = add i32 %114, 1, !dbg !7256
  store i32 %inc203, i32* %i, align 4, !dbg !7256
  br label %for.cond197, !dbg !7257, !llvm.loop !7258

for.end204:                                       ; preds = %for.cond197
  store i32 8, i32* %nod_num, align 4, !dbg !7260
  br label %sw.epilog, !dbg !7261

sw.default:                                       ; preds = %invoke.cont180
  %115 = bitcast %"class.dealii::StandardExceptions::ExcNotImplemented"* %agg.tmp205 to i8*, !dbg !7262
  call void @llvm.memset.p0i8.i64(i8* align 8 %115, i8 0, i64 64, i1 false), !dbg !7262
  invoke void @_ZN6dealii18StandardExceptions17ExcNotImplementedC2Ev(%"class.dealii::StandardExceptions::ExcNotImplemented"* %agg.tmp205)
          to label %invoke.cont206 unwind label %lpad168, !dbg !7262

invoke.cont206:                                   ; preds = %sw.default
  invoke void @_ZN6dealii18deal_II_exceptions9internals17issue_error_throwINS_18StandardExceptions17ExcNotImplementedEEEvPKciS6_S6_S6_T_(i8* getelementptr inbounds ([23 x i8], [23 x i8]* @.str.2, i64 0, i64 0), i32 698, i8* getelementptr inbounds ([1 x i8], [1 x i8]* @.str.3, i64 0, i64 0), i8* getelementptr inbounds ([6 x i8], [6 x i8]* @.str.9, i64 0, i64 0), i8* getelementptr inbounds ([20 x i8], [20 x i8]* @.str.46, i64 0, i64 0), %"class.dealii::StandardExceptions::ExcNotImplemented"* %agg.tmp205)
          to label %invoke.cont208 unwind label %lpad207, !dbg !7262

invoke.cont208:                                   ; preds = %invoke.cont206
  call void @_ZN6dealii18StandardExceptions17ExcNotImplementedD2Ev(%"class.dealii::StandardExceptions::ExcNotImplemented"* %agg.tmp205) #3, !dbg !7262
  br label %sw.epilog, !dbg !7265

sw.epilog:                                        ; preds = %invoke.cont208, %for.end204, %invoke.cont186
  %116 = load i32, i32* %cell_type, align 4, !dbg !7266
  %cmp210 = icmp eq i32 %116, 1, !dbg !7268
  br i1 %cmp210, label %land.lhs.true, label %lor.lhs.false, !dbg !7269

land.lhs.true:                                    ; preds = %sw.epilog
  br i1 false, label %if.then215, label %lor.lhs.false, !dbg !7270

lor.lhs.false:                                    ; preds = %land.lhs.true, %sw.epilog
  %117 = load i32, i32* %cell_type, align 4, !dbg !7271
  %cmp211 = icmp eq i32 %117, 3, !dbg !7272
  br i1 %cmp211, label %land.lhs.true212, label %lor.lhs.false213, !dbg !7273

land.lhs.true212:                                 ; preds = %lor.lhs.false
  br i1 false, label %if.then215, label %lor.lhs.false213, !dbg !7274

lor.lhs.false213:                                 ; preds = %land.lhs.true212, %lor.lhs.false
  %118 = load i32, i32* %cell_type, align 4, !dbg !7275
  %cmp214 = icmp eq i32 %118, 5, !dbg !7276
  br i1 %cmp214, label %if.then215, label %if.else283, !dbg !7277

if.then215:                                       ; preds = %lor.lhs.false213, %land.lhs.true212, %land.lhs.true
  %119 = load i32, i32* %nod_num, align 4, !dbg !7278
  %cmp216 = icmp eq i32 %119, 8, !dbg !7278
  br i1 %cmp216, label %if.end223, label %if.then217, !dbg !7282

if.then217:                                       ; preds = %if.then215
  invoke void @_ZN6dealii18StandardExceptions10ExcMessageC2EPKc(%"class.dealii::StandardExceptions::ExcMessage"* %agg.tmp218, i8* getelementptr inbounds ([75 x i8], [75 x i8]* @.str.49, i64 0, i64 0))
          to label %invoke.cont219 unwind label %lpad168, !dbg !7278

invoke.cont219:                                   ; preds = %if.then217
  invoke void @_ZN6dealii18deal_II_exceptions9internals17issue_error_throwINS_18StandardExceptions10ExcMessageEEEvPKciS6_S6_S6_T_(i8* getelementptr inbounds ([23 x i8], [23 x i8]* @.str.2, i64 0, i64 0), i32 724, i8* getelementptr inbounds ([1 x i8], [1 x i8]* @.str.3, i64 0, i64 0), i8* getelementptr inbounds ([48 x i8], [48 x i8]* @.str.47, i64 0, i64 0), i8* getelementptr inbounds ([93 x i8], [93 x i8]* @.str.48, i64 0, i64 0), %"class.dealii::StandardExceptions::ExcMessage"* %agg.tmp218)
          to label %invoke.cont221 unwind label %lpad220, !dbg !7278

invoke.cont221:                                   ; preds = %invoke.cont219
  call void @_ZN6dealii18StandardExceptions10ExcMessageD2Ev(%"class.dealii::StandardExceptions::ExcMessage"* %agg.tmp218) #3, !dbg !7278
  br label %if.end223, !dbg !7278

lpad207:                                          ; preds = %invoke.cont206
  %120 = landingpad { i8*, i32 }
          cleanup, !dbg !7283
  %121 = extractvalue { i8*, i32 } %120, 0, !dbg !7283
  store i8* %121, i8** %exn.slot, align 8, !dbg !7283
  %122 = extractvalue { i8*, i32 } %120, 1, !dbg !7283
  store i32 %122, i32* %ehselector.slot, align 4, !dbg !7283
  call void @_ZN6dealii18StandardExceptions17ExcNotImplementedD2Ev(%"class.dealii::StandardExceptions::ExcNotImplemented"* %agg.tmp205) #3, !dbg !7262
  br label %ehcleanup524, !dbg !7262

lpad220:                                          ; preds = %invoke.cont219
  %123 = landingpad { i8*, i32 }
          cleanup, !dbg !7284
  %124 = extractvalue { i8*, i32 } %123, 0, !dbg !7284
  store i8* %124, i8** %exn.slot, align 8, !dbg !7284
  %125 = extractvalue { i8*, i32 } %123, 1, !dbg !7284
  store i32 %125, i32* %ehselector.slot, align 4, !dbg !7284
  call void @_ZN6dealii18StandardExceptions10ExcMessageD2Ev(%"class.dealii::StandardExceptions::ExcMessage"* %agg.tmp218) #3, !dbg !7278
  br label %ehcleanup524, !dbg !7278

if.end223:                                        ; preds = %invoke.cont221, %if.then215
  %126 = bitcast %"struct.dealii::CellData"* %ref.tmp224 to i8*, !dbg !7285
  call void @llvm.memset.p0i8.i64(i8* align 4 %126, i8 0, i64 36, i1 false), !dbg !7285
  invoke void @_ZNSt6vectorIN6dealii8CellDataILi3EEESaIS2_EE9push_backEOS2_(%"class.std::vector.110"* %cells, %"struct.dealii::CellData"* dereferenceable(36) %ref.tmp224)
          to label %invoke.cont225 unwind label %lpad168, !dbg !7286

invoke.cont225:                                   ; preds = %if.end223
  call void @llvm.dbg.declare(metadata i32* %i226, metadata !7287, metadata !DIExpression()), !dbg !7289
  store i32 0, i32* %i226, align 4, !dbg !7289
  br label %for.cond227, !dbg !7290

for.cond227:                                      ; preds = %for.inc236, %invoke.cont225
  %127 = load i32, i32* %i226, align 4, !dbg !7291
  %cmp228 = icmp ult i32 %127, 8, !dbg !7293
  br i1 %cmp228, label %for.body229, label %for.end238, !dbg !7294

for.body229:                                      ; preds = %for.cond227
  %128 = load %"class.std::basic_istream"*, %"class.std::basic_istream"** %in.addr, align 8, !dbg !7295
  %call230 = call dereferenceable(36) %"struct.dealii::CellData"* @_ZNSt6vectorIN6dealii8CellDataILi3EEESaIS2_EE4backEv(%"class.std::vector.110"* %cells) #3, !dbg !7296
  %vertices231 = getelementptr inbounds %"struct.dealii::CellData", %"struct.dealii::CellData"* %call230, i32 0, i32 0, !dbg !7297
  %129 = load i32, i32* %i226, align 4, !dbg !7298
  %idxprom232 = zext i32 %129 to i64, !dbg !7299
  %arrayidx233 = getelementptr inbounds [8 x i32], [8 x i32]* %vertices231, i64 0, i64 %idxprom232, !dbg !7299
  %call235 = invoke dereferenceable(280) %"class.std::basic_istream"* @_ZNSirsERj(%"class.std::basic_istream"* %128, i32* dereferenceable(4) %arrayidx233)
          to label %invoke.cont234 unwind label %lpad168, !dbg !7300

invoke.cont234:                                   ; preds = %for.body229
  br label %for.inc236, !dbg !7295

for.inc236:                                       ; preds = %invoke.cont234
  %130 = load i32, i32* %i226, align 4, !dbg !7301
  %inc237 = add i32 %130, 1, !dbg !7301
  store i32 %inc237, i32* %i226, align 4, !dbg !7301
  br label %for.cond227, !dbg !7302, !llvm.loop !7303

for.end238:                                       ; preds = %for.cond227
  %131 = load i32, i32* %material_id, align 4, !dbg !7305
  %conv239 = trunc i32 %131 to i8, !dbg !7305
  %call240 = call dereferenceable(36) %"struct.dealii::CellData"* @_ZNSt6vectorIN6dealii8CellDataILi3EEESaIS2_EE4backEv(%"class.std::vector.110"* %cells) #3, !dbg !7306
  %material_id241 = getelementptr inbounds %"struct.dealii::CellData", %"struct.dealii::CellData"* %call240, i32 0, i32 1, !dbg !7307
  store i8 %conv239, i8* %material_id241, align 4, !dbg !7308
  call void @llvm.dbg.declare(metadata i32* %i242, metadata !7309, metadata !DIExpression()), !dbg !7311
  store i32 0, i32* %i242, align 4, !dbg !7311
  br label %for.cond243, !dbg !7312

for.cond243:                                      ; preds = %for.inc280, %for.end238
  %132 = load i32, i32* %i242, align 4, !dbg !7313
  %cmp244 = icmp ult i32 %132, 8, !dbg !7315
  br i1 %cmp244, label %for.body245, label %for.end282, !dbg !7316

for.body245:                                      ; preds = %for.cond243
  %call248 = call dereferenceable(36) %"struct.dealii::CellData"* @_ZNSt6vectorIN6dealii8CellDataILi3EEESaIS2_EE4backEv(%"class.std::vector.110"* %cells) #3, !dbg !7317
  %vertices249 = getelementptr inbounds %"struct.dealii::CellData", %"struct.dealii::CellData"* %call248, i32 0, i32 0, !dbg !7317
  %133 = load i32, i32* %i242, align 4, !dbg !7317
  %idxprom250 = zext i32 %133 to i64, !dbg !7317
  %arrayidx251 = getelementptr inbounds [8 x i32], [8 x i32]* %vertices249, i64 0, i64 %idxprom250, !dbg !7317
  %134 = load i32, i32* %arrayidx251, align 4, !dbg !7317
  store i32 %134, i32* %ref.tmp247, align 4, !dbg !7317
  %call253 = invoke %"struct.std::_Rb_tree_node_base"* @_ZNSt3mapIiiSt4lessIiESaISt4pairIKiiEEE4findERS3_(%"class.std::map.102"* %vertex_indices, i32* dereferenceable(4) %ref.tmp247)
          to label %invoke.cont252 unwind label %lpad168, !dbg !7317

invoke.cont252:                                   ; preds = %for.body245
  %coerce.dive = getelementptr inbounds %"struct.std::_Rb_tree_iterator", %"struct.std::_Rb_tree_iterator"* %ref.tmp246, i32 0, i32 0, !dbg !7317
  store %"struct.std::_Rb_tree_node_base"* %call253, %"struct.std::_Rb_tree_node_base"** %coerce.dive, align 8, !dbg !7317
  %call255 = call %"struct.std::_Rb_tree_node_base"* @_ZNSt3mapIiiSt4lessIiESaISt4pairIKiiEEE3endEv(%"class.std::map.102"* %vertex_indices) #3, !dbg !7317
  %coerce.dive256 = getelementptr inbounds %"struct.std::_Rb_tree_iterator", %"struct.std::_Rb_tree_iterator"* %ref.tmp254, i32 0, i32 0, !dbg !7317
  store %"struct.std::_Rb_tree_node_base"* %call255, %"struct.std::_Rb_tree_node_base"** %coerce.dive256, align 8, !dbg !7317
  %call257 = call zeroext i1 @_ZStneRKSt17_Rb_tree_iteratorISt4pairIKiiEES5_(%"struct.std::_Rb_tree_iterator"* dereferenceable(8) %ref.tmp246, %"struct.std::_Rb_tree_iterator"* dereferenceable(8) %ref.tmp254) #3, !dbg !7317
  %lnot = xor i1 %call257, true, !dbg !7317
  br i1 %lnot, label %if.then258, label %if.end268, !dbg !7321

if.then258:                                       ; preds = %invoke.cont252
  %135 = load i32, i32* %cell, align 4, !dbg !7317
  %call260 = call dereferenceable(36) %"struct.dealii::CellData"* @_ZNSt6vectorIN6dealii8CellDataILi3EEESaIS2_EE4backEv(%"class.std::vector.110"* %cells) #3, !dbg !7317
  %vertices261 = getelementptr inbounds %"struct.dealii::CellData", %"struct.dealii::CellData"* %call260, i32 0, i32 0, !dbg !7317
  %136 = load i32, i32* %i242, align 4, !dbg !7317
  %idxprom262 = zext i32 %136 to i64, !dbg !7317
  %arrayidx263 = getelementptr inbounds [8 x i32], [8 x i32]* %vertices261, i64 0, i64 %idxprom262, !dbg !7317
  %137 = load i32, i32* %arrayidx263, align 4, !dbg !7317
  invoke void @_ZN6dealii6GridInILi3ELi3EE21ExcInvalidVertexIndexC1Eii(%"class.dealii::GridIn<3, 3>::ExcInvalidVertexIndex"* %agg.tmp259, i32 %135, i32 %137)
          to label %invoke.cont264 unwind label %lpad168, !dbg !7317

invoke.cont264:                                   ; preds = %if.then258
  invoke void @_ZN6dealii18deal_II_exceptions9internals17issue_error_throwINS_6GridInILi3ELi3EE21ExcInvalidVertexIndexEEEvPKciS7_S7_S7_T_(i8* getelementptr inbounds ([23 x i8], [23 x i8]* @.str.2, i64 0, i64 0), i32 738, i8* getelementptr inbounds ([1 x i8], [1 x i8]* @.str.3, i64 0, i64 0), i8* getelementptr inbounds ([71 x i8], [71 x i8]* @.str.50, i64 0, i64 0), i8* getelementptr inbounds ([54 x i8], [54 x i8]* @.str.10, i64 0, i64 0), %"class.dealii::GridIn<3, 3>::ExcInvalidVertexIndex"* %agg.tmp259)
          to label %invoke.cont266 unwind label %lpad265, !dbg !7317

invoke.cont266:                                   ; preds = %invoke.cont264
  call void @_ZN6dealii6GridInILi3ELi3EE21ExcInvalidVertexIndexD1Ev(%"class.dealii::GridIn<3, 3>::ExcInvalidVertexIndex"* %agg.tmp259) #3, !dbg !7317
  br label %if.end268, !dbg !7317

lpad265:                                          ; preds = %invoke.cont264
  %138 = landingpad { i8*, i32 }
          cleanup, !dbg !7322
  %139 = extractvalue { i8*, i32 } %138, 0, !dbg !7322
  store i8* %139, i8** %exn.slot, align 8, !dbg !7322
  %140 = extractvalue { i8*, i32 } %138, 1, !dbg !7322
  store i32 %140, i32* %ehselector.slot, align 4, !dbg !7322
  call void @_ZN6dealii6GridInILi3ELi3EE21ExcInvalidVertexIndexD1Ev(%"class.dealii::GridIn<3, 3>::ExcInvalidVertexIndex"* %agg.tmp259) #3, !dbg !7317
  br label %ehcleanup524, !dbg !7317

if.end268:                                        ; preds = %invoke.cont266, %invoke.cont252
  %call270 = call dereferenceable(36) %"struct.dealii::CellData"* @_ZNSt6vectorIN6dealii8CellDataILi3EEESaIS2_EE4backEv(%"class.std::vector.110"* %cells) #3, !dbg !7323
  %vertices271 = getelementptr inbounds %"struct.dealii::CellData", %"struct.dealii::CellData"* %call270, i32 0, i32 0, !dbg !7324
  %141 = load i32, i32* %i242, align 4, !dbg !7325
  %idxprom272 = zext i32 %141 to i64, !dbg !7326
  %arrayidx273 = getelementptr inbounds [8 x i32], [8 x i32]* %vertices271, i64 0, i64 %idxprom272, !dbg !7326
  %142 = load i32, i32* %arrayidx273, align 4, !dbg !7326
  store i32 %142, i32* %ref.tmp269, align 4, !dbg !7326
  %call275 = invoke dereferenceable(4) i32* @_ZNSt3mapIiiSt4lessIiESaISt4pairIKiiEEEixEOi(%"class.std::map.102"* %vertex_indices, i32* dereferenceable(4) %ref.tmp269)
          to label %invoke.cont274 unwind label %lpad168, !dbg !7327

invoke.cont274:                                   ; preds = %if.end268
  %143 = load i32, i32* %call275, align 4, !dbg !7327
  %call276 = call dereferenceable(36) %"struct.dealii::CellData"* @_ZNSt6vectorIN6dealii8CellDataILi3EEESaIS2_EE4backEv(%"class.std::vector.110"* %cells) #3, !dbg !7328
  %vertices277 = getelementptr inbounds %"struct.dealii::CellData", %"struct.dealii::CellData"* %call276, i32 0, i32 0, !dbg !7329
  %144 = load i32, i32* %i242, align 4, !dbg !7330
  %idxprom278 = zext i32 %144 to i64, !dbg !7331
  %arrayidx279 = getelementptr inbounds [8 x i32], [8 x i32]* %vertices277, i64 0, i64 %idxprom278, !dbg !7331
  store i32 %143, i32* %arrayidx279, align 4, !dbg !7332
  br label %for.inc280, !dbg !7333

for.inc280:                                       ; preds = %invoke.cont274
  %145 = load i32, i32* %i242, align 4, !dbg !7334
  %inc281 = add i32 %145, 1, !dbg !7334
  store i32 %inc281, i32* %i242, align 4, !dbg !7334
  br label %for.cond243, !dbg !7335, !llvm.loop !7336

for.end282:                                       ; preds = %for.cond243
  br label %if.end457, !dbg !7338

if.else283:                                       ; preds = %lor.lhs.false213
  %146 = load i32, i32* %cell_type, align 4, !dbg !7339
  %cmp284 = icmp eq i32 %146, 1, !dbg !7341
  br i1 %cmp284, label %if.then285, label %if.else356, !dbg !7342

if.then285:                                       ; preds = %if.else283
  %boundary_lines = getelementptr inbounds %"struct.dealii::SubCellData", %"struct.dealii::SubCellData"* %subcelldata, i32 0, i32 0, !dbg !7343
  %147 = bitcast %"struct.dealii::CellData.120"* %ref.tmp286 to i8*, !dbg !7345
  call void @llvm.memset.p0i8.i64(i8* align 4 %147, i8 0, i64 12, i1 false), !dbg !7345
  invoke void @_ZNSt6vectorIN6dealii8CellDataILi1EEESaIS2_EE9push_backEOS2_(%"class.std::vector.115"* %boundary_lines, %"struct.dealii::CellData.120"* dereferenceable(12) %ref.tmp286)
          to label %invoke.cont287 unwind label %lpad168, !dbg !7346

invoke.cont287:                                   ; preds = %if.then285
  %148 = load %"class.std::basic_istream"*, %"class.std::basic_istream"** %in.addr, align 8, !dbg !7347
  %boundary_lines288 = getelementptr inbounds %"struct.dealii::SubCellData", %"struct.dealii::SubCellData"* %subcelldata, i32 0, i32 0, !dbg !7348
  %call289 = call dereferenceable(12) %"struct.dealii::CellData.120"* @_ZNSt6vectorIN6dealii8CellDataILi1EEESaIS2_EE4backEv(%"class.std::vector.115"* %boundary_lines288) #3, !dbg !7349
  %vertices290 = getelementptr inbounds %"struct.dealii::CellData.120", %"struct.dealii::CellData.120"* %call289, i32 0, i32 0, !dbg !7350
  %arrayidx291 = getelementptr inbounds [2 x i32], [2 x i32]* %vertices290, i64 0, i64 0, !dbg !7351
  %call293 = invoke dereferenceable(280) %"class.std::basic_istream"* @_ZNSirsERj(%"class.std::basic_istream"* %148, i32* dereferenceable(4) %arrayidx291)
          to label %invoke.cont292 unwind label %lpad168, !dbg !7352

invoke.cont292:                                   ; preds = %invoke.cont287
  %boundary_lines294 = getelementptr inbounds %"struct.dealii::SubCellData", %"struct.dealii::SubCellData"* %subcelldata, i32 0, i32 0, !dbg !7353
  %call295 = call dereferenceable(12) %"struct.dealii::CellData.120"* @_ZNSt6vectorIN6dealii8CellDataILi1EEESaIS2_EE4backEv(%"class.std::vector.115"* %boundary_lines294) #3, !dbg !7354
  %vertices296 = getelementptr inbounds %"struct.dealii::CellData.120", %"struct.dealii::CellData.120"* %call295, i32 0, i32 0, !dbg !7355
  %arrayidx297 = getelementptr inbounds [2 x i32], [2 x i32]* %vertices296, i64 0, i64 1, !dbg !7356
  %call299 = invoke dereferenceable(280) %"class.std::basic_istream"* @_ZNSirsERj(%"class.std::basic_istream"* %call293, i32* dereferenceable(4) %arrayidx297)
          to label %invoke.cont298 unwind label %lpad168, !dbg !7357

invoke.cont298:                                   ; preds = %invoke.cont292
  %149 = load i32, i32* %material_id, align 4, !dbg !7358
  %conv300 = trunc i32 %149 to i8, !dbg !7358
  %boundary_lines301 = getelementptr inbounds %"struct.dealii::SubCellData", %"struct.dealii::SubCellData"* %subcelldata, i32 0, i32 0, !dbg !7359
  %call302 = call dereferenceable(12) %"struct.dealii::CellData.120"* @_ZNSt6vectorIN6dealii8CellDataILi1EEESaIS2_EE4backEv(%"class.std::vector.115"* %boundary_lines301) #3, !dbg !7360
  %material_id303 = getelementptr inbounds %"struct.dealii::CellData.120", %"struct.dealii::CellData.120"* %call302, i32 0, i32 1, !dbg !7361
  store i8 %conv300, i8* %material_id303, align 4, !dbg !7362
  call void @llvm.dbg.declare(metadata i32* %i304, metadata !7363, metadata !DIExpression()), !dbg !7365
  store i32 0, i32* %i304, align 4, !dbg !7365
  br label %for.cond305, !dbg !7366

for.cond305:                                      ; preds = %for.inc353, %invoke.cont298
  %150 = load i32, i32* %i304, align 4, !dbg !7367
  %cmp306 = icmp ult i32 %150, 2, !dbg !7369
  br i1 %cmp306, label %for.body307, label %for.end355, !dbg !7370

for.body307:                                      ; preds = %for.cond305
  %boundary_lines310 = getelementptr inbounds %"struct.dealii::SubCellData", %"struct.dealii::SubCellData"* %subcelldata, i32 0, i32 0, !dbg !7371
  %call311 = call dereferenceable(12) %"struct.dealii::CellData.120"* @_ZNSt6vectorIN6dealii8CellDataILi1EEESaIS2_EE4backEv(%"class.std::vector.115"* %boundary_lines310) #3, !dbg !7373
  %vertices312 = getelementptr inbounds %"struct.dealii::CellData.120", %"struct.dealii::CellData.120"* %call311, i32 0, i32 0, !dbg !7374
  %151 = load i32, i32* %i304, align 4, !dbg !7375
  %idxprom313 = zext i32 %151 to i64, !dbg !7376
  %arrayidx314 = getelementptr inbounds [2 x i32], [2 x i32]* %vertices312, i64 0, i64 %idxprom313, !dbg !7376
  %152 = load i32, i32* %arrayidx314, align 4, !dbg !7376
  store i32 %152, i32* %ref.tmp309, align 4, !dbg !7376
  %call316 = invoke %"struct.std::_Rb_tree_node_base"* @_ZNSt3mapIiiSt4lessIiESaISt4pairIKiiEEE4findERS3_(%"class.std::map.102"* %vertex_indices, i32* dereferenceable(4) %ref.tmp309)
          to label %invoke.cont315 unwind label %lpad168, !dbg !7377

invoke.cont315:                                   ; preds = %for.body307
  %coerce.dive317 = getelementptr inbounds %"struct.std::_Rb_tree_iterator", %"struct.std::_Rb_tree_iterator"* %ref.tmp308, i32 0, i32 0, !dbg !7377
  store %"struct.std::_Rb_tree_node_base"* %call316, %"struct.std::_Rb_tree_node_base"** %coerce.dive317, align 8, !dbg !7377
  %call319 = call %"struct.std::_Rb_tree_node_base"* @_ZNSt3mapIiiSt4lessIiESaISt4pairIKiiEEE3endEv(%"class.std::map.102"* %vertex_indices) #3, !dbg !7378
  %coerce.dive320 = getelementptr inbounds %"struct.std::_Rb_tree_iterator", %"struct.std::_Rb_tree_iterator"* %ref.tmp318, i32 0, i32 0, !dbg !7378
  store %"struct.std::_Rb_tree_node_base"* %call319, %"struct.std::_Rb_tree_node_base"** %coerce.dive320, align 8, !dbg !7378
  %call321 = call zeroext i1 @_ZStneRKSt17_Rb_tree_iteratorISt4pairIKiiEES5_(%"struct.std::_Rb_tree_iterator"* dereferenceable(8) %ref.tmp308, %"struct.std::_Rb_tree_iterator"* dereferenceable(8) %ref.tmp318) #3, !dbg !7379
  br i1 %call321, label %if.then322, label %if.else336, !dbg !7380

if.then322:                                       ; preds = %invoke.cont315
  %boundary_lines324 = getelementptr inbounds %"struct.dealii::SubCellData", %"struct.dealii::SubCellData"* %subcelldata, i32 0, i32 0, !dbg !7381
  %call325 = call dereferenceable(12) %"struct.dealii::CellData.120"* @_ZNSt6vectorIN6dealii8CellDataILi1EEESaIS2_EE4backEv(%"class.std::vector.115"* %boundary_lines324) #3, !dbg !7382
  %vertices326 = getelementptr inbounds %"struct.dealii::CellData.120", %"struct.dealii::CellData.120"* %call325, i32 0, i32 0, !dbg !7383
  %153 = load i32, i32* %i304, align 4, !dbg !7384
  %idxprom327 = zext i32 %153 to i64, !dbg !7385
  %arrayidx328 = getelementptr inbounds [2 x i32], [2 x i32]* %vertices326, i64 0, i64 %idxprom327, !dbg !7385
  %154 = load i32, i32* %arrayidx328, align 4, !dbg !7385
  store i32 %154, i32* %ref.tmp323, align 4, !dbg !7385
  %call330 = invoke dereferenceable(4) i32* @_ZNSt3mapIiiSt4lessIiESaISt4pairIKiiEEEixEOi(%"class.std::map.102"* %vertex_indices, i32* dereferenceable(4) %ref.tmp323)
          to label %invoke.cont329 unwind label %lpad168, !dbg !7386

invoke.cont329:                                   ; preds = %if.then322
  %155 = load i32, i32* %call330, align 4, !dbg !7386
  %boundary_lines331 = getelementptr inbounds %"struct.dealii::SubCellData", %"struct.dealii::SubCellData"* %subcelldata, i32 0, i32 0, !dbg !7387
  %call332 = call dereferenceable(12) %"struct.dealii::CellData.120"* @_ZNSt6vectorIN6dealii8CellDataILi1EEESaIS2_EE4backEv(%"class.std::vector.115"* %boundary_lines331) #3, !dbg !7388
  %vertices333 = getelementptr inbounds %"struct.dealii::CellData.120", %"struct.dealii::CellData.120"* %call332, i32 0, i32 0, !dbg !7389
  %156 = load i32, i32* %i304, align 4, !dbg !7390
  %idxprom334 = zext i32 %156 to i64, !dbg !7391
  %arrayidx335 = getelementptr inbounds [2 x i32], [2 x i32]* %vertices333, i64 0, i64 %idxprom334, !dbg !7391
  store i32 %155, i32* %arrayidx335, align 4, !dbg !7392
  br label %if.end352, !dbg !7391

if.else336:                                       ; preds = %invoke.cont315
  %157 = load i32, i32* %cell, align 4, !dbg !7393
  %boundary_lines338 = getelementptr inbounds %"struct.dealii::SubCellData", %"struct.dealii::SubCellData"* %subcelldata, i32 0, i32 0, !dbg !7393
  %call339 = call dereferenceable(12) %"struct.dealii::CellData.120"* @_ZNSt6vectorIN6dealii8CellDataILi1EEESaIS2_EE4backEv(%"class.std::vector.115"* %boundary_lines338) #3, !dbg !7393
  %vertices340 = getelementptr inbounds %"struct.dealii::CellData.120", %"struct.dealii::CellData.120"* %call339, i32 0, i32 0, !dbg !7393
  %158 = load i32, i32* %i304, align 4, !dbg !7393
  %idxprom341 = zext i32 %158 to i64, !dbg !7393
  %arrayidx342 = getelementptr inbounds [2 x i32], [2 x i32]* %vertices340, i64 0, i64 %idxprom341, !dbg !7393
  %159 = load i32, i32* %arrayidx342, align 4, !dbg !7393
  invoke void @_ZN6dealii6GridInILi3ELi3EE21ExcInvalidVertexIndexC1Eii(%"class.dealii::GridIn<3, 3>::ExcInvalidVertexIndex"* %agg.tmp337, i32 %157, i32 %159)
          to label %invoke.cont343 unwind label %lpad168, !dbg !7393

invoke.cont343:                                   ; preds = %if.else336
  invoke void @_ZN6dealii18deal_II_exceptions9internals17issue_error_throwINS_6GridInILi3ELi3EE21ExcInvalidVertexIndexEEEvPKciS7_S7_S7_T_(i8* getelementptr inbounds ([23 x i8], [23 x i8]* @.str.2, i64 0, i64 0), i32 766, i8* getelementptr inbounds ([1 x i8], [1 x i8]* @.str.3, i64 0, i64 0), i8* getelementptr inbounds ([6 x i8], [6 x i8]* @.str.9, i64 0, i64 0), i8* getelementptr inbounds ([75 x i8], [75 x i8]* @.str.11, i64 0, i64 0), %"class.dealii::GridIn<3, 3>::ExcInvalidVertexIndex"* %agg.tmp337)
          to label %invoke.cont345 unwind label %lpad344, !dbg !7393

invoke.cont345:                                   ; preds = %invoke.cont343
  call void @_ZN6dealii6GridInILi3ELi3EE21ExcInvalidVertexIndexD1Ev(%"class.dealii::GridIn<3, 3>::ExcInvalidVertexIndex"* %agg.tmp337) #3, !dbg !7393
  %boundary_lines347 = getelementptr inbounds %"struct.dealii::SubCellData", %"struct.dealii::SubCellData"* %subcelldata, i32 0, i32 0, !dbg !7397
  %call348 = call dereferenceable(12) %"struct.dealii::CellData.120"* @_ZNSt6vectorIN6dealii8CellDataILi1EEESaIS2_EE4backEv(%"class.std::vector.115"* %boundary_lines347) #3, !dbg !7398
  %vertices349 = getelementptr inbounds %"struct.dealii::CellData.120", %"struct.dealii::CellData.120"* %call348, i32 0, i32 0, !dbg !7399
  %160 = load i32, i32* %i304, align 4, !dbg !7400
  %idxprom350 = zext i32 %160 to i64, !dbg !7401
  %arrayidx351 = getelementptr inbounds [2 x i32], [2 x i32]* %vertices349, i64 0, i64 %idxprom350, !dbg !7401
  store i32 -1, i32* %arrayidx351, align 4, !dbg !7402
  br label %if.end352

lpad344:                                          ; preds = %invoke.cont343
  %161 = landingpad { i8*, i32 }
          cleanup, !dbg !7403
  %162 = extractvalue { i8*, i32 } %161, 0, !dbg !7403
  store i8* %162, i8** %exn.slot, align 8, !dbg !7403
  %163 = extractvalue { i8*, i32 } %161, 1, !dbg !7403
  store i32 %163, i32* %ehselector.slot, align 4, !dbg !7403
  call void @_ZN6dealii6GridInILi3ELi3EE21ExcInvalidVertexIndexD1Ev(%"class.dealii::GridIn<3, 3>::ExcInvalidVertexIndex"* %agg.tmp337) #3, !dbg !7393
  br label %ehcleanup524, !dbg !7393

if.end352:                                        ; preds = %invoke.cont345, %invoke.cont329
  br label %for.inc353, !dbg !7404

for.inc353:                                       ; preds = %if.end352
  %164 = load i32, i32* %i304, align 4, !dbg !7405
  %inc354 = add i32 %164, 1, !dbg !7405
  store i32 %inc354, i32* %i304, align 4, !dbg !7405
  br label %for.cond305, !dbg !7406, !llvm.loop !7407

for.end355:                                       ; preds = %for.cond305
  br label %if.end456, !dbg !7409

if.else356:                                       ; preds = %if.else283
  %165 = load i32, i32* %cell_type, align 4, !dbg !7410
  %cmp357 = icmp eq i32 %165, 3, !dbg !7412
  br i1 %cmp357, label %if.then358, label %if.else431, !dbg !7413

if.then358:                                       ; preds = %if.else356
  %boundary_quads = getelementptr inbounds %"struct.dealii::SubCellData", %"struct.dealii::SubCellData"* %subcelldata, i32 0, i32 1, !dbg !7414
  %166 = bitcast %"struct.dealii::CellData.126"* %ref.tmp359 to i8*, !dbg !7416
  call void @llvm.memset.p0i8.i64(i8* align 4 %166, i8 0, i64 20, i1 false), !dbg !7416
  invoke void @_ZNSt6vectorIN6dealii8CellDataILi2EEESaIS2_EE9push_backEOS2_(%"class.std::vector.121"* %boundary_quads, %"struct.dealii::CellData.126"* dereferenceable(20) %ref.tmp359)
          to label %invoke.cont360 unwind label %lpad168, !dbg !7417

invoke.cont360:                                   ; preds = %if.then358
  %167 = load %"class.std::basic_istream"*, %"class.std::basic_istream"** %in.addr, align 8, !dbg !7418
  %boundary_quads361 = getelementptr inbounds %"struct.dealii::SubCellData", %"struct.dealii::SubCellData"* %subcelldata, i32 0, i32 1, !dbg !7419
  %call362 = call dereferenceable(20) %"struct.dealii::CellData.126"* @_ZNSt6vectorIN6dealii8CellDataILi2EEESaIS2_EE4backEv(%"class.std::vector.121"* %boundary_quads361) #3, !dbg !7420
  %vertices363 = getelementptr inbounds %"struct.dealii::CellData.126", %"struct.dealii::CellData.126"* %call362, i32 0, i32 0, !dbg !7421
  %arrayidx364 = getelementptr inbounds [4 x i32], [4 x i32]* %vertices363, i64 0, i64 0, !dbg !7422
  %call366 = invoke dereferenceable(280) %"class.std::basic_istream"* @_ZNSirsERj(%"class.std::basic_istream"* %167, i32* dereferenceable(4) %arrayidx364)
          to label %invoke.cont365 unwind label %lpad168, !dbg !7423

invoke.cont365:                                   ; preds = %invoke.cont360
  %boundary_quads367 = getelementptr inbounds %"struct.dealii::SubCellData", %"struct.dealii::SubCellData"* %subcelldata, i32 0, i32 1, !dbg !7424
  %call368 = call dereferenceable(20) %"struct.dealii::CellData.126"* @_ZNSt6vectorIN6dealii8CellDataILi2EEESaIS2_EE4backEv(%"class.std::vector.121"* %boundary_quads367) #3, !dbg !7425
  %vertices369 = getelementptr inbounds %"struct.dealii::CellData.126", %"struct.dealii::CellData.126"* %call368, i32 0, i32 0, !dbg !7426
  %arrayidx370 = getelementptr inbounds [4 x i32], [4 x i32]* %vertices369, i64 0, i64 1, !dbg !7427
  %call372 = invoke dereferenceable(280) %"class.std::basic_istream"* @_ZNSirsERj(%"class.std::basic_istream"* %call366, i32* dereferenceable(4) %arrayidx370)
          to label %invoke.cont371 unwind label %lpad168, !dbg !7428

invoke.cont371:                                   ; preds = %invoke.cont365
  %boundary_quads373 = getelementptr inbounds %"struct.dealii::SubCellData", %"struct.dealii::SubCellData"* %subcelldata, i32 0, i32 1, !dbg !7429
  %call374 = call dereferenceable(20) %"struct.dealii::CellData.126"* @_ZNSt6vectorIN6dealii8CellDataILi2EEESaIS2_EE4backEv(%"class.std::vector.121"* %boundary_quads373) #3, !dbg !7430
  %vertices375 = getelementptr inbounds %"struct.dealii::CellData.126", %"struct.dealii::CellData.126"* %call374, i32 0, i32 0, !dbg !7431
  %arrayidx376 = getelementptr inbounds [4 x i32], [4 x i32]* %vertices375, i64 0, i64 2, !dbg !7432
  %call378 = invoke dereferenceable(280) %"class.std::basic_istream"* @_ZNSirsERj(%"class.std::basic_istream"* %call372, i32* dereferenceable(4) %arrayidx376)
          to label %invoke.cont377 unwind label %lpad168, !dbg !7433

invoke.cont377:                                   ; preds = %invoke.cont371
  %boundary_quads379 = getelementptr inbounds %"struct.dealii::SubCellData", %"struct.dealii::SubCellData"* %subcelldata, i32 0, i32 1, !dbg !7434
  %call380 = call dereferenceable(20) %"struct.dealii::CellData.126"* @_ZNSt6vectorIN6dealii8CellDataILi2EEESaIS2_EE4backEv(%"class.std::vector.121"* %boundary_quads379) #3, !dbg !7435
  %vertices381 = getelementptr inbounds %"struct.dealii::CellData.126", %"struct.dealii::CellData.126"* %call380, i32 0, i32 0, !dbg !7436
  %arrayidx382 = getelementptr inbounds [4 x i32], [4 x i32]* %vertices381, i64 0, i64 3, !dbg !7437
  %call384 = invoke dereferenceable(280) %"class.std::basic_istream"* @_ZNSirsERj(%"class.std::basic_istream"* %call378, i32* dereferenceable(4) %arrayidx382)
          to label %invoke.cont383 unwind label %lpad168, !dbg !7438

invoke.cont383:                                   ; preds = %invoke.cont377
  %168 = load i32, i32* %material_id, align 4, !dbg !7439
  %conv385 = trunc i32 %168 to i8, !dbg !7439
  %boundary_quads386 = getelementptr inbounds %"struct.dealii::SubCellData", %"struct.dealii::SubCellData"* %subcelldata, i32 0, i32 1, !dbg !7440
  %call387 = call dereferenceable(20) %"struct.dealii::CellData.126"* @_ZNSt6vectorIN6dealii8CellDataILi2EEESaIS2_EE4backEv(%"class.std::vector.121"* %boundary_quads386) #3, !dbg !7441
  %material_id388 = getelementptr inbounds %"struct.dealii::CellData.126", %"struct.dealii::CellData.126"* %call387, i32 0, i32 1, !dbg !7442
  store i8 %conv385, i8* %material_id388, align 4, !dbg !7443
  call void @llvm.dbg.declare(metadata i32* %i389, metadata !7444, metadata !DIExpression()), !dbg !7446
  store i32 0, i32* %i389, align 4, !dbg !7446
  br label %for.cond390, !dbg !7447

for.cond390:                                      ; preds = %for.inc428, %invoke.cont383
  %169 = load i32, i32* %i389, align 4, !dbg !7448
  %cmp391 = icmp ult i32 %169, 4, !dbg !7450
  br i1 %cmp391, label %for.body392, label %for.end430, !dbg !7451

for.body392:                                      ; preds = %for.cond390
  %boundary_quads395 = getelementptr inbounds %"struct.dealii::SubCellData", %"struct.dealii::SubCellData"* %subcelldata, i32 0, i32 1, !dbg !7452
  %call396 = call dereferenceable(20) %"struct.dealii::CellData.126"* @_ZNSt6vectorIN6dealii8CellDataILi2EEESaIS2_EE4backEv(%"class.std::vector.121"* %boundary_quads395) #3, !dbg !7454
  %vertices397 = getelementptr inbounds %"struct.dealii::CellData.126", %"struct.dealii::CellData.126"* %call396, i32 0, i32 0, !dbg !7455
  %170 = load i32, i32* %i389, align 4, !dbg !7456
  %idxprom398 = zext i32 %170 to i64, !dbg !7457
  %arrayidx399 = getelementptr inbounds [4 x i32], [4 x i32]* %vertices397, i64 0, i64 %idxprom398, !dbg !7457
  %171 = load i32, i32* %arrayidx399, align 4, !dbg !7457
  store i32 %171, i32* %ref.tmp394, align 4, !dbg !7457
  %call401 = invoke %"struct.std::_Rb_tree_node_base"* @_ZNSt3mapIiiSt4lessIiESaISt4pairIKiiEEE4findERS3_(%"class.std::map.102"* %vertex_indices, i32* dereferenceable(4) %ref.tmp394)
          to label %invoke.cont400 unwind label %lpad168, !dbg !7458

invoke.cont400:                                   ; preds = %for.body392
  %coerce.dive402 = getelementptr inbounds %"struct.std::_Rb_tree_iterator", %"struct.std::_Rb_tree_iterator"* %ref.tmp393, i32 0, i32 0, !dbg !7458
  store %"struct.std::_Rb_tree_node_base"* %call401, %"struct.std::_Rb_tree_node_base"** %coerce.dive402, align 8, !dbg !7458
  %call404 = call %"struct.std::_Rb_tree_node_base"* @_ZNSt3mapIiiSt4lessIiESaISt4pairIKiiEEE3endEv(%"class.std::map.102"* %vertex_indices) #3, !dbg !7459
  %coerce.dive405 = getelementptr inbounds %"struct.std::_Rb_tree_iterator", %"struct.std::_Rb_tree_iterator"* %ref.tmp403, i32 0, i32 0, !dbg !7459
  store %"struct.std::_Rb_tree_node_base"* %call404, %"struct.std::_Rb_tree_node_base"** %coerce.dive405, align 8, !dbg !7459
  %call406 = call zeroext i1 @_ZStneRKSt17_Rb_tree_iteratorISt4pairIKiiEES5_(%"struct.std::_Rb_tree_iterator"* dereferenceable(8) %ref.tmp393, %"struct.std::_Rb_tree_iterator"* dereferenceable(8) %ref.tmp403) #3, !dbg !7460
  br i1 %call406, label %if.then407, label %if.else421, !dbg !7461

if.then407:                                       ; preds = %invoke.cont400
  %boundary_quads409 = getelementptr inbounds %"struct.dealii::SubCellData", %"struct.dealii::SubCellData"* %subcelldata, i32 0, i32 1, !dbg !7462
  %call410 = call dereferenceable(20) %"struct.dealii::CellData.126"* @_ZNSt6vectorIN6dealii8CellDataILi2EEESaIS2_EE4backEv(%"class.std::vector.121"* %boundary_quads409) #3, !dbg !7463
  %vertices411 = getelementptr inbounds %"struct.dealii::CellData.126", %"struct.dealii::CellData.126"* %call410, i32 0, i32 0, !dbg !7464
  %172 = load i32, i32* %i389, align 4, !dbg !7465
  %idxprom412 = zext i32 %172 to i64, !dbg !7466
  %arrayidx413 = getelementptr inbounds [4 x i32], [4 x i32]* %vertices411, i64 0, i64 %idxprom412, !dbg !7466
  %173 = load i32, i32* %arrayidx413, align 4, !dbg !7466
  store i32 %173, i32* %ref.tmp408, align 4, !dbg !7466
  %call415 = invoke dereferenceable(4) i32* @_ZNSt3mapIiiSt4lessIiESaISt4pairIKiiEEEixEOi(%"class.std::map.102"* %vertex_indices, i32* dereferenceable(4) %ref.tmp408)
          to label %invoke.cont414 unwind label %lpad168, !dbg !7467

invoke.cont414:                                   ; preds = %if.then407
  %174 = load i32, i32* %call415, align 4, !dbg !7467
  %boundary_quads416 = getelementptr inbounds %"struct.dealii::SubCellData", %"struct.dealii::SubCellData"* %subcelldata, i32 0, i32 1, !dbg !7468
  %call417 = call dereferenceable(20) %"struct.dealii::CellData.126"* @_ZNSt6vectorIN6dealii8CellDataILi2EEESaIS2_EE4backEv(%"class.std::vector.121"* %boundary_quads416) #3, !dbg !7469
  %vertices418 = getelementptr inbounds %"struct.dealii::CellData.126", %"struct.dealii::CellData.126"* %call417, i32 0, i32 0, !dbg !7470
  %175 = load i32, i32* %i389, align 4, !dbg !7471
  %idxprom419 = zext i32 %175 to i64, !dbg !7472
  %arrayidx420 = getelementptr inbounds [4 x i32], [4 x i32]* %vertices418, i64 0, i64 %idxprom419, !dbg !7472
  store i32 %174, i32* %arrayidx420, align 4, !dbg !7473
  br label %if.end427, !dbg !7472

if.else421:                                       ; preds = %invoke.cont400
  %boundary_quads422 = getelementptr inbounds %"struct.dealii::SubCellData", %"struct.dealii::SubCellData"* %subcelldata, i32 0, i32 1, !dbg !7474
  %call423 = call dereferenceable(20) %"struct.dealii::CellData.126"* @_ZNSt6vectorIN6dealii8CellDataILi2EEESaIS2_EE4backEv(%"class.std::vector.121"* %boundary_quads422) #3, !dbg !7476
  %vertices424 = getelementptr inbounds %"struct.dealii::CellData.126", %"struct.dealii::CellData.126"* %call423, i32 0, i32 0, !dbg !7477
  %176 = load i32, i32* %i389, align 4, !dbg !7478
  %idxprom425 = zext i32 %176 to i64, !dbg !7479
  %arrayidx426 = getelementptr inbounds [4 x i32], [4 x i32]* %vertices424, i64 0, i64 %idxprom425, !dbg !7479
  store i32 -1, i32* %arrayidx426, align 4, !dbg !7480
  br label %if.end427

if.end427:                                        ; preds = %if.else421, %invoke.cont414
  br label %for.inc428, !dbg !7481

for.inc428:                                       ; preds = %if.end427
  %177 = load i32, i32* %i389, align 4, !dbg !7482
  %inc429 = add i32 %177, 1, !dbg !7482
  store i32 %inc429, i32* %i389, align 4, !dbg !7482
  br label %for.cond390, !dbg !7483, !llvm.loop !7484

for.end430:                                       ; preds = %for.cond390
  br label %if.end455, !dbg !7486

if.else431:                                       ; preds = %if.else356
  %178 = load i32, i32* %cell_type, align 4, !dbg !7487
  %cmp432 = icmp eq i32 %178, 15, !dbg !7489
  br i1 %cmp432, label %if.then433, label %if.else448, !dbg !7490

if.then433:                                       ; preds = %if.else431
  %179 = load i32, i32* %gmsh_file_format, align 4, !dbg !7491
  switch i32 %179, label %sw.epilog447 [
    i32 1, label %sw.bb434
    i32 2, label %sw.bb444
  ], !dbg !7493

sw.bb434:                                         ; preds = %if.then433
  call void @llvm.dbg.declare(metadata i32* %i435, metadata !7494, metadata !DIExpression()), !dbg !7498
  store i32 0, i32* %i435, align 4, !dbg !7498
  br label %for.cond436, !dbg !7499

for.cond436:                                      ; preds = %for.inc441, %sw.bb434
  %180 = load i32, i32* %i435, align 4, !dbg !7500
  %181 = load i32, i32* %nod_num, align 4, !dbg !7502
  %cmp437 = icmp ult i32 %180, %181, !dbg !7503
  br i1 %cmp437, label %for.body438, label %for.end443, !dbg !7504

for.body438:                                      ; preds = %for.cond436
  %182 = load %"class.std::basic_istream"*, %"class.std::basic_istream"** %in.addr, align 8, !dbg !7505
  %call440 = invoke dereferenceable(280) %"class.std::basic_istream"* @_ZNSirsERj(%"class.std::basic_istream"* %182, i32* dereferenceable(4) %dummy)
          to label %invoke.cont439 unwind label %lpad168, !dbg !7506

invoke.cont439:                                   ; preds = %for.body438
  br label %for.inc441, !dbg !7505

for.inc441:                                       ; preds = %invoke.cont439
  %183 = load i32, i32* %i435, align 4, !dbg !7507
  %inc442 = add i32 %183, 1, !dbg !7507
  store i32 %inc442, i32* %i435, align 4, !dbg !7507
  br label %for.cond436, !dbg !7508, !llvm.loop !7509

for.end443:                                       ; preds = %for.cond436
  br label %sw.epilog447, !dbg !7511

sw.bb444:                                         ; preds = %if.then433
  %184 = load %"class.std::basic_istream"*, %"class.std::basic_istream"** %in.addr, align 8, !dbg !7512
  %call446 = invoke dereferenceable(280) %"class.std::basic_istream"* @_ZNSirsERj(%"class.std::basic_istream"* %184, i32* dereferenceable(4) %dummy)
          to label %invoke.cont445 unwind label %lpad168, !dbg !7514

invoke.cont445:                                   ; preds = %sw.bb444
  br label %sw.epilog447, !dbg !7515

sw.epilog447:                                     ; preds = %if.then433, %invoke.cont445, %for.end443
  br label %if.end454, !dbg !7516

if.else448:                                       ; preds = %if.else431
  %185 = load i32, i32* %cell_type, align 4, !dbg !7517
  invoke void @_ZN6dealii6GridInILi3ELi3EE26ExcGmshUnsupportedGeometryC1Ei(%"class.dealii::GridIn<3, 3>::ExcGmshUnsupportedGeometry"* %agg.tmp449, i32 %185)
          to label %invoke.cont450 unwind label %lpad168, !dbg !7517

invoke.cont450:                                   ; preds = %if.else448
  invoke void @_ZN6dealii18deal_II_exceptions9internals17issue_error_throwINS_6GridInILi3ELi3EE26ExcGmshUnsupportedGeometryEEEvPKciS7_S7_S7_T_(i8* getelementptr inbounds ([23 x i8], [23 x i8]* @.str.2, i64 0, i64 0), i32 826, i8* getelementptr inbounds ([1 x i8], [1 x i8]* @.str.3, i64 0, i64 0), i8* getelementptr inbounds ([6 x i8], [6 x i8]* @.str.9, i64 0, i64 0), i8* getelementptr inbounds ([38 x i8], [38 x i8]* @.str.51, i64 0, i64 0), %"class.dealii::GridIn<3, 3>::ExcGmshUnsupportedGeometry"* %agg.tmp449)
          to label %invoke.cont452 unwind label %lpad451, !dbg !7517

invoke.cont452:                                   ; preds = %invoke.cont450
  call void @_ZN6dealii6GridInILi3ELi3EE26ExcGmshUnsupportedGeometryD1Ev(%"class.dealii::GridIn<3, 3>::ExcGmshUnsupportedGeometry"* %agg.tmp449) #3, !dbg !7517
  br label %if.end454

lpad451:                                          ; preds = %invoke.cont450
  %186 = landingpad { i8*, i32 }
          cleanup, !dbg !7520
  %187 = extractvalue { i8*, i32 } %186, 0, !dbg !7520
  store i8* %187, i8** %exn.slot, align 8, !dbg !7520
  %188 = extractvalue { i8*, i32 } %186, 1, !dbg !7520
  store i32 %188, i32* %ehselector.slot, align 4, !dbg !7520
  call void @_ZN6dealii6GridInILi3ELi3EE26ExcGmshUnsupportedGeometryD1Ev(%"class.dealii::GridIn<3, 3>::ExcGmshUnsupportedGeometry"* %agg.tmp449) #3, !dbg !7517
  br label %ehcleanup524, !dbg !7517

if.end454:                                        ; preds = %invoke.cont452, %sw.epilog447
  br label %if.end455

if.end455:                                        ; preds = %if.end454, %for.end430
  br label %if.end456

if.end456:                                        ; preds = %if.end455, %for.end355
  br label %if.end457

if.end457:                                        ; preds = %if.end456, %for.end282
  br label %for.inc458, !dbg !7521

for.inc458:                                       ; preds = %if.end457
  %189 = load i32, i32* %cell, align 4, !dbg !7522
  %inc459 = add i32 %189, 1, !dbg !7522
  store i32 %inc459, i32* %cell, align 4, !dbg !7522
  br label %for.cond161, !dbg !7523, !llvm.loop !7524

for.end460:                                       ; preds = %for.cond161
  %190 = load %"class.std::basic_istream"*, %"class.std::basic_istream"** %in.addr, align 8, !dbg !7526
  %call462 = invoke dereferenceable(280) %"class.std::basic_istream"* @_ZStrsIcSt11char_traitsIcESaIcEERSt13basic_istreamIT_T0_ES7_RNSt7__cxx1112basic_stringIS4_S5_T1_EE(%"class.std::basic_istream"* dereferenceable(280) %190, %"class.std::__cxx11::basic_string"* dereferenceable(32) %line)
          to label %invoke.cont461 unwind label %lpad168, !dbg !7527

invoke.cont461:                                   ; preds = %for.end460
  %191 = load atomic i8, i8* bitcast (i64* @_ZGVZN6dealii6GridInILi3ELi3EE8read_mshERSiE19end_elements_markerB5cxx11 to i8*) acquire, align 8, !dbg !7528
  %guard.uninitialized463 = icmp eq i8 %191, 0, !dbg !7528
  br i1 %guard.uninitialized463, label %init.check464, label %init.end488, !dbg !7528, !prof !7174

init.check464:                                    ; preds = %invoke.cont461
  %192 = call i32 @__cxa_guard_acquire(i64* @_ZGVZN6dealii6GridInILi3ELi3EE8read_mshERSiE19end_elements_markerB5cxx11) #3, !dbg !7528
  %tobool465 = icmp ne i32 %192, 0, !dbg !7528
  br i1 %tobool465, label %init466, label %init.end488, !dbg !7528

init466:                                          ; preds = %init.check464
  store i1 true, i1* %cleanup.isactive474, align 1
  store %"class.std::__cxx11::basic_string"* getelementptr inbounds ([2 x %"class.std::__cxx11::basic_string"], [2 x %"class.std::__cxx11::basic_string"]* @_ZZN6dealii6GridInILi3ELi3EE8read_mshERSiE19end_elements_markerB5cxx11, i64 0, i64 0), %"class.std::__cxx11::basic_string"** %arrayinit.endOfInit467, align 8, !dbg !7529
  call void @_ZNSaIcEC1Ev(%"class.std::allocator.93"* %ref.tmp468) #3, !dbg !7530
  invoke void @_ZNSt7__cxx1112basic_stringIcSt11char_traitsIcESaIcEEC1EPKcRKS3_(%"class.std::__cxx11::basic_string"* getelementptr inbounds ([2 x %"class.std::__cxx11::basic_string"], [2 x %"class.std::__cxx11::basic_string"]* @_ZZN6dealii6GridInILi3ELi3EE8read_mshERSiE19end_elements_markerB5cxx11, i64 0, i64 0), i8* getelementptr inbounds ([8 x i8], [8 x i8]* @.str.52, i64 0, i64 0), %"class.std::allocator.93"* dereferenceable(1) %ref.tmp468)
          to label %invoke.cont470 unwind label %lpad469, !dbg !7530

invoke.cont470:                                   ; preds = %init466
  store %"class.std::__cxx11::basic_string"* getelementptr inbounds ([2 x %"class.std::__cxx11::basic_string"], [2 x %"class.std::__cxx11::basic_string"]* @_ZZN6dealii6GridInILi3ELi3EE8read_mshERSiE19end_elements_markerB5cxx11, i64 0, i64 1), %"class.std::__cxx11::basic_string"** %arrayinit.endOfInit467, align 8, !dbg !7529
  call void @_ZNSaIcEC1Ev(%"class.std::allocator.93"* %ref.tmp471) #3, !dbg !7531
  invoke void @_ZNSt7__cxx1112basic_stringIcSt11char_traitsIcESaIcEEC1EPKcRKS3_(%"class.std::__cxx11::basic_string"* getelementptr inbounds ([2 x %"class.std::__cxx11::basic_string"], [2 x %"class.std::__cxx11::basic_string"]* @_ZZN6dealii6GridInILi3ELi3EE8read_mshERSiE19end_elements_markerB5cxx11, i64 0, i64 1), i8* getelementptr inbounds ([13 x i8], [13 x i8]* @.str.53, i64 0, i64 0), %"class.std::allocator.93"* dereferenceable(1) %ref.tmp471)
          to label %invoke.cont473 unwind label %lpad472, !dbg !7531

invoke.cont473:                                   ; preds = %invoke.cont470
  store i1 false, i1* %cleanup.isactive474, align 1, !dbg !7529
  call void @_ZNSaIcED1Ev(%"class.std::allocator.93"* %ref.tmp471) #3, !dbg !7529
  call void @_ZNSaIcED1Ev(%"class.std::allocator.93"* %ref.tmp468) #3, !dbg !7529
  %193 = call i32 @__cxa_atexit(void (i8*)* @__cxx_global_array_dtor.54, i8* null, i8* @__dso_handle) #3, !dbg !7528
  call void @__cxa_guard_release(i64* @_ZGVZN6dealii6GridInILi3ELi3EE8read_mshERSiE19end_elements_markerB5cxx11) #3, !dbg !7528
  br label %init.end488, !dbg !7528

init.end488:                                      ; preds = %invoke.cont473, %init.check464, %invoke.cont461
  %194 = load i32, i32* %gmsh_file_format, align 4, !dbg !7532
  %sub489 = sub i32 %194, 1, !dbg !7532
  %idxprom490 = zext i32 %sub489 to i64, !dbg !7532
  %arrayidx491 = getelementptr inbounds [2 x %"class.std::__cxx11::basic_string"], [2 x %"class.std::__cxx11::basic_string"]* @_ZZN6dealii6GridInILi3ELi3EE8read_mshERSiE19end_elements_markerB5cxx11, i64 0, i64 %idxprom490, !dbg !7532
  %call492 = call zeroext i1 @_ZSteqIcEN9__gnu_cxx11__enable_ifIXsr9__is_charIT_EE7__valueEbE6__typeERKNSt7__cxx1112basic_stringIS2_St11char_traitsIS2_ESaIS2_EEESC_(%"class.std::__cxx11::basic_string"* dereferenceable(32) %line, %"class.std::__cxx11::basic_string"* dereferenceable(32) %arrayidx491) #3, !dbg !7532
  br i1 %call492, label %if.end503, label %if.then493, !dbg !7535

if.then493:                                       ; preds = %init.end488
  invoke void @_ZNSt7__cxx1112basic_stringIcSt11char_traitsIcESaIcEEC1ERKS4_(%"class.std::__cxx11::basic_string"* %agg.tmp495, %"class.std::__cxx11::basic_string"* dereferenceable(32) %line)
          to label %invoke.cont496 unwind label %lpad168, !dbg !7532

invoke.cont496:                                   ; preds = %if.then493
  invoke void @_ZN6dealii6GridInILi3ELi3EE19ExcInvalidGMSHInputC1ENSt7__cxx1112basic_stringIcSt11char_traitsIcESaIcEEE(%"class.dealii::GridIn<3, 3>::ExcInvalidGMSHInput"* %agg.tmp494, %"class.std::__cxx11::basic_string"* %agg.tmp495)
          to label %invoke.cont498 unwind label %lpad497, !dbg !7532

invoke.cont498:                                   ; preds = %invoke.cont496
  invoke void @_ZN6dealii18deal_II_exceptions9internals17issue_error_throwINS_6GridInILi3ELi3EE19ExcInvalidGMSHInputEEEvPKciS7_S7_S7_T_(i8* getelementptr inbounds ([23 x i8], [23 x i8]* @.str.2, i64 0, i64 0), i32 833, i8* getelementptr inbounds ([1 x i8], [1 x i8]* @.str.3, i64 0, i64 0), i8* getelementptr inbounds ([46 x i8], [46 x i8]* @.str.55, i64 0, i64 0), i8* getelementptr inbounds ([26 x i8], [26 x i8]* @.str.34, i64 0, i64 0), %"class.dealii::GridIn<3, 3>::ExcInvalidGMSHInput"* %agg.tmp494)
          to label %invoke.cont500 unwind label %lpad499, !dbg !7532

invoke.cont500:                                   ; preds = %invoke.cont498
  call void @_ZN6dealii6GridInILi3ELi3EE19ExcInvalidGMSHInputD1Ev(%"class.dealii::GridIn<3, 3>::ExcInvalidGMSHInput"* %agg.tmp494) #3, !dbg !7532
  call void @_ZNSt7__cxx1112basic_stringIcSt11char_traitsIcESaIcEED1Ev(%"class.std::__cxx11::basic_string"* %agg.tmp495) #3, !dbg !7532
  br label %if.end503, !dbg !7532

lpad469:                                          ; preds = %init466
  %195 = landingpad { i8*, i32 }
          cleanup, !dbg !6907
  %196 = extractvalue { i8*, i32 } %195, 0, !dbg !6907
  store i8* %196, i8** %exn.slot, align 8, !dbg !6907
  %197 = extractvalue { i8*, i32 } %195, 1, !dbg !6907
  store i32 %197, i32* %ehselector.slot, align 4, !dbg !6907
  br label %ehcleanup476, !dbg !6907

lpad472:                                          ; preds = %invoke.cont470
  %198 = landingpad { i8*, i32 }
          cleanup, !dbg !6907
  %199 = extractvalue { i8*, i32 } %198, 0, !dbg !6907
  store i8* %199, i8** %exn.slot, align 8, !dbg !6907
  %200 = extractvalue { i8*, i32 } %198, 1, !dbg !6907
  store i32 %200, i32* %ehselector.slot, align 4, !dbg !6907
  call void @_ZNSaIcED1Ev(%"class.std::allocator.93"* %ref.tmp471) #3, !dbg !7529
  br label %ehcleanup476, !dbg !7529

ehcleanup476:                                     ; preds = %lpad472, %lpad469
  call void @_ZNSaIcED1Ev(%"class.std::allocator.93"* %ref.tmp468) #3, !dbg !7529
  %cleanup.is_active478 = load i1, i1* %cleanup.isactive474, align 1, !dbg !7529
  br i1 %cleanup.is_active478, label %cleanup.action479, label %cleanup.done486, !dbg !7529

cleanup.action479:                                ; preds = %ehcleanup476
  %201 = load %"class.std::__cxx11::basic_string"*, %"class.std::__cxx11::basic_string"** %arrayinit.endOfInit467, align 8, !dbg !7529
  %arraydestroy.isempty480 = icmp eq %"class.std::__cxx11::basic_string"* getelementptr inbounds ([2 x %"class.std::__cxx11::basic_string"], [2 x %"class.std::__cxx11::basic_string"]* @_ZZN6dealii6GridInILi3ELi3EE8read_mshERSiE19end_elements_markerB5cxx11, i64 0, i64 0), %201, !dbg !7529
  br i1 %arraydestroy.isempty480, label %arraydestroy.done485, label %arraydestroy.body481, !dbg !7529

arraydestroy.body481:                             ; preds = %arraydestroy.body481, %cleanup.action479
  %arraydestroy.elementPast482 = phi %"class.std::__cxx11::basic_string"* [ %201, %cleanup.action479 ], [ %arraydestroy.element483, %arraydestroy.body481 ], !dbg !7529
  %arraydestroy.element483 = getelementptr inbounds %"class.std::__cxx11::basic_string", %"class.std::__cxx11::basic_string"* %arraydestroy.elementPast482, i64 -1, !dbg !7529
  call void @_ZNSt7__cxx1112basic_stringIcSt11char_traitsIcESaIcEED1Ev(%"class.std::__cxx11::basic_string"* %arraydestroy.element483) #3, !dbg !7529
  %arraydestroy.done484 = icmp eq %"class.std::__cxx11::basic_string"* %arraydestroy.element483, getelementptr inbounds ([2 x %"class.std::__cxx11::basic_string"], [2 x %"class.std::__cxx11::basic_string"]* @_ZZN6dealii6GridInILi3ELi3EE8read_mshERSiE19end_elements_markerB5cxx11, i64 0, i64 0), !dbg !7529
  br i1 %arraydestroy.done484, label %arraydestroy.done485, label %arraydestroy.body481, !dbg !7529

arraydestroy.done485:                             ; preds = %arraydestroy.body481, %cleanup.action479
  br label %cleanup.done486, !dbg !7529

cleanup.done486:                                  ; preds = %arraydestroy.done485, %ehcleanup476
  call void @__cxa_guard_abort(i64* @_ZGVZN6dealii6GridInILi3ELi3EE8read_mshERSiE19end_elements_markerB5cxx11) #3, !dbg !7528
  br label %ehcleanup524, !dbg !7528

lpad497:                                          ; preds = %invoke.cont496
  %202 = landingpad { i8*, i32 }
          cleanup, !dbg !7536
  %203 = extractvalue { i8*, i32 } %202, 0, !dbg !7536
  store i8* %203, i8** %exn.slot, align 8, !dbg !7536
  %204 = extractvalue { i8*, i32 } %202, 1, !dbg !7536
  store i32 %204, i32* %ehselector.slot, align 4, !dbg !7536
  br label %ehcleanup502, !dbg !7536

lpad499:                                          ; preds = %invoke.cont498
  %205 = landingpad { i8*, i32 }
          cleanup, !dbg !7536
  %206 = extractvalue { i8*, i32 } %205, 0, !dbg !7536
  store i8* %206, i8** %exn.slot, align 8, !dbg !7536
  %207 = extractvalue { i8*, i32 } %205, 1, !dbg !7536
  store i32 %207, i32* %ehselector.slot, align 4, !dbg !7536
  call void @_ZN6dealii6GridInILi3ELi3EE19ExcInvalidGMSHInputD1Ev(%"class.dealii::GridIn<3, 3>::ExcInvalidGMSHInput"* %agg.tmp494) #3, !dbg !7532
  br label %ehcleanup502, !dbg !7532

ehcleanup502:                                     ; preds = %lpad499, %lpad497
  call void @_ZNSt7__cxx1112basic_stringIcSt11char_traitsIcESaIcEED1Ev(%"class.std::__cxx11::basic_string"* %agg.tmp495) #3, !dbg !7532
  br label %ehcleanup524, !dbg !7532

if.end503:                                        ; preds = %invoke.cont500, %init.end488
  %208 = load %"class.std::basic_istream"*, %"class.std::basic_istream"** %in.addr, align 8, !dbg !7537
  %209 = bitcast %"class.std::basic_istream"* %208 to i8**, !dbg !7537
  %vtable504 = load i8*, i8** %209, align 8, !dbg !7537
  %vbase.offset.ptr505 = getelementptr i8, i8* %vtable504, i64 -24, !dbg !7537
  %210 = bitcast i8* %vbase.offset.ptr505 to i64*, !dbg !7537
  %vbase.offset506 = load i64, i64* %210, align 8, !dbg !7537
  %211 = bitcast %"class.std::basic_istream"* %208 to i8*, !dbg !7537
  %add.ptr507 = getelementptr inbounds i8, i8* %211, i64 %vbase.offset506, !dbg !7537
  %212 = bitcast i8* %add.ptr507 to %"class.std::basic_ios"*, !dbg !7537
  %call509 = invoke zeroext i1 @_ZNKSt9basic_iosIcSt11char_traitsIcEEntEv(%"class.std::basic_ios"* %212)
          to label %invoke.cont508 unwind label %lpad168, !dbg !7537

invoke.cont508:                                   ; preds = %if.end503
  br i1 %call509, label %if.then510, label %if.end516, !dbg !7540

if.then510:                                       ; preds = %invoke.cont508
  %213 = bitcast %"class.dealii::StandardExceptions::ExcIO"* %agg.tmp511 to i8*, !dbg !7537
  call void @llvm.memset.p0i8.i64(i8* align 8 %213, i8 0, i64 64, i1 false), !dbg !7537
  invoke void @_ZN6dealii18StandardExceptions5ExcIOC2Ev(%"class.dealii::StandardExceptions::ExcIO"* %agg.tmp511)
          to label %invoke.cont512 unwind label %lpad168, !dbg !7537

invoke.cont512:                                   ; preds = %if.then510
  invoke void @_ZN6dealii18deal_II_exceptions9internals17issue_error_throwINS_18StandardExceptions5ExcIOEEEvPKciS6_S6_S6_T_(i8* getelementptr inbounds ([23 x i8], [23 x i8]* @.str.2, i64 0, i64 0), i32 838, i8* getelementptr inbounds ([1 x i8], [1 x i8]* @.str.3, i64 0, i64 0), i8* getelementptr inbounds ([3 x i8], [3 x i8]* @.str.4, i64 0, i64 0), i8* getelementptr inbounds ([8 x i8], [8 x i8]* @.str.5, i64 0, i64 0), %"class.dealii::StandardExceptions::ExcIO"* %agg.tmp511)
          to label %invoke.cont514 unwind label %lpad513, !dbg !7537

invoke.cont514:                                   ; preds = %invoke.cont512
  call void @_ZN6dealii18StandardExceptions5ExcIOD2Ev(%"class.dealii::StandardExceptions::ExcIO"* %agg.tmp511) #3, !dbg !7537
  br label %if.end516, !dbg !7537

lpad513:                                          ; preds = %invoke.cont512
  %214 = landingpad { i8*, i32 }
          cleanup, !dbg !7541
  %215 = extractvalue { i8*, i32 } %214, 0, !dbg !7541
  store i8* %215, i8** %exn.slot, align 8, !dbg !7541
  %216 = extractvalue { i8*, i32 } %214, 1, !dbg !7541
  store i32 %216, i32* %ehselector.slot, align 4, !dbg !7541
  call void @_ZN6dealii18StandardExceptions5ExcIOD2Ev(%"class.dealii::StandardExceptions::ExcIO"* %agg.tmp511) #3, !dbg !7537
  br label %ehcleanup524, !dbg !7537

if.end516:                                        ; preds = %invoke.cont514, %invoke.cont508
  invoke void @_ZN6dealii9GridTools22delete_unused_verticesILi3ELi3EEEvRSt6vectorINS_5PointIXT0_EEESaIS4_EERS2_INS_8CellDataIXT_EEESaIS9_EERNS_11SubCellDataE(%"class.std::vector.82"* dereferenceable(24) %vertices, %"class.std::vector.110"* dereferenceable(24) %cells, %"struct.dealii::SubCellData"* dereferenceable(48) %subcelldata)
          to label %invoke.cont517 unwind label %lpad168, !dbg !7542

invoke.cont517:                                   ; preds = %if.end516
  invoke void @_ZN6dealii14GridReorderingILi3ELi3EE33invert_all_cells_of_negative_gridERKSt6vectorINS_5PointILi3EEESaIS4_EERS2_INS_8CellDataILi3EEESaISA_EE(%"class.std::vector.82"* dereferenceable(24) %vertices, %"class.std::vector.110"* dereferenceable(24) %cells)
          to label %invoke.cont518 unwind label %lpad168, !dbg !7543

invoke.cont518:                                   ; preds = %invoke.cont517
  invoke void @_ZN6dealii14GridReorderingILi3ELi3EE13reorder_cellsERSt6vectorINS_8CellDataILi3EEESaIS4_EE(%"class.std::vector.110"* dereferenceable(24) %cells)
          to label %invoke.cont519 unwind label %lpad168, !dbg !7545

invoke.cont519:                                   ; preds = %invoke.cont518
  %tria = getelementptr inbounds %"class.dealii::GridIn", %"class.dealii::GridIn"* %this1, i32 0, i32 0, !dbg !7546
  %call521 = invoke %"class.dealii::Triangulation"* @_ZNK6dealii12SmartPointerINS_13TriangulationILi3ELi3EEEEptEv(%"class.dealii::SmartPointer"* %tria)
          to label %invoke.cont520 unwind label %lpad168, !dbg !7546

invoke.cont520:                                   ; preds = %invoke.cont519
  %217 = bitcast %"class.dealii::Triangulation"* %call521 to void (%"class.dealii::Triangulation"*, %"class.std::vector.82"*, %"class.std::vector.110"*, %"struct.dealii::SubCellData"*)***, !dbg !7547
  %vtable522 = load void (%"class.dealii::Triangulation"*, %"class.std::vector.82"*, %"class.std::vector.110"*, %"struct.dealii::SubCellData"*)**, void (%"class.dealii::Triangulation"*, %"class.std::vector.82"*, %"class.std::vector.110"*, %"struct.dealii::SubCellData"*)*** %217, align 8, !dbg !7547
  %vfn = getelementptr inbounds void (%"class.dealii::Triangulation"*, %"class.std::vector.82"*, %"class.std::vector.110"*, %"struct.dealii::SubCellData"*)*, void (%"class.dealii::Triangulation"*, %"class.std::vector.82"*, %"class.std::vector.110"*, %"struct.dealii::SubCellData"*)** %vtable522, i64 4, !dbg !7547
  %218 = load void (%"class.dealii::Triangulation"*, %"class.std::vector.82"*, %"class.std::vector.110"*, %"struct.dealii::SubCellData"*)*, void (%"class.dealii::Triangulation"*, %"class.std::vector.82"*, %"class.std::vector.110"*, %"struct.dealii::SubCellData"*)** %vfn, align 8, !dbg !7547
  invoke void %218(%"class.dealii::Triangulation"* %call521, %"class.std::vector.82"* dereferenceable(24) %vertices, %"class.std::vector.110"* dereferenceable(24) %cells, %"struct.dealii::SubCellData"* dereferenceable(48) %subcelldata)
          to label %invoke.cont523 unwind label %lpad168, !dbg !7547

invoke.cont523:                                   ; preds = %invoke.cont520
  call void @_ZN6dealii11SubCellDataD2Ev(%"struct.dealii::SubCellData"* %subcelldata) #3, !dbg !6907
  call void @_ZNSt6vectorIN6dealii8CellDataILi3EEESaIS2_EED2Ev(%"class.std::vector.110"* %cells) #3, !dbg !6907
  call void @_ZNSt3mapIiiSt4lessIiESaISt4pairIKiiEEED2Ev(%"class.std::map.102"* %vertex_indices) #3, !dbg !6907
  call void @_ZNSt6vectorIN6dealii5PointILi3EEESaIS2_EED2Ev(%"class.std::vector.82"* %vertices) #3, !dbg !6907
  call void @_ZNSt7__cxx1112basic_stringIcSt11char_traitsIcESaIcEED1Ev(%"class.std::__cxx11::basic_string"* %line) #3, !dbg !6907
  ret void, !dbg !6907

ehcleanup524:                                     ; preds = %lpad513, %ehcleanup502, %cleanup.done486, %lpad451, %lpad344, %lpad265, %lpad220, %lpad207, %lpad174, %lpad168
  call void @_ZN6dealii11SubCellDataD2Ev(%"struct.dealii::SubCellData"* %subcelldata) #3, !dbg !6907
  call void @_ZNSt6vectorIN6dealii8CellDataILi3EEESaIS2_EED2Ev(%"class.std::vector.110"* %cells) #3, !dbg !6907
  br label %ehcleanup526, !dbg !6907

ehcleanup526:                                     ; preds = %ehcleanup524, %ehcleanup157, %cleanup.done141, %ehcleanup114, %cleanup.done, %lpad65
  call void @_ZNSt3mapIiiSt4lessIiESaISt4pairIKiiEEED2Ev(%"class.std::map.102"* %vertex_indices) #3, !dbg !6907
  call void @_ZNSt6vectorIN6dealii5PointILi3EEESaIS2_EED2Ev(%"class.std::vector.82"* %vertices) #3, !dbg !6907
  br label %ehcleanup528, !dbg !6907

ehcleanup528:                                     ; preds = %ehcleanup526, %lpad61, %ehcleanup56, %ehcleanup41, %ehcleanup, %lpad2
  call void @_ZNSt7__cxx1112basic_stringIcSt11char_traitsIcESaIcEED1Ev(%"class.std::__cxx11::basic_string"* %line) #3, !dbg !6907
  br label %eh.resume, !dbg !6907

eh.resume:                                        ; preds = %ehcleanup528, %lpad
  %exn = load i8*, i8** %exn.slot, align 8, !dbg !6885
  %sel = load i32, i32* %ehselector.slot, align 4, !dbg !6885
  %lpad.val = insertvalue { i8*, i32 } undef, i8* %exn, 0, !dbg !6885
  %lpad.val529 = insertvalue { i8*, i32 } %lpad.val, i32 %sel, 1, !dbg !6885
  resume { i8*, i32 } %lpad.val529, !dbg !6885
}

; Function Attrs: noinline uwtable
define weak_odr dso_local void @_ZN6dealii6GridInILi3ELi3EE8read_ucdERSi(%"class.dealii::GridIn"* %this, %"class.std::basic_istream"* dereferenceable(280) %in) #0 comdat align 2 personality i8* bitcast (i32 (...)* @__gxx_personality_v0 to i8*) !dbg !7548 {
entry:
  %this.addr = alloca %"class.dealii::GridIn"*, align 8
  %in.addr = alloca %"class.std::basic_istream"*, align 8
  %agg.tmp = alloca %"class.dealii::StandardExceptions::ExcIO", align 8
  %exn.slot = alloca i8*
  %ehselector.slot = alloca i32
  %n_vertices = alloca i32, align 4
  %n_cells = alloca i32, align 4
  %dummy = alloca i32, align 4
  %vertices = alloca %"class.std::vector.82", align 8
  %ref.tmp = alloca %"class.std::allocator.84", align 1
  %vertex_indices = alloca %"class.std::map.102", align 8
  %vertex = alloca i32, align 4
  %vertex_number = alloca i32, align 4
  %x = alloca [3 x double], align 16
  %d = alloca i32, align 4
  %cells = alloca %"class.std::vector.110", align 8
  %subcelldata = alloca %"struct.dealii::SubCellData", align 8
  %cell = alloca i32, align 4
  %agg.tmp44 = alloca %"class.dealii::StandardExceptions::ExcIO", align 8
  %cell_type = alloca %"class.std::__cxx11::basic_string", align 8
  %material_id = alloca i32, align 4
  %ref.tmp65 = alloca %"struct.dealii::CellData", align 4
  %i = alloca i32, align 4
  %i82 = alloca i32, align 4
  %ref.tmp86 = alloca %"struct.std::_Rb_tree_iterator", align 8
  %ref.tmp87 = alloca i32, align 4
  %ref.tmp94 = alloca %"struct.std::_Rb_tree_iterator", align 8
  %ref.tmp99 = alloca i32, align 4
  %agg.tmp110 = alloca %"class.dealii::GridIn<3, 3>::ExcInvalidVertexIndex", align 8
  %ref.tmp130 = alloca %"struct.dealii::CellData.120", align 4
  %i148 = alloca i32, align 4
  %ref.tmp152 = alloca %"struct.std::_Rb_tree_iterator", align 8
  %ref.tmp153 = alloca i32, align 4
  %ref.tmp162 = alloca %"struct.std::_Rb_tree_iterator", align 8
  %ref.tmp167 = alloca i32, align 4
  %agg.tmp181 = alloca %"class.dealii::GridIn<3, 3>::ExcInvalidVertexIndex", align 8
  %ref.tmp203 = alloca %"struct.dealii::CellData.126", align 4
  %i233 = alloca i32, align 4
  %ref.tmp237 = alloca %"struct.std::_Rb_tree_iterator", align 8
  %ref.tmp238 = alloca i32, align 4
  %ref.tmp247 = alloca %"struct.std::_Rb_tree_iterator", align 8
  %ref.tmp252 = alloca i32, align 4
  %agg.tmp276 = alloca %"class.dealii::GridIn<3, 3>::ExcUnknownIdentifier", align 8
  %agg.tmp277 = alloca %"class.std::__cxx11::basic_string", align 8
  %agg.tmp297 = alloca %"class.dealii::StandardExceptions::ExcIO", align 8
  store %"class.dealii::GridIn"* %this, %"class.dealii::GridIn"** %this.addr, align 8
  call void @llvm.dbg.declare(metadata %"class.dealii::GridIn"** %this.addr, metadata !7549, metadata !DIExpression()), !dbg !7550
  store %"class.std::basic_istream"* %in, %"class.std::basic_istream"** %in.addr, align 8
  call void @llvm.dbg.declare(metadata %"class.std::basic_istream"** %in.addr, metadata !7551, metadata !DIExpression()), !dbg !7552
  %this1 = load %"class.dealii::GridIn"*, %"class.dealii::GridIn"** %this.addr, align 8
  %0 = load %"class.std::basic_istream"*, %"class.std::basic_istream"** %in.addr, align 8, !dbg !7553
  %1 = bitcast %"class.std::basic_istream"* %0 to i8**, !dbg !7553
  %vtable = load i8*, i8** %1, align 8, !dbg !7553
  %vbase.offset.ptr = getelementptr i8, i8* %vtable, i64 -24, !dbg !7553
  %2 = bitcast i8* %vbase.offset.ptr to i64*, !dbg !7553
  %vbase.offset = load i64, i64* %2, align 8, !dbg !7553
  %3 = bitcast %"class.std::basic_istream"* %0 to i8*, !dbg !7553
  %add.ptr = getelementptr inbounds i8, i8* %3, i64 %vbase.offset, !dbg !7553
  %4 = bitcast i8* %add.ptr to %"class.std::basic_ios"*, !dbg !7553
  %call = call zeroext i1 @_ZNKSt9basic_iosIcSt11char_traitsIcEEntEv(%"class.std::basic_ios"* %4), !dbg !7553
  br i1 %call, label %if.then, label %if.end, !dbg !7556

if.then:                                          ; preds = %entry
  %5 = bitcast %"class.dealii::StandardExceptions::ExcIO"* %agg.tmp to i8*, !dbg !7553
  call void @llvm.memset.p0i8.i64(i8* align 8 %5, i8 0, i64 64, i1 false), !dbg !7553
  call void @_ZN6dealii18StandardExceptions5ExcIOC2Ev(%"class.dealii::StandardExceptions::ExcIO"* %agg.tmp), !dbg !7553
  invoke void @_ZN6dealii18deal_II_exceptions9internals17issue_error_throwINS_18StandardExceptions5ExcIOEEEvPKciS6_S6_S6_T_(i8* getelementptr inbounds ([23 x i8], [23 x i8]* @.str.2, i64 0, i64 0), i32 50, i8* getelementptr inbounds ([1 x i8], [1 x i8]* @.str.3, i64 0, i64 0), i8* getelementptr inbounds ([3 x i8], [3 x i8]* @.str.4, i64 0, i64 0), i8* getelementptr inbounds ([8 x i8], [8 x i8]* @.str.5, i64 0, i64 0), %"class.dealii::StandardExceptions::ExcIO"* %agg.tmp)
          to label %invoke.cont unwind label %lpad, !dbg !7553

invoke.cont:                                      ; preds = %if.then
  call void @_ZN6dealii18StandardExceptions5ExcIOD2Ev(%"class.dealii::StandardExceptions::ExcIO"* %agg.tmp) #3, !dbg !7553
  br label %if.end, !dbg !7553

lpad:                                             ; preds = %if.then
  %6 = landingpad { i8*, i32 }
          cleanup, !dbg !7557
  %7 = extractvalue { i8*, i32 } %6, 0, !dbg !7557
  store i8* %7, i8** %exn.slot, align 8, !dbg !7557
  %8 = extractvalue { i8*, i32 } %6, 1, !dbg !7557
  store i32 %8, i32* %ehselector.slot, align 4, !dbg !7557
  call void @_ZN6dealii18StandardExceptions5ExcIOD2Ev(%"class.dealii::StandardExceptions::ExcIO"* %agg.tmp) #3, !dbg !7553
  br label %eh.resume, !dbg !7553

if.end:                                           ; preds = %invoke.cont, %entry
  %9 = load %"class.std::basic_istream"*, %"class.std::basic_istream"** %in.addr, align 8, !dbg !7558
  call void @_ZN6dealii6GridInILi3ELi3EE18skip_comment_linesERSic(%"class.std::basic_istream"* dereferenceable(280) %9, i8 signext 35), !dbg !7559
  call void @llvm.dbg.declare(metadata i32* %n_vertices, metadata !7560, metadata !DIExpression()), !dbg !7561
  call void @llvm.dbg.declare(metadata i32* %n_cells, metadata !7562, metadata !DIExpression()), !dbg !7563
  call void @llvm.dbg.declare(metadata i32* %dummy, metadata !7564, metadata !DIExpression()), !dbg !7565
  %10 = load %"class.std::basic_istream"*, %"class.std::basic_istream"** %in.addr, align 8, !dbg !7566
  %call2 = call dereferenceable(280) %"class.std::basic_istream"* @_ZNSirsERj(%"class.std::basic_istream"* %10, i32* dereferenceable(4) %n_vertices), !dbg !7567
  %call3 = call dereferenceable(280) %"class.std::basic_istream"* @_ZNSirsERj(%"class.std::basic_istream"* %call2, i32* dereferenceable(4) %n_cells), !dbg !7568
  %call4 = call dereferenceable(280) %"class.std::basic_istream"* @_ZNSirsERi(%"class.std::basic_istream"* %call3, i32* dereferenceable(4) %dummy), !dbg !7569
  %call5 = call dereferenceable(280) %"class.std::basic_istream"* @_ZNSirsERi(%"class.std::basic_istream"* %call4, i32* dereferenceable(4) %dummy), !dbg !7570
  %call6 = call dereferenceable(280) %"class.std::basic_istream"* @_ZNSirsERi(%"class.std::basic_istream"* %call5, i32* dereferenceable(4) %dummy), !dbg !7571
  call void @llvm.dbg.declare(metadata %"class.std::vector.82"* %vertices, metadata !7572, metadata !DIExpression()), !dbg !7573
  %11 = load i32, i32* %n_vertices, align 4, !dbg !7574
  %conv = zext i32 %11 to i64, !dbg !7574
  call void @_ZNSaIN6dealii5PointILi3EEEEC2Ev(%"class.std::allocator.84"* %ref.tmp) #3, !dbg !7573
  invoke void @_ZNSt6vectorIN6dealii5PointILi3EEESaIS2_EEC2EmRKS3_(%"class.std::vector.82"* %vertices, i64 %conv, %"class.std::allocator.84"* dereferenceable(1) %ref.tmp)
          to label %invoke.cont8 unwind label %lpad7, !dbg !7573

invoke.cont8:                                     ; preds = %if.end
  call void @_ZNSaIN6dealii5PointILi3EEEED2Ev(%"class.std::allocator.84"* %ref.tmp) #3, !dbg !7573
  call void @llvm.dbg.declare(metadata %"class.std::map.102"* %vertex_indices, metadata !7575, metadata !DIExpression()), !dbg !7576
  call void @_ZNSt3mapIiiSt4lessIiESaISt4pairIKiiEEEC2Ev(%"class.std::map.102"* %vertex_indices) #3, !dbg !7576
  call void @llvm.dbg.declare(metadata i32* %vertex, metadata !7577, metadata !DIExpression()), !dbg !7579
  store i32 0, i32* %vertex, align 4, !dbg !7579
  br label %for.cond, !dbg !7580

for.cond:                                         ; preds = %for.inc30, %invoke.cont8
  %12 = load i32, i32* %vertex, align 4, !dbg !7581
  %13 = load i32, i32* %n_vertices, align 4, !dbg !7583
  %cmp = icmp ult i32 %12, %13, !dbg !7584
  br i1 %cmp, label %for.body, label %for.end32, !dbg !7585

for.body:                                         ; preds = %for.cond
  call void @llvm.dbg.declare(metadata i32* %vertex_number, metadata !7586, metadata !DIExpression()), !dbg !7588
  call void @llvm.dbg.declare(metadata [3 x double]* %x, metadata !7589, metadata !DIExpression()), !dbg !7590
  %14 = load %"class.std::basic_istream"*, %"class.std::basic_istream"** %in.addr, align 8, !dbg !7591
  %call11 = invoke dereferenceable(280) %"class.std::basic_istream"* @_ZNSirsERi(%"class.std::basic_istream"* %14, i32* dereferenceable(4) %vertex_number)
          to label %invoke.cont10 unwind label %lpad9, !dbg !7592

invoke.cont10:                                    ; preds = %for.body
  %arrayidx = getelementptr inbounds [3 x double], [3 x double]* %x, i64 0, i64 0, !dbg !7593
  %call13 = invoke dereferenceable(280) %"class.std::basic_istream"* @_ZNSirsERd(%"class.std::basic_istream"* %call11, double* dereferenceable(8) %arrayidx)
          to label %invoke.cont12 unwind label %lpad9, !dbg !7594

invoke.cont12:                                    ; preds = %invoke.cont10
  %arrayidx14 = getelementptr inbounds [3 x double], [3 x double]* %x, i64 0, i64 1, !dbg !7595
  %call16 = invoke dereferenceable(280) %"class.std::basic_istream"* @_ZNSirsERd(%"class.std::basic_istream"* %call13, double* dereferenceable(8) %arrayidx14)
          to label %invoke.cont15 unwind label %lpad9, !dbg !7596

invoke.cont15:                                    ; preds = %invoke.cont12
  %arrayidx17 = getelementptr inbounds [3 x double], [3 x double]* %x, i64 0, i64 2, !dbg !7597
  %call19 = invoke dereferenceable(280) %"class.std::basic_istream"* @_ZNSirsERd(%"class.std::basic_istream"* %call16, double* dereferenceable(8) %arrayidx17)
          to label %invoke.cont18 unwind label %lpad9, !dbg !7598

invoke.cont18:                                    ; preds = %invoke.cont15
  call void @llvm.dbg.declare(metadata i32* %d, metadata !7599, metadata !DIExpression()), !dbg !7601
  store i32 0, i32* %d, align 4, !dbg !7601
  br label %for.cond20, !dbg !7602

for.cond20:                                       ; preds = %for.inc, %invoke.cont18
  %15 = load i32, i32* %d, align 4, !dbg !7603
  %cmp21 = icmp ult i32 %15, 3, !dbg !7605
  br i1 %cmp21, label %for.body22, label %for.end, !dbg !7606

for.body22:                                       ; preds = %for.cond20
  %16 = load i32, i32* %d, align 4, !dbg !7607
  %idxprom = zext i32 %16 to i64, !dbg !7608
  %arrayidx23 = getelementptr inbounds [3 x double], [3 x double]* %x, i64 0, i64 %idxprom, !dbg !7608
  %17 = load double, double* %arrayidx23, align 8, !dbg !7608
  %18 = load i32, i32* %vertex, align 4, !dbg !7609
  %conv24 = zext i32 %18 to i64, !dbg !7609
  %call25 = call dereferenceable(24) %"class.dealii::Point"* @_ZNSt6vectorIN6dealii5PointILi3EEESaIS2_EEixEm(%"class.std::vector.82"* %vertices, i64 %conv24) #3, !dbg !7610
  %19 = load i32, i32* %d, align 4, !dbg !7611
  %call27 = invoke dereferenceable(8) double* @_ZN6dealii5PointILi3EEclEj(%"class.dealii::Point"* %call25, i32 %19)
          to label %invoke.cont26 unwind label %lpad9, !dbg !7610

invoke.cont26:                                    ; preds = %for.body22
  store double %17, double* %call27, align 8, !dbg !7612
  br label %for.inc, !dbg !7610

for.inc:                                          ; preds = %invoke.cont26
  %20 = load i32, i32* %d, align 4, !dbg !7613
  %inc = add i32 %20, 1, !dbg !7613
  store i32 %inc, i32* %d, align 4, !dbg !7613
  br label %for.cond20, !dbg !7614, !llvm.loop !7615

lpad7:                                            ; preds = %if.end
  %21 = landingpad { i8*, i32 }
          cleanup, !dbg !7617
  %22 = extractvalue { i8*, i32 } %21, 0, !dbg !7617
  store i8* %22, i8** %exn.slot, align 8, !dbg !7617
  %23 = extractvalue { i8*, i32 } %21, 1, !dbg !7617
  store i32 %23, i32* %ehselector.slot, align 4, !dbg !7617
  call void @_ZNSaIN6dealii5PointILi3EEEED2Ev(%"class.std::allocator.84"* %ref.tmp) #3, !dbg !7573
  br label %eh.resume, !dbg !7573

lpad9:                                            ; preds = %for.end, %for.body22, %invoke.cont15, %invoke.cont12, %invoke.cont10, %for.body
  %24 = landingpad { i8*, i32 }
          cleanup, !dbg !7618
  %25 = extractvalue { i8*, i32 } %24, 0, !dbg !7618
  store i8* %25, i8** %exn.slot, align 8, !dbg !7618
  %26 = extractvalue { i8*, i32 } %24, 1, !dbg !7618
  store i32 %26, i32* %ehselector.slot, align 4, !dbg !7618
  br label %ehcleanup312, !dbg !7618

for.end:                                          ; preds = %for.cond20
  %27 = load i32, i32* %vertex, align 4, !dbg !7619
  %call29 = invoke dereferenceable(4) i32* @_ZNSt3mapIiiSt4lessIiESaISt4pairIKiiEEEixERS3_(%"class.std::map.102"* %vertex_indices, i32* dereferenceable(4) %vertex_number)
          to label %invoke.cont28 unwind label %lpad9, !dbg !7620

invoke.cont28:                                    ; preds = %for.end
  store i32 %27, i32* %call29, align 4, !dbg !7621
  br label %for.inc30, !dbg !7622

for.inc30:                                        ; preds = %invoke.cont28
  %28 = load i32, i32* %vertex, align 4, !dbg !7623
  %inc31 = add i32 %28, 1, !dbg !7623
  store i32 %inc31, i32* %vertex, align 4, !dbg !7623
  br label %for.cond, !dbg !7624, !llvm.loop !7625

for.end32:                                        ; preds = %for.cond
  call void @llvm.dbg.declare(metadata %"class.std::vector.110"* %cells, metadata !7627, metadata !DIExpression()), !dbg !7628
  call void @_ZNSt6vectorIN6dealii8CellDataILi3EEESaIS2_EEC2Ev(%"class.std::vector.110"* %cells) #3, !dbg !7628
  call void @llvm.dbg.declare(metadata %"struct.dealii::SubCellData"* %subcelldata, metadata !7629, metadata !DIExpression()), !dbg !7630
  call void @_ZN6dealii11SubCellDataC2Ev(%"struct.dealii::SubCellData"* %subcelldata) #3, !dbg !7630
  call void @llvm.dbg.declare(metadata i32* %cell, metadata !7631, metadata !DIExpression()), !dbg !7633
  store i32 0, i32* %cell, align 4, !dbg !7633
  br label %for.cond33, !dbg !7634

for.cond33:                                       ; preds = %for.inc287, %for.end32
  %29 = load i32, i32* %cell, align 4, !dbg !7635
  %30 = load i32, i32* %n_cells, align 4, !dbg !7637
  %cmp34 = icmp ult i32 %29, %30, !dbg !7638
  br i1 %cmp34, label %for.body35, label %for.end289, !dbg !7639

for.body35:                                       ; preds = %for.cond33
  %31 = load %"class.std::basic_istream"*, %"class.std::basic_istream"** %in.addr, align 8, !dbg !7640
  %32 = bitcast %"class.std::basic_istream"* %31 to i8**, !dbg !7640
  %vtable36 = load i8*, i8** %32, align 8, !dbg !7640
  %vbase.offset.ptr37 = getelementptr i8, i8* %vtable36, i64 -24, !dbg !7640
  %33 = bitcast i8* %vbase.offset.ptr37 to i64*, !dbg !7640
  %vbase.offset38 = load i64, i64* %33, align 8, !dbg !7640
  %34 = bitcast %"class.std::basic_istream"* %31 to i8*, !dbg !7640
  %add.ptr39 = getelementptr inbounds i8, i8* %34, i64 %vbase.offset38, !dbg !7640
  %35 = bitcast i8* %add.ptr39 to %"class.std::basic_ios"*, !dbg !7640
  %call42 = invoke zeroext i1 @_ZNKSt9basic_iosIcSt11char_traitsIcEEntEv(%"class.std::basic_ios"* %35)
          to label %invoke.cont41 unwind label %lpad40, !dbg !7640

invoke.cont41:                                    ; preds = %for.body35
  br i1 %call42, label %if.then43, label %if.end48, !dbg !7644

if.then43:                                        ; preds = %invoke.cont41
  %36 = bitcast %"class.dealii::StandardExceptions::ExcIO"* %agg.tmp44 to i8*, !dbg !7640
  call void @llvm.memset.p0i8.i64(i8* align 8 %36, i8 0, i64 64, i1 false), !dbg !7640
  invoke void @_ZN6dealii18StandardExceptions5ExcIOC2Ev(%"class.dealii::StandardExceptions::ExcIO"* %agg.tmp44)
          to label %invoke.cont45 unwind label %lpad40, !dbg !7640

invoke.cont45:                                    ; preds = %if.then43
  invoke void @_ZN6dealii18deal_II_exceptions9internals17issue_error_throwINS_18StandardExceptions5ExcIOEEEvPKciS6_S6_S6_T_(i8* getelementptr inbounds ([23 x i8], [23 x i8]* @.str.2, i64 0, i64 0), i32 102, i8* getelementptr inbounds ([1 x i8], [1 x i8]* @.str.3, i64 0, i64 0), i8* getelementptr inbounds ([3 x i8], [3 x i8]* @.str.4, i64 0, i64 0), i8* getelementptr inbounds ([8 x i8], [8 x i8]* @.str.5, i64 0, i64 0), %"class.dealii::StandardExceptions::ExcIO"* %agg.tmp44)
          to label %invoke.cont47 unwind label %lpad46, !dbg !7640

invoke.cont47:                                    ; preds = %invoke.cont45
  call void @_ZN6dealii18StandardExceptions5ExcIOD2Ev(%"class.dealii::StandardExceptions::ExcIO"* %agg.tmp44) #3, !dbg !7640
  br label %if.end48, !dbg !7640

lpad40:                                           ; preds = %invoke.cont306, %invoke.cont305, %invoke.cont304, %invoke.cont303, %if.end302, %if.then296, %for.end289, %if.then43, %for.body35
  %37 = landingpad { i8*, i32 }
          cleanup, !dbg !7645
  %38 = extractvalue { i8*, i32 } %37, 0, !dbg !7645
  store i8* %38, i8** %exn.slot, align 8, !dbg !7645
  %39 = extractvalue { i8*, i32 } %37, 1, !dbg !7645
  store i32 %39, i32* %ehselector.slot, align 4, !dbg !7645
  br label %ehcleanup310, !dbg !7645

lpad46:                                           ; preds = %invoke.cont45
  %40 = landingpad { i8*, i32 }
          cleanup, !dbg !7645
  %41 = extractvalue { i8*, i32 } %40, 0, !dbg !7645
  store i8* %41, i8** %exn.slot, align 8, !dbg !7645
  %42 = extractvalue { i8*, i32 } %40, 1, !dbg !7645
  store i32 %42, i32* %ehselector.slot, align 4, !dbg !7645
  call void @_ZN6dealii18StandardExceptions5ExcIOD2Ev(%"class.dealii::StandardExceptions::ExcIO"* %agg.tmp44) #3, !dbg !7640
  br label %ehcleanup310, !dbg !7640

if.end48:                                         ; preds = %invoke.cont47, %invoke.cont41
  call void @llvm.dbg.declare(metadata %"class.std::__cxx11::basic_string"* %cell_type, metadata !7646, metadata !DIExpression()), !dbg !7647
  call void @_ZNSt7__cxx1112basic_stringIcSt11char_traitsIcESaIcEEC1Ev(%"class.std::__cxx11::basic_string"* %cell_type) #3, !dbg !7647
  call void @llvm.dbg.declare(metadata i32* %material_id, metadata !7648, metadata !DIExpression()), !dbg !7649
  %43 = load %"class.std::basic_istream"*, %"class.std::basic_istream"** %in.addr, align 8, !dbg !7650
  %call51 = invoke dereferenceable(280) %"class.std::basic_istream"* @_ZNSirsERi(%"class.std::basic_istream"* %43, i32* dereferenceable(4) %dummy)
          to label %invoke.cont50 unwind label %lpad49, !dbg !7651

invoke.cont50:                                    ; preds = %if.end48
  %call53 = invoke dereferenceable(280) %"class.std::basic_istream"* @_ZNSirsERi(%"class.std::basic_istream"* %call51, i32* dereferenceable(4) %material_id)
          to label %invoke.cont52 unwind label %lpad49, !dbg !7652

invoke.cont52:                                    ; preds = %invoke.cont50
  %44 = load %"class.std::basic_istream"*, %"class.std::basic_istream"** %in.addr, align 8, !dbg !7653
  %call55 = invoke dereferenceable(280) %"class.std::basic_istream"* @_ZStrsIcSt11char_traitsIcESaIcEERSt13basic_istreamIT_T0_ES7_RNSt7__cxx1112basic_stringIS4_S5_T1_EE(%"class.std::basic_istream"* dereferenceable(280) %44, %"class.std::__cxx11::basic_string"* dereferenceable(32) %cell_type)
          to label %invoke.cont54 unwind label %lpad49, !dbg !7654

invoke.cont54:                                    ; preds = %invoke.cont52
  %call57 = invoke zeroext i1 @_ZSteqIcSt11char_traitsIcESaIcEEbRKNSt7__cxx1112basic_stringIT_T0_T1_EEPKS5_(%"class.std::__cxx11::basic_string"* dereferenceable(32) %cell_type, i8* getelementptr inbounds ([5 x i8], [5 x i8]* @.str.6, i64 0, i64 0))
          to label %invoke.cont56 unwind label %lpad49, !dbg !7655

invoke.cont56:                                    ; preds = %invoke.cont54
  br i1 %call57, label %land.lhs.true, label %lor.lhs.false, !dbg !7657

land.lhs.true:                                    ; preds = %invoke.cont56
  br i1 false, label %if.then64, label %lor.lhs.false, !dbg !7658

lor.lhs.false:                                    ; preds = %land.lhs.true, %invoke.cont56
  %call59 = invoke zeroext i1 @_ZSteqIcSt11char_traitsIcESaIcEEbRKNSt7__cxx1112basic_stringIT_T0_T1_EEPKS5_(%"class.std::__cxx11::basic_string"* dereferenceable(32) %cell_type, i8* getelementptr inbounds ([5 x i8], [5 x i8]* @.str.7, i64 0, i64 0))
          to label %invoke.cont58 unwind label %lpad49, !dbg !7659

invoke.cont58:                                    ; preds = %lor.lhs.false
  br i1 %call59, label %land.lhs.true60, label %lor.lhs.false61, !dbg !7660

land.lhs.true60:                                  ; preds = %invoke.cont58
  br i1 false, label %if.then64, label %lor.lhs.false61, !dbg !7661

lor.lhs.false61:                                  ; preds = %land.lhs.true60, %invoke.cont58
  %call63 = invoke zeroext i1 @_ZSteqIcSt11char_traitsIcESaIcEEbRKNSt7__cxx1112basic_stringIT_T0_T1_EEPKS5_(%"class.std::__cxx11::basic_string"* dereferenceable(32) %cell_type, i8* getelementptr inbounds ([4 x i8], [4 x i8]* @.str.8, i64 0, i64 0))
          to label %invoke.cont62 unwind label %lpad49, !dbg !7662

invoke.cont62:                                    ; preds = %lor.lhs.false61
  br i1 %call63, label %if.then64, label %if.else126, !dbg !7663

if.then64:                                        ; preds = %invoke.cont62, %land.lhs.true60, %land.lhs.true
  %45 = bitcast %"struct.dealii::CellData"* %ref.tmp65 to i8*, !dbg !7664
  call void @llvm.memset.p0i8.i64(i8* align 4 %45, i8 0, i64 36, i1 false), !dbg !7664
  invoke void @_ZNSt6vectorIN6dealii8CellDataILi3EEESaIS2_EE9push_backEOS2_(%"class.std::vector.110"* %cells, %"struct.dealii::CellData"* dereferenceable(36) %ref.tmp65)
          to label %invoke.cont66 unwind label %lpad49, !dbg !7666

invoke.cont66:                                    ; preds = %if.then64
  call void @llvm.dbg.declare(metadata i32* %i, metadata !7667, metadata !DIExpression()), !dbg !7669
  store i32 0, i32* %i, align 4, !dbg !7669
  br label %for.cond67, !dbg !7670

for.cond67:                                       ; preds = %for.inc76, %invoke.cont66
  %46 = load i32, i32* %i, align 4, !dbg !7671
  %cmp68 = icmp ult i32 %46, 8, !dbg !7673
  br i1 %cmp68, label %for.body69, label %for.end78, !dbg !7674

for.body69:                                       ; preds = %for.cond67
  %47 = load %"class.std::basic_istream"*, %"class.std::basic_istream"** %in.addr, align 8, !dbg !7675
  %call70 = call dereferenceable(36) %"struct.dealii::CellData"* @_ZNSt6vectorIN6dealii8CellDataILi3EEESaIS2_EE4backEv(%"class.std::vector.110"* %cells) #3, !dbg !7676
  %vertices71 = getelementptr inbounds %"struct.dealii::CellData", %"struct.dealii::CellData"* %call70, i32 0, i32 0, !dbg !7677
  %48 = load i32, i32* %i, align 4, !dbg !7678
  %idxprom72 = zext i32 %48 to i64, !dbg !7679
  %arrayidx73 = getelementptr inbounds [8 x i32], [8 x i32]* %vertices71, i64 0, i64 %idxprom72, !dbg !7679
  %call75 = invoke dereferenceable(280) %"class.std::basic_istream"* @_ZNSirsERj(%"class.std::basic_istream"* %47, i32* dereferenceable(4) %arrayidx73)
          to label %invoke.cont74 unwind label %lpad49, !dbg !7680

invoke.cont74:                                    ; preds = %for.body69
  br label %for.inc76, !dbg !7675

for.inc76:                                        ; preds = %invoke.cont74
  %49 = load i32, i32* %i, align 4, !dbg !7681
  %inc77 = add i32 %49, 1, !dbg !7681
  store i32 %inc77, i32* %i, align 4, !dbg !7681
  br label %for.cond67, !dbg !7682, !llvm.loop !7683

lpad49:                                           ; preds = %if.else275, %if.then251, %for.body236, %invoke.cont221, %invoke.cont215, %invoke.cont209, %invoke.cont204, %if.then202, %if.else199, %if.else180, %if.then166, %for.body151, %invoke.cont136, %invoke.cont131, %if.then129, %if.else126, %if.else, %if.then98, %for.body85, %for.body69, %if.then64, %lor.lhs.false61, %lor.lhs.false, %invoke.cont54, %invoke.cont52, %invoke.cont50, %if.end48
  %50 = landingpad { i8*, i32 }
          cleanup, !dbg !7685
  %51 = extractvalue { i8*, i32 } %50, 0, !dbg !7685
  store i8* %51, i8** %exn.slot, align 8, !dbg !7685
  %52 = extractvalue { i8*, i32 } %50, 1, !dbg !7685
  store i32 %52, i32* %ehselector.slot, align 4, !dbg !7685
  br label %ehcleanup286, !dbg !7685

for.end78:                                        ; preds = %for.cond67
  %53 = load i32, i32* %material_id, align 4, !dbg !7686
  %conv79 = trunc i32 %53 to i8, !dbg !7686
  %call80 = call dereferenceable(36) %"struct.dealii::CellData"* @_ZNSt6vectorIN6dealii8CellDataILi3EEESaIS2_EE4backEv(%"class.std::vector.110"* %cells) #3, !dbg !7687
  %material_id81 = getelementptr inbounds %"struct.dealii::CellData", %"struct.dealii::CellData"* %call80, i32 0, i32 1, !dbg !7688
  store i8 %conv79, i8* %material_id81, align 4, !dbg !7689
  call void @llvm.dbg.declare(metadata i32* %i82, metadata !7690, metadata !DIExpression()), !dbg !7692
  store i32 0, i32* %i82, align 4, !dbg !7692
  br label %for.cond83, !dbg !7693

for.cond83:                                       ; preds = %for.inc123, %for.end78
  %54 = load i32, i32* %i82, align 4, !dbg !7694
  %cmp84 = icmp ult i32 %54, 8, !dbg !7696
  br i1 %cmp84, label %for.body85, label %for.end125, !dbg !7697

for.body85:                                       ; preds = %for.cond83
  %call88 = call dereferenceable(36) %"struct.dealii::CellData"* @_ZNSt6vectorIN6dealii8CellDataILi3EEESaIS2_EE4backEv(%"class.std::vector.110"* %cells) #3, !dbg !7698
  %vertices89 = getelementptr inbounds %"struct.dealii::CellData", %"struct.dealii::CellData"* %call88, i32 0, i32 0, !dbg !7700
  %55 = load i32, i32* %i82, align 4, !dbg !7701
  %idxprom90 = zext i32 %55 to i64, !dbg !7702
  %arrayidx91 = getelementptr inbounds [8 x i32], [8 x i32]* %vertices89, i64 0, i64 %idxprom90, !dbg !7702
  %56 = load i32, i32* %arrayidx91, align 4, !dbg !7702
  store i32 %56, i32* %ref.tmp87, align 4, !dbg !7702
  %call93 = invoke %"struct.std::_Rb_tree_node_base"* @_ZNSt3mapIiiSt4lessIiESaISt4pairIKiiEEE4findERS3_(%"class.std::map.102"* %vertex_indices, i32* dereferenceable(4) %ref.tmp87)
          to label %invoke.cont92 unwind label %lpad49, !dbg !7703

invoke.cont92:                                    ; preds = %for.body85
  %coerce.dive = getelementptr inbounds %"struct.std::_Rb_tree_iterator", %"struct.std::_Rb_tree_iterator"* %ref.tmp86, i32 0, i32 0, !dbg !7703
  store %"struct.std::_Rb_tree_node_base"* %call93, %"struct.std::_Rb_tree_node_base"** %coerce.dive, align 8, !dbg !7703
  %call95 = call %"struct.std::_Rb_tree_node_base"* @_ZNSt3mapIiiSt4lessIiESaISt4pairIKiiEEE3endEv(%"class.std::map.102"* %vertex_indices) #3, !dbg !7704
  %coerce.dive96 = getelementptr inbounds %"struct.std::_Rb_tree_iterator", %"struct.std::_Rb_tree_iterator"* %ref.tmp94, i32 0, i32 0, !dbg !7704
  store %"struct.std::_Rb_tree_node_base"* %call95, %"struct.std::_Rb_tree_node_base"** %coerce.dive96, align 8, !dbg !7704
  %call97 = call zeroext i1 @_ZStneRKSt17_Rb_tree_iteratorISt4pairIKiiEES5_(%"struct.std::_Rb_tree_iterator"* dereferenceable(8) %ref.tmp86, %"struct.std::_Rb_tree_iterator"* dereferenceable(8) %ref.tmp94) #3, !dbg !7705
  br i1 %call97, label %if.then98, label %if.else, !dbg !7706

if.then98:                                        ; preds = %invoke.cont92
  %call100 = call dereferenceable(36) %"struct.dealii::CellData"* @_ZNSt6vectorIN6dealii8CellDataILi3EEESaIS2_EE4backEv(%"class.std::vector.110"* %cells) #3, !dbg !7707
  %vertices101 = getelementptr inbounds %"struct.dealii::CellData", %"struct.dealii::CellData"* %call100, i32 0, i32 0, !dbg !7708
  %57 = load i32, i32* %i82, align 4, !dbg !7709
  %idxprom102 = zext i32 %57 to i64, !dbg !7710
  %arrayidx103 = getelementptr inbounds [8 x i32], [8 x i32]* %vertices101, i64 0, i64 %idxprom102, !dbg !7710
  %58 = load i32, i32* %arrayidx103, align 4, !dbg !7710
  store i32 %58, i32* %ref.tmp99, align 4, !dbg !7710
  %call105 = invoke dereferenceable(4) i32* @_ZNSt3mapIiiSt4lessIiESaISt4pairIKiiEEEixEOi(%"class.std::map.102"* %vertex_indices, i32* dereferenceable(4) %ref.tmp99)
          to label %invoke.cont104 unwind label %lpad49, !dbg !7711

invoke.cont104:                                   ; preds = %if.then98
  %59 = load i32, i32* %call105, align 4, !dbg !7711
  %call106 = call dereferenceable(36) %"struct.dealii::CellData"* @_ZNSt6vectorIN6dealii8CellDataILi3EEESaIS2_EE4backEv(%"class.std::vector.110"* %cells) #3, !dbg !7712
  %vertices107 = getelementptr inbounds %"struct.dealii::CellData", %"struct.dealii::CellData"* %call106, i32 0, i32 0, !dbg !7713
  %60 = load i32, i32* %i82, align 4, !dbg !7714
  %idxprom108 = zext i32 %60 to i64, !dbg !7715
  %arrayidx109 = getelementptr inbounds [8 x i32], [8 x i32]* %vertices107, i64 0, i64 %idxprom108, !dbg !7715
  store i32 %59, i32* %arrayidx109, align 4, !dbg !7716
  br label %if.end122, !dbg !7715

if.else:                                          ; preds = %invoke.cont92
  %61 = load i32, i32* %cell, align 4, !dbg !7717
  %call111 = call dereferenceable(36) %"struct.dealii::CellData"* @_ZNSt6vectorIN6dealii8CellDataILi3EEESaIS2_EE4backEv(%"class.std::vector.110"* %cells) #3, !dbg !7717
  %vertices112 = getelementptr inbounds %"struct.dealii::CellData", %"struct.dealii::CellData"* %call111, i32 0, i32 0, !dbg !7717
  %62 = load i32, i32* %i82, align 4, !dbg !7717
  %idxprom113 = zext i32 %62 to i64, !dbg !7717
  %arrayidx114 = getelementptr inbounds [8 x i32], [8 x i32]* %vertices112, i64 0, i64 %idxprom113, !dbg !7717
  %63 = load i32, i32* %arrayidx114, align 4, !dbg !7717
  invoke void @_ZN6dealii6GridInILi3ELi3EE21ExcInvalidVertexIndexC1Eii(%"class.dealii::GridIn<3, 3>::ExcInvalidVertexIndex"* %agg.tmp110, i32 %61, i32 %63)
          to label %invoke.cont115 unwind label %lpad49, !dbg !7717

invoke.cont115:                                   ; preds = %if.else
  invoke void @_ZN6dealii18deal_II_exceptions9internals17issue_error_throwINS_6GridInILi3ELi3EE21ExcInvalidVertexIndexEEEvPKciS7_S7_S7_T_(i8* getelementptr inbounds ([23 x i8], [23 x i8]* @.str.2, i64 0, i64 0), i32 131, i8* getelementptr inbounds ([1 x i8], [1 x i8]* @.str.3, i64 0, i64 0), i8* getelementptr inbounds ([6 x i8], [6 x i8]* @.str.9, i64 0, i64 0), i8* getelementptr inbounds ([54 x i8], [54 x i8]* @.str.10, i64 0, i64 0), %"class.dealii::GridIn<3, 3>::ExcInvalidVertexIndex"* %agg.tmp110)
          to label %invoke.cont117 unwind label %lpad116, !dbg !7717

invoke.cont117:                                   ; preds = %invoke.cont115
  call void @_ZN6dealii6GridInILi3ELi3EE21ExcInvalidVertexIndexD1Ev(%"class.dealii::GridIn<3, 3>::ExcInvalidVertexIndex"* %agg.tmp110) #3, !dbg !7717
  %call118 = call dereferenceable(36) %"struct.dealii::CellData"* @_ZNSt6vectorIN6dealii8CellDataILi3EEESaIS2_EE4backEv(%"class.std::vector.110"* %cells) #3, !dbg !7721
  %vertices119 = getelementptr inbounds %"struct.dealii::CellData", %"struct.dealii::CellData"* %call118, i32 0, i32 0, !dbg !7722
  %64 = load i32, i32* %i82, align 4, !dbg !7723
  %idxprom120 = zext i32 %64 to i64, !dbg !7724
  %arrayidx121 = getelementptr inbounds [8 x i32], [8 x i32]* %vertices119, i64 0, i64 %idxprom120, !dbg !7724
  store i32 -1, i32* %arrayidx121, align 4, !dbg !7725
  br label %if.end122

lpad116:                                          ; preds = %invoke.cont115
  %65 = landingpad { i8*, i32 }
          cleanup, !dbg !7726
  %66 = extractvalue { i8*, i32 } %65, 0, !dbg !7726
  store i8* %66, i8** %exn.slot, align 8, !dbg !7726
  %67 = extractvalue { i8*, i32 } %65, 1, !dbg !7726
  store i32 %67, i32* %ehselector.slot, align 4, !dbg !7726
  call void @_ZN6dealii6GridInILi3ELi3EE21ExcInvalidVertexIndexD1Ev(%"class.dealii::GridIn<3, 3>::ExcInvalidVertexIndex"* %agg.tmp110) #3, !dbg !7717
  br label %ehcleanup286, !dbg !7717

if.end122:                                        ; preds = %invoke.cont117, %invoke.cont104
  br label %for.inc123, !dbg !7727

for.inc123:                                       ; preds = %if.end122
  %68 = load i32, i32* %i82, align 4, !dbg !7728
  %inc124 = add i32 %68, 1, !dbg !7728
  store i32 %inc124, i32* %i82, align 4, !dbg !7728
  br label %for.cond83, !dbg !7729, !llvm.loop !7730

for.end125:                                       ; preds = %for.cond83
  br label %if.end285, !dbg !7732

if.else126:                                       ; preds = %invoke.cont62
  %call128 = invoke zeroext i1 @_ZSteqIcSt11char_traitsIcESaIcEEbRKNSt7__cxx1112basic_stringIT_T0_T1_EEPKS5_(%"class.std::__cxx11::basic_string"* dereferenceable(32) %cell_type, i8* getelementptr inbounds ([5 x i8], [5 x i8]* @.str.6, i64 0, i64 0))
          to label %invoke.cont127 unwind label %lpad49, !dbg !7733

invoke.cont127:                                   ; preds = %if.else126
  br i1 %call128, label %if.then129, label %if.else199, !dbg !7735

if.then129:                                       ; preds = %invoke.cont127
  %boundary_lines = getelementptr inbounds %"struct.dealii::SubCellData", %"struct.dealii::SubCellData"* %subcelldata, i32 0, i32 0, !dbg !7736
  %69 = bitcast %"struct.dealii::CellData.120"* %ref.tmp130 to i8*, !dbg !7738
  call void @llvm.memset.p0i8.i64(i8* align 4 %69, i8 0, i64 12, i1 false), !dbg !7738
  invoke void @_ZNSt6vectorIN6dealii8CellDataILi1EEESaIS2_EE9push_backEOS2_(%"class.std::vector.115"* %boundary_lines, %"struct.dealii::CellData.120"* dereferenceable(12) %ref.tmp130)
          to label %invoke.cont131 unwind label %lpad49, !dbg !7739

invoke.cont131:                                   ; preds = %if.then129
  %70 = load %"class.std::basic_istream"*, %"class.std::basic_istream"** %in.addr, align 8, !dbg !7740
  %boundary_lines132 = getelementptr inbounds %"struct.dealii::SubCellData", %"struct.dealii::SubCellData"* %subcelldata, i32 0, i32 0, !dbg !7741
  %call133 = call dereferenceable(12) %"struct.dealii::CellData.120"* @_ZNSt6vectorIN6dealii8CellDataILi1EEESaIS2_EE4backEv(%"class.std::vector.115"* %boundary_lines132) #3, !dbg !7742
  %vertices134 = getelementptr inbounds %"struct.dealii::CellData.120", %"struct.dealii::CellData.120"* %call133, i32 0, i32 0, !dbg !7743
  %arrayidx135 = getelementptr inbounds [2 x i32], [2 x i32]* %vertices134, i64 0, i64 0, !dbg !7744
  %call137 = invoke dereferenceable(280) %"class.std::basic_istream"* @_ZNSirsERj(%"class.std::basic_istream"* %70, i32* dereferenceable(4) %arrayidx135)
          to label %invoke.cont136 unwind label %lpad49, !dbg !7745

invoke.cont136:                                   ; preds = %invoke.cont131
  %boundary_lines138 = getelementptr inbounds %"struct.dealii::SubCellData", %"struct.dealii::SubCellData"* %subcelldata, i32 0, i32 0, !dbg !7746
  %call139 = call dereferenceable(12) %"struct.dealii::CellData.120"* @_ZNSt6vectorIN6dealii8CellDataILi1EEESaIS2_EE4backEv(%"class.std::vector.115"* %boundary_lines138) #3, !dbg !7747
  %vertices140 = getelementptr inbounds %"struct.dealii::CellData.120", %"struct.dealii::CellData.120"* %call139, i32 0, i32 0, !dbg !7748
  %arrayidx141 = getelementptr inbounds [2 x i32], [2 x i32]* %vertices140, i64 0, i64 1, !dbg !7749
  %call143 = invoke dereferenceable(280) %"class.std::basic_istream"* @_ZNSirsERj(%"class.std::basic_istream"* %call137, i32* dereferenceable(4) %arrayidx141)
          to label %invoke.cont142 unwind label %lpad49, !dbg !7750

invoke.cont142:                                   ; preds = %invoke.cont136
  %71 = load i32, i32* %material_id, align 4, !dbg !7751
  %conv144 = trunc i32 %71 to i8, !dbg !7751
  %boundary_lines145 = getelementptr inbounds %"struct.dealii::SubCellData", %"struct.dealii::SubCellData"* %subcelldata, i32 0, i32 0, !dbg !7752
  %call146 = call dereferenceable(12) %"struct.dealii::CellData.120"* @_ZNSt6vectorIN6dealii8CellDataILi1EEESaIS2_EE4backEv(%"class.std::vector.115"* %boundary_lines145) #3, !dbg !7753
  %material_id147 = getelementptr inbounds %"struct.dealii::CellData.120", %"struct.dealii::CellData.120"* %call146, i32 0, i32 1, !dbg !7754
  store i8 %conv144, i8* %material_id147, align 4, !dbg !7755
  call void @llvm.dbg.declare(metadata i32* %i148, metadata !7756, metadata !DIExpression()), !dbg !7758
  store i32 0, i32* %i148, align 4, !dbg !7758
  br label %for.cond149, !dbg !7759

for.cond149:                                      ; preds = %for.inc196, %invoke.cont142
  %72 = load i32, i32* %i148, align 4, !dbg !7760
  %cmp150 = icmp ult i32 %72, 2, !dbg !7762
  br i1 %cmp150, label %for.body151, label %for.end198, !dbg !7763

for.body151:                                      ; preds = %for.cond149
  %boundary_lines154 = getelementptr inbounds %"struct.dealii::SubCellData", %"struct.dealii::SubCellData"* %subcelldata, i32 0, i32 0, !dbg !7764
  %call155 = call dereferenceable(12) %"struct.dealii::CellData.120"* @_ZNSt6vectorIN6dealii8CellDataILi1EEESaIS2_EE4backEv(%"class.std::vector.115"* %boundary_lines154) #3, !dbg !7766
  %vertices156 = getelementptr inbounds %"struct.dealii::CellData.120", %"struct.dealii::CellData.120"* %call155, i32 0, i32 0, !dbg !7767
  %73 = load i32, i32* %i148, align 4, !dbg !7768
  %idxprom157 = zext i32 %73 to i64, !dbg !7769
  %arrayidx158 = getelementptr inbounds [2 x i32], [2 x i32]* %vertices156, i64 0, i64 %idxprom157, !dbg !7769
  %74 = load i32, i32* %arrayidx158, align 4, !dbg !7769
  store i32 %74, i32* %ref.tmp153, align 4, !dbg !7769
  %call160 = invoke %"struct.std::_Rb_tree_node_base"* @_ZNSt3mapIiiSt4lessIiESaISt4pairIKiiEEE4findERS3_(%"class.std::map.102"* %vertex_indices, i32* dereferenceable(4) %ref.tmp153)
          to label %invoke.cont159 unwind label %lpad49, !dbg !7770

invoke.cont159:                                   ; preds = %for.body151
  %coerce.dive161 = getelementptr inbounds %"struct.std::_Rb_tree_iterator", %"struct.std::_Rb_tree_iterator"* %ref.tmp152, i32 0, i32 0, !dbg !7770
  store %"struct.std::_Rb_tree_node_base"* %call160, %"struct.std::_Rb_tree_node_base"** %coerce.dive161, align 8, !dbg !7770
  %call163 = call %"struct.std::_Rb_tree_node_base"* @_ZNSt3mapIiiSt4lessIiESaISt4pairIKiiEEE3endEv(%"class.std::map.102"* %vertex_indices) #3, !dbg !7771
  %coerce.dive164 = getelementptr inbounds %"struct.std::_Rb_tree_iterator", %"struct.std::_Rb_tree_iterator"* %ref.tmp162, i32 0, i32 0, !dbg !7771
  store %"struct.std::_Rb_tree_node_base"* %call163, %"struct.std::_Rb_tree_node_base"** %coerce.dive164, align 8, !dbg !7771
  %call165 = call zeroext i1 @_ZStneRKSt17_Rb_tree_iteratorISt4pairIKiiEES5_(%"struct.std::_Rb_tree_iterator"* dereferenceable(8) %ref.tmp152, %"struct.std::_Rb_tree_iterator"* dereferenceable(8) %ref.tmp162) #3, !dbg !7772
  br i1 %call165, label %if.then166, label %if.else180, !dbg !7773

if.then166:                                       ; preds = %invoke.cont159
  %boundary_lines168 = getelementptr inbounds %"struct.dealii::SubCellData", %"struct.dealii::SubCellData"* %subcelldata, i32 0, i32 0, !dbg !7774
  %call169 = call dereferenceable(12) %"struct.dealii::CellData.120"* @_ZNSt6vectorIN6dealii8CellDataILi1EEESaIS2_EE4backEv(%"class.std::vector.115"* %boundary_lines168) #3, !dbg !7775
  %vertices170 = getelementptr inbounds %"struct.dealii::CellData.120", %"struct.dealii::CellData.120"* %call169, i32 0, i32 0, !dbg !7776
  %75 = load i32, i32* %i148, align 4, !dbg !7777
  %idxprom171 = zext i32 %75 to i64, !dbg !7778
  %arrayidx172 = getelementptr inbounds [2 x i32], [2 x i32]* %vertices170, i64 0, i64 %idxprom171, !dbg !7778
  %76 = load i32, i32* %arrayidx172, align 4, !dbg !7778
  store i32 %76, i32* %ref.tmp167, align 4, !dbg !7778
  %call174 = invoke dereferenceable(4) i32* @_ZNSt3mapIiiSt4lessIiESaISt4pairIKiiEEEixEOi(%"class.std::map.102"* %vertex_indices, i32* dereferenceable(4) %ref.tmp167)
          to label %invoke.cont173 unwind label %lpad49, !dbg !7779

invoke.cont173:                                   ; preds = %if.then166
  %77 = load i32, i32* %call174, align 4, !dbg !7779
  %boundary_lines175 = getelementptr inbounds %"struct.dealii::SubCellData", %"struct.dealii::SubCellData"* %subcelldata, i32 0, i32 0, !dbg !7780
  %call176 = call dereferenceable(12) %"struct.dealii::CellData.120"* @_ZNSt6vectorIN6dealii8CellDataILi1EEESaIS2_EE4backEv(%"class.std::vector.115"* %boundary_lines175) #3, !dbg !7781
  %vertices177 = getelementptr inbounds %"struct.dealii::CellData.120", %"struct.dealii::CellData.120"* %call176, i32 0, i32 0, !dbg !7782
  %78 = load i32, i32* %i148, align 4, !dbg !7783
  %idxprom178 = zext i32 %78 to i64, !dbg !7784
  %arrayidx179 = getelementptr inbounds [2 x i32], [2 x i32]* %vertices177, i64 0, i64 %idxprom178, !dbg !7784
  store i32 %77, i32* %arrayidx179, align 4, !dbg !7785
  br label %if.end195, !dbg !7784

if.else180:                                       ; preds = %invoke.cont159
  %79 = load i32, i32* %cell, align 4, !dbg !7786
  %boundary_lines182 = getelementptr inbounds %"struct.dealii::SubCellData", %"struct.dealii::SubCellData"* %subcelldata, i32 0, i32 0, !dbg !7786
  %call183 = call dereferenceable(12) %"struct.dealii::CellData.120"* @_ZNSt6vectorIN6dealii8CellDataILi1EEESaIS2_EE4backEv(%"class.std::vector.115"* %boundary_lines182) #3, !dbg !7786
  %vertices184 = getelementptr inbounds %"struct.dealii::CellData.120", %"struct.dealii::CellData.120"* %call183, i32 0, i32 0, !dbg !7786
  %80 = load i32, i32* %i148, align 4, !dbg !7786
  %idxprom185 = zext i32 %80 to i64, !dbg !7786
  %arrayidx186 = getelementptr inbounds [2 x i32], [2 x i32]* %vertices184, i64 0, i64 %idxprom185, !dbg !7786
  %81 = load i32, i32* %arrayidx186, align 4, !dbg !7786
  invoke void @_ZN6dealii6GridInILi3ELi3EE21ExcInvalidVertexIndexC1Eii(%"class.dealii::GridIn<3, 3>::ExcInvalidVertexIndex"* %agg.tmp181, i32 %79, i32 %81)
          to label %invoke.cont187 unwind label %lpad49, !dbg !7786

invoke.cont187:                                   ; preds = %if.else180
  invoke void @_ZN6dealii18deal_II_exceptions9internals17issue_error_throwINS_6GridInILi3ELi3EE21ExcInvalidVertexIndexEEEvPKciS7_S7_S7_T_(i8* getelementptr inbounds ([23 x i8], [23 x i8]* @.str.2, i64 0, i64 0), i32 157, i8* getelementptr inbounds ([1 x i8], [1 x i8]* @.str.3, i64 0, i64 0), i8* getelementptr inbounds ([6 x i8], [6 x i8]* @.str.9, i64 0, i64 0), i8* getelementptr inbounds ([75 x i8], [75 x i8]* @.str.11, i64 0, i64 0), %"class.dealii::GridIn<3, 3>::ExcInvalidVertexIndex"* %agg.tmp181)
          to label %invoke.cont189 unwind label %lpad188, !dbg !7786

invoke.cont189:                                   ; preds = %invoke.cont187
  call void @_ZN6dealii6GridInILi3ELi3EE21ExcInvalidVertexIndexD1Ev(%"class.dealii::GridIn<3, 3>::ExcInvalidVertexIndex"* %agg.tmp181) #3, !dbg !7786
  %boundary_lines190 = getelementptr inbounds %"struct.dealii::SubCellData", %"struct.dealii::SubCellData"* %subcelldata, i32 0, i32 0, !dbg !7790
  %call191 = call dereferenceable(12) %"struct.dealii::CellData.120"* @_ZNSt6vectorIN6dealii8CellDataILi1EEESaIS2_EE4backEv(%"class.std::vector.115"* %boundary_lines190) #3, !dbg !7791
  %vertices192 = getelementptr inbounds %"struct.dealii::CellData.120", %"struct.dealii::CellData.120"* %call191, i32 0, i32 0, !dbg !7792
  %82 = load i32, i32* %i148, align 4, !dbg !7793
  %idxprom193 = zext i32 %82 to i64, !dbg !7794
  %arrayidx194 = getelementptr inbounds [2 x i32], [2 x i32]* %vertices192, i64 0, i64 %idxprom193, !dbg !7794
  store i32 -1, i32* %arrayidx194, align 4, !dbg !7795
  br label %if.end195

lpad188:                                          ; preds = %invoke.cont187
  %83 = landingpad { i8*, i32 }
          cleanup, !dbg !7796
  %84 = extractvalue { i8*, i32 } %83, 0, !dbg !7796
  store i8* %84, i8** %exn.slot, align 8, !dbg !7796
  %85 = extractvalue { i8*, i32 } %83, 1, !dbg !7796
  store i32 %85, i32* %ehselector.slot, align 4, !dbg !7796
  call void @_ZN6dealii6GridInILi3ELi3EE21ExcInvalidVertexIndexD1Ev(%"class.dealii::GridIn<3, 3>::ExcInvalidVertexIndex"* %agg.tmp181) #3, !dbg !7786
  br label %ehcleanup286, !dbg !7786

if.end195:                                        ; preds = %invoke.cont189, %invoke.cont173
  br label %for.inc196, !dbg !7797

for.inc196:                                       ; preds = %if.end195
  %86 = load i32, i32* %i148, align 4, !dbg !7798
  %inc197 = add i32 %86, 1, !dbg !7798
  store i32 %inc197, i32* %i148, align 4, !dbg !7798
  br label %for.cond149, !dbg !7799, !llvm.loop !7800

for.end198:                                       ; preds = %for.cond149
  br label %if.end284, !dbg !7802

if.else199:                                       ; preds = %invoke.cont127
  %call201 = invoke zeroext i1 @_ZSteqIcSt11char_traitsIcESaIcEEbRKNSt7__cxx1112basic_stringIT_T0_T1_EEPKS5_(%"class.std::__cxx11::basic_string"* dereferenceable(32) %cell_type, i8* getelementptr inbounds ([5 x i8], [5 x i8]* @.str.7, i64 0, i64 0))
          to label %invoke.cont200 unwind label %lpad49, !dbg !7803

invoke.cont200:                                   ; preds = %if.else199
  br i1 %call201, label %if.then202, label %if.else275, !dbg !7805

if.then202:                                       ; preds = %invoke.cont200
  %boundary_quads = getelementptr inbounds %"struct.dealii::SubCellData", %"struct.dealii::SubCellData"* %subcelldata, i32 0, i32 1, !dbg !7806
  %87 = bitcast %"struct.dealii::CellData.126"* %ref.tmp203 to i8*, !dbg !7808
  call void @llvm.memset.p0i8.i64(i8* align 4 %87, i8 0, i64 20, i1 false), !dbg !7808
  invoke void @_ZNSt6vectorIN6dealii8CellDataILi2EEESaIS2_EE9push_backEOS2_(%"class.std::vector.121"* %boundary_quads, %"struct.dealii::CellData.126"* dereferenceable(20) %ref.tmp203)
          to label %invoke.cont204 unwind label %lpad49, !dbg !7809

invoke.cont204:                                   ; preds = %if.then202
  %88 = load %"class.std::basic_istream"*, %"class.std::basic_istream"** %in.addr, align 8, !dbg !7810
  %boundary_quads205 = getelementptr inbounds %"struct.dealii::SubCellData", %"struct.dealii::SubCellData"* %subcelldata, i32 0, i32 1, !dbg !7811
  %call206 = call dereferenceable(20) %"struct.dealii::CellData.126"* @_ZNSt6vectorIN6dealii8CellDataILi2EEESaIS2_EE4backEv(%"class.std::vector.121"* %boundary_quads205) #3, !dbg !7812
  %vertices207 = getelementptr inbounds %"struct.dealii::CellData.126", %"struct.dealii::CellData.126"* %call206, i32 0, i32 0, !dbg !7813
  %arrayidx208 = getelementptr inbounds [4 x i32], [4 x i32]* %vertices207, i64 0, i64 0, !dbg !7814
  %call210 = invoke dereferenceable(280) %"class.std::basic_istream"* @_ZNSirsERj(%"class.std::basic_istream"* %88, i32* dereferenceable(4) %arrayidx208)
          to label %invoke.cont209 unwind label %lpad49, !dbg !7815

invoke.cont209:                                   ; preds = %invoke.cont204
  %boundary_quads211 = getelementptr inbounds %"struct.dealii::SubCellData", %"struct.dealii::SubCellData"* %subcelldata, i32 0, i32 1, !dbg !7816
  %call212 = call dereferenceable(20) %"struct.dealii::CellData.126"* @_ZNSt6vectorIN6dealii8CellDataILi2EEESaIS2_EE4backEv(%"class.std::vector.121"* %boundary_quads211) #3, !dbg !7817
  %vertices213 = getelementptr inbounds %"struct.dealii::CellData.126", %"struct.dealii::CellData.126"* %call212, i32 0, i32 0, !dbg !7818
  %arrayidx214 = getelementptr inbounds [4 x i32], [4 x i32]* %vertices213, i64 0, i64 1, !dbg !7819
  %call216 = invoke dereferenceable(280) %"class.std::basic_istream"* @_ZNSirsERj(%"class.std::basic_istream"* %call210, i32* dereferenceable(4) %arrayidx214)
          to label %invoke.cont215 unwind label %lpad49, !dbg !7820

invoke.cont215:                                   ; preds = %invoke.cont209
  %boundary_quads217 = getelementptr inbounds %"struct.dealii::SubCellData", %"struct.dealii::SubCellData"* %subcelldata, i32 0, i32 1, !dbg !7821
  %call218 = call dereferenceable(20) %"struct.dealii::CellData.126"* @_ZNSt6vectorIN6dealii8CellDataILi2EEESaIS2_EE4backEv(%"class.std::vector.121"* %boundary_quads217) #3, !dbg !7822
  %vertices219 = getelementptr inbounds %"struct.dealii::CellData.126", %"struct.dealii::CellData.126"* %call218, i32 0, i32 0, !dbg !7823
  %arrayidx220 = getelementptr inbounds [4 x i32], [4 x i32]* %vertices219, i64 0, i64 2, !dbg !7824
  %call222 = invoke dereferenceable(280) %"class.std::basic_istream"* @_ZNSirsERj(%"class.std::basic_istream"* %call216, i32* dereferenceable(4) %arrayidx220)
          to label %invoke.cont221 unwind label %lpad49, !dbg !7825

invoke.cont221:                                   ; preds = %invoke.cont215
  %boundary_quads223 = getelementptr inbounds %"struct.dealii::SubCellData", %"struct.dealii::SubCellData"* %subcelldata, i32 0, i32 1, !dbg !7826
  %call224 = call dereferenceable(20) %"struct.dealii::CellData.126"* @_ZNSt6vectorIN6dealii8CellDataILi2EEESaIS2_EE4backEv(%"class.std::vector.121"* %boundary_quads223) #3, !dbg !7827
  %vertices225 = getelementptr inbounds %"struct.dealii::CellData.126", %"struct.dealii::CellData.126"* %call224, i32 0, i32 0, !dbg !7828
  %arrayidx226 = getelementptr inbounds [4 x i32], [4 x i32]* %vertices225, i64 0, i64 3, !dbg !7829
  %call228 = invoke dereferenceable(280) %"class.std::basic_istream"* @_ZNSirsERj(%"class.std::basic_istream"* %call222, i32* dereferenceable(4) %arrayidx226)
          to label %invoke.cont227 unwind label %lpad49, !dbg !7830

invoke.cont227:                                   ; preds = %invoke.cont221
  %89 = load i32, i32* %material_id, align 4, !dbg !7831
  %conv229 = trunc i32 %89 to i8, !dbg !7831
  %boundary_quads230 = getelementptr inbounds %"struct.dealii::SubCellData", %"struct.dealii::SubCellData"* %subcelldata, i32 0, i32 1, !dbg !7832
  %call231 = call dereferenceable(20) %"struct.dealii::CellData.126"* @_ZNSt6vectorIN6dealii8CellDataILi2EEESaIS2_EE4backEv(%"class.std::vector.121"* %boundary_quads230) #3, !dbg !7833
  %material_id232 = getelementptr inbounds %"struct.dealii::CellData.126", %"struct.dealii::CellData.126"* %call231, i32 0, i32 1, !dbg !7834
  store i8 %conv229, i8* %material_id232, align 4, !dbg !7835
  call void @llvm.dbg.declare(metadata i32* %i233, metadata !7836, metadata !DIExpression()), !dbg !7838
  store i32 0, i32* %i233, align 4, !dbg !7838
  br label %for.cond234, !dbg !7839

for.cond234:                                      ; preds = %for.inc272, %invoke.cont227
  %90 = load i32, i32* %i233, align 4, !dbg !7840
  %cmp235 = icmp ult i32 %90, 4, !dbg !7842
  br i1 %cmp235, label %for.body236, label %for.end274, !dbg !7843

for.body236:                                      ; preds = %for.cond234
  %boundary_quads239 = getelementptr inbounds %"struct.dealii::SubCellData", %"struct.dealii::SubCellData"* %subcelldata, i32 0, i32 1, !dbg !7844
  %call240 = call dereferenceable(20) %"struct.dealii::CellData.126"* @_ZNSt6vectorIN6dealii8CellDataILi2EEESaIS2_EE4backEv(%"class.std::vector.121"* %boundary_quads239) #3, !dbg !7846
  %vertices241 = getelementptr inbounds %"struct.dealii::CellData.126", %"struct.dealii::CellData.126"* %call240, i32 0, i32 0, !dbg !7847
  %91 = load i32, i32* %i233, align 4, !dbg !7848
  %idxprom242 = zext i32 %91 to i64, !dbg !7849
  %arrayidx243 = getelementptr inbounds [4 x i32], [4 x i32]* %vertices241, i64 0, i64 %idxprom242, !dbg !7849
  %92 = load i32, i32* %arrayidx243, align 4, !dbg !7849
  store i32 %92, i32* %ref.tmp238, align 4, !dbg !7849
  %call245 = invoke %"struct.std::_Rb_tree_node_base"* @_ZNSt3mapIiiSt4lessIiESaISt4pairIKiiEEE4findERS3_(%"class.std::map.102"* %vertex_indices, i32* dereferenceable(4) %ref.tmp238)
          to label %invoke.cont244 unwind label %lpad49, !dbg !7850

invoke.cont244:                                   ; preds = %for.body236
  %coerce.dive246 = getelementptr inbounds %"struct.std::_Rb_tree_iterator", %"struct.std::_Rb_tree_iterator"* %ref.tmp237, i32 0, i32 0, !dbg !7850
  store %"struct.std::_Rb_tree_node_base"* %call245, %"struct.std::_Rb_tree_node_base"** %coerce.dive246, align 8, !dbg !7850
  %call248 = call %"struct.std::_Rb_tree_node_base"* @_ZNSt3mapIiiSt4lessIiESaISt4pairIKiiEEE3endEv(%"class.std::map.102"* %vertex_indices) #3, !dbg !7851
  %coerce.dive249 = getelementptr inbounds %"struct.std::_Rb_tree_iterator", %"struct.std::_Rb_tree_iterator"* %ref.tmp247, i32 0, i32 0, !dbg !7851
  store %"struct.std::_Rb_tree_node_base"* %call248, %"struct.std::_Rb_tree_node_base"** %coerce.dive249, align 8, !dbg !7851
  %call250 = call zeroext i1 @_ZStneRKSt17_Rb_tree_iteratorISt4pairIKiiEES5_(%"struct.std::_Rb_tree_iterator"* dereferenceable(8) %ref.tmp237, %"struct.std::_Rb_tree_iterator"* dereferenceable(8) %ref.tmp247) #3, !dbg !7852
  br i1 %call250, label %if.then251, label %if.else265, !dbg !7853

if.then251:                                       ; preds = %invoke.cont244
  %boundary_quads253 = getelementptr inbounds %"struct.dealii::SubCellData", %"struct.dealii::SubCellData"* %subcelldata, i32 0, i32 1, !dbg !7854
  %call254 = call dereferenceable(20) %"struct.dealii::CellData.126"* @_ZNSt6vectorIN6dealii8CellDataILi2EEESaIS2_EE4backEv(%"class.std::vector.121"* %boundary_quads253) #3, !dbg !7855
  %vertices255 = getelementptr inbounds %"struct.dealii::CellData.126", %"struct.dealii::CellData.126"* %call254, i32 0, i32 0, !dbg !7856
  %93 = load i32, i32* %i233, align 4, !dbg !7857
  %idxprom256 = zext i32 %93 to i64, !dbg !7858
  %arrayidx257 = getelementptr inbounds [4 x i32], [4 x i32]* %vertices255, i64 0, i64 %idxprom256, !dbg !7858
  %94 = load i32, i32* %arrayidx257, align 4, !dbg !7858
  store i32 %94, i32* %ref.tmp252, align 4, !dbg !7858
  %call259 = invoke dereferenceable(4) i32* @_ZNSt3mapIiiSt4lessIiESaISt4pairIKiiEEEixEOi(%"class.std::map.102"* %vertex_indices, i32* dereferenceable(4) %ref.tmp252)
          to label %invoke.cont258 unwind label %lpad49, !dbg !7859

invoke.cont258:                                   ; preds = %if.then251
  %95 = load i32, i32* %call259, align 4, !dbg !7859
  %boundary_quads260 = getelementptr inbounds %"struct.dealii::SubCellData", %"struct.dealii::SubCellData"* %subcelldata, i32 0, i32 1, !dbg !7860
  %call261 = call dereferenceable(20) %"struct.dealii::CellData.126"* @_ZNSt6vectorIN6dealii8CellDataILi2EEESaIS2_EE4backEv(%"class.std::vector.121"* %boundary_quads260) #3, !dbg !7861
  %vertices262 = getelementptr inbounds %"struct.dealii::CellData.126", %"struct.dealii::CellData.126"* %call261, i32 0, i32 0, !dbg !7862
  %96 = load i32, i32* %i233, align 4, !dbg !7863
  %idxprom263 = zext i32 %96 to i64, !dbg !7864
  %arrayidx264 = getelementptr inbounds [4 x i32], [4 x i32]* %vertices262, i64 0, i64 %idxprom263, !dbg !7864
  store i32 %95, i32* %arrayidx264, align 4, !dbg !7865
  br label %if.end271, !dbg !7864

if.else265:                                       ; preds = %invoke.cont244
  %boundary_quads266 = getelementptr inbounds %"struct.dealii::SubCellData", %"struct.dealii::SubCellData"* %subcelldata, i32 0, i32 1, !dbg !7866
  %call267 = call dereferenceable(20) %"struct.dealii::CellData.126"* @_ZNSt6vectorIN6dealii8CellDataILi2EEESaIS2_EE4backEv(%"class.std::vector.121"* %boundary_quads266) #3, !dbg !7868
  %vertices268 = getelementptr inbounds %"struct.dealii::CellData.126", %"struct.dealii::CellData.126"* %call267, i32 0, i32 0, !dbg !7869
  %97 = load i32, i32* %i233, align 4, !dbg !7870
  %idxprom269 = zext i32 %97 to i64, !dbg !7871
  %arrayidx270 = getelementptr inbounds [4 x i32], [4 x i32]* %vertices268, i64 0, i64 %idxprom269, !dbg !7871
  store i32 -1, i32* %arrayidx270, align 4, !dbg !7872
  br label %if.end271

if.end271:                                        ; preds = %if.else265, %invoke.cont258
  br label %for.inc272, !dbg !7873

for.inc272:                                       ; preds = %if.end271
  %98 = load i32, i32* %i233, align 4, !dbg !7874
  %inc273 = add i32 %98, 1, !dbg !7874
  store i32 %inc273, i32* %i233, align 4, !dbg !7874
  br label %for.cond234, !dbg !7875, !llvm.loop !7876

for.end274:                                       ; preds = %for.cond234
  br label %if.end283, !dbg !7878

if.else275:                                       ; preds = %invoke.cont200
  invoke void @_ZNSt7__cxx1112basic_stringIcSt11char_traitsIcESaIcEEC1ERKS4_(%"class.std::__cxx11::basic_string"* %agg.tmp277, %"class.std::__cxx11::basic_string"* dereferenceable(32) %cell_type)
          to label %invoke.cont278 unwind label %lpad49, !dbg !7879

invoke.cont278:                                   ; preds = %if.else275
  invoke void @_ZN6dealii6GridInILi3ELi3EE20ExcUnknownIdentifierC1ENSt7__cxx1112basic_stringIcSt11char_traitsIcESaIcEEE(%"class.dealii::GridIn<3, 3>::ExcUnknownIdentifier"* %agg.tmp276, %"class.std::__cxx11::basic_string"* %agg.tmp277)
          to label %invoke.cont280 unwind label %lpad279, !dbg !7879

invoke.cont280:                                   ; preds = %invoke.cont278
  invoke void @_ZN6dealii18deal_II_exceptions9internals17issue_error_throwINS_6GridInILi3ELi3EE20ExcUnknownIdentifierEEEvPKciS7_S7_S7_T_(i8* getelementptr inbounds ([23 x i8], [23 x i8]* @.str.2, i64 0, i64 0), i32 195, i8* getelementptr inbounds ([1 x i8], [1 x i8]* @.str.3, i64 0, i64 0), i8* getelementptr inbounds ([6 x i8], [6 x i8]* @.str.9, i64 0, i64 0), i8* getelementptr inbounds ([32 x i8], [32 x i8]* @.str.12, i64 0, i64 0), %"class.dealii::GridIn<3, 3>::ExcUnknownIdentifier"* %agg.tmp276)
          to label %invoke.cont282 unwind label %lpad281, !dbg !7879

invoke.cont282:                                   ; preds = %invoke.cont280
  call void @_ZN6dealii6GridInILi3ELi3EE20ExcUnknownIdentifierD1Ev(%"class.dealii::GridIn<3, 3>::ExcUnknownIdentifier"* %agg.tmp276) #3, !dbg !7879
  call void @_ZNSt7__cxx1112basic_stringIcSt11char_traitsIcESaIcEED1Ev(%"class.std::__cxx11::basic_string"* %agg.tmp277) #3, !dbg !7879
  br label %if.end283

lpad279:                                          ; preds = %invoke.cont278
  %99 = landingpad { i8*, i32 }
          cleanup, !dbg !7882
  %100 = extractvalue { i8*, i32 } %99, 0, !dbg !7882
  store i8* %100, i8** %exn.slot, align 8, !dbg !7882
  %101 = extractvalue { i8*, i32 } %99, 1, !dbg !7882
  store i32 %101, i32* %ehselector.slot, align 4, !dbg !7882
  br label %ehcleanup, !dbg !7882

lpad281:                                          ; preds = %invoke.cont280
  %102 = landingpad { i8*, i32 }
          cleanup, !dbg !7882
  %103 = extractvalue { i8*, i32 } %102, 0, !dbg !7882
  store i8* %103, i8** %exn.slot, align 8, !dbg !7882
  %104 = extractvalue { i8*, i32 } %102, 1, !dbg !7882
  store i32 %104, i32* %ehselector.slot, align 4, !dbg !7882
  call void @_ZN6dealii6GridInILi3ELi3EE20ExcUnknownIdentifierD1Ev(%"class.dealii::GridIn<3, 3>::ExcUnknownIdentifier"* %agg.tmp276) #3, !dbg !7879
  br label %ehcleanup, !dbg !7879

ehcleanup:                                        ; preds = %lpad281, %lpad279
  call void @_ZNSt7__cxx1112basic_stringIcSt11char_traitsIcESaIcEED1Ev(%"class.std::__cxx11::basic_string"* %agg.tmp277) #3, !dbg !7879
  br label %ehcleanup286, !dbg !7879

if.end283:                                        ; preds = %invoke.cont282, %for.end274
  br label %if.end284

if.end284:                                        ; preds = %if.end283, %for.end198
  br label %if.end285

if.end285:                                        ; preds = %if.end284, %for.end125
  call void @_ZNSt7__cxx1112basic_stringIcSt11char_traitsIcESaIcEED1Ev(%"class.std::__cxx11::basic_string"* %cell_type) #3, !dbg !7883
  br label %for.inc287, !dbg !7884

for.inc287:                                       ; preds = %if.end285
  %105 = load i32, i32* %cell, align 4, !dbg !7885
  %inc288 = add i32 %105, 1, !dbg !7885
  store i32 %inc288, i32* %cell, align 4, !dbg !7885
  br label %for.cond33, !dbg !7886, !llvm.loop !7887

ehcleanup286:                                     ; preds = %ehcleanup, %lpad188, %lpad116, %lpad49
  call void @_ZNSt7__cxx1112basic_stringIcSt11char_traitsIcESaIcEED1Ev(%"class.std::__cxx11::basic_string"* %cell_type) #3, !dbg !7883
  br label %ehcleanup310, !dbg !7883

for.end289:                                       ; preds = %for.cond33
  %106 = load %"class.std::basic_istream"*, %"class.std::basic_istream"** %in.addr, align 8, !dbg !7889
  %107 = bitcast %"class.std::basic_istream"* %106 to i8**, !dbg !7889
  %vtable290 = load i8*, i8** %107, align 8, !dbg !7889
  %vbase.offset.ptr291 = getelementptr i8, i8* %vtable290, i64 -24, !dbg !7889
  %108 = bitcast i8* %vbase.offset.ptr291 to i64*, !dbg !7889
  %vbase.offset292 = load i64, i64* %108, align 8, !dbg !7889
  %109 = bitcast %"class.std::basic_istream"* %106 to i8*, !dbg !7889
  %add.ptr293 = getelementptr inbounds i8, i8* %109, i64 %vbase.offset292, !dbg !7889
  %110 = bitcast i8* %add.ptr293 to %"class.std::basic_ios"*, !dbg !7889
  %call295 = invoke zeroext i1 @_ZNKSt9basic_iosIcSt11char_traitsIcEEntEv(%"class.std::basic_ios"* %110)
          to label %invoke.cont294 unwind label %lpad40, !dbg !7889

invoke.cont294:                                   ; preds = %for.end289
  br i1 %call295, label %if.then296, label %if.end302, !dbg !7892

if.then296:                                       ; preds = %invoke.cont294
  %111 = bitcast %"class.dealii::StandardExceptions::ExcIO"* %agg.tmp297 to i8*, !dbg !7889
  call void @llvm.memset.p0i8.i64(i8* align 8 %111, i8 0, i64 64, i1 false), !dbg !7889
  invoke void @_ZN6dealii18StandardExceptions5ExcIOC2Ev(%"class.dealii::StandardExceptions::ExcIO"* %agg.tmp297)
          to label %invoke.cont298 unwind label %lpad40, !dbg !7889

invoke.cont298:                                   ; preds = %if.then296
  invoke void @_ZN6dealii18deal_II_exceptions9internals17issue_error_throwINS_18StandardExceptions5ExcIOEEEvPKciS6_S6_S6_T_(i8* getelementptr inbounds ([23 x i8], [23 x i8]* @.str.2, i64 0, i64 0), i32 202, i8* getelementptr inbounds ([1 x i8], [1 x i8]* @.str.3, i64 0, i64 0), i8* getelementptr inbounds ([3 x i8], [3 x i8]* @.str.4, i64 0, i64 0), i8* getelementptr inbounds ([8 x i8], [8 x i8]* @.str.5, i64 0, i64 0), %"class.dealii::StandardExceptions::ExcIO"* %agg.tmp297)
          to label %invoke.cont300 unwind label %lpad299, !dbg !7889

invoke.cont300:                                   ; preds = %invoke.cont298
  call void @_ZN6dealii18StandardExceptions5ExcIOD2Ev(%"class.dealii::StandardExceptions::ExcIO"* %agg.tmp297) #3, !dbg !7889
  br label %if.end302, !dbg !7889

lpad299:                                          ; preds = %invoke.cont298
  %112 = landingpad { i8*, i32 }
          cleanup, !dbg !7893
  %113 = extractvalue { i8*, i32 } %112, 0, !dbg !7893
  store i8* %113, i8** %exn.slot, align 8, !dbg !7893
  %114 = extractvalue { i8*, i32 } %112, 1, !dbg !7893
  store i32 %114, i32* %ehselector.slot, align 4, !dbg !7893
  call void @_ZN6dealii18StandardExceptions5ExcIOD2Ev(%"class.dealii::StandardExceptions::ExcIO"* %agg.tmp297) #3, !dbg !7889
  br label %ehcleanup310, !dbg !7889

if.end302:                                        ; preds = %invoke.cont300, %invoke.cont294
  invoke void @_ZN6dealii9GridTools22delete_unused_verticesILi3ELi3EEEvRSt6vectorINS_5PointIXT0_EEESaIS4_EERS2_INS_8CellDataIXT_EEESaIS9_EERNS_11SubCellDataE(%"class.std::vector.82"* dereferenceable(24) %vertices, %"class.std::vector.110"* dereferenceable(24) %cells, %"struct.dealii::SubCellData"* dereferenceable(48) %subcelldata)
          to label %invoke.cont303 unwind label %lpad40, !dbg !7894

invoke.cont303:                                   ; preds = %if.end302
  invoke void @_ZN6dealii14GridReorderingILi3ELi3EE33invert_all_cells_of_negative_gridERKSt6vectorINS_5PointILi3EEESaIS4_EERS2_INS_8CellDataILi3EEESaISA_EE(%"class.std::vector.82"* dereferenceable(24) %vertices, %"class.std::vector.110"* dereferenceable(24) %cells)
          to label %invoke.cont304 unwind label %lpad40, !dbg !7895

invoke.cont304:                                   ; preds = %invoke.cont303
  invoke void @_ZN6dealii14GridReorderingILi3ELi3EE13reorder_cellsERSt6vectorINS_8CellDataILi3EEESaIS4_EE(%"class.std::vector.110"* dereferenceable(24) %cells)
          to label %invoke.cont305 unwind label %lpad40, !dbg !7897

invoke.cont305:                                   ; preds = %invoke.cont304
  %tria = getelementptr inbounds %"class.dealii::GridIn", %"class.dealii::GridIn"* %this1, i32 0, i32 0, !dbg !7898
  %call307 = invoke %"class.dealii::Triangulation"* @_ZNK6dealii12SmartPointerINS_13TriangulationILi3ELi3EEEEptEv(%"class.dealii::SmartPointer"* %tria)
          to label %invoke.cont306 unwind label %lpad40, !dbg !7898

invoke.cont306:                                   ; preds = %invoke.cont305
  %115 = bitcast %"class.dealii::Triangulation"* %call307 to void (%"class.dealii::Triangulation"*, %"class.std::vector.82"*, %"class.std::vector.110"*, %"struct.dealii::SubCellData"*)***, !dbg !7899
  %vtable308 = load void (%"class.dealii::Triangulation"*, %"class.std::vector.82"*, %"class.std::vector.110"*, %"struct.dealii::SubCellData"*)**, void (%"class.dealii::Triangulation"*, %"class.std::vector.82"*, %"class.std::vector.110"*, %"struct.dealii::SubCellData"*)*** %115, align 8, !dbg !7899
  %vfn = getelementptr inbounds void (%"class.dealii::Triangulation"*, %"class.std::vector.82"*, %"class.std::vector.110"*, %"struct.dealii::SubCellData"*)*, void (%"class.dealii::Triangulation"*, %"class.std::vector.82"*, %"class.std::vector.110"*, %"struct.dealii::SubCellData"*)** %vtable308, i64 4, !dbg !7899
  %116 = load void (%"class.dealii::Triangulation"*, %"class.std::vector.82"*, %"class.std::vector.110"*, %"struct.dealii::SubCellData"*)*, void (%"class.dealii::Triangulation"*, %"class.std::vector.82"*, %"class.std::vector.110"*, %"struct.dealii::SubCellData"*)** %vfn, align 8, !dbg !7899
  invoke void %116(%"class.dealii::Triangulation"* %call307, %"class.std::vector.82"* dereferenceable(24) %vertices, %"class.std::vector.110"* dereferenceable(24) %cells, %"struct.dealii::SubCellData"* dereferenceable(48) %subcelldata)
          to label %invoke.cont309 unwind label %lpad40, !dbg !7899

invoke.cont309:                                   ; preds = %invoke.cont306
  call void @_ZN6dealii11SubCellDataD2Ev(%"struct.dealii::SubCellData"* %subcelldata) #3, !dbg !7617
  call void @_ZNSt6vectorIN6dealii8CellDataILi3EEESaIS2_EED2Ev(%"class.std::vector.110"* %cells) #3, !dbg !7617
  call void @_ZNSt3mapIiiSt4lessIiESaISt4pairIKiiEEED2Ev(%"class.std::map.102"* %vertex_indices) #3, !dbg !7617
  call void @_ZNSt6vectorIN6dealii5PointILi3EEESaIS2_EED2Ev(%"class.std::vector.82"* %vertices) #3, !dbg !7617
  ret void, !dbg !7617

ehcleanup310:                                     ; preds = %lpad299, %ehcleanup286, %lpad46, %lpad40
  call void @_ZN6dealii11SubCellDataD2Ev(%"struct.dealii::SubCellData"* %subcelldata) #3, !dbg !7617
  call void @_ZNSt6vectorIN6dealii8CellDataILi3EEESaIS2_EED2Ev(%"class.std::vector.110"* %cells) #3, !dbg !7617
  br label %ehcleanup312, !dbg !7617

ehcleanup312:                                     ; preds = %ehcleanup310, %lpad9
  call void @_ZNSt3mapIiiSt4lessIiESaISt4pairIKiiEEED2Ev(%"class.std::map.102"* %vertex_indices) #3, !dbg !7617
  call void @_ZNSt6vectorIN6dealii5PointILi3EEESaIS2_EED2Ev(%"class.std::vector.82"* %vertices) #3, !dbg !7617
  br label %eh.resume, !dbg !7617

eh.resume:                                        ; preds = %ehcleanup312, %lpad7, %lpad
  %exn = load i8*, i8** %exn.slot, align 8, !dbg !7553
  %sel = load i32, i32* %ehselector.slot, align 4, !dbg !7553
  %lpad.val = insertvalue { i8*, i32 } undef, i8* %exn, 0, !dbg !7553
  %lpad.val314 = insertvalue { i8*, i32 } %lpad.val, i32 %sel, 1, !dbg !7553
  resume { i8*, i32 } %lpad.val314, !dbg !7553
}

; Function Attrs: noinline uwtable
define dso_local void @_ZN6dealii6GridInILi3ELi3EE8read_xdaERSi(%"class.dealii::GridIn"* %this, %"class.std::basic_istream"* dereferenceable(280) %in) #0 align 2 personality i8* bitcast (i32 (...)* @__gxx_personality_v0 to i8*) !dbg !5276 {
entry:
  %this.addr = alloca %"class.dealii::GridIn"*, align 8
  %in.addr = alloca %"class.std::basic_istream"*, align 8
  %agg.tmp = alloca %"class.dealii::StandardExceptions::ExcIO", align 8
  %exn.slot = alloca i8*
  %ehselector.slot = alloca i32
  %line = alloca %"class.std::__cxx11::basic_string", align 8
  %n_vertices = alloca i32, align 4
  %n_cells = alloca i32, align 4
  %i = alloca i32, align 4
  %cells = alloca %"class.std::vector.110", align 8
  %ref.tmp = alloca %"class.std::allocator.112", align 1
  %subcelldata = alloca %"struct.dealii::SubCellData", align 8
  %cell = alloca i32, align 4
  %agg.tmp28 = alloca %"class.dealii::StandardExceptions::ExcIO", align 8
  %xda_ordered_nodes = alloca [8 x i32], align 16
  %i33 = alloca i32, align 4
  %i42 = alloca i32, align 4
  %vertices60 = alloca %"class.std::vector.82", align 8
  %ref.tmp62 = alloca %"class.std::allocator.84", align 1
  %vertex = alloca i32, align 4
  %x = alloca [3 x double], align 16
  %d = alloca i32, align 4
  %agg.tmp100 = alloca %"class.dealii::StandardExceptions::ExcIO", align 8
  store %"class.dealii::GridIn"* %this, %"class.dealii::GridIn"** %this.addr, align 8
  call void @llvm.dbg.declare(metadata %"class.dealii::GridIn"** %this.addr, metadata !7900, metadata !DIExpression()), !dbg !7901
  store %"class.std::basic_istream"* %in, %"class.std::basic_istream"** %in.addr, align 8
  call void @llvm.dbg.declare(metadata %"class.std::basic_istream"** %in.addr, metadata !7902, metadata !DIExpression()), !dbg !7903
  %this1 = load %"class.dealii::GridIn"*, %"class.dealii::GridIn"** %this.addr, align 8
  %0 = load %"class.std::basic_istream"*, %"class.std::basic_istream"** %in.addr, align 8, !dbg !7904
  %1 = bitcast %"class.std::basic_istream"* %0 to i8**, !dbg !7904
  %vtable = load i8*, i8** %1, align 8, !dbg !7904
  %vbase.offset.ptr = getelementptr i8, i8* %vtable, i64 -24, !dbg !7904
  %2 = bitcast i8* %vbase.offset.ptr to i64*, !dbg !7904
  %vbase.offset = load i64, i64* %2, align 8, !dbg !7904
  %3 = bitcast %"class.std::basic_istream"* %0 to i8*, !dbg !7904
  %add.ptr = getelementptr inbounds i8, i8* %3, i64 %vbase.offset, !dbg !7904
  %4 = bitcast i8* %add.ptr to %"class.std::basic_ios"*, !dbg !7904
  %call = call zeroext i1 @_ZNKSt9basic_iosIcSt11char_traitsIcEEntEv(%"class.std::basic_ios"* %4), !dbg !7904
  br i1 %call, label %if.then, label %if.end, !dbg !7907

if.then:                                          ; preds = %entry
  %5 = bitcast %"class.dealii::StandardExceptions::ExcIO"* %agg.tmp to i8*, !dbg !7904
  call void @llvm.memset.p0i8.i64(i8* align 8 %5, i8 0, i64 64, i1 false), !dbg !7904
  call void @_ZN6dealii18StandardExceptions5ExcIOC2Ev(%"class.dealii::StandardExceptions::ExcIO"* %agg.tmp), !dbg !7904
  invoke void @_ZN6dealii18deal_II_exceptions9internals17issue_error_throwINS_18StandardExceptions5ExcIOEEEvPKciS6_S6_S6_T_(i8* getelementptr inbounds ([23 x i8], [23 x i8]* @.str.2, i64 0, i64 0), i32 473, i8* getelementptr inbounds ([1 x i8], [1 x i8]* @.str.3, i64 0, i64 0), i8* getelementptr inbounds ([3 x i8], [3 x i8]* @.str.4, i64 0, i64 0), i8* getelementptr inbounds ([8 x i8], [8 x i8]* @.str.5, i64 0, i64 0), %"class.dealii::StandardExceptions::ExcIO"* %agg.tmp)
          to label %invoke.cont unwind label %lpad, !dbg !7904

invoke.cont:                                      ; preds = %if.then
  call void @_ZN6dealii18StandardExceptions5ExcIOD2Ev(%"class.dealii::StandardExceptions::ExcIO"* %agg.tmp) #3, !dbg !7904
  br label %if.end, !dbg !7904

lpad:                                             ; preds = %if.then
  %6 = landingpad { i8*, i32 }
          cleanup, !dbg !7908
  %7 = extractvalue { i8*, i32 } %6, 0, !dbg !7908
  store i8* %7, i8** %exn.slot, align 8, !dbg !7908
  %8 = extractvalue { i8*, i32 } %6, 1, !dbg !7908
  store i32 %8, i32* %ehselector.slot, align 4, !dbg !7908
  call void @_ZN6dealii18StandardExceptions5ExcIOD2Ev(%"class.dealii::StandardExceptions::ExcIO"* %agg.tmp) #3, !dbg !7904
  br label %eh.resume, !dbg !7904

if.end:                                           ; preds = %invoke.cont, %entry
  call void @llvm.dbg.declare(metadata %"class.std::__cxx11::basic_string"* %line, metadata !7909, metadata !DIExpression()), !dbg !7910
  call void @_ZNSt7__cxx1112basic_stringIcSt11char_traitsIcESaIcEEC1Ev(%"class.std::__cxx11::basic_string"* %line) #3, !dbg !7910
  %9 = load %"class.std::basic_istream"*, %"class.std::basic_istream"** %in.addr, align 8, !dbg !7911
  %call4 = invoke dereferenceable(280) %"class.std::basic_istream"* @_ZSt7getlineIcSt11char_traitsIcESaIcEERSt13basic_istreamIT_T0_ES7_RNSt7__cxx1112basic_stringIS4_S5_T1_EE(%"class.std::basic_istream"* dereferenceable(280) %9, %"class.std::__cxx11::basic_string"* dereferenceable(32) %line)
          to label %invoke.cont3 unwind label %lpad2, !dbg !7912

invoke.cont3:                                     ; preds = %if.end
  call void @llvm.dbg.declare(metadata i32* %n_vertices, metadata !7913, metadata !DIExpression()), !dbg !7914
  call void @llvm.dbg.declare(metadata i32* %n_cells, metadata !7915, metadata !DIExpression()), !dbg !7916
  %10 = load %"class.std::basic_istream"*, %"class.std::basic_istream"** %in.addr, align 8, !dbg !7917
  %call6 = invoke dereferenceable(280) %"class.std::basic_istream"* @_ZNSirsERj(%"class.std::basic_istream"* %10, i32* dereferenceable(4) %n_cells)
          to label %invoke.cont5 unwind label %lpad2, !dbg !7918

invoke.cont5:                                     ; preds = %invoke.cont3
  %11 = load %"class.std::basic_istream"*, %"class.std::basic_istream"** %in.addr, align 8, !dbg !7919
  %call8 = invoke dereferenceable(280) %"class.std::basic_istream"* @_ZSt7getlineIcSt11char_traitsIcESaIcEERSt13basic_istreamIT_T0_ES7_RNSt7__cxx1112basic_stringIS4_S5_T1_EE(%"class.std::basic_istream"* dereferenceable(280) %11, %"class.std::__cxx11::basic_string"* dereferenceable(32) %line)
          to label %invoke.cont7 unwind label %lpad2, !dbg !7920

invoke.cont7:                                     ; preds = %invoke.cont5
  %12 = load %"class.std::basic_istream"*, %"class.std::basic_istream"** %in.addr, align 8, !dbg !7921
  %call10 = invoke dereferenceable(280) %"class.std::basic_istream"* @_ZNSirsERj(%"class.std::basic_istream"* %12, i32* dereferenceable(4) %n_vertices)
          to label %invoke.cont9 unwind label %lpad2, !dbg !7922

invoke.cont9:                                     ; preds = %invoke.cont7
  %13 = load %"class.std::basic_istream"*, %"class.std::basic_istream"** %in.addr, align 8, !dbg !7923
  %call12 = invoke dereferenceable(280) %"class.std::basic_istream"* @_ZSt7getlineIcSt11char_traitsIcESaIcEERSt13basic_istreamIT_T0_ES7_RNSt7__cxx1112basic_stringIS4_S5_T1_EE(%"class.std::basic_istream"* dereferenceable(280) %13, %"class.std::__cxx11::basic_string"* dereferenceable(32) %line)
          to label %invoke.cont11 unwind label %lpad2, !dbg !7924

invoke.cont11:                                    ; preds = %invoke.cont9
  call void @llvm.dbg.declare(metadata i32* %i, metadata !7925, metadata !DIExpression()), !dbg !7927
  store i32 0, i32* %i, align 4, !dbg !7927
  br label %for.cond, !dbg !7928

for.cond:                                         ; preds = %for.inc, %invoke.cont11
  %14 = load i32, i32* %i, align 4, !dbg !7929
  %cmp = icmp ult i32 %14, 8, !dbg !7931
  br i1 %cmp, label %for.body, label %for.end, !dbg !7932

for.body:                                         ; preds = %for.cond
  %15 = load %"class.std::basic_istream"*, %"class.std::basic_istream"** %in.addr, align 8, !dbg !7933
  %call14 = invoke dereferenceable(280) %"class.std::basic_istream"* @_ZSt7getlineIcSt11char_traitsIcESaIcEERSt13basic_istreamIT_T0_ES7_RNSt7__cxx1112basic_stringIS4_S5_T1_EE(%"class.std::basic_istream"* dereferenceable(280) %15, %"class.std::__cxx11::basic_string"* dereferenceable(32) %line)
          to label %invoke.cont13 unwind label %lpad2, !dbg !7934

invoke.cont13:                                    ; preds = %for.body
  br label %for.inc, !dbg !7934

for.inc:                                          ; preds = %invoke.cont13
  %16 = load i32, i32* %i, align 4, !dbg !7935
  %inc = add i32 %16, 1, !dbg !7935
  store i32 %inc, i32* %i, align 4, !dbg !7935
  br label %for.cond, !dbg !7936, !llvm.loop !7937

lpad2:                                            ; preds = %for.body, %invoke.cont9, %invoke.cont7, %invoke.cont5, %invoke.cont3, %if.end
  %17 = landingpad { i8*, i32 }
          cleanup, !dbg !7939
  %18 = extractvalue { i8*, i32 } %17, 0, !dbg !7939
  store i8* %18, i8** %exn.slot, align 8, !dbg !7939
  %19 = extractvalue { i8*, i32 } %17, 1, !dbg !7939
  store i32 %19, i32* %ehselector.slot, align 4, !dbg !7939
  br label %ehcleanup114, !dbg !7939

for.end:                                          ; preds = %for.cond
  call void @llvm.dbg.declare(metadata %"class.std::vector.110"* %cells, metadata !7940, metadata !DIExpression()), !dbg !7941
  %20 = load i32, i32* %n_cells, align 4, !dbg !7942
  %conv = zext i32 %20 to i64, !dbg !7942
  call void @_ZNSaIN6dealii8CellDataILi3EEEEC2Ev(%"class.std::allocator.112"* %ref.tmp) #3, !dbg !7941
  invoke void @_ZNSt6vectorIN6dealii8CellDataILi3EEESaIS2_EEC2EmRKS3_(%"class.std::vector.110"* %cells, i64 %conv, %"class.std::allocator.112"* dereferenceable(1) %ref.tmp)
          to label %invoke.cont16 unwind label %lpad15, !dbg !7941

invoke.cont16:                                    ; preds = %for.end
  call void @_ZNSaIN6dealii8CellDataILi3EEEED2Ev(%"class.std::allocator.112"* %ref.tmp) #3, !dbg !7941
  call void @llvm.dbg.declare(metadata %"struct.dealii::SubCellData"* %subcelldata, metadata !7943, metadata !DIExpression()), !dbg !7944
  call void @_ZN6dealii11SubCellDataC2Ev(%"struct.dealii::SubCellData"* %subcelldata) #3, !dbg !7944
  call void @llvm.dbg.declare(metadata i32* %cell, metadata !7945, metadata !DIExpression()), !dbg !7947
  store i32 0, i32* %cell, align 4, !dbg !7947
  br label %for.cond17, !dbg !7948

for.cond17:                                       ; preds = %for.inc57, %invoke.cont16
  %21 = load i32, i32* %cell, align 4, !dbg !7949
  %22 = load i32, i32* %n_cells, align 4, !dbg !7951
  %cmp18 = icmp ult i32 %21, %22, !dbg !7952
  br i1 %cmp18, label %for.body19, label %for.end59, !dbg !7953

for.body19:                                       ; preds = %for.cond17
  %23 = load %"class.std::basic_istream"*, %"class.std::basic_istream"** %in.addr, align 8, !dbg !7954
  %24 = bitcast %"class.std::basic_istream"* %23 to i8**, !dbg !7954
  %vtable20 = load i8*, i8** %24, align 8, !dbg !7954
  %vbase.offset.ptr21 = getelementptr i8, i8* %vtable20, i64 -24, !dbg !7954
  %25 = bitcast i8* %vbase.offset.ptr21 to i64*, !dbg !7954
  %vbase.offset22 = load i64, i64* %25, align 8, !dbg !7954
  %26 = bitcast %"class.std::basic_istream"* %23 to i8*, !dbg !7954
  %add.ptr23 = getelementptr inbounds i8, i8* %26, i64 %vbase.offset22, !dbg !7954
  %27 = bitcast i8* %add.ptr23 to %"class.std::basic_ios"*, !dbg !7954
  %call26 = invoke zeroext i1 @_ZNKSt9basic_iosIcSt11char_traitsIcEEntEv(%"class.std::basic_ios"* %27)
          to label %invoke.cont25 unwind label %lpad24, !dbg !7954

invoke.cont25:                                    ; preds = %for.body19
  br i1 %call26, label %if.then27, label %if.end32, !dbg !7958

if.then27:                                        ; preds = %invoke.cont25
  %28 = bitcast %"class.dealii::StandardExceptions::ExcIO"* %agg.tmp28 to i8*, !dbg !7954
  call void @llvm.memset.p0i8.i64(i8* align 8 %28, i8 0, i64 64, i1 false), !dbg !7954
  invoke void @_ZN6dealii18StandardExceptions5ExcIOC2Ev(%"class.dealii::StandardExceptions::ExcIO"* %agg.tmp28)
          to label %invoke.cont29 unwind label %lpad24, !dbg !7954

invoke.cont29:                                    ; preds = %if.then27
  invoke void @_ZN6dealii18deal_II_exceptions9internals17issue_error_throwINS_18StandardExceptions5ExcIOEEEvPKciS6_S6_S6_T_(i8* getelementptr inbounds ([23 x i8], [23 x i8]* @.str.2, i64 0, i64 0), i32 507, i8* getelementptr inbounds ([1 x i8], [1 x i8]* @.str.3, i64 0, i64 0), i8* getelementptr inbounds ([3 x i8], [3 x i8]* @.str.4, i64 0, i64 0), i8* getelementptr inbounds ([8 x i8], [8 x i8]* @.str.5, i64 0, i64 0), %"class.dealii::StandardExceptions::ExcIO"* %agg.tmp28)
          to label %invoke.cont31 unwind label %lpad30, !dbg !7954

invoke.cont31:                                    ; preds = %invoke.cont29
  call void @_ZN6dealii18StandardExceptions5ExcIOD2Ev(%"class.dealii::StandardExceptions::ExcIO"* %agg.tmp28) #3, !dbg !7954
  br label %if.end32, !dbg !7954

lpad15:                                           ; preds = %for.end
  %29 = landingpad { i8*, i32 }
          cleanup, !dbg !7939
  %30 = extractvalue { i8*, i32 } %29, 0, !dbg !7939
  store i8* %30, i8** %exn.slot, align 8, !dbg !7939
  %31 = extractvalue { i8*, i32 } %29, 1, !dbg !7939
  store i32 %31, i32* %ehselector.slot, align 4, !dbg !7939
  call void @_ZNSaIN6dealii8CellDataILi3EEEED2Ev(%"class.std::allocator.112"* %ref.tmp) #3, !dbg !7941
  br label %ehcleanup114, !dbg !7941

lpad24:                                           ; preds = %for.body36, %if.then27, %for.body19
  %32 = landingpad { i8*, i32 }
          cleanup, !dbg !7959
  %33 = extractvalue { i8*, i32 } %32, 0, !dbg !7959
  store i8* %33, i8** %exn.slot, align 8, !dbg !7959
  %34 = extractvalue { i8*, i32 } %32, 1, !dbg !7959
  store i32 %34, i32* %ehselector.slot, align 4, !dbg !7959
  br label %ehcleanup112, !dbg !7959

lpad30:                                           ; preds = %invoke.cont29
  %35 = landingpad { i8*, i32 }
          cleanup, !dbg !7959
  %36 = extractvalue { i8*, i32 } %35, 0, !dbg !7959
  store i8* %36, i8** %exn.slot, align 8, !dbg !7959
  %37 = extractvalue { i8*, i32 } %35, 1, !dbg !7959
  store i32 %37, i32* %ehselector.slot, align 4, !dbg !7959
  call void @_ZN6dealii18StandardExceptions5ExcIOD2Ev(%"class.dealii::StandardExceptions::ExcIO"* %agg.tmp28) #3, !dbg !7954
  br label %ehcleanup112, !dbg !7954

if.end32:                                         ; preds = %invoke.cont31, %invoke.cont25
  call void @llvm.dbg.declare(metadata [8 x i32]* %xda_ordered_nodes, metadata !7960, metadata !DIExpression()), !dbg !7961
  call void @llvm.dbg.declare(metadata i32* %i33, metadata !7962, metadata !DIExpression()), !dbg !7964
  store i32 0, i32* %i33, align 4, !dbg !7964
  br label %for.cond34, !dbg !7965

for.cond34:                                       ; preds = %for.inc39, %if.end32
  %38 = load i32, i32* %i33, align 4, !dbg !7966
  %cmp35 = icmp ult i32 %38, 8, !dbg !7968
  br i1 %cmp35, label %for.body36, label %for.end41, !dbg !7969

for.body36:                                       ; preds = %for.cond34
  %39 = load %"class.std::basic_istream"*, %"class.std::basic_istream"** %in.addr, align 8, !dbg !7970
  %40 = load i32, i32* %i33, align 4, !dbg !7971
  %idxprom = zext i32 %40 to i64, !dbg !7972
  %arrayidx = getelementptr inbounds [8 x i32], [8 x i32]* %xda_ordered_nodes, i64 0, i64 %idxprom, !dbg !7972
  %call38 = invoke dereferenceable(280) %"class.std::basic_istream"* @_ZNSirsERj(%"class.std::basic_istream"* %39, i32* dereferenceable(4) %arrayidx)
          to label %invoke.cont37 unwind label %lpad24, !dbg !7973

invoke.cont37:                                    ; preds = %for.body36
  br label %for.inc39, !dbg !7970

for.inc39:                                        ; preds = %invoke.cont37
  %41 = load i32, i32* %i33, align 4, !dbg !7974
  %inc40 = add i32 %41, 1, !dbg !7974
  store i32 %inc40, i32* %i33, align 4, !dbg !7974
  br label %for.cond34, !dbg !7975, !llvm.loop !7976

for.end41:                                        ; preds = %for.cond34
  call void @llvm.dbg.declare(metadata i32* %i42, metadata !7978, metadata !DIExpression()), !dbg !7980
  store i32 0, i32* %i42, align 4, !dbg !7980
  br label %for.cond43, !dbg !7981

for.cond43:                                       ; preds = %for.inc54, %for.end41
  %42 = load i32, i32* %i42, align 4, !dbg !7982
  %cmp44 = icmp ult i32 %42, 8, !dbg !7984
  br i1 %cmp44, label %for.body45, label %for.end56, !dbg !7985

for.body45:                                       ; preds = %for.cond43
  %43 = load i32, i32* %i42, align 4, !dbg !7986
  %idxprom46 = zext i32 %43 to i64, !dbg !7987
  %arrayidx47 = getelementptr inbounds [8 x i32], [8 x i32]* @_ZZN6dealii6GridInILi3ELi3EE8read_xdaERSiE17xda_to_dealII_map, i64 0, i64 %idxprom46, !dbg !7987
  %44 = load i32, i32* %arrayidx47, align 4, !dbg !7987
  %idxprom48 = zext i32 %44 to i64, !dbg !7988
  %arrayidx49 = getelementptr inbounds [8 x i32], [8 x i32]* %xda_ordered_nodes, i64 0, i64 %idxprom48, !dbg !7988
  %45 = load i32, i32* %arrayidx49, align 4, !dbg !7988
  %46 = load i32, i32* %cell, align 4, !dbg !7989
  %conv50 = zext i32 %46 to i64, !dbg !7989
  %call51 = call dereferenceable(36) %"struct.dealii::CellData"* @_ZNSt6vectorIN6dealii8CellDataILi3EEESaIS2_EEixEm(%"class.std::vector.110"* %cells, i64 %conv50) #3, !dbg !7990
  %vertices = getelementptr inbounds %"struct.dealii::CellData", %"struct.dealii::CellData"* %call51, i32 0, i32 0, !dbg !7991
  %47 = load i32, i32* %i42, align 4, !dbg !7992
  %idxprom52 = zext i32 %47 to i64, !dbg !7990
  %arrayidx53 = getelementptr inbounds [8 x i32], [8 x i32]* %vertices, i64 0, i64 %idxprom52, !dbg !7990
  store i32 %45, i32* %arrayidx53, align 4, !dbg !7993
  br label %for.inc54, !dbg !7990

for.inc54:                                        ; preds = %for.body45
  %48 = load i32, i32* %i42, align 4, !dbg !7994
  %inc55 = add i32 %48, 1, !dbg !7994
  store i32 %inc55, i32* %i42, align 4, !dbg !7994
  br label %for.cond43, !dbg !7995, !llvm.loop !7996

for.end56:                                        ; preds = %for.cond43
  br label %for.inc57, !dbg !7998

for.inc57:                                        ; preds = %for.end56
  %49 = load i32, i32* %cell, align 4, !dbg !7999
  %inc58 = add i32 %49, 1, !dbg !7999
  store i32 %inc58, i32* %cell, align 4, !dbg !7999
  br label %for.cond17, !dbg !8000, !llvm.loop !8001

for.end59:                                        ; preds = %for.cond17
  call void @llvm.dbg.declare(metadata %"class.std::vector.82"* %vertices60, metadata !8003, metadata !DIExpression()), !dbg !8004
  %50 = load i32, i32* %n_vertices, align 4, !dbg !8005
  %conv61 = zext i32 %50 to i64, !dbg !8005
  call void @_ZNSaIN6dealii5PointILi3EEEEC2Ev(%"class.std::allocator.84"* %ref.tmp62) #3, !dbg !8004
  invoke void @_ZNSt6vectorIN6dealii5PointILi3EEESaIS2_EEC2EmRKS3_(%"class.std::vector.82"* %vertices60, i64 %conv61, %"class.std::allocator.84"* dereferenceable(1) %ref.tmp62)
          to label %invoke.cont64 unwind label %lpad63, !dbg !8004

invoke.cont64:                                    ; preds = %for.end59
  call void @_ZNSaIN6dealii5PointILi3EEEED2Ev(%"class.std::allocator.84"* %ref.tmp62) #3, !dbg !8004
  call void @llvm.dbg.declare(metadata i32* %vertex, metadata !8006, metadata !DIExpression()), !dbg !8008
  store i32 0, i32* %vertex, align 4, !dbg !8008
  br label %for.cond65, !dbg !8009

for.cond65:                                       ; preds = %for.inc90, %invoke.cont64
  %51 = load i32, i32* %vertex, align 4, !dbg !8010
  %52 = load i32, i32* %n_vertices, align 4, !dbg !8012
  %cmp66 = icmp ult i32 %51, %52, !dbg !8013
  br i1 %cmp66, label %for.body67, label %for.end92, !dbg !8014

for.body67:                                       ; preds = %for.cond65
  call void @llvm.dbg.declare(metadata [3 x double]* %x, metadata !8015, metadata !DIExpression()), !dbg !8017
  %53 = load %"class.std::basic_istream"*, %"class.std::basic_istream"** %in.addr, align 8, !dbg !8018
  %arrayidx68 = getelementptr inbounds [3 x double], [3 x double]* %x, i64 0, i64 0, !dbg !8019
  %call71 = invoke dereferenceable(280) %"class.std::basic_istream"* @_ZNSirsERd(%"class.std::basic_istream"* %53, double* dereferenceable(8) %arrayidx68)
          to label %invoke.cont70 unwind label %lpad69, !dbg !8020

invoke.cont70:                                    ; preds = %for.body67
  %arrayidx72 = getelementptr inbounds [3 x double], [3 x double]* %x, i64 0, i64 1, !dbg !8021
  %call74 = invoke dereferenceable(280) %"class.std::basic_istream"* @_ZNSirsERd(%"class.std::basic_istream"* %call71, double* dereferenceable(8) %arrayidx72)
          to label %invoke.cont73 unwind label %lpad69, !dbg !8022

invoke.cont73:                                    ; preds = %invoke.cont70
  %arrayidx75 = getelementptr inbounds [3 x double], [3 x double]* %x, i64 0, i64 2, !dbg !8023
  %call77 = invoke dereferenceable(280) %"class.std::basic_istream"* @_ZNSirsERd(%"class.std::basic_istream"* %call74, double* dereferenceable(8) %arrayidx75)
          to label %invoke.cont76 unwind label %lpad69, !dbg !8024

invoke.cont76:                                    ; preds = %invoke.cont73
  call void @llvm.dbg.declare(metadata i32* %d, metadata !8025, metadata !DIExpression()), !dbg !8027
  store i32 0, i32* %d, align 4, !dbg !8027
  br label %for.cond78, !dbg !8028

for.cond78:                                       ; preds = %for.inc87, %invoke.cont76
  %54 = load i32, i32* %d, align 4, !dbg !8029
  %cmp79 = icmp ult i32 %54, 3, !dbg !8031
  br i1 %cmp79, label %for.body80, label %for.end89, !dbg !8032

for.body80:                                       ; preds = %for.cond78
  %55 = load i32, i32* %d, align 4, !dbg !8033
  %idxprom81 = zext i32 %55 to i64, !dbg !8034
  %arrayidx82 = getelementptr inbounds [3 x double], [3 x double]* %x, i64 0, i64 %idxprom81, !dbg !8034
  %56 = load double, double* %arrayidx82, align 8, !dbg !8034
  %57 = load i32, i32* %vertex, align 4, !dbg !8035
  %conv83 = zext i32 %57 to i64, !dbg !8035
  %call84 = call dereferenceable(24) %"class.dealii::Point"* @_ZNSt6vectorIN6dealii5PointILi3EEESaIS2_EEixEm(%"class.std::vector.82"* %vertices60, i64 %conv83) #3, !dbg !8036
  %58 = load i32, i32* %d, align 4, !dbg !8037
  %call86 = invoke dereferenceable(8) double* @_ZN6dealii5PointILi3EEclEj(%"class.dealii::Point"* %call84, i32 %58)
          to label %invoke.cont85 unwind label %lpad69, !dbg !8036

invoke.cont85:                                    ; preds = %for.body80
  store double %56, double* %call86, align 8, !dbg !8038
  br label %for.inc87, !dbg !8036

for.inc87:                                        ; preds = %invoke.cont85
  %59 = load i32, i32* %d, align 4, !dbg !8039
  %inc88 = add i32 %59, 1, !dbg !8039
  store i32 %inc88, i32* %d, align 4, !dbg !8039
  br label %for.cond78, !dbg !8040, !llvm.loop !8041

lpad63:                                           ; preds = %for.end59
  %60 = landingpad { i8*, i32 }
          cleanup, !dbg !7939
  %61 = extractvalue { i8*, i32 } %60, 0, !dbg !7939
  store i8* %61, i8** %exn.slot, align 8, !dbg !7939
  %62 = extractvalue { i8*, i32 } %60, 1, !dbg !7939
  store i32 %62, i32* %ehselector.slot, align 4, !dbg !7939
  call void @_ZNSaIN6dealii5PointILi3EEEED2Ev(%"class.std::allocator.84"* %ref.tmp62) #3, !dbg !8004
  br label %ehcleanup112, !dbg !8004

lpad69:                                           ; preds = %invoke.cont108, %invoke.cont107, %invoke.cont106, %invoke.cont105, %if.end104, %if.then99, %for.end92, %for.body80, %invoke.cont73, %invoke.cont70, %for.body67
  %63 = landingpad { i8*, i32 }
          cleanup, !dbg !8043
  %64 = extractvalue { i8*, i32 } %63, 0, !dbg !8043
  store i8* %64, i8** %exn.slot, align 8, !dbg !8043
  %65 = extractvalue { i8*, i32 } %63, 1, !dbg !8043
  store i32 %65, i32* %ehselector.slot, align 4, !dbg !8043
  br label %ehcleanup, !dbg !8043

for.end89:                                        ; preds = %for.cond78
  br label %for.inc90, !dbg !8044

for.inc90:                                        ; preds = %for.end89
  %66 = load i32, i32* %vertex, align 4, !dbg !8045
  %inc91 = add i32 %66, 1, !dbg !8045
  store i32 %inc91, i32* %vertex, align 4, !dbg !8045
  br label %for.cond65, !dbg !8046, !llvm.loop !8047

for.end92:                                        ; preds = %for.cond65
  %67 = load %"class.std::basic_istream"*, %"class.std::basic_istream"** %in.addr, align 8, !dbg !8049
  %68 = bitcast %"class.std::basic_istream"* %67 to i8**, !dbg !8049
  %vtable93 = load i8*, i8** %68, align 8, !dbg !8049
  %vbase.offset.ptr94 = getelementptr i8, i8* %vtable93, i64 -24, !dbg !8049
  %69 = bitcast i8* %vbase.offset.ptr94 to i64*, !dbg !8049
  %vbase.offset95 = load i64, i64* %69, align 8, !dbg !8049
  %70 = bitcast %"class.std::basic_istream"* %67 to i8*, !dbg !8049
  %add.ptr96 = getelementptr inbounds i8, i8* %70, i64 %vbase.offset95, !dbg !8049
  %71 = bitcast i8* %add.ptr96 to %"class.std::basic_ios"*, !dbg !8049
  %call98 = invoke zeroext i1 @_ZNKSt9basic_iosIcSt11char_traitsIcEEntEv(%"class.std::basic_ios"* %71)
          to label %invoke.cont97 unwind label %lpad69, !dbg !8049

invoke.cont97:                                    ; preds = %for.end92
  br i1 %call98, label %if.then99, label %if.end104, !dbg !8052

if.then99:                                        ; preds = %invoke.cont97
  %72 = bitcast %"class.dealii::StandardExceptions::ExcIO"* %agg.tmp100 to i8*, !dbg !8049
  call void @llvm.memset.p0i8.i64(i8* align 8 %72, i8 0, i64 64, i1 false), !dbg !8049
  invoke void @_ZN6dealii18StandardExceptions5ExcIOC2Ev(%"class.dealii::StandardExceptions::ExcIO"* %agg.tmp100)
          to label %invoke.cont101 unwind label %lpad69, !dbg !8049

invoke.cont101:                                   ; preds = %if.then99
  invoke void @_ZN6dealii18deal_II_exceptions9internals17issue_error_throwINS_18StandardExceptions5ExcIOEEEvPKciS6_S6_S6_T_(i8* getelementptr inbounds ([23 x i8], [23 x i8]* @.str.2, i64 0, i64 0), i32 535, i8* getelementptr inbounds ([1 x i8], [1 x i8]* @.str.3, i64 0, i64 0), i8* getelementptr inbounds ([3 x i8], [3 x i8]* @.str.4, i64 0, i64 0), i8* getelementptr inbounds ([8 x i8], [8 x i8]* @.str.5, i64 0, i64 0), %"class.dealii::StandardExceptions::ExcIO"* %agg.tmp100)
          to label %invoke.cont103 unwind label %lpad102, !dbg !8049

invoke.cont103:                                   ; preds = %invoke.cont101
  call void @_ZN6dealii18StandardExceptions5ExcIOD2Ev(%"class.dealii::StandardExceptions::ExcIO"* %agg.tmp100) #3, !dbg !8049
  br label %if.end104, !dbg !8049

lpad102:                                          ; preds = %invoke.cont101
  %73 = landingpad { i8*, i32 }
          cleanup, !dbg !8053
  %74 = extractvalue { i8*, i32 } %73, 0, !dbg !8053
  store i8* %74, i8** %exn.slot, align 8, !dbg !8053
  %75 = extractvalue { i8*, i32 } %73, 1, !dbg !8053
  store i32 %75, i32* %ehselector.slot, align 4, !dbg !8053
  call void @_ZN6dealii18StandardExceptions5ExcIOD2Ev(%"class.dealii::StandardExceptions::ExcIO"* %agg.tmp100) #3, !dbg !8049
  br label %ehcleanup, !dbg !8049

if.end104:                                        ; preds = %invoke.cont103, %invoke.cont97
  invoke void @_ZN6dealii9GridTools22delete_unused_verticesILi3ELi3EEEvRSt6vectorINS_5PointIXT0_EEESaIS4_EERS2_INS_8CellDataIXT_EEESaIS9_EERNS_11SubCellDataE(%"class.std::vector.82"* dereferenceable(24) %vertices60, %"class.std::vector.110"* dereferenceable(24) %cells, %"struct.dealii::SubCellData"* dereferenceable(48) %subcelldata)
          to label %invoke.cont105 unwind label %lpad69, !dbg !8054

invoke.cont105:                                   ; preds = %if.end104
  invoke void @_ZN6dealii14GridReorderingILi3ELi3EE33invert_all_cells_of_negative_gridERKSt6vectorINS_5PointILi3EEESaIS4_EERS2_INS_8CellDataILi3EEESaISA_EE(%"class.std::vector.82"* dereferenceable(24) %vertices60, %"class.std::vector.110"* dereferenceable(24) %cells)
          to label %invoke.cont106 unwind label %lpad69, !dbg !8055

invoke.cont106:                                   ; preds = %invoke.cont105
  invoke void @_ZN6dealii14GridReorderingILi3ELi3EE13reorder_cellsERSt6vectorINS_8CellDataILi3EEESaIS4_EE(%"class.std::vector.110"* dereferenceable(24) %cells)
          to label %invoke.cont107 unwind label %lpad69, !dbg !8056

invoke.cont107:                                   ; preds = %invoke.cont106
  %tria = getelementptr inbounds %"class.dealii::GridIn", %"class.dealii::GridIn"* %this1, i32 0, i32 0, !dbg !8057
  %call109 = invoke %"class.dealii::Triangulation"* @_ZNK6dealii12SmartPointerINS_13TriangulationILi3ELi3EEEEptEv(%"class.dealii::SmartPointer"* %tria)
          to label %invoke.cont108 unwind label %lpad69, !dbg !8057

invoke.cont108:                                   ; preds = %invoke.cont107
  %76 = bitcast %"class.dealii::Triangulation"* %call109 to void (%"class.dealii::Triangulation"*, %"class.std::vector.82"*, %"class.std::vector.110"*, %"struct.dealii::SubCellData"*)***, !dbg !8058
  %vtable110 = load void (%"class.dealii::Triangulation"*, %"class.std::vector.82"*, %"class.std::vector.110"*, %"struct.dealii::SubCellData"*)**, void (%"class.dealii::Triangulation"*, %"class.std::vector.82"*, %"class.std::vector.110"*, %"struct.dealii::SubCellData"*)*** %76, align 8, !dbg !8058
  %vfn = getelementptr inbounds void (%"class.dealii::Triangulation"*, %"class.std::vector.82"*, %"class.std::vector.110"*, %"struct.dealii::SubCellData"*)*, void (%"class.dealii::Triangulation"*, %"class.std::vector.82"*, %"class.std::vector.110"*, %"struct.dealii::SubCellData"*)** %vtable110, i64 4, !dbg !8058
  %77 = load void (%"class.dealii::Triangulation"*, %"class.std::vector.82"*, %"class.std::vector.110"*, %"struct.dealii::SubCellData"*)*, void (%"class.dealii::Triangulation"*, %"class.std::vector.82"*, %"class.std::vector.110"*, %"struct.dealii::SubCellData"*)** %vfn, align 8, !dbg !8058
  invoke void %77(%"class.dealii::Triangulation"* %call109, %"class.std::vector.82"* dereferenceable(24) %vertices60, %"class.std::vector.110"* dereferenceable(24) %cells, %"struct.dealii::SubCellData"* dereferenceable(48) %subcelldata)
          to label %invoke.cont111 unwind label %lpad69, !dbg !8058

invoke.cont111:                                   ; preds = %invoke.cont108
  call void @_ZNSt6vectorIN6dealii5PointILi3EEESaIS2_EED2Ev(%"class.std::vector.82"* %vertices60) #3, !dbg !7939
  call void @_ZN6dealii11SubCellDataD2Ev(%"struct.dealii::SubCellData"* %subcelldata) #3, !dbg !7939
  call void @_ZNSt6vectorIN6dealii8CellDataILi3EEESaIS2_EED2Ev(%"class.std::vector.110"* %cells) #3, !dbg !7939
  call void @_ZNSt7__cxx1112basic_stringIcSt11char_traitsIcESaIcEED1Ev(%"class.std::__cxx11::basic_string"* %line) #3, !dbg !7939
  ret void, !dbg !7939

ehcleanup:                                        ; preds = %lpad102, %lpad69
  call void @_ZNSt6vectorIN6dealii5PointILi3EEESaIS2_EED2Ev(%"class.std::vector.82"* %vertices60) #3, !dbg !7939
  br label %ehcleanup112, !dbg !7939

ehcleanup112:                                     ; preds = %ehcleanup, %lpad63, %lpad30, %lpad24
  call void @_ZN6dealii11SubCellDataD2Ev(%"struct.dealii::SubCellData"* %subcelldata) #3, !dbg !7939
  call void @_ZNSt6vectorIN6dealii8CellDataILi3EEESaIS2_EED2Ev(%"class.std::vector.110"* %cells) #3, !dbg !7939
  br label %ehcleanup114, !dbg !7939

ehcleanup114:                                     ; preds = %ehcleanup112, %lpad15, %lpad2
  call void @_ZNSt7__cxx1112basic_stringIcSt11char_traitsIcESaIcEED1Ev(%"class.std::__cxx11::basic_string"* %line) #3, !dbg !7939
  br label %eh.resume, !dbg !7939

eh.resume:                                        ; preds = %ehcleanup114, %lpad
  %exn = load i8*, i8** %exn.slot, align 8, !dbg !7904
  %sel = load i32, i32* %ehselector.slot, align 4, !dbg !7904
  %lpad.val = insertvalue { i8*, i32 } undef, i8* %exn, 0, !dbg !7904
  %lpad.val115 = insertvalue { i8*, i32 } %lpad.val, i32 %sel, 1, !dbg !7904
  resume { i8*, i32 } %lpad.val115, !dbg !7904
}

; Function Attrs: noinline nounwind uwtable
define weak_odr dso_local void @_ZN6dealii6GridInILi3ELi3EE12read_tecplotERSi(%"class.dealii::GridIn"* %this, %"class.std::basic_istream"* dereferenceable(280) %0) #5 comdat align 2 !dbg !8059 {
entry:
  %this.addr = alloca %"class.dealii::GridIn"*, align 8
  %.addr = alloca %"class.std::basic_istream"*, align 8
  store %"class.dealii::GridIn"* %this, %"class.dealii::GridIn"** %this.addr, align 8
  call void @llvm.dbg.declare(metadata %"class.dealii::GridIn"** %this.addr, metadata !8060, metadata !DIExpression()), !dbg !8061
  store %"class.std::basic_istream"* %0, %"class.std::basic_istream"** %.addr, align 8
  call void @llvm.dbg.declare(metadata %"class.std::basic_istream"** %.addr, metadata !8062, metadata !DIExpression()), !dbg !8063
  %this1 = load %"class.dealii::GridIn"*, %"class.dealii::GridIn"** %this.addr, align 8
  ret void, !dbg !8064
}

; Function Attrs: noinline uwtable
define weak_odr dso_local void @_ZN6dealii6GridInILi3ELi3EE4readERKNSt7__cxx1112basic_stringIcSt11char_traitsIcESaIcEEENS1_6FormatE(%"class.dealii::GridIn"* %this, %"class.std::__cxx11::basic_string"* dereferenceable(32) %filename, i32 %format) #0 comdat align 2 personality i8* bitcast (i32 (...)* @__gxx_personality_v0 to i8*) !dbg !8065 {
entry:
  %this.addr = alloca %"class.dealii::GridIn"*, align 8
  %filename.addr = alloca %"class.std::__cxx11::basic_string"*, align 8
  %format.addr = alloca i32, align 4
  %search = alloca %"class.dealii::PathSearch", align 8
  %ref.tmp = alloca %"class.std::__cxx11::basic_string", align 8
  %ref.tmp2 = alloca %"class.std::allocator.93", align 1
  %exn.slot = alloca i8*
  %ehselector.slot = alloca i32
  %name = alloca %"class.std::__cxx11::basic_string", align 8
  %ref.tmp5 = alloca %"class.std::__cxx11::basic_string", align 8
  %ref.tmp8 = alloca %"class.std::__cxx11::basic_string", align 8
  %ref.tmp9 = alloca %"class.std::__cxx11::basic_string", align 8
  %in = alloca %"class.std::basic_ifstream", align 8
  %slashpos = alloca i64, align 8
  %dotpos = alloca i64, align 8
  %ext = alloca %"class.std::__cxx11::basic_string", align 8
  store %"class.dealii::GridIn"* %this, %"class.dealii::GridIn"** %this.addr, align 8
  call void @llvm.dbg.declare(metadata %"class.dealii::GridIn"** %this.addr, metadata !8066, metadata !DIExpression()), !dbg !8067
  store %"class.std::__cxx11::basic_string"* %filename, %"class.std::__cxx11::basic_string"** %filename.addr, align 8
  call void @llvm.dbg.declare(metadata %"class.std::__cxx11::basic_string"** %filename.addr, metadata !8068, metadata !DIExpression()), !dbg !8069
  store i32 %format, i32* %format.addr, align 4
  call void @llvm.dbg.declare(metadata i32* %format.addr, metadata !8070, metadata !DIExpression()), !dbg !8071
  %this1 = load %"class.dealii::GridIn"*, %"class.dealii::GridIn"** %this.addr, align 8
  call void @llvm.dbg.declare(metadata %"class.dealii::PathSearch"* %search, metadata !8072, metadata !DIExpression()), !dbg !8073
  call void @_ZNSaIcEC1Ev(%"class.std::allocator.93"* %ref.tmp2) #3, !dbg !8074
  invoke void @_ZNSt7__cxx1112basic_stringIcSt11char_traitsIcESaIcEEC1EPKcRKS3_(%"class.std::__cxx11::basic_string"* %ref.tmp, i8* getelementptr inbounds ([5 x i8], [5 x i8]* @.str, i64 0, i64 0), %"class.std::allocator.93"* dereferenceable(1) %ref.tmp2)
          to label %invoke.cont unwind label %lpad, !dbg !8074

invoke.cont:                                      ; preds = %entry
  invoke void @_ZN6dealii10PathSearchC1ERKNSt7__cxx1112basic_stringIcSt11char_traitsIcESaIcEEEj(%"class.dealii::PathSearch"* %search, %"class.std::__cxx11::basic_string"* dereferenceable(32) %ref.tmp, i32 0)
          to label %invoke.cont4 unwind label %lpad3, !dbg !8073

invoke.cont4:                                     ; preds = %invoke.cont
  call void @_ZNSt7__cxx1112basic_stringIcSt11char_traitsIcESaIcEED1Ev(%"class.std::__cxx11::basic_string"* %ref.tmp) #3, !dbg !8073
  call void @_ZNSaIcED1Ev(%"class.std::allocator.93"* %ref.tmp2) #3, !dbg !8073
  call void @llvm.dbg.declare(metadata %"class.std::__cxx11::basic_string"* %name, metadata !8075, metadata !DIExpression()), !dbg !8076
  call void @_ZNSt7__cxx1112basic_stringIcSt11char_traitsIcESaIcEEC1Ev(%"class.std::__cxx11::basic_string"* %name) #3, !dbg !8076
  %0 = load i32, i32* %format.addr, align 4, !dbg !8077
  %cmp = icmp eq i32 %0, 0, !dbg !8079
  br i1 %cmp, label %if.then, label %if.else, !dbg !8080

if.then:                                          ; preds = %invoke.cont4
  %1 = load %"class.std::__cxx11::basic_string"*, %"class.std::__cxx11::basic_string"** %filename.addr, align 8, !dbg !8081
  invoke void @_ZN6dealii10PathSearch4findERKNSt7__cxx1112basic_stringIcSt11char_traitsIcESaIcEEEPKc(%"class.std::__cxx11::basic_string"* sret %ref.tmp5, %"class.dealii::PathSearch"* %search, %"class.std::__cxx11::basic_string"* dereferenceable(32) %1, i8* getelementptr inbounds ([2 x i8], [2 x i8]* @.str.1, i64 0, i64 0))
          to label %invoke.cont7 unwind label %lpad6, !dbg !8082

invoke.cont7:                                     ; preds = %if.then
  %call = call dereferenceable(32) %"class.std::__cxx11::basic_string"* @_ZNSt7__cxx1112basic_stringIcSt11char_traitsIcESaIcEEaSEOS4_(%"class.std::__cxx11::basic_string"* %name, %"class.std::__cxx11::basic_string"* dereferenceable(32) %ref.tmp5) #3, !dbg !8083
  call void @_ZNSt7__cxx1112basic_stringIcSt11char_traitsIcESaIcEED1Ev(%"class.std::__cxx11::basic_string"* %ref.tmp5) #3, !dbg !8084
  br label %if.end, !dbg !8084

lpad:                                             ; preds = %entry
  %2 = landingpad { i8*, i32 }
          cleanup, !dbg !8085
  %3 = extractvalue { i8*, i32 } %2, 0, !dbg !8085
  store i8* %3, i8** %exn.slot, align 8, !dbg !8085
  %4 = extractvalue { i8*, i32 } %2, 1, !dbg !8085
  store i32 %4, i32* %ehselector.slot, align 4, !dbg !8085
  br label %ehcleanup, !dbg !8085

lpad3:                                            ; preds = %invoke.cont
  %5 = landingpad { i8*, i32 }
          cleanup, !dbg !8085
  %6 = extractvalue { i8*, i32 } %5, 0, !dbg !8085
  store i8* %6, i8** %exn.slot, align 8, !dbg !8085
  %7 = extractvalue { i8*, i32 } %5, 1, !dbg !8085
  store i32 %7, i32* %ehselector.slot, align 4, !dbg !8085
  call void @_ZNSt7__cxx1112basic_stringIcSt11char_traitsIcESaIcEED1Ev(%"class.std::__cxx11::basic_string"* %ref.tmp) #3, !dbg !8073
  br label %ehcleanup, !dbg !8073

ehcleanup:                                        ; preds = %lpad3, %lpad
  call void @_ZNSaIcED1Ev(%"class.std::allocator.93"* %ref.tmp2) #3, !dbg !8073
  br label %eh.resume, !dbg !8073

lpad6:                                            ; preds = %if.end, %if.else, %if.then
  %8 = landingpad { i8*, i32 }
          cleanup, !dbg !8086
  %9 = extractvalue { i8*, i32 } %8, 0, !dbg !8086
  store i8* %9, i8** %exn.slot, align 8, !dbg !8086
  %10 = extractvalue { i8*, i32 } %8, 1, !dbg !8086
  store i32 %10, i32* %ehselector.slot, align 4, !dbg !8086
  br label %ehcleanup41, !dbg !8086

if.else:                                          ; preds = %invoke.cont4
  %11 = load %"class.std::__cxx11::basic_string"*, %"class.std::__cxx11::basic_string"** %filename.addr, align 8, !dbg !8087
  %12 = load i32, i32* %format.addr, align 4, !dbg !8088
  invoke void @_ZN6dealii6GridInILi3ELi3EE14default_suffixB5cxx11ENS1_6FormatE(%"class.std::__cxx11::basic_string"* sret %ref.tmp9, i32 %12)
          to label %invoke.cont10 unwind label %lpad6, !dbg !8089

invoke.cont10:                                    ; preds = %if.else
  invoke void @_ZN6dealii10PathSearch4findERKNSt7__cxx1112basic_stringIcSt11char_traitsIcESaIcEEES8_PKc(%"class.std::__cxx11::basic_string"* sret %ref.tmp8, %"class.dealii::PathSearch"* %search, %"class.std::__cxx11::basic_string"* dereferenceable(32) %11, %"class.std::__cxx11::basic_string"* dereferenceable(32) %ref.tmp9, i8* getelementptr inbounds ([2 x i8], [2 x i8]* @.str.1, i64 0, i64 0))
          to label %invoke.cont12 unwind label %lpad11, !dbg !8090

invoke.cont12:                                    ; preds = %invoke.cont10
  %call13 = call dereferenceable(32) %"class.std::__cxx11::basic_string"* @_ZNSt7__cxx1112basic_stringIcSt11char_traitsIcESaIcEEaSEOS4_(%"class.std::__cxx11::basic_string"* %name, %"class.std::__cxx11::basic_string"* dereferenceable(32) %ref.tmp8) #3, !dbg !8091
  call void @_ZNSt7__cxx1112basic_stringIcSt11char_traitsIcESaIcEED1Ev(%"class.std::__cxx11::basic_string"* %ref.tmp8) #3, !dbg !8092
  call void @_ZNSt7__cxx1112basic_stringIcSt11char_traitsIcESaIcEED1Ev(%"class.std::__cxx11::basic_string"* %ref.tmp9) #3, !dbg !8092
  br label %if.end

lpad11:                                           ; preds = %invoke.cont10
  %13 = landingpad { i8*, i32 }
          cleanup, !dbg !8086
  %14 = extractvalue { i8*, i32 } %13, 0, !dbg !8086
  store i8* %14, i8** %exn.slot, align 8, !dbg !8086
  %15 = extractvalue { i8*, i32 } %13, 1, !dbg !8086
  store i32 %15, i32* %ehselector.slot, align 4, !dbg !8086
  call void @_ZNSt7__cxx1112basic_stringIcSt11char_traitsIcESaIcEED1Ev(%"class.std::__cxx11::basic_string"* %ref.tmp9) #3, !dbg !8092
  br label %ehcleanup41, !dbg !8092

if.end:                                           ; preds = %invoke.cont12, %invoke.cont7
  call void @llvm.dbg.declare(metadata %"class.std::basic_ifstream"* %in, metadata !8093, metadata !DIExpression()), !dbg !8097
  %call15 = call i8* @_ZNKSt7__cxx1112basic_stringIcSt11char_traitsIcESaIcEE5c_strEv(%"class.std::__cxx11::basic_string"* %name) #3, !dbg !8098
  invoke void @_ZNSt14basic_ifstreamIcSt11char_traitsIcEEC1EPKcSt13_Ios_Openmode(%"class.std::basic_ifstream"* %in, i8* %call15, i32 8)
          to label %invoke.cont16 unwind label %lpad6, !dbg !8097

invoke.cont16:                                    ; preds = %if.end
  %16 = load i32, i32* %format.addr, align 4, !dbg !8099
  %cmp17 = icmp eq i32 %16, 0, !dbg !8101
  br i1 %cmp17, label %if.then18, label %if.end33, !dbg !8102

if.then18:                                        ; preds = %invoke.cont16
  call void @llvm.dbg.declare(metadata i64* %slashpos, metadata !8103, metadata !DIExpression()), !dbg !8106
  %call19 = call i64 @_ZNKSt7__cxx1112basic_stringIcSt11char_traitsIcESaIcEE12find_last_ofEcm(%"class.std::__cxx11::basic_string"* %name, i8 signext 47, i64 -1) #3, !dbg !8107
  store i64 %call19, i64* %slashpos, align 8, !dbg !8106
  call void @llvm.dbg.declare(metadata i64* %dotpos, metadata !8108, metadata !DIExpression()), !dbg !8109
  %call20 = call i64 @_ZNKSt7__cxx1112basic_stringIcSt11char_traitsIcESaIcEE12find_last_ofEcm(%"class.std::__cxx11::basic_string"* %name, i8 signext 46, i64 -1) #3, !dbg !8110
  store i64 %call20, i64* %dotpos, align 8, !dbg !8109
  %17 = load i64, i64* %dotpos, align 8, !dbg !8111
  %call21 = call i64 @_ZNKSt7__cxx1112basic_stringIcSt11char_traitsIcESaIcEE6lengthEv(%"class.std::__cxx11::basic_string"* %name) #3, !dbg !8113
  %cmp22 = icmp ult i64 %17, %call21, !dbg !8114
  br i1 %cmp22, label %land.lhs.true, label %if.end32, !dbg !8115

land.lhs.true:                                    ; preds = %if.then18
  %18 = load i64, i64* %dotpos, align 8, !dbg !8116
  %19 = load i64, i64* %slashpos, align 8, !dbg !8117
  %cmp23 = icmp ugt i64 %18, %19, !dbg !8118
  br i1 %cmp23, label %if.then25, label %lor.lhs.false, !dbg !8119

lor.lhs.false:                                    ; preds = %land.lhs.true
  %20 = load i64, i64* %slashpos, align 8, !dbg !8120
  %cmp24 = icmp eq i64 %20, -1, !dbg !8121
  br i1 %cmp24, label %if.then25, label %if.end32, !dbg !8122

if.then25:                                        ; preds = %lor.lhs.false, %land.lhs.true
  call void @llvm.dbg.declare(metadata %"class.std::__cxx11::basic_string"* %ext, metadata !8123, metadata !DIExpression()), !dbg !8125
  %21 = load i64, i64* %dotpos, align 8, !dbg !8126
  %add = add i64 %21, 1, !dbg !8127
  invoke void @_ZNKSt7__cxx1112basic_stringIcSt11char_traitsIcESaIcEE6substrEmm(%"class.std::__cxx11::basic_string"* sret %ext, %"class.std::__cxx11::basic_string"* %name, i64 %add, i64 -1)
          to label %invoke.cont27 unwind label %lpad26, !dbg !8128

invoke.cont27:                                    ; preds = %if.then25
  %call30 = invoke i32 @_ZN6dealii6GridInILi3ELi3EE12parse_formatERKNSt7__cxx1112basic_stringIcSt11char_traitsIcESaIcEEE(%"class.std::__cxx11::basic_string"* dereferenceable(32) %ext)
          to label %invoke.cont29 unwind label %lpad28, !dbg !8129

invoke.cont29:                                    ; preds = %invoke.cont27
  store i32 %call30, i32* %format.addr, align 4, !dbg !8130
  call void @_ZNSt7__cxx1112basic_stringIcSt11char_traitsIcESaIcEED1Ev(%"class.std::__cxx11::basic_string"* %ext) #3, !dbg !8131
  br label %if.end32, !dbg !8132

lpad26:                                           ; preds = %if.else37, %if.then35, %if.then25
  %22 = landingpad { i8*, i32 }
          cleanup, !dbg !8133
  %23 = extractvalue { i8*, i32 } %22, 0, !dbg !8133
  store i8* %23, i8** %exn.slot, align 8, !dbg !8133
  %24 = extractvalue { i8*, i32 } %22, 1, !dbg !8133
  store i32 %24, i32* %ehselector.slot, align 4, !dbg !8133
  br label %ehcleanup40, !dbg !8133

lpad28:                                           ; preds = %invoke.cont27
  %25 = landingpad { i8*, i32 }
          cleanup, !dbg !8133
  %26 = extractvalue { i8*, i32 } %25, 0, !dbg !8133
  store i8* %26, i8** %exn.slot, align 8, !dbg !8133
  %27 = extractvalue { i8*, i32 } %25, 1, !dbg !8133
  store i32 %27, i32* %ehselector.slot, align 4, !dbg !8133
  call void @_ZNSt7__cxx1112basic_stringIcSt11char_traitsIcESaIcEED1Ev(%"class.std::__cxx11::basic_string"* %ext) #3, !dbg !8131
  br label %ehcleanup40, !dbg !8131

if.end32:                                         ; preds = %invoke.cont29, %lor.lhs.false, %if.then18
  br label %if.end33, !dbg !8134

if.end33:                                         ; preds = %if.end32, %invoke.cont16
  %28 = load i32, i32* %format.addr, align 4, !dbg !8135
  %cmp34 = icmp eq i32 %28, 5, !dbg !8137
  br i1 %cmp34, label %if.then35, label %if.else37, !dbg !8138

if.then35:                                        ; preds = %if.end33
  %29 = load %"class.std::__cxx11::basic_string"*, %"class.std::__cxx11::basic_string"** %filename.addr, align 8, !dbg !8139
  invoke void @_ZN6dealii6GridInILi3ELi3EE11read_netcdfERKNSt7__cxx1112basic_stringIcSt11char_traitsIcESaIcEEE(%"class.dealii::GridIn"* %this1, %"class.std::__cxx11::basic_string"* dereferenceable(32) %29)
          to label %invoke.cont36 unwind label %lpad26, !dbg !8140

invoke.cont36:                                    ; preds = %if.then35
  br label %if.end39, !dbg !8140

if.else37:                                        ; preds = %if.end33
  %30 = bitcast %"class.std::basic_ifstream"* %in to %"class.std::basic_istream"*, !dbg !8141
  %31 = load i32, i32* %format.addr, align 4, !dbg !8142
  invoke void @_ZN6dealii6GridInILi3ELi3EE4readERSiNS1_6FormatE(%"class.dealii::GridIn"* %this1, %"class.std::basic_istream"* dereferenceable(280) %30, i32 %31)
          to label %invoke.cont38 unwind label %lpad26, !dbg !8143

invoke.cont38:                                    ; preds = %if.else37
  br label %if.end39

if.end39:                                         ; preds = %invoke.cont38, %invoke.cont36
  call void @_ZNSt14basic_ifstreamIcSt11char_traitsIcEED1Ev(%"class.std::basic_ifstream"* %in) #3, !dbg !8085
  call void @_ZNSt7__cxx1112basic_stringIcSt11char_traitsIcESaIcEED1Ev(%"class.std::__cxx11::basic_string"* %name) #3, !dbg !8085
  call void @_ZN6dealii10PathSearchD2Ev(%"class.dealii::PathSearch"* %search) #3, !dbg !8085
  ret void, !dbg !8085

ehcleanup40:                                      ; preds = %lpad28, %lpad26
  call void @_ZNSt14basic_ifstreamIcSt11char_traitsIcEED1Ev(%"class.std::basic_ifstream"* %in) #3, !dbg !8085
  br label %ehcleanup41, !dbg !8085

ehcleanup41:                                      ; preds = %ehcleanup40, %lpad11, %lpad6
  call void @_ZNSt7__cxx1112basic_stringIcSt11char_traitsIcESaIcEED1Ev(%"class.std::__cxx11::basic_string"* %name) #3, !dbg !8085
  call void @_ZN6dealii10PathSearchD2Ev(%"class.dealii::PathSearch"* %search) #3, !dbg !8085
  br label %eh.resume, !dbg !8085

eh.resume:                                        ; preds = %ehcleanup41, %ehcleanup
  %exn = load i8*, i8** %exn.slot, align 8, !dbg !8073
  %sel = load i32, i32* %ehselector.slot, align 4, !dbg !8073
  %lpad.val = insertvalue { i8*, i32 } undef, i8* %exn, 0, !dbg !8073
  %lpad.val43 = insertvalue { i8*, i32 } %lpad.val, i32 %sel, 1, !dbg !8073
  resume { i8*, i32 } %lpad.val43, !dbg !8073
}

; Function Attrs: nounwind
declare dso_local void @_ZNSaIcEC1Ev(%"class.std::allocator.93"*) unnamed_addr #2

declare dso_local void @_ZNSt7__cxx1112basic_stringIcSt11char_traitsIcESaIcEEC1EPKcRKS3_(%"class.std::__cxx11::basic_string"*, i8*, %"class.std::allocator.93"* dereferenceable(1)) unnamed_addr #1

declare dso_local i32 @__gxx_personality_v0(...)

declare dso_local void @_ZN6dealii10PathSearchC1ERKNSt7__cxx1112basic_stringIcSt11char_traitsIcESaIcEEEj(%"class.dealii::PathSearch"*, %"class.std::__cxx11::basic_string"* dereferenceable(32), i32) unnamed_addr #1

; Function Attrs: nounwind
declare dso_local void @_ZNSt7__cxx1112basic_stringIcSt11char_traitsIcESaIcEED1Ev(%"class.std::__cxx11::basic_string"*) unnamed_addr #2

; Function Attrs: nounwind
declare dso_local void @_ZNSaIcED1Ev(%"class.std::allocator.93"*) unnamed_addr #2

; Function Attrs: nounwind
declare dso_local void @_ZNSt7__cxx1112basic_stringIcSt11char_traitsIcESaIcEEC1Ev(%"class.std::__cxx11::basic_string"*) unnamed_addr #2

declare dso_local void @_ZN6dealii10PathSearch4findERKNSt7__cxx1112basic_stringIcSt11char_traitsIcESaIcEEEPKc(%"class.std::__cxx11::basic_string"* sret, %"class.dealii::PathSearch"*, %"class.std::__cxx11::basic_string"* dereferenceable(32), i8*) #1

; Function Attrs: nounwind
declare dso_local dereferenceable(32) %"class.std::__cxx11::basic_string"* @_ZNSt7__cxx1112basic_stringIcSt11char_traitsIcESaIcEEaSEOS4_(%"class.std::__cxx11::basic_string"*, %"class.std::__cxx11::basic_string"* dereferenceable(32)) #2

declare dso_local void @_ZN6dealii10PathSearch4findERKNSt7__cxx1112basic_stringIcSt11char_traitsIcESaIcEEES8_PKc(%"class.std::__cxx11::basic_string"* sret, %"class.dealii::PathSearch"*, %"class.std::__cxx11::basic_string"* dereferenceable(32), %"class.std::__cxx11::basic_string"* dereferenceable(32), i8*) #1

; Function Attrs: noinline uwtable
define weak_odr dso_local void @_ZN6dealii6GridInILi3ELi3EE14default_suffixB5cxx11ENS1_6FormatE(%"class.std::__cxx11::basic_string"* noalias sret %agg.result, i32 %format) #0 comdat align 2 personality i8* bitcast (i32 (...)* @__gxx_personality_v0 to i8*) !dbg !8144 {
entry:
  %result.ptr = alloca i8*, align 8
  %format.addr = alloca i32, align 4
  %ref.tmp = alloca %"class.std::allocator.93", align 1
  %exn.slot = alloca i8*
  %ehselector.slot = alloca i32
  %ref.tmp2 = alloca %"class.std::allocator.93", align 1
  %ref.tmp6 = alloca %"class.std::allocator.93", align 1
  %ref.tmp10 = alloca %"class.std::allocator.93", align 1
  %ref.tmp14 = alloca %"class.std::allocator.93", align 1
  %ref.tmp18 = alloca %"class.std::allocator.93", align 1
  %ref.tmp21 = alloca %"class.std::allocator.93", align 1
  %0 = bitcast %"class.std::__cxx11::basic_string"* %agg.result to i8*
  store i8* %0, i8** %result.ptr, align 8
  store i32 %format, i32* %format.addr, align 4
  call void @llvm.dbg.declare(metadata i32* %format.addr, metadata !8145, metadata !DIExpression()), !dbg !8146
  %1 = load i32, i32* %format.addr, align 4, !dbg !8147
  switch i32 %1, label %sw.default [
    i32 2, label %sw.bb
    i32 4, label %sw.bb1
    i32 1, label %sw.bb5
    i32 3, label %sw.bb9
    i32 5, label %sw.bb13
    i32 6, label %sw.bb17
  ], !dbg !8148

sw.bb:                                            ; preds = %entry
  call void @_ZNSaIcEC1Ev(%"class.std::allocator.93"* %ref.tmp) #3, !dbg !8149
  invoke void @_ZNSt7__cxx1112basic_stringIcSt11char_traitsIcESaIcEEC1EPKcRKS3_(%"class.std::__cxx11::basic_string"* %agg.result, i8* getelementptr inbounds ([8 x i8], [8 x i8]* @.str.56, i64 0, i64 0), %"class.std::allocator.93"* dereferenceable(1) %ref.tmp)
          to label %invoke.cont unwind label %lpad, !dbg !8149

invoke.cont:                                      ; preds = %sw.bb
  call void @_ZNSaIcED1Ev(%"class.std::allocator.93"* %ref.tmp) #3, !dbg !8151
  br label %return, !dbg !8151

lpad:                                             ; preds = %sw.bb
  %2 = landingpad { i8*, i32 }
          cleanup, !dbg !8152
  %3 = extractvalue { i8*, i32 } %2, 0, !dbg !8152
  store i8* %3, i8** %exn.slot, align 8, !dbg !8152
  %4 = extractvalue { i8*, i32 } %2, 1, !dbg !8152
  store i32 %4, i32* %ehselector.slot, align 4, !dbg !8152
  call void @_ZNSaIcED1Ev(%"class.std::allocator.93"* %ref.tmp) #3, !dbg !8151
  br label %eh.resume, !dbg !8151

sw.bb1:                                           ; preds = %entry
  call void @_ZNSaIcEC1Ev(%"class.std::allocator.93"* %ref.tmp2) #3, !dbg !8153
  invoke void @_ZNSt7__cxx1112basic_stringIcSt11char_traitsIcESaIcEEC1EPKcRKS3_(%"class.std::__cxx11::basic_string"* %agg.result, i8* getelementptr inbounds ([5 x i8], [5 x i8]* @.str.57, i64 0, i64 0), %"class.std::allocator.93"* dereferenceable(1) %ref.tmp2)
          to label %invoke.cont4 unwind label %lpad3, !dbg !8153

invoke.cont4:                                     ; preds = %sw.bb1
  call void @_ZNSaIcED1Ev(%"class.std::allocator.93"* %ref.tmp2) #3, !dbg !8154
  br label %return, !dbg !8154

lpad3:                                            ; preds = %sw.bb1
  %5 = landingpad { i8*, i32 }
          cleanup, !dbg !8152
  %6 = extractvalue { i8*, i32 } %5, 0, !dbg !8152
  store i8* %6, i8** %exn.slot, align 8, !dbg !8152
  %7 = extractvalue { i8*, i32 } %5, 1, !dbg !8152
  store i32 %7, i32* %ehselector.slot, align 4, !dbg !8152
  call void @_ZNSaIcED1Ev(%"class.std::allocator.93"* %ref.tmp2) #3, !dbg !8154
  br label %eh.resume, !dbg !8154

sw.bb5:                                           ; preds = %entry
  call void @_ZNSaIcEC1Ev(%"class.std::allocator.93"* %ref.tmp6) #3, !dbg !8155
  invoke void @_ZNSt7__cxx1112basic_stringIcSt11char_traitsIcESaIcEEC1EPKcRKS3_(%"class.std::__cxx11::basic_string"* %agg.result, i8* getelementptr inbounds ([5 x i8], [5 x i8]* @.str.58, i64 0, i64 0), %"class.std::allocator.93"* dereferenceable(1) %ref.tmp6)
          to label %invoke.cont8 unwind label %lpad7, !dbg !8155

invoke.cont8:                                     ; preds = %sw.bb5
  call void @_ZNSaIcED1Ev(%"class.std::allocator.93"* %ref.tmp6) #3, !dbg !8156
  br label %return, !dbg !8156

lpad7:                                            ; preds = %sw.bb5
  %8 = landingpad { i8*, i32 }
          cleanup, !dbg !8152
  %9 = extractvalue { i8*, i32 } %8, 0, !dbg !8152
  store i8* %9, i8** %exn.slot, align 8, !dbg !8152
  %10 = extractvalue { i8*, i32 } %8, 1, !dbg !8152
  store i32 %10, i32* %ehselector.slot, align 4, !dbg !8152
  call void @_ZNSaIcED1Ev(%"class.std::allocator.93"* %ref.tmp6) #3, !dbg !8156
  br label %eh.resume, !dbg !8156

sw.bb9:                                           ; preds = %entry
  call void @_ZNSaIcEC1Ev(%"class.std::allocator.93"* %ref.tmp10) #3, !dbg !8157
  invoke void @_ZNSt7__cxx1112basic_stringIcSt11char_traitsIcESaIcEEC1EPKcRKS3_(%"class.std::__cxx11::basic_string"* %agg.result, i8* getelementptr inbounds ([5 x i8], [5 x i8]* @.str.59, i64 0, i64 0), %"class.std::allocator.93"* dereferenceable(1) %ref.tmp10)
          to label %invoke.cont12 unwind label %lpad11, !dbg !8157

invoke.cont12:                                    ; preds = %sw.bb9
  call void @_ZNSaIcED1Ev(%"class.std::allocator.93"* %ref.tmp10) #3, !dbg !8158
  br label %return, !dbg !8158

lpad11:                                           ; preds = %sw.bb9
  %11 = landingpad { i8*, i32 }
          cleanup, !dbg !8152
  %12 = extractvalue { i8*, i32 } %11, 0, !dbg !8152
  store i8* %12, i8** %exn.slot, align 8, !dbg !8152
  %13 = extractvalue { i8*, i32 } %11, 1, !dbg !8152
  store i32 %13, i32* %ehselector.slot, align 4, !dbg !8152
  call void @_ZNSaIcED1Ev(%"class.std::allocator.93"* %ref.tmp10) #3, !dbg !8158
  br label %eh.resume, !dbg !8158

sw.bb13:                                          ; preds = %entry
  call void @_ZNSaIcEC1Ev(%"class.std::allocator.93"* %ref.tmp14) #3, !dbg !8159
  invoke void @_ZNSt7__cxx1112basic_stringIcSt11char_traitsIcESaIcEEC1EPKcRKS3_(%"class.std::__cxx11::basic_string"* %agg.result, i8* getelementptr inbounds ([4 x i8], [4 x i8]* @.str.60, i64 0, i64 0), %"class.std::allocator.93"* dereferenceable(1) %ref.tmp14)
          to label %invoke.cont16 unwind label %lpad15, !dbg !8159

invoke.cont16:                                    ; preds = %sw.bb13
  call void @_ZNSaIcED1Ev(%"class.std::allocator.93"* %ref.tmp14) #3, !dbg !8160
  br label %return, !dbg !8160

lpad15:                                           ; preds = %sw.bb13
  %14 = landingpad { i8*, i32 }
          cleanup, !dbg !8152
  %15 = extractvalue { i8*, i32 } %14, 0, !dbg !8152
  store i8* %15, i8** %exn.slot, align 8, !dbg !8152
  %16 = extractvalue { i8*, i32 } %14, 1, !dbg !8152
  store i32 %16, i32* %ehselector.slot, align 4, !dbg !8152
  call void @_ZNSaIcED1Ev(%"class.std::allocator.93"* %ref.tmp14) #3, !dbg !8160
  br label %eh.resume, !dbg !8160

sw.bb17:                                          ; preds = %entry
  call void @_ZNSaIcEC1Ev(%"class.std::allocator.93"* %ref.tmp18) #3, !dbg !8161
  invoke void @_ZNSt7__cxx1112basic_stringIcSt11char_traitsIcESaIcEEC1EPKcRKS3_(%"class.std::__cxx11::basic_string"* %agg.result, i8* getelementptr inbounds ([5 x i8], [5 x i8]* @.str.61, i64 0, i64 0), %"class.std::allocator.93"* dereferenceable(1) %ref.tmp18)
          to label %invoke.cont20 unwind label %lpad19, !dbg !8161

invoke.cont20:                                    ; preds = %sw.bb17
  call void @_ZNSaIcED1Ev(%"class.std::allocator.93"* %ref.tmp18) #3, !dbg !8162
  br label %return, !dbg !8162

lpad19:                                           ; preds = %sw.bb17
  %17 = landingpad { i8*, i32 }
          cleanup, !dbg !8152
  %18 = extractvalue { i8*, i32 } %17, 0, !dbg !8152
  store i8* %18, i8** %exn.slot, align 8, !dbg !8152
  %19 = extractvalue { i8*, i32 } %17, 1, !dbg !8152
  store i32 %19, i32* %ehselector.slot, align 4, !dbg !8152
  call void @_ZNSaIcED1Ev(%"class.std::allocator.93"* %ref.tmp18) #3, !dbg !8162
  br label %eh.resume, !dbg !8162

sw.default:                                       ; preds = %entry
  call void @_ZNSaIcEC1Ev(%"class.std::allocator.93"* %ref.tmp21) #3, !dbg !8163
  invoke void @_ZNSt7__cxx1112basic_stringIcSt11char_traitsIcESaIcEEC1EPKcRKS3_(%"class.std::__cxx11::basic_string"* %agg.result, i8* getelementptr inbounds ([16 x i8], [16 x i8]* @.str.62, i64 0, i64 0), %"class.std::allocator.93"* dereferenceable(1) %ref.tmp21)
          to label %invoke.cont23 unwind label %lpad22, !dbg !8163

invoke.cont23:                                    ; preds = %sw.default
  call void @_ZNSaIcED1Ev(%"class.std::allocator.93"* %ref.tmp21) #3, !dbg !8164
  br label %return, !dbg !8164

lpad22:                                           ; preds = %sw.default
  %20 = landingpad { i8*, i32 }
          cleanup, !dbg !8152
  %21 = extractvalue { i8*, i32 } %20, 0, !dbg !8152
  store i8* %21, i8** %exn.slot, align 8, !dbg !8152
  %22 = extractvalue { i8*, i32 } %20, 1, !dbg !8152
  store i32 %22, i32* %ehselector.slot, align 4, !dbg !8152
  call void @_ZNSaIcED1Ev(%"class.std::allocator.93"* %ref.tmp21) #3, !dbg !8164
  br label %eh.resume, !dbg !8164

return:                                           ; preds = %invoke.cont23, %invoke.cont20, %invoke.cont16, %invoke.cont12, %invoke.cont8, %invoke.cont4, %invoke.cont
  ret void, !dbg !8165

eh.resume:                                        ; preds = %lpad22, %lpad19, %lpad15, %lpad11, %lpad7, %lpad3, %lpad
  %exn = load i8*, i8** %exn.slot, align 8, !dbg !8151
  %sel = load i32, i32* %ehselector.slot, align 4, !dbg !8151
  %lpad.val = insertvalue { i8*, i32 } undef, i8* %exn, 0, !dbg !8151
  %lpad.val24 = insertvalue { i8*, i32 } %lpad.val, i32 %sel, 1, !dbg !8151
  resume { i8*, i32 } %lpad.val24, !dbg !8151
}

; Function Attrs: nounwind
declare dso_local i8* @_ZNKSt7__cxx1112basic_stringIcSt11char_traitsIcESaIcEE5c_strEv(%"class.std::__cxx11::basic_string"*) #2

declare dso_local void @_ZNSt14basic_ifstreamIcSt11char_traitsIcEEC1EPKcSt13_Ios_Openmode(%"class.std::basic_ifstream"*, i8*, i32) unnamed_addr #1

; Function Attrs: nounwind
declare dso_local i64 @_ZNKSt7__cxx1112basic_stringIcSt11char_traitsIcESaIcEE12find_last_ofEcm(%"class.std::__cxx11::basic_string"*, i8 signext, i64) #2

; Function Attrs: nounwind
declare dso_local i64 @_ZNKSt7__cxx1112basic_stringIcSt11char_traitsIcESaIcEE6lengthEv(%"class.std::__cxx11::basic_string"*) #2

declare dso_local void @_ZNKSt7__cxx1112basic_stringIcSt11char_traitsIcESaIcEE6substrEmm(%"class.std::__cxx11::basic_string"* sret, %"class.std::__cxx11::basic_string"*, i64, i64) #1

; Function Attrs: noinline uwtable
define weak_odr dso_local i32 @_ZN6dealii6GridInILi3ELi3EE12parse_formatERKNSt7__cxx1112basic_stringIcSt11char_traitsIcESaIcEEE(%"class.std::__cxx11::basic_string"* dereferenceable(32) %format_name) #0 comdat align 2 personality i8* bitcast (i32 (...)* @__gxx_personality_v0 to i8*) !dbg !8166 {
entry:
  %retval = alloca i32, align 4
  %format_name.addr = alloca %"class.std::__cxx11::basic_string"*, align 8
  %agg.tmp = alloca %"class.dealii::StandardExceptions::ExcInvalidState", align 8
  %exn.slot = alloca i8*
  %ehselector.slot = alloca i32
  store %"class.std::__cxx11::basic_string"* %format_name, %"class.std::__cxx11::basic_string"** %format_name.addr, align 8
  call void @llvm.dbg.declare(metadata %"class.std::__cxx11::basic_string"** %format_name.addr, metadata !8167, metadata !DIExpression()), !dbg !8168
  %0 = load %"class.std::__cxx11::basic_string"*, %"class.std::__cxx11::basic_string"** %format_name.addr, align 8, !dbg !8169
  %call = call zeroext i1 @_ZSteqIcSt11char_traitsIcESaIcEEbRKNSt7__cxx1112basic_stringIT_T0_T1_EEPKS5_(%"class.std::__cxx11::basic_string"* dereferenceable(32) %0, i8* getelementptr inbounds ([7 x i8], [7 x i8]* @.str.63, i64 0, i64 0)), !dbg !8171
  br i1 %call, label %if.then, label %if.end, !dbg !8172

if.then:                                          ; preds = %entry
  store i32 2, i32* %retval, align 4, !dbg !8173
  br label %return, !dbg !8173

if.end:                                           ; preds = %entry
  %1 = load %"class.std::__cxx11::basic_string"*, %"class.std::__cxx11::basic_string"** %format_name.addr, align 8, !dbg !8174
  %call1 = call zeroext i1 @_ZSteqIcSt11char_traitsIcESaIcEEbRKNSt7__cxx1112basic_stringIT_T0_T1_EEPKS5_(%"class.std::__cxx11::basic_string"* dereferenceable(32) %1, i8* getelementptr inbounds ([4 x i8], [4 x i8]* @.str.64, i64 0, i64 0)), !dbg !8176
  br i1 %call1, label %if.then2, label %if.end3, !dbg !8177

if.then2:                                         ; preds = %if.end
  store i32 4, i32* %retval, align 4, !dbg !8178
  br label %return, !dbg !8178

if.end3:                                          ; preds = %if.end
  %2 = load %"class.std::__cxx11::basic_string"*, %"class.std::__cxx11::basic_string"** %format_name.addr, align 8, !dbg !8179
  %call4 = call zeroext i1 @_ZSteqIcSt11char_traitsIcESaIcEEbRKNSt7__cxx1112basic_stringIT_T0_T1_EEPKS5_(%"class.std::__cxx11::basic_string"* dereferenceable(32) %2, i8* getelementptr inbounds ([4 x i8], [4 x i8]* @.str.65, i64 0, i64 0)), !dbg !8181
  br i1 %call4, label %if.then5, label %if.end6, !dbg !8182

if.then5:                                         ; preds = %if.end3
  store i32 1, i32* %retval, align 4, !dbg !8183
  br label %return, !dbg !8183

if.end6:                                          ; preds = %if.end3
  %3 = load %"class.std::__cxx11::basic_string"*, %"class.std::__cxx11::basic_string"** %format_name.addr, align 8, !dbg !8184
  %call7 = call zeroext i1 @_ZSteqIcSt11char_traitsIcESaIcEEbRKNSt7__cxx1112basic_stringIT_T0_T1_EEPKS5_(%"class.std::__cxx11::basic_string"* dereferenceable(32) %3, i8* getelementptr inbounds ([4 x i8], [4 x i8]* @.str.66, i64 0, i64 0)), !dbg !8186
  br i1 %call7, label %if.then8, label %if.end9, !dbg !8187

if.then8:                                         ; preds = %if.end6
  store i32 1, i32* %retval, align 4, !dbg !8188
  br label %return, !dbg !8188

if.end9:                                          ; preds = %if.end6
  %4 = load %"class.std::__cxx11::basic_string"*, %"class.std::__cxx11::basic_string"** %format_name.addr, align 8, !dbg !8189
  %call10 = call zeroext i1 @_ZSteqIcSt11char_traitsIcESaIcEEbRKNSt7__cxx1112basic_stringIT_T0_T1_EEPKS5_(%"class.std::__cxx11::basic_string"* dereferenceable(32) %4, i8* getelementptr inbounds ([4 x i8], [4 x i8]* @.str.67, i64 0, i64 0)), !dbg !8191
  br i1 %call10, label %if.then11, label %if.end12, !dbg !8192

if.then11:                                        ; preds = %if.end9
  store i32 3, i32* %retval, align 4, !dbg !8193
  br label %return, !dbg !8193

if.end12:                                         ; preds = %if.end9
  %5 = load %"class.std::__cxx11::basic_string"*, %"class.std::__cxx11::basic_string"** %format_name.addr, align 8, !dbg !8194
  %call13 = call zeroext i1 @_ZSteqIcSt11char_traitsIcESaIcEEbRKNSt7__cxx1112basic_stringIT_T0_T1_EEPKS5_(%"class.std::__cxx11::basic_string"* dereferenceable(32) %5, i8* getelementptr inbounds ([7 x i8], [7 x i8]* @.str.68, i64 0, i64 0)), !dbg !8196
  br i1 %call13, label %if.then14, label %if.end15, !dbg !8197

if.then14:                                        ; preds = %if.end12
  store i32 5, i32* %retval, align 4, !dbg !8198
  br label %return, !dbg !8198

if.end15:                                         ; preds = %if.end12
  %6 = load %"class.std::__cxx11::basic_string"*, %"class.std::__cxx11::basic_string"** %format_name.addr, align 8, !dbg !8199
  %call16 = call zeroext i1 @_ZSteqIcSt11char_traitsIcESaIcEEbRKNSt7__cxx1112basic_stringIT_T0_T1_EEPKS5_(%"class.std::__cxx11::basic_string"* dereferenceable(32) %6, i8* getelementptr inbounds ([3 x i8], [3 x i8]* @.str.69, i64 0, i64 0)), !dbg !8201
  br i1 %call16, label %if.then17, label %if.end18, !dbg !8202

if.then17:                                        ; preds = %if.end15
  store i32 5, i32* %retval, align 4, !dbg !8203
  br label %return, !dbg !8203

if.end18:                                         ; preds = %if.end15
  %7 = load %"class.std::__cxx11::basic_string"*, %"class.std::__cxx11::basic_string"** %format_name.addr, align 8, !dbg !8204
  %call19 = call zeroext i1 @_ZSteqIcSt11char_traitsIcESaIcEEbRKNSt7__cxx1112basic_stringIT_T0_T1_EEPKS5_(%"class.std::__cxx11::basic_string"* dereferenceable(32) %7, i8* getelementptr inbounds ([8 x i8], [8 x i8]* @.str.70, i64 0, i64 0)), !dbg !8206
  br i1 %call19, label %if.then20, label %if.end21, !dbg !8207

if.then20:                                        ; preds = %if.end18
  store i32 6, i32* %retval, align 4, !dbg !8208
  br label %return, !dbg !8208

if.end21:                                         ; preds = %if.end18
  %8 = load %"class.std::__cxx11::basic_string"*, %"class.std::__cxx11::basic_string"** %format_name.addr, align 8, !dbg !8209
  %call22 = call zeroext i1 @_ZSteqIcSt11char_traitsIcESaIcEEbRKNSt7__cxx1112basic_stringIT_T0_T1_EEPKS5_(%"class.std::__cxx11::basic_string"* dereferenceable(32) %8, i8* getelementptr inbounds ([4 x i8], [4 x i8]* @.str.71, i64 0, i64 0)), !dbg !8211
  br i1 %call22, label %if.then23, label %if.end24, !dbg !8212

if.then23:                                        ; preds = %if.end21
  store i32 6, i32* %retval, align 4, !dbg !8213
  br label %return, !dbg !8213

if.end24:                                         ; preds = %if.end21
  %9 = load %"class.std::__cxx11::basic_string"*, %"class.std::__cxx11::basic_string"** %format_name.addr, align 8, !dbg !8214
  %call25 = call zeroext i1 @_ZSteqIcSt11char_traitsIcESaIcEEbRKNSt7__cxx1112basic_stringIT_T0_T1_EEPKS5_(%"class.std::__cxx11::basic_string"* dereferenceable(32) %9, i8* getelementptr inbounds ([4 x i8], [4 x i8]* @.str.72, i64 0, i64 0)), !dbg !8216
  br i1 %call25, label %if.then26, label %if.end27, !dbg !8217

if.then26:                                        ; preds = %if.end24
  store i32 6, i32* %retval, align 4, !dbg !8218
  br label %return, !dbg !8218

if.end27:                                         ; preds = %if.end24
  %10 = bitcast %"class.dealii::StandardExceptions::ExcInvalidState"* %agg.tmp to i8*, !dbg !8219
  call void @llvm.memset.p0i8.i64(i8* align 8 %10, i8 0, i64 64, i1 false), !dbg !8219
  call void @_ZN6dealii18StandardExceptions15ExcInvalidStateC2Ev(%"class.dealii::StandardExceptions::ExcInvalidState"* %agg.tmp), !dbg !8219
  invoke void @_ZN6dealii18deal_II_exceptions9internals17issue_error_throwINS_18StandardExceptions15ExcInvalidStateEEEvPKciS6_S6_S6_T_(i8* getelementptr inbounds ([23 x i8], [23 x i8]* @.str.2, i64 0, i64 0), i32 2152, i8* getelementptr inbounds ([1 x i8], [1 x i8]* @.str.3, i64 0, i64 0), i8* getelementptr inbounds ([6 x i8], [6 x i8]* @.str.9, i64 0, i64 0), i8* getelementptr inbounds ([19 x i8], [19 x i8]* @.str.73, i64 0, i64 0), %"class.dealii::StandardExceptions::ExcInvalidState"* %agg.tmp)
          to label %invoke.cont unwind label %lpad, !dbg !8219

invoke.cont:                                      ; preds = %if.end27
  call void @_ZN6dealii18StandardExceptions15ExcInvalidStateD2Ev(%"class.dealii::StandardExceptions::ExcInvalidState"* %agg.tmp) #3, !dbg !8219
  store i32 0, i32* %retval, align 4, !dbg !8222
  br label %return, !dbg !8222

lpad:                                             ; preds = %if.end27
  %11 = landingpad { i8*, i32 }
          cleanup, !dbg !8223
  %12 = extractvalue { i8*, i32 } %11, 0, !dbg !8223
  store i8* %12, i8** %exn.slot, align 8, !dbg !8223
  %13 = extractvalue { i8*, i32 } %11, 1, !dbg !8223
  store i32 %13, i32* %ehselector.slot, align 4, !dbg !8223
  call void @_ZN6dealii18StandardExceptions15ExcInvalidStateD2Ev(%"class.dealii::StandardExceptions::ExcInvalidState"* %agg.tmp) #3, !dbg !8219
  br label %eh.resume, !dbg !8219

return:                                           ; preds = %invoke.cont, %if.then26, %if.then23, %if.then20, %if.then17, %if.then14, %if.then11, %if.then8, %if.then5, %if.then2, %if.then
  %14 = load i32, i32* %retval, align 4, !dbg !8224
  ret i32 %14, !dbg !8224

eh.resume:                                        ; preds = %lpad
  %exn = load i8*, i8** %exn.slot, align 8, !dbg !8219
  %sel = load i32, i32* %ehselector.slot, align 4, !dbg !8219
  %lpad.val = insertvalue { i8*, i32 } undef, i8* %exn, 0, !dbg !8219
  %lpad.val28 = insertvalue { i8*, i32 } %lpad.val, i32 %sel, 1, !dbg !8219
  resume { i8*, i32 } %lpad.val28, !dbg !8219
}

; Function Attrs: noinline uwtable
define dso_local void @_ZN6dealii6GridInILi3ELi3EE11read_netcdfERKNSt7__cxx1112basic_stringIcSt11char_traitsIcESaIcEEE(%"class.dealii::GridIn"* %this, %"class.std::__cxx11::basic_string"* dereferenceable(32) %filename) #0 align 2 personality i8* bitcast (i32 (...)* @__gxx_personality_v0 to i8*) !dbg !8225 {
entry:
  %this.addr = alloca %"class.dealii::GridIn"*, align 8
  %filename.addr = alloca %"class.std::__cxx11::basic_string"*, align 8
  %agg.tmp = alloca %"class.dealii::StandardExceptions::ExcNeedsNetCDF", align 8
  %exn.slot = alloca i8*
  %ehselector.slot = alloca i32
  store %"class.dealii::GridIn"* %this, %"class.dealii::GridIn"** %this.addr, align 8
  call void @llvm.dbg.declare(metadata %"class.dealii::GridIn"** %this.addr, metadata !8226, metadata !DIExpression()), !dbg !8227
  store %"class.std::__cxx11::basic_string"* %filename, %"class.std::__cxx11::basic_string"** %filename.addr, align 8
  call void @llvm.dbg.declare(metadata %"class.std::__cxx11::basic_string"** %filename.addr, metadata !8228, metadata !DIExpression()), !dbg !8229
  %this1 = load %"class.dealii::GridIn"*, %"class.dealii::GridIn"** %this.addr, align 8
  %0 = load %"class.std::__cxx11::basic_string"*, %"class.std::__cxx11::basic_string"** %filename.addr, align 8, !dbg !8230
  %1 = bitcast %"class.dealii::StandardExceptions::ExcNeedsNetCDF"* %agg.tmp to i8*, !dbg !8231
  call void @llvm.memset.p0i8.i64(i8* align 8 %1, i8 0, i64 64, i1 false), !dbg !8231
  call void @_ZN6dealii18StandardExceptions14ExcNeedsNetCDFC2Ev(%"class.dealii::StandardExceptions::ExcNeedsNetCDF"* %agg.tmp), !dbg !8231
  invoke void @_ZN6dealii18deal_II_exceptions9internals17issue_error_throwINS_18StandardExceptions14ExcNeedsNetCDFEEEvPKciS6_S6_S6_T_(i8* getelementptr inbounds ([23 x i8], [23 x i8]* @.str.2, i64 0, i64 0), i32 1158, i8* getelementptr inbounds ([1 x i8], [1 x i8]* @.str.3, i64 0, i64 0), i8* getelementptr inbounds ([6 x i8], [6 x i8]* @.str.9, i64 0, i64 0), i8* getelementptr inbounds ([17 x i8], [17 x i8]* @.str.138, i64 0, i64 0), %"class.dealii::StandardExceptions::ExcNeedsNetCDF"* %agg.tmp)
          to label %invoke.cont unwind label %lpad, !dbg !8231

invoke.cont:                                      ; preds = %entry
  call void @_ZN6dealii18StandardExceptions14ExcNeedsNetCDFD2Ev(%"class.dealii::StandardExceptions::ExcNeedsNetCDF"* %agg.tmp) #3, !dbg !8231
  ret void, !dbg !8234

lpad:                                             ; preds = %entry
  %2 = landingpad { i8*, i32 }
          cleanup, !dbg !8235
  %3 = extractvalue { i8*, i32 } %2, 0, !dbg !8235
  store i8* %3, i8** %exn.slot, align 8, !dbg !8235
  %4 = extractvalue { i8*, i32 } %2, 1, !dbg !8235
  store i32 %4, i32* %ehselector.slot, align 4, !dbg !8235
  call void @_ZN6dealii18StandardExceptions14ExcNeedsNetCDFD2Ev(%"class.dealii::StandardExceptions::ExcNeedsNetCDF"* %agg.tmp) #3, !dbg !8231
  br label %eh.resume, !dbg !8231

eh.resume:                                        ; preds = %lpad
  %exn = load i8*, i8** %exn.slot, align 8, !dbg !8231
  %sel = load i32, i32* %ehselector.slot, align 4, !dbg !8231
  %lpad.val = insertvalue { i8*, i32 } undef, i8* %exn, 0, !dbg !8231
  %lpad.val2 = insertvalue { i8*, i32 } %lpad.val, i32 %sel, 1, !dbg !8231
  resume { i8*, i32 } %lpad.val2, !dbg !8231
}

; Function Attrs: nounwind
declare dso_local void @_ZNSt14basic_ifstreamIcSt11char_traitsIcEED1Ev(%"class.std::basic_ifstream"*) unnamed_addr #2

; Function Attrs: noinline nounwind uwtable
define linkonce_odr dso_local void @_ZN6dealii10PathSearchD2Ev(%"class.dealii::PathSearch"* %this) unnamed_addr #5 comdat align 2 !dbg !8236 {
entry:
  %this.addr = alloca %"class.dealii::PathSearch"*, align 8
  store %"class.dealii::PathSearch"* %this, %"class.dealii::PathSearch"** %this.addr, align 8
  call void @llvm.dbg.declare(metadata %"class.dealii::PathSearch"** %this.addr, metadata !8240, metadata !DIExpression()), !dbg !8242
  %this1 = load %"class.dealii::PathSearch"*, %"class.dealii::PathSearch"** %this.addr, align 8
  %cls = getelementptr inbounds %"class.dealii::PathSearch", %"class.dealii::PathSearch"* %this1, i32 0, i32 0, !dbg !8243
  call void @_ZNSt7__cxx1112basic_stringIcSt11char_traitsIcESaIcEED1Ev(%"class.std::__cxx11::basic_string"* %cls) #3, !dbg !8243
  ret void, !dbg !8245
}

declare dso_local zeroext i1 @_ZNKSt9basic_iosIcSt11char_traitsIcEEntEv(%"class.std::basic_ios"*) #1

; Function Attrs: noinline uwtable
define linkonce_odr dso_local void @_ZN6dealii18deal_II_exceptions9internals17issue_error_throwINS_18StandardExceptions5ExcIOEEEvPKciS6_S6_S6_T_(i8* %file, i32 %line, i8* %function, i8* %cond, i8* %exc_name, %"class.dealii::StandardExceptions::ExcIO"* %e) #0 comdat personality i8* bitcast (i32 (...)* @__gxx_personality_v0 to i8*) !dbg !8246 {
entry:
  %file.addr = alloca i8*, align 8
  %line.addr = alloca i32, align 4
  %function.addr = alloca i8*, align 8
  %cond.addr = alloca i8*, align 8
  %exc_name.addr = alloca i8*, align 8
  %exn.slot = alloca i8*
  %ehselector.slot = alloca i32
  store i8* %file, i8** %file.addr, align 8
  call void @llvm.dbg.declare(metadata i8** %file.addr, metadata !8256, metadata !DIExpression()), !dbg !8257
  store i32 %line, i32* %line.addr, align 4
  call void @llvm.dbg.declare(metadata i32* %line.addr, metadata !8258, metadata !DIExpression()), !dbg !8259
  store i8* %function, i8** %function.addr, align 8
  call void @llvm.dbg.declare(metadata i8** %function.addr, metadata !8260, metadata !DIExpression()), !dbg !8261
  store i8* %cond, i8** %cond.addr, align 8
  call void @llvm.dbg.declare(metadata i8** %cond.addr, metadata !8262, metadata !DIExpression()), !dbg !8263
  store i8* %exc_name, i8** %exc_name.addr, align 8
  call void @llvm.dbg.declare(metadata i8** %exc_name.addr, metadata !8264, metadata !DIExpression()), !dbg !8265
  call void @llvm.dbg.declare(metadata %"class.dealii::StandardExceptions::ExcIO"* %e, metadata !8266, metadata !DIExpression()), !dbg !8267
  %0 = bitcast %"class.dealii::StandardExceptions::ExcIO"* %e to %"class.dealii::ExceptionBase"*, !dbg !8268
  %1 = load i8*, i8** %file.addr, align 8, !dbg !8269
  %2 = load i32, i32* %line.addr, align 4, !dbg !8270
  %3 = load i8*, i8** %function.addr, align 8, !dbg !8271
  %4 = load i8*, i8** %cond.addr, align 8, !dbg !8272
  %5 = load i8*, i8** %exc_name.addr, align 8, !dbg !8273
  call void @_ZN6dealii13ExceptionBase10set_fieldsEPKciS2_S2_S2_(%"class.dealii::ExceptionBase"* %0, i8* %1, i32 %2, i8* %3, i8* %4, i8* %5), !dbg !8274
  %exception = call i8* @__cxa_allocate_exception(i64 64) #3, !dbg !8275
  %6 = bitcast i8* %exception to %"class.dealii::StandardExceptions::ExcIO"*, !dbg !8275
  invoke void @_ZN6dealii18StandardExceptions5ExcIOC2EOS1_(%"class.dealii::StandardExceptions::ExcIO"* %6, %"class.dealii::StandardExceptions::ExcIO"* dereferenceable(64) %e)
          to label %invoke.cont unwind label %lpad, !dbg !8276

invoke.cont:                                      ; preds = %entry
  call void @__cxa_throw(i8* %exception, i8* bitcast ({ i8*, i8*, i8* }* @_ZTIN6dealii18StandardExceptions5ExcIOE to i8*), i8* bitcast (void (%"class.dealii::StandardExceptions::ExcIO"*)* @_ZN6dealii18StandardExceptions5ExcIOD2Ev to i8*)) #13, !dbg !8275
  unreachable, !dbg !8275

lpad:                                             ; preds = %entry
  %7 = landingpad { i8*, i32 }
          cleanup, !dbg !8277
  %8 = extractvalue { i8*, i32 } %7, 0, !dbg !8277
  store i8* %8, i8** %exn.slot, align 8, !dbg !8277
  %9 = extractvalue { i8*, i32 } %7, 1, !dbg !8277
  store i32 %9, i32* %ehselector.slot, align 4, !dbg !8277
  call void @__cxa_free_exception(i8* %exception) #3, !dbg !8275
  br label %eh.resume, !dbg !8275

eh.resume:                                        ; preds = %lpad
  %exn = load i8*, i8** %exn.slot, align 8, !dbg !8275
  %sel = load i32, i32* %ehselector.slot, align 4, !dbg !8275
  %lpad.val = insertvalue { i8*, i32 } undef, i8* %exn, 0, !dbg !8275
  %lpad.val1 = insertvalue { i8*, i32 } %lpad.val, i32 %sel, 1, !dbg !8275
  resume { i8*, i32 } %lpad.val1, !dbg !8275
}

; Function Attrs: argmemonly nounwind willreturn
declare void @llvm.memset.p0i8.i64(i8* nocapture writeonly, i8, i64, i1 immarg) #6

; Function Attrs: noinline uwtable
define linkonce_odr dso_local void @_ZN6dealii18StandardExceptions5ExcIOC2Ev(%"class.dealii::StandardExceptions::ExcIO"* %this) unnamed_addr #0 comdat align 2 !dbg !8278 {
entry:
  %this.addr = alloca %"class.dealii::StandardExceptions::ExcIO"*, align 8
  store %"class.dealii::StandardExceptions::ExcIO"* %this, %"class.dealii::StandardExceptions::ExcIO"** %this.addr, align 8
  call void @llvm.dbg.declare(metadata %"class.dealii::StandardExceptions::ExcIO"** %this.addr, metadata !8283, metadata !DIExpression()), !dbg !8285
  %this1 = load %"class.dealii::StandardExceptions::ExcIO"*, %"class.dealii::StandardExceptions::ExcIO"** %this.addr, align 8
  %0 = bitcast %"class.dealii::StandardExceptions::ExcIO"* %this1 to %"class.dealii::ExceptionBase"*, !dbg !8286
  call void @_ZN6dealii13ExceptionBaseC2Ev(%"class.dealii::ExceptionBase"* %0), !dbg !8286
  %1 = bitcast %"class.dealii::StandardExceptions::ExcIO"* %this1 to i32 (...)***, !dbg !8286
  store i32 (...)** bitcast (i8** getelementptr inbounds ({ [6 x i8*] }, { [6 x i8*] }* @_ZTVN6dealii18StandardExceptions5ExcIOE, i32 0, inrange i32 0, i32 2) to i32 (...)**), i32 (...)*** %1, align 8, !dbg !8286
  ret void, !dbg !8286
}

; Function Attrs: noinline nounwind uwtable
define linkonce_odr dso_local void @_ZN6dealii18StandardExceptions5ExcIOD2Ev(%"class.dealii::StandardExceptions::ExcIO"* %this) unnamed_addr #5 comdat align 2 !dbg !8287 {
entry:
  %this.addr = alloca %"class.dealii::StandardExceptions::ExcIO"*, align 8
  store %"class.dealii::StandardExceptions::ExcIO"* %this, %"class.dealii::StandardExceptions::ExcIO"** %this.addr, align 8
  call void @llvm.dbg.declare(metadata %"class.dealii::StandardExceptions::ExcIO"** %this.addr, metadata !8289, metadata !DIExpression()), !dbg !8290
  %this1 = load %"class.dealii::StandardExceptions::ExcIO"*, %"class.dealii::StandardExceptions::ExcIO"** %this.addr, align 8
  %0 = bitcast %"class.dealii::StandardExceptions::ExcIO"* %this1 to %"class.dealii::ExceptionBase"*, !dbg !8291
  call void @_ZN6dealii13ExceptionBaseD2Ev(%"class.dealii::ExceptionBase"* %0) #3, !dbg !8291
  ret void, !dbg !8293
}

; Function Attrs: noinline uwtable
define weak_odr dso_local void @_ZN6dealii6GridInILi3ELi3EE18skip_comment_linesERSic(%"class.std::basic_istream"* dereferenceable(280) %in, i8 signext %comment_start) #0 comdat align 2 !dbg !8294 {
entry:
  %in.addr = alloca %"class.std::basic_istream"*, align 8
  %comment_start.addr = alloca i8, align 1
  %c = alloca i8, align 1
  store %"class.std::basic_istream"* %in, %"class.std::basic_istream"** %in.addr, align 8
  call void @llvm.dbg.declare(metadata %"class.std::basic_istream"** %in.addr, metadata !8295, metadata !DIExpression()), !dbg !8296
  store i8 %comment_start, i8* %comment_start.addr, align 1
  call void @llvm.dbg.declare(metadata i8* %comment_start.addr, metadata !8297, metadata !DIExpression()), !dbg !8298
  call void @llvm.dbg.declare(metadata i8* %c, metadata !8299, metadata !DIExpression()), !dbg !8300
  br label %while.cond, !dbg !8301

while.cond:                                       ; preds = %while.end, %entry
  %0 = load %"class.std::basic_istream"*, %"class.std::basic_istream"** %in.addr, align 8, !dbg !8302
  %call = call i32 @_ZNSi3getEv(%"class.std::basic_istream"* %0), !dbg !8303
  %conv = trunc i32 %call to i8, !dbg !8302
  store i8 %conv, i8* %c, align 1, !dbg !8304
  %conv1 = sext i8 %conv to i32, !dbg !8305
  %1 = load i8, i8* %comment_start.addr, align 1, !dbg !8306
  %conv2 = sext i8 %1 to i32, !dbg !8306
  %cmp = icmp eq i32 %conv1, %conv2, !dbg !8307
  br i1 %cmp, label %while.body, label %while.end7, !dbg !8301

while.body:                                       ; preds = %while.cond
  br label %while.cond3, !dbg !8308

while.cond3:                                      ; preds = %while.body6, %while.body
  %2 = load %"class.std::basic_istream"*, %"class.std::basic_istream"** %in.addr, align 8, !dbg !8309
  %call4 = call i32 @_ZNSi3getEv(%"class.std::basic_istream"* %2), !dbg !8310
  %cmp5 = icmp ne i32 %call4, 10, !dbg !8311
  br i1 %cmp5, label %while.body6, label %while.end, !dbg !8308

while.body6:                                      ; preds = %while.cond3
  br label %while.cond3, !dbg !8308, !llvm.loop !8312

while.end:                                        ; preds = %while.cond3
  br label %while.cond, !dbg !8301, !llvm.loop !8314

while.end7:                                       ; preds = %while.cond
  %3 = load %"class.std::basic_istream"*, %"class.std::basic_istream"** %in.addr, align 8, !dbg !8315
  %4 = load i8, i8* %c, align 1, !dbg !8316
  %call8 = call dereferenceable(280) %"class.std::basic_istream"* @_ZNSi7putbackEc(%"class.std::basic_istream"* %3, i8 signext %4), !dbg !8317
  %5 = load %"class.std::basic_istream"*, %"class.std::basic_istream"** %in.addr, align 8, !dbg !8318
  call void @_ZN6dealii6GridInILi3ELi3EE16skip_empty_linesERSi(%"class.std::basic_istream"* dereferenceable(280) %5), !dbg !8319
  ret void, !dbg !8320
}

declare dso_local dereferenceable(280) %"class.std::basic_istream"* @_ZNSirsERj(%"class.std::basic_istream"*, i32* dereferenceable(4)) #1

declare dso_local dereferenceable(280) %"class.std::basic_istream"* @_ZNSirsERi(%"class.std::basic_istream"*, i32* dereferenceable(4)) #1

; Function Attrs: noinline nounwind uwtable
define linkonce_odr dso_local void @_ZNSaIN6dealii5PointILi3EEEEC2Ev(%"class.std::allocator.84"* %this) unnamed_addr #5 comdat align 2 !dbg !8321 {
entry:
  %this.addr = alloca %"class.std::allocator.84"*, align 8
  store %"class.std::allocator.84"* %this, %"class.std::allocator.84"** %this.addr, align 8
  call void @llvm.dbg.declare(metadata %"class.std::allocator.84"** %this.addr, metadata !8322, metadata !DIExpression()), !dbg !8324
  %this1 = load %"class.std::allocator.84"*, %"class.std::allocator.84"** %this.addr, align 8
  %0 = bitcast %"class.std::allocator.84"* %this1 to %"class.__gnu_cxx::new_allocator.85"*, !dbg !8325
  call void @_ZN9__gnu_cxx13new_allocatorIN6dealii5PointILi3EEEEC2Ev(%"class.__gnu_cxx::new_allocator.85"* %0) #3, !dbg !8326
  ret void, !dbg !8327
}

; Function Attrs: noinline uwtable
define linkonce_odr dso_local void @_ZNSt6vectorIN6dealii5PointILi3EEESaIS2_EEC2EmRKS3_(%"class.std::vector.82"* %this, i64 %__n, %"class.std::allocator.84"* dereferenceable(1) %__a) unnamed_addr #0 comdat align 2 personality i8* bitcast (i32 (...)* @__gxx_personality_v0 to i8*) !dbg !8328 {
entry:
  %this.addr = alloca %"class.std::vector.82"*, align 8
  %__n.addr = alloca i64, align 8
  %__a.addr = alloca %"class.std::allocator.84"*, align 8
  %exn.slot = alloca i8*
  %ehselector.slot = alloca i32
  store %"class.std::vector.82"* %this, %"class.std::vector.82"** %this.addr, align 8
  call void @llvm.dbg.declare(metadata %"class.std::vector.82"** %this.addr, metadata !8329, metadata !DIExpression()), !dbg !8331
  store i64 %__n, i64* %__n.addr, align 8
  call void @llvm.dbg.declare(metadata i64* %__n.addr, metadata !8332, metadata !DIExpression()), !dbg !8333
  store %"class.std::allocator.84"* %__a, %"class.std::allocator.84"** %__a.addr, align 8
  call void @llvm.dbg.declare(metadata %"class.std::allocator.84"** %__a.addr, metadata !8334, metadata !DIExpression()), !dbg !8335
  %this1 = load %"class.std::vector.82"*, %"class.std::vector.82"** %this.addr, align 8
  %0 = bitcast %"class.std::vector.82"* %this1 to %"struct.std::_Vector_base.83"*, !dbg !8336
  %1 = load i64, i64* %__n.addr, align 8, !dbg !8337
  %2 = load %"class.std::allocator.84"*, %"class.std::allocator.84"** %__a.addr, align 8, !dbg !8338
  %call = call i64 @_ZNSt6vectorIN6dealii5PointILi3EEESaIS2_EE17_S_check_init_lenEmRKS3_(i64 %1, %"class.std::allocator.84"* dereferenceable(1) %2), !dbg !8339
  %3 = load %"class.std::allocator.84"*, %"class.std::allocator.84"** %__a.addr, align 8, !dbg !8340
  call void @_ZNSt12_Vector_baseIN6dealii5PointILi3EEESaIS2_EEC2EmRKS3_(%"struct.std::_Vector_base.83"* %0, i64 %call, %"class.std::allocator.84"* dereferenceable(1) %3), !dbg !8341
  %4 = load i64, i64* %__n.addr, align 8, !dbg !8342
  invoke void @_ZNSt6vectorIN6dealii5PointILi3EEESaIS2_EE21_M_default_initializeEm(%"class.std::vector.82"* %this1, i64 %4)
          to label %invoke.cont unwind label %lpad, !dbg !8344

invoke.cont:                                      ; preds = %entry
  ret void, !dbg !8345

lpad:                                             ; preds = %entry
  %5 = landingpad { i8*, i32 }
          cleanup, !dbg !8346
  %6 = extractvalue { i8*, i32 } %5, 0, !dbg !8346
  store i8* %6, i8** %exn.slot, align 8, !dbg !8346
  %7 = extractvalue { i8*, i32 } %5, 1, !dbg !8346
  store i32 %7, i32* %ehselector.slot, align 4, !dbg !8346
  %8 = bitcast %"class.std::vector.82"* %this1 to %"struct.std::_Vector_base.83"*, !dbg !8346
  call void @_ZNSt12_Vector_baseIN6dealii5PointILi3EEESaIS2_EED2Ev(%"struct.std::_Vector_base.83"* %8) #3, !dbg !8346
  br label %eh.resume, !dbg !8346

eh.resume:                                        ; preds = %lpad
  %exn = load i8*, i8** %exn.slot, align 8, !dbg !8346
  %sel = load i32, i32* %ehselector.slot, align 4, !dbg !8346
  %lpad.val = insertvalue { i8*, i32 } undef, i8* %exn, 0, !dbg !8346
  %lpad.val2 = insertvalue { i8*, i32 } %lpad.val, i32 %sel, 1, !dbg !8346
  resume { i8*, i32 } %lpad.val2, !dbg !8346
}

; Function Attrs: noinline nounwind uwtable
define linkonce_odr dso_local void @_ZNSaIN6dealii5PointILi3EEEED2Ev(%"class.std::allocator.84"* %this) unnamed_addr #5 comdat align 2 !dbg !8347 {
entry:
  %this.addr = alloca %"class.std::allocator.84"*, align 8
  store %"class.std::allocator.84"* %this, %"class.std::allocator.84"** %this.addr, align 8
  call void @llvm.dbg.declare(metadata %"class.std::allocator.84"** %this.addr, metadata !8348, metadata !DIExpression()), !dbg !8349
  %this1 = load %"class.std::allocator.84"*, %"class.std::allocator.84"** %this.addr, align 8
  %0 = bitcast %"class.std::allocator.84"* %this1 to %"class.__gnu_cxx::new_allocator.85"*, !dbg !8350
  call void @_ZN9__gnu_cxx13new_allocatorIN6dealii5PointILi3EEEED2Ev(%"class.__gnu_cxx::new_allocator.85"* %0) #3, !dbg !8350
  ret void, !dbg !8352
}

; Function Attrs: noinline nounwind uwtable
define linkonce_odr dso_local void @_ZNSt3mapIiiSt4lessIiESaISt4pairIKiiEEEC2Ev(%"class.std::map.102"* %this) unnamed_addr #5 comdat align 2 !dbg !8353 {
entry:
  %this.addr = alloca %"class.std::map.102"*, align 8
  store %"class.std::map.102"* %this, %"class.std::map.102"** %this.addr, align 8
  call void @llvm.dbg.declare(metadata %"class.std::map.102"** %this.addr, metadata !8354, metadata !DIExpression()), !dbg !8356
  %this1 = load %"class.std::map.102"*, %"class.std::map.102"** %this.addr, align 8
  %_M_t = getelementptr inbounds %"class.std::map.102", %"class.std::map.102"* %this1, i32 0, i32 0, !dbg !8357
  call void @_ZNSt8_Rb_treeIiSt4pairIKiiESt10_Select1stIS2_ESt4lessIiESaIS2_EEC2Ev(%"class.std::_Rb_tree.103"* %_M_t) #3, !dbg !8357
  ret void, !dbg !8358
}

declare dso_local dereferenceable(280) %"class.std::basic_istream"* @_ZNSirsERd(%"class.std::basic_istream"*, double* dereferenceable(8)) #1

; Function Attrs: noinline nounwind uwtable
define linkonce_odr dso_local dereferenceable(24) %"class.dealii::Point"* @_ZNSt6vectorIN6dealii5PointILi3EEESaIS2_EEixEm(%"class.std::vector.82"* %this, i64 %__n) #5 comdat align 2 !dbg !8359 {
entry:
  %this.addr = alloca %"class.std::vector.82"*, align 8
  %__n.addr = alloca i64, align 8
  store %"class.std::vector.82"* %this, %"class.std::vector.82"** %this.addr, align 8
  call void @llvm.dbg.declare(metadata %"class.std::vector.82"** %this.addr, metadata !8360, metadata !DIExpression()), !dbg !8361
  store i64 %__n, i64* %__n.addr, align 8
  call void @llvm.dbg.declare(metadata i64* %__n.addr, metadata !8362, metadata !DIExpression()), !dbg !8363
  %this1 = load %"class.std::vector.82"*, %"class.std::vector.82"** %this.addr, align 8
  %0 = bitcast %"class.std::vector.82"* %this1 to %"struct.std::_Vector_base.83"*, !dbg !8364
  %_M_impl = getelementptr inbounds %"struct.std::_Vector_base.83", %"struct.std::_Vector_base.83"* %0, i32 0, i32 0, !dbg !8364
  %1 = bitcast %"struct.std::_Vector_base<dealii::Point<3>, std::allocator<dealii::Point<3> > >::_Vector_impl"* %_M_impl to %"struct.std::_Vector_base<dealii::Point<3>, std::allocator<dealii::Point<3> > >::_Vector_impl_data"*, !dbg !8365
  %_M_start = getelementptr inbounds %"struct.std::_Vector_base<dealii::Point<3>, std::allocator<dealii::Point<3> > >::_Vector_impl_data", %"struct.std::_Vector_base<dealii::Point<3>, std::allocator<dealii::Point<3> > >::_Vector_impl_data"* %1, i32 0, i32 0, !dbg !8366
  %2 = load %"class.dealii::Point"*, %"class.dealii::Point"** %_M_start, align 8, !dbg !8366
  %3 = load i64, i64* %__n.addr, align 8, !dbg !8367
  %add.ptr = getelementptr inbounds %"class.dealii::Point", %"class.dealii::Point"* %2, i64 %3, !dbg !8368
  ret %"class.dealii::Point"* %add.ptr, !dbg !8369
}

; Function Attrs: noinline nounwind uwtable
define linkonce_odr dso_local dereferenceable(8) double* @_ZN6dealii5PointILi3EEclEj(%"class.dealii::Point"* %this, i32 %index) #5 comdat align 2 !dbg !8370 {
entry:
  %this.addr = alloca %"class.dealii::Point"*, align 8
  %index.addr = alloca i32, align 4
  store %"class.dealii::Point"* %this, %"class.dealii::Point"** %this.addr, align 8
  call void @llvm.dbg.declare(metadata %"class.dealii::Point"** %this.addr, metadata !8371, metadata !DIExpression()), !dbg !8372
  store i32 %index, i32* %index.addr, align 4
  call void @llvm.dbg.declare(metadata i32* %index.addr, metadata !8373, metadata !DIExpression()), !dbg !8374
  %this1 = load %"class.dealii::Point"*, %"class.dealii::Point"** %this.addr, align 8
  %0 = bitcast %"class.dealii::Point"* %this1 to %"class.dealii::Tensor"*, !dbg !8375
  %values = getelementptr inbounds %"class.dealii::Tensor", %"class.dealii::Tensor"* %0, i32 0, i32 0, !dbg !8375
  %1 = load i32, i32* %index.addr, align 4, !dbg !8376
  %idxprom = zext i32 %1 to i64, !dbg !8377
  %arrayidx = getelementptr inbounds [3 x double], [3 x double]* %values, i64 0, i64 %idxprom, !dbg !8377
  ret double* %arrayidx, !dbg !8378
}

; Function Attrs: noinline uwtable
define linkonce_odr dso_local dereferenceable(4) i32* @_ZNSt3mapIiiSt4lessIiESaISt4pairIKiiEEEixERS3_(%"class.std::map.102"* %this, i32* dereferenceable(4) %__k) #0 comdat align 2 !dbg !8379 {
entry:
  %this.addr = alloca %"class.std::map.102"*, align 8
  %__k.addr = alloca i32*, align 8
  %__i = alloca %"struct.std::_Rb_tree_iterator", align 8
  %ref.tmp = alloca %"struct.std::_Rb_tree_iterator", align 8
  %ref.tmp5 = alloca %"struct.std::less.108", align 1
  %undef.agg.tmp = alloca %"struct.std::less.108", align 1
  %ref.tmp8 = alloca %"struct.std::_Rb_tree_iterator", align 8
  %agg.tmp = alloca %"struct.std::_Rb_tree_const_iterator", align 8
  %ref.tmp9 = alloca %"class.std::tuple", align 8
  %ref.tmp10 = alloca %"class.std::tuple.132", align 1
  store %"class.std::map.102"* %this, %"class.std::map.102"** %this.addr, align 8
  call void @llvm.dbg.declare(metadata %"class.std::map.102"** %this.addr, metadata !8380, metadata !DIExpression()), !dbg !8381
  store i32* %__k, i32** %__k.addr, align 8
  call void @llvm.dbg.declare(metadata i32** %__k.addr, metadata !8382, metadata !DIExpression()), !dbg !8383
  %this1 = load %"class.std::map.102"*, %"class.std::map.102"** %this.addr, align 8
  call void @llvm.dbg.declare(metadata %"struct.std::_Rb_tree_iterator"* %__i, metadata !8384, metadata !DIExpression()), !dbg !8385
  %0 = load i32*, i32** %__k.addr, align 8, !dbg !8386
  %call = call %"struct.std::_Rb_tree_node_base"* @_ZNSt3mapIiiSt4lessIiESaISt4pairIKiiEEE11lower_boundERS3_(%"class.std::map.102"* %this1, i32* dereferenceable(4) %0), !dbg !8387
  %coerce.dive = getelementptr inbounds %"struct.std::_Rb_tree_iterator", %"struct.std::_Rb_tree_iterator"* %__i, i32 0, i32 0, !dbg !8387
  store %"struct.std::_Rb_tree_node_base"* %call, %"struct.std::_Rb_tree_node_base"** %coerce.dive, align 8, !dbg !8387
  %call2 = call %"struct.std::_Rb_tree_node_base"* @_ZNSt3mapIiiSt4lessIiESaISt4pairIKiiEEE3endEv(%"class.std::map.102"* %this1) #3, !dbg !8388
  %coerce.dive3 = getelementptr inbounds %"struct.std::_Rb_tree_iterator", %"struct.std::_Rb_tree_iterator"* %ref.tmp, i32 0, i32 0, !dbg !8388
  store %"struct.std::_Rb_tree_node_base"* %call2, %"struct.std::_Rb_tree_node_base"** %coerce.dive3, align 8, !dbg !8388
  %call4 = call zeroext i1 @_ZSteqRKSt17_Rb_tree_iteratorISt4pairIKiiEES5_(%"struct.std::_Rb_tree_iterator"* dereferenceable(8) %__i, %"struct.std::_Rb_tree_iterator"* dereferenceable(8) %ref.tmp) #3, !dbg !8390
  br i1 %call4, label %lor.end, label %lor.rhs, !dbg !8391

lor.rhs:                                          ; preds = %entry
  call void @_ZNKSt3mapIiiSt4lessIiESaISt4pairIKiiEEE8key_compEv(%"class.std::map.102"* %this1), !dbg !8392
  %1 = load i32*, i32** %__k.addr, align 8, !dbg !8393
  %call6 = call dereferenceable(8) %"struct.std::pair.129"* @_ZNKSt17_Rb_tree_iteratorISt4pairIKiiEEdeEv(%"struct.std::_Rb_tree_iterator"* %__i) #3, !dbg !8394
  %first = getelementptr inbounds %"struct.std::pair.129", %"struct.std::pair.129"* %call6, i32 0, i32 0, !dbg !8395
  %call7 = call zeroext i1 @_ZNKSt4lessIiEclERKiS2_(%"struct.std::less.108"* %ref.tmp5, i32* dereferenceable(4) %1, i32* dereferenceable(4) %first), !dbg !8392
  br label %lor.end, !dbg !8391

lor.end:                                          ; preds = %lor.rhs, %entry
  %2 = phi i1 [ true, %entry ], [ %call7, %lor.rhs ]
  br i1 %2, label %if.then, label %if.end, !dbg !8396

if.then:                                          ; preds = %lor.end
  %_M_t = getelementptr inbounds %"class.std::map.102", %"class.std::map.102"* %this1, i32 0, i32 0, !dbg !8397
  call void @_ZNSt23_Rb_tree_const_iteratorISt4pairIKiiEEC2ERKSt17_Rb_tree_iteratorIS2_E(%"struct.std::_Rb_tree_const_iterator"* %agg.tmp, %"struct.std::_Rb_tree_iterator"* dereferenceable(8) %__i) #3, !dbg !8398
  %3 = load i32*, i32** %__k.addr, align 8, !dbg !8399
  call void @_ZNSt5tupleIJRKiEEC2ILb1ELb1EEES1_(%"class.std::tuple"* %ref.tmp9, i32* dereferenceable(4) %3) #3, !dbg !8400
  %coerce.dive11 = getelementptr inbounds %"struct.std::_Rb_tree_const_iterator", %"struct.std::_Rb_tree_const_iterator"* %agg.tmp, i32 0, i32 0, !dbg !8401
  %4 = load %"struct.std::_Rb_tree_node_base"*, %"struct.std::_Rb_tree_node_base"** %coerce.dive11, align 8, !dbg !8401
  %call12 = call %"struct.std::_Rb_tree_node_base"* @_ZNSt8_Rb_treeIiSt4pairIKiiESt10_Select1stIS2_ESt4lessIiESaIS2_EE22_M_emplace_hint_uniqueIJRKSt21piecewise_construct_tSt5tupleIJRS1_EESD_IJEEEEESt17_Rb_tree_iteratorIS2_ESt23_Rb_tree_const_iteratorIS2_EDpOT_(%"class.std::_Rb_tree.103"* %_M_t, %"struct.std::_Rb_tree_node_base"* %4, %"struct.std::piecewise_construct_t"* dereferenceable(1) @_ZStL19piecewise_construct, %"class.std::tuple"* dereferenceable(8) %ref.tmp9, %"class.std::tuple.132"* dereferenceable(1) %ref.tmp10), !dbg !8401
  %coerce.dive13 = getelementptr inbounds %"struct.std::_Rb_tree_iterator", %"struct.std::_Rb_tree_iterator"* %ref.tmp8, i32 0, i32 0, !dbg !8401
  store %"struct.std::_Rb_tree_node_base"* %call12, %"struct.std::_Rb_tree_node_base"** %coerce.dive13, align 8, !dbg !8401
  %5 = bitcast %"struct.std::_Rb_tree_iterator"* %__i to i8*, !dbg !8402
  %6 = bitcast %"struct.std::_Rb_tree_iterator"* %ref.tmp8 to i8*, !dbg !8402
  call void @llvm.memcpy.p0i8.p0i8.i64(i8* align 8 %5, i8* align 8 %6, i64 8, i1 false), !dbg !8402
  br label %if.end, !dbg !8403

if.end:                                           ; preds = %if.then, %lor.end
  %call14 = call dereferenceable(8) %"struct.std::pair.129"* @_ZNKSt17_Rb_tree_iteratorISt4pairIKiiEEdeEv(%"struct.std::_Rb_tree_iterator"* %__i) #3, !dbg !8404
  %second = getelementptr inbounds %"struct.std::pair.129", %"struct.std::pair.129"* %call14, i32 0, i32 1, !dbg !8405
  ret i32* %second, !dbg !8406
}

; Function Attrs: noinline nounwind uwtable
define linkonce_odr dso_local void @_ZNSt6vectorIN6dealii8CellDataILi3EEESaIS2_EEC2Ev(%"class.std::vector.110"* %this) unnamed_addr #5 comdat align 2 !dbg !8407 {
entry:
  %this.addr = alloca %"class.std::vector.110"*, align 8
  store %"class.std::vector.110"* %this, %"class.std::vector.110"** %this.addr, align 8
  call void @llvm.dbg.declare(metadata %"class.std::vector.110"** %this.addr, metadata !8408, metadata !DIExpression()), !dbg !8410
  %this1 = load %"class.std::vector.110"*, %"class.std::vector.110"** %this.addr, align 8
  %0 = bitcast %"class.std::vector.110"* %this1 to %"struct.std::_Vector_base.111"*, !dbg !8411
  call void @_ZNSt12_Vector_baseIN6dealii8CellDataILi3EEESaIS2_EEC2Ev(%"struct.std::_Vector_base.111"* %0) #3, !dbg !8412
  ret void, !dbg !8411
}

; Function Attrs: noinline nounwind uwtable
define linkonce_odr dso_local void @_ZN6dealii11SubCellDataC2Ev(%"struct.dealii::SubCellData"* %this) unnamed_addr #5 comdat align 2 !dbg !8413 {
entry:
  %this.addr = alloca %"struct.dealii::SubCellData"*, align 8
  store %"struct.dealii::SubCellData"* %this, %"struct.dealii::SubCellData"** %this.addr, align 8
  call void @llvm.dbg.declare(metadata %"struct.dealii::SubCellData"** %this.addr, metadata !8418, metadata !DIExpression()), !dbg !8420
  %this1 = load %"struct.dealii::SubCellData"*, %"struct.dealii::SubCellData"** %this.addr, align 8
  %boundary_lines = getelementptr inbounds %"struct.dealii::SubCellData", %"struct.dealii::SubCellData"* %this1, i32 0, i32 0, !dbg !8421
  call void @_ZNSt6vectorIN6dealii8CellDataILi1EEESaIS2_EEC2Ev(%"class.std::vector.115"* %boundary_lines) #3, !dbg !8421
  %boundary_quads = getelementptr inbounds %"struct.dealii::SubCellData", %"struct.dealii::SubCellData"* %this1, i32 0, i32 1, !dbg !8421
  call void @_ZNSt6vectorIN6dealii8CellDataILi2EEESaIS2_EEC2Ev(%"class.std::vector.121"* %boundary_quads) #3, !dbg !8421
  ret void, !dbg !8421
}

declare dso_local dereferenceable(280) %"class.std::basic_istream"* @_ZStrsIcSt11char_traitsIcESaIcEERSt13basic_istreamIT_T0_ES7_RNSt7__cxx1112basic_stringIS4_S5_T1_EE(%"class.std::basic_istream"* dereferenceable(280), %"class.std::__cxx11::basic_string"* dereferenceable(32)) #1

; Function Attrs: noinline nounwind uwtable
define linkonce_odr dso_local zeroext i1 @_ZSteqIcSt11char_traitsIcESaIcEEbRKNSt7__cxx1112basic_stringIT_T0_T1_EEPKS5_(%"class.std::__cxx11::basic_string"* dereferenceable(32) %__lhs, i8* %__rhs) #5 comdat !dbg !8422 {
entry:
  %__lhs.addr = alloca %"class.std::__cxx11::basic_string"*, align 8
  %__rhs.addr = alloca i8*, align 8
  store %"class.std::__cxx11::basic_string"* %__lhs, %"class.std::__cxx11::basic_string"** %__lhs.addr, align 8
  call void @llvm.dbg.declare(metadata %"class.std::__cxx11::basic_string"** %__lhs.addr, metadata !8479, metadata !DIExpression()), !dbg !8480
  store i8* %__rhs, i8** %__rhs.addr, align 8
  call void @llvm.dbg.declare(metadata i8** %__rhs.addr, metadata !8481, metadata !DIExpression()), !dbg !8482
  %0 = load %"class.std::__cxx11::basic_string"*, %"class.std::__cxx11::basic_string"** %__lhs.addr, align 8, !dbg !8483
  %1 = load i8*, i8** %__rhs.addr, align 8, !dbg !8484
  %call = call i32 @_ZNKSt7__cxx1112basic_stringIcSt11char_traitsIcESaIcEE7compareEPKc(%"class.std::__cxx11::basic_string"* %0, i8* %1) #3, !dbg !8485
  %cmp = icmp eq i32 %call, 0, !dbg !8486
  ret i1 %cmp, !dbg !8487
}

; Function Attrs: noinline uwtable
define linkonce_odr dso_local void @_ZNSt6vectorIN6dealii8CellDataILi3EEESaIS2_EE9push_backEOS2_(%"class.std::vector.110"* %this, %"struct.dealii::CellData"* dereferenceable(36) %__x) #0 comdat align 2 !dbg !8488 {
entry:
  %this.addr = alloca %"class.std::vector.110"*, align 8
  %__x.addr = alloca %"struct.dealii::CellData"*, align 8
  store %"class.std::vector.110"* %this, %"class.std::vector.110"** %this.addr, align 8
  call void @llvm.dbg.declare(metadata %"class.std::vector.110"** %this.addr, metadata !8489, metadata !DIExpression()), !dbg !8490
  store %"struct.dealii::CellData"* %__x, %"struct.dealii::CellData"** %__x.addr, align 8
  call void @llvm.dbg.declare(metadata %"struct.dealii::CellData"** %__x.addr, metadata !8491, metadata !DIExpression()), !dbg !8492
  %this1 = load %"class.std::vector.110"*, %"class.std::vector.110"** %this.addr, align 8
  %0 = load %"struct.dealii::CellData"*, %"struct.dealii::CellData"** %__x.addr, align 8, !dbg !8493
