; ModuleID = 'source/grid/grid_refinement.cc'
source_filename = "source/grid/grid_refinement.cc"
target datalayout = "e-m:e-p270:32:32-p271:32:32-p272:64:64-i64:64-f80:128-n8:16:32:64-S128"
target triple = "x86_64-unknown-linux-gnu"

%"struct.boost::arg" = type { i8 }
%"struct.boost::arg.0" = type { i8 }
%"struct.boost::arg.2" = type { i8 }
%"struct.boost::arg.4" = type { i8 }
%"struct.boost::arg.6" = type { i8 }
%"struct.boost::arg.8" = type { i8 }
%"struct.boost::arg.10" = type { i8 }
%"struct.boost::arg.12" = type { i8 }
%"struct.boost::arg.14" = type { i8 }
%"class.std::ios_base::Init" = type { i8 }
%"class.dealii::Triangulation" = type { %"class.dealii::Subscriptor", %"class.std::vector", %"class.dealii::internal::Triangulation::TriaFaces"*, %"class.std::vector.98", %"class.std::vector.24", [255 x %"class.dealii::SmartPointer"], [255 x %"class.dealii::SmartPointer"], i8, i32, %"struct.dealii::internal::Triangulation::NumberCache", %"class.std::__cxx11::list" }
%"class.dealii::Subscriptor" = type { i32 (...)**, i32, %"class.std::map", %"class.std::type_info"* }
%"class.std::map" = type { %"class.std::_Rb_tree" }
%"class.std::_Rb_tree" = type { %"struct.std::_Rb_tree<const char *, std::pair<const char *const, unsigned int>, std::_Select1st<std::pair<const char *const, unsigned int> >, std::less<const char *>, std::allocator<std::pair<const char *const, unsigned int> > >::_Rb_tree_impl" }
%"struct.std::_Rb_tree<const char *, std::pair<const char *const, unsigned int>, std::_Select1st<std::pair<const char *const, unsigned int> >, std::less<const char *>, std::allocator<std::pair<const char *const, unsigned int> > >::_Rb_tree_impl" = type { %"struct.std::_Rb_tree_key_compare", %"struct.std::_Rb_tree_header" }
%"struct.std::_Rb_tree_key_compare" = type { %"struct.std::less" }
%"struct.std::less" = type { i8 }
%"struct.std::_Rb_tree_header" = type { %"struct.std::_Rb_tree_node_base", i64 }
%"struct.std::_Rb_tree_node_base" = type { i32, %"struct.std::_Rb_tree_node_base"*, %"struct.std::_Rb_tree_node_base"*, %"struct.std::_Rb_tree_node_base"* }
%"class.std::type_info" = type { i32 (...)**, i8* }
%"class.std::vector" = type { %"struct.std::_Vector_base" }
%"struct.std::_Vector_base" = type { %"struct.std::_Vector_base<dealii::internal::Triangulation::TriaLevel<3> *, std::allocator<dealii::internal::Triangulation::TriaLevel<3> *> >::_Vector_impl" }
%"struct.std::_Vector_base<dealii::internal::Triangulation::TriaLevel<3> *, std::allocator<dealii::internal::Triangulation::TriaLevel<3> *> >::_Vector_impl" = type { %"struct.std::_Vector_base<dealii::internal::Triangulation::TriaLevel<3> *, std::allocator<dealii::internal::Triangulation::TriaLevel<3> *> >::_Vector_impl_data" }
%"struct.std::_Vector_base<dealii::internal::Triangulation::TriaLevel<3> *, std::allocator<dealii::internal::Triangulation::TriaLevel<3> *> >::_Vector_impl_data" = type { %"class.dealii::internal::Triangulation::TriaLevel"**, %"class.dealii::internal::Triangulation::TriaLevel"**, %"class.dealii::internal::Triangulation::TriaLevel"** }
%"class.dealii::internal::Triangulation::TriaLevel" = type { %"class.std::vector.19", %"class.std::vector.24", %"class.std::vector.28", %"class.std::vector.33", %"class.dealii::internal::Triangulation::TriaObjectsHex" }
%"class.std::vector.19" = type { %"struct.std::_Vector_base.20" }
%"struct.std::_Vector_base.20" = type { %"struct.std::_Vector_base<unsigned char, std::allocator<unsigned char> >::_Vector_impl" }
%"struct.std::_Vector_base<unsigned char, std::allocator<unsigned char> >::_Vector_impl" = type { %"struct.std::_Vector_base<unsigned char, std::allocator<unsigned char> >::_Vector_impl_data" }
%"struct.std::_Vector_base<unsigned char, std::allocator<unsigned char> >::_Vector_impl_data" = type { i8*, i8*, i8* }
%"class.std::vector.28" = type { %"struct.std::_Vector_base.29" }
%"struct.std::_Vector_base.29" = type { %"struct.std::_Vector_base<std::pair<int, int>, std::allocator<std::pair<int, int> > >::_Vector_impl" }
%"struct.std::_Vector_base<std::pair<int, int>, std::allocator<std::pair<int, int> > >::_Vector_impl" = type { %"struct.std::_Vector_base<std::pair<int, int>, std::allocator<std::pair<int, int> > >::_Vector_impl_data" }
%"struct.std::_Vector_base<std::pair<int, int>, std::allocator<std::pair<int, int> > >::_Vector_impl_data" = type { %"struct.std::pair"*, %"struct.std::pair"*, %"struct.std::pair"* }
%"struct.std::pair" = type opaque
%"class.std::vector.33" = type { %"struct.std::_Vector_base.34" }
%"struct.std::_Vector_base.34" = type { %"struct.std::_Vector_base<unsigned int, std::allocator<unsigned int> >::_Vector_impl" }
%"struct.std::_Vector_base<unsigned int, std::allocator<unsigned int> >::_Vector_impl" = type { %"struct.std::_Vector_base<unsigned int, std::allocator<unsigned int> >::_Vector_impl_data" }
%"struct.std::_Vector_base<unsigned int, std::allocator<unsigned int> >::_Vector_impl_data" = type { i32*, i32*, i32* }
%"class.dealii::internal::Triangulation::TriaObjectsHex" = type { %"class.dealii::internal::Triangulation::TriaObjects.base", %"class.std::vector.24", %"class.std::vector.24", %"class.std::vector.24" }
%"class.dealii::internal::Triangulation::TriaObjects.base" = type <{ %"class.std::vector.38", %"class.std::vector.43", %"class.std::vector.48", %"class.std::vector.24", %"class.std::vector.24", %"class.std::vector.19", i32, i32, i8, [7 x i8], %"class.std::vector.53", i32 }>
%"class.std::vector.38" = type { %"struct.std::_Vector_base.39" }
%"struct.std::_Vector_base.39" = type { %"struct.std::_Vector_base<dealii::internal::Triangulation::TriaObject<3>, std::allocator<dealii::internal::Triangulation::TriaObject<3> > >::_Vector_impl" }
%"struct.std::_Vector_base<dealii::internal::Triangulation::TriaObject<3>, std::allocator<dealii::internal::Triangulation::TriaObject<3> > >::_Vector_impl" = type { %"struct.std::_Vector_base<dealii::internal::Triangulation::TriaObject<3>, std::allocator<dealii::internal::Triangulation::TriaObject<3> > >::_Vector_impl_data" }
%"struct.std::_Vector_base<dealii::internal::Triangulation::TriaObject<3>, std::allocator<dealii::internal::Triangulation::TriaObject<3> > >::_Vector_impl_data" = type { %"class.dealii::internal::Triangulation::TriaObject"*, %"class.dealii::internal::Triangulation::TriaObject"*, %"class.dealii::internal::Triangulation::TriaObject"* }
%"class.dealii::internal::Triangulation::TriaObject" = type { [6 x i32] }
%"class.std::vector.43" = type { %"struct.std::_Vector_base.44" }
%"struct.std::_Vector_base.44" = type { %"struct.std::_Vector_base<int, std::allocator<int> >::_Vector_impl" }
%"struct.std::_Vector_base<int, std::allocator<int> >::_Vector_impl" = type { %"struct.std::_Vector_base<int, std::allocator<int> >::_Vector_impl_data" }
%"struct.std::_Vector_base<int, std::allocator<int> >::_Vector_impl_data" = type { i32*, i32*, i32* }
%"class.std::vector.48" = type { %"struct.std::_Vector_base.49" }
%"struct.std::_Vector_base.49" = type { %"struct.std::_Vector_base<dealii::RefinementCase<3>, std::allocator<dealii::RefinementCase<3> > >::_Vector_impl" }
%"struct.std::_Vector_base<dealii::RefinementCase<3>, std::allocator<dealii::RefinementCase<3> > >::_Vector_impl" = type { %"struct.std::_Vector_base<dealii::RefinementCase<3>, std::allocator<dealii::RefinementCase<3> > >::_Vector_impl_data" }
%"struct.std::_Vector_base<dealii::RefinementCase<3>, std::allocator<dealii::RefinementCase<3> > >::_Vector_impl_data" = type { %"class.dealii::RefinementCase"*, %"class.dealii::RefinementCase"*, %"class.dealii::RefinementCase"* }
%"class.dealii::RefinementCase" = type { i8 }
%"class.std::vector.53" = type { %"struct.std::_Vector_base.54" }
%"struct.std::_Vector_base.54" = type { %"struct.std::_Vector_base<dealii::internal::Triangulation::TriaObjects<dealii::internal::Triangulation::TriaObject<3> >::UserData, std::allocator<dealii::internal::Triangulation::TriaObjects<dealii::internal::Triangulation::TriaObject<3> >::UserData> >::_Vector_impl" }
%"struct.std::_Vector_base<dealii::internal::Triangulation::TriaObjects<dealii::internal::Triangulation::TriaObject<3> >::UserData, std::allocator<dealii::internal::Triangulation::TriaObjects<dealii::internal::Triangulation::TriaObject<3> >::UserData> >::_Vector_impl" = type { %"struct.std::_Vector_base<dealii::internal::Triangulation::TriaObjects<dealii::internal::Triangulation::TriaObject<3> >::UserData, std::allocator<dealii::internal::Triangulation::TriaObjects<dealii::internal::Triangulation::TriaObject<3> >::UserData> >::_Vector_impl_data" }
%"struct.std::_Vector_base<dealii::internal::Triangulation::TriaObjects<dealii::internal::Triangulation::TriaObject<3> >::UserData, std::allocator<dealii::internal::Triangulation::TriaObjects<dealii::internal::Triangulation::TriaObject<3> >::UserData> >::_Vector_impl_data" = type { %"union.dealii::internal::Triangulation::TriaObjects<dealii::internal::Triangulation::TriaObject<3> >::UserData"*, %"union.dealii::internal::Triangulation::TriaObjects<dealii::internal::Triangulation::TriaObject<3> >::UserData"*, %"union.dealii::internal::Triangulation::TriaObjects<dealii::internal::Triangulation::TriaObject<3> >::UserData"* }
%"union.dealii::internal::Triangulation::TriaObjects<dealii::internal::Triangulation::TriaObject<3> >::UserData" = type opaque
%"class.dealii::internal::Triangulation::TriaFaces" = type { %"class.dealii::internal::Triangulation::TriaObjectsQuad3D", %"class.dealii::internal::Triangulation::TriaObjects.78" }
%"class.dealii::internal::Triangulation::TriaObjectsQuad3D" = type { %"class.dealii::internal::Triangulation::TriaObjects.base.77", %"class.std::vector.24" }
%"class.dealii::internal::Triangulation::TriaObjects.base.77" = type <{ %"class.std::vector.59", %"class.std::vector.43", %"class.std::vector.65", %"class.std::vector.24", %"class.std::vector.24", %"class.std::vector.19", i32, i32, i8, [7 x i8], %"class.std::vector.72", i32 }>
%"class.std::vector.59" = type { %"struct.std::_Vector_base.60" }
%"struct.std::_Vector_base.60" = type { %"struct.std::_Vector_base<dealii::internal::Triangulation::TriaObject<2>, std::allocator<dealii::internal::Triangulation::TriaObject<2> > >::_Vector_impl" }
%"struct.std::_Vector_base<dealii::internal::Triangulation::TriaObject<2>, std::allocator<dealii::internal::Triangulation::TriaObject<2> > >::_Vector_impl" = type { %"struct.std::_Vector_base<dealii::internal::Triangulation::TriaObject<2>, std::allocator<dealii::internal::Triangulation::TriaObject<2> > >::_Vector_impl_data" }
%"struct.std::_Vector_base<dealii::internal::Triangulation::TriaObject<2>, std::allocator<dealii::internal::Triangulation::TriaObject<2> > >::_Vector_impl_data" = type { %"class.dealii::internal::Triangulation::TriaObject.64"*, %"class.dealii::internal::Triangulation::TriaObject.64"*, %"class.dealii::internal::Triangulation::TriaObject.64"* }
%"class.dealii::internal::Triangulation::TriaObject.64" = type { [4 x i32] }
%"class.std::vector.65" = type { %"struct.std::_Vector_base.66" }
%"struct.std::_Vector_base.66" = type { %"struct.std::_Vector_base<dealii::RefinementCase<2>, std::allocator<dealii::RefinementCase<2> > >::_Vector_impl" }
%"struct.std::_Vector_base<dealii::RefinementCase<2>, std::allocator<dealii::RefinementCase<2> > >::_Vector_impl" = type { %"struct.std::_Vector_base<dealii::RefinementCase<2>, std::allocator<dealii::RefinementCase<2> > >::_Vector_impl_data" }
%"struct.std::_Vector_base<dealii::RefinementCase<2>, std::allocator<dealii::RefinementCase<2> > >::_Vector_impl_data" = type { %"class.dealii::RefinementCase.70"*, %"class.dealii::RefinementCase.70"*, %"class.dealii::RefinementCase.70"* }
%"class.dealii::RefinementCase.70" = type { i8 }
%"class.std::vector.72" = type { %"struct.std::_Vector_base.73" }
%"struct.std::_Vector_base.73" = type { %"struct.std::_Vector_base<dealii::internal::Triangulation::TriaObjects<dealii::internal::Triangulation::TriaObject<2> >::UserData, std::allocator<dealii::internal::Triangulation::TriaObjects<dealii::internal::Triangulation::TriaObject<2> >::UserData> >::_Vector_impl" }
%"struct.std::_Vector_base<dealii::internal::Triangulation::TriaObjects<dealii::internal::Triangulation::TriaObject<2> >::UserData, std::allocator<dealii::internal::Triangulation::TriaObjects<dealii::internal::Triangulation::TriaObject<2> >::UserData> >::_Vector_impl" = type { %"struct.std::_Vector_base<dealii::internal::Triangulation::TriaObjects<dealii::internal::Triangulation::TriaObject<2> >::UserData, std::allocator<dealii::internal::Triangulation::TriaObjects<dealii::internal::Triangulation::TriaObject<2> >::UserData> >::_Vector_impl_data" }
%"struct.std::_Vector_base<dealii::internal::Triangulation::TriaObjects<dealii::internal::Triangulation::TriaObject<2> >::UserData, std::allocator<dealii::internal::Triangulation::TriaObjects<dealii::internal::Triangulation::TriaObject<2> >::UserData> >::_Vector_impl_data" = type { %"union.dealii::internal::Triangulation::TriaObjects<dealii::internal::Triangulation::TriaObject<2> >::UserData"*, %"union.dealii::internal::Triangulation::TriaObjects<dealii::internal::Triangulation::TriaObject<2> >::UserData"*, %"union.dealii::internal::Triangulation::TriaObjects<dealii::internal::Triangulation::TriaObject<2> >::UserData"* }
%"union.dealii::internal::Triangulation::TriaObjects<dealii::internal::Triangulation::TriaObject<2> >::UserData" = type opaque
%"class.dealii::internal::Triangulation::TriaObjects.78" = type <{ %"class.std::vector.79", %"class.std::vector.43", %"class.std::vector.85", %"class.std::vector.24", %"class.std::vector.24", %"class.std::vector.19", i32, i32, i8, [7 x i8], %"class.std::vector.92", i32, [4 x i8] }>
%"class.std::vector.79" = type { %"struct.std::_Vector_base.80" }
%"struct.std::_Vector_base.80" = type { %"struct.std::_Vector_base<dealii::internal::Triangulation::TriaObject<1>, std::allocator<dealii::internal::Triangulation::TriaObject<1> > >::_Vector_impl" }
%"struct.std::_Vector_base<dealii::internal::Triangulation::TriaObject<1>, std::allocator<dealii::internal::Triangulation::TriaObject<1> > >::_Vector_impl" = type { %"struct.std::_Vector_base<dealii::internal::Triangulation::TriaObject<1>, std::allocator<dealii::internal::Triangulation::TriaObject<1> > >::_Vector_impl_data" }
%"struct.std::_Vector_base<dealii::internal::Triangulation::TriaObject<1>, std::allocator<dealii::internal::Triangulation::TriaObject<1> > >::_Vector_impl_data" = type { %"class.dealii::internal::Triangulation::TriaObject.84"*, %"class.dealii::internal::Triangulation::TriaObject.84"*, %"class.dealii::internal::Triangulation::TriaObject.84"* }
%"class.dealii::internal::Triangulation::TriaObject.84" = type { [2 x i32] }
%"class.std::vector.85" = type { %"struct.std::_Vector_base.86" }
%"struct.std::_Vector_base.86" = type { %"struct.std::_Vector_base<dealii::RefinementCase<1>, std::allocator<dealii::RefinementCase<1> > >::_Vector_impl" }
%"struct.std::_Vector_base<dealii::RefinementCase<1>, std::allocator<dealii::RefinementCase<1> > >::_Vector_impl" = type { %"struct.std::_Vector_base<dealii::RefinementCase<1>, std::allocator<dealii::RefinementCase<1> > >::_Vector_impl_data" }
%"struct.std::_Vector_base<dealii::RefinementCase<1>, std::allocator<dealii::RefinementCase<1> > >::_Vector_impl_data" = type { %"class.dealii::RefinementCase.90"*, %"class.dealii::RefinementCase.90"*, %"class.dealii::RefinementCase.90"* }
%"class.dealii::RefinementCase.90" = type { i8 }
%"class.std::vector.92" = type { %"struct.std::_Vector_base.93" }
%"struct.std::_Vector_base.93" = type { %"struct.std::_Vector_base<dealii::internal::Triangulation::TriaObjects<dealii::internal::Triangulation::TriaObject<1> >::UserData, std::allocator<dealii::internal::Triangulation::TriaObjects<dealii::internal::Triangulation::TriaObject<1> >::UserData> >::_Vector_impl" }
%"struct.std::_Vector_base<dealii::internal::Triangulation::TriaObjects<dealii::internal::Triangulation::TriaObject<1> >::UserData, std::allocator<dealii::internal::Triangulation::TriaObjects<dealii::internal::Triangulation::TriaObject<1> >::UserData> >::_Vector_impl" = type { %"struct.std::_Vector_base<dealii::internal::Triangulation::TriaObjects<dealii::internal::Triangulation::TriaObject<1> >::UserData, std::allocator<dealii::internal::Triangulation::TriaObjects<dealii::internal::Triangulation::TriaObject<1> >::UserData> >::_Vector_impl_data" }
%"struct.std::_Vector_base<dealii::internal::Triangulation::TriaObjects<dealii::internal::Triangulation::TriaObject<1> >::UserData, std::allocator<dealii::internal::Triangulation::TriaObjects<dealii::internal::Triangulation::TriaObject<1> >::UserData> >::_Vector_impl_data" = type { %"union.dealii::internal::Triangulation::TriaObjects<dealii::internal::Triangulation::TriaObject<1> >::UserData"*, %"union.dealii::internal::Triangulation::TriaObjects<dealii::internal::Triangulation::TriaObject<1> >::UserData"*, %"union.dealii::internal::Triangulation::TriaObjects<dealii::internal::Triangulation::TriaObject<1> >::UserData"* }
%"union.dealii::internal::Triangulation::TriaObjects<dealii::internal::Triangulation::TriaObject<1> >::UserData" = type opaque
%"class.std::vector.98" = type { %"struct.std::_Vector_base.99" }
%"struct.std::_Vector_base.99" = type { %"struct.std::_Vector_base<dealii::Point<3>, std::allocator<dealii::Point<3> > >::_Vector_impl" }
%"struct.std::_Vector_base<dealii::Point<3>, std::allocator<dealii::Point<3> > >::_Vector_impl" = type { %"struct.std::_Vector_base<dealii::Point<3>, std::allocator<dealii::Point<3> > >::_Vector_impl_data" }
%"struct.std::_Vector_base<dealii::Point<3>, std::allocator<dealii::Point<3> > >::_Vector_impl_data" = type { %"class.dealii::Point"*, %"class.dealii::Point"*, %"class.dealii::Point"* }
%"class.dealii::Point" = type { %"class.dealii::Tensor" }
%"class.dealii::Tensor" = type { [3 x double] }
%"class.std::vector.24" = type { %"struct.std::_Bvector_base" }
%"struct.std::_Bvector_base" = type { %"struct.std::_Bvector_base<std::allocator<bool> >::_Bvector_impl" }
%"struct.std::_Bvector_base<std::allocator<bool> >::_Bvector_impl" = type { %"struct.std::_Bvector_base<std::allocator<bool> >::_Bvector_impl_data" }
%"struct.std::_Bvector_base<std::allocator<bool> >::_Bvector_impl_data" = type { %"struct.std::_Bit_iterator", %"struct.std::_Bit_iterator", i64* }
%"struct.std::_Bit_iterator" = type { %"struct.std::_Bit_iterator_base.base", [4 x i8] }
%"struct.std::_Bit_iterator_base.base" = type <{ i64*, i32 }>
%"class.dealii::SmartPointer" = type { %"class.dealii::Boundary"*, i8* }
%"class.dealii::Boundary" = type opaque
%"struct.dealii::internal::Triangulation::NumberCache" = type { %"struct.dealii::internal::Triangulation::NumberCache.103", i32, %"class.std::vector.33", i32, %"class.std::vector.33" }
%"struct.dealii::internal::Triangulation::NumberCache.103" = type { %"struct.dealii::internal::Triangulation::NumberCache.104", i32, %"class.std::vector.33", i32, %"class.std::vector.33" }
%"struct.dealii::internal::Triangulation::NumberCache.104" = type { i32, %"class.std::vector.33", i32, %"class.std::vector.33" }
%"class.std::__cxx11::list" = type { %"class.std::__cxx11::_List_base" }
%"class.std::__cxx11::_List_base" = type { %"struct.std::__cxx11::_List_base<dealii::Triangulation<3, 3>::RefinementListener *, std::allocator<dealii::Triangulation<3, 3>::RefinementListener *> >::_List_impl" }
%"struct.std::__cxx11::_List_base<dealii::Triangulation<3, 3>::RefinementListener *, std::allocator<dealii::Triangulation<3, 3>::RefinementListener *> >::_List_impl" = type { %"struct.std::__detail::_List_node_header" }
%"struct.std::__detail::_List_node_header" = type { %"struct.std::__detail::_List_node_base", i64 }
%"struct.std::__detail::_List_node_base" = type { %"struct.std::__detail::_List_node_base"*, %"struct.std::__detail::_List_node_base"* }
%"class.dealii::Vector" = type { %"class.dealii::Subscriptor", i32, i32, float* }
%"class.dealii::TriaActiveIterator" = type { %"class.dealii::TriaIterator" }
%"class.dealii::TriaIterator" = type { %"class.dealii::TriaRawIterator" }
%"class.dealii::TriaRawIterator" = type { %"class.dealii::CellAccessor" }
%"class.dealii::CellAccessor" = type { %"class.dealii::TriaAccessor" }
%"class.dealii::TriaAccessor" = type { %"class.dealii::TriaAccessorBase" }
%"class.dealii::TriaAccessorBase" = type { i32, i32, %"class.dealii::Triangulation"* }
%"struct.dealii::RefinementPossibilities" = type { i8 }
%"class.dealii::Vector.109" = type { %"class.dealii::Subscriptor", i32, i32, double* }
%"struct.std::_Bit_reference" = type { i64*, i64 }
%"struct.std::greater" = type { i8 }
%"struct.__gnu_cxx::__ops::_Iter_comp_iter" = type { %"struct.std::greater" }
%"class.std::allocator.35" = type { i8 }
%"class.__gnu_cxx::new_allocator.36" = type { i8 }
%"class.dealii::internal::Triangulation::TriaObjects" = type <{ %"class.std::vector.38", %"class.std::vector.43", %"class.std::vector.48", %"class.std::vector.24", %"class.std::vector.24", %"class.std::vector.19", i32, i32, i8, [7 x i8], %"class.std::vector.53", i32, [4 x i8] }>
%"struct.std::_Bit_iterator_base" = type <{ i64*, i32, [4 x i8] }>
%"struct.std::iterator" = type { i8 }
%"struct.__gnu_cxx::__ops::_Val_comp_iter" = type { %"struct.std::greater" }
%"struct.__gnu_cxx::__ops::_Iter_comp_val" = type { %"struct.std::greater" }
%"struct.__gnu_cxx::__ops::_Iter_less_iter" = type { i8 }
%"struct.std::random_access_iterator_tag" = type { i8 }

$_ZN5boost3argILi1EEC2Ev = comdat any

$_ZN5boost3argILi2EEC2Ev = comdat any

$_ZN5boost3argILi3EEC2Ev = comdat any

$_ZN5boost3argILi4EEC2Ev = comdat any

$_ZN5boost3argILi5EEC2Ev = comdat any

$_ZN5boost3argILi6EEC2Ev = comdat any

$_ZN5boost3argILi7EEC2Ev = comdat any

$_ZN5boost3argILi8EEC2Ev = comdat any

$_ZN5boost3argILi9EEC2Ev = comdat any

$_ZN6dealii14GridRefinement6refineILi3ENS_6VectorIfEELi3EEEvRNS_13TriangulationIXT_EXT1_EEERKT0_d = comdat any

$_ZNK6dealii6VectorIfE4sizeEv = comdat any

$_ZNK6dealii6VectorIfEclEj = comdat any

$_ZSt4fabsf = comdat any

$_ZN6dealii15TriaRawIteratorINS_12CellAccessorILi3ELi3EEEEptEv = comdat any

$_ZNK6dealii12CellAccessorILi3ELi3EE15set_refine_flagENS_14RefinementCaseILi3EEE = comdat any

$_ZN6dealii14RefinementCaseILi3EEC2ENS_23RefinementPossibilitiesILi3EE13PossibilitiesE = comdat any

$_ZN6dealii18TriaActiveIteratorINS_12CellAccessorILi3ELi3EEEEppEv = comdat any

$_ZN6dealii14GridRefinement6refineILi3ENS_6VectorIdEELi3EEEvRNS_13TriangulationIXT_EXT1_EEERKT0_d = comdat any

$_ZNK6dealii6VectorIdE4sizeEv = comdat any

$_ZNK6dealii6VectorIdEclEj = comdat any

$_ZN6dealii14GridRefinement7coarsenILi3ENS_6VectorIfEELi3EEEvRNS_13TriangulationIXT_EXT1_EEERKT0_d = comdat any

$_ZNK6dealii12CellAccessorILi3ELi3EE15refine_flag_setEv = comdat any

$_ZNK6dealii14RefinementCaseILi3EEcvhEv = comdat any

$_ZNK6dealii12CellAccessorILi3ELi3EE16set_coarsen_flagEv = comdat any

$_ZN6dealii14GridRefinement7coarsenILi3ENS_6VectorIdEELi3EEEvRNS_13TriangulationIXT_EXT1_EEERKT0_d = comdat any

$_ZN6dealii14GridRefinement31refine_and_coarsen_fixed_numberILi3ENS_6VectorIdEELi3EEEvRNS_13TriangulationIXT_EXT1_EEERKT0_ddj = comdat any

$_ZSt11nth_elementIPdSt7greaterIdEEvT_S3_S3_T0_ = comdat any

$_ZN6dealii6VectorIdE5beginEv = comdat any

$_ZN6dealii6VectorIdE3endEv = comdat any

$_ZN6dealii6VectorIdED2Ev = comdat any

$_ZN6dealii14GridRefinement31refine_and_coarsen_fixed_numberILi3ENS_6VectorIfEELi3EEEvRNS_13TriangulationIXT_EXT1_EEERKT0_ddj = comdat any

$_ZSt11nth_elementIPfSt7greaterIdEEvT_S3_S3_T0_ = comdat any

$_ZN6dealii6VectorIfE5beginEv = comdat any

$_ZN6dealii6VectorIfE3endEv = comdat any

$_ZN6dealii6VectorIfED2Ev = comdat any

$_ZN6dealii14GridRefinement33refine_and_coarsen_fixed_fractionILi3ENS_6VectorIdEELi3EEEvRNS_13TriangulationIXT_EXT1_EEERKT0_ddj = comdat any

$_ZSt4sortIPdSt7greaterIdEEvT_S3_T0_ = comdat any

$_ZN6dealii14GridRefinement33refine_and_coarsen_fixed_fractionILi3ENS_6VectorIfEELi3EEEvRNS_13TriangulationIXT_EXT1_EEERKT0_ddj = comdat any

$_ZSt4sortIPfSt7greaterIdEEvT_S3_T0_ = comdat any

$_ZN6dealii14GridRefinement27refine_and_coarsen_optimizeILi3ENS_6VectorIfEELi3EEEvRNS_13TriangulationIXT_EXT1_EEERKT0_ = comdat any

$_ZNSaIjEC2Ev = comdat any

$_ZNSt6vectorIjSaIjEEC2EmRKS0_ = comdat any

$_ZNSaIjED2Ev = comdat any

$_ZNSt6vectorIjSaIjEEixEm = comdat any

$_ZNSt6vectorIjSaIjEED2Ev = comdat any

$_ZN6dealii14GridRefinement27refine_and_coarsen_optimizeILi3ENS_6VectorIdEELi3EEEvRNS_13TriangulationIXT_EXT1_EEERKT0_ = comdat any

$_ZN6dealii12TriaIteratorINS_12CellAccessorILi3ELi3EEEEppEv = comdat any

$_ZNK6dealii15TriaRawIteratorINS_12CellAccessorILi3ELi3EEEE5stateEv = comdat any

$_ZNK6dealii12TriaAccessorILi3ELi3ELi3EE12has_childrenEv = comdat any

$_ZN6dealii15TriaRawIteratorINS_12CellAccessorILi3ELi3EEEEppEv = comdat any

$_ZNK6dealii12TriaAccessorILi3ELi3ELi3EE4usedEv = comdat any

$_ZN6dealii16TriaAccessorBaseILi3ELi3ELi3EEppEv = comdat any

$_ZNKSt6vectorIPN6dealii8internal13Triangulation9TriaLevelILi3EEESaIS5_EEixEm = comdat any

$_ZNKSt6vectorIN6dealii8internal13Triangulation10TriaObjectILi3EEESaIS4_EE4sizeEv = comdat any

$_ZNKSt6vectorIPN6dealii8internal13Triangulation9TriaLevelILi3EEESaIS5_EE4sizeEv = comdat any

$_ZNK6dealii16TriaAccessorBaseILi3ELi3ELi3EE7objectsEv = comdat any

$_ZNSt6vectorIbSaIbEEixEm = comdat any

$_ZNKSt14_Bit_referencecvbEv = comdat any

$_ZNSt13_Bit_iteratorC2EPmj = comdat any

$_ZNKSt13_Bit_iteratordeEv = comdat any

$_ZNSt18_Bit_iterator_baseC2EPmj = comdat any

$_ZNSt14_Bit_referenceC2EPmm = comdat any

$_ZNK6dealii16TriaAccessorBaseILi3ELi3ELi3EE5stateEv = comdat any

$_ZNSt6vectorIiSaIiEEixEm = comdat any

$_ZN6dealii15TriaRawIteratorINS_12CellAccessorILi3ELi3EEEEdeEv = comdat any

$_ZNSt6vectorIhSaIhEEixEm = comdat any

$_ZN6dealii14RefinementCaseILi3EEC2Eh = comdat any

$_ZNSt14_Bit_referenceaSEb = comdat any

$_ZN6dealii6VectorIdED0Ev = comdat any

$_ZN6dealii6VectorIdE6reinitEjb = comdat any

$_ZN6dealii6VectorIdE4swapERS1_ = comdat any

$_ZN6dealii6VectorIdEaSEd = comdat any

$_ZSt4fillIPddEvT_S1_RKT0_ = comdat any

$_ZSt8__fill_aIPddEvT_S1_RKT0_ = comdat any

$_ZSt9__fill_a1IPddEN9__gnu_cxx11__enable_ifIXsr11__is_scalarIT0_EE7__valueEvE6__typeET_S6_RKS3_ = comdat any

$_ZSt4swapIjENSt9enable_ifIXsr6__and_ISt6__not_ISt15__is_tuple_likeIT_EESt21is_move_constructibleIS3_ESt18is_move_assignableIS3_EEE5valueEvE4typeERS3_SC_ = comdat any

$_ZSt4swapIPdENSt9enable_ifIXsr6__and_ISt6__not_ISt15__is_tuple_likeIT_EESt21is_move_constructibleIS4_ESt18is_move_assignableIS4_EEE5valueEvE4typeERS4_SD_ = comdat any

$_ZSt4moveIRjEONSt16remove_referenceIT_E4typeEOS2_ = comdat any

$_ZSt4moveIRPdEONSt16remove_referenceIT_E4typeEOS3_ = comdat any

$_ZSt13__introselectIPdlN9__gnu_cxx5__ops15_Iter_comp_iterISt7greaterIdEEEEvT_S7_S7_T0_T1_ = comdat any

$_ZSt4__lgl = comdat any

$_ZN9__gnu_cxx5__ops16__iter_comp_iterISt7greaterIdEEENS0_15_Iter_comp_iterIT_EES5_ = comdat any

$_ZSt13__heap_selectIPdN9__gnu_cxx5__ops15_Iter_comp_iterISt7greaterIdEEEEvT_S7_S7_T0_ = comdat any

$_ZSt9iter_swapIPdS0_EvT_T0_ = comdat any

$_ZSt27__unguarded_partition_pivotIPdN9__gnu_cxx5__ops15_Iter_comp_iterISt7greaterIdEEEET_S7_S7_T0_ = comdat any

$_ZSt16__insertion_sortIPdN9__gnu_cxx5__ops15_Iter_comp_iterISt7greaterIdEEEEvT_S7_T0_ = comdat any

$_ZSt11__make_heapIPdN9__gnu_cxx5__ops15_Iter_comp_iterISt7greaterIdEEEEvT_S7_RT0_ = comdat any

$_ZN9__gnu_cxx5__ops15_Iter_comp_iterISt7greaterIdEEclIPdS6_EEbT_T0_ = comdat any

$_ZSt10__pop_heapIPdN9__gnu_cxx5__ops15_Iter_comp_iterISt7greaterIdEEEEvT_S7_S7_RT0_ = comdat any

$_ZSt4moveIRdEONSt16remove_referenceIT_E4typeEOS2_ = comdat any

$_ZSt13__adjust_heapIPdldN9__gnu_cxx5__ops15_Iter_comp_iterISt7greaterIdEEEEvT_T0_S8_T1_T2_ = comdat any

$_ZSt4moveIRN9__gnu_cxx5__ops15_Iter_comp_iterISt7greaterIdEEEEONSt16remove_referenceIT_E4typeEOS8_ = comdat any

$_ZN9__gnu_cxx5__ops14_Iter_comp_valISt7greaterIdEEC2EONS0_15_Iter_comp_iterIS3_EE = comdat any

$_ZSt11__push_heapIPdldN9__gnu_cxx5__ops14_Iter_comp_valISt7greaterIdEEEEvT_T0_S8_T1_RT2_ = comdat any

$_ZSt4moveIRSt7greaterIdEEONSt16remove_referenceIT_E4typeEOS4_ = comdat any

$_ZN9__gnu_cxx5__ops14_Iter_comp_valISt7greaterIdEEclIPddEEbT_RT0_ = comdat any

$_ZNKSt7greaterIdEclERKdS2_ = comdat any

$_ZSt4swapIdENSt9enable_ifIXsr6__and_ISt6__not_ISt15__is_tuple_likeIT_EESt21is_move_constructibleIS3_ESt18is_move_assignableIS3_EEE5valueEvE4typeERS3_SC_ = comdat any

$_ZSt22__move_median_to_firstIPdN9__gnu_cxx5__ops15_Iter_comp_iterISt7greaterIdEEEEvT_S7_S7_S7_T0_ = comdat any

$_ZSt21__unguarded_partitionIPdN9__gnu_cxx5__ops15_Iter_comp_iterISt7greaterIdEEEET_S7_S7_S7_T0_ = comdat any

$_ZSt13move_backwardIPdS0_ET0_T_S2_S1_ = comdat any

$_ZSt25__unguarded_linear_insertIPdN9__gnu_cxx5__ops14_Val_comp_iterISt7greaterIdEEEEvT_T0_ = comdat any

$_ZN9__gnu_cxx5__ops15__val_comp_iterISt7greaterIdEEENS0_14_Val_comp_iterIT_EENS0_15_Iter_comp_iterIS5_EE = comdat any

$_ZSt22__copy_move_backward_aILb1EPdS0_ET1_T0_S2_S1_ = comdat any

$_ZSt12__miter_baseIPdET_S1_ = comdat any

$_ZSt12__niter_wrapIPdET_RKS1_S1_ = comdat any

$_ZSt23__copy_move_backward_a1ILb1EPdS0_ET1_T0_S2_S1_ = comdat any

$_ZSt12__niter_baseIPdET_S1_ = comdat any

$_ZSt23__copy_move_backward_a2ILb1EPdS0_ET1_T0_S2_S1_ = comdat any

$_ZNSt20__copy_move_backwardILb1ELb1ESt26random_access_iterator_tagE13__copy_move_bIdEEPT_PKS3_S6_S4_ = comdat any

$_ZN9__gnu_cxx5__ops14_Val_comp_iterISt7greaterIdEEclIdPdEEbRT_T0_ = comdat any

$_ZN9__gnu_cxx5__ops14_Val_comp_iterISt7greaterIdEEC2EONS0_15_Iter_comp_iterIS3_EE = comdat any

$_ZN9__gnu_cxx5__ops15_Iter_comp_iterISt7greaterIdEEC2ES3_ = comdat any

$_ZN6dealii6VectorIfED0Ev = comdat any

$_ZN6dealii6VectorIfE6reinitEjb = comdat any

$_ZN6dealii6VectorIfE4swapERS1_ = comdat any

$_ZN6dealii6VectorIfEaSEf = comdat any

$_ZSt4fillIPffEvT_S1_RKT0_ = comdat any

$_ZSt8__fill_aIPffEvT_S1_RKT0_ = comdat any

$_ZSt9__fill_a1IPffEN9__gnu_cxx11__enable_ifIXsr11__is_scalarIT0_EE7__valueEvE6__typeET_S6_RKS3_ = comdat any

$_ZSt4swapIPfENSt9enable_ifIXsr6__and_ISt6__not_ISt15__is_tuple_likeIT_EESt21is_move_constructibleIS4_ESt18is_move_assignableIS4_EEE5valueEvE4typeERS4_SD_ = comdat any

$_ZSt4moveIRPfEONSt16remove_referenceIT_E4typeEOS3_ = comdat any

$_ZSt13__introselectIPflN9__gnu_cxx5__ops15_Iter_comp_iterISt7greaterIdEEEEvT_S7_S7_T0_T1_ = comdat any

$_ZSt13__heap_selectIPfN9__gnu_cxx5__ops15_Iter_comp_iterISt7greaterIdEEEEvT_S7_S7_T0_ = comdat any

$_ZSt9iter_swapIPfS0_EvT_T0_ = comdat any

$_ZSt27__unguarded_partition_pivotIPfN9__gnu_cxx5__ops15_Iter_comp_iterISt7greaterIdEEEET_S7_S7_T0_ = comdat any

$_ZSt16__insertion_sortIPfN9__gnu_cxx5__ops15_Iter_comp_iterISt7greaterIdEEEEvT_S7_T0_ = comdat any

$_ZSt11__make_heapIPfN9__gnu_cxx5__ops15_Iter_comp_iterISt7greaterIdEEEEvT_S7_RT0_ = comdat any

$_ZN9__gnu_cxx5__ops15_Iter_comp_iterISt7greaterIdEEclIPfS6_EEbT_T0_ = comdat any

$_ZSt10__pop_heapIPfN9__gnu_cxx5__ops15_Iter_comp_iterISt7greaterIdEEEEvT_S7_S7_RT0_ = comdat any

$_ZSt4moveIRfEONSt16remove_referenceIT_E4typeEOS2_ = comdat any

$_ZSt13__adjust_heapIPflfN9__gnu_cxx5__ops15_Iter_comp_iterISt7greaterIdEEEEvT_T0_S8_T1_T2_ = comdat any

$_ZSt11__push_heapIPflfN9__gnu_cxx5__ops14_Iter_comp_valISt7greaterIdEEEEvT_T0_S8_T1_RT2_ = comdat any

$_ZN9__gnu_cxx5__ops14_Iter_comp_valISt7greaterIdEEclIPffEEbT_RT0_ = comdat any

$_ZSt4swapIfENSt9enable_ifIXsr6__and_ISt6__not_ISt15__is_tuple_likeIT_EESt21is_move_constructibleIS3_ESt18is_move_assignableIS3_EEE5valueEvE4typeERS3_SC_ = comdat any

$_ZSt22__move_median_to_firstIPfN9__gnu_cxx5__ops15_Iter_comp_iterISt7greaterIdEEEEvT_S7_S7_S7_T0_ = comdat any

$_ZSt21__unguarded_partitionIPfN9__gnu_cxx5__ops15_Iter_comp_iterISt7greaterIdEEEET_S7_S7_S7_T0_ = comdat any

$_ZSt13move_backwardIPfS0_ET0_T_S2_S1_ = comdat any

$_ZSt25__unguarded_linear_insertIPfN9__gnu_cxx5__ops14_Val_comp_iterISt7greaterIdEEEEvT_T0_ = comdat any

$_ZSt22__copy_move_backward_aILb1EPfS0_ET1_T0_S2_S1_ = comdat any

$_ZSt12__miter_baseIPfET_S1_ = comdat any

$_ZSt12__niter_wrapIPfET_RKS1_S1_ = comdat any

$_ZSt23__copy_move_backward_a1ILb1EPfS0_ET1_T0_S2_S1_ = comdat any

$_ZSt12__niter_baseIPfET_S1_ = comdat any

$_ZSt23__copy_move_backward_a2ILb1EPfS0_ET1_T0_S2_S1_ = comdat any

$_ZNSt20__copy_move_backwardILb1ELb1ESt26random_access_iterator_tagE13__copy_move_bIfEEPT_PKS3_S6_S4_ = comdat any

$_ZN9__gnu_cxx5__ops14_Val_comp_iterISt7greaterIdEEclIfPfEEbRT_T0_ = comdat any

$_ZSt6__sortIPdN9__gnu_cxx5__ops15_Iter_comp_iterISt7greaterIdEEEEvT_S7_T0_ = comdat any

$_ZSt16__introsort_loopIPdlN9__gnu_cxx5__ops15_Iter_comp_iterISt7greaterIdEEEEvT_S7_T0_T1_ = comdat any

$_ZSt22__final_insertion_sortIPdN9__gnu_cxx5__ops15_Iter_comp_iterISt7greaterIdEEEEvT_S7_T0_ = comdat any

$_ZSt14__partial_sortIPdN9__gnu_cxx5__ops15_Iter_comp_iterISt7greaterIdEEEEvT_S7_S7_T0_ = comdat any

$_ZSt11__sort_heapIPdN9__gnu_cxx5__ops15_Iter_comp_iterISt7greaterIdEEEEvT_S7_RT0_ = comdat any

$_ZSt26__unguarded_insertion_sortIPdN9__gnu_cxx5__ops15_Iter_comp_iterISt7greaterIdEEEEvT_S7_T0_ = comdat any

$_ZSt11max_elementIPKdET_S2_S2_ = comdat any

$_ZNK6dealii6VectorIdE5beginEv = comdat any

$_ZNK6dealii6VectorIdE3endEv = comdat any

$_ZSt13__max_elementIPKdN9__gnu_cxx5__ops15_Iter_less_iterEET_S5_S5_T0_ = comdat any

$_ZN9__gnu_cxx5__ops16__iter_less_iterEv = comdat any

$_ZNK9__gnu_cxx5__ops15_Iter_less_iterclIPKdS4_EEbT_T0_ = comdat any

$_ZSt11min_elementIPKdET_S2_S2_ = comdat any

$_ZSt13__min_elementIPKdN9__gnu_cxx5__ops15_Iter_less_iterEET_S5_S5_T0_ = comdat any

$_ZSt6__sortIPfN9__gnu_cxx5__ops15_Iter_comp_iterISt7greaterIdEEEEvT_S7_T0_ = comdat any

$_ZSt16__introsort_loopIPflN9__gnu_cxx5__ops15_Iter_comp_iterISt7greaterIdEEEEvT_S7_T0_T1_ = comdat any

$_ZSt22__final_insertion_sortIPfN9__gnu_cxx5__ops15_Iter_comp_iterISt7greaterIdEEEEvT_S7_T0_ = comdat any

$_ZSt14__partial_sortIPfN9__gnu_cxx5__ops15_Iter_comp_iterISt7greaterIdEEEEvT_S7_S7_T0_ = comdat any

$_ZSt11__sort_heapIPfN9__gnu_cxx5__ops15_Iter_comp_iterISt7greaterIdEEEEvT_S7_RT0_ = comdat any

$_ZSt26__unguarded_insertion_sortIPfN9__gnu_cxx5__ops15_Iter_comp_iterISt7greaterIdEEEEvT_S7_T0_ = comdat any

$_ZSt11max_elementIPKfET_S2_S2_ = comdat any

$_ZNK6dealii6VectorIfE5beginEv = comdat any

$_ZNK6dealii6VectorIfE3endEv = comdat any

$_ZSt13__max_elementIPKfN9__gnu_cxx5__ops15_Iter_less_iterEET_S5_S5_T0_ = comdat any

$_ZNK9__gnu_cxx5__ops15_Iter_less_iterclIPKfS4_EEbT_T0_ = comdat any

$_ZSt11min_elementIPKfET_S2_S2_ = comdat any

$_ZSt13__min_elementIPKfN9__gnu_cxx5__ops15_Iter_less_iterEET_S5_S5_T0_ = comdat any

$_ZN9__gnu_cxx13new_allocatorIjEC2Ev = comdat any

$_ZN9__gnu_cxx13new_allocatorIjED2Ev = comdat any

$_ZNSt6vectorIjSaIjEE17_S_check_init_lenEmRKS0_ = comdat any

$_ZNSt12_Vector_baseIjSaIjEEC2EmRKS0_ = comdat any

$_ZNSt6vectorIjSaIjEE21_M_default_initializeEm = comdat any

$_ZNSt12_Vector_baseIjSaIjEED2Ev = comdat any

$_ZNSt6vectorIjSaIjEE11_S_max_sizeERKS0_ = comdat any

$_ZNSaIjEC2ERKS_ = comdat any

$_ZNSt16allocator_traitsISaIjEE8max_sizeERKS0_ = comdat any

$_ZSt3minImERKT_S2_S2_ = comdat any

$__clang_call_terminate = comdat any

$_ZNK9__gnu_cxx13new_allocatorIjE8max_sizeEv = comdat any

$_ZNK9__gnu_cxx13new_allocatorIjE11_M_max_sizeEv = comdat any

$_ZN9__gnu_cxx13new_allocatorIjEC2ERKS1_ = comdat any

$_ZNSt12_Vector_baseIjSaIjEE12_Vector_implC2ERKS0_ = comdat any

$_ZNSt12_Vector_baseIjSaIjEE17_M_create_storageEm = comdat any

$_ZNSt12_Vector_baseIjSaIjEE12_Vector_implD2Ev = comdat any

$_ZNSt12_Vector_baseIjSaIjEE17_Vector_impl_dataC2Ev = comdat any

$_ZNSt12_Vector_baseIjSaIjEE11_M_allocateEm = comdat any

$_ZNSt16allocator_traitsISaIjEE8allocateERS0_m = comdat any

$_ZN9__gnu_cxx13new_allocatorIjE8allocateEmPKv = comdat any

$_ZSt27__uninitialized_default_n_aIPjmjET_S1_T0_RSaIT1_E = comdat any

$_ZNSt12_Vector_baseIjSaIjEE19_M_get_Tp_allocatorEv = comdat any

$_ZSt25__uninitialized_default_nIPjmET_S1_T0_ = comdat any

$_ZNSt27__uninitialized_default_n_1ILb1EE18__uninit_default_nIPjmEET_S3_T0_ = comdat any

$_ZSt6fill_nIPjmjET_S1_T0_RKT1_ = comdat any

$_ZSt10__fill_n_aIPjmjET_S1_T0_RKT1_St26random_access_iterator_tag = comdat any

$_ZSt17__size_to_integerm = comdat any

$_ZSt19__iterator_categoryIPjENSt15iterator_traitsIT_E17iterator_categoryERKS2_ = comdat any

$_ZSt8__fill_aIPjjEvT_S1_RKT0_ = comdat any

$_ZSt9__fill_a1IPjjEN9__gnu_cxx11__enable_ifIXsr11__is_scalarIT0_EE7__valueEvE6__typeET_S6_RKS3_ = comdat any

$_ZNSt12_Vector_baseIjSaIjEE13_M_deallocateEPjm = comdat any

$_ZNSt16allocator_traitsISaIjEE10deallocateERS0_Pjm = comdat any

$_ZN9__gnu_cxx13new_allocatorIjE10deallocateEPjm = comdat any

$_ZSt8_DestroyIPjjEvT_S1_RSaIT0_E = comdat any

$_ZSt8_DestroyIPjEvT_S1_ = comdat any

$_ZNSt12_Destroy_auxILb1EE9__destroyIPjEEvT_S3_ = comdat any

$_ZTVN6dealii6VectorIdEE = comdat any

$_ZTSN6dealii6VectorIdEE = comdat any

$_ZTIN6dealii6VectorIdEE = comdat any

$_ZTVN6dealii6VectorIfEE = comdat any

$_ZTSN6dealii6VectorIfEE = comdat any

$_ZTIN6dealii6VectorIfEE = comdat any

@_ZN12_GLOBAL__N_12_1E = internal global %"struct.boost::arg" zeroinitializer, align 1, !dbg !0
@_ZN12_GLOBAL__N_12_2E = internal global %"struct.boost::arg.0" zeroinitializer, align 1, !dbg !15
@_ZN12_GLOBAL__N_12_3E = internal global %"struct.boost::arg.2" zeroinitializer, align 1, !dbg !25
@_ZN12_GLOBAL__N_12_4E = internal global %"struct.boost::arg.4" zeroinitializer, align 1, !dbg !35
@_ZN12_GLOBAL__N_12_5E = internal global %"struct.boost::arg.6" zeroinitializer, align 1, !dbg !45
@_ZN12_GLOBAL__N_12_6E = internal global %"struct.boost::arg.8" zeroinitializer, align 1, !dbg !55
@_ZN12_GLOBAL__N_12_7E = internal global %"struct.boost::arg.10" zeroinitializer, align 1, !dbg !65
@_ZN12_GLOBAL__N_12_8E = internal global %"struct.boost::arg.12" zeroinitializer, align 1, !dbg !75
@_ZN12_GLOBAL__N_12_9E = internal global %"struct.boost::arg.14" zeroinitializer, align 1, !dbg !85
@_ZStL8__ioinit = internal global %"class.std::ios_base::Init" zeroinitializer, align 1, !dbg !95
@__dso_handle = external hidden global i8
@_ZTVN6dealii6VectorIdEE = linkonce_odr dso_local unnamed_addr constant { [6 x i8*] } { [6 x i8*] [i8* null, i8* bitcast ({ i8*, i8*, i8* }* @_ZTIN6dealii6VectorIdEE to i8*), i8* bitcast (void (%"class.dealii::Vector.109"*)* @_ZN6dealii6VectorIdED2Ev to i8*), i8* bitcast (void (%"class.dealii::Vector.109"*)* @_ZN6dealii6VectorIdED0Ev to i8*), i8* bitcast (void (%"class.dealii::Vector.109"*, i32, i1)* @_ZN6dealii6VectorIdE6reinitEjb to i8*), i8* bitcast (void (%"class.dealii::Vector.109"*, %"class.dealii::Vector.109"*)* @_ZN6dealii6VectorIdE4swapERS1_ to i8*)] }, comdat, align 8
@_ZTVN10__cxxabiv120__si_class_type_infoE = external dso_local global i8*
@_ZTSN6dealii6VectorIdEE = linkonce_odr dso_local constant [20 x i8] c"N6dealii6VectorIdEE\00", comdat, align 1
@_ZTIN6dealii11SubscriptorE = external dso_local constant i8*
@_ZTIN6dealii6VectorIdEE = linkonce_odr dso_local constant { i8*, i8*, i8* } { i8* bitcast (i8** getelementptr inbounds (i8*, i8** @_ZTVN10__cxxabiv120__si_class_type_infoE, i64 2) to i8*), i8* getelementptr inbounds ([20 x i8], [20 x i8]* @_ZTSN6dealii6VectorIdEE, i32 0, i32 0), i8* bitcast (i8** @_ZTIN6dealii11SubscriptorE to i8*) }, comdat, align 8
@_ZTVN6dealii6VectorIfEE = linkonce_odr dso_local unnamed_addr constant { [6 x i8*] } { [6 x i8*] [i8* null, i8* bitcast ({ i8*, i8*, i8* }* @_ZTIN6dealii6VectorIfEE to i8*), i8* bitcast (void (%"class.dealii::Vector"*)* @_ZN6dealii6VectorIfED2Ev to i8*), i8* bitcast (void (%"class.dealii::Vector"*)* @_ZN6dealii6VectorIfED0Ev to i8*), i8* bitcast (void (%"class.dealii::Vector"*, i32, i1)* @_ZN6dealii6VectorIfE6reinitEjb to i8*), i8* bitcast (void (%"class.dealii::Vector"*, %"class.dealii::Vector"*)* @_ZN6dealii6VectorIfE4swapERS1_ to i8*)] }, comdat, align 8
@_ZTSN6dealii6VectorIfEE = linkonce_odr dso_local constant [20 x i8] c"N6dealii6VectorIfEE\00", comdat, align 1
@_ZTIN6dealii6VectorIfEE = linkonce_odr dso_local constant { i8*, i8*, i8* } { i8* bitcast (i8** getelementptr inbounds (i8*, i8** @_ZTVN10__cxxabiv120__si_class_type_infoE, i64 2) to i8*), i8* getelementptr inbounds ([20 x i8], [20 x i8]* @_ZTSN6dealii6VectorIfEE, i32 0, i32 0), i8* bitcast (i8** @_ZTIN6dealii11SubscriptorE to i8*) }, comdat, align 8
@.str = private unnamed_addr constant [49 x i8] c"cannot create std::vector larger than max_size()\00", align 1
@llvm.global_ctors = appending global [1 x { i32, void ()*, i8* }] [{ i32, void ()*, i8* } { i32 65535, void ()* @_GLOBAL__sub_I_grid_refinement.cc, i8* null }]

; Function Attrs: noinline uwtable
define internal void @__cxx_global_var_init() #0 section ".text.startup" !dbg !8346 {
entry:
  call void @_ZN5boost3argILi1EEC2Ev(%"struct.boost::arg"* @_ZN12_GLOBAL__N_12_1E), !dbg !8347
  ret void, !dbg !8347
}

; Function Attrs: noinline nounwind uwtable
define linkonce_odr dso_local void @_ZN5boost3argILi1EEC2Ev(%"struct.boost::arg"* %this) unnamed_addr #1 comdat align 2 !dbg !8348 {
entry:
  %this.addr = alloca %"struct.boost::arg"*, align 8
  store %"struct.boost::arg"* %this, %"struct.boost::arg"** %this.addr, align 8
  call void @llvm.dbg.declare(metadata %"struct.boost::arg"** %this.addr, metadata !8349, metadata !DIExpression()), !dbg !8351
  %this1 = load %"struct.boost::arg"*, %"struct.boost::arg"** %this.addr, align 8
  ret void, !dbg !8352
}

; Function Attrs: noinline uwtable
define internal void @__cxx_global_var_init.1() #0 section ".text.startup" !dbg !8353 {
entry:
  call void @_ZN5boost3argILi2EEC2Ev(%"struct.boost::arg.0"* @_ZN12_GLOBAL__N_12_2E), !dbg !8354
  ret void, !dbg !8354
}

; Function Attrs: noinline nounwind uwtable
define linkonce_odr dso_local void @_ZN5boost3argILi2EEC2Ev(%"struct.boost::arg.0"* %this) unnamed_addr #1 comdat align 2 !dbg !8355 {
entry:
  %this.addr = alloca %"struct.boost::arg.0"*, align 8
  store %"struct.boost::arg.0"* %this, %"struct.boost::arg.0"** %this.addr, align 8
  call void @llvm.dbg.declare(metadata %"struct.boost::arg.0"** %this.addr, metadata !8356, metadata !DIExpression()), !dbg !8358
  %this1 = load %"struct.boost::arg.0"*, %"struct.boost::arg.0"** %this.addr, align 8
  ret void, !dbg !8359
}

; Function Attrs: noinline uwtable
define internal void @__cxx_global_var_init.2() #0 section ".text.startup" !dbg !8360 {
entry:
  call void @_ZN5boost3argILi3EEC2Ev(%"struct.boost::arg.2"* @_ZN12_GLOBAL__N_12_3E), !dbg !8361
  ret void, !dbg !8361
}

; Function Attrs: noinline nounwind uwtable
define linkonce_odr dso_local void @_ZN5boost3argILi3EEC2Ev(%"struct.boost::arg.2"* %this) unnamed_addr #1 comdat align 2 !dbg !8362 {
entry:
  %this.addr = alloca %"struct.boost::arg.2"*, align 8
  store %"struct.boost::arg.2"* %this, %"struct.boost::arg.2"** %this.addr, align 8
  call void @llvm.dbg.declare(metadata %"struct.boost::arg.2"** %this.addr, metadata !8363, metadata !DIExpression()), !dbg !8365
  %this1 = load %"struct.boost::arg.2"*, %"struct.boost::arg.2"** %this.addr, align 8
  ret void, !dbg !8366
}

; Function Attrs: noinline uwtable
define internal void @__cxx_global_var_init.3() #0 section ".text.startup" !dbg !8367 {
entry:
  call void @_ZN5boost3argILi4EEC2Ev(%"struct.boost::arg.4"* @_ZN12_GLOBAL__N_12_4E), !dbg !8368
  ret void, !dbg !8368
}

; Function Attrs: noinline nounwind uwtable
define linkonce_odr dso_local void @_ZN5boost3argILi4EEC2Ev(%"struct.boost::arg.4"* %this) unnamed_addr #1 comdat align 2 !dbg !8369 {
entry:
  %this.addr = alloca %"struct.boost::arg.4"*, align 8
  store %"struct.boost::arg.4"* %this, %"struct.boost::arg.4"** %this.addr, align 8
  call void @llvm.dbg.declare(metadata %"struct.boost::arg.4"** %this.addr, metadata !8370, metadata !DIExpression()), !dbg !8372
  %this1 = load %"struct.boost::arg.4"*, %"struct.boost::arg.4"** %this.addr, align 8
  ret void, !dbg !8373
}

; Function Attrs: noinline uwtable
define internal void @__cxx_global_var_init.4() #0 section ".text.startup" !dbg !8374 {
entry:
  call void @_ZN5boost3argILi5EEC2Ev(%"struct.boost::arg.6"* @_ZN12_GLOBAL__N_12_5E), !dbg !8375
  ret void, !dbg !8375
}

; Function Attrs: noinline nounwind uwtable
define linkonce_odr dso_local void @_ZN5boost3argILi5EEC2Ev(%"struct.boost::arg.6"* %this) unnamed_addr #1 comdat align 2 !dbg !8376 {
entry:
  %this.addr = alloca %"struct.boost::arg.6"*, align 8
  store %"struct.boost::arg.6"* %this, %"struct.boost::arg.6"** %this.addr, align 8
  call void @llvm.dbg.declare(metadata %"struct.boost::arg.6"** %this.addr, metadata !8377, metadata !DIExpression()), !dbg !8379
  %this1 = load %"struct.boost::arg.6"*, %"struct.boost::arg.6"** %this.addr, align 8
  ret void, !dbg !8380
}

; Function Attrs: noinline uwtable
define internal void @__cxx_global_var_init.5() #0 section ".text.startup" !dbg !8381 {
entry:
  call void @_ZN5boost3argILi6EEC2Ev(%"struct.boost::arg.8"* @_ZN12_GLOBAL__N_12_6E), !dbg !8382
  ret void, !dbg !8382
}

; Function Attrs: noinline nounwind uwtable
define linkonce_odr dso_local void @_ZN5boost3argILi6EEC2Ev(%"struct.boost::arg.8"* %this) unnamed_addr #1 comdat align 2 !dbg !8383 {
entry:
  %this.addr = alloca %"struct.boost::arg.8"*, align 8
  store %"struct.boost::arg.8"* %this, %"struct.boost::arg.8"** %this.addr, align 8
  call void @llvm.dbg.declare(metadata %"struct.boost::arg.8"** %this.addr, metadata !8384, metadata !DIExpression()), !dbg !8386
  %this1 = load %"struct.boost::arg.8"*, %"struct.boost::arg.8"** %this.addr, align 8
  ret void, !dbg !8387
}

; Function Attrs: noinline uwtable
define internal void @__cxx_global_var_init.6() #0 section ".text.startup" !dbg !8388 {
entry:
  call void @_ZN5boost3argILi7EEC2Ev(%"struct.boost::arg.10"* @_ZN12_GLOBAL__N_12_7E), !dbg !8389
  ret void, !dbg !8389
}

; Function Attrs: noinline nounwind uwtable
define linkonce_odr dso_local void @_ZN5boost3argILi7EEC2Ev(%"struct.boost::arg.10"* %this) unnamed_addr #1 comdat align 2 !dbg !8390 {
entry:
  %this.addr = alloca %"struct.boost::arg.10"*, align 8
  store %"struct.boost::arg.10"* %this, %"struct.boost::arg.10"** %this.addr, align 8
  call void @llvm.dbg.declare(metadata %"struct.boost::arg.10"** %this.addr, metadata !8391, metadata !DIExpression()), !dbg !8393
  %this1 = load %"struct.boost::arg.10"*, %"struct.boost::arg.10"** %this.addr, align 8
  ret void, !dbg !8394
}

; Function Attrs: noinline uwtable
define internal void @__cxx_global_var_init.7() #0 section ".text.startup" !dbg !8395 {
entry:
  call void @_ZN5boost3argILi8EEC2Ev(%"struct.boost::arg.12"* @_ZN12_GLOBAL__N_12_8E), !dbg !8396
  ret void, !dbg !8396
}

; Function Attrs: noinline nounwind uwtable
define linkonce_odr dso_local void @_ZN5boost3argILi8EEC2Ev(%"struct.boost::arg.12"* %this) unnamed_addr #1 comdat align 2 !dbg !8397 {
entry:
  %this.addr = alloca %"struct.boost::arg.12"*, align 8
  store %"struct.boost::arg.12"* %this, %"struct.boost::arg.12"** %this.addr, align 8
  call void @llvm.dbg.declare(metadata %"struct.boost::arg.12"** %this.addr, metadata !8398, metadata !DIExpression()), !dbg !8400
  %this1 = load %"struct.boost::arg.12"*, %"struct.boost::arg.12"** %this.addr, align 8
  ret void, !dbg !8401
}

; Function Attrs: noinline uwtable
define internal void @__cxx_global_var_init.8() #0 section ".text.startup" !dbg !8402 {
entry:
  call void @_ZN5boost3argILi9EEC2Ev(%"struct.boost::arg.14"* @_ZN12_GLOBAL__N_12_9E), !dbg !8403
  ret void, !dbg !8403
}

; Function Attrs: noinline nounwind uwtable
define linkonce_odr dso_local void @_ZN5boost3argILi9EEC2Ev(%"struct.boost::arg.14"* %this) unnamed_addr #1 comdat align 2 !dbg !8404 {
entry:
  %this.addr = alloca %"struct.boost::arg.14"*, align 8
  store %"struct.boost::arg.14"* %this, %"struct.boost::arg.14"** %this.addr, align 8
  call void @llvm.dbg.declare(metadata %"struct.boost::arg.14"** %this.addr, metadata !8405, metadata !DIExpression()), !dbg !8407
  %this1 = load %"struct.boost::arg.14"*, %"struct.boost::arg.14"** %this.addr, align 8
  ret void, !dbg !8408
}

; Function Attrs: noinline uwtable
define internal void @__cxx_global_var_init.9() #0 section ".text.startup" !dbg !8409 {
entry:
  call void @_ZNSt8ios_base4InitC1Ev(%"class.std::ios_base::Init"* @_ZStL8__ioinit), !dbg !8410
  %0 = call i32 @__cxa_atexit(void (i8*)* bitcast (void (%"class.std::ios_base::Init"*)* @_ZNSt8ios_base4InitD1Ev to void (i8*)*), i8* getelementptr inbounds (%"class.std::ios_base::Init", %"class.std::ios_base::Init"* @_ZStL8__ioinit, i32 0, i32 0), i8* @__dso_handle) #4, !dbg !8410
  ret void, !dbg !8410
}

declare dso_local void @_ZNSt8ios_base4InitC1Ev(%"class.std::ios_base::Init"*) unnamed_addr #2

; Function Attrs: nounwind
declare dso_local void @_ZNSt8ios_base4InitD1Ev(%"class.std::ios_base::Init"*) unnamed_addr #3

; Function Attrs: nounwind
declare dso_local i32 @__cxa_atexit(void (i8*)*, i8*, i8*) #4

; Function Attrs: noinline uwtable
define weak_odr dso_local void @_ZN6dealii14GridRefinement6refineILi3ENS_6VectorIfEELi3EEEvRNS_13TriangulationIXT_EXT1_EEERKT0_d(%"class.dealii::Triangulation"* dereferenceable(8552) %tria, %"class.dealii::Vector"* dereferenceable(88) %criteria, double %threshold) #0 comdat !dbg !8411 {
entry:
  %tria.addr = alloca %"class.dealii::Triangulation"*, align 8
  %criteria.addr = alloca %"class.dealii::Vector"*, align 8
  %threshold.addr = alloca double, align 8
  %cell = alloca %"class.dealii::TriaActiveIterator", align 8
  %n_cells = alloca i32, align 4
  %new_threshold = alloca double, align 8
  %index = alloca i32, align 4
  %index15 = alloca i32, align 4
  %agg.tmp = alloca %"class.dealii::RefinementCase", align 1
  store %"class.dealii::Triangulation"* %tria, %"class.dealii::Triangulation"** %tria.addr, align 8
  call void @llvm.dbg.declare(metadata %"class.dealii::Triangulation"** %tria.addr, metadata !8567, metadata !DIExpression()), !dbg !8568
  store %"class.dealii::Vector"* %criteria, %"class.dealii::Vector"** %criteria.addr, align 8
  call void @llvm.dbg.declare(metadata %"class.dealii::Vector"** %criteria.addr, metadata !8569, metadata !DIExpression()), !dbg !8570
  store double %threshold, double* %threshold.addr, align 8
  call void @llvm.dbg.declare(metadata double* %threshold.addr, metadata !8571, metadata !DIExpression()), !dbg !8572
  %0 = load %"class.dealii::Vector"*, %"class.dealii::Vector"** %criteria.addr, align 8, !dbg !8573
  %call = call zeroext i1 @_ZNK6dealii6VectorIfE8all_zeroEv(%"class.dealii::Vector"* %0), !dbg !8575
  br i1 %call, label %if.then, label %if.end, !dbg !8576

if.then:                                          ; preds = %entry
  br label %for.end29, !dbg !8577

if.end:                                           ; preds = %entry
  call void @llvm.dbg.declare(metadata %"class.dealii::TriaActiveIterator"* %cell, metadata !8578, metadata !DIExpression()), !dbg !9534
  %1 = load %"class.dealii::Triangulation"*, %"class.dealii::Triangulation"** %tria.addr, align 8, !dbg !9535
  call void @_ZNK6dealii13TriangulationILi3ELi3EE12begin_activeEj(%"class.dealii::TriaActiveIterator"* sret %cell, %"class.dealii::Triangulation"* %1, i32 0), !dbg !9536
  call void @llvm.dbg.declare(metadata i32* %n_cells, metadata !9537, metadata !DIExpression()), !dbg !9538
  %2 = load %"class.dealii::Vector"*, %"class.dealii::Vector"** %criteria.addr, align 8, !dbg !9539
  %call1 = call i32 @_ZNK6dealii6VectorIfE4sizeEv(%"class.dealii::Vector"* %2), !dbg !9540
  store i32 %call1, i32* %n_cells, align 4, !dbg !9538
  call void @llvm.dbg.declare(metadata double* %new_threshold, metadata !9541, metadata !DIExpression()), !dbg !9542
  %3 = load double, double* %threshold.addr, align 8, !dbg !9543
  store double %3, double* %new_threshold, align 8, !dbg !9542
  %4 = load double, double* %new_threshold, align 8, !dbg !9544
  %cmp = fcmp oeq double %4, 0.000000e+00, !dbg !9546
  br i1 %cmp, label %if.then2, label %if.end14, !dbg !9547

if.then2:                                         ; preds = %if.end
  %5 = load %"class.dealii::Vector"*, %"class.dealii::Vector"** %criteria.addr, align 8, !dbg !9548
  %call3 = call float @_ZNK6dealii6VectorIfEclEj(%"class.dealii::Vector"* %5, i32 0), !dbg !9548
  %conv = fpext float %call3 to double, !dbg !9548
  store double %conv, double* %new_threshold, align 8, !dbg !9550
  call void @llvm.dbg.declare(metadata i32* %index, metadata !9551, metadata !DIExpression()), !dbg !9553
  store i32 1, i32* %index, align 4, !dbg !9553
  br label %for.cond, !dbg !9554

for.cond:                                         ; preds = %for.inc, %if.then2
  %6 = load i32, i32* %index, align 4, !dbg !9555
  %7 = load i32, i32* %n_cells, align 4, !dbg !9557
  %cmp4 = icmp ult i32 %6, %7, !dbg !9558
  br i1 %cmp4, label %for.body, label %for.end, !dbg !9559

for.body:                                         ; preds = %for.cond
  %8 = load %"class.dealii::Vector"*, %"class.dealii::Vector"** %criteria.addr, align 8, !dbg !9560
  %9 = load i32, i32* %index, align 4, !dbg !9562
  %call5 = call float @_ZNK6dealii6VectorIfEclEj(%"class.dealii::Vector"* %8, i32 %9), !dbg !9560
  %cmp6 = fcmp ogt float %call5, 0.000000e+00, !dbg !9563
  br i1 %cmp6, label %land.lhs.true, label %if.end13, !dbg !9564

land.lhs.true:                                    ; preds = %for.body
  %10 = load %"class.dealii::Vector"*, %"class.dealii::Vector"** %criteria.addr, align 8, !dbg !9565
  %11 = load i32, i32* %index, align 4, !dbg !9566
  %call7 = call float @_ZNK6dealii6VectorIfEclEj(%"class.dealii::Vector"* %10, i32 %11), !dbg !9565
  %conv8 = fpext float %call7 to double, !dbg !9565
  %12 = load double, double* %new_threshold, align 8, !dbg !9567
  %cmp9 = fcmp olt double %conv8, %12, !dbg !9568
  br i1 %cmp9, label %if.then10, label %if.end13, !dbg !9569

if.then10:                                        ; preds = %land.lhs.true
  %13 = load %"class.dealii::Vector"*, %"class.dealii::Vector"** %criteria.addr, align 8, !dbg !9570
  %14 = load i32, i32* %index, align 4, !dbg !9571
  %call11 = call float @_ZNK6dealii6VectorIfEclEj(%"class.dealii::Vector"* %13, i32 %14), !dbg !9570
  %conv12 = fpext float %call11 to double, !dbg !9570
  store double %conv12, double* %new_threshold, align 8, !dbg !9572
  br label %if.end13, !dbg !9573

if.end13:                                         ; preds = %if.then10, %land.lhs.true, %for.body
  br label %for.inc, !dbg !9574

for.inc:                                          ; preds = %if.end13
  %15 = load i32, i32* %index, align 4, !dbg !9575
  %inc = add i32 %15, 1, !dbg !9575
  store i32 %inc, i32* %index, align 4, !dbg !9575
  br label %for.cond, !dbg !9576, !llvm.loop !9577

for.end:                                          ; preds = %for.cond
  br label %if.end14, !dbg !9579

if.end14:                                         ; preds = %for.end, %if.end
  call void @llvm.dbg.declare(metadata i32* %index15, metadata !9580, metadata !DIExpression()), !dbg !9582
  store i32 0, i32* %index15, align 4, !dbg !9582
  br label %for.cond16, !dbg !9583

for.cond16:                                       ; preds = %for.inc26, %if.end14
  %16 = load i32, i32* %index15, align 4, !dbg !9584
  %17 = load i32, i32* %n_cells, align 4, !dbg !9586
  %cmp17 = icmp ult i32 %16, %17, !dbg !9587
  br i1 %cmp17, label %for.body18, label %for.end29, !dbg !9588

for.body18:                                       ; preds = %for.cond16
  %18 = load %"class.dealii::Vector"*, %"class.dealii::Vector"** %criteria.addr, align 8, !dbg !9589
  %19 = load i32, i32* %index15, align 4, !dbg !9591
  %call19 = call float @_ZNK6dealii6VectorIfEclEj(%"class.dealii::Vector"* %18, i32 %19), !dbg !9589
  %call20 = call float @_ZSt4fabsf(float %call19), !dbg !9592
  %conv21 = fpext float %call20 to double, !dbg !9592
  %20 = load double, double* %new_threshold, align 8, !dbg !9593
  %cmp22 = fcmp oge double %conv21, %20, !dbg !9594
  br i1 %cmp22, label %if.then23, label %if.end25, !dbg !9595

if.then23:                                        ; preds = %for.body18
  %21 = bitcast %"class.dealii::TriaActiveIterator"* %cell to %"class.dealii::TriaRawIterator"*, !dbg !9596
  %call24 = call %"class.dealii::CellAccessor"* @_ZN6dealii15TriaRawIteratorINS_12CellAccessorILi3ELi3EEEEptEv(%"class.dealii::TriaRawIterator"* %21), !dbg !9596
  call void @_ZN6dealii14RefinementCaseILi3EEC2ENS_23RefinementPossibilitiesILi3EE13PossibilitiesE(%"class.dealii::RefinementCase"* %agg.tmp, i32 7), !dbg !9597
  %coerce.dive = getelementptr inbounds %"class.dealii::RefinementCase", %"class.dealii::RefinementCase"* %agg.tmp, i32 0, i32 0, !dbg !9597
  %22 = load i8, i8* %coerce.dive, align 1, !dbg !9597
  call void @_ZNK6dealii12CellAccessorILi3ELi3EE15set_refine_flagENS_14RefinementCaseILi3EEE(%"class.dealii::CellAccessor"* %call24, i8 %22), !dbg !9597
  br label %if.end25, !dbg !9596

if.end25:                                         ; preds = %if.then23, %for.body18
  br label %for.inc26, !dbg !9593

for.inc26:                                        ; preds = %if.end25
  %call27 = call dereferenceable(16) %"class.dealii::TriaActiveIterator"* @_ZN6dealii18TriaActiveIteratorINS_12CellAccessorILi3ELi3EEEEppEv(%"class.dealii::TriaActiveIterator"* %cell), !dbg !9598
  %23 = load i32, i32* %index15, align 4, !dbg !9599
  %inc28 = add i32 %23, 1, !dbg !9599
  store i32 %inc28, i32* %index15, align 4, !dbg !9599
  br label %for.cond16, !dbg !9600, !llvm.loop !9601

for.end29:                                        ; preds = %if.then, %for.cond16
  ret void, !dbg !9603
}

; Function Attrs: nounwind readnone speculatable willreturn
declare void @llvm.dbg.declare(metadata, metadata, metadata) #5

declare dso_local zeroext i1 @_ZNK6dealii6VectorIfE8all_zeroEv(%"class.dealii::Vector"*) #2

declare dso_local void @_ZNK6dealii13TriangulationILi3ELi3EE12begin_activeEj(%"class.dealii::TriaActiveIterator"* sret, %"class.dealii::Triangulation"*, i32) #2

; Function Attrs: noinline nounwind uwtable
define linkonce_odr dso_local i32 @_ZNK6dealii6VectorIfE4sizeEv(%"class.dealii::Vector"* %this) #1 comdat align 2 !dbg !9604 {
entry:
  %this.addr = alloca %"class.dealii::Vector"*, align 8
  store %"class.dealii::Vector"* %this, %"class.dealii::Vector"** %this.addr, align 8
  call void @llvm.dbg.declare(metadata %"class.dealii::Vector"** %this.addr, metadata !9605, metadata !DIExpression()), !dbg !9607
  %this1 = load %"class.dealii::Vector"*, %"class.dealii::Vector"** %this.addr, align 8
  %vec_size = getelementptr inbounds %"class.dealii::Vector", %"class.dealii::Vector"* %this1, i32 0, i32 1, !dbg !9608
  %0 = load i32, i32* %vec_size, align 8, !dbg !9608
  ret i32 %0, !dbg !9609
}

; Function Attrs: noinline nounwind uwtable
define linkonce_odr dso_local float @_ZNK6dealii6VectorIfEclEj(%"class.dealii::Vector"* %this, i32 %i) #1 comdat align 2 !dbg !9610 {
entry:
  %this.addr = alloca %"class.dealii::Vector"*, align 8
  %i.addr = alloca i32, align 4
  store %"class.dealii::Vector"* %this, %"class.dealii::Vector"** %this.addr, align 8
  call void @llvm.dbg.declare(metadata %"class.dealii::Vector"** %this.addr, metadata !9611, metadata !DIExpression()), !dbg !9612
  store i32 %i, i32* %i.addr, align 4
  call void @llvm.dbg.declare(metadata i32* %i.addr, metadata !9613, metadata !DIExpression()), !dbg !9614
  %this1 = load %"class.dealii::Vector"*, %"class.dealii::Vector"** %this.addr, align 8
  %val = getelementptr inbounds %"class.dealii::Vector", %"class.dealii::Vector"* %this1, i32 0, i32 3, !dbg !9615
  %0 = load float*, float** %val, align 8, !dbg !9615
  %1 = load i32, i32* %i.addr, align 4, !dbg !9616
  %idxprom = zext i32 %1 to i64, !dbg !9615
  %arrayidx = getelementptr inbounds float, float* %0, i64 %idxprom, !dbg !9615
  %2 = load float, float* %arrayidx, align 4, !dbg !9615
  ret float %2, !dbg !9617
}

; Function Attrs: noinline nounwind uwtable
define linkonce_odr dso_local float @_ZSt4fabsf(float %__x) #1 comdat !dbg !9618 {
entry:
  %__x.addr = alloca float, align 4
  store float %__x, float* %__x.addr, align 4
  call void @llvm.dbg.declare(metadata float* %__x.addr, metadata !9619, metadata !DIExpression()), !dbg !9620
  %0 = load float, float* %__x.addr, align 4, !dbg !9621
  %1 = call float @llvm.fabs.f32(float %0), !dbg !9622
  ret float %1, !dbg !9623
}

; Function Attrs: noinline uwtable
define linkonce_odr dso_local %"class.dealii::CellAccessor"* @_ZN6dealii15TriaRawIteratorINS_12CellAccessorILi3ELi3EEEEptEv(%"class.dealii::TriaRawIterator"* %this) #0 comdat align 2 !dbg !9624 {
entry:
  %this.addr = alloca %"class.dealii::TriaRawIterator"*, align 8
  store %"class.dealii::TriaRawIterator"* %this, %"class.dealii::TriaRawIterator"** %this.addr, align 8
  call void @llvm.dbg.declare(metadata %"class.dealii::TriaRawIterator"** %this.addr, metadata !9625, metadata !DIExpression()), !dbg !9627
  %this1 = load %"class.dealii::TriaRawIterator"*, %"class.dealii::TriaRawIterator"** %this.addr, align 8
  %call = call dereferenceable(16) %"class.dealii::CellAccessor"* @_ZN6dealii15TriaRawIteratorINS_12CellAccessorILi3ELi3EEEEdeEv(%"class.dealii::TriaRawIterator"* %this1), !dbg !9628
  ret %"class.dealii::CellAccessor"* %call, !dbg !9629
}

; Function Attrs: noinline nounwind uwtable
define linkonce_odr dso_local void @_ZNK6dealii12CellAccessorILi3ELi3EE15set_refine_flagENS_14RefinementCaseILi3EEE(%"class.dealii::CellAccessor"* %this, i8 %refinement_case.coerce) #1 comdat align 2 !dbg !9630 {
entry:
  %refinement_case = alloca %"class.dealii::RefinementCase", align 1
  %this.addr = alloca %"class.dealii::CellAccessor"*, align 8
  %coerce.dive = getelementptr inbounds %"class.dealii::RefinementCase", %"class.dealii::RefinementCase"* %refinement_case, i32 0, i32 0
  store i8 %refinement_case.coerce, i8* %coerce.dive, align 1
  store %"class.dealii::CellAccessor"* %this, %"class.dealii::CellAccessor"** %this.addr, align 8
  call void @llvm.dbg.declare(metadata %"class.dealii::CellAccessor"** %this.addr, metadata !9631, metadata !DIExpression()), !dbg !9632
  call void @llvm.dbg.declare(metadata %"class.dealii::RefinementCase"* %refinement_case, metadata !9633, metadata !DIExpression()), !dbg !9634
  %this1 = load %"class.dealii::CellAccessor"*, %"class.dealii::CellAccessor"** %this.addr, align 8
  %call = call zeroext i8 @_ZNK6dealii14RefinementCaseILi3EEcvhEv(%"class.dealii::RefinementCase"* %refinement_case), !dbg !9635
  %0 = bitcast %"class.dealii::CellAccessor"* %this1 to %"class.dealii::TriaAccessorBase"*, !dbg !9636
  %tria = getelementptr inbounds %"class.dealii::TriaAccessorBase", %"class.dealii::TriaAccessorBase"* %0, i32 0, i32 2, !dbg !9636
  %1 = load %"class.dealii::Triangulation"*, %"class.dealii::Triangulation"** %tria, align 8, !dbg !9636
  %levels = getelementptr inbounds %"class.dealii::Triangulation", %"class.dealii::Triangulation"* %1, i32 0, i32 1, !dbg !9637
  %2 = bitcast %"class.dealii::CellAccessor"* %this1 to %"class.dealii::TriaAccessorBase"*, !dbg !9638
  %present_level = getelementptr inbounds %"class.dealii::TriaAccessorBase", %"class.dealii::TriaAccessorBase"* %2, i32 0, i32 0, !dbg !9638
  %3 = load i32, i32* %present_level, align 8, !dbg !9638
  %conv = sext i32 %3 to i64, !dbg !9639
  %call2 = call dereferenceable(8) %"class.dealii::internal::Triangulation::TriaLevel"** @_ZNKSt6vectorIPN6dealii8internal13Triangulation9TriaLevelILi3EEESaIS5_EEixEm(%"class.std::vector"* %levels, i64 %conv) #4, !dbg !9640
  %4 = load %"class.dealii::internal::Triangulation::TriaLevel"*, %"class.dealii::internal::Triangulation::TriaLevel"** %call2, align 8, !dbg !9640
  %refine_flags = getelementptr inbounds %"class.dealii::internal::Triangulation::TriaLevel", %"class.dealii::internal::Triangulation::TriaLevel"* %4, i32 0, i32 0, !dbg !9641
  %5 = bitcast %"class.dealii::CellAccessor"* %this1 to %"class.dealii::TriaAccessorBase"*, !dbg !9642
  %present_index = getelementptr inbounds %"class.dealii::TriaAccessorBase", %"class.dealii::TriaAccessorBase"* %5, i32 0, i32 1, !dbg !9642
  %6 = load i32, i32* %present_index, align 4, !dbg !9642
  %conv3 = sext i32 %6 to i64, !dbg !9643
  %call4 = call dereferenceable(1) i8* @_ZNSt6vectorIhSaIhEEixEm(%"class.std::vector.19"* %refine_flags, i64 %conv3) #4, !dbg !9640
  store i8 %call, i8* %call4, align 1, !dbg !9644
  ret void, !dbg !9645
}

; Function Attrs: noinline nounwind uwtable
define linkonce_odr dso_local void @_ZN6dealii14RefinementCaseILi3EEC2ENS_23RefinementPossibilitiesILi3EE13PossibilitiesE(%"class.dealii::RefinementCase"* %this, i32 %refinement_case) unnamed_addr #1 comdat align 2 !dbg !9646 {
entry:
  %this.addr = alloca %"class.dealii::RefinementCase"*, align 8
  %refinement_case.addr = alloca i32, align 4
  store %"class.dealii::RefinementCase"* %this, %"class.dealii::RefinementCase"** %this.addr, align 8
  call void @llvm.dbg.declare(metadata %"class.dealii::RefinementCase"** %this.addr, metadata !9647, metadata !DIExpression()), !dbg !9648
  store i32 %refinement_case, i32* %refinement_case.addr, align 4
  call void @llvm.dbg.declare(metadata i32* %refinement_case.addr, metadata !9649, metadata !DIExpression()), !dbg !9650
  %this1 = load %"class.dealii::RefinementCase"*, %"class.dealii::RefinementCase"** %this.addr, align 8
  %0 = bitcast %"class.dealii::RefinementCase"* %this1 to %"struct.dealii::RefinementPossibilities"*, !dbg !9651
  %1 = bitcast %"class.dealii::RefinementCase"* %this1 to i8*, !dbg !9652
  %2 = load i32, i32* %refinement_case.addr, align 4, !dbg !9653
  %conv = trunc i32 %2 to i8, !dbg !9653
  %bf.load = load i8, i8* %1, align 1, !dbg !9652
  %bf.value = and i8 %conv, 7, !dbg !9652
  %bf.clear = and i8 %bf.load, -8, !dbg !9652
  %bf.set = or i8 %bf.clear, %bf.value, !dbg !9652
  store i8 %bf.set, i8* %1, align 1, !dbg !9652
  ret void, !dbg !9654
}

; Function Attrs: noinline uwtable
define linkonce_odr dso_local dereferenceable(16) %"class.dealii::TriaActiveIterator"* @_ZN6dealii18TriaActiveIteratorINS_12CellAccessorILi3ELi3EEEEppEv(%"class.dealii::TriaActiveIterator"* %this) #0 comdat align 2 !dbg !9655 {
entry:
  %retval = alloca %"class.dealii::TriaActiveIterator"*, align 8
  %this.addr = alloca %"class.dealii::TriaActiveIterator"*, align 8
  store %"class.dealii::TriaActiveIterator"* %this, %"class.dealii::TriaActiveIterator"** %this.addr, align 8
  call void @llvm.dbg.declare(metadata %"class.dealii::TriaActiveIterator"** %this.addr, metadata !9657, metadata !DIExpression()), !dbg !9659
  %this1 = load %"class.dealii::TriaActiveIterator"*, %"class.dealii::TriaActiveIterator"** %this.addr, align 8
  br label %while.cond, !dbg !9660

while.cond:                                       ; preds = %if.end, %entry
  %0 = bitcast %"class.dealii::TriaActiveIterator"* %this1 to %"class.dealii::TriaIterator"*, !dbg !9661
  %call = call dereferenceable(16) %"class.dealii::TriaIterator"* @_ZN6dealii12TriaIteratorINS_12CellAccessorILi3ELi3EEEEppEv(%"class.dealii::TriaIterator"* %0), !dbg !9661
  %1 = bitcast %"class.dealii::TriaActiveIterator"* %this1 to %"class.dealii::TriaRawIterator"*, !dbg !9662
  %call2 = call i32 @_ZNK6dealii15TriaRawIteratorINS_12CellAccessorILi3ELi3EEEE5stateEv(%"class.dealii::TriaRawIterator"* %1), !dbg !9662
  %cmp = icmp eq i32 %call2, 0, !dbg !9663
  br i1 %cmp, label %while.body, label %while.end, !dbg !9660

while.body:                                       ; preds = %while.cond
  %2 = bitcast %"class.dealii::TriaActiveIterator"* %this1 to %"class.dealii::TriaRawIterator"*, !dbg !9664
  %accessor = getelementptr inbounds %"class.dealii::TriaRawIterator", %"class.dealii::TriaRawIterator"* %2, i32 0, i32 0, !dbg !9664
  %3 = bitcast %"class.dealii::CellAccessor"* %accessor to %"class.dealii::TriaAccessor"*, !dbg !9666
  %call3 = call zeroext i1 @_ZNK6dealii12TriaAccessorILi3ELi3ELi3EE12has_childrenEv(%"class.dealii::TriaAccessor"* %3), !dbg !9667
  %conv = zext i1 %call3 to i32, !dbg !9666
  %cmp4 = icmp eq i32 %conv, 0, !dbg !9668
  br i1 %cmp4, label %if.then, label %if.end, !dbg !9669

if.then:                                          ; preds = %while.body
  store %"class.dealii::TriaActiveIterator"* %this1, %"class.dealii::TriaActiveIterator"** %retval, align 8, !dbg !9670
  br label %return, !dbg !9670

if.end:                                           ; preds = %while.body
  br label %while.cond, !dbg !9660, !llvm.loop !9671

while.end:                                        ; preds = %while.cond
  store %"class.dealii::TriaActiveIterator"* %this1, %"class.dealii::TriaActiveIterator"** %retval, align 8, !dbg !9673
  br label %return, !dbg !9673

return:                                           ; preds = %while.end, %if.then
  %4 = load %"class.dealii::TriaActiveIterator"*, %"class.dealii::TriaActiveIterator"** %retval, align 8, !dbg !9674
  ret %"class.dealii::TriaActiveIterator"* %4, !dbg !9674
}

; Function Attrs: noinline uwtable
define weak_odr dso_local void @_ZN6dealii14GridRefinement6refineILi3ENS_6VectorIdEELi3EEEvRNS_13TriangulationIXT_EXT1_EEERKT0_d(%"class.dealii::Triangulation"* dereferenceable(8552) %tria, %"class.dealii::Vector.109"* dereferenceable(88) %criteria, double %threshold) #0 comdat !dbg !9675 {
entry:
  %tria.addr = alloca %"class.dealii::Triangulation"*, align 8
  %criteria.addr = alloca %"class.dealii::Vector.109"*, align 8
  %threshold.addr = alloca double, align 8
  %cell = alloca %"class.dealii::TriaActiveIterator", align 8
  %n_cells = alloca i32, align 4
  %new_threshold = alloca double, align 8
  %index = alloca i32, align 4
  %index13 = alloca i32, align 4
  %agg.tmp = alloca %"class.dealii::RefinementCase", align 1
  store %"class.dealii::Triangulation"* %tria, %"class.dealii::Triangulation"** %tria.addr, align 8
  call void @llvm.dbg.declare(metadata %"class.dealii::Triangulation"** %tria.addr, metadata !9680, metadata !DIExpression()), !dbg !9681
  store %"class.dealii::Vector.109"* %criteria, %"class.dealii::Vector.109"** %criteria.addr, align 8
  call void @llvm.dbg.declare(metadata %"class.dealii::Vector.109"** %criteria.addr, metadata !9682, metadata !DIExpression()), !dbg !9683
  store double %threshold, double* %threshold.addr, align 8
  call void @llvm.dbg.declare(metadata double* %threshold.addr, metadata !9684, metadata !DIExpression()), !dbg !9685
  %0 = load %"class.dealii::Vector.109"*, %"class.dealii::Vector.109"** %criteria.addr, align 8, !dbg !9686
  %call = call zeroext i1 @_ZNK6dealii6VectorIdE8all_zeroEv(%"class.dealii::Vector.109"* %0), !dbg !9688
  br i1 %call, label %if.then, label %if.end, !dbg !9689

if.then:                                          ; preds = %entry
  br label %for.end25, !dbg !9690

if.end:                                           ; preds = %entry
  call void @llvm.dbg.declare(metadata %"class.dealii::TriaActiveIterator"* %cell, metadata !9691, metadata !DIExpression()), !dbg !9692
  %1 = load %"class.dealii::Triangulation"*, %"class.dealii::Triangulation"** %tria.addr, align 8, !dbg !9693
  call void @_ZNK6dealii13TriangulationILi3ELi3EE12begin_activeEj(%"class.dealii::TriaActiveIterator"* sret %cell, %"class.dealii::Triangulation"* %1, i32 0), !dbg !9694
  call void @llvm.dbg.declare(metadata i32* %n_cells, metadata !9695, metadata !DIExpression()), !dbg !9696
  %2 = load %"class.dealii::Vector.109"*, %"class.dealii::Vector.109"** %criteria.addr, align 8, !dbg !9697
  %call1 = call i32 @_ZNK6dealii6VectorIdE4sizeEv(%"class.dealii::Vector.109"* %2), !dbg !9698
  store i32 %call1, i32* %n_cells, align 4, !dbg !9696
  call void @llvm.dbg.declare(metadata double* %new_threshold, metadata !9699, metadata !DIExpression()), !dbg !9700
  %3 = load double, double* %threshold.addr, align 8, !dbg !9701
  store double %3, double* %new_threshold, align 8, !dbg !9700
  %4 = load double, double* %new_threshold, align 8, !dbg !9702
  %cmp = fcmp oeq double %4, 0.000000e+00, !dbg !9704
  br i1 %cmp, label %if.then2, label %if.end12, !dbg !9705

if.then2:                                         ; preds = %if.end
  %5 = load %"class.dealii::Vector.109"*, %"class.dealii::Vector.109"** %criteria.addr, align 8, !dbg !9706
  %call3 = call double @_ZNK6dealii6VectorIdEclEj(%"class.dealii::Vector.109"* %5, i32 0), !dbg !9706
  store double %call3, double* %new_threshold, align 8, !dbg !9708
  call void @llvm.dbg.declare(metadata i32* %index, metadata !9709, metadata !DIExpression()), !dbg !9711
  store i32 1, i32* %index, align 4, !dbg !9711
  br label %for.cond, !dbg !9712

for.cond:                                         ; preds = %for.inc, %if.then2
  %6 = load i32, i32* %index, align 4, !dbg !9713
  %7 = load i32, i32* %n_cells, align 4, !dbg !9715
  %cmp4 = icmp ult i32 %6, %7, !dbg !9716
  br i1 %cmp4, label %for.body, label %for.end, !dbg !9717

for.body:                                         ; preds = %for.cond
  %8 = load %"class.dealii::Vector.109"*, %"class.dealii::Vector.109"** %criteria.addr, align 8, !dbg !9718
  %9 = load i32, i32* %index, align 4, !dbg !9720
  %call5 = call double @_ZNK6dealii6VectorIdEclEj(%"class.dealii::Vector.109"* %8, i32 %9), !dbg !9718
  %cmp6 = fcmp ogt double %call5, 0.000000e+00, !dbg !9721
  br i1 %cmp6, label %land.lhs.true, label %if.end11, !dbg !9722

land.lhs.true:                                    ; preds = %for.body
  %10 = load %"class.dealii::Vector.109"*, %"class.dealii::Vector.109"** %criteria.addr, align 8, !dbg !9723
  %11 = load i32, i32* %index, align 4, !dbg !9724
  %call7 = call double @_ZNK6dealii6VectorIdEclEj(%"class.dealii::Vector.109"* %10, i32 %11), !dbg !9723
  %12 = load double, double* %new_threshold, align 8, !dbg !9725
  %cmp8 = fcmp olt double %call7, %12, !dbg !9726
  br i1 %cmp8, label %if.then9, label %if.end11, !dbg !9727

if.then9:                                         ; preds = %land.lhs.true
  %13 = load %"class.dealii::Vector.109"*, %"class.dealii::Vector.109"** %criteria.addr, align 8, !dbg !9728
  %14 = load i32, i32* %index, align 4, !dbg !9729
  %call10 = call double @_ZNK6dealii6VectorIdEclEj(%"class.dealii::Vector.109"* %13, i32 %14), !dbg !9728
  store double %call10, double* %new_threshold, align 8, !dbg !9730
  br label %if.end11, !dbg !9731

if.end11:                                         ; preds = %if.then9, %land.lhs.true, %for.body
  br label %for.inc, !dbg !9732

for.inc:                                          ; preds = %if.end11
  %15 = load i32, i32* %index, align 4, !dbg !9733
  %inc = add i32 %15, 1, !dbg !9733
  store i32 %inc, i32* %index, align 4, !dbg !9733
  br label %for.cond, !dbg !9734, !llvm.loop !9735

for.end:                                          ; preds = %for.cond
  br label %if.end12, !dbg !9737

if.end12:                                         ; preds = %for.end, %if.end
  call void @llvm.dbg.declare(metadata i32* %index13, metadata !9738, metadata !DIExpression()), !dbg !9740
  store i32 0, i32* %index13, align 4, !dbg !9740
  br label %for.cond14, !dbg !9741

for.cond14:                                       ; preds = %for.inc22, %if.end12
  %16 = load i32, i32* %index13, align 4, !dbg !9742
  %17 = load i32, i32* %n_cells, align 4, !dbg !9744
  %cmp15 = icmp ult i32 %16, %17, !dbg !9745
  br i1 %cmp15, label %for.body16, label %for.end25, !dbg !9746

for.body16:                                       ; preds = %for.cond14
  %18 = load %"class.dealii::Vector.109"*, %"class.dealii::Vector.109"** %criteria.addr, align 8, !dbg !9747
  %19 = load i32, i32* %index13, align 4, !dbg !9749
  %call17 = call double @_ZNK6dealii6VectorIdEclEj(%"class.dealii::Vector.109"* %18, i32 %19), !dbg !9747
  %20 = call double @llvm.fabs.f64(double %call17), !dbg !9750
  %21 = load double, double* %new_threshold, align 8, !dbg !9751
  %cmp18 = fcmp oge double %20, %21, !dbg !9752
  br i1 %cmp18, label %if.then19, label %if.end21, !dbg !9753

if.then19:                                        ; preds = %for.body16
  %22 = bitcast %"class.dealii::TriaActiveIterator"* %cell to %"class.dealii::TriaRawIterator"*, !dbg !9754
  %call20 = call %"class.dealii::CellAccessor"* @_ZN6dealii15TriaRawIteratorINS_12CellAccessorILi3ELi3EEEEptEv(%"class.dealii::TriaRawIterator"* %22), !dbg !9754
  call void @_ZN6dealii14RefinementCaseILi3EEC2ENS_23RefinementPossibilitiesILi3EE13PossibilitiesE(%"class.dealii::RefinementCase"* %agg.tmp, i32 7), !dbg !9755
  %coerce.dive = getelementptr inbounds %"class.dealii::RefinementCase", %"class.dealii::RefinementCase"* %agg.tmp, i32 0, i32 0, !dbg !9755
  %23 = load i8, i8* %coerce.dive, align 1, !dbg !9755
  call void @_ZNK6dealii12CellAccessorILi3ELi3EE15set_refine_flagENS_14RefinementCaseILi3EEE(%"class.dealii::CellAccessor"* %call20, i8 %23), !dbg !9755
  br label %if.end21, !dbg !9754

if.end21:                                         ; preds = %if.then19, %for.body16
  br label %for.inc22, !dbg !9751

for.inc22:                                        ; preds = %if.end21
  %call23 = call dereferenceable(16) %"class.dealii::TriaActiveIterator"* @_ZN6dealii18TriaActiveIteratorINS_12CellAccessorILi3ELi3EEEEppEv(%"class.dealii::TriaActiveIterator"* %cell), !dbg !9756
  %24 = load i32, i32* %index13, align 4, !dbg !9757
  %inc24 = add i32 %24, 1, !dbg !9757
  store i32 %inc24, i32* %index13, align 4, !dbg !9757
  br label %for.cond14, !dbg !9758, !llvm.loop !9759

for.end25:                                        ; preds = %if.then, %for.cond14
  ret void, !dbg !9761
}

declare dso_local zeroext i1 @_ZNK6dealii6VectorIdE8all_zeroEv(%"class.dealii::Vector.109"*) #2

; Function Attrs: noinline nounwind uwtable
define linkonce_odr dso_local i32 @_ZNK6dealii6VectorIdE4sizeEv(%"class.dealii::Vector.109"* %this) #1 comdat align 2 !dbg !9762 {
entry:
  %this.addr = alloca %"class.dealii::Vector.109"*, align 8
  store %"class.dealii::Vector.109"* %this, %"class.dealii::Vector.109"** %this.addr, align 8
  call void @llvm.dbg.declare(metadata %"class.dealii::Vector.109"** %this.addr, metadata !9763, metadata !DIExpression()), !dbg !9765
  %this1 = load %"class.dealii::Vector.109"*, %"class.dealii::Vector.109"** %this.addr, align 8
  %vec_size = getelementptr inbounds %"class.dealii::Vector.109", %"class.dealii::Vector.109"* %this1, i32 0, i32 1, !dbg !9766
  %0 = load i32, i32* %vec_size, align 8, !dbg !9766
  ret i32 %0, !dbg !9767
}

; Function Attrs: noinline nounwind uwtable
define linkonce_odr dso_local double @_ZNK6dealii6VectorIdEclEj(%"class.dealii::Vector.109"* %this, i32 %i) #1 comdat align 2 !dbg !9768 {
entry:
  %this.addr = alloca %"class.dealii::Vector.109"*, align 8
  %i.addr = alloca i32, align 4
  store %"class.dealii::Vector.109"* %this, %"class.dealii::Vector.109"** %this.addr, align 8
  call void @llvm.dbg.declare(metadata %"class.dealii::Vector.109"** %this.addr, metadata !9769, metadata !DIExpression()), !dbg !9770
  store i32 %i, i32* %i.addr, align 4
  call void @llvm.dbg.declare(metadata i32* %i.addr, metadata !9771, metadata !DIExpression()), !dbg !9772
  %this1 = load %"class.dealii::Vector.109"*, %"class.dealii::Vector.109"** %this.addr, align 8
  %val = getelementptr inbounds %"class.dealii::Vector.109", %"class.dealii::Vector.109"* %this1, i32 0, i32 3, !dbg !9773
  %0 = load double*, double** %val, align 8, !dbg !9773
  %1 = load i32, i32* %i.addr, align 4, !dbg !9774
  %idxprom = zext i32 %1 to i64, !dbg !9773
  %arrayidx = getelementptr inbounds double, double* %0, i64 %idxprom, !dbg !9773
  %2 = load double, double* %arrayidx, align 8, !dbg !9773
  ret double %2, !dbg !9775
}

; Function Attrs: nounwind readnone speculatable willreturn
declare double @llvm.fabs.f64(double) #5

; Function Attrs: noinline uwtable
define weak_odr dso_local void @_ZN6dealii14GridRefinement7coarsenILi3ENS_6VectorIfEELi3EEEvRNS_13TriangulationIXT_EXT1_EEERKT0_d(%"class.dealii::Triangulation"* dereferenceable(8552) %tria, %"class.dealii::Vector"* dereferenceable(88) %criteria, double %threshold) #0 comdat !dbg !9776 {
entry:
  %tria.addr = alloca %"class.dealii::Triangulation"*, align 8
  %criteria.addr = alloca %"class.dealii::Vector"*, align 8
  %threshold.addr = alloca double, align 8
  %cell = alloca %"class.dealii::TriaActiveIterator", align 8
  %n_cells = alloca i32, align 4
  %index = alloca i32, align 4
  %ref.tmp = alloca %"class.dealii::RefinementCase", align 1
  store %"class.dealii::Triangulation"* %tria, %"class.dealii::Triangulation"** %tria.addr, align 8
  call void @llvm.dbg.declare(metadata %"class.dealii::Triangulation"** %tria.addr, metadata !9777, metadata !DIExpression()), !dbg !9778
  store %"class.dealii::Vector"* %criteria, %"class.dealii::Vector"** %criteria.addr, align 8
  call void @llvm.dbg.declare(metadata %"class.dealii::Vector"** %criteria.addr, metadata !9779, metadata !DIExpression()), !dbg !9780
  store double %threshold, double* %threshold.addr, align 8
  call void @llvm.dbg.declare(metadata double* %threshold.addr, metadata !9781, metadata !DIExpression()), !dbg !9782
  call void @llvm.dbg.declare(metadata %"class.dealii::TriaActiveIterator"* %cell, metadata !9783, metadata !DIExpression()), !dbg !9784
  %0 = load %"class.dealii::Triangulation"*, %"class.dealii::Triangulation"** %tria.addr, align 8, !dbg !9785
  call void @_ZNK6dealii13TriangulationILi3ELi3EE12begin_activeEj(%"class.dealii::TriaActiveIterator"* sret %cell, %"class.dealii::Triangulation"* %0, i32 0), !dbg !9786
  call void @llvm.dbg.declare(metadata i32* %n_cells, metadata !9787, metadata !DIExpression()), !dbg !9788
  %1 = load %"class.dealii::Vector"*, %"class.dealii::Vector"** %criteria.addr, align 8, !dbg !9789
  %call = call i32 @_ZNK6dealii6VectorIfE4sizeEv(%"class.dealii::Vector"* %1), !dbg !9790
  store i32 %call, i32* %n_cells, align 4, !dbg !9788
  call void @llvm.dbg.declare(metadata i32* %index, metadata !9791, metadata !DIExpression()), !dbg !9793
  store i32 0, i32* %index, align 4, !dbg !9793
  br label %for.cond, !dbg !9794

for.cond:                                         ; preds = %for.inc, %entry
  %2 = load i32, i32* %index, align 4, !dbg !9795
  %3 = load i32, i32* %n_cells, align 4, !dbg !9797
  %cmp = icmp ult i32 %2, %3, !dbg !9798
  br i1 %cmp, label %for.body, label %for.end, !dbg !9799

for.body:                                         ; preds = %for.cond
  %4 = load %"class.dealii::Vector"*, %"class.dealii::Vector"** %criteria.addr, align 8, !dbg !9800
  %5 = load i32, i32* %index, align 4, !dbg !9802
  %call1 = call float @_ZNK6dealii6VectorIfEclEj(%"class.dealii::Vector"* %4, i32 %5), !dbg !9800
  %call2 = call float @_ZSt4fabsf(float %call1), !dbg !9803
  %conv = fpext float %call2 to double, !dbg !9803
  %6 = load double, double* %threshold.addr, align 8, !dbg !9804
  %cmp3 = fcmp ole double %conv, %6, !dbg !9805
  br i1 %cmp3, label %if.then, label %if.end9, !dbg !9806

if.then:                                          ; preds = %for.body
  %7 = bitcast %"class.dealii::TriaActiveIterator"* %cell to %"class.dealii::TriaRawIterator"*, !dbg !9807
  %call4 = call %"class.dealii::CellAccessor"* @_ZN6dealii15TriaRawIteratorINS_12CellAccessorILi3ELi3EEEEptEv(%"class.dealii::TriaRawIterator"* %7), !dbg !9807
  %call5 = call i8 @_ZNK6dealii12CellAccessorILi3ELi3EE15refine_flag_setEv(%"class.dealii::CellAccessor"* %call4), !dbg !9809
  %coerce.dive = getelementptr inbounds %"class.dealii::RefinementCase", %"class.dealii::RefinementCase"* %ref.tmp, i32 0, i32 0, !dbg !9809
  store i8 %call5, i8* %coerce.dive, align 1, !dbg !9809
  %call6 = call zeroext i8 @_ZNK6dealii14RefinementCaseILi3EEcvhEv(%"class.dealii::RefinementCase"* %ref.tmp), !dbg !9807
  %tobool = icmp ne i8 %call6, 0, !dbg !9807
  %lnot = xor i1 %tobool, true, !dbg !9810
  br i1 %lnot, label %if.then7, label %if.end, !dbg !9811

if.then7:                                         ; preds = %if.then
  %8 = bitcast %"class.dealii::TriaActiveIterator"* %cell to %"class.dealii::TriaRawIterator"*, !dbg !9812
  %call8 = call %"class.dealii::CellAccessor"* @_ZN6dealii15TriaRawIteratorINS_12CellAccessorILi3ELi3EEEEptEv(%"class.dealii::TriaRawIterator"* %8), !dbg !9812
  call void @_ZNK6dealii12CellAccessorILi3ELi3EE16set_coarsen_flagEv(%"class.dealii::CellAccessor"* %call8), !dbg !9813
  br label %if.end, !dbg !9812

if.end:                                           ; preds = %if.then7, %if.then
  br label %if.end9, !dbg !9814

if.end9:                                          ; preds = %if.end, %for.body
  br label %for.inc, !dbg !9804

for.inc:                                          ; preds = %if.end9
  %call10 = call dereferenceable(16) %"class.dealii::TriaActiveIterator"* @_ZN6dealii18TriaActiveIteratorINS_12CellAccessorILi3ELi3EEEEppEv(%"class.dealii::TriaActiveIterator"* %cell), !dbg !9815
  %9 = load i32, i32* %index, align 4, !dbg !9816
  %inc = add i32 %9, 1, !dbg !9816
  store i32 %inc, i32* %index, align 4, !dbg !9816
  br label %for.cond, !dbg !9817, !llvm.loop !9818

for.end:                                          ; preds = %for.cond
  ret void, !dbg !9820
}

; Function Attrs: noinline uwtable
define linkonce_odr dso_local i8 @_ZNK6dealii12CellAccessorILi3ELi3EE15refine_flag_setEv(%"class.dealii::CellAccessor"* %this) #0 comdat align 2 !dbg !9821 {
entry:
  %retval = alloca %"class.dealii::RefinementCase", align 1
  %this.addr = alloca %"class.dealii::CellAccessor"*, align 8
  store %"class.dealii::CellAccessor"* %this, %"class.dealii::CellAccessor"** %this.addr, align 8
  call void @llvm.dbg.declare(metadata %"class.dealii::CellAccessor"** %this.addr, metadata !9822, metadata !DIExpression()), !dbg !9823
  %this1 = load %"class.dealii::CellAccessor"*, %"class.dealii::CellAccessor"** %this.addr, align 8
  %0 = bitcast %"class.dealii::CellAccessor"* %this1 to %"class.dealii::TriaAccessorBase"*, !dbg !9824
  %tria = getelementptr inbounds %"class.dealii::TriaAccessorBase", %"class.dealii::TriaAccessorBase"* %0, i32 0, i32 2, !dbg !9824
  %1 = load %"class.dealii::Triangulation"*, %"class.dealii::Triangulation"** %tria, align 8, !dbg !9824
  %levels = getelementptr inbounds %"class.dealii::Triangulation", %"class.dealii::Triangulation"* %1, i32 0, i32 1, !dbg !9825
  %2 = bitcast %"class.dealii::CellAccessor"* %this1 to %"class.dealii::TriaAccessorBase"*, !dbg !9826
  %present_level = getelementptr inbounds %"class.dealii::TriaAccessorBase", %"class.dealii::TriaAccessorBase"* %2, i32 0, i32 0, !dbg !9826
  %3 = load i32, i32* %present_level, align 8, !dbg !9826
  %conv = sext i32 %3 to i64, !dbg !9827
  %call = call dereferenceable(8) %"class.dealii::internal::Triangulation::TriaLevel"** @_ZNKSt6vectorIPN6dealii8internal13Triangulation9TriaLevelILi3EEESaIS5_EEixEm(%"class.std::vector"* %levels, i64 %conv) #4, !dbg !9828
  %4 = load %"class.dealii::internal::Triangulation::TriaLevel"*, %"class.dealii::internal::Triangulation::TriaLevel"** %call, align 8, !dbg !9828
  %refine_flags = getelementptr inbounds %"class.dealii::internal::Triangulation::TriaLevel", %"class.dealii::internal::Triangulation::TriaLevel"* %4, i32 0, i32 0, !dbg !9829
  %5 = bitcast %"class.dealii::CellAccessor"* %this1 to %"class.dealii::TriaAccessorBase"*, !dbg !9830
  %present_index = getelementptr inbounds %"class.dealii::TriaAccessorBase", %"class.dealii::TriaAccessorBase"* %5, i32 0, i32 1, !dbg !9830
  %6 = load i32, i32* %present_index, align 4, !dbg !9830
  %conv2 = sext i32 %6 to i64, !dbg !9831
  %call3 = call dereferenceable(1) i8* @_ZNSt6vectorIhSaIhEEixEm(%"class.std::vector.19"* %refine_flags, i64 %conv2) #4, !dbg !9828
  %7 = load i8, i8* %call3, align 1, !dbg !9828
  call void @_ZN6dealii14RefinementCaseILi3EEC2Eh(%"class.dealii::RefinementCase"* %retval, i8 zeroext %7), !dbg !9832
  %coerce.dive = getelementptr inbounds %"class.dealii::RefinementCase", %"class.dealii::RefinementCase"* %retval, i32 0, i32 0, !dbg !9833
  %8 = load i8, i8* %coerce.dive, align 1, !dbg !9833
  ret i8 %8, !dbg !9833
}

; Function Attrs: noinline nounwind uwtable
define linkonce_odr dso_local zeroext i8 @_ZNK6dealii14RefinementCaseILi3EEcvhEv(%"class.dealii::RefinementCase"* %this) #1 comdat align 2 !dbg !9834 {
entry:
  %this.addr = alloca %"class.dealii::RefinementCase"*, align 8
  store %"class.dealii::RefinementCase"* %this, %"class.dealii::RefinementCase"** %this.addr, align 8
  call void @llvm.dbg.declare(metadata %"class.dealii::RefinementCase"** %this.addr, metadata !9835, metadata !DIExpression()), !dbg !9836
  %this1 = load %"class.dealii::RefinementCase"*, %"class.dealii::RefinementCase"** %this.addr, align 8
  %0 = bitcast %"class.dealii::RefinementCase"* %this1 to i8*, !dbg !9837
  %bf.load = load i8, i8* %0, align 1, !dbg !9837
  %bf.clear = and i8 %bf.load, 7, !dbg !9837
  ret i8 %bf.clear, !dbg !9838
}

; Function Attrs: noinline uwtable
define linkonce_odr dso_local void @_ZNK6dealii12CellAccessorILi3ELi3EE16set_coarsen_flagEv(%"class.dealii::CellAccessor"* %this) #0 comdat align 2 !dbg !9839 {
entry:
  %this.addr = alloca %"class.dealii::CellAccessor"*, align 8
  %ref.tmp = alloca %"struct.std::_Bit_reference", align 8
  store %"class.dealii::CellAccessor"* %this, %"class.dealii::CellAccessor"** %this.addr, align 8
  call void @llvm.dbg.declare(metadata %"class.dealii::CellAccessor"** %this.addr, metadata !9840, metadata !DIExpression()), !dbg !9841
  %this1 = load %"class.dealii::CellAccessor"*, %"class.dealii::CellAccessor"** %this.addr, align 8
  %0 = bitcast %"class.dealii::CellAccessor"* %this1 to %"class.dealii::TriaAccessorBase"*, !dbg !9842
  %tria = getelementptr inbounds %"class.dealii::TriaAccessorBase", %"class.dealii::TriaAccessorBase"* %0, i32 0, i32 2, !dbg !9842
  %1 = load %"class.dealii::Triangulation"*, %"class.dealii::Triangulation"** %tria, align 8, !dbg !9842
  %levels = getelementptr inbounds %"class.dealii::Triangulation", %"class.dealii::Triangulation"* %1, i32 0, i32 1, !dbg !9843
  %2 = bitcast %"class.dealii::CellAccessor"* %this1 to %"class.dealii::TriaAccessorBase"*, !dbg !9844
  %present_level = getelementptr inbounds %"class.dealii::TriaAccessorBase", %"class.dealii::TriaAccessorBase"* %2, i32 0, i32 0, !dbg !9844
  %3 = load i32, i32* %present_level, align 8, !dbg !9844
  %conv = sext i32 %3 to i64, !dbg !9845
  %call = call dereferenceable(8) %"class.dealii::internal::Triangulation::TriaLevel"** @_ZNKSt6vectorIPN6dealii8internal13Triangulation9TriaLevelILi3EEESaIS5_EEixEm(%"class.std::vector"* %levels, i64 %conv) #4, !dbg !9846
  %4 = load %"class.dealii::internal::Triangulation::TriaLevel"*, %"class.dealii::internal::Triangulation::TriaLevel"** %call, align 8, !dbg !9846
  %coarsen_flags = getelementptr inbounds %"class.dealii::internal::Triangulation::TriaLevel", %"class.dealii::internal::Triangulation::TriaLevel"* %4, i32 0, i32 1, !dbg !9847
  %5 = bitcast %"class.dealii::CellAccessor"* %this1 to %"class.dealii::TriaAccessorBase"*, !dbg !9848
  %present_index = getelementptr inbounds %"class.dealii::TriaAccessorBase", %"class.dealii::TriaAccessorBase"* %5, i32 0, i32 1, !dbg !9848
  %6 = load i32, i32* %present_index, align 4, !dbg !9848
  %conv2 = sext i32 %6 to i64, !dbg !9849
  %call3 = call { i64*, i64 } @_ZNSt6vectorIbSaIbEEixEm(%"class.std::vector.24"* %coarsen_flags, i64 %conv2), !dbg !9846
  %7 = bitcast %"struct.std::_Bit_reference"* %ref.tmp to { i64*, i64 }*, !dbg !9846
  %8 = getelementptr inbounds { i64*, i64 }, { i64*, i64 }* %7, i32 0, i32 0, !dbg !9846
  %9 = extractvalue { i64*, i64 } %call3, 0, !dbg !9846
  store i64* %9, i64** %8, align 8, !dbg !9846
  %10 = getelementptr inbounds { i64*, i64 }, { i64*, i64 }* %7, i32 0, i32 1, !dbg !9846
  %11 = extractvalue { i64*, i64 } %call3, 1, !dbg !9846
  store i64 %11, i64* %10, align 8, !dbg !9846
  %call4 = call dereferenceable(16) %"struct.std::_Bit_reference"* @_ZNSt14_Bit_referenceaSEb(%"struct.std::_Bit_reference"* %ref.tmp, i1 zeroext true) #4, !dbg !9850
  ret void, !dbg !9851
}

; Function Attrs: noinline uwtable
define weak_odr dso_local void @_ZN6dealii14GridRefinement7coarsenILi3ENS_6VectorIdEELi3EEEvRNS_13TriangulationIXT_EXT1_EEERKT0_d(%"class.dealii::Triangulation"* dereferenceable(8552) %tria, %"class.dealii::Vector.109"* dereferenceable(88) %criteria, double %threshold) #0 comdat !dbg !9852 {
entry:
  %tria.addr = alloca %"class.dealii::Triangulation"*, align 8
  %criteria.addr = alloca %"class.dealii::Vector.109"*, align 8
  %threshold.addr = alloca double, align 8
  %cell = alloca %"class.dealii::TriaActiveIterator", align 8
  %n_cells = alloca i32, align 4
  %index = alloca i32, align 4
  %ref.tmp = alloca %"class.dealii::RefinementCase", align 1
  store %"class.dealii::Triangulation"* %tria, %"class.dealii::Triangulation"** %tria.addr, align 8
  call void @llvm.dbg.declare(metadata %"class.dealii::Triangulation"** %tria.addr, metadata !9853, metadata !DIExpression()), !dbg !9854
  store %"class.dealii::Vector.109"* %criteria, %"class.dealii::Vector.109"** %criteria.addr, align 8
  call void @llvm.dbg.declare(metadata %"class.dealii::Vector.109"** %criteria.addr, metadata !9855, metadata !DIExpression()), !dbg !9856
  store double %threshold, double* %threshold.addr, align 8
  call void @llvm.dbg.declare(metadata double* %threshold.addr, metadata !9857, metadata !DIExpression()), !dbg !9858
  call void @llvm.dbg.declare(metadata %"class.dealii::TriaActiveIterator"* %cell, metadata !9859, metadata !DIExpression()), !dbg !9860
  %0 = load %"class.dealii::Triangulation"*, %"class.dealii::Triangulation"** %tria.addr, align 8, !dbg !9861
  call void @_ZNK6dealii13TriangulationILi3ELi3EE12begin_activeEj(%"class.dealii::TriaActiveIterator"* sret %cell, %"class.dealii::Triangulation"* %0, i32 0), !dbg !9862
  call void @llvm.dbg.declare(metadata i32* %n_cells, metadata !9863, metadata !DIExpression()), !dbg !9864
  %1 = load %"class.dealii::Vector.109"*, %"class.dealii::Vector.109"** %criteria.addr, align 8, !dbg !9865
  %call = call i32 @_ZNK6dealii6VectorIdE4sizeEv(%"class.dealii::Vector.109"* %1), !dbg !9866
  store i32 %call, i32* %n_cells, align 4, !dbg !9864
  call void @llvm.dbg.declare(metadata i32* %index, metadata !9867, metadata !DIExpression()), !dbg !9869
  store i32 0, i32* %index, align 4, !dbg !9869
  br label %for.cond, !dbg !9870

for.cond:                                         ; preds = %for.inc, %entry
  %2 = load i32, i32* %index, align 4, !dbg !9871
  %3 = load i32, i32* %n_cells, align 4, !dbg !9873
  %cmp = icmp ult i32 %2, %3, !dbg !9874
  br i1 %cmp, label %for.body, label %for.end, !dbg !9875

for.body:                                         ; preds = %for.cond
  %4 = load %"class.dealii::Vector.109"*, %"class.dealii::Vector.109"** %criteria.addr, align 8, !dbg !9876
  %5 = load i32, i32* %index, align 4, !dbg !9878
  %call1 = call double @_ZNK6dealii6VectorIdEclEj(%"class.dealii::Vector.109"* %4, i32 %5), !dbg !9876
  %6 = call double @llvm.fabs.f64(double %call1), !dbg !9879
  %7 = load double, double* %threshold.addr, align 8, !dbg !9880
  %cmp2 = fcmp ole double %6, %7, !dbg !9881
  br i1 %cmp2, label %if.then, label %if.end8, !dbg !9882

if.then:                                          ; preds = %for.body
  %8 = bitcast %"class.dealii::TriaActiveIterator"* %cell to %"class.dealii::TriaRawIterator"*, !dbg !9883
  %call3 = call %"class.dealii::CellAccessor"* @_ZN6dealii15TriaRawIteratorINS_12CellAccessorILi3ELi3EEEEptEv(%"class.dealii::TriaRawIterator"* %8), !dbg !9883
  %call4 = call i8 @_ZNK6dealii12CellAccessorILi3ELi3EE15refine_flag_setEv(%"class.dealii::CellAccessor"* %call3), !dbg !9885
  %coerce.dive = getelementptr inbounds %"class.dealii::RefinementCase", %"class.dealii::RefinementCase"* %ref.tmp, i32 0, i32 0, !dbg !9885
  store i8 %call4, i8* %coerce.dive, align 1, !dbg !9885
  %call5 = call zeroext i8 @_ZNK6dealii14RefinementCaseILi3EEcvhEv(%"class.dealii::RefinementCase"* %ref.tmp), !dbg !9883
  %tobool = icmp ne i8 %call5, 0, !dbg !9883
  %lnot = xor i1 %tobool, true, !dbg !9886
  br i1 %lnot, label %if.then6, label %if.end, !dbg !9887

if.then6:                                         ; preds = %if.then
  %9 = bitcast %"class.dealii::TriaActiveIterator"* %cell to %"class.dealii::TriaRawIterator"*, !dbg !9888
  %call7 = call %"class.dealii::CellAccessor"* @_ZN6dealii15TriaRawIteratorINS_12CellAccessorILi3ELi3EEEEptEv(%"class.dealii::TriaRawIterator"* %9), !dbg !9888
  call void @_ZNK6dealii12CellAccessorILi3ELi3EE16set_coarsen_flagEv(%"class.dealii::CellAccessor"* %call7), !dbg !9889
  br label %if.end, !dbg !9888

if.end:                                           ; preds = %if.then6, %if.then
  br label %if.end8, !dbg !9890

if.end8:                                          ; preds = %if.end, %for.body
  br label %for.inc, !dbg !9880

for.inc:                                          ; preds = %if.end8
  %call9 = call dereferenceable(16) %"class.dealii::TriaActiveIterator"* @_ZN6dealii18TriaActiveIteratorINS_12CellAccessorILi3ELi3EEEEppEv(%"class.dealii::TriaActiveIterator"* %cell), !dbg !9891
  %10 = load i32, i32* %index, align 4, !dbg !9892
  %inc = add i32 %10, 1, !dbg !9892
  store i32 %inc, i32* %index, align 4, !dbg !9892
  br label %for.cond, !dbg !9893, !llvm.loop !9894

for.end:                                          ; preds = %for.cond
  ret void, !dbg !9896
}

; Function Attrs: noinline uwtable
define weak_odr dso_local void @_ZN6dealii14GridRefinement31refine_and_coarsen_fixed_numberILi3ENS_6VectorIdEELi3EEEvRNS_13TriangulationIXT_EXT1_EEERKT0_ddj(%"class.dealii::Triangulation"* dereferenceable(8552) %tria, %"class.dealii::Vector.109"* dereferenceable(88) %criteria, double %top_fraction, double %bottom_fraction, i32 %max_n_cells) #0 comdat personality i8* bitcast (i32 (...)* @__gxx_personality_v0 to i8*) !dbg !9897 {
entry:
  %tria.addr = alloca %"class.dealii::Triangulation"*, align 8
  %criteria.addr = alloca %"class.dealii::Vector.109"*, align 8
  %top_fraction.addr = alloca double, align 8
  %bottom_fraction.addr = alloca double, align 8
  %max_n_cells.addr = alloca i32, align 4
  %refine_cells = alloca i32, align 4
  %coarsen_cells = alloca i32, align 4
  %alpha = alloca double, align 8
  %tmp = alloca %"class.dealii::Vector.109", align 8
  %exn.slot = alloca i8*
  %ehselector.slot = alloca i32
  %agg.tmp = alloca %"struct.std::greater", align 1
  %agg.tmp63 = alloca %"struct.std::greater", align 1
  store %"class.dealii::Triangulation"* %tria, %"class.dealii::Triangulation"** %tria.addr, align 8
  call void @llvm.dbg.declare(metadata %"class.dealii::Triangulation"** %tria.addr, metadata !9900, metadata !DIExpression()), !dbg !9901
  store %"class.dealii::Vector.109"* %criteria, %"class.dealii::Vector.109"** %criteria.addr, align 8
  call void @llvm.dbg.declare(metadata %"class.dealii::Vector.109"** %criteria.addr, metadata !9902, metadata !DIExpression()), !dbg !9903
  store double %top_fraction, double* %top_fraction.addr, align 8
  call void @llvm.dbg.declare(metadata double* %top_fraction.addr, metadata !9904, metadata !DIExpression()), !dbg !9905
  store double %bottom_fraction, double* %bottom_fraction.addr, align 8
  call void @llvm.dbg.declare(metadata double* %bottom_fraction.addr, metadata !9906, metadata !DIExpression()), !dbg !9907
  store i32 %max_n_cells, i32* %max_n_cells.addr, align 4
  call void @llvm.dbg.declare(metadata i32* %max_n_cells.addr, metadata !9908, metadata !DIExpression()), !dbg !9909
  call void @llvm.dbg.declare(metadata i32* %refine_cells, metadata !9910, metadata !DIExpression()), !dbg !9911
  %0 = load double, double* %top_fraction.addr, align 8, !dbg !9912
  %1 = load %"class.dealii::Vector.109"*, %"class.dealii::Vector.109"** %criteria.addr, align 8, !dbg !9913
  %call = call i32 @_ZNK6dealii6VectorIdE4sizeEv(%"class.dealii::Vector.109"* %1), !dbg !9914
  %conv = uitofp i32 %call to double, !dbg !9913
  %mul = fmul double %0, %conv, !dbg !9915
  %conv1 = fptosi double %mul to i32, !dbg !9912
  store i32 %conv1, i32* %refine_cells, align 4, !dbg !9911
  call void @llvm.dbg.declare(metadata i32* %coarsen_cells, metadata !9916, metadata !DIExpression()), !dbg !9917
  %2 = load double, double* %bottom_fraction.addr, align 8, !dbg !9918
  %3 = load %"class.dealii::Vector.109"*, %"class.dealii::Vector.109"** %criteria.addr, align 8, !dbg !9919
  %call2 = call i32 @_ZNK6dealii6VectorIdE4sizeEv(%"class.dealii::Vector.109"* %3), !dbg !9920
  %conv3 = uitofp i32 %call2 to double, !dbg !9919
  %mul4 = fmul double %2, %conv3, !dbg !9921
  %conv5 = fptosi double %mul4 to i32, !dbg !9918
  store i32 %conv5, i32* %coarsen_cells, align 4, !dbg !9917
  %4 = load %"class.dealii::Triangulation"*, %"class.dealii::Triangulation"** %tria.addr, align 8, !dbg !9922
  %call6 = call i32 @_ZNK6dealii13TriangulationILi3ELi3EE14n_active_cellsEv(%"class.dealii::Triangulation"* %4), !dbg !9924
  %5 = load i32, i32* %max_n_cells.addr, align 4, !dbg !9925
  %cmp = icmp uge i32 %call6, %5, !dbg !9926
  br i1 %cmp, label %if.then, label %if.else, !dbg !9927

if.then:                                          ; preds = %entry
  store i32 0, i32* %refine_cells, align 4, !dbg !9928
  %6 = load %"class.dealii::Triangulation"*, %"class.dealii::Triangulation"** %tria.addr, align 8, !dbg !9930
  %call7 = call i32 @_ZNK6dealii13TriangulationILi3ELi3EE14n_active_cellsEv(%"class.dealii::Triangulation"* %6), !dbg !9931
  %7 = load i32, i32* %max_n_cells.addr, align 4, !dbg !9932
  %sub = sub i32 %call7, %7, !dbg !9933
  %mul8 = mul i32 %sub, 8, !dbg !9934
  %div = udiv i32 %mul8, 7, !dbg !9935
  store i32 %div, i32* %coarsen_cells, align 4, !dbg !9936
  br label %if.end32, !dbg !9937

if.else:                                          ; preds = %entry
  %8 = load %"class.dealii::Triangulation"*, %"class.dealii::Triangulation"** %tria.addr, align 8, !dbg !9938
  %call9 = call i32 @_ZNK6dealii13TriangulationILi3ELi3EE14n_active_cellsEv(%"class.dealii::Triangulation"* %8), !dbg !9940
  %9 = load i32, i32* %refine_cells, align 4, !dbg !9941
  %mul10 = mul i32 %9, 7, !dbg !9942
  %add = add i32 %call9, %mul10, !dbg !9943
  %10 = load i32, i32* %coarsen_cells, align 4, !dbg !9944
  %mul11 = mul i32 %10, 7, !dbg !9945
  %div12 = udiv i32 %mul11, 8, !dbg !9946
  %sub13 = sub i32 %add, %div12, !dbg !9947
  %11 = load i32, i32* %max_n_cells.addr, align 4, !dbg !9948
  %cmp14 = icmp ugt i32 %sub13, %11, !dbg !9949
  br i1 %cmp14, label %if.then15, label %if.end, !dbg !9950

if.then15:                                        ; preds = %if.else
  call void @llvm.dbg.declare(metadata double* %alpha, metadata !9951, metadata !DIExpression()), !dbg !9953
  %12 = load i32, i32* %max_n_cells.addr, align 4, !dbg !9954
  %13 = load %"class.dealii::Triangulation"*, %"class.dealii::Triangulation"** %tria.addr, align 8, !dbg !9955
  %call16 = call i32 @_ZNK6dealii13TriangulationILi3ELi3EE14n_active_cellsEv(%"class.dealii::Triangulation"* %13), !dbg !9956
  %sub17 = sub i32 %12, %call16, !dbg !9957
  %conv18 = uitofp i32 %sub17 to double, !dbg !9958
  %mul19 = fmul double 1.000000e+00, %conv18, !dbg !9959
  %14 = load i32, i32* %refine_cells, align 4, !dbg !9960
  %mul20 = mul i32 %14, 7, !dbg !9961
  %15 = load i32, i32* %coarsen_cells, align 4, !dbg !9962
  %mul21 = mul i32 %15, 7, !dbg !9963
  %div22 = udiv i32 %mul21, 8, !dbg !9964
  %sub23 = sub i32 %mul20, %div22, !dbg !9965
  %conv24 = uitofp i32 %sub23 to double, !dbg !9966
  %div25 = fdiv double %mul19, %conv24, !dbg !9967
  store double %div25, double* %alpha, align 8, !dbg !9953
  %16 = load i32, i32* %refine_cells, align 4, !dbg !9968
  %conv26 = sitofp i32 %16 to double, !dbg !9968
  %17 = load double, double* %alpha, align 8, !dbg !9969
  %mul27 = fmul double %conv26, %17, !dbg !9970
  %conv28 = fptosi double %mul27 to i32, !dbg !9968
  store i32 %conv28, i32* %refine_cells, align 4, !dbg !9971
  %18 = load i32, i32* %coarsen_cells, align 4, !dbg !9972
  %conv29 = sitofp i32 %18 to double, !dbg !9972
  %19 = load double, double* %alpha, align 8, !dbg !9973
  %mul30 = fmul double %conv29, %19, !dbg !9974
  %conv31 = fptosi double %mul30 to i32, !dbg !9972
  store i32 %conv31, i32* %coarsen_cells, align 4, !dbg !9975
  br label %if.end, !dbg !9976

if.end:                                           ; preds = %if.then15, %if.else
  br label %if.end32

if.end32:                                         ; preds = %if.end, %if.then
  %20 = load i32, i32* %refine_cells, align 4, !dbg !9977
  %tobool = icmp ne i32 %20, 0, !dbg !9977
  br i1 %tobool, label %if.then34, label %lor.lhs.false, !dbg !9979

lor.lhs.false:                                    ; preds = %if.end32
  %21 = load i32, i32* %coarsen_cells, align 4, !dbg !9980
  %tobool33 = icmp ne i32 %21, 0, !dbg !9980
  br i1 %tobool33, label %if.then34, label %if.end76, !dbg !9981

if.then34:                                        ; preds = %lor.lhs.false, %if.end32
  call void @llvm.dbg.declare(metadata %"class.dealii::Vector.109"* %tmp, metadata !9982, metadata !DIExpression()), !dbg !9984
  %22 = load %"class.dealii::Vector.109"*, %"class.dealii::Vector.109"** %criteria.addr, align 8, !dbg !9985
  call void @_ZN6dealii6VectorIdEC1ERKS1_(%"class.dealii::Vector.109"* %tmp, %"class.dealii::Vector.109"* dereferenceable(88) %22), !dbg !9984
  %23 = load i32, i32* %refine_cells, align 4, !dbg !9986
  %tobool35 = icmp ne i32 %23, 0, !dbg !9986
  br i1 %tobool35, label %if.then36, label %if.end48, !dbg !9988

if.then36:                                        ; preds = %if.then34
  %call37 = invoke double* @_ZN6dealii6VectorIdE5beginEv(%"class.dealii::Vector.109"* %tmp)
          to label %invoke.cont unwind label %lpad, !dbg !9989

invoke.cont:                                      ; preds = %if.then36
  %call39 = invoke double* @_ZN6dealii6VectorIdE5beginEv(%"class.dealii::Vector.109"* %tmp)
          to label %invoke.cont38 unwind label %lpad, !dbg !9991

invoke.cont38:                                    ; preds = %invoke.cont
  %24 = load i32, i32* %refine_cells, align 4, !dbg !9992
  %idx.ext = sext i32 %24 to i64, !dbg !9993
  %add.ptr = getelementptr inbounds double, double* %call39, i64 %idx.ext, !dbg !9993
  %call41 = invoke double* @_ZN6dealii6VectorIdE3endEv(%"class.dealii::Vector.109"* %tmp)
          to label %invoke.cont40 unwind label %lpad, !dbg !9994

invoke.cont40:                                    ; preds = %invoke.cont38
  invoke void @_ZSt11nth_elementIPdSt7greaterIdEEvT_S3_S3_T0_(double* %call37, double* %add.ptr, double* %call41)
          to label %invoke.cont42 unwind label %lpad, !dbg !9995

invoke.cont42:                                    ; preds = %invoke.cont40
  %25 = load %"class.dealii::Triangulation"*, %"class.dealii::Triangulation"** %tria.addr, align 8, !dbg !9996
  %26 = load %"class.dealii::Vector.109"*, %"class.dealii::Vector.109"** %criteria.addr, align 8, !dbg !9997
  %call44 = invoke double* @_ZN6dealii6VectorIdE5beginEv(%"class.dealii::Vector.109"* %tmp)
          to label %invoke.cont43 unwind label %lpad, !dbg !9998

invoke.cont43:                                    ; preds = %invoke.cont42
  %27 = load i32, i32* %refine_cells, align 4, !dbg !9999
  %idx.ext45 = sext i32 %27 to i64, !dbg !10000
  %add.ptr46 = getelementptr inbounds double, double* %call44, i64 %idx.ext45, !dbg !10000
  %28 = load double, double* %add.ptr46, align 8, !dbg !10001
  invoke void @_ZN6dealii14GridRefinement6refineILi3ENS_6VectorIdEELi3EEEvRNS_13TriangulationIXT_EXT1_EEERKT0_d(%"class.dealii::Triangulation"* dereferenceable(8552) %25, %"class.dealii::Vector.109"* dereferenceable(88) %26, double %28)
          to label %invoke.cont47 unwind label %lpad, !dbg !10002

invoke.cont47:                                    ; preds = %invoke.cont43
  br label %if.end48, !dbg !10003

lpad:                                             ; preds = %invoke.cont67, %invoke.cont65, %invoke.cont64, %invoke.cont61, %invoke.cont55, %invoke.cont53, %invoke.cont51, %if.then50, %invoke.cont43, %invoke.cont42, %invoke.cont40, %invoke.cont38, %invoke.cont, %if.then36
  %29 = landingpad { i8*, i32 }
          cleanup, !dbg !10004
  %30 = extractvalue { i8*, i32 } %29, 0, !dbg !10004
  store i8* %30, i8** %exn.slot, align 8, !dbg !10004
  %31 = extractvalue { i8*, i32 } %29, 1, !dbg !10004
  store i32 %31, i32* %ehselector.slot, align 4, !dbg !10004
  call void @_ZN6dealii6VectorIdED2Ev(%"class.dealii::Vector.109"* %tmp) #4, !dbg !10005
  br label %eh.resume, !dbg !10005

if.end48:                                         ; preds = %invoke.cont47, %if.then34
  %32 = load i32, i32* %coarsen_cells, align 4, !dbg !10006
  %tobool49 = icmp ne i32 %32, 0, !dbg !10006
  br i1 %tobool49, label %if.then50, label %if.end75, !dbg !10008

if.then50:                                        ; preds = %if.end48
  %call52 = invoke double* @_ZN6dealii6VectorIdE5beginEv(%"class.dealii::Vector.109"* %tmp)
          to label %invoke.cont51 unwind label %lpad, !dbg !10009

invoke.cont51:                                    ; preds = %if.then50
  %call54 = invoke double* @_ZN6dealii6VectorIdE5beginEv(%"class.dealii::Vector.109"* %tmp)
          to label %invoke.cont53 unwind label %lpad, !dbg !10011

invoke.cont53:                                    ; preds = %invoke.cont51
  %call56 = invoke i32 @_ZNK6dealii6VectorIdE4sizeEv(%"class.dealii::Vector.109"* %tmp)
          to label %invoke.cont55 unwind label %lpad, !dbg !10012

invoke.cont55:                                    ; preds = %invoke.cont53
  %idx.ext57 = zext i32 %call56 to i64, !dbg !10013
  %add.ptr58 = getelementptr inbounds double, double* %call54, i64 %idx.ext57, !dbg !10013
  %33 = load i32, i32* %coarsen_cells, align 4, !dbg !10014
  %idx.ext59 = sext i32 %33 to i64, !dbg !10015
  %idx.neg = sub i64 0, %idx.ext59, !dbg !10015
  %add.ptr60 = getelementptr inbounds double, double* %add.ptr58, i64 %idx.neg, !dbg !10015
  %call62 = invoke double* @_ZN6dealii6VectorIdE3endEv(%"class.dealii::Vector.109"* %tmp)
          to label %invoke.cont61 unwind label %lpad, !dbg !10016

invoke.cont61:                                    ; preds = %invoke.cont55
  invoke void @_ZSt11nth_elementIPdSt7greaterIdEEvT_S3_S3_T0_(double* %call52, double* %add.ptr60, double* %call62)
          to label %invoke.cont64 unwind label %lpad, !dbg !10017

invoke.cont64:                                    ; preds = %invoke.cont61
  %34 = load %"class.dealii::Triangulation"*, %"class.dealii::Triangulation"** %tria.addr, align 8, !dbg !10018
  %35 = load %"class.dealii::Vector.109"*, %"class.dealii::Vector.109"** %criteria.addr, align 8, !dbg !10019
  %call66 = invoke double* @_ZN6dealii6VectorIdE5beginEv(%"class.dealii::Vector.109"* %tmp)
          to label %invoke.cont65 unwind label %lpad, !dbg !10020

invoke.cont65:                                    ; preds = %invoke.cont64
  %call68 = invoke i32 @_ZNK6dealii6VectorIdE4sizeEv(%"class.dealii::Vector.109"* %tmp)
          to label %invoke.cont67 unwind label %lpad, !dbg !10021

invoke.cont67:                                    ; preds = %invoke.cont65
  %idx.ext69 = zext i32 %call68 to i64, !dbg !10022
  %add.ptr70 = getelementptr inbounds double, double* %call66, i64 %idx.ext69, !dbg !10022
  %36 = load i32, i32* %coarsen_cells, align 4, !dbg !10023
  %idx.ext71 = sext i32 %36 to i64, !dbg !10024
  %idx.neg72 = sub i64 0, %idx.ext71, !dbg !10024
  %add.ptr73 = getelementptr inbounds double, double* %add.ptr70, i64 %idx.neg72, !dbg !10024
  %37 = load double, double* %add.ptr73, align 8, !dbg !10025
  invoke void @_ZN6dealii14GridRefinement7coarsenILi3ENS_6VectorIdEELi3EEEvRNS_13TriangulationIXT_EXT1_EEERKT0_d(%"class.dealii::Triangulation"* dereferenceable(8552) %34, %"class.dealii::Vector.109"* dereferenceable(88) %35, double %37)
          to label %invoke.cont74 unwind label %lpad, !dbg !10026

invoke.cont74:                                    ; preds = %invoke.cont67
  br label %if.end75, !dbg !10027

if.end75:                                         ; preds = %invoke.cont74, %if.end48
  call void @_ZN6dealii6VectorIdED2Ev(%"class.dealii::Vector.109"* %tmp) #4, !dbg !10005
  br label %if.end76, !dbg !10028

if.end76:                                         ; preds = %if.end75, %lor.lhs.false
  ret void, !dbg !10029

eh.resume:                                        ; preds = %lpad
  %exn = load i8*, i8** %exn.slot, align 8, !dbg !10005
  %sel = load i32, i32* %ehselector.slot, align 4, !dbg !10005
  %lpad.val = insertvalue { i8*, i32 } undef, i8* %exn, 0, !dbg !10005
  %lpad.val77 = insertvalue { i8*, i32 } %lpad.val, i32 %sel, 1, !dbg !10005
  resume { i8*, i32 } %lpad.val77, !dbg !10005
}

declare dso_local i32 @_ZNK6dealii13TriangulationILi3ELi3EE14n_active_cellsEv(%"class.dealii::Triangulation"*) #2

declare dso_local void @_ZN6dealii6VectorIdEC1ERKS1_(%"class.dealii::Vector.109"*, %"class.dealii::Vector.109"* dereferenceable(88)) unnamed_addr #2

; Function Attrs: noinline uwtable
define linkonce_odr dso_local void @_ZSt11nth_elementIPdSt7greaterIdEEvT_S3_S3_T0_(double* %__first, double* %__nth, double* %__last) #0 comdat !dbg !10030 {
entry:
  %__comp = alloca %"struct.std::greater", align 1
  %__first.addr = alloca double*, align 8
  %__nth.addr = alloca double*, align 8
  %__last.addr = alloca double*, align 8
  %agg.tmp = alloca %"struct.__gnu_cxx::__ops::_Iter_comp_iter", align 1
  %agg.tmp2 = alloca %"struct.std::greater", align 1
  %undef.agg.tmp = alloca %"struct.__gnu_cxx::__ops::_Iter_comp_iter", align 1
  store double* %__first, double** %__first.addr, align 8
  call void @llvm.dbg.declare(metadata double** %__first.addr, metadata !10034, metadata !DIExpression()), !dbg !10035
  store double* %__nth, double** %__nth.addr, align 8
  call void @llvm.dbg.declare(metadata double** %__nth.addr, metadata !10036, metadata !DIExpression()), !dbg !10037
  store double* %__last, double** %__last.addr, align 8
  call void @llvm.dbg.declare(metadata double** %__last.addr, metadata !10038, metadata !DIExpression()), !dbg !10039
  call void @llvm.dbg.declare(metadata %"struct.std::greater"* %__comp, metadata !10040, metadata !DIExpression()), !dbg !10041
  %0 = load double*, double** %__first.addr, align 8, !dbg !10042
  %1 = load double*, double** %__last.addr, align 8, !dbg !10044
  %cmp = icmp eq double* %0, %1, !dbg !10045
  br i1 %cmp, label %if.then, label %lor.lhs.false, !dbg !10046

lor.lhs.false:                                    ; preds = %entry
  %2 = load double*, double** %__nth.addr, align 8, !dbg !10047
  %3 = load double*, double** %__last.addr, align 8, !dbg !10048
  %cmp1 = icmp eq double* %2, %3, !dbg !10049
  br i1 %cmp1, label %if.then, label %if.end, !dbg !10050

if.then:                                          ; preds = %lor.lhs.false, %entry
  br label %return, !dbg !10051

if.end:                                           ; preds = %lor.lhs.false
  %4 = load double*, double** %__first.addr, align 8, !dbg !10052
  %5 = load double*, double** %__nth.addr, align 8, !dbg !10053
  %6 = load double*, double** %__last.addr, align 8, !dbg !10054
  %7 = load double*, double** %__last.addr, align 8, !dbg !10055
  %8 = load double*, double** %__first.addr, align 8, !dbg !10056
  %sub.ptr.lhs.cast = ptrtoint double* %7 to i64, !dbg !10057
  %sub.ptr.rhs.cast = ptrtoint double* %8 to i64, !dbg !10057
  %sub.ptr.sub = sub i64 %sub.ptr.lhs.cast, %sub.ptr.rhs.cast, !dbg !10057
  %sub.ptr.div = sdiv exact i64 %sub.ptr.sub, 8, !dbg !10057
  %call = call i64 @_ZSt4__lgl(i64 %sub.ptr.div), !dbg !10058
  %mul = mul nsw i64 %call, 2, !dbg !10059
  call void @_ZN9__gnu_cxx5__ops16__iter_comp_iterISt7greaterIdEEENS0_15_Iter_comp_iterIT_EES5_(), !dbg !10060
  call void @_ZSt13__introselectIPdlN9__gnu_cxx5__ops15_Iter_comp_iterISt7greaterIdEEEEvT_S7_S7_T0_T1_(double* %4, double* %5, double* %6, i64 %mul), !dbg !10061
  br label %return, !dbg !10062

return:                                           ; preds = %if.end, %if.then
  ret void, !dbg !10062
}

; Function Attrs: noinline nounwind uwtable
define linkonce_odr dso_local double* @_ZN6dealii6VectorIdE5beginEv(%"class.dealii::Vector.109"* %this) #1 comdat align 2 !dbg !10063 {
entry:
  %this.addr = alloca %"class.dealii::Vector.109"*, align 8
  store %"class.dealii::Vector.109"* %this, %"class.dealii::Vector.109"** %this.addr, align 8
  call void @llvm.dbg.declare(metadata %"class.dealii::Vector.109"** %this.addr, metadata !10064, metadata !DIExpression()), !dbg !10066
  %this1 = load %"class.dealii::Vector.109"*, %"class.dealii::Vector.109"** %this.addr, align 8
  %val = getelementptr inbounds %"class.dealii::Vector.109", %"class.dealii::Vector.109"* %this1, i32 0, i32 3, !dbg !10067
  %0 = load double*, double** %val, align 8, !dbg !10067
  %arrayidx = getelementptr inbounds double, double* %0, i64 0, !dbg !10067
  ret double* %arrayidx, !dbg !10068
}

declare dso_local i32 @__gxx_personality_v0(...)

; Function Attrs: noinline nounwind uwtable
define linkonce_odr dso_local double* @_ZN6dealii6VectorIdE3endEv(%"class.dealii::Vector.109"* %this) #1 comdat align 2 !dbg !10069 {
entry:
  %this.addr = alloca %"class.dealii::Vector.109"*, align 8
  store %"class.dealii::Vector.109"* %this, %"class.dealii::Vector.109"** %this.addr, align 8
  call void @llvm.dbg.declare(metadata %"class.dealii::Vector.109"** %this.addr, metadata !10070, metadata !DIExpression()), !dbg !10071
  %this1 = load %"class.dealii::Vector.109"*, %"class.dealii::Vector.109"** %this.addr, align 8
  %val = getelementptr inbounds %"class.dealii::Vector.109", %"class.dealii::Vector.109"* %this1, i32 0, i32 3, !dbg !10072
  %0 = load double*, double** %val, align 8, !dbg !10072
  %vec_size = getelementptr inbounds %"class.dealii::Vector.109", %"class.dealii::Vector.109"* %this1, i32 0, i32 1, !dbg !10073
  %1 = load i32, i32* %vec_size, align 8, !dbg !10073
  %idxprom = zext i32 %1 to i64, !dbg !10072
  %arrayidx = getelementptr inbounds double, double* %0, i64 %idxprom, !dbg !10072
  ret double* %arrayidx, !dbg !10074
}

; Function Attrs: noinline nounwind uwtable
define linkonce_odr dso_local void @_ZN6dealii6VectorIdED2Ev(%"class.dealii::Vector.109"* %this) unnamed_addr #1 comdat align 2 !dbg !10075 {
entry:
  %this.addr = alloca %"class.dealii::Vector.109"*, align 8
  store %"class.dealii::Vector.109"* %this, %"class.dealii::Vector.109"** %this.addr, align 8
  call void @llvm.dbg.declare(metadata %"class.dealii::Vector.109"** %this.addr, metadata !10076, metadata !DIExpression()), !dbg !10077
  %this1 = load %"class.dealii::Vector.109"*, %"class.dealii::Vector.109"** %this.addr, align 8
  %0 = bitcast %"class.dealii::Vector.109"* %this1 to i32 (...)***, !dbg !10078
  store i32 (...)** bitcast (i8** getelementptr inbounds ({ [6 x i8*] }, { [6 x i8*] }* @_ZTVN6dealii6VectorIdEE, i32 0, inrange i32 0, i32 2) to i32 (...)**), i32 (...)*** %0, align 8, !dbg !10078
  %val = getelementptr inbounds %"class.dealii::Vector.109", %"class.dealii::Vector.109"* %this1, i32 0, i32 3, !dbg !10079
  %1 = load double*, double** %val, align 8, !dbg !10079
  %tobool = icmp ne double* %1, null, !dbg !10079
  br i1 %tobool, label %if.then, label %if.end, !dbg !10082

if.then:                                          ; preds = %entry
  %val2 = getelementptr inbounds %"class.dealii::Vector.109", %"class.dealii::Vector.109"* %this1, i32 0, i32 3, !dbg !10083
  %2 = load double*, double** %val2, align 8, !dbg !10083
  %isnull = icmp eq double* %2, null, !dbg !10085
  br i1 %isnull, label %delete.end, label %delete.notnull, !dbg !10085

delete.notnull:                                   ; preds = %if.then
  %3 = bitcast double* %2 to i8*, !dbg !10085
  call void @_ZdaPv(i8* %3) #11, !dbg !10085
  br label %delete.end, !dbg !10085

delete.end:                                       ; preds = %delete.notnull, %if.then
  %val3 = getelementptr inbounds %"class.dealii::Vector.109", %"class.dealii::Vector.109"* %this1, i32 0, i32 3, !dbg !10086
  store double* null, double** %val3, align 8, !dbg !10087
  br label %if.end, !dbg !10088

if.end:                                           ; preds = %delete.end, %entry
  %4 = bitcast %"class.dealii::Vector.109"* %this1 to %"class.dealii::Subscriptor"*, !dbg !10089
  call void @_ZN6dealii11SubscriptorD2Ev(%"class.dealii::Subscriptor"* %4) #4, !dbg !10089
  ret void, !dbg !10090
}

; Function Attrs: noinline uwtable
define weak_odr dso_local void @_ZN6dealii14GridRefinement31refine_and_coarsen_fixed_numberILi3ENS_6VectorIfEELi3EEEvRNS_13TriangulationIXT_EXT1_EEERKT0_ddj(%"class.dealii::Triangulation"* dereferenceable(8552) %tria, %"class.dealii::Vector"* dereferenceable(88) %criteria, double %top_fraction, double %bottom_fraction, i32 %max_n_cells) #0 comdat personality i8* bitcast (i32 (...)* @__gxx_personality_v0 to i8*) !dbg !10091 {
entry:
  %tria.addr = alloca %"class.dealii::Triangulation"*, align 8
  %criteria.addr = alloca %"class.dealii::Vector"*, align 8
  %top_fraction.addr = alloca double, align 8
  %bottom_fraction.addr = alloca double, align 8
  %max_n_cells.addr = alloca i32, align 4
  %refine_cells = alloca i32, align 4
  %coarsen_cells = alloca i32, align 4
  %alpha = alloca double, align 8
  %tmp = alloca %"class.dealii::Vector", align 8
  %exn.slot = alloca i8*
  %ehselector.slot = alloca i32
  %agg.tmp = alloca %"struct.std::greater", align 1
  %agg.tmp64 = alloca %"struct.std::greater", align 1
  store %"class.dealii::Triangulation"* %tria, %"class.dealii::Triangulation"** %tria.addr, align 8
  call void @llvm.dbg.declare(metadata %"class.dealii::Triangulation"** %tria.addr, metadata !10094, metadata !DIExpression()), !dbg !10095
  store %"class.dealii::Vector"* %criteria, %"class.dealii::Vector"** %criteria.addr, align 8
  call void @llvm.dbg.declare(metadata %"class.dealii::Vector"** %criteria.addr, metadata !10096, metadata !DIExpression()), !dbg !10097
  store double %top_fraction, double* %top_fraction.addr, align 8
  call void @llvm.dbg.declare(metadata double* %top_fraction.addr, metadata !10098, metadata !DIExpression()), !dbg !10099
  store double %bottom_fraction, double* %bottom_fraction.addr, align 8
  call void @llvm.dbg.declare(metadata double* %bottom_fraction.addr, metadata !10100, metadata !DIExpression()), !dbg !10101
  store i32 %max_n_cells, i32* %max_n_cells.addr, align 4
  call void @llvm.dbg.declare(metadata i32* %max_n_cells.addr, metadata !10102, metadata !DIExpression()), !dbg !10103
  call void @llvm.dbg.declare(metadata i32* %refine_cells, metadata !10104, metadata !DIExpression()), !dbg !10105
  %0 = load double, double* %top_fraction.addr, align 8, !dbg !10106
  %1 = load %"class.dealii::Vector"*, %"class.dealii::Vector"** %criteria.addr, align 8, !dbg !10107
  %call = call i32 @_ZNK6dealii6VectorIfE4sizeEv(%"class.dealii::Vector"* %1), !dbg !10108
  %conv = uitofp i32 %call to double, !dbg !10107
  %mul = fmul double %0, %conv, !dbg !10109
  %conv1 = fptosi double %mul to i32, !dbg !10106
  store i32 %conv1, i32* %refine_cells, align 4, !dbg !10105
  call void @llvm.dbg.declare(metadata i32* %coarsen_cells, metadata !10110, metadata !DIExpression()), !dbg !10111
  %2 = load double, double* %bottom_fraction.addr, align 8, !dbg !10112
  %3 = load %"class.dealii::Vector"*, %"class.dealii::Vector"** %criteria.addr, align 8, !dbg !10113
  %call2 = call i32 @_ZNK6dealii6VectorIfE4sizeEv(%"class.dealii::Vector"* %3), !dbg !10114
  %conv3 = uitofp i32 %call2 to double, !dbg !10113
  %mul4 = fmul double %2, %conv3, !dbg !10115
  %conv5 = fptosi double %mul4 to i32, !dbg !10112
  store i32 %conv5, i32* %coarsen_cells, align 4, !dbg !10111
  %4 = load %"class.dealii::Triangulation"*, %"class.dealii::Triangulation"** %tria.addr, align 8, !dbg !10116
  %call6 = call i32 @_ZNK6dealii13TriangulationILi3ELi3EE14n_active_cellsEv(%"class.dealii::Triangulation"* %4), !dbg !10118
  %5 = load i32, i32* %max_n_cells.addr, align 4, !dbg !10119
  %cmp = icmp uge i32 %call6, %5, !dbg !10120
  br i1 %cmp, label %if.then, label %if.else, !dbg !10121

if.then:                                          ; preds = %entry
  store i32 0, i32* %refine_cells, align 4, !dbg !10122
  %6 = load %"class.dealii::Triangulation"*, %"class.dealii::Triangulation"** %tria.addr, align 8, !dbg !10124
  %call7 = call i32 @_ZNK6dealii13TriangulationILi3ELi3EE14n_active_cellsEv(%"class.dealii::Triangulation"* %6), !dbg !10125
  %7 = load i32, i32* %max_n_cells.addr, align 4, !dbg !10126
  %sub = sub i32 %call7, %7, !dbg !10127
  %mul8 = mul i32 %sub, 8, !dbg !10128
  %div = udiv i32 %mul8, 7, !dbg !10129
  store i32 %div, i32* %coarsen_cells, align 4, !dbg !10130
  br label %if.end32, !dbg !10131

if.else:                                          ; preds = %entry
  %8 = load %"class.dealii::Triangulation"*, %"class.dealii::Triangulation"** %tria.addr, align 8, !dbg !10132
  %call9 = call i32 @_ZNK6dealii13TriangulationILi3ELi3EE14n_active_cellsEv(%"class.dealii::Triangulation"* %8), !dbg !10134
  %9 = load i32, i32* %refine_cells, align 4, !dbg !10135
  %mul10 = mul i32 %9, 7, !dbg !10136
  %add = add i32 %call9, %mul10, !dbg !10137
  %10 = load i32, i32* %coarsen_cells, align 4, !dbg !10138
  %mul11 = mul i32 %10, 7, !dbg !10139
  %div12 = udiv i32 %mul11, 8, !dbg !10140
  %sub13 = sub i32 %add, %div12, !dbg !10141
  %11 = load i32, i32* %max_n_cells.addr, align 4, !dbg !10142
  %cmp14 = icmp ugt i32 %sub13, %11, !dbg !10143
  br i1 %cmp14, label %if.then15, label %if.end, !dbg !10144

if.then15:                                        ; preds = %if.else
  call void @llvm.dbg.declare(metadata double* %alpha, metadata !10145, metadata !DIExpression()), !dbg !10147
  %12 = load i32, i32* %max_n_cells.addr, align 4, !dbg !10148
  %13 = load %"class.dealii::Triangulation"*, %"class.dealii::Triangulation"** %tria.addr, align 8, !dbg !10149
  %call16 = call i32 @_ZNK6dealii13TriangulationILi3ELi3EE14n_active_cellsEv(%"class.dealii::Triangulation"* %13), !dbg !10150
  %sub17 = sub i32 %12, %call16, !dbg !10151
  %conv18 = uitofp i32 %sub17 to double, !dbg !10152
  %mul19 = fmul double 1.000000e+00, %conv18, !dbg !10153
  %14 = load i32, i32* %refine_cells, align 4, !dbg !10154
  %mul20 = mul i32 %14, 7, !dbg !10155
  %15 = load i32, i32* %coarsen_cells, align 4, !dbg !10156
  %mul21 = mul i32 %15, 7, !dbg !10157
  %div22 = udiv i32 %mul21, 8, !dbg !10158
  %sub23 = sub i32 %mul20, %div22, !dbg !10159
  %conv24 = uitofp i32 %sub23 to double, !dbg !10160
  %div25 = fdiv double %mul19, %conv24, !dbg !10161
  store double %div25, double* %alpha, align 8, !dbg !10147
  %16 = load i32, i32* %refine_cells, align 4, !dbg !10162
  %conv26 = sitofp i32 %16 to double, !dbg !10162
  %17 = load double, double* %alpha, align 8, !dbg !10163
  %mul27 = fmul double %conv26, %17, !dbg !10164
  %conv28 = fptosi double %mul27 to i32, !dbg !10162
  store i32 %conv28, i32* %refine_cells, align 4, !dbg !10165
  %18 = load i32, i32* %coarsen_cells, align 4, !dbg !10166
  %conv29 = sitofp i32 %18 to double, !dbg !10166
  %19 = load double, double* %alpha, align 8, !dbg !10167
  %mul30 = fmul double %conv29, %19, !dbg !10168
  %conv31 = fptosi double %mul30 to i32, !dbg !10166
  store i32 %conv31, i32* %coarsen_cells, align 4, !dbg !10169
  br label %if.end, !dbg !10170

if.end:                                           ; preds = %if.then15, %if.else
  br label %if.end32

if.end32:                                         ; preds = %if.end, %if.then
  %20 = load i32, i32* %refine_cells, align 4, !dbg !10171
  %tobool = icmp ne i32 %20, 0, !dbg !10171
  br i1 %tobool, label %if.then34, label %lor.lhs.false, !dbg !10173

lor.lhs.false:                                    ; preds = %if.end32
  %21 = load i32, i32* %coarsen_cells, align 4, !dbg !10174
  %tobool33 = icmp ne i32 %21, 0, !dbg !10174
  br i1 %tobool33, label %if.then34, label %if.end78, !dbg !10175

if.then34:                                        ; preds = %lor.lhs.false, %if.end32
  call void @llvm.dbg.declare(metadata %"class.dealii::Vector"* %tmp, metadata !10176, metadata !DIExpression()), !dbg !10178
  %22 = load %"class.dealii::Vector"*, %"class.dealii::Vector"** %criteria.addr, align 8, !dbg !10179
  call void @_ZN6dealii6VectorIfEC1ERKS1_(%"class.dealii::Vector"* %tmp, %"class.dealii::Vector"* dereferenceable(88) %22), !dbg !10178
  %23 = load i32, i32* %refine_cells, align 4, !dbg !10180
  %tobool35 = icmp ne i32 %23, 0, !dbg !10180
  br i1 %tobool35, label %if.then36, label %if.end49, !dbg !10182

if.then36:                                        ; preds = %if.then34
  %call37 = invoke float* @_ZN6dealii6VectorIfE5beginEv(%"class.dealii::Vector"* %tmp)
          to label %invoke.cont unwind label %lpad, !dbg !10183

invoke.cont:                                      ; preds = %if.then36
  %call39 = invoke float* @_ZN6dealii6VectorIfE5beginEv(%"class.dealii::Vector"* %tmp)
          to label %invoke.cont38 unwind label %lpad, !dbg !10185

invoke.cont38:                                    ; preds = %invoke.cont
  %24 = load i32, i32* %refine_cells, align 4, !dbg !10186
  %idx.ext = sext i32 %24 to i64, !dbg !10187
  %add.ptr = getelementptr inbounds float, float* %call39, i64 %idx.ext, !dbg !10187
  %call41 = invoke float* @_ZN6dealii6VectorIfE3endEv(%"class.dealii::Vector"* %tmp)
          to label %invoke.cont40 unwind label %lpad, !dbg !10188

invoke.cont40:                                    ; preds = %invoke.cont38
  invoke void @_ZSt11nth_elementIPfSt7greaterIdEEvT_S3_S3_T0_(float* %call37, float* %add.ptr, float* %call41)
          to label %invoke.cont42 unwind label %lpad, !dbg !10189

invoke.cont42:                                    ; preds = %invoke.cont40
  %25 = load %"class.dealii::Triangulation"*, %"class.dealii::Triangulation"** %tria.addr, align 8, !dbg !10190
  %26 = load %"class.dealii::Vector"*, %"class.dealii::Vector"** %criteria.addr, align 8, !dbg !10191
  %call44 = invoke float* @_ZN6dealii6VectorIfE5beginEv(%"class.dealii::Vector"* %tmp)
          to label %invoke.cont43 unwind label %lpad, !dbg !10192

invoke.cont43:                                    ; preds = %invoke.cont42
  %27 = load i32, i32* %refine_cells, align 4, !dbg !10193
  %idx.ext45 = sext i32 %27 to i64, !dbg !10194
  %add.ptr46 = getelementptr inbounds float, float* %call44, i64 %idx.ext45, !dbg !10194
  %28 = load float, float* %add.ptr46, align 4, !dbg !10195
  %conv47 = fpext float %28 to double, !dbg !10195
  invoke void @_ZN6dealii14GridRefinement6refineILi3ENS_6VectorIfEELi3EEEvRNS_13TriangulationIXT_EXT1_EEERKT0_d(%"class.dealii::Triangulation"* dereferenceable(8552) %25, %"class.dealii::Vector"* dereferenceable(88) %26, double %conv47)
          to label %invoke.cont48 unwind label %lpad, !dbg !10196

invoke.cont48:                                    ; preds = %invoke.cont43
  br label %if.end49, !dbg !10197

lpad:                                             ; preds = %invoke.cont68, %invoke.cont66, %invoke.cont65, %invoke.cont62, %invoke.cont56, %invoke.cont54, %invoke.cont52, %if.then51, %invoke.cont43, %invoke.cont42, %invoke.cont40, %invoke.cont38, %invoke.cont, %if.then36
  %29 = landingpad { i8*, i32 }
          cleanup, !dbg !10198
  %30 = extractvalue { i8*, i32 } %29, 0, !dbg !10198
  store i8* %30, i8** %exn.slot, align 8, !dbg !10198
  %31 = extractvalue { i8*, i32 } %29, 1, !dbg !10198
  store i32 %31, i32* %ehselector.slot, align 4, !dbg !10198
  call void @_ZN6dealii6VectorIfED2Ev(%"class.dealii::Vector"* %tmp) #4, !dbg !10199
  br label %eh.resume, !dbg !10199

if.end49:                                         ; preds = %invoke.cont48, %if.then34
  %32 = load i32, i32* %coarsen_cells, align 4, !dbg !10200
  %tobool50 = icmp ne i32 %32, 0, !dbg !10200
  br i1 %tobool50, label %if.then51, label %if.end77, !dbg !10202

if.then51:                                        ; preds = %if.end49
  %call53 = invoke float* @_ZN6dealii6VectorIfE5beginEv(%"class.dealii::Vector"* %tmp)
          to label %invoke.cont52 unwind label %lpad, !dbg !10203

invoke.cont52:                                    ; preds = %if.then51
  %call55 = invoke float* @_ZN6dealii6VectorIfE5beginEv(%"class.dealii::Vector"* %tmp)
          to label %invoke.cont54 unwind label %lpad, !dbg !10205

invoke.cont54:                                    ; preds = %invoke.cont52
  %call57 = invoke i32 @_ZNK6dealii6VectorIfE4sizeEv(%"class.dealii::Vector"* %tmp)
          to label %invoke.cont56 unwind label %lpad, !dbg !10206

invoke.cont56:                                    ; preds = %invoke.cont54
  %idx.ext58 = zext i32 %call57 to i64, !dbg !10207
  %add.ptr59 = getelementptr inbounds float, float* %call55, i64 %idx.ext58, !dbg !10207
  %33 = load i32, i32* %coarsen_cells, align 4, !dbg !10208
  %idx.ext60 = sext i32 %33 to i64, !dbg !10209
  %idx.neg = sub i64 0, %idx.ext60, !dbg !10209
  %add.ptr61 = getelementptr inbounds float, float* %add.ptr59, i64 %idx.neg, !dbg !10209
  %call63 = invoke float* @_ZN6dealii6VectorIfE3endEv(%"class.dealii::Vector"* %tmp)
          to label %invoke.cont62 unwind label %lpad, !dbg !10210

invoke.cont62:                                    ; preds = %invoke.cont56
  invoke void @_ZSt11nth_elementIPfSt7greaterIdEEvT_S3_S3_T0_(float* %call53, float* %add.ptr61, float* %call63)
          to label %invoke.cont65 unwind label %lpad, !dbg !10211

invoke.cont65:                                    ; preds = %invoke.cont62
  %34 = load %"class.dealii::Triangulation"*, %"class.dealii::Triangulation"** %tria.addr, align 8, !dbg !10212
  %35 = load %"class.dealii::Vector"*, %"class.dealii::Vector"** %criteria.addr, align 8, !dbg !10213
  %call67 = invoke float* @_ZN6dealii6VectorIfE5beginEv(%"class.dealii::Vector"* %tmp)
          to label %invoke.cont66 unwind label %lpad, !dbg !10214

invoke.cont66:                                    ; preds = %invoke.cont65
  %call69 = invoke i32 @_ZNK6dealii6VectorIfE4sizeEv(%"class.dealii::Vector"* %tmp)
          to label %invoke.cont68 unwind label %lpad, !dbg !10215

invoke.cont68:                                    ; preds = %invoke.cont66
  %idx.ext70 = zext i32 %call69 to i64, !dbg !10216
  %add.ptr71 = getelementptr inbounds float, float* %call67, i64 %idx.ext70, !dbg !10216
  %36 = load i32, i32* %coarsen_cells, align 4, !dbg !10217
  %idx.ext72 = sext i32 %36 to i64, !dbg !10218
  %idx.neg73 = sub i64 0, %idx.ext72, !dbg !10218
  %add.ptr74 = getelementptr inbounds float, float* %add.ptr71, i64 %idx.neg73, !dbg !10218
  %37 = load float, float* %add.ptr74, align 4, !dbg !10219
  %conv75 = fpext float %37 to double, !dbg !10219
  invoke void @_ZN6dealii14GridRefinement7coarsenILi3ENS_6VectorIfEELi3EEEvRNS_13TriangulationIXT_EXT1_EEERKT0_d(%"class.dealii::Triangulation"* dereferenceable(8552) %34, %"class.dealii::Vector"* dereferenceable(88) %35, double %conv75)
          to label %invoke.cont76 unwind label %lpad, !dbg !10220

invoke.cont76:                                    ; preds = %invoke.cont68
  br label %if.end77, !dbg !10221

if.end77:                                         ; preds = %invoke.cont76, %if.end49
  call void @_ZN6dealii6VectorIfED2Ev(%"class.dealii::Vector"* %tmp) #4, !dbg !10199
  br label %if.end78, !dbg !10222

if.end78:                                         ; preds = %if.end77, %lor.lhs.false
  ret void, !dbg !10223

eh.resume:                                        ; preds = %lpad
  %exn = load i8*, i8** %exn.slot, align 8, !dbg !10199
  %sel = load i32, i32* %ehselector.slot, align 4, !dbg !10199
  %lpad.val = insertvalue { i8*, i32 } undef, i8* %exn, 0, !dbg !10199
  %lpad.val79 = insertvalue { i8*, i32 } %lpad.val, i32 %sel, 1, !dbg !10199
  resume { i8*, i32 } %lpad.val79, !dbg !10199
}

declare dso_local void @_ZN6dealii6VectorIfEC1ERKS1_(%"class.dealii::Vector"*, %"class.dealii::Vector"* dereferenceable(88)) unnamed_addr #2

; Function Attrs: noinline uwtable
define linkonce_odr dso_local void @_ZSt11nth_elementIPfSt7greaterIdEEvT_S3_S3_T0_(float* %__first, float* %__nth, float* %__last) #0 comdat !dbg !10224 {
entry:
  %__comp = alloca %"struct.std::greater", align 1
  %__first.addr = alloca float*, align 8
  %__nth.addr = alloca float*, align 8
  %__last.addr = alloca float*, align 8
  %agg.tmp = alloca %"struct.__gnu_cxx::__ops::_Iter_comp_iter", align 1
  %agg.tmp2 = alloca %"struct.std::greater", align 1
  %undef.agg.tmp = alloca %"struct.__gnu_cxx::__ops::_Iter_comp_iter", align 1
  store float* %__first, float** %__first.addr, align 8
  call void @llvm.dbg.declare(metadata float** %__first.addr, metadata !10228, metadata !DIExpression()), !dbg !10229
  store float* %__nth, float** %__nth.addr, align 8
  call void @llvm.dbg.declare(metadata float** %__nth.addr, metadata !10230, metadata !DIExpression()), !dbg !10231
  store float* %__last, float** %__last.addr, align 8
  call void @llvm.dbg.declare(metadata float** %__last.addr, metadata !10232, metadata !DIExpression()), !dbg !10233
  call void @llvm.dbg.declare(metadata %"struct.std::greater"* %__comp, metadata !10234, metadata !DIExpression()), !dbg !10235
  %0 = load float*, float** %__first.addr, align 8, !dbg !10236
  %1 = load float*, float** %__last.addr, align 8, !dbg !10238
  %cmp = icmp eq float* %0, %1, !dbg !10239
  br i1 %cmp, label %if.then, label %lor.lhs.false, !dbg !10240

lor.lhs.false:                                    ; preds = %entry
  %2 = load float*, float** %__nth.addr, align 8, !dbg !10241
  %3 = load float*, float** %__last.addr, align 8, !dbg !10242
  %cmp1 = icmp eq float* %2, %3, !dbg !10243
  br i1 %cmp1, label %if.then, label %if.end, !dbg !10244

if.then:                                          ; preds = %lor.lhs.false, %entry
  br label %return, !dbg !10245

if.end:                                           ; preds = %lor.lhs.false
  %4 = load float*, float** %__first.addr, align 8, !dbg !10246
  %5 = load float*, float** %__nth.addr, align 8, !dbg !10247
  %6 = load float*, float** %__last.addr, align 8, !dbg !10248
  %7 = load float*, float** %__last.addr, align 8, !dbg !10249
  %8 = load float*, float** %__first.addr, align 8, !dbg !10250
  %sub.ptr.lhs.cast = ptrtoint float* %7 to i64, !dbg !10251
  %sub.ptr.rhs.cast = ptrtoint float* %8 to i64, !dbg !10251
  %sub.ptr.sub = sub i64 %sub.ptr.lhs.cast, %sub.ptr.rhs.cast, !dbg !10251
  %sub.ptr.div = sdiv exact i64 %sub.ptr.sub, 4, !dbg !10251
  %call = call i64 @_ZSt4__lgl(i64 %sub.ptr.div), !dbg !10252
  %mul = mul nsw i64 %call, 2, !dbg !10253
  call void @_ZN9__gnu_cxx5__ops16__iter_comp_iterISt7greaterIdEEENS0_15_Iter_comp_iterIT_EES5_(), !dbg !10254
  call void @_ZSt13__introselectIPflN9__gnu_cxx5__ops15_Iter_comp_iterISt7greaterIdEEEEvT_S7_S7_T0_T1_(float* %4, float* %5, float* %6, i64 %mul), !dbg !10255
  br label %return, !dbg !10256

return:                                           ; preds = %if.end, %if.then
  ret void, !dbg !10256
}

; Function Attrs: noinline nounwind uwtable
define linkonce_odr dso_local float* @_ZN6dealii6VectorIfE5beginEv(%"class.dealii::Vector"* %this) #1 comdat align 2 !dbg !10257 {
entry:
  %this.addr = alloca %"class.dealii::Vector"*, align 8
  store %"class.dealii::Vector"* %this, %"class.dealii::Vector"** %this.addr, align 8
  call void @llvm.dbg.declare(metadata %"class.dealii::Vector"** %this.addr, metadata !10258, metadata !DIExpression()), !dbg !10260
  %this1 = load %"class.dealii::Vector"*, %"class.dealii::Vector"** %this.addr, align 8
  %val = getelementptr inbounds %"class.dealii::Vector", %"class.dealii::Vector"* %this1, i32 0, i32 3, !dbg !10261
  %0 = load float*, float** %val, align 8, !dbg !10261
  %arrayidx = getelementptr inbounds float, float* %0, i64 0, !dbg !10261
  ret float* %arrayidx, !dbg !10262
}

; Function Attrs: noinline nounwind uwtable
define linkonce_odr dso_local float* @_ZN6dealii6VectorIfE3endEv(%"class.dealii::Vector"* %this) #1 comdat align 2 !dbg !10263 {
entry:
  %this.addr = alloca %"class.dealii::Vector"*, align 8
  store %"class.dealii::Vector"* %this, %"class.dealii::Vector"** %this.addr, align 8
  call void @llvm.dbg.declare(metadata %"class.dealii::Vector"** %this.addr, metadata !10264, metadata !DIExpression()), !dbg !10265
  %this1 = load %"class.dealii::Vector"*, %"class.dealii::Vector"** %this.addr, align 8
  %val = getelementptr inbounds %"class.dealii::Vector", %"class.dealii::Vector"* %this1, i32 0, i32 3, !dbg !10266
  %0 = load float*, float** %val, align 8, !dbg !10266
  %vec_size = getelementptr inbounds %"class.dealii::Vector", %"class.dealii::Vector"* %this1, i32 0, i32 1, !dbg !10267
  %1 = load i32, i32* %vec_size, align 8, !dbg !10267
  %idxprom = zext i32 %1 to i64, !dbg !10266
  %arrayidx = getelementptr inbounds float, float* %0, i64 %idxprom, !dbg !10266
  ret float* %arrayidx, !dbg !10268
}

; Function Attrs: noinline nounwind uwtable
define linkonce_odr dso_local void @_ZN6dealii6VectorIfED2Ev(%"class.dealii::Vector"* %this) unnamed_addr #1 comdat align 2 !dbg !10269 {
entry:
  %this.addr = alloca %"class.dealii::Vector"*, align 8
  store %"class.dealii::Vector"* %this, %"class.dealii::Vector"** %this.addr, align 8
  call void @llvm.dbg.declare(metadata %"class.dealii::Vector"** %this.addr, metadata !10270, metadata !DIExpression()), !dbg !10271
  %this1 = load %"class.dealii::Vector"*, %"class.dealii::Vector"** %this.addr, align 8
  %0 = bitcast %"class.dealii::Vector"* %this1 to i32 (...)***, !dbg !10272
  store i32 (...)** bitcast (i8** getelementptr inbounds ({ [6 x i8*] }, { [6 x i8*] }* @_ZTVN6dealii6VectorIfEE, i32 0, inrange i32 0, i32 2) to i32 (...)**), i32 (...)*** %0, align 8, !dbg !10272
  %val = getelementptr inbounds %"class.dealii::Vector", %"class.dealii::Vector"* %this1, i32 0, i32 3, !dbg !10273
  %1 = load float*, float** %val, align 8, !dbg !10273
  %tobool = icmp ne float* %1, null, !dbg !10273
  br i1 %tobool, label %if.then, label %if.end, !dbg !10276

if.then:                                          ; preds = %entry
  %val2 = getelementptr inbounds %"class.dealii::Vector", %"class.dealii::Vector"* %this1, i32 0, i32 3, !dbg !10277
  %2 = load float*, float** %val2, align 8, !dbg !10277
  %isnull = icmp eq float* %2, null, !dbg !10279
  br i1 %isnull, label %delete.end, label %delete.notnull, !dbg !10279

delete.notnull:                                   ; preds = %if.then
  %3 = bitcast float* %2 to i8*, !dbg !10279
  call void @_ZdaPv(i8* %3) #11, !dbg !10279
  br label %delete.end, !dbg !10279

delete.end:                                       ; preds = %delete.notnull, %if.then
  %val3 = getelementptr inbounds %"class.dealii::Vector", %"class.dealii::Vector"* %this1, i32 0, i32 3, !dbg !10280
  store float* null, float** %val3, align 8, !dbg !10281
  br label %if.end, !dbg !10282

if.end:                                           ; preds = %delete.end, %entry
  %4 = bitcast %"class.dealii::Vector"* %this1 to %"class.dealii::Subscriptor"*, !dbg !10283
  call void @_ZN6dealii11SubscriptorD2Ev(%"class.dealii::Subscriptor"* %4) #4, !dbg !10283
  ret void, !dbg !10284
}

; Function Attrs: noinline uwtable
define weak_odr dso_local void @_ZN6dealii14GridRefinement33refine_and_coarsen_fixed_fractionILi3ENS_6VectorIdEELi3EEEvRNS_13TriangulationIXT_EXT1_EEERKT0_ddj(%"class.dealii::Triangulation"* dereferenceable(8552) %tria, %"class.dealii::Vector.109"* dereferenceable(88) %criteria, double %top_fraction, double %bottom_fraction, i32 %max_n_cells) #0 comdat personality i8* bitcast (i32 (...)* @__gxx_personality_v0 to i8*) !dbg !10285 {
entry:
  %tria.addr = alloca %"class.dealii::Triangulation"*, align 8
  %criteria.addr = alloca %"class.dealii::Vector.109"*, align 8
  %top_fraction.addr = alloca double, align 8
  %bottom_fraction.addr = alloca double, align 8
  %max_n_cells.addr = alloca i32, align 4
  %tmp = alloca %"class.dealii::Vector.109", align 8
  %total_error = alloca double, align 8
  %exn.slot = alloca i8*
  %ehselector.slot = alloca i32
  %agg.tmp = alloca %"struct.std::greater", align 1
  %pp = alloca double*, align 8
  %sum = alloca double, align 8
  %top_threshold = alloca double, align 8
  %qq = alloca double*, align 8
  %sum19 = alloca double, align 8
  %bottom_threshold = alloca double, align 8
  %refine_cells = alloca i32, align 4
  %coarsen_cells = alloca i32, align 4
  %cleanup.dest.slot = alloca i32, align 4
  store %"class.dealii::Triangulation"* %tria, %"class.dealii::Triangulation"** %tria.addr, align 8
  call void @llvm.dbg.declare(metadata %"class.dealii::Triangulation"** %tria.addr, metadata !10286, metadata !DIExpression()), !dbg !10287
  store %"class.dealii::Vector.109"* %criteria, %"class.dealii::Vector.109"** %criteria.addr, align 8
  call void @llvm.dbg.declare(metadata %"class.dealii::Vector.109"** %criteria.addr, metadata !10288, metadata !DIExpression()), !dbg !10289
  store double %top_fraction, double* %top_fraction.addr, align 8
  call void @llvm.dbg.declare(metadata double* %top_fraction.addr, metadata !10290, metadata !DIExpression()), !dbg !10291
  store double %bottom_fraction, double* %bottom_fraction.addr, align 8
  call void @llvm.dbg.declare(metadata double* %bottom_fraction.addr, metadata !10292, metadata !DIExpression()), !dbg !10293
  store i32 %max_n_cells, i32* %max_n_cells.addr, align 4
  call void @llvm.dbg.declare(metadata i32* %max_n_cells.addr, metadata !10294, metadata !DIExpression()), !dbg !10295
  call void @llvm.dbg.declare(metadata %"class.dealii::Vector.109"* %tmp, metadata !10296, metadata !DIExpression()), !dbg !10297
  %0 = load %"class.dealii::Vector.109"*, %"class.dealii::Vector.109"** %criteria.addr, align 8, !dbg !10298
  call void @_ZN6dealii6VectorIdEC1ERKS1_(%"class.dealii::Vector.109"* %tmp, %"class.dealii::Vector.109"* dereferenceable(88) %0), !dbg !10297
  call void @llvm.dbg.declare(metadata double* %total_error, metadata !10299, metadata !DIExpression()), !dbg !10300
  %call = invoke double @_ZNK6dealii6VectorIdE7l1_normEv(%"class.dealii::Vector.109"* %tmp)
          to label %invoke.cont unwind label %lpad, !dbg !10301

invoke.cont:                                      ; preds = %entry
  store double %call, double* %total_error, align 8, !dbg !10300
  %call2 = invoke double* @_ZN6dealii6VectorIdE5beginEv(%"class.dealii::Vector.109"* %tmp)
          to label %invoke.cont1 unwind label %lpad, !dbg !10302

invoke.cont1:                                     ; preds = %invoke.cont
  %call4 = invoke double* @_ZN6dealii6VectorIdE3endEv(%"class.dealii::Vector.109"* %tmp)
          to label %invoke.cont3 unwind label %lpad, !dbg !10303

invoke.cont3:                                     ; preds = %invoke.cont1
  invoke void @_ZSt4sortIPdSt7greaterIdEEvT_S3_T0_(double* %call2, double* %call4)
          to label %invoke.cont5 unwind label %lpad, !dbg !10304

invoke.cont5:                                     ; preds = %invoke.cont3
  call void @llvm.dbg.declare(metadata double** %pp, metadata !10305, metadata !DIExpression()), !dbg !10306
  %call7 = invoke double* @_ZN6dealii6VectorIdE5beginEv(%"class.dealii::Vector.109"* %tmp)
          to label %invoke.cont6 unwind label %lpad, !dbg !10307

invoke.cont6:                                     ; preds = %invoke.cont5
  store double* %call7, double** %pp, align 8, !dbg !10306
  call void @llvm.dbg.declare(metadata double* %sum, metadata !10308, metadata !DIExpression()), !dbg !10310
  store double 0.000000e+00, double* %sum, align 8, !dbg !10310
  br label %for.cond, !dbg !10311

for.cond:                                         ; preds = %for.inc, %invoke.cont6
  %1 = load double, double* %sum, align 8, !dbg !10312
  %2 = load double, double* %top_fraction.addr, align 8, !dbg !10314
  %3 = load double, double* %total_error, align 8, !dbg !10315
  %mul = fmul double %2, %3, !dbg !10316
  %cmp = fcmp olt double %1, %mul, !dbg !10317
  br i1 %cmp, label %land.rhs, label %land.end, !dbg !10318

land.rhs:                                         ; preds = %for.cond
  %4 = load double*, double** %pp, align 8, !dbg !10319
  %call9 = invoke double* @_ZN6dealii6VectorIdE3endEv(%"class.dealii::Vector.109"* %tmp)
          to label %invoke.cont8 unwind label %lpad, !dbg !10320

invoke.cont8:                                     ; preds = %land.rhs
  %add.ptr = getelementptr inbounds double, double* %call9, i64 -1, !dbg !10321
  %cmp10 = icmp ne double* %4, %add.ptr, !dbg !10322
  br label %land.end

land.end:                                         ; preds = %invoke.cont8, %for.cond
  %5 = phi i1 [ false, %for.cond ], [ %cmp10, %invoke.cont8 ], !dbg !10323
  br i1 %5, label %for.body, label %for.end, !dbg !10324

for.body:                                         ; preds = %land.end
  %6 = load double*, double** %pp, align 8, !dbg !10325
  %7 = load double, double* %6, align 8, !dbg !10326
  %8 = load double, double* %sum, align 8, !dbg !10327
  %add = fadd double %8, %7, !dbg !10327
  store double %add, double* %sum, align 8, !dbg !10327
  br label %for.inc, !dbg !10328

for.inc:                                          ; preds = %for.body
  %9 = load double*, double** %pp, align 8, !dbg !10329
  %incdec.ptr = getelementptr inbounds double, double* %9, i32 1, !dbg !10329
  store double* %incdec.ptr, double** %pp, align 8, !dbg !10329
  br label %for.cond, !dbg !10330, !llvm.loop !10331

lpad:                                             ; preds = %if.then93, %if.end89, %if.then87, %if.end83, %if.end, %invoke.cont68, %invoke.cont62, %if.then, %invoke.cont46, %invoke.cont44, %cond.end42, %for.end32, %land.rhs23, %cond.end, %for.end, %land.rhs, %invoke.cont5, %invoke.cont3, %invoke.cont1, %invoke.cont, %entry
  %10 = landingpad { i8*, i32 }
          cleanup, !dbg !10333
  %11 = extractvalue { i8*, i32 } %10, 0, !dbg !10333
  store i8* %11, i8** %exn.slot, align 8, !dbg !10333
  %12 = extractvalue { i8*, i32 } %10, 1, !dbg !10333
  store i32 %12, i32* %ehselector.slot, align 4, !dbg !10333
  call void @_ZN6dealii6VectorIdED2Ev(%"class.dealii::Vector.109"* %tmp) #4, !dbg !10333
  br label %eh.resume, !dbg !10333

for.end:                                          ; preds = %land.end
  call void @llvm.dbg.declare(metadata double* %top_threshold, metadata !10334, metadata !DIExpression()), !dbg !10335
  %13 = load double*, double** %pp, align 8, !dbg !10336
  %call12 = invoke double* @_ZN6dealii6VectorIdE5beginEv(%"class.dealii::Vector.109"* %tmp)
          to label %invoke.cont11 unwind label %lpad, !dbg !10337

invoke.cont11:                                    ; preds = %for.end
  %cmp13 = icmp ne double* %13, %call12, !dbg !10338
  br i1 %cmp13, label %cond.true, label %cond.false, !dbg !10336

cond.true:                                        ; preds = %invoke.cont11
  %14 = load double*, double** %pp, align 8, !dbg !10339
  %15 = load double, double* %14, align 8, !dbg !10340
  %16 = load double*, double** %pp, align 8, !dbg !10341
  %add.ptr14 = getelementptr inbounds double, double* %16, i64 -1, !dbg !10342
  %17 = load double, double* %add.ptr14, align 8, !dbg !10343
  %add15 = fadd double %15, %17, !dbg !10344
  %div = fdiv double %add15, 2.000000e+00, !dbg !10345
  br label %cond.end, !dbg !10336

cond.false:                                       ; preds = %invoke.cont11
  %18 = load double*, double** %pp, align 8, !dbg !10346
  %19 = load double, double* %18, align 8, !dbg !10347
  br label %cond.end, !dbg !10336

cond.end:                                         ; preds = %cond.false, %cond.true
  %cond = phi double [ %div, %cond.true ], [ %19, %cond.false ], !dbg !10336
  store double %cond, double* %top_threshold, align 8, !dbg !10335
  call void @llvm.dbg.declare(metadata double** %qq, metadata !10348, metadata !DIExpression()), !dbg !10349
  %call17 = invoke double* @_ZN6dealii6VectorIdE3endEv(%"class.dealii::Vector.109"* %tmp)
          to label %invoke.cont16 unwind label %lpad, !dbg !10350

invoke.cont16:                                    ; preds = %cond.end
  %add.ptr18 = getelementptr inbounds double, double* %call17, i64 -1, !dbg !10351
  store double* %add.ptr18, double** %qq, align 8, !dbg !10349
  call void @llvm.dbg.declare(metadata double* %sum19, metadata !10352, metadata !DIExpression()), !dbg !10354
  store double 0.000000e+00, double* %sum19, align 8, !dbg !10354
  br label %for.cond20, !dbg !10355

for.cond20:                                       ; preds = %for.inc30, %invoke.cont16
  %20 = load double, double* %sum19, align 8, !dbg !10356
  %21 = load double, double* %bottom_fraction.addr, align 8, !dbg !10358
  %22 = load double, double* %total_error, align 8, !dbg !10359
  %mul21 = fmul double %21, %22, !dbg !10360
  %cmp22 = fcmp olt double %20, %mul21, !dbg !10361
  br i1 %cmp22, label %land.rhs23, label %land.end27, !dbg !10362

land.rhs23:                                       ; preds = %for.cond20
  %23 = load double*, double** %qq, align 8, !dbg !10363
  %call25 = invoke double* @_ZN6dealii6VectorIdE5beginEv(%"class.dealii::Vector.109"* %tmp)
          to label %invoke.cont24 unwind label %lpad, !dbg !10364

invoke.cont24:                                    ; preds = %land.rhs23
  %cmp26 = icmp ne double* %23, %call25, !dbg !10365
  br label %land.end27

land.end27:                                       ; preds = %invoke.cont24, %for.cond20
  %24 = phi i1 [ false, %for.cond20 ], [ %cmp26, %invoke.cont24 ], !dbg !10366
  br i1 %24, label %for.body28, label %for.end32, !dbg !10367

for.body28:                                       ; preds = %land.end27
  %25 = load double*, double** %qq, align 8, !dbg !10368
  %26 = load double, double* %25, align 8, !dbg !10369
  %27 = load double, double* %sum19, align 8, !dbg !10370
  %add29 = fadd double %27, %26, !dbg !10370
  store double %add29, double* %sum19, align 8, !dbg !10370
  br label %for.inc30, !dbg !10371

for.inc30:                                        ; preds = %for.body28
  %28 = load double*, double** %qq, align 8, !dbg !10372
  %incdec.ptr31 = getelementptr inbounds double, double* %28, i32 -1, !dbg !10372
  store double* %incdec.ptr31, double** %qq, align 8, !dbg !10372
  br label %for.cond20, !dbg !10373, !llvm.loop !10374

for.end32:                                        ; preds = %land.end27
  call void @llvm.dbg.declare(metadata double* %bottom_threshold, metadata !10376, metadata !DIExpression()), !dbg !10377
  %29 = load double*, double** %qq, align 8, !dbg !10378
  %call34 = invoke double* @_ZN6dealii6VectorIdE3endEv(%"class.dealii::Vector.109"* %tmp)
          to label %invoke.cont33 unwind label %lpad, !dbg !10379

invoke.cont33:                                    ; preds = %for.end32
  %add.ptr35 = getelementptr inbounds double, double* %call34, i64 -1, !dbg !10380
  %cmp36 = icmp ne double* %29, %add.ptr35, !dbg !10381
  br i1 %cmp36, label %cond.true37, label %cond.false41, !dbg !10378

cond.true37:                                      ; preds = %invoke.cont33
  %30 = load double*, double** %qq, align 8, !dbg !10382
  %31 = load double, double* %30, align 8, !dbg !10383
  %32 = load double*, double** %qq, align 8, !dbg !10384
  %add.ptr38 = getelementptr inbounds double, double* %32, i64 1, !dbg !10385
  %33 = load double, double* %add.ptr38, align 8, !dbg !10386
  %add39 = fadd double %31, %33, !dbg !10387
  %div40 = fdiv double %add39, 2.000000e+00, !dbg !10388
  br label %cond.end42, !dbg !10378

cond.false41:                                     ; preds = %invoke.cont33
  br label %cond.end42, !dbg !10378

cond.end42:                                       ; preds = %cond.false41, %cond.true37
  %cond43 = phi double [ %div40, %cond.true37 ], [ 0.000000e+00, %cond.false41 ], !dbg !10378
  store double %cond43, double* %bottom_threshold, align 8, !dbg !10377
  call void @llvm.dbg.declare(metadata i32* %refine_cells, metadata !10389, metadata !DIExpression()), !dbg !10391
  %34 = load double*, double** %pp, align 8, !dbg !10392
  %call45 = invoke double* @_ZN6dealii6VectorIdE5beginEv(%"class.dealii::Vector.109"* %tmp)
          to label %invoke.cont44 unwind label %lpad, !dbg !10393

invoke.cont44:                                    ; preds = %cond.end42
  %sub.ptr.lhs.cast = ptrtoint double* %34 to i64, !dbg !10394
  %sub.ptr.rhs.cast = ptrtoint double* %call45 to i64, !dbg !10394
  %sub.ptr.sub = sub i64 %sub.ptr.lhs.cast, %sub.ptr.rhs.cast, !dbg !10394
  %sub.ptr.div = sdiv exact i64 %sub.ptr.sub, 8, !dbg !10394
  %conv = trunc i64 %sub.ptr.div to i32, !dbg !10392
  store i32 %conv, i32* %refine_cells, align 4, !dbg !10391
  call void @llvm.dbg.declare(metadata i32* %coarsen_cells, metadata !10395, metadata !DIExpression()), !dbg !10396
  %call47 = invoke double* @_ZN6dealii6VectorIdE3endEv(%"class.dealii::Vector.109"* %tmp)
          to label %invoke.cont46 unwind label %lpad, !dbg !10397

invoke.cont46:                                    ; preds = %invoke.cont44
  %35 = load double*, double** %qq, align 8, !dbg !10398
  %sub.ptr.lhs.cast48 = ptrtoint double* %call47 to i64, !dbg !10399
  %sub.ptr.rhs.cast49 = ptrtoint double* %35 to i64, !dbg !10399
  %sub.ptr.sub50 = sub i64 %sub.ptr.lhs.cast48, %sub.ptr.rhs.cast49, !dbg !10399
  %sub.ptr.div51 = sdiv exact i64 %sub.ptr.sub50, 8, !dbg !10399
  %conv52 = trunc i64 %sub.ptr.div51 to i32, !dbg !10400
  store i32 %conv52, i32* %coarsen_cells, align 4, !dbg !10396
  %36 = load %"class.dealii::Triangulation"*, %"class.dealii::Triangulation"** %tria.addr, align 8, !dbg !10401
  %call54 = invoke i32 @_ZNK6dealii13TriangulationILi3ELi3EE14n_active_cellsEv(%"class.dealii::Triangulation"* %36)
          to label %invoke.cont53 unwind label %lpad, !dbg !10403

invoke.cont53:                                    ; preds = %invoke.cont46
  %37 = load i32, i32* %refine_cells, align 4, !dbg !10404
  %mul55 = mul i32 %37, 7, !dbg !10405
  %add56 = add i32 %call54, %mul55, !dbg !10406
  %38 = load i32, i32* %coarsen_cells, align 4, !dbg !10407
  %mul57 = mul i32 %38, 7, !dbg !10408
  %div58 = udiv i32 %mul57, 8, !dbg !10409
  %sub = sub i32 %add56, %div58, !dbg !10410
  %39 = load i32, i32* %max_n_cells.addr, align 4, !dbg !10411
  %cmp59 = icmp ugt i32 %sub, %39, !dbg !10412
  br i1 %cmp59, label %if.then, label %if.end, !dbg !10413

if.then:                                          ; preds = %invoke.cont53
  %40 = load %"class.dealii::Triangulation"*, %"class.dealii::Triangulation"** %tria.addr, align 8, !dbg !10414
  %41 = load %"class.dealii::Vector.109"*, %"class.dealii::Vector.109"** %criteria.addr, align 8, !dbg !10416
  %42 = load i32, i32* %refine_cells, align 4, !dbg !10417
  %conv60 = uitofp i32 %42 to double, !dbg !10417
  %mul61 = fmul double 1.000000e+00, %conv60, !dbg !10418
  %43 = load %"class.dealii::Vector.109"*, %"class.dealii::Vector.109"** %criteria.addr, align 8, !dbg !10419
  %call63 = invoke i32 @_ZNK6dealii6VectorIdE4sizeEv(%"class.dealii::Vector.109"* %43)
          to label %invoke.cont62 unwind label %lpad, !dbg !10420

invoke.cont62:                                    ; preds = %if.then
  %conv64 = uitofp i32 %call63 to double, !dbg !10419
  %div65 = fdiv double %mul61, %conv64, !dbg !10421
  %44 = load i32, i32* %coarsen_cells, align 4, !dbg !10422
  %conv66 = uitofp i32 %44 to double, !dbg !10422
  %mul67 = fmul double 1.000000e+00, %conv66, !dbg !10423
  %45 = load %"class.dealii::Vector.109"*, %"class.dealii::Vector.109"** %criteria.addr, align 8, !dbg !10424
  %call69 = invoke i32 @_ZNK6dealii6VectorIdE4sizeEv(%"class.dealii::Vector.109"* %45)
          to label %invoke.cont68 unwind label %lpad, !dbg !10425

invoke.cont68:                                    ; preds = %invoke.cont62
  %conv70 = uitofp i32 %call69 to double, !dbg !10424
  %div71 = fdiv double %mul67, %conv70, !dbg !10426
  %46 = load i32, i32* %max_n_cells.addr, align 4, !dbg !10427
  invoke void @_ZN6dealii14GridRefinement31refine_and_coarsen_fixed_numberILi3ENS_6VectorIdEELi3EEEvRNS_13TriangulationIXT_EXT1_EEERKT0_ddj(%"class.dealii::Triangulation"* dereferenceable(8552) %40, %"class.dealii::Vector.109"* dereferenceable(88) %41, double %div65, double %div71, i32 %46)
          to label %invoke.cont72 unwind label %lpad, !dbg !10428

invoke.cont72:                                    ; preds = %invoke.cont68
  store i32 1, i32* %cleanup.dest.slot, align 4
  br label %cleanup, !dbg !10429

if.end:                                           ; preds = %invoke.cont53
  %47 = load double, double* %top_threshold, align 8, !dbg !10430
  %48 = load %"class.dealii::Vector.109"*, %"class.dealii::Vector.109"** %criteria.addr, align 8, !dbg !10432
  %call74 = invoke double @_ZN6dealii12_GLOBAL__N_111max_elementIdEET_RKNS_6VectorIS2_EE(%"class.dealii::Vector.109"* dereferenceable(88) %48)
          to label %invoke.cont73 unwind label %lpad, !dbg !10433

invoke.cont73:                                    ; preds = %if.end
  %cmp75 = fcmp oeq double %47, %call74, !dbg !10434
  br i1 %cmp75, label %land.lhs.true, label %if.end79, !dbg !10435

land.lhs.true:                                    ; preds = %invoke.cont73
  %49 = load double, double* %top_fraction.addr, align 8, !dbg !10436
  %cmp76 = fcmp une double %49, 1.000000e+00, !dbg !10437
  br i1 %cmp76, label %if.then77, label %if.end79, !dbg !10438

if.then77:                                        ; preds = %land.lhs.true
  %50 = load double, double* %top_threshold, align 8, !dbg !10439
  %mul78 = fmul double %50, 0x3FEFF7CED916872B, !dbg !10439
  store double %mul78, double* %top_threshold, align 8, !dbg !10439
  br label %if.end79, !dbg !10440

if.end79:                                         ; preds = %if.then77, %land.lhs.true, %invoke.cont73
  %51 = load double, double* %bottom_threshold, align 8, !dbg !10441
  %52 = load double, double* %top_threshold, align 8, !dbg !10443
  %cmp80 = fcmp oge double %51, %52, !dbg !10444
  br i1 %cmp80, label %if.then81, label %if.end83, !dbg !10445

if.then81:                                        ; preds = %if.end79
  %53 = load double, double* %top_threshold, align 8, !dbg !10446
  %mul82 = fmul double 0x3FEFF7CED916872B, %53, !dbg !10447
  store double %mul82, double* %bottom_threshold, align 8, !dbg !10448
  br label %if.end83, !dbg !10449

if.end83:                                         ; preds = %if.then81, %if.end79
  %54 = load double, double* %top_threshold, align 8, !dbg !10450
  %55 = load %"class.dealii::Vector.109"*, %"class.dealii::Vector.109"** %criteria.addr, align 8, !dbg !10452
  %call85 = invoke double @_ZN6dealii12_GLOBAL__N_111max_elementIdEET_RKNS_6VectorIS2_EE(%"class.dealii::Vector.109"* dereferenceable(88) %55)
          to label %invoke.cont84 unwind label %lpad, !dbg !10453

invoke.cont84:                                    ; preds = %if.end83
  %cmp86 = fcmp olt double %54, %call85, !dbg !10454
  br i1 %cmp86, label %if.then87, label %if.end89, !dbg !10455

if.then87:                                        ; preds = %invoke.cont84
  %56 = load %"class.dealii::Triangulation"*, %"class.dealii::Triangulation"** %tria.addr, align 8, !dbg !10456
  %57 = load %"class.dealii::Vector.109"*, %"class.dealii::Vector.109"** %criteria.addr, align 8, !dbg !10457
  %58 = load double, double* %top_threshold, align 8, !dbg !10458
  invoke void @_ZN6dealii14GridRefinement6refineILi3ENS_6VectorIdEELi3EEEvRNS_13TriangulationIXT_EXT1_EEERKT0_d(%"class.dealii::Triangulation"* dereferenceable(8552) %56, %"class.dealii::Vector.109"* dereferenceable(88) %57, double %58)
          to label %invoke.cont88 unwind label %lpad, !dbg !10459

invoke.cont88:                                    ; preds = %if.then87
  br label %if.end89, !dbg !10459

if.end89:                                         ; preds = %invoke.cont88, %invoke.cont84
  %59 = load double, double* %bottom_threshold, align 8, !dbg !10460
  %60 = load %"class.dealii::Vector.109"*, %"class.dealii::Vector.109"** %criteria.addr, align 8, !dbg !10462
  %call91 = invoke double @_ZN6dealii12_GLOBAL__N_111min_elementIdEET_RKNS_6VectorIS2_EE(%"class.dealii::Vector.109"* dereferenceable(88) %60)
          to label %invoke.cont90 unwind label %lpad, !dbg !10463

invoke.cont90:                                    ; preds = %if.end89
  %cmp92 = fcmp ogt double %59, %call91, !dbg !10464
  br i1 %cmp92, label %if.then93, label %if.end95, !dbg !10465

if.then93:                                        ; preds = %invoke.cont90
  %61 = load %"class.dealii::Triangulation"*, %"class.dealii::Triangulation"** %tria.addr, align 8, !dbg !10466
  %62 = load %"class.dealii::Vector.109"*, %"class.dealii::Vector.109"** %criteria.addr, align 8, !dbg !10467
  %63 = load double, double* %bottom_threshold, align 8, !dbg !10468
  invoke void @_ZN6dealii14GridRefinement7coarsenILi3ENS_6VectorIdEELi3EEEvRNS_13TriangulationIXT_EXT1_EEERKT0_d(%"class.dealii::Triangulation"* dereferenceable(8552) %61, %"class.dealii::Vector.109"* dereferenceable(88) %62, double %63)
          to label %invoke.cont94 unwind label %lpad, !dbg !10469

invoke.cont94:                                    ; preds = %if.then93
  br label %if.end95, !dbg !10469

if.end95:                                         ; preds = %invoke.cont94, %invoke.cont90
  store i32 0, i32* %cleanup.dest.slot, align 4, !dbg !10333
  br label %cleanup, !dbg !10333

cleanup:                                          ; preds = %if.end95, %invoke.cont72
  call void @_ZN6dealii6VectorIdED2Ev(%"class.dealii::Vector.109"* %tmp) #4, !dbg !10333
  %cleanup.dest = load i32, i32* %cleanup.dest.slot, align 4
  switch i32 %cleanup.dest, label %unreachable [
    i32 0, label %cleanup.cont
    i32 1, label %cleanup.cont
  ]

cleanup.cont:                                     ; preds = %cleanup, %cleanup
  ret void, !dbg !10333

eh.resume:                                        ; preds = %lpad
  %exn = load i8*, i8** %exn.slot, align 8, !dbg !10333
  %sel = load i32, i32* %ehselector.slot, align 4, !dbg !10333
  %lpad.val = insertvalue { i8*, i32 } undef, i8* %exn, 0, !dbg !10333
  %lpad.val96 = insertvalue { i8*, i32 } %lpad.val, i32 %sel, 1, !dbg !10333
  resume { i8*, i32 } %lpad.val96, !dbg !10333

unreachable:                                      ; preds = %cleanup
  unreachable
}

declare dso_local double @_ZNK6dealii6VectorIdE7l1_normEv(%"class.dealii::Vector.109"*) #2

; Function Attrs: noinline uwtable
define linkonce_odr dso_local void @_ZSt4sortIPdSt7greaterIdEEvT_S3_T0_(double* %__first, double* %__last) #0 comdat !dbg !10470 {
entry:
  %__comp = alloca %"struct.std::greater", align 1
  %__first.addr = alloca double*, align 8
  %__last.addr = alloca double*, align 8
  %agg.tmp = alloca %"struct.__gnu_cxx::__ops::_Iter_comp_iter", align 1
  %agg.tmp1 = alloca %"struct.std::greater", align 1
  %undef.agg.tmp = alloca %"struct.__gnu_cxx::__ops::_Iter_comp_iter", align 1
  store double* %__first, double** %__first.addr, align 8
  call void @llvm.dbg.declare(metadata double** %__first.addr, metadata !10473, metadata !DIExpression()), !dbg !10474
  store double* %__last, double** %__last.addr, align 8
  call void @llvm.dbg.declare(metadata double** %__last.addr, metadata !10475, metadata !DIExpression()), !dbg !10476
  call void @llvm.dbg.declare(metadata %"struct.std::greater"* %__comp, metadata !10477, metadata !DIExpression()), !dbg !10478
  %0 = load double*, double** %__first.addr, align 8, !dbg !10479
  %1 = load double*, double** %__last.addr, align 8, !dbg !10480
  call void @_ZN9__gnu_cxx5__ops16__iter_comp_iterISt7greaterIdEEENS0_15_Iter_comp_iterIT_EES5_(), !dbg !10481
  call void @_ZSt6__sortIPdN9__gnu_cxx5__ops15_Iter_comp_iterISt7greaterIdEEEEvT_S7_T0_(double* %0, double* %1), !dbg !10482
  ret void, !dbg !10483
}

; Function Attrs: noinline uwtable
define internal double @_ZN6dealii12_GLOBAL__N_111max_elementIdEET_RKNS_6VectorIS2_EE(%"class.dealii::Vector.109"* dereferenceable(88) %criteria) #0 !dbg !10484 {
entry:
  %criteria.addr = alloca %"class.dealii::Vector.109"*, align 8
  store %"class.dealii::Vector.109"* %criteria, %"class.dealii::Vector.109"** %criteria.addr, align 8
  call void @llvm.dbg.declare(metadata %"class.dealii::Vector.109"** %criteria.addr, metadata !10488, metadata !DIExpression()), !dbg !10489
  %0 = load %"class.dealii::Vector.109"*, %"class.dealii::Vector.109"** %criteria.addr, align 8, !dbg !10490
  %call = call double* @_ZNK6dealii6VectorIdE5beginEv(%"class.dealii::Vector.109"* %0), !dbg !10491
  %1 = load %"class.dealii::Vector.109"*, %"class.dealii::Vector.109"** %criteria.addr, align 8, !dbg !10492
  %call1 = call double* @_ZNK6dealii6VectorIdE3endEv(%"class.dealii::Vector.109"* %1), !dbg !10493
  %call2 = call double* @_ZSt11max_elementIPKdET_S2_S2_(double* %call, double* %call1), !dbg !10494
  %2 = load double, double* %call2, align 8, !dbg !10495
  ret double %2, !dbg !10496
}

; Function Attrs: noinline uwtable
define internal double @_ZN6dealii12_GLOBAL__N_111min_elementIdEET_RKNS_6VectorIS2_EE(%"class.dealii::Vector.109"* dereferenceable(88) %criteria) #0 !dbg !10497 {
entry:
  %criteria.addr = alloca %"class.dealii::Vector.109"*, align 8
  store %"class.dealii::Vector.109"* %criteria, %"class.dealii::Vector.109"** %criteria.addr, align 8
  call void @llvm.dbg.declare(metadata %"class.dealii::Vector.109"** %criteria.addr, metadata !10498, metadata !DIExpression()), !dbg !10499
  %0 = load %"class.dealii::Vector.109"*, %"class.dealii::Vector.109"** %criteria.addr, align 8, !dbg !10500
  %call = call double* @_ZNK6dealii6VectorIdE5beginEv(%"class.dealii::Vector.109"* %0), !dbg !10501
  %1 = load %"class.dealii::Vector.109"*, %"class.dealii::Vector.109"** %criteria.addr, align 8, !dbg !10502
  %call1 = call double* @_ZNK6dealii6VectorIdE3endEv(%"class.dealii::Vector.109"* %1), !dbg !10503
  %call2 = call double* @_ZSt11min_elementIPKdET_S2_S2_(double* %call, double* %call1), !dbg !10504
  %2 = load double, double* %call2, align 8, !dbg !10505
  ret double %2, !dbg !10506
}

; Function Attrs: noinline uwtable
define weak_odr dso_local void @_ZN6dealii14GridRefinement33refine_and_coarsen_fixed_fractionILi3ENS_6VectorIfEELi3EEEvRNS_13TriangulationIXT_EXT1_EEERKT0_ddj(%"class.dealii::Triangulation"* dereferenceable(8552) %tria, %"class.dealii::Vector"* dereferenceable(88) %criteria, double %top_fraction, double %bottom_fraction, i32 %max_n_cells) #0 comdat personality i8* bitcast (i32 (...)* @__gxx_personality_v0 to i8*) !dbg !10507 {
entry:
  %tria.addr = alloca %"class.dealii::Triangulation"*, align 8
  %criteria.addr = alloca %"class.dealii::Vector"*, align 8
  %top_fraction.addr = alloca double, align 8
  %bottom_fraction.addr = alloca double, align 8
  %max_n_cells.addr = alloca i32, align 4
  %tmp = alloca %"class.dealii::Vector", align 8
  %total_error = alloca double, align 8
  %exn.slot = alloca i8*
  %ehselector.slot = alloca i32
  %agg.tmp = alloca %"struct.std::greater", align 1
  %pp = alloca float*, align 8
  %sum = alloca double, align 8
  %top_threshold = alloca double, align 8
  %qq = alloca float*, align 8
  %sum21 = alloca double, align 8
  %bottom_threshold = alloca double, align 8
  %refine_cells = alloca i32, align 4
  %coarsen_cells = alloca i32, align 4
  %cleanup.dest.slot = alloca i32, align 4
  store %"class.dealii::Triangulation"* %tria, %"class.dealii::Triangulation"** %tria.addr, align 8
  call void @llvm.dbg.declare(metadata %"class.dealii::Triangulation"** %tria.addr, metadata !10508, metadata !DIExpression()), !dbg !10509
  store %"class.dealii::Vector"* %criteria, %"class.dealii::Vector"** %criteria.addr, align 8
  call void @llvm.dbg.declare(metadata %"class.dealii::Vector"** %criteria.addr, metadata !10510, metadata !DIExpression()), !dbg !10511
  store double %top_fraction, double* %top_fraction.addr, align 8
  call void @llvm.dbg.declare(metadata double* %top_fraction.addr, metadata !10512, metadata !DIExpression()), !dbg !10513
  store double %bottom_fraction, double* %bottom_fraction.addr, align 8
  call void @llvm.dbg.declare(metadata double* %bottom_fraction.addr, metadata !10514, metadata !DIExpression()), !dbg !10515
  store i32 %max_n_cells, i32* %max_n_cells.addr, align 4
  call void @llvm.dbg.declare(metadata i32* %max_n_cells.addr, metadata !10516, metadata !DIExpression()), !dbg !10517
  call void @llvm.dbg.declare(metadata %"class.dealii::Vector"* %tmp, metadata !10518, metadata !DIExpression()), !dbg !10519
  %0 = load %"class.dealii::Vector"*, %"class.dealii::Vector"** %criteria.addr, align 8, !dbg !10520
  call void @_ZN6dealii6VectorIfEC1ERKS1_(%"class.dealii::Vector"* %tmp, %"class.dealii::Vector"* dereferenceable(88) %0), !dbg !10519
  call void @llvm.dbg.declare(metadata double* %total_error, metadata !10521, metadata !DIExpression()), !dbg !10522
  %call = invoke float @_ZNK6dealii6VectorIfE7l1_normEv(%"class.dealii::Vector"* %tmp)
          to label %invoke.cont unwind label %lpad, !dbg !10523

invoke.cont:                                      ; preds = %entry
  %conv = fpext float %call to double, !dbg !10524
  store double %conv, double* %total_error, align 8, !dbg !10522
  %call2 = invoke float* @_ZN6dealii6VectorIfE5beginEv(%"class.dealii::Vector"* %tmp)
          to label %invoke.cont1 unwind label %lpad, !dbg !10525

invoke.cont1:                                     ; preds = %invoke.cont
  %call4 = invoke float* @_ZN6dealii6VectorIfE3endEv(%"class.dealii::Vector"* %tmp)
          to label %invoke.cont3 unwind label %lpad, !dbg !10526

invoke.cont3:                                     ; preds = %invoke.cont1
  invoke void @_ZSt4sortIPfSt7greaterIdEEvT_S3_T0_(float* %call2, float* %call4)
          to label %invoke.cont5 unwind label %lpad, !dbg !10527

invoke.cont5:                                     ; preds = %invoke.cont3
  call void @llvm.dbg.declare(metadata float** %pp, metadata !10528, metadata !DIExpression()), !dbg !10529
  %call7 = invoke float* @_ZN6dealii6VectorIfE5beginEv(%"class.dealii::Vector"* %tmp)
          to label %invoke.cont6 unwind label %lpad, !dbg !10530

invoke.cont6:                                     ; preds = %invoke.cont5
  store float* %call7, float** %pp, align 8, !dbg !10529
  call void @llvm.dbg.declare(metadata double* %sum, metadata !10531, metadata !DIExpression()), !dbg !10533
  store double 0.000000e+00, double* %sum, align 8, !dbg !10533
  br label %for.cond, !dbg !10534

for.cond:                                         ; preds = %for.inc, %invoke.cont6
  %1 = load double, double* %sum, align 8, !dbg !10535
  %2 = load double, double* %top_fraction.addr, align 8, !dbg !10537
  %3 = load double, double* %total_error, align 8, !dbg !10538
  %mul = fmul double %2, %3, !dbg !10539
  %cmp = fcmp olt double %1, %mul, !dbg !10540
  br i1 %cmp, label %land.rhs, label %land.end, !dbg !10541

land.rhs:                                         ; preds = %for.cond
  %4 = load float*, float** %pp, align 8, !dbg !10542
  %call9 = invoke float* @_ZN6dealii6VectorIfE3endEv(%"class.dealii::Vector"* %tmp)
          to label %invoke.cont8 unwind label %lpad, !dbg !10543

invoke.cont8:                                     ; preds = %land.rhs
  %add.ptr = getelementptr inbounds float, float* %call9, i64 -1, !dbg !10544
  %cmp10 = icmp ne float* %4, %add.ptr, !dbg !10545
  br label %land.end

land.end:                                         ; preds = %invoke.cont8, %for.cond
  %5 = phi i1 [ false, %for.cond ], [ %cmp10, %invoke.cont8 ], !dbg !10546
  br i1 %5, label %for.body, label %for.end, !dbg !10547

for.body:                                         ; preds = %land.end
  %6 = load float*, float** %pp, align 8, !dbg !10548
  %7 = load float, float* %6, align 4, !dbg !10549
  %conv11 = fpext float %7 to double, !dbg !10549
  %8 = load double, double* %sum, align 8, !dbg !10550
  %add = fadd double %8, %conv11, !dbg !10550
  store double %add, double* %sum, align 8, !dbg !10550
  br label %for.inc, !dbg !10551

for.inc:                                          ; preds = %for.body
  %9 = load float*, float** %pp, align 8, !dbg !10552
  %incdec.ptr = getelementptr inbounds float, float* %9, i32 1, !dbg !10552
  store float* %incdec.ptr, float** %pp, align 8, !dbg !10552
  br label %for.cond, !dbg !10553, !llvm.loop !10554

lpad:                                             ; preds = %if.then101, %if.end96, %if.then94, %if.end89, %if.end, %invoke.cont73, %invoke.cont67, %if.then, %invoke.cont51, %invoke.cont48, %cond.end45, %for.end35, %land.rhs25, %cond.end, %for.end, %land.rhs, %invoke.cont5, %invoke.cont3, %invoke.cont1, %invoke.cont, %entry
  %10 = landingpad { i8*, i32 }
          cleanup, !dbg !10556
  %11 = extractvalue { i8*, i32 } %10, 0, !dbg !10556
  store i8* %11, i8** %exn.slot, align 8, !dbg !10556
  %12 = extractvalue { i8*, i32 } %10, 1, !dbg !10556
  store i32 %12, i32* %ehselector.slot, align 4, !dbg !10556
  call void @_ZN6dealii6VectorIfED2Ev(%"class.dealii::Vector"* %tmp) #4, !dbg !10556
  br label %eh.resume, !dbg !10556

for.end:                                          ; preds = %land.end
  call void @llvm.dbg.declare(metadata double* %top_threshold, metadata !10557, metadata !DIExpression()), !dbg !10558
  %13 = load float*, float** %pp, align 8, !dbg !10559
  %call13 = invoke float* @_ZN6dealii6VectorIfE5beginEv(%"class.dealii::Vector"* %tmp)
          to label %invoke.cont12 unwind label %lpad, !dbg !10560

invoke.cont12:                                    ; preds = %for.end
  %cmp14 = icmp ne float* %13, %call13, !dbg !10561
  br i1 %cmp14, label %cond.true, label %cond.false, !dbg !10559

cond.true:                                        ; preds = %invoke.cont12
  %14 = load float*, float** %pp, align 8, !dbg !10562
  %15 = load float, float* %14, align 4, !dbg !10563
  %16 = load float*, float** %pp, align 8, !dbg !10564
  %add.ptr15 = getelementptr inbounds float, float* %16, i64 -1, !dbg !10565
  %17 = load float, float* %add.ptr15, align 4, !dbg !10566
  %add16 = fadd float %15, %17, !dbg !10567
  %div = fdiv float %add16, 2.000000e+00, !dbg !10568
  br label %cond.end, !dbg !10559

cond.false:                                       ; preds = %invoke.cont12
  %18 = load float*, float** %pp, align 8, !dbg !10569
  %19 = load float, float* %18, align 4, !dbg !10570
  br label %cond.end, !dbg !10559

cond.end:                                         ; preds = %cond.false, %cond.true
  %cond = phi float [ %div, %cond.true ], [ %19, %cond.false ], !dbg !10559
  %conv17 = fpext float %cond to double, !dbg !10571
  store double %conv17, double* %top_threshold, align 8, !dbg !10558
  call void @llvm.dbg.declare(metadata float** %qq, metadata !10572, metadata !DIExpression()), !dbg !10573
  %call19 = invoke float* @_ZN6dealii6VectorIfE3endEv(%"class.dealii::Vector"* %tmp)
          to label %invoke.cont18 unwind label %lpad, !dbg !10574

invoke.cont18:                                    ; preds = %cond.end
  %add.ptr20 = getelementptr inbounds float, float* %call19, i64 -1, !dbg !10575
  store float* %add.ptr20, float** %qq, align 8, !dbg !10573
  call void @llvm.dbg.declare(metadata double* %sum21, metadata !10576, metadata !DIExpression()), !dbg !10578
  store double 0.000000e+00, double* %sum21, align 8, !dbg !10578
  br label %for.cond22, !dbg !10579

for.cond22:                                       ; preds = %for.inc33, %invoke.cont18
  %20 = load double, double* %sum21, align 8, !dbg !10580
  %21 = load double, double* %bottom_fraction.addr, align 8, !dbg !10582
  %22 = load double, double* %total_error, align 8, !dbg !10583
  %mul23 = fmul double %21, %22, !dbg !10584
  %cmp24 = fcmp olt double %20, %mul23, !dbg !10585
  br i1 %cmp24, label %land.rhs25, label %land.end29, !dbg !10586

land.rhs25:                                       ; preds = %for.cond22
  %23 = load float*, float** %qq, align 8, !dbg !10587
  %call27 = invoke float* @_ZN6dealii6VectorIfE5beginEv(%"class.dealii::Vector"* %tmp)
          to label %invoke.cont26 unwind label %lpad, !dbg !10588

invoke.cont26:                                    ; preds = %land.rhs25
  %cmp28 = icmp ne float* %23, %call27, !dbg !10589
  br label %land.end29

land.end29:                                       ; preds = %invoke.cont26, %for.cond22
  %24 = phi i1 [ false, %for.cond22 ], [ %cmp28, %invoke.cont26 ], !dbg !10590
  br i1 %24, label %for.body30, label %for.end35, !dbg !10591

for.body30:                                       ; preds = %land.end29
  %25 = load float*, float** %qq, align 8, !dbg !10592
  %26 = load float, float* %25, align 4, !dbg !10593
  %conv31 = fpext float %26 to double, !dbg !10593
  %27 = load double, double* %sum21, align 8, !dbg !10594
  %add32 = fadd double %27, %conv31, !dbg !10594
  store double %add32, double* %sum21, align 8, !dbg !10594
  br label %for.inc33, !dbg !10595

for.inc33:                                        ; preds = %for.body30
  %28 = load float*, float** %qq, align 8, !dbg !10596
  %incdec.ptr34 = getelementptr inbounds float, float* %28, i32 -1, !dbg !10596
  store float* %incdec.ptr34, float** %qq, align 8, !dbg !10596
  br label %for.cond22, !dbg !10597, !llvm.loop !10598

for.end35:                                        ; preds = %land.end29
  call void @llvm.dbg.declare(metadata double* %bottom_threshold, metadata !10600, metadata !DIExpression()), !dbg !10601
  %29 = load float*, float** %qq, align 8, !dbg !10602
  %call37 = invoke float* @_ZN6dealii6VectorIfE3endEv(%"class.dealii::Vector"* %tmp)
          to label %invoke.cont36 unwind label %lpad, !dbg !10603

invoke.cont36:                                    ; preds = %for.end35
  %add.ptr38 = getelementptr inbounds float, float* %call37, i64 -1, !dbg !10604
  %cmp39 = icmp ne float* %29, %add.ptr38, !dbg !10605
  br i1 %cmp39, label %cond.true40, label %cond.false44, !dbg !10602

cond.true40:                                      ; preds = %invoke.cont36
  %30 = load float*, float** %qq, align 8, !dbg !10606
  %31 = load float, float* %30, align 4, !dbg !10607
  %32 = load float*, float** %qq, align 8, !dbg !10608
  %add.ptr41 = getelementptr inbounds float, float* %32, i64 1, !dbg !10609
  %33 = load float, float* %add.ptr41, align 4, !dbg !10610
  %add42 = fadd float %31, %33, !dbg !10611
  %div43 = fdiv float %add42, 2.000000e+00, !dbg !10612
  br label %cond.end45, !dbg !10602

cond.false44:                                     ; preds = %invoke.cont36
  br label %cond.end45, !dbg !10602

cond.end45:                                       ; preds = %cond.false44, %cond.true40
  %cond46 = phi float [ %div43, %cond.true40 ], [ 0.000000e+00, %cond.false44 ], !dbg !10602
  %conv47 = fpext float %cond46 to double, !dbg !10613
  store double %conv47, double* %bottom_threshold, align 8, !dbg !10601
  call void @llvm.dbg.declare(metadata i32* %refine_cells, metadata !10614, metadata !DIExpression()), !dbg !10616
  %34 = load float*, float** %pp, align 8, !dbg !10617
  %call49 = invoke float* @_ZN6dealii6VectorIfE5beginEv(%"class.dealii::Vector"* %tmp)
          to label %invoke.cont48 unwind label %lpad, !dbg !10618

invoke.cont48:                                    ; preds = %cond.end45
  %sub.ptr.lhs.cast = ptrtoint float* %34 to i64, !dbg !10619
  %sub.ptr.rhs.cast = ptrtoint float* %call49 to i64, !dbg !10619
  %sub.ptr.sub = sub i64 %sub.ptr.lhs.cast, %sub.ptr.rhs.cast, !dbg !10619
  %sub.ptr.div = sdiv exact i64 %sub.ptr.sub, 4, !dbg !10619
  %conv50 = trunc i64 %sub.ptr.div to i32, !dbg !10617
  store i32 %conv50, i32* %refine_cells, align 4, !dbg !10616
  call void @llvm.dbg.declare(metadata i32* %coarsen_cells, metadata !10620, metadata !DIExpression()), !dbg !10621
  %call52 = invoke float* @_ZN6dealii6VectorIfE3endEv(%"class.dealii::Vector"* %tmp)
          to label %invoke.cont51 unwind label %lpad, !dbg !10622

invoke.cont51:                                    ; preds = %invoke.cont48
  %35 = load float*, float** %qq, align 8, !dbg !10623
  %sub.ptr.lhs.cast53 = ptrtoint float* %call52 to i64, !dbg !10624
  %sub.ptr.rhs.cast54 = ptrtoint float* %35 to i64, !dbg !10624
  %sub.ptr.sub55 = sub i64 %sub.ptr.lhs.cast53, %sub.ptr.rhs.cast54, !dbg !10624
  %sub.ptr.div56 = sdiv exact i64 %sub.ptr.sub55, 4, !dbg !10624
  %conv57 = trunc i64 %sub.ptr.div56 to i32, !dbg !10625
  store i32 %conv57, i32* %coarsen_cells, align 4, !dbg !10621
  %36 = load %"class.dealii::Triangulation"*, %"class.dealii::Triangulation"** %tria.addr, align 8, !dbg !10626
  %call59 = invoke i32 @_ZNK6dealii13TriangulationILi3ELi3EE14n_active_cellsEv(%"class.dealii::Triangulation"* %36)
          to label %invoke.cont58 unwind label %lpad, !dbg !10628

invoke.cont58:                                    ; preds = %invoke.cont51
  %37 = load i32, i32* %refine_cells, align 4, !dbg !10629
  %mul60 = mul i32 %37, 7, !dbg !10630
  %add61 = add i32 %call59, %mul60, !dbg !10631
  %38 = load i32, i32* %coarsen_cells, align 4, !dbg !10632
  %mul62 = mul i32 %38, 7, !dbg !10633
  %div63 = udiv i32 %mul62, 8, !dbg !10634
  %sub = sub i32 %add61, %div63, !dbg !10635
  %39 = load i32, i32* %max_n_cells.addr, align 4, !dbg !10636
  %cmp64 = icmp ugt i32 %sub, %39, !dbg !10637
  br i1 %cmp64, label %if.then, label %if.end, !dbg !10638

if.then:                                          ; preds = %invoke.cont58
  %40 = load %"class.dealii::Triangulation"*, %"class.dealii::Triangulation"** %tria.addr, align 8, !dbg !10639
  %41 = load %"class.dealii::Vector"*, %"class.dealii::Vector"** %criteria.addr, align 8, !dbg !10641
  %42 = load i32, i32* %refine_cells, align 4, !dbg !10642
  %conv65 = uitofp i32 %42 to double, !dbg !10642
  %mul66 = fmul double 1.000000e+00, %conv65, !dbg !10643
  %43 = load %"class.dealii::Vector"*, %"class.dealii::Vector"** %criteria.addr, align 8, !dbg !10644
  %call68 = invoke i32 @_ZNK6dealii6VectorIfE4sizeEv(%"class.dealii::Vector"* %43)
          to label %invoke.cont67 unwind label %lpad, !dbg !10645

invoke.cont67:                                    ; preds = %if.then
  %conv69 = uitofp i32 %call68 to double, !dbg !10644
  %div70 = fdiv double %mul66, %conv69, !dbg !10646
  %44 = load i32, i32* %coarsen_cells, align 4, !dbg !10647
  %conv71 = uitofp i32 %44 to double, !dbg !10647
  %mul72 = fmul double 1.000000e+00, %conv71, !dbg !10648
  %45 = load %"class.dealii::Vector"*, %"class.dealii::Vector"** %criteria.addr, align 8, !dbg !10649
  %call74 = invoke i32 @_ZNK6dealii6VectorIfE4sizeEv(%"class.dealii::Vector"* %45)
          to label %invoke.cont73 unwind label %lpad, !dbg !10650

invoke.cont73:                                    ; preds = %invoke.cont67
  %conv75 = uitofp i32 %call74 to double, !dbg !10649
  %div76 = fdiv double %mul72, %conv75, !dbg !10651
  %46 = load i32, i32* %max_n_cells.addr, align 4, !dbg !10652
  invoke void @_ZN6dealii14GridRefinement31refine_and_coarsen_fixed_numberILi3ENS_6VectorIfEELi3EEEvRNS_13TriangulationIXT_EXT1_EEERKT0_ddj(%"class.dealii::Triangulation"* dereferenceable(8552) %40, %"class.dealii::Vector"* dereferenceable(88) %41, double %div70, double %div76, i32 %46)
          to label %invoke.cont77 unwind label %lpad, !dbg !10653

invoke.cont77:                                    ; preds = %invoke.cont73
  store i32 1, i32* %cleanup.dest.slot, align 4
  br label %cleanup, !dbg !10654

if.end:                                           ; preds = %invoke.cont58
  %47 = load double, double* %top_threshold, align 8, !dbg !10655
  %48 = load %"class.dealii::Vector"*, %"class.dealii::Vector"** %criteria.addr, align 8, !dbg !10657
  %call79 = invoke float @_ZN6dealii12_GLOBAL__N_111max_elementIfEET_RKNS_6VectorIS2_EE(%"class.dealii::Vector"* dereferenceable(88) %48)
          to label %invoke.cont78 unwind label %lpad, !dbg !10658

invoke.cont78:                                    ; preds = %if.end
  %conv80 = fpext float %call79 to double, !dbg !10658
  %cmp81 = fcmp oeq double %47, %conv80, !dbg !10659
  br i1 %cmp81, label %land.lhs.true, label %if.end85, !dbg !10660

land.lhs.true:                                    ; preds = %invoke.cont78
  %49 = load double, double* %top_fraction.addr, align 8, !dbg !10661
  %cmp82 = fcmp une double %49, 1.000000e+00, !dbg !10662
  br i1 %cmp82, label %if.then83, label %if.end85, !dbg !10663

if.then83:                                        ; preds = %land.lhs.true
  %50 = load double, double* %top_threshold, align 8, !dbg !10664
  %mul84 = fmul double %50, 0x3FEFF7CED916872B, !dbg !10664
  store double %mul84, double* %top_threshold, align 8, !dbg !10664
  br label %if.end85, !dbg !10665

if.end85:                                         ; preds = %if.then83, %land.lhs.true, %invoke.cont78
  %51 = load double, double* %bottom_threshold, align 8, !dbg !10666
  %52 = load double, double* %top_threshold, align 8, !dbg !10668
  %cmp86 = fcmp oge double %51, %52, !dbg !10669
  br i1 %cmp86, label %if.then87, label %if.end89, !dbg !10670

if.then87:                                        ; preds = %if.end85
  %53 = load double, double* %top_threshold, align 8, !dbg !10671
  %mul88 = fmul double 0x3FEFF7CED916872B, %53, !dbg !10672
  store double %mul88, double* %bottom_threshold, align 8, !dbg !10673
  br label %if.end89, !dbg !10674

if.end89:                                         ; preds = %if.then87, %if.end85
  %54 = load double, double* %top_threshold, align 8, !dbg !10675
  %55 = load %"class.dealii::Vector"*, %"class.dealii::Vector"** %criteria.addr, align 8, !dbg !10677
  %call91 = invoke float @_ZN6dealii12_GLOBAL__N_111max_elementIfEET_RKNS_6VectorIS2_EE(%"class.dealii::Vector"* dereferenceable(88) %55)
          to label %invoke.cont90 unwind label %lpad, !dbg !10678

invoke.cont90:                                    ; preds = %if.end89
  %conv92 = fpext float %call91 to double, !dbg !10678
  %cmp93 = fcmp olt double %54, %conv92, !dbg !10679
  br i1 %cmp93, label %if.then94, label %if.end96, !dbg !10680

if.then94:                                        ; preds = %invoke.cont90
  %56 = load %"class.dealii::Triangulation"*, %"class.dealii::Triangulation"** %tria.addr, align 8, !dbg !10681
  %57 = load %"class.dealii::Vector"*, %"class.dealii::Vector"** %criteria.addr, align 8, !dbg !10682
  %58 = load double, double* %top_threshold, align 8, !dbg !10683
  invoke void @_ZN6dealii14GridRefinement6refineILi3ENS_6VectorIfEELi3EEEvRNS_13TriangulationIXT_EXT1_EEERKT0_d(%"class.dealii::Triangulation"* dereferenceable(8552) %56, %"class.dealii::Vector"* dereferenceable(88) %57, double %58)
          to label %invoke.cont95 unwind label %lpad, !dbg !10684

invoke.cont95:                                    ; preds = %if.then94
  br label %if.end96, !dbg !10684

if.end96:                                         ; preds = %invoke.cont95, %invoke.cont90
  %59 = load double, double* %bottom_threshold, align 8, !dbg !10685
  %60 = load %"class.dealii::Vector"*, %"class.dealii::Vector"** %criteria.addr, align 8, !dbg !10687
  %call98 = invoke float @_ZN6dealii12_GLOBAL__N_111min_elementIfEET_RKNS_6VectorIS2_EE(%"class.dealii::Vector"* dereferenceable(88) %60)
          to label %invoke.cont97 unwind label %lpad, !dbg !10688

invoke.cont97:                                    ; preds = %if.end96
  %conv99 = fpext float %call98 to double, !dbg !10688
  %cmp100 = fcmp ogt double %59, %conv99, !dbg !10689
  br i1 %cmp100, label %if.then101, label %if.end103, !dbg !10690

if.then101:                                       ; preds = %invoke.cont97
  %61 = load %"class.dealii::Triangulation"*, %"class.dealii::Triangulation"** %tria.addr, align 8, !dbg !10691
  %62 = load %"class.dealii::Vector"*, %"class.dealii::Vector"** %criteria.addr, align 8, !dbg !10692
  %63 = load double, double* %bottom_threshold, align 8, !dbg !10693
  invoke void @_ZN6dealii14GridRefinement7coarsenILi3ENS_6VectorIfEELi3EEEvRNS_13TriangulationIXT_EXT1_EEERKT0_d(%"class.dealii::Triangulation"* dereferenceable(8552) %61, %"class.dealii::Vector"* dereferenceable(88) %62, double %63)
          to label %invoke.cont102 unwind label %lpad, !dbg !10694

invoke.cont102:                                   ; preds = %if.then101
  br label %if.end103, !dbg !10694

if.end103:                                        ; preds = %invoke.cont102, %invoke.cont97
  store i32 0, i32* %cleanup.dest.slot, align 4, !dbg !10556
  br label %cleanup, !dbg !10556

cleanup:                                          ; preds = %if.end103, %invoke.cont77
  call void @_ZN6dealii6VectorIfED2Ev(%"class.dealii::Vector"* %tmp) #4, !dbg !10556
  %cleanup.dest = load i32, i32* %cleanup.dest.slot, align 4
  switch i32 %cleanup.dest, label %unreachable [
    i32 0, label %cleanup.cont
    i32 1, label %cleanup.cont
  ]

cleanup.cont:                                     ; preds = %cleanup, %cleanup
  ret void, !dbg !10556

eh.resume:                                        ; preds = %lpad
  %exn = load i8*, i8** %exn.slot, align 8, !dbg !10556
  %sel = load i32, i32* %ehselector.slot, align 4, !dbg !10556
  %lpad.val = insertvalue { i8*, i32 } undef, i8* %exn, 0, !dbg !10556
  %lpad.val104 = insertvalue { i8*, i32 } %lpad.val, i32 %sel, 1, !dbg !10556
  resume { i8*, i32 } %lpad.val104, !dbg !10556

unreachable:                                      ; preds = %cleanup
  unreachable
}

declare dso_local float @_ZNK6dealii6VectorIfE7l1_normEv(%"class.dealii::Vector"*) #2

; Function Attrs: noinline uwtable
define linkonce_odr dso_local void @_ZSt4sortIPfSt7greaterIdEEvT_S3_T0_(float* %__first, float* %__last) #0 comdat !dbg !10695 {
entry:
  %__comp = alloca %"struct.std::greater", align 1
  %__first.addr = alloca float*, align 8
  %__last.addr = alloca float*, align 8
  %agg.tmp = alloca %"struct.__gnu_cxx::__ops::_Iter_comp_iter", align 1
  %agg.tmp1 = alloca %"struct.std::greater", align 1
  %undef.agg.tmp = alloca %"struct.__gnu_cxx::__ops::_Iter_comp_iter", align 1
  store float* %__first, float** %__first.addr, align 8
  call void @llvm.dbg.declare(metadata float** %__first.addr, metadata !10698, metadata !DIExpression()), !dbg !10699
  store float* %__last, float** %__last.addr, align 8
  call void @llvm.dbg.declare(metadata float** %__last.addr, metadata !10700, metadata !DIExpression()), !dbg !10701
  call void @llvm.dbg.declare(metadata %"struct.std::greater"* %__comp, metadata !10702, metadata !DIExpression()), !dbg !10703
  %0 = load float*, float** %__first.addr, align 8, !dbg !10704
  %1 = load float*, float** %__last.addr, align 8, !dbg !10705
  call void @_ZN9__gnu_cxx5__ops16__iter_comp_iterISt7greaterIdEEENS0_15_Iter_comp_iterIT_EES5_(), !dbg !10706
  call void @_ZSt6__sortIPfN9__gnu_cxx5__ops15_Iter_comp_iterISt7greaterIdEEEEvT_S7_T0_(float* %0, float* %1), !dbg !10707
  ret void, !dbg !10708
}

; Function Attrs: noinline uwtable
define internal float @_ZN6dealii12_GLOBAL__N_111max_elementIfEET_RKNS_6VectorIS2_EE(%"class.dealii::Vector"* dereferenceable(88) %criteria) #0 !dbg !10709 {
entry:
  %criteria.addr = alloca %"class.dealii::Vector"*, align 8
  store %"class.dealii::Vector"* %criteria, %"class.dealii::Vector"** %criteria.addr, align 8
  call void @llvm.dbg.declare(metadata %"class.dealii::Vector"** %criteria.addr, metadata !10712, metadata !DIExpression()), !dbg !10713
  %0 = load %"class.dealii::Vector"*, %"class.dealii::Vector"** %criteria.addr, align 8, !dbg !10714
  %call = call float* @_ZNK6dealii6VectorIfE5beginEv(%"class.dealii::Vector"* %0), !dbg !10715
  %1 = load %"class.dealii::Vector"*, %"class.dealii::Vector"** %criteria.addr, align 8, !dbg !10716
  %call1 = call float* @_ZNK6dealii6VectorIfE3endEv(%"class.dealii::Vector"* %1), !dbg !10717
  %call2 = call float* @_ZSt11max_elementIPKfET_S2_S2_(float* %call, float* %call1), !dbg !10718
  %2 = load float, float* %call2, align 4, !dbg !10719
  ret float %2, !dbg !10720
}

; Function Attrs: noinline uwtable
define internal float @_ZN6dealii12_GLOBAL__N_111min_elementIfEET_RKNS_6VectorIS2_EE(%"class.dealii::Vector"* dereferenceable(88) %criteria) #0 !dbg !10721 {
entry:
  %criteria.addr = alloca %"class.dealii::Vector"*, align 8
  store %"class.dealii::Vector"* %criteria, %"class.dealii::Vector"** %criteria.addr, align 8
  call void @llvm.dbg.declare(metadata %"class.dealii::Vector"** %criteria.addr, metadata !10722, metadata !DIExpression()), !dbg !10723
  %0 = load %"class.dealii::Vector"*, %"class.dealii::Vector"** %criteria.addr, align 8, !dbg !10724
  %call = call float* @_ZNK6dealii6VectorIfE5beginEv(%"class.dealii::Vector"* %0), !dbg !10725
  %1 = load %"class.dealii::Vector"*, %"class.dealii::Vector"** %criteria.addr, align 8, !dbg !10726
  %call1 = call float* @_ZNK6dealii6VectorIfE3endEv(%"class.dealii::Vector"* %1), !dbg !10727
  %call2 = call float* @_ZSt11min_elementIPKfET_S2_S2_(float* %call, float* %call1), !dbg !10728
  %2 = load float, float* %call2, align 4, !dbg !10729
  ret float %2, !dbg !10730
}

; Function Attrs: noinline uwtable
define weak_odr dso_local void @_ZN6dealii14GridRefinement27refine_and_coarsen_optimizeILi3ENS_6VectorIfEELi3EEEvRNS_13TriangulationIXT_EXT1_EEERKT0_(%"class.dealii::Triangulation"* dereferenceable(8552) %tria, %"class.dealii::Vector"* dereferenceable(88) %criteria) #0 comdat personality i8* bitcast (i32 (...)* @__gxx_personality_v0 to i8*) !dbg !10731 {
entry:
  %tria.addr = alloca %"class.dealii::Triangulation"*, align 8
  %criteria.addr = alloca %"class.dealii::Vector"*, align 8
  %tmp = alloca %"class.std::vector.33", align 8
  %ref.tmp = alloca %"class.std::allocator.35", align 1
  %exn.slot = alloca i8*
  %ehselector.slot = alloca i32
  %i = alloca i32, align 4
  %s0 = alloca double, align 8
  %E = alloca double, align 8
  %N = alloca i32, align 4
  %M = alloca i32, align 4
  %min = alloca double, align 8
  %minArg = alloca i32, align 4
  store %"class.dealii::Triangulation"* %tria, %"class.dealii::Triangulation"** %tria.addr, align 8
  call void @llvm.dbg.declare(metadata %"class.dealii::Triangulation"** %tria.addr, metadata !10734, metadata !DIExpression()), !dbg !10735
  store %"class.dealii::Vector"* %criteria, %"class.dealii::Vector"** %criteria.addr, align 8
  call void @llvm.dbg.declare(metadata %"class.dealii::Vector"** %criteria.addr, metadata !10736, metadata !DIExpression()), !dbg !10737
  call void @llvm.dbg.declare(metadata %"class.std::vector.33"* %tmp, metadata !10738, metadata !DIExpression()), !dbg !10739
  %0 = load %"class.dealii::Vector"*, %"class.dealii::Vector"** %criteria.addr, align 8, !dbg !10740
  %call = call i32 @_ZNK6dealii6VectorIfE4sizeEv(%"class.dealii::Vector"* %0), !dbg !10741
  %conv = zext i32 %call to i64, !dbg !10740
  call void @_ZNSaIjEC2Ev(%"class.std::allocator.35"* %ref.tmp) #4, !dbg !10739
  invoke void @_ZNSt6vectorIjSaIjEEC2EmRKS0_(%"class.std::vector.33"* %tmp, i64 %conv, %"class.std::allocator.35"* dereferenceable(1) %ref.tmp)
          to label %invoke.cont unwind label %lpad, !dbg !10739

invoke.cont:                                      ; preds = %entry
  call void @_ZNSaIjED2Ev(%"class.std::allocator.35"* %ref.tmp) #4, !dbg !10739
  call void @llvm.dbg.declare(metadata i32* %i, metadata !10742, metadata !DIExpression()), !dbg !10744
  store i32 0, i32* %i, align 4, !dbg !10744
  br label %for.cond, !dbg !10745

for.cond:                                         ; preds = %for.inc, %invoke.cont
  %1 = load i32, i32* %i, align 4, !dbg !10746
  %2 = load %"class.dealii::Vector"*, %"class.dealii::Vector"** %criteria.addr, align 8, !dbg !10748
  %call3 = invoke i32 @_ZNK6dealii6VectorIfE4sizeEv(%"class.dealii::Vector"* %2)
          to label %invoke.cont2 unwind label %lpad1, !dbg !10749

invoke.cont2:                                     ; preds = %for.cond
  %cmp = icmp ult i32 %1, %call3, !dbg !10750
  br i1 %cmp, label %for.body, label %for.end, !dbg !10751

for.body:                                         ; preds = %invoke.cont2
  %3 = load i32, i32* %i, align 4, !dbg !10752
  %4 = load i32, i32* %i, align 4, !dbg !10753
  %conv4 = zext i32 %4 to i64, !dbg !10753
  %call5 = call dereferenceable(4) i32* @_ZNSt6vectorIjSaIjEEixEm(%"class.std::vector.33"* %tmp, i64 %conv4) #4, !dbg !10754
  store i32 %3, i32* %call5, align 4, !dbg !10755
  br label %for.inc, !dbg !10754

for.inc:                                          ; preds = %for.body
  %5 = load i32, i32* %i, align 4, !dbg !10756
  %inc = add i32 %5, 1, !dbg !10756
  store i32 %inc, i32* %i, align 4, !dbg !10756
  br label %for.cond, !dbg !10757, !llvm.loop !10758

lpad:                                             ; preds = %entry
  %6 = landingpad { i8*, i32 }
          cleanup, !dbg !10760
  %7 = extractvalue { i8*, i32 } %6, 0, !dbg !10760
  store i8* %7, i8** %exn.slot, align 8, !dbg !10760
  %8 = extractvalue { i8*, i32 } %6, 1, !dbg !10760
  store i32 %8, i32* %ehselector.slot, align 4, !dbg !10760
  call void @_ZNSaIjED2Ev(%"class.std::allocator.35"* %ref.tmp) #4, !dbg !10739
  br label %eh.resume, !dbg !10739

lpad1:                                            ; preds = %invoke.cont57, %for.end54, %for.body29, %for.cond25, %invoke.cont13, %invoke.cont10, %invoke.cont8, %invoke.cont6, %for.end, %for.cond
  %9 = landingpad { i8*, i32 }
          cleanup, !dbg !10761
  %10 = extractvalue { i8*, i32 } %9, 0, !dbg !10761
  store i8* %10, i8** %exn.slot, align 8, !dbg !10761
  %11 = extractvalue { i8*, i32 } %9, 1, !dbg !10761
  store i32 %11, i32* %ehselector.slot, align 4, !dbg !10761
  call void @_ZNSt6vectorIjSaIjEED2Ev(%"class.std::vector.33"* %tmp) #4, !dbg !10760
  br label %eh.resume, !dbg !10760

for.end:                                          ; preds = %invoke.cont2
  %12 = load %"class.dealii::Vector"*, %"class.dealii::Vector"** %criteria.addr, align 8, !dbg !10762
  %13 = load %"class.dealii::Vector"*, %"class.dealii::Vector"** %criteria.addr, align 8, !dbg !10763
  %call7 = invoke i32 @_ZNK6dealii6VectorIfE4sizeEv(%"class.dealii::Vector"* %13)
          to label %invoke.cont6 unwind label %lpad1, !dbg !10764

invoke.cont6:                                     ; preds = %for.end
  %sub = sub i32 %call7, 1, !dbg !10765
  invoke void @_ZN6dealii12_GLOBAL__N_111qsort_indexINS_6VectorIfEEEEvRKT_RSt6vectorIjSaIjEEii(%"class.dealii::Vector"* dereferenceable(88) %12, %"class.std::vector.33"* dereferenceable(24) %tmp, i32 0, i32 %sub)
          to label %invoke.cont8 unwind label %lpad1, !dbg !10766

invoke.cont8:                                     ; preds = %invoke.cont6
  call void @llvm.dbg.declare(metadata double* %s0, metadata !10767, metadata !DIExpression()), !dbg !10768
  %14 = load %"class.dealii::Vector"*, %"class.dealii::Vector"** %criteria.addr, align 8, !dbg !10769
  %call9 = call dereferenceable(4) i32* @_ZNSt6vectorIjSaIjEEixEm(%"class.std::vector.33"* %tmp, i64 0) #4, !dbg !10770
  %15 = load i32, i32* %call9, align 4, !dbg !10770
  %call11 = invoke float @_ZNK6dealii6VectorIfEclEj(%"class.dealii::Vector"* %14, i32 %15)
          to label %invoke.cont10 unwind label %lpad1, !dbg !10769

invoke.cont10:                                    ; preds = %invoke.cont8
  %conv12 = fpext float %call11 to double, !dbg !10769
  %mul = fmul double 7.500000e-01, %conv12, !dbg !10771
  store double %mul, double* %s0, align 8, !dbg !10768
  call void @llvm.dbg.declare(metadata double* %E, metadata !10772, metadata !DIExpression()), !dbg !10773
  %16 = load %"class.dealii::Vector"*, %"class.dealii::Vector"** %criteria.addr, align 8, !dbg !10774
  %call14 = invoke float @_ZNK6dealii6VectorIfE7l1_normEv(%"class.dealii::Vector"* %16)
          to label %invoke.cont13 unwind label %lpad1, !dbg !10775

invoke.cont13:                                    ; preds = %invoke.cont10
  %conv15 = fpext float %call14 to double, !dbg !10774
  store double %conv15, double* %E, align 8, !dbg !10773
  call void @llvm.dbg.declare(metadata i32* %N, metadata !10776, metadata !DIExpression()), !dbg !10777
  %17 = load %"class.dealii::Vector"*, %"class.dealii::Vector"** %criteria.addr, align 8, !dbg !10778
  %call17 = invoke i32 @_ZNK6dealii6VectorIfE4sizeEv(%"class.dealii::Vector"* %17)
          to label %invoke.cont16 unwind label %lpad1, !dbg !10779

invoke.cont16:                                    ; preds = %invoke.cont13
  store i32 %call17, i32* %N, align 4, !dbg !10777
  call void @llvm.dbg.declare(metadata i32* %M, metadata !10780, metadata !DIExpression()), !dbg !10781
  store i32 0, i32* %M, align 4, !dbg !10781
  call void @llvm.dbg.declare(metadata double* %min, metadata !10782, metadata !DIExpression()), !dbg !10783
  %18 = load i32, i32* %M, align 4, !dbg !10784
  %conv18 = uitofp i32 %18 to double, !dbg !10784
  %add = fadd double 1.000000e+00, %conv18, !dbg !10785
  %mul19 = fmul double 3.000000e+00, %add, !dbg !10786
  %19 = load i32, i32* %N, align 4, !dbg !10787
  %conv20 = uitofp i32 %19 to double, !dbg !10787
  %add21 = fadd double %mul19, %conv20, !dbg !10788
  %20 = load double, double* %E, align 8, !dbg !10789
  %21 = load double, double* %s0, align 8, !dbg !10790
  %sub22 = fsub double %20, %21, !dbg !10791
  %mul23 = fmul double %add21, %sub22, !dbg !10792
  store double %mul23, double* %min, align 8, !dbg !10783
  call void @llvm.dbg.declare(metadata i32* %minArg, metadata !10793, metadata !DIExpression()), !dbg !10794
  %22 = load i32, i32* %N, align 4, !dbg !10795
  %sub24 = sub i32 %22, 1, !dbg !10796
  store i32 %sub24, i32* %minArg, align 4, !dbg !10794
  store i32 1, i32* %M, align 4, !dbg !10797
  br label %for.cond25, !dbg !10799

for.cond25:                                       ; preds = %for.inc52, %invoke.cont16
  %23 = load i32, i32* %M, align 4, !dbg !10800
  %24 = load %"class.dealii::Vector"*, %"class.dealii::Vector"** %criteria.addr, align 8, !dbg !10802
  %call27 = invoke i32 @_ZNK6dealii6VectorIfE4sizeEv(%"class.dealii::Vector"* %24)
          to label %invoke.cont26 unwind label %lpad1, !dbg !10803

invoke.cont26:                                    ; preds = %for.cond25
  %cmp28 = icmp ult i32 %23, %call27, !dbg !10804
  br i1 %cmp28, label %for.body29, label %for.end54, !dbg !10805

for.body29:                                       ; preds = %invoke.cont26
  %25 = load %"class.dealii::Vector"*, %"class.dealii::Vector"** %criteria.addr, align 8, !dbg !10806
  %26 = load i32, i32* %M, align 4, !dbg !10808
  %conv30 = zext i32 %26 to i64, !dbg !10808
  %call31 = call dereferenceable(4) i32* @_ZNSt6vectorIjSaIjEEixEm(%"class.std::vector.33"* %tmp, i64 %conv30) #4, !dbg !10809
  %27 = load i32, i32* %call31, align 4, !dbg !10809
  %call33 = invoke float @_ZNK6dealii6VectorIfEclEj(%"class.dealii::Vector"* %25, i32 %27)
          to label %invoke.cont32 unwind label %lpad1, !dbg !10806

invoke.cont32:                                    ; preds = %for.body29
  %conv34 = fpext float %call33 to double, !dbg !10806
  %mul35 = fmul double 7.500000e-01, %conv34, !dbg !10810
  %28 = load double, double* %s0, align 8, !dbg !10811
  %add36 = fadd double %28, %mul35, !dbg !10811
  store double %add36, double* %s0, align 8, !dbg !10811
  %29 = load i32, i32* %M, align 4, !dbg !10812
  %add37 = add i32 1, %29, !dbg !10814
  %conv38 = uitofp i32 %add37 to double, !dbg !10815
  %mul39 = fmul double 3.000000e+00, %conv38, !dbg !10816
  %30 = load i32, i32* %N, align 4, !dbg !10817
  %conv40 = uitofp i32 %30 to double, !dbg !10817
  %add41 = fadd double %mul39, %conv40, !dbg !10818
  %31 = load double, double* %E, align 8, !dbg !10819
  %32 = load double, double* %s0, align 8, !dbg !10820
  %sub42 = fsub double %31, %32, !dbg !10821
  %mul43 = fmul double %add41, %sub42, !dbg !10822
  %33 = load double, double* %min, align 8, !dbg !10823
  %cmp44 = fcmp ole double %mul43, %33, !dbg !10824
  br i1 %cmp44, label %if.then, label %if.end, !dbg !10825

if.then:                                          ; preds = %invoke.cont32
  %34 = load i32, i32* %M, align 4, !dbg !10826
  %add45 = add i32 1, %34, !dbg !10828
  %conv46 = uitofp i32 %add45 to double, !dbg !10829
  %mul47 = fmul double 3.000000e+00, %conv46, !dbg !10830
  %35 = load i32, i32* %N, align 4, !dbg !10831
  %conv48 = uitofp i32 %35 to double, !dbg !10831
  %add49 = fadd double %mul47, %conv48, !dbg !10832
  %36 = load double, double* %E, align 8, !dbg !10833
  %37 = load double, double* %s0, align 8, !dbg !10834
  %sub50 = fsub double %36, %37, !dbg !10835
  %mul51 = fmul double %add49, %sub50, !dbg !10836
  store double %mul51, double* %min, align 8, !dbg !10837
  %38 = load i32, i32* %M, align 4, !dbg !10838
  store i32 %38, i32* %minArg, align 4, !dbg !10839
  br label %if.end, !dbg !10840

if.end:                                           ; preds = %if.then, %invoke.cont32
  br label %for.inc52, !dbg !10841

for.inc52:                                        ; preds = %if.end
  %39 = load i32, i32* %M, align 4, !dbg !10842
  %inc53 = add i32 %39, 1, !dbg !10842
  store i32 %inc53, i32* %M, align 4, !dbg !10842
  br label %for.cond25, !dbg !10843, !llvm.loop !10844

for.end54:                                        ; preds = %invoke.cont26
  %40 = load %"class.dealii::Triangulation"*, %"class.dealii::Triangulation"** %tria.addr, align 8, !dbg !10846
  %41 = load %"class.dealii::Vector"*, %"class.dealii::Vector"** %criteria.addr, align 8, !dbg !10847
  %42 = load %"class.dealii::Vector"*, %"class.dealii::Vector"** %criteria.addr, align 8, !dbg !10848
  %43 = load i32, i32* %minArg, align 4, !dbg !10849
  %conv55 = zext i32 %43 to i64, !dbg !10849
  %call56 = call dereferenceable(4) i32* @_ZNSt6vectorIjSaIjEEixEm(%"class.std::vector.33"* %tmp, i64 %conv55) #4, !dbg !10850
  %44 = load i32, i32* %call56, align 4, !dbg !10850
  %call58 = invoke float @_ZNK6dealii6VectorIfEclEj(%"class.dealii::Vector"* %42, i32 %44)
          to label %invoke.cont57 unwind label %lpad1, !dbg !10848

invoke.cont57:                                    ; preds = %for.end54
  %conv59 = fpext float %call58 to double, !dbg !10848
  invoke void @_ZN6dealii14GridRefinement6refineILi3ENS_6VectorIfEELi3EEEvRNS_13TriangulationIXT_EXT1_EEERKT0_d(%"class.dealii::Triangulation"* dereferenceable(8552) %40, %"class.dealii::Vector"* dereferenceable(88) %41, double %conv59)
          to label %invoke.cont60 unwind label %lpad1, !dbg !10851

invoke.cont60:                                    ; preds = %invoke.cont57
  call void @_ZNSt6vectorIjSaIjEED2Ev(%"class.std::vector.33"* %tmp) #4, !dbg !10760
  ret void, !dbg !10760

eh.resume:                                        ; preds = %lpad1, %lpad
  %exn = load i8*, i8** %exn.slot, align 8, !dbg !10739
  %sel = load i32, i32* %ehselector.slot, align 4, !dbg !10739
  %lpad.val = insertvalue { i8*, i32 } undef, i8* %exn, 0, !dbg !10739
  %lpad.val61 = insertvalue { i8*, i32 } %lpad.val, i32 %sel, 1, !dbg !10739
  resume { i8*, i32 } %lpad.val61, !dbg !10739
}

; Function Attrs: noinline nounwind uwtable
define linkonce_odr dso_local void @_ZNSaIjEC2Ev(%"class.std::allocator.35"* %this) unnamed_addr #1 comdat align 2 !dbg !10852 {
entry:
  %this.addr = alloca %"class.std::allocator.35"*, align 8
  store %"class.std::allocator.35"* %this, %"class.std::allocator.35"** %this.addr, align 8
  call void @llvm.dbg.declare(metadata %"class.std::allocator.35"** %this.addr, metadata !10853, metadata !DIExpression()), !dbg !10855
  %this1 = load %"class.std::allocator.35"*, %"class.std::allocator.35"** %this.addr, align 8
  %0 = bitcast %"class.std::allocator.35"* %this1 to %"class.__gnu_cxx::new_allocator.36"*, !dbg !10856
  call void @_ZN9__gnu_cxx13new_allocatorIjEC2Ev(%"class.__gnu_cxx::new_allocator.36"* %0) #4, !dbg !10857
  ret void, !dbg !10858
}

; Function Attrs: noinline uwtable
define linkonce_odr dso_local void @_ZNSt6vectorIjSaIjEEC2EmRKS0_(%"class.std::vector.33"* %this, i64 %__n, %"class.std::allocator.35"* dereferenceable(1) %__a) unnamed_addr #0 comdat align 2 personality i8* bitcast (i32 (...)* @__gxx_personality_v0 to i8*) !dbg !10859 {
entry:
  %this.addr = alloca %"class.std::vector.33"*, align 8
  %__n.addr = alloca i64, align 8
  %__a.addr = alloca %"class.std::allocator.35"*, align 8
  %exn.slot = alloca i8*
  %ehselector.slot = alloca i32
  store %"class.std::vector.33"* %this, %"class.std::vector.33"** %this.addr, align 8
  call void @llvm.dbg.declare(metadata %"class.std::vector.33"** %this.addr, metadata !10860, metadata !DIExpression()), !dbg !10862
  store i64 %__n, i64* %__n.addr, align 8
  call void @llvm.dbg.declare(metadata i64* %__n.addr, metadata !10863, metadata !DIExpression()), !dbg !10864
  store %"class.std::allocator.35"* %__a, %"class.std::allocator.35"** %__a.addr, align 8
  call void @llvm.dbg.declare(metadata %"class.std::allocator.35"** %__a.addr, metadata !10865, metadata !DIExpression()), !dbg !10866
  %this1 = load %"class.std::vector.33"*, %"class.std::vector.33"** %this.addr, align 8
  %0 = bitcast %"class.std::vector.33"* %this1 to %"struct.std::_Vector_base.34"*, !dbg !10867
  %1 = load i64, i64* %__n.addr, align 8, !dbg !10868
  %2 = load %"class.std::allocator.35"*, %"class.std::allocator.35"** %__a.addr, align 8, !dbg !10869
  %call = call i64 @_ZNSt6vectorIjSaIjEE17_S_check_init_lenEmRKS0_(i64 %1, %"class.std::allocator.35"* dereferenceable(1) %2), !dbg !10870
  %3 = load %"class.std::allocator.35"*, %"class.std::allocator.35"** %__a.addr, align 8, !dbg !10871
  call void @_ZNSt12_Vector_baseIjSaIjEEC2EmRKS0_(%"struct.std::_Vector_base.34"* %0, i64 %call, %"class.std::allocator.35"* dereferenceable(1) %3), !dbg !10872
  %4 = load i64, i64* %__n.addr, align 8, !dbg !10873
  invoke void @_ZNSt6vectorIjSaIjEE21_M_default_initializeEm(%"class.std::vector.33"* %this1, i64 %4)
          to label %invoke.cont unwind label %lpad, !dbg !10875

invoke.cont:                                      ; preds = %entry
  ret void, !dbg !10876

lpad:                                             ; preds = %entry
  %5 = landingpad { i8*, i32 }
          cleanup, !dbg !10877
  %6 = extractvalue { i8*, i32 } %5, 0, !dbg !10877
  store i8* %6, i8** %exn.slot, align 8, !dbg !10877
  %7 = extractvalue { i8*, i32 } %5, 1, !dbg !10877
  store i32 %7, i32* %ehselector.slot, align 4, !dbg !10877
  %8 = bitcast %"class.std::vector.33"* %this1 to %"struct.std::_Vector_base.34"*, !dbg !10877
  call void @_ZNSt12_Vector_baseIjSaIjEED2Ev(%"struct.std::_Vector_base.34"* %8) #4, !dbg !10877
  br label %eh.resume, !dbg !10877

eh.resume:                                        ; preds = %lpad
  %exn = load i8*, i8** %exn.slot, align 8, !dbg !10877
  %sel = load i32, i32* %ehselector.slot, align 4, !dbg !10877
  %lpad.val = insertvalue { i8*, i32 } undef, i8* %exn, 0, !dbg !10877
  %lpad.val2 = insertvalue { i8*, i32 } %lpad.val, i32 %sel, 1, !dbg !10877
  resume { i8*, i32 } %lpad.val2, !dbg !10877
}

; Function Attrs: noinline nounwind uwtable
define linkonce_odr dso_local void @_ZNSaIjED2Ev(%"class.std::allocator.35"* %this) unnamed_addr #1 comdat align 2 !dbg !10878 {
entry:
  %this.addr = alloca %"class.std::allocator.35"*, align 8
  store %"class.std::allocator.35"* %this, %"class.std::allocator.35"** %this.addr, align 8
  call void @llvm.dbg.declare(metadata %"class.std::allocator.35"** %this.addr, metadata !10879, metadata !DIExpression()), !dbg !10880
  %this1 = load %"class.std::allocator.35"*, %"class.std::allocator.35"** %this.addr, align 8
  %0 = bitcast %"class.std::allocator.35"* %this1 to %"class.__gnu_cxx::new_allocator.36"*, !dbg !10881
  call void @_ZN9__gnu_cxx13new_allocatorIjED2Ev(%"class.__gnu_cxx::new_allocator.36"* %0) #4, !dbg !10881
  ret void, !dbg !10883
}

; Function Attrs: noinline nounwind uwtable
define linkonce_odr dso_local dereferenceable(4) i32* @_ZNSt6vectorIjSaIjEEixEm(%"class.std::vector.33"* %this, i64 %__n) #1 comdat align 2 !dbg !10884 {
entry:
  %this.addr = alloca %"class.std::vector.33"*, align 8
  %__n.addr = alloca i64, align 8
  store %"class.std::vector.33"* %this, %"class.std::vector.33"** %this.addr, align 8
  call void @llvm.dbg.declare(metadata %"class.std::vector.33"** %this.addr, metadata !10885, metadata !DIExpression()), !dbg !10886
  store i64 %__n, i64* %__n.addr, align 8
  call void @llvm.dbg.declare(metadata i64* %__n.addr, metadata !10887, metadata !DIExpression()), !dbg !10888
  %this1 = load %"class.std::vector.33"*, %"class.std::vector.33"** %this.addr, align 8
  %0 = bitcast %"class.std::vector.33"* %this1 to %"struct.std::_Vector_base.34"*, !dbg !10889
  %_M_impl = getelementptr inbounds %"struct.std::_Vector_base.34", %"struct.std::_Vector_base.34"* %0, i32 0, i32 0, !dbg !10889
  %1 = bitcast %"struct.std::_Vector_base<unsigned int, std::allocator<unsigned int> >::_Vector_impl"* %_M_impl to %"struct.std::_Vector_base<unsigned int, std::allocator<unsigned int> >::_Vector_impl_data"*, !dbg !10890
  %_M_start = getelementptr inbounds %"struct.std::_Vector_base<unsigned int, std::allocator<unsigned int> >::_Vector_impl_data", %"struct.std::_Vector_base<unsigned int, std::allocator<unsigned int> >::_Vector_impl_data"* %1, i32 0, i32 0, !dbg !10891
  %2 = load i32*, i32** %_M_start, align 8, !dbg !10891
  %3 = load i64, i64* %__n.addr, align 8, !dbg !10892
  %add.ptr = getelementptr inbounds i32, i32* %2, i64 %3, !dbg !10893
  ret i32* %add.ptr, !dbg !10894
}

; Function Attrs: noinline uwtable
define internal void @_ZN6dealii12_GLOBAL__N_111qsort_indexINS_6VectorIfEEEEvRKT_RSt6vectorIjSaIjEEii(%"class.dealii::Vector"* dereferenceable(88) %a, %"class.std::vector.33"* dereferenceable(24) %ind, i32 %l, i32 %r) #0 !dbg !10895 {
entry:
  %a.addr = alloca %"class.dealii::Vector"*, align 8
  %ind.addr = alloca %"class.std::vector.33"*, align 8
  %l.addr = alloca i32, align 4
  %r.addr = alloca i32, align 4
  %i = alloca i32, align 4
  %j = alloca i32, align 4
  %v = alloca float, align 4
  store %"class.dealii::Vector"* %a, %"class.dealii::Vector"** %a.addr, align 8
  call void @llvm.dbg.declare(metadata %"class.dealii::Vector"** %a.addr, metadata !10899, metadata !DIExpression()), !dbg !10900
  store %"class.std::vector.33"* %ind, %"class.std::vector.33"** %ind.addr, align 8
  call void @llvm.dbg.declare(metadata %"class.std::vector.33"** %ind.addr, metadata !10901, metadata !DIExpression()), !dbg !10902
  store i32 %l, i32* %l.addr, align 4
  call void @llvm.dbg.declare(metadata i32* %l.addr, metadata !10903, metadata !DIExpression()), !dbg !10904
  store i32 %r, i32* %r.addr, align 4
  call void @llvm.dbg.declare(metadata i32* %r.addr, metadata !10905, metadata !DIExpression()), !dbg !10906
  call void @llvm.dbg.declare(metadata i32* %i, metadata !10907, metadata !DIExpression()), !dbg !10908
  call void @llvm.dbg.declare(metadata i32* %j, metadata !10909, metadata !DIExpression()), !dbg !10910
  call void @llvm.dbg.declare(metadata float* %v, metadata !10911, metadata !DIExpression()), !dbg !10912
  %0 = load i32, i32* %r.addr, align 4, !dbg !10913
  %1 = load i32, i32* %l.addr, align 4, !dbg !10915
  %cmp = icmp sle i32 %0, %1, !dbg !10916
  br i1 %cmp, label %if.then, label %if.end, !dbg !10917

if.then:                                          ; preds = %entry
  br label %return, !dbg !10918

if.end:                                           ; preds = %entry
  %2 = load %"class.dealii::Vector"*, %"class.dealii::Vector"** %a.addr, align 8, !dbg !10919
  %3 = load %"class.std::vector.33"*, %"class.std::vector.33"** %ind.addr, align 8, !dbg !10920
  %4 = load i32, i32* %r.addr, align 4, !dbg !10921
  %conv = sext i32 %4 to i64, !dbg !10921
  %call = call dereferenceable(4) i32* @_ZNSt6vectorIjSaIjEEixEm(%"class.std::vector.33"* %3, i64 %conv) #4, !dbg !10920
  %5 = load i32, i32* %call, align 4, !dbg !10920
  %call1 = call float @_ZNK6dealii6VectorIfEclEj(%"class.dealii::Vector"* %2, i32 %5), !dbg !10919
  store float %call1, float* %v, align 4, !dbg !10922
  %6 = load i32, i32* %l.addr, align 4, !dbg !10923
  %sub = sub nsw i32 %6, 1, !dbg !10924
  store i32 %sub, i32* %i, align 4, !dbg !10925
  %7 = load i32, i32* %r.addr, align 4, !dbg !10926
  store i32 %7, i32* %j, align 4, !dbg !10927
  br label %do.body, !dbg !10928

do.body:                                          ; preds = %do.cond29, %if.end
  br label %do.body2, !dbg !10929

do.body2:                                         ; preds = %land.end, %do.body
  %8 = load i32, i32* %i, align 4, !dbg !10931
  %inc = add nsw i32 %8, 1, !dbg !10931
  store i32 %inc, i32* %i, align 4, !dbg !10931
  br label %do.cond, !dbg !10933

do.cond:                                          ; preds = %do.body2
  %9 = load %"class.dealii::Vector"*, %"class.dealii::Vector"** %a.addr, align 8, !dbg !10934
  %10 = load %"class.std::vector.33"*, %"class.std::vector.33"** %ind.addr, align 8, !dbg !10935
  %11 = load i32, i32* %i, align 4, !dbg !10936
  %conv3 = sext i32 %11 to i64, !dbg !10936
  %call4 = call dereferenceable(4) i32* @_ZNSt6vectorIjSaIjEEixEm(%"class.std::vector.33"* %10, i64 %conv3) #4, !dbg !10935
  %12 = load i32, i32* %call4, align 4, !dbg !10935
  %call5 = call float @_ZNK6dealii6VectorIfEclEj(%"class.dealii::Vector"* %9, i32 %12), !dbg !10934
  %13 = load float, float* %v, align 4, !dbg !10937
  %cmp6 = fcmp ogt float %call5, %13, !dbg !10938
  br i1 %cmp6, label %land.rhs, label %land.end, !dbg !10939

land.rhs:                                         ; preds = %do.cond
  %14 = load i32, i32* %i, align 4, !dbg !10940
  %15 = load i32, i32* %r.addr, align 4, !dbg !10941
  %cmp7 = icmp slt i32 %14, %15, !dbg !10942
  br label %land.end

land.end:                                         ; preds = %land.rhs, %do.cond
  %16 = phi i1 [ false, %do.cond ], [ %cmp7, %land.rhs ], !dbg !10943
  br i1 %16, label %do.body2, label %do.end, !dbg !10933, !llvm.loop !10944

do.end:                                           ; preds = %land.end
  br label %do.body8, !dbg !10946

do.body8:                                         ; preds = %land.end16, %do.end
  %17 = load i32, i32* %j, align 4, !dbg !10947
  %dec = add nsw i32 %17, -1, !dbg !10947
  store i32 %dec, i32* %j, align 4, !dbg !10947
  br label %do.cond9, !dbg !10949

do.cond9:                                         ; preds = %do.body8
  %18 = load %"class.dealii::Vector"*, %"class.dealii::Vector"** %a.addr, align 8, !dbg !10950
  %19 = load %"class.std::vector.33"*, %"class.std::vector.33"** %ind.addr, align 8, !dbg !10951
  %20 = load i32, i32* %j, align 4, !dbg !10952
  %conv10 = sext i32 %20 to i64, !dbg !10952
  %call11 = call dereferenceable(4) i32* @_ZNSt6vectorIjSaIjEEixEm(%"class.std::vector.33"* %19, i64 %conv10) #4, !dbg !10951
  %21 = load i32, i32* %call11, align 4, !dbg !10951
  %call12 = call float @_ZNK6dealii6VectorIfEclEj(%"class.dealii::Vector"* %18, i32 %21), !dbg !10950
  %22 = load float, float* %v, align 4, !dbg !10953
  %cmp13 = fcmp olt float %call12, %22, !dbg !10954
  br i1 %cmp13, label %land.rhs14, label %land.end16, !dbg !10955

land.rhs14:                                       ; preds = %do.cond9
  %23 = load i32, i32* %j, align 4, !dbg !10956
  %cmp15 = icmp sgt i32 %23, 0, !dbg !10957
  br label %land.end16

land.end16:                                       ; preds = %land.rhs14, %do.cond9
  %24 = phi i1 [ false, %do.cond9 ], [ %cmp15, %land.rhs14 ], !dbg !10943
  br i1 %24, label %do.body8, label %do.end17, !dbg !10949, !llvm.loop !10958

do.end17:                                         ; preds = %land.end16
  %25 = load i32, i32* %i, align 4, !dbg !10960
  %26 = load i32, i32* %j, align 4, !dbg !10962
  %cmp18 = icmp slt i32 %25, %26, !dbg !10963
  br i1 %cmp18, label %if.then19, label %if.else, !dbg !10964

if.then19:                                        ; preds = %do.end17
  %27 = load %"class.std::vector.33"*, %"class.std::vector.33"** %ind.addr, align 8, !dbg !10965
  %28 = load i32, i32* %i, align 4, !dbg !10966
  %conv20 = sext i32 %28 to i64, !dbg !10966
  %call21 = call dereferenceable(4) i32* @_ZNSt6vectorIjSaIjEEixEm(%"class.std::vector.33"* %27, i64 %conv20) #4, !dbg !10965
  %29 = load %"class.std::vector.33"*, %"class.std::vector.33"** %ind.addr, align 8, !dbg !10967
  %30 = load i32, i32* %j, align 4, !dbg !10968
  %conv22 = sext i32 %30 to i64, !dbg !10968
  %call23 = call dereferenceable(4) i32* @_ZNSt6vectorIjSaIjEEixEm(%"class.std::vector.33"* %29, i64 %conv22) #4, !dbg !10967
  call void @_ZSt4swapIjENSt9enable_ifIXsr6__and_ISt6__not_ISt15__is_tuple_likeIT_EESt21is_move_constructibleIS3_ESt18is_move_assignableIS3_EEE5valueEvE4typeERS3_SC_(i32* dereferenceable(4) %call21, i32* dereferenceable(4) %call23) #4, !dbg !10969
  br label %if.end28, !dbg !10969

if.else:                                          ; preds = %do.end17
  %31 = load %"class.std::vector.33"*, %"class.std::vector.33"** %ind.addr, align 8, !dbg !10970
  %32 = load i32, i32* %i, align 4, !dbg !10971
  %conv24 = sext i32 %32 to i64, !dbg !10971
  %call25 = call dereferenceable(4) i32* @_ZNSt6vectorIjSaIjEEixEm(%"class.std::vector.33"* %31, i64 %conv24) #4, !dbg !10970
  %33 = load %"class.std::vector.33"*, %"class.std::vector.33"** %ind.addr, align 8, !dbg !10972
  %34 = load i32, i32* %r.addr, align 4, !dbg !10973
  %conv26 = sext i32 %34 to i64, !dbg !10973
  %call27 = call dereferenceable(4) i32* @_ZNSt6vectorIjSaIjEEixEm(%"class.std::vector.33"* %33, i64 %conv26) #4, !dbg !10972
  call void @_ZSt4swapIjENSt9enable_ifIXsr6__and_ISt6__not_ISt15__is_tuple_likeIT_EESt21is_move_constructibleIS3_ESt18is_move_assignableIS3_EEE5valueEvE4typeERS3_SC_(i32* dereferenceable(4) %call25, i32* dereferenceable(4) %call27) #4, !dbg !10974
  br label %if.end28

if.end28:                                         ; preds = %if.else, %if.then19
  br label %do.cond29, !dbg !10975

do.cond29:                                        ; preds = %if.end28
  %35 = load i32, i32* %i, align 4, !dbg !10976
  %36 = load i32, i32* %j, align 4, !dbg !10977
  %cmp30 = icmp slt i32 %35, %36, !dbg !10978
  br i1 %cmp30, label %do.body, label %do.end31, !dbg !10975, !llvm.loop !10979

do.end31:                                         ; preds = %do.cond29
  %37 = load %"class.dealii::Vector"*, %"class.dealii::Vector"** %a.addr, align 8, !dbg !10981
  %38 = load %"class.std::vector.33"*, %"class.std::vector.33"** %ind.addr, align 8, !dbg !10982
  %39 = load i32, i32* %l.addr, align 4, !dbg !10983
  %40 = load i32, i32* %i, align 4, !dbg !10984
  %sub32 = sub nsw i32 %40, 1, !dbg !10985
  call void @_ZN6dealii12_GLOBAL__N_111qsort_indexINS_6VectorIfEEEEvRKT_RSt6vectorIjSaIjEEii(%"class.dealii::Vector"* dereferenceable(88) %37, %"class.std::vector.33"* dereferenceable(24) %38, i32 %39, i32 %sub32), !dbg !10986
  %41 = load %"class.dealii::Vector"*, %"class.dealii::Vector"** %a.addr, align 8, !dbg !10987
  %42 = load %"class.std::vector.33"*, %"class.std::vector.33"** %ind.addr, align 8, !dbg !10988
  %43 = load i32, i32* %i, align 4, !dbg !10989
  %add = add nsw i32 %43, 1, !dbg !10990
  %44 = load i32, i32* %r.addr, align 4, !dbg !10991
  call void @_ZN6dealii12_GLOBAL__N_111qsort_indexINS_6VectorIfEEEEvRKT_RSt6vectorIjSaIjEEii(%"class.dealii::Vector"* dereferenceable(88) %41, %"class.std::vector.33"* dereferenceable(24) %42, i32 %add, i32 %44), !dbg !10992
  br label %return, !dbg !10993

return:                                           ; preds = %do.end31, %if.then
  ret void, !dbg !10993
}

; Function Attrs: noinline nounwind uwtable
define linkonce_odr dso_local void @_ZNSt6vectorIjSaIjEED2Ev(%"class.std::vector.33"* %this) unnamed_addr #1 comdat align 2 personality i8* bitcast (i32 (...)* @__gxx_personality_v0 to i8*) !dbg !10994 {
entry:
  %this.addr = alloca %"class.std::vector.33"*, align 8
  %exn.slot = alloca i8*
  %ehselector.slot = alloca i32
  store %"class.std::vector.33"* %this, %"class.std::vector.33"** %this.addr, align 8
  call void @llvm.dbg.declare(metadata %"class.std::vector.33"** %this.addr, metadata !10995, metadata !DIExpression()), !dbg !10996
  %this1 = load %"class.std::vector.33"*, %"class.std::vector.33"** %this.addr, align 8
  %0 = bitcast %"class.std::vector.33"* %this1 to %"struct.std::_Vector_base.34"*, !dbg !10997
  %_M_impl = getelementptr inbounds %"struct.std::_Vector_base.34", %"struct.std::_Vector_base.34"* %0, i32 0, i32 0, !dbg !10997
  %1 = bitcast %"struct.std::_Vector_base<unsigned int, std::allocator<unsigned int> >::_Vector_impl"* %_M_impl to %"struct.std::_Vector_base<unsigned int, std::allocator<unsigned int> >::_Vector_impl_data"*, !dbg !10999
  %_M_start = getelementptr inbounds %"struct.std::_Vector_base<unsigned int, std::allocator<unsigned int> >::_Vector_impl_data", %"struct.std::_Vector_base<unsigned int, std::allocator<unsigned int> >::_Vector_impl_data"* %1, i32 0, i32 0, !dbg !11000
  %2 = load i32*, i32** %_M_start, align 8, !dbg !11000
  %3 = bitcast %"class.std::vector.33"* %this1 to %"struct.std::_Vector_base.34"*, !dbg !11001
  %_M_impl2 = getelementptr inbounds %"struct.std::_Vector_base.34", %"struct.std::_Vector_base.34"* %3, i32 0, i32 0, !dbg !11001
  %4 = bitcast %"struct.std::_Vector_base<unsigned int, std::allocator<unsigned int> >::_Vector_impl"* %_M_impl2 to %"struct.std::_Vector_base<unsigned int, std::allocator<unsigned int> >::_Vector_impl_data"*, !dbg !11002
  %_M_finish = getelementptr inbounds %"struct.std::_Vector_base<unsigned int, std::allocator<unsigned int> >::_Vector_impl_data", %"struct.std::_Vector_base<unsigned int, std::allocator<unsigned int> >::_Vector_impl_data"* %4, i32 0, i32 1, !dbg !11003
  %5 = load i32*, i32** %_M_finish, align 8, !dbg !11003
  %6 = bitcast %"class.std::vector.33"* %this1 to %"struct.std::_Vector_base.34"*, !dbg !11004
  %call = call dereferenceable(1) %"class.std::allocator.35"* @_ZNSt12_Vector_baseIjSaIjEE19_M_get_Tp_allocatorEv(%"struct.std::_Vector_base.34"* %6) #4, !dbg !11004
  invoke void @_ZSt8_DestroyIPjjEvT_S1_RSaIT0_E(i32* %2, i32* %5, %"class.std::allocator.35"* dereferenceable(1) %call)
          to label %invoke.cont unwind label %lpad, !dbg !11005

invoke.cont:                                      ; preds = %entry
  %7 = bitcast %"class.std::vector.33"* %this1 to %"struct.std::_Vector_base.34"*, !dbg !11006
  call void @_ZNSt12_Vector_baseIjSaIjEED2Ev(%"struct.std::_Vector_base.34"* %7) #4, !dbg !11006
  ret void, !dbg !11007

lpad:                                             ; preds = %entry
  %8 = landingpad { i8*, i32 }
          catch i8* null, !dbg !11006
  %9 = extractvalue { i8*, i32 } %8, 0, !dbg !11006
  store i8* %9, i8** %exn.slot, align 8, !dbg !11006
  %10 = extractvalue { i8*, i32 } %8, 1, !dbg !11006
  store i32 %10, i32* %ehselector.slot, align 4, !dbg !11006
  %11 = bitcast %"class.std::vector.33"* %this1 to %"struct.std::_Vector_base.34"*, !dbg !11006
  call void @_ZNSt12_Vector_baseIjSaIjEED2Ev(%"struct.std::_Vector_base.34"* %11) #4, !dbg !11006
  br label %terminate.handler, !dbg !11006

terminate.handler:                                ; preds = %lpad
  %exn = load i8*, i8** %exn.slot, align 8, !dbg !11006
  call void @__clang_call_terminate(i8* %exn) #12, !dbg !11006
  unreachable, !dbg !11006
}

; Function Attrs: noinline uwtable
define weak_odr dso_local void @_ZN6dealii14GridRefinement27refine_and_coarsen_optimizeILi3ENS_6VectorIdEELi3EEEvRNS_13TriangulationIXT_EXT1_EEERKT0_(%"class.dealii::Triangulation"* dereferenceable(8552) %tria, %"class.dealii::Vector.109"* dereferenceable(88) %criteria) #0 comdat personality i8* bitcast (i32 (...)* @__gxx_personality_v0 to i8*) !dbg !11008 {
entry:
  %tria.addr = alloca %"class.dealii::Triangulation"*, align 8
  %criteria.addr = alloca %"class.dealii::Vector.109"*, align 8
  %tmp = alloca %"class.std::vector.33", align 8
  %ref.tmp = alloca %"class.std::allocator.35", align 1
  %exn.slot = alloca i8*
  %ehselector.slot = alloca i32
  %i = alloca i32, align 4
  %s0 = alloca double, align 8
  %E = alloca double, align 8
  %N = alloca i32, align 4
  %M = alloca i32, align 4
  %min = alloca double, align 8
  %minArg = alloca i32, align 4
  store %"class.dealii::Triangulation"* %tria, %"class.dealii::Triangulation"** %tria.addr, align 8
  call void @llvm.dbg.declare(metadata %"class.dealii::Triangulation"** %tria.addr, metadata !11011, metadata !DIExpression()), !dbg !11012
  store %"class.dealii::Vector.109"* %criteria, %"class.dealii::Vector.109"** %criteria.addr, align 8
  call void @llvm.dbg.declare(metadata %"class.dealii::Vector.109"** %criteria.addr, metadata !11013, metadata !DIExpression()), !dbg !11014
  call void @llvm.dbg.declare(metadata %"class.std::vector.33"* %tmp, metadata !11015, metadata !DIExpression()), !dbg !11016
  %0 = load %"class.dealii::Vector.109"*, %"class.dealii::Vector.109"** %criteria.addr, align 8, !dbg !11017
  %call = call i32 @_ZNK6dealii6VectorIdE4sizeEv(%"class.dealii::Vector.109"* %0), !dbg !11018
  %conv = zext i32 %call to i64, !dbg !11017
  call void @_ZNSaIjEC2Ev(%"class.std::allocator.35"* %ref.tmp) #4, !dbg !11016
  invoke void @_ZNSt6vectorIjSaIjEEC2EmRKS0_(%"class.std::vector.33"* %tmp, i64 %conv, %"class.std::allocator.35"* dereferenceable(1) %ref.tmp)
          to label %invoke.cont unwind label %lpad, !dbg !11016

invoke.cont:                                      ; preds = %entry
  call void @_ZNSaIjED2Ev(%"class.std::allocator.35"* %ref.tmp) #4, !dbg !11016
  call void @llvm.dbg.declare(metadata i32* %i, metadata !11019, metadata !DIExpression()), !dbg !11021
  store i32 0, i32* %i, align 4, !dbg !11021
  br label %for.cond, !dbg !11022

for.cond:                                         ; preds = %for.inc, %invoke.cont
  %1 = load i32, i32* %i, align 4, !dbg !11023
  %2 = load %"class.dealii::Vector.109"*, %"class.dealii::Vector.109"** %criteria.addr, align 8, !dbg !11025
  %call3 = invoke i32 @_ZNK6dealii6VectorIdE4sizeEv(%"class.dealii::Vector.109"* %2)
          to label %invoke.cont2 unwind label %lpad1, !dbg !11026

invoke.cont2:                                     ; preds = %for.cond
  %cmp = icmp ult i32 %1, %call3, !dbg !11027
  br i1 %cmp, label %for.body, label %for.end, !dbg !11028

for.body:                                         ; preds = %invoke.cont2
  %3 = load i32, i32* %i, align 4, !dbg !11029
  %4 = load i32, i32* %i, align 4, !dbg !11030
  %conv4 = zext i32 %4 to i64, !dbg !11030
  %call5 = call dereferenceable(4) i32* @_ZNSt6vectorIjSaIjEEixEm(%"class.std::vector.33"* %tmp, i64 %conv4) #4, !dbg !11031
  store i32 %3, i32* %call5, align 4, !dbg !11032
  br label %for.inc, !dbg !11031

for.inc:                                          ; preds = %for.body
  %5 = load i32, i32* %i, align 4, !dbg !11033
  %inc = add i32 %5, 1, !dbg !11033
  store i32 %inc, i32* %i, align 4, !dbg !11033
  br label %for.cond, !dbg !11034, !llvm.loop !11035

lpad:                                             ; preds = %entry
  %6 = landingpad { i8*, i32 }
          cleanup, !dbg !11037
  %7 = extractvalue { i8*, i32 } %6, 0, !dbg !11037
  store i8* %7, i8** %exn.slot, align 8, !dbg !11037
  %8 = extractvalue { i8*, i32 } %6, 1, !dbg !11037
  store i32 %8, i32* %ehselector.slot, align 4, !dbg !11037
  call void @_ZNSaIjED2Ev(%"class.std::allocator.35"* %ref.tmp) #4, !dbg !11016
  br label %eh.resume, !dbg !11016

lpad1:                                            ; preds = %invoke.cont54, %for.end51, %for.body27, %for.cond23, %invoke.cont12, %invoke.cont10, %invoke.cont8, %invoke.cont6, %for.end, %for.cond
  %9 = landingpad { i8*, i32 }
          cleanup, !dbg !11038
  %10 = extractvalue { i8*, i32 } %9, 0, !dbg !11038
  store i8* %10, i8** %exn.slot, align 8, !dbg !11038
  %11 = extractvalue { i8*, i32 } %9, 1, !dbg !11038
  store i32 %11, i32* %ehselector.slot, align 4, !dbg !11038
  call void @_ZNSt6vectorIjSaIjEED2Ev(%"class.std::vector.33"* %tmp) #4, !dbg !11037
  br label %eh.resume, !dbg !11037

for.end:                                          ; preds = %invoke.cont2
  %12 = load %"class.dealii::Vector.109"*, %"class.dealii::Vector.109"** %criteria.addr, align 8, !dbg !11039
  %13 = load %"class.dealii::Vector.109"*, %"class.dealii::Vector.109"** %criteria.addr, align 8, !dbg !11040
  %call7 = invoke i32 @_ZNK6dealii6VectorIdE4sizeEv(%"class.dealii::Vector.109"* %13)
          to label %invoke.cont6 unwind label %lpad1, !dbg !11041

invoke.cont6:                                     ; preds = %for.end
  %sub = sub i32 %call7, 1, !dbg !11042
  invoke void @_ZN6dealii12_GLOBAL__N_111qsort_indexINS_6VectorIdEEEEvRKT_RSt6vectorIjSaIjEEii(%"class.dealii::Vector.109"* dereferenceable(88) %12, %"class.std::vector.33"* dereferenceable(24) %tmp, i32 0, i32 %sub)
          to label %invoke.cont8 unwind label %lpad1, !dbg !11043

invoke.cont8:                                     ; preds = %invoke.cont6
  call void @llvm.dbg.declare(metadata double* %s0, metadata !11044, metadata !DIExpression()), !dbg !11045
  %14 = load %"class.dealii::Vector.109"*, %"class.dealii::Vector.109"** %criteria.addr, align 8, !dbg !11046
  %call9 = call dereferenceable(4) i32* @_ZNSt6vectorIjSaIjEEixEm(%"class.std::vector.33"* %tmp, i64 0) #4, !dbg !11047
  %15 = load i32, i32* %call9, align 4, !dbg !11047
  %call11 = invoke double @_ZNK6dealii6VectorIdEclEj(%"class.dealii::Vector.109"* %14, i32 %15)
          to label %invoke.cont10 unwind label %lpad1, !dbg !11046

invoke.cont10:                                    ; preds = %invoke.cont8
  %mul = fmul double 7.500000e-01, %call11, !dbg !11048
  store double %mul, double* %s0, align 8, !dbg !11045
  call void @llvm.dbg.declare(metadata double* %E, metadata !11049, metadata !DIExpression()), !dbg !11050
  %16 = load %"class.dealii::Vector.109"*, %"class.dealii::Vector.109"** %criteria.addr, align 8, !dbg !11051
  %call13 = invoke double @_ZNK6dealii6VectorIdE7l1_normEv(%"class.dealii::Vector.109"* %16)
          to label %invoke.cont12 unwind label %lpad1, !dbg !11052

invoke.cont12:                                    ; preds = %invoke.cont10
  store double %call13, double* %E, align 8, !dbg !11050
  call void @llvm.dbg.declare(metadata i32* %N, metadata !11053, metadata !DIExpression()), !dbg !11054
  %17 = load %"class.dealii::Vector.109"*, %"class.dealii::Vector.109"** %criteria.addr, align 8, !dbg !11055
  %call15 = invoke i32 @_ZNK6dealii6VectorIdE4sizeEv(%"class.dealii::Vector.109"* %17)
          to label %invoke.cont14 unwind label %lpad1, !dbg !11056

invoke.cont14:                                    ; preds = %invoke.cont12
  store i32 %call15, i32* %N, align 4, !dbg !11054
  call void @llvm.dbg.declare(metadata i32* %M, metadata !11057, metadata !DIExpression()), !dbg !11058
  store i32 0, i32* %M, align 4, !dbg !11058
  call void @llvm.dbg.declare(metadata double* %min, metadata !11059, metadata !DIExpression()), !dbg !11060
  %18 = load i32, i32* %M, align 4, !dbg !11061
  %conv16 = uitofp i32 %18 to double, !dbg !11061
  %add = fadd double 1.000000e+00, %conv16, !dbg !11062
  %mul17 = fmul double 3.000000e+00, %add, !dbg !11063
  %19 = load i32, i32* %N, align 4, !dbg !11064
  %conv18 = uitofp i32 %19 to double, !dbg !11064
  %add19 = fadd double %mul17, %conv18, !dbg !11065
  %20 = load double, double* %E, align 8, !dbg !11066
  %21 = load double, double* %s0, align 8, !dbg !11067
  %sub20 = fsub double %20, %21, !dbg !11068
  %mul21 = fmul double %add19, %sub20, !dbg !11069
  store double %mul21, double* %min, align 8, !dbg !11060
  call void @llvm.dbg.declare(metadata i32* %minArg, metadata !11070, metadata !DIExpression()), !dbg !11071
  %22 = load i32, i32* %N, align 4, !dbg !11072
  %sub22 = sub i32 %22, 1, !dbg !11073
  store i32 %sub22, i32* %minArg, align 4, !dbg !11071
  store i32 1, i32* %M, align 4, !dbg !11074
  br label %for.cond23, !dbg !11076

for.cond23:                                       ; preds = %for.inc49, %invoke.cont14
  %23 = load i32, i32* %M, align 4, !dbg !11077
  %24 = load %"class.dealii::Vector.109"*, %"class.dealii::Vector.109"** %criteria.addr, align 8, !dbg !11079
  %call25 = invoke i32 @_ZNK6dealii6VectorIdE4sizeEv(%"class.dealii::Vector.109"* %24)
          to label %invoke.cont24 unwind label %lpad1, !dbg !11080

invoke.cont24:                                    ; preds = %for.cond23
  %cmp26 = icmp ult i32 %23, %call25, !dbg !11081
  br i1 %cmp26, label %for.body27, label %for.end51, !dbg !11082

for.body27:                                       ; preds = %invoke.cont24
  %25 = load %"class.dealii::Vector.109"*, %"class.dealii::Vector.109"** %criteria.addr, align 8, !dbg !11083
  %26 = load i32, i32* %M, align 4, !dbg !11085
  %conv28 = zext i32 %26 to i64, !dbg !11085
  %call29 = call dereferenceable(4) i32* @_ZNSt6vectorIjSaIjEEixEm(%"class.std::vector.33"* %tmp, i64 %conv28) #4, !dbg !11086
  %27 = load i32, i32* %call29, align 4, !dbg !11086
  %call31 = invoke double @_ZNK6dealii6VectorIdEclEj(%"class.dealii::Vector.109"* %25, i32 %27)
          to label %invoke.cont30 unwind label %lpad1, !dbg !11083

invoke.cont30:                                    ; preds = %for.body27
  %mul32 = fmul double 7.500000e-01, %call31, !dbg !11087
  %28 = load double, double* %s0, align 8, !dbg !11088
  %add33 = fadd double %28, %mul32, !dbg !11088
  store double %add33, double* %s0, align 8, !dbg !11088
  %29 = load i32, i32* %M, align 4, !dbg !11089
  %add34 = add i32 1, %29, !dbg !11091
  %conv35 = uitofp i32 %add34 to double, !dbg !11092
  %mul36 = fmul double 3.000000e+00, %conv35, !dbg !11093
  %30 = load i32, i32* %N, align 4, !dbg !11094
  %conv37 = uitofp i32 %30 to double, !dbg !11094
  %add38 = fadd double %mul36, %conv37, !dbg !11095
  %31 = load double, double* %E, align 8, !dbg !11096
  %32 = load double, double* %s0, align 8, !dbg !11097
  %sub39 = fsub double %31, %32, !dbg !11098
  %mul40 = fmul double %add38, %sub39, !dbg !11099
  %33 = load double, double* %min, align 8, !dbg !11100
  %cmp41 = fcmp ole double %mul40, %33, !dbg !11101
  br i1 %cmp41, label %if.then, label %if.end, !dbg !11102

if.then:                                          ; preds = %invoke.cont30
  %34 = load i32, i32* %M, align 4, !dbg !11103
  %add42 = add i32 1, %34, !dbg !11105
  %conv43 = uitofp i32 %add42 to double, !dbg !11106
  %mul44 = fmul double 3.000000e+00, %conv43, !dbg !11107
  %35 = load i32, i32* %N, align 4, !dbg !11108
  %conv45 = uitofp i32 %35 to double, !dbg !11108
  %add46 = fadd double %mul44, %conv45, !dbg !11109
  %36 = load double, double* %E, align 8, !dbg !11110
  %37 = load double, double* %s0, align 8, !dbg !11111
  %sub47 = fsub double %36, %37, !dbg !11112
  %mul48 = fmul double %add46, %sub47, !dbg !11113
  store double %mul48, double* %min, align 8, !dbg !11114
  %38 = load i32, i32* %M, align 4, !dbg !11115
  store i32 %38, i32* %minArg, align 4, !dbg !11116
  br label %if.end, !dbg !11117

if.end:                                           ; preds = %if.then, %invoke.cont30
  br label %for.inc49, !dbg !11118

for.inc49:                                        ; preds = %if.end
  %39 = load i32, i32* %M, align 4, !dbg !11119
  %inc50 = add i32 %39, 1, !dbg !11119
  store i32 %inc50, i32* %M, align 4, !dbg !11119
  br label %for.cond23, !dbg !11120, !llvm.loop !11121

for.end51:                                        ; preds = %invoke.cont24
  %40 = load %"class.dealii::Triangulation"*, %"class.dealii::Triangulation"** %tria.addr, align 8, !dbg !11123
  %41 = load %"class.dealii::Vector.109"*, %"class.dealii::Vector.109"** %criteria.addr, align 8, !dbg !11124
  %42 = load %"class.dealii::Vector.109"*, %"class.dealii::Vector.109"** %criteria.addr, align 8, !dbg !11125
  %43 = load i32, i32* %minArg, align 4, !dbg !11126
  %conv52 = zext i32 %43 to i64, !dbg !11126
  %call53 = call dereferenceable(4) i32* @_ZNSt6vectorIjSaIjEEixEm(%"class.std::vector.33"* %tmp, i64 %conv52) #4, !dbg !11127
  %44 = load i32, i32* %call53, align 4, !dbg !11127
  %call55 = invoke double @_ZNK6dealii6VectorIdEclEj(%"class.dealii::Vector.109"* %42, i32 %44)
          to label %invoke.cont54 unwind label %lpad1, !dbg !11125

invoke.cont54:                                    ; preds = %for.end51
  invoke void @_ZN6dealii14GridRefinement6refineILi3ENS_6VectorIdEELi3EEEvRNS_13TriangulationIXT_EXT1_EEERKT0_d(%"class.dealii::Triangulation"* dereferenceable(8552) %40, %"class.dealii::Vector.109"* dereferenceable(88) %41, double %call55)
          to label %invoke.cont56 unwind label %lpad1, !dbg !11128

invoke.cont56:                                    ; preds = %invoke.cont54
  call void @_ZNSt6vectorIjSaIjEED2Ev(%"class.std::vector.33"* %tmp) #4, !dbg !11037
  ret void, !dbg !11037

eh.resume:                                        ; preds = %lpad1, %lpad
  %exn = load i8*, i8** %exn.slot, align 8, !dbg !11016
  %sel = load i32, i32* %ehselector.slot, align 4, !dbg !11016
  %lpad.val = insertvalue { i8*, i32 } undef, i8* %exn, 0, !dbg !11016
  %lpad.val57 = insertvalue { i8*, i32 } %lpad.val, i32 %sel, 1, !dbg !11016
  resume { i8*, i32 } %lpad.val57, !dbg !11016
}

; Function Attrs: noinline uwtable
define internal void @_ZN6dealii12_GLOBAL__N_111qsort_indexINS_6VectorIdEEEEvRKT_RSt6vectorIjSaIjEEii(%"class.dealii::Vector.109"* dereferenceable(88) %a, %"class.std::vector.33"* dereferenceable(24) %ind, i32 %l, i32 %r) #0 !dbg !11129 {
entry:
  %a.addr = alloca %"class.dealii::Vector.109"*, align 8
  %ind.addr = alloca %"class.std::vector.33"*, align 8
  %l.addr = alloca i32, align 4
  %r.addr = alloca i32, align 4
  %i = alloca i32, align 4
  %j = alloca i32, align 4
  %v = alloca double, align 8
  store %"class.dealii::Vector.109"* %a, %"class.dealii::Vector.109"** %a.addr, align 8
  call void @llvm.dbg.declare(metadata %"class.dealii::Vector.109"** %a.addr, metadata !11133, metadata !DIExpression()), !dbg !11134
  store %"class.std::vector.33"* %ind, %"class.std::vector.33"** %ind.addr, align 8
  call void @llvm.dbg.declare(metadata %"class.std::vector.33"** %ind.addr, metadata !11135, metadata !DIExpression()), !dbg !11136
  store i32 %l, i32* %l.addr, align 4
  call void @llvm.dbg.declare(metadata i32* %l.addr, metadata !11137, metadata !DIExpression()), !dbg !11138
  store i32 %r, i32* %r.addr, align 4
  call void @llvm.dbg.declare(metadata i32* %r.addr, metadata !11139, metadata !DIExpression()), !dbg !11140
  call void @llvm.dbg.declare(metadata i32* %i, metadata !11141, metadata !DIExpression()), !dbg !11142
  call void @llvm.dbg.declare(metadata i32* %j, metadata !11143, metadata !DIExpression()), !dbg !11144
  call void @llvm.dbg.declare(metadata double* %v, metadata !11145, metadata !DIExpression()), !dbg !11146
  %0 = load i32, i32* %r.addr, align 4, !dbg !11147
  %1 = load i32, i32* %l.addr, align 4, !dbg !11149
  %cmp = icmp sle i32 %0, %1, !dbg !11150
  br i1 %cmp, label %if.then, label %if.end, !dbg !11151

if.then:                                          ; preds = %entry
  br label %return, !dbg !11152

if.end:                                           ; preds = %entry
  %2 = load %"class.dealii::Vector.109"*, %"class.dealii::Vector.109"** %a.addr, align 8, !dbg !11153
  %3 = load %"class.std::vector.33"*, %"class.std::vector.33"** %ind.addr, align 8, !dbg !11154
  %4 = load i32, i32* %r.addr, align 4, !dbg !11155
  %conv = sext i32 %4 to i64, !dbg !11155
  %call = call dereferenceable(4) i32* @_ZNSt6vectorIjSaIjEEixEm(%"class.std::vector.33"* %3, i64 %conv) #4, !dbg !11154
  %5 = load i32, i32* %call, align 4, !dbg !11154
  %call1 = call double @_ZNK6dealii6VectorIdEclEj(%"class.dealii::Vector.109"* %2, i32 %5), !dbg !11153
  store double %call1, double* %v, align 8, !dbg !11156
  %6 = load i32, i32* %l.addr, align 4, !dbg !11157
  %sub = sub nsw i32 %6, 1, !dbg !11158
  store i32 %sub, i32* %i, align 4, !dbg !11159
  %7 = load i32, i32* %r.addr, align 4, !dbg !11160
  store i32 %7, i32* %j, align 4, !dbg !11161
  br label %do.body, !dbg !11162

do.body:                                          ; preds = %do.cond29, %if.end
  br label %do.body2, !dbg !11163

do.body2:                                         ; preds = %land.end, %do.body
  %8 = load i32, i32* %i, align 4, !dbg !11165
  %inc = add nsw i32 %8, 1, !dbg !11165
  store i32 %inc, i32* %i, align 4, !dbg !11165
  br label %do.cond, !dbg !11167

do.cond:                                          ; preds = %do.body2
  %9 = load %"class.dealii::Vector.109"*, %"class.dealii::Vector.109"** %a.addr, align 8, !dbg !11168
  %10 = load %"class.std::vector.33"*, %"class.std::vector.33"** %ind.addr, align 8, !dbg !11169
  %11 = load i32, i32* %i, align 4, !dbg !11170
  %conv3 = sext i32 %11 to i64, !dbg !11170
  %call4 = call dereferenceable(4) i32* @_ZNSt6vectorIjSaIjEEixEm(%"class.std::vector.33"* %10, i64 %conv3) #4, !dbg !11169
  %12 = load i32, i32* %call4, align 4, !dbg !11169
  %call5 = call double @_ZNK6dealii6VectorIdEclEj(%"class.dealii::Vector.109"* %9, i32 %12), !dbg !11168
  %13 = load double, double* %v, align 8, !dbg !11171
  %cmp6 = fcmp ogt double %call5, %13, !dbg !11172
  br i1 %cmp6, label %land.rhs, label %land.end, !dbg !11173

land.rhs:                                         ; preds = %do.cond
  %14 = load i32, i32* %i, align 4, !dbg !11174
  %15 = load i32, i32* %r.addr, align 4, !dbg !11175
  %cmp7 = icmp slt i32 %14, %15, !dbg !11176
  br label %land.end

land.end:                                         ; preds = %land.rhs, %do.cond
  %16 = phi i1 [ false, %do.cond ], [ %cmp7, %land.rhs ], !dbg !11177
  br i1 %16, label %do.body2, label %do.end, !dbg !11167, !llvm.loop !11178

do.end:                                           ; preds = %land.end
  br label %do.body8, !dbg !11180

do.body8:                                         ; preds = %land.end16, %do.end
  %17 = load i32, i32* %j, align 4, !dbg !11181
  %dec = add nsw i32 %17, -1, !dbg !11181
  store i32 %dec, i32* %j, align 4, !dbg !11181
  br label %do.cond9, !dbg !11183

do.cond9:                                         ; preds = %do.body8
  %18 = load %"class.dealii::Vector.109"*, %"class.dealii::Vector.109"** %a.addr, align 8, !dbg !11184
  %19 = load %"class.std::vector.33"*, %"class.std::vector.33"** %ind.addr, align 8, !dbg !11185
  %20 = load i32, i32* %j, align 4, !dbg !11186
  %conv10 = sext i32 %20 to i64, !dbg !11186
  %call11 = call dereferenceable(4) i32* @_ZNSt6vectorIjSaIjEEixEm(%"class.std::vector.33"* %19, i64 %conv10) #4, !dbg !11185
  %21 = load i32, i32* %call11, align 4, !dbg !11185
  %call12 = call double @_ZNK6dealii6VectorIdEclEj(%"class.dealii::Vector.109"* %18, i32 %21), !dbg !11184
  %22 = load double, double* %v, align 8, !dbg !11187
  %cmp13 = fcmp olt double %call12, %22, !dbg !11188
  br i1 %cmp13, label %land.rhs14, label %land.end16, !dbg !11189

land.rhs14:                                       ; preds = %do.cond9
  %23 = load i32, i32* %j, align 4, !dbg !11190
  %cmp15 = icmp sgt i32 %23, 0, !dbg !11191
  br label %land.end16

land.end16:                                       ; preds = %land.rhs14, %do.cond9
  %24 = phi i1 [ false, %do.cond9 ], [ %cmp15, %land.rhs14 ], !dbg !11177
  br i1 %24, label %do.body8, label %do.end17, !dbg !11183, !llvm.loop !11192

do.end17:                                         ; preds = %land.end16
  %25 = load i32, i32* %i, align 4, !dbg !11194
  %26 = load i32, i32* %j, align 4, !dbg !11196
  %cmp18 = icmp slt i32 %25, %26, !dbg !11197
  br i1 %cmp18, label %if.then19, label %if.else, !dbg !11198

