; ModuleID = 'source/base/polynomial_space.cc'
source_filename = "source/base/polynomial_space.cc"
target datalayout = "e-m:e-p270:32:32-p271:32:32-p272:64:64-i64:64-f80:128-n8:16:32:64-S128"
target triple = "x86_64-unknown-linux-gnu"

%"class.dealii::PolynomialSpace" = type { %"class.std::vector", i32, %"class.std::vector.8", %"class.std::vector.8" }
%"class.std::vector" = type { %"struct.std::_Vector_base" }
%"struct.std::_Vector_base" = type { %"struct.std::_Vector_base<dealii::Polynomials::Polynomial<double>, std::allocator<dealii::Polynomials::Polynomial<double> > >::_Vector_impl" }
%"struct.std::_Vector_base<dealii::Polynomials::Polynomial<double>, std::allocator<dealii::Polynomials::Polynomial<double> > >::_Vector_impl" = type { %"struct.std::_Vector_base<dealii::Polynomials::Polynomial<double>, std::allocator<dealii::Polynomials::Polynomial<double> > >::_Vector_impl_data" }
%"struct.std::_Vector_base<dealii::Polynomials::Polynomial<double>, std::allocator<dealii::Polynomials::Polynomial<double> > >::_Vector_impl_data" = type { %"class.dealii::Polynomials::Polynomial"*, %"class.dealii::Polynomials::Polynomial"*, %"class.dealii::Polynomials::Polynomial"* }
%"class.dealii::Polynomials::Polynomial" = type { %"class.dealii::Subscriptor", %"class.std::vector.3" }
%"class.dealii::Subscriptor" = type { i32 (...)**, i32, %"class.std::map", %"class.std::type_info"* }
%"class.std::map" = type { %"class.std::_Rb_tree" }
%"class.std::_Rb_tree" = type { %"struct.std::_Rb_tree<const char *, std::pair<const char *const, unsigned int>, std::_Select1st<std::pair<const char *const, unsigned int> >, std::less<const char *>, std::allocator<std::pair<const char *const, unsigned int> > >::_Rb_tree_impl" }
%"struct.std::_Rb_tree<const char *, std::pair<const char *const, unsigned int>, std::_Select1st<std::pair<const char *const, unsigned int> >, std::less<const char *>, std::allocator<std::pair<const char *const, unsigned int> > >::_Rb_tree_impl" = type { %"struct.std::_Rb_tree_key_compare", %"struct.std::_Rb_tree_header" }
%"struct.std::_Rb_tree_key_compare" = type { %"struct.std::less" }
%"struct.std::less" = type { i8 }
%"struct.std::_Rb_tree_header" = type { %"struct.std::_Rb_tree_node_base", i64 }
%"struct.std::_Rb_tree_node_base" = type { i32, %"struct.std::_Rb_tree_node_base"*, %"struct.std::_Rb_tree_node_base"*, %"struct.std::_Rb_tree_node_base"* }
%"class.std::type_info" = type { i32 (...)**, i8* }
%"class.std::vector.3" = type { %"struct.std::_Vector_base.4" }
%"struct.std::_Vector_base.4" = type { %"struct.std::_Vector_base<double, std::allocator<double> >::_Vector_impl" }
%"struct.std::_Vector_base<double, std::allocator<double> >::_Vector_impl" = type { %"struct.std::_Vector_base<double, std::allocator<double> >::_Vector_impl_data" }
%"struct.std::_Vector_base<double, std::allocator<double> >::_Vector_impl_data" = type { double*, double*, double* }
%"class.std::vector.8" = type { %"struct.std::_Vector_base.9" }
%"struct.std::_Vector_base.9" = type { %"struct.std::_Vector_base<unsigned int, std::allocator<unsigned int> >::_Vector_impl" }
%"struct.std::_Vector_base<unsigned int, std::allocator<unsigned int> >::_Vector_impl" = type { %"struct.std::_Vector_base<unsigned int, std::allocator<unsigned int> >::_Vector_impl_data" }
%"struct.std::_Vector_base<unsigned int, std::allocator<unsigned int> >::_Vector_impl_data" = type { i32*, i32*, i32* }
%"class.__gnu_cxx::__normal_iterator" = type { i32* }
%"class.__gnu_cxx::__normal_iterator.52" = type { i32* }
%"class.std::allocator.10" = type { i8 }
%"class.dealii::Point" = type { %"class.dealii::Tensor" }
%"class.dealii::Tensor" = type { [1 x double] }
%"class.std::vector.13" = type { %"struct.std::_Vector_base.14" }
%"struct.std::_Vector_base.14" = type { %"struct.std::_Vector_base<dealii::Tensor<1, 1>, std::allocator<dealii::Tensor<1, 1> > >::_Vector_impl" }
%"struct.std::_Vector_base<dealii::Tensor<1, 1>, std::allocator<dealii::Tensor<1, 1> > >::_Vector_impl" = type { %"struct.std::_Vector_base<dealii::Tensor<1, 1>, std::allocator<dealii::Tensor<1, 1> > >::_Vector_impl_data" }
%"struct.std::_Vector_base<dealii::Tensor<1, 1>, std::allocator<dealii::Tensor<1, 1> > >::_Vector_impl_data" = type { %"class.dealii::Tensor"*, %"class.dealii::Tensor"*, %"class.dealii::Tensor"* }
%"class.std::vector.18" = type { %"struct.std::_Vector_base.19" }
%"struct.std::_Vector_base.19" = type { %"struct.std::_Vector_base<dealii::Tensor<2, 1>, std::allocator<dealii::Tensor<2, 1> > >::_Vector_impl" }
%"struct.std::_Vector_base<dealii::Tensor<2, 1>, std::allocator<dealii::Tensor<2, 1> > >::_Vector_impl" = type { %"struct.std::_Vector_base<dealii::Tensor<2, 1>, std::allocator<dealii::Tensor<2, 1> > >::_Vector_impl_data" }
%"struct.std::_Vector_base<dealii::Tensor<2, 1>, std::allocator<dealii::Tensor<2, 1> > >::_Vector_impl_data" = type { %"class.dealii::Tensor.23"*, %"class.dealii::Tensor.23"*, %"class.dealii::Tensor.23"* }
%"class.dealii::Tensor.23" = type { [1 x %"class.dealii::Tensor"] }
%"class.dealii::Table" = type { %"class.dealii::TableBase.base", [4 x i8] }
%"class.dealii::TableBase.base" = type <{ %"class.dealii::Subscriptor", %"class.std::vector.3"*, i32, %"class.dealii::TableIndices" }>
%"class.dealii::TableIndices" = type { %"class.dealii::TableIndicesBase" }
%"class.dealii::TableIndicesBase" = type { [2 x i32] }
%"class.dealii::internal::TableBaseAccessors::Accessor" = type { %"class.dealii::TableBase"*, %"class.std::vector.3"* }
%"class.dealii::TableBase" = type <{ %"class.dealii::Subscriptor", %"class.std::vector.3"*, i32, %"class.dealii::TableIndices", [4 x i8] }>
%"class.__gnu_cxx::__normal_iterator.54" = type { double* }
%"class.std::allocator.5" = type { i8 }
%"class.__gnu_cxx::new_allocator.6" = type { i8 }
%"class.dealii::PolynomialSpace.24" = type { %"class.std::vector", i32, %"class.std::vector.8", %"class.std::vector.8" }
%"class.dealii::Point.25" = type { %"class.dealii::Tensor.26" }
%"class.dealii::Tensor.26" = type { [2 x double] }
%"class.std::vector.27" = type { %"struct.std::_Vector_base.28" }
%"struct.std::_Vector_base.28" = type { %"struct.std::_Vector_base<dealii::Tensor<1, 2>, std::allocator<dealii::Tensor<1, 2> > >::_Vector_impl" }
%"struct.std::_Vector_base<dealii::Tensor<1, 2>, std::allocator<dealii::Tensor<1, 2> > >::_Vector_impl" = type { %"struct.std::_Vector_base<dealii::Tensor<1, 2>, std::allocator<dealii::Tensor<1, 2> > >::_Vector_impl_data" }
%"struct.std::_Vector_base<dealii::Tensor<1, 2>, std::allocator<dealii::Tensor<1, 2> > >::_Vector_impl_data" = type { %"class.dealii::Tensor.26"*, %"class.dealii::Tensor.26"*, %"class.dealii::Tensor.26"* }
%"class.std::vector.32" = type { %"struct.std::_Vector_base.33" }
%"struct.std::_Vector_base.33" = type { %"struct.std::_Vector_base<dealii::Tensor<2, 2>, std::allocator<dealii::Tensor<2, 2> > >::_Vector_impl" }
%"struct.std::_Vector_base<dealii::Tensor<2, 2>, std::allocator<dealii::Tensor<2, 2> > >::_Vector_impl" = type { %"struct.std::_Vector_base<dealii::Tensor<2, 2>, std::allocator<dealii::Tensor<2, 2> > >::_Vector_impl_data" }
%"struct.std::_Vector_base<dealii::Tensor<2, 2>, std::allocator<dealii::Tensor<2, 2> > >::_Vector_impl_data" = type { %"class.dealii::Tensor.37"*, %"class.dealii::Tensor.37"*, %"class.dealii::Tensor.37"* }
%"class.dealii::Tensor.37" = type { [2 x %"class.dealii::Tensor.26"] }
%"class.dealii::PolynomialSpace.38" = type { %"class.std::vector", i32, %"class.std::vector.8", %"class.std::vector.8" }
%"class.dealii::Point.39" = type { %"class.dealii::Tensor.40" }
%"class.dealii::Tensor.40" = type { [3 x double] }
%"class.std::vector.41" = type { %"struct.std::_Vector_base.42" }
%"struct.std::_Vector_base.42" = type { %"struct.std::_Vector_base<dealii::Tensor<1, 3>, std::allocator<dealii::Tensor<1, 3> > >::_Vector_impl" }
%"struct.std::_Vector_base<dealii::Tensor<1, 3>, std::allocator<dealii::Tensor<1, 3> > >::_Vector_impl" = type { %"struct.std::_Vector_base<dealii::Tensor<1, 3>, std::allocator<dealii::Tensor<1, 3> > >::_Vector_impl_data" }
%"struct.std::_Vector_base<dealii::Tensor<1, 3>, std::allocator<dealii::Tensor<1, 3> > >::_Vector_impl_data" = type { %"class.dealii::Tensor.40"*, %"class.dealii::Tensor.40"*, %"class.dealii::Tensor.40"* }
%"class.std::vector.46" = type { %"struct.std::_Vector_base.47" }
%"struct.std::_Vector_base.47" = type { %"struct.std::_Vector_base<dealii::Tensor<2, 3>, std::allocator<dealii::Tensor<2, 3> > >::_Vector_impl" }
%"struct.std::_Vector_base<dealii::Tensor<2, 3>, std::allocator<dealii::Tensor<2, 3> > >::_Vector_impl" = type { %"struct.std::_Vector_base<dealii::Tensor<2, 3>, std::allocator<dealii::Tensor<2, 3> > >::_Vector_impl_data" }
%"struct.std::_Vector_base<dealii::Tensor<2, 3>, std::allocator<dealii::Tensor<2, 3> > >::_Vector_impl_data" = type { %"class.dealii::Tensor.51"*, %"class.dealii::Tensor.51"*, %"class.dealii::Tensor.51"* }
%"class.dealii::Tensor.51" = type { [3 x %"class.dealii::Tensor.40"] }
%"class.__gnu_cxx::new_allocator.11" = type { i8 }
%"struct.std::random_access_iterator_tag" = type { i8 }
%"class.__gnu_cxx::__normal_iterator.53" = type { double* }
%"struct.std::vector<double, std::allocator<double> >::_Temporary_value" = type { %"class.std::vector.3"*, %"union.std::aligned_storage<8, 8>::type" }
%"union.std::aligned_storage<8, 8>::type" = type { [8 x i8] }
%"class.std::move_iterator" = type { double* }

$_ZN6dealii15PolynomialSpaceILi1EE13set_numberingERKSt6vectorIjSaIjEE = comdat any

$_ZNSt6vectorIjSaIjEEaSERKS1_ = comdat any

$_ZNKSt6vectorIjSaIjEE4sizeEv = comdat any

$_ZNSt6vectorIjSaIjEEixEm = comdat any

$_ZNK6dealii15PolynomialSpaceILi1EE7computeERKNS_5PointILi1EEERSt6vectorIdSaIdEERS6_INS_6TensorILi1ELi1EEESaISB_EERS6_INSA_ILi2ELi1EEESaISF_EE = comdat any

$_ZNKSt6vectorIN6dealii11Polynomials10PolynomialIdEESaIS3_EE4sizeEv = comdat any

$_ZNKSt6vectorIdSaIdEE4sizeEv = comdat any

$_ZNKSt6vectorIN6dealii6TensorILi1ELi1EEESaIS2_EE4sizeEv = comdat any

$_ZNKSt6vectorIN6dealii6TensorILi2ELi1EEESaIS2_EE4sizeEv = comdat any

$_ZN6dealii5TableILi2ESt6vectorIdSaIdEEEC2Ejj = comdat any

$_ZNK6dealii9TableBaseILi2ESt6vectorIdSaIdEEE4sizeEv = comdat any

$_ZNK6dealii16TableIndicesBaseILi2EEixEj = comdat any

$_ZN6dealii5TableILi2ESt6vectorIdSaIdEEEclEjj = comdat any

$_ZNSt6vectorIdSaIdEE6resizeEmRKd = comdat any

$_ZNKSt6vectorIN6dealii11Polynomials10PolynomialIdEESaIS3_EEixEm = comdat any

$_ZNK6dealii5PointILi1EEclEj = comdat any

$_ZN6dealii5TableILi2ESt6vectorIdSaIdEEEixEj = comdat any

$_ZNK6dealii8internal18TableBaseAccessors8AccessorILi2ESt6vectorIdSaIdEELb0ELj1EEixEj = comdat any

$_ZNSt6vectorIdSaIdEEixEm = comdat any

$_ZNKSt6vectorIjSaIjEEixEm = comdat any

$_ZNSt6vectorIN6dealii6TensorILi1ELi1EEESaIS2_EEixEm = comdat any

$_ZN6dealii6TensorILi1ELi1EEixEj = comdat any

$_ZNSt6vectorIN6dealii6TensorILi2ELi1EEESaIS2_EEixEm = comdat any

$_ZN6dealii6TensorILi2ELi1EEixEj = comdat any

$_ZN6dealii5TableILi2ESt6vectorIdSaIdEEED2Ev = comdat any

$_ZNK6dealii15PolynomialSpaceILi1EE13compute_valueEjRKNS_5PointILi1EEE = comdat any

$_ZNK6dealii15PolynomialSpaceILi1EE12compute_gradEjRKNS_5PointILi1EEE = comdat any

$_ZN6dealii6TensorILi1ELi1EEC2Eb = comdat any

$_ZNSaIdEC2Ev = comdat any

$_ZNSt6vectorIdSaIdEEC2EmRKS0_ = comdat any

$_ZNSaIdED2Ev = comdat any

$_ZNSt6vectorIdSaIdEED2Ev = comdat any

$_ZNK6dealii15PolynomialSpaceILi1EE17compute_grad_gradEjRKNS_5PointILi1EEE = comdat any

$_ZN6dealii6TensorILi2ELi1EEC2Ev = comdat any

$_ZNK6dealii15PolynomialSpaceILi1EE1nEv = comdat any

$_ZNK6dealii15PolynomialSpaceILi1EE6degreeEv = comdat any

$_ZN6dealii15PolynomialSpaceILi1EE14compute_n_polsEj = comdat any

$_ZN6dealii15PolynomialSpaceILi2EE13set_numberingERKSt6vectorIjSaIjEE = comdat any

$_ZNK6dealii15PolynomialSpaceILi2EE7computeERKNS_5PointILi2EEERSt6vectorIdSaIdEERS6_INS_6TensorILi1ELi2EEESaISB_EERS6_INSA_ILi2ELi2EEESaISF_EE = comdat any

$_ZNKSt6vectorIN6dealii6TensorILi1ELi2EEESaIS2_EE4sizeEv = comdat any

$_ZNKSt6vectorIN6dealii6TensorILi2ELi2EEESaIS2_EE4sizeEv = comdat any

$_ZNK6dealii5PointILi2EEclEj = comdat any

$_ZNSt6vectorIN6dealii6TensorILi1ELi2EEESaIS2_EEixEm = comdat any

$_ZN6dealii6TensorILi1ELi2EEixEj = comdat any

$_ZNSt6vectorIN6dealii6TensorILi2ELi2EEESaIS2_EEixEm = comdat any

$_ZN6dealii6TensorILi2ELi2EEixEj = comdat any

$_ZNK6dealii15PolynomialSpaceILi2EE13compute_valueEjRKNS_5PointILi2EEE = comdat any

$_ZNK6dealii15PolynomialSpaceILi2EE12compute_gradEjRKNS_5PointILi2EEE = comdat any

$_ZN6dealii6TensorILi1ELi2EEC2Eb = comdat any

$_ZNK6dealii15PolynomialSpaceILi2EE17compute_grad_gradEjRKNS_5PointILi2EEE = comdat any

$_ZN6dealii6TensorILi2ELi2EEC2Ev = comdat any

$_ZNK6dealii15PolynomialSpaceILi2EE1nEv = comdat any

$_ZNK6dealii15PolynomialSpaceILi2EE6degreeEv = comdat any

$_ZN6dealii15PolynomialSpaceILi2EE14compute_n_polsEj = comdat any

$_ZN6dealii15PolynomialSpaceILi3EE13set_numberingERKSt6vectorIjSaIjEE = comdat any

$_ZNK6dealii15PolynomialSpaceILi3EE7computeERKNS_5PointILi3EEERSt6vectorIdSaIdEERS6_INS_6TensorILi1ELi3EEESaISB_EERS6_INSA_ILi2ELi3EEESaISF_EE = comdat any

$_ZNKSt6vectorIN6dealii6TensorILi1ELi3EEESaIS2_EE4sizeEv = comdat any

$_ZNKSt6vectorIN6dealii6TensorILi2ELi3EEESaIS2_EE4sizeEv = comdat any

$_ZNK6dealii5PointILi3EEclEj = comdat any

$_ZNSt6vectorIN6dealii6TensorILi1ELi3EEESaIS2_EEixEm = comdat any

$_ZN6dealii6TensorILi1ELi3EEixEj = comdat any

$_ZNSt6vectorIN6dealii6TensorILi2ELi3EEESaIS2_EEixEm = comdat any

$_ZN6dealii6TensorILi2ELi3EEixEj = comdat any

$_ZNK6dealii15PolynomialSpaceILi3EE13compute_valueEjRKNS_5PointILi3EEE = comdat any

$_ZNK6dealii15PolynomialSpaceILi3EE12compute_gradEjRKNS_5PointILi3EEE = comdat any

$_ZN6dealii6TensorILi1ELi3EEC2Eb = comdat any

$_ZNK6dealii15PolynomialSpaceILi3EE17compute_grad_gradEjRKNS_5PointILi3EEE = comdat any

$_ZN6dealii6TensorILi2ELi3EEC2Ev = comdat any

$_ZNK6dealii15PolynomialSpaceILi3EE1nEv = comdat any

$_ZNK6dealii15PolynomialSpaceILi3EE6degreeEv = comdat any

$_ZN6dealii15PolynomialSpaceILi3EE14compute_n_polsEj = comdat any

$_ZN6dealii9TableBaseILi2ESt6vectorIdSaIdEEED2Ev = comdat any

$_ZN6dealii9TableBaseILi2ESt6vectorIdSaIdEEED0Ev = comdat any

$_ZN9__gnu_cxx13new_allocatorIdEC2Ev = comdat any

$_ZN9__gnu_cxx13new_allocatorIdED2Ev = comdat any

$_ZNKSt6vectorIjSaIjEE8capacityEv = comdat any

$_ZNSt6vectorIjSaIjEE20_M_allocate_and_copyIN9__gnu_cxx17__normal_iteratorIPKjS1_EEEEPjmT_S9_ = comdat any

$_ZNKSt6vectorIjSaIjEE5beginEv = comdat any

$_ZNKSt6vectorIjSaIjEE3endEv = comdat any

$_ZSt8_DestroyIPjjEvT_S1_RSaIT0_E = comdat any

$_ZNSt12_Vector_baseIjSaIjEE19_M_get_Tp_allocatorEv = comdat any

$_ZNSt12_Vector_baseIjSaIjEE13_M_deallocateEPjm = comdat any

$_ZSt8_DestroyIN9__gnu_cxx17__normal_iteratorIPjSt6vectorIjSaIjEEEEjEvT_S7_RSaIT0_E = comdat any

$_ZSt4copyIN9__gnu_cxx17__normal_iteratorIPKjSt6vectorIjSaIjEEEENS1_IPjS6_EEET0_T_SB_SA_ = comdat any

$_ZNSt6vectorIjSaIjEE5beginEv = comdat any

$_ZNSt6vectorIjSaIjEE3endEv = comdat any

$_ZSt4copyIPjS0_ET0_T_S2_S1_ = comdat any

$_ZSt22__uninitialized_copy_aIPjS0_jET0_T_S2_S1_RSaIT1_E = comdat any

$_ZNSt12_Vector_baseIjSaIjEE11_M_allocateEm = comdat any

$_ZSt22__uninitialized_copy_aIN9__gnu_cxx17__normal_iteratorIPKjSt6vectorIjSaIjEEEEPjjET0_T_SA_S9_RSaIT1_E = comdat any

$__clang_call_terminate = comdat any

$_ZNSt16allocator_traitsISaIjEE8allocateERS0_m = comdat any

$_ZN9__gnu_cxx13new_allocatorIjE8allocateEmPKv = comdat any

$_ZNK9__gnu_cxx13new_allocatorIjE11_M_max_sizeEv = comdat any

$_ZSt18uninitialized_copyIN9__gnu_cxx17__normal_iteratorIPKjSt6vectorIjSaIjEEEEPjET0_T_SA_S9_ = comdat any

$_ZNSt20__uninitialized_copyILb1EE13__uninit_copyIN9__gnu_cxx17__normal_iteratorIPKjSt6vectorIjSaIjEEEEPjEET0_T_SC_SB_ = comdat any

$_ZSt4copyIN9__gnu_cxx17__normal_iteratorIPKjSt6vectorIjSaIjEEEEPjET0_T_SA_S9_ = comdat any

$_ZSt13__copy_move_aILb0EN9__gnu_cxx17__normal_iteratorIPKjSt6vectorIjSaIjEEEEPjET1_T0_SA_S9_ = comdat any

$_ZSt12__miter_baseIN9__gnu_cxx17__normal_iteratorIPKjSt6vectorIjSaIjEEEEET_S8_ = comdat any

$_ZSt12__niter_wrapIPjET_RKS1_S1_ = comdat any

$_ZSt14__copy_move_a1ILb0EPKjPjET1_T0_S4_S3_ = comdat any

$_ZSt12__niter_baseIPKjSt6vectorIjSaIjEEET_N9__gnu_cxx17__normal_iteratorIS5_T0_EE = comdat any

$_ZSt12__niter_baseIPjET_S1_ = comdat any

$_ZSt14__copy_move_a2ILb0EPKjPjET1_T0_S4_S3_ = comdat any

$_ZNSt11__copy_moveILb0ELb1ESt26random_access_iterator_tagE8__copy_mIjEEPT_PKS3_S6_S4_ = comdat any

$_ZNK9__gnu_cxx17__normal_iteratorIPKjSt6vectorIjSaIjEEE4baseEv = comdat any

$_ZN9__gnu_cxx17__normal_iteratorIPKjSt6vectorIjSaIjEEEC2ERKS2_ = comdat any

$_ZSt8_DestroyIPjEvT_S1_ = comdat any

$_ZNSt12_Destroy_auxILb1EE9__destroyIPjEEvT_S3_ = comdat any

$_ZNSt16allocator_traitsISaIjEE10deallocateERS0_Pjm = comdat any

$_ZN9__gnu_cxx13new_allocatorIjE10deallocateEPjm = comdat any

$_ZSt8_DestroyIN9__gnu_cxx17__normal_iteratorIPjSt6vectorIjSaIjEEEEEvT_S7_ = comdat any

$_ZNSt12_Destroy_auxILb1EE9__destroyIN9__gnu_cxx17__normal_iteratorIPjSt6vectorIjSaIjEEEEEEvT_S9_ = comdat any

$_ZSt13__copy_move_aILb0EN9__gnu_cxx17__normal_iteratorIPKjSt6vectorIjSaIjEEEENS1_IPjS6_EEET1_T0_SB_SA_ = comdat any

$_ZSt12__niter_wrapIN9__gnu_cxx17__normal_iteratorIPjSt6vectorIjSaIjEEEES2_ET_S7_T0_ = comdat any

$_ZSt12__niter_baseIPjSt6vectorIjSaIjEEET_N9__gnu_cxx17__normal_iteratorIS4_T0_EE = comdat any

$_ZNK9__gnu_cxx17__normal_iteratorIPjSt6vectorIjSaIjEEEplEl = comdat any

$_ZN9__gnu_cxx17__normal_iteratorIPjSt6vectorIjSaIjEEEC2ERKS1_ = comdat any

$_ZNK9__gnu_cxx17__normal_iteratorIPjSt6vectorIjSaIjEEE4baseEv = comdat any

$_ZSt13__copy_move_aILb0EPjS0_ET1_T0_S2_S1_ = comdat any

$_ZSt12__miter_baseIPjET_S1_ = comdat any

$_ZSt14__copy_move_a1ILb0EPjS0_ET1_T0_S2_S1_ = comdat any

$_ZSt14__copy_move_a2ILb0EPjS0_ET1_T0_S2_S1_ = comdat any

$_ZSt18uninitialized_copyIPjS0_ET0_T_S2_S1_ = comdat any

$_ZNSt20__uninitialized_copyILb1EE13__uninit_copyIPjS2_EET0_T_S4_S3_ = comdat any

$_ZN6dealii12TableIndicesILi2EEC2Ejj = comdat any

$_ZN6dealii9TableBaseILi2ESt6vectorIdSaIdEEEC2ERKNS_12TableIndicesILi2EEE = comdat any

$_ZN6dealii5TableILi2ESt6vectorIdSaIdEEED0Ev = comdat any

$_ZN6dealii12TableIndicesILi2EEC2Ev = comdat any

$_ZN6dealii9TableBaseILi2ESt6vectorIdSaIdEEE6reinitERKNS_12TableIndicesILi2EEE = comdat any

$_ZNK6dealii9TableBaseILi2ESt6vectorIdSaIdEEE10n_elementsEv = comdat any

$_ZNSt6vectorIdSaIdEEC2Ev = comdat any

$_ZN6dealii9TableBaseILi2ESt6vectorIdSaIdEEE12reset_valuesEv = comdat any

$_ZNSt12_Vector_baseIdSaIdEEC2Ev = comdat any

$_ZNSt12_Vector_baseIdSaIdEE12_Vector_implC2Ev = comdat any

$_ZNSt12_Vector_baseIdSaIdEE17_Vector_impl_dataC2Ev = comdat any

$_ZSt6fill_nIPSt6vectorIdSaIdEEjS2_ET_S4_T0_RKT1_ = comdat any

$_ZSt10__fill_n_aIPSt6vectorIdSaIdEEjS2_ET_S4_T0_RKT1_St26random_access_iterator_tag = comdat any

$_ZSt17__size_to_integerj = comdat any

$_ZSt19__iterator_categoryIPSt6vectorIdSaIdEEENSt15iterator_traitsIT_E17iterator_categoryERKS5_ = comdat any

$_ZSt8__fill_aIPSt6vectorIdSaIdEES2_EvT_S4_RKT0_ = comdat any

$_ZSt9__fill_a1IPSt6vectorIdSaIdEES2_EN9__gnu_cxx11__enable_ifIXntsr11__is_scalarIT0_EE7__valueEvE6__typeET_S9_RKS6_ = comdat any

$_ZNSt6vectorIdSaIdEEaSERKS1_ = comdat any

$_ZNKSt6vectorIdSaIdEE8capacityEv = comdat any

$_ZNSt6vectorIdSaIdEE20_M_allocate_and_copyIN9__gnu_cxx17__normal_iteratorIPKdS1_EEEEPdmT_S9_ = comdat any

$_ZNKSt6vectorIdSaIdEE5beginEv = comdat any

$_ZNKSt6vectorIdSaIdEE3endEv = comdat any

$_ZSt8_DestroyIPddEvT_S1_RSaIT0_E = comdat any

$_ZNSt12_Vector_baseIdSaIdEE19_M_get_Tp_allocatorEv = comdat any

$_ZNSt12_Vector_baseIdSaIdEE13_M_deallocateEPdm = comdat any

$_ZSt8_DestroyIN9__gnu_cxx17__normal_iteratorIPdSt6vectorIdSaIdEEEEdEvT_S7_RSaIT0_E = comdat any

$_ZSt4copyIN9__gnu_cxx17__normal_iteratorIPKdSt6vectorIdSaIdEEEENS1_IPdS6_EEET0_T_SB_SA_ = comdat any

$_ZNSt6vectorIdSaIdEE5beginEv = comdat any

$_ZNSt6vectorIdSaIdEE3endEv = comdat any

$_ZSt4copyIPdS0_ET0_T_S2_S1_ = comdat any

$_ZSt22__uninitialized_copy_aIPdS0_dET0_T_S2_S1_RSaIT1_E = comdat any

$_ZNSt12_Vector_baseIdSaIdEE11_M_allocateEm = comdat any

$_ZSt22__uninitialized_copy_aIN9__gnu_cxx17__normal_iteratorIPKdSt6vectorIdSaIdEEEEPddET0_T_SA_S9_RSaIT1_E = comdat any

$_ZNSt16allocator_traitsISaIdEE8allocateERS0_m = comdat any

$_ZN9__gnu_cxx13new_allocatorIdE8allocateEmPKv = comdat any

$_ZNK9__gnu_cxx13new_allocatorIdE11_M_max_sizeEv = comdat any

$_ZSt18uninitialized_copyIN9__gnu_cxx17__normal_iteratorIPKdSt6vectorIdSaIdEEEEPdET0_T_SA_S9_ = comdat any

$_ZNSt20__uninitialized_copyILb1EE13__uninit_copyIN9__gnu_cxx17__normal_iteratorIPKdSt6vectorIdSaIdEEEEPdEET0_T_SC_SB_ = comdat any

$_ZSt4copyIN9__gnu_cxx17__normal_iteratorIPKdSt6vectorIdSaIdEEEEPdET0_T_SA_S9_ = comdat any

$_ZSt13__copy_move_aILb0EN9__gnu_cxx17__normal_iteratorIPKdSt6vectorIdSaIdEEEEPdET1_T0_SA_S9_ = comdat any

$_ZSt12__miter_baseIN9__gnu_cxx17__normal_iteratorIPKdSt6vectorIdSaIdEEEEET_S8_ = comdat any

$_ZSt12__niter_wrapIPdET_RKS1_S1_ = comdat any

$_ZSt14__copy_move_a1ILb0EPKdPdET1_T0_S4_S3_ = comdat any

$_ZSt12__niter_baseIPKdSt6vectorIdSaIdEEET_N9__gnu_cxx17__normal_iteratorIS5_T0_EE = comdat any

$_ZSt12__niter_baseIPdET_S1_ = comdat any

$_ZSt14__copy_move_a2ILb0EPKdPdET1_T0_S4_S3_ = comdat any

$_ZNSt11__copy_moveILb0ELb1ESt26random_access_iterator_tagE8__copy_mIdEEPT_PKS3_S6_S4_ = comdat any

$_ZNK9__gnu_cxx17__normal_iteratorIPKdSt6vectorIdSaIdEEE4baseEv = comdat any

$_ZN9__gnu_cxx17__normal_iteratorIPKdSt6vectorIdSaIdEEEC2ERKS2_ = comdat any

$_ZSt8_DestroyIPdEvT_S1_ = comdat any

$_ZNSt12_Destroy_auxILb1EE9__destroyIPdEEvT_S3_ = comdat any

$_ZNSt16allocator_traitsISaIdEE10deallocateERS0_Pdm = comdat any

$_ZN9__gnu_cxx13new_allocatorIdE10deallocateEPdm = comdat any

$_ZSt8_DestroyIN9__gnu_cxx17__normal_iteratorIPdSt6vectorIdSaIdEEEEEvT_S7_ = comdat any

$_ZNSt12_Destroy_auxILb1EE9__destroyIN9__gnu_cxx17__normal_iteratorIPdSt6vectorIdSaIdEEEEEEvT_S9_ = comdat any

$_ZSt13__copy_move_aILb0EN9__gnu_cxx17__normal_iteratorIPKdSt6vectorIdSaIdEEEENS1_IPdS6_EEET1_T0_SB_SA_ = comdat any

$_ZSt12__niter_wrapIN9__gnu_cxx17__normal_iteratorIPdSt6vectorIdSaIdEEEES2_ET_S7_T0_ = comdat any

$_ZSt12__niter_baseIPdSt6vectorIdSaIdEEET_N9__gnu_cxx17__normal_iteratorIS4_T0_EE = comdat any

$_ZNK9__gnu_cxx17__normal_iteratorIPdSt6vectorIdSaIdEEEplEl = comdat any

$_ZN9__gnu_cxx17__normal_iteratorIPdSt6vectorIdSaIdEEEC2ERKS1_ = comdat any

$_ZNK9__gnu_cxx17__normal_iteratorIPdSt6vectorIdSaIdEEE4baseEv = comdat any

$_ZSt13__copy_move_aILb0EPdS0_ET1_T0_S2_S1_ = comdat any

$_ZSt12__miter_baseIPdET_S1_ = comdat any

$_ZSt14__copy_move_a1ILb0EPdS0_ET1_T0_S2_S1_ = comdat any

$_ZSt14__copy_move_a2ILb0EPdS0_ET1_T0_S2_S1_ = comdat any

$_ZSt18uninitialized_copyIPdS0_ET0_T_S2_S1_ = comdat any

$_ZNSt20__uninitialized_copyILb1EE13__uninit_copyIPdS2_EET0_T_S4_S3_ = comdat any

$_ZNSt6vectorIdSaIdEE14_M_fill_insertEN9__gnu_cxx17__normal_iteratorIPdS1_EEmRKd = comdat any

$_ZNSt6vectorIdSaIdEE15_M_erase_at_endEPd = comdat any

$_ZNSt6vectorIdSaIdEE16_Temporary_valueC2IJRKdEEEPS1_DpOT_ = comdat any

$_ZNSt6vectorIdSaIdEE16_Temporary_value6_M_valEv = comdat any

$_ZN9__gnu_cxxmiIPdSt6vectorIdSaIdEEEENS_17__normal_iteratorIT_T0_E15difference_typeERKS8_SB_ = comdat any

$_ZSt22__uninitialized_move_aIPdS0_SaIdEET0_T_S3_S2_RT1_ = comdat any

$_ZSt13move_backwardIPdS0_ET0_T_S2_S1_ = comdat any

$_ZSt4fillIPddEvT_S1_RKT0_ = comdat any

$_ZSt24__uninitialized_fill_n_aIPdmddET_S1_T0_RKT1_RSaIT2_E = comdat any

$_ZNSt6vectorIdSaIdEE16_Temporary_valueD2Ev = comdat any

$_ZNKSt6vectorIdSaIdEE12_M_check_lenEmPKc = comdat any

$_ZSt34__uninitialized_move_if_noexcept_aIPdS0_SaIdEET0_T_S3_S2_RT1_ = comdat any

$_ZNSt16allocator_traitsISaIdEE9constructIdJRKdEEEvRS0_PT_DpOT0_ = comdat any

$_ZNSt6vectorIdSaIdEE16_Temporary_value6_M_ptrEv = comdat any

$_ZSt7forwardIRKdEOT_RNSt16remove_referenceIS2_E4typeE = comdat any

$_ZN9__gnu_cxx13new_allocatorIdE9constructIdJRKdEEEvPT_DpOT0_ = comdat any

$_ZSt22__uninitialized_copy_aISt13move_iteratorIPdES1_dET0_T_S4_S3_RSaIT1_E = comdat any

$_ZSt18make_move_iteratorIPdESt13move_iteratorIT_ES2_ = comdat any

$_ZSt18uninitialized_copyISt13move_iteratorIPdES1_ET0_T_S4_S3_ = comdat any

$_ZNSt20__uninitialized_copyILb1EE13__uninit_copyISt13move_iteratorIPdES3_EET0_T_S6_S5_ = comdat any

$_ZSt4copyISt13move_iteratorIPdES1_ET0_T_S4_S3_ = comdat any

$_ZSt13__copy_move_aILb1EPdS0_ET1_T0_S2_S1_ = comdat any

$_ZSt12__miter_baseIPdEDTcl12__miter_basecldtfp_4baseEEESt13move_iteratorIT_E = comdat any

$_ZSt14__copy_move_a1ILb1EPdS0_ET1_T0_S2_S1_ = comdat any

$_ZSt14__copy_move_a2ILb1EPdS0_ET1_T0_S2_S1_ = comdat any

$_ZNSt11__copy_moveILb1ELb1ESt26random_access_iterator_tagE8__copy_mIdEEPT_PKS3_S6_S4_ = comdat any

$_ZNKSt13move_iteratorIPdE4baseEv = comdat any

$_ZSt4moveIRPdEONSt16remove_referenceIT_E4typeEOS3_ = comdat any

$_ZNSt13move_iteratorIPdEC2ES0_ = comdat any

$_ZSt22__copy_move_backward_aILb1EPdS0_ET1_T0_S2_S1_ = comdat any

$_ZSt23__copy_move_backward_a1ILb1EPdS0_ET1_T0_S2_S1_ = comdat any

$_ZSt23__copy_move_backward_a2ILb1EPdS0_ET1_T0_S2_S1_ = comdat any

$_ZNSt20__copy_move_backwardILb1ELb1ESt26random_access_iterator_tagE13__copy_move_bIdEEPT_PKS3_S6_S4_ = comdat any

$_ZSt8__fill_aIPddEvT_S1_RKT0_ = comdat any

$_ZSt9__fill_a1IPddEN9__gnu_cxx11__enable_ifIXsr11__is_scalarIT0_EE7__valueEvE6__typeET_S6_RKS3_ = comdat any

$_ZSt20uninitialized_fill_nIPdmdET_S1_T0_RKT1_ = comdat any

$_ZNSt22__uninitialized_fill_nILb1EE15__uninit_fill_nIPdmdEET_S3_T0_RKT1_ = comdat any

$_ZSt6fill_nIPdmdET_S1_T0_RKT1_ = comdat any

$_ZSt10__fill_n_aIPdmdET_S1_T0_RKT1_St26random_access_iterator_tag = comdat any

$_ZSt17__size_to_integerm = comdat any

$_ZSt19__iterator_categoryIPdENSt15iterator_traitsIT_E17iterator_categoryERKS2_ = comdat any

$_ZNSt16allocator_traitsISaIdEE7destroyIdEEvRS0_PT_ = comdat any

$_ZN9__gnu_cxx13new_allocatorIdE7destroyIdEEvPT_ = comdat any

$_ZNKSt6vectorIdSaIdEE8max_sizeEv = comdat any

$_ZSt3maxImERKT_S2_S2_ = comdat any

$_ZNSt6vectorIdSaIdEE11_S_max_sizeERKS0_ = comdat any

$_ZNKSt12_Vector_baseIdSaIdEE19_M_get_Tp_allocatorEv = comdat any

$_ZNSt16allocator_traitsISaIdEE8max_sizeERKS0_ = comdat any

$_ZSt3minImERKT_S2_S2_ = comdat any

$_ZNK9__gnu_cxx13new_allocatorIdE8max_sizeEv = comdat any

$_ZSt32__make_move_if_noexcept_iteratorIdSt13move_iteratorIPdEET0_PT_ = comdat any

$_ZNK6dealii5TableILi2ESt6vectorIdSaIdEEE6n_colsEv = comdat any

$_ZN6dealii8internal18TableBaseAccessors8AccessorILi2ESt6vectorIdSaIdEELb0ELj1EEC2ERKNS_9TableBaseILi2ES5_EEPS5_ = comdat any

$_ZNSt6vectorIdSaIdEE17_S_check_init_lenEmRKS0_ = comdat any

$_ZNSt12_Vector_baseIdSaIdEEC2EmRKS0_ = comdat any

$_ZNSt6vectorIdSaIdEE21_M_default_initializeEm = comdat any

$_ZNSt12_Vector_baseIdSaIdEED2Ev = comdat any

$_ZNSaIdEC2ERKS_ = comdat any

$_ZN9__gnu_cxx13new_allocatorIdEC2ERKS1_ = comdat any

$_ZNSt12_Vector_baseIdSaIdEE12_Vector_implC2ERKS0_ = comdat any

$_ZNSt12_Vector_baseIdSaIdEE17_M_create_storageEm = comdat any

$_ZNSt12_Vector_baseIdSaIdEE12_Vector_implD2Ev = comdat any

$_ZSt27__uninitialized_default_n_aIPdmdET_S1_T0_RSaIT1_E = comdat any

$_ZSt25__uninitialized_default_nIPdmET_S1_T0_ = comdat any

$_ZNSt27__uninitialized_default_n_1ILb1EE18__uninit_default_nIPdmEET_S3_T0_ = comdat any

$_ZTVN6dealii9TableBaseILi2ESt6vectorIdSaIdEEEE = comdat any

$_ZTSN6dealii9TableBaseILi2ESt6vectorIdSaIdEEEE = comdat any

$_ZTIN6dealii9TableBaseILi2ESt6vectorIdSaIdEEEE = comdat any

$_ZTVN6dealii5TableILi2ESt6vectorIdSaIdEEEE = comdat any

$_ZTSN6dealii5TableILi2ESt6vectorIdSaIdEEEE = comdat any

$_ZTIN6dealii5TableILi2ESt6vectorIdSaIdEEEE = comdat any

@_ZTVN6dealii9TableBaseILi2ESt6vectorIdSaIdEEEE = linkonce_odr dso_local unnamed_addr constant { [4 x i8*] } { [4 x i8*] [i8* null, i8* bitcast ({ i8*, i8*, i8* }* @_ZTIN6dealii9TableBaseILi2ESt6vectorIdSaIdEEEE to i8*), i8* bitcast (void (%"class.dealii::TableBase"*)* @_ZN6dealii9TableBaseILi2ESt6vectorIdSaIdEEED2Ev to i8*), i8* bitcast (void (%"class.dealii::TableBase"*)* @_ZN6dealii9TableBaseILi2ESt6vectorIdSaIdEEED0Ev to i8*)] }, comdat, align 8
@_ZTVN10__cxxabiv120__si_class_type_infoE = external dso_local global i8*
@_ZTSN6dealii9TableBaseILi2ESt6vectorIdSaIdEEEE = linkonce_odr dso_local constant [43 x i8] c"N6dealii9TableBaseILi2ESt6vectorIdSaIdEEEE\00", comdat, align 1
@_ZTIN6dealii11SubscriptorE = external dso_local constant i8*
@_ZTIN6dealii9TableBaseILi2ESt6vectorIdSaIdEEEE = linkonce_odr dso_local constant { i8*, i8*, i8* } { i8* bitcast (i8** getelementptr inbounds (i8*, i8** @_ZTVN10__cxxabiv120__si_class_type_infoE, i64 2) to i8*), i8* getelementptr inbounds ([43 x i8], [43 x i8]* @_ZTSN6dealii9TableBaseILi2ESt6vectorIdSaIdEEEE, i32 0, i32 0), i8* bitcast (i8** @_ZTIN6dealii11SubscriptorE to i8*) }, comdat, align 8
@_ZTVN6dealii5TableILi2ESt6vectorIdSaIdEEEE = linkonce_odr dso_local unnamed_addr constant { [4 x i8*] } { [4 x i8*] [i8* null, i8* bitcast ({ i8*, i8*, i8* }* @_ZTIN6dealii5TableILi2ESt6vectorIdSaIdEEEE to i8*), i8* bitcast (void (%"class.dealii::Table"*)* @_ZN6dealii5TableILi2ESt6vectorIdSaIdEEED2Ev to i8*), i8* bitcast (void (%"class.dealii::Table"*)* @_ZN6dealii5TableILi2ESt6vectorIdSaIdEEED0Ev to i8*)] }, comdat, align 8
@_ZTSN6dealii5TableILi2ESt6vectorIdSaIdEEEE = linkonce_odr dso_local constant [39 x i8] c"N6dealii5TableILi2ESt6vectorIdSaIdEEEE\00", comdat, align 1
@_ZTIN6dealii5TableILi2ESt6vectorIdSaIdEEEE = linkonce_odr dso_local constant { i8*, i8*, i8* } { i8* bitcast (i8** getelementptr inbounds (i8*, i8** @_ZTVN10__cxxabiv120__si_class_type_infoE, i64 2) to i8*), i8* getelementptr inbounds ([39 x i8], [39 x i8]* @_ZTSN6dealii5TableILi2ESt6vectorIdSaIdEEEE, i32 0, i32 0), i8* bitcast ({ i8*, i8*, i8* }* @_ZTIN6dealii9TableBaseILi2ESt6vectorIdSaIdEEEE to i8*) }, comdat, align 8
@.str = private unnamed_addr constant [23 x i8] c"vector::_M_fill_insert\00", align 1
@.str.1 = private unnamed_addr constant [49 x i8] c"cannot create std::vector larger than max_size()\00", align 1

; Function Attrs: noinline uwtable
define weak_odr dso_local void @_ZN6dealii15PolynomialSpaceILi1EE13set_numberingERKSt6vectorIjSaIjEE(%"class.dealii::PolynomialSpace"* %this, %"class.std::vector.8"* dereferenceable(24) %renumber) #0 comdat align 2 !dbg !6063 {
entry:
  %this.addr = alloca %"class.dealii::PolynomialSpace"*, align 8
  %renumber.addr = alloca %"class.std::vector.8"*, align 8
  %i = alloca i32, align 4
  store %"class.dealii::PolynomialSpace"* %this, %"class.dealii::PolynomialSpace"** %this.addr, align 8
  call void @llvm.dbg.declare(metadata %"class.dealii::PolynomialSpace"** %this.addr, metadata !6064, metadata !DIExpression()), !dbg !6066
  store %"class.std::vector.8"* %renumber, %"class.std::vector.8"** %renumber.addr, align 8
  call void @llvm.dbg.declare(metadata %"class.std::vector.8"** %renumber.addr, metadata !6067, metadata !DIExpression()), !dbg !6068
  %this1 = load %"class.dealii::PolynomialSpace"*, %"class.dealii::PolynomialSpace"** %this.addr, align 8
  %0 = load %"class.std::vector.8"*, %"class.std::vector.8"** %renumber.addr, align 8, !dbg !6069
  %index_map = getelementptr inbounds %"class.dealii::PolynomialSpace", %"class.dealii::PolynomialSpace"* %this1, i32 0, i32 2, !dbg !6070
  %call = call dereferenceable(24) %"class.std::vector.8"* @_ZNSt6vectorIjSaIjEEaSERKS1_(%"class.std::vector.8"* %index_map, %"class.std::vector.8"* dereferenceable(24) %0), !dbg !6071
  call void @llvm.dbg.declare(metadata i32* %i, metadata !6072, metadata !DIExpression()), !dbg !6074
  store i32 0, i32* %i, align 4, !dbg !6074
  br label %for.cond, !dbg !6075

for.cond:                                         ; preds = %for.inc, %entry
  %1 = load i32, i32* %i, align 4, !dbg !6076
  %conv = zext i32 %1 to i64, !dbg !6076
  %index_map2 = getelementptr inbounds %"class.dealii::PolynomialSpace", %"class.dealii::PolynomialSpace"* %this1, i32 0, i32 2, !dbg !6078
  %call3 = call i64 @_ZNKSt6vectorIjSaIjEE4sizeEv(%"class.std::vector.8"* %index_map2) #11, !dbg !6079
  %cmp = icmp ult i64 %conv, %call3, !dbg !6080
  br i1 %cmp, label %for.body, label %for.end, !dbg !6081

for.body:                                         ; preds = %for.cond
  %2 = load i32, i32* %i, align 4, !dbg !6082
  %index_map_inverse = getelementptr inbounds %"class.dealii::PolynomialSpace", %"class.dealii::PolynomialSpace"* %this1, i32 0, i32 3, !dbg !6083
  %index_map4 = getelementptr inbounds %"class.dealii::PolynomialSpace", %"class.dealii::PolynomialSpace"* %this1, i32 0, i32 2, !dbg !6084
  %3 = load i32, i32* %i, align 4, !dbg !6085
  %conv5 = zext i32 %3 to i64, !dbg !6085
  %call6 = call dereferenceable(4) i32* @_ZNSt6vectorIjSaIjEEixEm(%"class.std::vector.8"* %index_map4, i64 %conv5) #11, !dbg !6084
  %4 = load i32, i32* %call6, align 4, !dbg !6084
  %conv7 = zext i32 %4 to i64, !dbg !6084
  %call8 = call dereferenceable(4) i32* @_ZNSt6vectorIjSaIjEEixEm(%"class.std::vector.8"* %index_map_inverse, i64 %conv7) #11, !dbg !6083
  store i32 %2, i32* %call8, align 4, !dbg !6086
  br label %for.inc, !dbg !6083

for.inc:                                          ; preds = %for.body
  %5 = load i32, i32* %i, align 4, !dbg !6087
  %inc = add i32 %5, 1, !dbg !6087
  store i32 %inc, i32* %i, align 4, !dbg !6087
  br label %for.cond, !dbg !6088, !llvm.loop !6089

for.end:                                          ; preds = %for.cond
  ret void, !dbg !6091
}

; Function Attrs: nounwind readnone speculatable willreturn
declare void @llvm.dbg.declare(metadata, metadata, metadata) #1

; Function Attrs: noinline uwtable
define linkonce_odr dso_local dereferenceable(24) %"class.std::vector.8"* @_ZNSt6vectorIjSaIjEEaSERKS1_(%"class.std::vector.8"* %this, %"class.std::vector.8"* dereferenceable(24) %__x) #0 comdat align 2 !dbg !6092 {
entry:
  %this.addr = alloca %"class.std::vector.8"*, align 8
  %__x.addr = alloca %"class.std::vector.8"*, align 8
  %__xlen = alloca i64, align 8
  %__tmp = alloca i32*, align 8
  %agg.tmp = alloca %"class.__gnu_cxx::__normal_iterator", align 8
  %agg.tmp6 = alloca %"class.__gnu_cxx::__normal_iterator", align 8
  %agg.tmp28 = alloca %"class.__gnu_cxx::__normal_iterator.52", align 8
  %agg.tmp29 = alloca %"class.__gnu_cxx::__normal_iterator", align 8
  %agg.tmp32 = alloca %"class.__gnu_cxx::__normal_iterator", align 8
  %agg.tmp35 = alloca %"class.__gnu_cxx::__normal_iterator.52", align 8
  %agg.tmp43 = alloca %"class.__gnu_cxx::__normal_iterator.52", align 8
  store %"class.std::vector.8"* %this, %"class.std::vector.8"** %this.addr, align 8
  call void @llvm.dbg.declare(metadata %"class.std::vector.8"** %this.addr, metadata !6094, metadata !DIExpression()), !dbg !6096
  store %"class.std::vector.8"* %__x, %"class.std::vector.8"** %__x.addr, align 8
  call void @llvm.dbg.declare(metadata %"class.std::vector.8"** %__x.addr, metadata !6097, metadata !DIExpression()), !dbg !6098
  %this1 = load %"class.std::vector.8"*, %"class.std::vector.8"** %this.addr, align 8
  %0 = load %"class.std::vector.8"*, %"class.std::vector.8"** %__x.addr, align 8, !dbg !6099
  %cmp = icmp ne %"class.std::vector.8"* %0, %this1, !dbg !6101
  br i1 %cmp, label %if.then, label %if.end75, !dbg !6102

if.then:                                          ; preds = %entry
  call void @llvm.dbg.declare(metadata i64* %__xlen, metadata !6103, metadata !DIExpression()), !dbg !6106
  %1 = load %"class.std::vector.8"*, %"class.std::vector.8"** %__x.addr, align 8, !dbg !6107
  %call = call i64 @_ZNKSt6vectorIjSaIjEE4sizeEv(%"class.std::vector.8"* %1) #11, !dbg !6108
  store i64 %call, i64* %__xlen, align 8, !dbg !6106
  %2 = load i64, i64* %__xlen, align 8, !dbg !6109
  %call2 = call i64 @_ZNKSt6vectorIjSaIjEE8capacityEv(%"class.std::vector.8"* %this1) #11, !dbg !6111
  %cmp3 = icmp ugt i64 %2, %call2, !dbg !6112
  br i1 %cmp3, label %if.then4, label %if.else, !dbg !6113

if.then4:                                         ; preds = %if.then
  call void @llvm.dbg.declare(metadata i32** %__tmp, metadata !6114, metadata !DIExpression()), !dbg !6116
  %3 = load i64, i64* %__xlen, align 8, !dbg !6117
  %4 = load %"class.std::vector.8"*, %"class.std::vector.8"** %__x.addr, align 8, !dbg !6118
  %call5 = call i32* @_ZNKSt6vectorIjSaIjEE5beginEv(%"class.std::vector.8"* %4) #11, !dbg !6119
  %coerce.dive = getelementptr inbounds %"class.__gnu_cxx::__normal_iterator", %"class.__gnu_cxx::__normal_iterator"* %agg.tmp, i32 0, i32 0, !dbg !6119
  store i32* %call5, i32** %coerce.dive, align 8, !dbg !6119
  %5 = load %"class.std::vector.8"*, %"class.std::vector.8"** %__x.addr, align 8, !dbg !6120
  %call7 = call i32* @_ZNKSt6vectorIjSaIjEE3endEv(%"class.std::vector.8"* %5) #11, !dbg !6121
  %coerce.dive8 = getelementptr inbounds %"class.__gnu_cxx::__normal_iterator", %"class.__gnu_cxx::__normal_iterator"* %agg.tmp6, i32 0, i32 0, !dbg !6121
  store i32* %call7, i32** %coerce.dive8, align 8, !dbg !6121
  %coerce.dive9 = getelementptr inbounds %"class.__gnu_cxx::__normal_iterator", %"class.__gnu_cxx::__normal_iterator"* %agg.tmp, i32 0, i32 0, !dbg !6122
  %6 = load i32*, i32** %coerce.dive9, align 8, !dbg !6122
  %coerce.dive10 = getelementptr inbounds %"class.__gnu_cxx::__normal_iterator", %"class.__gnu_cxx::__normal_iterator"* %agg.tmp6, i32 0, i32 0, !dbg !6122
  %7 = load i32*, i32** %coerce.dive10, align 8, !dbg !6122
  %call11 = call i32* @_ZNSt6vectorIjSaIjEE20_M_allocate_and_copyIN9__gnu_cxx17__normal_iteratorIPKjS1_EEEEPjmT_S9_(%"class.std::vector.8"* %this1, i64 %3, i32* %6, i32* %7), !dbg !6122
  store i32* %call11, i32** %__tmp, align 8, !dbg !6116
  %8 = bitcast %"class.std::vector.8"* %this1 to %"struct.std::_Vector_base.9"*, !dbg !6123
  %_M_impl = getelementptr inbounds %"struct.std::_Vector_base.9", %"struct.std::_Vector_base.9"* %8, i32 0, i32 0, !dbg !6123
  %9 = bitcast %"struct.std::_Vector_base<unsigned int, std::allocator<unsigned int> >::_Vector_impl"* %_M_impl to %"struct.std::_Vector_base<unsigned int, std::allocator<unsigned int> >::_Vector_impl_data"*, !dbg !6124
  %_M_start = getelementptr inbounds %"struct.std::_Vector_base<unsigned int, std::allocator<unsigned int> >::_Vector_impl_data", %"struct.std::_Vector_base<unsigned int, std::allocator<unsigned int> >::_Vector_impl_data"* %9, i32 0, i32 0, !dbg !6125
  %10 = load i32*, i32** %_M_start, align 8, !dbg !6125
  %11 = bitcast %"class.std::vector.8"* %this1 to %"struct.std::_Vector_base.9"*, !dbg !6126
  %_M_impl12 = getelementptr inbounds %"struct.std::_Vector_base.9", %"struct.std::_Vector_base.9"* %11, i32 0, i32 0, !dbg !6126
  %12 = bitcast %"struct.std::_Vector_base<unsigned int, std::allocator<unsigned int> >::_Vector_impl"* %_M_impl12 to %"struct.std::_Vector_base<unsigned int, std::allocator<unsigned int> >::_Vector_impl_data"*, !dbg !6127
  %_M_finish = getelementptr inbounds %"struct.std::_Vector_base<unsigned int, std::allocator<unsigned int> >::_Vector_impl_data", %"struct.std::_Vector_base<unsigned int, std::allocator<unsigned int> >::_Vector_impl_data"* %12, i32 0, i32 1, !dbg !6128
  %13 = load i32*, i32** %_M_finish, align 8, !dbg !6128
  %14 = bitcast %"class.std::vector.8"* %this1 to %"struct.std::_Vector_base.9"*, !dbg !6129
  %call13 = call dereferenceable(1) %"class.std::allocator.10"* @_ZNSt12_Vector_baseIjSaIjEE19_M_get_Tp_allocatorEv(%"struct.std::_Vector_base.9"* %14) #11, !dbg !6129
  call void @_ZSt8_DestroyIPjjEvT_S1_RSaIT0_E(i32* %10, i32* %13, %"class.std::allocator.10"* dereferenceable(1) %call13), !dbg !6130
  %15 = bitcast %"class.std::vector.8"* %this1 to %"struct.std::_Vector_base.9"*, !dbg !6131
  %16 = bitcast %"class.std::vector.8"* %this1 to %"struct.std::_Vector_base.9"*, !dbg !6132
  %_M_impl14 = getelementptr inbounds %"struct.std::_Vector_base.9", %"struct.std::_Vector_base.9"* %16, i32 0, i32 0, !dbg !6132
  %17 = bitcast %"struct.std::_Vector_base<unsigned int, std::allocator<unsigned int> >::_Vector_impl"* %_M_impl14 to %"struct.std::_Vector_base<unsigned int, std::allocator<unsigned int> >::_Vector_impl_data"*, !dbg !6133
  %_M_start15 = getelementptr inbounds %"struct.std::_Vector_base<unsigned int, std::allocator<unsigned int> >::_Vector_impl_data", %"struct.std::_Vector_base<unsigned int, std::allocator<unsigned int> >::_Vector_impl_data"* %17, i32 0, i32 0, !dbg !6134
  %18 = load i32*, i32** %_M_start15, align 8, !dbg !6134
  %19 = bitcast %"class.std::vector.8"* %this1 to %"struct.std::_Vector_base.9"*, !dbg !6135
  %_M_impl16 = getelementptr inbounds %"struct.std::_Vector_base.9", %"struct.std::_Vector_base.9"* %19, i32 0, i32 0, !dbg !6135
  %20 = bitcast %"struct.std::_Vector_base<unsigned int, std::allocator<unsigned int> >::_Vector_impl"* %_M_impl16 to %"struct.std::_Vector_base<unsigned int, std::allocator<unsigned int> >::_Vector_impl_data"*, !dbg !6136
  %_M_end_of_storage = getelementptr inbounds %"struct.std::_Vector_base<unsigned int, std::allocator<unsigned int> >::_Vector_impl_data", %"struct.std::_Vector_base<unsigned int, std::allocator<unsigned int> >::_Vector_impl_data"* %20, i32 0, i32 2, !dbg !6137
  %21 = load i32*, i32** %_M_end_of_storage, align 8, !dbg !6137
  %22 = bitcast %"class.std::vector.8"* %this1 to %"struct.std::_Vector_base.9"*, !dbg !6138
  %_M_impl17 = getelementptr inbounds %"struct.std::_Vector_base.9", %"struct.std::_Vector_base.9"* %22, i32 0, i32 0, !dbg !6138
  %23 = bitcast %"struct.std::_Vector_base<unsigned int, std::allocator<unsigned int> >::_Vector_impl"* %_M_impl17 to %"struct.std::_Vector_base<unsigned int, std::allocator<unsigned int> >::_Vector_impl_data"*, !dbg !6139
  %_M_start18 = getelementptr inbounds %"struct.std::_Vector_base<unsigned int, std::allocator<unsigned int> >::_Vector_impl_data", %"struct.std::_Vector_base<unsigned int, std::allocator<unsigned int> >::_Vector_impl_data"* %23, i32 0, i32 0, !dbg !6140
  %24 = load i32*, i32** %_M_start18, align 8, !dbg !6140
  %sub.ptr.lhs.cast = ptrtoint i32* %21 to i64, !dbg !6141
  %sub.ptr.rhs.cast = ptrtoint i32* %24 to i64, !dbg !6141
  %sub.ptr.sub = sub i64 %sub.ptr.lhs.cast, %sub.ptr.rhs.cast, !dbg !6141
  %sub.ptr.div = sdiv exact i64 %sub.ptr.sub, 4, !dbg !6141
  call void @_ZNSt12_Vector_baseIjSaIjEE13_M_deallocateEPjm(%"struct.std::_Vector_base.9"* %15, i32* %18, i64 %sub.ptr.div), !dbg !6131
  %25 = load i32*, i32** %__tmp, align 8, !dbg !6142
  %26 = bitcast %"class.std::vector.8"* %this1 to %"struct.std::_Vector_base.9"*, !dbg !6143
  %_M_impl19 = getelementptr inbounds %"struct.std::_Vector_base.9", %"struct.std::_Vector_base.9"* %26, i32 0, i32 0, !dbg !6143
  %27 = bitcast %"struct.std::_Vector_base<unsigned int, std::allocator<unsigned int> >::_Vector_impl"* %_M_impl19 to %"struct.std::_Vector_base<unsigned int, std::allocator<unsigned int> >::_Vector_impl_data"*, !dbg !6144
  %_M_start20 = getelementptr inbounds %"struct.std::_Vector_base<unsigned int, std::allocator<unsigned int> >::_Vector_impl_data", %"struct.std::_Vector_base<unsigned int, std::allocator<unsigned int> >::_Vector_impl_data"* %27, i32 0, i32 0, !dbg !6145
  store i32* %25, i32** %_M_start20, align 8, !dbg !6146
  %28 = bitcast %"class.std::vector.8"* %this1 to %"struct.std::_Vector_base.9"*, !dbg !6147
  %_M_impl21 = getelementptr inbounds %"struct.std::_Vector_base.9", %"struct.std::_Vector_base.9"* %28, i32 0, i32 0, !dbg !6147
  %29 = bitcast %"struct.std::_Vector_base<unsigned int, std::allocator<unsigned int> >::_Vector_impl"* %_M_impl21 to %"struct.std::_Vector_base<unsigned int, std::allocator<unsigned int> >::_Vector_impl_data"*, !dbg !6148
  %_M_start22 = getelementptr inbounds %"struct.std::_Vector_base<unsigned int, std::allocator<unsigned int> >::_Vector_impl_data", %"struct.std::_Vector_base<unsigned int, std::allocator<unsigned int> >::_Vector_impl_data"* %29, i32 0, i32 0, !dbg !6149
  %30 = load i32*, i32** %_M_start22, align 8, !dbg !6149
  %31 = load i64, i64* %__xlen, align 8, !dbg !6150
  %add.ptr = getelementptr inbounds i32, i32* %30, i64 %31, !dbg !6151
  %32 = bitcast %"class.std::vector.8"* %this1 to %"struct.std::_Vector_base.9"*, !dbg !6152
  %_M_impl23 = getelementptr inbounds %"struct.std::_Vector_base.9", %"struct.std::_Vector_base.9"* %32, i32 0, i32 0, !dbg !6152
  %33 = bitcast %"struct.std::_Vector_base<unsigned int, std::allocator<unsigned int> >::_Vector_impl"* %_M_impl23 to %"struct.std::_Vector_base<unsigned int, std::allocator<unsigned int> >::_Vector_impl_data"*, !dbg !6153
  %_M_end_of_storage24 = getelementptr inbounds %"struct.std::_Vector_base<unsigned int, std::allocator<unsigned int> >::_Vector_impl_data", %"struct.std::_Vector_base<unsigned int, std::allocator<unsigned int> >::_Vector_impl_data"* %33, i32 0, i32 2, !dbg !6154
  store i32* %add.ptr, i32** %_M_end_of_storage24, align 8, !dbg !6155
  br label %if.end69, !dbg !6156

if.else:                                          ; preds = %if.then
  %call25 = call i64 @_ZNKSt6vectorIjSaIjEE4sizeEv(%"class.std::vector.8"* %this1) #11, !dbg !6157
  %34 = load i64, i64* %__xlen, align 8, !dbg !6159
  %cmp26 = icmp uge i64 %call25, %34, !dbg !6160
  br i1 %cmp26, label %if.then27, label %if.else49, !dbg !6161

if.then27:                                        ; preds = %if.else
  %35 = load %"class.std::vector.8"*, %"class.std::vector.8"** %__x.addr, align 8, !dbg !6162
  %call30 = call i32* @_ZNKSt6vectorIjSaIjEE5beginEv(%"class.std::vector.8"* %35) #11, !dbg !6164
  %coerce.dive31 = getelementptr inbounds %"class.__gnu_cxx::__normal_iterator", %"class.__gnu_cxx::__normal_iterator"* %agg.tmp29, i32 0, i32 0, !dbg !6164
  store i32* %call30, i32** %coerce.dive31, align 8, !dbg !6164
  %36 = load %"class.std::vector.8"*, %"class.std::vector.8"** %__x.addr, align 8, !dbg !6165
  %call33 = call i32* @_ZNKSt6vectorIjSaIjEE3endEv(%"class.std::vector.8"* %36) #11, !dbg !6166
  %coerce.dive34 = getelementptr inbounds %"class.__gnu_cxx::__normal_iterator", %"class.__gnu_cxx::__normal_iterator"* %agg.tmp32, i32 0, i32 0, !dbg !6166
  store i32* %call33, i32** %coerce.dive34, align 8, !dbg !6166
  %call36 = call i32* @_ZNSt6vectorIjSaIjEE5beginEv(%"class.std::vector.8"* %this1) #11, !dbg !6167
  %coerce.dive37 = getelementptr inbounds %"class.__gnu_cxx::__normal_iterator.52", %"class.__gnu_cxx::__normal_iterator.52"* %agg.tmp35, i32 0, i32 0, !dbg !6167
  store i32* %call36, i32** %coerce.dive37, align 8, !dbg !6167
  %coerce.dive38 = getelementptr inbounds %"class.__gnu_cxx::__normal_iterator", %"class.__gnu_cxx::__normal_iterator"* %agg.tmp29, i32 0, i32 0, !dbg !6168
  %37 = load i32*, i32** %coerce.dive38, align 8, !dbg !6168
  %coerce.dive39 = getelementptr inbounds %"class.__gnu_cxx::__normal_iterator", %"class.__gnu_cxx::__normal_iterator"* %agg.tmp32, i32 0, i32 0, !dbg !6168
  %38 = load i32*, i32** %coerce.dive39, align 8, !dbg !6168
  %coerce.dive40 = getelementptr inbounds %"class.__gnu_cxx::__normal_iterator.52", %"class.__gnu_cxx::__normal_iterator.52"* %agg.tmp35, i32 0, i32 0, !dbg !6168
  %39 = load i32*, i32** %coerce.dive40, align 8, !dbg !6168
  %call41 = call i32* @_ZSt4copyIN9__gnu_cxx17__normal_iteratorIPKjSt6vectorIjSaIjEEEENS1_IPjS6_EEET0_T_SB_SA_(i32* %37, i32* %38, i32* %39), !dbg !6168
  %coerce.dive42 = getelementptr inbounds %"class.__gnu_cxx::__normal_iterator.52", %"class.__gnu_cxx::__normal_iterator.52"* %agg.tmp28, i32 0, i32 0, !dbg !6168
  store i32* %call41, i32** %coerce.dive42, align 8, !dbg !6168
  %call44 = call i32* @_ZNSt6vectorIjSaIjEE3endEv(%"class.std::vector.8"* %this1) #11, !dbg !6169
  %coerce.dive45 = getelementptr inbounds %"class.__gnu_cxx::__normal_iterator.52", %"class.__gnu_cxx::__normal_iterator.52"* %agg.tmp43, i32 0, i32 0, !dbg !6169
  store i32* %call44, i32** %coerce.dive45, align 8, !dbg !6169
  %40 = bitcast %"class.std::vector.8"* %this1 to %"struct.std::_Vector_base.9"*, !dbg !6170
  %call46 = call dereferenceable(1) %"class.std::allocator.10"* @_ZNSt12_Vector_baseIjSaIjEE19_M_get_Tp_allocatorEv(%"struct.std::_Vector_base.9"* %40) #11, !dbg !6170
  %coerce.dive47 = getelementptr inbounds %"class.__gnu_cxx::__normal_iterator.52", %"class.__gnu_cxx::__normal_iterator.52"* %agg.tmp28, i32 0, i32 0, !dbg !6171
  %41 = load i32*, i32** %coerce.dive47, align 8, !dbg !6171
  %coerce.dive48 = getelementptr inbounds %"class.__gnu_cxx::__normal_iterator.52", %"class.__gnu_cxx::__normal_iterator.52"* %agg.tmp43, i32 0, i32 0, !dbg !6171
  %42 = load i32*, i32** %coerce.dive48, align 8, !dbg !6171
  call void @_ZSt8_DestroyIN9__gnu_cxx17__normal_iteratorIPjSt6vectorIjSaIjEEEEjEvT_S7_RSaIT0_E(i32* %41, i32* %42, %"class.std::allocator.10"* dereferenceable(1) %call46), !dbg !6171
  br label %if.end, !dbg !6172

if.else49:                                        ; preds = %if.else
  %43 = load %"class.std::vector.8"*, %"class.std::vector.8"** %__x.addr, align 8, !dbg !6173
  %44 = bitcast %"class.std::vector.8"* %43 to %"struct.std::_Vector_base.9"*, !dbg !6173
  %_M_impl50 = getelementptr inbounds %"struct.std::_Vector_base.9", %"struct.std::_Vector_base.9"* %44, i32 0, i32 0, !dbg !6175
  %45 = bitcast %"struct.std::_Vector_base<unsigned int, std::allocator<unsigned int> >::_Vector_impl"* %_M_impl50 to %"struct.std::_Vector_base<unsigned int, std::allocator<unsigned int> >::_Vector_impl_data"*, !dbg !6173
  %_M_start51 = getelementptr inbounds %"struct.std::_Vector_base<unsigned int, std::allocator<unsigned int> >::_Vector_impl_data", %"struct.std::_Vector_base<unsigned int, std::allocator<unsigned int> >::_Vector_impl_data"* %45, i32 0, i32 0, !dbg !6176
  %46 = load i32*, i32** %_M_start51, align 8, !dbg !6176
  %47 = load %"class.std::vector.8"*, %"class.std::vector.8"** %__x.addr, align 8, !dbg !6177
  %48 = bitcast %"class.std::vector.8"* %47 to %"struct.std::_Vector_base.9"*, !dbg !6177
  %_M_impl52 = getelementptr inbounds %"struct.std::_Vector_base.9", %"struct.std::_Vector_base.9"* %48, i32 0, i32 0, !dbg !6178
  %49 = bitcast %"struct.std::_Vector_base<unsigned int, std::allocator<unsigned int> >::_Vector_impl"* %_M_impl52 to %"struct.std::_Vector_base<unsigned int, std::allocator<unsigned int> >::_Vector_impl_data"*, !dbg !6177
  %_M_start53 = getelementptr inbounds %"struct.std::_Vector_base<unsigned int, std::allocator<unsigned int> >::_Vector_impl_data", %"struct.std::_Vector_base<unsigned int, std::allocator<unsigned int> >::_Vector_impl_data"* %49, i32 0, i32 0, !dbg !6179
  %50 = load i32*, i32** %_M_start53, align 8, !dbg !6179
  %call54 = call i64 @_ZNKSt6vectorIjSaIjEE4sizeEv(%"class.std::vector.8"* %this1) #11, !dbg !6180
  %add.ptr55 = getelementptr inbounds i32, i32* %50, i64 %call54, !dbg !6181
  %51 = bitcast %"class.std::vector.8"* %this1 to %"struct.std::_Vector_base.9"*, !dbg !6182
  %_M_impl56 = getelementptr inbounds %"struct.std::_Vector_base.9", %"struct.std::_Vector_base.9"* %51, i32 0, i32 0, !dbg !6182
  %52 = bitcast %"struct.std::_Vector_base<unsigned int, std::allocator<unsigned int> >::_Vector_impl"* %_M_impl56 to %"struct.std::_Vector_base<unsigned int, std::allocator<unsigned int> >::_Vector_impl_data"*, !dbg !6183
  %_M_start57 = getelementptr inbounds %"struct.std::_Vector_base<unsigned int, std::allocator<unsigned int> >::_Vector_impl_data", %"struct.std::_Vector_base<unsigned int, std::allocator<unsigned int> >::_Vector_impl_data"* %52, i32 0, i32 0, !dbg !6184
  %53 = load i32*, i32** %_M_start57, align 8, !dbg !6184
  %call58 = call i32* @_ZSt4copyIPjS0_ET0_T_S2_S1_(i32* %46, i32* %add.ptr55, i32* %53), !dbg !6185
  %54 = load %"class.std::vector.8"*, %"class.std::vector.8"** %__x.addr, align 8, !dbg !6186
  %55 = bitcast %"class.std::vector.8"* %54 to %"struct.std::_Vector_base.9"*, !dbg !6186
  %_M_impl59 = getelementptr inbounds %"struct.std::_Vector_base.9", %"struct.std::_Vector_base.9"* %55, i32 0, i32 0, !dbg !6187
  %56 = bitcast %"struct.std::_Vector_base<unsigned int, std::allocator<unsigned int> >::_Vector_impl"* %_M_impl59 to %"struct.std::_Vector_base<unsigned int, std::allocator<unsigned int> >::_Vector_impl_data"*, !dbg !6186
  %_M_start60 = getelementptr inbounds %"struct.std::_Vector_base<unsigned int, std::allocator<unsigned int> >::_Vector_impl_data", %"struct.std::_Vector_base<unsigned int, std::allocator<unsigned int> >::_Vector_impl_data"* %56, i32 0, i32 0, !dbg !6188
  %57 = load i32*, i32** %_M_start60, align 8, !dbg !6188
  %call61 = call i64 @_ZNKSt6vectorIjSaIjEE4sizeEv(%"class.std::vector.8"* %this1) #11, !dbg !6189
  %add.ptr62 = getelementptr inbounds i32, i32* %57, i64 %call61, !dbg !6190
  %58 = load %"class.std::vector.8"*, %"class.std::vector.8"** %__x.addr, align 8, !dbg !6191
  %59 = bitcast %"class.std::vector.8"* %58 to %"struct.std::_Vector_base.9"*, !dbg !6191
  %_M_impl63 = getelementptr inbounds %"struct.std::_Vector_base.9", %"struct.std::_Vector_base.9"* %59, i32 0, i32 0, !dbg !6192
  %60 = bitcast %"struct.std::_Vector_base<unsigned int, std::allocator<unsigned int> >::_Vector_impl"* %_M_impl63 to %"struct.std::_Vector_base<unsigned int, std::allocator<unsigned int> >::_Vector_impl_data"*, !dbg !6191
  %_M_finish64 = getelementptr inbounds %"struct.std::_Vector_base<unsigned int, std::allocator<unsigned int> >::_Vector_impl_data", %"struct.std::_Vector_base<unsigned int, std::allocator<unsigned int> >::_Vector_impl_data"* %60, i32 0, i32 1, !dbg !6193
  %61 = load i32*, i32** %_M_finish64, align 8, !dbg !6193
  %62 = bitcast %"class.std::vector.8"* %this1 to %"struct.std::_Vector_base.9"*, !dbg !6194
  %_M_impl65 = getelementptr inbounds %"struct.std::_Vector_base.9", %"struct.std::_Vector_base.9"* %62, i32 0, i32 0, !dbg !6194
  %63 = bitcast %"struct.std::_Vector_base<unsigned int, std::allocator<unsigned int> >::_Vector_impl"* %_M_impl65 to %"struct.std::_Vector_base<unsigned int, std::allocator<unsigned int> >::_Vector_impl_data"*, !dbg !6195
  %_M_finish66 = getelementptr inbounds %"struct.std::_Vector_base<unsigned int, std::allocator<unsigned int> >::_Vector_impl_data", %"struct.std::_Vector_base<unsigned int, std::allocator<unsigned int> >::_Vector_impl_data"* %63, i32 0, i32 1, !dbg !6196
  %64 = load i32*, i32** %_M_finish66, align 8, !dbg !6196
  %65 = bitcast %"class.std::vector.8"* %this1 to %"struct.std::_Vector_base.9"*, !dbg !6197
  %call67 = call dereferenceable(1) %"class.std::allocator.10"* @_ZNSt12_Vector_baseIjSaIjEE19_M_get_Tp_allocatorEv(%"struct.std::_Vector_base.9"* %65) #11, !dbg !6197
  %call68 = call i32* @_ZSt22__uninitialized_copy_aIPjS0_jET0_T_S2_S1_RSaIT1_E(i32* %add.ptr62, i32* %61, i32* %64, %"class.std::allocator.10"* dereferenceable(1) %call67), !dbg !6198
  br label %if.end

if.end:                                           ; preds = %if.else49, %if.then27
  br label %if.end69

if.end69:                                         ; preds = %if.end, %if.then4
  %66 = bitcast %"class.std::vector.8"* %this1 to %"struct.std::_Vector_base.9"*, !dbg !6199
  %_M_impl70 = getelementptr inbounds %"struct.std::_Vector_base.9", %"struct.std::_Vector_base.9"* %66, i32 0, i32 0, !dbg !6199
  %67 = bitcast %"struct.std::_Vector_base<unsigned int, std::allocator<unsigned int> >::_Vector_impl"* %_M_impl70 to %"struct.std::_Vector_base<unsigned int, std::allocator<unsigned int> >::_Vector_impl_data"*, !dbg !6200
  %_M_start71 = getelementptr inbounds %"struct.std::_Vector_base<unsigned int, std::allocator<unsigned int> >::_Vector_impl_data", %"struct.std::_Vector_base<unsigned int, std::allocator<unsigned int> >::_Vector_impl_data"* %67, i32 0, i32 0, !dbg !6201
  %68 = load i32*, i32** %_M_start71, align 8, !dbg !6201
  %69 = load i64, i64* %__xlen, align 8, !dbg !6202
  %add.ptr72 = getelementptr inbounds i32, i32* %68, i64 %69, !dbg !6203
  %70 = bitcast %"class.std::vector.8"* %this1 to %"struct.std::_Vector_base.9"*, !dbg !6204
  %_M_impl73 = getelementptr inbounds %"struct.std::_Vector_base.9", %"struct.std::_Vector_base.9"* %70, i32 0, i32 0, !dbg !6204
  %71 = bitcast %"struct.std::_Vector_base<unsigned int, std::allocator<unsigned int> >::_Vector_impl"* %_M_impl73 to %"struct.std::_Vector_base<unsigned int, std::allocator<unsigned int> >::_Vector_impl_data"*, !dbg !6205
  %_M_finish74 = getelementptr inbounds %"struct.std::_Vector_base<unsigned int, std::allocator<unsigned int> >::_Vector_impl_data", %"struct.std::_Vector_base<unsigned int, std::allocator<unsigned int> >::_Vector_impl_data"* %71, i32 0, i32 1, !dbg !6206
  store i32* %add.ptr72, i32** %_M_finish74, align 8, !dbg !6207
  br label %if.end75, !dbg !6208

if.end75:                                         ; preds = %if.end69, %entry
  ret %"class.std::vector.8"* %this1, !dbg !6209
}

; Function Attrs: noinline nounwind uwtable
define linkonce_odr dso_local i64 @_ZNKSt6vectorIjSaIjEE4sizeEv(%"class.std::vector.8"* %this) #2 comdat align 2 !dbg !6210 {
entry:
  %this.addr = alloca %"class.std::vector.8"*, align 8
  store %"class.std::vector.8"* %this, %"class.std::vector.8"** %this.addr, align 8
  call void @llvm.dbg.declare(metadata %"class.std::vector.8"** %this.addr, metadata !6211, metadata !DIExpression()), !dbg !6213
  %this1 = load %"class.std::vector.8"*, %"class.std::vector.8"** %this.addr, align 8
  %0 = bitcast %"class.std::vector.8"* %this1 to %"struct.std::_Vector_base.9"*, !dbg !6214
  %_M_impl = getelementptr inbounds %"struct.std::_Vector_base.9", %"struct.std::_Vector_base.9"* %0, i32 0, i32 0, !dbg !6214
  %1 = bitcast %"struct.std::_Vector_base<unsigned int, std::allocator<unsigned int> >::_Vector_impl"* %_M_impl to %"struct.std::_Vector_base<unsigned int, std::allocator<unsigned int> >::_Vector_impl_data"*, !dbg !6215
  %_M_finish = getelementptr inbounds %"struct.std::_Vector_base<unsigned int, std::allocator<unsigned int> >::_Vector_impl_data", %"struct.std::_Vector_base<unsigned int, std::allocator<unsigned int> >::_Vector_impl_data"* %1, i32 0, i32 1, !dbg !6216
  %2 = load i32*, i32** %_M_finish, align 8, !dbg !6216
  %3 = bitcast %"class.std::vector.8"* %this1 to %"struct.std::_Vector_base.9"*, !dbg !6217
  %_M_impl2 = getelementptr inbounds %"struct.std::_Vector_base.9", %"struct.std::_Vector_base.9"* %3, i32 0, i32 0, !dbg !6217
  %4 = bitcast %"struct.std::_Vector_base<unsigned int, std::allocator<unsigned int> >::_Vector_impl"* %_M_impl2 to %"struct.std::_Vector_base<unsigned int, std::allocator<unsigned int> >::_Vector_impl_data"*, !dbg !6218
  %_M_start = getelementptr inbounds %"struct.std::_Vector_base<unsigned int, std::allocator<unsigned int> >::_Vector_impl_data", %"struct.std::_Vector_base<unsigned int, std::allocator<unsigned int> >::_Vector_impl_data"* %4, i32 0, i32 0, !dbg !6219
  %5 = load i32*, i32** %_M_start, align 8, !dbg !6219
  %sub.ptr.lhs.cast = ptrtoint i32* %2 to i64, !dbg !6220
  %sub.ptr.rhs.cast = ptrtoint i32* %5 to i64, !dbg !6220
  %sub.ptr.sub = sub i64 %sub.ptr.lhs.cast, %sub.ptr.rhs.cast, !dbg !6220
  %sub.ptr.div = sdiv exact i64 %sub.ptr.sub, 4, !dbg !6220
  ret i64 %sub.ptr.div, !dbg !6221
}

; Function Attrs: noinline nounwind uwtable
define linkonce_odr dso_local dereferenceable(4) i32* @_ZNSt6vectorIjSaIjEEixEm(%"class.std::vector.8"* %this, i64 %__n) #2 comdat align 2 !dbg !6222 {
entry:
  %this.addr = alloca %"class.std::vector.8"*, align 8
  %__n.addr = alloca i64, align 8
  store %"class.std::vector.8"* %this, %"class.std::vector.8"** %this.addr, align 8
  call void @llvm.dbg.declare(metadata %"class.std::vector.8"** %this.addr, metadata !6223, metadata !DIExpression()), !dbg !6224
  store i64 %__n, i64* %__n.addr, align 8
  call void @llvm.dbg.declare(metadata i64* %__n.addr, metadata !6225, metadata !DIExpression()), !dbg !6226
  %this1 = load %"class.std::vector.8"*, %"class.std::vector.8"** %this.addr, align 8
  %0 = bitcast %"class.std::vector.8"* %this1 to %"struct.std::_Vector_base.9"*, !dbg !6227
  %_M_impl = getelementptr inbounds %"struct.std::_Vector_base.9", %"struct.std::_Vector_base.9"* %0, i32 0, i32 0, !dbg !6227
  %1 = bitcast %"struct.std::_Vector_base<unsigned int, std::allocator<unsigned int> >::_Vector_impl"* %_M_impl to %"struct.std::_Vector_base<unsigned int, std::allocator<unsigned int> >::_Vector_impl_data"*, !dbg !6228
  %_M_start = getelementptr inbounds %"struct.std::_Vector_base<unsigned int, std::allocator<unsigned int> >::_Vector_impl_data", %"struct.std::_Vector_base<unsigned int, std::allocator<unsigned int> >::_Vector_impl_data"* %1, i32 0, i32 0, !dbg !6229
  %2 = load i32*, i32** %_M_start, align 8, !dbg !6229
  %3 = load i64, i64* %__n.addr, align 8, !dbg !6230
  %add.ptr = getelementptr inbounds i32, i32* %2, i64 %3, !dbg !6231
  ret i32* %add.ptr, !dbg !6232
}

; Function Attrs: noinline uwtable
define weak_odr dso_local void @_ZNK6dealii15PolynomialSpaceILi1EE7computeERKNS_5PointILi1EEERSt6vectorIdSaIdEERS6_INS_6TensorILi1ELi1EEESaISB_EERS6_INSA_ILi2ELi1EEESaISF_EE(%"class.dealii::PolynomialSpace"* %this, %"class.dealii::Point"* dereferenceable(8) %p, %"class.std::vector.3"* dereferenceable(24) %values, %"class.std::vector.13"* dereferenceable(24) %grads, %"class.std::vector.18"* dereferenceable(24) %grad_grads) #0 comdat align 2 personality i8* bitcast (i32 (...)* @__gxx_personality_v0 to i8*) !dbg !6233 {
entry:
  %this.addr = alloca %"class.dealii::PolynomialSpace"*, align 8
  %p.addr = alloca %"class.dealii::Point"*, align 8
  %values.addr = alloca %"class.std::vector.3"*, align 8
  %grads.addr = alloca %"class.std::vector.13"*, align 8
  %grad_grads.addr = alloca %"class.std::vector.18"*, align 8
  %n_1d = alloca i32, align 4
  %v_size = alloca i32, align 4
  %update_values = alloca i8, align 1
  %update_grads = alloca i8, align 1
  %update_grad_grads = alloca i8, align 1
  %v = alloca %"class.dealii::Table", align 8
  %d = alloca i32, align 4
  %exn.slot = alloca i8*
  %ehselector.slot = alloca i32
  %i = alloca i32, align 4
  %ref.tmp = alloca double, align 8
  %k = alloca i32, align 4
  %iz = alloca i32, align 4
  %iy = alloca i32, align 4
  %ix = alloca i32, align 4
  %ref.tmp53 = alloca %"class.dealii::internal::TableBaseAccessors::Accessor", align 8
  %k76 = alloca i32, align 4
  %iz77 = alloca i32, align 4
  %iy81 = alloca i32, align 4
  %ix85 = alloca i32, align 4
  %k2 = alloca i32, align 4
  %d95 = alloca i32, align 4
  %ref.tmp99 = alloca %"class.dealii::internal::TableBaseAccessors::Accessor", align 8
  %k127 = alloca i32, align 4
  %iz128 = alloca i32, align 4
  %iy132 = alloca i32, align 4
  %ix136 = alloca i32, align 4
  %k2142 = alloca i32, align 4
  %d1 = alloca i32, align 4
  %d2 = alloca i32, align 4
  %j0 = alloca i32, align 4
  %j1 = alloca i32, align 4
  %j2 = alloca i32, align 4
  %ref.tmp167 = alloca %"class.dealii::internal::TableBaseAccessors::Accessor", align 8
  store %"class.dealii::PolynomialSpace"* %this, %"class.dealii::PolynomialSpace"** %this.addr, align 8
  call void @llvm.dbg.declare(metadata %"class.dealii::PolynomialSpace"** %this.addr, metadata !6234, metadata !DIExpression()), !dbg !6236
  store %"class.dealii::Point"* %p, %"class.dealii::Point"** %p.addr, align 8
  call void @llvm.dbg.declare(metadata %"class.dealii::Point"** %p.addr, metadata !6237, metadata !DIExpression()), !dbg !6238
  store %"class.std::vector.3"* %values, %"class.std::vector.3"** %values.addr, align 8
  call void @llvm.dbg.declare(metadata %"class.std::vector.3"** %values.addr, metadata !6239, metadata !DIExpression()), !dbg !6240
  store %"class.std::vector.13"* %grads, %"class.std::vector.13"** %grads.addr, align 8
  call void @llvm.dbg.declare(metadata %"class.std::vector.13"** %grads.addr, metadata !6241, metadata !DIExpression()), !dbg !6242
  store %"class.std::vector.18"* %grad_grads, %"class.std::vector.18"** %grad_grads.addr, align 8
  call void @llvm.dbg.declare(metadata %"class.std::vector.18"** %grad_grads.addr, metadata !6243, metadata !DIExpression()), !dbg !6244
  %this1 = load %"class.dealii::PolynomialSpace"*, %"class.dealii::PolynomialSpace"** %this.addr, align 8
  call void @llvm.dbg.declare(metadata i32* %n_1d, metadata !6245, metadata !DIExpression()), !dbg !6246
  %polynomials = getelementptr inbounds %"class.dealii::PolynomialSpace", %"class.dealii::PolynomialSpace"* %this1, i32 0, i32 0, !dbg !6247
  %call = call i64 @_ZNKSt6vectorIN6dealii11Polynomials10PolynomialIdEESaIS3_EE4sizeEv(%"class.std::vector"* %polynomials) #11, !dbg !6248
  %conv = trunc i64 %call to i32, !dbg !6247
  store i32 %conv, i32* %n_1d, align 4, !dbg !6246
  call void @llvm.dbg.declare(metadata i32* %v_size, metadata !6249, metadata !DIExpression()), !dbg !6250
  store i32 0, i32* %v_size, align 4, !dbg !6250
  call void @llvm.dbg.declare(metadata i8* %update_values, metadata !6251, metadata !DIExpression()), !dbg !6252
  store i8 0, i8* %update_values, align 1, !dbg !6252
  call void @llvm.dbg.declare(metadata i8* %update_grads, metadata !6253, metadata !DIExpression()), !dbg !6254
  store i8 0, i8* %update_grads, align 1, !dbg !6254
  call void @llvm.dbg.declare(metadata i8* %update_grad_grads, metadata !6255, metadata !DIExpression()), !dbg !6256
  store i8 0, i8* %update_grad_grads, align 1, !dbg !6256
  %0 = load %"class.std::vector.3"*, %"class.std::vector.3"** %values.addr, align 8, !dbg !6257
  %call2 = call i64 @_ZNKSt6vectorIdSaIdEE4sizeEv(%"class.std::vector.3"* %0) #11, !dbg !6259
  %n_pols = getelementptr inbounds %"class.dealii::PolynomialSpace", %"class.dealii::PolynomialSpace"* %this1, i32 0, i32 1, !dbg !6260
  %1 = load i32, i32* %n_pols, align 8, !dbg !6260
  %conv3 = zext i32 %1 to i64, !dbg !6260
  %cmp = icmp eq i64 %call2, %conv3, !dbg !6261
  br i1 %cmp, label %if.then, label %if.end, !dbg !6262

if.then:                                          ; preds = %entry
  store i8 1, i8* %update_values, align 1, !dbg !6263
  store i32 1, i32* %v_size, align 4, !dbg !6265
  br label %if.end, !dbg !6266

if.end:                                           ; preds = %if.then, %entry
  %2 = load %"class.std::vector.13"*, %"class.std::vector.13"** %grads.addr, align 8, !dbg !6267
  %call4 = call i64 @_ZNKSt6vectorIN6dealii6TensorILi1ELi1EEESaIS2_EE4sizeEv(%"class.std::vector.13"* %2) #11, !dbg !6269
  %n_pols5 = getelementptr inbounds %"class.dealii::PolynomialSpace", %"class.dealii::PolynomialSpace"* %this1, i32 0, i32 1, !dbg !6270
  %3 = load i32, i32* %n_pols5, align 8, !dbg !6270
  %conv6 = zext i32 %3 to i64, !dbg !6270
  %cmp7 = icmp eq i64 %call4, %conv6, !dbg !6271
  br i1 %cmp7, label %if.then8, label %if.end9, !dbg !6272

if.then8:                                         ; preds = %if.end
  store i8 1, i8* %update_grads, align 1, !dbg !6273
  store i32 2, i32* %v_size, align 4, !dbg !6275
  br label %if.end9, !dbg !6276

if.end9:                                          ; preds = %if.then8, %if.end
  %4 = load %"class.std::vector.18"*, %"class.std::vector.18"** %grad_grads.addr, align 8, !dbg !6277
  %call10 = call i64 @_ZNKSt6vectorIN6dealii6TensorILi2ELi1EEESaIS2_EE4sizeEv(%"class.std::vector.18"* %4) #11, !dbg !6279
  %n_pols11 = getelementptr inbounds %"class.dealii::PolynomialSpace", %"class.dealii::PolynomialSpace"* %this1, i32 0, i32 1, !dbg !6280
  %5 = load i32, i32* %n_pols11, align 8, !dbg !6280
  %conv12 = zext i32 %5 to i64, !dbg !6280
  %cmp13 = icmp eq i64 %call10, %conv12, !dbg !6281
  br i1 %cmp13, label %if.then14, label %if.end15, !dbg !6282

if.then14:                                        ; preds = %if.end9
  store i8 1, i8* %update_grad_grads, align 1, !dbg !6283
  store i32 3, i32* %v_size, align 4, !dbg !6285
  br label %if.end15, !dbg !6286

if.end15:                                         ; preds = %if.then14, %if.end9
  call void @llvm.dbg.declare(metadata %"class.dealii::Table"* %v, metadata !6287, metadata !DIExpression()), !dbg !6468
  %6 = load i32, i32* %n_1d, align 4, !dbg !6469
  call void @_ZN6dealii5TableILi2ESt6vectorIdSaIdEEEC2Ejj(%"class.dealii::Table"* %v, i32 1, i32 %6), !dbg !6468
  call void @llvm.dbg.declare(metadata i32* %d, metadata !6470, metadata !DIExpression()), !dbg !6472
  store i32 0, i32* %d, align 4, !dbg !6472
  br label %for.cond, !dbg !6473

for.cond:                                         ; preds = %for.inc39, %if.end15
  %7 = load i32, i32* %d, align 4, !dbg !6474
  %8 = bitcast %"class.dealii::Table"* %v to %"class.dealii::TableBase"*, !dbg !6476
  %call16 = invoke dereferenceable(8) %"class.dealii::TableIndices"* @_ZNK6dealii9TableBaseILi2ESt6vectorIdSaIdEEE4sizeEv(%"class.dealii::TableBase"* %8)
          to label %invoke.cont unwind label %lpad, !dbg !6477

invoke.cont:                                      ; preds = %for.cond
  %9 = bitcast %"class.dealii::TableIndices"* %call16 to %"class.dealii::TableIndicesBase"*, !dbg !6476
  %call18 = invoke i32 @_ZNK6dealii16TableIndicesBaseILi2EEixEj(%"class.dealii::TableIndicesBase"* %9, i32 0)
          to label %invoke.cont17 unwind label %lpad, !dbg !6476

invoke.cont17:                                    ; preds = %invoke.cont
  %cmp19 = icmp ult i32 %7, %call18, !dbg !6478
  br i1 %cmp19, label %for.body, label %for.end41, !dbg !6479

for.body:                                         ; preds = %invoke.cont17
  call void @llvm.dbg.declare(metadata i32* %i, metadata !6480, metadata !DIExpression()), !dbg !6482
  store i32 0, i32* %i, align 4, !dbg !6482
  br label %for.cond20, !dbg !6483

for.cond20:                                       ; preds = %for.inc, %for.body
  %10 = load i32, i32* %i, align 4, !dbg !6484
  %11 = bitcast %"class.dealii::Table"* %v to %"class.dealii::TableBase"*, !dbg !6486
  %call22 = invoke dereferenceable(8) %"class.dealii::TableIndices"* @_ZNK6dealii9TableBaseILi2ESt6vectorIdSaIdEEE4sizeEv(%"class.dealii::TableBase"* %11)
          to label %invoke.cont21 unwind label %lpad, !dbg !6487

invoke.cont21:                                    ; preds = %for.cond20
  %12 = bitcast %"class.dealii::TableIndices"* %call22 to %"class.dealii::TableIndicesBase"*, !dbg !6486
  %call24 = invoke i32 @_ZNK6dealii16TableIndicesBaseILi2EEixEj(%"class.dealii::TableIndicesBase"* %12, i32 1)
          to label %invoke.cont23 unwind label %lpad, !dbg !6486

invoke.cont23:                                    ; preds = %invoke.cont21
  %cmp25 = icmp ult i32 %10, %call24, !dbg !6488
  br i1 %cmp25, label %for.body26, label %for.end, !dbg !6489

for.body26:                                       ; preds = %invoke.cont23
  %13 = load i32, i32* %d, align 4, !dbg !6490
  %14 = load i32, i32* %i, align 4, !dbg !6492
  %call28 = invoke dereferenceable(24) %"class.std::vector.3"* @_ZN6dealii5TableILi2ESt6vectorIdSaIdEEEclEjj(%"class.dealii::Table"* %v, i32 %13, i32 %14)
          to label %invoke.cont27 unwind label %lpad, !dbg !6493

invoke.cont27:                                    ; preds = %for.body26
  %15 = load i32, i32* %v_size, align 4, !dbg !6494
  %conv29 = zext i32 %15 to i64, !dbg !6494
  store double 0.000000e+00, double* %ref.tmp, align 8, !dbg !6495
  invoke void @_ZNSt6vectorIdSaIdEE6resizeEmRKd(%"class.std::vector.3"* %call28, i64 %conv29, double* dereferenceable(8) %ref.tmp)
          to label %invoke.cont30 unwind label %lpad, !dbg !6496

invoke.cont30:                                    ; preds = %invoke.cont27
  %polynomials31 = getelementptr inbounds %"class.dealii::PolynomialSpace", %"class.dealii::PolynomialSpace"* %this1, i32 0, i32 0, !dbg !6497
  %16 = load i32, i32* %i, align 4, !dbg !6498
  %conv32 = zext i32 %16 to i64, !dbg !6498
  %call33 = call dereferenceable(96) %"class.dealii::Polynomials::Polynomial"* @_ZNKSt6vectorIN6dealii11Polynomials10PolynomialIdEESaIS3_EEixEm(%"class.std::vector"* %polynomials31, i64 %conv32) #11, !dbg !6497
  %17 = load %"class.dealii::Point"*, %"class.dealii::Point"** %p.addr, align 8, !dbg !6499
  %18 = load i32, i32* %d, align 4, !dbg !6500
  %call35 = invoke double @_ZNK6dealii5PointILi1EEclEj(%"class.dealii::Point"* %17, i32 %18)
          to label %invoke.cont34 unwind label %lpad, !dbg !6499

invoke.cont34:                                    ; preds = %invoke.cont30
  %19 = load i32, i32* %d, align 4, !dbg !6501
  %20 = load i32, i32* %i, align 4, !dbg !6502
  %call37 = invoke dereferenceable(24) %"class.std::vector.3"* @_ZN6dealii5TableILi2ESt6vectorIdSaIdEEEclEjj(%"class.dealii::Table"* %v, i32 %19, i32 %20)
          to label %invoke.cont36 unwind label %lpad, !dbg !6503

invoke.cont36:                                    ; preds = %invoke.cont34
  invoke void @_ZNK6dealii11Polynomials10PolynomialIdE5valueEdRSt6vectorIdSaIdEE(%"class.dealii::Polynomials::Polynomial"* %call33, double %call35, %"class.std::vector.3"* dereferenceable(24) %call37)
          to label %invoke.cont38 unwind label %lpad, !dbg !6504

invoke.cont38:                                    ; preds = %invoke.cont36
  br label %for.inc, !dbg !6505

for.inc:                                          ; preds = %invoke.cont38
  %21 = load i32, i32* %i, align 4, !dbg !6506
  %inc = add i32 %21, 1, !dbg !6506
  store i32 %inc, i32* %i, align 4, !dbg !6506
  br label %for.cond20, !dbg !6507, !llvm.loop !6508

lpad:                                             ; preds = %invoke.cont177, %invoke.cont169, %invoke.cont168, %for.body152, %invoke.cont101, %invoke.cont100, %for.body98, %invoke.cont54, %for.body52, %invoke.cont36, %invoke.cont34, %invoke.cont30, %invoke.cont27, %for.body26, %invoke.cont21, %for.cond20, %invoke.cont, %for.cond
  %22 = landingpad { i8*, i32 }
          cleanup, !dbg !6510
  %23 = extractvalue { i8*, i32 } %22, 0, !dbg !6510
  store i8* %23, i8** %exn.slot, align 8, !dbg !6510
  %24 = extractvalue { i8*, i32 } %22, 1, !dbg !6510
  store i32 %24, i32* %ehselector.slot, align 4, !dbg !6510
  call void @_ZN6dealii5TableILi2ESt6vectorIdSaIdEEED2Ev(%"class.dealii::Table"* %v) #11, !dbg !6511
  br label %eh.resume, !dbg !6511

for.end:                                          ; preds = %invoke.cont23
  br label %for.inc39, !dbg !6509

for.inc39:                                        ; preds = %for.end
  %25 = load i32, i32* %d, align 4, !dbg !6512
  %inc40 = add i32 %25, 1, !dbg !6512
  store i32 %inc40, i32* %d, align 4, !dbg !6512
  br label %for.cond, !dbg !6513, !llvm.loop !6514

for.end41:                                        ; preds = %invoke.cont17
  %26 = load i8, i8* %update_values, align 1, !dbg !6516
  %tobool = trunc i8 %26 to i1, !dbg !6516
  br i1 %tobool, label %if.then42, label %if.end73, !dbg !6518

if.then42:                                        ; preds = %for.end41
  call void @llvm.dbg.declare(metadata i32* %k, metadata !6519, metadata !DIExpression()), !dbg !6521
  store i32 0, i32* %k, align 4, !dbg !6521
  call void @llvm.dbg.declare(metadata i32* %iz, metadata !6522, metadata !DIExpression()), !dbg !6524
  store i32 0, i32* %iz, align 4, !dbg !6524
  br label %for.cond43, !dbg !6525

for.cond43:                                       ; preds = %for.inc70, %if.then42
  %27 = load i32, i32* %iz, align 4, !dbg !6526
  %cmp44 = icmp ult i32 %27, 1, !dbg !6528
  br i1 %cmp44, label %for.body45, label %for.end72, !dbg !6529

for.body45:                                       ; preds = %for.cond43
  call void @llvm.dbg.declare(metadata i32* %iy, metadata !6530, metadata !DIExpression()), !dbg !6532
  store i32 0, i32* %iy, align 4, !dbg !6532
  br label %for.cond46, !dbg !6533

for.cond46:                                       ; preds = %for.inc67, %for.body45
  %28 = load i32, i32* %iy, align 4, !dbg !6534
  %cmp47 = icmp ult i32 %28, 1, !dbg !6536
  br i1 %cmp47, label %for.body48, label %for.end69, !dbg !6537

for.body48:                                       ; preds = %for.cond46
  call void @llvm.dbg.declare(metadata i32* %ix, metadata !6538, metadata !DIExpression()), !dbg !6540
  store i32 0, i32* %ix, align 4, !dbg !6540
  br label %for.cond49, !dbg !6541

for.cond49:                                       ; preds = %for.inc64, %for.body48
  %29 = load i32, i32* %ix, align 4, !dbg !6542
  %30 = load i32, i32* %n_1d, align 4, !dbg !6544
  %31 = load i32, i32* %iy, align 4, !dbg !6545
  %sub = sub i32 %30, %31, !dbg !6546
  %32 = load i32, i32* %iz, align 4, !dbg !6547
  %sub50 = sub i32 %sub, %32, !dbg !6548
  %cmp51 = icmp ult i32 %29, %sub50, !dbg !6549
  br i1 %cmp51, label %for.body52, label %for.end66, !dbg !6550

for.body52:                                       ; preds = %for.cond49
  invoke void @_ZN6dealii5TableILi2ESt6vectorIdSaIdEEEixEj(%"class.dealii::internal::TableBaseAccessors::Accessor"* sret %ref.tmp53, %"class.dealii::Table"* %v, i32 0)
          to label %invoke.cont54 unwind label %lpad, !dbg !6551

invoke.cont54:                                    ; preds = %for.body52
  %33 = load i32, i32* %ix, align 4, !dbg !6552
  %call56 = invoke dereferenceable(24) %"class.std::vector.3"* @_ZNK6dealii8internal18TableBaseAccessors8AccessorILi2ESt6vectorIdSaIdEELb0ELj1EEixEj(%"class.dealii::internal::TableBaseAccessors::Accessor"* %ref.tmp53, i32 %33)
          to label %invoke.cont55 unwind label %lpad, !dbg !6551

invoke.cont55:                                    ; preds = %invoke.cont54
  %call57 = call dereferenceable(8) double* @_ZNSt6vectorIdSaIdEEixEm(%"class.std::vector.3"* %call56, i64 0) #11, !dbg !6551
  %34 = load double, double* %call57, align 8, !dbg !6551
  %mul = fmul double %34, 1.000000e+00, !dbg !6553
  %mul58 = fmul double %mul, 1.000000e+00, !dbg !6554
  %35 = load %"class.std::vector.3"*, %"class.std::vector.3"** %values.addr, align 8, !dbg !6555
  %index_map_inverse = getelementptr inbounds %"class.dealii::PolynomialSpace", %"class.dealii::PolynomialSpace"* %this1, i32 0, i32 3, !dbg !6556
  %36 = load i32, i32* %k, align 4, !dbg !6557
  %inc59 = add i32 %36, 1, !dbg !6557
  store i32 %inc59, i32* %k, align 4, !dbg !6557
  %conv60 = zext i32 %36 to i64, !dbg !6558
  %call61 = call dereferenceable(4) i32* @_ZNKSt6vectorIjSaIjEEixEm(%"class.std::vector.8"* %index_map_inverse, i64 %conv60) #11, !dbg !6556
  %37 = load i32, i32* %call61, align 4, !dbg !6556
  %conv62 = zext i32 %37 to i64, !dbg !6556
  %call63 = call dereferenceable(8) double* @_ZNSt6vectorIdSaIdEEixEm(%"class.std::vector.3"* %35, i64 %conv62) #11, !dbg !6555
  store double %mul58, double* %call63, align 8, !dbg !6559
  br label %for.inc64, !dbg !6555

for.inc64:                                        ; preds = %invoke.cont55
  %38 = load i32, i32* %ix, align 4, !dbg !6560
  %inc65 = add i32 %38, 1, !dbg !6560
  store i32 %inc65, i32* %ix, align 4, !dbg !6560
  br label %for.cond49, !dbg !6561, !llvm.loop !6562

for.end66:                                        ; preds = %for.cond49
  br label %for.inc67, !dbg !6563

for.inc67:                                        ; preds = %for.end66
  %39 = load i32, i32* %iy, align 4, !dbg !6564
  %inc68 = add i32 %39, 1, !dbg !6564
  store i32 %inc68, i32* %iy, align 4, !dbg !6564
  br label %for.cond46, !dbg !6565, !llvm.loop !6566

for.end69:                                        ; preds = %for.cond46
  br label %for.inc70, !dbg !6567

for.inc70:                                        ; preds = %for.end69
  %40 = load i32, i32* %iz, align 4, !dbg !6568
  %inc71 = add i32 %40, 1, !dbg !6568
  store i32 %inc71, i32* %iz, align 4, !dbg !6568
  br label %for.cond43, !dbg !6569, !llvm.loop !6570

for.end72:                                        ; preds = %for.cond43
  br label %if.end73, !dbg !6572

if.end73:                                         ; preds = %for.end72, %for.end41
  %41 = load i8, i8* %update_grads, align 1, !dbg !6573
  %tobool74 = trunc i8 %41 to i1, !dbg !6573
  br i1 %tobool74, label %if.then75, label %if.end124, !dbg !6575

if.then75:                                        ; preds = %if.end73
  call void @llvm.dbg.declare(metadata i32* %k76, metadata !6576, metadata !DIExpression()), !dbg !6578
  store i32 0, i32* %k76, align 4, !dbg !6578
  call void @llvm.dbg.declare(metadata i32* %iz77, metadata !6579, metadata !DIExpression()), !dbg !6581
  store i32 0, i32* %iz77, align 4, !dbg !6581
  br label %for.cond78, !dbg !6582

for.cond78:                                       ; preds = %for.inc121, %if.then75
  %42 = load i32, i32* %iz77, align 4, !dbg !6583
  %cmp79 = icmp ult i32 %42, 1, !dbg !6585
  br i1 %cmp79, label %for.body80, label %for.end123, !dbg !6586

for.body80:                                       ; preds = %for.cond78
  call void @llvm.dbg.declare(metadata i32* %iy81, metadata !6587, metadata !DIExpression()), !dbg !6589
  store i32 0, i32* %iy81, align 4, !dbg !6589
  br label %for.cond82, !dbg !6590

for.cond82:                                       ; preds = %for.inc118, %for.body80
  %43 = load i32, i32* %iy81, align 4, !dbg !6591
  %cmp83 = icmp ult i32 %43, 1, !dbg !6593
  br i1 %cmp83, label %for.body84, label %for.end120, !dbg !6594

for.body84:                                       ; preds = %for.cond82
  call void @llvm.dbg.declare(metadata i32* %ix85, metadata !6595, metadata !DIExpression()), !dbg !6597
  store i32 0, i32* %ix85, align 4, !dbg !6597
  br label %for.cond86, !dbg !6598

for.cond86:                                       ; preds = %for.inc115, %for.body84
  %44 = load i32, i32* %ix85, align 4, !dbg !6599
  %45 = load i32, i32* %n_1d, align 4, !dbg !6601
  %46 = load i32, i32* %iy81, align 4, !dbg !6602
  %sub87 = sub i32 %45, %46, !dbg !6603
  %47 = load i32, i32* %iz77, align 4, !dbg !6604
  %sub88 = sub i32 %sub87, %47, !dbg !6605
  %cmp89 = icmp ult i32 %44, %sub88, !dbg !6606
  br i1 %cmp89, label %for.body90, label %for.end117, !dbg !6607

for.body90:                                       ; preds = %for.cond86
  call void @llvm.dbg.declare(metadata i32* %k2, metadata !6608, metadata !DIExpression()), !dbg !6610
  %index_map_inverse91 = getelementptr inbounds %"class.dealii::PolynomialSpace", %"class.dealii::PolynomialSpace"* %this1, i32 0, i32 3, !dbg !6611
  %48 = load i32, i32* %k76, align 4, !dbg !6612
  %inc92 = add i32 %48, 1, !dbg !6612
  store i32 %inc92, i32* %k76, align 4, !dbg !6612
  %conv93 = zext i32 %48 to i64, !dbg !6613
  %call94 = call dereferenceable(4) i32* @_ZNKSt6vectorIjSaIjEEixEm(%"class.std::vector.8"* %index_map_inverse91, i64 %conv93) #11, !dbg !6611
  %49 = load i32, i32* %call94, align 4, !dbg !6611
  store i32 %49, i32* %k2, align 4, !dbg !6610
  call void @llvm.dbg.declare(metadata i32* %d95, metadata !6614, metadata !DIExpression()), !dbg !6616
  store i32 0, i32* %d95, align 4, !dbg !6616
  br label %for.cond96, !dbg !6617

for.cond96:                                       ; preds = %for.inc112, %for.body90
  %50 = load i32, i32* %d95, align 4, !dbg !6618
  %cmp97 = icmp ult i32 %50, 1, !dbg !6620
  br i1 %cmp97, label %for.body98, label %for.end114, !dbg !6621

for.body98:                                       ; preds = %for.cond96
  invoke void @_ZN6dealii5TableILi2ESt6vectorIdSaIdEEEixEj(%"class.dealii::internal::TableBaseAccessors::Accessor"* sret %ref.tmp99, %"class.dealii::Table"* %v, i32 0)
          to label %invoke.cont100 unwind label %lpad, !dbg !6622

invoke.cont100:                                   ; preds = %for.body98
  %51 = load i32, i32* %ix85, align 4, !dbg !6623
  %call102 = invoke dereferenceable(24) %"class.std::vector.3"* @_ZNK6dealii8internal18TableBaseAccessors8AccessorILi2ESt6vectorIdSaIdEELb0ELj1EEixEj(%"class.dealii::internal::TableBaseAccessors::Accessor"* %ref.tmp99, i32 %51)
          to label %invoke.cont101 unwind label %lpad, !dbg !6622

invoke.cont101:                                   ; preds = %invoke.cont100
  %52 = load i32, i32* %d95, align 4, !dbg !6624
  %cmp103 = icmp eq i32 %52, 0, !dbg !6625
  %53 = zext i1 %cmp103 to i64, !dbg !6626
  %cond = select i1 %cmp103, i32 1, i32 0, !dbg !6626
  %conv104 = sext i32 %cond to i64, !dbg !6626
  %call105 = call dereferenceable(8) double* @_ZNSt6vectorIdSaIdEEixEm(%"class.std::vector.3"* %call102, i64 %conv104) #11, !dbg !6622
  %54 = load double, double* %call105, align 8, !dbg !6622
  %mul106 = fmul double %54, 1.000000e+00, !dbg !6627
  %mul107 = fmul double %mul106, 1.000000e+00, !dbg !6628
  %55 = load %"class.std::vector.13"*, %"class.std::vector.13"** %grads.addr, align 8, !dbg !6629
  %56 = load i32, i32* %k2, align 4, !dbg !6630
  %conv108 = zext i32 %56 to i64, !dbg !6630
  %call109 = call dereferenceable(8) %"class.dealii::Tensor"* @_ZNSt6vectorIN6dealii6TensorILi1ELi1EEESaIS2_EEixEm(%"class.std::vector.13"* %55, i64 %conv108) #11, !dbg !6629
  %57 = load i32, i32* %d95, align 4, !dbg !6631
  %call111 = invoke dereferenceable(8) double* @_ZN6dealii6TensorILi1ELi1EEixEj(%"class.dealii::Tensor"* %call109, i32 %57)
          to label %invoke.cont110 unwind label %lpad, !dbg !6629

invoke.cont110:                                   ; preds = %invoke.cont101
  store double %mul107, double* %call111, align 8, !dbg !6632
  br label %for.inc112, !dbg !6629

for.inc112:                                       ; preds = %invoke.cont110
  %58 = load i32, i32* %d95, align 4, !dbg !6633
  %inc113 = add i32 %58, 1, !dbg !6633
  store i32 %inc113, i32* %d95, align 4, !dbg !6633
  br label %for.cond96, !dbg !6634, !llvm.loop !6635

for.end114:                                       ; preds = %for.cond96
  br label %for.inc115, !dbg !6637

for.inc115:                                       ; preds = %for.end114
  %59 = load i32, i32* %ix85, align 4, !dbg !6638
  %inc116 = add i32 %59, 1, !dbg !6638
  store i32 %inc116, i32* %ix85, align 4, !dbg !6638
  br label %for.cond86, !dbg !6639, !llvm.loop !6640

for.end117:                                       ; preds = %for.cond86
  br label %for.inc118, !dbg !6641

for.inc118:                                       ; preds = %for.end117
  %60 = load i32, i32* %iy81, align 4, !dbg !6642
  %inc119 = add i32 %60, 1, !dbg !6642
  store i32 %inc119, i32* %iy81, align 4, !dbg !6642
  br label %for.cond82, !dbg !6643, !llvm.loop !6644

for.end120:                                       ; preds = %for.cond82
  br label %for.inc121, !dbg !6645

for.inc121:                                       ; preds = %for.end120
  %61 = load i32, i32* %iz77, align 4, !dbg !6646
  %inc122 = add i32 %61, 1, !dbg !6646
  store i32 %inc122, i32* %iz77, align 4, !dbg !6646
  br label %for.cond78, !dbg !6647, !llvm.loop !6648

for.end123:                                       ; preds = %for.cond78
  br label %if.end124, !dbg !6650

if.end124:                                        ; preds = %for.end123, %if.end73
  %62 = load i8, i8* %update_grad_grads, align 1, !dbg !6651
  %tobool125 = trunc i8 %62 to i1, !dbg !6651
  br i1 %tobool125, label %if.then126, label %if.end196, !dbg !6653

if.then126:                                       ; preds = %if.end124
  call void @llvm.dbg.declare(metadata i32* %k127, metadata !6654, metadata !DIExpression()), !dbg !6656
  store i32 0, i32* %k127, align 4, !dbg !6656
  call void @llvm.dbg.declare(metadata i32* %iz128, metadata !6657, metadata !DIExpression()), !dbg !6659
  store i32 0, i32* %iz128, align 4, !dbg !6659
  br label %for.cond129, !dbg !6660

for.cond129:                                      ; preds = %for.inc193, %if.then126
  %63 = load i32, i32* %iz128, align 4, !dbg !6661
  %cmp130 = icmp ult i32 %63, 1, !dbg !6663
  br i1 %cmp130, label %for.body131, label %for.end195, !dbg !6664

for.body131:                                      ; preds = %for.cond129
  call void @llvm.dbg.declare(metadata i32* %iy132, metadata !6665, metadata !DIExpression()), !dbg !6667
  store i32 0, i32* %iy132, align 4, !dbg !6667
  br label %for.cond133, !dbg !6668

for.cond133:                                      ; preds = %for.inc190, %for.body131
  %64 = load i32, i32* %iy132, align 4, !dbg !6669
  %cmp134 = icmp ult i32 %64, 1, !dbg !6671
  br i1 %cmp134, label %for.body135, label %for.end192, !dbg !6672

for.body135:                                      ; preds = %for.cond133
  call void @llvm.dbg.declare(metadata i32* %ix136, metadata !6673, metadata !DIExpression()), !dbg !6675
  store i32 0, i32* %ix136, align 4, !dbg !6675
  br label %for.cond137, !dbg !6676

for.cond137:                                      ; preds = %for.inc187, %for.body135
  %65 = load i32, i32* %ix136, align 4, !dbg !6677
  %66 = load i32, i32* %n_1d, align 4, !dbg !6679
  %67 = load i32, i32* %iy132, align 4, !dbg !6680
  %sub138 = sub i32 %66, %67, !dbg !6681
  %68 = load i32, i32* %iz128, align 4, !dbg !6682
  %sub139 = sub i32 %sub138, %68, !dbg !6683
  %cmp140 = icmp ult i32 %65, %sub139, !dbg !6684
  br i1 %cmp140, label %for.body141, label %for.end189, !dbg !6685

for.body141:                                      ; preds = %for.cond137
  call void @llvm.dbg.declare(metadata i32* %k2142, metadata !6686, metadata !DIExpression()), !dbg !6688
  %index_map_inverse143 = getelementptr inbounds %"class.dealii::PolynomialSpace", %"class.dealii::PolynomialSpace"* %this1, i32 0, i32 3, !dbg !6689
  %69 = load i32, i32* %k127, align 4, !dbg !6690
  %inc144 = add i32 %69, 1, !dbg !6690
  store i32 %inc144, i32* %k127, align 4, !dbg !6690
  %conv145 = zext i32 %69 to i64, !dbg !6691
  %call146 = call dereferenceable(4) i32* @_ZNKSt6vectorIjSaIjEEixEm(%"class.std::vector.8"* %index_map_inverse143, i64 %conv145) #11, !dbg !6689
  %70 = load i32, i32* %call146, align 4, !dbg !6689
  store i32 %70, i32* %k2142, align 4, !dbg !6688
  call void @llvm.dbg.declare(metadata i32* %d1, metadata !6692, metadata !DIExpression()), !dbg !6694
  store i32 0, i32* %d1, align 4, !dbg !6694
  br label %for.cond147, !dbg !6695

for.cond147:                                      ; preds = %for.inc184, %for.body141
  %71 = load i32, i32* %d1, align 4, !dbg !6696
  %cmp148 = icmp ult i32 %71, 1, !dbg !6698
  br i1 %cmp148, label %for.body149, label %for.end186, !dbg !6699

for.body149:                                      ; preds = %for.cond147
  call void @llvm.dbg.declare(metadata i32* %d2, metadata !6700, metadata !DIExpression()), !dbg !6702
  store i32 0, i32* %d2, align 4, !dbg !6702
  br label %for.cond150, !dbg !6703

for.cond150:                                      ; preds = %for.inc181, %for.body149
  %72 = load i32, i32* %d2, align 4, !dbg !6704
  %cmp151 = icmp ult i32 %72, 1, !dbg !6706
  br i1 %cmp151, label %for.body152, label %for.end183, !dbg !6707

for.body152:                                      ; preds = %for.cond150
  call void @llvm.dbg.declare(metadata i32* %j0, metadata !6708, metadata !DIExpression()), !dbg !6710
  %73 = load i32, i32* %d1, align 4, !dbg !6711
  %cmp153 = icmp eq i32 %73, 0, !dbg !6712
  %74 = zext i1 %cmp153 to i64, !dbg !6713
  %cond154 = select i1 %cmp153, i32 1, i32 0, !dbg !6713
  %75 = load i32, i32* %d2, align 4, !dbg !6714
  %cmp155 = icmp eq i32 %75, 0, !dbg !6715
  %76 = zext i1 %cmp155 to i64, !dbg !6716
  %cond156 = select i1 %cmp155, i32 1, i32 0, !dbg !6716
  %add = add nsw i32 %cond154, %cond156, !dbg !6717
  store i32 %add, i32* %j0, align 4, !dbg !6710
  call void @llvm.dbg.declare(metadata i32* %j1, metadata !6718, metadata !DIExpression()), !dbg !6719
  %77 = load i32, i32* %d1, align 4, !dbg !6720
  %cmp157 = icmp eq i32 %77, 1, !dbg !6721
  %78 = zext i1 %cmp157 to i64, !dbg !6722
  %cond158 = select i1 %cmp157, i32 1, i32 0, !dbg !6722
  %79 = load i32, i32* %d2, align 4, !dbg !6723
  %cmp159 = icmp eq i32 %79, 1, !dbg !6724
  %80 = zext i1 %cmp159 to i64, !dbg !6725
  %cond160 = select i1 %cmp159, i32 1, i32 0, !dbg !6725
  %add161 = add nsw i32 %cond158, %cond160, !dbg !6726
  store i32 %add161, i32* %j1, align 4, !dbg !6719
  call void @llvm.dbg.declare(metadata i32* %j2, metadata !6727, metadata !DIExpression()), !dbg !6728
  %81 = load i32, i32* %d1, align 4, !dbg !6729
  %cmp162 = icmp eq i32 %81, 2, !dbg !6730
  %82 = zext i1 %cmp162 to i64, !dbg !6731
  %cond163 = select i1 %cmp162, i32 1, i32 0, !dbg !6731
  %83 = load i32, i32* %d2, align 4, !dbg !6732
  %cmp164 = icmp eq i32 %83, 2, !dbg !6733
  %84 = zext i1 %cmp164 to i64, !dbg !6734
  %cond165 = select i1 %cmp164, i32 1, i32 0, !dbg !6734
  %add166 = add nsw i32 %cond163, %cond165, !dbg !6735
  store i32 %add166, i32* %j2, align 4, !dbg !6728
  invoke void @_ZN6dealii5TableILi2ESt6vectorIdSaIdEEEixEj(%"class.dealii::internal::TableBaseAccessors::Accessor"* sret %ref.tmp167, %"class.dealii::Table"* %v, i32 0)
          to label %invoke.cont168 unwind label %lpad, !dbg !6736

invoke.cont168:                                   ; preds = %for.body152
  %85 = load i32, i32* %ix136, align 4, !dbg !6737
  %call170 = invoke dereferenceable(24) %"class.std::vector.3"* @_ZNK6dealii8internal18TableBaseAccessors8AccessorILi2ESt6vectorIdSaIdEELb0ELj1EEixEj(%"class.dealii::internal::TableBaseAccessors::Accessor"* %ref.tmp167, i32 %85)
          to label %invoke.cont169 unwind label %lpad, !dbg !6736

invoke.cont169:                                   ; preds = %invoke.cont168
  %86 = load i32, i32* %j0, align 4, !dbg !6738
  %conv171 = zext i32 %86 to i64, !dbg !6738
  %call172 = call dereferenceable(8) double* @_ZNSt6vectorIdSaIdEEixEm(%"class.std::vector.3"* %call170, i64 %conv171) #11, !dbg !6736
  %87 = load double, double* %call172, align 8, !dbg !6736
  %mul173 = fmul double %87, 1.000000e+00, !dbg !6739
  %mul174 = fmul double %mul173, 1.000000e+00, !dbg !6740
  %88 = load %"class.std::vector.18"*, %"class.std::vector.18"** %grad_grads.addr, align 8, !dbg !6741
  %89 = load i32, i32* %k2142, align 4, !dbg !6742
  %conv175 = zext i32 %89 to i64, !dbg !6742
  %call176 = call dereferenceable(8) %"class.dealii::Tensor.23"* @_ZNSt6vectorIN6dealii6TensorILi2ELi1EEESaIS2_EEixEm(%"class.std::vector.18"* %88, i64 %conv175) #11, !dbg !6741
  %90 = load i32, i32* %d1, align 4, !dbg !6743
  %call178 = invoke dereferenceable(8) %"class.dealii::Tensor"* @_ZN6dealii6TensorILi2ELi1EEixEj(%"class.dealii::Tensor.23"* %call176, i32 %90)
          to label %invoke.cont177 unwind label %lpad, !dbg !6741

invoke.cont177:                                   ; preds = %invoke.cont169
  %91 = load i32, i32* %d2, align 4, !dbg !6744
  %call180 = invoke dereferenceable(8) double* @_ZN6dealii6TensorILi1ELi1EEixEj(%"class.dealii::Tensor"* %call178, i32 %91)
          to label %invoke.cont179 unwind label %lpad, !dbg !6741

invoke.cont179:                                   ; preds = %invoke.cont177
  store double %mul174, double* %call180, align 8, !dbg !6745
  br label %for.inc181, !dbg !6746

for.inc181:                                       ; preds = %invoke.cont179
  %92 = load i32, i32* %d2, align 4, !dbg !6747
  %inc182 = add i32 %92, 1, !dbg !6747
  store i32 %inc182, i32* %d2, align 4, !dbg !6747
  br label %for.cond150, !dbg !6748, !llvm.loop !6749

for.end183:                                       ; preds = %for.cond150
  br label %for.inc184, !dbg !6750

for.inc184:                                       ; preds = %for.end183
  %93 = load i32, i32* %d1, align 4, !dbg !6751
  %inc185 = add i32 %93, 1, !dbg !6751
  store i32 %inc185, i32* %d1, align 4, !dbg !6751
  br label %for.cond147, !dbg !6752, !llvm.loop !6753

for.end186:                                       ; preds = %for.cond147
  br label %for.inc187, !dbg !6755

for.inc187:                                       ; preds = %for.end186
  %94 = load i32, i32* %ix136, align 4, !dbg !6756
  %inc188 = add i32 %94, 1, !dbg !6756
  store i32 %inc188, i32* %ix136, align 4, !dbg !6756
  br label %for.cond137, !dbg !6757, !llvm.loop !6758

for.end189:                                       ; preds = %for.cond137
  br label %for.inc190, !dbg !6759

for.inc190:                                       ; preds = %for.end189
  %95 = load i32, i32* %iy132, align 4, !dbg !6760
  %inc191 = add i32 %95, 1, !dbg !6760
  store i32 %inc191, i32* %iy132, align 4, !dbg !6760
  br label %for.cond133, !dbg !6761, !llvm.loop !6762

for.end192:                                       ; preds = %for.cond133
  br label %for.inc193, !dbg !6763

for.inc193:                                       ; preds = %for.end192
  %96 = load i32, i32* %iz128, align 4, !dbg !6764
  %inc194 = add i32 %96, 1, !dbg !6764
  store i32 %inc194, i32* %iz128, align 4, !dbg !6764
  br label %for.cond129, !dbg !6765, !llvm.loop !6766

for.end195:                                       ; preds = %for.cond129
  br label %if.end196, !dbg !6768

if.end196:                                        ; preds = %for.end195, %if.end124
  call void @_ZN6dealii5TableILi2ESt6vectorIdSaIdEEED2Ev(%"class.dealii::Table"* %v) #11, !dbg !6511
  ret void, !dbg !6511

eh.resume:                                        ; preds = %lpad
  %exn = load i8*, i8** %exn.slot, align 8, !dbg !6511
  %sel = load i32, i32* %ehselector.slot, align 4, !dbg !6511
  %lpad.val = insertvalue { i8*, i32 } undef, i8* %exn, 0, !dbg !6511
  %lpad.val197 = insertvalue { i8*, i32 } %lpad.val, i32 %sel, 1, !dbg !6511
  resume { i8*, i32 } %lpad.val197, !dbg !6511
}

; Function Attrs: noinline nounwind uwtable
define linkonce_odr dso_local i64 @_ZNKSt6vectorIN6dealii11Polynomials10PolynomialIdEESaIS3_EE4sizeEv(%"class.std::vector"* %this) #2 comdat align 2 !dbg !6769 {
entry:
  %this.addr = alloca %"class.std::vector"*, align 8
  store %"class.std::vector"* %this, %"class.std::vector"** %this.addr, align 8
  call void @llvm.dbg.declare(metadata %"class.std::vector"** %this.addr, metadata !6770, metadata !DIExpression()), !dbg !6772
  %this1 = load %"class.std::vector"*, %"class.std::vector"** %this.addr, align 8
  %0 = bitcast %"class.std::vector"* %this1 to %"struct.std::_Vector_base"*, !dbg !6773
  %_M_impl = getelementptr inbounds %"struct.std::_Vector_base", %"struct.std::_Vector_base"* %0, i32 0, i32 0, !dbg !6773
  %1 = bitcast %"struct.std::_Vector_base<dealii::Polynomials::Polynomial<double>, std::allocator<dealii::Polynomials::Polynomial<double> > >::_Vector_impl"* %_M_impl to %"struct.std::_Vector_base<dealii::Polynomials::Polynomial<double>, std::allocator<dealii::Polynomials::Polynomial<double> > >::_Vector_impl_data"*, !dbg !6774
  %_M_finish = getelementptr inbounds %"struct.std::_Vector_base<dealii::Polynomials::Polynomial<double>, std::allocator<dealii::Polynomials::Polynomial<double> > >::_Vector_impl_data", %"struct.std::_Vector_base<dealii::Polynomials::Polynomial<double>, std::allocator<dealii::Polynomials::Polynomial<double> > >::_Vector_impl_data"* %1, i32 0, i32 1, !dbg !6775
  %2 = load %"class.dealii::Polynomials::Polynomial"*, %"class.dealii::Polynomials::Polynomial"** %_M_finish, align 8, !dbg !6775
  %3 = bitcast %"class.std::vector"* %this1 to %"struct.std::_Vector_base"*, !dbg !6776
  %_M_impl2 = getelementptr inbounds %"struct.std::_Vector_base", %"struct.std::_Vector_base"* %3, i32 0, i32 0, !dbg !6776
  %4 = bitcast %"struct.std::_Vector_base<dealii::Polynomials::Polynomial<double>, std::allocator<dealii::Polynomials::Polynomial<double> > >::_Vector_impl"* %_M_impl2 to %"struct.std::_Vector_base<dealii::Polynomials::Polynomial<double>, std::allocator<dealii::Polynomials::Polynomial<double> > >::_Vector_impl_data"*, !dbg !6777
  %_M_start = getelementptr inbounds %"struct.std::_Vector_base<dealii::Polynomials::Polynomial<double>, std::allocator<dealii::Polynomials::Polynomial<double> > >::_Vector_impl_data", %"struct.std::_Vector_base<dealii::Polynomials::Polynomial<double>, std::allocator<dealii::Polynomials::Polynomial<double> > >::_Vector_impl_data"* %4, i32 0, i32 0, !dbg !6778
  %5 = load %"class.dealii::Polynomials::Polynomial"*, %"class.dealii::Polynomials::Polynomial"** %_M_start, align 8, !dbg !6778
  %sub.ptr.lhs.cast = ptrtoint %"class.dealii::Polynomials::Polynomial"* %2 to i64, !dbg !6779
  %sub.ptr.rhs.cast = ptrtoint %"class.dealii::Polynomials::Polynomial"* %5 to i64, !dbg !6779
  %sub.ptr.sub = sub i64 %sub.ptr.lhs.cast, %sub.ptr.rhs.cast, !dbg !6779
  %sub.ptr.div = sdiv exact i64 %sub.ptr.sub, 96, !dbg !6779
  ret i64 %sub.ptr.div, !dbg !6780
}

; Function Attrs: noinline nounwind uwtable
define linkonce_odr dso_local i64 @_ZNKSt6vectorIdSaIdEE4sizeEv(%"class.std::vector.3"* %this) #2 comdat align 2 !dbg !6781 {
entry:
  %this.addr = alloca %"class.std::vector.3"*, align 8
  store %"class.std::vector.3"* %this, %"class.std::vector.3"** %this.addr, align 8
  call void @llvm.dbg.declare(metadata %"class.std::vector.3"** %this.addr, metadata !6782, metadata !DIExpression()), !dbg !6783
  %this1 = load %"class.std::vector.3"*, %"class.std::vector.3"** %this.addr, align 8
  %0 = bitcast %"class.std::vector.3"* %this1 to %"struct.std::_Vector_base.4"*, !dbg !6784
  %_M_impl = getelementptr inbounds %"struct.std::_Vector_base.4", %"struct.std::_Vector_base.4"* %0, i32 0, i32 0, !dbg !6784
  %1 = bitcast %"struct.std::_Vector_base<double, std::allocator<double> >::_Vector_impl"* %_M_impl to %"struct.std::_Vector_base<double, std::allocator<double> >::_Vector_impl_data"*, !dbg !6785
  %_M_finish = getelementptr inbounds %"struct.std::_Vector_base<double, std::allocator<double> >::_Vector_impl_data", %"struct.std::_Vector_base<double, std::allocator<double> >::_Vector_impl_data"* %1, i32 0, i32 1, !dbg !6786
  %2 = load double*, double** %_M_finish, align 8, !dbg !6786
  %3 = bitcast %"class.std::vector.3"* %this1 to %"struct.std::_Vector_base.4"*, !dbg !6787
  %_M_impl2 = getelementptr inbounds %"struct.std::_Vector_base.4", %"struct.std::_Vector_base.4"* %3, i32 0, i32 0, !dbg !6787
  %4 = bitcast %"struct.std::_Vector_base<double, std::allocator<double> >::_Vector_impl"* %_M_impl2 to %"struct.std::_Vector_base<double, std::allocator<double> >::_Vector_impl_data"*, !dbg !6788
  %_M_start = getelementptr inbounds %"struct.std::_Vector_base<double, std::allocator<double> >::_Vector_impl_data", %"struct.std::_Vector_base<double, std::allocator<double> >::_Vector_impl_data"* %4, i32 0, i32 0, !dbg !6789
  %5 = load double*, double** %_M_start, align 8, !dbg !6789
  %sub.ptr.lhs.cast = ptrtoint double* %2 to i64, !dbg !6790
  %sub.ptr.rhs.cast = ptrtoint double* %5 to i64, !dbg !6790
  %sub.ptr.sub = sub i64 %sub.ptr.lhs.cast, %sub.ptr.rhs.cast, !dbg !6790
  %sub.ptr.div = sdiv exact i64 %sub.ptr.sub, 8, !dbg !6790
  ret i64 %sub.ptr.div, !dbg !6791
}

; Function Attrs: noinline nounwind uwtable
define linkonce_odr dso_local i64 @_ZNKSt6vectorIN6dealii6TensorILi1ELi1EEESaIS2_EE4sizeEv(%"class.std::vector.13"* %this) #2 comdat align 2 !dbg !6792 {
entry:
  %this.addr = alloca %"class.std::vector.13"*, align 8
  store %"class.std::vector.13"* %this, %"class.std::vector.13"** %this.addr, align 8
  call void @llvm.dbg.declare(metadata %"class.std::vector.13"** %this.addr, metadata !6793, metadata !DIExpression()), !dbg !6795
  %this1 = load %"class.std::vector.13"*, %"class.std::vector.13"** %this.addr, align 8
  %0 = bitcast %"class.std::vector.13"* %this1 to %"struct.std::_Vector_base.14"*, !dbg !6796
  %_M_impl = getelementptr inbounds %"struct.std::_Vector_base.14", %"struct.std::_Vector_base.14"* %0, i32 0, i32 0, !dbg !6796
  %1 = bitcast %"struct.std::_Vector_base<dealii::Tensor<1, 1>, std::allocator<dealii::Tensor<1, 1> > >::_Vector_impl"* %_M_impl to %"struct.std::_Vector_base<dealii::Tensor<1, 1>, std::allocator<dealii::Tensor<1, 1> > >::_Vector_impl_data"*, !dbg !6797
  %_M_finish = getelementptr inbounds %"struct.std::_Vector_base<dealii::Tensor<1, 1>, std::allocator<dealii::Tensor<1, 1> > >::_Vector_impl_data", %"struct.std::_Vector_base<dealii::Tensor<1, 1>, std::allocator<dealii::Tensor<1, 1> > >::_Vector_impl_data"* %1, i32 0, i32 1, !dbg !6798
  %2 = load %"class.dealii::Tensor"*, %"class.dealii::Tensor"** %_M_finish, align 8, !dbg !6798
  %3 = bitcast %"class.std::vector.13"* %this1 to %"struct.std::_Vector_base.14"*, !dbg !6799
  %_M_impl2 = getelementptr inbounds %"struct.std::_Vector_base.14", %"struct.std::_Vector_base.14"* %3, i32 0, i32 0, !dbg !6799
  %4 = bitcast %"struct.std::_Vector_base<dealii::Tensor<1, 1>, std::allocator<dealii::Tensor<1, 1> > >::_Vector_impl"* %_M_impl2 to %"struct.std::_Vector_base<dealii::Tensor<1, 1>, std::allocator<dealii::Tensor<1, 1> > >::_Vector_impl_data"*, !dbg !6800
  %_M_start = getelementptr inbounds %"struct.std::_Vector_base<dealii::Tensor<1, 1>, std::allocator<dealii::Tensor<1, 1> > >::_Vector_impl_data", %"struct.std::_Vector_base<dealii::Tensor<1, 1>, std::allocator<dealii::Tensor<1, 1> > >::_Vector_impl_data"* %4, i32 0, i32 0, !dbg !6801
  %5 = load %"class.dealii::Tensor"*, %"class.dealii::Tensor"** %_M_start, align 8, !dbg !6801
  %sub.ptr.lhs.cast = ptrtoint %"class.dealii::Tensor"* %2 to i64, !dbg !6802
  %sub.ptr.rhs.cast = ptrtoint %"class.dealii::Tensor"* %5 to i64, !dbg !6802
  %sub.ptr.sub = sub i64 %sub.ptr.lhs.cast, %sub.ptr.rhs.cast, !dbg !6802
  %sub.ptr.div = sdiv exact i64 %sub.ptr.sub, 8, !dbg !6802
  ret i64 %sub.ptr.div, !dbg !6803
}

; Function Attrs: noinline nounwind uwtable
define linkonce_odr dso_local i64 @_ZNKSt6vectorIN6dealii6TensorILi2ELi1EEESaIS2_EE4sizeEv(%"class.std::vector.18"* %this) #2 comdat align 2 !dbg !6804 {
entry:
  %this.addr = alloca %"class.std::vector.18"*, align 8
  store %"class.std::vector.18"* %this, %"class.std::vector.18"** %this.addr, align 8
  call void @llvm.dbg.declare(metadata %"class.std::vector.18"** %this.addr, metadata !6805, metadata !DIExpression()), !dbg !6807
  %this1 = load %"class.std::vector.18"*, %"class.std::vector.18"** %this.addr, align 8
  %0 = bitcast %"class.std::vector.18"* %this1 to %"struct.std::_Vector_base.19"*, !dbg !6808
  %_M_impl = getelementptr inbounds %"struct.std::_Vector_base.19", %"struct.std::_Vector_base.19"* %0, i32 0, i32 0, !dbg !6808
  %1 = bitcast %"struct.std::_Vector_base<dealii::Tensor<2, 1>, std::allocator<dealii::Tensor<2, 1> > >::_Vector_impl"* %_M_impl to %"struct.std::_Vector_base<dealii::Tensor<2, 1>, std::allocator<dealii::Tensor<2, 1> > >::_Vector_impl_data"*, !dbg !6809
  %_M_finish = getelementptr inbounds %"struct.std::_Vector_base<dealii::Tensor<2, 1>, std::allocator<dealii::Tensor<2, 1> > >::_Vector_impl_data", %"struct.std::_Vector_base<dealii::Tensor<2, 1>, std::allocator<dealii::Tensor<2, 1> > >::_Vector_impl_data"* %1, i32 0, i32 1, !dbg !6810
  %2 = load %"class.dealii::Tensor.23"*, %"class.dealii::Tensor.23"** %_M_finish, align 8, !dbg !6810
  %3 = bitcast %"class.std::vector.18"* %this1 to %"struct.std::_Vector_base.19"*, !dbg !6811
  %_M_impl2 = getelementptr inbounds %"struct.std::_Vector_base.19", %"struct.std::_Vector_base.19"* %3, i32 0, i32 0, !dbg !6811
  %4 = bitcast %"struct.std::_Vector_base<dealii::Tensor<2, 1>, std::allocator<dealii::Tensor<2, 1> > >::_Vector_impl"* %_M_impl2 to %"struct.std::_Vector_base<dealii::Tensor<2, 1>, std::allocator<dealii::Tensor<2, 1> > >::_Vector_impl_data"*, !dbg !6812
  %_M_start = getelementptr inbounds %"struct.std::_Vector_base<dealii::Tensor<2, 1>, std::allocator<dealii::Tensor<2, 1> > >::_Vector_impl_data", %"struct.std::_Vector_base<dealii::Tensor<2, 1>, std::allocator<dealii::Tensor<2, 1> > >::_Vector_impl_data"* %4, i32 0, i32 0, !dbg !6813
  %5 = load %"class.dealii::Tensor.23"*, %"class.dealii::Tensor.23"** %_M_start, align 8, !dbg !6813
  %sub.ptr.lhs.cast = ptrtoint %"class.dealii::Tensor.23"* %2 to i64, !dbg !6814
  %sub.ptr.rhs.cast = ptrtoint %"class.dealii::Tensor.23"* %5 to i64, !dbg !6814
  %sub.ptr.sub = sub i64 %sub.ptr.lhs.cast, %sub.ptr.rhs.cast, !dbg !6814
  %sub.ptr.div = sdiv exact i64 %sub.ptr.sub, 8, !dbg !6814
  ret i64 %sub.ptr.div, !dbg !6815
}

; Function Attrs: noinline uwtable
define linkonce_odr dso_local void @_ZN6dealii5TableILi2ESt6vectorIdSaIdEEEC2Ejj(%"class.dealii::Table"* %this, i32 %size1, i32 %size2) unnamed_addr #0 comdat align 2 !dbg !6816 {
entry:
  %this.addr = alloca %"class.dealii::Table"*, align 8
  %size1.addr = alloca i32, align 4
  %size2.addr = alloca i32, align 4
  %ref.tmp = alloca %"class.dealii::TableIndices", align 4
  store %"class.dealii::Table"* %this, %"class.dealii::Table"** %this.addr, align 8
  call void @llvm.dbg.declare(metadata %"class.dealii::Table"** %this.addr, metadata !6817, metadata !DIExpression()), !dbg !6819
  store i32 %size1, i32* %size1.addr, align 4
  call void @llvm.dbg.declare(metadata i32* %size1.addr, metadata !6820, metadata !DIExpression()), !dbg !6821
  store i32 %size2, i32* %size2.addr, align 4
  call void @llvm.dbg.declare(metadata i32* %size2.addr, metadata !6822, metadata !DIExpression()), !dbg !6823
  %this1 = load %"class.dealii::Table"*, %"class.dealii::Table"** %this.addr, align 8
  %0 = bitcast %"class.dealii::Table"* %this1 to %"class.dealii::TableBase"*, !dbg !6824
  %1 = load i32, i32* %size1.addr, align 4, !dbg !6825
  %2 = load i32, i32* %size2.addr, align 4, !dbg !6826
  call void @_ZN6dealii12TableIndicesILi2EEC2Ejj(%"class.dealii::TableIndices"* %ref.tmp, i32 %1, i32 %2), !dbg !6827
  call void @_ZN6dealii9TableBaseILi2ESt6vectorIdSaIdEEEC2ERKNS_12TableIndicesILi2EEE(%"class.dealii::TableBase"* %0, %"class.dealii::TableIndices"* dereferenceable(8) %ref.tmp), !dbg !6828
  %3 = bitcast %"class.dealii::Table"* %this1 to i32 (...)***, !dbg !6824
  store i32 (...)** bitcast (i8** getelementptr inbounds ({ [4 x i8*] }, { [4 x i8*] }* @_ZTVN6dealii5TableILi2ESt6vectorIdSaIdEEEE, i32 0, inrange i32 0, i32 2) to i32 (...)**), i32 (...)*** %3, align 8, !dbg !6824
  ret void, !dbg !6829
}

; Function Attrs: noinline nounwind uwtable
define linkonce_odr dso_local dereferenceable(8) %"class.dealii::TableIndices"* @_ZNK6dealii9TableBaseILi2ESt6vectorIdSaIdEEE4sizeEv(%"class.dealii::TableBase"* %this) #2 comdat align 2 !dbg !6830 {
entry:
  %this.addr = alloca %"class.dealii::TableBase"*, align 8
  store %"class.dealii::TableBase"* %this, %"class.dealii::TableBase"** %this.addr, align 8
  call void @llvm.dbg.declare(metadata %"class.dealii::TableBase"** %this.addr, metadata !6831, metadata !DIExpression()), !dbg !6833
  %this1 = load %"class.dealii::TableBase"*, %"class.dealii::TableBase"** %this.addr, align 8
  %table_size = getelementptr inbounds %"class.dealii::TableBase", %"class.dealii::TableBase"* %this1, i32 0, i32 3, !dbg !6834
  ret %"class.dealii::TableIndices"* %table_size, !dbg !6835
}

declare dso_local i32 @__gxx_personality_v0(...)

; Function Attrs: noinline nounwind uwtable
define linkonce_odr dso_local i32 @_ZNK6dealii16TableIndicesBaseILi2EEixEj(%"class.dealii::TableIndicesBase"* %this, i32 %i) #2 comdat align 2 !dbg !6836 {
entry:
  %this.addr = alloca %"class.dealii::TableIndicesBase"*, align 8
  %i.addr = alloca i32, align 4
  store %"class.dealii::TableIndicesBase"* %this, %"class.dealii::TableIndicesBase"** %this.addr, align 8
  call void @llvm.dbg.declare(metadata %"class.dealii::TableIndicesBase"** %this.addr, metadata !6837, metadata !DIExpression()), !dbg !6839
  store i32 %i, i32* %i.addr, align 4
  call void @llvm.dbg.declare(metadata i32* %i.addr, metadata !6840, metadata !DIExpression()), !dbg !6841
  %this1 = load %"class.dealii::TableIndicesBase"*, %"class.dealii::TableIndicesBase"** %this.addr, align 8
  %indices = getelementptr inbounds %"class.dealii::TableIndicesBase", %"class.dealii::TableIndicesBase"* %this1, i32 0, i32 0, !dbg !6842
  %0 = load i32, i32* %i.addr, align 4, !dbg !6843
  %idxprom = zext i32 %0 to i64, !dbg !6842
  %arrayidx = getelementptr inbounds [2 x i32], [2 x i32]* %indices, i64 0, i64 %idxprom, !dbg !6842
  %1 = load i32, i32* %arrayidx, align 4, !dbg !6842
  ret i32 %1, !dbg !6844
}

; Function Attrs: noinline nounwind uwtable
define linkonce_odr dso_local dereferenceable(24) %"class.std::vector.3"* @_ZN6dealii5TableILi2ESt6vectorIdSaIdEEEclEjj(%"class.dealii::Table"* %this, i32 %i, i32 %j) #2 comdat align 2 !dbg !6845 {
entry:
  %this.addr = alloca %"class.dealii::Table"*, align 8
  %i.addr = alloca i32, align 4
  %j.addr = alloca i32, align 4
  store %"class.dealii::Table"* %this, %"class.dealii::Table"** %this.addr, align 8
  call void @llvm.dbg.declare(metadata %"class.dealii::Table"** %this.addr, metadata !6846, metadata !DIExpression()), !dbg !6847
  store i32 %i, i32* %i.addr, align 4
  call void @llvm.dbg.declare(metadata i32* %i.addr, metadata !6848, metadata !DIExpression()), !dbg !6849
  store i32 %j, i32* %j.addr, align 4
  call void @llvm.dbg.declare(metadata i32* %j.addr, metadata !6850, metadata !DIExpression()), !dbg !6851
  %this1 = load %"class.dealii::Table"*, %"class.dealii::Table"** %this.addr, align 8
  %0 = bitcast %"class.dealii::Table"* %this1 to %"class.dealii::TableBase"*, !dbg !6852
  %val = getelementptr inbounds %"class.dealii::TableBase", %"class.dealii::TableBase"* %0, i32 0, i32 1, !dbg !6852
  %1 = load %"class.std::vector.3"*, %"class.std::vector.3"** %val, align 8, !dbg !6852
  %2 = load i32, i32* %i.addr, align 4, !dbg !6853
  %3 = bitcast %"class.dealii::Table"* %this1 to %"class.dealii::TableBase"*, !dbg !6854
  %table_size = getelementptr inbounds %"class.dealii::TableBase", %"class.dealii::TableBase"* %3, i32 0, i32 3, !dbg !6854
  %4 = bitcast %"class.dealii::TableIndices"* %table_size to %"class.dealii::TableIndicesBase"*, !dbg !6855
  %call = call i32 @_ZNK6dealii16TableIndicesBaseILi2EEixEj(%"class.dealii::TableIndicesBase"* %4, i32 1), !dbg !6855
  %mul = mul i32 %2, %call, !dbg !6856
  %5 = load i32, i32* %j.addr, align 4, !dbg !6857
  %add = add i32 %mul, %5, !dbg !6858
  %idxprom = zext i32 %add to i64, !dbg !6859
  %arrayidx = getelementptr inbounds %"class.std::vector.3", %"class.std::vector.3"* %1, i64 %idxprom, !dbg !6859
  ret %"class.std::vector.3"* %arrayidx, !dbg !6860
}

; Function Attrs: noinline uwtable
define linkonce_odr dso_local void @_ZNSt6vectorIdSaIdEE6resizeEmRKd(%"class.std::vector.3"* %this, i64 %__new_size, double* dereferenceable(8) %__x) #0 comdat align 2 !dbg !6861 {
entry:
  %this.addr = alloca %"class.std::vector.3"*, align 8
  %__new_size.addr = alloca i64, align 8
  %__x.addr = alloca double*, align 8
  %agg.tmp = alloca %"class.__gnu_cxx::__normal_iterator.54", align 8
  store %"class.std::vector.3"* %this, %"class.std::vector.3"** %this.addr, align 8
  call void @llvm.dbg.declare(metadata %"class.std::vector.3"** %this.addr, metadata !6862, metadata !DIExpression()), !dbg !6863
  store i64 %__new_size, i64* %__new_size.addr, align 8
  call void @llvm.dbg.declare(metadata i64* %__new_size.addr, metadata !6864, metadata !DIExpression()), !dbg !6865
  store double* %__x, double** %__x.addr, align 8
  call void @llvm.dbg.declare(metadata double** %__x.addr, metadata !6866, metadata !DIExpression()), !dbg !6867
  %this1 = load %"class.std::vector.3"*, %"class.std::vector.3"** %this.addr, align 8
  %0 = load i64, i64* %__new_size.addr, align 8, !dbg !6868
  %call = call i64 @_ZNKSt6vectorIdSaIdEE4sizeEv(%"class.std::vector.3"* %this1) #11, !dbg !6870
  %cmp = icmp ugt i64 %0, %call, !dbg !6871
  br i1 %cmp, label %if.then, label %if.else, !dbg !6872

if.then:                                          ; preds = %entry
  %call2 = call double* @_ZNSt6vectorIdSaIdEE3endEv(%"class.std::vector.3"* %this1) #11, !dbg !6873
  %coerce.dive = getelementptr inbounds %"class.__gnu_cxx::__normal_iterator.54", %"class.__gnu_cxx::__normal_iterator.54"* %agg.tmp, i32 0, i32 0, !dbg !6873
  store double* %call2, double** %coerce.dive, align 8, !dbg !6873
  %1 = load i64, i64* %__new_size.addr, align 8, !dbg !6874
  %call3 = call i64 @_ZNKSt6vectorIdSaIdEE4sizeEv(%"class.std::vector.3"* %this1) #11, !dbg !6875
  %sub = sub i64 %1, %call3, !dbg !6876
  %2 = load double*, double** %__x.addr, align 8, !dbg !6877
  %coerce.dive4 = getelementptr inbounds %"class.__gnu_cxx::__normal_iterator.54", %"class.__gnu_cxx::__normal_iterator.54"* %agg.tmp, i32 0, i32 0, !dbg !6878
  %3 = load double*, double** %coerce.dive4, align 8, !dbg !6878
  call void @_ZNSt6vectorIdSaIdEE14_M_fill_insertEN9__gnu_cxx17__normal_iteratorIPdS1_EEmRKd(%"class.std::vector.3"* %this1, double* %3, i64 %sub, double* dereferenceable(8) %2), !dbg !6878
  br label %if.end8, !dbg !6878

if.else:                                          ; preds = %entry
  %4 = load i64, i64* %__new_size.addr, align 8, !dbg !6879
  %call5 = call i64 @_ZNKSt6vectorIdSaIdEE4sizeEv(%"class.std::vector.3"* %this1) #11, !dbg !6881
  %cmp6 = icmp ult i64 %4, %call5, !dbg !6882
  br i1 %cmp6, label %if.then7, label %if.end, !dbg !6883

if.then7:                                         ; preds = %if.else
  %5 = bitcast %"class.std::vector.3"* %this1 to %"struct.std::_Vector_base.4"*, !dbg !6884
  %_M_impl = getelementptr inbounds %"struct.std::_Vector_base.4", %"struct.std::_Vector_base.4"* %5, i32 0, i32 0, !dbg !6884
  %6 = bitcast %"struct.std::_Vector_base<double, std::allocator<double> >::_Vector_impl"* %_M_impl to %"struct.std::_Vector_base<double, std::allocator<double> >::_Vector_impl_data"*, !dbg !6885
  %_M_start = getelementptr inbounds %"struct.std::_Vector_base<double, std::allocator<double> >::_Vector_impl_data", %"struct.std::_Vector_base<double, std::allocator<double> >::_Vector_impl_data"* %6, i32 0, i32 0, !dbg !6886
  %7 = load double*, double** %_M_start, align 8, !dbg !6886
  %8 = load i64, i64* %__new_size.addr, align 8, !dbg !6887
  %add.ptr = getelementptr inbounds double, double* %7, i64 %8, !dbg !6888
  call void @_ZNSt6vectorIdSaIdEE15_M_erase_at_endEPd(%"class.std::vector.3"* %this1, double* %add.ptr) #11, !dbg !6889
  br label %if.end, !dbg !6889

if.end:                                           ; preds = %if.then7, %if.else
  br label %if.end8

if.end8:                                          ; preds = %if.end, %if.then
  ret void, !dbg !6890
}

; Function Attrs: noinline nounwind uwtable
define linkonce_odr dso_local dereferenceable(96) %"class.dealii::Polynomials::Polynomial"* @_ZNKSt6vectorIN6dealii11Polynomials10PolynomialIdEESaIS3_EEixEm(%"class.std::vector"* %this, i64 %__n) #2 comdat align 2 !dbg !6891 {
entry:
  %this.addr = alloca %"class.std::vector"*, align 8
  %__n.addr = alloca i64, align 8
  store %"class.std::vector"* %this, %"class.std::vector"** %this.addr, align 8
  call void @llvm.dbg.declare(metadata %"class.std::vector"** %this.addr, metadata !6892, metadata !DIExpression()), !dbg !6893
  store i64 %__n, i64* %__n.addr, align 8
  call void @llvm.dbg.declare(metadata i64* %__n.addr, metadata !6894, metadata !DIExpression()), !dbg !6895
  %this1 = load %"class.std::vector"*, %"class.std::vector"** %this.addr, align 8
  %0 = bitcast %"class.std::vector"* %this1 to %"struct.std::_Vector_base"*, !dbg !6896
  %_M_impl = getelementptr inbounds %"struct.std::_Vector_base", %"struct.std::_Vector_base"* %0, i32 0, i32 0, !dbg !6896
  %1 = bitcast %"struct.std::_Vector_base<dealii::Polynomials::Polynomial<double>, std::allocator<dealii::Polynomials::Polynomial<double> > >::_Vector_impl"* %_M_impl to %"struct.std::_Vector_base<dealii::Polynomials::Polynomial<double>, std::allocator<dealii::Polynomials::Polynomial<double> > >::_Vector_impl_data"*, !dbg !6897
  %_M_start = getelementptr inbounds %"struct.std::_Vector_base<dealii::Polynomials::Polynomial<double>, std::allocator<dealii::Polynomials::Polynomial<double> > >::_Vector_impl_data", %"struct.std::_Vector_base<dealii::Polynomials::Polynomial<double>, std::allocator<dealii::Polynomials::Polynomial<double> > >::_Vector_impl_data"* %1, i32 0, i32 0, !dbg !6898
  %2 = load %"class.dealii::Polynomials::Polynomial"*, %"class.dealii::Polynomials::Polynomial"** %_M_start, align 8, !dbg !6898
  %3 = load i64, i64* %__n.addr, align 8, !dbg !6899
  %add.ptr = getelementptr inbounds %"class.dealii::Polynomials::Polynomial", %"class.dealii::Polynomials::Polynomial"* %2, i64 %3, !dbg !6900
  ret %"class.dealii::Polynomials::Polynomial"* %add.ptr, !dbg !6901
}

declare dso_local void @_ZNK6dealii11Polynomials10PolynomialIdE5valueEdRSt6vectorIdSaIdEE(%"class.dealii::Polynomials::Polynomial"*, double, %"class.std::vector.3"* dereferenceable(24)) #3

; Function Attrs: noinline nounwind uwtable
define linkonce_odr dso_local double @_ZNK6dealii5PointILi1EEclEj(%"class.dealii::Point"* %this, i32 %index) #2 comdat align 2 !dbg !6902 {
entry:
  %this.addr = alloca %"class.dealii::Point"*, align 8
  %index.addr = alloca i32, align 4
  store %"class.dealii::Point"* %this, %"class.dealii::Point"** %this.addr, align 8
  call void @llvm.dbg.declare(metadata %"class.dealii::Point"** %this.addr, metadata !6903, metadata !DIExpression()), !dbg !6905
  store i32 %index, i32* %index.addr, align 4
  call void @llvm.dbg.declare(metadata i32* %index.addr, metadata !6906, metadata !DIExpression()), !dbg !6907
  %this1 = load %"class.dealii::Point"*, %"class.dealii::Point"** %this.addr, align 8
  %0 = bitcast %"class.dealii::Point"* %this1 to %"class.dealii::Tensor"*, !dbg !6908
  %values = getelementptr inbounds %"class.dealii::Tensor", %"class.dealii::Tensor"* %0, i32 0, i32 0, !dbg !6908
  %1 = load i32, i32* %index.addr, align 4, !dbg !6909
  %idxprom = zext i32 %1 to i64, !dbg !6910
  %arrayidx = getelementptr inbounds [1 x double], [1 x double]* %values, i64 0, i64 %idxprom, !dbg !6910
  %2 = load double, double* %arrayidx, align 8, !dbg !6910
  ret double %2, !dbg !6911
}

; Function Attrs: noinline uwtable
define linkonce_odr dso_local void @_ZN6dealii5TableILi2ESt6vectorIdSaIdEEEixEj(%"class.dealii::internal::TableBaseAccessors::Accessor"* noalias sret %agg.result, %"class.dealii::Table"* %this, i32 %i) #0 comdat align 2 !dbg !6912 {
entry:
  %result.ptr = alloca i8*, align 8
  %this.addr = alloca %"class.dealii::Table"*, align 8
  %i.addr = alloca i32, align 4
  %0 = bitcast %"class.dealii::internal::TableBaseAccessors::Accessor"* %agg.result to i8*
  store i8* %0, i8** %result.ptr, align 8
  store %"class.dealii::Table"* %this, %"class.dealii::Table"** %this.addr, align 8
  call void @llvm.dbg.declare(metadata %"class.dealii::Table"** %this.addr, metadata !6913, metadata !DIExpression()), !dbg !6914
  store i32 %i, i32* %i.addr, align 4
  call void @llvm.dbg.declare(metadata i32* %i.addr, metadata !6915, metadata !DIExpression()), !dbg !6916
  %this1 = load %"class.dealii::Table"*, %"class.dealii::Table"** %this.addr, align 8
  %1 = bitcast %"class.dealii::Table"* %this1 to %"class.dealii::TableBase"*, !dbg !6917
  %2 = bitcast %"class.dealii::Table"* %this1 to %"class.dealii::TableBase"*, !dbg !6918
  %val = getelementptr inbounds %"class.dealii::TableBase", %"class.dealii::TableBase"* %2, i32 0, i32 1, !dbg !6918
  %3 = load %"class.std::vector.3"*, %"class.std::vector.3"** %val, align 8, !dbg !6918
  %4 = load i32, i32* %i.addr, align 4, !dbg !6919
  %call = call i32 @_ZNK6dealii5TableILi2ESt6vectorIdSaIdEEE6n_colsEv(%"class.dealii::Table"* %this1), !dbg !6920
  %mul = mul i32 %4, %call, !dbg !6921
  %idx.ext = zext i32 %mul to i64, !dbg !6922
  %add.ptr = getelementptr inbounds %"class.std::vector.3", %"class.std::vector.3"* %3, i64 %idx.ext, !dbg !6922
  call void @_ZN6dealii8internal18TableBaseAccessors8AccessorILi2ESt6vectorIdSaIdEELb0ELj1EEC2ERKNS_9TableBaseILi2ES5_EEPS5_(%"class.dealii::internal::TableBaseAccessors::Accessor"* %agg.result, %"class.dealii::TableBase"* dereferenceable(96) %1, %"class.std::vector.3"* %add.ptr), !dbg !6923
  ret void, !dbg !6924
}

; Function Attrs: noinline nounwind uwtable
define linkonce_odr dso_local dereferenceable(24) %"class.std::vector.3"* @_ZNK6dealii8internal18TableBaseAccessors8AccessorILi2ESt6vectorIdSaIdEELb0ELj1EEixEj(%"class.dealii::internal::TableBaseAccessors::Accessor"* %this, i32 %i) #2 comdat align 2 !dbg !6925 {
entry:
  %this.addr = alloca %"class.dealii::internal::TableBaseAccessors::Accessor"*, align 8
  %i.addr = alloca i32, align 4
  store %"class.dealii::internal::TableBaseAccessors::Accessor"* %this, %"class.dealii::internal::TableBaseAccessors::Accessor"** %this.addr, align 8
  call void @llvm.dbg.declare(metadata %"class.dealii::internal::TableBaseAccessors::Accessor"** %this.addr, metadata !6926, metadata !DIExpression()), !dbg !6928
  store i32 %i, i32* %i.addr, align 4
  call void @llvm.dbg.declare(metadata i32* %i.addr, metadata !6929, metadata !DIExpression()), !dbg !6930
  %this1 = load %"class.dealii::internal::TableBaseAccessors::Accessor"*, %"class.dealii::internal::TableBaseAccessors::Accessor"** %this.addr, align 8
  %data = getelementptr inbounds %"class.dealii::internal::TableBaseAccessors::Accessor", %"class.dealii::internal::TableBaseAccessors::Accessor"* %this1, i32 0, i32 1, !dbg !6931
  %0 = load %"class.std::vector.3"*, %"class.std::vector.3"** %data, align 8, !dbg !6931
  %1 = load i32, i32* %i.addr, align 4, !dbg !6932
  %idxprom = zext i32 %1 to i64, !dbg !6931
  %arrayidx = getelementptr inbounds %"class.std::vector.3", %"class.std::vector.3"* %0, i64 %idxprom, !dbg !6931
  ret %"class.std::vector.3"* %arrayidx, !dbg !6933
}

; Function Attrs: noinline nounwind uwtable
define linkonce_odr dso_local dereferenceable(8) double* @_ZNSt6vectorIdSaIdEEixEm(%"class.std::vector.3"* %this, i64 %__n) #2 comdat align 2 !dbg !6934 {
entry:
  %this.addr = alloca %"class.std::vector.3"*, align 8
  %__n.addr = alloca i64, align 8
  store %"class.std::vector.3"* %this, %"class.std::vector.3"** %this.addr, align 8
  call void @llvm.dbg.declare(metadata %"class.std::vector.3"** %this.addr, metadata !6935, metadata !DIExpression()), !dbg !6936
  store i64 %__n, i64* %__n.addr, align 8
  call void @llvm.dbg.declare(metadata i64* %__n.addr, metadata !6937, metadata !DIExpression()), !dbg !6938
  %this1 = load %"class.std::vector.3"*, %"class.std::vector.3"** %this.addr, align 8
  %0 = bitcast %"class.std::vector.3"* %this1 to %"struct.std::_Vector_base.4"*, !dbg !6939
  %_M_impl = getelementptr inbounds %"struct.std::_Vector_base.4", %"struct.std::_Vector_base.4"* %0, i32 0, i32 0, !dbg !6939
  %1 = bitcast %"struct.std::_Vector_base<double, std::allocator<double> >::_Vector_impl"* %_M_impl to %"struct.std::_Vector_base<double, std::allocator<double> >::_Vector_impl_data"*, !dbg !6940
  %_M_start = getelementptr inbounds %"struct.std::_Vector_base<double, std::allocator<double> >::_Vector_impl_data", %"struct.std::_Vector_base<double, std::allocator<double> >::_Vector_impl_data"* %1, i32 0, i32 0, !dbg !6941
  %2 = load double*, double** %_M_start, align 8, !dbg !6941
  %3 = load i64, i64* %__n.addr, align 8, !dbg !6942
  %add.ptr = getelementptr inbounds double, double* %2, i64 %3, !dbg !6943
  ret double* %add.ptr, !dbg !6944
}

; Function Attrs: noinline nounwind uwtable
define linkonce_odr dso_local dereferenceable(4) i32* @_ZNKSt6vectorIjSaIjEEixEm(%"class.std::vector.8"* %this, i64 %__n) #2 comdat align 2 !dbg !6945 {
entry:
  %this.addr = alloca %"class.std::vector.8"*, align 8
  %__n.addr = alloca i64, align 8
  store %"class.std::vector.8"* %this, %"class.std::vector.8"** %this.addr, align 8
  call void @llvm.dbg.declare(metadata %"class.std::vector.8"** %this.addr, metadata !6946, metadata !DIExpression()), !dbg !6947
  store i64 %__n, i64* %__n.addr, align 8
  call void @llvm.dbg.declare(metadata i64* %__n.addr, metadata !6948, metadata !DIExpression()), !dbg !6949
  %this1 = load %"class.std::vector.8"*, %"class.std::vector.8"** %this.addr, align 8
  %0 = bitcast %"class.std::vector.8"* %this1 to %"struct.std::_Vector_base.9"*, !dbg !6950
  %_M_impl = getelementptr inbounds %"struct.std::_Vector_base.9", %"struct.std::_Vector_base.9"* %0, i32 0, i32 0, !dbg !6950
  %1 = bitcast %"struct.std::_Vector_base<unsigned int, std::allocator<unsigned int> >::_Vector_impl"* %_M_impl to %"struct.std::_Vector_base<unsigned int, std::allocator<unsigned int> >::_Vector_impl_data"*, !dbg !6951
  %_M_start = getelementptr inbounds %"struct.std::_Vector_base<unsigned int, std::allocator<unsigned int> >::_Vector_impl_data", %"struct.std::_Vector_base<unsigned int, std::allocator<unsigned int> >::_Vector_impl_data"* %1, i32 0, i32 0, !dbg !6952
  %2 = load i32*, i32** %_M_start, align 8, !dbg !6952
  %3 = load i64, i64* %__n.addr, align 8, !dbg !6953
  %add.ptr = getelementptr inbounds i32, i32* %2, i64 %3, !dbg !6954
  ret i32* %add.ptr, !dbg !6955
}

; Function Attrs: noinline nounwind uwtable
define linkonce_odr dso_local dereferenceable(8) %"class.dealii::Tensor"* @_ZNSt6vectorIN6dealii6TensorILi1ELi1EEESaIS2_EEixEm(%"class.std::vector.13"* %this, i64 %__n) #2 comdat align 2 !dbg !6956 {
entry:
  %this.addr = alloca %"class.std::vector.13"*, align 8
  %__n.addr = alloca i64, align 8
  store %"class.std::vector.13"* %this, %"class.std::vector.13"** %this.addr, align 8
  call void @llvm.dbg.declare(metadata %"class.std::vector.13"** %this.addr, metadata !6957, metadata !DIExpression()), !dbg !6959
  store i64 %__n, i64* %__n.addr, align 8
  call void @llvm.dbg.declare(metadata i64* %__n.addr, metadata !6960, metadata !DIExpression()), !dbg !6961
  %this1 = load %"class.std::vector.13"*, %"class.std::vector.13"** %this.addr, align 8
  %0 = bitcast %"class.std::vector.13"* %this1 to %"struct.std::_Vector_base.14"*, !dbg !6962
  %_M_impl = getelementptr inbounds %"struct.std::_Vector_base.14", %"struct.std::_Vector_base.14"* %0, i32 0, i32 0, !dbg !6962
  %1 = bitcast %"struct.std::_Vector_base<dealii::Tensor<1, 1>, std::allocator<dealii::Tensor<1, 1> > >::_Vector_impl"* %_M_impl to %"struct.std::_Vector_base<dealii::Tensor<1, 1>, std::allocator<dealii::Tensor<1, 1> > >::_Vector_impl_data"*, !dbg !6963
  %_M_start = getelementptr inbounds %"struct.std::_Vector_base<dealii::Tensor<1, 1>, std::allocator<dealii::Tensor<1, 1> > >::_Vector_impl_data", %"struct.std::_Vector_base<dealii::Tensor<1, 1>, std::allocator<dealii::Tensor<1, 1> > >::_Vector_impl_data"* %1, i32 0, i32 0, !dbg !6964
  %2 = load %"class.dealii::Tensor"*, %"class.dealii::Tensor"** %_M_start, align 8, !dbg !6964
  %3 = load i64, i64* %__n.addr, align 8, !dbg !6965
  %add.ptr = getelementptr inbounds %"class.dealii::Tensor", %"class.dealii::Tensor"* %2, i64 %3, !dbg !6966
  ret %"class.dealii::Tensor"* %add.ptr, !dbg !6967
}

; Function Attrs: noinline nounwind uwtable
define linkonce_odr dso_local dereferenceable(8) double* @_ZN6dealii6TensorILi1ELi1EEixEj(%"class.dealii::Tensor"* %this, i32 %index) #2 comdat align 2 !dbg !6968 {
entry:
  %this.addr = alloca %"class.dealii::Tensor"*, align 8
  %index.addr = alloca i32, align 4
  store %"class.dealii::Tensor"* %this, %"class.dealii::Tensor"** %this.addr, align 8
  call void @llvm.dbg.declare(metadata %"class.dealii::Tensor"** %this.addr, metadata !6969, metadata !DIExpression()), !dbg !6970
  store i32 %index, i32* %index.addr, align 4
  call void @llvm.dbg.declare(metadata i32* %index.addr, metadata !6971, metadata !DIExpression()), !dbg !6972
  %this1 = load %"class.dealii::Tensor"*, %"class.dealii::Tensor"** %this.addr, align 8
  %values = getelementptr inbounds %"class.dealii::Tensor", %"class.dealii::Tensor"* %this1, i32 0, i32 0, !dbg !6973
  %0 = load i32, i32* %index.addr, align 4, !dbg !6974
  %idxprom = zext i32 %0 to i64, !dbg !6973
  %arrayidx = getelementptr inbounds [1 x double], [1 x double]* %values, i64 0, i64 %idxprom, !dbg !6973
  ret double* %arrayidx, !dbg !6975
}

; Function Attrs: noinline nounwind uwtable
define linkonce_odr dso_local dereferenceable(8) %"class.dealii::Tensor.23"* @_ZNSt6vectorIN6dealii6TensorILi2ELi1EEESaIS2_EEixEm(%"class.std::vector.18"* %this, i64 %__n) #2 comdat align 2 !dbg !6976 {
entry:
  %this.addr = alloca %"class.std::vector.18"*, align 8
  %__n.addr = alloca i64, align 8
  store %"class.std::vector.18"* %this, %"class.std::vector.18"** %this.addr, align 8
  call void @llvm.dbg.declare(metadata %"class.std::vector.18"** %this.addr, metadata !6977, metadata !DIExpression()), !dbg !6979
  store i64 %__n, i64* %__n.addr, align 8
  call void @llvm.dbg.declare(metadata i64* %__n.addr, metadata !6980, metadata !DIExpression()), !dbg !6981
  %this1 = load %"class.std::vector.18"*, %"class.std::vector.18"** %this.addr, align 8
  %0 = bitcast %"class.std::vector.18"* %this1 to %"struct.std::_Vector_base.19"*, !dbg !6982
  %_M_impl = getelementptr inbounds %"struct.std::_Vector_base.19", %"struct.std::_Vector_base.19"* %0, i32 0, i32 0, !dbg !6982
  %1 = bitcast %"struct.std::_Vector_base<dealii::Tensor<2, 1>, std::allocator<dealii::Tensor<2, 1> > >::_Vector_impl"* %_M_impl to %"struct.std::_Vector_base<dealii::Tensor<2, 1>, std::allocator<dealii::Tensor<2, 1> > >::_Vector_impl_data"*, !dbg !6983
  %_M_start = getelementptr inbounds %"struct.std::_Vector_base<dealii::Tensor<2, 1>, std::allocator<dealii::Tensor<2, 1> > >::_Vector_impl_data", %"struct.std::_Vector_base<dealii::Tensor<2, 1>, std::allocator<dealii::Tensor<2, 1> > >::_Vector_impl_data"* %1, i32 0, i32 0, !dbg !6984
  %2 = load %"class.dealii::Tensor.23"*, %"class.dealii::Tensor.23"** %_M_start, align 8, !dbg !6984
  %3 = load i64, i64* %__n.addr, align 8, !dbg !6985
  %add.ptr = getelementptr inbounds %"class.dealii::Tensor.23", %"class.dealii::Tensor.23"* %2, i64 %3, !dbg !6986
  ret %"class.dealii::Tensor.23"* %add.ptr, !dbg !6987
}

; Function Attrs: noinline nounwind uwtable
define linkonce_odr dso_local dereferenceable(8) %"class.dealii::Tensor"* @_ZN6dealii6TensorILi2ELi1EEixEj(%"class.dealii::Tensor.23"* %this, i32 %i) #2 comdat align 2 !dbg !6988 {
entry:
  %this.addr = alloca %"class.dealii::Tensor.23"*, align 8
  %i.addr = alloca i32, align 4
  store %"class.dealii::Tensor.23"* %this, %"class.dealii::Tensor.23"** %this.addr, align 8
  call void @llvm.dbg.declare(metadata %"class.dealii::Tensor.23"** %this.addr, metadata !6989, metadata !DIExpression()), !dbg !6990
  store i32 %i, i32* %i.addr, align 4
  call void @llvm.dbg.declare(metadata i32* %i.addr, metadata !6991, metadata !DIExpression()), !dbg !6992
  %this1 = load %"class.dealii::Tensor.23"*, %"class.dealii::Tensor.23"** %this.addr, align 8
  %subtensor = getelementptr inbounds %"class.dealii::Tensor.23", %"class.dealii::Tensor.23"* %this1, i32 0, i32 0, !dbg !6993
  %0 = load i32, i32* %i.addr, align 4, !dbg !6994
  %idxprom = zext i32 %0 to i64, !dbg !6993
  %arrayidx = getelementptr inbounds [1 x %"class.dealii::Tensor"], [1 x %"class.dealii::Tensor"]* %subtensor, i64 0, i64 %idxprom, !dbg !6993
  ret %"class.dealii::Tensor"* %arrayidx, !dbg !6995
}

; Function Attrs: noinline nounwind uwtable
define linkonce_odr dso_local void @_ZN6dealii5TableILi2ESt6vectorIdSaIdEEED2Ev(%"class.dealii::Table"* %this) unnamed_addr #2 comdat align 2 !dbg !6996 {
entry:
  %this.addr = alloca %"class.dealii::Table"*, align 8
  store %"class.dealii::Table"* %this, %"class.dealii::Table"** %this.addr, align 8
  call void @llvm.dbg.declare(metadata %"class.dealii::Table"** %this.addr, metadata !6998, metadata !DIExpression()), !dbg !6999
  %this1 = load %"class.dealii::Table"*, %"class.dealii::Table"** %this.addr, align 8
  %0 = bitcast %"class.dealii::Table"* %this1 to %"class.dealii::TableBase"*, !dbg !7000
  call void @_ZN6dealii9TableBaseILi2ESt6vectorIdSaIdEEED2Ev(%"class.dealii::TableBase"* %0) #11, !dbg !7000
  ret void, !dbg !7002
}

; Function Attrs: noinline uwtable
define weak_odr dso_local double @_ZNK6dealii15PolynomialSpaceILi1EE13compute_valueEjRKNS_5PointILi1EEE(%"class.dealii::PolynomialSpace"* %this, i32 %i, %"class.dealii::Point"* dereferenceable(8) %p) #0 comdat align 2 !dbg !7003 {
entry:
  %this.addr = alloca %"class.dealii::PolynomialSpace"*, align 8
  %i.addr = alloca i32, align 4
  %p.addr = alloca %"class.dealii::Point"*, align 8
  %ix = alloca [1 x i32], align 4
  %result = alloca double, align 8
  %d = alloca i32, align 4
  store %"class.dealii::PolynomialSpace"* %this, %"class.dealii::PolynomialSpace"** %this.addr, align 8
  call void @llvm.dbg.declare(metadata %"class.dealii::PolynomialSpace"** %this.addr, metadata !7004, metadata !DIExpression()), !dbg !7005
  store i32 %i, i32* %i.addr, align 4
  call void @llvm.dbg.declare(metadata i32* %i.addr, metadata !7006, metadata !DIExpression()), !dbg !7007
  store %"class.dealii::Point"* %p, %"class.dealii::Point"** %p.addr, align 8
  call void @llvm.dbg.declare(metadata %"class.dealii::Point"** %p.addr, metadata !7008, metadata !DIExpression()), !dbg !7009
  %this1 = load %"class.dealii::PolynomialSpace"*, %"class.dealii::PolynomialSpace"** %this.addr, align 8
  call void @llvm.dbg.declare(metadata [1 x i32]* %ix, metadata !7010, metadata !DIExpression()), !dbg !7011
  %0 = load i32, i32* %i.addr, align 4, !dbg !7012
  call void @_ZNK6dealii15PolynomialSpaceILi1EE13compute_indexEjRA1_j(%"class.dealii::PolynomialSpace"* %this1, i32 %0, [1 x i32]* dereferenceable(4) %ix), !dbg !7013
  call void @llvm.dbg.declare(metadata double* %result, metadata !7014, metadata !DIExpression()), !dbg !7015
  store double 1.000000e+00, double* %result, align 8, !dbg !7015
  call void @llvm.dbg.declare(metadata i32* %d, metadata !7016, metadata !DIExpression()), !dbg !7018
  store i32 0, i32* %d, align 4, !dbg !7018
  br label %for.cond, !dbg !7019

for.cond:                                         ; preds = %for.inc, %entry
  %1 = load i32, i32* %d, align 4, !dbg !7020
  %cmp = icmp ult i32 %1, 1, !dbg !7022
  br i1 %cmp, label %for.body, label %for.end, !dbg !7023

for.body:                                         ; preds = %for.cond
  %polynomials = getelementptr inbounds %"class.dealii::PolynomialSpace", %"class.dealii::PolynomialSpace"* %this1, i32 0, i32 0, !dbg !7024
  %2 = load i32, i32* %d, align 4, !dbg !7025
  %idxprom = zext i32 %2 to i64, !dbg !7026
  %arrayidx = getelementptr inbounds [1 x i32], [1 x i32]* %ix, i64 0, i64 %idxprom, !dbg !7026
  %3 = load i32, i32* %arrayidx, align 4, !dbg !7026
  %conv = zext i32 %3 to i64, !dbg !7026
  %call = call dereferenceable(96) %"class.dealii::Polynomials::Polynomial"* @_ZNKSt6vectorIN6dealii11Polynomials10PolynomialIdEESaIS3_EEixEm(%"class.std::vector"* %polynomials, i64 %conv) #11, !dbg !7024
  %4 = load %"class.dealii::Point"*, %"class.dealii::Point"** %p.addr, align 8, !dbg !7027
  %5 = load i32, i32* %d, align 4, !dbg !7028
  %call2 = call double @_ZNK6dealii5PointILi1EEclEj(%"class.dealii::Point"* %4, i32 %5), !dbg !7027
  %call3 = call double @_ZNK6dealii11Polynomials10PolynomialIdE5valueEd(%"class.dealii::Polynomials::Polynomial"* %call, double %call2), !dbg !7029
  %6 = load double, double* %result, align 8, !dbg !7030
  %mul = fmul double %6, %call3, !dbg !7030
  store double %mul, double* %result, align 8, !dbg !7030
  br label %for.inc, !dbg !7031

for.inc:                                          ; preds = %for.body
  %7 = load i32, i32* %d, align 4, !dbg !7032
  %inc = add i32 %7, 1, !dbg !7032
  store i32 %inc, i32* %d, align 4, !dbg !7032
  br label %for.cond, !dbg !7033, !llvm.loop !7034

for.end:                                          ; preds = %for.cond
  %8 = load double, double* %result, align 8, !dbg !7036
  ret double %8, !dbg !7037
}

; Function Attrs: noinline nounwind uwtable
define dso_local void @_ZNK6dealii15PolynomialSpaceILi1EE13compute_indexEjRA1_j(%"class.dealii::PolynomialSpace"* %this, i32 %i, [1 x i32]* dereferenceable(4) %index) #2 align 2 !dbg !7038 {
entry:
  %this.addr = alloca %"class.dealii::PolynomialSpace"*, align 8
  %i.addr = alloca i32, align 4
  %index.addr = alloca [1 x i32]*, align 8
  %n = alloca i32, align 4
  store %"class.dealii::PolynomialSpace"* %this, %"class.dealii::PolynomialSpace"** %this.addr, align 8
  call void @llvm.dbg.declare(metadata %"class.dealii::PolynomialSpace"** %this.addr, metadata !7039, metadata !DIExpression()), !dbg !7040
  store i32 %i, i32* %i.addr, align 4
  call void @llvm.dbg.declare(metadata i32* %i.addr, metadata !7041, metadata !DIExpression()), !dbg !7042
  store [1 x i32]* %index, [1 x i32]** %index.addr, align 8
  call void @llvm.dbg.declare(metadata [1 x i32]** %index.addr, metadata !7043, metadata !DIExpression()), !dbg !7044
  %this1 = load %"class.dealii::PolynomialSpace"*, %"class.dealii::PolynomialSpace"** %this.addr, align 8
  call void @llvm.dbg.declare(metadata i32* %n, metadata !7045, metadata !DIExpression()), !dbg !7046
  %index_map = getelementptr inbounds %"class.dealii::PolynomialSpace", %"class.dealii::PolynomialSpace"* %this1, i32 0, i32 2, !dbg !7047
  %0 = load i32, i32* %i.addr, align 4, !dbg !7048
  %conv = zext i32 %0 to i64, !dbg !7048
  %call = call dereferenceable(4) i32* @_ZNKSt6vectorIjSaIjEEixEm(%"class.std::vector.8"* %index_map, i64 %conv) #11, !dbg !7047
  %1 = load i32, i32* %call, align 4, !dbg !7047
  store i32 %1, i32* %n, align 4, !dbg !7046
  %2 = load i32, i32* %n, align 4, !dbg !7049
  %3 = load [1 x i32]*, [1 x i32]** %index.addr, align 8, !dbg !7050
  %arrayidx = getelementptr inbounds [1 x i32], [1 x i32]* %3, i64 0, i64 0, !dbg !7050
  store i32 %2, i32* %arrayidx, align 4, !dbg !7051
  ret void, !dbg !7052
}

declare dso_local double @_ZNK6dealii11Polynomials10PolynomialIdE5valueEd(%"class.dealii::Polynomials::Polynomial"*, double) #3

; Function Attrs: noinline uwtable
define weak_odr dso_local void @_ZNK6dealii15PolynomialSpaceILi1EE12compute_gradEjRKNS_5PointILi1EEE(%"class.dealii::Tensor"* noalias sret %agg.result, %"class.dealii::PolynomialSpace"* %this, i32 %i, %"class.dealii::Point"* dereferenceable(8) %p) #0 comdat align 2 personality i8* bitcast (i32 (...)* @__gxx_personality_v0 to i8*) !dbg !7053 {
entry:
  %result.ptr = alloca i8*, align 8
  %this.addr = alloca %"class.dealii::PolynomialSpace"*, align 8
  %i.addr = alloca i32, align 4
  %p.addr = alloca %"class.dealii::Point"*, align 8
  %ix = alloca [1 x i32], align 4
  %d = alloca i32, align 4
  %v = alloca %"class.std::vector.3", align 8
  %ref.tmp = alloca %"class.std::allocator.5", align 1
  %exn.slot = alloca i8*
  %ehselector.slot = alloca i32
  %d2 = alloca i32, align 4
  %d1 = alloca i32, align 4
  %0 = bitcast %"class.dealii::Tensor"* %agg.result to i8*
  store i8* %0, i8** %result.ptr, align 8
  store %"class.dealii::PolynomialSpace"* %this, %"class.dealii::PolynomialSpace"** %this.addr, align 8
  call void @llvm.dbg.declare(metadata %"class.dealii::PolynomialSpace"** %this.addr, metadata !7054, metadata !DIExpression()), !dbg !7055
  store i32 %i, i32* %i.addr, align 4
  call void @llvm.dbg.declare(metadata i32* %i.addr, metadata !7056, metadata !DIExpression()), !dbg !7057
  store %"class.dealii::Point"* %p, %"class.dealii::Point"** %p.addr, align 8
  call void @llvm.dbg.declare(metadata %"class.dealii::Point"** %p.addr, metadata !7058, metadata !DIExpression()), !dbg !7059
  %this1 = load %"class.dealii::PolynomialSpace"*, %"class.dealii::PolynomialSpace"** %this.addr, align 8
  call void @llvm.dbg.declare(metadata [1 x i32]* %ix, metadata !7060, metadata !DIExpression()), !dbg !7061
  %1 = load i32, i32* %i.addr, align 4, !dbg !7062
  call void @_ZNK6dealii15PolynomialSpaceILi1EE13compute_indexEjRA1_j(%"class.dealii::PolynomialSpace"* %this1, i32 %1, [1 x i32]* dereferenceable(4) %ix), !dbg !7063
  call void @llvm.dbg.declare(metadata i8** %result.ptr, metadata !7064, metadata !DIExpression(DW_OP_deref)), !dbg !7065
  call void @_ZN6dealii6TensorILi1ELi1EEC2Eb(%"class.dealii::Tensor"* %agg.result, i1 zeroext true), !dbg !7065
  call void @llvm.dbg.declare(metadata i32* %d, metadata !7066, metadata !DIExpression()), !dbg !7068
  store i32 0, i32* %d, align 4, !dbg !7068
  br label %for.cond, !dbg !7069

for.cond:                                         ; preds = %for.inc, %entry
  %2 = load i32, i32* %d, align 4, !dbg !7070
  %cmp = icmp ult i32 %2, 1, !dbg !7072
  br i1 %cmp, label %for.body, label %for.end, !dbg !7073

for.body:                                         ; preds = %for.cond
  %3 = load i32, i32* %d, align 4, !dbg !7074
  %call = call dereferenceable(8) double* @_ZN6dealii6TensorILi1ELi1EEixEj(%"class.dealii::Tensor"* %agg.result, i32 %3), !dbg !7075
  store double 1.000000e+00, double* %call, align 8, !dbg !7076
  br label %for.inc, !dbg !7075

for.inc:                                          ; preds = %for.body
  %4 = load i32, i32* %d, align 4, !dbg !7077
  %inc = add i32 %4, 1, !dbg !7077
  store i32 %inc, i32* %d, align 4, !dbg !7077
  br label %for.cond, !dbg !7078, !llvm.loop !7079

for.end:                                          ; preds = %for.cond
  call void @llvm.dbg.declare(metadata %"class.std::vector.3"* %v, metadata !7081, metadata !DIExpression()), !dbg !7082
  call void @_ZNSaIdEC2Ev(%"class.std::allocator.5"* %ref.tmp) #11, !dbg !7082
  invoke void @_ZNSt6vectorIdSaIdEEC2EmRKS0_(%"class.std::vector.3"* %v, i64 2, %"class.std::allocator.5"* dereferenceable(1) %ref.tmp)
          to label %invoke.cont unwind label %lpad, !dbg !7082

invoke.cont:                                      ; preds = %for.end
  call void @_ZNSaIdED2Ev(%"class.std::allocator.5"* %ref.tmp) #11, !dbg !7082
  call void @llvm.dbg.declare(metadata i32* %d2, metadata !7083, metadata !DIExpression()), !dbg !7085
  store i32 0, i32* %d2, align 4, !dbg !7085
  br label %for.cond3, !dbg !7086

for.cond3:                                        ; preds = %for.inc25, %invoke.cont
  %5 = load i32, i32* %d2, align 4, !dbg !7087
  %cmp4 = icmp ult i32 %5, 1, !dbg !7089
  br i1 %cmp4, label %for.body5, label %for.end27, !dbg !7090

for.body5:                                        ; preds = %for.cond3
  %polynomials = getelementptr inbounds %"class.dealii::PolynomialSpace", %"class.dealii::PolynomialSpace"* %this1, i32 0, i32 0, !dbg !7091
  %6 = load i32, i32* %d2, align 4, !dbg !7093
  %idxprom = zext i32 %6 to i64, !dbg !7094
  %arrayidx = getelementptr inbounds [1 x i32], [1 x i32]* %ix, i64 0, i64 %idxprom, !dbg !7094
  %7 = load i32, i32* %arrayidx, align 4, !dbg !7094
  %conv = zext i32 %7 to i64, !dbg !7094
  %call6 = call dereferenceable(96) %"class.dealii::Polynomials::Polynomial"* @_ZNKSt6vectorIN6dealii11Polynomials10PolynomialIdEESaIS3_EEixEm(%"class.std::vector"* %polynomials, i64 %conv) #11, !dbg !7091
  %8 = load %"class.dealii::Point"*, %"class.dealii::Point"** %p.addr, align 8, !dbg !7095
  %9 = load i32, i32* %d2, align 4, !dbg !7096
  %call9 = invoke double @_ZNK6dealii5PointILi1EEclEj(%"class.dealii::Point"* %8, i32 %9)
          to label %invoke.cont8 unwind label %lpad7, !dbg !7095

invoke.cont8:                                     ; preds = %for.body5
  invoke void @_ZNK6dealii11Polynomials10PolynomialIdE5valueEdRSt6vectorIdSaIdEE(%"class.dealii::Polynomials::Polynomial"* %call6, double %call9, %"class.std::vector.3"* dereferenceable(24) %v)
          to label %invoke.cont10 unwind label %lpad7, !dbg !7097

invoke.cont10:                                    ; preds = %invoke.cont8
  %call11 = call dereferenceable(8) double* @_ZNSt6vectorIdSaIdEEixEm(%"class.std::vector.3"* %v, i64 1) #11, !dbg !7098
  %10 = load double, double* %call11, align 8, !dbg !7098
  %11 = load i32, i32* %d2, align 4, !dbg !7099
  %call13 = invoke dereferenceable(8) double* @_ZN6dealii6TensorILi1ELi1EEixEj(%"class.dealii::Tensor"* %agg.result, i32 %11)
          to label %invoke.cont12 unwind label %lpad7, !dbg !7100

invoke.cont12:                                    ; preds = %invoke.cont10
  %12 = load double, double* %call13, align 8, !dbg !7101
  %mul = fmul double %12, %10, !dbg !7101
  store double %mul, double* %call13, align 8, !dbg !7101
  call void @llvm.dbg.declare(metadata i32* %d1, metadata !7102, metadata !DIExpression()), !dbg !7104
  store i32 0, i32* %d1, align 4, !dbg !7104
  br label %for.cond14, !dbg !7105

for.cond14:                                       ; preds = %for.inc22, %invoke.cont12
  %13 = load i32, i32* %d1, align 4, !dbg !7106
  %cmp15 = icmp ult i32 %13, 1, !dbg !7108
  br i1 %cmp15, label %for.body16, label %for.end24, !dbg !7109

for.body16:                                       ; preds = %for.cond14
  %14 = load i32, i32* %d1, align 4, !dbg !7110
  %15 = load i32, i32* %d2, align 4, !dbg !7112
  %cmp17 = icmp ne i32 %14, %15, !dbg !7113
  br i1 %cmp17, label %if.then, label %if.end, !dbg !7114

if.then:                                          ; preds = %for.body16
  %call18 = call dereferenceable(8) double* @_ZNSt6vectorIdSaIdEEixEm(%"class.std::vector.3"* %v, i64 0) #11, !dbg !7115
  %16 = load double, double* %call18, align 8, !dbg !7115
  %17 = load i32, i32* %d1, align 4, !dbg !7116
  %call20 = invoke dereferenceable(8) double* @_ZN6dealii6TensorILi1ELi1EEixEj(%"class.dealii::Tensor"* %agg.result, i32 %17)
          to label %invoke.cont19 unwind label %lpad7, !dbg !7117

invoke.cont19:                                    ; preds = %if.then
  %18 = load double, double* %call20, align 8, !dbg !7118
  %mul21 = fmul double %18, %16, !dbg !7118
  store double %mul21, double* %call20, align 8, !dbg !7118
  br label %if.end, !dbg !7117

lpad:                                             ; preds = %for.end
  %19 = landingpad { i8*, i32 }
          cleanup, !dbg !7119
  %20 = extractvalue { i8*, i32 } %19, 0, !dbg !7119
  store i8* %20, i8** %exn.slot, align 8, !dbg !7119
  %21 = extractvalue { i8*, i32 } %19, 1, !dbg !7119
  store i32 %21, i32* %ehselector.slot, align 4, !dbg !7119
  call void @_ZNSaIdED2Ev(%"class.std::allocator.5"* %ref.tmp) #11, !dbg !7082
  br label %eh.resume, !dbg !7082

lpad7:                                            ; preds = %if.then, %invoke.cont10, %invoke.cont8, %for.body5
  %22 = landingpad { i8*, i32 }
          cleanup, !dbg !7120
  %23 = extractvalue { i8*, i32 } %22, 0, !dbg !7120
  store i8* %23, i8** %exn.slot, align 8, !dbg !7120
  %24 = extractvalue { i8*, i32 } %22, 1, !dbg !7120
  store i32 %24, i32* %ehselector.slot, align 4, !dbg !7120
  call void @_ZNSt6vectorIdSaIdEED2Ev(%"class.std::vector.3"* %v) #11, !dbg !7119
  br label %eh.resume, !dbg !7119

if.end:                                           ; preds = %invoke.cont19, %for.body16
  br label %for.inc22, !dbg !7112

for.inc22:                                        ; preds = %if.end
  %25 = load i32, i32* %d1, align 4, !dbg !7121
  %inc23 = add i32 %25, 1, !dbg !7121
  store i32 %inc23, i32* %d1, align 4, !dbg !7121
  br label %for.cond14, !dbg !7122, !llvm.loop !7123

for.end24:                                        ; preds = %for.cond14
  br label %for.inc25, !dbg !7125

for.inc25:                                        ; preds = %for.end24
  %26 = load i32, i32* %d2, align 4, !dbg !7126
  %inc26 = add i32 %26, 1, !dbg !7126
  store i32 %inc26, i32* %d2, align 4, !dbg !7126
  br label %for.cond3, !dbg !7127, !llvm.loop !7128

for.end27:                                        ; preds = %for.cond3
  call void @_ZNSt6vectorIdSaIdEED2Ev(%"class.std::vector.3"* %v) #11, !dbg !7119
  ret void, !dbg !7119

eh.resume:                                        ; preds = %lpad7, %lpad
  %exn = load i8*, i8** %exn.slot, align 8, !dbg !7082
  %sel = load i32, i32* %ehselector.slot, align 4, !dbg !7082
  %lpad.val = insertvalue { i8*, i32 } undef, i8* %exn, 0, !dbg !7082
  %lpad.val28 = insertvalue { i8*, i32 } %lpad.val, i32 %sel, 1, !dbg !7082
  resume { i8*, i32 } %lpad.val28, !dbg !7082
}

; Function Attrs: noinline nounwind uwtable
define linkonce_odr dso_local void @_ZN6dealii6TensorILi1ELi1EEC2Eb(%"class.dealii::Tensor"* %this, i1 zeroext %initialize) unnamed_addr #2 comdat align 2 !dbg !7130 {
entry:
  %this.addr = alloca %"class.dealii::Tensor"*, align 8
  %initialize.addr = alloca i8, align 1
  %i = alloca i32, align 4
  store %"class.dealii::Tensor"* %this, %"class.dealii::Tensor"** %this.addr, align 8
  call void @llvm.dbg.declare(metadata %"class.dealii::Tensor"** %this.addr, metadata !7131, metadata !DIExpression()), !dbg !7132
  %frombool = zext i1 %initialize to i8
  store i8 %frombool, i8* %initialize.addr, align 1
  call void @llvm.dbg.declare(metadata i8* %initialize.addr, metadata !7133, metadata !DIExpression()), !dbg !7134
  %this1 = load %"class.dealii::Tensor"*, %"class.dealii::Tensor"** %this.addr, align 8
  %0 = load i8, i8* %initialize.addr, align 1, !dbg !7135
  %tobool = trunc i8 %0 to i1, !dbg !7135
  br i1 %tobool, label %if.then, label %if.end, !dbg !7138

if.then:                                          ; preds = %entry
  call void @llvm.dbg.declare(metadata i32* %i, metadata !7139, metadata !DIExpression()), !dbg !7141
  store i32 0, i32* %i, align 4, !dbg !7141
  br label %for.cond, !dbg !7142

for.cond:                                         ; preds = %for.inc, %if.then
  %1 = load i32, i32* %i, align 4, !dbg !7143
  %cmp = icmp ne i32 %1, 1, !dbg !7145
  br i1 %cmp, label %for.body, label %for.end, !dbg !7146

for.body:                                         ; preds = %for.cond
  %values = getelementptr inbounds %"class.dealii::Tensor", %"class.dealii::Tensor"* %this1, i32 0, i32 0, !dbg !7147
  %2 = load i32, i32* %i, align 4, !dbg !7148
  %idxprom = zext i32 %2 to i64, !dbg !7147
  %arrayidx = getelementptr inbounds [1 x double], [1 x double]* %values, i64 0, i64 %idxprom, !dbg !7147
  store double 0.000000e+00, double* %arrayidx, align 8, !dbg !7149
  br label %for.inc, !dbg !7147

for.inc:                                          ; preds = %for.body
  %3 = load i32, i32* %i, align 4, !dbg !7150
  %inc = add i32 %3, 1, !dbg !7150
  store i32 %inc, i32* %i, align 4, !dbg !7150
  br label %for.cond, !dbg !7151, !llvm.loop !7152

for.end:                                          ; preds = %for.cond
  br label %if.end, !dbg !7153

if.end:                                           ; preds = %for.end, %entry
  ret void, !dbg !7154
}

; Function Attrs: noinline nounwind uwtable
define linkonce_odr dso_local void @_ZNSaIdEC2Ev(%"class.std::allocator.5"* %this) unnamed_addr #2 comdat align 2 !dbg !7155 {
entry:
  %this.addr = alloca %"class.std::allocator.5"*, align 8
  store %"class.std::allocator.5"* %this, %"class.std::allocator.5"** %this.addr, align 8
  call void @llvm.dbg.declare(metadata %"class.std::allocator.5"** %this.addr, metadata !7156, metadata !DIExpression()), !dbg !7158
  %this1 = load %"class.std::allocator.5"*, %"class.std::allocator.5"** %this.addr, align 8
  %0 = bitcast %"class.std::allocator.5"* %this1 to %"class.__gnu_cxx::new_allocator.6"*, !dbg !7159
  call void @_ZN9__gnu_cxx13new_allocatorIdEC2Ev(%"class.__gnu_cxx::new_allocator.6"* %0) #11, !dbg !7160
  ret void, !dbg !7161
}

; Function Attrs: noinline uwtable
define linkonce_odr dso_local void @_ZNSt6vectorIdSaIdEEC2EmRKS0_(%"class.std::vector.3"* %this, i64 %__n, %"class.std::allocator.5"* dereferenceable(1) %__a) unnamed_addr #0 comdat align 2 personality i8* bitcast (i32 (...)* @__gxx_personality_v0 to i8*) !dbg !7162 {
entry:
  %this.addr = alloca %"class.std::vector.3"*, align 8
  %__n.addr = alloca i64, align 8
  %__a.addr = alloca %"class.std::allocator.5"*, align 8
  %exn.slot = alloca i8*
  %ehselector.slot = alloca i32
  store %"class.std::vector.3"* %this, %"class.std::vector.3"** %this.addr, align 8
  call void @llvm.dbg.declare(metadata %"class.std::vector.3"** %this.addr, metadata !7163, metadata !DIExpression()), !dbg !7164
  store i64 %__n, i64* %__n.addr, align 8
  call void @llvm.dbg.declare(metadata i64* %__n.addr, metadata !7165, metadata !DIExpression()), !dbg !7166
  store %"class.std::allocator.5"* %__a, %"class.std::allocator.5"** %__a.addr, align 8
  call void @llvm.dbg.declare(metadata %"class.std::allocator.5"** %__a.addr, metadata !7167, metadata !DIExpression()), !dbg !7168
  %this1 = load %"class.std::vector.3"*, %"class.std::vector.3"** %this.addr, align 8
  %0 = bitcast %"class.std::vector.3"* %this1 to %"struct.std::_Vector_base.4"*, !dbg !7169
  %1 = load i64, i64* %__n.addr, align 8, !dbg !7170
  %2 = load %"class.std::allocator.5"*, %"class.std::allocator.5"** %__a.addr, align 8, !dbg !7171
  %call = call i64 @_ZNSt6vectorIdSaIdEE17_S_check_init_lenEmRKS0_(i64 %1, %"class.std::allocator.5"* dereferenceable(1) %2), !dbg !7172
  %3 = load %"class.std::allocator.5"*, %"class.std::allocator.5"** %__a.addr, align 8, !dbg !7173
  call void @_ZNSt12_Vector_baseIdSaIdEEC2EmRKS0_(%"struct.std::_Vector_base.4"* %0, i64 %call, %"class.std::allocator.5"* dereferenceable(1) %3), !dbg !7174
  %4 = load i64, i64* %__n.addr, align 8, !dbg !7175
  invoke void @_ZNSt6vectorIdSaIdEE21_M_default_initializeEm(%"class.std::vector.3"* %this1, i64 %4)
          to label %invoke.cont unwind label %lpad, !dbg !7177

invoke.cont:                                      ; preds = %entry
  ret void, !dbg !7178

lpad:                                             ; preds = %entry
  %5 = landingpad { i8*, i32 }
          cleanup, !dbg !7179
  %6 = extractvalue { i8*, i32 } %5, 0, !dbg !7179
  store i8* %6, i8** %exn.slot, align 8, !dbg !7179
  %7 = extractvalue { i8*, i32 } %5, 1, !dbg !7179
  store i32 %7, i32* %ehselector.slot, align 4, !dbg !7179
  %8 = bitcast %"class.std::vector.3"* %this1 to %"struct.std::_Vector_base.4"*, !dbg !7179
  call void @_ZNSt12_Vector_baseIdSaIdEED2Ev(%"struct.std::_Vector_base.4"* %8) #11, !dbg !7179
  br label %eh.resume, !dbg !7179

eh.resume:                                        ; preds = %lpad
  %exn = load i8*, i8** %exn.slot, align 8, !dbg !7179
  %sel = load i32, i32* %ehselector.slot, align 4, !dbg !7179
  %lpad.val = insertvalue { i8*, i32 } undef, i8* %exn, 0, !dbg !7179
  %lpad.val2 = insertvalue { i8*, i32 } %lpad.val, i32 %sel, 1, !dbg !7179
  resume { i8*, i32 } %lpad.val2, !dbg !7179
}

; Function Attrs: noinline nounwind uwtable
define linkonce_odr dso_local void @_ZNSaIdED2Ev(%"class.std::allocator.5"* %this) unnamed_addr #2 comdat align 2 !dbg !7180 {
entry:
  %this.addr = alloca %"class.std::allocator.5"*, align 8
  store %"class.std::allocator.5"* %this, %"class.std::allocator.5"** %this.addr, align 8
  call void @llvm.dbg.declare(metadata %"class.std::allocator.5"** %this.addr, metadata !7181, metadata !DIExpression()), !dbg !7182
  %this1 = load %"class.std::allocator.5"*, %"class.std::allocator.5"** %this.addr, align 8
  %0 = bitcast %"class.std::allocator.5"* %this1 to %"class.__gnu_cxx::new_allocator.6"*, !dbg !7183
  call void @_ZN9__gnu_cxx13new_allocatorIdED2Ev(%"class.__gnu_cxx::new_allocator.6"* %0) #11, !dbg !7183
  ret void, !dbg !7185
}

; Function Attrs: noinline nounwind uwtable
define linkonce_odr dso_local void @_ZNSt6vectorIdSaIdEED2Ev(%"class.std::vector.3"* %this) unnamed_addr #2 comdat align 2 personality i8* bitcast (i32 (...)* @__gxx_personality_v0 to i8*) !dbg !7186 {
entry:
  %this.addr = alloca %"class.std::vector.3"*, align 8
  %exn.slot = alloca i8*
  %ehselector.slot = alloca i32
  store %"class.std::vector.3"* %this, %"class.std::vector.3"** %this.addr, align 8
  call void @llvm.dbg.declare(metadata %"class.std::vector.3"** %this.addr, metadata !7187, metadata !DIExpression()), !dbg !7188
  %this1 = load %"class.std::vector.3"*, %"class.std::vector.3"** %this.addr, align 8
  %0 = bitcast %"class.std::vector.3"* %this1 to %"struct.std::_Vector_base.4"*, !dbg !7189
  %_M_impl = getelementptr inbounds %"struct.std::_Vector_base.4", %"struct.std::_Vector_base.4"* %0, i32 0, i32 0, !dbg !7189
  %1 = bitcast %"struct.std::_Vector_base<double, std::allocator<double> >::_Vector_impl"* %_M_impl to %"struct.std::_Vector_base<double, std::allocator<double> >::_Vector_impl_data"*, !dbg !7191
  %_M_start = getelementptr inbounds %"struct.std::_Vector_base<double, std::allocator<double> >::_Vector_impl_data", %"struct.std::_Vector_base<double, std::allocator<double> >::_Vector_impl_data"* %1, i32 0, i32 0, !dbg !7192
  %2 = load double*, double** %_M_start, align 8, !dbg !7192
  %3 = bitcast %"class.std::vector.3"* %this1 to %"struct.std::_Vector_base.4"*, !dbg !7193
  %_M_impl2 = getelementptr inbounds %"struct.std::_Vector_base.4", %"struct.std::_Vector_base.4"* %3, i32 0, i32 0, !dbg !7193
  %4 = bitcast %"struct.std::_Vector_base<double, std::allocator<double> >::_Vector_impl"* %_M_impl2 to %"struct.std::_Vector_base<double, std::allocator<double> >::_Vector_impl_data"*, !dbg !7194
  %_M_finish = getelementptr inbounds %"struct.std::_Vector_base<double, std::allocator<double> >::_Vector_impl_data", %"struct.std::_Vector_base<double, std::allocator<double> >::_Vector_impl_data"* %4, i32 0, i32 1, !dbg !7195
  %5 = load double*, double** %_M_finish, align 8, !dbg !7195
  %6 = bitcast %"class.std::vector.3"* %this1 to %"struct.std::_Vector_base.4"*, !dbg !7196
  %call = call dereferenceable(1) %"class.std::allocator.5"* @_ZNSt12_Vector_baseIdSaIdEE19_M_get_Tp_allocatorEv(%"struct.std::_Vector_base.4"* %6) #11, !dbg !7196
  invoke void @_ZSt8_DestroyIPddEvT_S1_RSaIT0_E(double* %2, double* %5, %"class.std::allocator.5"* dereferenceable(1) %call)
          to label %invoke.cont unwind label %lpad, !dbg !7197

invoke.cont:                                      ; preds = %entry
  %7 = bitcast %"class.std::vector.3"* %this1 to %"struct.std::_Vector_base.4"*, !dbg !7198
  call void @_ZNSt12_Vector_baseIdSaIdEED2Ev(%"struct.std::_Vector_base.4"* %7) #11, !dbg !7198
  ret void, !dbg !7199

lpad:                                             ; preds = %entry
  %8 = landingpad { i8*, i32 }
          catch i8* null, !dbg !7198
  %9 = extractvalue { i8*, i32 } %8, 0, !dbg !7198
  store i8* %9, i8** %exn.slot, align 8, !dbg !7198
  %10 = extractvalue { i8*, i32 } %8, 1, !dbg !7198
  store i32 %10, i32* %ehselector.slot, align 4, !dbg !7198
  %11 = bitcast %"class.std::vector.3"* %this1 to %"struct.std::_Vector_base.4"*, !dbg !7198
  call void @_ZNSt12_Vector_baseIdSaIdEED2Ev(%"struct.std::_Vector_base.4"* %11) #11, !dbg !7198
  br label %terminate.handler, !dbg !7198

terminate.handler:                                ; preds = %lpad
  %exn = load i8*, i8** %exn.slot, align 8, !dbg !7198
  call void @__clang_call_terminate(i8* %exn) #12, !dbg !7198
  unreachable, !dbg !7198
}

; Function Attrs: noinline uwtable
define weak_odr dso_local void @_ZNK6dealii15PolynomialSpaceILi1EE17compute_grad_gradEjRKNS_5PointILi1EEE(%"class.dealii::Tensor.23"* noalias sret %agg.result, %"class.dealii::PolynomialSpace"* %this, i32 %i, %"class.dealii::Point"* dereferenceable(8) %p) #0 comdat align 2 personality i8* bitcast (i32 (...)* @__gxx_personality_v0 to i8*) !dbg !7200 {
entry:
  %result.ptr = alloca i8*, align 8
  %this.addr = alloca %"class.dealii::PolynomialSpace"*, align 8
  %i.addr = alloca i32, align 4
  %p.addr = alloca %"class.dealii::Point"*, align 8
  %ix = alloca [1 x i32], align 4
  %d = alloca i32, align 4
  %d1 = alloca i32, align 4
  %v = alloca %"class.std::vector.3", align 8
  %ref.tmp = alloca %"class.std::allocator.5", align 1
  %exn.slot = alloca i8*
  %ehselector.slot = alloca i32
  %d9 = alloca i32, align 4
  %d123 = alloca i32, align 4
  %d2 = alloca i32, align 4
  %0 = bitcast %"class.dealii::Tensor.23"* %agg.result to i8*
  store i8* %0, i8** %result.ptr, align 8
  store %"class.dealii::PolynomialSpace"* %this, %"class.dealii::PolynomialSpace"** %this.addr, align 8
  call void @llvm.dbg.declare(metadata %"class.dealii::PolynomialSpace"** %this.addr, metadata !7201, metadata !DIExpression()), !dbg !7202
  store i32 %i, i32* %i.addr, align 4
  call void @llvm.dbg.declare(metadata i32* %i.addr, metadata !7203, metadata !DIExpression()), !dbg !7204
  store %"class.dealii::Point"* %p, %"class.dealii::Point"** %p.addr, align 8
  call void @llvm.dbg.declare(metadata %"class.dealii::Point"** %p.addr, metadata !7205, metadata !DIExpression()), !dbg !7206
  %this1 = load %"class.dealii::PolynomialSpace"*, %"class.dealii::PolynomialSpace"** %this.addr, align 8
  call void @llvm.dbg.declare(metadata [1 x i32]* %ix, metadata !7207, metadata !DIExpression()), !dbg !7208
  %1 = load i32, i32* %i.addr, align 4, !dbg !7209
  call void @_ZNK6dealii15PolynomialSpaceILi1EE13compute_indexEjRA1_j(%"class.dealii::PolynomialSpace"* %this1, i32 %1, [1 x i32]* dereferenceable(4) %ix), !dbg !7210
  call void @llvm.dbg.declare(metadata i8** %result.ptr, metadata !7211, metadata !DIExpression(DW_OP_deref)), !dbg !7212
  call void @_ZN6dealii6TensorILi2ELi1EEC2Ev(%"class.dealii::Tensor.23"* %agg.result), !dbg !7212
  call void @llvm.dbg.declare(metadata i32* %d, metadata !7213, metadata !DIExpression()), !dbg !7215
  store i32 0, i32* %d, align 4, !dbg !7215
  br label %for.cond, !dbg !7216

for.cond:                                         ; preds = %for.inc6, %entry
  %2 = load i32, i32* %d, align 4, !dbg !7217
  %cmp = icmp ult i32 %2, 1, !dbg !7219
  br i1 %cmp, label %for.body, label %for.end8, !dbg !7220

for.body:                                         ; preds = %for.cond
  call void @llvm.dbg.declare(metadata i32* %d1, metadata !7221, metadata !DIExpression()), !dbg !7223
  store i32 0, i32* %d1, align 4, !dbg !7223
  br label %for.cond2, !dbg !7224

for.cond2:                                        ; preds = %for.inc, %for.body
  %3 = load i32, i32* %d1, align 4, !dbg !7225
  %cmp3 = icmp ult i32 %3, 1, !dbg !7227
  br i1 %cmp3, label %for.body4, label %for.end, !dbg !7228

for.body4:                                        ; preds = %for.cond2
  %4 = load i32, i32* %d, align 4, !dbg !7229
  %call = call dereferenceable(8) %"class.dealii::Tensor"* @_ZN6dealii6TensorILi2ELi1EEixEj(%"class.dealii::Tensor.23"* %agg.result, i32 %4), !dbg !7230
  %5 = load i32, i32* %d1, align 4, !dbg !7231
  %call5 = call dereferenceable(8) double* @_ZN6dealii6TensorILi1ELi1EEixEj(%"class.dealii::Tensor"* %call, i32 %5), !dbg !7230
  store double 1.000000e+00, double* %call5, align 8, !dbg !7232
  br label %for.inc, !dbg !7230

for.inc:                                          ; preds = %for.body4
  %6 = load i32, i32* %d1, align 4, !dbg !7233
  %inc = add i32 %6, 1, !dbg !7233
  store i32 %inc, i32* %d1, align 4, !dbg !7233
  br label %for.cond2, !dbg !7234, !llvm.loop !7235

for.end:                                          ; preds = %for.cond2
  br label %for.inc6, !dbg !7236

for.inc6:                                         ; preds = %for.end
  %7 = load i32, i32* %d, align 4, !dbg !7237
  %inc7 = add i32 %7, 1, !dbg !7237
  store i32 %inc7, i32* %d, align 4, !dbg !7237
  br label %for.cond, !dbg !7238, !llvm.loop !7239

for.end8:                                         ; preds = %for.cond
  call void @llvm.dbg.declare(metadata %"class.std::vector.3"* %v, metadata !7241, metadata !DIExpression()), !dbg !7242
  call void @_ZNSaIdEC2Ev(%"class.std::allocator.5"* %ref.tmp) #11, !dbg !7242
  invoke void @_ZNSt6vectorIdSaIdEEC2EmRKS0_(%"class.std::vector.3"* %v, i64 3, %"class.std::allocator.5"* dereferenceable(1) %ref.tmp)
          to label %invoke.cont unwind label %lpad, !dbg !7242

invoke.cont:                                      ; preds = %for.end8
  call void @_ZNSaIdED2Ev(%"class.std::allocator.5"* %ref.tmp) #11, !dbg !7242
  call void @llvm.dbg.declare(metadata i32* %d9, metadata !7243, metadata !DIExpression()), !dbg !7245
  store i32 0, i32* %d9, align 4, !dbg !7245
  br label %for.cond10, !dbg !7246

for.cond10:                                       ; preds = %for.inc58, %invoke.cont
  %8 = load i32, i32* %d9, align 4, !dbg !7247
  %cmp11 = icmp ult i32 %8, 1, !dbg !7249
  br i1 %cmp11, label %for.body12, label %for.end60, !dbg !7250

for.body12:                                       ; preds = %for.cond10
  %polynomials = getelementptr inbounds %"class.dealii::PolynomialSpace", %"class.dealii::PolynomialSpace"* %this1, i32 0, i32 0, !dbg !7251
  %9 = load i32, i32* %d9, align 4, !dbg !7253
  %idxprom = zext i32 %9 to i64, !dbg !7254
  %arrayidx = getelementptr inbounds [1 x i32], [1 x i32]* %ix, i64 0, i64 %idxprom, !dbg !7254
  %10 = load i32, i32* %arrayidx, align 4, !dbg !7254
  %conv = zext i32 %10 to i64, !dbg !7254
  %call13 = call dereferenceable(96) %"class.dealii::Polynomials::Polynomial"* @_ZNKSt6vectorIN6dealii11Polynomials10PolynomialIdEESaIS3_EEixEm(%"class.std::vector"* %polynomials, i64 %conv) #11, !dbg !7251
  %11 = load %"class.dealii::Point"*, %"class.dealii::Point"** %p.addr, align 8, !dbg !7255
  %12 = load i32, i32* %d9, align 4, !dbg !7256
  %call16 = invoke double @_ZNK6dealii5PointILi1EEclEj(%"class.dealii::Point"* %11, i32 %12)
          to label %invoke.cont15 unwind label %lpad14, !dbg !7255

invoke.cont15:                                    ; preds = %for.body12
  invoke void @_ZNK6dealii11Polynomials10PolynomialIdE5valueEdRSt6vectorIdSaIdEE(%"class.dealii::Polynomials::Polynomial"* %call13, double %call16, %"class.std::vector.3"* dereferenceable(24) %v)
          to label %invoke.cont17 unwind label %lpad14, !dbg !7257

invoke.cont17:                                    ; preds = %invoke.cont15
  %call18 = call dereferenceable(8) double* @_ZNSt6vectorIdSaIdEEixEm(%"class.std::vector.3"* %v, i64 2) #11, !dbg !7258
  %13 = load double, double* %call18, align 8, !dbg !7258
  %14 = load i32, i32* %d9, align 4, !dbg !7259
  %call20 = invoke dereferenceable(8) %"class.dealii::Tensor"* @_ZN6dealii6TensorILi2ELi1EEixEj(%"class.dealii::Tensor.23"* %agg.result, i32 %14)
          to label %invoke.cont19 unwind label %lpad14, !dbg !7260

invoke.cont19:                                    ; preds = %invoke.cont17
  %15 = load i32, i32* %d9, align 4, !dbg !7261
  %call22 = invoke dereferenceable(8) double* @_ZN6dealii6TensorILi1ELi1EEixEj(%"class.dealii::Tensor"* %call20, i32 %15)
          to label %invoke.cont21 unwind label %lpad14, !dbg !7260

invoke.cont21:                                    ; preds = %invoke.cont19
  %16 = load double, double* %call22, align 8, !dbg !7262
  %mul = fmul double %16, %13, !dbg !7262
  store double %mul, double* %call22, align 8, !dbg !7262
  call void @llvm.dbg.declare(metadata i32* %d123, metadata !7263, metadata !DIExpression()), !dbg !7265
  store i32 0, i32* %d123, align 4, !dbg !7265
  br label %for.cond24, !dbg !7266

for.cond24:                                       ; preds = %for.inc55, %invoke.cont21
  %17 = load i32, i32* %d123, align 4, !dbg !7267
  %cmp25 = icmp ult i32 %17, 1, !dbg !7269
  br i1 %cmp25, label %for.body26, label %for.end57, !dbg !7270

for.body26:                                       ; preds = %for.cond24
  %18 = load i32, i32* %d123, align 4, !dbg !7271
  %19 = load i32, i32* %d9, align 4, !dbg !7274
  %cmp27 = icmp ne i32 %18, %19, !dbg !7275
  br i1 %cmp27, label %if.then, label %if.end54, !dbg !7276

if.then:                                          ; preds = %for.body26
  %call28 = call dereferenceable(8) double* @_ZNSt6vectorIdSaIdEEixEm(%"class.std::vector.3"* %v, i64 1) #11, !dbg !7277
  %20 = load double, double* %call28, align 8, !dbg !7277
  %21 = load i32, i32* %d9, align 4, !dbg !7279
  %call30 = invoke dereferenceable(8) %"class.dealii::Tensor"* @_ZN6dealii6TensorILi2ELi1EEixEj(%"class.dealii::Tensor.23"* %agg.result, i32 %21)
          to label %invoke.cont29 unwind label %lpad14, !dbg !7280

invoke.cont29:                                    ; preds = %if.then
  %22 = load i32, i32* %d123, align 4, !dbg !7281
  %call32 = invoke dereferenceable(8) double* @_ZN6dealii6TensorILi1ELi1EEixEj(%"class.dealii::Tensor"* %call30, i32 %22)
          to label %invoke.cont31 unwind label %lpad14, !dbg !7280

invoke.cont31:                                    ; preds = %invoke.cont29
  %23 = load double, double* %call32, align 8, !dbg !7282
  %mul33 = fmul double %23, %20, !dbg !7282
  store double %mul33, double* %call32, align 8, !dbg !7282
  %call34 = call dereferenceable(8) double* @_ZNSt6vectorIdSaIdEEixEm(%"class.std::vector.3"* %v, i64 1) #11, !dbg !7283
  %24 = load double, double* %call34, align 8, !dbg !7283
  %25 = load i32, i32* %d123, align 4, !dbg !7284
  %call36 = invoke dereferenceable(8) %"class.dealii::Tensor"* @_ZN6dealii6TensorILi2ELi1EEixEj(%"class.dealii::Tensor.23"* %agg.result, i32 %25)
          to label %invoke.cont35 unwind label %lpad14, !dbg !7285

invoke.cont35:                                    ; preds = %invoke.cont31
  %26 = load i32, i32* %d9, align 4, !dbg !7286
  %call38 = invoke dereferenceable(8) double* @_ZN6dealii6TensorILi1ELi1EEixEj(%"class.dealii::Tensor"* %call36, i32 %26)
          to label %invoke.cont37 unwind label %lpad14, !dbg !7285

invoke.cont37:                                    ; preds = %invoke.cont35
  %27 = load double, double* %call38, align 8, !dbg !7287
  %mul39 = fmul double %27, %24, !dbg !7287
  store double %mul39, double* %call38, align 8, !dbg !7287
  call void @llvm.dbg.declare(metadata i32* %d2, metadata !7288, metadata !DIExpression()), !dbg !7290
  store i32 0, i32* %d2, align 4, !dbg !7290
  br label %for.cond40, !dbg !7291

for.cond40:                                       ; preds = %for.inc51, %invoke.cont37
  %28 = load i32, i32* %d2, align 4, !dbg !7292
  %cmp41 = icmp ult i32 %28, 1, !dbg !7294
  br i1 %cmp41, label %for.body42, label %for.end53, !dbg !7295

for.body42:                                       ; preds = %for.cond40
  %29 = load i32, i32* %d2, align 4, !dbg !7296
  %30 = load i32, i32* %d9, align 4, !dbg !7298
  %cmp43 = icmp ne i32 %29, %30, !dbg !7299
  br i1 %cmp43, label %if.then44, label %if.end, !dbg !7300

if.then44:                                        ; preds = %for.body42
  %call45 = call dereferenceable(8) double* @_ZNSt6vectorIdSaIdEEixEm(%"class.std::vector.3"* %v, i64 0) #11, !dbg !7301
  %31 = load double, double* %call45, align 8, !dbg !7301
  %32 = load i32, i32* %d123, align 4, !dbg !7302
  %call47 = invoke dereferenceable(8) %"class.dealii::Tensor"* @_ZN6dealii6TensorILi2ELi1EEixEj(%"class.dealii::Tensor.23"* %agg.result, i32 %32)
          to label %invoke.cont46 unwind label %lpad14, !dbg !7303

invoke.cont46:                                    ; preds = %if.then44
  %33 = load i32, i32* %d2, align 4, !dbg !7304
  %call49 = invoke dereferenceable(8) double* @_ZN6dealii6TensorILi1ELi1EEixEj(%"class.dealii::Tensor"* %call47, i32 %33)
          to label %invoke.cont48 unwind label %lpad14, !dbg !7303

invoke.cont48:                                    ; preds = %invoke.cont46
  %34 = load double, double* %call49, align 8, !dbg !7305
  %mul50 = fmul double %34, %31, !dbg !7305
  store double %mul50, double* %call49, align 8, !dbg !7305
  br label %if.end, !dbg !7303

lpad:                                             ; preds = %for.end8
  %35 = landingpad { i8*, i32 }
          cleanup, !dbg !7306
  %36 = extractvalue { i8*, i32 } %35, 0, !dbg !7306
  store i8* %36, i8** %exn.slot, align 8, !dbg !7306
  %37 = extractvalue { i8*, i32 } %35, 1, !dbg !7306
  store i32 %37, i32* %ehselector.slot, align 4, !dbg !7306
  call void @_ZNSaIdED2Ev(%"class.std::allocator.5"* %ref.tmp) #11, !dbg !7242
  br label %eh.resume, !dbg !7242

lpad14:                                           ; preds = %invoke.cont46, %if.then44, %invoke.cont35, %invoke.cont31, %invoke.cont29, %if.then, %invoke.cont19, %invoke.cont17, %invoke.cont15, %for.body12
  %38 = landingpad { i8*, i32 }
          cleanup, !dbg !7307
  %39 = extractvalue { i8*, i32 } %38, 0, !dbg !7307
  store i8* %39, i8** %exn.slot, align 8, !dbg !7307
  %40 = extractvalue { i8*, i32 } %38, 1, !dbg !7307
  store i32 %40, i32* %ehselector.slot, align 4, !dbg !7307
  call void @_ZNSt6vectorIdSaIdEED2Ev(%"class.std::vector.3"* %v) #11, !dbg !7306
  br label %eh.resume, !dbg !7306

if.end:                                           ; preds = %invoke.cont48, %for.body42
  br label %for.inc51, !dbg !7298

for.inc51:                                        ; preds = %if.end
  %41 = load i32, i32* %d2, align 4, !dbg !7308
  %inc52 = add i32 %41, 1, !dbg !7308
  store i32 %inc52, i32* %d2, align 4, !dbg !7308
  br label %for.cond40, !dbg !7309, !llvm.loop !7310

for.end53:                                        ; preds = %for.cond40
  br label %if.end54, !dbg !7312

if.end54:                                         ; preds = %for.end53, %for.body26
  br label %for.inc55, !dbg !7313

for.inc55:                                        ; preds = %if.end54
  %42 = load i32, i32* %d123, align 4, !dbg !7314
  %inc56 = add i32 %42, 1, !dbg !7314
  store i32 %inc56, i32* %d123, align 4, !dbg !7314
  br label %for.cond24, !dbg !7315, !llvm.loop !7316

for.end57:                                        ; preds = %for.cond24
  br label %for.inc58, !dbg !7318

for.inc58:                                        ; preds = %for.end57
  %43 = load i32, i32* %d9, align 4, !dbg !7319
  %inc59 = add i32 %43, 1, !dbg !7319
  store i32 %inc59, i32* %d9, align 4, !dbg !7319
  br label %for.cond10, !dbg !7320, !llvm.loop !7321

for.end60:                                        ; preds = %for.cond10
  call void @_ZNSt6vectorIdSaIdEED2Ev(%"class.std::vector.3"* %v) #11, !dbg !7306
  ret void, !dbg !7306

eh.resume:                                        ; preds = %lpad14, %lpad
  %exn = load i8*, i8** %exn.slot, align 8, !dbg !7242
  %sel = load i32, i32* %ehselector.slot, align 4, !dbg !7242
  %lpad.val = insertvalue { i8*, i32 } undef, i8* %exn, 0, !dbg !7242
  %lpad.val61 = insertvalue { i8*, i32 } %lpad.val, i32 %sel, 1, !dbg !7242
  resume { i8*, i32 } %lpad.val61, !dbg !7242
}

; Function Attrs: noinline uwtable
define linkonce_odr dso_local void @_ZN6dealii6TensorILi2ELi1EEC2Ev(%"class.dealii::Tensor.23"* %this) unnamed_addr #0 comdat align 2 !dbg !7323 {
entry:
  %this.addr = alloca %"class.dealii::Tensor.23"*, align 8
  store %"class.dealii::Tensor.23"* %this, %"class.dealii::Tensor.23"** %this.addr, align 8
  call void @llvm.dbg.declare(metadata %"class.dealii::Tensor.23"** %this.addr, metadata !7324, metadata !DIExpression()), !dbg !7325
  %this1 = load %"class.dealii::Tensor.23"*, %"class.dealii::Tensor.23"** %this.addr, align 8
  %subtensor = getelementptr inbounds %"class.dealii::Tensor.23", %"class.dealii::Tensor.23"* %this1, i32 0, i32 0, !dbg !7326
  %array.begin = getelementptr inbounds [1 x %"class.dealii::Tensor"], [1 x %"class.dealii::Tensor"]* %subtensor, i32 0, i32 0, !dbg !7326
  %arrayctor.end = getelementptr inbounds %"class.dealii::Tensor", %"class.dealii::Tensor"* %array.begin, i64 1, !dbg !7326
  br label %arrayctor.loop, !dbg !7326

arrayctor.loop:                                   ; preds = %arrayctor.loop, %entry
  %arrayctor.cur = phi %"class.dealii::Tensor"* [ %array.begin, %entry ], [ %arrayctor.next, %arrayctor.loop ], !dbg !7326
  call void @_ZN6dealii6TensorILi1ELi1EEC2Eb(%"class.dealii::Tensor"* %arrayctor.cur, i1 zeroext true), !dbg !7326
  %arrayctor.next = getelementptr inbounds %"class.dealii::Tensor", %"class.dealii::Tensor"* %arrayctor.cur, i64 1, !dbg !7326
  %arrayctor.done = icmp eq %"class.dealii::Tensor"* %arrayctor.next, %arrayctor.end, !dbg !7326
  br i1 %arrayctor.done, label %arrayctor.cont, label %arrayctor.loop, !dbg !7326

arrayctor.cont:                                   ; preds = %arrayctor.loop
  ret void, !dbg !7327
}

; Function Attrs: noinline nounwind uwtable
define weak_odr dso_local i32 @_ZNK6dealii15PolynomialSpaceILi1EE1nEv(%"class.dealii::PolynomialSpace"* %this) #2 comdat align 2 !dbg !7328 {
entry:
  %this.addr = alloca %"class.dealii::PolynomialSpace"*, align 8
  store %"class.dealii::PolynomialSpace"* %this, %"class.dealii::PolynomialSpace"** %this.addr, align 8
  call void @llvm.dbg.declare(metadata %"class.dealii::PolynomialSpace"** %this.addr, metadata !7329, metadata !DIExpression()), !dbg !7330
  %this1 = load %"class.dealii::PolynomialSpace"*, %"class.dealii::PolynomialSpace"** %this.addr, align 8
  %n_pols = getelementptr inbounds %"class.dealii::PolynomialSpace", %"class.dealii::PolynomialSpace"* %this1, i32 0, i32 1, !dbg !7331
  %0 = load i32, i32* %n_pols, align 8, !dbg !7331
  ret i32 %0, !dbg !7332
}

; Function Attrs: noinline nounwind uwtable
define weak_odr dso_local i32 @_ZNK6dealii15PolynomialSpaceILi1EE6degreeEv(%"class.dealii::PolynomialSpace"* %this) #2 comdat align 2 !dbg !7333 {
entry:
  %this.addr = alloca %"class.dealii::PolynomialSpace"*, align 8
  store %"class.dealii::PolynomialSpace"* %this, %"class.dealii::PolynomialSpace"** %this.addr, align 8
  call void @llvm.dbg.declare(metadata %"class.dealii::PolynomialSpace"** %this.addr, metadata !7334, metadata !DIExpression()), !dbg !7335
  %this1 = load %"class.dealii::PolynomialSpace"*, %"class.dealii::PolynomialSpace"** %this.addr, align 8
  %polynomials = getelementptr inbounds %"class.dealii::PolynomialSpace", %"class.dealii::PolynomialSpace"* %this1, i32 0, i32 0, !dbg !7336
  %call = call i64 @_ZNKSt6vectorIN6dealii11Polynomials10PolynomialIdEESaIS3_EE4sizeEv(%"class.std::vector"* %polynomials) #11, !dbg !7337
  %conv = trunc i64 %call to i32, !dbg !7336
  ret i32 %conv, !dbg !7338
}

; Function Attrs: noinline nounwind uwtable
define weak_odr dso_local i32 @_ZN6dealii15PolynomialSpaceILi1EE14compute_n_polsEj(i32 %n) #2 comdat align 2 !dbg !7339 {
entry:
  %n.addr = alloca i32, align 4
  %n_pols = alloca i32, align 4
  %i = alloca i32, align 4
  store i32 %n, i32* %n.addr, align 4
  call void @llvm.dbg.declare(metadata i32* %n.addr, metadata !7340, metadata !DIExpression()), !dbg !7341
  call void @llvm.dbg.declare(metadata i32* %n_pols, metadata !7342, metadata !DIExpression()), !dbg !7343
  %0 = load i32, i32* %n.addr, align 4, !dbg !7344
  store i32 %0, i32* %n_pols, align 4, !dbg !7343
  call void @llvm.dbg.declare(metadata i32* %i, metadata !7345, metadata !DIExpression()), !dbg !7347
  store i32 1, i32* %i, align 4, !dbg !7347
  br label %for.cond, !dbg !7348

for.cond:                                         ; preds = %for.inc, %entry
  %1 = load i32, i32* %i, align 4, !dbg !7349
  %cmp = icmp ult i32 %1, 1, !dbg !7351
  br i1 %cmp, label %for.body, label %for.end, !dbg !7352

for.body:                                         ; preds = %for.cond
  %2 = load i32, i32* %n.addr, align 4, !dbg !7353
  %3 = load i32, i32* %i, align 4, !dbg !7355
  %add = add i32 %2, %3, !dbg !7356
  %4 = load i32, i32* %n_pols, align 4, !dbg !7357
  %mul = mul i32 %4, %add, !dbg !7357
  store i32 %mul, i32* %n_pols, align 4, !dbg !7357
  %5 = load i32, i32* %i, align 4, !dbg !7358
  %add1 = add i32 %5, 1, !dbg !7359
  %6 = load i32, i32* %n_pols, align 4, !dbg !7360
  %div = udiv i32 %6, %add1, !dbg !7360
  store i32 %div, i32* %n_pols, align 4, !dbg !7360
  br label %for.inc, !dbg !7361

for.inc:                                          ; preds = %for.body
  %7 = load i32, i32* %i, align 4, !dbg !7362
  %inc = add i32 %7, 1, !dbg !7362
  store i32 %inc, i32* %i, align 4, !dbg !7362
  br label %for.cond, !dbg !7363, !llvm.loop !7364

for.end:                                          ; preds = %for.cond
  %8 = load i32, i32* %n_pols, align 4, !dbg !7366
  ret i32 %8, !dbg !7367
}

; Function Attrs: noinline uwtable
define weak_odr dso_local void @_ZN6dealii15PolynomialSpaceILi2EE13set_numberingERKSt6vectorIjSaIjEE(%"class.dealii::PolynomialSpace.24"* %this, %"class.std::vector.8"* dereferenceable(24) %renumber) #0 comdat align 2 !dbg !7368 {
entry:
  %this.addr = alloca %"class.dealii::PolynomialSpace.24"*, align 8
  %renumber.addr = alloca %"class.std::vector.8"*, align 8
  %i = alloca i32, align 4
  store %"class.dealii::PolynomialSpace.24"* %this, %"class.dealii::PolynomialSpace.24"** %this.addr, align 8
  call void @llvm.dbg.declare(metadata %"class.dealii::PolynomialSpace.24"** %this.addr, metadata !7369, metadata !DIExpression()), !dbg !7371
  store %"class.std::vector.8"* %renumber, %"class.std::vector.8"** %renumber.addr, align 8
  call void @llvm.dbg.declare(metadata %"class.std::vector.8"** %renumber.addr, metadata !7372, metadata !DIExpression()), !dbg !7373
  %this1 = load %"class.dealii::PolynomialSpace.24"*, %"class.dealii::PolynomialSpace.24"** %this.addr, align 8
  %0 = load %"class.std::vector.8"*, %"class.std::vector.8"** %renumber.addr, align 8, !dbg !7374
  %index_map = getelementptr inbounds %"class.dealii::PolynomialSpace.24", %"class.dealii::PolynomialSpace.24"* %this1, i32 0, i32 2, !dbg !7375
  %call = call dereferenceable(24) %"class.std::vector.8"* @_ZNSt6vectorIjSaIjEEaSERKS1_(%"class.std::vector.8"* %index_map, %"class.std::vector.8"* dereferenceable(24) %0), !dbg !7376
  call void @llvm.dbg.declare(metadata i32* %i, metadata !7377, metadata !DIExpression()), !dbg !7379
  store i32 0, i32* %i, align 4, !dbg !7379
  br label %for.cond, !dbg !7380

for.cond:                                         ; preds = %for.inc, %entry
  %1 = load i32, i32* %i, align 4, !dbg !7381
  %conv = zext i32 %1 to i64, !dbg !7381
  %index_map2 = getelementptr inbounds %"class.dealii::PolynomialSpace.24", %"class.dealii::PolynomialSpace.24"* %this1, i32 0, i32 2, !dbg !7383
  %call3 = call i64 @_ZNKSt6vectorIjSaIjEE4sizeEv(%"class.std::vector.8"* %index_map2) #11, !dbg !7384
  %cmp = icmp ult i64 %conv, %call3, !dbg !7385
  br i1 %cmp, label %for.body, label %for.end, !dbg !7386

for.body:                                         ; preds = %for.cond
  %2 = load i32, i32* %i, align 4, !dbg !7387
  %index_map_inverse = getelementptr inbounds %"class.dealii::PolynomialSpace.24", %"class.dealii::PolynomialSpace.24"* %this1, i32 0, i32 3, !dbg !7388
  %index_map4 = getelementptr inbounds %"class.dealii::PolynomialSpace.24", %"class.dealii::PolynomialSpace.24"* %this1, i32 0, i32 2, !dbg !7389
  %3 = load i32, i32* %i, align 4, !dbg !7390
  %conv5 = zext i32 %3 to i64, !dbg !7390
  %call6 = call dereferenceable(4) i32* @_ZNSt6vectorIjSaIjEEixEm(%"class.std::vector.8"* %index_map4, i64 %conv5) #11, !dbg !7389
  %4 = load i32, i32* %call6, align 4, !dbg !7389
  %conv7 = zext i32 %4 to i64, !dbg !7389
  %call8 = call dereferenceable(4) i32* @_ZNSt6vectorIjSaIjEEixEm(%"class.std::vector.8"* %index_map_inverse, i64 %conv7) #11, !dbg !7388
  store i32 %2, i32* %call8, align 4, !dbg !7391
  br label %for.inc, !dbg !7388

for.inc:                                          ; preds = %for.body
  %5 = load i32, i32* %i, align 4, !dbg !7392
  %inc = add i32 %5, 1, !dbg !7392
  store i32 %inc, i32* %i, align 4, !dbg !7392
  br label %for.cond, !dbg !7393, !llvm.loop !7394

for.end:                                          ; preds = %for.cond
  ret void, !dbg !7396
}

; Function Attrs: noinline uwtable
define weak_odr dso_local void @_ZNK6dealii15PolynomialSpaceILi2EE7computeERKNS_5PointILi2EEERSt6vectorIdSaIdEERS6_INS_6TensorILi1ELi2EEESaISB_EERS6_INSA_ILi2ELi2EEESaISF_EE(%"class.dealii::PolynomialSpace.24"* %this, %"class.dealii::Point.25"* dereferenceable(16) %p, %"class.std::vector.3"* dereferenceable(24) %values, %"class.std::vector.27"* dereferenceable(24) %grads, %"class.std::vector.32"* dereferenceable(24) %grad_grads) #0 comdat align 2 personality i8* bitcast (i32 (...)* @__gxx_personality_v0 to i8*) !dbg !7397 {
entry:
  %this.addr = alloca %"class.dealii::PolynomialSpace.24"*, align 8
  %p.addr = alloca %"class.dealii::Point.25"*, align 8
  %values.addr = alloca %"class.std::vector.3"*, align 8
  %grads.addr = alloca %"class.std::vector.27"*, align 8
  %grad_grads.addr = alloca %"class.std::vector.32"*, align 8
  %n_1d = alloca i32, align 4
  %v_size = alloca i32, align 4
  %update_values = alloca i8, align 1
  %update_grads = alloca i8, align 1
  %update_grad_grads = alloca i8, align 1
  %v = alloca %"class.dealii::Table", align 8
  %d = alloca i32, align 4
  %exn.slot = alloca i8*
  %ehselector.slot = alloca i32
  %i = alloca i32, align 4
  %ref.tmp = alloca double, align 8
  %k = alloca i32, align 4
  %iz = alloca i32, align 4
  %iy = alloca i32, align 4
  %ix = alloca i32, align 4
  %ref.tmp54 = alloca %"class.dealii::internal::TableBaseAccessors::Accessor", align 8
  %ref.tmp59 = alloca %"class.dealii::internal::TableBaseAccessors::Accessor", align 8
  %k82 = alloca i32, align 4
  %iz83 = alloca i32, align 4
  %iy87 = alloca i32, align 4
  %ix92 = alloca i32, align 4
  %k2 = alloca i32, align 4
  %d102 = alloca i32, align 4
  %ref.tmp106 = alloca %"class.dealii::internal::TableBaseAccessors::Accessor", align 8
  %ref.tmp113 = alloca %"class.dealii::internal::TableBaseAccessors::Accessor", align 8
  %k142 = alloca i32, align 4
  %iz143 = alloca i32, align 4
  %iy147 = alloca i32, align 4
  %ix152 = alloca i32, align 4
  %k2158 = alloca i32, align 4
  %d1 = alloca i32, align 4
  %d2 = alloca i32, align 4
  %j0 = alloca i32, align 4
  %j1 = alloca i32, align 4
  %j2 = alloca i32, align 4
  %ref.tmp183 = alloca %"class.dealii::internal::TableBaseAccessors::Accessor", align 8
  %ref.tmp189 = alloca %"class.dealii::internal::TableBaseAccessors::Accessor", align 8
  store %"class.dealii::PolynomialSpace.24"* %this, %"class.dealii::PolynomialSpace.24"** %this.addr, align 8
  call void @llvm.dbg.declare(metadata %"class.dealii::PolynomialSpace.24"** %this.addr, metadata !7398, metadata !DIExpression()), !dbg !7400
  store %"class.dealii::Point.25"* %p, %"class.dealii::Point.25"** %p.addr, align 8
  call void @llvm.dbg.declare(metadata %"class.dealii::Point.25"** %p.addr, metadata !7401, metadata !DIExpression()), !dbg !7402
  store %"class.std::vector.3"* %values, %"class.std::vector.3"** %values.addr, align 8
  call void @llvm.dbg.declare(metadata %"class.std::vector.3"** %values.addr, metadata !7403, metadata !DIExpression()), !dbg !7404
  store %"class.std::vector.27"* %grads, %"class.std::vector.27"** %grads.addr, align 8
  call void @llvm.dbg.declare(metadata %"class.std::vector.27"** %grads.addr, metadata !7405, metadata !DIExpression()), !dbg !7406
  store %"class.std::vector.32"* %grad_grads, %"class.std::vector.32"** %grad_grads.addr, align 8
  call void @llvm.dbg.declare(metadata %"class.std::vector.32"** %grad_grads.addr, metadata !7407, metadata !DIExpression()), !dbg !7408
  %this1 = load %"class.dealii::PolynomialSpace.24"*, %"class.dealii::PolynomialSpace.24"** %this.addr, align 8
  call void @llvm.dbg.declare(metadata i32* %n_1d, metadata !7409, metadata !DIExpression()), !dbg !7410
  %polynomials = getelementptr inbounds %"class.dealii::PolynomialSpace.24", %"class.dealii::PolynomialSpace.24"* %this1, i32 0, i32 0, !dbg !7411
  %call = call i64 @_ZNKSt6vectorIN6dealii11Polynomials10PolynomialIdEESaIS3_EE4sizeEv(%"class.std::vector"* %polynomials) #11, !dbg !7412
  %conv = trunc i64 %call to i32, !dbg !7411
  store i32 %conv, i32* %n_1d, align 4, !dbg !7410
  call void @llvm.dbg.declare(metadata i32* %v_size, metadata !7413, metadata !DIExpression()), !dbg !7414
  store i32 0, i32* %v_size, align 4, !dbg !7414
  call void @llvm.dbg.declare(metadata i8* %update_values, metadata !7415, metadata !DIExpression()), !dbg !7416
  store i8 0, i8* %update_values, align 1, !dbg !7416
  call void @llvm.dbg.declare(metadata i8* %update_grads, metadata !7417, metadata !DIExpression()), !dbg !7418
  store i8 0, i8* %update_grads, align 1, !dbg !7418
  call void @llvm.dbg.declare(metadata i8* %update_grad_grads, metadata !7419, metadata !DIExpression()), !dbg !7420
  store i8 0, i8* %update_grad_grads, align 1, !dbg !7420
  %0 = load %"class.std::vector.3"*, %"class.std::vector.3"** %values.addr, align 8, !dbg !7421
  %call2 = call i64 @_ZNKSt6vectorIdSaIdEE4sizeEv(%"class.std::vector.3"* %0) #11, !dbg !7423
  %n_pols = getelementptr inbounds %"class.dealii::PolynomialSpace.24", %"class.dealii::PolynomialSpace.24"* %this1, i32 0, i32 1, !dbg !7424
  %1 = load i32, i32* %n_pols, align 8, !dbg !7424
  %conv3 = zext i32 %1 to i64, !dbg !7424
  %cmp = icmp eq i64 %call2, %conv3, !dbg !7425
  br i1 %cmp, label %if.then, label %if.end, !dbg !7426

if.then:                                          ; preds = %entry
  store i8 1, i8* %update_values, align 1, !dbg !7427
  store i32 1, i32* %v_size, align 4, !dbg !7429
  br label %if.end, !dbg !7430

if.end:                                           ; preds = %if.then, %entry
  %2 = load %"class.std::vector.27"*, %"class.std::vector.27"** %grads.addr, align 8, !dbg !7431
  %call4 = call i64 @_ZNKSt6vectorIN6dealii6TensorILi1ELi2EEESaIS2_EE4sizeEv(%"class.std::vector.27"* %2) #11, !dbg !7433
  %n_pols5 = getelementptr inbounds %"class.dealii::PolynomialSpace.24", %"class.dealii::PolynomialSpace.24"* %this1, i32 0, i32 1, !dbg !7434
  %3 = load i32, i32* %n_pols5, align 8, !dbg !7434
  %conv6 = zext i32 %3 to i64, !dbg !7434
  %cmp7 = icmp eq i64 %call4, %conv6, !dbg !7435
  br i1 %cmp7, label %if.then8, label %if.end9, !dbg !7436

if.then8:                                         ; preds = %if.end
  store i8 1, i8* %update_grads, align 1, !dbg !7437
  store i32 2, i32* %v_size, align 4, !dbg !7439
  br label %if.end9, !dbg !7440

if.end9:                                          ; preds = %if.then8, %if.end
  %4 = load %"class.std::vector.32"*, %"class.std::vector.32"** %grad_grads.addr, align 8, !dbg !7441
  %call10 = call i64 @_ZNKSt6vectorIN6dealii6TensorILi2ELi2EEESaIS2_EE4sizeEv(%"class.std::vector.32"* %4) #11, !dbg !7443
  %n_pols11 = getelementptr inbounds %"class.dealii::PolynomialSpace.24", %"class.dealii::PolynomialSpace.24"* %this1, i32 0, i32 1, !dbg !7444
  %5 = load i32, i32* %n_pols11, align 8, !dbg !7444
  %conv12 = zext i32 %5 to i64, !dbg !7444
  %cmp13 = icmp eq i64 %call10, %conv12, !dbg !7445
  br i1 %cmp13, label %if.then14, label %if.end15, !dbg !7446

if.then14:                                        ; preds = %if.end9
  store i8 1, i8* %update_grad_grads, align 1, !dbg !7447
  store i32 3, i32* %v_size, align 4, !dbg !7449
  br label %if.end15, !dbg !7450

if.end15:                                         ; preds = %if.then14, %if.end9
  call void @llvm.dbg.declare(metadata %"class.dealii::Table"* %v, metadata !7451, metadata !DIExpression()), !dbg !7452
  %6 = load i32, i32* %n_1d, align 4, !dbg !7453
  call void @_ZN6dealii5TableILi2ESt6vectorIdSaIdEEEC2Ejj(%"class.dealii::Table"* %v, i32 2, i32 %6), !dbg !7452
  call void @llvm.dbg.declare(metadata i32* %d, metadata !7454, metadata !DIExpression()), !dbg !7456
  store i32 0, i32* %d, align 4, !dbg !7456
  br label %for.cond, !dbg !7457

for.cond:                                         ; preds = %for.inc39, %if.end15
  %7 = load i32, i32* %d, align 4, !dbg !7458
  %8 = bitcast %"class.dealii::Table"* %v to %"class.dealii::TableBase"*, !dbg !7460
  %call16 = invoke dereferenceable(8) %"class.dealii::TableIndices"* @_ZNK6dealii9TableBaseILi2ESt6vectorIdSaIdEEE4sizeEv(%"class.dealii::TableBase"* %8)
          to label %invoke.cont unwind label %lpad, !dbg !7461

invoke.cont:                                      ; preds = %for.cond
  %9 = bitcast %"class.dealii::TableIndices"* %call16 to %"class.dealii::TableIndicesBase"*, !dbg !7460
  %call18 = invoke i32 @_ZNK6dealii16TableIndicesBaseILi2EEixEj(%"class.dealii::TableIndicesBase"* %9, i32 0)
          to label %invoke.cont17 unwind label %lpad, !dbg !7460

invoke.cont17:                                    ; preds = %invoke.cont
  %cmp19 = icmp ult i32 %7, %call18, !dbg !7462
  br i1 %cmp19, label %for.body, label %for.end41, !dbg !7463

for.body:                                         ; preds = %invoke.cont17
  call void @llvm.dbg.declare(metadata i32* %i, metadata !7464, metadata !DIExpression()), !dbg !7466
  store i32 0, i32* %i, align 4, !dbg !7466
  br label %for.cond20, !dbg !7467

for.cond20:                                       ; preds = %for.inc, %for.body
  %10 = load i32, i32* %i, align 4, !dbg !7468
  %11 = bitcast %"class.dealii::Table"* %v to %"class.dealii::TableBase"*, !dbg !7470
  %call22 = invoke dereferenceable(8) %"class.dealii::TableIndices"* @_ZNK6dealii9TableBaseILi2ESt6vectorIdSaIdEEE4sizeEv(%"class.dealii::TableBase"* %11)
          to label %invoke.cont21 unwind label %lpad, !dbg !7471

invoke.cont21:                                    ; preds = %for.cond20
  %12 = bitcast %"class.dealii::TableIndices"* %call22 to %"class.dealii::TableIndicesBase"*, !dbg !7470
  %call24 = invoke i32 @_ZNK6dealii16TableIndicesBaseILi2EEixEj(%"class.dealii::TableIndicesBase"* %12, i32 1)
          to label %invoke.cont23 unwind label %lpad, !dbg !7470

invoke.cont23:                                    ; preds = %invoke.cont21
  %cmp25 = icmp ult i32 %10, %call24, !dbg !7472
  br i1 %cmp25, label %for.body26, label %for.end, !dbg !7473

for.body26:                                       ; preds = %invoke.cont23
  %13 = load i32, i32* %d, align 4, !dbg !7474
  %14 = load i32, i32* %i, align 4, !dbg !7476
  %call28 = invoke dereferenceable(24) %"class.std::vector.3"* @_ZN6dealii5TableILi2ESt6vectorIdSaIdEEEclEjj(%"class.dealii::Table"* %v, i32 %13, i32 %14)
          to label %invoke.cont27 unwind label %lpad, !dbg !7477

invoke.cont27:                                    ; preds = %for.body26
  %15 = load i32, i32* %v_size, align 4, !dbg !7478
  %conv29 = zext i32 %15 to i64, !dbg !7478
  store double 0.000000e+00, double* %ref.tmp, align 8, !dbg !7479
  invoke void @_ZNSt6vectorIdSaIdEE6resizeEmRKd(%"class.std::vector.3"* %call28, i64 %conv29, double* dereferenceable(8) %ref.tmp)
          to label %invoke.cont30 unwind label %lpad, !dbg !7480

invoke.cont30:                                    ; preds = %invoke.cont27
  %polynomials31 = getelementptr inbounds %"class.dealii::PolynomialSpace.24", %"class.dealii::PolynomialSpace.24"* %this1, i32 0, i32 0, !dbg !7481
  %16 = load i32, i32* %i, align 4, !dbg !7482
  %conv32 = zext i32 %16 to i64, !dbg !7482
  %call33 = call dereferenceable(96) %"class.dealii::Polynomials::Polynomial"* @_ZNKSt6vectorIN6dealii11Polynomials10PolynomialIdEESaIS3_EEixEm(%"class.std::vector"* %polynomials31, i64 %conv32) #11, !dbg !7481
  %17 = load %"class.dealii::Point.25"*, %"class.dealii::Point.25"** %p.addr, align 8, !dbg !7483
  %18 = load i32, i32* %d, align 4, !dbg !7484
  %call35 = invoke double @_ZNK6dealii5PointILi2EEclEj(%"class.dealii::Point.25"* %17, i32 %18)
          to label %invoke.cont34 unwind label %lpad, !dbg !7483

invoke.cont34:                                    ; preds = %invoke.cont30
  %19 = load i32, i32* %d, align 4, !dbg !7485
  %20 = load i32, i32* %i, align 4, !dbg !7486
  %call37 = invoke dereferenceable(24) %"class.std::vector.3"* @_ZN6dealii5TableILi2ESt6vectorIdSaIdEEEclEjj(%"class.dealii::Table"* %v, i32 %19, i32 %20)
          to label %invoke.cont36 unwind label %lpad, !dbg !7487

invoke.cont36:                                    ; preds = %invoke.cont34
  invoke void @_ZNK6dealii11Polynomials10PolynomialIdE5valueEdRSt6vectorIdSaIdEE(%"class.dealii::Polynomials::Polynomial"* %call33, double %call35, %"class.std::vector.3"* dereferenceable(24) %call37)
          to label %invoke.cont38 unwind label %lpad, !dbg !7488

invoke.cont38:                                    ; preds = %invoke.cont36
  br label %for.inc, !dbg !7489

for.inc:                                          ; preds = %invoke.cont38
  %21 = load i32, i32* %i, align 4, !dbg !7490
  %inc = add i32 %21, 1, !dbg !7490
  store i32 %inc, i32* %i, align 4, !dbg !7490
  br label %for.cond20, !dbg !7491, !llvm.loop !7492

lpad:                                             ; preds = %invoke.cont199, %invoke.cont191, %invoke.cont190, %invoke.cont185, %invoke.cont184, %for.body168, %invoke.cont115, %invoke.cont114, %invoke.cont108, %invoke.cont107, %for.body105, %invoke.cont60, %invoke.cont56, %invoke.cont55, %for.body53, %invoke.cont36, %invoke.cont34, %invoke.cont30, %invoke.cont27, %for.body26, %invoke.cont21, %for.cond20, %invoke.cont, %for.cond
  %22 = landingpad { i8*, i32 }
          cleanup, !dbg !7494
  %23 = extractvalue { i8*, i32 } %22, 0, !dbg !7494
  store i8* %23, i8** %exn.slot, align 8, !dbg !7494
  %24 = extractvalue { i8*, i32 } %22, 1, !dbg !7494
  store i32 %24, i32* %ehselector.slot, align 4, !dbg !7494
  call void @_ZN6dealii5TableILi2ESt6vectorIdSaIdEEED2Ev(%"class.dealii::Table"* %v) #11, !dbg !7495
  br label %eh.resume, !dbg !7495

for.end:                                          ; preds = %invoke.cont23
  br label %for.inc39, !dbg !7493

for.inc39:                                        ; preds = %for.end
  %25 = load i32, i32* %d, align 4, !dbg !7496
  %inc40 = add i32 %25, 1, !dbg !7496
  store i32 %inc40, i32* %d, align 4, !dbg !7496
  br label %for.cond, !dbg !7497, !llvm.loop !7498

for.end41:                                        ; preds = %invoke.cont17
  %26 = load i8, i8* %update_values, align 1, !dbg !7500
  %tobool = trunc i8 %26 to i1, !dbg !7500
  br i1 %tobool, label %if.then42, label %if.end79, !dbg !7502

if.then42:                                        ; preds = %for.end41
  call void @llvm.dbg.declare(metadata i32* %k, metadata !7503, metadata !DIExpression()), !dbg !7505
  store i32 0, i32* %k, align 4, !dbg !7505
  call void @llvm.dbg.declare(metadata i32* %iz, metadata !7506, metadata !DIExpression()), !dbg !7508
  store i32 0, i32* %iz, align 4, !dbg !7508
  br label %for.cond43, !dbg !7509

for.cond43:                                       ; preds = %for.inc76, %if.then42
  %27 = load i32, i32* %iz, align 4, !dbg !7510
  %cmp44 = icmp ult i32 %27, 1, !dbg !7512
  br i1 %cmp44, label %for.body45, label %for.end78, !dbg !7513

for.body45:                                       ; preds = %for.cond43
  call void @llvm.dbg.declare(metadata i32* %iy, metadata !7514, metadata !DIExpression()), !dbg !7516
  store i32 0, i32* %iy, align 4, !dbg !7516
  br label %for.cond46, !dbg !7517

for.cond46:                                       ; preds = %for.inc73, %for.body45
  %28 = load i32, i32* %iy, align 4, !dbg !7518
  %29 = load i32, i32* %n_1d, align 4, !dbg !7520
  %30 = load i32, i32* %iz, align 4, !dbg !7521
  %sub = sub i32 %29, %30, !dbg !7522
  %cmp47 = icmp ult i32 %28, %sub, !dbg !7523
  br i1 %cmp47, label %for.body48, label %for.end75, !dbg !7524

for.body48:                                       ; preds = %for.cond46
  call void @llvm.dbg.declare(metadata i32* %ix, metadata !7525, metadata !DIExpression()), !dbg !7527
  store i32 0, i32* %ix, align 4, !dbg !7527
  br label %for.cond49, !dbg !7528

for.cond49:                                       ; preds = %for.inc70, %for.body48
  %31 = load i32, i32* %ix, align 4, !dbg !7529
  %32 = load i32, i32* %n_1d, align 4, !dbg !7531
  %33 = load i32, i32* %iy, align 4, !dbg !7532
  %sub50 = sub i32 %32, %33, !dbg !7533
  %34 = load i32, i32* %iz, align 4, !dbg !7534
  %sub51 = sub i32 %sub50, %34, !dbg !7535
  %cmp52 = icmp ult i32 %31, %sub51, !dbg !7536
  br i1 %cmp52, label %for.body53, label %for.end72, !dbg !7537

for.body53:                                       ; preds = %for.cond49
  invoke void @_ZN6dealii5TableILi2ESt6vectorIdSaIdEEEixEj(%"class.dealii::internal::TableBaseAccessors::Accessor"* sret %ref.tmp54, %"class.dealii::Table"* %v, i32 0)
          to label %invoke.cont55 unwind label %lpad, !dbg !7538

invoke.cont55:                                    ; preds = %for.body53
  %35 = load i32, i32* %ix, align 4, !dbg !7539
  %call57 = invoke dereferenceable(24) %"class.std::vector.3"* @_ZNK6dealii8internal18TableBaseAccessors8AccessorILi2ESt6vectorIdSaIdEELb0ELj1EEixEj(%"class.dealii::internal::TableBaseAccessors::Accessor"* %ref.tmp54, i32 %35)
          to label %invoke.cont56 unwind label %lpad, !dbg !7538

invoke.cont56:                                    ; preds = %invoke.cont55
  %call58 = call dereferenceable(8) double* @_ZNSt6vectorIdSaIdEEixEm(%"class.std::vector.3"* %call57, i64 0) #11, !dbg !7538
  %36 = load double, double* %call58, align 8, !dbg !7538
  invoke void @_ZN6dealii5TableILi2ESt6vectorIdSaIdEEEixEj(%"class.dealii::internal::TableBaseAccessors::Accessor"* sret %ref.tmp59, %"class.dealii::Table"* %v, i32 1)
          to label %invoke.cont60 unwind label %lpad, !dbg !7540

invoke.cont60:                                    ; preds = %invoke.cont56
  %37 = load i32, i32* %iy, align 4, !dbg !7541
  %call62 = invoke dereferenceable(24) %"class.std::vector.3"* @_ZNK6dealii8internal18TableBaseAccessors8AccessorILi2ESt6vectorIdSaIdEELb0ELj1EEixEj(%"class.dealii::internal::TableBaseAccessors::Accessor"* %ref.tmp59, i32 %37)
          to label %invoke.cont61 unwind label %lpad, !dbg !7540

invoke.cont61:                                    ; preds = %invoke.cont60
  %call63 = call dereferenceable(8) double* @_ZNSt6vectorIdSaIdEEixEm(%"class.std::vector.3"* %call62, i64 0) #11, !dbg !7540
  %38 = load double, double* %call63, align 8, !dbg !7540
  %mul = fmul double %36, %38, !dbg !7542
  %mul64 = fmul double %mul, 1.000000e+00, !dbg !7543
  %39 = load %"class.std::vector.3"*, %"class.std::vector.3"** %values.addr, align 8, !dbg !7544
  %index_map_inverse = getelementptr inbounds %"class.dealii::PolynomialSpace.24", %"class.dealii::PolynomialSpace.24"* %this1, i32 0, i32 3, !dbg !7545
  %40 = load i32, i32* %k, align 4, !dbg !7546
  %inc65 = add i32 %40, 1, !dbg !7546
  store i32 %inc65, i32* %k, align 4, !dbg !7546
  %conv66 = zext i32 %40 to i64, !dbg !7547
  %call67 = call dereferenceable(4) i32* @_ZNKSt6vectorIjSaIjEEixEm(%"class.std::vector.8"* %index_map_inverse, i64 %conv66) #11, !dbg !7545
  %41 = load i32, i32* %call67, align 4, !dbg !7545
  %conv68 = zext i32 %41 to i64, !dbg !7545
  %call69 = call dereferenceable(8) double* @_ZNSt6vectorIdSaIdEEixEm(%"class.std::vector.3"* %39, i64 %conv68) #11, !dbg !7544
  store double %mul64, double* %call69, align 8, !dbg !7548
  br label %for.inc70, !dbg !7544

for.inc70:                                        ; preds = %invoke.cont61
  %42 = load i32, i32* %ix, align 4, !dbg !7549
  %inc71 = add i32 %42, 1, !dbg !7549
  store i32 %inc71, i32* %ix, align 4, !dbg !7549
  br label %for.cond49, !dbg !7550, !llvm.loop !7551

for.end72:                                        ; preds = %for.cond49
  br label %for.inc73, !dbg !7552

for.inc73:                                        ; preds = %for.end72
  %43 = load i32, i32* %iy, align 4, !dbg !7553
  %inc74 = add i32 %43, 1, !dbg !7553
  store i32 %inc74, i32* %iy, align 4, !dbg !7553
  br label %for.cond46, !dbg !7554, !llvm.loop !7555

for.end75:                                        ; preds = %for.cond46
  br label %for.inc76, !dbg !7556

for.inc76:                                        ; preds = %for.end75
  %44 = load i32, i32* %iz, align 4, !dbg !7557
  %inc77 = add i32 %44, 1, !dbg !7557
  store i32 %inc77, i32* %iz, align 4, !dbg !7557
  br label %for.cond43, !dbg !7558, !llvm.loop !7559

for.end78:                                        ; preds = %for.cond43
  br label %if.end79, !dbg !7561

if.end79:                                         ; preds = %for.end78, %for.end41
  %45 = load i8, i8* %update_grads, align 1, !dbg !7562
  %tobool80 = trunc i8 %45 to i1, !dbg !7562
  br i1 %tobool80, label %if.then81, label %if.end139, !dbg !7564

if.then81:                                        ; preds = %if.end79
  call void @llvm.dbg.declare(metadata i32* %k82, metadata !7565, metadata !DIExpression()), !dbg !7567
  store i32 0, i32* %k82, align 4, !dbg !7567
  call void @llvm.dbg.declare(metadata i32* %iz83, metadata !7568, metadata !DIExpression()), !dbg !7570
  store i32 0, i32* %iz83, align 4, !dbg !7570
  br label %for.cond84, !dbg !7571

for.cond84:                                       ; preds = %for.inc136, %if.then81
  %46 = load i32, i32* %iz83, align 4, !dbg !7572
  %cmp85 = icmp ult i32 %46, 1, !dbg !7574
  br i1 %cmp85, label %for.body86, label %for.end138, !dbg !7575

for.body86:                                       ; preds = %for.cond84
  call void @llvm.dbg.declare(metadata i32* %iy87, metadata !7576, metadata !DIExpression()), !dbg !7578
  store i32 0, i32* %iy87, align 4, !dbg !7578
  br label %for.cond88, !dbg !7579

for.cond88:                                       ; preds = %for.inc133, %for.body86
  %47 = load i32, i32* %iy87, align 4, !dbg !7580
  %48 = load i32, i32* %n_1d, align 4, !dbg !7582
  %49 = load i32, i32* %iz83, align 4, !dbg !7583
  %sub89 = sub i32 %48, %49, !dbg !7584
  %cmp90 = icmp ult i32 %47, %sub89, !dbg !7585
  br i1 %cmp90, label %for.body91, label %for.end135, !dbg !7586

for.body91:                                       ; preds = %for.cond88
  call void @llvm.dbg.declare(metadata i32* %ix92, metadata !7587, metadata !DIExpression()), !dbg !7589
  store i32 0, i32* %ix92, align 4, !dbg !7589
  br label %for.cond93, !dbg !7590

for.cond93:                                       ; preds = %for.inc130, %for.body91
  %50 = load i32, i32* %ix92, align 4, !dbg !7591
  %51 = load i32, i32* %n_1d, align 4, !dbg !7593
  %52 = load i32, i32* %iy87, align 4, !dbg !7594
  %sub94 = sub i32 %51, %52, !dbg !7595
  %53 = load i32, i32* %iz83, align 4, !dbg !7596
  %sub95 = sub i32 %sub94, %53, !dbg !7597
  %cmp96 = icmp ult i32 %50, %sub95, !dbg !7598
  br i1 %cmp96, label %for.body97, label %for.end132, !dbg !7599

for.body97:                                       ; preds = %for.cond93
  call void @llvm.dbg.declare(metadata i32* %k2, metadata !7600, metadata !DIExpression()), !dbg !7602
  %index_map_inverse98 = getelementptr inbounds %"class.dealii::PolynomialSpace.24", %"class.dealii::PolynomialSpace.24"* %this1, i32 0, i32 3, !dbg !7603
  %54 = load i32, i32* %k82, align 4, !dbg !7604
  %inc99 = add i32 %54, 1, !dbg !7604
  store i32 %inc99, i32* %k82, align 4, !dbg !7604
  %conv100 = zext i32 %54 to i64, !dbg !7605
  %call101 = call dereferenceable(4) i32* @_ZNKSt6vectorIjSaIjEEixEm(%"class.std::vector.8"* %index_map_inverse98, i64 %conv100) #11, !dbg !7603
  %55 = load i32, i32* %call101, align 4, !dbg !7603
  store i32 %55, i32* %k2, align 4, !dbg !7602
  call void @llvm.dbg.declare(metadata i32* %d102, metadata !7606, metadata !DIExpression()), !dbg !7608
  store i32 0, i32* %d102, align 4, !dbg !7608
  br label %for.cond103, !dbg !7609

for.cond103:                                      ; preds = %for.inc127, %for.body97
  %56 = load i32, i32* %d102, align 4, !dbg !7610
  %cmp104 = icmp ult i32 %56, 2, !dbg !7612
  br i1 %cmp104, label %for.body105, label %for.end129, !dbg !7613

for.body105:                                      ; preds = %for.cond103
  invoke void @_ZN6dealii5TableILi2ESt6vectorIdSaIdEEEixEj(%"class.dealii::internal::TableBaseAccessors::Accessor"* sret %ref.tmp106, %"class.dealii::Table"* %v, i32 0)
          to label %invoke.cont107 unwind label %lpad, !dbg !7614

invoke.cont107:                                   ; preds = %for.body105
  %57 = load i32, i32* %ix92, align 4, !dbg !7615
  %call109 = invoke dereferenceable(24) %"class.std::vector.3"* @_ZNK6dealii8internal18TableBaseAccessors8AccessorILi2ESt6vectorIdSaIdEELb0ELj1EEixEj(%"class.dealii::internal::TableBaseAccessors::Accessor"* %ref.tmp106, i32 %57)
          to label %invoke.cont108 unwind label %lpad, !dbg !7614

invoke.cont108:                                   ; preds = %invoke.cont107
  %58 = load i32, i32* %d102, align 4, !dbg !7616
  %cmp110 = icmp eq i32 %58, 0, !dbg !7617
  %59 = zext i1 %cmp110 to i64, !dbg !7618
  %cond = select i1 %cmp110, i32 1, i32 0, !dbg !7618
  %conv111 = sext i32 %cond to i64, !dbg !7618
  %call112 = call dereferenceable(8) double* @_ZNSt6vectorIdSaIdEEixEm(%"class.std::vector.3"* %call109, i64 %conv111) #11, !dbg !7614
  %60 = load double, double* %call112, align 8, !dbg !7614
  invoke void @_ZN6dealii5TableILi2ESt6vectorIdSaIdEEEixEj(%"class.dealii::internal::TableBaseAccessors::Accessor"* sret %ref.tmp113, %"class.dealii::Table"* %v, i32 1)
          to label %invoke.cont114 unwind label %lpad, !dbg !7619

invoke.cont114:                                   ; preds = %invoke.cont108
  %61 = load i32, i32* %iy87, align 4, !dbg !7620
  %call116 = invoke dereferenceable(24) %"class.std::vector.3"* @_ZNK6dealii8internal18TableBaseAccessors8AccessorILi2ESt6vectorIdSaIdEELb0ELj1EEixEj(%"class.dealii::internal::TableBaseAccessors::Accessor"* %ref.tmp113, i32 %61)
          to label %invoke.cont115 unwind label %lpad, !dbg !7619

invoke.cont115:                                   ; preds = %invoke.cont114
  %62 = load i32, i32* %d102, align 4, !dbg !7621
  %cmp117 = icmp eq i32 %62, 1, !dbg !7622
  %63 = zext i1 %cmp117 to i64, !dbg !7623
  %cond118 = select i1 %cmp117, i32 1, i32 0, !dbg !7623
  %conv119 = sext i32 %cond118 to i64, !dbg !7623
  %call120 = call dereferenceable(8) double* @_ZNSt6vectorIdSaIdEEixEm(%"class.std::vector.3"* %call116, i64 %conv119) #11, !dbg !7619
  %64 = load double, double* %call120, align 8, !dbg !7619
  %mul121 = fmul double %60, %64, !dbg !7624
  %mul122 = fmul double %mul121, 1.000000e+00, !dbg !7625
  %65 = load %"class.std::vector.27"*, %"class.std::vector.27"** %grads.addr, align 8, !dbg !7626
  %66 = load i32, i32* %k2, align 4, !dbg !7627
  %conv123 = zext i32 %66 to i64, !dbg !7627
  %call124 = call dereferenceable(16) %"class.dealii::Tensor.26"* @_ZNSt6vectorIN6dealii6TensorILi1ELi2EEESaIS2_EEixEm(%"class.std::vector.27"* %65, i64 %conv123) #11, !dbg !7626
  %67 = load i32, i32* %d102, align 4, !dbg !7628
  %call126 = invoke dereferenceable(8) double* @_ZN6dealii6TensorILi1ELi2EEixEj(%"class.dealii::Tensor.26"* %call124, i32 %67)
          to label %invoke.cont125 unwind label %lpad, !dbg !7626

invoke.cont125:                                   ; preds = %invoke.cont115
  store double %mul122, double* %call126, align 8, !dbg !7629
  br label %for.inc127, !dbg !7626

for.inc127:                                       ; preds = %invoke.cont125
  %68 = load i32, i32* %d102, align 4, !dbg !7630
  %inc128 = add i32 %68, 1, !dbg !7630
  store i32 %inc128, i32* %d102, align 4, !dbg !7630
  br label %for.cond103, !dbg !7631, !llvm.loop !7632

for.end129:                                       ; preds = %for.cond103
  br label %for.inc130, !dbg !7634

for.inc130:                                       ; preds = %for.end129
  %69 = load i32, i32* %ix92, align 4, !dbg !7635
  %inc131 = add i32 %69, 1, !dbg !7635
  store i32 %inc131, i32* %ix92, align 4, !dbg !7635
  br label %for.cond93, !dbg !7636, !llvm.loop !7637

for.end132:                                       ; preds = %for.cond93
  br label %for.inc133, !dbg !7638

for.inc133:                                       ; preds = %for.end132
  %70 = load i32, i32* %iy87, align 4, !dbg !7639
  %inc134 = add i32 %70, 1, !dbg !7639
  store i32 %inc134, i32* %iy87, align 4, !dbg !7639
  br label %for.cond88, !dbg !7640, !llvm.loop !7641

for.end135:                                       ; preds = %for.cond88
  br label %for.inc136, !dbg !7642

for.inc136:                                       ; preds = %for.end135
  %71 = load i32, i32* %iz83, align 4, !dbg !7643
  %inc137 = add i32 %71, 1, !dbg !7643
  store i32 %inc137, i32* %iz83, align 4, !dbg !7643
  br label %for.cond84, !dbg !7644, !llvm.loop !7645

for.end138:                                       ; preds = %for.cond84
  br label %if.end139, !dbg !7647

if.end139:                                        ; preds = %for.end138, %if.end79
  %72 = load i8, i8* %update_grad_grads, align 1, !dbg !7648
  %tobool140 = trunc i8 %72 to i1, !dbg !7648
  br i1 %tobool140, label %if.then141, label %if.end218, !dbg !7650

if.then141:                                       ; preds = %if.end139
  call void @llvm.dbg.declare(metadata i32* %k142, metadata !7651, metadata !DIExpression()), !dbg !7653
  store i32 0, i32* %k142, align 4, !dbg !7653
  call void @llvm.dbg.declare(metadata i32* %iz143, metadata !7654, metadata !DIExpression()), !dbg !7656
  store i32 0, i32* %iz143, align 4, !dbg !7656
  br label %for.cond144, !dbg !7657

for.cond144:                                      ; preds = %for.inc215, %if.then141
  %73 = load i32, i32* %iz143, align 4, !dbg !7658
  %cmp145 = icmp ult i32 %73, 1, !dbg !7660
  br i1 %cmp145, label %for.body146, label %for.end217, !dbg !7661

for.body146:                                      ; preds = %for.cond144
  call void @llvm.dbg.declare(metadata i32* %iy147, metadata !7662, metadata !DIExpression()), !dbg !7664
  store i32 0, i32* %iy147, align 4, !dbg !7664
  br label %for.cond148, !dbg !7665

for.cond148:                                      ; preds = %for.inc212, %for.body146
  %74 = load i32, i32* %iy147, align 4, !dbg !7666
  %75 = load i32, i32* %n_1d, align 4, !dbg !7668
  %76 = load i32, i32* %iz143, align 4, !dbg !7669
  %sub149 = sub i32 %75, %76, !dbg !7670
  %cmp150 = icmp ult i32 %74, %sub149, !dbg !7671
  br i1 %cmp150, label %for.body151, label %for.end214, !dbg !7672

for.body151:                                      ; preds = %for.cond148
  call void @llvm.dbg.declare(metadata i32* %ix152, metadata !7673, metadata !DIExpression()), !dbg !7675
  store i32 0, i32* %ix152, align 4, !dbg !7675
  br label %for.cond153, !dbg !7676

for.cond153:                                      ; preds = %for.inc209, %for.body151
  %77 = load i32, i32* %ix152, align 4, !dbg !7677
  %78 = load i32, i32* %n_1d, align 4, !dbg !7679
  %79 = load i32, i32* %iy147, align 4, !dbg !7680
  %sub154 = sub i32 %78, %79, !dbg !7681
  %80 = load i32, i32* %iz143, align 4, !dbg !7682
  %sub155 = sub i32 %sub154, %80, !dbg !7683
  %cmp156 = icmp ult i32 %77, %sub155, !dbg !7684
  br i1 %cmp156, label %for.body157, label %for.end211, !dbg !7685

for.body157:                                      ; preds = %for.cond153
  call void @llvm.dbg.declare(metadata i32* %k2158, metadata !7686, metadata !DIExpression()), !dbg !7688
  %index_map_inverse159 = getelementptr inbounds %"class.dealii::PolynomialSpace.24", %"class.dealii::PolynomialSpace.24"* %this1, i32 0, i32 3, !dbg !7689
  %81 = load i32, i32* %k142, align 4, !dbg !7690
  %inc160 = add i32 %81, 1, !dbg !7690
  store i32 %inc160, i32* %k142, align 4, !dbg !7690
  %conv161 = zext i32 %81 to i64, !dbg !7691
  %call162 = call dereferenceable(4) i32* @_ZNKSt6vectorIjSaIjEEixEm(%"class.std::vector.8"* %index_map_inverse159, i64 %conv161) #11, !dbg !7689
  %82 = load i32, i32* %call162, align 4, !dbg !7689
  store i32 %82, i32* %k2158, align 4, !dbg !7688
  call void @llvm.dbg.declare(metadata i32* %d1, metadata !7692, metadata !DIExpression()), !dbg !7694
  store i32 0, i32* %d1, align 4, !dbg !7694
  br label %for.cond163, !dbg !7695

for.cond163:                                      ; preds = %for.inc206, %for.body157
  %83 = load i32, i32* %d1, align 4, !dbg !7696
  %cmp164 = icmp ult i32 %83, 2, !dbg !7698
  br i1 %cmp164, label %for.body165, label %for.end208, !dbg !7699

for.body165:                                      ; preds = %for.cond163
  call void @llvm.dbg.declare(metadata i32* %d2, metadata !7700, metadata !DIExpression()), !dbg !7702
  store i32 0, i32* %d2, align 4, !dbg !7702
  br label %for.cond166, !dbg !7703

for.cond166:                                      ; preds = %for.inc203, %for.body165
  %84 = load i32, i32* %d2, align 4, !dbg !7704
  %cmp167 = icmp ult i32 %84, 2, !dbg !7706
  br i1 %cmp167, label %for.body168, label %for.end205, !dbg !7707

for.body168:                                      ; preds = %for.cond166
  call void @llvm.dbg.declare(metadata i32* %j0, metadata !7708, metadata !DIExpression()), !dbg !7710
  %85 = load i32, i32* %d1, align 4, !dbg !7711
  %cmp169 = icmp eq i32 %85, 0, !dbg !7712
  %86 = zext i1 %cmp169 to i64, !dbg !7713
  %cond170 = select i1 %cmp169, i32 1, i32 0, !dbg !7713
  %87 = load i32, i32* %d2, align 4, !dbg !7714
  %cmp171 = icmp eq i32 %87, 0, !dbg !7715
  %88 = zext i1 %cmp171 to i64, !dbg !7716
  %cond172 = select i1 %cmp171, i32 1, i32 0, !dbg !7716
  %add = add nsw i32 %cond170, %cond172, !dbg !7717
  store i32 %add, i32* %j0, align 4, !dbg !7710
  call void @llvm.dbg.declare(metadata i32* %j1, metadata !7718, metadata !DIExpression()), !dbg !7719
  %89 = load i32, i32* %d1, align 4, !dbg !7720
  %cmp173 = icmp eq i32 %89, 1, !dbg !7721
  %90 = zext i1 %cmp173 to i64, !dbg !7722
  %cond174 = select i1 %cmp173, i32 1, i32 0, !dbg !7722
  %91 = load i32, i32* %d2, align 4, !dbg !7723
  %cmp175 = icmp eq i32 %91, 1, !dbg !7724
  %92 = zext i1 %cmp175 to i64, !dbg !7725
  %cond176 = select i1 %cmp175, i32 1, i32 0, !dbg !7725
  %add177 = add nsw i32 %cond174, %cond176, !dbg !7726
  store i32 %add177, i32* %j1, align 4, !dbg !7719
  call void @llvm.dbg.declare(metadata i32* %j2, metadata !7727, metadata !DIExpression()), !dbg !7728
  %93 = load i32, i32* %d1, align 4, !dbg !7729
  %cmp178 = icmp eq i32 %93, 2, !dbg !7730
  %94 = zext i1 %cmp178 to i64, !dbg !7731
  %cond179 = select i1 %cmp178, i32 1, i32 0, !dbg !7731
  %95 = load i32, i32* %d2, align 4, !dbg !7732
  %cmp180 = icmp eq i32 %95, 2, !dbg !7733
  %96 = zext i1 %cmp180 to i64, !dbg !7734
  %cond181 = select i1 %cmp180, i32 1, i32 0, !dbg !7734
  %add182 = add nsw i32 %cond179, %cond181, !dbg !7735
  store i32 %add182, i32* %j2, align 4, !dbg !7728
  invoke void @_ZN6dealii5TableILi2ESt6vectorIdSaIdEEEixEj(%"class.dealii::internal::TableBaseAccessors::Accessor"* sret %ref.tmp183, %"class.dealii::Table"* %v, i32 0)
          to label %invoke.cont184 unwind label %lpad, !dbg !7736

invoke.cont184:                                   ; preds = %for.body168
  %97 = load i32, i32* %ix152, align 4, !dbg !7737
  %call186 = invoke dereferenceable(24) %"class.std::vector.3"* @_ZNK6dealii8internal18TableBaseAccessors8AccessorILi2ESt6vectorIdSaIdEELb0ELj1EEixEj(%"class.dealii::internal::TableBaseAccessors::Accessor"* %ref.tmp183, i32 %97)
          to label %invoke.cont185 unwind label %lpad, !dbg !7736

invoke.cont185:                                   ; preds = %invoke.cont184
  %98 = load i32, i32* %j0, align 4, !dbg !7738
  %conv187 = zext i32 %98 to i64, !dbg !7738
  %call188 = call dereferenceable(8) double* @_ZNSt6vectorIdSaIdEEixEm(%"class.std::vector.3"* %call186, i64 %conv187) #11, !dbg !7736
  %99 = load double, double* %call188, align 8, !dbg !7736
  invoke void @_ZN6dealii5TableILi2ESt6vectorIdSaIdEEEixEj(%"class.dealii::internal::TableBaseAccessors::Accessor"* sret %ref.tmp189, %"class.dealii::Table"* %v, i32 1)
          to label %invoke.cont190 unwind label %lpad, !dbg !7739

invoke.cont190:                                   ; preds = %invoke.cont185
  %100 = load i32, i32* %iy147, align 4, !dbg !7740
  %call192 = invoke dereferenceable(24) %"class.std::vector.3"* @_ZNK6dealii8internal18TableBaseAccessors8AccessorILi2ESt6vectorIdSaIdEELb0ELj1EEixEj(%"class.dealii::internal::TableBaseAccessors::Accessor"* %ref.tmp189, i32 %100)
          to label %invoke.cont191 unwind label %lpad, !dbg !7739

invoke.cont191:                                   ; preds = %invoke.cont190
  %101 = load i32, i32* %j1, align 4, !dbg !7741
  %conv193 = zext i32 %101 to i64, !dbg !7741
  %call194 = call dereferenceable(8) double* @_ZNSt6vectorIdSaIdEEixEm(%"class.std::vector.3"* %call192, i64 %conv193) #11, !dbg !7739
  %102 = load double, double* %call194, align 8, !dbg !7739
  %mul195 = fmul double %99, %102, !dbg !7742
  %mul196 = fmul double %mul195, 1.000000e+00, !dbg !7743
  %103 = load %"class.std::vector.32"*, %"class.std::vector.32"** %grad_grads.addr, align 8, !dbg !7744
  %104 = load i32, i32* %k2158, align 4, !dbg !7745
  %conv197 = zext i32 %104 to i64, !dbg !7745
  %call198 = call dereferenceable(32) %"class.dealii::Tensor.37"* @_ZNSt6vectorIN6dealii6TensorILi2ELi2EEESaIS2_EEixEm(%"class.std::vector.32"* %103, i64 %conv197) #11, !dbg !7744
  %105 = load i32, i32* %d1, align 4, !dbg !7746
  %call200 = invoke dereferenceable(16) %"class.dealii::Tensor.26"* @_ZN6dealii6TensorILi2ELi2EEixEj(%"class.dealii::Tensor.37"* %call198, i32 %105)
          to label %invoke.cont199 unwind label %lpad, !dbg !7744

invoke.cont199:                                   ; preds = %invoke.cont191
  %106 = load i32, i32* %d2, align 4, !dbg !7747
  %call202 = invoke dereferenceable(8) double* @_ZN6dealii6TensorILi1ELi2EEixEj(%"class.dealii::Tensor.26"* %call200, i32 %106)
          to label %invoke.cont201 unwind label %lpad, !dbg !7744

invoke.cont201:                                   ; preds = %invoke.cont199
  store double %mul196, double* %call202, align 8, !dbg !7748
  br label %for.inc203, !dbg !7749

for.inc203:                                       ; preds = %invoke.cont201
  %107 = load i32, i32* %d2, align 4, !dbg !7750
  %inc204 = add i32 %107, 1, !dbg !7750
  store i32 %inc204, i32* %d2, align 4, !dbg !7750
  br label %for.cond166, !dbg !7751, !llvm.loop !7752

for.end205:                                       ; preds = %for.cond166
  br label %for.inc206, !dbg !7753

for.inc206:                                       ; preds = %for.end205
  %108 = load i32, i32* %d1, align 4, !dbg !7754
  %inc207 = add i32 %108, 1, !dbg !7754
  store i32 %inc207, i32* %d1, align 4, !dbg !7754
  br label %for.cond163, !dbg !7755, !llvm.loop !7756

for.end208:                                       ; preds = %for.cond163
  br label %for.inc209, !dbg !7758

for.inc209:                                       ; preds = %for.end208
  %109 = load i32, i32* %ix152, align 4, !dbg !7759
  %inc210 = add i32 %109, 1, !dbg !7759
  store i32 %inc210, i32* %ix152, align 4, !dbg !7759
  br label %for.cond153, !dbg !7760, !llvm.loop !7761

for.end211:                                       ; preds = %for.cond153
  br label %for.inc212, !dbg !7762

for.inc212:                                       ; preds = %for.end211
  %110 = load i32, i32* %iy147, align 4, !dbg !7763
  %inc213 = add i32 %110, 1, !dbg !7763
  store i32 %inc213, i32* %iy147, align 4, !dbg !7763
  br label %for.cond148, !dbg !7764, !llvm.loop !7765

for.end214:                                       ; preds = %for.cond148
  br label %for.inc215, !dbg !7766

for.inc215:                                       ; preds = %for.end214
  %111 = load i32, i32* %iz143, align 4, !dbg !7767
  %inc216 = add i32 %111, 1, !dbg !7767
  store i32 %inc216, i32* %iz143, align 4, !dbg !7767
  br label %for.cond144, !dbg !7768, !llvm.loop !7769

for.end217:                                       ; preds = %for.cond144
  br label %if.end218, !dbg !7771

if.end218:                                        ; preds = %for.end217, %if.end139
  call void @_ZN6dealii5TableILi2ESt6vectorIdSaIdEEED2Ev(%"class.dealii::Table"* %v) #11, !dbg !7495
  ret void, !dbg !7495

eh.resume:                                        ; preds = %lpad
  %exn = load i8*, i8** %exn.slot, align 8, !dbg !7495
  %sel = load i32, i32* %ehselector.slot, align 4, !dbg !7495
  %lpad.val = insertvalue { i8*, i32 } undef, i8* %exn, 0, !dbg !7495
  %lpad.val219 = insertvalue { i8*, i32 } %lpad.val, i32 %sel, 1, !dbg !7495
  resume { i8*, i32 } %lpad.val219, !dbg !7495
}

; Function Attrs: noinline nounwind uwtable
define linkonce_odr dso_local i64 @_ZNKSt6vectorIN6dealii6TensorILi1ELi2EEESaIS2_EE4sizeEv(%"class.std::vector.27"* %this) #2 comdat align 2 !dbg !7772 {
entry:
  %this.addr = alloca %"class.std::vector.27"*, align 8
  store %"class.std::vector.27"* %this, %"class.std::vector.27"** %this.addr, align 8
  call void @llvm.dbg.declare(metadata %"class.std::vector.27"** %this.addr, metadata !7773, metadata !DIExpression()), !dbg !7775
  %this1 = load %"class.std::vector.27"*, %"class.std::vector.27"** %this.addr, align 8
  %0 = bitcast %"class.std::vector.27"* %this1 to %"struct.std::_Vector_base.28"*, !dbg !7776
  %_M_impl = getelementptr inbounds %"struct.std::_Vector_base.28", %"struct.std::_Vector_base.28"* %0, i32 0, i32 0, !dbg !7776
  %1 = bitcast %"struct.std::_Vector_base<dealii::Tensor<1, 2>, std::allocator<dealii::Tensor<1, 2> > >::_Vector_impl"* %_M_impl to %"struct.std::_Vector_base<dealii::Tensor<1, 2>, std::allocator<dealii::Tensor<1, 2> > >::_Vector_impl_data"*, !dbg !7777
  %_M_finish = getelementptr inbounds %"struct.std::_Vector_base<dealii::Tensor<1, 2>, std::allocator<dealii::Tensor<1, 2> > >::_Vector_impl_data", %"struct.std::_Vector_base<dealii::Tensor<1, 2>, std::allocator<dealii::Tensor<1, 2> > >::_Vector_impl_data"* %1, i32 0, i32 1, !dbg !7778
  %2 = load %"class.dealii::Tensor.26"*, %"class.dealii::Tensor.26"** %_M_finish, align 8, !dbg !7778
  %3 = bitcast %"class.std::vector.27"* %this1 to %"struct.std::_Vector_base.28"*, !dbg !7779
  %_M_impl2 = getelementptr inbounds %"struct.std::_Vector_base.28", %"struct.std::_Vector_base.28"* %3, i32 0, i32 0, !dbg !7779
  %4 = bitcast %"struct.std::_Vector_base<dealii::Tensor<1, 2>, std::allocator<dealii::Tensor<1, 2> > >::_Vector_impl"* %_M_impl2 to %"struct.std::_Vector_base<dealii::Tensor<1, 2>, std::allocator<dealii::Tensor<1, 2> > >::_Vector_impl_data"*, !dbg !7780
  %_M_start = getelementptr inbounds %"struct.std::_Vector_base<dealii::Tensor<1, 2>, std::allocator<dealii::Tensor<1, 2> > >::_Vector_impl_data", %"struct.std::_Vector_base<dealii::Tensor<1, 2>, std::allocator<dealii::Tensor<1, 2> > >::_Vector_impl_data"* %4, i32 0, i32 0, !dbg !7781
  %5 = load %"class.dealii::Tensor.26"*, %"class.dealii::Tensor.26"** %_M_start, align 8, !dbg !7781
  %sub.ptr.lhs.cast = ptrtoint %"class.dealii::Tensor.26"* %2 to i64, !dbg !7782
  %sub.ptr.rhs.cast = ptrtoint %"class.dealii::Tensor.26"* %5 to i64, !dbg !7782
  %sub.ptr.sub = sub i64 %sub.ptr.lhs.cast, %sub.ptr.rhs.cast, !dbg !7782
  %sub.ptr.div = sdiv exact i64 %sub.ptr.sub, 16, !dbg !7782
  ret i64 %sub.ptr.div, !dbg !7783
}

; Function Attrs: noinline nounwind uwtable
define linkonce_odr dso_local i64 @_ZNKSt6vectorIN6dealii6TensorILi2ELi2EEESaIS2_EE4sizeEv(%"class.std::vector.32"* %this) #2 comdat align 2 !dbg !7784 {
entry:
  %this.addr = alloca %"class.std::vector.32"*, align 8
  store %"class.std::vector.32"* %this, %"class.std::vector.32"** %this.addr, align 8
  call void @llvm.dbg.declare(metadata %"class.std::vector.32"** %this.addr, metadata !7785, metadata !DIExpression()), !dbg !7787
  %this1 = load %"class.std::vector.32"*, %"class.std::vector.32"** %this.addr, align 8
  %0 = bitcast %"class.std::vector.32"* %this1 to %"struct.std::_Vector_base.33"*, !dbg !7788
  %_M_impl = getelementptr inbounds %"struct.std::_Vector_base.33", %"struct.std::_Vector_base.33"* %0, i32 0, i32 0, !dbg !7788
  %1 = bitcast %"struct.std::_Vector_base<dealii::Tensor<2, 2>, std::allocator<dealii::Tensor<2, 2> > >::_Vector_impl"* %_M_impl to %"struct.std::_Vector_base<dealii::Tensor<2, 2>, std::allocator<dealii::Tensor<2, 2> > >::_Vector_impl_data"*, !dbg !7789
  %_M_finish = getelementptr inbounds %"struct.std::_Vector_base<dealii::Tensor<2, 2>, std::allocator<dealii::Tensor<2, 2> > >::_Vector_impl_data", %"struct.std::_Vector_base<dealii::Tensor<2, 2>, std::allocator<dealii::Tensor<2, 2> > >::_Vector_impl_data"* %1, i32 0, i32 1, !dbg !7790
  %2 = load %"class.dealii::Tensor.37"*, %"class.dealii::Tensor.37"** %_M_finish, align 8, !dbg !7790
  %3 = bitcast %"class.std::vector.32"* %this1 to %"struct.std::_Vector_base.33"*, !dbg !7791
  %_M_impl2 = getelementptr inbounds %"struct.std::_Vector_base.33", %"struct.std::_Vector_base.33"* %3, i32 0, i32 0, !dbg !7791
  %4 = bitcast %"struct.std::_Vector_base<dealii::Tensor<2, 2>, std::allocator<dealii::Tensor<2, 2> > >::_Vector_impl"* %_M_impl2 to %"struct.std::_Vector_base<dealii::Tensor<2, 2>, std::allocator<dealii::Tensor<2, 2> > >::_Vector_impl_data"*, !dbg !7792
  %_M_start = getelementptr inbounds %"struct.std::_Vector_base<dealii::Tensor<2, 2>, std::allocator<dealii::Tensor<2, 2> > >::_Vector_impl_data", %"struct.std::_Vector_base<dealii::Tensor<2, 2>, std::allocator<dealii::Tensor<2, 2> > >::_Vector_impl_data"* %4, i32 0, i32 0, !dbg !7793
  %5 = load %"class.dealii::Tensor.37"*, %"class.dealii::Tensor.37"** %_M_start, align 8, !dbg !7793
  %sub.ptr.lhs.cast = ptrtoint %"class.dealii::Tensor.37"* %2 to i64, !dbg !7794
  %sub.ptr.rhs.cast = ptrtoint %"class.dealii::Tensor.37"* %5 to i64, !dbg !7794
  %sub.ptr.sub = sub i64 %sub.ptr.lhs.cast, %sub.ptr.rhs.cast, !dbg !7794
  %sub.ptr.div = sdiv exact i64 %sub.ptr.sub, 32, !dbg !7794
  ret i64 %sub.ptr.div, !dbg !7795
}

; Function Attrs: noinline nounwind uwtable
define linkonce_odr dso_local double @_ZNK6dealii5PointILi2EEclEj(%"class.dealii::Point.25"* %this, i32 %index) #2 comdat align 2 !dbg !7796 {
entry:
  %this.addr = alloca %"class.dealii::Point.25"*, align 8
  %index.addr = alloca i32, align 4
  store %"class.dealii::Point.25"* %this, %"class.dealii::Point.25"** %this.addr, align 8
  call void @llvm.dbg.declare(metadata %"class.dealii::Point.25"** %this.addr, metadata !7797, metadata !DIExpression()), !dbg !7799
  store i32 %index, i32* %index.addr, align 4
  call void @llvm.dbg.declare(metadata i32* %index.addr, metadata !7800, metadata !DIExpression()), !dbg !7801
  %this1 = load %"class.dealii::Point.25"*, %"class.dealii::Point.25"** %this.addr, align 8
  %0 = bitcast %"class.dealii::Point.25"* %this1 to %"class.dealii::Tensor.26"*, !dbg !7802
  %values = getelementptr inbounds %"class.dealii::Tensor.26", %"class.dealii::Tensor.26"* %0, i32 0, i32 0, !dbg !7802
  %1 = load i32, i32* %index.addr, align 4, !dbg !7803
  %idxprom = zext i32 %1 to i64, !dbg !7804
  %arrayidx = getelementptr inbounds [2 x double], [2 x double]* %values, i64 0, i64 %idxprom, !dbg !7804
  %2 = load double, double* %arrayidx, align 8, !dbg !7804
  ret double %2, !dbg !7805
}

; Function Attrs: noinline nounwind uwtable
define linkonce_odr dso_local dereferenceable(16) %"class.dealii::Tensor.26"* @_ZNSt6vectorIN6dealii6TensorILi1ELi2EEESaIS2_EEixEm(%"class.std::vector.27"* %this, i64 %__n) #2 comdat align 2 !dbg !7806 {
entry:
  %this.addr = alloca %"class.std::vector.27"*, align 8
  %__n.addr = alloca i64, align 8
  store %"class.std::vector.27"* %this, %"class.std::vector.27"** %this.addr, align 8
  call void @llvm.dbg.declare(metadata %"class.std::vector.27"** %this.addr, metadata !7807, metadata !DIExpression()), !dbg !7809
  store i64 %__n, i64* %__n.addr, align 8
  call void @llvm.dbg.declare(metadata i64* %__n.addr, metadata !7810, metadata !DIExpression()), !dbg !7811
  %this1 = load %"class.std::vector.27"*, %"class.std::vector.27"** %this.addr, align 8
  %0 = bitcast %"class.std::vector.27"* %this1 to %"struct.std::_Vector_base.28"*, !dbg !7812
  %_M_impl = getelementptr inbounds %"struct.std::_Vector_base.28", %"struct.std::_Vector_base.28"* %0, i32 0, i32 0, !dbg !7812
  %1 = bitcast %"struct.std::_Vector_base<dealii::Tensor<1, 2>, std::allocator<dealii::Tensor<1, 2> > >::_Vector_impl"* %_M_impl to %"struct.std::_Vector_base<dealii::Tensor<1, 2>, std::allocator<dealii::Tensor<1, 2> > >::_Vector_impl_data"*, !dbg !7813
  %_M_start = getelementptr inbounds %"struct.std::_Vector_base<dealii::Tensor<1, 2>, std::allocator<dealii::Tensor<1, 2> > >::_Vector_impl_data", %"struct.std::_Vector_base<dealii::Tensor<1, 2>, std::allocator<dealii::Tensor<1, 2> > >::_Vector_impl_data"* %1, i32 0, i32 0, !dbg !7814
  %2 = load %"class.dealii::Tensor.26"*, %"class.dealii::Tensor.26"** %_M_start, align 8, !dbg !7814
  %3 = load i64, i64* %__n.addr, align 8, !dbg !7815
  %add.ptr = getelementptr inbounds %"class.dealii::Tensor.26", %"class.dealii::Tensor.26"* %2, i64 %3, !dbg !7816
  ret %"class.dealii::Tensor.26"* %add.ptr, !dbg !7817
}

; Function Attrs: noinline nounwind uwtable
define linkonce_odr dso_local dereferenceable(8) double* @_ZN6dealii6TensorILi1ELi2EEixEj(%"class.dealii::Tensor.26"* %this, i32 %index) #2 comdat align 2 !dbg !7818 {
entry:
  %this.addr = alloca %"class.dealii::Tensor.26"*, align 8
  %index.addr = alloca i32, align 4
  store %"class.dealii::Tensor.26"* %this, %"class.dealii::Tensor.26"** %this.addr, align 8
  call void @llvm.dbg.declare(metadata %"class.dealii::Tensor.26"** %this.addr, metadata !7819, metadata !DIExpression()), !dbg !7820
  store i32 %index, i32* %index.addr, align 4
  call void @llvm.dbg.declare(metadata i32* %index.addr, metadata !7821, metadata !DIExpression()), !dbg !7822
  %this1 = load %"class.dealii::Tensor.26"*, %"class.dealii::Tensor.26"** %this.addr, align 8
  %values = getelementptr inbounds %"class.dealii::Tensor.26", %"class.dealii::Tensor.26"* %this1, i32 0, i32 0, !dbg !7823
  %0 = load i32, i32* %index.addr, align 4, !dbg !7824
  %idxprom = zext i32 %0 to i64, !dbg !7823
  %arrayidx = getelementptr inbounds [2 x double], [2 x double]* %values, i64 0, i64 %idxprom, !dbg !7823
  ret double* %arrayidx, !dbg !7825
}

; Function Attrs: noinline nounwind uwtable
define linkonce_odr dso_local dereferenceable(32) %"class.dealii::Tensor.37"* @_ZNSt6vectorIN6dealii6TensorILi2ELi2EEESaIS2_EEixEm(%"class.std::vector.32"* %this, i64 %__n) #2 comdat align 2 !dbg !7826 {
entry:
  %this.addr = alloca %"class.std::vector.32"*, align 8
  %__n.addr = alloca i64, align 8
  store %"class.std::vector.32"* %this, %"class.std::vector.32"** %this.addr, align 8
  call void @llvm.dbg.declare(metadata %"class.std::vector.32"** %this.addr, metadata !7827, metadata !DIExpression()), !dbg !7829
  store i64 %__n, i64* %__n.addr, align 8
  call void @llvm.dbg.declare(metadata i64* %__n.addr, metadata !7830, metadata !DIExpression()), !dbg !7831
  %this1 = load %"class.std::vector.32"*, %"class.std::vector.32"** %this.addr, align 8
  %0 = bitcast %"class.std::vector.32"* %this1 to %"struct.std::_Vector_base.33"*, !dbg !7832
  %_M_impl = getelementptr inbounds %"struct.std::_Vector_base.33", %"struct.std::_Vector_base.33"* %0, i32 0, i32 0, !dbg !7832
  %1 = bitcast %"struct.std::_Vector_base<dealii::Tensor<2, 2>, std::allocator<dealii::Tensor<2, 2> > >::_Vector_impl"* %_M_impl to %"struct.std::_Vector_base<dealii::Tensor<2, 2>, std::allocator<dealii::Tensor<2, 2> > >::_Vector_impl_data"*, !dbg !7833
  %_M_start = getelementptr inbounds %"struct.std::_Vector_base<dealii::Tensor<2, 2>, std::allocator<dealii::Tensor<2, 2> > >::_Vector_impl_data", %"struct.std::_Vector_base<dealii::Tensor<2, 2>, std::allocator<dealii::Tensor<2, 2> > >::_Vector_impl_data"* %1, i32 0, i32 0, !dbg !7834
  %2 = load %"class.dealii::Tensor.37"*, %"class.dealii::Tensor.37"** %_M_start, align 8, !dbg !7834
  %3 = load i64, i64* %__n.addr, align 8, !dbg !7835
  %add.ptr = getelementptr inbounds %"class.dealii::Tensor.37", %"class.dealii::Tensor.37"* %2, i64 %3, !dbg !7836
  ret %"class.dealii::Tensor.37"* %add.ptr, !dbg !7837
}

; Function Attrs: noinline nounwind uwtable
define linkonce_odr dso_local dereferenceable(16) %"class.dealii::Tensor.26"* @_ZN6dealii6TensorILi2ELi2EEixEj(%"class.dealii::Tensor.37"* %this, i32 %i) #2 comdat align 2 !dbg !7838 {
entry:
  %this.addr = alloca %"class.dealii::Tensor.37"*, align 8
  %i.addr = alloca i32, align 4
  store %"class.dealii::Tensor.37"* %this, %"class.dealii::Tensor.37"** %this.addr, align 8
  call void @llvm.dbg.declare(metadata %"class.dealii::Tensor.37"** %this.addr, metadata !7839, metadata !DIExpression()), !dbg !7840
  store i32 %i, i32* %i.addr, align 4
  call void @llvm.dbg.declare(metadata i32* %i.addr, metadata !7841, metadata !DIExpression()), !dbg !7842
  %this1 = load %"class.dealii::Tensor.37"*, %"class.dealii::Tensor.37"** %this.addr, align 8
  %subtensor = getelementptr inbounds %"class.dealii::Tensor.37", %"class.dealii::Tensor.37"* %this1, i32 0, i32 0, !dbg !7843
  %0 = load i32, i32* %i.addr, align 4, !dbg !7844
  %idxprom = zext i32 %0 to i64, !dbg !7843
  %arrayidx = getelementptr inbounds [2 x %"class.dealii::Tensor.26"], [2 x %"class.dealii::Tensor.26"]* %subtensor, i64 0, i64 %idxprom, !dbg !7843
  ret %"class.dealii::Tensor.26"* %arrayidx, !dbg !7845
}

; Function Attrs: noinline uwtable
define weak_odr dso_local double @_ZNK6dealii15PolynomialSpaceILi2EE13compute_valueEjRKNS_5PointILi2EEE(%"class.dealii::PolynomialSpace.24"* %this, i32 %i, %"class.dealii::Point.25"* dereferenceable(16) %p) #0 comdat align 2 !dbg !7846 {
entry:
  %this.addr = alloca %"class.dealii::PolynomialSpace.24"*, align 8
  %i.addr = alloca i32, align 4
  %p.addr = alloca %"class.dealii::Point.25"*, align 8
  %ix = alloca [2 x i32], align 4
  %result = alloca double, align 8
  %d = alloca i32, align 4
  store %"class.dealii::PolynomialSpace.24"* %this, %"class.dealii::PolynomialSpace.24"** %this.addr, align 8
  call void @llvm.dbg.declare(metadata %"class.dealii::PolynomialSpace.24"** %this.addr, metadata !7847, metadata !DIExpression()), !dbg !7848
  store i32 %i, i32* %i.addr, align 4
  call void @llvm.dbg.declare(metadata i32* %i.addr, metadata !7849, metadata !DIExpression()), !dbg !7850
  store %"class.dealii::Point.25"* %p, %"class.dealii::Point.25"** %p.addr, align 8
  call void @llvm.dbg.declare(metadata %"class.dealii::Point.25"** %p.addr, metadata !7851, metadata !DIExpression()), !dbg !7852
  %this1 = load %"class.dealii::PolynomialSpace.24"*, %"class.dealii::PolynomialSpace.24"** %this.addr, align 8
  call void @llvm.dbg.declare(metadata [2 x i32]* %ix, metadata !7853, metadata !DIExpression()), !dbg !7854
  %0 = load i32, i32* %i.addr, align 4, !dbg !7855
  call void @_ZNK6dealii15PolynomialSpaceILi2EE13compute_indexEjRA2_j(%"class.dealii::PolynomialSpace.24"* %this1, i32 %0, [2 x i32]* dereferenceable(8) %ix), !dbg !7856
  call void @llvm.dbg.declare(metadata double* %result, metadata !7857, metadata !DIExpression()), !dbg !7858
  store double 1.000000e+00, double* %result, align 8, !dbg !7858
  call void @llvm.dbg.declare(metadata i32* %d, metadata !7859, metadata !DIExpression()), !dbg !7861
  store i32 0, i32* %d, align 4, !dbg !7861
  br label %for.cond, !dbg !7862

for.cond:                                         ; preds = %for.inc, %entry
  %1 = load i32, i32* %d, align 4, !dbg !7863
  %cmp = icmp ult i32 %1, 2, !dbg !7865
  br i1 %cmp, label %for.body, label %for.end, !dbg !7866

for.body:                                         ; preds = %for.cond
  %polynomials = getelementptr inbounds %"class.dealii::PolynomialSpace.24", %"class.dealii::PolynomialSpace.24"* %this1, i32 0, i32 0, !dbg !7867
  %2 = load i32, i32* %d, align 4, !dbg !7868
  %idxprom = zext i32 %2 to i64, !dbg !7869
  %arrayidx = getelementptr inbounds [2 x i32], [2 x i32]* %ix, i64 0, i64 %idxprom, !dbg !7869
  %3 = load i32, i32* %arrayidx, align 4, !dbg !7869
  %conv = zext i32 %3 to i64, !dbg !7869
  %call = call dereferenceable(96) %"class.dealii::Polynomials::Polynomial"* @_ZNKSt6vectorIN6dealii11Polynomials10PolynomialIdEESaIS3_EEixEm(%"class.std::vector"* %polynomials, i64 %conv) #11, !dbg !7867
  %4 = load %"class.dealii::Point.25"*, %"class.dealii::Point.25"** %p.addr, align 8, !dbg !7870
  %5 = load i32, i32* %d, align 4, !dbg !7871
  %call2 = call double @_ZNK6dealii5PointILi2EEclEj(%"class.dealii::Point.25"* %4, i32 %5), !dbg !7870
  %call3 = call double @_ZNK6dealii11Polynomials10PolynomialIdE5valueEd(%"class.dealii::Polynomials::Polynomial"* %call, double %call2), !dbg !7872
  %6 = load double, double* %result, align 8, !dbg !7873
  %mul = fmul double %6, %call3, !dbg !7873
  store double %mul, double* %result, align 8, !dbg !7873
  br label %for.inc, !dbg !7874

for.inc:                                          ; preds = %for.body
  %7 = load i32, i32* %d, align 4, !dbg !7875
  %inc = add i32 %7, 1, !dbg !7875
  store i32 %inc, i32* %d, align 4, !dbg !7875
  br label %for.cond, !dbg !7876, !llvm.loop !7877

for.end:                                          ; preds = %for.cond
  %8 = load double, double* %result, align 8, !dbg !7879
  ret double %8, !dbg !7880
}

; Function Attrs: noinline nounwind uwtable
define dso_local void @_ZNK6dealii15PolynomialSpaceILi2EE13compute_indexEjRA2_j(%"class.dealii::PolynomialSpace.24"* %this, i32 %i, [2 x i32]* dereferenceable(8) %index) #2 align 2 !dbg !7881 {
entry:
  %this.addr = alloca %"class.dealii::PolynomialSpace.24"*, align 8
  %i.addr = alloca i32, align 4
  %index.addr = alloca [2 x i32]*, align 8
  %n = alloca i32, align 4
  %n_1d = alloca i32, align 4
  %k = alloca i32, align 4
  %iy = alloca i32, align 4
  store %"class.dealii::PolynomialSpace.24"* %this, %"class.dealii::PolynomialSpace.24"** %this.addr, align 8
  call void @llvm.dbg.declare(metadata %"class.dealii::PolynomialSpace.24"** %this.addr, metadata !7882, metadata !DIExpression()), !dbg !7883
  store i32 %i, i32* %i.addr, align 4
  call void @llvm.dbg.declare(metadata i32* %i.addr, metadata !7884, metadata !DIExpression()), !dbg !7885
  store [2 x i32]* %index, [2 x i32]** %index.addr, align 8
  call void @llvm.dbg.declare(metadata [2 x i32]** %index.addr, metadata !7886, metadata !DIExpression()), !dbg !7887
  %this1 = load %"class.dealii::PolynomialSpace.24"*, %"class.dealii::PolynomialSpace.24"** %this.addr, align 8
  call void @llvm.dbg.declare(metadata i32* %n, metadata !7888, metadata !DIExpression()), !dbg !7889
  %index_map = getelementptr inbounds %"class.dealii::PolynomialSpace.24", %"class.dealii::PolynomialSpace.24"* %this1, i32 0, i32 2, !dbg !7890
  %0 = load i32, i32* %i.addr, align 4, !dbg !7891
  %conv = zext i32 %0 to i64, !dbg !7891
  %call = call dereferenceable(4) i32* @_ZNKSt6vectorIjSaIjEEixEm(%"class.std::vector.8"* %index_map, i64 %conv) #11, !dbg !7890
  %1 = load i32, i32* %call, align 4, !dbg !7890
  store i32 %1, i32* %n, align 4, !dbg !7889
  call void @llvm.dbg.declare(metadata i32* %n_1d, metadata !7892, metadata !DIExpression()), !dbg !7893
  %polynomials = getelementptr inbounds %"class.dealii::PolynomialSpace.24", %"class.dealii::PolynomialSpace.24"* %this1, i32 0, i32 0, !dbg !7894
  %call2 = call i64 @_ZNKSt6vectorIN6dealii11Polynomials10PolynomialIdEESaIS3_EE4sizeEv(%"class.std::vector"* %polynomials) #11, !dbg !7895
  %conv3 = trunc i64 %call2 to i32, !dbg !7894
  store i32 %conv3, i32* %n_1d, align 4, !dbg !7893
  call void @llvm.dbg.declare(metadata i32* %k, metadata !7896, metadata !DIExpression()), !dbg !7897
  store i32 0, i32* %k, align 4, !dbg !7897
  call void @llvm.dbg.declare(metadata i32* %iy, metadata !7898, metadata !DIExpression()), !dbg !7900
  store i32 0, i32* %iy, align 4, !dbg !7900
  br label %for.cond, !dbg !7901

for.cond:                                         ; preds = %for.inc, %entry
  %2 = load i32, i32* %iy, align 4, !dbg !7902
  %3 = load i32, i32* %n_1d, align 4, !dbg !7904
  %cmp = icmp ult i32 %2, %3, !dbg !7905
  br i1 %cmp, label %for.body, label %for.end, !dbg !7906

for.body:                                         ; preds = %for.cond
  %4 = load i32, i32* %n, align 4, !dbg !7907
  %5 = load i32, i32* %k, align 4, !dbg !7909
  %6 = load i32, i32* %n_1d, align 4, !dbg !7910
  %add = add i32 %5, %6, !dbg !7911
  %7 = load i32, i32* %iy, align 4, !dbg !7912
  %sub = sub i32 %add, %7, !dbg !7913
  %cmp4 = icmp ult i32 %4, %sub, !dbg !7914
  br i1 %cmp4, label %if.then, label %if.else, !dbg !7915

if.then:                                          ; preds = %for.body
  %8 = load i32, i32* %n, align 4, !dbg !7916
  %9 = load i32, i32* %k, align 4, !dbg !7918
  %sub5 = sub i32 %8, %9, !dbg !7919
  %10 = load [2 x i32]*, [2 x i32]** %index.addr, align 8, !dbg !7920
  %arrayidx = getelementptr inbounds [2 x i32], [2 x i32]* %10, i64 0, i64 0, !dbg !7920
  store i32 %sub5, i32* %arrayidx, align 4, !dbg !7921
  %11 = load i32, i32* %iy, align 4, !dbg !7922
  %12 = load [2 x i32]*, [2 x i32]** %index.addr, align 8, !dbg !7923
  %arrayidx6 = getelementptr inbounds [2 x i32], [2 x i32]* %12, i64 0, i64 1, !dbg !7923
  store i32 %11, i32* %arrayidx6, align 4, !dbg !7924
  br label %for.end, !dbg !7925

if.else:                                          ; preds = %for.body
  %13 = load i32, i32* %n_1d, align 4, !dbg !7926
  %14 = load i32, i32* %iy, align 4, !dbg !7927
  %sub7 = sub i32 %13, %14, !dbg !7928
  %15 = load i32, i32* %k, align 4, !dbg !7929
  %add8 = add i32 %15, %sub7, !dbg !7929
  store i32 %add8, i32* %k, align 4, !dbg !7929
  br label %if.end

if.end:                                           ; preds = %if.else
  br label %for.inc, !dbg !7912

for.inc:                                          ; preds = %if.end
  %16 = load i32, i32* %iy, align 4, !dbg !7930
  %inc = add i32 %16, 1, !dbg !7930
  store i32 %inc, i32* %iy, align 4, !dbg !7930
  br label %for.cond, !dbg !7931, !llvm.loop !7932

for.end:                                          ; preds = %if.then, %for.cond
  ret void, !dbg !7934
}

; Function Attrs: noinline uwtable
define weak_odr dso_local void @_ZNK6dealii15PolynomialSpaceILi2EE12compute_gradEjRKNS_5PointILi2EEE(%"class.dealii::Tensor.26"* noalias sret %agg.result, %"class.dealii::PolynomialSpace.24"* %this, i32 %i, %"class.dealii::Point.25"* dereferenceable(16) %p) #0 comdat align 2 personality i8* bitcast (i32 (...)* @__gxx_personality_v0 to i8*) !dbg !7935 {
entry:
  %result.ptr = alloca i8*, align 8
  %this.addr = alloca %"class.dealii::PolynomialSpace.24"*, align 8
  %i.addr = alloca i32, align 4
  %p.addr = alloca %"class.dealii::Point.25"*, align 8
  %ix = alloca [2 x i32], align 4
  %d = alloca i32, align 4
  %v = alloca %"class.std::vector.3", align 8
  %ref.tmp = alloca %"class.std::allocator.5", align 1
  %exn.slot = alloca i8*
  %ehselector.slot = alloca i32
  %d2 = alloca i32, align 4
  %d1 = alloca i32, align 4
  %0 = bitcast %"class.dealii::Tensor.26"* %agg.result to i8*
  store i8* %0, i8** %result.ptr, align 8
  store %"class.dealii::PolynomialSpace.24"* %this, %"class.dealii::PolynomialSpace.24"** %this.addr, align 8
  call void @llvm.dbg.declare(metadata %"class.dealii::PolynomialSpace.24"** %this.addr, metadata !7936, metadata !DIExpression()), !dbg !7937
  store i32 %i, i32* %i.addr, align 4
  call void @llvm.dbg.declare(metadata i32* %i.addr, metadata !7938, metadata !DIExpression()), !dbg !7939
  store %"class.dealii::Point.25"* %p, %"class.dealii::Point.25"** %p.addr, align 8
  call void @llvm.dbg.declare(metadata %"class.dealii::Point.25"** %p.addr, metadata !7940, metadata !DIExpression()), !dbg !7941
  %this1 = load %"class.dealii::PolynomialSpace.24"*, %"class.dealii::PolynomialSpace.24"** %this.addr, align 8
  call void @llvm.dbg.declare(metadata [2 x i32]* %ix, metadata !7942, metadata !DIExpression()), !dbg !7943
  %1 = load i32, i32* %i.addr, align 4, !dbg !7944
  call void @_ZNK6dealii15PolynomialSpaceILi2EE13compute_indexEjRA2_j(%"class.dealii::PolynomialSpace.24"* %this1, i32 %1, [2 x i32]* dereferenceable(8) %ix), !dbg !7945
  call void @llvm.dbg.declare(metadata i8** %result.ptr, metadata !7946, metadata !DIExpression(DW_OP_deref)), !dbg !7947
  call void @_ZN6dealii6TensorILi1ELi2EEC2Eb(%"class.dealii::Tensor.26"* %agg.result, i1 zeroext true), !dbg !7947
  call void @llvm.dbg.declare(metadata i32* %d, metadata !7948, metadata !DIExpression()), !dbg !7950
  store i32 0, i32* %d, align 4, !dbg !7950
  br label %for.cond, !dbg !7951

for.cond:                                         ; preds = %for.inc, %entry
  %2 = load i32, i32* %d, align 4, !dbg !7952
  %cmp = icmp ult i32 %2, 2, !dbg !7954
  br i1 %cmp, label %for.body, label %for.end, !dbg !7955

for.body:                                         ; preds = %for.cond
  %3 = load i32, i32* %d, align 4, !dbg !7956
  %call = call dereferenceable(8) double* @_ZN6dealii6TensorILi1ELi2EEixEj(%"class.dealii::Tensor.26"* %agg.result, i32 %3), !dbg !7957
  store double 1.000000e+00, double* %call, align 8, !dbg !7958
  br label %for.inc, !dbg !7957

for.inc:                                          ; preds = %for.body
  %4 = load i32, i32* %d, align 4, !dbg !7959
  %inc = add i32 %4, 1, !dbg !7959
  store i32 %inc, i32* %d, align 4, !dbg !7959
  br label %for.cond, !dbg !7960, !llvm.loop !7961

for.end:                                          ; preds = %for.cond
  call void @llvm.dbg.declare(metadata %"class.std::vector.3"* %v, metadata !7963, metadata !DIExpression()), !dbg !7964
  call void @_ZNSaIdEC2Ev(%"class.std::allocator.5"* %ref.tmp) #11, !dbg !7964
  invoke void @_ZNSt6vectorIdSaIdEEC2EmRKS0_(%"class.std::vector.3"* %v, i64 2, %"class.std::allocator.5"* dereferenceable(1) %ref.tmp)
