; ModuleID = 'source/base/config.cc'
source_filename = "source/base/config.cc"
target datalayout = "e-m:e-p270:32:32-p271:32:32-p272:64:64-i64:64-f80:128-n8:16:32:64-S128"
target triple = "x86_64-unknown-linux-gnu"

%"struct.std::complex" = type { { double, double } }
%"struct.std::complex.0" = type { { float, float } }

$_ZN6dealii7numbers12NumberTraitsIdE9conjugateERKd = comdat any

$_ZN6dealii7numbers12NumberTraitsIdE10abs_squareERKd = comdat any

$_ZN6dealii7numbers12NumberTraitsIdE3absERKd = comdat any

$_ZN6dealii7numbers12NumberTraitsIfE9conjugateERKf = comdat any

$_ZN6dealii7numbers12NumberTraitsIfE10abs_squareERKf = comdat any

$_ZN6dealii7numbers12NumberTraitsIfE3absERKf = comdat any

$_ZSt4fabsf = comdat any

$_ZN6dealii7numbers12NumberTraitsISt7complexIdEE9conjugateERKS3_ = comdat any

$_ZSt4conjIdESt7complexIT_ERKS2_ = comdat any

$_ZN6dealii7numbers12NumberTraitsISt7complexIdEE10abs_squareERKS3_ = comdat any

$_ZSt4normIdET_RKSt7complexIS0_E = comdat any

$_ZN6dealii7numbers12NumberTraitsISt7complexIdEE3absERKS3_ = comdat any

$_ZSt3absIdET_RKSt7complexIS0_E = comdat any

$_ZN6dealii7numbers12NumberTraitsISt7complexIfEE9conjugateERKS3_ = comdat any

$_ZSt4conjIfESt7complexIT_ERKS2_ = comdat any

$_ZN6dealii7numbers12NumberTraitsISt7complexIfEE10abs_squareERKS3_ = comdat any

$_ZSt4normIfET_RKSt7complexIS0_E = comdat any

$_ZN6dealii7numbers12NumberTraitsISt7complexIfEE3absERKS3_ = comdat any

$_ZSt3absIfET_RKSt7complexIS0_E = comdat any

$_ZNSt14numeric_limitsIdE3maxEv = comdat any

$_ZNKSt7complexIdE4realB5cxx11Ev = comdat any

$_ZNKSt7complexIdE4imagB5cxx11Ev = comdat any

$_ZNKSt7complexIfE4realB5cxx11Ev = comdat any

$_ZNKSt7complexIfE4imagB5cxx11Ev = comdat any

$_ZNSt7complexIdEC2Edd = comdat any

$_ZNSt12_Norm_helperILb1EE8_S_do_itIdEET_RKSt7complexIS2_E = comdat any

$_ZSt13__complex_absCd = comdat any

$_ZNKSt7complexIdE5__repEv = comdat any

$_ZNSt7complexIfEC2Eff = comdat any

$_ZNSt12_Norm_helperILb1EE8_S_do_itIfEET_RKSt7complexIS2_E = comdat any

$_ZSt13__complex_absCf = comdat any

$_ZNKSt7complexIfE5__repEv = comdat any

$_ZN6dealii7numbers12NumberTraitsIdE10is_complexE = comdat any

$_ZN6dealii7numbers12NumberTraitsIfE10is_complexE = comdat any

$_ZN6dealii7numbers12NumberTraitsISt7complexIdEE10is_complexE = comdat any

$_ZN6dealii7numbers12NumberTraitsISt7complexIfEE10is_complexE = comdat any

@_ZN6dealii7numbers12NumberTraitsIdE10is_complexE = weak_odr dso_local constant i8 0, comdat, align 1, !dbg !0, !dbg !0
@_ZN6dealii7numbers12NumberTraitsIfE10is_complexE = weak_odr dso_local constant i8 0, comdat, align 1, !dbg !24, !dbg !24
@_ZN6dealii7numbers12NumberTraitsISt7complexIdEE10is_complexE = weak_odr dso_local constant i8 1, comdat, align 1, !dbg !42, !dbg !42
@_ZN6dealii7numbers12NumberTraitsISt7complexIfEE10is_complexE = weak_odr dso_local constant i8 1, comdat, align 1, !dbg !195, !dbg !195

; Function Attrs: noinline nounwind uwtable
define weak_odr dso_local dereferenceable(8) double* @_ZN6dealii7numbers12NumberTraitsIdE9conjugateERKd(double* dereferenceable(8) %x) #0 comdat align 2 !dbg !1447 {
entry:
  %x.addr = alloca double*, align 8
  store double* %x, double** %x.addr, align 8
  call void @llvm.dbg.declare(metadata double** %x.addr, metadata !1449, metadata !DIExpression()), !dbg !1450
  %0 = load double*, double** %x.addr, align 8, !dbg !1451
  ret double* %0, !dbg !1452
}

; Function Attrs: nounwind readnone speculatable willreturn
declare void @llvm.dbg.declare(metadata, metadata, metadata) #1

; Function Attrs: noinline nounwind uwtable
define weak_odr dso_local double @_ZN6dealii7numbers12NumberTraitsIdE10abs_squareERKd(double* dereferenceable(8) %x) #0 comdat align 2 !dbg !1453 {
entry:
  %x.addr = alloca double*, align 8
  store double* %x, double** %x.addr, align 8
  call void @llvm.dbg.declare(metadata double** %x.addr, metadata !1454, metadata !DIExpression()), !dbg !1455
  %0 = load double*, double** %x.addr, align 8, !dbg !1456
  %1 = load double, double* %0, align 8, !dbg !1456
  %2 = load double*, double** %x.addr, align 8, !dbg !1457
  %3 = load double, double* %2, align 8, !dbg !1457
  %mul = fmul double %1, %3, !dbg !1458
  ret double %mul, !dbg !1459
}

; Function Attrs: noinline nounwind uwtable
define weak_odr dso_local double @_ZN6dealii7numbers12NumberTraitsIdE3absERKd(double* dereferenceable(8) %x) #0 comdat align 2 !dbg !1460 {
entry:
  %x.addr = alloca double*, align 8
  store double* %x, double** %x.addr, align 8
  call void @llvm.dbg.declare(metadata double** %x.addr, metadata !1461, metadata !DIExpression()), !dbg !1462
  %0 = load double*, double** %x.addr, align 8, !dbg !1463
  %1 = load double, double* %0, align 8, !dbg !1463
  %2 = call double @llvm.fabs.f64(double %1), !dbg !1464
  ret double %2, !dbg !1465
}

; Function Attrs: nounwind readnone speculatable willreturn
declare double @llvm.fabs.f64(double) #1

; Function Attrs: noinline nounwind uwtable
define weak_odr dso_local dereferenceable(4) float* @_ZN6dealii7numbers12NumberTraitsIfE9conjugateERKf(float* dereferenceable(4) %x) #0 comdat align 2 !dbg !1466 {
entry:
  %x.addr = alloca float*, align 8
  store float* %x, float** %x.addr, align 8
  call void @llvm.dbg.declare(metadata float** %x.addr, metadata !1467, metadata !DIExpression()), !dbg !1468
  %0 = load float*, float** %x.addr, align 8, !dbg !1469
  ret float* %0, !dbg !1470
}

; Function Attrs: noinline nounwind uwtable
define weak_odr dso_local float @_ZN6dealii7numbers12NumberTraitsIfE10abs_squareERKf(float* dereferenceable(4) %x) #0 comdat align 2 !dbg !1471 {
entry:
  %x.addr = alloca float*, align 8
  store float* %x, float** %x.addr, align 8
  call void @llvm.dbg.declare(metadata float** %x.addr, metadata !1472, metadata !DIExpression()), !dbg !1473
  %0 = load float*, float** %x.addr, align 8, !dbg !1474
  %1 = load float, float* %0, align 4, !dbg !1474
  %2 = load float*, float** %x.addr, align 8, !dbg !1475
  %3 = load float, float* %2, align 4, !dbg !1475
  %mul = fmul float %1, %3, !dbg !1476
  ret float %mul, !dbg !1477
}

; Function Attrs: noinline uwtable
define weak_odr dso_local float @_ZN6dealii7numbers12NumberTraitsIfE3absERKf(float* dereferenceable(4) %x) #2 comdat align 2 !dbg !1478 {
entry:
  %x.addr = alloca float*, align 8
  store float* %x, float** %x.addr, align 8
  call void @llvm.dbg.declare(metadata float** %x.addr, metadata !1479, metadata !DIExpression()), !dbg !1480
  %0 = load float*, float** %x.addr, align 8, !dbg !1481
  %1 = load float, float* %0, align 4, !dbg !1481
  %call = call float @_ZSt4fabsf(float %1), !dbg !1482
  ret float %call, !dbg !1483
}

; Function Attrs: noinline nounwind uwtable
define linkonce_odr dso_local float @_ZSt4fabsf(float %__x) #0 comdat !dbg !1484 {
entry:
  %__x.addr = alloca float, align 4
  store float %__x, float* %__x.addr, align 4
  call void @llvm.dbg.declare(metadata float* %__x.addr, metadata !1485, metadata !DIExpression()), !dbg !1486
  %0 = load float, float* %__x.addr, align 4, !dbg !1487
  %1 = call float @llvm.fabs.f32(float %0), !dbg !1488
  ret float %1, !dbg !1489
}

; Function Attrs: noinline uwtable
define weak_odr dso_local { double, double } @_ZN6dealii7numbers12NumberTraitsISt7complexIdEE9conjugateERKS3_(%"struct.std::complex"* dereferenceable(16) %x) #2 comdat align 2 !dbg !1490 {
entry:
  %retval = alloca %"struct.std::complex", align 8
  %x.addr = alloca %"struct.std::complex"*, align 8
  store %"struct.std::complex"* %x, %"struct.std::complex"** %x.addr, align 8
  call void @llvm.dbg.declare(metadata %"struct.std::complex"** %x.addr, metadata !1491, metadata !DIExpression()), !dbg !1492
  %0 = load %"struct.std::complex"*, %"struct.std::complex"** %x.addr, align 8, !dbg !1493
  %call = call { double, double } @_ZSt4conjIdESt7complexIT_ERKS2_(%"struct.std::complex"* dereferenceable(16) %0), !dbg !1494
  %coerce.dive = getelementptr inbounds %"struct.std::complex", %"struct.std::complex"* %retval, i32 0, i32 0, !dbg !1494
  %1 = getelementptr inbounds { double, double }, { double, double }* %coerce.dive, i32 0, i32 0, !dbg !1494
  %2 = extractvalue { double, double } %call, 0, !dbg !1494
  store double %2, double* %1, align 8, !dbg !1494
  %3 = getelementptr inbounds { double, double }, { double, double }* %coerce.dive, i32 0, i32 1, !dbg !1494
  %4 = extractvalue { double, double } %call, 1, !dbg !1494
  store double %4, double* %3, align 8, !dbg !1494
  %coerce.dive1 = getelementptr inbounds %"struct.std::complex", %"struct.std::complex"* %retval, i32 0, i32 0, !dbg !1495
  %5 = load { double, double }, { double, double }* %coerce.dive1, align 8, !dbg !1495
  ret { double, double } %5, !dbg !1495
}

; Function Attrs: noinline uwtable
define linkonce_odr dso_local { double, double } @_ZSt4conjIdESt7complexIT_ERKS2_(%"struct.std::complex"* dereferenceable(16) %__z) #2 comdat !dbg !1496 {
entry:
  %retval = alloca %"struct.std::complex", align 8
  %__z.addr = alloca %"struct.std::complex"*, align 8
  store %"struct.std::complex"* %__z, %"struct.std::complex"** %__z.addr, align 8
  call void @llvm.dbg.declare(metadata %"struct.std::complex"** %__z.addr, metadata !1497, metadata !DIExpression()), !dbg !1498
  %0 = load %"struct.std::complex"*, %"struct.std::complex"** %__z.addr, align 8, !dbg !1499
  %call = call double @_ZNKSt7complexIdE4realB5cxx11Ev(%"struct.std::complex"* %0), !dbg !1500
  %1 = load %"struct.std::complex"*, %"struct.std::complex"** %__z.addr, align 8, !dbg !1501
  %call1 = call double @_ZNKSt7complexIdE4imagB5cxx11Ev(%"struct.std::complex"* %1), !dbg !1502
  %fneg = fneg double %call1, !dbg !1503
  call void @_ZNSt7complexIdEC2Edd(%"struct.std::complex"* %retval, double %call, double %fneg), !dbg !1504
  %coerce.dive = getelementptr inbounds %"struct.std::complex", %"struct.std::complex"* %retval, i32 0, i32 0, !dbg !1505
  %2 = load { double, double }, { double, double }* %coerce.dive, align 8, !dbg !1505
  ret { double, double } %2, !dbg !1505
}

; Function Attrs: noinline uwtable
define weak_odr dso_local double @_ZN6dealii7numbers12NumberTraitsISt7complexIdEE10abs_squareERKS3_(%"struct.std::complex"* dereferenceable(16) %x) #2 comdat align 2 !dbg !1506 {
entry:
  %x.addr = alloca %"struct.std::complex"*, align 8
  store %"struct.std::complex"* %x, %"struct.std::complex"** %x.addr, align 8
  call void @llvm.dbg.declare(metadata %"struct.std::complex"** %x.addr, metadata !1507, metadata !DIExpression()), !dbg !1508
  %0 = load %"struct.std::complex"*, %"struct.std::complex"** %x.addr, align 8, !dbg !1509
  %call = call double @_ZSt4normIdET_RKSt7complexIS0_E(%"struct.std::complex"* dereferenceable(16) %0), !dbg !1510
  ret double %call, !dbg !1511
}

; Function Attrs: noinline uwtable
define linkonce_odr dso_local double @_ZSt4normIdET_RKSt7complexIS0_E(%"struct.std::complex"* dereferenceable(16) %__z) #2 comdat !dbg !1512 {
entry:
  %__z.addr = alloca %"struct.std::complex"*, align 8
  store %"struct.std::complex"* %__z, %"struct.std::complex"** %__z.addr, align 8
  call void @llvm.dbg.declare(metadata %"struct.std::complex"** %__z.addr, metadata !1515, metadata !DIExpression()), !dbg !1516
  %0 = load %"struct.std::complex"*, %"struct.std::complex"** %__z.addr, align 8, !dbg !1517
  %call = call double @_ZNSt12_Norm_helperILb1EE8_S_do_itIdEET_RKSt7complexIS2_E(%"struct.std::complex"* dereferenceable(16) %0), !dbg !1518
  ret double %call, !dbg !1519
}

; Function Attrs: noinline uwtable
define weak_odr dso_local double @_ZN6dealii7numbers12NumberTraitsISt7complexIdEE3absERKS3_(%"struct.std::complex"* dereferenceable(16) %x) #2 comdat align 2 !dbg !1520 {
entry:
  %x.addr = alloca %"struct.std::complex"*, align 8
  store %"struct.std::complex"* %x, %"struct.std::complex"** %x.addr, align 8
  call void @llvm.dbg.declare(metadata %"struct.std::complex"** %x.addr, metadata !1521, metadata !DIExpression()), !dbg !1522
  %0 = load %"struct.std::complex"*, %"struct.std::complex"** %x.addr, align 8, !dbg !1523
  %call = call double @_ZSt3absIdET_RKSt7complexIS0_E(%"struct.std::complex"* dereferenceable(16) %0), !dbg !1524
  ret double %call, !dbg !1525
}

; Function Attrs: noinline uwtable
define linkonce_odr dso_local double @_ZSt3absIdET_RKSt7complexIS0_E(%"struct.std::complex"* dereferenceable(16) %__z) #2 comdat !dbg !1526 {
entry:
  %__z.addr = alloca %"struct.std::complex"*, align 8
  %coerce = alloca { double, double }, align 8
  store %"struct.std::complex"* %__z, %"struct.std::complex"** %__z.addr, align 8
  call void @llvm.dbg.declare(metadata %"struct.std::complex"** %__z.addr, metadata !1527, metadata !DIExpression()), !dbg !1528
  %0 = load %"struct.std::complex"*, %"struct.std::complex"** %__z.addr, align 8, !dbg !1529
  %call = call { double, double } @_ZNKSt7complexIdE5__repEv(%"struct.std::complex"* %0), !dbg !1530
  %1 = extractvalue { double, double } %call, 0, !dbg !1530
  %2 = extractvalue { double, double } %call, 1, !dbg !1530
  %coerce.realp = getelementptr inbounds { double, double }, { double, double }* %coerce, i32 0, i32 0, !dbg !1531
  %coerce.imagp = getelementptr inbounds { double, double }, { double, double }* %coerce, i32 0, i32 1, !dbg !1531
  store double %1, double* %coerce.realp, align 8, !dbg !1531
  store double %2, double* %coerce.imagp, align 8, !dbg !1531
  %3 = getelementptr inbounds { double, double }, { double, double }* %coerce, i32 0, i32 0, !dbg !1531
  %4 = load double, double* %3, align 8, !dbg !1531
  %5 = getelementptr inbounds { double, double }, { double, double }* %coerce, i32 0, i32 1, !dbg !1531
  %6 = load double, double* %5, align 8, !dbg !1531
  %call1 = call double @_ZSt13__complex_absCd(double %4, double %6), !dbg !1531
  ret double %call1, !dbg !1532
}

; Function Attrs: noinline uwtable
define weak_odr dso_local <2 x float> @_ZN6dealii7numbers12NumberTraitsISt7complexIfEE9conjugateERKS3_(%"struct.std::complex.0"* dereferenceable(8) %x) #3 comdat align 2 !dbg !1533 {
entry:
  %retval = alloca %"struct.std::complex.0", align 4
  %x.addr = alloca %"struct.std::complex.0"*, align 8
  store %"struct.std::complex.0"* %x, %"struct.std::complex.0"** %x.addr, align 8
  call void @llvm.dbg.declare(metadata %"struct.std::complex.0"** %x.addr, metadata !1534, metadata !DIExpression()), !dbg !1535
  %0 = load %"struct.std::complex.0"*, %"struct.std::complex.0"** %x.addr, align 8, !dbg !1536
  %call = call <2 x float> @_ZSt4conjIfESt7complexIT_ERKS2_(%"struct.std::complex.0"* dereferenceable(8) %0), !dbg !1537
  %coerce.dive = getelementptr inbounds %"struct.std::complex.0", %"struct.std::complex.0"* %retval, i32 0, i32 0, !dbg !1537
  %1 = bitcast { float, float }* %coerce.dive to <2 x float>*, !dbg !1537
  store <2 x float> %call, <2 x float>* %1, align 4, !dbg !1537
  %coerce.dive1 = getelementptr inbounds %"struct.std::complex.0", %"struct.std::complex.0"* %retval, i32 0, i32 0, !dbg !1538
  %2 = bitcast { float, float }* %coerce.dive1 to <2 x float>*, !dbg !1538
  %3 = load <2 x float>, <2 x float>* %2, align 4, !dbg !1538
  ret <2 x float> %3, !dbg !1538
}

; Function Attrs: noinline uwtable
define linkonce_odr dso_local <2 x float> @_ZSt4conjIfESt7complexIT_ERKS2_(%"struct.std::complex.0"* dereferenceable(8) %__z) #3 comdat !dbg !1539 {
entry:
  %retval = alloca %"struct.std::complex.0", align 4
  %__z.addr = alloca %"struct.std::complex.0"*, align 8
  store %"struct.std::complex.0"* %__z, %"struct.std::complex.0"** %__z.addr, align 8
  call void @llvm.dbg.declare(metadata %"struct.std::complex.0"** %__z.addr, metadata !1540, metadata !DIExpression()), !dbg !1541
  %0 = load %"struct.std::complex.0"*, %"struct.std::complex.0"** %__z.addr, align 8, !dbg !1542
  %call = call float @_ZNKSt7complexIfE4realB5cxx11Ev(%"struct.std::complex.0"* %0), !dbg !1543
  %1 = load %"struct.std::complex.0"*, %"struct.std::complex.0"** %__z.addr, align 8, !dbg !1544
  %call1 = call float @_ZNKSt7complexIfE4imagB5cxx11Ev(%"struct.std::complex.0"* %1), !dbg !1545
  %fneg = fneg float %call1, !dbg !1546
  call void @_ZNSt7complexIfEC2Eff(%"struct.std::complex.0"* %retval, float %call, float %fneg), !dbg !1547
  %coerce.dive = getelementptr inbounds %"struct.std::complex.0", %"struct.std::complex.0"* %retval, i32 0, i32 0, !dbg !1548
  %2 = bitcast { float, float }* %coerce.dive to <2 x float>*, !dbg !1548
  %3 = load <2 x float>, <2 x float>* %2, align 4, !dbg !1548
  ret <2 x float> %3, !dbg !1548
}

; Function Attrs: noinline uwtable
define weak_odr dso_local float @_ZN6dealii7numbers12NumberTraitsISt7complexIfEE10abs_squareERKS3_(%"struct.std::complex.0"* dereferenceable(8) %x) #2 comdat align 2 !dbg !1549 {
entry:
  %x.addr = alloca %"struct.std::complex.0"*, align 8
  store %"struct.std::complex.0"* %x, %"struct.std::complex.0"** %x.addr, align 8
  call void @llvm.dbg.declare(metadata %"struct.std::complex.0"** %x.addr, metadata !1550, metadata !DIExpression()), !dbg !1551
  %0 = load %"struct.std::complex.0"*, %"struct.std::complex.0"** %x.addr, align 8, !dbg !1552
  %call = call float @_ZSt4normIfET_RKSt7complexIS0_E(%"struct.std::complex.0"* dereferenceable(8) %0), !dbg !1553
  ret float %call, !dbg !1554
}

; Function Attrs: noinline uwtable
define linkonce_odr dso_local float @_ZSt4normIfET_RKSt7complexIS0_E(%"struct.std::complex.0"* dereferenceable(8) %__z) #2 comdat !dbg !1555 {
entry:
  %__z.addr = alloca %"struct.std::complex.0"*, align 8
  store %"struct.std::complex.0"* %__z, %"struct.std::complex.0"** %__z.addr, align 8
  call void @llvm.dbg.declare(metadata %"struct.std::complex.0"** %__z.addr, metadata !1558, metadata !DIExpression()), !dbg !1559
  %0 = load %"struct.std::complex.0"*, %"struct.std::complex.0"** %__z.addr, align 8, !dbg !1560
  %call = call float @_ZNSt12_Norm_helperILb1EE8_S_do_itIfEET_RKSt7complexIS2_E(%"struct.std::complex.0"* dereferenceable(8) %0), !dbg !1561
  ret float %call, !dbg !1562
}

; Function Attrs: noinline uwtable
define weak_odr dso_local float @_ZN6dealii7numbers12NumberTraitsISt7complexIfEE3absERKS3_(%"struct.std::complex.0"* dereferenceable(8) %x) #2 comdat align 2 !dbg !1563 {
entry:
  %x.addr = alloca %"struct.std::complex.0"*, align 8
  store %"struct.std::complex.0"* %x, %"struct.std::complex.0"** %x.addr, align 8
  call void @llvm.dbg.declare(metadata %"struct.std::complex.0"** %x.addr, metadata !1564, metadata !DIExpression()), !dbg !1565
  %0 = load %"struct.std::complex.0"*, %"struct.std::complex.0"** %x.addr, align 8, !dbg !1566
  %call = call float @_ZSt3absIfET_RKSt7complexIS0_E(%"struct.std::complex.0"* dereferenceable(8) %0), !dbg !1567
  ret float %call, !dbg !1568
}

; Function Attrs: noinline uwtable
define linkonce_odr dso_local float @_ZSt3absIfET_RKSt7complexIS0_E(%"struct.std::complex.0"* dereferenceable(8) %__z) #3 comdat !dbg !1569 {
entry:
  %__z.addr = alloca %"struct.std::complex.0"*, align 8
  %coerce = alloca { float, float }, align 4
  %coerce1 = alloca { float, float }, align 4
  store %"struct.std::complex.0"* %__z, %"struct.std::complex.0"** %__z.addr, align 8
  call void @llvm.dbg.declare(metadata %"struct.std::complex.0"** %__z.addr, metadata !1570, metadata !DIExpression()), !dbg !1571
  %0 = load %"struct.std::complex.0"*, %"struct.std::complex.0"** %__z.addr, align 8, !dbg !1572
  %call = call <2 x float> @_ZNKSt7complexIfE5__repEv(%"struct.std::complex.0"* %0), !dbg !1573
  %1 = bitcast { float, float }* %coerce to <2 x float>*, !dbg !1573
  store <2 x float> %call, <2 x float>* %1, align 4, !dbg !1573
  %coerce.realp = getelementptr inbounds { float, float }, { float, float }* %coerce, i32 0, i32 0, !dbg !1573
  %coerce.real = load float, float* %coerce.realp, align 4, !dbg !1573
  %coerce.imagp = getelementptr inbounds { float, float }, { float, float }* %coerce, i32 0, i32 1, !dbg !1573
  %coerce.imag = load float, float* %coerce.imagp, align 4, !dbg !1573
  %coerce1.realp = getelementptr inbounds { float, float }, { float, float }* %coerce1, i32 0, i32 0, !dbg !1574
  %coerce1.imagp = getelementptr inbounds { float, float }, { float, float }* %coerce1, i32 0, i32 1, !dbg !1574
  store float %coerce.real, float* %coerce1.realp, align 4, !dbg !1574
  store float %coerce.imag, float* %coerce1.imagp, align 4, !dbg !1574
  %2 = bitcast { float, float }* %coerce1 to <2 x float>*, !dbg !1574
  %3 = load <2 x float>, <2 x float>* %2, align 4, !dbg !1574
  %call2 = call float @_ZSt13__complex_absCf(<2 x float> %3), !dbg !1574
  ret float %call2, !dbg !1575
}

; Function Attrs: noinline nounwind uwtable
define dso_local zeroext i1 @_ZN6dealii7numbers9is_finiteEd(double %x) #0 !dbg !1576 {
entry:
  %x.addr = alloca double, align 8
  store double %x, double* %x.addr, align 8
  call void @llvm.dbg.declare(metadata double* %x.addr, metadata !1579, metadata !DIExpression()), !dbg !1580
  %0 = load double, double* %x.addr, align 8, !dbg !1581
  %call = call double @_ZNSt14numeric_limitsIdE3maxEv() #6, !dbg !1582
  %fneg = fneg double %call, !dbg !1583
  %cmp = fcmp oge double %0, %fneg, !dbg !1584
  br i1 %cmp, label %land.rhs, label %land.end, !dbg !1585

land.rhs:                                         ; preds = %entry
  %1 = load double, double* %x.addr, align 8, !dbg !1586
  %call1 = call double @_ZNSt14numeric_limitsIdE3maxEv() #6, !dbg !1587
  %cmp2 = fcmp ole double %1, %call1, !dbg !1588
  br label %land.end

land.end:                                         ; preds = %land.rhs, %entry
  %2 = phi i1 [ false, %entry ], [ %cmp2, %land.rhs ], !dbg !1589
  ret i1 %2, !dbg !1590
}

; Function Attrs: noinline nounwind uwtable
define linkonce_odr dso_local double @_ZNSt14numeric_limitsIdE3maxEv() #0 comdat align 2 !dbg !1591 {
entry:
  ret double 0x7FEFFFFFFFFFFFFF, !dbg !1631
}

; Function Attrs: noinline uwtable
define dso_local zeroext i1 @_ZN6dealii7numbers9is_finiteESt7complexIdE(double %x.coerce0, double %x.coerce1) #2 !dbg !1632 {
entry:
  %x = alloca %"struct.std::complex", align 8
  %0 = bitcast %"struct.std::complex"* %x to { double, double }*
  %1 = getelementptr inbounds { double, double }, { double, double }* %0, i32 0, i32 0
  store double %x.coerce0, double* %1, align 8
  %2 = getelementptr inbounds { double, double }, { double, double }* %0, i32 0, i32 1
  store double %x.coerce1, double* %2, align 8
  call void @llvm.dbg.declare(metadata %"struct.std::complex"* %x, metadata !1635, metadata !DIExpression()), !dbg !1636
  %call = call double @_ZNKSt7complexIdE4realB5cxx11Ev(%"struct.std::complex"* %x), !dbg !1637
  %call1 = call zeroext i1 @_ZN6dealii7numbers9is_finiteEd(double %call), !dbg !1638
  br i1 %call1, label %land.rhs, label %land.end, !dbg !1639

land.rhs:                                         ; preds = %entry
  %call2 = call double @_ZNKSt7complexIdE4imagB5cxx11Ev(%"struct.std::complex"* %x), !dbg !1640
  %call3 = call zeroext i1 @_ZN6dealii7numbers9is_finiteEd(double %call2), !dbg !1641
  br label %land.end

land.end:                                         ; preds = %land.rhs, %entry
  %3 = phi i1 [ false, %entry ], [ %call3, %land.rhs ], !dbg !1642
  ret i1 %3, !dbg !1643
}

; Function Attrs: noinline nounwind uwtable
define linkonce_odr dso_local double @_ZNKSt7complexIdE4realB5cxx11Ev(%"struct.std::complex"* %this) #0 comdat align 2 !dbg !1644 {
entry:
  %this.addr = alloca %"struct.std::complex"*, align 8
  store %"struct.std::complex"* %this, %"struct.std::complex"** %this.addr, align 8
  call void @llvm.dbg.declare(metadata %"struct.std::complex"** %this.addr, metadata !1645, metadata !DIExpression()), !dbg !1647
  %this1 = load %"struct.std::complex"*, %"struct.std::complex"** %this.addr, align 8
  %_M_value = getelementptr inbounds %"struct.std::complex", %"struct.std::complex"* %this1, i32 0, i32 0, !dbg !1648
  %_M_value.realp = getelementptr inbounds { double, double }, { double, double }* %_M_value, i32 0, i32 0, !dbg !1649
  %0 = load double, double* %_M_value.realp, align 8, !dbg !1649
  ret double %0, !dbg !1650
}

; Function Attrs: noinline nounwind uwtable
define linkonce_odr dso_local double @_ZNKSt7complexIdE4imagB5cxx11Ev(%"struct.std::complex"* %this) #0 comdat align 2 !dbg !1651 {
entry:
  %this.addr = alloca %"struct.std::complex"*, align 8
  store %"struct.std::complex"* %this, %"struct.std::complex"** %this.addr, align 8
  call void @llvm.dbg.declare(metadata %"struct.std::complex"** %this.addr, metadata !1652, metadata !DIExpression()), !dbg !1653
  %this1 = load %"struct.std::complex"*, %"struct.std::complex"** %this.addr, align 8
  %_M_value = getelementptr inbounds %"struct.std::complex", %"struct.std::complex"* %this1, i32 0, i32 0, !dbg !1654
  %_M_value.imagp = getelementptr inbounds { double, double }, { double, double }* %_M_value, i32 0, i32 1, !dbg !1655
  %0 = load double, double* %_M_value.imagp, align 8, !dbg !1655
  ret double %0, !dbg !1656
}

; Function Attrs: noinline uwtable
define dso_local zeroext i1 @_ZN6dealii7numbers9is_finiteESt7complexIfE(<2 x float> %x.coerce) #3 !dbg !1657 {
entry:
  %x = alloca %"struct.std::complex.0", align 4
  %coerce.dive = getelementptr inbounds %"struct.std::complex.0", %"struct.std::complex.0"* %x, i32 0, i32 0
  %0 = bitcast { float, float }* %coerce.dive to <2 x float>*
  store <2 x float> %x.coerce, <2 x float>* %0, align 4
  call void @llvm.dbg.declare(metadata %"struct.std::complex.0"* %x, metadata !1660, metadata !DIExpression()), !dbg !1661
  %call = call float @_ZNKSt7complexIfE4realB5cxx11Ev(%"struct.std::complex.0"* %x), !dbg !1662
  %conv = fpext float %call to double, !dbg !1663
  %call1 = call zeroext i1 @_ZN6dealii7numbers9is_finiteEd(double %conv), !dbg !1664
  br i1 %call1, label %land.rhs, label %land.end, !dbg !1665

land.rhs:                                         ; preds = %entry
  %call2 = call float @_ZNKSt7complexIfE4imagB5cxx11Ev(%"struct.std::complex.0"* %x), !dbg !1666
  %conv3 = fpext float %call2 to double, !dbg !1667
  %call4 = call zeroext i1 @_ZN6dealii7numbers9is_finiteEd(double %conv3), !dbg !1668
  br label %land.end

land.end:                                         ; preds = %land.rhs, %entry
  %1 = phi i1 [ false, %entry ], [ %call4, %land.rhs ], !dbg !1669
  ret i1 %1, !dbg !1670
}

; Function Attrs: noinline nounwind uwtable
define linkonce_odr dso_local float @_ZNKSt7complexIfE4realB5cxx11Ev(%"struct.std::complex.0"* %this) #0 comdat align 2 !dbg !1671 {
entry:
  %this.addr = alloca %"struct.std::complex.0"*, align 8
  store %"struct.std::complex.0"* %this, %"struct.std::complex.0"** %this.addr, align 8
  call void @llvm.dbg.declare(metadata %"struct.std::complex.0"** %this.addr, metadata !1672, metadata !DIExpression()), !dbg !1674
  %this1 = load %"struct.std::complex.0"*, %"struct.std::complex.0"** %this.addr, align 8
  %_M_value = getelementptr inbounds %"struct.std::complex.0", %"struct.std::complex.0"* %this1, i32 0, i32 0, !dbg !1675
  %_M_value.realp = getelementptr inbounds { float, float }, { float, float }* %_M_value, i32 0, i32 0, !dbg !1676
  %0 = load float, float* %_M_value.realp, align 4, !dbg !1676
  ret float %0, !dbg !1677
}

; Function Attrs: noinline nounwind uwtable
define linkonce_odr dso_local float @_ZNKSt7complexIfE4imagB5cxx11Ev(%"struct.std::complex.0"* %this) #0 comdat align 2 !dbg !1678 {
entry:
  %this.addr = alloca %"struct.std::complex.0"*, align 8
  store %"struct.std::complex.0"* %this, %"struct.std::complex.0"** %this.addr, align 8
  call void @llvm.dbg.declare(metadata %"struct.std::complex.0"** %this.addr, metadata !1679, metadata !DIExpression()), !dbg !1680
  %this1 = load %"struct.std::complex.0"*, %"struct.std::complex.0"** %this.addr, align 8
  %_M_value = getelementptr inbounds %"struct.std::complex.0", %"struct.std::complex.0"* %this1, i32 0, i32 0, !dbg !1681
  %_M_value.imagp = getelementptr inbounds { float, float }, { float, float }* %_M_value, i32 0, i32 1, !dbg !1682
  %0 = load float, float* %_M_value.imagp, align 4, !dbg !1682
  ret float %0, !dbg !1683
}

; Function Attrs: nounwind readnone speculatable willreturn
declare float @llvm.fabs.f32(float) #1

; Function Attrs: noinline nounwind uwtable
define linkonce_odr dso_local void @_ZNSt7complexIdEC2Edd(%"struct.std::complex"* %this, double %__r, double %__i) unnamed_addr #0 comdat align 2 !dbg !1684 {
entry:
  %this.addr = alloca %"struct.std::complex"*, align 8
  %__r.addr = alloca double, align 8
  %__i.addr = alloca double, align 8
  store %"struct.std::complex"* %this, %"struct.std::complex"** %this.addr, align 8
  call void @llvm.dbg.declare(metadata %"struct.std::complex"** %this.addr, metadata !1685, metadata !DIExpression()), !dbg !1687
  store double %__r, double* %__r.addr, align 8
  call void @llvm.dbg.declare(metadata double* %__r.addr, metadata !1688, metadata !DIExpression()), !dbg !1689
  store double %__i, double* %__i.addr, align 8
  call void @llvm.dbg.declare(metadata double* %__i.addr, metadata !1690, metadata !DIExpression()), !dbg !1691
  %this1 = load %"struct.std::complex"*, %"struct.std::complex"** %this.addr, align 8
  %_M_value = getelementptr inbounds %"struct.std::complex", %"struct.std::complex"* %this1, i32 0, i32 0, !dbg !1692
  %0 = load double, double* %__r.addr, align 8, !dbg !1693
  %1 = load double, double* %__i.addr, align 8, !dbg !1694
  %_M_value.realp = getelementptr inbounds { double, double }, { double, double }* %_M_value, i32 0, i32 0, !dbg !1692
  %_M_value.imagp = getelementptr inbounds { double, double }, { double, double }* %_M_value, i32 0, i32 1, !dbg !1692
  store double %0, double* %_M_value.realp, align 8, !dbg !1692
  store double %1, double* %_M_value.imagp, align 8, !dbg !1692
  ret void, !dbg !1695
}

; Function Attrs: noinline nounwind uwtable
define linkonce_odr dso_local double @_ZNSt12_Norm_helperILb1EE8_S_do_itIdEET_RKSt7complexIS2_E(%"struct.std::complex"* dereferenceable(16) %__z) #0 comdat align 2 !dbg !1696 {
entry:
  %__z.addr = alloca %"struct.std::complex"*, align 8
  %__x = alloca double, align 8
  %__y = alloca double, align 8
  store %"struct.std::complex"* %__z, %"struct.std::complex"** %__z.addr, align 8
  call void @llvm.dbg.declare(metadata %"struct.std::complex"** %__z.addr, metadata !1701, metadata !DIExpression()), !dbg !1702
  call void @llvm.dbg.declare(metadata double* %__x, metadata !1703, metadata !DIExpression()), !dbg !1704
  %0 = load %"struct.std::complex"*, %"struct.std::complex"** %__z.addr, align 8, !dbg !1705
  %call = call double @_ZNKSt7complexIdE4realB5cxx11Ev(%"struct.std::complex"* %0), !dbg !1706
  store double %call, double* %__x, align 8, !dbg !1704
  call void @llvm.dbg.declare(metadata double* %__y, metadata !1707, metadata !DIExpression()), !dbg !1708
  %1 = load %"struct.std::complex"*, %"struct.std::complex"** %__z.addr, align 8, !dbg !1709
  %call1 = call double @_ZNKSt7complexIdE4imagB5cxx11Ev(%"struct.std::complex"* %1), !dbg !1710
  store double %call1, double* %__y, align 8, !dbg !1708
  %2 = load double, double* %__x, align 8, !dbg !1711
  %3 = load double, double* %__x, align 8, !dbg !1712
  %mul = fmul double %2, %3, !dbg !1713
  %4 = load double, double* %__y, align 8, !dbg !1714
  %5 = load double, double* %__y, align 8, !dbg !1715
  %mul2 = fmul double %4, %5, !dbg !1716
  %add = fadd double %mul, %mul2, !dbg !1717
  ret double %add, !dbg !1718
}

; Function Attrs: noinline nounwind uwtable
define linkonce_odr dso_local double @_ZSt13__complex_absCd(double %__z.coerce0, double %__z.coerce1) #0 comdat !dbg !1719 {
entry:
  %__z = alloca { double, double }, align 8
  %coerce = alloca { double, double }, align 8
  %0 = getelementptr inbounds { double, double }, { double, double }* %__z, i32 0, i32 0
  store double %__z.coerce0, double* %0, align 8
  %1 = getelementptr inbounds { double, double }, { double, double }* %__z, i32 0, i32 1
  store double %__z.coerce1, double* %1, align 8
  call void @llvm.dbg.declare(metadata { double, double }* %__z, metadata !1722, metadata !DIExpression()), !dbg !1723
  %__z.realp = getelementptr inbounds { double, double }, { double, double }* %__z, i32 0, i32 0, !dbg !1724
  %__z.real = load double, double* %__z.realp, align 8, !dbg !1724
  %__z.imagp = getelementptr inbounds { double, double }, { double, double }* %__z, i32 0, i32 1, !dbg !1724
  %__z.imag = load double, double* %__z.imagp, align 8, !dbg !1724
  %coerce.realp = getelementptr inbounds { double, double }, { double, double }* %coerce, i32 0, i32 0, !dbg !1725
  %coerce.imagp = getelementptr inbounds { double, double }, { double, double }* %coerce, i32 0, i32 1, !dbg !1725
  store double %__z.real, double* %coerce.realp, align 8, !dbg !1725
  store double %__z.imag, double* %coerce.imagp, align 8, !dbg !1725
  %2 = getelementptr inbounds { double, double }, { double, double }* %coerce, i32 0, i32 0, !dbg !1725
  %3 = load double, double* %2, align 8, !dbg !1725
  %4 = getelementptr inbounds { double, double }, { double, double }* %coerce, i32 0, i32 1, !dbg !1725
  %5 = load double, double* %4, align 8, !dbg !1725
  %call = call double @cabs(double %3, double %5) #6, !dbg !1725
  ret double %call, !dbg !1726
}

; Function Attrs: noinline nounwind uwtable
define linkonce_odr dso_local { double, double } @_ZNKSt7complexIdE5__repEv(%"struct.std::complex"* %this) #0 comdat align 2 !dbg !1727 {
entry:
  %retval = alloca { double, double }, align 8
  %this.addr = alloca %"struct.std::complex"*, align 8
  store %"struct.std::complex"* %this, %"struct.std::complex"** %this.addr, align 8
  call void @llvm.dbg.declare(metadata %"struct.std::complex"** %this.addr, metadata !1728, metadata !DIExpression()), !dbg !1729
  %this1 = load %"struct.std::complex"*, %"struct.std::complex"** %this.addr, align 8
  %_M_value = getelementptr inbounds %"struct.std::complex", %"struct.std::complex"* %this1, i32 0, i32 0, !dbg !1730
  %_M_value.realp = getelementptr inbounds { double, double }, { double, double }* %_M_value, i32 0, i32 0, !dbg !1730
  %_M_value.real = load double, double* %_M_value.realp, align 8, !dbg !1730
  %_M_value.imagp = getelementptr inbounds { double, double }, { double, double }* %_M_value, i32 0, i32 1, !dbg !1730
  %_M_value.imag = load double, double* %_M_value.imagp, align 8, !dbg !1730
  %retval.realp = getelementptr inbounds { double, double }, { double, double }* %retval, i32 0, i32 0, !dbg !1731
  %retval.imagp = getelementptr inbounds { double, double }, { double, double }* %retval, i32 0, i32 1, !dbg !1731
  store double %_M_value.real, double* %retval.realp, align 8, !dbg !1731
  store double %_M_value.imag, double* %retval.imagp, align 8, !dbg !1731
  %0 = load { double, double }, { double, double }* %retval, align 8, !dbg !1731
  ret { double, double } %0, !dbg !1731
}

; Function Attrs: nounwind
declare dso_local double @cabs(double, double) #4

; Function Attrs: noinline nounwind uwtable
define linkonce_odr dso_local void @_ZNSt7complexIfEC2Eff(%"struct.std::complex.0"* %this, float %__r, float %__i) unnamed_addr #0 comdat align 2 !dbg !1732 {
entry:
  %this.addr = alloca %"struct.std::complex.0"*, align 8
  %__r.addr = alloca float, align 4
  %__i.addr = alloca float, align 4
  store %"struct.std::complex.0"* %this, %"struct.std::complex.0"** %this.addr, align 8
  call void @llvm.dbg.declare(metadata %"struct.std::complex.0"** %this.addr, metadata !1733, metadata !DIExpression()), !dbg !1735
  store float %__r, float* %__r.addr, align 4
  call void @llvm.dbg.declare(metadata float* %__r.addr, metadata !1736, metadata !DIExpression()), !dbg !1737
  store float %__i, float* %__i.addr, align 4
  call void @llvm.dbg.declare(metadata float* %__i.addr, metadata !1738, metadata !DIExpression()), !dbg !1739
  %this1 = load %"struct.std::complex.0"*, %"struct.std::complex.0"** %this.addr, align 8
  %_M_value = getelementptr inbounds %"struct.std::complex.0", %"struct.std::complex.0"* %this1, i32 0, i32 0, !dbg !1740
  %0 = load float, float* %__r.addr, align 4, !dbg !1741
  %1 = load float, float* %__i.addr, align 4, !dbg !1742
  %_M_value.realp = getelementptr inbounds { float, float }, { float, float }* %_M_value, i32 0, i32 0, !dbg !1740
  %_M_value.imagp = getelementptr inbounds { float, float }, { float, float }* %_M_value, i32 0, i32 1, !dbg !1740
  store float %0, float* %_M_value.realp, align 4, !dbg !1740
  store float %1, float* %_M_value.imagp, align 4, !dbg !1740
  ret void, !dbg !1743
}

; Function Attrs: noinline nounwind uwtable
define linkonce_odr dso_local float @_ZNSt12_Norm_helperILb1EE8_S_do_itIfEET_RKSt7complexIS2_E(%"struct.std::complex.0"* dereferenceable(8) %__z) #0 comdat align 2 !dbg !1744 {
entry:
  %__z.addr = alloca %"struct.std::complex.0"*, align 8
  %__x = alloca float, align 4
  %__y = alloca float, align 4
  store %"struct.std::complex.0"* %__z, %"struct.std::complex.0"** %__z.addr, align 8
  call void @llvm.dbg.declare(metadata %"struct.std::complex.0"** %__z.addr, metadata !1746, metadata !DIExpression()), !dbg !1747
  call void @llvm.dbg.declare(metadata float* %__x, metadata !1748, metadata !DIExpression()), !dbg !1749
  %0 = load %"struct.std::complex.0"*, %"struct.std::complex.0"** %__z.addr, align 8, !dbg !1750
  %call = call float @_ZNKSt7complexIfE4realB5cxx11Ev(%"struct.std::complex.0"* %0), !dbg !1751
  store float %call, float* %__x, align 4, !dbg !1749
  call void @llvm.dbg.declare(metadata float* %__y, metadata !1752, metadata !DIExpression()), !dbg !1753
  %1 = load %"struct.std::complex.0"*, %"struct.std::complex.0"** %__z.addr, align 8, !dbg !1754
  %call1 = call float @_ZNKSt7complexIfE4imagB5cxx11Ev(%"struct.std::complex.0"* %1), !dbg !1755
  store float %call1, float* %__y, align 4, !dbg !1753
  %2 = load float, float* %__x, align 4, !dbg !1756
  %3 = load float, float* %__x, align 4, !dbg !1757
  %mul = fmul float %2, %3, !dbg !1758
  %4 = load float, float* %__y, align 4, !dbg !1759
  %5 = load float, float* %__y, align 4, !dbg !1760
  %mul2 = fmul float %4, %5, !dbg !1761
  %add = fadd float %mul, %mul2, !dbg !1762
  ret float %add, !dbg !1763
}

; Function Attrs: noinline nounwind uwtable
define linkonce_odr dso_local float @_ZSt13__complex_absCf(<2 x float> %__z.coerce) #5 comdat !dbg !1764 {
entry:
  %__z = alloca { float, float }, align 4
  %coerce = alloca { float, float }, align 4
  %0 = bitcast { float, float }* %__z to <2 x float>*
  store <2 x float> %__z.coerce, <2 x float>* %0, align 4
  call void @llvm.dbg.declare(metadata { float, float }* %__z, metadata !1767, metadata !DIExpression()), !dbg !1768
  %__z.realp = getelementptr inbounds { float, float }, { float, float }* %__z, i32 0, i32 0, !dbg !1769
  %__z.real = load float, float* %__z.realp, align 4, !dbg !1769
  %__z.imagp = getelementptr inbounds { float, float }, { float, float }* %__z, i32 0, i32 1, !dbg !1769
  %__z.imag = load float, float* %__z.imagp, align 4, !dbg !1769
  %coerce.realp = getelementptr inbounds { float, float }, { float, float }* %coerce, i32 0, i32 0, !dbg !1770
  %coerce.imagp = getelementptr inbounds { float, float }, { float, float }* %coerce, i32 0, i32 1, !dbg !1770
  store float %__z.real, float* %coerce.realp, align 4, !dbg !1770
  store float %__z.imag, float* %coerce.imagp, align 4, !dbg !1770
  %1 = bitcast { float, float }* %coerce to <2 x float>*, !dbg !1770
  %2 = load <2 x float>, <2 x float>* %1, align 4, !dbg !1770
  %call = call float @cabsf(<2 x float> %2) #6, !dbg !1770
  ret float %call, !dbg !1771
}

; Function Attrs: noinline nounwind uwtable
define linkonce_odr dso_local <2 x float> @_ZNKSt7complexIfE5__repEv(%"struct.std::complex.0"* %this) #5 comdat align 2 !dbg !1772 {
entry:
  %retval = alloca { float, float }, align 4
  %this.addr = alloca %"struct.std::complex.0"*, align 8
  store %"struct.std::complex.0"* %this, %"struct.std::complex.0"** %this.addr, align 8
  call void @llvm.dbg.declare(metadata %"struct.std::complex.0"** %this.addr, metadata !1773, metadata !DIExpression()), !dbg !1774
  %this1 = load %"struct.std::complex.0"*, %"struct.std::complex.0"** %this.addr, align 8
  %_M_value = getelementptr inbounds %"struct.std::complex.0", %"struct.std::complex.0"* %this1, i32 0, i32 0, !dbg !1775
  %_M_value.realp = getelementptr inbounds { float, float }, { float, float }* %_M_value, i32 0, i32 0, !dbg !1775
  %_M_value.real = load float, float* %_M_value.realp, align 4, !dbg !1775
  %_M_value.imagp = getelementptr inbounds { float, float }, { float, float }* %_M_value, i32 0, i32 1, !dbg !1775
  %_M_value.imag = load float, float* %_M_value.imagp, align 4, !dbg !1775
  %retval.realp = getelementptr inbounds { float, float }, { float, float }* %retval, i32 0, i32 0, !dbg !1776
  %retval.imagp = getelementptr inbounds { float, float }, { float, float }* %retval, i32 0, i32 1, !dbg !1776
  store float %_M_value.real, float* %retval.realp, align 4, !dbg !1776
  store float %_M_value.imag, float* %retval.imagp, align 4, !dbg !1776
  %0 = bitcast { float, float }* %retval to <2 x float>*, !dbg !1776
  %1 = load <2 x float>, <2 x float>* %0, align 4, !dbg !1776
  ret <2 x float> %1, !dbg !1776
}

; Function Attrs: nounwind
declare dso_local float @cabsf(<2 x float>) #4

attributes #0 = { noinline nounwind uwtable "correctly-rounded-divide-sqrt-fp-math"="false" "disable-tail-calls"="false" "frame-pointer"="all" "less-precise-fpmad"="false" "min-legal-vector-width"="0" "no-infs-fp-math"="false" "no-jump-tables"="false" "no-nans-fp-math"="false" "no-signed-zeros-fp-math"="false" "no-trapping-math"="false" "stack-protector-buffer-size"="8" "target-cpu"="x86-64" "target-features"="+cx8,+fxsr,+mmx,+sse,+sse2,+x87" "unsafe-fp-math"="false" "use-soft-float"="false" }
attributes #1 = { nounwind readnone speculatable willreturn }
attributes #2 = { noinline uwtable "correctly-rounded-divide-sqrt-fp-math"="false" "disable-tail-calls"="false" "frame-pointer"="all" "less-precise-fpmad"="false" "min-legal-vector-width"="0" "no-infs-fp-math"="false" "no-jump-tables"="false" "no-nans-fp-math"="false" "no-signed-zeros-fp-math"="false" "no-trapping-math"="false" "stack-protector-buffer-size"="8" "target-cpu"="x86-64" "target-features"="+cx8,+fxsr,+mmx,+sse,+sse2,+x87" "unsafe-fp-math"="false" "use-soft-float"="false" }
attributes #3 = { noinline uwtable "correctly-rounded-divide-sqrt-fp-math"="false" "disable-tail-calls"="false" "frame-pointer"="all" "less-precise-fpmad"="false" "min-legal-vector-width"="64" "no-infs-fp-math"="false" "no-jump-tables"="false" "no-nans-fp-math"="false" "no-signed-zeros-fp-math"="false" "no-trapping-math"="false" "stack-protector-buffer-size"="8" "target-cpu"="x86-64" "target-features"="+cx8,+fxsr,+mmx,+sse,+sse2,+x87" "unsafe-fp-math"="false" "use-soft-float"="false" }
attributes #4 = { nounwind "correctly-rounded-divide-sqrt-fp-math"="false" "disable-tail-calls"="false" "frame-pointer"="all" "less-precise-fpmad"="false" "no-infs-fp-math"="false" "no-nans-fp-math"="false" "no-signed-zeros-fp-math"="false" "no-trapping-math"="false" "stack-protector-buffer-size"="8" "target-cpu"="x86-64" "target-features"="+cx8,+fxsr,+mmx,+sse,+sse2,+x87" "unsafe-fp-math"="false" "use-soft-float"="false" }
attributes #5 = { noinline nounwind uwtable "correctly-rounded-divide-sqrt-fp-math"="false" "disable-tail-calls"="false" "frame-pointer"="all" "less-precise-fpmad"="false" "min-legal-vector-width"="64" "no-infs-fp-math"="false" "no-jump-tables"="false" "no-nans-fp-math"="false" "no-signed-zeros-fp-math"="false" "no-trapping-math"="false" "stack-protector-buffer-size"="8" "target-cpu"="x86-64" "target-features"="+cx8,+fxsr,+mmx,+sse,+sse2,+x87" "unsafe-fp-math"="false" "use-soft-float"="false" }
attributes #6 = { nounwind }

!llvm.dbg.cu = !{!210}
!llvm.module.flags = !{!1443, !1444, !1445}
!llvm.ident = !{!1446}

!0 = !DIGlobalVariableExpression(var: !1, expr: !DIExpression())
!1 = distinct !DIGlobalVariable(name: "is_complex", linkageName: "_ZN6dealii7numbers12NumberTraitsIdE10is_complexE", scope: !2, file: !4, line: 63, type: !5, isLocal: false, isDefinition: true, declaration: !7)
!2 = !DINamespace(name: "numbers", scope: !3)
!3 = !DINamespace(name: "dealii", scope: null)
!4 = !DIFile(filename: "source/base/config.cc", directory: "/home/venkat/IF-DV/spec_build_release/CPU_2017/benchspec/CPU/510.parest_r/build/build_base_ld-loop-ext-m64.0000")
!5 = !DIDerivedType(tag: DW_TAG_const_type, baseType: !6)
!6 = !DIBasicType(name: "bool", size: 8, encoding: DW_ATE_boolean)
!7 = !DIDerivedType(tag: DW_TAG_member, name: "is_complex", scope: !9, file: !8, line: 184, baseType: !5, flags: DIFlagStaticMember, extraData: i1 false)
!8 = !DIFile(filename: "include/base/numbers.h", directory: "/home/venkat/IF-DV/spec_build_release/CPU_2017/benchspec/CPU/510.parest_r/build/build_base_ld-loop-ext-m64.0000")
!9 = distinct !DICompositeType(tag: DW_TAG_structure_type, name: "NumberTraits<double>", scope: !2, file: !4, line: 69, size: 8, flags: DIFlagTypePassByValue, elements: !10, templateParams: !22, identifier: "_ZTSN6dealii7numbers12NumberTraitsIdEE")
!10 = !{!7, !11, !17, !21}
!11 = !DISubprogram(name: "conjugate", linkageName: "_ZN6dealii7numbers12NumberTraitsIdE9conjugateERKd", scope: !9, file: !8, line: 207, type: !12, scopeLine: 207, flags: DIFlagPrototyped | DIFlagStaticMember, spFlags: 0)
!12 = !DISubroutineType(types: !13)
!13 = !{!14, !14}
!14 = !DIDerivedType(tag: DW_TAG_reference_type, baseType: !15, size: 64)
!15 = !DIDerivedType(tag: DW_TAG_const_type, baseType: !16)
!16 = !DIBasicType(name: "double", size: 64, encoding: DW_ATE_float)
!17 = !DISubprogram(name: "abs_square", linkageName: "_ZN6dealii7numbers12NumberTraitsIdE10abs_squareERKd", scope: !9, file: !8, line: 218, type: !18, scopeLine: 218, flags: DIFlagPrototyped | DIFlagStaticMember, spFlags: 0)
!18 = !DISubroutineType(types: !19)
!19 = !{!20, !14}
!20 = !DIDerivedType(tag: DW_TAG_typedef, name: "real_type", scope: !9, file: !8, line: 196, baseType: !16)
!21 = !DISubprogram(name: "abs", linkageName: "_ZN6dealii7numbers12NumberTraitsIdE3absERKd", scope: !9, file: !8, line: 225, type: !18, scopeLine: 225, flags: DIFlagPrototyped | DIFlagStaticMember, spFlags: 0)
!22 = !{!23}
!23 = !DITemplateTypeParameter(name: "number", type: !16)
!24 = !DIGlobalVariableExpression(var: !25, expr: !DIExpression())
!25 = distinct !DIGlobalVariable(name: "is_complex", linkageName: "_ZN6dealii7numbers12NumberTraitsIfE10is_complexE", scope: !2, file: !4, line: 63, type: !5, isLocal: false, isDefinition: true, declaration: !26)
!26 = !DIDerivedType(tag: DW_TAG_member, name: "is_complex", scope: !27, file: !8, line: 184, baseType: !5, flags: DIFlagStaticMember, extraData: i1 false)
!27 = distinct !DICompositeType(tag: DW_TAG_structure_type, name: "NumberTraits<float>", scope: !2, file: !4, line: 70, size: 8, flags: DIFlagTypePassByValue, elements: !28, templateParams: !40, identifier: "_ZTSN6dealii7numbers12NumberTraitsIfEE")
!28 = !{!26, !29, !35, !39}
!29 = !DISubprogram(name: "conjugate", linkageName: "_ZN6dealii7numbers12NumberTraitsIfE9conjugateERKf", scope: !27, file: !8, line: 207, type: !30, scopeLine: 207, flags: DIFlagPrototyped | DIFlagStaticMember, spFlags: 0)
!30 = !DISubroutineType(types: !31)
!31 = !{!32, !32}
!32 = !DIDerivedType(tag: DW_TAG_reference_type, baseType: !33, size: 64)
!33 = !DIDerivedType(tag: DW_TAG_const_type, baseType: !34)
!34 = !DIBasicType(name: "float", size: 32, encoding: DW_ATE_float)
!35 = !DISubprogram(name: "abs_square", linkageName: "_ZN6dealii7numbers12NumberTraitsIfE10abs_squareERKf", scope: !27, file: !8, line: 218, type: !36, scopeLine: 218, flags: DIFlagPrototyped | DIFlagStaticMember, spFlags: 0)
!36 = !DISubroutineType(types: !37)
!37 = !{!38, !32}
!38 = !DIDerivedType(tag: DW_TAG_typedef, name: "real_type", scope: !27, file: !8, line: 196, baseType: !34)
!39 = !DISubprogram(name: "abs", linkageName: "_ZN6dealii7numbers12NumberTraitsIfE3absERKf", scope: !27, file: !8, line: 225, type: !36, scopeLine: 225, flags: DIFlagPrototyped | DIFlagStaticMember, spFlags: 0)
!40 = !{!41}
!41 = !DITemplateTypeParameter(name: "number", type: !34)
!42 = !DIGlobalVariableExpression(var: !43, expr: !DIExpression())
!43 = distinct !DIGlobalVariable(name: "is_complex", linkageName: "_ZN6dealii7numbers12NumberTraitsISt7complexIdEE10is_complexE", scope: !2, file: !4, line: 66, type: !5, isLocal: false, isDefinition: true, declaration: !44)
!44 = !DIDerivedType(tag: DW_TAG_member, name: "is_complex", scope: !45, file: !8, line: 249, baseType: !5, flags: DIFlagStaticMember, extraData: i1 true)
!45 = distinct !DICompositeType(tag: DW_TAG_structure_type, name: "NumberTraits<std::complex<double> >", scope: !2, file: !4, line: 72, size: 8, flags: DIFlagTypePassByValue, elements: !46, templateParams: !193, identifier: "_ZTSN6dealii7numbers12NumberTraitsISt7complexIdEEE")
!46 = !{!44, !47, !188, !192}
!47 = !DISubprogram(name: "conjugate", linkageName: "_ZN6dealii7numbers12NumberTraitsISt7complexIdEE9conjugateERKS3_", scope: !45, file: !8, line: 268, type: !48, scopeLine: 268, flags: DIFlagPrototyped | DIFlagStaticMember, spFlags: 0)
!48 = !DISubroutineType(types: !49)
!49 = !{!50, !84}
!50 = distinct !DICompositeType(tag: DW_TAG_structure_type, name: "complex<double>", scope: !52, file: !51, line: 1227, size: 128, flags: DIFlagTypePassByValue | DIFlagNonTrivial, elements: !53, templateParams: !186, identifier: "_ZTSSt7complexIdE")
!51 = !DIFile(filename: "/usr/lib/gcc/x86_64-linux-gnu/10/../../../../include/c++/10/complex", directory: "")
!52 = !DINamespace(name: "std", scope: null)
!53 = !{!54, !57, !61, !64, !160, !163, !167, !168, !171, !172, !176, !177, !178, !179, !180, !183}
!54 = !DIDerivedType(tag: DW_TAG_member, name: "_M_value", scope: !50, file: !51, line: 1366, baseType: !55, size: 128, flags: DIFlagPrivate)
!55 = !DIDerivedType(tag: DW_TAG_typedef, name: "_ComplexT", scope: !50, file: !51, line: 1230, baseType: !56)
!56 = !DIBasicType(name: "complex", size: 128, encoding: DW_ATE_complex_float)
!57 = !DISubprogram(name: "complex", scope: !50, file: !51, line: 1232, type: !58, scopeLine: 1232, flags: DIFlagPrototyped, spFlags: 0)
!58 = !DISubroutineType(types: !59)
!59 = !{null, !60, !55}
!60 = !DIDerivedType(tag: DW_TAG_pointer_type, baseType: !50, size: 64, flags: DIFlagArtificial | DIFlagObjectPointer)
!61 = !DISubprogram(name: "complex", scope: !50, file: !51, line: 1234, type: !62, scopeLine: 1234, flags: DIFlagPrototyped, spFlags: 0)
!62 = !DISubroutineType(types: !63)
!63 = !{null, !60, !16, !16}
!64 = !DISubprogram(name: "complex", scope: !50, file: !51, line: 1244, type: !65, scopeLine: 1244, flags: DIFlagPrototyped, spFlags: 0)
!65 = !DISubroutineType(types: !66)
!66 = !{null, !60, !67}
!67 = !DIDerivedType(tag: DW_TAG_reference_type, baseType: !68, size: 64)
!68 = !DIDerivedType(tag: DW_TAG_const_type, baseType: !69)
!69 = distinct !DICompositeType(tag: DW_TAG_structure_type, name: "complex<float>", scope: !52, file: !51, line: 1082, size: 64, flags: DIFlagTypePassByValue | DIFlagNonTrivial, elements: !70, templateParams: !158, identifier: "_ZTSSt7complexIfE")
!70 = !{!71, !74, !78, !81, !86, !135, !139, !140, !143, !144, !148, !149, !150, !151, !152, !155}
!71 = !DIDerivedType(tag: DW_TAG_member, name: "_M_value", scope: !69, file: !51, line: 1221, baseType: !72, size: 64, flags: DIFlagPrivate)
!72 = !DIDerivedType(tag: DW_TAG_typedef, name: "_ComplexT", scope: !69, file: !51, line: 1085, baseType: !73)
!73 = !DIBasicType(name: "complex", size: 64, encoding: DW_ATE_complex_float)
!74 = !DISubprogram(name: "complex", scope: !69, file: !51, line: 1087, type: !75, scopeLine: 1087, flags: DIFlagPrototyped, spFlags: 0)
!75 = !DISubroutineType(types: !76)
!76 = !{null, !77, !72}
!77 = !DIDerivedType(tag: DW_TAG_pointer_type, baseType: !69, size: 64, flags: DIFlagArtificial | DIFlagObjectPointer)
!78 = !DISubprogram(name: "complex", scope: !69, file: !51, line: 1089, type: !79, scopeLine: 1089, flags: DIFlagPrototyped, spFlags: 0)
!79 = !DISubroutineType(types: !80)
!80 = !{null, !77, !34, !34}
!81 = !DISubprogram(name: "complex", scope: !69, file: !51, line: 1099, type: !82, scopeLine: 1099, flags: DIFlagExplicit | DIFlagPrototyped, spFlags: 0)
!82 = !DISubroutineType(types: !83)
!83 = !{null, !77, !84}
!84 = !DIDerivedType(tag: DW_TAG_reference_type, baseType: !85, size: 64)
!85 = !DIDerivedType(tag: DW_TAG_const_type, baseType: !50)
!86 = !DISubprogram(name: "complex", scope: !69, file: !51, line: 1100, type: !87, scopeLine: 1100, flags: DIFlagExplicit | DIFlagPrototyped, spFlags: 0)
!87 = !DISubroutineType(types: !88)
!88 = !{null, !77, !89}
!89 = !DIDerivedType(tag: DW_TAG_reference_type, baseType: !90, size: 64)
!90 = !DIDerivedType(tag: DW_TAG_const_type, baseType: !91)
!91 = distinct !DICompositeType(tag: DW_TAG_structure_type, name: "complex<long double>", scope: !52, file: !51, line: 1372, size: 256, flags: DIFlagTypePassByValue | DIFlagNonTrivial, elements: !92, templateParams: !133, identifier: "_ZTSSt7complexIeE")
!92 = !{!93, !96, !100, !104, !107, !110, !114, !115, !118, !119, !123, !124, !125, !126, !127, !130}
!93 = !DIDerivedType(tag: DW_TAG_member, name: "_M_value", scope: !91, file: !51, line: 1513, baseType: !94, size: 256, flags: DIFlagPrivate)
!94 = !DIDerivedType(tag: DW_TAG_typedef, name: "_ComplexT", scope: !91, file: !51, line: 1375, baseType: !95)
!95 = !DIBasicType(name: "complex", size: 256, encoding: DW_ATE_complex_float)
!96 = !DISubprogram(name: "complex", scope: !91, file: !51, line: 1377, type: !97, scopeLine: 1377, flags: DIFlagPrototyped, spFlags: 0)
!97 = !DISubroutineType(types: !98)
!98 = !{null, !99, !94}
!99 = !DIDerivedType(tag: DW_TAG_pointer_type, baseType: !91, size: 64, flags: DIFlagArtificial | DIFlagObjectPointer)
!100 = !DISubprogram(name: "complex", scope: !91, file: !51, line: 1379, type: !101, scopeLine: 1379, flags: DIFlagPrototyped, spFlags: 0)
!101 = !DISubroutineType(types: !102)
!102 = !{null, !99, !103, !103}
!103 = !DIBasicType(name: "long double", size: 128, encoding: DW_ATE_float)
!104 = !DISubprogram(name: "complex", scope: !91, file: !51, line: 1390, type: !105, scopeLine: 1390, flags: DIFlagPrototyped, spFlags: 0)
!105 = !DISubroutineType(types: !106)
!106 = !{null, !99, !67}
!107 = !DISubprogram(name: "complex", scope: !91, file: !51, line: 1393, type: !108, scopeLine: 1393, flags: DIFlagPrototyped, spFlags: 0)
!108 = !DISubroutineType(types: !109)
!109 = !{null, !99, !84}
!110 = !DISubprogram(name: "real", linkageName: "_ZNKSt7complexIeE4realB5cxx11Ev", scope: !91, file: !51, line: 1401, type: !111, scopeLine: 1401, flags: DIFlagPrototyped, spFlags: 0)
!111 = !DISubroutineType(types: !112)
!112 = !{!103, !113}
!113 = !DIDerivedType(tag: DW_TAG_pointer_type, baseType: !90, size: 64, flags: DIFlagArtificial | DIFlagObjectPointer)
!114 = !DISubprogram(name: "imag", linkageName: "_ZNKSt7complexIeE4imagB5cxx11Ev", scope: !91, file: !51, line: 1405, type: !111, scopeLine: 1405, flags: DIFlagPrototyped, spFlags: 0)
!115 = !DISubprogram(name: "real", linkageName: "_ZNSt7complexIeE4realEe", scope: !91, file: !51, line: 1423, type: !116, scopeLine: 1423, flags: DIFlagPrototyped, spFlags: 0)
!116 = !DISubroutineType(types: !117)
!117 = !{null, !99, !103}
!118 = !DISubprogram(name: "imag", linkageName: "_ZNSt7complexIeE4imagEe", scope: !91, file: !51, line: 1426, type: !116, scopeLine: 1426, flags: DIFlagPrototyped, spFlags: 0)
!119 = !DISubprogram(name: "operator=", linkageName: "_ZNSt7complexIeEaSEe", scope: !91, file: !51, line: 1429, type: !120, scopeLine: 1429, flags: DIFlagPrototyped, spFlags: 0)
!120 = !DISubroutineType(types: !121)
!121 = !{!122, !99, !103}
!122 = !DIDerivedType(tag: DW_TAG_reference_type, baseType: !91, size: 64)
!123 = !DISubprogram(name: "operator+=", linkageName: "_ZNSt7complexIeEpLEe", scope: !91, file: !51, line: 1436, type: !120, scopeLine: 1436, flags: DIFlagPrototyped, spFlags: 0)
!124 = !DISubprogram(name: "operator-=", linkageName: "_ZNSt7complexIeEmIEe", scope: !91, file: !51, line: 1443, type: !120, scopeLine: 1443, flags: DIFlagPrototyped, spFlags: 0)
!125 = !DISubprogram(name: "operator*=", linkageName: "_ZNSt7complexIeEmLEe", scope: !91, file: !51, line: 1450, type: !120, scopeLine: 1450, flags: DIFlagPrototyped, spFlags: 0)
!126 = !DISubprogram(name: "operator/=", linkageName: "_ZNSt7complexIeEdVEe", scope: !91, file: !51, line: 1457, type: !120, scopeLine: 1457, flags: DIFlagPrototyped, spFlags: 0)
!127 = !DISubprogram(name: "operator=", linkageName: "_ZNSt7complexIeEaSERKS0_", scope: !91, file: !51, line: 1465, type: !128, scopeLine: 1465, flags: DIFlagPrototyped, spFlags: 0)
!128 = !DISubroutineType(types: !129)
!129 = !{!122, !99, !89}
!130 = !DISubprogram(name: "__rep", linkageName: "_ZNKSt7complexIeE5__repEv", scope: !91, file: !51, line: 1510, type: !131, scopeLine: 1510, flags: DIFlagPrototyped, spFlags: 0)
!131 = !DISubroutineType(types: !132)
!132 = !{!94, !113}
!133 = !{!134}
!134 = !DITemplateTypeParameter(name: "_Tp", type: !103)
!135 = !DISubprogram(name: "real", linkageName: "_ZNKSt7complexIfE4realB5cxx11Ev", scope: !69, file: !51, line: 1107, type: !136, scopeLine: 1107, flags: DIFlagPrototyped, spFlags: 0)
!136 = !DISubroutineType(types: !137)
!137 = !{!34, !138}
!138 = !DIDerivedType(tag: DW_TAG_pointer_type, baseType: !68, size: 64, flags: DIFlagArtificial | DIFlagObjectPointer)
!139 = !DISubprogram(name: "imag", linkageName: "_ZNKSt7complexIfE4imagB5cxx11Ev", scope: !69, file: !51, line: 1111, type: !136, scopeLine: 1111, flags: DIFlagPrototyped, spFlags: 0)
!140 = !DISubprogram(name: "real", linkageName: "_ZNSt7complexIfE4realEf", scope: !69, file: !51, line: 1129, type: !141, scopeLine: 1129, flags: DIFlagPrototyped, spFlags: 0)
!141 = !DISubroutineType(types: !142)
!142 = !{null, !77, !34}
!143 = !DISubprogram(name: "imag", linkageName: "_ZNSt7complexIfE4imagEf", scope: !69, file: !51, line: 1132, type: !141, scopeLine: 1132, flags: DIFlagPrototyped, spFlags: 0)
!144 = !DISubprogram(name: "operator=", linkageName: "_ZNSt7complexIfEaSEf", scope: !69, file: !51, line: 1135, type: !145, scopeLine: 1135, flags: DIFlagPrototyped, spFlags: 0)
!145 = !DISubroutineType(types: !146)
!146 = !{!147, !77, !34}
!147 = !DIDerivedType(tag: DW_TAG_reference_type, baseType: !69, size: 64)
!148 = !DISubprogram(name: "operator+=", linkageName: "_ZNSt7complexIfEpLEf", scope: !69, file: !51, line: 1142, type: !145, scopeLine: 1142, flags: DIFlagPrototyped, spFlags: 0)
!149 = !DISubprogram(name: "operator-=", linkageName: "_ZNSt7complexIfEmIEf", scope: !69, file: !51, line: 1149, type: !145, scopeLine: 1149, flags: DIFlagPrototyped, spFlags: 0)
!150 = !DISubprogram(name: "operator*=", linkageName: "_ZNSt7complexIfEmLEf", scope: !69, file: !51, line: 1156, type: !145, scopeLine: 1156, flags: DIFlagPrototyped, spFlags: 0)
!151 = !DISubprogram(name: "operator/=", linkageName: "_ZNSt7complexIfEdVEf", scope: !69, file: !51, line: 1163, type: !145, scopeLine: 1163, flags: DIFlagPrototyped, spFlags: 0)
!152 = !DISubprogram(name: "operator=", linkageName: "_ZNSt7complexIfEaSERKS0_", scope: !69, file: !51, line: 1172, type: !153, scopeLine: 1172, flags: DIFlagPrototyped, spFlags: 0)
!153 = !DISubroutineType(types: !154)
!154 = !{!147, !77, !67}
!155 = !DISubprogram(name: "__rep", linkageName: "_ZNKSt7complexIfE5__repEv", scope: !69, file: !51, line: 1218, type: !156, scopeLine: 1218, flags: DIFlagPrototyped, spFlags: 0)
!156 = !DISubroutineType(types: !157)
!157 = !{!72, !138}
!158 = !{!159}
!159 = !DITemplateTypeParameter(name: "_Tp", type: !34)
!160 = !DISubprogram(name: "complex", scope: !50, file: !51, line: 1247, type: !161, scopeLine: 1247, flags: DIFlagExplicit | DIFlagPrototyped, spFlags: 0)
!161 = !DISubroutineType(types: !162)
!162 = !{null, !60, !89}
!163 = !DISubprogram(name: "real", linkageName: "_ZNKSt7complexIdE4realB5cxx11Ev", scope: !50, file: !51, line: 1254, type: !164, scopeLine: 1254, flags: DIFlagPrototyped, spFlags: 0)
!164 = !DISubroutineType(types: !165)
!165 = !{!16, !166}
!166 = !DIDerivedType(tag: DW_TAG_pointer_type, baseType: !85, size: 64, flags: DIFlagArtificial | DIFlagObjectPointer)
!167 = !DISubprogram(name: "imag", linkageName: "_ZNKSt7complexIdE4imagB5cxx11Ev", scope: !50, file: !51, line: 1258, type: !164, scopeLine: 1258, flags: DIFlagPrototyped, spFlags: 0)
!168 = !DISubprogram(name: "real", linkageName: "_ZNSt7complexIdE4realEd", scope: !50, file: !51, line: 1276, type: !169, scopeLine: 1276, flags: DIFlagPrototyped, spFlags: 0)
!169 = !DISubroutineType(types: !170)
!170 = !{null, !60, !16}
!171 = !DISubprogram(name: "imag", linkageName: "_ZNSt7complexIdE4imagEd", scope: !50, file: !51, line: 1279, type: !169, scopeLine: 1279, flags: DIFlagPrototyped, spFlags: 0)
!172 = !DISubprogram(name: "operator=", linkageName: "_ZNSt7complexIdEaSEd", scope: !50, file: !51, line: 1282, type: !173, scopeLine: 1282, flags: DIFlagPrototyped, spFlags: 0)
!173 = !DISubroutineType(types: !174)
!174 = !{!175, !60, !16}
!175 = !DIDerivedType(tag: DW_TAG_reference_type, baseType: !50, size: 64)
!176 = !DISubprogram(name: "operator+=", linkageName: "_ZNSt7complexIdEpLEd", scope: !50, file: !51, line: 1289, type: !173, scopeLine: 1289, flags: DIFlagPrototyped, spFlags: 0)
!177 = !DISubprogram(name: "operator-=", linkageName: "_ZNSt7complexIdEmIEd", scope: !50, file: !51, line: 1296, type: !173, scopeLine: 1296, flags: DIFlagPrototyped, spFlags: 0)
!178 = !DISubprogram(name: "operator*=", linkageName: "_ZNSt7complexIdEmLEd", scope: !50, file: !51, line: 1303, type: !173, scopeLine: 1303, flags: DIFlagPrototyped, spFlags: 0)
!179 = !DISubprogram(name: "operator/=", linkageName: "_ZNSt7complexIdEdVEd", scope: !50, file: !51, line: 1310, type: !173, scopeLine: 1310, flags: DIFlagPrototyped, spFlags: 0)
!180 = !DISubprogram(name: "operator=", linkageName: "_ZNSt7complexIdEaSERKS0_", scope: !50, file: !51, line: 1318, type: !181, scopeLine: 1318, flags: DIFlagPrototyped, spFlags: 0)
!181 = !DISubroutineType(types: !182)
!182 = !{!175, !60, !84}
!183 = !DISubprogram(name: "__rep", linkageName: "_ZNKSt7complexIdE5__repEv", scope: !50, file: !51, line: 1363, type: !184, scopeLine: 1363, flags: DIFlagPrototyped, spFlags: 0)
!184 = !DISubroutineType(types: !185)
!185 = !{!55, !166}
!186 = !{!187}
!187 = !DITemplateTypeParameter(name: "_Tp", type: !16)
!188 = !DISubprogram(name: "abs_square", linkageName: "_ZN6dealii7numbers12NumberTraitsISt7complexIdEE10abs_squareERKS3_", scope: !45, file: !8, line: 280, type: !189, scopeLine: 280, flags: DIFlagPrototyped | DIFlagStaticMember, spFlags: 0)
!189 = !DISubroutineType(types: !190)
!190 = !{!191, !84}
!191 = !DIDerivedType(tag: DW_TAG_typedef, name: "real_type", scope: !45, file: !8, line: 261, baseType: !16)
!192 = !DISubprogram(name: "abs", linkageName: "_ZN6dealii7numbers12NumberTraitsISt7complexIdEE3absERKS3_", scope: !45, file: !8, line: 288, type: !189, scopeLine: 288, flags: DIFlagPrototyped | DIFlagStaticMember, spFlags: 0)
!193 = !{!194}
!194 = !DITemplateTypeParameter(name: "number", type: !50)
!195 = !DIGlobalVariableExpression(var: !196, expr: !DIExpression())
!196 = distinct !DIGlobalVariable(name: "is_complex", linkageName: "_ZN6dealii7numbers12NumberTraitsISt7complexIfEE10is_complexE", scope: !2, file: !4, line: 66, type: !5, isLocal: false, isDefinition: true, declaration: !197)
!197 = !DIDerivedType(tag: DW_TAG_member, name: "is_complex", scope: !198, file: !8, line: 249, baseType: !5, flags: DIFlagStaticMember, extraData: i1 true)
!198 = distinct !DICompositeType(tag: DW_TAG_structure_type, name: "NumberTraits<std::complex<float> >", scope: !2, file: !4, line: 73, size: 8, flags: DIFlagTypePassByValue, elements: !199, templateParams: !208, identifier: "_ZTSN6dealii7numbers12NumberTraitsISt7complexIfEEE")
!199 = !{!197, !200, !203, !207}
!200 = !DISubprogram(name: "conjugate", linkageName: "_ZN6dealii7numbers12NumberTraitsISt7complexIfEE9conjugateERKS3_", scope: !198, file: !8, line: 268, type: !201, scopeLine: 268, flags: DIFlagPrototyped | DIFlagStaticMember, spFlags: 0)
!201 = !DISubroutineType(types: !202)
!202 = !{!69, !67}
!203 = !DISubprogram(name: "abs_square", linkageName: "_ZN6dealii7numbers12NumberTraitsISt7complexIfEE10abs_squareERKS3_", scope: !198, file: !8, line: 280, type: !204, scopeLine: 280, flags: DIFlagPrototyped | DIFlagStaticMember, spFlags: 0)
!204 = !DISubroutineType(types: !205)
!205 = !{!206, !67}
!206 = !DIDerivedType(tag: DW_TAG_typedef, name: "real_type", scope: !198, file: !8, line: 261, baseType: !34)
!207 = !DISubprogram(name: "abs", linkageName: "_ZN6dealii7numbers12NumberTraitsISt7complexIfEE3absERKS3_", scope: !198, file: !8, line: 288, type: !204, scopeLine: 288, flags: DIFlagPrototyped | DIFlagStaticMember, spFlags: 0)
!208 = !{!209}
!209 = !DITemplateTypeParameter(name: "number", type: !69)
!210 = distinct !DICompileUnit(language: DW_LANG_C_plus_plus_14, file: !4, producer: "clang version 10.0.1 (https://github.com/svkeerthy/IR2Vec-LoopOptimizationFramework.git 561ac470e63b728263a0ac06ef987886ac648486)", isOptimized: false, runtimeVersion: 0, emissionKind: FullDebug, enums: !211, retainedTypes: !226, globals: !227, imports: !228, splitDebugInlining: false, nameTableKind: None)
!211 = !{!212, !219}
!212 = !DICompositeType(tag: DW_TAG_enumeration_type, name: "float_denorm_style", scope: !52, file: !213, line: 182, baseType: !214, size: 32, elements: !215, identifier: "_ZTSSt18float_denorm_style")
!213 = !DIFile(filename: "/usr/lib/gcc/x86_64-linux-gnu/10/../../../../include/c++/10/limits", directory: "")
!214 = !DIBasicType(name: "int", size: 32, encoding: DW_ATE_signed)
!215 = !{!216, !217, !218}
!216 = !DIEnumerator(name: "denorm_indeterminate", value: -1)
!217 = !DIEnumerator(name: "denorm_absent", value: 0)
!218 = !DIEnumerator(name: "denorm_present", value: 1)
!219 = !DICompositeType(tag: DW_TAG_enumeration_type, name: "float_round_style", scope: !52, file: !213, line: 167, baseType: !214, size: 32, elements: !220, identifier: "_ZTSSt17float_round_style")
!220 = !{!221, !222, !223, !224, !225}
!221 = !DIEnumerator(name: "round_indeterminate", value: -1)
!222 = !DIEnumerator(name: "round_toward_zero", value: 0)
!223 = !DIEnumerator(name: "round_to_nearest", value: 1)
!224 = !DIEnumerator(name: "round_toward_infinity", value: 2)
!225 = !DIEnumerator(name: "round_toward_neg_infinity", value: 3)
!226 = !{!9, !27, !45, !198}
!227 = !{!0, !24, !42, !195}
!228 = !{!229, !235, !241, !243, !245, !249, !251, !253, !255, !257, !259, !261, !263, !268, !272, !274, !276, !281, !283, !285, !287, !289, !291, !293, !296, !298, !300, !304, !308, !310, !312, !314, !316, !318, !320, !322, !324, !326, !328, !332, !336, !338, !340, !342, !344, !346, !348, !350, !352, !354, !356, !358, !360, !362, !364, !366, !370, !374, !378, !380, !382, !384, !386, !388, !390, !392, !394, !396, !400, !404, !408, !410, !412, !414, !419, !423, !427, !429, !431, !433, !435, !437, !439, !441, !443, !445, !447, !449, !451, !456, !460, !464, !466, !468, !470, !477, !481, !485, !487, !489, !491, !493, !495, !497, !501, !505, !507, !509, !511, !513, !517, !521, !525, !527, !529, !531, !533, !535, !537, !541, !545, !549, !551, !555, !559, !561, !563, !565, !567, !569, !571, !589, !592, !597, !605, !613, !617, !624, !628, !632, !634, !636, !640, !650, !654, !660, !666, !668, !672, !676, !680, !684, !696, !698, !702, !706, !710, !712, !718, !722, !726, !728, !730, !734, !742, !746, !750, !754, !756, !762, !764, !770, !774, !778, !782, !786, !790, !794, !796, !798, !802, !806, !810, !812, !816, !820, !822, !824, !828, !833, !837, !842, !843, !844, !845, !846, !847, !848, !849, !850, !851, !852, !907, !911, !915, !922, !926, !929, !932, !935, !937, !939, !941, !944, !947, !950, !953, !956, !958, !963, !967, !970, !973, !975, !977, !979, !981, !984, !987, !990, !993, !996, !998, !1002, !1006, !1011, !1015, !1017, !1019, !1021, !1023, !1025, !1027, !1029, !1031, !1033, !1035, !1037, !1039, !1041, !1045, !1051, !1055, !1060, !1062, !1064, !1068, !1072, !1082, !1086, !1090, !1094, !1098, !1102, !1106, !1110, !1114, !1118, !1122, !1126, !1130, !1132, !1136, !1140, !1144, !1150, !1154, !1158, !1160, !1164, !1168, !1174, !1176, !1180, !1184, !1188, !1192, !1196, !1200, !1204, !1205, !1206, !1207, !1209, !1210, !1211, !1212, !1213, !1214, !1215, !1219, !1225, !1230, !1234, !1236, !1238, !1240, !1242, !1249, !1253, !1257, !1261, !1265, !1269, !1274, !1278, !1280, !1284, !1290, !1294, !1299, !1301, !1303, !1307, !1311, !1313, !1315, !1317, !1319, !1323, !1325, !1327, !1331, !1335, !1339, !1343, !1347, !1351, !1353, !1357, !1361, !1365, !1369, !1371, !1373, !1377, !1381, !1382, !1383, !1384, !1385, !1386, !1392, !1395, !1396, !1398, !1400, !1402, !1404, !1408, !1410, !1412, !1414, !1416, !1418, !1420, !1422, !1424, !1428, !1432, !1434, !1438, !1442}
!229 = !DIImportedEntity(tag: DW_TAG_imported_declaration, scope: !52, entity: !230, file: !234, line: 52)
!230 = !DISubprogram(name: "abs", scope: !231, file: !231, line: 840, type: !232, flags: DIFlagPrototyped, spFlags: 0)
!231 = !DIFile(filename: "/usr/include/stdlib.h", directory: "")
!232 = !DISubroutineType(types: !233)
!233 = !{!214, !214}
!234 = !DIFile(filename: "/usr/lib/gcc/x86_64-linux-gnu/10/../../../../include/c++/10/bits/std_abs.h", directory: "")
!235 = !DIImportedEntity(tag: DW_TAG_imported_declaration, scope: !52, entity: !236, file: !240, line: 83)
!236 = !DISubprogram(name: "acos", scope: !237, file: !237, line: 53, type: !238, flags: DIFlagPrototyped, spFlags: 0)
!237 = !DIFile(filename: "/usr/include/x86_64-linux-gnu/bits/mathcalls.h", directory: "")
!238 = !DISubroutineType(types: !239)
!239 = !{!16, !16}
!240 = !DIFile(filename: "/usr/lib/gcc/x86_64-linux-gnu/10/../../../../include/c++/10/cmath", directory: "")
!241 = !DIImportedEntity(tag: DW_TAG_imported_declaration, scope: !52, entity: !242, file: !240, line: 102)
!242 = !DISubprogram(name: "asin", scope: !237, file: !237, line: 55, type: !238, flags: DIFlagPrototyped, spFlags: 0)
!243 = !DIImportedEntity(tag: DW_TAG_imported_declaration, scope: !52, entity: !244, file: !240, line: 121)
!244 = !DISubprogram(name: "atan", scope: !237, file: !237, line: 57, type: !238, flags: DIFlagPrototyped, spFlags: 0)
!245 = !DIImportedEntity(tag: DW_TAG_imported_declaration, scope: !52, entity: !246, file: !240, line: 140)
!246 = !DISubprogram(name: "atan2", scope: !237, file: !237, line: 59, type: !247, flags: DIFlagPrototyped, spFlags: 0)
!247 = !DISubroutineType(types: !248)
!248 = !{!16, !16, !16}
!249 = !DIImportedEntity(tag: DW_TAG_imported_declaration, scope: !52, entity: !250, file: !240, line: 161)
!250 = !DISubprogram(name: "ceil", scope: !237, file: !237, line: 159, type: !238, flags: DIFlagPrototyped, spFlags: 0)
!251 = !DIImportedEntity(tag: DW_TAG_imported_declaration, scope: !52, entity: !252, file: !240, line: 180)
!252 = !DISubprogram(name: "cos", scope: !237, file: !237, line: 62, type: !238, flags: DIFlagPrototyped, spFlags: 0)
!253 = !DIImportedEntity(tag: DW_TAG_imported_declaration, scope: !52, entity: !254, file: !240, line: 199)
!254 = !DISubprogram(name: "cosh", scope: !237, file: !237, line: 71, type: !238, flags: DIFlagPrototyped, spFlags: 0)
!255 = !DIImportedEntity(tag: DW_TAG_imported_declaration, scope: !52, entity: !256, file: !240, line: 218)
!256 = !DISubprogram(name: "exp", scope: !237, file: !237, line: 95, type: !238, flags: DIFlagPrototyped, spFlags: 0)
!257 = !DIImportedEntity(tag: DW_TAG_imported_declaration, scope: !52, entity: !258, file: !240, line: 237)
!258 = !DISubprogram(name: "fabs", scope: !237, file: !237, line: 162, type: !238, flags: DIFlagPrototyped, spFlags: 0)
!259 = !DIImportedEntity(tag: DW_TAG_imported_declaration, scope: !52, entity: !260, file: !240, line: 256)
!260 = !DISubprogram(name: "floor", scope: !237, file: !237, line: 165, type: !238, flags: DIFlagPrototyped, spFlags: 0)
!261 = !DIImportedEntity(tag: DW_TAG_imported_declaration, scope: !52, entity: !262, file: !240, line: 275)
!262 = !DISubprogram(name: "fmod", scope: !237, file: !237, line: 168, type: !247, flags: DIFlagPrototyped, spFlags: 0)
!263 = !DIImportedEntity(tag: DW_TAG_imported_declaration, scope: !52, entity: !264, file: !240, line: 296)
!264 = !DISubprogram(name: "frexp", scope: !237, file: !237, line: 98, type: !265, flags: DIFlagPrototyped, spFlags: 0)
!265 = !DISubroutineType(types: !266)
!266 = !{!16, !16, !267}
!267 = !DIDerivedType(tag: DW_TAG_pointer_type, baseType: !214, size: 64)
!268 = !DIImportedEntity(tag: DW_TAG_imported_declaration, scope: !52, entity: !269, file: !240, line: 315)
!269 = !DISubprogram(name: "ldexp", scope: !237, file: !237, line: 101, type: !270, flags: DIFlagPrototyped, spFlags: 0)
!270 = !DISubroutineType(types: !271)
!271 = !{!16, !16, !214}
!272 = !DIImportedEntity(tag: DW_TAG_imported_declaration, scope: !52, entity: !273, file: !240, line: 334)
!273 = !DISubprogram(name: "log", scope: !237, file: !237, line: 104, type: !238, flags: DIFlagPrototyped, spFlags: 0)
!274 = !DIImportedEntity(tag: DW_TAG_imported_declaration, scope: !52, entity: !275, file: !240, line: 353)
!275 = !DISubprogram(name: "log10", scope: !237, file: !237, line: 107, type: !238, flags: DIFlagPrototyped, spFlags: 0)
!276 = !DIImportedEntity(tag: DW_TAG_imported_declaration, scope: !52, entity: !277, file: !240, line: 372)
!277 = !DISubprogram(name: "modf", scope: !237, file: !237, line: 110, type: !278, flags: DIFlagPrototyped, spFlags: 0)
!278 = !DISubroutineType(types: !279)
!279 = !{!16, !16, !280}
!280 = !DIDerivedType(tag: DW_TAG_pointer_type, baseType: !16, size: 64)
!281 = !DIImportedEntity(tag: DW_TAG_imported_declaration, scope: !52, entity: !282, file: !240, line: 384)
!282 = !DISubprogram(name: "pow", scope: !237, file: !237, line: 140, type: !247, flags: DIFlagPrototyped, spFlags: 0)
!283 = !DIImportedEntity(tag: DW_TAG_imported_declaration, scope: !52, entity: !284, file: !240, line: 421)
!284 = !DISubprogram(name: "sin", scope: !237, file: !237, line: 64, type: !238, flags: DIFlagPrototyped, spFlags: 0)
!285 = !DIImportedEntity(tag: DW_TAG_imported_declaration, scope: !52, entity: !286, file: !240, line: 440)
!286 = !DISubprogram(name: "sinh", scope: !237, file: !237, line: 73, type: !238, flags: DIFlagPrototyped, spFlags: 0)
!287 = !DIImportedEntity(tag: DW_TAG_imported_declaration, scope: !52, entity: !288, file: !240, line: 459)
!288 = !DISubprogram(name: "sqrt", scope: !237, file: !237, line: 143, type: !238, flags: DIFlagPrototyped, spFlags: 0)
!289 = !DIImportedEntity(tag: DW_TAG_imported_declaration, scope: !52, entity: !290, file: !240, line: 478)
!290 = !DISubprogram(name: "tan", scope: !237, file: !237, line: 66, type: !238, flags: DIFlagPrototyped, spFlags: 0)
!291 = !DIImportedEntity(tag: DW_TAG_imported_declaration, scope: !52, entity: !292, file: !240, line: 497)
!292 = !DISubprogram(name: "tanh", scope: !237, file: !237, line: 75, type: !238, flags: DIFlagPrototyped, spFlags: 0)
!293 = !DIImportedEntity(tag: DW_TAG_imported_declaration, scope: !52, entity: !294, file: !240, line: 1065)
!294 = !DIDerivedType(tag: DW_TAG_typedef, name: "double_t", file: !295, line: 150, baseType: !16)
!295 = !DIFile(filename: "/usr/include/math.h", directory: "")
!296 = !DIImportedEntity(tag: DW_TAG_imported_declaration, scope: !52, entity: !297, file: !240, line: 1066)
!297 = !DIDerivedType(tag: DW_TAG_typedef, name: "float_t", file: !295, line: 149, baseType: !34)
!298 = !DIImportedEntity(tag: DW_TAG_imported_declaration, scope: !52, entity: !299, file: !240, line: 1069)
!299 = !DISubprogram(name: "acosh", scope: !237, file: !237, line: 85, type: !238, flags: DIFlagPrototyped, spFlags: 0)
!300 = !DIImportedEntity(tag: DW_TAG_imported_declaration, scope: !52, entity: !301, file: !240, line: 1070)
!301 = !DISubprogram(name: "acoshf", scope: !237, file: !237, line: 85, type: !302, flags: DIFlagPrototyped, spFlags: 0)
!302 = !DISubroutineType(types: !303)
!303 = !{!34, !34}
!304 = !DIImportedEntity(tag: DW_TAG_imported_declaration, scope: !52, entity: !305, file: !240, line: 1071)
!305 = !DISubprogram(name: "acoshl", scope: !237, file: !237, line: 85, type: !306, flags: DIFlagPrototyped, spFlags: 0)
!306 = !DISubroutineType(types: !307)
!307 = !{!103, !103}
!308 = !DIImportedEntity(tag: DW_TAG_imported_declaration, scope: !52, entity: !309, file: !240, line: 1073)
!309 = !DISubprogram(name: "asinh", scope: !237, file: !237, line: 87, type: !238, flags: DIFlagPrototyped, spFlags: 0)
!310 = !DIImportedEntity(tag: DW_TAG_imported_declaration, scope: !52, entity: !311, file: !240, line: 1074)
!311 = !DISubprogram(name: "asinhf", scope: !237, file: !237, line: 87, type: !302, flags: DIFlagPrototyped, spFlags: 0)
!312 = !DIImportedEntity(tag: DW_TAG_imported_declaration, scope: !52, entity: !313, file: !240, line: 1075)
!313 = !DISubprogram(name: "asinhl", scope: !237, file: !237, line: 87, type: !306, flags: DIFlagPrototyped, spFlags: 0)
!314 = !DIImportedEntity(tag: DW_TAG_imported_declaration, scope: !52, entity: !315, file: !240, line: 1077)
!315 = !DISubprogram(name: "atanh", scope: !237, file: !237, line: 89, type: !238, flags: DIFlagPrototyped, spFlags: 0)
!316 = !DIImportedEntity(tag: DW_TAG_imported_declaration, scope: !52, entity: !317, file: !240, line: 1078)
!317 = !DISubprogram(name: "atanhf", scope: !237, file: !237, line: 89, type: !302, flags: DIFlagPrototyped, spFlags: 0)
!318 = !DIImportedEntity(tag: DW_TAG_imported_declaration, scope: !52, entity: !319, file: !240, line: 1079)
!319 = !DISubprogram(name: "atanhl", scope: !237, file: !237, line: 89, type: !306, flags: DIFlagPrototyped, spFlags: 0)
!320 = !DIImportedEntity(tag: DW_TAG_imported_declaration, scope: !52, entity: !321, file: !240, line: 1081)
!321 = !DISubprogram(name: "cbrt", scope: !237, file: !237, line: 152, type: !238, flags: DIFlagPrototyped, spFlags: 0)
!322 = !DIImportedEntity(tag: DW_TAG_imported_declaration, scope: !52, entity: !323, file: !240, line: 1082)
!323 = !DISubprogram(name: "cbrtf", scope: !237, file: !237, line: 152, type: !302, flags: DIFlagPrototyped, spFlags: 0)
!324 = !DIImportedEntity(tag: DW_TAG_imported_declaration, scope: !52, entity: !325, file: !240, line: 1083)
!325 = !DISubprogram(name: "cbrtl", scope: !237, file: !237, line: 152, type: !306, flags: DIFlagPrototyped, spFlags: 0)
!326 = !DIImportedEntity(tag: DW_TAG_imported_declaration, scope: !52, entity: !327, file: !240, line: 1085)
!327 = !DISubprogram(name: "copysign", scope: !237, file: !237, line: 196, type: !247, flags: DIFlagPrototyped, spFlags: 0)
!328 = !DIImportedEntity(tag: DW_TAG_imported_declaration, scope: !52, entity: !329, file: !240, line: 1086)
!329 = !DISubprogram(name: "copysignf", scope: !237, file: !237, line: 196, type: !330, flags: DIFlagPrototyped, spFlags: 0)
!330 = !DISubroutineType(types: !331)
!331 = !{!34, !34, !34}
!332 = !DIImportedEntity(tag: DW_TAG_imported_declaration, scope: !52, entity: !333, file: !240, line: 1087)
!333 = !DISubprogram(name: "copysignl", scope: !237, file: !237, line: 196, type: !334, flags: DIFlagPrototyped, spFlags: 0)
!334 = !DISubroutineType(types: !335)
!335 = !{!103, !103, !103}
!336 = !DIImportedEntity(tag: DW_TAG_imported_declaration, scope: !52, entity: !337, file: !240, line: 1089)
!337 = !DISubprogram(name: "erf", scope: !237, file: !237, line: 228, type: !238, flags: DIFlagPrototyped, spFlags: 0)
!338 = !DIImportedEntity(tag: DW_TAG_imported_declaration, scope: !52, entity: !339, file: !240, line: 1090)
!339 = !DISubprogram(name: "erff", scope: !237, file: !237, line: 228, type: !302, flags: DIFlagPrototyped, spFlags: 0)
!340 = !DIImportedEntity(tag: DW_TAG_imported_declaration, scope: !52, entity: !341, file: !240, line: 1091)
!341 = !DISubprogram(name: "erfl", scope: !237, file: !237, line: 228, type: !306, flags: DIFlagPrototyped, spFlags: 0)
!342 = !DIImportedEntity(tag: DW_TAG_imported_declaration, scope: !52, entity: !343, file: !240, line: 1093)
!343 = !DISubprogram(name: "erfc", scope: !237, file: !237, line: 229, type: !238, flags: DIFlagPrototyped, spFlags: 0)
!344 = !DIImportedEntity(tag: DW_TAG_imported_declaration, scope: !52, entity: !345, file: !240, line: 1094)
!345 = !DISubprogram(name: "erfcf", scope: !237, file: !237, line: 229, type: !302, flags: DIFlagPrototyped, spFlags: 0)
!346 = !DIImportedEntity(tag: DW_TAG_imported_declaration, scope: !52, entity: !347, file: !240, line: 1095)
!347 = !DISubprogram(name: "erfcl", scope: !237, file: !237, line: 229, type: !306, flags: DIFlagPrototyped, spFlags: 0)
!348 = !DIImportedEntity(tag: DW_TAG_imported_declaration, scope: !52, entity: !349, file: !240, line: 1097)
!349 = !DISubprogram(name: "exp2", scope: !237, file: !237, line: 130, type: !238, flags: DIFlagPrototyped, spFlags: 0)
!350 = !DIImportedEntity(tag: DW_TAG_imported_declaration, scope: !52, entity: !351, file: !240, line: 1098)
!351 = !DISubprogram(name: "exp2f", scope: !237, file: !237, line: 130, type: !302, flags: DIFlagPrototyped, spFlags: 0)
!352 = !DIImportedEntity(tag: DW_TAG_imported_declaration, scope: !52, entity: !353, file: !240, line: 1099)
!353 = !DISubprogram(name: "exp2l", scope: !237, file: !237, line: 130, type: !306, flags: DIFlagPrototyped, spFlags: 0)
!354 = !DIImportedEntity(tag: DW_TAG_imported_declaration, scope: !52, entity: !355, file: !240, line: 1101)
!355 = !DISubprogram(name: "expm1", scope: !237, file: !237, line: 119, type: !238, flags: DIFlagPrototyped, spFlags: 0)
!356 = !DIImportedEntity(tag: DW_TAG_imported_declaration, scope: !52, entity: !357, file: !240, line: 1102)
!357 = !DISubprogram(name: "expm1f", scope: !237, file: !237, line: 119, type: !302, flags: DIFlagPrototyped, spFlags: 0)
!358 = !DIImportedEntity(tag: DW_TAG_imported_declaration, scope: !52, entity: !359, file: !240, line: 1103)
!359 = !DISubprogram(name: "expm1l", scope: !237, file: !237, line: 119, type: !306, flags: DIFlagPrototyped, spFlags: 0)
!360 = !DIImportedEntity(tag: DW_TAG_imported_declaration, scope: !52, entity: !361, file: !240, line: 1105)
!361 = !DISubprogram(name: "fdim", scope: !237, file: !237, line: 326, type: !247, flags: DIFlagPrototyped, spFlags: 0)
!362 = !DIImportedEntity(tag: DW_TAG_imported_declaration, scope: !52, entity: !363, file: !240, line: 1106)
!363 = !DISubprogram(name: "fdimf", scope: !237, file: !237, line: 326, type: !330, flags: DIFlagPrototyped, spFlags: 0)
!364 = !DIImportedEntity(tag: DW_TAG_imported_declaration, scope: !52, entity: !365, file: !240, line: 1107)
!365 = !DISubprogram(name: "fdiml", scope: !237, file: !237, line: 326, type: !334, flags: DIFlagPrototyped, spFlags: 0)
!366 = !DIImportedEntity(tag: DW_TAG_imported_declaration, scope: !52, entity: !367, file: !240, line: 1109)
!367 = !DISubprogram(name: "fma", scope: !237, file: !237, line: 335, type: !368, flags: DIFlagPrototyped, spFlags: 0)
!368 = !DISubroutineType(types: !369)
!369 = !{!16, !16, !16, !16}
!370 = !DIImportedEntity(tag: DW_TAG_imported_declaration, scope: !52, entity: !371, file: !240, line: 1110)
!371 = !DISubprogram(name: "fmaf", scope: !237, file: !237, line: 335, type: !372, flags: DIFlagPrototyped, spFlags: 0)
!372 = !DISubroutineType(types: !373)
!373 = !{!34, !34, !34, !34}
!374 = !DIImportedEntity(tag: DW_TAG_imported_declaration, scope: !52, entity: !375, file: !240, line: 1111)
!375 = !DISubprogram(name: "fmal", scope: !237, file: !237, line: 335, type: !376, flags: DIFlagPrototyped, spFlags: 0)
!376 = !DISubroutineType(types: !377)
!377 = !{!103, !103, !103, !103}
!378 = !DIImportedEntity(tag: DW_TAG_imported_declaration, scope: !52, entity: !379, file: !240, line: 1113)
!379 = !DISubprogram(name: "fmax", scope: !237, file: !237, line: 329, type: !247, flags: DIFlagPrototyped, spFlags: 0)
!380 = !DIImportedEntity(tag: DW_TAG_imported_declaration, scope: !52, entity: !381, file: !240, line: 1114)
!381 = !DISubprogram(name: "fmaxf", scope: !237, file: !237, line: 329, type: !330, flags: DIFlagPrototyped, spFlags: 0)
!382 = !DIImportedEntity(tag: DW_TAG_imported_declaration, scope: !52, entity: !383, file: !240, line: 1115)
!383 = !DISubprogram(name: "fmaxl", scope: !237, file: !237, line: 329, type: !334, flags: DIFlagPrototyped, spFlags: 0)
!384 = !DIImportedEntity(tag: DW_TAG_imported_declaration, scope: !52, entity: !385, file: !240, line: 1117)
!385 = !DISubprogram(name: "fmin", scope: !237, file: !237, line: 332, type: !247, flags: DIFlagPrototyped, spFlags: 0)
!386 = !DIImportedEntity(tag: DW_TAG_imported_declaration, scope: !52, entity: !387, file: !240, line: 1118)
!387 = !DISubprogram(name: "fminf", scope: !237, file: !237, line: 332, type: !330, flags: DIFlagPrototyped, spFlags: 0)
!388 = !DIImportedEntity(tag: DW_TAG_imported_declaration, scope: !52, entity: !389, file: !240, line: 1119)
!389 = !DISubprogram(name: "fminl", scope: !237, file: !237, line: 332, type: !334, flags: DIFlagPrototyped, spFlags: 0)
!390 = !DIImportedEntity(tag: DW_TAG_imported_declaration, scope: !52, entity: !391, file: !240, line: 1121)
!391 = !DISubprogram(name: "hypot", scope: !237, file: !237, line: 147, type: !247, flags: DIFlagPrototyped, spFlags: 0)
!392 = !DIImportedEntity(tag: DW_TAG_imported_declaration, scope: !52, entity: !393, file: !240, line: 1122)
!393 = !DISubprogram(name: "hypotf", scope: !237, file: !237, line: 147, type: !330, flags: DIFlagPrototyped, spFlags: 0)
!394 = !DIImportedEntity(tag: DW_TAG_imported_declaration, scope: !52, entity: !395, file: !240, line: 1123)
!395 = !DISubprogram(name: "hypotl", scope: !237, file: !237, line: 147, type: !334, flags: DIFlagPrototyped, spFlags: 0)
!396 = !DIImportedEntity(tag: DW_TAG_imported_declaration, scope: !52, entity: !397, file: !240, line: 1125)
!397 = !DISubprogram(name: "ilogb", scope: !237, file: !237, line: 280, type: !398, flags: DIFlagPrototyped, spFlags: 0)
!398 = !DISubroutineType(types: !399)
!399 = !{!214, !16}
!400 = !DIImportedEntity(tag: DW_TAG_imported_declaration, scope: !52, entity: !401, file: !240, line: 1126)
!401 = !DISubprogram(name: "ilogbf", scope: !237, file: !237, line: 280, type: !402, flags: DIFlagPrototyped, spFlags: 0)
!402 = !DISubroutineType(types: !403)
!403 = !{!214, !34}
!404 = !DIImportedEntity(tag: DW_TAG_imported_declaration, scope: !52, entity: !405, file: !240, line: 1127)
!405 = !DISubprogram(name: "ilogbl", scope: !237, file: !237, line: 280, type: !406, flags: DIFlagPrototyped, spFlags: 0)
!406 = !DISubroutineType(types: !407)
!407 = !{!214, !103}
!408 = !DIImportedEntity(tag: DW_TAG_imported_declaration, scope: !52, entity: !409, file: !240, line: 1129)
!409 = !DISubprogram(name: "lgamma", scope: !237, file: !237, line: 230, type: !238, flags: DIFlagPrototyped, spFlags: 0)
!410 = !DIImportedEntity(tag: DW_TAG_imported_declaration, scope: !52, entity: !411, file: !240, line: 1130)
!411 = !DISubprogram(name: "lgammaf", scope: !237, file: !237, line: 230, type: !302, flags: DIFlagPrototyped, spFlags: 0)
!412 = !DIImportedEntity(tag: DW_TAG_imported_declaration, scope: !52, entity: !413, file: !240, line: 1131)
!413 = !DISubprogram(name: "lgammal", scope: !237, file: !237, line: 230, type: !306, flags: DIFlagPrototyped, spFlags: 0)
!414 = !DIImportedEntity(tag: DW_TAG_imported_declaration, scope: !52, entity: !415, file: !240, line: 1134)
!415 = !DISubprogram(name: "llrint", scope: !237, file: !237, line: 316, type: !416, flags: DIFlagPrototyped, spFlags: 0)
!416 = !DISubroutineType(types: !417)
!417 = !{!418, !16}
!418 = !DIBasicType(name: "long long int", size: 64, encoding: DW_ATE_signed)
!419 = !DIImportedEntity(tag: DW_TAG_imported_declaration, scope: !52, entity: !420, file: !240, line: 1135)
!420 = !DISubprogram(name: "llrintf", scope: !237, file: !237, line: 316, type: !421, flags: DIFlagPrototyped, spFlags: 0)
!421 = !DISubroutineType(types: !422)
!422 = !{!418, !34}
!423 = !DIImportedEntity(tag: DW_TAG_imported_declaration, scope: !52, entity: !424, file: !240, line: 1136)
!424 = !DISubprogram(name: "llrintl", scope: !237, file: !237, line: 316, type: !425, flags: DIFlagPrototyped, spFlags: 0)
!425 = !DISubroutineType(types: !426)
!426 = !{!418, !103}
!427 = !DIImportedEntity(tag: DW_TAG_imported_declaration, scope: !52, entity: !428, file: !240, line: 1138)
!428 = !DISubprogram(name: "llround", scope: !237, file: !237, line: 322, type: !416, flags: DIFlagPrototyped, spFlags: 0)
!429 = !DIImportedEntity(tag: DW_TAG_imported_declaration, scope: !52, entity: !430, file: !240, line: 1139)
!430 = !DISubprogram(name: "llroundf", scope: !237, file: !237, line: 322, type: !421, flags: DIFlagPrototyped, spFlags: 0)
!431 = !DIImportedEntity(tag: DW_TAG_imported_declaration, scope: !52, entity: !432, file: !240, line: 1140)
!432 = !DISubprogram(name: "llroundl", scope: !237, file: !237, line: 322, type: !425, flags: DIFlagPrototyped, spFlags: 0)
!433 = !DIImportedEntity(tag: DW_TAG_imported_declaration, scope: !52, entity: !434, file: !240, line: 1143)
!434 = !DISubprogram(name: "log1p", scope: !237, file: !237, line: 122, type: !238, flags: DIFlagPrototyped, spFlags: 0)
!435 = !DIImportedEntity(tag: DW_TAG_imported_declaration, scope: !52, entity: !436, file: !240, line: 1144)
!436 = !DISubprogram(name: "log1pf", scope: !237, file: !237, line: 122, type: !302, flags: DIFlagPrototyped, spFlags: 0)
!437 = !DIImportedEntity(tag: DW_TAG_imported_declaration, scope: !52, entity: !438, file: !240, line: 1145)
!438 = !DISubprogram(name: "log1pl", scope: !237, file: !237, line: 122, type: !306, flags: DIFlagPrototyped, spFlags: 0)
!439 = !DIImportedEntity(tag: DW_TAG_imported_declaration, scope: !52, entity: !440, file: !240, line: 1147)
!440 = !DISubprogram(name: "log2", scope: !237, file: !237, line: 133, type: !238, flags: DIFlagPrototyped, spFlags: 0)
!441 = !DIImportedEntity(tag: DW_TAG_imported_declaration, scope: !52, entity: !442, file: !240, line: 1148)
!442 = !DISubprogram(name: "log2f", scope: !237, file: !237, line: 133, type: !302, flags: DIFlagPrototyped, spFlags: 0)
!443 = !DIImportedEntity(tag: DW_TAG_imported_declaration, scope: !52, entity: !444, file: !240, line: 1149)
!444 = !DISubprogram(name: "log2l", scope: !237, file: !237, line: 133, type: !306, flags: DIFlagPrototyped, spFlags: 0)
!445 = !DIImportedEntity(tag: DW_TAG_imported_declaration, scope: !52, entity: !446, file: !240, line: 1151)
!446 = !DISubprogram(name: "logb", scope: !237, file: !237, line: 125, type: !238, flags: DIFlagPrototyped, spFlags: 0)
!447 = !DIImportedEntity(tag: DW_TAG_imported_declaration, scope: !52, entity: !448, file: !240, line: 1152)
!448 = !DISubprogram(name: "logbf", scope: !237, file: !237, line: 125, type: !302, flags: DIFlagPrototyped, spFlags: 0)
!449 = !DIImportedEntity(tag: DW_TAG_imported_declaration, scope: !52, entity: !450, file: !240, line: 1153)
!450 = !DISubprogram(name: "logbl", scope: !237, file: !237, line: 125, type: !306, flags: DIFlagPrototyped, spFlags: 0)
!451 = !DIImportedEntity(tag: DW_TAG_imported_declaration, scope: !52, entity: !452, file: !240, line: 1155)
!452 = !DISubprogram(name: "lrint", scope: !237, file: !237, line: 314, type: !453, flags: DIFlagPrototyped, spFlags: 0)
!453 = !DISubroutineType(types: !454)
!454 = !{!455, !16}
!455 = !DIBasicType(name: "long int", size: 64, encoding: DW_ATE_signed)
!456 = !DIImportedEntity(tag: DW_TAG_imported_declaration, scope: !52, entity: !457, file: !240, line: 1156)
!457 = !DISubprogram(name: "lrintf", scope: !237, file: !237, line: 314, type: !458, flags: DIFlagPrototyped, spFlags: 0)
!458 = !DISubroutineType(types: !459)
!459 = !{!455, !34}
!460 = !DIImportedEntity(tag: DW_TAG_imported_declaration, scope: !52, entity: !461, file: !240, line: 1157)
!461 = !DISubprogram(name: "lrintl", scope: !237, file: !237, line: 314, type: !462, flags: DIFlagPrototyped, spFlags: 0)
!462 = !DISubroutineType(types: !463)
!463 = !{!455, !103}
!464 = !DIImportedEntity(tag: DW_TAG_imported_declaration, scope: !52, entity: !465, file: !240, line: 1159)
!465 = !DISubprogram(name: "lround", scope: !237, file: !237, line: 320, type: !453, flags: DIFlagPrototyped, spFlags: 0)
!466 = !DIImportedEntity(tag: DW_TAG_imported_declaration, scope: !52, entity: !467, file: !240, line: 1160)
!467 = !DISubprogram(name: "lroundf", scope: !237, file: !237, line: 320, type: !458, flags: DIFlagPrototyped, spFlags: 0)
!468 = !DIImportedEntity(tag: DW_TAG_imported_declaration, scope: !52, entity: !469, file: !240, line: 1161)
!469 = !DISubprogram(name: "lroundl", scope: !237, file: !237, line: 320, type: !462, flags: DIFlagPrototyped, spFlags: 0)
!470 = !DIImportedEntity(tag: DW_TAG_imported_declaration, scope: !52, entity: !471, file: !240, line: 1163)
!471 = !DISubprogram(name: "nan", scope: !237, file: !237, line: 201, type: !472, flags: DIFlagPrototyped, spFlags: 0)
!472 = !DISubroutineType(types: !473)
!473 = !{!16, !474}
!474 = !DIDerivedType(tag: DW_TAG_pointer_type, baseType: !475, size: 64)
!475 = !DIDerivedType(tag: DW_TAG_const_type, baseType: !476)
!476 = !DIBasicType(name: "char", size: 8, encoding: DW_ATE_signed_char)
!477 = !DIImportedEntity(tag: DW_TAG_imported_declaration, scope: !52, entity: !478, file: !240, line: 1164)
!478 = !DISubprogram(name: "nanf", scope: !237, file: !237, line: 201, type: !479, flags: DIFlagPrototyped, spFlags: 0)
!479 = !DISubroutineType(types: !480)
!480 = !{!34, !474}
!481 = !DIImportedEntity(tag: DW_TAG_imported_declaration, scope: !52, entity: !482, file: !240, line: 1165)
!482 = !DISubprogram(name: "nanl", scope: !237, file: !237, line: 201, type: !483, flags: DIFlagPrototyped, spFlags: 0)
!483 = !DISubroutineType(types: !484)
!484 = !{!103, !474}
!485 = !DIImportedEntity(tag: DW_TAG_imported_declaration, scope: !52, entity: !486, file: !240, line: 1167)
!486 = !DISubprogram(name: "nearbyint", scope: !237, file: !237, line: 294, type: !238, flags: DIFlagPrototyped, spFlags: 0)
!487 = !DIImportedEntity(tag: DW_TAG_imported_declaration, scope: !52, entity: !488, file: !240, line: 1168)
!488 = !DISubprogram(name: "nearbyintf", scope: !237, file: !237, line: 294, type: !302, flags: DIFlagPrototyped, spFlags: 0)
!489 = !DIImportedEntity(tag: DW_TAG_imported_declaration, scope: !52, entity: !490, file: !240, line: 1169)
!490 = !DISubprogram(name: "nearbyintl", scope: !237, file: !237, line: 294, type: !306, flags: DIFlagPrototyped, spFlags: 0)
!491 = !DIImportedEntity(tag: DW_TAG_imported_declaration, scope: !52, entity: !492, file: !240, line: 1171)
!492 = !DISubprogram(name: "nextafter", scope: !237, file: !237, line: 259, type: !247, flags: DIFlagPrototyped, spFlags: 0)
!493 = !DIImportedEntity(tag: DW_TAG_imported_declaration, scope: !52, entity: !494, file: !240, line: 1172)
!494 = !DISubprogram(name: "nextafterf", scope: !237, file: !237, line: 259, type: !330, flags: DIFlagPrototyped, spFlags: 0)
!495 = !DIImportedEntity(tag: DW_TAG_imported_declaration, scope: !52, entity: !496, file: !240, line: 1173)
!496 = !DISubprogram(name: "nextafterl", scope: !237, file: !237, line: 259, type: !334, flags: DIFlagPrototyped, spFlags: 0)
!497 = !DIImportedEntity(tag: DW_TAG_imported_declaration, scope: !52, entity: !498, file: !240, line: 1175)
!498 = !DISubprogram(name: "nexttoward", scope: !237, file: !237, line: 261, type: !499, flags: DIFlagPrototyped, spFlags: 0)
!499 = !DISubroutineType(types: !500)
!500 = !{!16, !16, !103}
!501 = !DIImportedEntity(tag: DW_TAG_imported_declaration, scope: !52, entity: !502, file: !240, line: 1176)
!502 = !DISubprogram(name: "nexttowardf", scope: !237, file: !237, line: 261, type: !503, flags: DIFlagPrototyped, spFlags: 0)
!503 = !DISubroutineType(types: !504)
!504 = !{!34, !34, !103}
!505 = !DIImportedEntity(tag: DW_TAG_imported_declaration, scope: !52, entity: !506, file: !240, line: 1177)
!506 = !DISubprogram(name: "nexttowardl", scope: !237, file: !237, line: 261, type: !334, flags: DIFlagPrototyped, spFlags: 0)
!507 = !DIImportedEntity(tag: DW_TAG_imported_declaration, scope: !52, entity: !508, file: !240, line: 1179)
!508 = !DISubprogram(name: "remainder", scope: !237, file: !237, line: 272, type: !247, flags: DIFlagPrototyped, spFlags: 0)
!509 = !DIImportedEntity(tag: DW_TAG_imported_declaration, scope: !52, entity: !510, file: !240, line: 1180)
!510 = !DISubprogram(name: "remainderf", scope: !237, file: !237, line: 272, type: !330, flags: DIFlagPrototyped, spFlags: 0)
!511 = !DIImportedEntity(tag: DW_TAG_imported_declaration, scope: !52, entity: !512, file: !240, line: 1181)
!512 = !DISubprogram(name: "remainderl", scope: !237, file: !237, line: 272, type: !334, flags: DIFlagPrototyped, spFlags: 0)
!513 = !DIImportedEntity(tag: DW_TAG_imported_declaration, scope: !52, entity: !514, file: !240, line: 1183)
!514 = !DISubprogram(name: "remquo", scope: !237, file: !237, line: 307, type: !515, flags: DIFlagPrototyped, spFlags: 0)
!515 = !DISubroutineType(types: !516)
!516 = !{!16, !16, !16, !267}
!517 = !DIImportedEntity(tag: DW_TAG_imported_declaration, scope: !52, entity: !518, file: !240, line: 1184)
!518 = !DISubprogram(name: "remquof", scope: !237, file: !237, line: 307, type: !519, flags: DIFlagPrototyped, spFlags: 0)
!519 = !DISubroutineType(types: !520)
!520 = !{!34, !34, !34, !267}
!521 = !DIImportedEntity(tag: DW_TAG_imported_declaration, scope: !52, entity: !522, file: !240, line: 1185)
!522 = !DISubprogram(name: "remquol", scope: !237, file: !237, line: 307, type: !523, flags: DIFlagPrototyped, spFlags: 0)
!523 = !DISubroutineType(types: !524)
!524 = !{!103, !103, !103, !267}
!525 = !DIImportedEntity(tag: DW_TAG_imported_declaration, scope: !52, entity: !526, file: !240, line: 1187)
!526 = !DISubprogram(name: "rint", scope: !237, file: !237, line: 256, type: !238, flags: DIFlagPrototyped, spFlags: 0)
!527 = !DIImportedEntity(tag: DW_TAG_imported_declaration, scope: !52, entity: !528, file: !240, line: 1188)
!528 = !DISubprogram(name: "rintf", scope: !237, file: !237, line: 256, type: !302, flags: DIFlagPrototyped, spFlags: 0)
!529 = !DIImportedEntity(tag: DW_TAG_imported_declaration, scope: !52, entity: !530, file: !240, line: 1189)
!530 = !DISubprogram(name: "rintl", scope: !237, file: !237, line: 256, type: !306, flags: DIFlagPrototyped, spFlags: 0)
!531 = !DIImportedEntity(tag: DW_TAG_imported_declaration, scope: !52, entity: !532, file: !240, line: 1191)
!532 = !DISubprogram(name: "round", scope: !237, file: !237, line: 298, type: !238, flags: DIFlagPrototyped, spFlags: 0)
!533 = !DIImportedEntity(tag: DW_TAG_imported_declaration, scope: !52, entity: !534, file: !240, line: 1192)
!534 = !DISubprogram(name: "roundf", scope: !237, file: !237, line: 298, type: !302, flags: DIFlagPrototyped, spFlags: 0)
!535 = !DIImportedEntity(tag: DW_TAG_imported_declaration, scope: !52, entity: !536, file: !240, line: 1193)
!536 = !DISubprogram(name: "roundl", scope: !237, file: !237, line: 298, type: !306, flags: DIFlagPrototyped, spFlags: 0)
!537 = !DIImportedEntity(tag: DW_TAG_imported_declaration, scope: !52, entity: !538, file: !240, line: 1195)
!538 = !DISubprogram(name: "scalbln", scope: !237, file: !237, line: 290, type: !539, flags: DIFlagPrototyped, spFlags: 0)
!539 = !DISubroutineType(types: !540)
!540 = !{!16, !16, !455}
!541 = !DIImportedEntity(tag: DW_TAG_imported_declaration, scope: !52, entity: !542, file: !240, line: 1196)
!542 = !DISubprogram(name: "scalblnf", scope: !237, file: !237, line: 290, type: !543, flags: DIFlagPrototyped, spFlags: 0)
!543 = !DISubroutineType(types: !544)
!544 = !{!34, !34, !455}
!545 = !DIImportedEntity(tag: DW_TAG_imported_declaration, scope: !52, entity: !546, file: !240, line: 1197)
!546 = !DISubprogram(name: "scalblnl", scope: !237, file: !237, line: 290, type: !547, flags: DIFlagPrototyped, spFlags: 0)
!547 = !DISubroutineType(types: !548)
!548 = !{!103, !103, !455}
!549 = !DIImportedEntity(tag: DW_TAG_imported_declaration, scope: !52, entity: !550, file: !240, line: 1199)
!550 = !DISubprogram(name: "scalbn", scope: !237, file: !237, line: 276, type: !270, flags: DIFlagPrototyped, spFlags: 0)
!551 = !DIImportedEntity(tag: DW_TAG_imported_declaration, scope: !52, entity: !552, file: !240, line: 1200)
!552 = !DISubprogram(name: "scalbnf", scope: !237, file: !237, line: 276, type: !553, flags: DIFlagPrototyped, spFlags: 0)
!553 = !DISubroutineType(types: !554)
!554 = !{!34, !34, !214}
!555 = !DIImportedEntity(tag: DW_TAG_imported_declaration, scope: !52, entity: !556, file: !240, line: 1201)
!556 = !DISubprogram(name: "scalbnl", scope: !237, file: !237, line: 276, type: !557, flags: DIFlagPrototyped, spFlags: 0)
!557 = !DISubroutineType(types: !558)
!558 = !{!103, !103, !214}
!559 = !DIImportedEntity(tag: DW_TAG_imported_declaration, scope: !52, entity: !560, file: !240, line: 1203)
!560 = !DISubprogram(name: "tgamma", scope: !237, file: !237, line: 235, type: !238, flags: DIFlagPrototyped, spFlags: 0)
!561 = !DIImportedEntity(tag: DW_TAG_imported_declaration, scope: !52, entity: !562, file: !240, line: 1204)
!562 = !DISubprogram(name: "tgammaf", scope: !237, file: !237, line: 235, type: !302, flags: DIFlagPrototyped, spFlags: 0)
!563 = !DIImportedEntity(tag: DW_TAG_imported_declaration, scope: !52, entity: !564, file: !240, line: 1205)
!564 = !DISubprogram(name: "tgammal", scope: !237, file: !237, line: 235, type: !306, flags: DIFlagPrototyped, spFlags: 0)
!565 = !DIImportedEntity(tag: DW_TAG_imported_declaration, scope: !52, entity: !566, file: !240, line: 1207)
!566 = !DISubprogram(name: "trunc", scope: !237, file: !237, line: 302, type: !238, flags: DIFlagPrototyped, spFlags: 0)
!567 = !DIImportedEntity(tag: DW_TAG_imported_declaration, scope: !52, entity: !568, file: !240, line: 1208)
!568 = !DISubprogram(name: "truncf", scope: !237, file: !237, line: 302, type: !302, flags: DIFlagPrototyped, spFlags: 0)
!569 = !DIImportedEntity(tag: DW_TAG_imported_declaration, scope: !52, entity: !570, file: !240, line: 1209)
!570 = !DISubprogram(name: "truncl", scope: !237, file: !237, line: 302, type: !306, flags: DIFlagPrototyped, spFlags: 0)
!571 = !DIImportedEntity(tag: DW_TAG_imported_declaration, scope: !52, entity: !572, file: !588, line: 64)
!572 = !DIDerivedType(tag: DW_TAG_typedef, name: "mbstate_t", file: !573, line: 6, baseType: !574)
!573 = !DIFile(filename: "/usr/include/x86_64-linux-gnu/bits/types/mbstate_t.h", directory: "")
!574 = !DIDerivedType(tag: DW_TAG_typedef, name: "__mbstate_t", file: !575, line: 21, baseType: !576)
!575 = !DIFile(filename: "/usr/include/x86_64-linux-gnu/bits/types/__mbstate_t.h", directory: "")
!576 = distinct !DICompositeType(tag: DW_TAG_structure_type, file: !575, line: 13, size: 64, flags: DIFlagTypePassByValue, elements: !577, identifier: "_ZTS11__mbstate_t")
!577 = !{!578, !579}
!578 = !DIDerivedType(tag: DW_TAG_member, name: "__count", scope: !576, file: !575, line: 15, baseType: !214, size: 32)
!579 = !DIDerivedType(tag: DW_TAG_member, name: "__value", scope: !576, file: !575, line: 20, baseType: !580, size: 32, offset: 32)
!580 = distinct !DICompositeType(tag: DW_TAG_union_type, scope: !576, file: !575, line: 16, size: 32, flags: DIFlagTypePassByValue, elements: !581, identifier: "_ZTSN11__mbstate_tUt_E")
!581 = !{!582, !584}
!582 = !DIDerivedType(tag: DW_TAG_member, name: "__wch", scope: !580, file: !575, line: 18, baseType: !583, size: 32)
!583 = !DIBasicType(name: "unsigned int", size: 32, encoding: DW_ATE_unsigned)
!584 = !DIDerivedType(tag: DW_TAG_member, name: "__wchb", scope: !580, file: !575, line: 19, baseType: !585, size: 32)
!585 = !DICompositeType(tag: DW_TAG_array_type, baseType: !476, size: 32, elements: !586)
!586 = !{!587}
!587 = !DISubrange(count: 4)
!588 = !DIFile(filename: "/usr/lib/gcc/x86_64-linux-gnu/10/../../../../include/c++/10/cwchar", directory: "")
!589 = !DIImportedEntity(tag: DW_TAG_imported_declaration, scope: !52, entity: !590, file: !588, line: 141)
!590 = !DIDerivedType(tag: DW_TAG_typedef, name: "wint_t", file: !591, line: 20, baseType: !583)
!591 = !DIFile(filename: "/usr/include/x86_64-linux-gnu/bits/types/wint_t.h", directory: "")
!592 = !DIImportedEntity(tag: DW_TAG_imported_declaration, scope: !52, entity: !593, file: !588, line: 143)
!593 = !DISubprogram(name: "btowc", scope: !594, file: !594, line: 284, type: !595, flags: DIFlagPrototyped, spFlags: 0)
!594 = !DIFile(filename: "/usr/include/wchar.h", directory: "")
!595 = !DISubroutineType(types: !596)
!596 = !{!590, !214}
!597 = !DIImportedEntity(tag: DW_TAG_imported_declaration, scope: !52, entity: !598, file: !588, line: 144)
!598 = !DISubprogram(name: "fgetwc", scope: !594, file: !594, line: 726, type: !599, flags: DIFlagPrototyped, spFlags: 0)
!599 = !DISubroutineType(types: !600)
!600 = !{!590, !601}
!601 = !DIDerivedType(tag: DW_TAG_pointer_type, baseType: !602, size: 64)
!602 = !DIDerivedType(tag: DW_TAG_typedef, name: "__FILE", file: !603, line: 5, baseType: !604)
!603 = !DIFile(filename: "/usr/include/x86_64-linux-gnu/bits/types/__FILE.h", directory: "")
!604 = !DICompositeType(tag: DW_TAG_structure_type, name: "_IO_FILE", file: !603, line: 4, flags: DIFlagFwdDecl, identifier: "_ZTS8_IO_FILE")
!605 = !DIImportedEntity(tag: DW_TAG_imported_declaration, scope: !52, entity: !606, file: !588, line: 145)
!606 = !DISubprogram(name: "fgetws", scope: !594, file: !594, line: 755, type: !607, flags: DIFlagPrototyped, spFlags: 0)
!607 = !DISubroutineType(types: !608)
!608 = !{!609, !611, !214, !612}
!609 = !DIDerivedType(tag: DW_TAG_pointer_type, baseType: !610, size: 64)
!610 = !DIBasicType(name: "wchar_t", size: 32, encoding: DW_ATE_signed)
!611 = !DIDerivedType(tag: DW_TAG_restrict_type, baseType: !609)
!612 = !DIDerivedType(tag: DW_TAG_restrict_type, baseType: !601)
!613 = !DIImportedEntity(tag: DW_TAG_imported_declaration, scope: !52, entity: !614, file: !588, line: 146)
!614 = !DISubprogram(name: "fputwc", scope: !594, file: !594, line: 740, type: !615, flags: DIFlagPrototyped, spFlags: 0)
!615 = !DISubroutineType(types: !616)
!616 = !{!590, !610, !601}
!617 = !DIImportedEntity(tag: DW_TAG_imported_declaration, scope: !52, entity: !618, file: !588, line: 147)
!618 = !DISubprogram(name: "fputws", scope: !594, file: !594, line: 762, type: !619, flags: DIFlagPrototyped, spFlags: 0)
!619 = !DISubroutineType(types: !620)
!620 = !{!214, !621, !612}
!621 = !DIDerivedType(tag: DW_TAG_restrict_type, baseType: !622)
!622 = !DIDerivedType(tag: DW_TAG_pointer_type, baseType: !623, size: 64)
!623 = !DIDerivedType(tag: DW_TAG_const_type, baseType: !610)
!624 = !DIImportedEntity(tag: DW_TAG_imported_declaration, scope: !52, entity: !625, file: !588, line: 148)
!625 = !DISubprogram(name: "fwide", scope: !594, file: !594, line: 573, type: !626, flags: DIFlagPrototyped, spFlags: 0)
!626 = !DISubroutineType(types: !627)
!627 = !{!214, !601, !214}
!628 = !DIImportedEntity(tag: DW_TAG_imported_declaration, scope: !52, entity: !629, file: !588, line: 149)
!629 = !DISubprogram(name: "fwprintf", scope: !594, file: !594, line: 580, type: !630, flags: DIFlagPrototyped, spFlags: 0)
!630 = !DISubroutineType(types: !631)
!631 = !{!214, !612, !621, null}
!632 = !DIImportedEntity(tag: DW_TAG_imported_declaration, scope: !52, entity: !633, file: !588, line: 150)
!633 = !DISubprogram(name: "fwscanf", linkageName: "__isoc99_fwscanf", scope: !594, file: !594, line: 640, type: !630, flags: DIFlagPrototyped, spFlags: 0)
!634 = !DIImportedEntity(tag: DW_TAG_imported_declaration, scope: !52, entity: !635, file: !588, line: 151)
!635 = !DISubprogram(name: "getwc", scope: !594, file: !594, line: 727, type: !599, flags: DIFlagPrototyped, spFlags: 0)
!636 = !DIImportedEntity(tag: DW_TAG_imported_declaration, scope: !52, entity: !637, file: !588, line: 152)
!637 = !DISubprogram(name: "getwchar", scope: !594, file: !594, line: 733, type: !638, flags: DIFlagPrototyped, spFlags: 0)
!638 = !DISubroutineType(types: !639)
!639 = !{!590}
!640 = !DIImportedEntity(tag: DW_TAG_imported_declaration, scope: !52, entity: !641, file: !588, line: 153)
!641 = !DISubprogram(name: "mbrlen", scope: !594, file: !594, line: 307, type: !642, flags: DIFlagPrototyped, spFlags: 0)
!642 = !DISubroutineType(types: !643)
!643 = !{!644, !647, !644, !648}
!644 = !DIDerivedType(tag: DW_TAG_typedef, name: "size_t", file: !645, line: 46, baseType: !646)
!645 = !DIFile(filename: "Rohit/IR2Vec-LoopOptimizationFramework/build_REL_AsrtON/lib/clang/10.0.1/include/stddef.h", directory: "/home/venkat/IF-DV")
!646 = !DIBasicType(name: "long unsigned int", size: 64, encoding: DW_ATE_unsigned)
!647 = !DIDerivedType(tag: DW_TAG_restrict_type, baseType: !474)
!648 = !DIDerivedType(tag: DW_TAG_restrict_type, baseType: !649)
!649 = !DIDerivedType(tag: DW_TAG_pointer_type, baseType: !572, size: 64)
!650 = !DIImportedEntity(tag: DW_TAG_imported_declaration, scope: !52, entity: !651, file: !588, line: 154)
!651 = !DISubprogram(name: "mbrtowc", scope: !594, file: !594, line: 296, type: !652, flags: DIFlagPrototyped, spFlags: 0)
!652 = !DISubroutineType(types: !653)
!653 = !{!644, !611, !647, !644, !648}
!654 = !DIImportedEntity(tag: DW_TAG_imported_declaration, scope: !52, entity: !655, file: !588, line: 155)
!655 = !DISubprogram(name: "mbsinit", scope: !594, file: !594, line: 292, type: !656, flags: DIFlagPrototyped, spFlags: 0)
!656 = !DISubroutineType(types: !657)
!657 = !{!214, !658}
!658 = !DIDerivedType(tag: DW_TAG_pointer_type, baseType: !659, size: 64)
!659 = !DIDerivedType(tag: DW_TAG_const_type, baseType: !572)
!660 = !DIImportedEntity(tag: DW_TAG_imported_declaration, scope: !52, entity: !661, file: !588, line: 156)
!661 = !DISubprogram(name: "mbsrtowcs", scope: !594, file: !594, line: 337, type: !662, flags: DIFlagPrototyped, spFlags: 0)
!662 = !DISubroutineType(types: !663)
!663 = !{!644, !611, !664, !644, !648}
!664 = !DIDerivedType(tag: DW_TAG_restrict_type, baseType: !665)
!665 = !DIDerivedType(tag: DW_TAG_pointer_type, baseType: !474, size: 64)
!666 = !DIImportedEntity(tag: DW_TAG_imported_declaration, scope: !52, entity: !667, file: !588, line: 157)
!667 = !DISubprogram(name: "putwc", scope: !594, file: !594, line: 741, type: !615, flags: DIFlagPrototyped, spFlags: 0)
!668 = !DIImportedEntity(tag: DW_TAG_imported_declaration, scope: !52, entity: !669, file: !588, line: 158)
!669 = !DISubprogram(name: "putwchar", scope: !594, file: !594, line: 747, type: !670, flags: DIFlagPrototyped, spFlags: 0)
!670 = !DISubroutineType(types: !671)
!671 = !{!590, !610}
!672 = !DIImportedEntity(tag: DW_TAG_imported_declaration, scope: !52, entity: !673, file: !588, line: 160)
!673 = !DISubprogram(name: "swprintf", scope: !594, file: !594, line: 590, type: !674, flags: DIFlagPrototyped, spFlags: 0)
!674 = !DISubroutineType(types: !675)
!675 = !{!214, !611, !644, !621, null}
!676 = !DIImportedEntity(tag: DW_TAG_imported_declaration, scope: !52, entity: !677, file: !588, line: 162)
!677 = !DISubprogram(name: "swscanf", linkageName: "__isoc99_swscanf", scope: !594, file: !594, line: 647, type: !678, flags: DIFlagPrototyped, spFlags: 0)
!678 = !DISubroutineType(types: !679)
!679 = !{!214, !621, !621, null}
!680 = !DIImportedEntity(tag: DW_TAG_imported_declaration, scope: !52, entity: !681, file: !588, line: 163)
!681 = !DISubprogram(name: "ungetwc", scope: !594, file: !594, line: 770, type: !682, flags: DIFlagPrototyped, spFlags: 0)
!682 = !DISubroutineType(types: !683)
!683 = !{!590, !590, !601}
!684 = !DIImportedEntity(tag: DW_TAG_imported_declaration, scope: !52, entity: !685, file: !588, line: 164)
!685 = !DISubprogram(name: "vfwprintf", scope: !594, file: !594, line: 598, type: !686, flags: DIFlagPrototyped, spFlags: 0)
!686 = !DISubroutineType(types: !687)
!687 = !{!214, !612, !621, !688}
!688 = !DIDerivedType(tag: DW_TAG_pointer_type, baseType: !689, size: 64)
!689 = distinct !DICompositeType(tag: DW_TAG_structure_type, name: "__va_list_tag", file: !4, size: 192, flags: DIFlagTypePassByValue, elements: !690, identifier: "_ZTS13__va_list_tag")
!690 = !{!691, !692, !693, !695}
!691 = !DIDerivedType(tag: DW_TAG_member, name: "gp_offset", scope: !689, file: !4, baseType: !583, size: 32)
!692 = !DIDerivedType(tag: DW_TAG_member, name: "fp_offset", scope: !689, file: !4, baseType: !583, size: 32, offset: 32)
!693 = !DIDerivedType(tag: DW_TAG_member, name: "overflow_arg_area", scope: !689, file: !4, baseType: !694, size: 64, offset: 64)
!694 = !DIDerivedType(tag: DW_TAG_pointer_type, baseType: null, size: 64)
!695 = !DIDerivedType(tag: DW_TAG_member, name: "reg_save_area", scope: !689, file: !4, baseType: !694, size: 64, offset: 128)
!696 = !DIImportedEntity(tag: DW_TAG_imported_declaration, scope: !52, entity: !697, file: !588, line: 166)
!697 = !DISubprogram(name: "vfwscanf", linkageName: "__isoc99_vfwscanf", scope: !594, file: !594, line: 693, type: !686, flags: DIFlagPrototyped, spFlags: 0)
!698 = !DIImportedEntity(tag: DW_TAG_imported_declaration, scope: !52, entity: !699, file: !588, line: 169)
!699 = !DISubprogram(name: "vswprintf", scope: !594, file: !594, line: 611, type: !700, flags: DIFlagPrototyped, spFlags: 0)
!700 = !DISubroutineType(types: !701)
!701 = !{!214, !611, !644, !621, !688}
!702 = !DIImportedEntity(tag: DW_TAG_imported_declaration, scope: !52, entity: !703, file: !588, line: 172)
!703 = !DISubprogram(name: "vswscanf", linkageName: "__isoc99_vswscanf", scope: !594, file: !594, line: 700, type: !704, flags: DIFlagPrototyped, spFlags: 0)
!704 = !DISubroutineType(types: !705)
!705 = !{!214, !621, !621, !688}
!706 = !DIImportedEntity(tag: DW_TAG_imported_declaration, scope: !52, entity: !707, file: !588, line: 174)
!707 = !DISubprogram(name: "vwprintf", scope: !594, file: !594, line: 606, type: !708, flags: DIFlagPrototyped, spFlags: 0)
!708 = !DISubroutineType(types: !709)
!709 = !{!214, !621, !688}
!710 = !DIImportedEntity(tag: DW_TAG_imported_declaration, scope: !52, entity: !711, file: !588, line: 176)
!711 = !DISubprogram(name: "vwscanf", linkageName: "__isoc99_vwscanf", scope: !594, file: !594, line: 697, type: !708, flags: DIFlagPrototyped, spFlags: 0)
!712 = !DIImportedEntity(tag: DW_TAG_imported_declaration, scope: !52, entity: !713, file: !588, line: 178)
!713 = !DISubprogram(name: "wcrtomb", scope: !594, file: !594, line: 301, type: !714, flags: DIFlagPrototyped, spFlags: 0)
!714 = !DISubroutineType(types: !715)
!715 = !{!644, !716, !610, !648}
!716 = !DIDerivedType(tag: DW_TAG_restrict_type, baseType: !717)
!717 = !DIDerivedType(tag: DW_TAG_pointer_type, baseType: !476, size: 64)
!718 = !DIImportedEntity(tag: DW_TAG_imported_declaration, scope: !52, entity: !719, file: !588, line: 179)
!719 = !DISubprogram(name: "wcscat", scope: !594, file: !594, line: 97, type: !720, flags: DIFlagPrototyped, spFlags: 0)
!720 = !DISubroutineType(types: !721)
!721 = !{!609, !611, !621}
!722 = !DIImportedEntity(tag: DW_TAG_imported_declaration, scope: !52, entity: !723, file: !588, line: 180)
!723 = !DISubprogram(name: "wcscmp", scope: !594, file: !594, line: 106, type: !724, flags: DIFlagPrototyped, spFlags: 0)
!724 = !DISubroutineType(types: !725)
!725 = !{!214, !622, !622}
!726 = !DIImportedEntity(tag: DW_TAG_imported_declaration, scope: !52, entity: !727, file: !588, line: 181)
!727 = !DISubprogram(name: "wcscoll", scope: !594, file: !594, line: 131, type: !724, flags: DIFlagPrototyped, spFlags: 0)
!728 = !DIImportedEntity(tag: DW_TAG_imported_declaration, scope: !52, entity: !729, file: !588, line: 182)
!729 = !DISubprogram(name: "wcscpy", scope: !594, file: !594, line: 87, type: !720, flags: DIFlagPrototyped, spFlags: 0)
!730 = !DIImportedEntity(tag: DW_TAG_imported_declaration, scope: !52, entity: !731, file: !588, line: 183)
!731 = !DISubprogram(name: "wcscspn", scope: !594, file: !594, line: 187, type: !732, flags: DIFlagPrototyped, spFlags: 0)
!732 = !DISubroutineType(types: !733)
!733 = !{!644, !622, !622}
!734 = !DIImportedEntity(tag: DW_TAG_imported_declaration, scope: !52, entity: !735, file: !588, line: 184)
!735 = !DISubprogram(name: "wcsftime", scope: !594, file: !594, line: 834, type: !736, flags: DIFlagPrototyped, spFlags: 0)
!736 = !DISubroutineType(types: !737)
!737 = !{!644, !611, !644, !621, !738}
!738 = !DIDerivedType(tag: DW_TAG_restrict_type, baseType: !739)
!739 = !DIDerivedType(tag: DW_TAG_pointer_type, baseType: !740, size: 64)
!740 = !DIDerivedType(tag: DW_TAG_const_type, baseType: !741)
!741 = !DICompositeType(tag: DW_TAG_structure_type, name: "tm", file: !594, line: 83, flags: DIFlagFwdDecl, identifier: "_ZTS2tm")
!742 = !DIImportedEntity(tag: DW_TAG_imported_declaration, scope: !52, entity: !743, file: !588, line: 185)
!743 = !DISubprogram(name: "wcslen", scope: !594, file: !594, line: 222, type: !744, flags: DIFlagPrototyped, spFlags: 0)
!744 = !DISubroutineType(types: !745)
!745 = !{!644, !622}
!746 = !DIImportedEntity(tag: DW_TAG_imported_declaration, scope: !52, entity: !747, file: !588, line: 186)
!747 = !DISubprogram(name: "wcsncat", scope: !594, file: !594, line: 101, type: !748, flags: DIFlagPrototyped, spFlags: 0)
!748 = !DISubroutineType(types: !749)
!749 = !{!609, !611, !621, !644}
!750 = !DIImportedEntity(tag: DW_TAG_imported_declaration, scope: !52, entity: !751, file: !588, line: 187)
!751 = !DISubprogram(name: "wcsncmp", scope: !594, file: !594, line: 109, type: !752, flags: DIFlagPrototyped, spFlags: 0)
!752 = !DISubroutineType(types: !753)
!753 = !{!214, !622, !622, !644}
!754 = !DIImportedEntity(tag: DW_TAG_imported_declaration, scope: !52, entity: !755, file: !588, line: 188)
!755 = !DISubprogram(name: "wcsncpy", scope: !594, file: !594, line: 92, type: !748, flags: DIFlagPrototyped, spFlags: 0)
!756 = !DIImportedEntity(tag: DW_TAG_imported_declaration, scope: !52, entity: !757, file: !588, line: 189)
!757 = !DISubprogram(name: "wcsrtombs", scope: !594, file: !594, line: 343, type: !758, flags: DIFlagPrototyped, spFlags: 0)
!758 = !DISubroutineType(types: !759)
!759 = !{!644, !716, !760, !644, !648}
!760 = !DIDerivedType(tag: DW_TAG_restrict_type, baseType: !761)
!761 = !DIDerivedType(tag: DW_TAG_pointer_type, baseType: !622, size: 64)
!762 = !DIImportedEntity(tag: DW_TAG_imported_declaration, scope: !52, entity: !763, file: !588, line: 190)
!763 = !DISubprogram(name: "wcsspn", scope: !594, file: !594, line: 191, type: !732, flags: DIFlagPrototyped, spFlags: 0)
!764 = !DIImportedEntity(tag: DW_TAG_imported_declaration, scope: !52, entity: !765, file: !588, line: 191)
!765 = !DISubprogram(name: "wcstod", scope: !594, file: !594, line: 377, type: !766, flags: DIFlagPrototyped, spFlags: 0)
!766 = !DISubroutineType(types: !767)
!767 = !{!16, !621, !768}
!768 = !DIDerivedType(tag: DW_TAG_restrict_type, baseType: !769)
!769 = !DIDerivedType(tag: DW_TAG_pointer_type, baseType: !609, size: 64)
!770 = !DIImportedEntity(tag: DW_TAG_imported_declaration, scope: !52, entity: !771, file: !588, line: 193)
!771 = !DISubprogram(name: "wcstof", scope: !594, file: !594, line: 382, type: !772, flags: DIFlagPrototyped, spFlags: 0)
!772 = !DISubroutineType(types: !773)
!773 = !{!34, !621, !768}
!774 = !DIImportedEntity(tag: DW_TAG_imported_declaration, scope: !52, entity: !775, file: !588, line: 195)
!775 = !DISubprogram(name: "wcstok", scope: !594, file: !594, line: 217, type: !776, flags: DIFlagPrototyped, spFlags: 0)
!776 = !DISubroutineType(types: !777)
!777 = !{!609, !611, !621, !768}
!778 = !DIImportedEntity(tag: DW_TAG_imported_declaration, scope: !52, entity: !779, file: !588, line: 196)
!779 = !DISubprogram(name: "wcstol", scope: !594, file: !594, line: 428, type: !780, flags: DIFlagPrototyped, spFlags: 0)
!780 = !DISubroutineType(types: !781)
!781 = !{!455, !621, !768, !214}
!782 = !DIImportedEntity(tag: DW_TAG_imported_declaration, scope: !52, entity: !783, file: !588, line: 197)
!783 = !DISubprogram(name: "wcstoul", scope: !594, file: !594, line: 433, type: !784, flags: DIFlagPrototyped, spFlags: 0)
!784 = !DISubroutineType(types: !785)
!785 = !{!646, !621, !768, !214}
!786 = !DIImportedEntity(tag: DW_TAG_imported_declaration, scope: !52, entity: !787, file: !588, line: 198)
!787 = !DISubprogram(name: "wcsxfrm", scope: !594, file: !594, line: 135, type: !788, flags: DIFlagPrototyped, spFlags: 0)
!788 = !DISubroutineType(types: !789)
!789 = !{!644, !611, !621, !644}
!790 = !DIImportedEntity(tag: DW_TAG_imported_declaration, scope: !52, entity: !791, file: !588, line: 199)
!791 = !DISubprogram(name: "wctob", scope: !594, file: !594, line: 288, type: !792, flags: DIFlagPrototyped, spFlags: 0)
!792 = !DISubroutineType(types: !793)
!793 = !{!214, !590}
!794 = !DIImportedEntity(tag: DW_TAG_imported_declaration, scope: !52, entity: !795, file: !588, line: 200)
!795 = !DISubprogram(name: "wmemcmp", scope: !594, file: !594, line: 258, type: !752, flags: DIFlagPrototyped, spFlags: 0)
!796 = !DIImportedEntity(tag: DW_TAG_imported_declaration, scope: !52, entity: !797, file: !588, line: 201)
!797 = !DISubprogram(name: "wmemcpy", scope: !594, file: !594, line: 262, type: !748, flags: DIFlagPrototyped, spFlags: 0)
!798 = !DIImportedEntity(tag: DW_TAG_imported_declaration, scope: !52, entity: !799, file: !588, line: 202)
!799 = !DISubprogram(name: "wmemmove", scope: !594, file: !594, line: 267, type: !800, flags: DIFlagPrototyped, spFlags: 0)
!800 = !DISubroutineType(types: !801)
!801 = !{!609, !609, !622, !644}
!802 = !DIImportedEntity(tag: DW_TAG_imported_declaration, scope: !52, entity: !803, file: !588, line: 203)
!803 = !DISubprogram(name: "wmemset", scope: !594, file: !594, line: 271, type: !804, flags: DIFlagPrototyped, spFlags: 0)
!804 = !DISubroutineType(types: !805)
!805 = !{!609, !609, !610, !644}
!806 = !DIImportedEntity(tag: DW_TAG_imported_declaration, scope: !52, entity: !807, file: !588, line: 204)
!807 = !DISubprogram(name: "wprintf", scope: !594, file: !594, line: 587, type: !808, flags: DIFlagPrototyped, spFlags: 0)
!808 = !DISubroutineType(types: !809)
!809 = !{!214, !621, null}
!810 = !DIImportedEntity(tag: DW_TAG_imported_declaration, scope: !52, entity: !811, file: !588, line: 205)
!811 = !DISubprogram(name: "wscanf", linkageName: "__isoc99_wscanf", scope: !594, file: !594, line: 644, type: !808, flags: DIFlagPrototyped, spFlags: 0)
!812 = !DIImportedEntity(tag: DW_TAG_imported_declaration, scope: !52, entity: !813, file: !588, line: 206)
!813 = !DISubprogram(name: "wcschr", scope: !594, file: !594, line: 164, type: !814, flags: DIFlagPrototyped, spFlags: 0)
!814 = !DISubroutineType(types: !815)
!815 = !{!609, !622, !610}
!816 = !DIImportedEntity(tag: DW_TAG_imported_declaration, scope: !52, entity: !817, file: !588, line: 207)
!817 = !DISubprogram(name: "wcspbrk", scope: !594, file: !594, line: 201, type: !818, flags: DIFlagPrototyped, spFlags: 0)
!818 = !DISubroutineType(types: !819)
!819 = !{!609, !622, !622}
!820 = !DIImportedEntity(tag: DW_TAG_imported_declaration, scope: !52, entity: !821, file: !588, line: 208)
!821 = !DISubprogram(name: "wcsrchr", scope: !594, file: !594, line: 174, type: !814, flags: DIFlagPrototyped, spFlags: 0)
!822 = !DIImportedEntity(tag: DW_TAG_imported_declaration, scope: !52, entity: !823, file: !588, line: 209)
!823 = !DISubprogram(name: "wcsstr", scope: !594, file: !594, line: 212, type: !818, flags: DIFlagPrototyped, spFlags: 0)
!824 = !DIImportedEntity(tag: DW_TAG_imported_declaration, scope: !52, entity: !825, file: !588, line: 210)
!825 = !DISubprogram(name: "wmemchr", scope: !594, file: !594, line: 253, type: !826, flags: DIFlagPrototyped, spFlags: 0)
!826 = !DISubroutineType(types: !827)
!827 = !{!609, !622, !610, !644}
!828 = !DIImportedEntity(tag: DW_TAG_imported_declaration, scope: !829, entity: !830, file: !588, line: 251)
!829 = !DINamespace(name: "__gnu_cxx", scope: null)
!830 = !DISubprogram(name: "wcstold", scope: !594, file: !594, line: 384, type: !831, flags: DIFlagPrototyped, spFlags: 0)
!831 = !DISubroutineType(types: !832)
!832 = !{!103, !621, !768}
!833 = !DIImportedEntity(tag: DW_TAG_imported_declaration, scope: !829, entity: !834, file: !588, line: 260)
!834 = !DISubprogram(name: "wcstoll", scope: !594, file: !594, line: 441, type: !835, flags: DIFlagPrototyped, spFlags: 0)
!835 = !DISubroutineType(types: !836)
!836 = !{!418, !621, !768, !214}
!837 = !DIImportedEntity(tag: DW_TAG_imported_declaration, scope: !829, entity: !838, file: !588, line: 261)
!838 = !DISubprogram(name: "wcstoull", scope: !594, file: !594, line: 448, type: !839, flags: DIFlagPrototyped, spFlags: 0)
!839 = !DISubroutineType(types: !840)
!840 = !{!841, !621, !768, !214}
!841 = !DIBasicType(name: "long long unsigned int", size: 64, encoding: DW_ATE_unsigned)
!842 = !DIImportedEntity(tag: DW_TAG_imported_declaration, scope: !52, entity: !830, file: !588, line: 267)
!843 = !DIImportedEntity(tag: DW_TAG_imported_declaration, scope: !52, entity: !834, file: !588, line: 268)
!844 = !DIImportedEntity(tag: DW_TAG_imported_declaration, scope: !52, entity: !838, file: !588, line: 269)
!845 = !DIImportedEntity(tag: DW_TAG_imported_declaration, scope: !52, entity: !771, file: !588, line: 283)
!846 = !DIImportedEntity(tag: DW_TAG_imported_declaration, scope: !52, entity: !697, file: !588, line: 286)
!847 = !DIImportedEntity(tag: DW_TAG_imported_declaration, scope: !52, entity: !703, file: !588, line: 289)
!848 = !DIImportedEntity(tag: DW_TAG_imported_declaration, scope: !52, entity: !711, file: !588, line: 292)
!849 = !DIImportedEntity(tag: DW_TAG_imported_declaration, scope: !52, entity: !830, file: !588, line: 296)
!850 = !DIImportedEntity(tag: DW_TAG_imported_declaration, scope: !52, entity: !834, file: !588, line: 297)
!851 = !DIImportedEntity(tag: DW_TAG_imported_declaration, scope: !52, entity: !838, file: !588, line: 298)
!852 = !DIImportedEntity(tag: DW_TAG_imported_declaration, scope: !52, entity: !853, file: !854, line: 58)
!853 = distinct !DICompositeType(tag: DW_TAG_class_type, name: "exception_ptr", scope: !855, file: !854, line: 80, size: 64, flags: DIFlagTypePassByReference | DIFlagNonTrivial, elements: !856, identifier: "_ZTSNSt15__exception_ptr13exception_ptrE")
!854 = !DIFile(filename: "/usr/lib/gcc/x86_64-linux-gnu/10/../../../../include/c++/10/bits/exception_ptr.h", directory: "")
!855 = !DINamespace(name: "__exception_ptr", scope: !52)
!856 = !{!857, !858, !862, !865, !866, !871, !872, !876, !882, !886, !890, !893, !894, !897, !900}
!857 = !DIDerivedType(tag: DW_TAG_member, name: "_M_exception_object", scope: !853, file: !854, line: 82, baseType: !694, size: 64)
!858 = !DISubprogram(name: "exception_ptr", scope: !853, file: !854, line: 84, type: !859, scopeLine: 84, flags: DIFlagExplicit | DIFlagPrototyped, spFlags: 0)
!859 = !DISubroutineType(types: !860)
!860 = !{null, !861, !694}
!861 = !DIDerivedType(tag: DW_TAG_pointer_type, baseType: !853, size: 64, flags: DIFlagArtificial | DIFlagObjectPointer)
!862 = !DISubprogram(name: "_M_addref", linkageName: "_ZNSt15__exception_ptr13exception_ptr9_M_addrefEv", scope: !853, file: !854, line: 86, type: !863, scopeLine: 86, flags: DIFlagPrototyped, spFlags: 0)
!863 = !DISubroutineType(types: !864)
!864 = !{null, !861}
!865 = !DISubprogram(name: "_M_release", linkageName: "_ZNSt15__exception_ptr13exception_ptr10_M_releaseEv", scope: !853, file: !854, line: 87, type: !863, scopeLine: 87, flags: DIFlagPrototyped, spFlags: 0)
!866 = !DISubprogram(name: "_M_get", linkageName: "_ZNKSt15__exception_ptr13exception_ptr6_M_getEv", scope: !853, file: !854, line: 89, type: !867, scopeLine: 89, flags: DIFlagPrototyped, spFlags: 0)
!867 = !DISubroutineType(types: !868)
!868 = !{!694, !869}
!869 = !DIDerivedType(tag: DW_TAG_pointer_type, baseType: !870, size: 64, flags: DIFlagArtificial | DIFlagObjectPointer)
!870 = !DIDerivedType(tag: DW_TAG_const_type, baseType: !853)
!871 = !DISubprogram(name: "exception_ptr", scope: !853, file: !854, line: 97, type: !863, scopeLine: 97, flags: DIFlagPublic | DIFlagPrototyped, spFlags: 0)
!872 = !DISubprogram(name: "exception_ptr", scope: !853, file: !854, line: 99, type: !873, scopeLine: 99, flags: DIFlagPublic | DIFlagPrototyped, spFlags: 0)
!873 = !DISubroutineType(types: !874)
!874 = !{null, !861, !875}
!875 = !DIDerivedType(tag: DW_TAG_reference_type, baseType: !870, size: 64)
!876 = !DISubprogram(name: "exception_ptr", scope: !853, file: !854, line: 102, type: !877, scopeLine: 102, flags: DIFlagPublic | DIFlagPrototyped, spFlags: 0)
!877 = !DISubroutineType(types: !878)
!878 = !{null, !861, !879}
!879 = !DIDerivedType(tag: DW_TAG_typedef, name: "nullptr_t", scope: !52, file: !880, line: 264, baseType: !881)
!880 = !DIFile(filename: "/usr/lib/gcc/x86_64-linux-gnu/10/../../../../include/x86_64-linux-gnu/c++/10/bits/c++config.h", directory: "")
!881 = !DIBasicType(tag: DW_TAG_unspecified_type, name: "decltype(nullptr)")
!882 = !DISubprogram(name: "exception_ptr", scope: !853, file: !854, line: 106, type: !883, scopeLine: 106, flags: DIFlagPublic | DIFlagPrototyped, spFlags: 0)
!883 = !DISubroutineType(types: !884)
!884 = !{null, !861, !885}
!885 = !DIDerivedType(tag: DW_TAG_rvalue_reference_type, baseType: !853, size: 64)
!886 = !DISubprogram(name: "operator=", linkageName: "_ZNSt15__exception_ptr13exception_ptraSERKS0_", scope: !853, file: !854, line: 119, type: !887, scopeLine: 119, flags: DIFlagPublic | DIFlagPrototyped, spFlags: 0)
!887 = !DISubroutineType(types: !888)
!888 = !{!889, !861, !875}
!889 = !DIDerivedType(tag: DW_TAG_reference_type, baseType: !853, size: 64)
!890 = !DISubprogram(name: "operator=", linkageName: "_ZNSt15__exception_ptr13exception_ptraSEOS0_", scope: !853, file: !854, line: 123, type: !891, scopeLine: 123, flags: DIFlagPublic | DIFlagPrototyped, spFlags: 0)
!891 = !DISubroutineType(types: !892)
!892 = !{!889, !861, !885}
!893 = !DISubprogram(name: "~exception_ptr", scope: !853, file: !854, line: 130, type: !863, scopeLine: 130, flags: DIFlagPublic | DIFlagPrototyped, spFlags: 0)
!894 = !DISubprogram(name: "swap", linkageName: "_ZNSt15__exception_ptr13exception_ptr4swapERS0_", scope: !853, file: !854, line: 133, type: !895, scopeLine: 133, flags: DIFlagPublic | DIFlagPrototyped, spFlags: 0)
!895 = !DISubroutineType(types: !896)
!896 = !{null, !861, !889}
!897 = !DISubprogram(name: "operator bool", linkageName: "_ZNKSt15__exception_ptr13exception_ptrcvbEv", scope: !853, file: !854, line: 145, type: !898, scopeLine: 145, flags: DIFlagPublic | DIFlagExplicit | DIFlagPrototyped, spFlags: 0)
!898 = !DISubroutineType(types: !899)
!899 = !{!6, !869}
!900 = !DISubprogram(name: "__cxa_exception_type", linkageName: "_ZNKSt15__exception_ptr13exception_ptr20__cxa_exception_typeEv", scope: !853, file: !854, line: 154, type: !901, scopeLine: 154, flags: DIFlagPublic | DIFlagPrototyped, spFlags: 0)
!901 = !DISubroutineType(types: !902)
!902 = !{!903, !869}
!903 = !DIDerivedType(tag: DW_TAG_pointer_type, baseType: !904, size: 64)
!904 = !DIDerivedType(tag: DW_TAG_const_type, baseType: !905)
!905 = !DICompositeType(tag: DW_TAG_class_type, name: "type_info", scope: !52, file: !906, line: 88, flags: DIFlagFwdDecl)
!906 = !DIFile(filename: "/usr/lib/gcc/x86_64-linux-gnu/10/../../../../include/c++/10/typeinfo", directory: "")
!907 = !DIImportedEntity(tag: DW_TAG_imported_declaration, scope: !855, entity: !908, file: !854, line: 74)
!908 = !DISubprogram(name: "rethrow_exception", linkageName: "_ZSt17rethrow_exceptionNSt15__exception_ptr13exception_ptrE", scope: !52, file: !854, line: 70, type: !909, flags: DIFlagPrototyped | DIFlagNoReturn, spFlags: 0)
!909 = !DISubroutineType(types: !910)
!910 = !{null, !853}
!911 = !DIImportedEntity(tag: DW_TAG_imported_module, scope: !912, entity: !913, file: !914, line: 58)
!912 = !DINamespace(name: "__gnu_debug", scope: null)
!913 = !DINamespace(name: "__debug", scope: !52)
!914 = !DIFile(filename: "/usr/lib/gcc/x86_64-linux-gnu/10/../../../../include/c++/10/debug/debug.h", directory: "")
!915 = !DIImportedEntity(tag: DW_TAG_imported_declaration, scope: !52, entity: !916, file: !921, line: 47)
!916 = !DIDerivedType(tag: DW_TAG_typedef, name: "int8_t", file: !917, line: 24, baseType: !918)
!917 = !DIFile(filename: "/usr/include/x86_64-linux-gnu/bits/stdint-intn.h", directory: "")
!918 = !DIDerivedType(tag: DW_TAG_typedef, name: "__int8_t", file: !919, line: 37, baseType: !920)
!919 = !DIFile(filename: "/usr/include/x86_64-linux-gnu/bits/types.h", directory: "")
!920 = !DIBasicType(name: "signed char", size: 8, encoding: DW_ATE_signed_char)
!921 = !DIFile(filename: "/usr/lib/gcc/x86_64-linux-gnu/10/../../../../include/c++/10/cstdint", directory: "")
!922 = !DIImportedEntity(tag: DW_TAG_imported_declaration, scope: !52, entity: !923, file: !921, line: 48)
!923 = !DIDerivedType(tag: DW_TAG_typedef, name: "int16_t", file: !917, line: 25, baseType: !924)
!924 = !DIDerivedType(tag: DW_TAG_typedef, name: "__int16_t", file: !919, line: 39, baseType: !925)
!925 = !DIBasicType(name: "short", size: 16, encoding: DW_ATE_signed)
!926 = !DIImportedEntity(tag: DW_TAG_imported_declaration, scope: !52, entity: !927, file: !921, line: 49)
!927 = !DIDerivedType(tag: DW_TAG_typedef, name: "int32_t", file: !917, line: 26, baseType: !928)
!928 = !DIDerivedType(tag: DW_TAG_typedef, name: "__int32_t", file: !919, line: 41, baseType: !214)
!929 = !DIImportedEntity(tag: DW_TAG_imported_declaration, scope: !52, entity: !930, file: !921, line: 50)
!930 = !DIDerivedType(tag: DW_TAG_typedef, name: "int64_t", file: !917, line: 27, baseType: !931)
!931 = !DIDerivedType(tag: DW_TAG_typedef, name: "__int64_t", file: !919, line: 44, baseType: !455)
!932 = !DIImportedEntity(tag: DW_TAG_imported_declaration, scope: !52, entity: !933, file: !921, line: 52)
!933 = !DIDerivedType(tag: DW_TAG_typedef, name: "int_fast8_t", file: !934, line: 58, baseType: !920)
!934 = !DIFile(filename: "/usr/include/stdint.h", directory: "")
!935 = !DIImportedEntity(tag: DW_TAG_imported_declaration, scope: !52, entity: !936, file: !921, line: 53)
!936 = !DIDerivedType(tag: DW_TAG_typedef, name: "int_fast16_t", file: !934, line: 60, baseType: !455)
!937 = !DIImportedEntity(tag: DW_TAG_imported_declaration, scope: !52, entity: !938, file: !921, line: 54)
!938 = !DIDerivedType(tag: DW_TAG_typedef, name: "int_fast32_t", file: !934, line: 61, baseType: !455)
!939 = !DIImportedEntity(tag: DW_TAG_imported_declaration, scope: !52, entity: !940, file: !921, line: 55)
!940 = !DIDerivedType(tag: DW_TAG_typedef, name: "int_fast64_t", file: !934, line: 62, baseType: !455)
!941 = !DIImportedEntity(tag: DW_TAG_imported_declaration, scope: !52, entity: !942, file: !921, line: 57)
!942 = !DIDerivedType(tag: DW_TAG_typedef, name: "int_least8_t", file: !934, line: 43, baseType: !943)
!943 = !DIDerivedType(tag: DW_TAG_typedef, name: "__int_least8_t", file: !919, line: 52, baseType: !918)
!944 = !DIImportedEntity(tag: DW_TAG_imported_declaration, scope: !52, entity: !945, file: !921, line: 58)
!945 = !DIDerivedType(tag: DW_TAG_typedef, name: "int_least16_t", file: !934, line: 44, baseType: !946)
!946 = !DIDerivedType(tag: DW_TAG_typedef, name: "__int_least16_t", file: !919, line: 54, baseType: !924)
!947 = !DIImportedEntity(tag: DW_TAG_imported_declaration, scope: !52, entity: !948, file: !921, line: 59)
!948 = !DIDerivedType(tag: DW_TAG_typedef, name: "int_least32_t", file: !934, line: 45, baseType: !949)
!949 = !DIDerivedType(tag: DW_TAG_typedef, name: "__int_least32_t", file: !919, line: 56, baseType: !928)
!950 = !DIImportedEntity(tag: DW_TAG_imported_declaration, scope: !52, entity: !951, file: !921, line: 60)
!951 = !DIDerivedType(tag: DW_TAG_typedef, name: "int_least64_t", file: !934, line: 46, baseType: !952)
!952 = !DIDerivedType(tag: DW_TAG_typedef, name: "__int_least64_t", file: !919, line: 58, baseType: !931)
!953 = !DIImportedEntity(tag: DW_TAG_imported_declaration, scope: !52, entity: !954, file: !921, line: 62)
!954 = !DIDerivedType(tag: DW_TAG_typedef, name: "intmax_t", file: !934, line: 101, baseType: !955)
!955 = !DIDerivedType(tag: DW_TAG_typedef, name: "__intmax_t", file: !919, line: 72, baseType: !455)
!956 = !DIImportedEntity(tag: DW_TAG_imported_declaration, scope: !52, entity: !957, file: !921, line: 63)
!957 = !DIDerivedType(tag: DW_TAG_typedef, name: "intptr_t", file: !934, line: 87, baseType: !455)
!958 = !DIImportedEntity(tag: DW_TAG_imported_declaration, scope: !52, entity: !959, file: !921, line: 65)
!959 = !DIDerivedType(tag: DW_TAG_typedef, name: "uint8_t", file: !960, line: 24, baseType: !961)
!960 = !DIFile(filename: "/usr/include/x86_64-linux-gnu/bits/stdint-uintn.h", directory: "")
!961 = !DIDerivedType(tag: DW_TAG_typedef, name: "__uint8_t", file: !919, line: 38, baseType: !962)
!962 = !DIBasicType(name: "unsigned char", size: 8, encoding: DW_ATE_unsigned_char)
!963 = !DIImportedEntity(tag: DW_TAG_imported_declaration, scope: !52, entity: !964, file: !921, line: 66)
!964 = !DIDerivedType(tag: DW_TAG_typedef, name: "uint16_t", file: !960, line: 25, baseType: !965)
!965 = !DIDerivedType(tag: DW_TAG_typedef, name: "__uint16_t", file: !919, line: 40, baseType: !966)
!966 = !DIBasicType(name: "unsigned short", size: 16, encoding: DW_ATE_unsigned)
!967 = !DIImportedEntity(tag: DW_TAG_imported_declaration, scope: !52, entity: !968, file: !921, line: 67)
!968 = !DIDerivedType(tag: DW_TAG_typedef, name: "uint32_t", file: !960, line: 26, baseType: !969)
!969 = !DIDerivedType(tag: DW_TAG_typedef, name: "__uint32_t", file: !919, line: 42, baseType: !583)
!970 = !DIImportedEntity(tag: DW_TAG_imported_declaration, scope: !52, entity: !971, file: !921, line: 68)
!971 = !DIDerivedType(tag: DW_TAG_typedef, name: "uint64_t", file: !960, line: 27, baseType: !972)
!972 = !DIDerivedType(tag: DW_TAG_typedef, name: "__uint64_t", file: !919, line: 45, baseType: !646)
!973 = !DIImportedEntity(tag: DW_TAG_imported_declaration, scope: !52, entity: !974, file: !921, line: 70)
!974 = !DIDerivedType(tag: DW_TAG_typedef, name: "uint_fast8_t", file: !934, line: 71, baseType: !962)
!975 = !DIImportedEntity(tag: DW_TAG_imported_declaration, scope: !52, entity: !976, file: !921, line: 71)
!976 = !DIDerivedType(tag: DW_TAG_typedef, name: "uint_fast16_t", file: !934, line: 73, baseType: !646)
!977 = !DIImportedEntity(tag: DW_TAG_imported_declaration, scope: !52, entity: !978, file: !921, line: 72)
!978 = !DIDerivedType(tag: DW_TAG_typedef, name: "uint_fast32_t", file: !934, line: 74, baseType: !646)
!979 = !DIImportedEntity(tag: DW_TAG_imported_declaration, scope: !52, entity: !980, file: !921, line: 73)
!980 = !DIDerivedType(tag: DW_TAG_typedef, name: "uint_fast64_t", file: !934, line: 75, baseType: !646)
!981 = !DIImportedEntity(tag: DW_TAG_imported_declaration, scope: !52, entity: !982, file: !921, line: 75)
!982 = !DIDerivedType(tag: DW_TAG_typedef, name: "uint_least8_t", file: !934, line: 49, baseType: !983)
!983 = !DIDerivedType(tag: DW_TAG_typedef, name: "__uint_least8_t", file: !919, line: 53, baseType: !961)
!984 = !DIImportedEntity(tag: DW_TAG_imported_declaration, scope: !52, entity: !985, file: !921, line: 76)
!985 = !DIDerivedType(tag: DW_TAG_typedef, name: "uint_least16_t", file: !934, line: 50, baseType: !986)
!986 = !DIDerivedType(tag: DW_TAG_typedef, name: "__uint_least16_t", file: !919, line: 55, baseType: !965)
!987 = !DIImportedEntity(tag: DW_TAG_imported_declaration, scope: !52, entity: !988, file: !921, line: 77)
!988 = !DIDerivedType(tag: DW_TAG_typedef, name: "uint_least32_t", file: !934, line: 51, baseType: !989)
!989 = !DIDerivedType(tag: DW_TAG_typedef, name: "__uint_least32_t", file: !919, line: 57, baseType: !969)
!990 = !DIImportedEntity(tag: DW_TAG_imported_declaration, scope: !52, entity: !991, file: !921, line: 78)
!991 = !DIDerivedType(tag: DW_TAG_typedef, name: "uint_least64_t", file: !934, line: 52, baseType: !992)
!992 = !DIDerivedType(tag: DW_TAG_typedef, name: "__uint_least64_t", file: !919, line: 59, baseType: !972)
!993 = !DIImportedEntity(tag: DW_TAG_imported_declaration, scope: !52, entity: !994, file: !921, line: 80)
!994 = !DIDerivedType(tag: DW_TAG_typedef, name: "uintmax_t", file: !934, line: 102, baseType: !995)
!995 = !DIDerivedType(tag: DW_TAG_typedef, name: "__uintmax_t", file: !919, line: 73, baseType: !646)
!996 = !DIImportedEntity(tag: DW_TAG_imported_declaration, scope: !52, entity: !997, file: !921, line: 81)
!997 = !DIDerivedType(tag: DW_TAG_typedef, name: "uintptr_t", file: !934, line: 90, baseType: !646)
!998 = !DIImportedEntity(tag: DW_TAG_imported_declaration, scope: !52, entity: !999, file: !1001, line: 53)
!999 = !DICompositeType(tag: DW_TAG_structure_type, name: "lconv", file: !1000, line: 51, flags: DIFlagFwdDecl, identifier: "_ZTS5lconv")
!1000 = !DIFile(filename: "/usr/include/locale.h", directory: "")
!1001 = !DIFile(filename: "/usr/lib/gcc/x86_64-linux-gnu/10/../../../../include/c++/10/clocale", directory: "")
!1002 = !DIImportedEntity(tag: DW_TAG_imported_declaration, scope: !52, entity: !1003, file: !1001, line: 54)
!1003 = !DISubprogram(name: "setlocale", scope: !1000, file: !1000, line: 122, type: !1004, flags: DIFlagPrototyped, spFlags: 0)
!1004 = !DISubroutineType(types: !1005)
!1005 = !{!717, !214, !474}
!1006 = !DIImportedEntity(tag: DW_TAG_imported_declaration, scope: !52, entity: !1007, file: !1001, line: 55)
!1007 = !DISubprogram(name: "localeconv", scope: !1000, file: !1000, line: 125, type: !1008, flags: DIFlagPrototyped, spFlags: 0)
!1008 = !DISubroutineType(types: !1009)
!1009 = !{!1010}
!1010 = !DIDerivedType(tag: DW_TAG_pointer_type, baseType: !999, size: 64)
!1011 = !DIImportedEntity(tag: DW_TAG_imported_declaration, scope: !52, entity: !1012, file: !1014, line: 64)
!1012 = !DISubprogram(name: "isalnum", scope: !1013, file: !1013, line: 108, type: !232, flags: DIFlagPrototyped, spFlags: 0)
!1013 = !DIFile(filename: "/usr/include/ctype.h", directory: "")
!1014 = !DIFile(filename: "/usr/lib/gcc/x86_64-linux-gnu/10/../../../../include/c++/10/cctype", directory: "")
!1015 = !DIImportedEntity(tag: DW_TAG_imported_declaration, scope: !52, entity: !1016, file: !1014, line: 65)
!1016 = !DISubprogram(name: "isalpha", scope: !1013, file: !1013, line: 109, type: !232, flags: DIFlagPrototyped, spFlags: 0)
!1017 = !DIImportedEntity(tag: DW_TAG_imported_declaration, scope: !52, entity: !1018, file: !1014, line: 66)
!1018 = !DISubprogram(name: "iscntrl", scope: !1013, file: !1013, line: 110, type: !232, flags: DIFlagPrototyped, spFlags: 0)
!1019 = !DIImportedEntity(tag: DW_TAG_imported_declaration, scope: !52, entity: !1020, file: !1014, line: 67)
!1020 = !DISubprogram(name: "isdigit", scope: !1013, file: !1013, line: 111, type: !232, flags: DIFlagPrototyped, spFlags: 0)
!1021 = !DIImportedEntity(tag: DW_TAG_imported_declaration, scope: !52, entity: !1022, file: !1014, line: 68)
!1022 = !DISubprogram(name: "isgraph", scope: !1013, file: !1013, line: 113, type: !232, flags: DIFlagPrototyped, spFlags: 0)
!1023 = !DIImportedEntity(tag: DW_TAG_imported_declaration, scope: !52, entity: !1024, file: !1014, line: 69)
!1024 = !DISubprogram(name: "islower", scope: !1013, file: !1013, line: 112, type: !232, flags: DIFlagPrototyped, spFlags: 0)
!1025 = !DIImportedEntity(tag: DW_TAG_imported_declaration, scope: !52, entity: !1026, file: !1014, line: 70)
!1026 = !DISubprogram(name: "isprint", scope: !1013, file: !1013, line: 114, type: !232, flags: DIFlagPrototyped, spFlags: 0)
!1027 = !DIImportedEntity(tag: DW_TAG_imported_declaration, scope: !52, entity: !1028, file: !1014, line: 71)
!1028 = !DISubprogram(name: "ispunct", scope: !1013, file: !1013, line: 115, type: !232, flags: DIFlagPrototyped, spFlags: 0)
!1029 = !DIImportedEntity(tag: DW_TAG_imported_declaration, scope: !52, entity: !1030, file: !1014, line: 72)
!1030 = !DISubprogram(name: "isspace", scope: !1013, file: !1013, line: 116, type: !232, flags: DIFlagPrototyped, spFlags: 0)
!1031 = !DIImportedEntity(tag: DW_TAG_imported_declaration, scope: !52, entity: !1032, file: !1014, line: 73)
!1032 = !DISubprogram(name: "isupper", scope: !1013, file: !1013, line: 117, type: !232, flags: DIFlagPrototyped, spFlags: 0)
!1033 = !DIImportedEntity(tag: DW_TAG_imported_declaration, scope: !52, entity: !1034, file: !1014, line: 74)
!1034 = !DISubprogram(name: "isxdigit", scope: !1013, file: !1013, line: 118, type: !232, flags: DIFlagPrototyped, spFlags: 0)
!1035 = !DIImportedEntity(tag: DW_TAG_imported_declaration, scope: !52, entity: !1036, file: !1014, line: 75)
!1036 = !DISubprogram(name: "tolower", scope: !1013, file: !1013, line: 122, type: !232, flags: DIFlagPrototyped, spFlags: 0)
!1037 = !DIImportedEntity(tag: DW_TAG_imported_declaration, scope: !52, entity: !1038, file: !1014, line: 76)
!1038 = !DISubprogram(name: "toupper", scope: !1013, file: !1013, line: 125, type: !232, flags: DIFlagPrototyped, spFlags: 0)
!1039 = !DIImportedEntity(tag: DW_TAG_imported_declaration, scope: !52, entity: !1040, file: !1014, line: 87)
!1040 = !DISubprogram(name: "isblank", scope: !1013, file: !1013, line: 130, type: !232, flags: DIFlagPrototyped, spFlags: 0)
!1041 = !DIImportedEntity(tag: DW_TAG_imported_declaration, scope: !52, entity: !1042, file: !1044, line: 127)
!1042 = !DIDerivedType(tag: DW_TAG_typedef, name: "div_t", file: !231, line: 62, baseType: !1043)
!1043 = !DICompositeType(tag: DW_TAG_structure_type, file: !231, line: 58, flags: DIFlagFwdDecl, identifier: "_ZTS5div_t")
!1044 = !DIFile(filename: "/usr/lib/gcc/x86_64-linux-gnu/10/../../../../include/c++/10/cstdlib", directory: "")
!1045 = !DIImportedEntity(tag: DW_TAG_imported_declaration, scope: !52, entity: !1046, file: !1044, line: 128)
!1046 = !DIDerivedType(tag: DW_TAG_typedef, name: "ldiv_t", file: !231, line: 70, baseType: !1047)
!1047 = distinct !DICompositeType(tag: DW_TAG_structure_type, file: !231, line: 66, size: 128, flags: DIFlagTypePassByValue, elements: !1048, identifier: "_ZTS6ldiv_t")
!1048 = !{!1049, !1050}
!1049 = !DIDerivedType(tag: DW_TAG_member, name: "quot", scope: !1047, file: !231, line: 68, baseType: !455, size: 64)
!1050 = !DIDerivedType(tag: DW_TAG_member, name: "rem", scope: !1047, file: !231, line: 69, baseType: !455, size: 64, offset: 64)
!1051 = !DIImportedEntity(tag: DW_TAG_imported_declaration, scope: !52, entity: !1052, file: !1044, line: 130)
!1052 = !DISubprogram(name: "abort", scope: !231, file: !231, line: 591, type: !1053, flags: DIFlagPrototyped | DIFlagNoReturn, spFlags: 0)
!1053 = !DISubroutineType(types: !1054)
!1054 = !{null}
!1055 = !DIImportedEntity(tag: DW_TAG_imported_declaration, scope: !52, entity: !1056, file: !1044, line: 134)
!1056 = !DISubprogram(name: "atexit", scope: !231, file: !231, line: 595, type: !1057, flags: DIFlagPrototyped, spFlags: 0)
!1057 = !DISubroutineType(types: !1058)
!1058 = !{!214, !1059}
!1059 = !DIDerivedType(tag: DW_TAG_pointer_type, baseType: !1053, size: 64)
!1060 = !DIImportedEntity(tag: DW_TAG_imported_declaration, scope: !52, entity: !1061, file: !1044, line: 137)
!1061 = !DISubprogram(name: "at_quick_exit", scope: !231, file: !231, line: 600, type: !1057, flags: DIFlagPrototyped, spFlags: 0)
!1062 = !DIImportedEntity(tag: DW_TAG_imported_declaration, scope: !52, entity: !1063, file: !1044, line: 140)
!1063 = !DISubprogram(name: "atof", scope: !231, file: !231, line: 101, type: !472, flags: DIFlagPrototyped, spFlags: 0)
!1064 = !DIImportedEntity(tag: DW_TAG_imported_declaration, scope: !52, entity: !1065, file: !1044, line: 141)
!1065 = !DISubprogram(name: "atoi", scope: !231, file: !231, line: 104, type: !1066, flags: DIFlagPrototyped, spFlags: 0)
!1066 = !DISubroutineType(types: !1067)
!1067 = !{!214, !474}
!1068 = !DIImportedEntity(tag: DW_TAG_imported_declaration, scope: !52, entity: !1069, file: !1044, line: 142)
!1069 = !DISubprogram(name: "atol", scope: !231, file: !231, line: 107, type: !1070, flags: DIFlagPrototyped, spFlags: 0)
!1070 = !DISubroutineType(types: !1071)
!1071 = !{!455, !474}
!1072 = !DIImportedEntity(tag: DW_TAG_imported_declaration, scope: !52, entity: !1073, file: !1044, line: 143)
!1073 = !DISubprogram(name: "bsearch", scope: !231, file: !231, line: 820, type: !1074, flags: DIFlagPrototyped, spFlags: 0)
!1074 = !DISubroutineType(types: !1075)
!1075 = !{!694, !1076, !1076, !644, !644, !1078}
!1076 = !DIDerivedType(tag: DW_TAG_pointer_type, baseType: !1077, size: 64)
!1077 = !DIDerivedType(tag: DW_TAG_const_type, baseType: null)
!1078 = !DIDerivedType(tag: DW_TAG_typedef, name: "__compar_fn_t", file: !231, line: 808, baseType: !1079)
!1079 = !DIDerivedType(tag: DW_TAG_pointer_type, baseType: !1080, size: 64)
!1080 = !DISubroutineType(types: !1081)
!1081 = !{!214, !1076, !1076}
!1082 = !DIImportedEntity(tag: DW_TAG_imported_declaration, scope: !52, entity: !1083, file: !1044, line: 144)
!1083 = !DISubprogram(name: "calloc", scope: !231, file: !231, line: 542, type: !1084, flags: DIFlagPrototyped, spFlags: 0)
!1084 = !DISubroutineType(types: !1085)
!1085 = !{!694, !644, !644}
!1086 = !DIImportedEntity(tag: DW_TAG_imported_declaration, scope: !52, entity: !1087, file: !1044, line: 145)
!1087 = !DISubprogram(name: "div", scope: !231, file: !231, line: 852, type: !1088, flags: DIFlagPrototyped, spFlags: 0)
!1088 = !DISubroutineType(types: !1089)
!1089 = !{!1042, !214, !214}
!1090 = !DIImportedEntity(tag: DW_TAG_imported_declaration, scope: !52, entity: !1091, file: !1044, line: 146)
!1091 = !DISubprogram(name: "exit", scope: !231, file: !231, line: 617, type: !1092, flags: DIFlagPrototyped | DIFlagNoReturn, spFlags: 0)
!1092 = !DISubroutineType(types: !1093)
!1093 = !{null, !214}
!1094 = !DIImportedEntity(tag: DW_TAG_imported_declaration, scope: !52, entity: !1095, file: !1044, line: 147)
!1095 = !DISubprogram(name: "free", scope: !231, file: !231, line: 565, type: !1096, flags: DIFlagPrototyped, spFlags: 0)
!1096 = !DISubroutineType(types: !1097)
!1097 = !{null, !694}
!1098 = !DIImportedEntity(tag: DW_TAG_imported_declaration, scope: !52, entity: !1099, file: !1044, line: 148)
!1099 = !DISubprogram(name: "getenv", scope: !231, file: !231, line: 634, type: !1100, flags: DIFlagPrototyped, spFlags: 0)
!1100 = !DISubroutineType(types: !1101)
!1101 = !{!717, !474}
!1102 = !DIImportedEntity(tag: DW_TAG_imported_declaration, scope: !52, entity: !1103, file: !1044, line: 149)
!1103 = !DISubprogram(name: "labs", scope: !231, file: !231, line: 841, type: !1104, flags: DIFlagPrototyped, spFlags: 0)
!1104 = !DISubroutineType(types: !1105)
!1105 = !{!455, !455}
!1106 = !DIImportedEntity(tag: DW_TAG_imported_declaration, scope: !52, entity: !1107, file: !1044, line: 150)
!1107 = !DISubprogram(name: "ldiv", scope: !231, file: !231, line: 854, type: !1108, flags: DIFlagPrototyped, spFlags: 0)
!1108 = !DISubroutineType(types: !1109)
!1109 = !{!1046, !455, !455}
!1110 = !DIImportedEntity(tag: DW_TAG_imported_declaration, scope: !52, entity: !1111, file: !1044, line: 151)
!1111 = !DISubprogram(name: "malloc", scope: !231, file: !231, line: 539, type: !1112, flags: DIFlagPrototyped, spFlags: 0)
!1112 = !DISubroutineType(types: !1113)
!1113 = !{!694, !644}
!1114 = !DIImportedEntity(tag: DW_TAG_imported_declaration, scope: !52, entity: !1115, file: !1044, line: 153)
!1115 = !DISubprogram(name: "mblen", scope: !231, file: !231, line: 922, type: !1116, flags: DIFlagPrototyped, spFlags: 0)
!1116 = !DISubroutineType(types: !1117)
!1117 = !{!214, !474, !644}
!1118 = !DIImportedEntity(tag: DW_TAG_imported_declaration, scope: !52, entity: !1119, file: !1044, line: 154)
!1119 = !DISubprogram(name: "mbstowcs", scope: !231, file: !231, line: 933, type: !1120, flags: DIFlagPrototyped, spFlags: 0)
!1120 = !DISubroutineType(types: !1121)
!1121 = !{!644, !611, !647, !644}
!1122 = !DIImportedEntity(tag: DW_TAG_imported_declaration, scope: !52, entity: !1123, file: !1044, line: 155)
!1123 = !DISubprogram(name: "mbtowc", scope: !231, file: !231, line: 925, type: !1124, flags: DIFlagPrototyped, spFlags: 0)
!1124 = !DISubroutineType(types: !1125)
!1125 = !{!214, !611, !647, !644}
!1126 = !DIImportedEntity(tag: DW_TAG_imported_declaration, scope: !52, entity: !1127, file: !1044, line: 157)
!1127 = !DISubprogram(name: "qsort", scope: !231, file: !231, line: 830, type: !1128, flags: DIFlagPrototyped, spFlags: 0)
!1128 = !DISubroutineType(types: !1129)
!1129 = !{null, !694, !644, !644, !1078}
!1130 = !DIImportedEntity(tag: DW_TAG_imported_declaration, scope: !52, entity: !1131, file: !1044, line: 160)
!1131 = !DISubprogram(name: "quick_exit", scope: !231, file: !231, line: 623, type: !1092, flags: DIFlagPrototyped | DIFlagNoReturn, spFlags: 0)
!1132 = !DIImportedEntity(tag: DW_TAG_imported_declaration, scope: !52, entity: !1133, file: !1044, line: 163)
!1133 = !DISubprogram(name: "rand", scope: !231, file: !231, line: 453, type: !1134, flags: DIFlagPrototyped, spFlags: 0)
!1134 = !DISubroutineType(types: !1135)
!1135 = !{!214}
!1136 = !DIImportedEntity(tag: DW_TAG_imported_declaration, scope: !52, entity: !1137, file: !1044, line: 164)
!1137 = !DISubprogram(name: "realloc", scope: !231, file: !231, line: 550, type: !1138, flags: DIFlagPrototyped, spFlags: 0)
!1138 = !DISubroutineType(types: !1139)
!1139 = !{!694, !694, !644}
!1140 = !DIImportedEntity(tag: DW_TAG_imported_declaration, scope: !52, entity: !1141, file: !1044, line: 165)
!1141 = !DISubprogram(name: "srand", scope: !231, file: !231, line: 455, type: !1142, flags: DIFlagPrototyped, spFlags: 0)
!1142 = !DISubroutineType(types: !1143)
!1143 = !{null, !583}
!1144 = !DIImportedEntity(tag: DW_TAG_imported_declaration, scope: !52, entity: !1145, file: !1044, line: 166)
!1145 = !DISubprogram(name: "strtod", scope: !231, file: !231, line: 117, type: !1146, flags: DIFlagPrototyped, spFlags: 0)
!1146 = !DISubroutineType(types: !1147)
!1147 = !{!16, !647, !1148}
!1148 = !DIDerivedType(tag: DW_TAG_restrict_type, baseType: !1149)
!1149 = !DIDerivedType(tag: DW_TAG_pointer_type, baseType: !717, size: 64)
!1150 = !DIImportedEntity(tag: DW_TAG_imported_declaration, scope: !52, entity: !1151, file: !1044, line: 167)
!1151 = !DISubprogram(name: "strtol", scope: !231, file: !231, line: 176, type: !1152, flags: DIFlagPrototyped, spFlags: 0)
!1152 = !DISubroutineType(types: !1153)
!1153 = !{!455, !647, !1148, !214}
!1154 = !DIImportedEntity(tag: DW_TAG_imported_declaration, scope: !52, entity: !1155, file: !1044, line: 168)
!1155 = !DISubprogram(name: "strtoul", scope: !231, file: !231, line: 180, type: !1156, flags: DIFlagPrototyped, spFlags: 0)
!1156 = !DISubroutineType(types: !1157)
!1157 = !{!646, !647, !1148, !214}
!1158 = !DIImportedEntity(tag: DW_TAG_imported_declaration, scope: !52, entity: !1159, file: !1044, line: 169)
!1159 = !DISubprogram(name: "system", scope: !231, file: !231, line: 784, type: !1066, flags: DIFlagPrototyped, spFlags: 0)
!1160 = !DIImportedEntity(tag: DW_TAG_imported_declaration, scope: !52, entity: !1161, file: !1044, line: 171)
!1161 = !DISubprogram(name: "wcstombs", scope: !231, file: !231, line: 936, type: !1162, flags: DIFlagPrototyped, spFlags: 0)
!1162 = !DISubroutineType(types: !1163)
!1163 = !{!644, !716, !621, !644}
!1164 = !DIImportedEntity(tag: DW_TAG_imported_declaration, scope: !52, entity: !1165, file: !1044, line: 172)
!1165 = !DISubprogram(name: "wctomb", scope: !231, file: !231, line: 929, type: !1166, flags: DIFlagPrototyped, spFlags: 0)
!1166 = !DISubroutineType(types: !1167)
!1167 = !{!214, !717, !610}
!1168 = !DIImportedEntity(tag: DW_TAG_imported_declaration, scope: !829, entity: !1169, file: !1044, line: 200)
!1169 = !DIDerivedType(tag: DW_TAG_typedef, name: "lldiv_t", file: !231, line: 80, baseType: !1170)
!1170 = distinct !DICompositeType(tag: DW_TAG_structure_type, file: !231, line: 76, size: 128, flags: DIFlagTypePassByValue, elements: !1171, identifier: "_ZTS7lldiv_t")
!1171 = !{!1172, !1173}
!1172 = !DIDerivedType(tag: DW_TAG_member, name: "quot", scope: !1170, file: !231, line: 78, baseType: !418, size: 64)
!1173 = !DIDerivedType(tag: DW_TAG_member, name: "rem", scope: !1170, file: !231, line: 79, baseType: !418, size: 64, offset: 64)
!1174 = !DIImportedEntity(tag: DW_TAG_imported_declaration, scope: !829, entity: !1175, file: !1044, line: 206)
!1175 = !DISubprogram(name: "_Exit", scope: !231, file: !231, line: 629, type: !1092, flags: DIFlagPrototyped | DIFlagNoReturn, spFlags: 0)
!1176 = !DIImportedEntity(tag: DW_TAG_imported_declaration, scope: !829, entity: !1177, file: !1044, line: 210)
!1177 = !DISubprogram(name: "llabs", scope: !231, file: !231, line: 844, type: !1178, flags: DIFlagPrototyped, spFlags: 0)
!1178 = !DISubroutineType(types: !1179)
!1179 = !{!418, !418}
!1180 = !DIImportedEntity(tag: DW_TAG_imported_declaration, scope: !829, entity: !1181, file: !1044, line: 216)
!1181 = !DISubprogram(name: "lldiv", scope: !231, file: !231, line: 858, type: !1182, flags: DIFlagPrototyped, spFlags: 0)
!1182 = !DISubroutineType(types: !1183)
!1183 = !{!1169, !418, !418}
!1184 = !DIImportedEntity(tag: DW_TAG_imported_declaration, scope: !829, entity: !1185, file: !1044, line: 227)
!1185 = !DISubprogram(name: "atoll", scope: !231, file: !231, line: 112, type: !1186, flags: DIFlagPrototyped, spFlags: 0)
!1186 = !DISubroutineType(types: !1187)
!1187 = !{!418, !474}
!1188 = !DIImportedEntity(tag: DW_TAG_imported_declaration, scope: !829, entity: !1189, file: !1044, line: 228)
!1189 = !DISubprogram(name: "strtoll", scope: !231, file: !231, line: 200, type: !1190, flags: DIFlagPrototyped, spFlags: 0)
!1190 = !DISubroutineType(types: !1191)
!1191 = !{!418, !647, !1148, !214}
!1192 = !DIImportedEntity(tag: DW_TAG_imported_declaration, scope: !829, entity: !1193, file: !1044, line: 229)
!1193 = !DISubprogram(name: "strtoull", scope: !231, file: !231, line: 205, type: !1194, flags: DIFlagPrototyped, spFlags: 0)
!1194 = !DISubroutineType(types: !1195)
!1195 = !{!841, !647, !1148, !214}
!1196 = !DIImportedEntity(tag: DW_TAG_imported_declaration, scope: !829, entity: !1197, file: !1044, line: 231)
!1197 = !DISubprogram(name: "strtof", scope: !231, file: !231, line: 123, type: !1198, flags: DIFlagPrototyped, spFlags: 0)
!1198 = !DISubroutineType(types: !1199)
!1199 = !{!34, !647, !1148}
!1200 = !DIImportedEntity(tag: DW_TAG_imported_declaration, scope: !829, entity: !1201, file: !1044, line: 232)
!1201 = !DISubprogram(name: "strtold", scope: !231, file: !231, line: 126, type: !1202, flags: DIFlagPrototyped, spFlags: 0)
!1202 = !DISubroutineType(types: !1203)
!1203 = !{!103, !647, !1148}
!1204 = !DIImportedEntity(tag: DW_TAG_imported_declaration, scope: !52, entity: !1169, file: !1044, line: 240)
!1205 = !DIImportedEntity(tag: DW_TAG_imported_declaration, scope: !52, entity: !1175, file: !1044, line: 242)
!1206 = !DIImportedEntity(tag: DW_TAG_imported_declaration, scope: !52, entity: !1177, file: !1044, line: 244)
!1207 = !DIImportedEntity(tag: DW_TAG_imported_declaration, scope: !52, entity: !1208, file: !1044, line: 245)
!1208 = !DISubprogram(name: "div", linkageName: "_ZN9__gnu_cxx3divExx", scope: !829, file: !1044, line: 213, type: !1182, flags: DIFlagPrototyped, spFlags: 0)
!1209 = !DIImportedEntity(tag: DW_TAG_imported_declaration, scope: !52, entity: !1181, file: !1044, line: 246)
!1210 = !DIImportedEntity(tag: DW_TAG_imported_declaration, scope: !52, entity: !1185, file: !1044, line: 248)
!1211 = !DIImportedEntity(tag: DW_TAG_imported_declaration, scope: !52, entity: !1197, file: !1044, line: 249)
!1212 = !DIImportedEntity(tag: DW_TAG_imported_declaration, scope: !52, entity: !1189, file: !1044, line: 250)
!1213 = !DIImportedEntity(tag: DW_TAG_imported_declaration, scope: !52, entity: !1193, file: !1044, line: 251)
!1214 = !DIImportedEntity(tag: DW_TAG_imported_declaration, scope: !52, entity: !1201, file: !1044, line: 252)
!1215 = !DIImportedEntity(tag: DW_TAG_imported_declaration, scope: !52, entity: !1216, file: !1218, line: 98)
!1216 = !DIDerivedType(tag: DW_TAG_typedef, name: "FILE", file: !1217, line: 7, baseType: !604)
!1217 = !DIFile(filename: "/usr/include/x86_64-linux-gnu/bits/types/FILE.h", directory: "")
!1218 = !DIFile(filename: "/usr/lib/gcc/x86_64-linux-gnu/10/../../../../include/c++/10/cstdio", directory: "")
!1219 = !DIImportedEntity(tag: DW_TAG_imported_declaration, scope: !52, entity: !1220, file: !1218, line: 99)
!1220 = !DIDerivedType(tag: DW_TAG_typedef, name: "fpos_t", file: !1221, line: 84, baseType: !1222)
!1221 = !DIFile(filename: "/usr/include/stdio.h", directory: "")
!1222 = !DIDerivedType(tag: DW_TAG_typedef, name: "__fpos_t", file: !1223, line: 14, baseType: !1224)
!1223 = !DIFile(filename: "/usr/include/x86_64-linux-gnu/bits/types/__fpos_t.h", directory: "")
!1224 = !DICompositeType(tag: DW_TAG_structure_type, name: "_G_fpos_t", file: !1223, line: 10, flags: DIFlagFwdDecl, identifier: "_ZTS9_G_fpos_t")
!1225 = !DIImportedEntity(tag: DW_TAG_imported_declaration, scope: !52, entity: !1226, file: !1218, line: 101)
!1226 = !DISubprogram(name: "clearerr", scope: !1221, file: !1221, line: 757, type: !1227, flags: DIFlagPrototyped, spFlags: 0)
!1227 = !DISubroutineType(types: !1228)
!1228 = !{null, !1229}
!1229 = !DIDerivedType(tag: DW_TAG_pointer_type, baseType: !1216, size: 64)
!1230 = !DIImportedEntity(tag: DW_TAG_imported_declaration, scope: !52, entity: !1231, file: !1218, line: 102)
!1231 = !DISubprogram(name: "fclose", scope: !1221, file: !1221, line: 213, type: !1232, flags: DIFlagPrototyped, spFlags: 0)
!1232 = !DISubroutineType(types: !1233)
!1233 = !{!214, !1229}
!1234 = !DIImportedEntity(tag: DW_TAG_imported_declaration, scope: !52, entity: !1235, file: !1218, line: 103)
!1235 = !DISubprogram(name: "feof", scope: !1221, file: !1221, line: 759, type: !1232, flags: DIFlagPrototyped, spFlags: 0)
!1236 = !DIImportedEntity(tag: DW_TAG_imported_declaration, scope: !52, entity: !1237, file: !1218, line: 104)
!1237 = !DISubprogram(name: "ferror", scope: !1221, file: !1221, line: 761, type: !1232, flags: DIFlagPrototyped, spFlags: 0)
!1238 = !DIImportedEntity(tag: DW_TAG_imported_declaration, scope: !52, entity: !1239, file: !1218, line: 105)
!1239 = !DISubprogram(name: "fflush", scope: !1221, file: !1221, line: 218, type: !1232, flags: DIFlagPrototyped, spFlags: 0)
!1240 = !DIImportedEntity(tag: DW_TAG_imported_declaration, scope: !52, entity: !1241, file: !1218, line: 106)
!1241 = !DISubprogram(name: "fgetc", scope: !1221, file: !1221, line: 485, type: !1232, flags: DIFlagPrototyped, spFlags: 0)
!1242 = !DIImportedEntity(tag: DW_TAG_imported_declaration, scope: !52, entity: !1243, file: !1218, line: 107)
!1243 = !DISubprogram(name: "fgetpos", scope: !1221, file: !1221, line: 731, type: !1244, flags: DIFlagPrototyped, spFlags: 0)
!1244 = !DISubroutineType(types: !1245)
!1245 = !{!214, !1246, !1247}
!1246 = !DIDerivedType(tag: DW_TAG_restrict_type, baseType: !1229)
!1247 = !DIDerivedType(tag: DW_TAG_restrict_type, baseType: !1248)
!1248 = !DIDerivedType(tag: DW_TAG_pointer_type, baseType: !1220, size: 64)
!1249 = !DIImportedEntity(tag: DW_TAG_imported_declaration, scope: !52, entity: !1250, file: !1218, line: 108)
!1250 = !DISubprogram(name: "fgets", scope: !1221, file: !1221, line: 564, type: !1251, flags: DIFlagPrototyped, spFlags: 0)
!1251 = !DISubroutineType(types: !1252)
!1252 = !{!717, !716, !214, !1246}
!1253 = !DIImportedEntity(tag: DW_TAG_imported_declaration, scope: !52, entity: !1254, file: !1218, line: 109)
!1254 = !DISubprogram(name: "fopen", scope: !1221, file: !1221, line: 246, type: !1255, flags: DIFlagPrototyped, spFlags: 0)
!1255 = !DISubroutineType(types: !1256)
!1256 = !{!1229, !647, !647}
!1257 = !DIImportedEntity(tag: DW_TAG_imported_declaration, scope: !52, entity: !1258, file: !1218, line: 110)
!1258 = !DISubprogram(name: "fprintf", scope: !1221, file: !1221, line: 326, type: !1259, flags: DIFlagPrototyped, spFlags: 0)
!1259 = !DISubroutineType(types: !1260)
!1260 = !{!214, !1246, !647, null}
!1261 = !DIImportedEntity(tag: DW_TAG_imported_declaration, scope: !52, entity: !1262, file: !1218, line: 111)
!1262 = !DISubprogram(name: "fputc", scope: !1221, file: !1221, line: 521, type: !1263, flags: DIFlagPrototyped, spFlags: 0)
!1263 = !DISubroutineType(types: !1264)
!1264 = !{!214, !214, !1229}
!1265 = !DIImportedEntity(tag: DW_TAG_imported_declaration, scope: !52, entity: !1266, file: !1218, line: 112)
!1266 = !DISubprogram(name: "fputs", scope: !1221, file: !1221, line: 626, type: !1267, flags: DIFlagPrototyped, spFlags: 0)
!1267 = !DISubroutineType(types: !1268)
!1268 = !{!214, !647, !1246}
!1269 = !DIImportedEntity(tag: DW_TAG_imported_declaration, scope: !52, entity: !1270, file: !1218, line: 113)
!1270 = !DISubprogram(name: "fread", scope: !1221, file: !1221, line: 646, type: !1271, flags: DIFlagPrototyped, spFlags: 0)
!1271 = !DISubroutineType(types: !1272)
!1272 = !{!644, !1273, !644, !644, !1246}
!1273 = !DIDerivedType(tag: DW_TAG_restrict_type, baseType: !694)
!1274 = !DIImportedEntity(tag: DW_TAG_imported_declaration, scope: !52, entity: !1275, file: !1218, line: 114)
!1275 = !DISubprogram(name: "freopen", scope: !1221, file: !1221, line: 252, type: !1276, flags: DIFlagPrototyped, spFlags: 0)
!1276 = !DISubroutineType(types: !1277)
!1277 = !{!1229, !647, !647, !1246}
!1278 = !DIImportedEntity(tag: DW_TAG_imported_declaration, scope: !52, entity: !1279, file: !1218, line: 115)
!1279 = !DISubprogram(name: "fscanf", linkageName: "__isoc99_fscanf", scope: !1221, file: !1221, line: 407, type: !1259, flags: DIFlagPrototyped, spFlags: 0)
!1280 = !DIImportedEntity(tag: DW_TAG_imported_declaration, scope: !52, entity: !1281, file: !1218, line: 116)
!1281 = !DISubprogram(name: "fseek", scope: !1221, file: !1221, line: 684, type: !1282, flags: DIFlagPrototyped, spFlags: 0)
!1282 = !DISubroutineType(types: !1283)
!1283 = !{!214, !1229, !455, !214}
!1284 = !DIImportedEntity(tag: DW_TAG_imported_declaration, scope: !52, entity: !1285, file: !1218, line: 117)
!1285 = !DISubprogram(name: "fsetpos", scope: !1221, file: !1221, line: 736, type: !1286, flags: DIFlagPrototyped, spFlags: 0)
!1286 = !DISubroutineType(types: !1287)
!1287 = !{!214, !1229, !1288}
!1288 = !DIDerivedType(tag: DW_TAG_pointer_type, baseType: !1289, size: 64)
!1289 = !DIDerivedType(tag: DW_TAG_const_type, baseType: !1220)
!1290 = !DIImportedEntity(tag: DW_TAG_imported_declaration, scope: !52, entity: !1291, file: !1218, line: 118)
!1291 = !DISubprogram(name: "ftell", scope: !1221, file: !1221, line: 689, type: !1292, flags: DIFlagPrototyped, spFlags: 0)
!1292 = !DISubroutineType(types: !1293)
!1293 = !{!455, !1229}
!1294 = !DIImportedEntity(tag: DW_TAG_imported_declaration, scope: !52, entity: !1295, file: !1218, line: 119)
!1295 = !DISubprogram(name: "fwrite", scope: !1221, file: !1221, line: 652, type: !1296, flags: DIFlagPrototyped, spFlags: 0)
!1296 = !DISubroutineType(types: !1297)
!1297 = !{!644, !1298, !644, !644, !1246}
!1298 = !DIDerivedType(tag: DW_TAG_restrict_type, baseType: !1076)
!1299 = !DIImportedEntity(tag: DW_TAG_imported_declaration, scope: !52, entity: !1300, file: !1218, line: 120)
!1300 = !DISubprogram(name: "getc", scope: !1221, file: !1221, line: 486, type: !1232, flags: DIFlagPrototyped, spFlags: 0)
!1301 = !DIImportedEntity(tag: DW_TAG_imported_declaration, scope: !52, entity: !1302, file: !1218, line: 121)
!1302 = !DISubprogram(name: "getchar", scope: !1221, file: !1221, line: 492, type: !1134, flags: DIFlagPrototyped, spFlags: 0)
!1303 = !DIImportedEntity(tag: DW_TAG_imported_declaration, scope: !52, entity: !1304, file: !1218, line: 126)
!1304 = !DISubprogram(name: "perror", scope: !1221, file: !1221, line: 775, type: !1305, flags: DIFlagPrototyped, spFlags: 0)
!1305 = !DISubroutineType(types: !1306)
!1306 = !{null, !474}
!1307 = !DIImportedEntity(tag: DW_TAG_imported_declaration, scope: !52, entity: !1308, file: !1218, line: 127)
!1308 = !DISubprogram(name: "printf", scope: !1221, file: !1221, line: 332, type: !1309, flags: DIFlagPrototyped, spFlags: 0)
!1309 = !DISubroutineType(types: !1310)
!1310 = !{!214, !647, null}
!1311 = !DIImportedEntity(tag: DW_TAG_imported_declaration, scope: !52, entity: !1312, file: !1218, line: 128)
!1312 = !DISubprogram(name: "putc", scope: !1221, file: !1221, line: 522, type: !1263, flags: DIFlagPrototyped, spFlags: 0)
!1313 = !DIImportedEntity(tag: DW_TAG_imported_declaration, scope: !52, entity: !1314, file: !1218, line: 129)
!1314 = !DISubprogram(name: "putchar", scope: !1221, file: !1221, line: 528, type: !232, flags: DIFlagPrototyped, spFlags: 0)
!1315 = !DIImportedEntity(tag: DW_TAG_imported_declaration, scope: !52, entity: !1316, file: !1218, line: 130)
!1316 = !DISubprogram(name: "puts", scope: !1221, file: !1221, line: 632, type: !1066, flags: DIFlagPrototyped, spFlags: 0)
!1317 = !DIImportedEntity(tag: DW_TAG_imported_declaration, scope: !52, entity: !1318, file: !1218, line: 131)
!1318 = !DISubprogram(name: "remove", scope: !1221, file: !1221, line: 146, type: !1066, flags: DIFlagPrototyped, spFlags: 0)
!1319 = !DIImportedEntity(tag: DW_TAG_imported_declaration, scope: !52, entity: !1320, file: !1218, line: 132)
!1320 = !DISubprogram(name: "rename", scope: !1221, file: !1221, line: 148, type: !1321, flags: DIFlagPrototyped, spFlags: 0)
!1321 = !DISubroutineType(types: !1322)
!1322 = !{!214, !474, !474}
!1323 = !DIImportedEntity(tag: DW_TAG_imported_declaration, scope: !52, entity: !1324, file: !1218, line: 133)
!1324 = !DISubprogram(name: "rewind", scope: !1221, file: !1221, line: 694, type: !1227, flags: DIFlagPrototyped, spFlags: 0)
!1325 = !DIImportedEntity(tag: DW_TAG_imported_declaration, scope: !52, entity: !1326, file: !1218, line: 134)
!1326 = !DISubprogram(name: "scanf", linkageName: "__isoc99_scanf", scope: !1221, file: !1221, line: 410, type: !1309, flags: DIFlagPrototyped, spFlags: 0)
!1327 = !DIImportedEntity(tag: DW_TAG_imported_declaration, scope: !52, entity: !1328, file: !1218, line: 135)
!1328 = !DISubprogram(name: "setbuf", scope: !1221, file: !1221, line: 304, type: !1329, flags: DIFlagPrototyped, spFlags: 0)
!1329 = !DISubroutineType(types: !1330)
!1330 = !{null, !1246, !716}
!1331 = !DIImportedEntity(tag: DW_TAG_imported_declaration, scope: !52, entity: !1332, file: !1218, line: 136)
!1332 = !DISubprogram(name: "setvbuf", scope: !1221, file: !1221, line: 308, type: !1333, flags: DIFlagPrototyped, spFlags: 0)
!1333 = !DISubroutineType(types: !1334)
!1334 = !{!214, !1246, !716, !214, !644}
!1335 = !DIImportedEntity(tag: DW_TAG_imported_declaration, scope: !52, entity: !1336, file: !1218, line: 137)
!1336 = !DISubprogram(name: "sprintf", scope: !1221, file: !1221, line: 334, type: !1337, flags: DIFlagPrototyped, spFlags: 0)
!1337 = !DISubroutineType(types: !1338)
!1338 = !{!214, !716, !647, null}
!1339 = !DIImportedEntity(tag: DW_TAG_imported_declaration, scope: !52, entity: !1340, file: !1218, line: 138)
!1340 = !DISubprogram(name: "sscanf", linkageName: "__isoc99_sscanf", scope: !1221, file: !1221, line: 412, type: !1341, flags: DIFlagPrototyped, spFlags: 0)
!1341 = !DISubroutineType(types: !1342)
!1342 = !{!214, !647, !647, null}
!1343 = !DIImportedEntity(tag: DW_TAG_imported_declaration, scope: !52, entity: !1344, file: !1218, line: 139)
!1344 = !DISubprogram(name: "tmpfile", scope: !1221, file: !1221, line: 173, type: !1345, flags: DIFlagPrototyped, spFlags: 0)
!1345 = !DISubroutineType(types: !1346)
!1346 = !{!1229}
!1347 = !DIImportedEntity(tag: DW_TAG_imported_declaration, scope: !52, entity: !1348, file: !1218, line: 141)
!1348 = !DISubprogram(name: "tmpnam", scope: !1221, file: !1221, line: 187, type: !1349, flags: DIFlagPrototyped, spFlags: 0)
!1349 = !DISubroutineType(types: !1350)
!1350 = !{!717, !717}
!1351 = !DIImportedEntity(tag: DW_TAG_imported_declaration, scope: !52, entity: !1352, file: !1218, line: 143)
!1352 = !DISubprogram(name: "ungetc", scope: !1221, file: !1221, line: 639, type: !1263, flags: DIFlagPrototyped, spFlags: 0)
!1353 = !DIImportedEntity(tag: DW_TAG_imported_declaration, scope: !52, entity: !1354, file: !1218, line: 144)
!1354 = !DISubprogram(name: "vfprintf", scope: !1221, file: !1221, line: 341, type: !1355, flags: DIFlagPrototyped, spFlags: 0)
!1355 = !DISubroutineType(types: !1356)
!1356 = !{!214, !1246, !647, !688}
!1357 = !DIImportedEntity(tag: DW_TAG_imported_declaration, scope: !52, entity: !1358, file: !1218, line: 145)
!1358 = !DISubprogram(name: "vprintf", scope: !1221, file: !1221, line: 347, type: !1359, flags: DIFlagPrototyped, spFlags: 0)
!1359 = !DISubroutineType(types: !1360)
!1360 = !{!214, !647, !688}
!1361 = !DIImportedEntity(tag: DW_TAG_imported_declaration, scope: !52, entity: !1362, file: !1218, line: 146)
!1362 = !DISubprogram(name: "vsprintf", scope: !1221, file: !1221, line: 349, type: !1363, flags: DIFlagPrototyped, spFlags: 0)
!1363 = !DISubroutineType(types: !1364)
!1364 = !{!214, !716, !647, !688}
!1365 = !DIImportedEntity(tag: DW_TAG_imported_declaration, scope: !829, entity: !1366, file: !1218, line: 175)
!1366 = !DISubprogram(name: "snprintf", scope: !1221, file: !1221, line: 354, type: !1367, flags: DIFlagPrototyped, spFlags: 0)
!1367 = !DISubroutineType(types: !1368)
!1368 = !{!214, !716, !644, !647, null}
!1369 = !DIImportedEntity(tag: DW_TAG_imported_declaration, scope: !829, entity: !1370, file: !1218, line: 176)
!1370 = !DISubprogram(name: "vfscanf", linkageName: "__isoc99_vfscanf", scope: !1221, file: !1221, line: 451, type: !1355, flags: DIFlagPrototyped, spFlags: 0)
!1371 = !DIImportedEntity(tag: DW_TAG_imported_declaration, scope: !829, entity: !1372, file: !1218, line: 177)
!1372 = !DISubprogram(name: "vscanf", linkageName: "__isoc99_vscanf", scope: !1221, file: !1221, line: 456, type: !1359, flags: DIFlagPrototyped, spFlags: 0)
!1373 = !DIImportedEntity(tag: DW_TAG_imported_declaration, scope: !829, entity: !1374, file: !1218, line: 178)
!1374 = !DISubprogram(name: "vsnprintf", scope: !1221, file: !1221, line: 358, type: !1375, flags: DIFlagPrototyped, spFlags: 0)
!1375 = !DISubroutineType(types: !1376)
!1376 = !{!214, !716, !644, !647, !688}
!1377 = !DIImportedEntity(tag: DW_TAG_imported_declaration, scope: !829, entity: !1378, file: !1218, line: 179)
!1378 = !DISubprogram(name: "vsscanf", linkageName: "__isoc99_vsscanf", scope: !1221, file: !1221, line: 459, type: !1379, flags: DIFlagPrototyped, spFlags: 0)
!1379 = !DISubroutineType(types: !1380)
!1380 = !{!214, !647, !647, !688}
!1381 = !DIImportedEntity(tag: DW_TAG_imported_declaration, scope: !52, entity: !1366, file: !1218, line: 185)
!1382 = !DIImportedEntity(tag: DW_TAG_imported_declaration, scope: !52, entity: !1370, file: !1218, line: 186)
!1383 = !DIImportedEntity(tag: DW_TAG_imported_declaration, scope: !52, entity: !1372, file: !1218, line: 187)
!1384 = !DIImportedEntity(tag: DW_TAG_imported_declaration, scope: !52, entity: !1374, file: !1218, line: 188)
!1385 = !DIImportedEntity(tag: DW_TAG_imported_declaration, scope: !52, entity: !1378, file: !1218, line: 189)
!1386 = !DIImportedEntity(tag: DW_TAG_imported_declaration, scope: !52, entity: !1387, file: !1391, line: 82)
!1387 = !DIDerivedType(tag: DW_TAG_typedef, name: "wctrans_t", file: !1388, line: 48, baseType: !1389)
!1388 = !DIFile(filename: "/usr/include/wctype.h", directory: "")
!1389 = !DIDerivedType(tag: DW_TAG_pointer_type, baseType: !1390, size: 64)
!1390 = !DIDerivedType(tag: DW_TAG_const_type, baseType: !928)
!1391 = !DIFile(filename: "/usr/lib/gcc/x86_64-linux-gnu/10/../../../../include/c++/10/cwctype", directory: "")
!1392 = !DIImportedEntity(tag: DW_TAG_imported_declaration, scope: !52, entity: !1393, file: !1391, line: 83)
!1393 = !DIDerivedType(tag: DW_TAG_typedef, name: "wctype_t", file: !1394, line: 38, baseType: !646)
!1394 = !DIFile(filename: "/usr/include/x86_64-linux-gnu/bits/wctype-wchar.h", directory: "")
!1395 = !DIImportedEntity(tag: DW_TAG_imported_declaration, scope: !52, entity: !590, file: !1391, line: 84)
!1396 = !DIImportedEntity(tag: DW_TAG_imported_declaration, scope: !52, entity: !1397, file: !1391, line: 86)
!1397 = !DISubprogram(name: "iswalnum", scope: !1394, file: !1394, line: 95, type: !792, flags: DIFlagPrototyped, spFlags: 0)
!1398 = !DIImportedEntity(tag: DW_TAG_imported_declaration, scope: !52, entity: !1399, file: !1391, line: 87)
!1399 = !DISubprogram(name: "iswalpha", scope: !1394, file: !1394, line: 101, type: !792, flags: DIFlagPrototyped, spFlags: 0)
!1400 = !DIImportedEntity(tag: DW_TAG_imported_declaration, scope: !52, entity: !1401, file: !1391, line: 89)
!1401 = !DISubprogram(name: "iswblank", scope: !1394, file: !1394, line: 146, type: !792, flags: DIFlagPrototyped, spFlags: 0)
!1402 = !DIImportedEntity(tag: DW_TAG_imported_declaration, scope: !52, entity: !1403, file: !1391, line: 91)
!1403 = !DISubprogram(name: "iswcntrl", scope: !1394, file: !1394, line: 104, type: !792, flags: DIFlagPrototyped, spFlags: 0)
!1404 = !DIImportedEntity(tag: DW_TAG_imported_declaration, scope: !52, entity: !1405, file: !1391, line: 92)
!1405 = !DISubprogram(name: "iswctype", scope: !1394, file: !1394, line: 159, type: !1406, flags: DIFlagPrototyped, spFlags: 0)
!1406 = !DISubroutineType(types: !1407)
!1407 = !{!214, !590, !1393}
!1408 = !DIImportedEntity(tag: DW_TAG_imported_declaration, scope: !52, entity: !1409, file: !1391, line: 93)
!1409 = !DISubprogram(name: "iswdigit", scope: !1394, file: !1394, line: 108, type: !792, flags: DIFlagPrototyped, spFlags: 0)
!1410 = !DIImportedEntity(tag: DW_TAG_imported_declaration, scope: !52, entity: !1411, file: !1391, line: 94)
!1411 = !DISubprogram(name: "iswgraph", scope: !1394, file: !1394, line: 112, type: !792, flags: DIFlagPrototyped, spFlags: 0)
!1412 = !DIImportedEntity(tag: DW_TAG_imported_declaration, scope: !52, entity: !1413, file: !1391, line: 95)
!1413 = !DISubprogram(name: "iswlower", scope: !1394, file: !1394, line: 117, type: !792, flags: DIFlagPrototyped, spFlags: 0)
!1414 = !DIImportedEntity(tag: DW_TAG_imported_declaration, scope: !52, entity: !1415, file: !1391, line: 96)
!1415 = !DISubprogram(name: "iswprint", scope: !1394, file: !1394, line: 120, type: !792, flags: DIFlagPrototyped, spFlags: 0)
!1416 = !DIImportedEntity(tag: DW_TAG_imported_declaration, scope: !52, entity: !1417, file: !1391, line: 97)
!1417 = !DISubprogram(name: "iswpunct", scope: !1394, file: !1394, line: 125, type: !792, flags: DIFlagPrototyped, spFlags: 0)
!1418 = !DIImportedEntity(tag: DW_TAG_imported_declaration, scope: !52, entity: !1419, file: !1391, line: 98)
!1419 = !DISubprogram(name: "iswspace", scope: !1394, file: !1394, line: 130, type: !792, flags: DIFlagPrototyped, spFlags: 0)
!1420 = !DIImportedEntity(tag: DW_TAG_imported_declaration, scope: !52, entity: !1421, file: !1391, line: 99)
!1421 = !DISubprogram(name: "iswupper", scope: !1394, file: !1394, line: 135, type: !792, flags: DIFlagPrototyped, spFlags: 0)
!1422 = !DIImportedEntity(tag: DW_TAG_imported_declaration, scope: !52, entity: !1423, file: !1391, line: 100)
!1423 = !DISubprogram(name: "iswxdigit", scope: !1394, file: !1394, line: 140, type: !792, flags: DIFlagPrototyped, spFlags: 0)
!1424 = !DIImportedEntity(tag: DW_TAG_imported_declaration, scope: !52, entity: !1425, file: !1391, line: 101)
!1425 = !DISubprogram(name: "towctrans", scope: !1388, file: !1388, line: 55, type: !1426, flags: DIFlagPrototyped, spFlags: 0)
!1426 = !DISubroutineType(types: !1427)
!1427 = !{!590, !590, !1387}
!1428 = !DIImportedEntity(tag: DW_TAG_imported_declaration, scope: !52, entity: !1429, file: !1391, line: 102)
!1429 = !DISubprogram(name: "towlower", scope: !1394, file: !1394, line: 166, type: !1430, flags: DIFlagPrototyped, spFlags: 0)
!1430 = !DISubroutineType(types: !1431)
!1431 = !{!590, !590}
!1432 = !DIImportedEntity(tag: DW_TAG_imported_declaration, scope: !52, entity: !1433, file: !1391, line: 103)
!1433 = !DISubprogram(name: "towupper", scope: !1394, file: !1394, line: 169, type: !1430, flags: DIFlagPrototyped, spFlags: 0)
!1434 = !DIImportedEntity(tag: DW_TAG_imported_declaration, scope: !52, entity: !1435, file: !1391, line: 104)
!1435 = !DISubprogram(name: "wctrans", scope: !1388, file: !1388, line: 52, type: !1436, flags: DIFlagPrototyped, spFlags: 0)
!1436 = !DISubroutineType(types: !1437)
!1437 = !{!1387, !474}
!1438 = !DIImportedEntity(tag: DW_TAG_imported_declaration, scope: !52, entity: !1439, file: !1391, line: 105)
!1439 = !DISubprogram(name: "wctype", scope: !1394, file: !1394, line: 155, type: !1440, flags: DIFlagPrototyped, spFlags: 0)
!1440 = !DISubroutineType(types: !1441)
!1441 = !{!1393, !474}
!1442 = !DIImportedEntity(tag: DW_TAG_imported_declaration, name: "deal_II_numbers", scope: !3, entity: !2, file: !8, line: 302)
!1443 = !{i32 7, !"Dwarf Version", i32 4}
!1444 = !{i32 2, !"Debug Info Version", i32 3}
!1445 = !{i32 1, !"wchar_size", i32 4}
!1446 = !{!"clang version 10.0.1 (https://github.com/svkeerthy/IR2Vec-LoopOptimizationFramework.git 561ac470e63b728263a0ac06ef987886ac648486)"}
!1447 = distinct !DISubprogram(name: "conjugate", linkageName: "_ZN6dealii7numbers12NumberTraitsIdE9conjugateERKd", scope: !9, file: !8, line: 311, type: !12, scopeLine: 312, flags: DIFlagPrototyped, spFlags: DISPFlagDefinition, unit: !210, declaration: !11, retainedNodes: !1448)
!1448 = !{}
!1449 = !DILocalVariable(name: "x", arg: 1, scope: !1447, file: !8, line: 207, type: !14)
!1450 = !DILocation(line: 207, column: 47, scope: !1447)
!1451 = !DILocation(line: 313, column: 12, scope: !1447)
!1452 = !DILocation(line: 313, column: 5, scope: !1447)
!1453 = distinct !DISubprogram(name: "abs_square", linkageName: "_ZN6dealii7numbers12NumberTraitsIdE10abs_squareERKd", scope: !9, file: !8, line: 320, type: !18, scopeLine: 321, flags: DIFlagPrototyped, spFlags: DISPFlagDefinition, unit: !210, declaration: !17, retainedNodes: !1448)
!1454 = !DILocalVariable(name: "x", arg: 1, scope: !1453, file: !8, line: 218, type: !14)
!1455 = !DILocation(line: 218, column: 43, scope: !1453)
!1456 = !DILocation(line: 322, column: 12, scope: !1453)
!1457 = !DILocation(line: 322, column: 16, scope: !1453)
!1458 = !DILocation(line: 322, column: 14, scope: !1453)
!1459 = !DILocation(line: 322, column: 5, scope: !1453)
!1460 = distinct !DISubprogram(name: "abs", linkageName: "_ZN6dealii7numbers12NumberTraitsIdE3absERKd", scope: !9, file: !8, line: 329, type: !18, scopeLine: 330, flags: DIFlagPrototyped, spFlags: DISPFlagDefinition, unit: !210, declaration: !21, retainedNodes: !1448)
!1461 = !DILocalVariable(name: "x", arg: 1, scope: !1460, file: !8, line: 225, type: !14)
!1462 = !DILocation(line: 225, column: 36, scope: !1460)
!1463 = !DILocation(line: 331, column: 22, scope: !1460)
!1464 = !DILocation(line: 331, column: 12, scope: !1460)
!1465 = !DILocation(line: 331, column: 5, scope: !1460)
!1466 = distinct !DISubprogram(name: "conjugate", linkageName: "_ZN6dealii7numbers12NumberTraitsIfE9conjugateERKf", scope: !27, file: !8, line: 311, type: !30, scopeLine: 312, flags: DIFlagPrototyped, spFlags: DISPFlagDefinition, unit: !210, declaration: !29, retainedNodes: !1448)
!1467 = !DILocalVariable(name: "x", arg: 1, scope: !1466, file: !8, line: 207, type: !32)
!1468 = !DILocation(line: 207, column: 47, scope: !1466)
!1469 = !DILocation(line: 313, column: 12, scope: !1466)
!1470 = !DILocation(line: 313, column: 5, scope: !1466)
!1471 = distinct !DISubprogram(name: "abs_square", linkageName: "_ZN6dealii7numbers12NumberTraitsIfE10abs_squareERKf", scope: !27, file: !8, line: 320, type: !36, scopeLine: 321, flags: DIFlagPrototyped, spFlags: DISPFlagDefinition, unit: !210, declaration: !35, retainedNodes: !1448)
!1472 = !DILocalVariable(name: "x", arg: 1, scope: !1471, file: !8, line: 218, type: !32)
!1473 = !DILocation(line: 218, column: 43, scope: !1471)
!1474 = !DILocation(line: 322, column: 12, scope: !1471)
!1475 = !DILocation(line: 322, column: 16, scope: !1471)
!1476 = !DILocation(line: 322, column: 14, scope: !1471)
!1477 = !DILocation(line: 322, column: 5, scope: !1471)
!1478 = distinct !DISubprogram(name: "abs", linkageName: "_ZN6dealii7numbers12NumberTraitsIfE3absERKf", scope: !27, file: !8, line: 329, type: !36, scopeLine: 330, flags: DIFlagPrototyped, spFlags: DISPFlagDefinition, unit: !210, declaration: !39, retainedNodes: !1448)
!1479 = !DILocalVariable(name: "x", arg: 1, scope: !1478, file: !8, line: 225, type: !32)
!1480 = !DILocation(line: 225, column: 36, scope: !1478)
!1481 = !DILocation(line: 331, column: 22, scope: !1478)
!1482 = !DILocation(line: 331, column: 12, scope: !1478)
!1483 = !DILocation(line: 331, column: 5, scope: !1478)
!1484 = distinct !DISubprogram(name: "fabs", linkageName: "_ZSt4fabsf", scope: !52, file: !240, line: 241, type: !302, scopeLine: 242, flags: DIFlagPrototyped, spFlags: DISPFlagDefinition, unit: !210, retainedNodes: !1448)
!1485 = !DILocalVariable(name: "__x", arg: 1, scope: !1484, file: !240, line: 241, type: !34)
!1486 = !DILocation(line: 241, column: 14, scope: !1484)
!1487 = !DILocation(line: 242, column: 28, scope: !1484)
!1488 = !DILocation(line: 242, column: 12, scope: !1484)
!1489 = !DILocation(line: 242, column: 5, scope: !1484)
!1490 = distinct !DISubprogram(name: "conjugate", linkageName: "_ZN6dealii7numbers12NumberTraitsISt7complexIdEE9conjugateERKS3_", scope: !45, file: !8, line: 338, type: !48, scopeLine: 339, flags: DIFlagPrototyped, spFlags: DISPFlagDefinition, unit: !210, declaration: !47, retainedNodes: !1448)
!1491 = !DILocalVariable(name: "x", arg: 1, scope: !1490, file: !8, line: 268, type: !84)
!1492 = !DILocation(line: 268, column: 67, scope: !1490)
!1493 = !DILocation(line: 340, column: 22, scope: !1490)
!1494 = !DILocation(line: 340, column: 12, scope: !1490)
!1495 = !DILocation(line: 340, column: 5, scope: !1490)
!1496 = distinct !DISubprogram(name: "conj<double>", linkageName: "_ZSt4conjIdESt7complexIT_ERKS2_", scope: !52, file: !51, line: 708, type: !48, scopeLine: 709, flags: DIFlagPrototyped, spFlags: DISPFlagDefinition, unit: !210, templateParams: !186, retainedNodes: !1448)
!1497 = !DILocalVariable(name: "__z", arg: 1, scope: !1496, file: !51, line: 708, type: !84)
!1498 = !DILocation(line: 708, column: 30, scope: !1496)
!1499 = !DILocation(line: 709, column: 27, scope: !1496)
!1500 = !DILocation(line: 709, column: 31, scope: !1496)
!1501 = !DILocation(line: 709, column: 40, scope: !1496)
!1502 = !DILocation(line: 709, column: 44, scope: !1496)
!1503 = !DILocation(line: 709, column: 39, scope: !1496)
!1504 = !DILocation(line: 709, column: 14, scope: !1496)
!1505 = !DILocation(line: 709, column: 7, scope: !1496)
!1506 = distinct !DISubprogram(name: "abs_square", linkageName: "_ZN6dealii7numbers12NumberTraitsISt7complexIdEE10abs_squareERKS3_", scope: !45, file: !8, line: 356, type: !189, scopeLine: 357, flags: DIFlagPrototyped, spFlags: DISPFlagDefinition, unit: !210, declaration: !188, retainedNodes: !1448)
!1507 = !DILocalVariable(name: "x", arg: 1, scope: !1506, file: !8, line: 280, type: !84)
!1508 = !DILocation(line: 280, column: 57, scope: !1506)
!1509 = !DILocation(line: 358, column: 23, scope: !1506)
!1510 = !DILocation(line: 358, column: 12, scope: !1506)
!1511 = !DILocation(line: 358, column: 5, scope: !1506)
!1512 = distinct !DISubprogram(name: "norm<double>", linkageName: "_ZSt4normIdET_RKSt7complexIS0_E", scope: !52, file: !51, line: 692, type: !1513, scopeLine: 693, flags: DIFlagPrototyped, spFlags: DISPFlagDefinition, unit: !210, templateParams: !186, retainedNodes: !1448)
!1513 = !DISubroutineType(types: !1514)
!1514 = !{!16, !84}
!1515 = !DILocalVariable(name: "__z", arg: 1, scope: !1512, file: !51, line: 692, type: !84)
!1516 = !DILocation(line: 692, column: 30, scope: !1512)
!1517 = !DILocation(line: 695, column: 36, scope: !1512)
!1518 = !DILocation(line: 694, column: 14, scope: !1512)
!1519 = !DILocation(line: 694, column: 7, scope: !1512)
!1520 = distinct !DISubprogram(name: "abs", linkageName: "_ZN6dealii7numbers12NumberTraitsISt7complexIdEE3absERKS3_", scope: !45, file: !8, line: 347, type: !189, scopeLine: 348, flags: DIFlagPrototyped, spFlags: DISPFlagDefinition, unit: !210, declaration: !192, retainedNodes: !1448)
!1521 = !DILocalVariable(name: "x", arg: 1, scope: !1520, file: !8, line: 288, type: !84)
!1522 = !DILocation(line: 288, column: 50, scope: !1520)
!1523 = !DILocation(line: 349, column: 21, scope: !1520)
!1524 = !DILocation(line: 349, column: 12, scope: !1520)
!1525 = !DILocation(line: 349, column: 5, scope: !1520)
!1526 = distinct !DISubprogram(name: "abs<double>", linkageName: "_ZSt3absIdET_RKSt7complexIS0_E", scope: !52, file: !51, line: 625, type: !1513, scopeLine: 625, flags: DIFlagPrototyped, spFlags: DISPFlagDefinition, unit: !210, templateParams: !186, retainedNodes: !1448)
!1527 = !DILocalVariable(name: "__z", arg: 1, scope: !1526, file: !51, line: 625, type: !84)
!1528 = !DILocation(line: 625, column: 29, scope: !1526)
!1529 = !DILocation(line: 625, column: 57, scope: !1526)
!1530 = !DILocation(line: 625, column: 61, scope: !1526)
!1531 = !DILocation(line: 625, column: 43, scope: !1526)
!1532 = !DILocation(line: 625, column: 36, scope: !1526)
!1533 = distinct !DISubprogram(name: "conjugate", linkageName: "_ZN6dealii7numbers12NumberTraitsISt7complexIfEE9conjugateERKS3_", scope: !198, file: !8, line: 338, type: !201, scopeLine: 339, flags: DIFlagPrototyped, spFlags: DISPFlagDefinition, unit: !210, declaration: !200, retainedNodes: !1448)
!1534 = !DILocalVariable(name: "x", arg: 1, scope: !1533, file: !8, line: 268, type: !67)
!1535 = !DILocation(line: 268, column: 67, scope: !1533)
!1536 = !DILocation(line: 340, column: 22, scope: !1533)
!1537 = !DILocation(line: 340, column: 12, scope: !1533)
!1538 = !DILocation(line: 340, column: 5, scope: !1533)
!1539 = distinct !DISubprogram(name: "conj<float>", linkageName: "_ZSt4conjIfESt7complexIT_ERKS2_", scope: !52, file: !51, line: 708, type: !201, scopeLine: 709, flags: DIFlagPrototyped, spFlags: DISPFlagDefinition, unit: !210, templateParams: !158, retainedNodes: !1448)
!1540 = !DILocalVariable(name: "__z", arg: 1, scope: !1539, file: !51, line: 708, type: !67)
!1541 = !DILocation(line: 708, column: 30, scope: !1539)
!1542 = !DILocation(line: 709, column: 27, scope: !1539)
!1543 = !DILocation(line: 709, column: 31, scope: !1539)
!1544 = !DILocation(line: 709, column: 40, scope: !1539)
!1545 = !DILocation(line: 709, column: 44, scope: !1539)
!1546 = !DILocation(line: 709, column: 39, scope: !1539)
!1547 = !DILocation(line: 709, column: 14, scope: !1539)
!1548 = !DILocation(line: 709, column: 7, scope: !1539)
!1549 = distinct !DISubprogram(name: "abs_square", linkageName: "_ZN6dealii7numbers12NumberTraitsISt7complexIfEE10abs_squareERKS3_", scope: !198, file: !8, line: 356, type: !204, scopeLine: 357, flags: DIFlagPrototyped, spFlags: DISPFlagDefinition, unit: !210, declaration: !203, retainedNodes: !1448)
!1550 = !DILocalVariable(name: "x", arg: 1, scope: !1549, file: !8, line: 280, type: !67)
!1551 = !DILocation(line: 280, column: 57, scope: !1549)
!1552 = !DILocation(line: 358, column: 23, scope: !1549)
!1553 = !DILocation(line: 358, column: 12, scope: !1549)
!1554 = !DILocation(line: 358, column: 5, scope: !1549)
!1555 = distinct !DISubprogram(name: "norm<float>", linkageName: "_ZSt4normIfET_RKSt7complexIS0_E", scope: !52, file: !51, line: 692, type: !1556, scopeLine: 693, flags: DIFlagPrototyped, spFlags: DISPFlagDefinition, unit: !210, templateParams: !158, retainedNodes: !1448)
!1556 = !DISubroutineType(types: !1557)
!1557 = !{!34, !67}
!1558 = !DILocalVariable(name: "__z", arg: 1, scope: !1555, file: !51, line: 692, type: !67)
!1559 = !DILocation(line: 692, column: 30, scope: !1555)
!1560 = !DILocation(line: 695, column: 36, scope: !1555)
!1561 = !DILocation(line: 694, column: 14, scope: !1555)
!1562 = !DILocation(line: 694, column: 7, scope: !1555)
!1563 = distinct !DISubprogram(name: "abs", linkageName: "_ZN6dealii7numbers12NumberTraitsISt7complexIfEE3absERKS3_", scope: !198, file: !8, line: 347, type: !204, scopeLine: 348, flags: DIFlagPrototyped, spFlags: DISPFlagDefinition, unit: !210, declaration: !207, retainedNodes: !1448)
!1564 = !DILocalVariable(name: "x", arg: 1, scope: !1563, file: !8, line: 288, type: !67)
!1565 = !DILocation(line: 288, column: 50, scope: !1563)
!1566 = !DILocation(line: 349, column: 21, scope: !1563)
!1567 = !DILocation(line: 349, column: 12, scope: !1563)
!1568 = !DILocation(line: 349, column: 5, scope: !1563)
!1569 = distinct !DISubprogram(name: "abs<float>", linkageName: "_ZSt3absIfET_RKSt7complexIS0_E", scope: !52, file: !51, line: 625, type: !1556, scopeLine: 625, flags: DIFlagPrototyped, spFlags: DISPFlagDefinition, unit: !210, templateParams: !158, retainedNodes: !1448)
!1570 = !DILocalVariable(name: "__z", arg: 1, scope: !1569, file: !51, line: 625, type: !67)
!1571 = !DILocation(line: 625, column: 29, scope: !1569)
!1572 = !DILocation(line: 625, column: 57, scope: !1569)
!1573 = !DILocation(line: 625, column: 61, scope: !1569)
!1574 = !DILocation(line: 625, column: 43, scope: !1569)
!1575 = !DILocation(line: 625, column: 36, scope: !1569)
!1576 = distinct !DISubprogram(name: "is_finite", linkageName: "_ZN6dealii7numbers9is_finiteEd", scope: !2, file: !4, line: 24, type: !1577, scopeLine: 25, flags: DIFlagPrototyped, spFlags: DISPFlagDefinition, unit: !210, retainedNodes: !1448)
!1577 = !DISubroutineType(types: !1578)
!1578 = !{!6, !15}
!1579 = !DILocalVariable(name: "x", arg: 1, scope: !1576, file: !4, line: 24, type: !15)
!1580 = !DILocation(line: 24, column: 32, scope: !1576)
!1581 = !DILocation(line: 32, column: 14, scope: !1576)
!1582 = !DILocation(line: 32, column: 20, scope: !1576)
!1583 = !DILocation(line: 32, column: 19, scope: !1576)
!1584 = !DILocation(line: 32, column: 16, scope: !1576)
!1585 = !DILocation(line: 33, column: 6, scope: !1576)
!1586 = !DILocation(line: 34, column: 7, scope: !1576)
!1587 = !DILocation(line: 34, column: 12, scope: !1576)
!1588 = !DILocation(line: 34, column: 9, scope: !1576)
!1589 = !DILocation(line: 0, scope: !1576)
!1590 = !DILocation(line: 32, column: 5, scope: !1576)
!1591 = distinct !DISubprogram(name: "max", linkageName: "_ZNSt14numeric_limitsIdE3maxEv", scope: !1592, file: !213, line: 1743, type: !1621, scopeLine: 1743, flags: DIFlagPrototyped, spFlags: DISPFlagDefinition, unit: !210, declaration: !1623, retainedNodes: !1448)
!1592 = distinct !DICompositeType(tag: DW_TAG_structure_type, name: "numeric_limits<double>", scope: !52, file: !213, line: 1735, size: 8, flags: DIFlagTypePassByValue, elements: !1593, templateParams: !186, identifier: "_ZTSSt14numeric_limitsIdE")
!1593 = !{!1594, !1595, !1597, !1598, !1599, !1600, !1601, !1602, !1603, !1604, !1605, !1606, !1607, !1608, !1609, !1610, !1612, !1613, !1614, !1615, !1616, !1617, !1618, !1620, !1623, !1624, !1625, !1626, !1627, !1628, !1629, !1630}
!1594 = !DIDerivedType(tag: DW_TAG_member, name: "is_specialized", scope: !1592, file: !213, line: 1737, baseType: !5, flags: DIFlagStaticMember, extraData: i1 true)
!1595 = !DIDerivedType(tag: DW_TAG_member, name: "digits", scope: !1592, file: !213, line: 1750, baseType: !1596, flags: DIFlagStaticMember, extraData: i32 53)
!1596 = !DIDerivedType(tag: DW_TAG_const_type, baseType: !214)
!1597 = !DIDerivedType(tag: DW_TAG_member, name: "digits10", scope: !1592, file: !213, line: 1751, baseType: !1596, flags: DIFlagStaticMember, extraData: i32 15)
!1598 = !DIDerivedType(tag: DW_TAG_member, name: "max_digits10", scope: !1592, file: !213, line: 1753, baseType: !1596, flags: DIFlagStaticMember, extraData: i32 17)
!1599 = !DIDerivedType(tag: DW_TAG_member, name: "is_signed", scope: !1592, file: !213, line: 1756, baseType: !5, flags: DIFlagStaticMember, extraData: i1 true)
!1600 = !DIDerivedType(tag: DW_TAG_member, name: "is_integer", scope: !1592, file: !213, line: 1757, baseType: !5, flags: DIFlagStaticMember, extraData: i1 false)
!1601 = !DIDerivedType(tag: DW_TAG_member, name: "is_exact", scope: !1592, file: !213, line: 1758, baseType: !5, flags: DIFlagStaticMember, extraData: i1 false)
!1602 = !DIDerivedType(tag: DW_TAG_member, name: "radix", scope: !1592, file: !213, line: 1759, baseType: !1596, flags: DIFlagStaticMember, extraData: i32 2)
!1603 = !DIDerivedType(tag: DW_TAG_member, name: "min_exponent", scope: !1592, file: !213, line: 1767, baseType: !1596, flags: DIFlagStaticMember, extraData: i32 -1021)
!1604 = !DIDerivedType(tag: DW_TAG_member, name: "min_exponent10", scope: !1592, file: !213, line: 1768, baseType: !1596, flags: DIFlagStaticMember, extraData: i32 -307)
!1605 = !DIDerivedType(tag: DW_TAG_member, name: "max_exponent", scope: !1592, file: !213, line: 1769, baseType: !1596, flags: DIFlagStaticMember, extraData: i32 1024)
!1606 = !DIDerivedType(tag: DW_TAG_member, name: "max_exponent10", scope: !1592, file: !213, line: 1770, baseType: !1596, flags: DIFlagStaticMember, extraData: i32 308)
!1607 = !DIDerivedType(tag: DW_TAG_member, name: "has_infinity", scope: !1592, file: !213, line: 1772, baseType: !5, flags: DIFlagStaticMember, extraData: i1 true)
!1608 = !DIDerivedType(tag: DW_TAG_member, name: "has_quiet_NaN", scope: !1592, file: !213, line: 1773, baseType: !5, flags: DIFlagStaticMember, extraData: i1 true)
!1609 = !DIDerivedType(tag: DW_TAG_member, name: "has_signaling_NaN", scope: !1592, file: !213, line: 1774, baseType: !5, flags: DIFlagStaticMember, extraData: i1 true)
!1610 = !DIDerivedType(tag: DW_TAG_member, name: "has_denorm", scope: !1592, file: !213, line: 1775, baseType: !1611, flags: DIFlagStaticMember, extraData: i32 1)
!1611 = !DIDerivedType(tag: DW_TAG_const_type, baseType: !212)
!1612 = !DIDerivedType(tag: DW_TAG_member, name: "has_denorm_loss", scope: !1592, file: !213, line: 1777, baseType: !5, flags: DIFlagStaticMember, extraData: i1 false)
!1613 = !DIDerivedType(tag: DW_TAG_member, name: "is_iec559", scope: !1592, file: !213, line: 1792, baseType: !5, flags: DIFlagStaticMember, extraData: i1 true)
!1614 = !DIDerivedType(tag: DW_TAG_member, name: "is_bounded", scope: !1592, file: !213, line: 1794, baseType: !5, flags: DIFlagStaticMember, extraData: i1 true)
!1615 = !DIDerivedType(tag: DW_TAG_member, name: "is_modulo", scope: !1592, file: !213, line: 1795, baseType: !5, flags: DIFlagStaticMember, extraData: i1 false)
!1616 = !DIDerivedType(tag: DW_TAG_member, name: "traps", scope: !1592, file: !213, line: 1797, baseType: !5, flags: DIFlagStaticMember, extraData: i1 false)
!1617 = !DIDerivedType(tag: DW_TAG_member, name: "tinyness_before", scope: !1592, file: !213, line: 1798, baseType: !5, flags: DIFlagStaticMember, extraData: i1 false)
!1618 = !DIDerivedType(tag: DW_TAG_member, name: "round_style", scope: !1592, file: !213, line: 1800, baseType: !1619, flags: DIFlagStaticMember, extraData: i32 1)
!1619 = !DIDerivedType(tag: DW_TAG_const_type, baseType: !219)
!1620 = !DISubprogram(name: "min", linkageName: "_ZNSt14numeric_limitsIdE3minEv", scope: !1592, file: !213, line: 1740, type: !1621, scopeLine: 1740, flags: DIFlagPrototyped | DIFlagStaticMember, spFlags: 0)
!1621 = !DISubroutineType(types: !1622)
!1622 = !{!16}
!1623 = !DISubprogram(name: "max", linkageName: "_ZNSt14numeric_limitsIdE3maxEv", scope: !1592, file: !213, line: 1743, type: !1621, scopeLine: 1743, flags: DIFlagPrototyped | DIFlagStaticMember, spFlags: 0)
!1624 = !DISubprogram(name: "lowest", linkageName: "_ZNSt14numeric_limitsIdE6lowestEv", scope: !1592, file: !213, line: 1747, type: !1621, scopeLine: 1747, flags: DIFlagPrototyped | DIFlagStaticMember, spFlags: 0)
!1625 = !DISubprogram(name: "epsilon", linkageName: "_ZNSt14numeric_limitsIdE7epsilonEv", scope: !1592, file: !213, line: 1762, type: !1621, scopeLine: 1762, flags: DIFlagPrototyped | DIFlagStaticMember, spFlags: 0)
!1626 = !DISubprogram(name: "round_error", linkageName: "_ZNSt14numeric_limitsIdE11round_errorEv", scope: !1592, file: !213, line: 1765, type: !1621, scopeLine: 1765, flags: DIFlagPrototyped | DIFlagStaticMember, spFlags: 0)
!1627 = !DISubprogram(name: "infinity", linkageName: "_ZNSt14numeric_limitsIdE8infinityEv", scope: !1592, file: !213, line: 1781, type: !1621, scopeLine: 1781, flags: DIFlagPrototyped | DIFlagStaticMember, spFlags: 0)
!1628 = !DISubprogram(name: "quiet_NaN", linkageName: "_ZNSt14numeric_limitsIdE9quiet_NaNEv", scope: !1592, file: !213, line: 1784, type: !1621, scopeLine: 1784, flags: DIFlagPrototyped | DIFlagStaticMember, spFlags: 0)
!1629 = !DISubprogram(name: "signaling_NaN", linkageName: "_ZNSt14numeric_limitsIdE13signaling_NaNEv", scope: !1592, file: !213, line: 1787, type: !1621, scopeLine: 1787, flags: DIFlagPrototyped | DIFlagStaticMember, spFlags: 0)
!1630 = !DISubprogram(name: "denorm_min", linkageName: "_ZNSt14numeric_limitsIdE10denorm_minEv", scope: !1592, file: !213, line: 1790, type: !1621, scopeLine: 1790, flags: DIFlagPrototyped | DIFlagStaticMember, spFlags: 0)
!1631 = !DILocation(line: 1743, column: 37, scope: !1591)
!1632 = distinct !DISubprogram(name: "is_finite", linkageName: "_ZN6dealii7numbers9is_finiteESt7complexIdE", scope: !2, file: !4, line: 40, type: !1633, scopeLine: 41, flags: DIFlagPrototyped, spFlags: DISPFlagDefinition, unit: !210, retainedNodes: !1448)
!1633 = !DISubroutineType(types: !1634)
!1634 = !{!6, !85}
!1635 = !DILocalVariable(name: "x", arg: 1, scope: !1632, file: !4, line: 40, type: !85)
!1636 = !DILocation(line: 40, column: 46, scope: !1632)
!1637 = !DILocation(line: 44, column: 27, scope: !1632)
!1638 = !DILocation(line: 44, column: 14, scope: !1632)
!1639 = !DILocation(line: 45, column: 14, scope: !1632)
!1640 = !DILocation(line: 46, column: 27, scope: !1632)
!1641 = !DILocation(line: 46, column: 14, scope: !1632)
!1642 = !DILocation(line: 0, scope: !1632)
!1643 = !DILocation(line: 44, column: 5, scope: !1632)
!1644 = distinct !DISubprogram(name: "real", linkageName: "_ZNKSt7complexIdE4realB5cxx11Ev", scope: !50, file: !51, line: 1254, type: !164, scopeLine: 1254, flags: DIFlagPrototyped, spFlags: DISPFlagDefinition, unit: !210, declaration: !163, retainedNodes: !1448)
!1645 = !DILocalVariable(name: "this", arg: 1, scope: !1644, type: !1646, flags: DIFlagArtificial | DIFlagObjectPointer)
!1646 = !DIDerivedType(tag: DW_TAG_pointer_type, baseType: !85, size: 64)
!1647 = !DILocation(line: 0, scope: !1644)
!1648 = !DILocation(line: 1254, column: 38, scope: !1644)
!1649 = !DILocation(line: 1254, column: 29, scope: !1644)
!1650 = !DILocation(line: 1254, column: 22, scope: !1644)
!1651 = distinct !DISubprogram(name: "imag", linkageName: "_ZNKSt7complexIdE4imagB5cxx11Ev", scope: !50, file: !51, line: 1258, type: !164, scopeLine: 1258, flags: DIFlagPrototyped, spFlags: DISPFlagDefinition, unit: !210, declaration: !167, retainedNodes: !1448)
!1652 = !DILocalVariable(name: "this", arg: 1, scope: !1651, type: !1646, flags: DIFlagArtificial | DIFlagObjectPointer)
!1653 = !DILocation(line: 0, scope: !1651)
!1654 = !DILocation(line: 1258, column: 38, scope: !1651)
!1655 = !DILocation(line: 1258, column: 29, scope: !1651)
!1656 = !DILocation(line: 1258, column: 22, scope: !1651)
!1657 = distinct !DISubprogram(name: "is_finite", linkageName: "_ZN6dealii7numbers9is_finiteESt7complexIfE", scope: !2, file: !4, line: 51, type: !1658, scopeLine: 52, flags: DIFlagPrototyped, spFlags: DISPFlagDefinition, unit: !210, retainedNodes: !1448)
!1658 = !DISubroutineType(types: !1659)
!1659 = !{!6, !68}
!1660 = !DILocalVariable(name: "x", arg: 1, scope: !1657, file: !4, line: 51, type: !68)
!1661 = !DILocation(line: 51, column: 45, scope: !1657)
!1662 = !DILocation(line: 55, column: 27, scope: !1657)
!1663 = !DILocation(line: 55, column: 25, scope: !1657)
!1664 = !DILocation(line: 55, column: 14, scope: !1657)
!1665 = !DILocation(line: 56, column: 14, scope: !1657)
!1666 = !DILocation(line: 57, column: 27, scope: !1657)
!1667 = !DILocation(line: 57, column: 25, scope: !1657)
!1668 = !DILocation(line: 57, column: 14, scope: !1657)
!1669 = !DILocation(line: 0, scope: !1657)
!1670 = !DILocation(line: 55, column: 5, scope: !1657)
!1671 = distinct !DISubprogram(name: "real", linkageName: "_ZNKSt7complexIfE4realB5cxx11Ev", scope: !69, file: !51, line: 1107, type: !136, scopeLine: 1107, flags: DIFlagPrototyped, spFlags: DISPFlagDefinition, unit: !210, declaration: !135, retainedNodes: !1448)
!1672 = !DILocalVariable(name: "this", arg: 1, scope: !1671, type: !1673, flags: DIFlagArtificial | DIFlagObjectPointer)
!1673 = !DIDerivedType(tag: DW_TAG_pointer_type, baseType: !68, size: 64)
!1674 = !DILocation(line: 0, scope: !1671)
!1675 = !DILocation(line: 1107, column: 38, scope: !1671)
!1676 = !DILocation(line: 1107, column: 29, scope: !1671)
!1677 = !DILocation(line: 1107, column: 22, scope: !1671)
!1678 = distinct !DISubprogram(name: "imag", linkageName: "_ZNKSt7complexIfE4imagB5cxx11Ev", scope: !69, file: !51, line: 1111, type: !136, scopeLine: 1111, flags: DIFlagPrototyped, spFlags: DISPFlagDefinition, unit: !210, declaration: !139, retainedNodes: !1448)
!1679 = !DILocalVariable(name: "this", arg: 1, scope: !1678, type: !1673, flags: DIFlagArtificial | DIFlagObjectPointer)
!1680 = !DILocation(line: 0, scope: !1678)
!1681 = !DILocation(line: 1111, column: 38, scope: !1678)
!1682 = !DILocation(line: 1111, column: 29, scope: !1678)
!1683 = !DILocation(line: 1111, column: 22, scope: !1678)
!1684 = distinct !DISubprogram(name: "complex", linkageName: "_ZNSt7complexIdEC2Edd", scope: !50, file: !51, line: 1234, type: !62, scopeLine: 1236, flags: DIFlagPrototyped, spFlags: DISPFlagDefinition, unit: !210, declaration: !61, retainedNodes: !1448)
!1685 = !DILocalVariable(name: "this", arg: 1, scope: !1684, type: !1686, flags: DIFlagArtificial | DIFlagObjectPointer)
!1686 = !DIDerivedType(tag: DW_TAG_pointer_type, baseType: !50, size: 64)
!1687 = !DILocation(line: 0, scope: !1684)
!1688 = !DILocalVariable(name: "__r", arg: 2, scope: !1684, file: !51, line: 1234, type: !16)
!1689 = !DILocation(line: 1234, column: 41, scope: !1684)
!1690 = !DILocalVariable(name: "__i", arg: 3, scope: !1684, file: !51, line: 1234, type: !16)
!1691 = !DILocation(line: 1234, column: 59, scope: !1684)
!1692 = !DILocation(line: 1236, column: 9, scope: !1684)
!1693 = !DILocation(line: 1236, column: 19, scope: !1684)
!1694 = !DILocation(line: 1236, column: 24, scope: !1684)
!1695 = !DILocation(line: 1236, column: 32, scope: !1684)
!1696 = distinct !DISubprogram(name: "_S_do_it<double>", linkageName: "_ZNSt12_Norm_helperILb1EE8_S_do_itIdEET_RKSt7complexIS2_E", scope: !1697, file: !51, line: 680, type: !1513, scopeLine: 681, flags: DIFlagPrototyped, spFlags: DISPFlagDefinition, unit: !210, templateParams: !186, declaration: !1700, retainedNodes: !1448)
!1697 = distinct !DICompositeType(tag: DW_TAG_structure_type, name: "_Norm_helper<true>", scope: !52, file: !51, line: 677, size: 8, flags: DIFlagTypePassByValue, elements: !1448, templateParams: !1698, identifier: "_ZTSSt12_Norm_helperILb1EE")
!1698 = !{!1699}
!1699 = !DITemplateValueParameter(type: !6, value: i8 1)
!1700 = !DISubprogram(name: "_S_do_it<double>", linkageName: "_ZNSt12_Norm_helperILb1EE8_S_do_itIdEET_RKSt7complexIS2_E", scope: !1697, file: !51, line: 680, type: !1513, scopeLine: 680, flags: DIFlagPrototyped | DIFlagStaticMember, spFlags: 0, templateParams: !186)
!1701 = !DILocalVariable(name: "__z", arg: 1, scope: !1696, file: !51, line: 680, type: !84)
!1702 = !DILocation(line: 680, column: 77, scope: !1696)
!1703 = !DILocalVariable(name: "__x", scope: !1696, file: !51, line: 684, type: !15)
!1704 = !DILocation(line: 684, column: 21, scope: !1696)
!1705 = !DILocation(line: 684, column: 27, scope: !1696)
!1706 = !DILocation(line: 684, column: 31, scope: !1696)
!1707 = !DILocalVariable(name: "__y", scope: !1696, file: !51, line: 685, type: !15)
!1708 = !DILocation(line: 685, column: 21, scope: !1696)
!1709 = !DILocation(line: 685, column: 27, scope: !1696)
!1710 = !DILocation(line: 685, column: 31, scope: !1696)
!1711 = !DILocation(line: 686, column: 18, scope: !1696)
!1712 = !DILocation(line: 686, column: 24, scope: !1696)
!1713 = !DILocation(line: 686, column: 22, scope: !1696)
!1714 = !DILocation(line: 686, column: 30, scope: !1696)
!1715 = !DILocation(line: 686, column: 36, scope: !1696)
!1716 = !DILocation(line: 686, column: 34, scope: !1696)
!1717 = !DILocation(line: 686, column: 28, scope: !1696)
!1718 = !DILocation(line: 686, column: 11, scope: !1696)
!1719 = distinct !DISubprogram(name: "__complex_abs", linkageName: "_ZSt13__complex_absCd", scope: !52, file: !51, line: 617, type: !1720, scopeLine: 617, flags: DIFlagPrototyped, spFlags: DISPFlagDefinition, unit: !210, retainedNodes: !1448)
!1720 = !DISubroutineType(types: !1721)
!1721 = !{!16, !56}
!1722 = !DILocalVariable(name: "__z", arg: 1, scope: !1719, file: !51, line: 617, type: !56)
!1723 = !DILocation(line: 617, column: 36, scope: !1719)
!1724 = !DILocation(line: 617, column: 65, scope: !1719)
!1725 = !DILocation(line: 617, column: 50, scope: !1719)
!1726 = !DILocation(line: 617, column: 43, scope: !1719)
!1727 = distinct !DISubprogram(name: "__rep", linkageName: "_ZNKSt7complexIdE5__repEv", scope: !50, file: !51, line: 1363, type: !184, scopeLine: 1363, flags: DIFlagPrototyped, spFlags: DISPFlagDefinition, unit: !210, declaration: !183, retainedNodes: !1448)
!1728 = !DILocalVariable(name: "this", arg: 1, scope: !1727, type: !1646, flags: DIFlagArtificial | DIFlagObjectPointer)
!1729 = !DILocation(line: 0, scope: !1727)
!1730 = !DILocation(line: 1363, column: 59, scope: !1727)
!1731 = !DILocation(line: 1363, column: 52, scope: !1727)
!1732 = distinct !DISubprogram(name: "complex", linkageName: "_ZNSt7complexIfEC2Eff", scope: !69, file: !51, line: 1089, type: !79, scopeLine: 1091, flags: DIFlagPrototyped, spFlags: DISPFlagDefinition, unit: !210, declaration: !78, retainedNodes: !1448)
!1733 = !DILocalVariable(name: "this", arg: 1, scope: !1732, type: !1734, flags: DIFlagArtificial | DIFlagObjectPointer)
!1734 = !DIDerivedType(tag: DW_TAG_pointer_type, baseType: !69, size: 64)
!1735 = !DILocation(line: 0, scope: !1732)
!1736 = !DILocalVariable(name: "__r", arg: 2, scope: !1732, file: !51, line: 1089, type: !34)
!1737 = !DILocation(line: 1089, column: 40, scope: !1732)
!1738 = !DILocalVariable(name: "__i", arg: 3, scope: !1732, file: !51, line: 1089, type: !34)
!1739 = !DILocation(line: 1089, column: 58, scope: !1732)
!1740 = !DILocation(line: 1091, column: 9, scope: !1732)
!1741 = !DILocation(line: 1091, column: 19, scope: !1732)
!1742 = !DILocation(line: 1091, column: 24, scope: !1732)
!1743 = !DILocation(line: 1091, column: 32, scope: !1732)
!1744 = distinct !DISubprogram(name: "_S_do_it<float>", linkageName: "_ZNSt12_Norm_helperILb1EE8_S_do_itIfEET_RKSt7complexIS2_E", scope: !1697, file: !51, line: 680, type: !1556, scopeLine: 681, flags: DIFlagPrototyped, spFlags: DISPFlagDefinition, unit: !210, templateParams: !158, declaration: !1745, retainedNodes: !1448)
!1745 = !DISubprogram(name: "_S_do_it<float>", linkageName: "_ZNSt12_Norm_helperILb1EE8_S_do_itIfEET_RKSt7complexIS2_E", scope: !1697, file: !51, line: 680, type: !1556, scopeLine: 680, flags: DIFlagPrototyped | DIFlagStaticMember, spFlags: 0, templateParams: !158)
!1746 = !DILocalVariable(name: "__z", arg: 1, scope: !1744, file: !51, line: 680, type: !67)
!1747 = !DILocation(line: 680, column: 77, scope: !1744)
!1748 = !DILocalVariable(name: "__x", scope: !1744, file: !51, line: 684, type: !33)
!1749 = !DILocation(line: 684, column: 21, scope: !1744)
!1750 = !DILocation(line: 684, column: 27, scope: !1744)
!1751 = !DILocation(line: 684, column: 31, scope: !1744)
!1752 = !DILocalVariable(name: "__y", scope: !1744, file: !51, line: 685, type: !33)
!1753 = !DILocation(line: 685, column: 21, scope: !1744)
!1754 = !DILocation(line: 685, column: 27, scope: !1744)
!1755 = !DILocation(line: 685, column: 31, scope: !1744)
!1756 = !DILocation(line: 686, column: 18, scope: !1744)
!1757 = !DILocation(line: 686, column: 24, scope: !1744)
!1758 = !DILocation(line: 686, column: 22, scope: !1744)
!1759 = !DILocation(line: 686, column: 30, scope: !1744)
!1760 = !DILocation(line: 686, column: 36, scope: !1744)
!1761 = !DILocation(line: 686, column: 34, scope: !1744)
!1762 = !DILocation(line: 686, column: 28, scope: !1744)
!1763 = !DILocation(line: 686, column: 11, scope: !1744)
!1764 = distinct !DISubprogram(name: "__complex_abs", linkageName: "_ZSt13__complex_absCf", scope: !52, file: !51, line: 614, type: !1765, scopeLine: 614, flags: DIFlagPrototyped, spFlags: DISPFlagDefinition, unit: !210, retainedNodes: !1448)
!1765 = !DISubroutineType(types: !1766)
!1766 = !{!34, !73}
!1767 = !DILocalVariable(name: "__z", arg: 1, scope: !1764, file: !51, line: 614, type: !73)
!1768 = !DILocation(line: 614, column: 35, scope: !1764)
!1769 = !DILocation(line: 614, column: 65, scope: !1764)
!1770 = !DILocation(line: 614, column: 49, scope: !1764)
!1771 = !DILocation(line: 614, column: 42, scope: !1764)
!1772 = distinct !DISubprogram(name: "__rep", linkageName: "_ZNKSt7complexIfE5__repEv", scope: !69, file: !51, line: 1218, type: !156, scopeLine: 1218, flags: DIFlagPrototyped, spFlags: DISPFlagDefinition, unit: !210, declaration: !155, retainedNodes: !1448)
!1773 = !DILocalVariable(name: "this", arg: 1, scope: !1772, type: !1673, flags: DIFlagArtificial | DIFlagObjectPointer)
!1774 = !DILocation(line: 0, scope: !1772)
!1775 = !DILocation(line: 1218, column: 59, scope: !1772)
!1776 = !DILocation(line: 1218, column: 52, scope: !1772)
