; ModuleID = 'source/lac/block_sparsity_pattern.cc'
source_filename = "source/lac/block_sparsity_pattern.cc"
target datalayout = "e-m:e-p270:32:32-p271:32:32-p272:64:64-i64:64-f80:128-n8:16:32:64-S128"
target triple = "x86_64-unknown-linux-gnu"

%"class.std::ios_base::Init" = type { i8 }
%"class.dealii::BlockSparsityPatternBase" = type { %"class.dealii::Subscriptor", i32, i32, %"class.dealii::Table", %"class.dealii::BlockIndices", %"class.dealii::BlockIndices", %"class.std::vector", %"class.std::vector.3" }
%"class.dealii::Subscriptor" = type { i32 (...)**, i32, %"class.std::map", %"class.std::type_info"* }
%"class.std::map" = type { %"class.std::_Rb_tree" }
%"class.std::_Rb_tree" = type { %"struct.std::_Rb_tree<const char *, std::pair<const char *const, unsigned int>, std::_Select1st<std::pair<const char *const, unsigned int> >, std::less<const char *>, std::allocator<std::pair<const char *const, unsigned int> > >::_Rb_tree_impl" }
%"struct.std::_Rb_tree<const char *, std::pair<const char *const, unsigned int>, std::_Select1st<std::pair<const char *const, unsigned int> >, std::less<const char *>, std::allocator<std::pair<const char *const, unsigned int> > >::_Rb_tree_impl" = type { %"struct.std::_Rb_tree_key_compare", %"struct.std::_Rb_tree_header" }
%"struct.std::_Rb_tree_key_compare" = type { %"struct.std::less" }
%"struct.std::less" = type { i8 }
%"struct.std::_Rb_tree_header" = type { %"struct.std::_Rb_tree_node_base", i64 }
%"struct.std::_Rb_tree_node_base" = type { i32, %"struct.std::_Rb_tree_node_base"*, %"struct.std::_Rb_tree_node_base"*, %"struct.std::_Rb_tree_node_base"* }
%"class.std::type_info" = type { i32 (...)**, i8* }
%"class.dealii::Table" = type { %"class.dealii::TableBase.base", [4 x i8] }
%"class.dealii::TableBase.base" = type <{ %"class.dealii::Subscriptor", %"class.dealii::SmartPointer"*, i32, %"class.dealii::TableIndices" }>
%"class.dealii::SmartPointer" = type { %"class.dealii::SparsityPattern"*, i8* }
%"class.dealii::SparsityPattern" = type <{ %"class.dealii::Subscriptor", i32, i32, i32, [4 x i8], i64, i32, [4 x i8], i64*, i32*, i8, i8, [6 x i8] }>
%"class.dealii::TableIndices" = type { %"class.dealii::TableIndicesBase" }
%"class.dealii::TableIndicesBase" = type { [2 x i32] }
%"class.dealii::BlockIndices" = type { i32, %"class.std::vector" }
%"class.std::vector" = type { %"struct.std::_Vector_base" }
%"struct.std::_Vector_base" = type { %"struct.std::_Vector_base<unsigned int, std::allocator<unsigned int> >::_Vector_impl" }
%"struct.std::_Vector_base<unsigned int, std::allocator<unsigned int> >::_Vector_impl" = type { %"struct.std::_Vector_base<unsigned int, std::allocator<unsigned int> >::_Vector_impl_data" }
%"struct.std::_Vector_base<unsigned int, std::allocator<unsigned int> >::_Vector_impl_data" = type { i32*, i32*, i32* }
%"class.std::vector.3" = type { %"struct.std::_Vector_base.4" }
%"struct.std::_Vector_base.4" = type { %"struct.std::_Vector_base<std::vector<unsigned int, std::allocator<unsigned int> >, std::allocator<std::vector<unsigned int, std::allocator<unsigned int> > > >::_Vector_impl" }
%"struct.std::_Vector_base<std::vector<unsigned int, std::allocator<unsigned int> >, std::allocator<std::vector<unsigned int, std::allocator<unsigned int> > > >::_Vector_impl" = type { %"struct.std::_Vector_base<std::vector<unsigned int, std::allocator<unsigned int> >, std::allocator<std::vector<unsigned int, std::allocator<unsigned int> > > >::_Vector_impl_data" }
%"struct.std::_Vector_base<std::vector<unsigned int, std::allocator<unsigned int> >, std::allocator<std::vector<unsigned int, std::allocator<unsigned int> > > >::_Vector_impl_data" = type { %"class.std::vector"*, %"class.std::vector"*, %"class.std::vector"* }
%"class.dealii::BlockSparsityPatternBase<dealii::SparsityPattern>::ExcIncompatibleRowNumbers" = type { %"class.dealii::ExceptionBase.base", i32, i32, i32, i32, [4 x i8] }
%"class.dealii::ExceptionBase.base" = type <{ %"class.std::exception", i8*, i32, [4 x i8], i8*, i8*, i8*, i8**, i32 }>
%"class.std::exception" = type { i32 (...)** }
%"class.dealii::BlockSparsityPatternBase<dealii::SparsityPattern>::ExcIncompatibleColNumbers" = type { %"class.dealii::ExceptionBase.base", i32, i32, i32, i32, [4 x i8] }
%"class.dealii::BlockSparsityPatternBase<dealii::SparsityPattern>::ExcIncompatibleSizes" = type { %"class.dealii::ExceptionBase.base", i32, i32, [4 x i8] }
%"class.dealii::BlockSparsityPatternBase.9" = type { %"class.dealii::Subscriptor", i32, i32, %"class.dealii::Table.10", %"class.dealii::BlockIndices", %"class.dealii::BlockIndices", %"class.std::vector", %"class.std::vector.3" }
%"class.dealii::Table.10" = type { %"class.dealii::TableBase.base.13", [4 x i8] }
%"class.dealii::TableBase.base.13" = type <{ %"class.dealii::Subscriptor", %"class.dealii::SmartPointer.12"*, i32, %"class.dealii::TableIndices" }>
%"class.dealii::SmartPointer.12" = type { %"class.dealii::CompressedSparsityPattern"*, i8* }
%"class.dealii::CompressedSparsityPattern" = type { %"class.dealii::Subscriptor", i32, i32, %"class.std::vector.15" }
%"class.std::vector.15" = type { %"struct.std::_Vector_base.16" }
%"struct.std::_Vector_base.16" = type { %"struct.std::_Vector_base<dealii::CompressedSparsityPattern::Line, std::allocator<dealii::CompressedSparsityPattern::Line> >::_Vector_impl" }
%"struct.std::_Vector_base<dealii::CompressedSparsityPattern::Line, std::allocator<dealii::CompressedSparsityPattern::Line> >::_Vector_impl" = type { %"struct.std::_Vector_base<dealii::CompressedSparsityPattern::Line, std::allocator<dealii::CompressedSparsityPattern::Line> >::_Vector_impl_data" }
%"struct.std::_Vector_base<dealii::CompressedSparsityPattern::Line, std::allocator<dealii::CompressedSparsityPattern::Line> >::_Vector_impl_data" = type { %"struct.dealii::CompressedSparsityPattern::Line"*, %"struct.dealii::CompressedSparsityPattern::Line"*, %"struct.dealii::CompressedSparsityPattern::Line"* }
%"struct.dealii::CompressedSparsityPattern::Line" = type <{ %"class.std::vector", [8 x i32], i32, [4 x i8] }>
%"class.dealii::BlockSparsityPatternBase<dealii::CompressedSparsityPattern>::ExcIncompatibleRowNumbers" = type { %"class.dealii::ExceptionBase.base", i32, i32, i32, i32, [4 x i8] }
%"class.dealii::BlockSparsityPatternBase<dealii::CompressedSparsityPattern>::ExcIncompatibleColNumbers" = type { %"class.dealii::ExceptionBase.base", i32, i32, i32, i32, [4 x i8] }
%"class.dealii::BlockSparsityPatternBase<dealii::CompressedSparsityPattern>::ExcIncompatibleSizes" = type { %"class.dealii::ExceptionBase.base", i32, i32, [4 x i8] }
%"class.dealii::BlockSparsityPatternBase.22" = type { %"class.dealii::Subscriptor", i32, i32, %"class.dealii::Table.23", %"class.dealii::BlockIndices", %"class.dealii::BlockIndices", %"class.std::vector", %"class.std::vector.3" }
%"class.dealii::Table.23" = type { %"class.dealii::TableBase.base.26", [4 x i8] }
%"class.dealii::TableBase.base.26" = type <{ %"class.dealii::Subscriptor", %"class.dealii::SmartPointer.25"*, i32, %"class.dealii::TableIndices" }>
%"class.dealii::SmartPointer.25" = type { %"class.dealii::CompressedSimpleSparsityPattern"*, i8* }
%"class.dealii::CompressedSimpleSparsityPattern" = type { %"class.dealii::Subscriptor", i32, i32, %"class.std::vector.28" }
%"class.std::vector.28" = type { %"struct.std::_Vector_base.29" }
%"struct.std::_Vector_base.29" = type { %"struct.std::_Vector_base<dealii::CompressedSimpleSparsityPattern::Line, std::allocator<dealii::CompressedSimpleSparsityPattern::Line> >::_Vector_impl" }
%"struct.std::_Vector_base<dealii::CompressedSimpleSparsityPattern::Line, std::allocator<dealii::CompressedSimpleSparsityPattern::Line> >::_Vector_impl" = type { %"struct.std::_Vector_base<dealii::CompressedSimpleSparsityPattern::Line, std::allocator<dealii::CompressedSimpleSparsityPattern::Line> >::_Vector_impl_data" }
%"struct.std::_Vector_base<dealii::CompressedSimpleSparsityPattern::Line, std::allocator<dealii::CompressedSimpleSparsityPattern::Line> >::_Vector_impl_data" = type { %"struct.dealii::CompressedSimpleSparsityPattern::Line"*, %"struct.dealii::CompressedSimpleSparsityPattern::Line"*, %"struct.dealii::CompressedSimpleSparsityPattern::Line"* }
%"struct.dealii::CompressedSimpleSparsityPattern::Line" = type { %"class.std::vector" }
%"class.dealii::BlockSparsityPatternBase<dealii::CompressedSimpleSparsityPattern>::ExcIncompatibleRowNumbers" = type { %"class.dealii::ExceptionBase.base", i32, i32, i32, i32, [4 x i8] }
%"class.dealii::BlockSparsityPatternBase<dealii::CompressedSimpleSparsityPattern>::ExcIncompatibleColNumbers" = type { %"class.dealii::ExceptionBase.base", i32, i32, i32, i32, [4 x i8] }
%"class.dealii::BlockSparsityPatternBase<dealii::CompressedSimpleSparsityPattern>::ExcIncompatibleSizes" = type { %"class.dealii::ExceptionBase.base", i32, i32, [4 x i8] }
%"class.dealii::BlockSparsityPatternBase.35" = type { %"class.dealii::Subscriptor", i32, i32, %"class.dealii::Table.36", %"class.dealii::BlockIndices", %"class.dealii::BlockIndices", %"class.std::vector", %"class.std::vector.3" }
%"class.dealii::Table.36" = type { %"class.dealii::TableBase.base.39", [4 x i8] }
%"class.dealii::TableBase.base.39" = type <{ %"class.dealii::Subscriptor", %"class.dealii::SmartPointer.38"*, i32, %"class.dealii::TableIndices" }>
%"class.dealii::SmartPointer.38" = type { %"class.dealii::CompressedSetSparsityPattern"*, i8* }
%"class.dealii::CompressedSetSparsityPattern" = type { %"class.dealii::Subscriptor", i32, i32, %"class.std::vector.41" }
%"class.std::vector.41" = type { %"struct.std::_Vector_base.42" }
%"struct.std::_Vector_base.42" = type { %"struct.std::_Vector_base<dealii::CompressedSetSparsityPattern::Line, std::allocator<dealii::CompressedSetSparsityPattern::Line> >::_Vector_impl" }
%"struct.std::_Vector_base<dealii::CompressedSetSparsityPattern::Line, std::allocator<dealii::CompressedSetSparsityPattern::Line> >::_Vector_impl" = type { %"struct.std::_Vector_base<dealii::CompressedSetSparsityPattern::Line, std::allocator<dealii::CompressedSetSparsityPattern::Line> >::_Vector_impl_data" }
%"struct.std::_Vector_base<dealii::CompressedSetSparsityPattern::Line, std::allocator<dealii::CompressedSetSparsityPattern::Line> >::_Vector_impl_data" = type { %"struct.dealii::CompressedSetSparsityPattern::Line"*, %"struct.dealii::CompressedSetSparsityPattern::Line"*, %"struct.dealii::CompressedSetSparsityPattern::Line"* }
%"struct.dealii::CompressedSetSparsityPattern::Line" = type { %"class.std::set" }
%"class.std::set" = type { %"class.std::_Rb_tree.46" }
%"class.std::_Rb_tree.46" = type { %"struct.std::_Rb_tree<unsigned int, unsigned int, std::_Identity<unsigned int>, std::less<unsigned int>, std::allocator<unsigned int> >::_Rb_tree_impl" }
%"struct.std::_Rb_tree<unsigned int, unsigned int, std::_Identity<unsigned int>, std::less<unsigned int>, std::allocator<unsigned int> >::_Rb_tree_impl" = type { %"struct.std::_Rb_tree_key_compare.50", %"struct.std::_Rb_tree_header" }
%"struct.std::_Rb_tree_key_compare.50" = type { %"struct.std::less.51" }
%"struct.std::less.51" = type { i8 }
%"class.dealii::BlockSparsityPatternBase<dealii::CompressedSetSparsityPattern>::ExcIncompatibleRowNumbers" = type { %"class.dealii::ExceptionBase.base", i32, i32, i32, i32, [4 x i8] }
%"class.dealii::BlockSparsityPatternBase<dealii::CompressedSetSparsityPattern>::ExcIncompatibleColNumbers" = type { %"class.dealii::ExceptionBase.base", i32, i32, i32, i32, [4 x i8] }
%"class.dealii::BlockSparsityPatternBase<dealii::CompressedSetSparsityPattern>::ExcIncompatibleSizes" = type { %"class.dealii::ExceptionBase.base", i32, i32, [4 x i8] }
%"class.dealii::BlockSparsityPattern" = type { %"class.dealii::BlockSparsityPatternBase" }
%"class.dealii::BlockCompressedSparsityPattern" = type { %"class.dealii::BlockSparsityPatternBase.9" }
%"class.dealii::BlockCompressedSetSparsityPattern" = type { %"class.dealii::BlockSparsityPatternBase.35" }
%"class.dealii::BlockCompressedSimpleSparsityPattern" = type { %"class.dealii::BlockSparsityPatternBase.22" }
%"class.dealii::TableBase" = type <{ %"class.dealii::Subscriptor", %"class.dealii::SmartPointer"*, i32, %"class.dealii::TableIndices", [4 x i8] }>
%"class.std::allocator.0" = type { i8 }
%"class.dealii::internal::TableBaseAccessors::Accessor" = type { %"class.dealii::TableBase"*, %"class.dealii::SmartPointer"* }
%"class.std::allocator.5" = type { i8 }
%"class.dealii::internal::TableBaseAccessors::Accessor.8" = type { %"class.dealii::TableBase"*, %"class.dealii::SmartPointer"* }
%"class.__gnu_cxx::new_allocator.1" = type { i8 }
%"struct.std::pair" = type { i32, i32 }
%"struct.std::pair.55" = type { i32, i32 }
%"class.std::basic_ostream" = type { i32 (...)**, %"class.std::basic_ios" }
%"class.std::basic_ios" = type { %"class.std::ios_base", %"class.std::basic_ostream"*, i8, i8, %"class.std::basic_streambuf"*, %"class.std::ctype"*, %"class.std::num_put"*, %"class.std::num_get"* }
%"class.std::ios_base" = type { i32 (...)**, i64, i64, i32, i32, i32, %"struct.std::ios_base::_Callback_list"*, %"struct.std::ios_base::_Words", [8 x %"struct.std::ios_base::_Words"], i32, %"struct.std::ios_base::_Words"*, %"class.std::locale" }
%"struct.std::ios_base::_Callback_list" = type { %"struct.std::ios_base::_Callback_list"*, void (i32, %"class.std::ios_base"*, i32)*, i32, i32 }
%"struct.std::ios_base::_Words" = type { i8*, i64 }
%"class.std::locale" = type { %"class.std::locale::_Impl"* }
%"class.std::locale::_Impl" = type { i32, %"class.std::locale::facet"**, i64, %"class.std::locale::facet"**, i8** }
%"class.std::locale::facet" = type <{ i32 (...)**, i32, [4 x i8] }>
%"class.std::basic_streambuf" = type { i32 (...)**, i8*, i8*, i8*, i8*, i8*, i8*, %"class.std::locale" }
%"class.std::ctype" = type <{ %"class.std::locale::facet.base", [4 x i8], %struct.__locale_struct*, i8, [7 x i8], i32*, i32*, i16*, i8, [256 x i8], [256 x i8], i8, [6 x i8] }>
%"class.std::locale::facet.base" = type <{ i32 (...)**, i32 }>
%struct.__locale_struct = type { [13 x %struct.__locale_data*], i16*, i32*, i32*, [13 x i8*] }
%struct.__locale_data = type opaque
%"class.std::num_put" = type { %"class.std::locale::facet.base", [4 x i8] }
%"class.std::num_get" = type { %"class.std::locale::facet.base", [4 x i8] }
%"class.dealii::ExceptionBase" = type <{ %"class.std::exception", i8*, i32, [4 x i8], i8*, i8*, i8*, i8**, i32, [4 x i8] }>
%"class.dealii::TableBase.11" = type <{ %"class.dealii::Subscriptor", %"class.dealii::SmartPointer.12"*, i32, %"class.dealii::TableIndices", [4 x i8] }>
%"class.dealii::internal::TableBaseAccessors::Accessor.20" = type { %"class.dealii::TableBase.11"*, %"class.dealii::SmartPointer.12"* }
%"class.dealii::internal::TableBaseAccessors::Accessor.21" = type { %"class.dealii::TableBase.11"*, %"class.dealii::SmartPointer.12"* }
%"class.dealii::TableBase.24" = type <{ %"class.dealii::Subscriptor", %"class.dealii::SmartPointer.25"*, i32, %"class.dealii::TableIndices", [4 x i8] }>
%"class.dealii::internal::TableBaseAccessors::Accessor.33" = type { %"class.dealii::TableBase.24"*, %"class.dealii::SmartPointer.25"* }
%"class.dealii::internal::TableBaseAccessors::Accessor.34" = type { %"class.dealii::TableBase.24"*, %"class.dealii::SmartPointer.25"* }
%"class.dealii::TableBase.37" = type <{ %"class.dealii::Subscriptor", %"class.dealii::SmartPointer.38"*, i32, %"class.dealii::TableIndices", [4 x i8] }>
%"class.dealii::internal::TableBaseAccessors::Accessor.53" = type { %"class.dealii::TableBase.37"*, %"class.dealii::SmartPointer.38"* }
%"class.dealii::internal::TableBaseAccessors::Accessor.54" = type { %"class.dealii::TableBase.37"*, %"class.dealii::SmartPointer.38"* }
%"class.dealii::VectorSlice" = type { %"class.std::vector"*, i32, i32 }
%"class.dealii::BlockSparsityPatternBase<dealii::SparsityPattern>::ExcInvalidConstructorCall" = type { %"class.dealii::ExceptionBase.base", [4 x i8] }
%"class.dealii::BlockSparsityPatternBase<dealii::CompressedSparsityPattern>::ExcInvalidConstructorCall" = type { %"class.dealii::ExceptionBase.base", [4 x i8] }
%"class.dealii::BlockSparsityPatternBase<dealii::CompressedSimpleSparsityPattern>::ExcInvalidConstructorCall" = type { %"class.dealii::ExceptionBase.base", [4 x i8] }
%"class.dealii::BlockSparsityPatternBase<dealii::CompressedSetSparsityPattern>::ExcInvalidConstructorCall" = type { %"class.dealii::ExceptionBase.base", [4 x i8] }
%"class.__gnu_cxx::new_allocator.6" = type { i8 }
%"struct.std::integral_constant" = type { i8 }
%"struct.std::random_access_iterator_tag" = type { i8 }
%"class.std::__pair_base" = type { i8 }
%"class.std::__pair_base.56" = type { i8 }
%"class.__gnu_cxx::__normal_iterator" = type { i32* }
%"class.__gnu_cxx::__normal_iterator.58" = type { i32* }
%"struct.__gnu_cxx::__ops::_Iter_less_val" = type { i8 }
%"struct.std::vector<unsigned int, std::allocator<unsigned int> >::_Temporary_value" = type <{ %"class.std::vector"*, %"union.std::aligned_storage<4, 4>::type", [4 x i8] }>
%"union.std::aligned_storage<4, 4>::type" = type { [4 x i8] }
%"struct.std::pair.59" = type <{ %"struct.std::_Rb_tree_const_iterator", i8, [7 x i8] }>
%"struct.std::_Rb_tree_const_iterator" = type { %"struct.std::_Rb_tree_node_base"* }
%"struct.std::pair.62" = type <{ %"struct.std::_Rb_tree_iterator", i8, [7 x i8] }>
%"struct.std::_Rb_tree_iterator" = type { %"struct.std::_Rb_tree_node_base"* }
%"struct.std::pair.66" = type { %"struct.std::_Rb_tree_node_base"*, %"struct.std::_Rb_tree_node_base"* }
%"struct.std::_Identity" = type { i8 }
%"struct.std::_Rb_tree<unsigned int, unsigned int, std::_Identity<unsigned int>, std::less<unsigned int>, std::allocator<unsigned int> >::_Alloc_node" = type { %"class.std::_Rb_tree.46"* }
%"class.std::__pair_base.60" = type { i8 }
%"struct.std::_Rb_tree_node" = type <{ %"struct.std::_Rb_tree_node_base", %"struct.__gnu_cxx::__aligned_membuf", [4 x i8] }>
%"struct.__gnu_cxx::__aligned_membuf" = type { [4 x i8] }
%"class.std::__pair_base.63" = type { i8 }
%"class.std::__pair_base.67" = type { i8 }
%"class.std::allocator.47" = type { i8 }
%"class.__gnu_cxx::new_allocator.48" = type { i8 }

$_ZN6dealii24BlockSparsityPatternBaseINS_15SparsityPatternEEC5Ev = comdat any

$_ZN6dealii5TableILi2ENS_12SmartPointerINS_15SparsityPatternEEEEC2Ev = comdat any

$_ZN6dealii12BlockIndicesC2Ej = comdat any

$_ZNSt6vectorIjSaIjEEC2Ev = comdat any

$_ZNSt6vectorIS_IjSaIjEESaIS1_EEC2Ev = comdat any

$_ZN6dealii12BlockIndicesD2Ev = comdat any

$_ZN6dealii5TableILi2ENS_12SmartPointerINS_15SparsityPatternEEEED2Ev = comdat any

$_ZN6dealii24BlockSparsityPatternBaseINS_15SparsityPatternEEC5Ejj = comdat any

$_ZN6dealii24BlockSparsityPatternBaseINS_15SparsityPatternEE6reinitEjj = comdat any

$_ZNSt6vectorIS_IjSaIjEESaIS1_EED2Ev = comdat any

$_ZNSt6vectorIjSaIjEED2Ev = comdat any

$_ZN6dealii24BlockSparsityPatternBaseINS_15SparsityPatternEEC5ERKS2_ = comdat any

$_ZN6dealii24BlockSparsityPatternBaseINS_15SparsityPatternEED5Ev = comdat any

$__clang_call_terminate = comdat any

$_ZN6dealii5TableILi2ENS_12SmartPointerINS_15SparsityPatternEEEEixEj = comdat any

$_ZNK6dealii8internal18TableBaseAccessors8AccessorILi2ENS_12SmartPointerINS_15SparsityPatternEEELb0ELj1EEixEj = comdat any

$_ZNK6dealii12SmartPointerINS_15SparsityPatternEEcvPS1_Ev = comdat any

$_ZN6dealii12SmartPointerINS_15SparsityPatternEEaSEPS1_ = comdat any

$_ZN6dealii5TableILi2ENS_12SmartPointerINS_15SparsityPatternEEEE6reinitEjj = comdat any

$_ZN6dealii24BlockSparsityPatternBaseINS_15SparsityPatternEEaSERKS2_ = comdat any

$_ZNK6dealii5TableILi2ENS_12SmartPointerINS_15SparsityPatternEEEEixEj = comdat any

$_ZNK6dealii8internal18TableBaseAccessors8AccessorILi2ENS_12SmartPointerINS_15SparsityPatternEEELb1ELj1EEixEj = comdat any

$_ZNK6dealii12SmartPointerINS_15SparsityPatternEEdeEv = comdat any

$_ZN6dealii24BlockSparsityPatternBaseINS_15SparsityPatternEE13collect_sizesEv = comdat any

$_ZNSaIjEC2Ev = comdat any

$_ZNSt6vectorIjSaIjEEC2EmRKS0_ = comdat any

$_ZNSaIjED2Ev = comdat any

$_ZNK6dealii12SmartPointerINS_15SparsityPatternEEptEv = comdat any

$_ZNK6dealii15SparsityPattern6n_rowsEv = comdat any

$_ZNSt6vectorIjSaIjEEixEm = comdat any

$_ZN6dealii12BlockIndices6reinitERKSt6vectorIjSaIjEE = comdat any

$_ZNK6dealii15SparsityPattern6n_colsEv = comdat any

$_ZN6dealii24BlockSparsityPatternBaseINS_15SparsityPatternEE5blockEjj = comdat any

$_ZNK6dealii24BlockSparsityPatternBaseINS_15SparsityPatternEE5blockEjj = comdat any

$_ZNK6dealii24BlockSparsityPatternBaseINS_15SparsityPatternEE15get_row_indicesEv = comdat any

$_ZNK6dealii24BlockSparsityPatternBaseINS_15SparsityPatternEE18get_column_indicesEv = comdat any

$_ZN6dealii24BlockSparsityPatternBaseINS_15SparsityPatternEE8compressEv = comdat any

$_ZNK6dealii24BlockSparsityPatternBaseINS_15SparsityPatternEE12n_block_rowsEv = comdat any

$_ZNK6dealii24BlockSparsityPatternBaseINS_15SparsityPatternEE12n_block_colsEv = comdat any

$_ZNK6dealii24BlockSparsityPatternBaseINS_15SparsityPatternEE5emptyEv = comdat any

$_ZNK6dealii24BlockSparsityPatternBaseINS_15SparsityPatternEE19max_entries_per_rowEv = comdat any

$_ZN6dealii24BlockSparsityPatternBaseINS_15SparsityPatternEE3addEjj = comdat any

$_ZNK6dealii12BlockIndices15global_to_localEj = comdat any

$_ZNK6dealii24BlockSparsityPatternBaseINS_15SparsityPatternEE6n_rowsEv = comdat any

$_ZNK6dealii24BlockSparsityPatternBaseINS_15SparsityPatternEE6n_colsEv = comdat any

$_ZNK6dealii24BlockSparsityPatternBaseINS_15SparsityPatternEE6existsEjj = comdat any

$_ZNK6dealii24BlockSparsityPatternBaseINS_15SparsityPatternEE10row_lengthEj = comdat any

$_ZNK6dealii15SparsityPattern10row_lengthEj = comdat any

$_ZNK6dealii24BlockSparsityPatternBaseINS_15SparsityPatternEE18n_nonzero_elementsEv = comdat any

$_ZNK6dealii15SparsityPattern18n_nonzero_elementsEv = comdat any

$_ZNK6dealii24BlockSparsityPatternBaseINS_15SparsityPatternEE5printERSo = comdat any

$_ZNK6dealii24BlockSparsityPatternBaseINS_15SparsityPatternEE13print_gnuplotERSo = comdat any

$_ZN6dealii24BlockSparsityPatternBaseINS_15SparsityPatternEE25ExcIncompatibleRowNumbersC5Eiiii = comdat any

$_ZN6dealii24BlockSparsityPatternBaseINS_15SparsityPatternEE25ExcIncompatibleRowNumbersD5Ev = comdat any

$_ZNK6dealii24BlockSparsityPatternBaseINS_15SparsityPatternEE25ExcIncompatibleRowNumbers10print_infoERSo = comdat any

$_ZN6dealii24BlockSparsityPatternBaseINS_15SparsityPatternEE25ExcIncompatibleColNumbersC5Eiiii = comdat any

$_ZN6dealii24BlockSparsityPatternBaseINS_15SparsityPatternEE25ExcIncompatibleColNumbersD5Ev = comdat any

$_ZNK6dealii24BlockSparsityPatternBaseINS_15SparsityPatternEE25ExcIncompatibleColNumbers10print_infoERSo = comdat any

$_ZN6dealii24BlockSparsityPatternBaseINS_15SparsityPatternEE20ExcIncompatibleSizesC5Eii = comdat any

$_ZN6dealii24BlockSparsityPatternBaseINS_15SparsityPatternEE20ExcIncompatibleSizesD5Ev = comdat any

$_ZNK6dealii24BlockSparsityPatternBaseINS_15SparsityPatternEE20ExcIncompatibleSizes10print_infoERSo = comdat any

$_ZN6dealii24BlockSparsityPatternBaseINS_25CompressedSparsityPatternEEC5Ev = comdat any

$_ZN6dealii5TableILi2ENS_12SmartPointerINS_25CompressedSparsityPatternEEEEC2Ev = comdat any

$_ZN6dealii5TableILi2ENS_12SmartPointerINS_25CompressedSparsityPatternEEEED2Ev = comdat any

$_ZN6dealii24BlockSparsityPatternBaseINS_25CompressedSparsityPatternEEC5Ejj = comdat any

$_ZN6dealii24BlockSparsityPatternBaseINS_25CompressedSparsityPatternEE6reinitEjj = comdat any

$_ZN6dealii24BlockSparsityPatternBaseINS_25CompressedSparsityPatternEEC5ERKS2_ = comdat any

$_ZN6dealii24BlockSparsityPatternBaseINS_25CompressedSparsityPatternEED5Ev = comdat any

$_ZN6dealii5TableILi2ENS_12SmartPointerINS_25CompressedSparsityPatternEEEEixEj = comdat any

$_ZNK6dealii8internal18TableBaseAccessors8AccessorILi2ENS_12SmartPointerINS_25CompressedSparsityPatternEEELb0ELj1EEixEj = comdat any

$_ZNK6dealii12SmartPointerINS_25CompressedSparsityPatternEEcvPS1_Ev = comdat any

$_ZN6dealii12SmartPointerINS_25CompressedSparsityPatternEEaSEPS1_ = comdat any

$_ZN6dealii5TableILi2ENS_12SmartPointerINS_25CompressedSparsityPatternEEEE6reinitEjj = comdat any

$_ZN6dealii24BlockSparsityPatternBaseINS_25CompressedSparsityPatternEEaSERKS2_ = comdat any

$_ZNK6dealii5TableILi2ENS_12SmartPointerINS_25CompressedSparsityPatternEEEEixEj = comdat any

$_ZNK6dealii8internal18TableBaseAccessors8AccessorILi2ENS_12SmartPointerINS_25CompressedSparsityPatternEEELb1ELj1EEixEj = comdat any

$_ZNK6dealii12SmartPointerINS_25CompressedSparsityPatternEEdeEv = comdat any

$_ZN6dealii24BlockSparsityPatternBaseINS_25CompressedSparsityPatternEE13collect_sizesEv = comdat any

$_ZNK6dealii12SmartPointerINS_25CompressedSparsityPatternEEptEv = comdat any

$_ZNK6dealii25CompressedSparsityPattern6n_rowsEv = comdat any

$_ZNK6dealii25CompressedSparsityPattern6n_colsEv = comdat any

$_ZN6dealii24BlockSparsityPatternBaseINS_25CompressedSparsityPatternEE5blockEjj = comdat any

$_ZNK6dealii24BlockSparsityPatternBaseINS_25CompressedSparsityPatternEE5blockEjj = comdat any

$_ZNK6dealii24BlockSparsityPatternBaseINS_25CompressedSparsityPatternEE15get_row_indicesEv = comdat any

$_ZNK6dealii24BlockSparsityPatternBaseINS_25CompressedSparsityPatternEE18get_column_indicesEv = comdat any

$_ZN6dealii24BlockSparsityPatternBaseINS_25CompressedSparsityPatternEE8compressEv = comdat any

$_ZNK6dealii24BlockSparsityPatternBaseINS_25CompressedSparsityPatternEE12n_block_rowsEv = comdat any

$_ZNK6dealii24BlockSparsityPatternBaseINS_25CompressedSparsityPatternEE12n_block_colsEv = comdat any

$_ZNK6dealii24BlockSparsityPatternBaseINS_25CompressedSparsityPatternEE5emptyEv = comdat any

$_ZNK6dealii24BlockSparsityPatternBaseINS_25CompressedSparsityPatternEE19max_entries_per_rowEv = comdat any

$_ZN6dealii24BlockSparsityPatternBaseINS_25CompressedSparsityPatternEE3addEjj = comdat any

$_ZN6dealii25CompressedSparsityPattern3addEjj = comdat any

$_ZNK6dealii24BlockSparsityPatternBaseINS_25CompressedSparsityPatternEE6n_rowsEv = comdat any

$_ZNK6dealii24BlockSparsityPatternBaseINS_25CompressedSparsityPatternEE6n_colsEv = comdat any

$_ZNK6dealii24BlockSparsityPatternBaseINS_25CompressedSparsityPatternEE6existsEjj = comdat any

$_ZNK6dealii24BlockSparsityPatternBaseINS_25CompressedSparsityPatternEE10row_lengthEj = comdat any

$_ZNK6dealii25CompressedSparsityPattern10row_lengthEj = comdat any

$_ZNK6dealii24BlockSparsityPatternBaseINS_25CompressedSparsityPatternEE18n_nonzero_elementsEv = comdat any

$_ZNK6dealii24BlockSparsityPatternBaseINS_25CompressedSparsityPatternEE5printERSo = comdat any

$_ZNK6dealii24BlockSparsityPatternBaseINS_25CompressedSparsityPatternEE13print_gnuplotERSo = comdat any

$_ZN6dealii24BlockSparsityPatternBaseINS_25CompressedSparsityPatternEE25ExcIncompatibleRowNumbersC5Eiiii = comdat any

$_ZN6dealii24BlockSparsityPatternBaseINS_25CompressedSparsityPatternEE25ExcIncompatibleRowNumbersD5Ev = comdat any

$_ZNK6dealii24BlockSparsityPatternBaseINS_25CompressedSparsityPatternEE25ExcIncompatibleRowNumbers10print_infoERSo = comdat any

$_ZN6dealii24BlockSparsityPatternBaseINS_25CompressedSparsityPatternEE25ExcIncompatibleColNumbersC5Eiiii = comdat any

$_ZN6dealii24BlockSparsityPatternBaseINS_25CompressedSparsityPatternEE25ExcIncompatibleColNumbersD5Ev = comdat any

$_ZNK6dealii24BlockSparsityPatternBaseINS_25CompressedSparsityPatternEE25ExcIncompatibleColNumbers10print_infoERSo = comdat any

$_ZN6dealii24BlockSparsityPatternBaseINS_25CompressedSparsityPatternEE20ExcIncompatibleSizesC5Eii = comdat any

$_ZN6dealii24BlockSparsityPatternBaseINS_25CompressedSparsityPatternEE20ExcIncompatibleSizesD5Ev = comdat any

$_ZNK6dealii24BlockSparsityPatternBaseINS_25CompressedSparsityPatternEE20ExcIncompatibleSizes10print_infoERSo = comdat any

$_ZN6dealii24BlockSparsityPatternBaseINS_31CompressedSimpleSparsityPatternEEC5Ev = comdat any

$_ZN6dealii5TableILi2ENS_12SmartPointerINS_31CompressedSimpleSparsityPatternEEEEC2Ev = comdat any

$_ZN6dealii5TableILi2ENS_12SmartPointerINS_31CompressedSimpleSparsityPatternEEEED2Ev = comdat any

$_ZN6dealii24BlockSparsityPatternBaseINS_31CompressedSimpleSparsityPatternEEC5Ejj = comdat any

$_ZN6dealii24BlockSparsityPatternBaseINS_31CompressedSimpleSparsityPatternEE6reinitEjj = comdat any

$_ZN6dealii24BlockSparsityPatternBaseINS_31CompressedSimpleSparsityPatternEEC5ERKS2_ = comdat any

$_ZN6dealii24BlockSparsityPatternBaseINS_31CompressedSimpleSparsityPatternEED5Ev = comdat any

$_ZN6dealii5TableILi2ENS_12SmartPointerINS_31CompressedSimpleSparsityPatternEEEEixEj = comdat any

$_ZNK6dealii8internal18TableBaseAccessors8AccessorILi2ENS_12SmartPointerINS_31CompressedSimpleSparsityPatternEEELb0ELj1EEixEj = comdat any

$_ZNK6dealii12SmartPointerINS_31CompressedSimpleSparsityPatternEEcvPS1_Ev = comdat any

$_ZN6dealii12SmartPointerINS_31CompressedSimpleSparsityPatternEEaSEPS1_ = comdat any

$_ZN6dealii5TableILi2ENS_12SmartPointerINS_31CompressedSimpleSparsityPatternEEEE6reinitEjj = comdat any

$_ZN6dealii24BlockSparsityPatternBaseINS_31CompressedSimpleSparsityPatternEEaSERKS2_ = comdat any

$_ZNK6dealii5TableILi2ENS_12SmartPointerINS_31CompressedSimpleSparsityPatternEEEEixEj = comdat any

$_ZNK6dealii8internal18TableBaseAccessors8AccessorILi2ENS_12SmartPointerINS_31CompressedSimpleSparsityPatternEEELb1ELj1EEixEj = comdat any

$_ZNK6dealii12SmartPointerINS_31CompressedSimpleSparsityPatternEEdeEv = comdat any

$_ZN6dealii24BlockSparsityPatternBaseINS_31CompressedSimpleSparsityPatternEE13collect_sizesEv = comdat any

$_ZNK6dealii12SmartPointerINS_31CompressedSimpleSparsityPatternEEptEv = comdat any

$_ZNK6dealii31CompressedSimpleSparsityPattern6n_rowsEv = comdat any

$_ZNK6dealii31CompressedSimpleSparsityPattern6n_colsEv = comdat any

$_ZN6dealii24BlockSparsityPatternBaseINS_31CompressedSimpleSparsityPatternEE5blockEjj = comdat any

$_ZNK6dealii24BlockSparsityPatternBaseINS_31CompressedSimpleSparsityPatternEE5blockEjj = comdat any

$_ZNK6dealii24BlockSparsityPatternBaseINS_31CompressedSimpleSparsityPatternEE15get_row_indicesEv = comdat any

$_ZNK6dealii24BlockSparsityPatternBaseINS_31CompressedSimpleSparsityPatternEE18get_column_indicesEv = comdat any

$_ZN6dealii24BlockSparsityPatternBaseINS_31CompressedSimpleSparsityPatternEE8compressEv = comdat any

$_ZNK6dealii24BlockSparsityPatternBaseINS_31CompressedSimpleSparsityPatternEE12n_block_rowsEv = comdat any

$_ZNK6dealii24BlockSparsityPatternBaseINS_31CompressedSimpleSparsityPatternEE12n_block_colsEv = comdat any

$_ZNK6dealii24BlockSparsityPatternBaseINS_31CompressedSimpleSparsityPatternEE5emptyEv = comdat any

$_ZNK6dealii24BlockSparsityPatternBaseINS_31CompressedSimpleSparsityPatternEE19max_entries_per_rowEv = comdat any

$_ZN6dealii24BlockSparsityPatternBaseINS_31CompressedSimpleSparsityPatternEE3addEjj = comdat any

$_ZN6dealii31CompressedSimpleSparsityPattern3addEjj = comdat any

$_ZNK6dealii24BlockSparsityPatternBaseINS_31CompressedSimpleSparsityPatternEE6n_rowsEv = comdat any

$_ZNK6dealii24BlockSparsityPatternBaseINS_31CompressedSimpleSparsityPatternEE6n_colsEv = comdat any

$_ZNK6dealii24BlockSparsityPatternBaseINS_31CompressedSimpleSparsityPatternEE6existsEjj = comdat any

$_ZNK6dealii24BlockSparsityPatternBaseINS_31CompressedSimpleSparsityPatternEE10row_lengthEj = comdat any

$_ZNK6dealii31CompressedSimpleSparsityPattern10row_lengthEj = comdat any

$_ZNK6dealii24BlockSparsityPatternBaseINS_31CompressedSimpleSparsityPatternEE18n_nonzero_elementsEv = comdat any

$_ZNK6dealii24BlockSparsityPatternBaseINS_31CompressedSimpleSparsityPatternEE5printERSo = comdat any

$_ZNK6dealii24BlockSparsityPatternBaseINS_31CompressedSimpleSparsityPatternEE13print_gnuplotERSo = comdat any

$_ZN6dealii24BlockSparsityPatternBaseINS_31CompressedSimpleSparsityPatternEE25ExcIncompatibleRowNumbersC5Eiiii = comdat any

$_ZN6dealii24BlockSparsityPatternBaseINS_31CompressedSimpleSparsityPatternEE25ExcIncompatibleRowNumbersD5Ev = comdat any

$_ZNK6dealii24BlockSparsityPatternBaseINS_31CompressedSimpleSparsityPatternEE25ExcIncompatibleRowNumbers10print_infoERSo = comdat any

$_ZN6dealii24BlockSparsityPatternBaseINS_31CompressedSimpleSparsityPatternEE25ExcIncompatibleColNumbersC5Eiiii = comdat any

$_ZN6dealii24BlockSparsityPatternBaseINS_31CompressedSimpleSparsityPatternEE25ExcIncompatibleColNumbersD5Ev = comdat any

$_ZNK6dealii24BlockSparsityPatternBaseINS_31CompressedSimpleSparsityPatternEE25ExcIncompatibleColNumbers10print_infoERSo = comdat any

$_ZN6dealii24BlockSparsityPatternBaseINS_31CompressedSimpleSparsityPatternEE20ExcIncompatibleSizesC5Eii = comdat any

$_ZN6dealii24BlockSparsityPatternBaseINS_31CompressedSimpleSparsityPatternEE20ExcIncompatibleSizesD5Ev = comdat any

$_ZNK6dealii24BlockSparsityPatternBaseINS_31CompressedSimpleSparsityPatternEE20ExcIncompatibleSizes10print_infoERSo = comdat any

$_ZN6dealii24BlockSparsityPatternBaseINS_28CompressedSetSparsityPatternEEC5Ev = comdat any

$_ZN6dealii5TableILi2ENS_12SmartPointerINS_28CompressedSetSparsityPatternEEEEC2Ev = comdat any

$_ZN6dealii5TableILi2ENS_12SmartPointerINS_28CompressedSetSparsityPatternEEEED2Ev = comdat any

$_ZN6dealii24BlockSparsityPatternBaseINS_28CompressedSetSparsityPatternEEC5Ejj = comdat any

$_ZN6dealii24BlockSparsityPatternBaseINS_28CompressedSetSparsityPatternEE6reinitEjj = comdat any

$_ZN6dealii24BlockSparsityPatternBaseINS_28CompressedSetSparsityPatternEEC5ERKS2_ = comdat any

$_ZN6dealii24BlockSparsityPatternBaseINS_28CompressedSetSparsityPatternEED5Ev = comdat any

$_ZN6dealii5TableILi2ENS_12SmartPointerINS_28CompressedSetSparsityPatternEEEEixEj = comdat any

$_ZNK6dealii8internal18TableBaseAccessors8AccessorILi2ENS_12SmartPointerINS_28CompressedSetSparsityPatternEEELb0ELj1EEixEj = comdat any

$_ZNK6dealii12SmartPointerINS_28CompressedSetSparsityPatternEEcvPS1_Ev = comdat any

$_ZN6dealii12SmartPointerINS_28CompressedSetSparsityPatternEEaSEPS1_ = comdat any

$_ZN6dealii5TableILi2ENS_12SmartPointerINS_28CompressedSetSparsityPatternEEEE6reinitEjj = comdat any

$_ZN6dealii24BlockSparsityPatternBaseINS_28CompressedSetSparsityPatternEEaSERKS2_ = comdat any

$_ZNK6dealii5TableILi2ENS_12SmartPointerINS_28CompressedSetSparsityPatternEEEEixEj = comdat any

$_ZNK6dealii8internal18TableBaseAccessors8AccessorILi2ENS_12SmartPointerINS_28CompressedSetSparsityPatternEEELb1ELj1EEixEj = comdat any

$_ZNK6dealii12SmartPointerINS_28CompressedSetSparsityPatternEEdeEv = comdat any

$_ZN6dealii24BlockSparsityPatternBaseINS_28CompressedSetSparsityPatternEE13collect_sizesEv = comdat any

$_ZNK6dealii12SmartPointerINS_28CompressedSetSparsityPatternEEptEv = comdat any

$_ZNK6dealii28CompressedSetSparsityPattern6n_rowsEv = comdat any

$_ZNK6dealii28CompressedSetSparsityPattern6n_colsEv = comdat any

$_ZN6dealii24BlockSparsityPatternBaseINS_28CompressedSetSparsityPatternEE5blockEjj = comdat any

$_ZNK6dealii24BlockSparsityPatternBaseINS_28CompressedSetSparsityPatternEE5blockEjj = comdat any

$_ZNK6dealii24BlockSparsityPatternBaseINS_28CompressedSetSparsityPatternEE15get_row_indicesEv = comdat any

$_ZNK6dealii24BlockSparsityPatternBaseINS_28CompressedSetSparsityPatternEE18get_column_indicesEv = comdat any

$_ZN6dealii24BlockSparsityPatternBaseINS_28CompressedSetSparsityPatternEE8compressEv = comdat any

$_ZNK6dealii24BlockSparsityPatternBaseINS_28CompressedSetSparsityPatternEE12n_block_rowsEv = comdat any

$_ZNK6dealii24BlockSparsityPatternBaseINS_28CompressedSetSparsityPatternEE12n_block_colsEv = comdat any

$_ZNK6dealii24BlockSparsityPatternBaseINS_28CompressedSetSparsityPatternEE5emptyEv = comdat any

$_ZNK6dealii24BlockSparsityPatternBaseINS_28CompressedSetSparsityPatternEE19max_entries_per_rowEv = comdat any

$_ZN6dealii24BlockSparsityPatternBaseINS_28CompressedSetSparsityPatternEE3addEjj = comdat any

$_ZN6dealii28CompressedSetSparsityPattern3addEjj = comdat any

$_ZNK6dealii24BlockSparsityPatternBaseINS_28CompressedSetSparsityPatternEE6n_rowsEv = comdat any

$_ZNK6dealii24BlockSparsityPatternBaseINS_28CompressedSetSparsityPatternEE6n_colsEv = comdat any

$_ZNK6dealii24BlockSparsityPatternBaseINS_28CompressedSetSparsityPatternEE6existsEjj = comdat any

$_ZNK6dealii24BlockSparsityPatternBaseINS_28CompressedSetSparsityPatternEE10row_lengthEj = comdat any

$_ZNK6dealii28CompressedSetSparsityPattern10row_lengthEj = comdat any

$_ZNK6dealii24BlockSparsityPatternBaseINS_28CompressedSetSparsityPatternEE18n_nonzero_elementsEv = comdat any

$_ZNK6dealii24BlockSparsityPatternBaseINS_28CompressedSetSparsityPatternEE5printERSo = comdat any

$_ZNK6dealii24BlockSparsityPatternBaseINS_28CompressedSetSparsityPatternEE13print_gnuplotERSo = comdat any

$_ZN6dealii24BlockSparsityPatternBaseINS_28CompressedSetSparsityPatternEE25ExcIncompatibleRowNumbersC5Eiiii = comdat any

$_ZN6dealii24BlockSparsityPatternBaseINS_28CompressedSetSparsityPatternEE25ExcIncompatibleRowNumbersD5Ev = comdat any

$_ZNK6dealii24BlockSparsityPatternBaseINS_28CompressedSetSparsityPatternEE25ExcIncompatibleRowNumbers10print_infoERSo = comdat any

$_ZN6dealii24BlockSparsityPatternBaseINS_28CompressedSetSparsityPatternEE25ExcIncompatibleColNumbersC5Eiiii = comdat any

$_ZN6dealii24BlockSparsityPatternBaseINS_28CompressedSetSparsityPatternEE25ExcIncompatibleColNumbersD5Ev = comdat any

$_ZNK6dealii24BlockSparsityPatternBaseINS_28CompressedSetSparsityPatternEE25ExcIncompatibleColNumbers10print_infoERSo = comdat any

$_ZN6dealii24BlockSparsityPatternBaseINS_28CompressedSetSparsityPatternEE20ExcIncompatibleSizesC5Eii = comdat any

$_ZN6dealii24BlockSparsityPatternBaseINS_28CompressedSetSparsityPatternEE20ExcIncompatibleSizesD5Ev = comdat any

$_ZNK6dealii24BlockSparsityPatternBaseINS_28CompressedSetSparsityPatternEE20ExcIncompatibleSizes10print_infoERSo = comdat any

$_ZN6dealii20BlockSparsityPattern6reinitEjj = comdat any

$_ZNK6dealii12BlockIndices4sizeEv = comdat any

$_ZNK6dealii12BlockIndices15local_to_globalEjj = comdat any

$_ZNK6dealii12BlockIndices10block_sizeEj = comdat any

$_ZNKSt6vectorIS_IjSaIjEESaIS1_EEixEm = comdat any

$_ZN6dealii11VectorSliceIKSt6vectorIjSaIjEEEC2ERS4_jj = comdat any

$_ZNK6dealii15SparsityPattern13is_compressedEv = comdat any

$_ZN6dealii17MemoryConsumption18memory_consumptionEj = comdat any

$_ZN6dealii17MemoryConsumption18memory_consumptionINS_5TableILi2ENS_12SmartPointerINS_15SparsityPatternEEEEEEEjRKT_ = comdat any

$_ZN6dealii17MemoryConsumption18memory_consumptionINS_12BlockIndicesEEEjRKT_ = comdat any

$_ZN6dealii17MemoryConsumption18memory_consumptionINS_15SparsityPatternEEEjRKT_ = comdat any

$_ZNKSt6vectorIjSaIjEE4sizeEv = comdat any

$_ZNKSt6vectorIjSaIjEEixEm = comdat any

$_ZN6dealii24BlockSparsityPatternBaseINS_15SparsityPatternEE25ExcInvalidConstructorCallD2Ev = comdat any

$_ZN6dealii24BlockSparsityPatternBaseINS_15SparsityPatternEE25ExcInvalidConstructorCallD0Ev = comdat any

$_ZN6dealii24BlockSparsityPatternBaseINS_25CompressedSparsityPatternEE25ExcInvalidConstructorCallD2Ev = comdat any

$_ZN6dealii24BlockSparsityPatternBaseINS_25CompressedSparsityPatternEE25ExcInvalidConstructorCallD0Ev = comdat any

$_ZN6dealii24BlockSparsityPatternBaseINS_31CompressedSimpleSparsityPatternEE25ExcInvalidConstructorCallD2Ev = comdat any

$_ZN6dealii24BlockSparsityPatternBaseINS_31CompressedSimpleSparsityPatternEE25ExcInvalidConstructorCallD0Ev = comdat any

$_ZN6dealii24BlockSparsityPatternBaseINS_28CompressedSetSparsityPatternEE25ExcInvalidConstructorCallD2Ev = comdat any

$_ZN6dealii24BlockSparsityPatternBaseINS_28CompressedSetSparsityPatternEE25ExcInvalidConstructorCallD0Ev = comdat any

$_ZN6dealii20BlockSparsityPatternD2Ev = comdat any

$_ZN6dealii20BlockSparsityPatternD0Ev = comdat any

$_ZN6dealii30BlockCompressedSparsityPatternD2Ev = comdat any

$_ZN6dealii30BlockCompressedSparsityPatternD0Ev = comdat any

$_ZN6dealii33BlockCompressedSetSparsityPatternD2Ev = comdat any

$_ZN6dealii33BlockCompressedSetSparsityPatternD0Ev = comdat any

$_ZN6dealii36BlockCompressedSimpleSparsityPatternD2Ev = comdat any

$_ZN6dealii36BlockCompressedSimpleSparsityPatternD0Ev = comdat any

$_ZNSt12_Vector_baseIjSaIjEEC2Ev = comdat any

$_ZNSt12_Vector_baseIjSaIjEE12_Vector_implC2Ev = comdat any

$_ZNSt12_Vector_baseIjSaIjEE17_Vector_impl_dataC2Ev = comdat any

$_ZN9__gnu_cxx13new_allocatorIjEC2Ev = comdat any

$_ZNSt12_Vector_baseISt6vectorIjSaIjEESaIS2_EEC2Ev = comdat any

$_ZNSt12_Vector_baseISt6vectorIjSaIjEESaIS2_EE12_Vector_implC2Ev = comdat any

$_ZNSaISt6vectorIjSaIjEEEC2Ev = comdat any

$_ZNSt12_Vector_baseISt6vectorIjSaIjEESaIS2_EE17_Vector_impl_dataC2Ev = comdat any

$_ZN9__gnu_cxx13new_allocatorISt6vectorIjSaIjEEEC2Ev = comdat any

$_ZN6dealii12SmartPointerINS_15SparsityPatternEED2Ev = comdat any

$_ZN6dealii9TableBaseILi2ENS_12SmartPointerINS_15SparsityPatternEEEED2Ev = comdat any

$_ZN6dealii9TableBaseILi2ENS_12SmartPointerINS_15SparsityPatternEEEED0Ev = comdat any

$_ZNK6dealii11Subscriptor11unsubscribeEPKc = comdat any

$_ZNSt6vectorIjSaIjEE6resizeEm = comdat any

$_ZNSt6vectorIjSaIjEE17_M_default_appendEm = comdat any

$_ZNSt6vectorIjSaIjEE15_M_erase_at_endEPj = comdat any

$_ZNKSt6vectorIjSaIjEE8max_sizeEv = comdat any

$_ZSt27__uninitialized_default_n_aIPjmjET_S1_T0_RSaIT1_E = comdat any

$_ZNSt12_Vector_baseIjSaIjEE19_M_get_Tp_allocatorEv = comdat any

$_ZNKSt6vectorIjSaIjEE12_M_check_lenEmPKc = comdat any

$_ZNSt12_Vector_baseIjSaIjEE11_M_allocateEm = comdat any

$_ZNSt12_Vector_baseIjSaIjEE13_M_deallocateEPjm = comdat any

$_ZNSt6vectorIjSaIjEE11_S_relocateEPjS2_S2_RS0_ = comdat any

$_ZNSt6vectorIjSaIjEE11_S_max_sizeERKS0_ = comdat any

$_ZNKSt12_Vector_baseIjSaIjEE19_M_get_Tp_allocatorEv = comdat any

$_ZNSt16allocator_traitsISaIjEE8max_sizeERKS0_ = comdat any

$_ZSt3minImERKT_S2_S2_ = comdat any

$_ZNK9__gnu_cxx13new_allocatorIjE8max_sizeEv = comdat any

$_ZNK9__gnu_cxx13new_allocatorIjE11_M_max_sizeEv = comdat any

$_ZSt25__uninitialized_default_nIPjmET_S1_T0_ = comdat any

$_ZNSt27__uninitialized_default_n_1ILb1EE18__uninit_default_nIPjmEET_S3_T0_ = comdat any

$_ZSt6fill_nIPjmjET_S1_T0_RKT1_ = comdat any

$_ZSt10__fill_n_aIPjmjET_S1_T0_RKT1_St26random_access_iterator_tag = comdat any

$_ZSt17__size_to_integerm = comdat any

$_ZSt19__iterator_categoryIPjENSt15iterator_traitsIT_E17iterator_categoryERKS2_ = comdat any

$_ZSt8__fill_aIPjjEvT_S1_RKT0_ = comdat any

$_ZSt9__fill_a1IPjjEN9__gnu_cxx11__enable_ifIXsr11__is_scalarIT0_EE7__valueEvE6__typeET_S6_RKS3_ = comdat any

$_ZSt3maxImERKT_S2_S2_ = comdat any

$_ZNSt16allocator_traitsISaIjEE8allocateERS0_m = comdat any

$_ZN9__gnu_cxx13new_allocatorIjE8allocateEmPKv = comdat any

$_ZNSt16allocator_traitsISaIjEE10deallocateERS0_Pjm = comdat any

$_ZN9__gnu_cxx13new_allocatorIjE10deallocateEPjm = comdat any

$_ZNSt6vectorIjSaIjEE14_S_do_relocateEPjS2_S2_RS0_St17integral_constantIbLb1EE = comdat any

$_ZSt12__relocate_aIPjS0_SaIjEET0_T_S3_S2_RT1_ = comdat any

$_ZSt14__relocate_a_1IjjENSt9enable_ifIXsr3std24__is_bitwise_relocatableIT_EE5valueEPS1_E4typeES2_S2_S2_RSaIT0_E = comdat any

$_ZSt12__niter_baseIPjET_S1_ = comdat any

$_ZSt8_DestroyIPjjEvT_S1_RSaIT0_E = comdat any

$_ZSt8_DestroyIPjEvT_S1_ = comdat any

$_ZNSt12_Destroy_auxILb1EE9__destroyIPjEEvT_S3_ = comdat any

$_ZSt9make_pairIRijESt4pairINSt25__strip_reference_wrapperINSt5decayIT_E4typeEE6__typeENS2_INS3_IT0_E4typeEE6__typeEEOS4_OS9_ = comdat any

$_ZNSt4pairIjjEC2IijLb1EEEOS_IT_T0_E = comdat any

$_ZSt7forwardIRiEOT_RNSt16remove_referenceIS1_E4typeE = comdat any

$_ZSt7forwardIjEOT_RNSt16remove_referenceIS0_E4typeE = comdat any

$_ZNSt4pairIijEC2IRijLb1EEEOT_OT0_ = comdat any

$_ZSt7forwardIiEOT_RNSt16remove_referenceIS0_E4typeE = comdat any

$_ZN6dealii12SmartPointerINS_25CompressedSparsityPatternEED2Ev = comdat any

$_ZN6dealii9TableBaseILi2ENS_12SmartPointerINS_25CompressedSparsityPatternEEEED2Ev = comdat any

$_ZN6dealii9TableBaseILi2ENS_12SmartPointerINS_25CompressedSparsityPatternEEEED0Ev = comdat any

$_ZNSt6vectorIN6dealii25CompressedSparsityPattern4LineESaIS2_EEixEm = comdat any

$_ZN6dealii25CompressedSparsityPattern4Line3addEj = comdat any

$_ZNKSt6vectorIN6dealii25CompressedSparsityPattern4LineESaIS2_EEixEm = comdat any

$_ZN6dealii12SmartPointerINS_31CompressedSimpleSparsityPatternEED2Ev = comdat any

$_ZN6dealii9TableBaseILi2ENS_12SmartPointerINS_31CompressedSimpleSparsityPatternEEEED2Ev = comdat any

$_ZN6dealii9TableBaseILi2ENS_12SmartPointerINS_31CompressedSimpleSparsityPatternEEEED0Ev = comdat any

$_ZNSt6vectorIN6dealii31CompressedSimpleSparsityPattern4LineESaIS2_EEixEm = comdat any

$_ZN6dealii31CompressedSimpleSparsityPattern4Line3addEj = comdat any

$_ZNSt6vectorIjSaIjEE4backEv = comdat any

$_ZNSt6vectorIjSaIjEE9push_backERKj = comdat any

$_ZSt11lower_boundIN9__gnu_cxx17__normal_iteratorIPjSt6vectorIjSaIjEEEEjET_S7_S7_RKT0_ = comdat any

$_ZNSt6vectorIjSaIjEE5beginEv = comdat any

$_ZNSt6vectorIjSaIjEE3endEv = comdat any

$_ZNK9__gnu_cxx17__normal_iteratorIPjSt6vectorIjSaIjEEEdeEv = comdat any

$_ZNSt6vectorIjSaIjEE6insertEN9__gnu_cxx17__normal_iteratorIPKjS1_EERS4_ = comdat any

$_ZN9__gnu_cxx17__normal_iteratorIPKjSt6vectorIjSaIjEEEC2IPjEERKNS0_IT_NS_11__enable_ifIXsr3std10__are_sameIS9_S8_EE7__valueES5_E6__typeEEE = comdat any

$_ZNK9__gnu_cxx17__normal_iteratorIPjSt6vectorIjSaIjEEEmiEl = comdat any

$_ZN9__gnu_cxx17__normal_iteratorIPjSt6vectorIjSaIjEEEC2ERKS1_ = comdat any

$_ZNSt16allocator_traitsISaIjEE9constructIjJRKjEEEvRS0_PT_DpOT0_ = comdat any

$_ZNSt6vectorIjSaIjEE17_M_realloc_insertIJRKjEEEvN9__gnu_cxx17__normal_iteratorIPjS1_EEDpOT_ = comdat any

$_ZN9__gnu_cxx13new_allocatorIjE9constructIjJRKjEEEvPT_DpOT0_ = comdat any

$_ZSt7forwardIRKjEOT_RNSt16remove_referenceIS2_E4typeE = comdat any

$_ZN9__gnu_cxxmiIPjSt6vectorIjSaIjEEEENS_17__normal_iteratorIT_T0_E15difference_typeERKS8_SB_ = comdat any

$_ZNK9__gnu_cxx17__normal_iteratorIPjSt6vectorIjSaIjEEE4baseEv = comdat any

$_ZSt13__lower_boundIN9__gnu_cxx17__normal_iteratorIPjSt6vectorIjSaIjEEEEjNS0_5__ops14_Iter_less_valEET_S9_S9_RKT0_T1_ = comdat any

$_ZN9__gnu_cxx5__ops15__iter_less_valEv = comdat any

$_ZSt8distanceIN9__gnu_cxx17__normal_iteratorIPjSt6vectorIjSaIjEEEEENSt15iterator_traitsIT_E15difference_typeES8_S8_ = comdat any

$_ZSt7advanceIN9__gnu_cxx17__normal_iteratorIPjSt6vectorIjSaIjEEEElEvRT_T0_ = comdat any

$_ZNK9__gnu_cxx5__ops14_Iter_less_valclINS_17__normal_iteratorIPjSt6vectorIjSaIjEEEEKjEEbT_RT0_ = comdat any

$_ZN9__gnu_cxx17__normal_iteratorIPjSt6vectorIjSaIjEEEppEv = comdat any

$_ZSt10__distanceIN9__gnu_cxx17__normal_iteratorIPjSt6vectorIjSaIjEEEEENSt15iterator_traitsIT_E15difference_typeES8_S8_St26random_access_iterator_tag = comdat any

$_ZSt19__iterator_categoryIN9__gnu_cxx17__normal_iteratorIPjSt6vectorIjSaIjEEEEENSt15iterator_traitsIT_E17iterator_categoryERKS8_ = comdat any

$_ZSt9__advanceIN9__gnu_cxx17__normal_iteratorIPjSt6vectorIjSaIjEEEElEvRT_T0_St26random_access_iterator_tag = comdat any

$_ZN9__gnu_cxx17__normal_iteratorIPjSt6vectorIjSaIjEEEmmEv = comdat any

$_ZN9__gnu_cxx17__normal_iteratorIPjSt6vectorIjSaIjEEEpLEl = comdat any

$_ZN9__gnu_cxxmiIPKjPjSt6vectorIjSaIjEEEEDTmicldtfp_4baseEcldtfp0_4baseEERKNS_17__normal_iteratorIT_T1_EERKNS8_IT0_SA_EE = comdat any

$_ZN9__gnu_cxxeqIPKjPjSt6vectorIjSaIjEEEEbRKNS_17__normal_iteratorIT_T1_EERKNS7_IT0_S9_EE = comdat any

$_ZNK9__gnu_cxx17__normal_iteratorIPjSt6vectorIjSaIjEEEplEl = comdat any

$_ZN9__gnu_cxxmiIPKjSt6vectorIjSaIjEEEENS_17__normal_iteratorIT_T0_E15difference_typeERKS9_SC_ = comdat any

$_ZNKSt6vectorIjSaIjEE6cbeginEv = comdat any

$_ZNSt6vectorIjSaIjEE16_Temporary_valueC2IJRKjEEEPS1_DpOT_ = comdat any

$_ZNSt6vectorIjSaIjEE13_M_insert_auxIjEEvN9__gnu_cxx17__normal_iteratorIPjS1_EEOT_ = comdat any

$_ZSt4moveIRjEONSt16remove_referenceIT_E4typeEOS2_ = comdat any

$_ZNSt6vectorIjSaIjEE16_Temporary_value6_M_valEv = comdat any

$_ZNSt6vectorIjSaIjEE16_Temporary_valueD2Ev = comdat any

$_ZNK9__gnu_cxx17__normal_iteratorIPKjSt6vectorIjSaIjEEE4baseEv = comdat any

$_ZN9__gnu_cxx17__normal_iteratorIPKjSt6vectorIjSaIjEEEC2ERKS2_ = comdat any

$_ZNSt6vectorIjSaIjEE16_Temporary_value6_M_ptrEv = comdat any

$_ZNSt16allocator_traitsISaIjEE9constructIjJjEEEvRS0_PT_DpOT0_ = comdat any

$_ZSt13move_backwardIPjS0_ET0_T_S2_S1_ = comdat any

$_ZN9__gnu_cxx13new_allocatorIjE9constructIjJjEEEvPT_DpOT0_ = comdat any

$_ZSt22__copy_move_backward_aILb1EPjS0_ET1_T0_S2_S1_ = comdat any

$_ZSt12__miter_baseIPjET_S1_ = comdat any

$_ZSt12__niter_wrapIPjET_RKS1_S1_ = comdat any

$_ZSt23__copy_move_backward_a1ILb1EPjS0_ET1_T0_S2_S1_ = comdat any

$_ZSt23__copy_move_backward_a2ILb1EPjS0_ET1_T0_S2_S1_ = comdat any

$_ZNSt20__copy_move_backwardILb1ELb1ESt26random_access_iterator_tagE13__copy_move_bIjEEPT_PKS3_S6_S4_ = comdat any

$_ZNSt16allocator_traitsISaIjEE7destroyIjEEvRS0_PT_ = comdat any

$_ZN9__gnu_cxx13new_allocatorIjE7destroyIjEEvPT_ = comdat any

$_ZNKSt6vectorIN6dealii31CompressedSimpleSparsityPattern4LineESaIS2_EEixEm = comdat any

$_ZN6dealii12SmartPointerINS_28CompressedSetSparsityPatternEED2Ev = comdat any

$_ZN6dealii9TableBaseILi2ENS_12SmartPointerINS_28CompressedSetSparsityPatternEEEED2Ev = comdat any

$_ZN6dealii9TableBaseILi2ENS_12SmartPointerINS_28CompressedSetSparsityPatternEEEED0Ev = comdat any

$_ZNSt6vectorIN6dealii28CompressedSetSparsityPattern4LineESaIS2_EEixEm = comdat any

$_ZN6dealii28CompressedSetSparsityPattern4Line3addEj = comdat any

$_ZNSt3setIjSt4lessIjESaIjEE6insertERKj = comdat any

$_ZNSt8_Rb_treeIjjSt9_IdentityIjESt4lessIjESaIjEE16_M_insert_uniqueIRKjEESt4pairISt17_Rb_tree_iteratorIjEbEOT_ = comdat any

$_ZNSt4pairISt23_Rb_tree_const_iteratorIjEbEC2IRSt17_Rb_tree_iteratorIjERbLb1EEEOT_OT0_ = comdat any

$_ZNSt8_Rb_treeIjjSt9_IdentityIjESt4lessIjESaIjEE24_M_get_insert_unique_posERKj = comdat any

$_ZNKSt9_IdentityIjEclERKj = comdat any

$_ZNSt8_Rb_treeIjjSt9_IdentityIjESt4lessIjESaIjEE11_Alloc_nodeC2ERS5_ = comdat any

$_ZNSt8_Rb_treeIjjSt9_IdentityIjESt4lessIjESaIjEE10_M_insert_IRKjNS5_11_Alloc_nodeEEESt17_Rb_tree_iteratorIjEPSt18_Rb_tree_node_baseSD_OT_RT0_ = comdat any

$_ZNSt4pairISt17_Rb_tree_iteratorIjEbEC2IS1_bLb1EEEOT_OT0_ = comdat any

$_ZNSt17_Rb_tree_iteratorIjEC2EPSt18_Rb_tree_node_base = comdat any

$_ZNSt8_Rb_treeIjjSt9_IdentityIjESt4lessIjESaIjEE8_M_beginEv = comdat any

$_ZNSt8_Rb_treeIjjSt9_IdentityIjESt4lessIjESaIjEE6_M_endEv = comdat any

$_ZNKSt4lessIjEclERKjS2_ = comdat any

$_ZNSt8_Rb_treeIjjSt9_IdentityIjESt4lessIjESaIjEE6_S_keyEPKSt13_Rb_tree_nodeIjE = comdat any

$_ZNSt8_Rb_treeIjjSt9_IdentityIjESt4lessIjESaIjEE7_S_leftEPSt18_Rb_tree_node_base = comdat any

$_ZNSt8_Rb_treeIjjSt9_IdentityIjESt4lessIjESaIjEE8_S_rightEPSt18_Rb_tree_node_base = comdat any

$_ZSteqRKSt17_Rb_tree_iteratorIjES2_ = comdat any

$_ZNSt8_Rb_treeIjjSt9_IdentityIjESt4lessIjESaIjEE5beginEv = comdat any

$_ZNSt4pairIPSt18_Rb_tree_node_baseS1_EC2IRPSt13_Rb_tree_nodeIjERS1_Lb1EEEOT_OT0_ = comdat any

$_ZNSt17_Rb_tree_iteratorIjEmmEv = comdat any

$_ZNSt8_Rb_treeIjjSt9_IdentityIjESt4lessIjESaIjEE6_S_keyEPKSt18_Rb_tree_node_base = comdat any

$_ZNSt4pairIPSt18_Rb_tree_node_baseS1_EC2IRS1_Lb1EEEOT_RKS1_ = comdat any

$_ZNKSt13_Rb_tree_nodeIjE9_M_valptrEv = comdat any

$_ZNK9__gnu_cxx16__aligned_membufIjE6_M_ptrEv = comdat any

$_ZNK9__gnu_cxx16__aligned_membufIjE7_M_addrEv = comdat any

$_ZSt7forwardIRPSt13_Rb_tree_nodeIjEEOT_RNSt16remove_referenceIS4_E4typeE = comdat any

$_ZSt7forwardIRPSt18_Rb_tree_node_baseEOT_RNSt16remove_referenceIS3_E4typeE = comdat any

$_ZNKSt8_Rb_treeIjjSt9_IdentityIjESt4lessIjESaIjEE11_Alloc_nodeclIRKjEEPSt13_Rb_tree_nodeIjEOT_ = comdat any

$_ZNSt8_Rb_treeIjjSt9_IdentityIjESt4lessIjESaIjEE14_M_create_nodeIJRKjEEEPSt13_Rb_tree_nodeIjEDpOT_ = comdat any

$_ZNSt8_Rb_treeIjjSt9_IdentityIjESt4lessIjESaIjEE11_M_get_nodeEv = comdat any

$_ZNSt8_Rb_treeIjjSt9_IdentityIjESt4lessIjESaIjEE17_M_construct_nodeIJRKjEEEvPSt13_Rb_tree_nodeIjEDpOT_ = comdat any

$_ZNSt16allocator_traitsISaISt13_Rb_tree_nodeIjEEE8allocateERS2_m = comdat any

$_ZNSt8_Rb_treeIjjSt9_IdentityIjESt4lessIjESaIjEE21_M_get_Node_allocatorEv = comdat any

$_ZN9__gnu_cxx13new_allocatorISt13_Rb_tree_nodeIjEE8allocateEmPKv = comdat any

$_ZNK9__gnu_cxx13new_allocatorISt13_Rb_tree_nodeIjEE11_M_max_sizeEv = comdat any

$_ZNSt16allocator_traitsISaISt13_Rb_tree_nodeIjEEE9constructIjJRKjEEEvRS2_PT_DpOT0_ = comdat any

$_ZNSt13_Rb_tree_nodeIjE9_M_valptrEv = comdat any

$_ZNSt8_Rb_treeIjjSt9_IdentityIjESt4lessIjESaIjEE11_M_put_nodeEPSt13_Rb_tree_nodeIjE = comdat any

$_ZN9__gnu_cxx13new_allocatorISt13_Rb_tree_nodeIjEE9constructIjJRKjEEEvPT_DpOT0_ = comdat any

$_ZN9__gnu_cxx16__aligned_membufIjE6_M_ptrEv = comdat any

$_ZN9__gnu_cxx16__aligned_membufIjE7_M_addrEv = comdat any

$_ZNSt16allocator_traitsISaISt13_Rb_tree_nodeIjEEE10deallocateERS2_PS1_m = comdat any

$_ZN9__gnu_cxx13new_allocatorISt13_Rb_tree_nodeIjEE10deallocateEPS2_m = comdat any

$_ZSt7forwardISt17_Rb_tree_iteratorIjEEOT_RNSt16remove_referenceIS2_E4typeE = comdat any

$_ZSt7forwardIbEOT_RNSt16remove_referenceIS0_E4typeE = comdat any

$_ZSt7forwardIRSt17_Rb_tree_iteratorIjEEOT_RNSt16remove_referenceIS3_E4typeE = comdat any

$_ZNSt23_Rb_tree_const_iteratorIjEC2ERKSt17_Rb_tree_iteratorIjE = comdat any

$_ZSt7forwardIRbEOT_RNSt16remove_referenceIS1_E4typeE = comdat any

$_ZNKSt6vectorIN6dealii28CompressedSetSparsityPattern4LineESaIS2_EEixEm = comdat any

$_ZNKSt3setIjSt4lessIjESaIjEE4sizeEv = comdat any

$_ZNKSt8_Rb_treeIjjSt9_IdentityIjESt4lessIjESaIjEE4sizeEv = comdat any

$_ZN9__gnu_cxx13new_allocatorIjED2Ev = comdat any

$_ZNSt12_Vector_baseIjSaIjEED2Ev = comdat any

$_ZNSt12_Vector_baseIjSaIjEE12_Vector_implD2Ev = comdat any

$_ZNSt6vectorIjSaIjEE17_S_check_init_lenEmRKS0_ = comdat any

$_ZNSt12_Vector_baseIjSaIjEEC2EmRKS0_ = comdat any

$_ZNSt6vectorIjSaIjEE21_M_default_initializeEm = comdat any

$_ZNSaIjEC2ERKS_ = comdat any

$_ZN9__gnu_cxx13new_allocatorIjEC2ERKS1_ = comdat any

$_ZNSt12_Vector_baseIjSaIjEE12_Vector_implC2ERKS0_ = comdat any

$_ZNSt12_Vector_baseIjSaIjEE17_M_create_storageEm = comdat any

$_ZN6dealii9TableBaseILi2ENS_12SmartPointerINS_15SparsityPatternEEEEC2Ev = comdat any

$_ZN6dealii5TableILi2ENS_12SmartPointerINS_15SparsityPatternEEEED0Ev = comdat any

$_ZN6dealii12TableIndicesILi2EEC2Ev = comdat any

$_ZSt8_DestroyIPSt6vectorIjSaIjEES2_EvT_S4_RSaIT0_E = comdat any

$_ZNSt12_Vector_baseISt6vectorIjSaIjEESaIS2_EE19_M_get_Tp_allocatorEv = comdat any

$_ZNSt12_Vector_baseISt6vectorIjSaIjEESaIS2_EED2Ev = comdat any

$_ZSt8_DestroyIPSt6vectorIjSaIjEEEvT_S4_ = comdat any

$_ZNSt12_Destroy_auxILb0EE9__destroyIPSt6vectorIjSaIjEEEEvT_S6_ = comdat any

$_ZSt8_DestroyISt6vectorIjSaIjEEEvPT_ = comdat any

$_ZSt11__addressofISt6vectorIjSaIjEEEPT_RS3_ = comdat any

$_ZNSt12_Vector_baseISt6vectorIjSaIjEESaIS2_EE13_M_deallocateEPS2_m = comdat any

$_ZNSt12_Vector_baseISt6vectorIjSaIjEESaIS2_EE12_Vector_implD2Ev = comdat any

$_ZNSt16allocator_traitsISaISt6vectorIjSaIjEEEE10deallocateERS3_PS2_m = comdat any

$_ZN9__gnu_cxx13new_allocatorISt6vectorIjSaIjEEE10deallocateEPS3_m = comdat any

$_ZNSaISt6vectorIjSaIjEEED2Ev = comdat any

$_ZN9__gnu_cxx13new_allocatorISt6vectorIjSaIjEEED2Ev = comdat any

$_ZNK6dealii5TableILi2ENS_12SmartPointerINS_15SparsityPatternEEEE6n_colsEv = comdat any

$_ZN6dealii8internal18TableBaseAccessors8AccessorILi2ENS_12SmartPointerINS_15SparsityPatternEEELb0ELj1EEC2ERKNS_9TableBaseILi2ES5_EEPS5_ = comdat any

$_ZNK6dealii16TableIndicesBaseILi2EEixEj = comdat any

$_ZNK6dealii11Subscriptor9subscribeEPKc = comdat any

$_ZN6dealii9TableBaseILi2ENS_12SmartPointerINS_15SparsityPatternEEEE6reinitERKNS_12TableIndicesILi2EEE = comdat any

$_ZN6dealii12TableIndicesILi2EEC2Ejj = comdat any

$_ZNK6dealii9TableBaseILi2ENS_12SmartPointerINS_15SparsityPatternEEEE10n_elementsEv = comdat any

$_ZN6dealii12SmartPointerINS_15SparsityPatternEEC2Ev = comdat any

$_ZN6dealii9TableBaseILi2ENS_12SmartPointerINS_15SparsityPatternEEEE12reset_valuesEv = comdat any

$_ZSt6fill_nIPN6dealii12SmartPointerINS0_15SparsityPatternEEEjS3_ET_S5_T0_RKT1_ = comdat any

$_ZSt10__fill_n_aIPN6dealii12SmartPointerINS0_15SparsityPatternEEEjS3_ET_S5_T0_RKT1_St26random_access_iterator_tag = comdat any

$_ZSt17__size_to_integerj = comdat any

$_ZSt19__iterator_categoryIPN6dealii12SmartPointerINS0_15SparsityPatternEEEENSt15iterator_traitsIT_E17iterator_categoryERKS6_ = comdat any

$_ZSt8__fill_aIPN6dealii12SmartPointerINS0_15SparsityPatternEEES3_EvT_S5_RKT0_ = comdat any

$_ZSt9__fill_a1IPN6dealii12SmartPointerINS0_15SparsityPatternEEES3_EN9__gnu_cxx11__enable_ifIXntsr11__is_scalarIT0_EE7__valueEvE6__typeET_SA_RKS7_ = comdat any

$_ZN6dealii12SmartPointerINS_15SparsityPatternEEaSERKS2_ = comdat any

$_ZN6dealii8internal18TableBaseAccessors8AccessorILi2ENS_12SmartPointerINS_15SparsityPatternEEELb1ELj1EEC2ERKNS_9TableBaseILi2ES5_EEPKS5_ = comdat any

$_ZN6dealii9TableBaseILi2ENS_12SmartPointerINS_25CompressedSparsityPatternEEEEC2Ev = comdat any

$_ZN6dealii5TableILi2ENS_12SmartPointerINS_25CompressedSparsityPatternEEEED0Ev = comdat any

$_ZNK6dealii5TableILi2ENS_12SmartPointerINS_25CompressedSparsityPatternEEEE6n_colsEv = comdat any

$_ZN6dealii8internal18TableBaseAccessors8AccessorILi2ENS_12SmartPointerINS_25CompressedSparsityPatternEEELb0ELj1EEC2ERKNS_9TableBaseILi2ES5_EEPS5_ = comdat any

$_ZN6dealii9TableBaseILi2ENS_12SmartPointerINS_25CompressedSparsityPatternEEEE6reinitERKNS_12TableIndicesILi2EEE = comdat any

$_ZNK6dealii9TableBaseILi2ENS_12SmartPointerINS_25CompressedSparsityPatternEEEE10n_elementsEv = comdat any

$_ZN6dealii12SmartPointerINS_25CompressedSparsityPatternEEC2Ev = comdat any

$_ZN6dealii9TableBaseILi2ENS_12SmartPointerINS_25CompressedSparsityPatternEEEE12reset_valuesEv = comdat any

$_ZSt6fill_nIPN6dealii12SmartPointerINS0_25CompressedSparsityPatternEEEjS3_ET_S5_T0_RKT1_ = comdat any

$_ZSt10__fill_n_aIPN6dealii12SmartPointerINS0_25CompressedSparsityPatternEEEjS3_ET_S5_T0_RKT1_St26random_access_iterator_tag = comdat any

$_ZSt19__iterator_categoryIPN6dealii12SmartPointerINS0_25CompressedSparsityPatternEEEENSt15iterator_traitsIT_E17iterator_categoryERKS6_ = comdat any

$_ZSt8__fill_aIPN6dealii12SmartPointerINS0_25CompressedSparsityPatternEEES3_EvT_S5_RKT0_ = comdat any

$_ZSt9__fill_a1IPN6dealii12SmartPointerINS0_25CompressedSparsityPatternEEES3_EN9__gnu_cxx11__enable_ifIXntsr11__is_scalarIT0_EE7__valueEvE6__typeET_SA_RKS7_ = comdat any

$_ZN6dealii12SmartPointerINS_25CompressedSparsityPatternEEaSERKS2_ = comdat any

$_ZN6dealii8internal18TableBaseAccessors8AccessorILi2ENS_12SmartPointerINS_25CompressedSparsityPatternEEELb1ELj1EEC2ERKNS_9TableBaseILi2ES5_EEPKS5_ = comdat any

$_ZN6dealii9TableBaseILi2ENS_12SmartPointerINS_31CompressedSimpleSparsityPatternEEEEC2Ev = comdat any

$_ZN6dealii5TableILi2ENS_12SmartPointerINS_31CompressedSimpleSparsityPatternEEEED0Ev = comdat any

$_ZNK6dealii5TableILi2ENS_12SmartPointerINS_31CompressedSimpleSparsityPatternEEEE6n_colsEv = comdat any

$_ZN6dealii8internal18TableBaseAccessors8AccessorILi2ENS_12SmartPointerINS_31CompressedSimpleSparsityPatternEEELb0ELj1EEC2ERKNS_9TableBaseILi2ES5_EEPS5_ = comdat any

$_ZN6dealii9TableBaseILi2ENS_12SmartPointerINS_31CompressedSimpleSparsityPatternEEEE6reinitERKNS_12TableIndicesILi2EEE = comdat any

$_ZNK6dealii9TableBaseILi2ENS_12SmartPointerINS_31CompressedSimpleSparsityPatternEEEE10n_elementsEv = comdat any

$_ZN6dealii12SmartPointerINS_31CompressedSimpleSparsityPatternEEC2Ev = comdat any

$_ZN6dealii9TableBaseILi2ENS_12SmartPointerINS_31CompressedSimpleSparsityPatternEEEE12reset_valuesEv = comdat any

$_ZSt6fill_nIPN6dealii12SmartPointerINS0_31CompressedSimpleSparsityPatternEEEjS3_ET_S5_T0_RKT1_ = comdat any

$_ZSt10__fill_n_aIPN6dealii12SmartPointerINS0_31CompressedSimpleSparsityPatternEEEjS3_ET_S5_T0_RKT1_St26random_access_iterator_tag = comdat any

$_ZSt19__iterator_categoryIPN6dealii12SmartPointerINS0_31CompressedSimpleSparsityPatternEEEENSt15iterator_traitsIT_E17iterator_categoryERKS6_ = comdat any

$_ZSt8__fill_aIPN6dealii12SmartPointerINS0_31CompressedSimpleSparsityPatternEEES3_EvT_S5_RKT0_ = comdat any

$_ZSt9__fill_a1IPN6dealii12SmartPointerINS0_31CompressedSimpleSparsityPatternEEES3_EN9__gnu_cxx11__enable_ifIXntsr11__is_scalarIT0_EE7__valueEvE6__typeET_SA_RKS7_ = comdat any

$_ZN6dealii12SmartPointerINS_31CompressedSimpleSparsityPatternEEaSERKS2_ = comdat any

$_ZN6dealii8internal18TableBaseAccessors8AccessorILi2ENS_12SmartPointerINS_31CompressedSimpleSparsityPatternEEELb1ELj1EEC2ERKNS_9TableBaseILi2ES5_EEPKS5_ = comdat any

$_ZN6dealii9TableBaseILi2ENS_12SmartPointerINS_28CompressedSetSparsityPatternEEEEC2Ev = comdat any

$_ZN6dealii5TableILi2ENS_12SmartPointerINS_28CompressedSetSparsityPatternEEEED0Ev = comdat any

$_ZNK6dealii5TableILi2ENS_12SmartPointerINS_28CompressedSetSparsityPatternEEEE6n_colsEv = comdat any

$_ZN6dealii8internal18TableBaseAccessors8AccessorILi2ENS_12SmartPointerINS_28CompressedSetSparsityPatternEEELb0ELj1EEC2ERKNS_9TableBaseILi2ES5_EEPS5_ = comdat any

$_ZN6dealii9TableBaseILi2ENS_12SmartPointerINS_28CompressedSetSparsityPatternEEEE6reinitERKNS_12TableIndicesILi2EEE = comdat any

$_ZNK6dealii9TableBaseILi2ENS_12SmartPointerINS_28CompressedSetSparsityPatternEEEE10n_elementsEv = comdat any

$_ZN6dealii12SmartPointerINS_28CompressedSetSparsityPatternEEC2Ev = comdat any

$_ZN6dealii9TableBaseILi2ENS_12SmartPointerINS_28CompressedSetSparsityPatternEEEE12reset_valuesEv = comdat any

$_ZSt6fill_nIPN6dealii12SmartPointerINS0_28CompressedSetSparsityPatternEEEjS3_ET_S5_T0_RKT1_ = comdat any

$_ZSt10__fill_n_aIPN6dealii12SmartPointerINS0_28CompressedSetSparsityPatternEEEjS3_ET_S5_T0_RKT1_St26random_access_iterator_tag = comdat any

$_ZSt19__iterator_categoryIPN6dealii12SmartPointerINS0_28CompressedSetSparsityPatternEEEENSt15iterator_traitsIT_E17iterator_categoryERKS6_ = comdat any

$_ZSt8__fill_aIPN6dealii12SmartPointerINS0_28CompressedSetSparsityPatternEEES3_EvT_S5_RKT0_ = comdat any

$_ZSt9__fill_a1IPN6dealii12SmartPointerINS0_28CompressedSetSparsityPatternEEES3_EN9__gnu_cxx11__enable_ifIXntsr11__is_scalarIT0_EE7__valueEvE6__typeET_SA_RKS7_ = comdat any

$_ZN6dealii12SmartPointerINS_28CompressedSetSparsityPatternEEaSERKS2_ = comdat any

$_ZN6dealii8internal18TableBaseAccessors8AccessorILi2ENS_12SmartPointerINS_28CompressedSetSparsityPatternEEELb1ELj1EEC2ERKNS_9TableBaseILi2ES5_EEPKS5_ = comdat any

$_ZNK6dealii9TableBaseILi2ENS_12SmartPointerINS_15SparsityPatternEEEE18memory_consumptionEv = comdat any

$_ZNK6dealii12BlockIndices18memory_consumptionEv = comdat any

$_ZTVN6dealii24BlockSparsityPatternBaseINS_15SparsityPatternEEE = comdat any

$_ZTVN6dealii24BlockSparsityPatternBaseINS_15SparsityPatternEE25ExcIncompatibleRowNumbersE = comdat any

$_ZTVN6dealii24BlockSparsityPatternBaseINS_15SparsityPatternEE25ExcIncompatibleColNumbersE = comdat any

$_ZTVN6dealii24BlockSparsityPatternBaseINS_15SparsityPatternEE20ExcIncompatibleSizesE = comdat any

$_ZTVN6dealii24BlockSparsityPatternBaseINS_25CompressedSparsityPatternEEE = comdat any

$_ZTVN6dealii24BlockSparsityPatternBaseINS_25CompressedSparsityPatternEE25ExcIncompatibleRowNumbersE = comdat any

$_ZTVN6dealii24BlockSparsityPatternBaseINS_25CompressedSparsityPatternEE25ExcIncompatibleColNumbersE = comdat any

$_ZTVN6dealii24BlockSparsityPatternBaseINS_25CompressedSparsityPatternEE20ExcIncompatibleSizesE = comdat any

$_ZTVN6dealii24BlockSparsityPatternBaseINS_31CompressedSimpleSparsityPatternEEE = comdat any

$_ZTVN6dealii24BlockSparsityPatternBaseINS_31CompressedSimpleSparsityPatternEE25ExcIncompatibleRowNumbersE = comdat any

$_ZTVN6dealii24BlockSparsityPatternBaseINS_31CompressedSimpleSparsityPatternEE25ExcIncompatibleColNumbersE = comdat any

$_ZTVN6dealii24BlockSparsityPatternBaseINS_31CompressedSimpleSparsityPatternEE20ExcIncompatibleSizesE = comdat any

$_ZTVN6dealii24BlockSparsityPatternBaseINS_28CompressedSetSparsityPatternEEE = comdat any

$_ZTVN6dealii24BlockSparsityPatternBaseINS_28CompressedSetSparsityPatternEE25ExcIncompatibleRowNumbersE = comdat any

$_ZTVN6dealii24BlockSparsityPatternBaseINS_28CompressedSetSparsityPatternEE25ExcIncompatibleColNumbersE = comdat any

$_ZTVN6dealii24BlockSparsityPatternBaseINS_28CompressedSetSparsityPatternEE20ExcIncompatibleSizesE = comdat any

$_ZTVN6dealii20BlockSparsityPatternE = comdat any

$_ZTVN6dealii30BlockCompressedSparsityPatternE = comdat any

$_ZTVN6dealii33BlockCompressedSetSparsityPatternE = comdat any

$_ZTVN6dealii36BlockCompressedSimpleSparsityPatternE = comdat any

$_ZTSN6dealii24BlockSparsityPatternBaseINS_15SparsityPatternEEE = comdat any

$_ZTIN6dealii24BlockSparsityPatternBaseINS_15SparsityPatternEEE = comdat any

$_ZTSN6dealii24BlockSparsityPatternBaseINS_15SparsityPatternEE25ExcIncompatibleRowNumbersE = comdat any

$_ZTIN6dealii24BlockSparsityPatternBaseINS_15SparsityPatternEE25ExcIncompatibleRowNumbersE = comdat any

$_ZTSN6dealii24BlockSparsityPatternBaseINS_15SparsityPatternEE25ExcIncompatibleColNumbersE = comdat any

$_ZTIN6dealii24BlockSparsityPatternBaseINS_15SparsityPatternEE25ExcIncompatibleColNumbersE = comdat any

$_ZTSN6dealii24BlockSparsityPatternBaseINS_15SparsityPatternEE20ExcIncompatibleSizesE = comdat any

$_ZTIN6dealii24BlockSparsityPatternBaseINS_15SparsityPatternEE20ExcIncompatibleSizesE = comdat any

$_ZTVN6dealii24BlockSparsityPatternBaseINS_15SparsityPatternEE25ExcInvalidConstructorCallE = comdat any

$_ZTSN6dealii24BlockSparsityPatternBaseINS_15SparsityPatternEE25ExcInvalidConstructorCallE = comdat any

$_ZTIN6dealii24BlockSparsityPatternBaseINS_15SparsityPatternEE25ExcInvalidConstructorCallE = comdat any

$_ZTSN6dealii24BlockSparsityPatternBaseINS_25CompressedSparsityPatternEEE = comdat any

$_ZTIN6dealii24BlockSparsityPatternBaseINS_25CompressedSparsityPatternEEE = comdat any

$_ZTSN6dealii24BlockSparsityPatternBaseINS_25CompressedSparsityPatternEE25ExcIncompatibleRowNumbersE = comdat any

$_ZTIN6dealii24BlockSparsityPatternBaseINS_25CompressedSparsityPatternEE25ExcIncompatibleRowNumbersE = comdat any

$_ZTSN6dealii24BlockSparsityPatternBaseINS_25CompressedSparsityPatternEE25ExcIncompatibleColNumbersE = comdat any

$_ZTIN6dealii24BlockSparsityPatternBaseINS_25CompressedSparsityPatternEE25ExcIncompatibleColNumbersE = comdat any

$_ZTSN6dealii24BlockSparsityPatternBaseINS_25CompressedSparsityPatternEE20ExcIncompatibleSizesE = comdat any

$_ZTIN6dealii24BlockSparsityPatternBaseINS_25CompressedSparsityPatternEE20ExcIncompatibleSizesE = comdat any

$_ZTVN6dealii24BlockSparsityPatternBaseINS_25CompressedSparsityPatternEE25ExcInvalidConstructorCallE = comdat any

$_ZTSN6dealii24BlockSparsityPatternBaseINS_25CompressedSparsityPatternEE25ExcInvalidConstructorCallE = comdat any

$_ZTIN6dealii24BlockSparsityPatternBaseINS_25CompressedSparsityPatternEE25ExcInvalidConstructorCallE = comdat any

$_ZTSN6dealii24BlockSparsityPatternBaseINS_31CompressedSimpleSparsityPatternEEE = comdat any

$_ZTIN6dealii24BlockSparsityPatternBaseINS_31CompressedSimpleSparsityPatternEEE = comdat any

$_ZTSN6dealii24BlockSparsityPatternBaseINS_31CompressedSimpleSparsityPatternEE25ExcIncompatibleRowNumbersE = comdat any

$_ZTIN6dealii24BlockSparsityPatternBaseINS_31CompressedSimpleSparsityPatternEE25ExcIncompatibleRowNumbersE = comdat any

$_ZTSN6dealii24BlockSparsityPatternBaseINS_31CompressedSimpleSparsityPatternEE25ExcIncompatibleColNumbersE = comdat any

$_ZTIN6dealii24BlockSparsityPatternBaseINS_31CompressedSimpleSparsityPatternEE25ExcIncompatibleColNumbersE = comdat any

$_ZTSN6dealii24BlockSparsityPatternBaseINS_31CompressedSimpleSparsityPatternEE20ExcIncompatibleSizesE = comdat any

$_ZTIN6dealii24BlockSparsityPatternBaseINS_31CompressedSimpleSparsityPatternEE20ExcIncompatibleSizesE = comdat any

$_ZTVN6dealii24BlockSparsityPatternBaseINS_31CompressedSimpleSparsityPatternEE25ExcInvalidConstructorCallE = comdat any

$_ZTSN6dealii24BlockSparsityPatternBaseINS_31CompressedSimpleSparsityPatternEE25ExcInvalidConstructorCallE = comdat any

$_ZTIN6dealii24BlockSparsityPatternBaseINS_31CompressedSimpleSparsityPatternEE25ExcInvalidConstructorCallE = comdat any

$_ZTSN6dealii24BlockSparsityPatternBaseINS_28CompressedSetSparsityPatternEEE = comdat any

$_ZTIN6dealii24BlockSparsityPatternBaseINS_28CompressedSetSparsityPatternEEE = comdat any

$_ZTSN6dealii24BlockSparsityPatternBaseINS_28CompressedSetSparsityPatternEE25ExcIncompatibleRowNumbersE = comdat any

$_ZTIN6dealii24BlockSparsityPatternBaseINS_28CompressedSetSparsityPatternEE25ExcIncompatibleRowNumbersE = comdat any

$_ZTSN6dealii24BlockSparsityPatternBaseINS_28CompressedSetSparsityPatternEE25ExcIncompatibleColNumbersE = comdat any

$_ZTIN6dealii24BlockSparsityPatternBaseINS_28CompressedSetSparsityPatternEE25ExcIncompatibleColNumbersE = comdat any

$_ZTSN6dealii24BlockSparsityPatternBaseINS_28CompressedSetSparsityPatternEE20ExcIncompatibleSizesE = comdat any

$_ZTIN6dealii24BlockSparsityPatternBaseINS_28CompressedSetSparsityPatternEE20ExcIncompatibleSizesE = comdat any

$_ZTVN6dealii24BlockSparsityPatternBaseINS_28CompressedSetSparsityPatternEE25ExcInvalidConstructorCallE = comdat any

$_ZTSN6dealii24BlockSparsityPatternBaseINS_28CompressedSetSparsityPatternEE25ExcInvalidConstructorCallE = comdat any

$_ZTIN6dealii24BlockSparsityPatternBaseINS_28CompressedSetSparsityPatternEE25ExcInvalidConstructorCallE = comdat any

$_ZTSN6dealii20BlockSparsityPatternE = comdat any

$_ZTIN6dealii20BlockSparsityPatternE = comdat any

$_ZTSN6dealii30BlockCompressedSparsityPatternE = comdat any

$_ZTIN6dealii30BlockCompressedSparsityPatternE = comdat any

$_ZTSN6dealii33BlockCompressedSetSparsityPatternE = comdat any

$_ZTIN6dealii33BlockCompressedSetSparsityPatternE = comdat any

$_ZTSN6dealii36BlockCompressedSimpleSparsityPatternE = comdat any

$_ZTIN6dealii36BlockCompressedSimpleSparsityPatternE = comdat any

$_ZTVN6dealii9TableBaseILi2ENS_12SmartPointerINS_15SparsityPatternEEEEE = comdat any

$_ZTSN6dealii9TableBaseILi2ENS_12SmartPointerINS_15SparsityPatternEEEEE = comdat any

$_ZTIN6dealii9TableBaseILi2ENS_12SmartPointerINS_15SparsityPatternEEEEE = comdat any

$_ZTVN6dealii9TableBaseILi2ENS_12SmartPointerINS_25CompressedSparsityPatternEEEEE = comdat any

$_ZTSN6dealii9TableBaseILi2ENS_12SmartPointerINS_25CompressedSparsityPatternEEEEE = comdat any

$_ZTIN6dealii9TableBaseILi2ENS_12SmartPointerINS_25CompressedSparsityPatternEEEEE = comdat any

$_ZTVN6dealii9TableBaseILi2ENS_12SmartPointerINS_31CompressedSimpleSparsityPatternEEEEE = comdat any

$_ZTSN6dealii9TableBaseILi2ENS_12SmartPointerINS_31CompressedSimpleSparsityPatternEEEEE = comdat any

$_ZTIN6dealii9TableBaseILi2ENS_12SmartPointerINS_31CompressedSimpleSparsityPatternEEEEE = comdat any

$_ZTVN6dealii9TableBaseILi2ENS_12SmartPointerINS_28CompressedSetSparsityPatternEEEEE = comdat any

$_ZTSN6dealii9TableBaseILi2ENS_12SmartPointerINS_28CompressedSetSparsityPatternEEEEE = comdat any

$_ZTIN6dealii9TableBaseILi2ENS_12SmartPointerINS_28CompressedSetSparsityPatternEEEEE = comdat any

$_ZTVN6dealii5TableILi2ENS_12SmartPointerINS_15SparsityPatternEEEEE = comdat any

$_ZTSN6dealii5TableILi2ENS_12SmartPointerINS_15SparsityPatternEEEEE = comdat any

$_ZTIN6dealii5TableILi2ENS_12SmartPointerINS_15SparsityPatternEEEEE = comdat any

$_ZTVN6dealii5TableILi2ENS_12SmartPointerINS_25CompressedSparsityPatternEEEEE = comdat any

$_ZTSN6dealii5TableILi2ENS_12SmartPointerINS_25CompressedSparsityPatternEEEEE = comdat any

$_ZTIN6dealii5TableILi2ENS_12SmartPointerINS_25CompressedSparsityPatternEEEEE = comdat any

$_ZTVN6dealii5TableILi2ENS_12SmartPointerINS_31CompressedSimpleSparsityPatternEEEEE = comdat any

$_ZTSN6dealii5TableILi2ENS_12SmartPointerINS_31CompressedSimpleSparsityPatternEEEEE = comdat any

$_ZTIN6dealii5TableILi2ENS_12SmartPointerINS_31CompressedSimpleSparsityPatternEEEEE = comdat any

$_ZTVN6dealii5TableILi2ENS_12SmartPointerINS_28CompressedSetSparsityPatternEEEEE = comdat any

$_ZTSN6dealii5TableILi2ENS_12SmartPointerINS_28CompressedSetSparsityPatternEEEEE = comdat any

$_ZTIN6dealii5TableILi2ENS_12SmartPointerINS_28CompressedSetSparsityPatternEEEEE = comdat any

@_ZStL8__ioinit = internal global %"class.std::ios_base::Init" zeroinitializer, align 1, !dbg !0
@__dso_handle = external hidden global i8
@_ZTVN6dealii24BlockSparsityPatternBaseINS_15SparsityPatternEEE = weak_odr dso_local unnamed_addr constant { [4 x i8*] } { [4 x i8*] [i8* null, i8* bitcast ({ i8*, i8*, i8* }* @_ZTIN6dealii24BlockSparsityPatternBaseINS_15SparsityPatternEEE to i8*), i8* bitcast (void (%"class.dealii::BlockSparsityPatternBase"*)* @_ZN6dealii24BlockSparsityPatternBaseINS_15SparsityPatternEED1Ev to i8*), i8* bitcast (void (%"class.dealii::BlockSparsityPatternBase"*)* @_ZN6dealii24BlockSparsityPatternBaseINS_15SparsityPatternEED0Ev to i8*)] }, comdat, align 8
@.str = private unnamed_addr constant [2 x i8] c" \00", align 1
@_ZTVN6dealii24BlockSparsityPatternBaseINS_15SparsityPatternEE25ExcIncompatibleRowNumbersE = weak_odr dso_local unnamed_addr constant { [6 x i8*] } { [6 x i8*] [i8* null, i8* bitcast ({ i8*, i8*, i8* }* @_ZTIN6dealii24BlockSparsityPatternBaseINS_15SparsityPatternEE25ExcIncompatibleRowNumbersE to i8*), i8* bitcast (void (%"class.dealii::BlockSparsityPatternBase<dealii::SparsityPattern>::ExcIncompatibleRowNumbers"*)* @_ZN6dealii24BlockSparsityPatternBaseINS_15SparsityPatternEE25ExcIncompatibleRowNumbersD1Ev to i8*), i8* bitcast (void (%"class.dealii::BlockSparsityPatternBase<dealii::SparsityPattern>::ExcIncompatibleRowNumbers"*)* @_ZN6dealii24BlockSparsityPatternBaseINS_15SparsityPatternEE25ExcIncompatibleRowNumbersD0Ev to i8*), i8* bitcast (i8* (%"class.dealii::ExceptionBase"*)* @_ZNK6dealii13ExceptionBase4whatEv to i8*), i8* bitcast (void (%"class.dealii::BlockSparsityPatternBase<dealii::SparsityPattern>::ExcIncompatibleRowNumbers"*, %"class.std::basic_ostream"*)* @_ZNK6dealii24BlockSparsityPatternBaseINS_15SparsityPatternEE25ExcIncompatibleRowNumbers10print_infoERSo to i8*)] }, comdat, align 8
@.str.1 = private unnamed_addr constant [13 x i8] c"The blocks [\00", align 1
@.str.2 = private unnamed_addr constant [8 x i8] c"] and [\00", align 1
@.str.3 = private unnamed_addr constant [30 x i8] c"] have differing row numbers.\00", align 1
@_ZTVN6dealii24BlockSparsityPatternBaseINS_15SparsityPatternEE25ExcIncompatibleColNumbersE = weak_odr dso_local unnamed_addr constant { [6 x i8*] } { [6 x i8*] [i8* null, i8* bitcast ({ i8*, i8*, i8* }* @_ZTIN6dealii24BlockSparsityPatternBaseINS_15SparsityPatternEE25ExcIncompatibleColNumbersE to i8*), i8* bitcast (void (%"class.dealii::BlockSparsityPatternBase<dealii::SparsityPattern>::ExcIncompatibleColNumbers"*)* @_ZN6dealii24BlockSparsityPatternBaseINS_15SparsityPatternEE25ExcIncompatibleColNumbersD1Ev to i8*), i8* bitcast (void (%"class.dealii::BlockSparsityPatternBase<dealii::SparsityPattern>::ExcIncompatibleColNumbers"*)* @_ZN6dealii24BlockSparsityPatternBaseINS_15SparsityPatternEE25ExcIncompatibleColNumbersD0Ev to i8*), i8* bitcast (i8* (%"class.dealii::ExceptionBase"*)* @_ZNK6dealii13ExceptionBase4whatEv to i8*), i8* bitcast (void (%"class.dealii::BlockSparsityPatternBase<dealii::SparsityPattern>::ExcIncompatibleColNumbers"*, %"class.std::basic_ostream"*)* @_ZNK6dealii24BlockSparsityPatternBaseINS_15SparsityPatternEE25ExcIncompatibleColNumbers10print_infoERSo to i8*)] }, comdat, align 8
@.str.4 = private unnamed_addr constant [33 x i8] c"] have differing column numbers.\00", align 1
@_ZTVN6dealii24BlockSparsityPatternBaseINS_15SparsityPatternEE20ExcIncompatibleSizesE = weak_odr dso_local unnamed_addr constant { [6 x i8*] } { [6 x i8*] [i8* null, i8* bitcast ({ i8*, i8*, i8* }* @_ZTIN6dealii24BlockSparsityPatternBaseINS_15SparsityPatternEE20ExcIncompatibleSizesE to i8*), i8* bitcast (void (%"class.dealii::BlockSparsityPatternBase<dealii::SparsityPattern>::ExcIncompatibleSizes"*)* @_ZN6dealii24BlockSparsityPatternBaseINS_15SparsityPatternEE20ExcIncompatibleSizesD1Ev to i8*), i8* bitcast (void (%"class.dealii::BlockSparsityPatternBase<dealii::SparsityPattern>::ExcIncompatibleSizes"*)* @_ZN6dealii24BlockSparsityPatternBaseINS_15SparsityPatternEE20ExcIncompatibleSizesD0Ev to i8*), i8* bitcast (i8* (%"class.dealii::ExceptionBase"*)* @_ZNK6dealii13ExceptionBase4whatEv to i8*), i8* bitcast (void (%"class.dealii::BlockSparsityPatternBase<dealii::SparsityPattern>::ExcIncompatibleSizes"*, %"class.std::basic_ostream"*)* @_ZNK6dealii24BlockSparsityPatternBaseINS_15SparsityPatternEE20ExcIncompatibleSizes10print_infoERSo to i8*)] }, comdat, align 8
@.str.5 = private unnamed_addr constant [22 x i8] c"The number of blocks \00", align 1
@.str.6 = private unnamed_addr constant [6 x i8] c" and \00", align 1
@.str.7 = private unnamed_addr constant [16 x i8] c" are different.\00", align 1
@_ZTVN6dealii24BlockSparsityPatternBaseINS_25CompressedSparsityPatternEEE = weak_odr dso_local unnamed_addr constant { [4 x i8*] } { [4 x i8*] [i8* null, i8* bitcast ({ i8*, i8*, i8* }* @_ZTIN6dealii24BlockSparsityPatternBaseINS_25CompressedSparsityPatternEEE to i8*), i8* bitcast (void (%"class.dealii::BlockSparsityPatternBase.9"*)* @_ZN6dealii24BlockSparsityPatternBaseINS_25CompressedSparsityPatternEED1Ev to i8*), i8* bitcast (void (%"class.dealii::BlockSparsityPatternBase.9"*)* @_ZN6dealii24BlockSparsityPatternBaseINS_25CompressedSparsityPatternEED0Ev to i8*)] }, comdat, align 8
@_ZTVN6dealii24BlockSparsityPatternBaseINS_25CompressedSparsityPatternEE25ExcIncompatibleRowNumbersE = weak_odr dso_local unnamed_addr constant { [6 x i8*] } { [6 x i8*] [i8* null, i8* bitcast ({ i8*, i8*, i8* }* @_ZTIN6dealii24BlockSparsityPatternBaseINS_25CompressedSparsityPatternEE25ExcIncompatibleRowNumbersE to i8*), i8* bitcast (void (%"class.dealii::BlockSparsityPatternBase<dealii::CompressedSparsityPattern>::ExcIncompatibleRowNumbers"*)* @_ZN6dealii24BlockSparsityPatternBaseINS_25CompressedSparsityPatternEE25ExcIncompatibleRowNumbersD1Ev to i8*), i8* bitcast (void (%"class.dealii::BlockSparsityPatternBase<dealii::CompressedSparsityPattern>::ExcIncompatibleRowNumbers"*)* @_ZN6dealii24BlockSparsityPatternBaseINS_25CompressedSparsityPatternEE25ExcIncompatibleRowNumbersD0Ev to i8*), i8* bitcast (i8* (%"class.dealii::ExceptionBase"*)* @_ZNK6dealii13ExceptionBase4whatEv to i8*), i8* bitcast (void (%"class.dealii::BlockSparsityPatternBase<dealii::CompressedSparsityPattern>::ExcIncompatibleRowNumbers"*, %"class.std::basic_ostream"*)* @_ZNK6dealii24BlockSparsityPatternBaseINS_25CompressedSparsityPatternEE25ExcIncompatibleRowNumbers10print_infoERSo to i8*)] }, comdat, align 8
@_ZTVN6dealii24BlockSparsityPatternBaseINS_25CompressedSparsityPatternEE25ExcIncompatibleColNumbersE = weak_odr dso_local unnamed_addr constant { [6 x i8*] } { [6 x i8*] [i8* null, i8* bitcast ({ i8*, i8*, i8* }* @_ZTIN6dealii24BlockSparsityPatternBaseINS_25CompressedSparsityPatternEE25ExcIncompatibleColNumbersE to i8*), i8* bitcast (void (%"class.dealii::BlockSparsityPatternBase<dealii::CompressedSparsityPattern>::ExcIncompatibleColNumbers"*)* @_ZN6dealii24BlockSparsityPatternBaseINS_25CompressedSparsityPatternEE25ExcIncompatibleColNumbersD1Ev to i8*), i8* bitcast (void (%"class.dealii::BlockSparsityPatternBase<dealii::CompressedSparsityPattern>::ExcIncompatibleColNumbers"*)* @_ZN6dealii24BlockSparsityPatternBaseINS_25CompressedSparsityPatternEE25ExcIncompatibleColNumbersD0Ev to i8*), i8* bitcast (i8* (%"class.dealii::ExceptionBase"*)* @_ZNK6dealii13ExceptionBase4whatEv to i8*), i8* bitcast (void (%"class.dealii::BlockSparsityPatternBase<dealii::CompressedSparsityPattern>::ExcIncompatibleColNumbers"*, %"class.std::basic_ostream"*)* @_ZNK6dealii24BlockSparsityPatternBaseINS_25CompressedSparsityPatternEE25ExcIncompatibleColNumbers10print_infoERSo to i8*)] }, comdat, align 8
@_ZTVN6dealii24BlockSparsityPatternBaseINS_25CompressedSparsityPatternEE20ExcIncompatibleSizesE = weak_odr dso_local unnamed_addr constant { [6 x i8*] } { [6 x i8*] [i8* null, i8* bitcast ({ i8*, i8*, i8* }* @_ZTIN6dealii24BlockSparsityPatternBaseINS_25CompressedSparsityPatternEE20ExcIncompatibleSizesE to i8*), i8* bitcast (void (%"class.dealii::BlockSparsityPatternBase<dealii::CompressedSparsityPattern>::ExcIncompatibleSizes"*)* @_ZN6dealii24BlockSparsityPatternBaseINS_25CompressedSparsityPatternEE20ExcIncompatibleSizesD1Ev to i8*), i8* bitcast (void (%"class.dealii::BlockSparsityPatternBase<dealii::CompressedSparsityPattern>::ExcIncompatibleSizes"*)* @_ZN6dealii24BlockSparsityPatternBaseINS_25CompressedSparsityPatternEE20ExcIncompatibleSizesD0Ev to i8*), i8* bitcast (i8* (%"class.dealii::ExceptionBase"*)* @_ZNK6dealii13ExceptionBase4whatEv to i8*), i8* bitcast (void (%"class.dealii::BlockSparsityPatternBase<dealii::CompressedSparsityPattern>::ExcIncompatibleSizes"*, %"class.std::basic_ostream"*)* @_ZNK6dealii24BlockSparsityPatternBaseINS_25CompressedSparsityPatternEE20ExcIncompatibleSizes10print_infoERSo to i8*)] }, comdat, align 8
@_ZTVN6dealii24BlockSparsityPatternBaseINS_31CompressedSimpleSparsityPatternEEE = weak_odr dso_local unnamed_addr constant { [4 x i8*] } { [4 x i8*] [i8* null, i8* bitcast ({ i8*, i8*, i8* }* @_ZTIN6dealii24BlockSparsityPatternBaseINS_31CompressedSimpleSparsityPatternEEE to i8*), i8* bitcast (void (%"class.dealii::BlockSparsityPatternBase.22"*)* @_ZN6dealii24BlockSparsityPatternBaseINS_31CompressedSimpleSparsityPatternEED1Ev to i8*), i8* bitcast (void (%"class.dealii::BlockSparsityPatternBase.22"*)* @_ZN6dealii24BlockSparsityPatternBaseINS_31CompressedSimpleSparsityPatternEED0Ev to i8*)] }, comdat, align 8
@_ZTVN6dealii24BlockSparsityPatternBaseINS_31CompressedSimpleSparsityPatternEE25ExcIncompatibleRowNumbersE = weak_odr dso_local unnamed_addr constant { [6 x i8*] } { [6 x i8*] [i8* null, i8* bitcast ({ i8*, i8*, i8* }* @_ZTIN6dealii24BlockSparsityPatternBaseINS_31CompressedSimpleSparsityPatternEE25ExcIncompatibleRowNumbersE to i8*), i8* bitcast (void (%"class.dealii::BlockSparsityPatternBase<dealii::CompressedSimpleSparsityPattern>::ExcIncompatibleRowNumbers"*)* @_ZN6dealii24BlockSparsityPatternBaseINS_31CompressedSimpleSparsityPatternEE25ExcIncompatibleRowNumbersD1Ev to i8*), i8* bitcast (void (%"class.dealii::BlockSparsityPatternBase<dealii::CompressedSimpleSparsityPattern>::ExcIncompatibleRowNumbers"*)* @_ZN6dealii24BlockSparsityPatternBaseINS_31CompressedSimpleSparsityPatternEE25ExcIncompatibleRowNumbersD0Ev to i8*), i8* bitcast (i8* (%"class.dealii::ExceptionBase"*)* @_ZNK6dealii13ExceptionBase4whatEv to i8*), i8* bitcast (void (%"class.dealii::BlockSparsityPatternBase<dealii::CompressedSimpleSparsityPattern>::ExcIncompatibleRowNumbers"*, %"class.std::basic_ostream"*)* @_ZNK6dealii24BlockSparsityPatternBaseINS_31CompressedSimpleSparsityPatternEE25ExcIncompatibleRowNumbers10print_infoERSo to i8*)] }, comdat, align 8
@_ZTVN6dealii24BlockSparsityPatternBaseINS_31CompressedSimpleSparsityPatternEE25ExcIncompatibleColNumbersE = weak_odr dso_local unnamed_addr constant { [6 x i8*] } { [6 x i8*] [i8* null, i8* bitcast ({ i8*, i8*, i8* }* @_ZTIN6dealii24BlockSparsityPatternBaseINS_31CompressedSimpleSparsityPatternEE25ExcIncompatibleColNumbersE to i8*), i8* bitcast (void (%"class.dealii::BlockSparsityPatternBase<dealii::CompressedSimpleSparsityPattern>::ExcIncompatibleColNumbers"*)* @_ZN6dealii24BlockSparsityPatternBaseINS_31CompressedSimpleSparsityPatternEE25ExcIncompatibleColNumbersD1Ev to i8*), i8* bitcast (void (%"class.dealii::BlockSparsityPatternBase<dealii::CompressedSimpleSparsityPattern>::ExcIncompatibleColNumbers"*)* @_ZN6dealii24BlockSparsityPatternBaseINS_31CompressedSimpleSparsityPatternEE25ExcIncompatibleColNumbersD0Ev to i8*), i8* bitcast (i8* (%"class.dealii::ExceptionBase"*)* @_ZNK6dealii13ExceptionBase4whatEv to i8*), i8* bitcast (void (%"class.dealii::BlockSparsityPatternBase<dealii::CompressedSimpleSparsityPattern>::ExcIncompatibleColNumbers"*, %"class.std::basic_ostream"*)* @_ZNK6dealii24BlockSparsityPatternBaseINS_31CompressedSimpleSparsityPatternEE25ExcIncompatibleColNumbers10print_infoERSo to i8*)] }, comdat, align 8
@_ZTVN6dealii24BlockSparsityPatternBaseINS_31CompressedSimpleSparsityPatternEE20ExcIncompatibleSizesE = weak_odr dso_local unnamed_addr constant { [6 x i8*] } { [6 x i8*] [i8* null, i8* bitcast ({ i8*, i8*, i8* }* @_ZTIN6dealii24BlockSparsityPatternBaseINS_31CompressedSimpleSparsityPatternEE20ExcIncompatibleSizesE to i8*), i8* bitcast (void (%"class.dealii::BlockSparsityPatternBase<dealii::CompressedSimpleSparsityPattern>::ExcIncompatibleSizes"*)* @_ZN6dealii24BlockSparsityPatternBaseINS_31CompressedSimpleSparsityPatternEE20ExcIncompatibleSizesD1Ev to i8*), i8* bitcast (void (%"class.dealii::BlockSparsityPatternBase<dealii::CompressedSimpleSparsityPattern>::ExcIncompatibleSizes"*)* @_ZN6dealii24BlockSparsityPatternBaseINS_31CompressedSimpleSparsityPatternEE20ExcIncompatibleSizesD0Ev to i8*), i8* bitcast (i8* (%"class.dealii::ExceptionBase"*)* @_ZNK6dealii13ExceptionBase4whatEv to i8*), i8* bitcast (void (%"class.dealii::BlockSparsityPatternBase<dealii::CompressedSimpleSparsityPattern>::ExcIncompatibleSizes"*, %"class.std::basic_ostream"*)* @_ZNK6dealii24BlockSparsityPatternBaseINS_31CompressedSimpleSparsityPatternEE20ExcIncompatibleSizes10print_infoERSo to i8*)] }, comdat, align 8
@_ZTVN6dealii24BlockSparsityPatternBaseINS_28CompressedSetSparsityPatternEEE = weak_odr dso_local unnamed_addr constant { [4 x i8*] } { [4 x i8*] [i8* null, i8* bitcast ({ i8*, i8*, i8* }* @_ZTIN6dealii24BlockSparsityPatternBaseINS_28CompressedSetSparsityPatternEEE to i8*), i8* bitcast (void (%"class.dealii::BlockSparsityPatternBase.35"*)* @_ZN6dealii24BlockSparsityPatternBaseINS_28CompressedSetSparsityPatternEED1Ev to i8*), i8* bitcast (void (%"class.dealii::BlockSparsityPatternBase.35"*)* @_ZN6dealii24BlockSparsityPatternBaseINS_28CompressedSetSparsityPatternEED0Ev to i8*)] }, comdat, align 8
@_ZTVN6dealii24BlockSparsityPatternBaseINS_28CompressedSetSparsityPatternEE25ExcIncompatibleRowNumbersE = weak_odr dso_local unnamed_addr constant { [6 x i8*] } { [6 x i8*] [i8* null, i8* bitcast ({ i8*, i8*, i8* }* @_ZTIN6dealii24BlockSparsityPatternBaseINS_28CompressedSetSparsityPatternEE25ExcIncompatibleRowNumbersE to i8*), i8* bitcast (void (%"class.dealii::BlockSparsityPatternBase<dealii::CompressedSetSparsityPattern>::ExcIncompatibleRowNumbers"*)* @_ZN6dealii24BlockSparsityPatternBaseINS_28CompressedSetSparsityPatternEE25ExcIncompatibleRowNumbersD1Ev to i8*), i8* bitcast (void (%"class.dealii::BlockSparsityPatternBase<dealii::CompressedSetSparsityPattern>::ExcIncompatibleRowNumbers"*)* @_ZN6dealii24BlockSparsityPatternBaseINS_28CompressedSetSparsityPatternEE25ExcIncompatibleRowNumbersD0Ev to i8*), i8* bitcast (i8* (%"class.dealii::ExceptionBase"*)* @_ZNK6dealii13ExceptionBase4whatEv to i8*), i8* bitcast (void (%"class.dealii::BlockSparsityPatternBase<dealii::CompressedSetSparsityPattern>::ExcIncompatibleRowNumbers"*, %"class.std::basic_ostream"*)* @_ZNK6dealii24BlockSparsityPatternBaseINS_28CompressedSetSparsityPatternEE25ExcIncompatibleRowNumbers10print_infoERSo to i8*)] }, comdat, align 8
@_ZTVN6dealii24BlockSparsityPatternBaseINS_28CompressedSetSparsityPatternEE25ExcIncompatibleColNumbersE = weak_odr dso_local unnamed_addr constant { [6 x i8*] } { [6 x i8*] [i8* null, i8* bitcast ({ i8*, i8*, i8* }* @_ZTIN6dealii24BlockSparsityPatternBaseINS_28CompressedSetSparsityPatternEE25ExcIncompatibleColNumbersE to i8*), i8* bitcast (void (%"class.dealii::BlockSparsityPatternBase<dealii::CompressedSetSparsityPattern>::ExcIncompatibleColNumbers"*)* @_ZN6dealii24BlockSparsityPatternBaseINS_28CompressedSetSparsityPatternEE25ExcIncompatibleColNumbersD1Ev to i8*), i8* bitcast (void (%"class.dealii::BlockSparsityPatternBase<dealii::CompressedSetSparsityPattern>::ExcIncompatibleColNumbers"*)* @_ZN6dealii24BlockSparsityPatternBaseINS_28CompressedSetSparsityPatternEE25ExcIncompatibleColNumbersD0Ev to i8*), i8* bitcast (i8* (%"class.dealii::ExceptionBase"*)* @_ZNK6dealii13ExceptionBase4whatEv to i8*), i8* bitcast (void (%"class.dealii::BlockSparsityPatternBase<dealii::CompressedSetSparsityPattern>::ExcIncompatibleColNumbers"*, %"class.std::basic_ostream"*)* @_ZNK6dealii24BlockSparsityPatternBaseINS_28CompressedSetSparsityPatternEE25ExcIncompatibleColNumbers10print_infoERSo to i8*)] }, comdat, align 8
@_ZTVN6dealii24BlockSparsityPatternBaseINS_28CompressedSetSparsityPatternEE20ExcIncompatibleSizesE = weak_odr dso_local unnamed_addr constant { [6 x i8*] } { [6 x i8*] [i8* null, i8* bitcast ({ i8*, i8*, i8* }* @_ZTIN6dealii24BlockSparsityPatternBaseINS_28CompressedSetSparsityPatternEE20ExcIncompatibleSizesE to i8*), i8* bitcast (void (%"class.dealii::BlockSparsityPatternBase<dealii::CompressedSetSparsityPattern>::ExcIncompatibleSizes"*)* @_ZN6dealii24BlockSparsityPatternBaseINS_28CompressedSetSparsityPatternEE20ExcIncompatibleSizesD1Ev to i8*), i8* bitcast (void (%"class.dealii::BlockSparsityPatternBase<dealii::CompressedSetSparsityPattern>::ExcIncompatibleSizes"*)* @_ZN6dealii24BlockSparsityPatternBaseINS_28CompressedSetSparsityPatternEE20ExcIncompatibleSizesD0Ev to i8*), i8* bitcast (i8* (%"class.dealii::ExceptionBase"*)* @_ZNK6dealii13ExceptionBase4whatEv to i8*), i8* bitcast (void (%"class.dealii::BlockSparsityPatternBase<dealii::CompressedSetSparsityPattern>::ExcIncompatibleSizes"*, %"class.std::basic_ostream"*)* @_ZNK6dealii24BlockSparsityPatternBaseINS_28CompressedSetSparsityPatternEE20ExcIncompatibleSizes10print_infoERSo to i8*)] }, comdat, align 8
@_ZTVN6dealii20BlockSparsityPatternE = linkonce_odr dso_local unnamed_addr constant { [4 x i8*] } { [4 x i8*] [i8* null, i8* bitcast ({ i8*, i8*, i8* }* @_ZTIN6dealii20BlockSparsityPatternE to i8*), i8* bitcast (void (%"class.dealii::BlockSparsityPattern"*)* @_ZN6dealii20BlockSparsityPatternD2Ev to i8*), i8* bitcast (void (%"class.dealii::BlockSparsityPattern"*)* @_ZN6dealii20BlockSparsityPatternD0Ev to i8*)] }, comdat, align 8
@_ZTVN6dealii30BlockCompressedSparsityPatternE = linkonce_odr dso_local unnamed_addr constant { [4 x i8*] } { [4 x i8*] [i8* null, i8* bitcast ({ i8*, i8*, i8* }* @_ZTIN6dealii30BlockCompressedSparsityPatternE to i8*), i8* bitcast (void (%"class.dealii::BlockCompressedSparsityPattern"*)* @_ZN6dealii30BlockCompressedSparsityPatternD2Ev to i8*), i8* bitcast (void (%"class.dealii::BlockCompressedSparsityPattern"*)* @_ZN6dealii30BlockCompressedSparsityPatternD0Ev to i8*)] }, comdat, align 8
@_ZTVN6dealii33BlockCompressedSetSparsityPatternE = linkonce_odr dso_local unnamed_addr constant { [4 x i8*] } { [4 x i8*] [i8* null, i8* bitcast ({ i8*, i8*, i8* }* @_ZTIN6dealii33BlockCompressedSetSparsityPatternE to i8*), i8* bitcast (void (%"class.dealii::BlockCompressedSetSparsityPattern"*)* @_ZN6dealii33BlockCompressedSetSparsityPatternD2Ev to i8*), i8* bitcast (void (%"class.dealii::BlockCompressedSetSparsityPattern"*)* @_ZN6dealii33BlockCompressedSetSparsityPatternD0Ev to i8*)] }, comdat, align 8
@_ZTVN6dealii36BlockCompressedSimpleSparsityPatternE = linkonce_odr dso_local unnamed_addr constant { [4 x i8*] } { [4 x i8*] [i8* null, i8* bitcast ({ i8*, i8*, i8* }* @_ZTIN6dealii36BlockCompressedSimpleSparsityPatternE to i8*), i8* bitcast (void (%"class.dealii::BlockCompressedSimpleSparsityPattern"*)* @_ZN6dealii36BlockCompressedSimpleSparsityPatternD2Ev to i8*), i8* bitcast (void (%"class.dealii::BlockCompressedSimpleSparsityPattern"*)* @_ZN6dealii36BlockCompressedSimpleSparsityPatternD0Ev to i8*)] }, comdat, align 8
@_ZTVN10__cxxabiv120__si_class_type_infoE = external dso_local global i8*
@_ZTSN6dealii24BlockSparsityPatternBaseINS_15SparsityPatternEEE = weak_odr dso_local constant [59 x i8] c"N6dealii24BlockSparsityPatternBaseINS_15SparsityPatternEEE\00", comdat, align 1
@_ZTIN6dealii11SubscriptorE = external dso_local constant i8*
@_ZTIN6dealii24BlockSparsityPatternBaseINS_15SparsityPatternEEE = weak_odr dso_local constant { i8*, i8*, i8* } { i8* bitcast (i8** getelementptr inbounds (i8*, i8** @_ZTVN10__cxxabiv120__si_class_type_infoE, i64 2) to i8*), i8* getelementptr inbounds ([59 x i8], [59 x i8]* @_ZTSN6dealii24BlockSparsityPatternBaseINS_15SparsityPatternEEE, i32 0, i32 0), i8* bitcast (i8** @_ZTIN6dealii11SubscriptorE to i8*) }, comdat, align 8
@_ZTSN6dealii24BlockSparsityPatternBaseINS_15SparsityPatternEE25ExcIncompatibleRowNumbersE = weak_odr dso_local constant [86 x i8] c"N6dealii24BlockSparsityPatternBaseINS_15SparsityPatternEE25ExcIncompatibleRowNumbersE\00", comdat, align 1
@_ZTIN6dealii13ExceptionBaseE = external dso_local constant i8*
@_ZTIN6dealii24BlockSparsityPatternBaseINS_15SparsityPatternEE25ExcIncompatibleRowNumbersE = weak_odr dso_local constant { i8*, i8*, i8* } { i8* bitcast (i8** getelementptr inbounds (i8*, i8** @_ZTVN10__cxxabiv120__si_class_type_infoE, i64 2) to i8*), i8* getelementptr inbounds ([86 x i8], [86 x i8]* @_ZTSN6dealii24BlockSparsityPatternBaseINS_15SparsityPatternEE25ExcIncompatibleRowNumbersE, i32 0, i32 0), i8* bitcast (i8** @_ZTIN6dealii13ExceptionBaseE to i8*) }, comdat, align 8
@_ZTSN6dealii24BlockSparsityPatternBaseINS_15SparsityPatternEE25ExcIncompatibleColNumbersE = weak_odr dso_local constant [86 x i8] c"N6dealii24BlockSparsityPatternBaseINS_15SparsityPatternEE25ExcIncompatibleColNumbersE\00", comdat, align 1
@_ZTIN6dealii24BlockSparsityPatternBaseINS_15SparsityPatternEE25ExcIncompatibleColNumbersE = weak_odr dso_local constant { i8*, i8*, i8* } { i8* bitcast (i8** getelementptr inbounds (i8*, i8** @_ZTVN10__cxxabiv120__si_class_type_infoE, i64 2) to i8*), i8* getelementptr inbounds ([86 x i8], [86 x i8]* @_ZTSN6dealii24BlockSparsityPatternBaseINS_15SparsityPatternEE25ExcIncompatibleColNumbersE, i32 0, i32 0), i8* bitcast (i8** @_ZTIN6dealii13ExceptionBaseE to i8*) }, comdat, align 8
@_ZTSN6dealii24BlockSparsityPatternBaseINS_15SparsityPatternEE20ExcIncompatibleSizesE = weak_odr dso_local constant [81 x i8] c"N6dealii24BlockSparsityPatternBaseINS_15SparsityPatternEE20ExcIncompatibleSizesE\00", comdat, align 1
@_ZTIN6dealii24BlockSparsityPatternBaseINS_15SparsityPatternEE20ExcIncompatibleSizesE = weak_odr dso_local constant { i8*, i8*, i8* } { i8* bitcast (i8** getelementptr inbounds (i8*, i8** @_ZTVN10__cxxabiv120__si_class_type_infoE, i64 2) to i8*), i8* getelementptr inbounds ([81 x i8], [81 x i8]* @_ZTSN6dealii24BlockSparsityPatternBaseINS_15SparsityPatternEE20ExcIncompatibleSizesE, i32 0, i32 0), i8* bitcast (i8** @_ZTIN6dealii13ExceptionBaseE to i8*) }, comdat, align 8
@_ZTVN6dealii24BlockSparsityPatternBaseINS_15SparsityPatternEE25ExcInvalidConstructorCallE = weak_odr dso_local unnamed_addr constant { [6 x i8*] } { [6 x i8*] [i8* null, i8* bitcast ({ i8*, i8*, i8* }* @_ZTIN6dealii24BlockSparsityPatternBaseINS_15SparsityPatternEE25ExcInvalidConstructorCallE to i8*), i8* bitcast (void (%"class.dealii::BlockSparsityPatternBase<dealii::SparsityPattern>::ExcInvalidConstructorCall"*)* @_ZN6dealii24BlockSparsityPatternBaseINS_15SparsityPatternEE25ExcInvalidConstructorCallD2Ev to i8*), i8* bitcast (void (%"class.dealii::BlockSparsityPatternBase<dealii::SparsityPattern>::ExcInvalidConstructorCall"*)* @_ZN6dealii24BlockSparsityPatternBaseINS_15SparsityPatternEE25ExcInvalidConstructorCallD0Ev to i8*), i8* bitcast (i8* (%"class.dealii::ExceptionBase"*)* @_ZNK6dealii13ExceptionBase4whatEv to i8*), i8* bitcast (void (%"class.dealii::ExceptionBase"*, %"class.std::basic_ostream"*)* @_ZNK6dealii13ExceptionBase10print_infoERSo to i8*)] }, comdat, align 8
@_ZTSN6dealii24BlockSparsityPatternBaseINS_15SparsityPatternEE25ExcInvalidConstructorCallE = weak_odr dso_local constant [86 x i8] c"N6dealii24BlockSparsityPatternBaseINS_15SparsityPatternEE25ExcInvalidConstructorCallE\00", comdat, align 1
@_ZTIN6dealii24BlockSparsityPatternBaseINS_15SparsityPatternEE25ExcInvalidConstructorCallE = weak_odr dso_local constant { i8*, i8*, i8* } { i8* bitcast (i8** getelementptr inbounds (i8*, i8** @_ZTVN10__cxxabiv120__si_class_type_infoE, i64 2) to i8*), i8* getelementptr inbounds ([86 x i8], [86 x i8]* @_ZTSN6dealii24BlockSparsityPatternBaseINS_15SparsityPatternEE25ExcInvalidConstructorCallE, i32 0, i32 0), i8* bitcast (i8** @_ZTIN6dealii13ExceptionBaseE to i8*) }, comdat, align 8
@_ZTSN6dealii24BlockSparsityPatternBaseINS_25CompressedSparsityPatternEEE = weak_odr dso_local constant [69 x i8] c"N6dealii24BlockSparsityPatternBaseINS_25CompressedSparsityPatternEEE\00", comdat, align 1
@_ZTIN6dealii24BlockSparsityPatternBaseINS_25CompressedSparsityPatternEEE = weak_odr dso_local constant { i8*, i8*, i8* } { i8* bitcast (i8** getelementptr inbounds (i8*, i8** @_ZTVN10__cxxabiv120__si_class_type_infoE, i64 2) to i8*), i8* getelementptr inbounds ([69 x i8], [69 x i8]* @_ZTSN6dealii24BlockSparsityPatternBaseINS_25CompressedSparsityPatternEEE, i32 0, i32 0), i8* bitcast (i8** @_ZTIN6dealii11SubscriptorE to i8*) }, comdat, align 8
@_ZTSN6dealii24BlockSparsityPatternBaseINS_25CompressedSparsityPatternEE25ExcIncompatibleRowNumbersE = weak_odr dso_local constant [96 x i8] c"N6dealii24BlockSparsityPatternBaseINS_25CompressedSparsityPatternEE25ExcIncompatibleRowNumbersE\00", comdat, align 1
@_ZTIN6dealii24BlockSparsityPatternBaseINS_25CompressedSparsityPatternEE25ExcIncompatibleRowNumbersE = weak_odr dso_local constant { i8*, i8*, i8* } { i8* bitcast (i8** getelementptr inbounds (i8*, i8** @_ZTVN10__cxxabiv120__si_class_type_infoE, i64 2) to i8*), i8* getelementptr inbounds ([96 x i8], [96 x i8]* @_ZTSN6dealii24BlockSparsityPatternBaseINS_25CompressedSparsityPatternEE25ExcIncompatibleRowNumbersE, i32 0, i32 0), i8* bitcast (i8** @_ZTIN6dealii13ExceptionBaseE to i8*) }, comdat, align 8
@_ZTSN6dealii24BlockSparsityPatternBaseINS_25CompressedSparsityPatternEE25ExcIncompatibleColNumbersE = weak_odr dso_local constant [96 x i8] c"N6dealii24BlockSparsityPatternBaseINS_25CompressedSparsityPatternEE25ExcIncompatibleColNumbersE\00", comdat, align 1
@_ZTIN6dealii24BlockSparsityPatternBaseINS_25CompressedSparsityPatternEE25ExcIncompatibleColNumbersE = weak_odr dso_local constant { i8*, i8*, i8* } { i8* bitcast (i8** getelementptr inbounds (i8*, i8** @_ZTVN10__cxxabiv120__si_class_type_infoE, i64 2) to i8*), i8* getelementptr inbounds ([96 x i8], [96 x i8]* @_ZTSN6dealii24BlockSparsityPatternBaseINS_25CompressedSparsityPatternEE25ExcIncompatibleColNumbersE, i32 0, i32 0), i8* bitcast (i8** @_ZTIN6dealii13ExceptionBaseE to i8*) }, comdat, align 8
@_ZTSN6dealii24BlockSparsityPatternBaseINS_25CompressedSparsityPatternEE20ExcIncompatibleSizesE = weak_odr dso_local constant [91 x i8] c"N6dealii24BlockSparsityPatternBaseINS_25CompressedSparsityPatternEE20ExcIncompatibleSizesE\00", comdat, align 1
@_ZTIN6dealii24BlockSparsityPatternBaseINS_25CompressedSparsityPatternEE20ExcIncompatibleSizesE = weak_odr dso_local constant { i8*, i8*, i8* } { i8* bitcast (i8** getelementptr inbounds (i8*, i8** @_ZTVN10__cxxabiv120__si_class_type_infoE, i64 2) to i8*), i8* getelementptr inbounds ([91 x i8], [91 x i8]* @_ZTSN6dealii24BlockSparsityPatternBaseINS_25CompressedSparsityPatternEE20ExcIncompatibleSizesE, i32 0, i32 0), i8* bitcast (i8** @_ZTIN6dealii13ExceptionBaseE to i8*) }, comdat, align 8
@_ZTVN6dealii24BlockSparsityPatternBaseINS_25CompressedSparsityPatternEE25ExcInvalidConstructorCallE = weak_odr dso_local unnamed_addr constant { [6 x i8*] } { [6 x i8*] [i8* null, i8* bitcast ({ i8*, i8*, i8* }* @_ZTIN6dealii24BlockSparsityPatternBaseINS_25CompressedSparsityPatternEE25ExcInvalidConstructorCallE to i8*), i8* bitcast (void (%"class.dealii::BlockSparsityPatternBase<dealii::CompressedSparsityPattern>::ExcInvalidConstructorCall"*)* @_ZN6dealii24BlockSparsityPatternBaseINS_25CompressedSparsityPatternEE25ExcInvalidConstructorCallD2Ev to i8*), i8* bitcast (void (%"class.dealii::BlockSparsityPatternBase<dealii::CompressedSparsityPattern>::ExcInvalidConstructorCall"*)* @_ZN6dealii24BlockSparsityPatternBaseINS_25CompressedSparsityPatternEE25ExcInvalidConstructorCallD0Ev to i8*), i8* bitcast (i8* (%"class.dealii::ExceptionBase"*)* @_ZNK6dealii13ExceptionBase4whatEv to i8*), i8* bitcast (void (%"class.dealii::ExceptionBase"*, %"class.std::basic_ostream"*)* @_ZNK6dealii13ExceptionBase10print_infoERSo to i8*)] }, comdat, align 8
@_ZTSN6dealii24BlockSparsityPatternBaseINS_25CompressedSparsityPatternEE25ExcInvalidConstructorCallE = weak_odr dso_local constant [96 x i8] c"N6dealii24BlockSparsityPatternBaseINS_25CompressedSparsityPatternEE25ExcInvalidConstructorCallE\00", comdat, align 1
@_ZTIN6dealii24BlockSparsityPatternBaseINS_25CompressedSparsityPatternEE25ExcInvalidConstructorCallE = weak_odr dso_local constant { i8*, i8*, i8* } { i8* bitcast (i8** getelementptr inbounds (i8*, i8** @_ZTVN10__cxxabiv120__si_class_type_infoE, i64 2) to i8*), i8* getelementptr inbounds ([96 x i8], [96 x i8]* @_ZTSN6dealii24BlockSparsityPatternBaseINS_25CompressedSparsityPatternEE25ExcInvalidConstructorCallE, i32 0, i32 0), i8* bitcast (i8** @_ZTIN6dealii13ExceptionBaseE to i8*) }, comdat, align 8
@_ZTSN6dealii24BlockSparsityPatternBaseINS_31CompressedSimpleSparsityPatternEEE = weak_odr dso_local constant [75 x i8] c"N6dealii24BlockSparsityPatternBaseINS_31CompressedSimpleSparsityPatternEEE\00", comdat, align 1
@_ZTIN6dealii24BlockSparsityPatternBaseINS_31CompressedSimpleSparsityPatternEEE = weak_odr dso_local constant { i8*, i8*, i8* } { i8* bitcast (i8** getelementptr inbounds (i8*, i8** @_ZTVN10__cxxabiv120__si_class_type_infoE, i64 2) to i8*), i8* getelementptr inbounds ([75 x i8], [75 x i8]* @_ZTSN6dealii24BlockSparsityPatternBaseINS_31CompressedSimpleSparsityPatternEEE, i32 0, i32 0), i8* bitcast (i8** @_ZTIN6dealii11SubscriptorE to i8*) }, comdat, align 8
@_ZTSN6dealii24BlockSparsityPatternBaseINS_31CompressedSimpleSparsityPatternEE25ExcIncompatibleRowNumbersE = weak_odr dso_local constant [102 x i8] c"N6dealii24BlockSparsityPatternBaseINS_31CompressedSimpleSparsityPatternEE25ExcIncompatibleRowNumbersE\00", comdat, align 1
@_ZTIN6dealii24BlockSparsityPatternBaseINS_31CompressedSimpleSparsityPatternEE25ExcIncompatibleRowNumbersE = weak_odr dso_local constant { i8*, i8*, i8* } { i8* bitcast (i8** getelementptr inbounds (i8*, i8** @_ZTVN10__cxxabiv120__si_class_type_infoE, i64 2) to i8*), i8* getelementptr inbounds ([102 x i8], [102 x i8]* @_ZTSN6dealii24BlockSparsityPatternBaseINS_31CompressedSimpleSparsityPatternEE25ExcIncompatibleRowNumbersE, i32 0, i32 0), i8* bitcast (i8** @_ZTIN6dealii13ExceptionBaseE to i8*) }, comdat, align 8
@_ZTSN6dealii24BlockSparsityPatternBaseINS_31CompressedSimpleSparsityPatternEE25ExcIncompatibleColNumbersE = weak_odr dso_local constant [102 x i8] c"N6dealii24BlockSparsityPatternBaseINS_31CompressedSimpleSparsityPatternEE25ExcIncompatibleColNumbersE\00", comdat, align 1
@_ZTIN6dealii24BlockSparsityPatternBaseINS_31CompressedSimpleSparsityPatternEE25ExcIncompatibleColNumbersE = weak_odr dso_local constant { i8*, i8*, i8* } { i8* bitcast (i8** getelementptr inbounds (i8*, i8** @_ZTVN10__cxxabiv120__si_class_type_infoE, i64 2) to i8*), i8* getelementptr inbounds ([102 x i8], [102 x i8]* @_ZTSN6dealii24BlockSparsityPatternBaseINS_31CompressedSimpleSparsityPatternEE25ExcIncompatibleColNumbersE, i32 0, i32 0), i8* bitcast (i8** @_ZTIN6dealii13ExceptionBaseE to i8*) }, comdat, align 8
@_ZTSN6dealii24BlockSparsityPatternBaseINS_31CompressedSimpleSparsityPatternEE20ExcIncompatibleSizesE = weak_odr dso_local constant [97 x i8] c"N6dealii24BlockSparsityPatternBaseINS_31CompressedSimpleSparsityPatternEE20ExcIncompatibleSizesE\00", comdat, align 1
@_ZTIN6dealii24BlockSparsityPatternBaseINS_31CompressedSimpleSparsityPatternEE20ExcIncompatibleSizesE = weak_odr dso_local constant { i8*, i8*, i8* } { i8* bitcast (i8** getelementptr inbounds (i8*, i8** @_ZTVN10__cxxabiv120__si_class_type_infoE, i64 2) to i8*), i8* getelementptr inbounds ([97 x i8], [97 x i8]* @_ZTSN6dealii24BlockSparsityPatternBaseINS_31CompressedSimpleSparsityPatternEE20ExcIncompatibleSizesE, i32 0, i32 0), i8* bitcast (i8** @_ZTIN6dealii13ExceptionBaseE to i8*) }, comdat, align 8
@_ZTVN6dealii24BlockSparsityPatternBaseINS_31CompressedSimpleSparsityPatternEE25ExcInvalidConstructorCallE = weak_odr dso_local unnamed_addr constant { [6 x i8*] } { [6 x i8*] [i8* null, i8* bitcast ({ i8*, i8*, i8* }* @_ZTIN6dealii24BlockSparsityPatternBaseINS_31CompressedSimpleSparsityPatternEE25ExcInvalidConstructorCallE to i8*), i8* bitcast (void (%"class.dealii::BlockSparsityPatternBase<dealii::CompressedSimpleSparsityPattern>::ExcInvalidConstructorCall"*)* @_ZN6dealii24BlockSparsityPatternBaseINS_31CompressedSimpleSparsityPatternEE25ExcInvalidConstructorCallD2Ev to i8*), i8* bitcast (void (%"class.dealii::BlockSparsityPatternBase<dealii::CompressedSimpleSparsityPattern>::ExcInvalidConstructorCall"*)* @_ZN6dealii24BlockSparsityPatternBaseINS_31CompressedSimpleSparsityPatternEE25ExcInvalidConstructorCallD0Ev to i8*), i8* bitcast (i8* (%"class.dealii::ExceptionBase"*)* @_ZNK6dealii13ExceptionBase4whatEv to i8*), i8* bitcast (void (%"class.dealii::ExceptionBase"*, %"class.std::basic_ostream"*)* @_ZNK6dealii13ExceptionBase10print_infoERSo to i8*)] }, comdat, align 8
@_ZTSN6dealii24BlockSparsityPatternBaseINS_31CompressedSimpleSparsityPatternEE25ExcInvalidConstructorCallE = weak_odr dso_local constant [102 x i8] c"N6dealii24BlockSparsityPatternBaseINS_31CompressedSimpleSparsityPatternEE25ExcInvalidConstructorCallE\00", comdat, align 1
@_ZTIN6dealii24BlockSparsityPatternBaseINS_31CompressedSimpleSparsityPatternEE25ExcInvalidConstructorCallE = weak_odr dso_local constant { i8*, i8*, i8* } { i8* bitcast (i8** getelementptr inbounds (i8*, i8** @_ZTVN10__cxxabiv120__si_class_type_infoE, i64 2) to i8*), i8* getelementptr inbounds ([102 x i8], [102 x i8]* @_ZTSN6dealii24BlockSparsityPatternBaseINS_31CompressedSimpleSparsityPatternEE25ExcInvalidConstructorCallE, i32 0, i32 0), i8* bitcast (i8** @_ZTIN6dealii13ExceptionBaseE to i8*) }, comdat, align 8
@_ZTSN6dealii24BlockSparsityPatternBaseINS_28CompressedSetSparsityPatternEEE = weak_odr dso_local constant [72 x i8] c"N6dealii24BlockSparsityPatternBaseINS_28CompressedSetSparsityPatternEEE\00", comdat, align 1
@_ZTIN6dealii24BlockSparsityPatternBaseINS_28CompressedSetSparsityPatternEEE = weak_odr dso_local constant { i8*, i8*, i8* } { i8* bitcast (i8** getelementptr inbounds (i8*, i8** @_ZTVN10__cxxabiv120__si_class_type_infoE, i64 2) to i8*), i8* getelementptr inbounds ([72 x i8], [72 x i8]* @_ZTSN6dealii24BlockSparsityPatternBaseINS_28CompressedSetSparsityPatternEEE, i32 0, i32 0), i8* bitcast (i8** @_ZTIN6dealii11SubscriptorE to i8*) }, comdat, align 8
@_ZTSN6dealii24BlockSparsityPatternBaseINS_28CompressedSetSparsityPatternEE25ExcIncompatibleRowNumbersE = weak_odr dso_local constant [99 x i8] c"N6dealii24BlockSparsityPatternBaseINS_28CompressedSetSparsityPatternEE25ExcIncompatibleRowNumbersE\00", comdat, align 1
@_ZTIN6dealii24BlockSparsityPatternBaseINS_28CompressedSetSparsityPatternEE25ExcIncompatibleRowNumbersE = weak_odr dso_local constant { i8*, i8*, i8* } { i8* bitcast (i8** getelementptr inbounds (i8*, i8** @_ZTVN10__cxxabiv120__si_class_type_infoE, i64 2) to i8*), i8* getelementptr inbounds ([99 x i8], [99 x i8]* @_ZTSN6dealii24BlockSparsityPatternBaseINS_28CompressedSetSparsityPatternEE25ExcIncompatibleRowNumbersE, i32 0, i32 0), i8* bitcast (i8** @_ZTIN6dealii13ExceptionBaseE to i8*) }, comdat, align 8
@_ZTSN6dealii24BlockSparsityPatternBaseINS_28CompressedSetSparsityPatternEE25ExcIncompatibleColNumbersE = weak_odr dso_local constant [99 x i8] c"N6dealii24BlockSparsityPatternBaseINS_28CompressedSetSparsityPatternEE25ExcIncompatibleColNumbersE\00", comdat, align 1
@_ZTIN6dealii24BlockSparsityPatternBaseINS_28CompressedSetSparsityPatternEE25ExcIncompatibleColNumbersE = weak_odr dso_local constant { i8*, i8*, i8* } { i8* bitcast (i8** getelementptr inbounds (i8*, i8** @_ZTVN10__cxxabiv120__si_class_type_infoE, i64 2) to i8*), i8* getelementptr inbounds ([99 x i8], [99 x i8]* @_ZTSN6dealii24BlockSparsityPatternBaseINS_28CompressedSetSparsityPatternEE25ExcIncompatibleColNumbersE, i32 0, i32 0), i8* bitcast (i8** @_ZTIN6dealii13ExceptionBaseE to i8*) }, comdat, align 8
@_ZTSN6dealii24BlockSparsityPatternBaseINS_28CompressedSetSparsityPatternEE20ExcIncompatibleSizesE = weak_odr dso_local constant [94 x i8] c"N6dealii24BlockSparsityPatternBaseINS_28CompressedSetSparsityPatternEE20ExcIncompatibleSizesE\00", comdat, align 1
@_ZTIN6dealii24BlockSparsityPatternBaseINS_28CompressedSetSparsityPatternEE20ExcIncompatibleSizesE = weak_odr dso_local constant { i8*, i8*, i8* } { i8* bitcast (i8** getelementptr inbounds (i8*, i8** @_ZTVN10__cxxabiv120__si_class_type_infoE, i64 2) to i8*), i8* getelementptr inbounds ([94 x i8], [94 x i8]* @_ZTSN6dealii24BlockSparsityPatternBaseINS_28CompressedSetSparsityPatternEE20ExcIncompatibleSizesE, i32 0, i32 0), i8* bitcast (i8** @_ZTIN6dealii13ExceptionBaseE to i8*) }, comdat, align 8
@_ZTVN6dealii24BlockSparsityPatternBaseINS_28CompressedSetSparsityPatternEE25ExcInvalidConstructorCallE = weak_odr dso_local unnamed_addr constant { [6 x i8*] } { [6 x i8*] [i8* null, i8* bitcast ({ i8*, i8*, i8* }* @_ZTIN6dealii24BlockSparsityPatternBaseINS_28CompressedSetSparsityPatternEE25ExcInvalidConstructorCallE to i8*), i8* bitcast (void (%"class.dealii::BlockSparsityPatternBase<dealii::CompressedSetSparsityPattern>::ExcInvalidConstructorCall"*)* @_ZN6dealii24BlockSparsityPatternBaseINS_28CompressedSetSparsityPatternEE25ExcInvalidConstructorCallD2Ev to i8*), i8* bitcast (void (%"class.dealii::BlockSparsityPatternBase<dealii::CompressedSetSparsityPattern>::ExcInvalidConstructorCall"*)* @_ZN6dealii24BlockSparsityPatternBaseINS_28CompressedSetSparsityPatternEE25ExcInvalidConstructorCallD0Ev to i8*), i8* bitcast (i8* (%"class.dealii::ExceptionBase"*)* @_ZNK6dealii13ExceptionBase4whatEv to i8*), i8* bitcast (void (%"class.dealii::ExceptionBase"*, %"class.std::basic_ostream"*)* @_ZNK6dealii13ExceptionBase10print_infoERSo to i8*)] }, comdat, align 8
@_ZTSN6dealii24BlockSparsityPatternBaseINS_28CompressedSetSparsityPatternEE25ExcInvalidConstructorCallE = weak_odr dso_local constant [99 x i8] c"N6dealii24BlockSparsityPatternBaseINS_28CompressedSetSparsityPatternEE25ExcInvalidConstructorCallE\00", comdat, align 1
@_ZTIN6dealii24BlockSparsityPatternBaseINS_28CompressedSetSparsityPatternEE25ExcInvalidConstructorCallE = weak_odr dso_local constant { i8*, i8*, i8* } { i8* bitcast (i8** getelementptr inbounds (i8*, i8** @_ZTVN10__cxxabiv120__si_class_type_infoE, i64 2) to i8*), i8* getelementptr inbounds ([99 x i8], [99 x i8]* @_ZTSN6dealii24BlockSparsityPatternBaseINS_28CompressedSetSparsityPatternEE25ExcInvalidConstructorCallE, i32 0, i32 0), i8* bitcast (i8** @_ZTIN6dealii13ExceptionBaseE to i8*) }, comdat, align 8
@_ZTSN6dealii20BlockSparsityPatternE = linkonce_odr dso_local constant [32 x i8] c"N6dealii20BlockSparsityPatternE\00", comdat, align 1
@_ZTIN6dealii20BlockSparsityPatternE = linkonce_odr dso_local constant { i8*, i8*, i8* } { i8* bitcast (i8** getelementptr inbounds (i8*, i8** @_ZTVN10__cxxabiv120__si_class_type_infoE, i64 2) to i8*), i8* getelementptr inbounds ([32 x i8], [32 x i8]* @_ZTSN6dealii20BlockSparsityPatternE, i32 0, i32 0), i8* bitcast ({ i8*, i8*, i8* }* @_ZTIN6dealii24BlockSparsityPatternBaseINS_15SparsityPatternEEE to i8*) }, comdat, align 8
@_ZTSN6dealii30BlockCompressedSparsityPatternE = linkonce_odr dso_local constant [42 x i8] c"N6dealii30BlockCompressedSparsityPatternE\00", comdat, align 1
@_ZTIN6dealii30BlockCompressedSparsityPatternE = linkonce_odr dso_local constant { i8*, i8*, i8* } { i8* bitcast (i8** getelementptr inbounds (i8*, i8** @_ZTVN10__cxxabiv120__si_class_type_infoE, i64 2) to i8*), i8* getelementptr inbounds ([42 x i8], [42 x i8]* @_ZTSN6dealii30BlockCompressedSparsityPatternE, i32 0, i32 0), i8* bitcast ({ i8*, i8*, i8* }* @_ZTIN6dealii24BlockSparsityPatternBaseINS_25CompressedSparsityPatternEEE to i8*) }, comdat, align 8
@_ZTSN6dealii33BlockCompressedSetSparsityPatternE = linkonce_odr dso_local constant [45 x i8] c"N6dealii33BlockCompressedSetSparsityPatternE\00", comdat, align 1
@_ZTIN6dealii33BlockCompressedSetSparsityPatternE = linkonce_odr dso_local constant { i8*, i8*, i8* } { i8* bitcast (i8** getelementptr inbounds (i8*, i8** @_ZTVN10__cxxabiv120__si_class_type_infoE, i64 2) to i8*), i8* getelementptr inbounds ([45 x i8], [45 x i8]* @_ZTSN6dealii33BlockCompressedSetSparsityPatternE, i32 0, i32 0), i8* bitcast ({ i8*, i8*, i8* }* @_ZTIN6dealii24BlockSparsityPatternBaseINS_28CompressedSetSparsityPatternEEE to i8*) }, comdat, align 8
@_ZTSN6dealii36BlockCompressedSimpleSparsityPatternE = linkonce_odr dso_local constant [48 x i8] c"N6dealii36BlockCompressedSimpleSparsityPatternE\00", comdat, align 1
@_ZTIN6dealii36BlockCompressedSimpleSparsityPatternE = linkonce_odr dso_local constant { i8*, i8*, i8* } { i8* bitcast (i8** getelementptr inbounds (i8*, i8** @_ZTVN10__cxxabiv120__si_class_type_infoE, i64 2) to i8*), i8* getelementptr inbounds ([48 x i8], [48 x i8]* @_ZTSN6dealii36BlockCompressedSimpleSparsityPatternE, i32 0, i32 0), i8* bitcast ({ i8*, i8*, i8* }* @_ZTIN6dealii24BlockSparsityPatternBaseINS_31CompressedSimpleSparsityPatternEEE to i8*) }, comdat, align 8
@_ZTVN6dealii9TableBaseILi2ENS_12SmartPointerINS_15SparsityPatternEEEEE = linkonce_odr dso_local unnamed_addr constant { [4 x i8*] } { [4 x i8*] [i8* null, i8* bitcast ({ i8*, i8*, i8* }* @_ZTIN6dealii9TableBaseILi2ENS_12SmartPointerINS_15SparsityPatternEEEEE to i8*), i8* bitcast (void (%"class.dealii::TableBase"*)* @_ZN6dealii9TableBaseILi2ENS_12SmartPointerINS_15SparsityPatternEEEED2Ev to i8*), i8* bitcast (void (%"class.dealii::TableBase"*)* @_ZN6dealii9TableBaseILi2ENS_12SmartPointerINS_15SparsityPatternEEEED0Ev to i8*)] }, comdat, align 8
@_ZTSN6dealii9TableBaseILi2ENS_12SmartPointerINS_15SparsityPatternEEEEE = linkonce_odr dso_local constant [67 x i8] c"N6dealii9TableBaseILi2ENS_12SmartPointerINS_15SparsityPatternEEEEE\00", comdat, align 1
@_ZTIN6dealii9TableBaseILi2ENS_12SmartPointerINS_15SparsityPatternEEEEE = linkonce_odr dso_local constant { i8*, i8*, i8* } { i8* bitcast (i8** getelementptr inbounds (i8*, i8** @_ZTVN10__cxxabiv120__si_class_type_infoE, i64 2) to i8*), i8* getelementptr inbounds ([67 x i8], [67 x i8]* @_ZTSN6dealii9TableBaseILi2ENS_12SmartPointerINS_15SparsityPatternEEEEE, i32 0, i32 0), i8* bitcast (i8** @_ZTIN6dealii11SubscriptorE to i8*) }, comdat, align 8
@.str.8 = private unnamed_addr constant [26 x i8] c"vector::_M_default_append\00", align 1
@_ZTVN6dealii9TableBaseILi2ENS_12SmartPointerINS_25CompressedSparsityPatternEEEEE = linkonce_odr dso_local unnamed_addr constant { [4 x i8*] } { [4 x i8*] [i8* null, i8* bitcast ({ i8*, i8*, i8* }* @_ZTIN6dealii9TableBaseILi2ENS_12SmartPointerINS_25CompressedSparsityPatternEEEEE to i8*), i8* bitcast (void (%"class.dealii::TableBase.11"*)* @_ZN6dealii9TableBaseILi2ENS_12SmartPointerINS_25CompressedSparsityPatternEEEED2Ev to i8*), i8* bitcast (void (%"class.dealii::TableBase.11"*)* @_ZN6dealii9TableBaseILi2ENS_12SmartPointerINS_25CompressedSparsityPatternEEEED0Ev to i8*)] }, comdat, align 8
@_ZTSN6dealii9TableBaseILi2ENS_12SmartPointerINS_25CompressedSparsityPatternEEEEE = linkonce_odr dso_local constant [77 x i8] c"N6dealii9TableBaseILi2ENS_12SmartPointerINS_25CompressedSparsityPatternEEEEE\00", comdat, align 1
@_ZTIN6dealii9TableBaseILi2ENS_12SmartPointerINS_25CompressedSparsityPatternEEEEE = linkonce_odr dso_local constant { i8*, i8*, i8* } { i8* bitcast (i8** getelementptr inbounds (i8*, i8** @_ZTVN10__cxxabiv120__si_class_type_infoE, i64 2) to i8*), i8* getelementptr inbounds ([77 x i8], [77 x i8]* @_ZTSN6dealii9TableBaseILi2ENS_12SmartPointerINS_25CompressedSparsityPatternEEEEE, i32 0, i32 0), i8* bitcast (i8** @_ZTIN6dealii11SubscriptorE to i8*) }, comdat, align 8
@_ZTVN6dealii9TableBaseILi2ENS_12SmartPointerINS_31CompressedSimpleSparsityPatternEEEEE = linkonce_odr dso_local unnamed_addr constant { [4 x i8*] } { [4 x i8*] [i8* null, i8* bitcast ({ i8*, i8*, i8* }* @_ZTIN6dealii9TableBaseILi2ENS_12SmartPointerINS_31CompressedSimpleSparsityPatternEEEEE to i8*), i8* bitcast (void (%"class.dealii::TableBase.24"*)* @_ZN6dealii9TableBaseILi2ENS_12SmartPointerINS_31CompressedSimpleSparsityPatternEEEED2Ev to i8*), i8* bitcast (void (%"class.dealii::TableBase.24"*)* @_ZN6dealii9TableBaseILi2ENS_12SmartPointerINS_31CompressedSimpleSparsityPatternEEEED0Ev to i8*)] }, comdat, align 8
@_ZTSN6dealii9TableBaseILi2ENS_12SmartPointerINS_31CompressedSimpleSparsityPatternEEEEE = linkonce_odr dso_local constant [83 x i8] c"N6dealii9TableBaseILi2ENS_12SmartPointerINS_31CompressedSimpleSparsityPatternEEEEE\00", comdat, align 1
@_ZTIN6dealii9TableBaseILi2ENS_12SmartPointerINS_31CompressedSimpleSparsityPatternEEEEE = linkonce_odr dso_local constant { i8*, i8*, i8* } { i8* bitcast (i8** getelementptr inbounds (i8*, i8** @_ZTVN10__cxxabiv120__si_class_type_infoE, i64 2) to i8*), i8* getelementptr inbounds ([83 x i8], [83 x i8]* @_ZTSN6dealii9TableBaseILi2ENS_12SmartPointerINS_31CompressedSimpleSparsityPatternEEEEE, i32 0, i32 0), i8* bitcast (i8** @_ZTIN6dealii11SubscriptorE to i8*) }, comdat, align 8
@.str.9 = private unnamed_addr constant [26 x i8] c"vector::_M_realloc_insert\00", align 1
@_ZTVN6dealii9TableBaseILi2ENS_12SmartPointerINS_28CompressedSetSparsityPatternEEEEE = linkonce_odr dso_local unnamed_addr constant { [4 x i8*] } { [4 x i8*] [i8* null, i8* bitcast ({ i8*, i8*, i8* }* @_ZTIN6dealii9TableBaseILi2ENS_12SmartPointerINS_28CompressedSetSparsityPatternEEEEE to i8*), i8* bitcast (void (%"class.dealii::TableBase.37"*)* @_ZN6dealii9TableBaseILi2ENS_12SmartPointerINS_28CompressedSetSparsityPatternEEEED2Ev to i8*), i8* bitcast (void (%"class.dealii::TableBase.37"*)* @_ZN6dealii9TableBaseILi2ENS_12SmartPointerINS_28CompressedSetSparsityPatternEEEED0Ev to i8*)] }, comdat, align 8
@_ZTSN6dealii9TableBaseILi2ENS_12SmartPointerINS_28CompressedSetSparsityPatternEEEEE = linkonce_odr dso_local constant [80 x i8] c"N6dealii9TableBaseILi2ENS_12SmartPointerINS_28CompressedSetSparsityPatternEEEEE\00", comdat, align 1
@_ZTIN6dealii9TableBaseILi2ENS_12SmartPointerINS_28CompressedSetSparsityPatternEEEEE = linkonce_odr dso_local constant { i8*, i8*, i8* } { i8* bitcast (i8** getelementptr inbounds (i8*, i8** @_ZTVN10__cxxabiv120__si_class_type_infoE, i64 2) to i8*), i8* getelementptr inbounds ([80 x i8], [80 x i8]* @_ZTSN6dealii9TableBaseILi2ENS_12SmartPointerINS_28CompressedSetSparsityPatternEEEEE, i32 0, i32 0), i8* bitcast (i8** @_ZTIN6dealii11SubscriptorE to i8*) }, comdat, align 8
@.str.10 = private unnamed_addr constant [49 x i8] c"cannot create std::vector larger than max_size()\00", align 1
@_ZTVN6dealii5TableILi2ENS_12SmartPointerINS_15SparsityPatternEEEEE = linkonce_odr dso_local unnamed_addr constant { [4 x i8*] } { [4 x i8*] [i8* null, i8* bitcast ({ i8*, i8*, i8* }* @_ZTIN6dealii5TableILi2ENS_12SmartPointerINS_15SparsityPatternEEEEE to i8*), i8* bitcast (void (%"class.dealii::Table"*)* @_ZN6dealii5TableILi2ENS_12SmartPointerINS_15SparsityPatternEEEED2Ev to i8*), i8* bitcast (void (%"class.dealii::Table"*)* @_ZN6dealii5TableILi2ENS_12SmartPointerINS_15SparsityPatternEEEED0Ev to i8*)] }, comdat, align 8
@_ZTSN6dealii5TableILi2ENS_12SmartPointerINS_15SparsityPatternEEEEE = linkonce_odr dso_local constant [63 x i8] c"N6dealii5TableILi2ENS_12SmartPointerINS_15SparsityPatternEEEEE\00", comdat, align 1
@_ZTIN6dealii5TableILi2ENS_12SmartPointerINS_15SparsityPatternEEEEE = linkonce_odr dso_local constant { i8*, i8*, i8* } { i8* bitcast (i8** getelementptr inbounds (i8*, i8** @_ZTVN10__cxxabiv120__si_class_type_infoE, i64 2) to i8*), i8* getelementptr inbounds ([63 x i8], [63 x i8]* @_ZTSN6dealii5TableILi2ENS_12SmartPointerINS_15SparsityPatternEEEEE, i32 0, i32 0), i8* bitcast ({ i8*, i8*, i8* }* @_ZTIN6dealii9TableBaseILi2ENS_12SmartPointerINS_15SparsityPatternEEEEE to i8*) }, comdat, align 8
@_ZTVN6dealii5TableILi2ENS_12SmartPointerINS_25CompressedSparsityPatternEEEEE = linkonce_odr dso_local unnamed_addr constant { [4 x i8*] } { [4 x i8*] [i8* null, i8* bitcast ({ i8*, i8*, i8* }* @_ZTIN6dealii5TableILi2ENS_12SmartPointerINS_25CompressedSparsityPatternEEEEE to i8*), i8* bitcast (void (%"class.dealii::Table.10"*)* @_ZN6dealii5TableILi2ENS_12SmartPointerINS_25CompressedSparsityPatternEEEED2Ev to i8*), i8* bitcast (void (%"class.dealii::Table.10"*)* @_ZN6dealii5TableILi2ENS_12SmartPointerINS_25CompressedSparsityPatternEEEED0Ev to i8*)] }, comdat, align 8
@_ZTSN6dealii5TableILi2ENS_12SmartPointerINS_25CompressedSparsityPatternEEEEE = linkonce_odr dso_local constant [73 x i8] c"N6dealii5TableILi2ENS_12SmartPointerINS_25CompressedSparsityPatternEEEEE\00", comdat, align 1
@_ZTIN6dealii5TableILi2ENS_12SmartPointerINS_25CompressedSparsityPatternEEEEE = linkonce_odr dso_local constant { i8*, i8*, i8* } { i8* bitcast (i8** getelementptr inbounds (i8*, i8** @_ZTVN10__cxxabiv120__si_class_type_infoE, i64 2) to i8*), i8* getelementptr inbounds ([73 x i8], [73 x i8]* @_ZTSN6dealii5TableILi2ENS_12SmartPointerINS_25CompressedSparsityPatternEEEEE, i32 0, i32 0), i8* bitcast ({ i8*, i8*, i8* }* @_ZTIN6dealii9TableBaseILi2ENS_12SmartPointerINS_25CompressedSparsityPatternEEEEE to i8*) }, comdat, align 8
@_ZTVN6dealii5TableILi2ENS_12SmartPointerINS_31CompressedSimpleSparsityPatternEEEEE = linkonce_odr dso_local unnamed_addr constant { [4 x i8*] } { [4 x i8*] [i8* null, i8* bitcast ({ i8*, i8*, i8* }* @_ZTIN6dealii5TableILi2ENS_12SmartPointerINS_31CompressedSimpleSparsityPatternEEEEE to i8*), i8* bitcast (void (%"class.dealii::Table.23"*)* @_ZN6dealii5TableILi2ENS_12SmartPointerINS_31CompressedSimpleSparsityPatternEEEED2Ev to i8*), i8* bitcast (void (%"class.dealii::Table.23"*)* @_ZN6dealii5TableILi2ENS_12SmartPointerINS_31CompressedSimpleSparsityPatternEEEED0Ev to i8*)] }, comdat, align 8
@_ZTSN6dealii5TableILi2ENS_12SmartPointerINS_31CompressedSimpleSparsityPatternEEEEE = linkonce_odr dso_local constant [79 x i8] c"N6dealii5TableILi2ENS_12SmartPointerINS_31CompressedSimpleSparsityPatternEEEEE\00", comdat, align 1
@_ZTIN6dealii5TableILi2ENS_12SmartPointerINS_31CompressedSimpleSparsityPatternEEEEE = linkonce_odr dso_local constant { i8*, i8*, i8* } { i8* bitcast (i8** getelementptr inbounds (i8*, i8** @_ZTVN10__cxxabiv120__si_class_type_infoE, i64 2) to i8*), i8* getelementptr inbounds ([79 x i8], [79 x i8]* @_ZTSN6dealii5TableILi2ENS_12SmartPointerINS_31CompressedSimpleSparsityPatternEEEEE, i32 0, i32 0), i8* bitcast ({ i8*, i8*, i8* }* @_ZTIN6dealii9TableBaseILi2ENS_12SmartPointerINS_31CompressedSimpleSparsityPatternEEEEE to i8*) }, comdat, align 8
@_ZTVN6dealii5TableILi2ENS_12SmartPointerINS_28CompressedSetSparsityPatternEEEEE = linkonce_odr dso_local unnamed_addr constant { [4 x i8*] } { [4 x i8*] [i8* null, i8* bitcast ({ i8*, i8*, i8* }* @_ZTIN6dealii5TableILi2ENS_12SmartPointerINS_28CompressedSetSparsityPatternEEEEE to i8*), i8* bitcast (void (%"class.dealii::Table.36"*)* @_ZN6dealii5TableILi2ENS_12SmartPointerINS_28CompressedSetSparsityPatternEEEED2Ev to i8*), i8* bitcast (void (%"class.dealii::Table.36"*)* @_ZN6dealii5TableILi2ENS_12SmartPointerINS_28CompressedSetSparsityPatternEEEED0Ev to i8*)] }, comdat, align 8
@_ZTSN6dealii5TableILi2ENS_12SmartPointerINS_28CompressedSetSparsityPatternEEEEE = linkonce_odr dso_local constant [76 x i8] c"N6dealii5TableILi2ENS_12SmartPointerINS_28CompressedSetSparsityPatternEEEEE\00", comdat, align 1
@_ZTIN6dealii5TableILi2ENS_12SmartPointerINS_28CompressedSetSparsityPatternEEEEE = linkonce_odr dso_local constant { i8*, i8*, i8* } { i8* bitcast (i8** getelementptr inbounds (i8*, i8** @_ZTVN10__cxxabiv120__si_class_type_infoE, i64 2) to i8*), i8* getelementptr inbounds ([76 x i8], [76 x i8]* @_ZTSN6dealii5TableILi2ENS_12SmartPointerINS_28CompressedSetSparsityPatternEEEEE, i32 0, i32 0), i8* bitcast ({ i8*, i8*, i8* }* @_ZTIN6dealii9TableBaseILi2ENS_12SmartPointerINS_28CompressedSetSparsityPatternEEEEE to i8*) }, comdat, align 8
@llvm.global_ctors = appending global [1 x { i32, void ()*, i8* }] [{ i32, void ()*, i8* } { i32 65535, void ()* @_GLOBAL__sub_I_block_sparsity_pattern.cc, i8* null }]

@_ZN6dealii24BlockSparsityPatternBaseINS_15SparsityPatternEEC1Ev = weak_odr dso_local unnamed_addr alias void (%"class.dealii::BlockSparsityPatternBase"*), void (%"class.dealii::BlockSparsityPatternBase"*)* @_ZN6dealii24BlockSparsityPatternBaseINS_15SparsityPatternEEC2Ev
@_ZN6dealii24BlockSparsityPatternBaseINS_15SparsityPatternEEC1Ejj = weak_odr dso_local unnamed_addr alias void (%"class.dealii::BlockSparsityPatternBase"*, i32, i32), void (%"class.dealii::BlockSparsityPatternBase"*, i32, i32)* @_ZN6dealii24BlockSparsityPatternBaseINS_15SparsityPatternEEC2Ejj
@_ZN6dealii24BlockSparsityPatternBaseINS_15SparsityPatternEEC1ERKS2_ = weak_odr dso_local unnamed_addr alias void (%"class.dealii::BlockSparsityPatternBase"*, %"class.dealii::BlockSparsityPatternBase"*), void (%"class.dealii::BlockSparsityPatternBase"*, %"class.dealii::BlockSparsityPatternBase"*)* @_ZN6dealii24BlockSparsityPatternBaseINS_15SparsityPatternEEC2ERKS2_
@_ZN6dealii24BlockSparsityPatternBaseINS_15SparsityPatternEED1Ev = weak_odr dso_local unnamed_addr alias void (%"class.dealii::BlockSparsityPatternBase"*), void (%"class.dealii::BlockSparsityPatternBase"*)* @_ZN6dealii24BlockSparsityPatternBaseINS_15SparsityPatternEED2Ev
@_ZN6dealii24BlockSparsityPatternBaseINS_15SparsityPatternEE25ExcIncompatibleRowNumbersC1Eiiii = weak_odr dso_local unnamed_addr alias void (%"class.dealii::BlockSparsityPatternBase<dealii::SparsityPattern>::ExcIncompatibleRowNumbers"*, i32, i32, i32, i32), void (%"class.dealii::BlockSparsityPatternBase<dealii::SparsityPattern>::ExcIncompatibleRowNumbers"*, i32, i32, i32, i32)* @_ZN6dealii24BlockSparsityPatternBaseINS_15SparsityPatternEE25ExcIncompatibleRowNumbersC2Eiiii
@_ZN6dealii24BlockSparsityPatternBaseINS_15SparsityPatternEE25ExcIncompatibleRowNumbersD1Ev = weak_odr dso_local unnamed_addr alias void (%"class.dealii::BlockSparsityPatternBase<dealii::SparsityPattern>::ExcIncompatibleRowNumbers"*), void (%"class.dealii::BlockSparsityPatternBase<dealii::SparsityPattern>::ExcIncompatibleRowNumbers"*)* @_ZN6dealii24BlockSparsityPatternBaseINS_15SparsityPatternEE25ExcIncompatibleRowNumbersD2Ev
@_ZN6dealii24BlockSparsityPatternBaseINS_15SparsityPatternEE25ExcIncompatibleColNumbersC1Eiiii = weak_odr dso_local unnamed_addr alias void (%"class.dealii::BlockSparsityPatternBase<dealii::SparsityPattern>::ExcIncompatibleColNumbers"*, i32, i32, i32, i32), void (%"class.dealii::BlockSparsityPatternBase<dealii::SparsityPattern>::ExcIncompatibleColNumbers"*, i32, i32, i32, i32)* @_ZN6dealii24BlockSparsityPatternBaseINS_15SparsityPatternEE25ExcIncompatibleColNumbersC2Eiiii
@_ZN6dealii24BlockSparsityPatternBaseINS_15SparsityPatternEE25ExcIncompatibleColNumbersD1Ev = weak_odr dso_local unnamed_addr alias void (%"class.dealii::BlockSparsityPatternBase<dealii::SparsityPattern>::ExcIncompatibleColNumbers"*), void (%"class.dealii::BlockSparsityPatternBase<dealii::SparsityPattern>::ExcIncompatibleColNumbers"*)* @_ZN6dealii24BlockSparsityPatternBaseINS_15SparsityPatternEE25ExcIncompatibleColNumbersD2Ev
@_ZN6dealii24BlockSparsityPatternBaseINS_15SparsityPatternEE20ExcIncompatibleSizesC1Eii = weak_odr dso_local unnamed_addr alias void (%"class.dealii::BlockSparsityPatternBase<dealii::SparsityPattern>::ExcIncompatibleSizes"*, i32, i32), void (%"class.dealii::BlockSparsityPatternBase<dealii::SparsityPattern>::ExcIncompatibleSizes"*, i32, i32)* @_ZN6dealii24BlockSparsityPatternBaseINS_15SparsityPatternEE20ExcIncompatibleSizesC2Eii
@_ZN6dealii24BlockSparsityPatternBaseINS_15SparsityPatternEE20ExcIncompatibleSizesD1Ev = weak_odr dso_local unnamed_addr alias void (%"class.dealii::BlockSparsityPatternBase<dealii::SparsityPattern>::ExcIncompatibleSizes"*), void (%"class.dealii::BlockSparsityPatternBase<dealii::SparsityPattern>::ExcIncompatibleSizes"*)* @_ZN6dealii24BlockSparsityPatternBaseINS_15SparsityPatternEE20ExcIncompatibleSizesD2Ev
@_ZN6dealii24BlockSparsityPatternBaseINS_25CompressedSparsityPatternEEC1Ev = weak_odr dso_local unnamed_addr alias void (%"class.dealii::BlockSparsityPatternBase.9"*), void (%"class.dealii::BlockSparsityPatternBase.9"*)* @_ZN6dealii24BlockSparsityPatternBaseINS_25CompressedSparsityPatternEEC2Ev
@_ZN6dealii24BlockSparsityPatternBaseINS_25CompressedSparsityPatternEEC1Ejj = weak_odr dso_local unnamed_addr alias void (%"class.dealii::BlockSparsityPatternBase.9"*, i32, i32), void (%"class.dealii::BlockSparsityPatternBase.9"*, i32, i32)* @_ZN6dealii24BlockSparsityPatternBaseINS_25CompressedSparsityPatternEEC2Ejj
@_ZN6dealii24BlockSparsityPatternBaseINS_25CompressedSparsityPatternEEC1ERKS2_ = weak_odr dso_local unnamed_addr alias void (%"class.dealii::BlockSparsityPatternBase.9"*, %"class.dealii::BlockSparsityPatternBase.9"*), void (%"class.dealii::BlockSparsityPatternBase.9"*, %"class.dealii::BlockSparsityPatternBase.9"*)* @_ZN6dealii24BlockSparsityPatternBaseINS_25CompressedSparsityPatternEEC2ERKS2_
@_ZN6dealii24BlockSparsityPatternBaseINS_25CompressedSparsityPatternEED1Ev = weak_odr dso_local unnamed_addr alias void (%"class.dealii::BlockSparsityPatternBase.9"*), void (%"class.dealii::BlockSparsityPatternBase.9"*)* @_ZN6dealii24BlockSparsityPatternBaseINS_25CompressedSparsityPatternEED2Ev
@_ZN6dealii24BlockSparsityPatternBaseINS_25CompressedSparsityPatternEE25ExcIncompatibleRowNumbersC1Eiiii = weak_odr dso_local unnamed_addr alias void (%"class.dealii::BlockSparsityPatternBase<dealii::CompressedSparsityPattern>::ExcIncompatibleRowNumbers"*, i32, i32, i32, i32), void (%"class.dealii::BlockSparsityPatternBase<dealii::CompressedSparsityPattern>::ExcIncompatibleRowNumbers"*, i32, i32, i32, i32)* @_ZN6dealii24BlockSparsityPatternBaseINS_25CompressedSparsityPatternEE25ExcIncompatibleRowNumbersC2Eiiii
@_ZN6dealii24BlockSparsityPatternBaseINS_25CompressedSparsityPatternEE25ExcIncompatibleRowNumbersD1Ev = weak_odr dso_local unnamed_addr alias void (%"class.dealii::BlockSparsityPatternBase<dealii::CompressedSparsityPattern>::ExcIncompatibleRowNumbers"*), void (%"class.dealii::BlockSparsityPatternBase<dealii::CompressedSparsityPattern>::ExcIncompatibleRowNumbers"*)* @_ZN6dealii24BlockSparsityPatternBaseINS_25CompressedSparsityPatternEE25ExcIncompatibleRowNumbersD2Ev
@_ZN6dealii24BlockSparsityPatternBaseINS_25CompressedSparsityPatternEE25ExcIncompatibleColNumbersC1Eiiii = weak_odr dso_local unnamed_addr alias void (%"class.dealii::BlockSparsityPatternBase<dealii::CompressedSparsityPattern>::ExcIncompatibleColNumbers"*, i32, i32, i32, i32), void (%"class.dealii::BlockSparsityPatternBase<dealii::CompressedSparsityPattern>::ExcIncompatibleColNumbers"*, i32, i32, i32, i32)* @_ZN6dealii24BlockSparsityPatternBaseINS_25CompressedSparsityPatternEE25ExcIncompatibleColNumbersC2Eiiii
@_ZN6dealii24BlockSparsityPatternBaseINS_25CompressedSparsityPatternEE25ExcIncompatibleColNumbersD1Ev = weak_odr dso_local unnamed_addr alias void (%"class.dealii::BlockSparsityPatternBase<dealii::CompressedSparsityPattern>::ExcIncompatibleColNumbers"*), void (%"class.dealii::BlockSparsityPatternBase<dealii::CompressedSparsityPattern>::ExcIncompatibleColNumbers"*)* @_ZN6dealii24BlockSparsityPatternBaseINS_25CompressedSparsityPatternEE25ExcIncompatibleColNumbersD2Ev
@_ZN6dealii24BlockSparsityPatternBaseINS_25CompressedSparsityPatternEE20ExcIncompatibleSizesC1Eii = weak_odr dso_local unnamed_addr alias void (%"class.dealii::BlockSparsityPatternBase<dealii::CompressedSparsityPattern>::ExcIncompatibleSizes"*, i32, i32), void (%"class.dealii::BlockSparsityPatternBase<dealii::CompressedSparsityPattern>::ExcIncompatibleSizes"*, i32, i32)* @_ZN6dealii24BlockSparsityPatternBaseINS_25CompressedSparsityPatternEE20ExcIncompatibleSizesC2Eii
@_ZN6dealii24BlockSparsityPatternBaseINS_25CompressedSparsityPatternEE20ExcIncompatibleSizesD1Ev = weak_odr dso_local unnamed_addr alias void (%"class.dealii::BlockSparsityPatternBase<dealii::CompressedSparsityPattern>::ExcIncompatibleSizes"*), void (%"class.dealii::BlockSparsityPatternBase<dealii::CompressedSparsityPattern>::ExcIncompatibleSizes"*)* @_ZN6dealii24BlockSparsityPatternBaseINS_25CompressedSparsityPatternEE20ExcIncompatibleSizesD2Ev
@_ZN6dealii24BlockSparsityPatternBaseINS_31CompressedSimpleSparsityPatternEEC1Ev = weak_odr dso_local unnamed_addr alias void (%"class.dealii::BlockSparsityPatternBase.22"*), void (%"class.dealii::BlockSparsityPatternBase.22"*)* @_ZN6dealii24BlockSparsityPatternBaseINS_31CompressedSimpleSparsityPatternEEC2Ev
@_ZN6dealii24BlockSparsityPatternBaseINS_31CompressedSimpleSparsityPatternEEC1Ejj = weak_odr dso_local unnamed_addr alias void (%"class.dealii::BlockSparsityPatternBase.22"*, i32, i32), void (%"class.dealii::BlockSparsityPatternBase.22"*, i32, i32)* @_ZN6dealii24BlockSparsityPatternBaseINS_31CompressedSimpleSparsityPatternEEC2Ejj
@_ZN6dealii24BlockSparsityPatternBaseINS_31CompressedSimpleSparsityPatternEEC1ERKS2_ = weak_odr dso_local unnamed_addr alias void (%"class.dealii::BlockSparsityPatternBase.22"*, %"class.dealii::BlockSparsityPatternBase.22"*), void (%"class.dealii::BlockSparsityPatternBase.22"*, %"class.dealii::BlockSparsityPatternBase.22"*)* @_ZN6dealii24BlockSparsityPatternBaseINS_31CompressedSimpleSparsityPatternEEC2ERKS2_
@_ZN6dealii24BlockSparsityPatternBaseINS_31CompressedSimpleSparsityPatternEED1Ev = weak_odr dso_local unnamed_addr alias void (%"class.dealii::BlockSparsityPatternBase.22"*), void (%"class.dealii::BlockSparsityPatternBase.22"*)* @_ZN6dealii24BlockSparsityPatternBaseINS_31CompressedSimpleSparsityPatternEED2Ev
@_ZN6dealii24BlockSparsityPatternBaseINS_31CompressedSimpleSparsityPatternEE25ExcIncompatibleRowNumbersC1Eiiii = weak_odr dso_local unnamed_addr alias void (%"class.dealii::BlockSparsityPatternBase<dealii::CompressedSimpleSparsityPattern>::ExcIncompatibleRowNumbers"*, i32, i32, i32, i32), void (%"class.dealii::BlockSparsityPatternBase<dealii::CompressedSimpleSparsityPattern>::ExcIncompatibleRowNumbers"*, i32, i32, i32, i32)* @_ZN6dealii24BlockSparsityPatternBaseINS_31CompressedSimpleSparsityPatternEE25ExcIncompatibleRowNumbersC2Eiiii
@_ZN6dealii24BlockSparsityPatternBaseINS_31CompressedSimpleSparsityPatternEE25ExcIncompatibleRowNumbersD1Ev = weak_odr dso_local unnamed_addr alias void (%"class.dealii::BlockSparsityPatternBase<dealii::CompressedSimpleSparsityPattern>::ExcIncompatibleRowNumbers"*), void (%"class.dealii::BlockSparsityPatternBase<dealii::CompressedSimpleSparsityPattern>::ExcIncompatibleRowNumbers"*)* @_ZN6dealii24BlockSparsityPatternBaseINS_31CompressedSimpleSparsityPatternEE25ExcIncompatibleRowNumbersD2Ev
@_ZN6dealii24BlockSparsityPatternBaseINS_31CompressedSimpleSparsityPatternEE25ExcIncompatibleColNumbersC1Eiiii = weak_odr dso_local unnamed_addr alias void (%"class.dealii::BlockSparsityPatternBase<dealii::CompressedSimpleSparsityPattern>::ExcIncompatibleColNumbers"*, i32, i32, i32, i32), void (%"class.dealii::BlockSparsityPatternBase<dealii::CompressedSimpleSparsityPattern>::ExcIncompatibleColNumbers"*, i32, i32, i32, i32)* @_ZN6dealii24BlockSparsityPatternBaseINS_31CompressedSimpleSparsityPatternEE25ExcIncompatibleColNumbersC2Eiiii
@_ZN6dealii24BlockSparsityPatternBaseINS_31CompressedSimpleSparsityPatternEE25ExcIncompatibleColNumbersD1Ev = weak_odr dso_local unnamed_addr alias void (%"class.dealii::BlockSparsityPatternBase<dealii::CompressedSimpleSparsityPattern>::ExcIncompatibleColNumbers"*), void (%"class.dealii::BlockSparsityPatternBase<dealii::CompressedSimpleSparsityPattern>::ExcIncompatibleColNumbers"*)* @_ZN6dealii24BlockSparsityPatternBaseINS_31CompressedSimpleSparsityPatternEE25ExcIncompatibleColNumbersD2Ev
@_ZN6dealii24BlockSparsityPatternBaseINS_31CompressedSimpleSparsityPatternEE20ExcIncompatibleSizesC1Eii = weak_odr dso_local unnamed_addr alias void (%"class.dealii::BlockSparsityPatternBase<dealii::CompressedSimpleSparsityPattern>::ExcIncompatibleSizes"*, i32, i32), void (%"class.dealii::BlockSparsityPatternBase<dealii::CompressedSimpleSparsityPattern>::ExcIncompatibleSizes"*, i32, i32)* @_ZN6dealii24BlockSparsityPatternBaseINS_31CompressedSimpleSparsityPatternEE20ExcIncompatibleSizesC2Eii
@_ZN6dealii24BlockSparsityPatternBaseINS_31CompressedSimpleSparsityPatternEE20ExcIncompatibleSizesD1Ev = weak_odr dso_local unnamed_addr alias void (%"class.dealii::BlockSparsityPatternBase<dealii::CompressedSimpleSparsityPattern>::ExcIncompatibleSizes"*), void (%"class.dealii::BlockSparsityPatternBase<dealii::CompressedSimpleSparsityPattern>::ExcIncompatibleSizes"*)* @_ZN6dealii24BlockSparsityPatternBaseINS_31CompressedSimpleSparsityPatternEE20ExcIncompatibleSizesD2Ev
@_ZN6dealii24BlockSparsityPatternBaseINS_28CompressedSetSparsityPatternEEC1Ev = weak_odr dso_local unnamed_addr alias void (%"class.dealii::BlockSparsityPatternBase.35"*), void (%"class.dealii::BlockSparsityPatternBase.35"*)* @_ZN6dealii24BlockSparsityPatternBaseINS_28CompressedSetSparsityPatternEEC2Ev
@_ZN6dealii24BlockSparsityPatternBaseINS_28CompressedSetSparsityPatternEEC1Ejj = weak_odr dso_local unnamed_addr alias void (%"class.dealii::BlockSparsityPatternBase.35"*, i32, i32), void (%"class.dealii::BlockSparsityPatternBase.35"*, i32, i32)* @_ZN6dealii24BlockSparsityPatternBaseINS_28CompressedSetSparsityPatternEEC2Ejj
@_ZN6dealii24BlockSparsityPatternBaseINS_28CompressedSetSparsityPatternEEC1ERKS2_ = weak_odr dso_local unnamed_addr alias void (%"class.dealii::BlockSparsityPatternBase.35"*, %"class.dealii::BlockSparsityPatternBase.35"*), void (%"class.dealii::BlockSparsityPatternBase.35"*, %"class.dealii::BlockSparsityPatternBase.35"*)* @_ZN6dealii24BlockSparsityPatternBaseINS_28CompressedSetSparsityPatternEEC2ERKS2_
@_ZN6dealii24BlockSparsityPatternBaseINS_28CompressedSetSparsityPatternEED1Ev = weak_odr dso_local unnamed_addr alias void (%"class.dealii::BlockSparsityPatternBase.35"*), void (%"class.dealii::BlockSparsityPatternBase.35"*)* @_ZN6dealii24BlockSparsityPatternBaseINS_28CompressedSetSparsityPatternEED2Ev
@_ZN6dealii24BlockSparsityPatternBaseINS_28CompressedSetSparsityPatternEE25ExcIncompatibleRowNumbersC1Eiiii = weak_odr dso_local unnamed_addr alias void (%"class.dealii::BlockSparsityPatternBase<dealii::CompressedSetSparsityPattern>::ExcIncompatibleRowNumbers"*, i32, i32, i32, i32), void (%"class.dealii::BlockSparsityPatternBase<dealii::CompressedSetSparsityPattern>::ExcIncompatibleRowNumbers"*, i32, i32, i32, i32)* @_ZN6dealii24BlockSparsityPatternBaseINS_28CompressedSetSparsityPatternEE25ExcIncompatibleRowNumbersC2Eiiii
@_ZN6dealii24BlockSparsityPatternBaseINS_28CompressedSetSparsityPatternEE25ExcIncompatibleRowNumbersD1Ev = weak_odr dso_local unnamed_addr alias void (%"class.dealii::BlockSparsityPatternBase<dealii::CompressedSetSparsityPattern>::ExcIncompatibleRowNumbers"*), void (%"class.dealii::BlockSparsityPatternBase<dealii::CompressedSetSparsityPattern>::ExcIncompatibleRowNumbers"*)* @_ZN6dealii24BlockSparsityPatternBaseINS_28CompressedSetSparsityPatternEE25ExcIncompatibleRowNumbersD2Ev
@_ZN6dealii24BlockSparsityPatternBaseINS_28CompressedSetSparsityPatternEE25ExcIncompatibleColNumbersC1Eiiii = weak_odr dso_local unnamed_addr alias void (%"class.dealii::BlockSparsityPatternBase<dealii::CompressedSetSparsityPattern>::ExcIncompatibleColNumbers"*, i32, i32, i32, i32), void (%"class.dealii::BlockSparsityPatternBase<dealii::CompressedSetSparsityPattern>::ExcIncompatibleColNumbers"*, i32, i32, i32, i32)* @_ZN6dealii24BlockSparsityPatternBaseINS_28CompressedSetSparsityPatternEE25ExcIncompatibleColNumbersC2Eiiii
@_ZN6dealii24BlockSparsityPatternBaseINS_28CompressedSetSparsityPatternEE25ExcIncompatibleColNumbersD1Ev = weak_odr dso_local unnamed_addr alias void (%"class.dealii::BlockSparsityPatternBase<dealii::CompressedSetSparsityPattern>::ExcIncompatibleColNumbers"*), void (%"class.dealii::BlockSparsityPatternBase<dealii::CompressedSetSparsityPattern>::ExcIncompatibleColNumbers"*)* @_ZN6dealii24BlockSparsityPatternBaseINS_28CompressedSetSparsityPatternEE25ExcIncompatibleColNumbersD2Ev
@_ZN6dealii24BlockSparsityPatternBaseINS_28CompressedSetSparsityPatternEE20ExcIncompatibleSizesC1Eii = weak_odr dso_local unnamed_addr alias void (%"class.dealii::BlockSparsityPatternBase<dealii::CompressedSetSparsityPattern>::ExcIncompatibleSizes"*, i32, i32), void (%"class.dealii::BlockSparsityPatternBase<dealii::CompressedSetSparsityPattern>::ExcIncompatibleSizes"*, i32, i32)* @_ZN6dealii24BlockSparsityPatternBaseINS_28CompressedSetSparsityPatternEE20ExcIncompatibleSizesC2Eii
@_ZN6dealii24BlockSparsityPatternBaseINS_28CompressedSetSparsityPatternEE20ExcIncompatibleSizesD1Ev = weak_odr dso_local unnamed_addr alias void (%"class.dealii::BlockSparsityPatternBase<dealii::CompressedSetSparsityPattern>::ExcIncompatibleSizes"*), void (%"class.dealii::BlockSparsityPatternBase<dealii::CompressedSetSparsityPattern>::ExcIncompatibleSizes"*)* @_ZN6dealii24BlockSparsityPatternBaseINS_28CompressedSetSparsityPatternEE20ExcIncompatibleSizesD2Ev
@_ZN6dealii20BlockSparsityPatternC1Ev = dso_local unnamed_addr alias void (%"class.dealii::BlockSparsityPattern"*), void (%"class.dealii::BlockSparsityPattern"*)* @_ZN6dealii20BlockSparsityPatternC2Ev
@_ZN6dealii20BlockSparsityPatternC1Ejj = dso_local unnamed_addr alias void (%"class.dealii::BlockSparsityPattern"*, i32, i32), void (%"class.dealii::BlockSparsityPattern"*, i32, i32)* @_ZN6dealii20BlockSparsityPatternC2Ejj
@_ZN6dealii30BlockCompressedSparsityPatternC1Ev = dso_local unnamed_addr alias void (%"class.dealii::BlockCompressedSparsityPattern"*), void (%"class.dealii::BlockCompressedSparsityPattern"*)* @_ZN6dealii30BlockCompressedSparsityPatternC2Ev
@_ZN6dealii30BlockCompressedSparsityPatternC1Ejj = dso_local unnamed_addr alias void (%"class.dealii::BlockCompressedSparsityPattern"*, i32, i32), void (%"class.dealii::BlockCompressedSparsityPattern"*, i32, i32)* @_ZN6dealii30BlockCompressedSparsityPatternC2Ejj
@_ZN6dealii30BlockCompressedSparsityPatternC1ERKSt6vectorIjSaIjEES5_ = dso_local unnamed_addr alias void (%"class.dealii::BlockCompressedSparsityPattern"*, %"class.std::vector"*, %"class.std::vector"*), void (%"class.dealii::BlockCompressedSparsityPattern"*, %"class.std::vector"*, %"class.std::vector"*)* @_ZN6dealii30BlockCompressedSparsityPatternC2ERKSt6vectorIjSaIjEES5_
@_ZN6dealii33BlockCompressedSetSparsityPatternC1Ev = dso_local unnamed_addr alias void (%"class.dealii::BlockCompressedSetSparsityPattern"*), void (%"class.dealii::BlockCompressedSetSparsityPattern"*)* @_ZN6dealii33BlockCompressedSetSparsityPatternC2Ev
@_ZN6dealii33BlockCompressedSetSparsityPatternC1Ejj = dso_local unnamed_addr alias void (%"class.dealii::BlockCompressedSetSparsityPattern"*, i32, i32), void (%"class.dealii::BlockCompressedSetSparsityPattern"*, i32, i32)* @_ZN6dealii33BlockCompressedSetSparsityPatternC2Ejj
@_ZN6dealii33BlockCompressedSetSparsityPatternC1ERKSt6vectorIjSaIjEES5_ = dso_local unnamed_addr alias void (%"class.dealii::BlockCompressedSetSparsityPattern"*, %"class.std::vector"*, %"class.std::vector"*), void (%"class.dealii::BlockCompressedSetSparsityPattern"*, %"class.std::vector"*, %"class.std::vector"*)* @_ZN6dealii33BlockCompressedSetSparsityPatternC2ERKSt6vectorIjSaIjEES5_
@_ZN6dealii36BlockCompressedSimpleSparsityPatternC1Ev = dso_local unnamed_addr alias void (%"class.dealii::BlockCompressedSimpleSparsityPattern"*), void (%"class.dealii::BlockCompressedSimpleSparsityPattern"*)* @_ZN6dealii36BlockCompressedSimpleSparsityPatternC2Ev
@_ZN6dealii36BlockCompressedSimpleSparsityPatternC1Ejj = dso_local unnamed_addr alias void (%"class.dealii::BlockCompressedSimpleSparsityPattern"*, i32, i32), void (%"class.dealii::BlockCompressedSimpleSparsityPattern"*, i32, i32)* @_ZN6dealii36BlockCompressedSimpleSparsityPatternC2Ejj
@_ZN6dealii36BlockCompressedSimpleSparsityPatternC1ERKSt6vectorIjSaIjEES5_ = dso_local unnamed_addr alias void (%"class.dealii::BlockCompressedSimpleSparsityPattern"*, %"class.std::vector"*, %"class.std::vector"*), void (%"class.dealii::BlockCompressedSimpleSparsityPattern"*, %"class.std::vector"*, %"class.std::vector"*)* @_ZN6dealii36BlockCompressedSimpleSparsityPatternC2ERKSt6vectorIjSaIjEES5_

; Function Attrs: noinline uwtable
define internal void @__cxx_global_var_init() #0 section ".text.startup" !dbg !4251 {
entry:
  call void @_ZNSt8ios_base4InitC1Ev(%"class.std::ios_base::Init"* @_ZStL8__ioinit), !dbg !4252
  %0 = call i32 @__cxa_atexit(void (i8*)* bitcast (void (%"class.std::ios_base::Init"*)* @_ZNSt8ios_base4InitD1Ev to void (i8*)*), i8* getelementptr inbounds (%"class.std::ios_base::Init", %"class.std::ios_base::Init"* @_ZStL8__ioinit, i32 0, i32 0), i8* @__dso_handle) #3, !dbg !4252
  ret void, !dbg !4252
}

declare dso_local void @_ZNSt8ios_base4InitC1Ev(%"class.std::ios_base::Init"*) unnamed_addr #1

; Function Attrs: nounwind
declare dso_local void @_ZNSt8ios_base4InitD1Ev(%"class.std::ios_base::Init"*) unnamed_addr #2

; Function Attrs: nounwind
declare dso_local i32 @__cxa_atexit(void (i8*)*, i8*, i8*) #3

; Function Attrs: noinline uwtable
define weak_odr dso_local void @_ZN6dealii24BlockSparsityPatternBaseINS_15SparsityPatternEEC2Ev(%"class.dealii::BlockSparsityPatternBase"* %this) unnamed_addr #0 comdat($_ZN6dealii24BlockSparsityPatternBaseINS_15SparsityPatternEEC5Ev) align 2 personality i8* bitcast (i32 (...)* @__gxx_personality_v0 to i8*) !dbg !4253 {
entry:
  %this.addr = alloca %"class.dealii::BlockSparsityPatternBase"*, align 8
  %exn.slot = alloca i8*
  %ehselector.slot = alloca i32
  store %"class.dealii::BlockSparsityPatternBase"* %this, %"class.dealii::BlockSparsityPatternBase"** %this.addr, align 8
  call void @llvm.dbg.declare(metadata %"class.dealii::BlockSparsityPatternBase"** %this.addr, metadata !4254, metadata !DIExpression()), !dbg !4256
  %this1 = load %"class.dealii::BlockSparsityPatternBase"*, %"class.dealii::BlockSparsityPatternBase"** %this.addr, align 8
  %0 = bitcast %"class.dealii::BlockSparsityPatternBase"* %this1 to %"class.dealii::Subscriptor"*, !dbg !4257
  call void @_ZN6dealii11SubscriptorC2Ev(%"class.dealii::Subscriptor"* %0), !dbg !4258
  %1 = bitcast %"class.dealii::BlockSparsityPatternBase"* %this1 to i32 (...)***, !dbg !4257
  store i32 (...)** bitcast (i8** getelementptr inbounds ({ [4 x i8*] }, { [4 x i8*] }* @_ZTVN6dealii24BlockSparsityPatternBaseINS_15SparsityPatternEEE, i32 0, inrange i32 0, i32 2) to i32 (...)**), i32 (...)*** %1, align 8, !dbg !4257
  %rows = getelementptr inbounds %"class.dealii::BlockSparsityPatternBase", %"class.dealii::BlockSparsityPatternBase"* %this1, i32 0, i32 1, !dbg !4260
  store i32 0, i32* %rows, align 8, !dbg !4260
  %columns = getelementptr inbounds %"class.dealii::BlockSparsityPatternBase", %"class.dealii::BlockSparsityPatternBase"* %this1, i32 0, i32 2, !dbg !4262
  store i32 0, i32* %columns, align 4, !dbg !4262
  %sub_objects = getelementptr inbounds %"class.dealii::BlockSparsityPatternBase", %"class.dealii::BlockSparsityPatternBase"* %this1, i32 0, i32 3, !dbg !4258
  invoke void @_ZN6dealii5TableILi2ENS_12SmartPointerINS_15SparsityPatternEEEEC2Ev(%"class.dealii::Table"* %sub_objects)
          to label %invoke.cont unwind label %lpad, !dbg !4258

invoke.cont:                                      ; preds = %entry
  %row_indices = getelementptr inbounds %"class.dealii::BlockSparsityPatternBase", %"class.dealii::BlockSparsityPatternBase"* %this1, i32 0, i32 4, !dbg !4258
  invoke void @_ZN6dealii12BlockIndicesC2Ej(%"class.dealii::BlockIndices"* %row_indices, i32 0)
          to label %invoke.cont3 unwind label %lpad2, !dbg !4258

invoke.cont3:                                     ; preds = %invoke.cont
  %column_indices = getelementptr inbounds %"class.dealii::BlockSparsityPatternBase", %"class.dealii::BlockSparsityPatternBase"* %this1, i32 0, i32 5, !dbg !4258
  invoke void @_ZN6dealii12BlockIndicesC2Ej(%"class.dealii::BlockIndices"* %column_indices, i32 0)
          to label %invoke.cont5 unwind label %lpad4, !dbg !4258

invoke.cont5:                                     ; preds = %invoke.cont3
  %counter_within_block = getelementptr inbounds %"class.dealii::BlockSparsityPatternBase", %"class.dealii::BlockSparsityPatternBase"* %this1, i32 0, i32 6, !dbg !4258
  call void @_ZNSt6vectorIjSaIjEEC2Ev(%"class.std::vector"* %counter_within_block) #3, !dbg !4258
  %block_column_indices = getelementptr inbounds %"class.dealii::BlockSparsityPatternBase", %"class.dealii::BlockSparsityPatternBase"* %this1, i32 0, i32 7, !dbg !4258
  call void @_ZNSt6vectorIS_IjSaIjEESaIS1_EEC2Ev(%"class.std::vector.3"* %block_column_indices) #3, !dbg !4258
  ret void, !dbg !4263

lpad:                                             ; preds = %entry
  %2 = landingpad { i8*, i32 }
          cleanup, !dbg !4263
  %3 = extractvalue { i8*, i32 } %2, 0, !dbg !4263
  store i8* %3, i8** %exn.slot, align 8, !dbg !4263
  %4 = extractvalue { i8*, i32 } %2, 1, !dbg !4263
  store i32 %4, i32* %ehselector.slot, align 4, !dbg !4263
  br label %ehcleanup6, !dbg !4263

lpad2:                                            ; preds = %invoke.cont
  %5 = landingpad { i8*, i32 }
          cleanup, !dbg !4263
  %6 = extractvalue { i8*, i32 } %5, 0, !dbg !4263
  store i8* %6, i8** %exn.slot, align 8, !dbg !4263
  %7 = extractvalue { i8*, i32 } %5, 1, !dbg !4263
  store i32 %7, i32* %ehselector.slot, align 4, !dbg !4263
  br label %ehcleanup, !dbg !4263

lpad4:                                            ; preds = %invoke.cont3
  %8 = landingpad { i8*, i32 }
          cleanup, !dbg !4263
  %9 = extractvalue { i8*, i32 } %8, 0, !dbg !4263
  store i8* %9, i8** %exn.slot, align 8, !dbg !4263
  %10 = extractvalue { i8*, i32 } %8, 1, !dbg !4263
  store i32 %10, i32* %ehselector.slot, align 4, !dbg !4263
  call void @_ZN6dealii12BlockIndicesD2Ev(%"class.dealii::BlockIndices"* %row_indices) #3, !dbg !4264
  br label %ehcleanup, !dbg !4264

ehcleanup:                                        ; preds = %lpad4, %lpad2
  call void @_ZN6dealii5TableILi2ENS_12SmartPointerINS_15SparsityPatternEEEED2Ev(%"class.dealii::Table"* %sub_objects) #3, !dbg !4264
  br label %ehcleanup6, !dbg !4264

ehcleanup6:                                       ; preds = %ehcleanup, %lpad
  %11 = bitcast %"class.dealii::BlockSparsityPatternBase"* %this1 to %"class.dealii::Subscriptor"*, !dbg !4264
  call void @_ZN6dealii11SubscriptorD2Ev(%"class.dealii::Subscriptor"* %11) #3, !dbg !4264
  br label %eh.resume, !dbg !4264

eh.resume:                                        ; preds = %ehcleanup6
  %exn = load i8*, i8** %exn.slot, align 8, !dbg !4264
  %sel = load i32, i32* %ehselector.slot, align 4, !dbg !4264
  %lpad.val = insertvalue { i8*, i32 } undef, i8* %exn, 0, !dbg !4264
  %lpad.val7 = insertvalue { i8*, i32 } %lpad.val, i32 %sel, 1, !dbg !4264
  resume { i8*, i32 } %lpad.val7, !dbg !4264
}

; Function Attrs: nounwind readnone speculatable willreturn
declare void @llvm.dbg.declare(metadata, metadata, metadata) #4

declare dso_local void @_ZN6dealii11SubscriptorC2Ev(%"class.dealii::Subscriptor"*) unnamed_addr #1

; Function Attrs: noinline uwtable
define linkonce_odr dso_local void @_ZN6dealii5TableILi2ENS_12SmartPointerINS_15SparsityPatternEEEEC2Ev(%"class.dealii::Table"* %this) unnamed_addr #0 comdat align 2 !dbg !4266 {
entry:
  %this.addr = alloca %"class.dealii::Table"*, align 8
  store %"class.dealii::Table"* %this, %"class.dealii::Table"** %this.addr, align 8
  call void @llvm.dbg.declare(metadata %"class.dealii::Table"** %this.addr, metadata !4267, metadata !DIExpression()), !dbg !4269
  %this1 = load %"class.dealii::Table"*, %"class.dealii::Table"** %this.addr, align 8
  %0 = bitcast %"class.dealii::Table"* %this1 to %"class.dealii::TableBase"*, !dbg !4270
  call void @_ZN6dealii9TableBaseILi2ENS_12SmartPointerINS_15SparsityPatternEEEEC2Ev(%"class.dealii::TableBase"* %0), !dbg !4271
  %1 = bitcast %"class.dealii::Table"* %this1 to i32 (...)***, !dbg !4270
  store i32 (...)** bitcast (i8** getelementptr inbounds ({ [4 x i8*] }, { [4 x i8*] }* @_ZTVN6dealii5TableILi2ENS_12SmartPointerINS_15SparsityPatternEEEEE, i32 0, inrange i32 0, i32 2) to i32 (...)**), i32 (...)*** %1, align 8, !dbg !4270
  ret void, !dbg !4272
}

declare dso_local i32 @__gxx_personality_v0(...)

; Function Attrs: noinline uwtable
define linkonce_odr dso_local void @_ZN6dealii12BlockIndicesC2Ej(%"class.dealii::BlockIndices"* %this, i32 %n_blocks) unnamed_addr #0 comdat align 2 personality i8* bitcast (i32 (...)* @__gxx_personality_v0 to i8*) !dbg !4273 {
entry:
  %this.addr = alloca %"class.dealii::BlockIndices"*, align 8
  %n_blocks.addr = alloca i32, align 4
  %ref.tmp = alloca %"class.std::allocator.0", align 1
  %exn.slot = alloca i8*
  %ehselector.slot = alloca i32
  %i = alloca i32, align 4
  store %"class.dealii::BlockIndices"* %this, %"class.dealii::BlockIndices"** %this.addr, align 8
  call void @llvm.dbg.declare(metadata %"class.dealii::BlockIndices"** %this.addr, metadata !4274, metadata !DIExpression()), !dbg !4276
  store i32 %n_blocks, i32* %n_blocks.addr, align 4
  call void @llvm.dbg.declare(metadata i32* %n_blocks.addr, metadata !4277, metadata !DIExpression()), !dbg !4278
  %this1 = load %"class.dealii::BlockIndices"*, %"class.dealii::BlockIndices"** %this.addr, align 8
  %n_blocks2 = getelementptr inbounds %"class.dealii::BlockIndices", %"class.dealii::BlockIndices"* %this1, i32 0, i32 0, !dbg !4279
  %0 = load i32, i32* %n_blocks.addr, align 4, !dbg !4280
  store i32 %0, i32* %n_blocks2, align 8, !dbg !4279
  %start_indices = getelementptr inbounds %"class.dealii::BlockIndices", %"class.dealii::BlockIndices"* %this1, i32 0, i32 1, !dbg !4281
  %1 = load i32, i32* %n_blocks.addr, align 4, !dbg !4282
  %add = add i32 %1, 1, !dbg !4283
  %conv = zext i32 %add to i64, !dbg !4282
  call void @_ZNSaIjEC2Ev(%"class.std::allocator.0"* %ref.tmp) #3, !dbg !4281
  invoke void @_ZNSt6vectorIjSaIjEEC2EmRKS0_(%"class.std::vector"* %start_indices, i64 %conv, %"class.std::allocator.0"* dereferenceable(1) %ref.tmp)
          to label %invoke.cont unwind label %lpad, !dbg !4281

invoke.cont:                                      ; preds = %entry
  call void @_ZNSaIjED2Ev(%"class.std::allocator.0"* %ref.tmp) #3, !dbg !4281
  call void @llvm.dbg.declare(metadata i32* %i, metadata !4284, metadata !DIExpression()), !dbg !4287
  store i32 0, i32* %i, align 4, !dbg !4287
  br label %for.cond, !dbg !4288

for.cond:                                         ; preds = %for.inc, %invoke.cont
  %2 = load i32, i32* %i, align 4, !dbg !4289
  %3 = load i32, i32* %n_blocks.addr, align 4, !dbg !4291
  %cmp = icmp ule i32 %2, %3, !dbg !4292
  br i1 %cmp, label %for.body, label %for.end, !dbg !4293

for.body:                                         ; preds = %for.cond
  %start_indices3 = getelementptr inbounds %"class.dealii::BlockIndices", %"class.dealii::BlockIndices"* %this1, i32 0, i32 1, !dbg !4294
  %4 = load i32, i32* %i, align 4, !dbg !4295
  %conv4 = zext i32 %4 to i64, !dbg !4295
  %call = call dereferenceable(4) i32* @_ZNSt6vectorIjSaIjEEixEm(%"class.std::vector"* %start_indices3, i64 %conv4) #3, !dbg !4294
  store i32 0, i32* %call, align 4, !dbg !4296
  br label %for.inc, !dbg !4294

for.inc:                                          ; preds = %for.body
  %5 = load i32, i32* %i, align 4, !dbg !4297
  %inc = add i32 %5, 1, !dbg !4297
  store i32 %inc, i32* %i, align 4, !dbg !4297
  br label %for.cond, !dbg !4298, !llvm.loop !4299

lpad:                                             ; preds = %entry
  %6 = landingpad { i8*, i32 }
          cleanup, !dbg !4301
  %7 = extractvalue { i8*, i32 } %6, 0, !dbg !4301
  store i8* %7, i8** %exn.slot, align 8, !dbg !4301
  %8 = extractvalue { i8*, i32 } %6, 1, !dbg !4301
  store i32 %8, i32* %ehselector.slot, align 4, !dbg !4301
  call void @_ZNSaIjED2Ev(%"class.std::allocator.0"* %ref.tmp) #3, !dbg !4281
  br label %eh.resume, !dbg !4281

for.end:                                          ; preds = %for.cond
  ret void, !dbg !4301

eh.resume:                                        ; preds = %lpad
  %exn = load i8*, i8** %exn.slot, align 8, !dbg !4281
  %sel = load i32, i32* %ehselector.slot, align 4, !dbg !4281
  %lpad.val = insertvalue { i8*, i32 } undef, i8* %exn, 0, !dbg !4281
  %lpad.val5 = insertvalue { i8*, i32 } %lpad.val, i32 %sel, 1, !dbg !4281
  resume { i8*, i32 } %lpad.val5, !dbg !4281
}

; Function Attrs: noinline nounwind uwtable
define linkonce_odr dso_local void @_ZNSt6vectorIjSaIjEEC2Ev(%"class.std::vector"* %this) unnamed_addr #5 comdat align 2 !dbg !4302 {
entry:
  %this.addr = alloca %"class.std::vector"*, align 8
  store %"class.std::vector"* %this, %"class.std::vector"** %this.addr, align 8
  call void @llvm.dbg.declare(metadata %"class.std::vector"** %this.addr, metadata !4303, metadata !DIExpression()), !dbg !4304
  %this1 = load %"class.std::vector"*, %"class.std::vector"** %this.addr, align 8
  %0 = bitcast %"class.std::vector"* %this1 to %"struct.std::_Vector_base"*, !dbg !4305
  call void @_ZNSt12_Vector_baseIjSaIjEEC2Ev(%"struct.std::_Vector_base"* %0) #3, !dbg !4306
  ret void, !dbg !4305
}

; Function Attrs: noinline nounwind uwtable
define linkonce_odr dso_local void @_ZNSt6vectorIS_IjSaIjEESaIS1_EEC2Ev(%"class.std::vector.3"* %this) unnamed_addr #5 comdat align 2 !dbg !4307 {
entry:
  %this.addr = alloca %"class.std::vector.3"*, align 8
  store %"class.std::vector.3"* %this, %"class.std::vector.3"** %this.addr, align 8
  call void @llvm.dbg.declare(metadata %"class.std::vector.3"** %this.addr, metadata !4308, metadata !DIExpression()), !dbg !4310
  %this1 = load %"class.std::vector.3"*, %"class.std::vector.3"** %this.addr, align 8
  %0 = bitcast %"class.std::vector.3"* %this1 to %"struct.std::_Vector_base.4"*, !dbg !4311
  call void @_ZNSt12_Vector_baseISt6vectorIjSaIjEESaIS2_EEC2Ev(%"struct.std::_Vector_base.4"* %0) #3, !dbg !4312
  ret void, !dbg !4311
}

; Function Attrs: noinline nounwind uwtable
define linkonce_odr dso_local void @_ZN6dealii12BlockIndicesD2Ev(%"class.dealii::BlockIndices"* %this) unnamed_addr #5 comdat align 2 !dbg !4313 {
entry:
  %this.addr = alloca %"class.dealii::BlockIndices"*, align 8
  store %"class.dealii::BlockIndices"* %this, %"class.dealii::BlockIndices"** %this.addr, align 8
  call void @llvm.dbg.declare(metadata %"class.dealii::BlockIndices"** %this.addr, metadata !4317, metadata !DIExpression()), !dbg !4318
  %this1 = load %"class.dealii::BlockIndices"*, %"class.dealii::BlockIndices"** %this.addr, align 8
  %start_indices = getelementptr inbounds %"class.dealii::BlockIndices", %"class.dealii::BlockIndices"* %this1, i32 0, i32 1, !dbg !4319
  call void @_ZNSt6vectorIjSaIjEED2Ev(%"class.std::vector"* %start_indices) #3, !dbg !4319
  ret void, !dbg !4321
}

; Function Attrs: noinline nounwind uwtable
define linkonce_odr dso_local void @_ZN6dealii5TableILi2ENS_12SmartPointerINS_15SparsityPatternEEEED2Ev(%"class.dealii::Table"* %this) unnamed_addr #5 comdat align 2 !dbg !4322 {
entry:
  %this.addr = alloca %"class.dealii::Table"*, align 8
  store %"class.dealii::Table"* %this, %"class.dealii::Table"** %this.addr, align 8
  call void @llvm.dbg.declare(metadata %"class.dealii::Table"** %this.addr, metadata !4324, metadata !DIExpression()), !dbg !4325
  %this1 = load %"class.dealii::Table"*, %"class.dealii::Table"** %this.addr, align 8
  %0 = bitcast %"class.dealii::Table"* %this1 to %"class.dealii::TableBase"*, !dbg !4326
  call void @_ZN6dealii9TableBaseILi2ENS_12SmartPointerINS_15SparsityPatternEEEED2Ev(%"class.dealii::TableBase"* %0) #3, !dbg !4326
  ret void, !dbg !4328
}

; Function Attrs: nounwind
declare dso_local void @_ZN6dealii11SubscriptorD2Ev(%"class.dealii::Subscriptor"*) unnamed_addr #2

; Function Attrs: noinline uwtable
define weak_odr dso_local void @_ZN6dealii24BlockSparsityPatternBaseINS_15SparsityPatternEEC2Ejj(%"class.dealii::BlockSparsityPatternBase"* %this, i32 %n_block_rows, i32 %n_block_columns) unnamed_addr #0 comdat($_ZN6dealii24BlockSparsityPatternBaseINS_15SparsityPatternEEC5Ejj) align 2 personality i8* bitcast (i32 (...)* @__gxx_personality_v0 to i8*) !dbg !4329 {
entry:
  %this.addr = alloca %"class.dealii::BlockSparsityPatternBase"*, align 8
  %n_block_rows.addr = alloca i32, align 4
  %n_block_columns.addr = alloca i32, align 4
  %exn.slot = alloca i8*
  %ehselector.slot = alloca i32
  store %"class.dealii::BlockSparsityPatternBase"* %this, %"class.dealii::BlockSparsityPatternBase"** %this.addr, align 8
  call void @llvm.dbg.declare(metadata %"class.dealii::BlockSparsityPatternBase"** %this.addr, metadata !4330, metadata !DIExpression()), !dbg !4331
  store i32 %n_block_rows, i32* %n_block_rows.addr, align 4
  call void @llvm.dbg.declare(metadata i32* %n_block_rows.addr, metadata !4332, metadata !DIExpression()), !dbg !4333
  store i32 %n_block_columns, i32* %n_block_columns.addr, align 4
  call void @llvm.dbg.declare(metadata i32* %n_block_columns.addr, metadata !4334, metadata !DIExpression()), !dbg !4335
  %this1 = load %"class.dealii::BlockSparsityPatternBase"*, %"class.dealii::BlockSparsityPatternBase"** %this.addr, align 8
  %0 = bitcast %"class.dealii::BlockSparsityPatternBase"* %this1 to %"class.dealii::Subscriptor"*, !dbg !4336
  call void @_ZN6dealii11SubscriptorC2Ev(%"class.dealii::Subscriptor"* %0), !dbg !4337
  %1 = bitcast %"class.dealii::BlockSparsityPatternBase"* %this1 to i32 (...)***, !dbg !4336
  store i32 (...)** bitcast (i8** getelementptr inbounds ({ [4 x i8*] }, { [4 x i8*] }* @_ZTVN6dealii24BlockSparsityPatternBaseINS_15SparsityPatternEEE, i32 0, inrange i32 0, i32 2) to i32 (...)**), i32 (...)*** %1, align 8, !dbg !4336
  %rows = getelementptr inbounds %"class.dealii::BlockSparsityPatternBase", %"class.dealii::BlockSparsityPatternBase"* %this1, i32 0, i32 1, !dbg !4339
  store i32 0, i32* %rows, align 8, !dbg !4339
  %columns = getelementptr inbounds %"class.dealii::BlockSparsityPatternBase", %"class.dealii::BlockSparsityPatternBase"* %this1, i32 0, i32 2, !dbg !4341
  store i32 0, i32* %columns, align 4, !dbg !4341
  %sub_objects = getelementptr inbounds %"class.dealii::BlockSparsityPatternBase", %"class.dealii::BlockSparsityPatternBase"* %this1, i32 0, i32 3, !dbg !4337
  invoke void @_ZN6dealii5TableILi2ENS_12SmartPointerINS_15SparsityPatternEEEEC2Ev(%"class.dealii::Table"* %sub_objects)
          to label %invoke.cont unwind label %lpad, !dbg !4337

invoke.cont:                                      ; preds = %entry
  %row_indices = getelementptr inbounds %"class.dealii::BlockSparsityPatternBase", %"class.dealii::BlockSparsityPatternBase"* %this1, i32 0, i32 4, !dbg !4337
  invoke void @_ZN6dealii12BlockIndicesC2Ej(%"class.dealii::BlockIndices"* %row_indices, i32 0)
          to label %invoke.cont3 unwind label %lpad2, !dbg !4337

invoke.cont3:                                     ; preds = %invoke.cont
  %column_indices = getelementptr inbounds %"class.dealii::BlockSparsityPatternBase", %"class.dealii::BlockSparsityPatternBase"* %this1, i32 0, i32 5, !dbg !4337
  invoke void @_ZN6dealii12BlockIndicesC2Ej(%"class.dealii::BlockIndices"* %column_indices, i32 0)
          to label %invoke.cont5 unwind label %lpad4, !dbg !4337

invoke.cont5:                                     ; preds = %invoke.cont3
  %counter_within_block = getelementptr inbounds %"class.dealii::BlockSparsityPatternBase", %"class.dealii::BlockSparsityPatternBase"* %this1, i32 0, i32 6, !dbg !4337
  call void @_ZNSt6vectorIjSaIjEEC2Ev(%"class.std::vector"* %counter_within_block) #3, !dbg !4337
  %block_column_indices = getelementptr inbounds %"class.dealii::BlockSparsityPatternBase", %"class.dealii::BlockSparsityPatternBase"* %this1, i32 0, i32 7, !dbg !4337
  call void @_ZNSt6vectorIS_IjSaIjEESaIS1_EEC2Ev(%"class.std::vector.3"* %block_column_indices) #3, !dbg !4337
  %2 = load i32, i32* %n_block_rows.addr, align 4, !dbg !4342
  %3 = load i32, i32* %n_block_columns.addr, align 4, !dbg !4344
  invoke void @_ZN6dealii24BlockSparsityPatternBaseINS_15SparsityPatternEE6reinitEjj(%"class.dealii::BlockSparsityPatternBase"* %this1, i32 %2, i32 %3)
          to label %invoke.cont7 unwind label %lpad6, !dbg !4345

invoke.cont7:                                     ; preds = %invoke.cont5
  ret void, !dbg !4346

lpad:                                             ; preds = %entry
  %4 = landingpad { i8*, i32 }
          cleanup, !dbg !4346
  %5 = extractvalue { i8*, i32 } %4, 0, !dbg !4346
  store i8* %5, i8** %exn.slot, align 8, !dbg !4346
  %6 = extractvalue { i8*, i32 } %4, 1, !dbg !4346
  store i32 %6, i32* %ehselector.slot, align 4, !dbg !4346
  br label %ehcleanup9, !dbg !4346

lpad2:                                            ; preds = %invoke.cont
  %7 = landingpad { i8*, i32 }
          cleanup, !dbg !4346
  %8 = extractvalue { i8*, i32 } %7, 0, !dbg !4346
  store i8* %8, i8** %exn.slot, align 8, !dbg !4346
  %9 = extractvalue { i8*, i32 } %7, 1, !dbg !4346
  store i32 %9, i32* %ehselector.slot, align 4, !dbg !4346
  br label %ehcleanup8, !dbg !4346

lpad4:                                            ; preds = %invoke.cont3
  %10 = landingpad { i8*, i32 }
          cleanup, !dbg !4346
  %11 = extractvalue { i8*, i32 } %10, 0, !dbg !4346
  store i8* %11, i8** %exn.slot, align 8, !dbg !4346
  %12 = extractvalue { i8*, i32 } %10, 1, !dbg !4346
  store i32 %12, i32* %ehselector.slot, align 4, !dbg !4346
  br label %ehcleanup, !dbg !4346

lpad6:                                            ; preds = %invoke.cont5
  %13 = landingpad { i8*, i32 }
          cleanup, !dbg !4347
  %14 = extractvalue { i8*, i32 } %13, 0, !dbg !4347
  store i8* %14, i8** %exn.slot, align 8, !dbg !4347
  %15 = extractvalue { i8*, i32 } %13, 1, !dbg !4347
  store i32 %15, i32* %ehselector.slot, align 4, !dbg !4347
  call void @_ZNSt6vectorIS_IjSaIjEESaIS1_EED2Ev(%"class.std::vector.3"* %block_column_indices) #3, !dbg !4347
  call void @_ZNSt6vectorIjSaIjEED2Ev(%"class.std::vector"* %counter_within_block) #3, !dbg !4347
  call void @_ZN6dealii12BlockIndicesD2Ev(%"class.dealii::BlockIndices"* %column_indices) #3, !dbg !4347
  br label %ehcleanup, !dbg !4347

ehcleanup:                                        ; preds = %lpad6, %lpad4
  call void @_ZN6dealii12BlockIndicesD2Ev(%"class.dealii::BlockIndices"* %row_indices) #3, !dbg !4347
  br label %ehcleanup8, !dbg !4347

ehcleanup8:                                       ; preds = %ehcleanup, %lpad2
  call void @_ZN6dealii5TableILi2ENS_12SmartPointerINS_15SparsityPatternEEEED2Ev(%"class.dealii::Table"* %sub_objects) #3, !dbg !4347
  br label %ehcleanup9, !dbg !4347

ehcleanup9:                                       ; preds = %ehcleanup8, %lpad
  %16 = bitcast %"class.dealii::BlockSparsityPatternBase"* %this1 to %"class.dealii::Subscriptor"*, !dbg !4347
  call void @_ZN6dealii11SubscriptorD2Ev(%"class.dealii::Subscriptor"* %16) #3, !dbg !4347
  br label %eh.resume, !dbg !4347

eh.resume:                                        ; preds = %ehcleanup9
  %exn = load i8*, i8** %exn.slot, align 8, !dbg !4347
  %sel = load i32, i32* %ehselector.slot, align 4, !dbg !4347
  %lpad.val = insertvalue { i8*, i32 } undef, i8* %exn, 0, !dbg !4347
  %lpad.val10 = insertvalue { i8*, i32 } %lpad.val, i32 %sel, 1, !dbg !4347
  resume { i8*, i32 } %lpad.val10, !dbg !4347
}

; Function Attrs: noinline uwtable
define weak_odr dso_local void @_ZN6dealii24BlockSparsityPatternBaseINS_15SparsityPatternEE6reinitEjj(%"class.dealii::BlockSparsityPatternBase"* %this, i32 %n_block_rows, i32 %n_block_columns) #0 comdat align 2 personality i8* bitcast (i32 (...)* @__gxx_personality_v0 to i8*) !dbg !4348 {
entry:
  %this.addr = alloca %"class.dealii::BlockSparsityPatternBase"*, align 8
  %n_block_rows.addr = alloca i32, align 4
  %n_block_columns.addr = alloca i32, align 4
  %i = alloca i32, align 4
  %j = alloca i32, align 4
  %sp = alloca %"class.dealii::SparsityPattern"*, align 8
  %ref.tmp = alloca %"class.dealii::internal::TableBaseAccessors::Accessor", align 8
  %ref.tmp6 = alloca %"class.dealii::internal::TableBaseAccessors::Accessor", align 8
  %i19 = alloca i32, align 4
  %j24 = alloca i32, align 4
  %p = alloca %"class.dealii::SparsityPattern"*, align 8
  %exn.slot = alloca i8*
  %ehselector.slot = alloca i32
  %ref.tmp30 = alloca %"class.dealii::internal::TableBaseAccessors::Accessor", align 8
  store %"class.dealii::BlockSparsityPatternBase"* %this, %"class.dealii::BlockSparsityPatternBase"** %this.addr, align 8
  call void @llvm.dbg.declare(metadata %"class.dealii::BlockSparsityPatternBase"** %this.addr, metadata !4349, metadata !DIExpression()), !dbg !4350
  store i32 %n_block_rows, i32* %n_block_rows.addr, align 4
  call void @llvm.dbg.declare(metadata i32* %n_block_rows.addr, metadata !4351, metadata !DIExpression()), !dbg !4352
  store i32 %n_block_columns, i32* %n_block_columns.addr, align 4
  call void @llvm.dbg.declare(metadata i32* %n_block_columns.addr, metadata !4353, metadata !DIExpression()), !dbg !4354
  %this1 = load %"class.dealii::BlockSparsityPatternBase"*, %"class.dealii::BlockSparsityPatternBase"** %this.addr, align 8
  call void @llvm.dbg.declare(metadata i32* %i, metadata !4355, metadata !DIExpression()), !dbg !4357
  store i32 0, i32* %i, align 4, !dbg !4357
  br label %for.cond, !dbg !4358

for.cond:                                         ; preds = %for.inc10, %entry
  %0 = load i32, i32* %i, align 4, !dbg !4359
  %rows = getelementptr inbounds %"class.dealii::BlockSparsityPatternBase", %"class.dealii::BlockSparsityPatternBase"* %this1, i32 0, i32 1, !dbg !4361
  %1 = load i32, i32* %rows, align 8, !dbg !4361
  %cmp = icmp ult i32 %0, %1, !dbg !4362
  br i1 %cmp, label %for.body, label %for.end12, !dbg !4363

for.body:                                         ; preds = %for.cond
  call void @llvm.dbg.declare(metadata i32* %j, metadata !4364, metadata !DIExpression()), !dbg !4366
  store i32 0, i32* %j, align 4, !dbg !4366
  br label %for.cond2, !dbg !4367

for.cond2:                                        ; preds = %for.inc, %for.body
  %2 = load i32, i32* %j, align 4, !dbg !4368
  %columns = getelementptr inbounds %"class.dealii::BlockSparsityPatternBase", %"class.dealii::BlockSparsityPatternBase"* %this1, i32 0, i32 2, !dbg !4370
  %3 = load i32, i32* %columns, align 4, !dbg !4370
  %cmp3 = icmp ult i32 %2, %3, !dbg !4371
  br i1 %cmp3, label %for.body4, label %for.end, !dbg !4372

for.body4:                                        ; preds = %for.cond2
  call void @llvm.dbg.declare(metadata %"class.dealii::SparsityPattern"** %sp, metadata !4373, metadata !DIExpression()), !dbg !4375
  %sub_objects = getelementptr inbounds %"class.dealii::BlockSparsityPatternBase", %"class.dealii::BlockSparsityPatternBase"* %this1, i32 0, i32 3, !dbg !4376
  %4 = load i32, i32* %i, align 4, !dbg !4377
  call void @_ZN6dealii5TableILi2ENS_12SmartPointerINS_15SparsityPatternEEEEixEj(%"class.dealii::internal::TableBaseAccessors::Accessor"* sret %ref.tmp, %"class.dealii::Table"* %sub_objects, i32 %4), !dbg !4376
  %5 = load i32, i32* %j, align 4, !dbg !4378
  %call = call dereferenceable(16) %"class.dealii::SmartPointer"* @_ZNK6dealii8internal18TableBaseAccessors8AccessorILi2ENS_12SmartPointerINS_15SparsityPatternEEELb0ELj1EEixEj(%"class.dealii::internal::TableBaseAccessors::Accessor"* %ref.tmp, i32 %5), !dbg !4376
  %call5 = call %"class.dealii::SparsityPattern"* @_ZNK6dealii12SmartPointerINS_15SparsityPatternEEcvPS1_Ev(%"class.dealii::SmartPointer"* %call), !dbg !4376
  store %"class.dealii::SparsityPattern"* %call5, %"class.dealii::SparsityPattern"** %sp, align 8, !dbg !4375
  %sub_objects7 = getelementptr inbounds %"class.dealii::BlockSparsityPatternBase", %"class.dealii::BlockSparsityPatternBase"* %this1, i32 0, i32 3, !dbg !4379
  %6 = load i32, i32* %i, align 4, !dbg !4380
  call void @_ZN6dealii5TableILi2ENS_12SmartPointerINS_15SparsityPatternEEEEixEj(%"class.dealii::internal::TableBaseAccessors::Accessor"* sret %ref.tmp6, %"class.dealii::Table"* %sub_objects7, i32 %6), !dbg !4379
  %7 = load i32, i32* %j, align 4, !dbg !4381
  %call8 = call dereferenceable(16) %"class.dealii::SmartPointer"* @_ZNK6dealii8internal18TableBaseAccessors8AccessorILi2ENS_12SmartPointerINS_15SparsityPatternEEELb0ELj1EEixEj(%"class.dealii::internal::TableBaseAccessors::Accessor"* %ref.tmp6, i32 %7), !dbg !4379
  %call9 = call dereferenceable(16) %"class.dealii::SmartPointer"* @_ZN6dealii12SmartPointerINS_15SparsityPatternEEaSEPS1_(%"class.dealii::SmartPointer"* %call8, %"class.dealii::SparsityPattern"* null), !dbg !4382
  %8 = load %"class.dealii::SparsityPattern"*, %"class.dealii::SparsityPattern"** %sp, align 8, !dbg !4383
  %isnull = icmp eq %"class.dealii::SparsityPattern"* %8, null, !dbg !4384
  br i1 %isnull, label %delete.end, label %delete.notnull, !dbg !4384

delete.notnull:                                   ; preds = %for.body4
  %9 = bitcast %"class.dealii::SparsityPattern"* %8 to void (%"class.dealii::SparsityPattern"*)***, !dbg !4384
  %vtable = load void (%"class.dealii::SparsityPattern"*)**, void (%"class.dealii::SparsityPattern"*)*** %9, align 8, !dbg !4384
  %vfn = getelementptr inbounds void (%"class.dealii::SparsityPattern"*)*, void (%"class.dealii::SparsityPattern"*)** %vtable, i64 1, !dbg !4384
  %10 = load void (%"class.dealii::SparsityPattern"*)*, void (%"class.dealii::SparsityPattern"*)** %vfn, align 8, !dbg !4384
  call void %10(%"class.dealii::SparsityPattern"* %8) #3, !dbg !4384
  br label %delete.end, !dbg !4384

delete.end:                                       ; preds = %delete.notnull, %for.body4
  br label %for.inc, !dbg !4385

for.inc:                                          ; preds = %delete.end
  %11 = load i32, i32* %j, align 4, !dbg !4386
  %inc = add i32 %11, 1, !dbg !4386
  store i32 %inc, i32* %j, align 4, !dbg !4386
  br label %for.cond2, !dbg !4387, !llvm.loop !4388

for.end:                                          ; preds = %for.cond2
  br label %for.inc10, !dbg !4389

for.inc10:                                        ; preds = %for.end
  %12 = load i32, i32* %i, align 4, !dbg !4390
  %inc11 = add i32 %12, 1, !dbg !4390
  store i32 %inc11, i32* %i, align 4, !dbg !4390
  br label %for.cond, !dbg !4391, !llvm.loop !4392

for.end12:                                        ; preds = %for.cond
  %sub_objects13 = getelementptr inbounds %"class.dealii::BlockSparsityPatternBase", %"class.dealii::BlockSparsityPatternBase"* %this1, i32 0, i32 3, !dbg !4394
  call void @_ZN6dealii5TableILi2ENS_12SmartPointerINS_15SparsityPatternEEEE6reinitEjj(%"class.dealii::Table"* %sub_objects13, i32 0, i32 0), !dbg !4395
  %13 = load i32, i32* %n_block_rows.addr, align 4, !dbg !4396
  %rows14 = getelementptr inbounds %"class.dealii::BlockSparsityPatternBase", %"class.dealii::BlockSparsityPatternBase"* %this1, i32 0, i32 1, !dbg !4397
  store i32 %13, i32* %rows14, align 8, !dbg !4398
  %14 = load i32, i32* %n_block_columns.addr, align 4, !dbg !4399
  %columns15 = getelementptr inbounds %"class.dealii::BlockSparsityPatternBase", %"class.dealii::BlockSparsityPatternBase"* %this1, i32 0, i32 2, !dbg !4400
  store i32 %14, i32* %columns15, align 4, !dbg !4401
  %sub_objects16 = getelementptr inbounds %"class.dealii::BlockSparsityPatternBase", %"class.dealii::BlockSparsityPatternBase"* %this1, i32 0, i32 3, !dbg !4402
  %rows17 = getelementptr inbounds %"class.dealii::BlockSparsityPatternBase", %"class.dealii::BlockSparsityPatternBase"* %this1, i32 0, i32 1, !dbg !4403
  %15 = load i32, i32* %rows17, align 8, !dbg !4403
  %columns18 = getelementptr inbounds %"class.dealii::BlockSparsityPatternBase", %"class.dealii::BlockSparsityPatternBase"* %this1, i32 0, i32 2, !dbg !4404
  %16 = load i32, i32* %columns18, align 4, !dbg !4404
  call void @_ZN6dealii5TableILi2ENS_12SmartPointerINS_15SparsityPatternEEEE6reinitEjj(%"class.dealii::Table"* %sub_objects16, i32 %15, i32 %16), !dbg !4405
  call void @llvm.dbg.declare(metadata i32* %i19, metadata !4406, metadata !DIExpression()), !dbg !4408
  store i32 0, i32* %i19, align 4, !dbg !4408
  br label %for.cond20, !dbg !4409

for.cond20:                                       ; preds = %for.inc37, %for.end12
  %17 = load i32, i32* %i19, align 4, !dbg !4410
  %rows21 = getelementptr inbounds %"class.dealii::BlockSparsityPatternBase", %"class.dealii::BlockSparsityPatternBase"* %this1, i32 0, i32 1, !dbg !4412
  %18 = load i32, i32* %rows21, align 8, !dbg !4412
  %cmp22 = icmp ult i32 %17, %18, !dbg !4413
  br i1 %cmp22, label %for.body23, label %for.end39, !dbg !4414

for.body23:                                       ; preds = %for.cond20
  call void @llvm.dbg.declare(metadata i32* %j24, metadata !4415, metadata !DIExpression()), !dbg !4417
  store i32 0, i32* %j24, align 4, !dbg !4417
  br label %for.cond25, !dbg !4418

for.cond25:                                       ; preds = %for.inc34, %for.body23
  %19 = load i32, i32* %j24, align 4, !dbg !4419
  %columns26 = getelementptr inbounds %"class.dealii::BlockSparsityPatternBase", %"class.dealii::BlockSparsityPatternBase"* %this1, i32 0, i32 2, !dbg !4421
  %20 = load i32, i32* %columns26, align 4, !dbg !4421
  %cmp27 = icmp ult i32 %19, %20, !dbg !4422
  br i1 %cmp27, label %for.body28, label %for.end36, !dbg !4423

for.body28:                                       ; preds = %for.cond25
  call void @llvm.dbg.declare(metadata %"class.dealii::SparsityPattern"** %p, metadata !4424, metadata !DIExpression()), !dbg !4426
  %call29 = call i8* @_Znwm(i64 128) #13, !dbg !4427
  %21 = bitcast i8* %call29 to %"class.dealii::SparsityPattern"*, !dbg !4427
  invoke void @_ZN6dealii15SparsityPatternC1Ev(%"class.dealii::SparsityPattern"* %21)
          to label %invoke.cont unwind label %lpad, !dbg !4428

invoke.cont:                                      ; preds = %for.body28
  store %"class.dealii::SparsityPattern"* %21, %"class.dealii::SparsityPattern"** %p, align 8, !dbg !4426
  %22 = load %"class.dealii::SparsityPattern"*, %"class.dealii::SparsityPattern"** %p, align 8, !dbg !4429
  %sub_objects31 = getelementptr inbounds %"class.dealii::BlockSparsityPatternBase", %"class.dealii::BlockSparsityPatternBase"* %this1, i32 0, i32 3, !dbg !4430
  %23 = load i32, i32* %i19, align 4, !dbg !4431
  call void @_ZN6dealii5TableILi2ENS_12SmartPointerINS_15SparsityPatternEEEEixEj(%"class.dealii::internal::TableBaseAccessors::Accessor"* sret %ref.tmp30, %"class.dealii::Table"* %sub_objects31, i32 %23), !dbg !4430
  %24 = load i32, i32* %j24, align 4, !dbg !4432
  %call32 = call dereferenceable(16) %"class.dealii::SmartPointer"* @_ZNK6dealii8internal18TableBaseAccessors8AccessorILi2ENS_12SmartPointerINS_15SparsityPatternEEELb0ELj1EEixEj(%"class.dealii::internal::TableBaseAccessors::Accessor"* %ref.tmp30, i32 %24), !dbg !4430
  %call33 = call dereferenceable(16) %"class.dealii::SmartPointer"* @_ZN6dealii12SmartPointerINS_15SparsityPatternEEaSEPS1_(%"class.dealii::SmartPointer"* %call32, %"class.dealii::SparsityPattern"* %22), !dbg !4433
  br label %for.inc34, !dbg !4434

for.inc34:                                        ; preds = %invoke.cont
  %25 = load i32, i32* %j24, align 4, !dbg !4435
  %inc35 = add i32 %25, 1, !dbg !4435
  store i32 %inc35, i32* %j24, align 4, !dbg !4435
  br label %for.cond25, !dbg !4436, !llvm.loop !4437

lpad:                                             ; preds = %for.body28
  %26 = landingpad { i8*, i32 }
          cleanup, !dbg !4439
  %27 = extractvalue { i8*, i32 } %26, 0, !dbg !4439
  store i8* %27, i8** %exn.slot, align 8, !dbg !4439
  %28 = extractvalue { i8*, i32 } %26, 1, !dbg !4439
  store i32 %28, i32* %ehselector.slot, align 4, !dbg !4439
  call void @_ZdlPv(i8* %call29) #14, !dbg !4427
  br label %eh.resume, !dbg !4427

for.end36:                                        ; preds = %for.cond25
  br label %for.inc37, !dbg !4438

for.inc37:                                        ; preds = %for.end36
  %29 = load i32, i32* %i19, align 4, !dbg !4440
  %inc38 = add i32 %29, 1, !dbg !4440
  store i32 %inc38, i32* %i19, align 4, !dbg !4440
  br label %for.cond20, !dbg !4441, !llvm.loop !4442

for.end39:                                        ; preds = %for.cond20
  ret void, !dbg !4444

eh.resume:                                        ; preds = %lpad
  %exn = load i8*, i8** %exn.slot, align 8, !dbg !4427
  %sel = load i32, i32* %ehselector.slot, align 4, !dbg !4427
  %lpad.val = insertvalue { i8*, i32 } undef, i8* %exn, 0, !dbg !4427
  %lpad.val40 = insertvalue { i8*, i32 } %lpad.val, i32 %sel, 1, !dbg !4427
  resume { i8*, i32 } %lpad.val40, !dbg !4427
}

; Function Attrs: noinline nounwind uwtable
define linkonce_odr dso_local void @_ZNSt6vectorIS_IjSaIjEESaIS1_EED2Ev(%"class.std::vector.3"* %this) unnamed_addr #5 comdat align 2 personality i8* bitcast (i32 (...)* @__gxx_personality_v0 to i8*) !dbg !4445 {
entry:
  %this.addr = alloca %"class.std::vector.3"*, align 8
  %exn.slot = alloca i8*
  %ehselector.slot = alloca i32
  store %"class.std::vector.3"* %this, %"class.std::vector.3"** %this.addr, align 8
  call void @llvm.dbg.declare(metadata %"class.std::vector.3"** %this.addr, metadata !4446, metadata !DIExpression()), !dbg !4447
  %this1 = load %"class.std::vector.3"*, %"class.std::vector.3"** %this.addr, align 8
  %0 = bitcast %"class.std::vector.3"* %this1 to %"struct.std::_Vector_base.4"*, !dbg !4448
  %_M_impl = getelementptr inbounds %"struct.std::_Vector_base.4", %"struct.std::_Vector_base.4"* %0, i32 0, i32 0, !dbg !4448
  %1 = bitcast %"struct.std::_Vector_base<std::vector<unsigned int, std::allocator<unsigned int> >, std::allocator<std::vector<unsigned int, std::allocator<unsigned int> > > >::_Vector_impl"* %_M_impl to %"struct.std::_Vector_base<std::vector<unsigned int, std::allocator<unsigned int> >, std::allocator<std::vector<unsigned int, std::allocator<unsigned int> > > >::_Vector_impl_data"*, !dbg !4450
  %_M_start = getelementptr inbounds %"struct.std::_Vector_base<std::vector<unsigned int, std::allocator<unsigned int> >, std::allocator<std::vector<unsigned int, std::allocator<unsigned int> > > >::_Vector_impl_data", %"struct.std::_Vector_base<std::vector<unsigned int, std::allocator<unsigned int> >, std::allocator<std::vector<unsigned int, std::allocator<unsigned int> > > >::_Vector_impl_data"* %1, i32 0, i32 0, !dbg !4451
  %2 = load %"class.std::vector"*, %"class.std::vector"** %_M_start, align 8, !dbg !4451
  %3 = bitcast %"class.std::vector.3"* %this1 to %"struct.std::_Vector_base.4"*, !dbg !4452
  %_M_impl2 = getelementptr inbounds %"struct.std::_Vector_base.4", %"struct.std::_Vector_base.4"* %3, i32 0, i32 0, !dbg !4452
  %4 = bitcast %"struct.std::_Vector_base<std::vector<unsigned int, std::allocator<unsigned int> >, std::allocator<std::vector<unsigned int, std::allocator<unsigned int> > > >::_Vector_impl"* %_M_impl2 to %"struct.std::_Vector_base<std::vector<unsigned int, std::allocator<unsigned int> >, std::allocator<std::vector<unsigned int, std::allocator<unsigned int> > > >::_Vector_impl_data"*, !dbg !4453
  %_M_finish = getelementptr inbounds %"struct.std::_Vector_base<std::vector<unsigned int, std::allocator<unsigned int> >, std::allocator<std::vector<unsigned int, std::allocator<unsigned int> > > >::_Vector_impl_data", %"struct.std::_Vector_base<std::vector<unsigned int, std::allocator<unsigned int> >, std::allocator<std::vector<unsigned int, std::allocator<unsigned int> > > >::_Vector_impl_data"* %4, i32 0, i32 1, !dbg !4454
  %5 = load %"class.std::vector"*, %"class.std::vector"** %_M_finish, align 8, !dbg !4454
  %6 = bitcast %"class.std::vector.3"* %this1 to %"struct.std::_Vector_base.4"*, !dbg !4455
  %call = call dereferenceable(1) %"class.std::allocator.5"* @_ZNSt12_Vector_baseISt6vectorIjSaIjEESaIS2_EE19_M_get_Tp_allocatorEv(%"struct.std::_Vector_base.4"* %6) #3, !dbg !4455
  invoke void @_ZSt8_DestroyIPSt6vectorIjSaIjEES2_EvT_S4_RSaIT0_E(%"class.std::vector"* %2, %"class.std::vector"* %5, %"class.std::allocator.5"* dereferenceable(1) %call)
          to label %invoke.cont unwind label %lpad, !dbg !4456

invoke.cont:                                      ; preds = %entry
  %7 = bitcast %"class.std::vector.3"* %this1 to %"struct.std::_Vector_base.4"*, !dbg !4457
  call void @_ZNSt12_Vector_baseISt6vectorIjSaIjEESaIS2_EED2Ev(%"struct.std::_Vector_base.4"* %7) #3, !dbg !4457
  ret void, !dbg !4458

lpad:                                             ; preds = %entry
  %8 = landingpad { i8*, i32 }
          catch i8* null, !dbg !4457
  %9 = extractvalue { i8*, i32 } %8, 0, !dbg !4457
  store i8* %9, i8** %exn.slot, align 8, !dbg !4457
  %10 = extractvalue { i8*, i32 } %8, 1, !dbg !4457
  store i32 %10, i32* %ehselector.slot, align 4, !dbg !4457
  %11 = bitcast %"class.std::vector.3"* %this1 to %"struct.std::_Vector_base.4"*, !dbg !4457
  call void @_ZNSt12_Vector_baseISt6vectorIjSaIjEESaIS2_EED2Ev(%"struct.std::_Vector_base.4"* %11) #3, !dbg !4457
  br label %terminate.handler, !dbg !4457

terminate.handler:                                ; preds = %lpad
  %exn = load i8*, i8** %exn.slot, align 8, !dbg !4457
  call void @__clang_call_terminate(i8* %exn) #15, !dbg !4457
  unreachable, !dbg !4457
}

; Function Attrs: noinline nounwind uwtable
define linkonce_odr dso_local void @_ZNSt6vectorIjSaIjEED2Ev(%"class.std::vector"* %this) unnamed_addr #5 comdat align 2 personality i8* bitcast (i32 (...)* @__gxx_personality_v0 to i8*) !dbg !4459 {
entry:
  %this.addr = alloca %"class.std::vector"*, align 8
  %exn.slot = alloca i8*
  %ehselector.slot = alloca i32
  store %"class.std::vector"* %this, %"class.std::vector"** %this.addr, align 8
  call void @llvm.dbg.declare(metadata %"class.std::vector"** %this.addr, metadata !4460, metadata !DIExpression()), !dbg !4461
  %this1 = load %"class.std::vector"*, %"class.std::vector"** %this.addr, align 8
  %0 = bitcast %"class.std::vector"* %this1 to %"struct.std::_Vector_base"*, !dbg !4462
  %_M_impl = getelementptr inbounds %"struct.std::_Vector_base", %"struct.std::_Vector_base"* %0, i32 0, i32 0, !dbg !4462
  %1 = bitcast %"struct.std::_Vector_base<unsigned int, std::allocator<unsigned int> >::_Vector_impl"* %_M_impl to %"struct.std::_Vector_base<unsigned int, std::allocator<unsigned int> >::_Vector_impl_data"*, !dbg !4464
  %_M_start = getelementptr inbounds %"struct.std::_Vector_base<unsigned int, std::allocator<unsigned int> >::_Vector_impl_data", %"struct.std::_Vector_base<unsigned int, std::allocator<unsigned int> >::_Vector_impl_data"* %1, i32 0, i32 0, !dbg !4465
  %2 = load i32*, i32** %_M_start, align 8, !dbg !4465
  %3 = bitcast %"class.std::vector"* %this1 to %"struct.std::_Vector_base"*, !dbg !4466
  %_M_impl2 = getelementptr inbounds %"struct.std::_Vector_base", %"struct.std::_Vector_base"* %3, i32 0, i32 0, !dbg !4466
  %4 = bitcast %"struct.std::_Vector_base<unsigned int, std::allocator<unsigned int> >::_Vector_impl"* %_M_impl2 to %"struct.std::_Vector_base<unsigned int, std::allocator<unsigned int> >::_Vector_impl_data"*, !dbg !4467
  %_M_finish = getelementptr inbounds %"struct.std::_Vector_base<unsigned int, std::allocator<unsigned int> >::_Vector_impl_data", %"struct.std::_Vector_base<unsigned int, std::allocator<unsigned int> >::_Vector_impl_data"* %4, i32 0, i32 1, !dbg !4468
  %5 = load i32*, i32** %_M_finish, align 8, !dbg !4468
  %6 = bitcast %"class.std::vector"* %this1 to %"struct.std::_Vector_base"*, !dbg !4469
  %call = call dereferenceable(1) %"class.std::allocator.0"* @_ZNSt12_Vector_baseIjSaIjEE19_M_get_Tp_allocatorEv(%"struct.std::_Vector_base"* %6) #3, !dbg !4469
  invoke void @_ZSt8_DestroyIPjjEvT_S1_RSaIT0_E(i32* %2, i32* %5, %"class.std::allocator.0"* dereferenceable(1) %call)
          to label %invoke.cont unwind label %lpad, !dbg !4470

invoke.cont:                                      ; preds = %entry
  %7 = bitcast %"class.std::vector"* %this1 to %"struct.std::_Vector_base"*, !dbg !4471
  call void @_ZNSt12_Vector_baseIjSaIjEED2Ev(%"struct.std::_Vector_base"* %7) #3, !dbg !4471
  ret void, !dbg !4472

lpad:                                             ; preds = %entry
  %8 = landingpad { i8*, i32 }
          catch i8* null, !dbg !4471
  %9 = extractvalue { i8*, i32 } %8, 0, !dbg !4471
  store i8* %9, i8** %exn.slot, align 8, !dbg !4471
  %10 = extractvalue { i8*, i32 } %8, 1, !dbg !4471
  store i32 %10, i32* %ehselector.slot, align 4, !dbg !4471
  %11 = bitcast %"class.std::vector"* %this1 to %"struct.std::_Vector_base"*, !dbg !4471
  call void @_ZNSt12_Vector_baseIjSaIjEED2Ev(%"struct.std::_Vector_base"* %11) #3, !dbg !4471
  br label %terminate.handler, !dbg !4471

terminate.handler:                                ; preds = %lpad
  %exn = load i8*, i8** %exn.slot, align 8, !dbg !4471
  call void @__clang_call_terminate(i8* %exn) #15, !dbg !4471
  unreachable, !dbg !4471
}

; Function Attrs: noinline uwtable
define weak_odr dso_local void @_ZN6dealii24BlockSparsityPatternBaseINS_15SparsityPatternEEC2ERKS2_(%"class.dealii::BlockSparsityPatternBase"* %this, %"class.dealii::BlockSparsityPatternBase"* dereferenceable(288) %s) unnamed_addr #0 comdat($_ZN6dealii24BlockSparsityPatternBaseINS_15SparsityPatternEEC5ERKS2_) align 2 personality i8* bitcast (i32 (...)* @__gxx_personality_v0 to i8*) !dbg !4473 {
entry:
  %this.addr = alloca %"class.dealii::BlockSparsityPatternBase"*, align 8
  %s.addr = alloca %"class.dealii::BlockSparsityPatternBase"*, align 8
  %exn.slot = alloca i8*
  %ehselector.slot = alloca i32
  store %"class.dealii::BlockSparsityPatternBase"* %this, %"class.dealii::BlockSparsityPatternBase"** %this.addr, align 8
  call void @llvm.dbg.declare(metadata %"class.dealii::BlockSparsityPatternBase"** %this.addr, metadata !4474, metadata !DIExpression()), !dbg !4475
  store %"class.dealii::BlockSparsityPatternBase"* %s, %"class.dealii::BlockSparsityPatternBase"** %s.addr, align 8
  call void @llvm.dbg.declare(metadata %"class.dealii::BlockSparsityPatternBase"** %s.addr, metadata !4476, metadata !DIExpression()), !dbg !4477
  %this1 = load %"class.dealii::BlockSparsityPatternBase"*, %"class.dealii::BlockSparsityPatternBase"** %this.addr, align 8
  %0 = bitcast %"class.dealii::BlockSparsityPatternBase"* %this1 to %"class.dealii::Subscriptor"*, !dbg !4478
  call void @_ZN6dealii11SubscriptorC2Ev(%"class.dealii::Subscriptor"* %0), !dbg !4479
  %1 = bitcast %"class.dealii::BlockSparsityPatternBase"* %this1 to i32 (...)***, !dbg !4478
  store i32 (...)** bitcast (i8** getelementptr inbounds ({ [4 x i8*] }, { [4 x i8*] }* @_ZTVN6dealii24BlockSparsityPatternBaseINS_15SparsityPatternEEE, i32 0, inrange i32 0, i32 2) to i32 (...)**), i32 (...)*** %1, align 8, !dbg !4478
  %sub_objects = getelementptr inbounds %"class.dealii::BlockSparsityPatternBase", %"class.dealii::BlockSparsityPatternBase"* %this1, i32 0, i32 3, !dbg !4480
  invoke void @_ZN6dealii5TableILi2ENS_12SmartPointerINS_15SparsityPatternEEEEC2Ev(%"class.dealii::Table"* %sub_objects)
          to label %invoke.cont unwind label %lpad, !dbg !4480

invoke.cont:                                      ; preds = %entry
  %row_indices = getelementptr inbounds %"class.dealii::BlockSparsityPatternBase", %"class.dealii::BlockSparsityPatternBase"* %this1, i32 0, i32 4, !dbg !4480
  invoke void @_ZN6dealii12BlockIndicesC2Ej(%"class.dealii::BlockIndices"* %row_indices, i32 0)
          to label %invoke.cont3 unwind label %lpad2, !dbg !4480

invoke.cont3:                                     ; preds = %invoke.cont
  %column_indices = getelementptr inbounds %"class.dealii::BlockSparsityPatternBase", %"class.dealii::BlockSparsityPatternBase"* %this1, i32 0, i32 5, !dbg !4480
  invoke void @_ZN6dealii12BlockIndicesC2Ej(%"class.dealii::BlockIndices"* %column_indices, i32 0)
          to label %invoke.cont5 unwind label %lpad4, !dbg !4480

invoke.cont5:                                     ; preds = %invoke.cont3
  %counter_within_block = getelementptr inbounds %"class.dealii::BlockSparsityPatternBase", %"class.dealii::BlockSparsityPatternBase"* %this1, i32 0, i32 6, !dbg !4480
  call void @_ZNSt6vectorIjSaIjEEC2Ev(%"class.std::vector"* %counter_within_block) #3, !dbg !4480
  %block_column_indices = getelementptr inbounds %"class.dealii::BlockSparsityPatternBase", %"class.dealii::BlockSparsityPatternBase"* %this1, i32 0, i32 7, !dbg !4480
  call void @_ZNSt6vectorIS_IjSaIjEESaIS1_EEC2Ev(%"class.std::vector.3"* %block_column_indices) #3, !dbg !4480
  %rows = getelementptr inbounds %"class.dealii::BlockSparsityPatternBase", %"class.dealii::BlockSparsityPatternBase"* %this1, i32 0, i32 1, !dbg !4482
  store i32 0, i32* %rows, align 8, !dbg !4485
  %columns = getelementptr inbounds %"class.dealii::BlockSparsityPatternBase", %"class.dealii::BlockSparsityPatternBase"* %this1, i32 0, i32 2, !dbg !4486
  store i32 0, i32* %columns, align 4, !dbg !4487
  ret void, !dbg !4488

lpad:                                             ; preds = %entry
  %2 = landingpad { i8*, i32 }
          cleanup, !dbg !4488
  %3 = extractvalue { i8*, i32 } %2, 0, !dbg !4488
  store i8* %3, i8** %exn.slot, align 8, !dbg !4488
  %4 = extractvalue { i8*, i32 } %2, 1, !dbg !4488
  store i32 %4, i32* %ehselector.slot, align 4, !dbg !4488
  br label %ehcleanup6, !dbg !4488

lpad2:                                            ; preds = %invoke.cont
  %5 = landingpad { i8*, i32 }
          cleanup, !dbg !4488
  %6 = extractvalue { i8*, i32 } %5, 0, !dbg !4488
  store i8* %6, i8** %exn.slot, align 8, !dbg !4488
  %7 = extractvalue { i8*, i32 } %5, 1, !dbg !4488
  store i32 %7, i32* %ehselector.slot, align 4, !dbg !4488
  br label %ehcleanup, !dbg !4488

lpad4:                                            ; preds = %invoke.cont3
  %8 = landingpad { i8*, i32 }
          cleanup, !dbg !4488
  %9 = extractvalue { i8*, i32 } %8, 0, !dbg !4488
  store i8* %9, i8** %exn.slot, align 8, !dbg !4488
  %10 = extractvalue { i8*, i32 } %8, 1, !dbg !4488
  store i32 %10, i32* %ehselector.slot, align 4, !dbg !4488
  call void @_ZN6dealii12BlockIndicesD2Ev(%"class.dealii::BlockIndices"* %row_indices) #3, !dbg !4489
  br label %ehcleanup, !dbg !4489

ehcleanup:                                        ; preds = %lpad4, %lpad2
  call void @_ZN6dealii5TableILi2ENS_12SmartPointerINS_15SparsityPatternEEEED2Ev(%"class.dealii::Table"* %sub_objects) #3, !dbg !4489
  br label %ehcleanup6, !dbg !4489

ehcleanup6:                                       ; preds = %ehcleanup, %lpad
  %11 = bitcast %"class.dealii::BlockSparsityPatternBase"* %this1 to %"class.dealii::Subscriptor"*, !dbg !4489
  call void @_ZN6dealii11SubscriptorD2Ev(%"class.dealii::Subscriptor"* %11) #3, !dbg !4489
  br label %eh.resume, !dbg !4489

eh.resume:                                        ; preds = %ehcleanup6
  %exn = load i8*, i8** %exn.slot, align 8, !dbg !4489
  %sel = load i32, i32* %ehselector.slot, align 4, !dbg !4489
  %lpad.val = insertvalue { i8*, i32 } undef, i8* %exn, 0, !dbg !4489
  %lpad.val7 = insertvalue { i8*, i32 } %lpad.val, i32 %sel, 1, !dbg !4489
  resume { i8*, i32 } %lpad.val7, !dbg !4489
}

; Function Attrs: noinline nounwind uwtable
define weak_odr dso_local void @_ZN6dealii24BlockSparsityPatternBaseINS_15SparsityPatternEED2Ev(%"class.dealii::BlockSparsityPatternBase"* %this) unnamed_addr #5 comdat($_ZN6dealii24BlockSparsityPatternBaseINS_15SparsityPatternEED5Ev) align 2 personality i8* bitcast (i32 (...)* @__gxx_personality_v0 to i8*) !dbg !4490 {
entry:
  %this.addr = alloca %"class.dealii::BlockSparsityPatternBase"*, align 8
  %exn.slot = alloca i8*
  %ehselector.slot = alloca i32
  store %"class.dealii::BlockSparsityPatternBase"* %this, %"class.dealii::BlockSparsityPatternBase"** %this.addr, align 8
  call void @llvm.dbg.declare(metadata %"class.dealii::BlockSparsityPatternBase"** %this.addr, metadata !4491, metadata !DIExpression()), !dbg !4492
  %this1 = load %"class.dealii::BlockSparsityPatternBase"*, %"class.dealii::BlockSparsityPatternBase"** %this.addr, align 8
  %0 = bitcast %"class.dealii::BlockSparsityPatternBase"* %this1 to i32 (...)***, !dbg !4493
  store i32 (...)** bitcast (i8** getelementptr inbounds ({ [4 x i8*] }, { [4 x i8*] }* @_ZTVN6dealii24BlockSparsityPatternBaseINS_15SparsityPatternEEE, i32 0, inrange i32 0, i32 2) to i32 (...)**), i32 (...)*** %0, align 8, !dbg !4493
  invoke void @_ZN6dealii24BlockSparsityPatternBaseINS_15SparsityPatternEE6reinitEjj(%"class.dealii::BlockSparsityPatternBase"* %this1, i32 0, i32 0)
          to label %invoke.cont unwind label %lpad, !dbg !4494

invoke.cont:                                      ; preds = %entry
  %block_column_indices = getelementptr inbounds %"class.dealii::BlockSparsityPatternBase", %"class.dealii::BlockSparsityPatternBase"* %this1, i32 0, i32 7, !dbg !4496
  call void @_ZNSt6vectorIS_IjSaIjEESaIS1_EED2Ev(%"class.std::vector.3"* %block_column_indices) #3, !dbg !4496
  %counter_within_block = getelementptr inbounds %"class.dealii::BlockSparsityPatternBase", %"class.dealii::BlockSparsityPatternBase"* %this1, i32 0, i32 6, !dbg !4496
  call void @_ZNSt6vectorIjSaIjEED2Ev(%"class.std::vector"* %counter_within_block) #3, !dbg !4496
  %column_indices = getelementptr inbounds %"class.dealii::BlockSparsityPatternBase", %"class.dealii::BlockSparsityPatternBase"* %this1, i32 0, i32 5, !dbg !4496
  call void @_ZN6dealii12BlockIndicesD2Ev(%"class.dealii::BlockIndices"* %column_indices) #3, !dbg !4496
  %row_indices = getelementptr inbounds %"class.dealii::BlockSparsityPatternBase", %"class.dealii::BlockSparsityPatternBase"* %this1, i32 0, i32 4, !dbg !4496
  call void @_ZN6dealii12BlockIndicesD2Ev(%"class.dealii::BlockIndices"* %row_indices) #3, !dbg !4496
  %sub_objects = getelementptr inbounds %"class.dealii::BlockSparsityPatternBase", %"class.dealii::BlockSparsityPatternBase"* %this1, i32 0, i32 3, !dbg !4496
  call void @_ZN6dealii5TableILi2ENS_12SmartPointerINS_15SparsityPatternEEEED2Ev(%"class.dealii::Table"* %sub_objects) #3, !dbg !4496
  %1 = bitcast %"class.dealii::BlockSparsityPatternBase"* %this1 to %"class.dealii::Subscriptor"*, !dbg !4496
  call void @_ZN6dealii11SubscriptorD2Ev(%"class.dealii::Subscriptor"* %1) #3, !dbg !4496
  ret void, !dbg !4497

lpad:                                             ; preds = %entry
  %2 = landingpad { i8*, i32 }
          catch i8* null, !dbg !4496
  %3 = extractvalue { i8*, i32 } %2, 0, !dbg !4496
  store i8* %3, i8** %exn.slot, align 8, !dbg !4496
  %4 = extractvalue { i8*, i32 } %2, 1, !dbg !4496
  store i32 %4, i32* %ehselector.slot, align 4, !dbg !4496
  %block_column_indices2 = getelementptr inbounds %"class.dealii::BlockSparsityPatternBase", %"class.dealii::BlockSparsityPatternBase"* %this1, i32 0, i32 7, !dbg !4496
  call void @_ZNSt6vectorIS_IjSaIjEESaIS1_EED2Ev(%"class.std::vector.3"* %block_column_indices2) #3, !dbg !4496
  %counter_within_block3 = getelementptr inbounds %"class.dealii::BlockSparsityPatternBase", %"class.dealii::BlockSparsityPatternBase"* %this1, i32 0, i32 6, !dbg !4496
  call void @_ZNSt6vectorIjSaIjEED2Ev(%"class.std::vector"* %counter_within_block3) #3, !dbg !4496
  %column_indices4 = getelementptr inbounds %"class.dealii::BlockSparsityPatternBase", %"class.dealii::BlockSparsityPatternBase"* %this1, i32 0, i32 5, !dbg !4496
  call void @_ZN6dealii12BlockIndicesD2Ev(%"class.dealii::BlockIndices"* %column_indices4) #3, !dbg !4496
  %row_indices5 = getelementptr inbounds %"class.dealii::BlockSparsityPatternBase", %"class.dealii::BlockSparsityPatternBase"* %this1, i32 0, i32 4, !dbg !4496
  call void @_ZN6dealii12BlockIndicesD2Ev(%"class.dealii::BlockIndices"* %row_indices5) #3, !dbg !4496
  %sub_objects6 = getelementptr inbounds %"class.dealii::BlockSparsityPatternBase", %"class.dealii::BlockSparsityPatternBase"* %this1, i32 0, i32 3, !dbg !4496
  call void @_ZN6dealii5TableILi2ENS_12SmartPointerINS_15SparsityPatternEEEED2Ev(%"class.dealii::Table"* %sub_objects6) #3, !dbg !4496
  %5 = bitcast %"class.dealii::BlockSparsityPatternBase"* %this1 to %"class.dealii::Subscriptor"*, !dbg !4496
  call void @_ZN6dealii11SubscriptorD2Ev(%"class.dealii::Subscriptor"* %5) #3, !dbg !4496
  br label %terminate.handler, !dbg !4496

terminate.handler:                                ; preds = %lpad
  %exn = load i8*, i8** %exn.slot, align 8, !dbg !4496
  call void @__clang_call_terminate(i8* %exn) #15, !dbg !4496
  unreachable, !dbg !4496
}

; Function Attrs: noinline noreturn nounwind
define linkonce_odr hidden void @__clang_call_terminate(i8* %0) #6 comdat {
  %2 = call i8* @__cxa_begin_catch(i8* %0) #3
  call void @_ZSt9terminatev() #15
  unreachable
}

declare dso_local i8* @__cxa_begin_catch(i8*)

declare dso_local void @_ZSt9terminatev()

; Function Attrs: noinline nounwind uwtable
define weak_odr dso_local void @_ZN6dealii24BlockSparsityPatternBaseINS_15SparsityPatternEED0Ev(%"class.dealii::BlockSparsityPatternBase"* %this) unnamed_addr #5 comdat($_ZN6dealii24BlockSparsityPatternBaseINS_15SparsityPatternEED5Ev) align 2 !dbg !4498 {
entry:
  %this.addr = alloca %"class.dealii::BlockSparsityPatternBase"*, align 8
  store %"class.dealii::BlockSparsityPatternBase"* %this, %"class.dealii::BlockSparsityPatternBase"** %this.addr, align 8
  call void @llvm.dbg.declare(metadata %"class.dealii::BlockSparsityPatternBase"** %this.addr, metadata !4499, metadata !DIExpression()), !dbg !4500
  %this1 = load %"class.dealii::BlockSparsityPatternBase"*, %"class.dealii::BlockSparsityPatternBase"** %this.addr, align 8
  call void @_ZN6dealii24BlockSparsityPatternBaseINS_15SparsityPatternEED1Ev(%"class.dealii::BlockSparsityPatternBase"* %this1) #3, !dbg !4501
  %0 = bitcast %"class.dealii::BlockSparsityPatternBase"* %this1 to i8*, !dbg !4501
  call void @_ZdlPv(i8* %0) #14, !dbg !4501
  ret void, !dbg !4502
}

; Function Attrs: nobuiltin nounwind
declare dso_local void @_ZdlPv(i8*) #7

; Function Attrs: noinline uwtable
define linkonce_odr dso_local void @_ZN6dealii5TableILi2ENS_12SmartPointerINS_15SparsityPatternEEEEixEj(%"class.dealii::internal::TableBaseAccessors::Accessor"* noalias sret %agg.result, %"class.dealii::Table"* %this, i32 %i) #0 comdat align 2 !dbg !4503 {
entry:
  %result.ptr = alloca i8*, align 8
  %this.addr = alloca %"class.dealii::Table"*, align 8
  %i.addr = alloca i32, align 4
  %0 = bitcast %"class.dealii::internal::TableBaseAccessors::Accessor"* %agg.result to i8*
  store i8* %0, i8** %result.ptr, align 8
  store %"class.dealii::Table"* %this, %"class.dealii::Table"** %this.addr, align 8
  call void @llvm.dbg.declare(metadata %"class.dealii::Table"** %this.addr, metadata !4504, metadata !DIExpression()), !dbg !4505
  store i32 %i, i32* %i.addr, align 4
  call void @llvm.dbg.declare(metadata i32* %i.addr, metadata !4506, metadata !DIExpression()), !dbg !4507
  %this1 = load %"class.dealii::Table"*, %"class.dealii::Table"** %this.addr, align 8
  %1 = bitcast %"class.dealii::Table"* %this1 to %"class.dealii::TableBase"*, !dbg !4508
  %2 = bitcast %"class.dealii::Table"* %this1 to %"class.dealii::TableBase"*, !dbg !4509
  %val = getelementptr inbounds %"class.dealii::TableBase", %"class.dealii::TableBase"* %2, i32 0, i32 1, !dbg !4509
  %3 = load %"class.dealii::SmartPointer"*, %"class.dealii::SmartPointer"** %val, align 8, !dbg !4509
  %4 = load i32, i32* %i.addr, align 4, !dbg !4510
  %call = call i32 @_ZNK6dealii5TableILi2ENS_12SmartPointerINS_15SparsityPatternEEEE6n_colsEv(%"class.dealii::Table"* %this1), !dbg !4511
  %mul = mul i32 %4, %call, !dbg !4512
  %idx.ext = zext i32 %mul to i64, !dbg !4513
  %add.ptr = getelementptr inbounds %"class.dealii::SmartPointer", %"class.dealii::SmartPointer"* %3, i64 %idx.ext, !dbg !4513
  call void @_ZN6dealii8internal18TableBaseAccessors8AccessorILi2ENS_12SmartPointerINS_15SparsityPatternEEELb0ELj1EEC2ERKNS_9TableBaseILi2ES5_EEPS5_(%"class.dealii::internal::TableBaseAccessors::Accessor"* %agg.result, %"class.dealii::TableBase"* dereferenceable(96) %1, %"class.dealii::SmartPointer"* %add.ptr), !dbg !4514
  ret void, !dbg !4515
}

; Function Attrs: noinline nounwind uwtable
define linkonce_odr dso_local dereferenceable(16) %"class.dealii::SmartPointer"* @_ZNK6dealii8internal18TableBaseAccessors8AccessorILi2ENS_12SmartPointerINS_15SparsityPatternEEELb0ELj1EEixEj(%"class.dealii::internal::TableBaseAccessors::Accessor"* %this, i32 %i) #5 comdat align 2 !dbg !4516 {
entry:
  %this.addr = alloca %"class.dealii::internal::TableBaseAccessors::Accessor"*, align 8
  %i.addr = alloca i32, align 4
  store %"class.dealii::internal::TableBaseAccessors::Accessor"* %this, %"class.dealii::internal::TableBaseAccessors::Accessor"** %this.addr, align 8
  call void @llvm.dbg.declare(metadata %"class.dealii::internal::TableBaseAccessors::Accessor"** %this.addr, metadata !4517, metadata !DIExpression()), !dbg !4519
  store i32 %i, i32* %i.addr, align 4
  call void @llvm.dbg.declare(metadata i32* %i.addr, metadata !4520, metadata !DIExpression()), !dbg !4521
  %this1 = load %"class.dealii::internal::TableBaseAccessors::Accessor"*, %"class.dealii::internal::TableBaseAccessors::Accessor"** %this.addr, align 8
  %data = getelementptr inbounds %"class.dealii::internal::TableBaseAccessors::Accessor", %"class.dealii::internal::TableBaseAccessors::Accessor"* %this1, i32 0, i32 1, !dbg !4522
  %0 = load %"class.dealii::SmartPointer"*, %"class.dealii::SmartPointer"** %data, align 8, !dbg !4522
  %1 = load i32, i32* %i.addr, align 4, !dbg !4523
  %idxprom = zext i32 %1 to i64, !dbg !4522
  %arrayidx = getelementptr inbounds %"class.dealii::SmartPointer", %"class.dealii::SmartPointer"* %0, i64 %idxprom, !dbg !4522
  ret %"class.dealii::SmartPointer"* %arrayidx, !dbg !4524
}

; Function Attrs: noinline nounwind uwtable
define linkonce_odr dso_local %"class.dealii::SparsityPattern"* @_ZNK6dealii12SmartPointerINS_15SparsityPatternEEcvPS1_Ev(%"class.dealii::SmartPointer"* %this) #5 comdat align 2 !dbg !4525 {
entry:
  %this.addr = alloca %"class.dealii::SmartPointer"*, align 8
  store %"class.dealii::SmartPointer"* %this, %"class.dealii::SmartPointer"** %this.addr, align 8
  call void @llvm.dbg.declare(metadata %"class.dealii::SmartPointer"** %this.addr, metadata !4526, metadata !DIExpression()), !dbg !4527
  %this1 = load %"class.dealii::SmartPointer"*, %"class.dealii::SmartPointer"** %this.addr, align 8
  %t = getelementptr inbounds %"class.dealii::SmartPointer", %"class.dealii::SmartPointer"* %this1, i32 0, i32 0, !dbg !4528
  %0 = load %"class.dealii::SparsityPattern"*, %"class.dealii::SparsityPattern"** %t, align 8, !dbg !4528
  ret %"class.dealii::SparsityPattern"* %0, !dbg !4529
}

; Function Attrs: noinline uwtable
define linkonce_odr dso_local dereferenceable(16) %"class.dealii::SmartPointer"* @_ZN6dealii12SmartPointerINS_15SparsityPatternEEaSEPS1_(%"class.dealii::SmartPointer"* %this, %"class.dealii::SparsityPattern"* %tt) #0 comdat align 2 !dbg !4530 {
entry:
  %retval = alloca %"class.dealii::SmartPointer"*, align 8
  %this.addr = alloca %"class.dealii::SmartPointer"*, align 8
  %tt.addr = alloca %"class.dealii::SparsityPattern"*, align 8
  store %"class.dealii::SmartPointer"* %this, %"class.dealii::SmartPointer"** %this.addr, align 8
  call void @llvm.dbg.declare(metadata %"class.dealii::SmartPointer"** %this.addr, metadata !4531, metadata !DIExpression()), !dbg !4532
  store %"class.dealii::SparsityPattern"* %tt, %"class.dealii::SparsityPattern"** %tt.addr, align 8
  call void @llvm.dbg.declare(metadata %"class.dealii::SparsityPattern"** %tt.addr, metadata !4533, metadata !DIExpression()), !dbg !4534
  %this1 = load %"class.dealii::SmartPointer"*, %"class.dealii::SmartPointer"** %this.addr, align 8
  %t = getelementptr inbounds %"class.dealii::SmartPointer", %"class.dealii::SmartPointer"* %this1, i32 0, i32 0, !dbg !4535
  %0 = load %"class.dealii::SparsityPattern"*, %"class.dealii::SparsityPattern"** %t, align 8, !dbg !4535
  %1 = load %"class.dealii::SparsityPattern"*, %"class.dealii::SparsityPattern"** %tt.addr, align 8, !dbg !4537
  %cmp = icmp eq %"class.dealii::SparsityPattern"* %0, %1, !dbg !4538
  br i1 %cmp, label %if.then, label %if.end, !dbg !4539

if.then:                                          ; preds = %entry
  store %"class.dealii::SmartPointer"* %this1, %"class.dealii::SmartPointer"** %retval, align 8, !dbg !4540
  br label %return, !dbg !4540

if.end:                                           ; preds = %entry
  %t2 = getelementptr inbounds %"class.dealii::SmartPointer", %"class.dealii::SmartPointer"* %this1, i32 0, i32 0, !dbg !4541
  %2 = load %"class.dealii::SparsityPattern"*, %"class.dealii::SparsityPattern"** %t2, align 8, !dbg !4541
  %cmp3 = icmp ne %"class.dealii::SparsityPattern"* %2, null, !dbg !4543
  br i1 %cmp3, label %if.then4, label %if.end6, !dbg !4544

if.then4:                                         ; preds = %if.end
  %t5 = getelementptr inbounds %"class.dealii::SmartPointer", %"class.dealii::SmartPointer"* %this1, i32 0, i32 0, !dbg !4545
  %3 = load %"class.dealii::SparsityPattern"*, %"class.dealii::SparsityPattern"** %t5, align 8, !dbg !4545
  %4 = bitcast %"class.dealii::SparsityPattern"* %3 to %"class.dealii::Subscriptor"*, !dbg !4546
  %id = getelementptr inbounds %"class.dealii::SmartPointer", %"class.dealii::SmartPointer"* %this1, i32 0, i32 1, !dbg !4547
  %5 = load i8*, i8** %id, align 8, !dbg !4547
  call void @_ZNK6dealii11Subscriptor11unsubscribeEPKc(%"class.dealii::Subscriptor"* %4, i8* %5), !dbg !4546
  br label %if.end6, !dbg !4545

if.end6:                                          ; preds = %if.then4, %if.end
  %6 = load %"class.dealii::SparsityPattern"*, %"class.dealii::SparsityPattern"** %tt.addr, align 8, !dbg !4548
  %t7 = getelementptr inbounds %"class.dealii::SmartPointer", %"class.dealii::SmartPointer"* %this1, i32 0, i32 0, !dbg !4549
  store %"class.dealii::SparsityPattern"* %6, %"class.dealii::SparsityPattern"** %t7, align 8, !dbg !4550
  %7 = load %"class.dealii::SparsityPattern"*, %"class.dealii::SparsityPattern"** %tt.addr, align 8, !dbg !4551
  %cmp8 = icmp ne %"class.dealii::SparsityPattern"* %7, null, !dbg !4553
  br i1 %cmp8, label %if.then9, label %if.end11, !dbg !4554

if.then9:                                         ; preds = %if.end6
  %8 = load %"class.dealii::SparsityPattern"*, %"class.dealii::SparsityPattern"** %tt.addr, align 8, !dbg !4555
  %9 = bitcast %"class.dealii::SparsityPattern"* %8 to %"class.dealii::Subscriptor"*, !dbg !4556
  %id10 = getelementptr inbounds %"class.dealii::SmartPointer", %"class.dealii::SmartPointer"* %this1, i32 0, i32 1, !dbg !4557
  %10 = load i8*, i8** %id10, align 8, !dbg !4557
  call void @_ZNK6dealii11Subscriptor9subscribeEPKc(%"class.dealii::Subscriptor"* %9, i8* %10), !dbg !4556
  br label %if.end11, !dbg !4555

if.end11:                                         ; preds = %if.then9, %if.end6
  store %"class.dealii::SmartPointer"* %this1, %"class.dealii::SmartPointer"** %retval, align 8, !dbg !4558
  br label %return, !dbg !4558

return:                                           ; preds = %if.end11, %if.then
  %11 = load %"class.dealii::SmartPointer"*, %"class.dealii::SmartPointer"** %retval, align 8, !dbg !4559
  ret %"class.dealii::SmartPointer"* %11, !dbg !4559
}

; Function Attrs: noinline uwtable
define linkonce_odr dso_local void @_ZN6dealii5TableILi2ENS_12SmartPointerINS_15SparsityPatternEEEE6reinitEjj(%"class.dealii::Table"* %this, i32 %size1, i32 %size2) #0 comdat align 2 !dbg !4560 {
entry:
  %this.addr = alloca %"class.dealii::Table"*, align 8
  %size1.addr = alloca i32, align 4
  %size2.addr = alloca i32, align 4
  %ref.tmp = alloca %"class.dealii::TableIndices", align 4
  store %"class.dealii::Table"* %this, %"class.dealii::Table"** %this.addr, align 8
  call void @llvm.dbg.declare(metadata %"class.dealii::Table"** %this.addr, metadata !4561, metadata !DIExpression()), !dbg !4562
  store i32 %size1, i32* %size1.addr, align 4
  call void @llvm.dbg.declare(metadata i32* %size1.addr, metadata !4563, metadata !DIExpression()), !dbg !4564
  store i32 %size2, i32* %size2.addr, align 4
  call void @llvm.dbg.declare(metadata i32* %size2.addr, metadata !4565, metadata !DIExpression()), !dbg !4566
  %this1 = load %"class.dealii::Table"*, %"class.dealii::Table"** %this.addr, align 8
  %0 = bitcast %"class.dealii::Table"* %this1 to %"class.dealii::TableBase"*, !dbg !4567
  %1 = load i32, i32* %size1.addr, align 4, !dbg !4568
  %2 = load i32, i32* %size2.addr, align 4, !dbg !4569
  call void @_ZN6dealii12TableIndicesILi2EEC2Ejj(%"class.dealii::TableIndices"* %ref.tmp, i32 %1, i32 %2), !dbg !4570
  call void @_ZN6dealii9TableBaseILi2ENS_12SmartPointerINS_15SparsityPatternEEEE6reinitERKNS_12TableIndicesILi2EEE(%"class.dealii::TableBase"* %0, %"class.dealii::TableIndices"* dereferenceable(8) %ref.tmp), !dbg !4567
  ret void, !dbg !4571
}

; Function Attrs: nobuiltin
declare dso_local noalias i8* @_Znwm(i64) #8

declare dso_local void @_ZN6dealii15SparsityPatternC1Ev(%"class.dealii::SparsityPattern"*) unnamed_addr #1

; Function Attrs: noinline uwtable
define weak_odr dso_local dereferenceable(288) %"class.dealii::BlockSparsityPatternBase"* @_ZN6dealii24BlockSparsityPatternBaseINS_15SparsityPatternEEaSERKS2_(%"class.dealii::BlockSparsityPatternBase"* %this, %"class.dealii::BlockSparsityPatternBase"* dereferenceable(288) %bsp) #0 comdat align 2 !dbg !4572 {
entry:
  %this.addr = alloca %"class.dealii::BlockSparsityPatternBase"*, align 8
  %bsp.addr = alloca %"class.dealii::BlockSparsityPatternBase"*, align 8
  %i = alloca i32, align 4
  %j = alloca i32, align 4
  %ref.tmp = alloca %"class.dealii::internal::TableBaseAccessors::Accessor.8", align 8
  %ref.tmp6 = alloca %"class.dealii::internal::TableBaseAccessors::Accessor", align 8
  store %"class.dealii::BlockSparsityPatternBase"* %this, %"class.dealii::BlockSparsityPatternBase"** %this.addr, align 8
  call void @llvm.dbg.declare(metadata %"class.dealii::BlockSparsityPatternBase"** %this.addr, metadata !4573, metadata !DIExpression()), !dbg !4574
  store %"class.dealii::BlockSparsityPatternBase"* %bsp, %"class.dealii::BlockSparsityPatternBase"** %bsp.addr, align 8
  call void @llvm.dbg.declare(metadata %"class.dealii::BlockSparsityPatternBase"** %bsp.addr, metadata !4575, metadata !DIExpression()), !dbg !4576
  %this1 = load %"class.dealii::BlockSparsityPatternBase"*, %"class.dealii::BlockSparsityPatternBase"** %this.addr, align 8
  call void @llvm.dbg.declare(metadata i32* %i, metadata !4577, metadata !DIExpression()), !dbg !4579
  store i32 0, i32* %i, align 4, !dbg !4579
  br label %for.cond, !dbg !4580

for.cond:                                         ; preds = %for.inc11, %entry
  %0 = load i32, i32* %i, align 4, !dbg !4581
  %rows = getelementptr inbounds %"class.dealii::BlockSparsityPatternBase", %"class.dealii::BlockSparsityPatternBase"* %this1, i32 0, i32 1, !dbg !4583
  %1 = load i32, i32* %rows, align 8, !dbg !4583
  %cmp = icmp ult i32 %0, %1, !dbg !4584
  br i1 %cmp, label %for.body, label %for.end13, !dbg !4585

for.body:                                         ; preds = %for.cond
  call void @llvm.dbg.declare(metadata i32* %j, metadata !4586, metadata !DIExpression()), !dbg !4588
  store i32 0, i32* %j, align 4, !dbg !4588
  br label %for.cond2, !dbg !4589

for.cond2:                                        ; preds = %for.inc, %for.body
  %2 = load i32, i32* %j, align 4, !dbg !4590
  %columns = getelementptr inbounds %"class.dealii::BlockSparsityPatternBase", %"class.dealii::BlockSparsityPatternBase"* %this1, i32 0, i32 2, !dbg !4592
  %3 = load i32, i32* %columns, align 4, !dbg !4592
  %cmp3 = icmp ult i32 %2, %3, !dbg !4593
  br i1 %cmp3, label %for.body4, label %for.end, !dbg !4594

for.body4:                                        ; preds = %for.cond2
  %4 = load %"class.dealii::BlockSparsityPatternBase"*, %"class.dealii::BlockSparsityPatternBase"** %bsp.addr, align 8, !dbg !4595
  %sub_objects = getelementptr inbounds %"class.dealii::BlockSparsityPatternBase", %"class.dealii::BlockSparsityPatternBase"* %4, i32 0, i32 3, !dbg !4596
  %5 = load i32, i32* %i, align 4, !dbg !4597
  call void @_ZNK6dealii5TableILi2ENS_12SmartPointerINS_15SparsityPatternEEEEixEj(%"class.dealii::internal::TableBaseAccessors::Accessor.8"* sret %ref.tmp, %"class.dealii::Table"* %sub_objects, i32 %5), !dbg !4595
  %6 = load i32, i32* %j, align 4, !dbg !4598
  %call = call dereferenceable(16) %"class.dealii::SmartPointer"* @_ZNK6dealii8internal18TableBaseAccessors8AccessorILi2ENS_12SmartPointerINS_15SparsityPatternEEELb1ELj1EEixEj(%"class.dealii::internal::TableBaseAccessors::Accessor.8"* %ref.tmp, i32 %6), !dbg !4595
  %call5 = call dereferenceable(128) %"class.dealii::SparsityPattern"* @_ZNK6dealii12SmartPointerINS_15SparsityPatternEEdeEv(%"class.dealii::SmartPointer"* %call), !dbg !4599
  %sub_objects7 = getelementptr inbounds %"class.dealii::BlockSparsityPatternBase", %"class.dealii::BlockSparsityPatternBase"* %this1, i32 0, i32 3, !dbg !4600
  %7 = load i32, i32* %i, align 4, !dbg !4601
  call void @_ZN6dealii5TableILi2ENS_12SmartPointerINS_15SparsityPatternEEEEixEj(%"class.dealii::internal::TableBaseAccessors::Accessor"* sret %ref.tmp6, %"class.dealii::Table"* %sub_objects7, i32 %7), !dbg !4600
  %8 = load i32, i32* %j, align 4, !dbg !4602
  %call8 = call dereferenceable(16) %"class.dealii::SmartPointer"* @_ZNK6dealii8internal18TableBaseAccessors8AccessorILi2ENS_12SmartPointerINS_15SparsityPatternEEELb0ELj1EEixEj(%"class.dealii::internal::TableBaseAccessors::Accessor"* %ref.tmp6, i32 %8), !dbg !4600
  %call9 = call dereferenceable(128) %"class.dealii::SparsityPattern"* @_ZNK6dealii12SmartPointerINS_15SparsityPatternEEdeEv(%"class.dealii::SmartPointer"* %call8), !dbg !4603
  %call10 = call dereferenceable(128) %"class.dealii::SparsityPattern"* @_ZN6dealii15SparsityPatternaSERKS0_(%"class.dealii::SparsityPattern"* %call9, %"class.dealii::SparsityPattern"* dereferenceable(128) %call5), !dbg !4604
  br label %for.inc, !dbg !4603

for.inc:                                          ; preds = %for.body4
  %9 = load i32, i32* %j, align 4, !dbg !4605
  %inc = add i32 %9, 1, !dbg !4605
  store i32 %inc, i32* %j, align 4, !dbg !4605
  br label %for.cond2, !dbg !4606, !llvm.loop !4607

for.end:                                          ; preds = %for.cond2
  br label %for.inc11, !dbg !4608

for.inc11:                                        ; preds = %for.end
  %10 = load i32, i32* %i, align 4, !dbg !4609
  %inc12 = add i32 %10, 1, !dbg !4609
  store i32 %inc12, i32* %i, align 4, !dbg !4609
  br label %for.cond, !dbg !4610, !llvm.loop !4611

for.end13:                                        ; preds = %for.cond
  call void @_ZN6dealii24BlockSparsityPatternBaseINS_15SparsityPatternEE13collect_sizesEv(%"class.dealii::BlockSparsityPatternBase"* %this1), !dbg !4613
  ret %"class.dealii::BlockSparsityPatternBase"* %this1, !dbg !4614
}

; Function Attrs: noinline uwtable
define linkonce_odr dso_local void @_ZNK6dealii5TableILi2ENS_12SmartPointerINS_15SparsityPatternEEEEixEj(%"class.dealii::internal::TableBaseAccessors::Accessor.8"* noalias sret %agg.result, %"class.dealii::Table"* %this, i32 %i) #0 comdat align 2 !dbg !4615 {
entry:
  %result.ptr = alloca i8*, align 8
  %this.addr = alloca %"class.dealii::Table"*, align 8
  %i.addr = alloca i32, align 4
  %0 = bitcast %"class.dealii::internal::TableBaseAccessors::Accessor.8"* %agg.result to i8*
  store i8* %0, i8** %result.ptr, align 8
  store %"class.dealii::Table"* %this, %"class.dealii::Table"** %this.addr, align 8
  call void @llvm.dbg.declare(metadata %"class.dealii::Table"** %this.addr, metadata !4616, metadata !DIExpression()), !dbg !4618
  store i32 %i, i32* %i.addr, align 4
  call void @llvm.dbg.declare(metadata i32* %i.addr, metadata !4619, metadata !DIExpression()), !dbg !4620
  %this1 = load %"class.dealii::Table"*, %"class.dealii::Table"** %this.addr, align 8
  %1 = bitcast %"class.dealii::Table"* %this1 to %"class.dealii::TableBase"*, !dbg !4621
  %2 = bitcast %"class.dealii::Table"* %this1 to %"class.dealii::TableBase"*, !dbg !4622
  %val = getelementptr inbounds %"class.dealii::TableBase", %"class.dealii::TableBase"* %2, i32 0, i32 1, !dbg !4622
  %3 = load %"class.dealii::SmartPointer"*, %"class.dealii::SmartPointer"** %val, align 8, !dbg !4622
  %4 = load i32, i32* %i.addr, align 4, !dbg !4623
  %call = call i32 @_ZNK6dealii5TableILi2ENS_12SmartPointerINS_15SparsityPatternEEEE6n_colsEv(%"class.dealii::Table"* %this1), !dbg !4624
  %mul = mul i32 %4, %call, !dbg !4625
  %idx.ext = zext i32 %mul to i64, !dbg !4626
  %add.ptr = getelementptr inbounds %"class.dealii::SmartPointer", %"class.dealii::SmartPointer"* %3, i64 %idx.ext, !dbg !4626
  call void @_ZN6dealii8internal18TableBaseAccessors8AccessorILi2ENS_12SmartPointerINS_15SparsityPatternEEELb1ELj1EEC2ERKNS_9TableBaseILi2ES5_EEPKS5_(%"class.dealii::internal::TableBaseAccessors::Accessor.8"* %agg.result, %"class.dealii::TableBase"* dereferenceable(96) %1, %"class.dealii::SmartPointer"* %add.ptr), !dbg !4627
  ret void, !dbg !4628
}

; Function Attrs: noinline nounwind uwtable
define linkonce_odr dso_local dereferenceable(16) %"class.dealii::SmartPointer"* @_ZNK6dealii8internal18TableBaseAccessors8AccessorILi2ENS_12SmartPointerINS_15SparsityPatternEEELb1ELj1EEixEj(%"class.dealii::internal::TableBaseAccessors::Accessor.8"* %this, i32 %i) #5 comdat align 2 !dbg !4629 {
entry:
  %this.addr = alloca %"class.dealii::internal::TableBaseAccessors::Accessor.8"*, align 8
  %i.addr = alloca i32, align 4
  store %"class.dealii::internal::TableBaseAccessors::Accessor.8"* %this, %"class.dealii::internal::TableBaseAccessors::Accessor.8"** %this.addr, align 8
  call void @llvm.dbg.declare(metadata %"class.dealii::internal::TableBaseAccessors::Accessor.8"** %this.addr, metadata !4630, metadata !DIExpression()), !dbg !4632
  store i32 %i, i32* %i.addr, align 4
  call void @llvm.dbg.declare(metadata i32* %i.addr, metadata !4633, metadata !DIExpression()), !dbg !4634
  %this1 = load %"class.dealii::internal::TableBaseAccessors::Accessor.8"*, %"class.dealii::internal::TableBaseAccessors::Accessor.8"** %this.addr, align 8
  %data = getelementptr inbounds %"class.dealii::internal::TableBaseAccessors::Accessor.8", %"class.dealii::internal::TableBaseAccessors::Accessor.8"* %this1, i32 0, i32 1, !dbg !4635
  %0 = load %"class.dealii::SmartPointer"*, %"class.dealii::SmartPointer"** %data, align 8, !dbg !4635
  %1 = load i32, i32* %i.addr, align 4, !dbg !4636
  %idxprom = zext i32 %1 to i64, !dbg !4635
  %arrayidx = getelementptr inbounds %"class.dealii::SmartPointer", %"class.dealii::SmartPointer"* %0, i64 %idxprom, !dbg !4635
  ret %"class.dealii::SmartPointer"* %arrayidx, !dbg !4637
}

; Function Attrs: noinline nounwind uwtable
define linkonce_odr dso_local dereferenceable(128) %"class.dealii::SparsityPattern"* @_ZNK6dealii12SmartPointerINS_15SparsityPatternEEdeEv(%"class.dealii::SmartPointer"* %this) #5 comdat align 2 !dbg !4638 {
entry:
  %this.addr = alloca %"class.dealii::SmartPointer"*, align 8
  store %"class.dealii::SmartPointer"* %this, %"class.dealii::SmartPointer"** %this.addr, align 8
  call void @llvm.dbg.declare(metadata %"class.dealii::SmartPointer"** %this.addr, metadata !4639, metadata !DIExpression()), !dbg !4640
  %this1 = load %"class.dealii::SmartPointer"*, %"class.dealii::SmartPointer"** %this.addr, align 8
  %t = getelementptr inbounds %"class.dealii::SmartPointer", %"class.dealii::SmartPointer"* %this1, i32 0, i32 0, !dbg !4641
  %0 = load %"class.dealii::SparsityPattern"*, %"class.dealii::SparsityPattern"** %t, align 8, !dbg !4641
  ret %"class.dealii::SparsityPattern"* %0, !dbg !4642
}

declare dso_local dereferenceable(128) %"class.dealii::SparsityPattern"* @_ZN6dealii15SparsityPatternaSERKS0_(%"class.dealii::SparsityPattern"*, %"class.dealii::SparsityPattern"* dereferenceable(128)) #1

; Function Attrs: noinline uwtable
define weak_odr dso_local void @_ZN6dealii24BlockSparsityPatternBaseINS_15SparsityPatternEE13collect_sizesEv(%"class.dealii::BlockSparsityPatternBase"* %this) #0 comdat align 2 personality i8* bitcast (i32 (...)* @__gxx_personality_v0 to i8*) !dbg !4643 {
entry:
  %this.addr = alloca %"class.dealii::BlockSparsityPatternBase"*, align 8
  %row_sizes = alloca %"class.std::vector", align 8
  %ref.tmp = alloca %"class.std::allocator.0", align 1
  %exn.slot = alloca i8*
  %ehselector.slot = alloca i32
  %col_sizes = alloca %"class.std::vector", align 8
  %ref.tmp3 = alloca %"class.std::allocator.0", align 1
  %r = alloca i32, align 4
  %ref.tmp7 = alloca %"class.dealii::internal::TableBaseAccessors::Accessor", align 8
  %c = alloca i32, align 4
  %r21 = alloca i32, align 4
  %c33 = alloca i32, align 4
  %ref.tmp38 = alloca %"class.dealii::internal::TableBaseAccessors::Accessor", align 8
  %r52 = alloca i32, align 4
  %c57 = alloca i32, align 4
  store %"class.dealii::BlockSparsityPatternBase"* %this, %"class.dealii::BlockSparsityPatternBase"** %this.addr, align 8
  call void @llvm.dbg.declare(metadata %"class.dealii::BlockSparsityPatternBase"** %this.addr, metadata !4644, metadata !DIExpression()), !dbg !4645
  %this1 = load %"class.dealii::BlockSparsityPatternBase"*, %"class.dealii::BlockSparsityPatternBase"** %this.addr, align 8
  call void @llvm.dbg.declare(metadata %"class.std::vector"* %row_sizes, metadata !4646, metadata !DIExpression()), !dbg !4647
  %rows = getelementptr inbounds %"class.dealii::BlockSparsityPatternBase", %"class.dealii::BlockSparsityPatternBase"* %this1, i32 0, i32 1, !dbg !4648
  %0 = load i32, i32* %rows, align 8, !dbg !4648
  %conv = zext i32 %0 to i64, !dbg !4648
  call void @_ZNSaIjEC2Ev(%"class.std::allocator.0"* %ref.tmp) #3, !dbg !4647
  invoke void @_ZNSt6vectorIjSaIjEEC2EmRKS0_(%"class.std::vector"* %row_sizes, i64 %conv, %"class.std::allocator.0"* dereferenceable(1) %ref.tmp)
          to label %invoke.cont unwind label %lpad, !dbg !4647

invoke.cont:                                      ; preds = %entry
  call void @_ZNSaIjED2Ev(%"class.std::allocator.0"* %ref.tmp) #3, !dbg !4647
  call void @llvm.dbg.declare(metadata %"class.std::vector"* %col_sizes, metadata !4649, metadata !DIExpression()), !dbg !4650
  %columns = getelementptr inbounds %"class.dealii::BlockSparsityPatternBase", %"class.dealii::BlockSparsityPatternBase"* %this1, i32 0, i32 2, !dbg !4651
  %1 = load i32, i32* %columns, align 4, !dbg !4651
  %conv2 = zext i32 %1 to i64, !dbg !4651
  call void @_ZNSaIjEC2Ev(%"class.std::allocator.0"* %ref.tmp3) #3, !dbg !4650
  invoke void @_ZNSt6vectorIjSaIjEEC2EmRKS0_(%"class.std::vector"* %col_sizes, i64 %conv2, %"class.std::allocator.0"* dereferenceable(1) %ref.tmp3)
          to label %invoke.cont5 unwind label %lpad4, !dbg !4650

invoke.cont5:                                     ; preds = %invoke.cont
  call void @_ZNSaIjED2Ev(%"class.std::allocator.0"* %ref.tmp3) #3, !dbg !4650
  call void @llvm.dbg.declare(metadata i32* %r, metadata !4652, metadata !DIExpression()), !dbg !4654
  store i32 0, i32* %r, align 4, !dbg !4654
  br label %for.cond, !dbg !4655

for.cond:                                         ; preds = %for.inc, %invoke.cont5
  %2 = load i32, i32* %r, align 4, !dbg !4656
  %rows6 = getelementptr inbounds %"class.dealii::BlockSparsityPatternBase", %"class.dealii::BlockSparsityPatternBase"* %this1, i32 0, i32 1, !dbg !4658
  %3 = load i32, i32* %rows6, align 8, !dbg !4658
  %cmp = icmp ult i32 %2, %3, !dbg !4659
  br i1 %cmp, label %for.body, label %for.end, !dbg !4660

for.body:                                         ; preds = %for.cond
  %sub_objects = getelementptr inbounds %"class.dealii::BlockSparsityPatternBase", %"class.dealii::BlockSparsityPatternBase"* %this1, i32 0, i32 3, !dbg !4661
  %4 = load i32, i32* %r, align 4, !dbg !4662
  invoke void @_ZN6dealii5TableILi2ENS_12SmartPointerINS_15SparsityPatternEEEEixEj(%"class.dealii::internal::TableBaseAccessors::Accessor"* sret %ref.tmp7, %"class.dealii::Table"* %sub_objects, i32 %4)
          to label %invoke.cont9 unwind label %lpad8, !dbg !4661

invoke.cont9:                                     ; preds = %for.body
  %call = invoke dereferenceable(16) %"class.dealii::SmartPointer"* @_ZNK6dealii8internal18TableBaseAccessors8AccessorILi2ENS_12SmartPointerINS_15SparsityPatternEEELb0ELj1EEixEj(%"class.dealii::internal::TableBaseAccessors::Accessor"* %ref.tmp7, i32 0)
          to label %invoke.cont10 unwind label %lpad8, !dbg !4661

invoke.cont10:                                    ; preds = %invoke.cont9
  %call12 = invoke %"class.dealii::SparsityPattern"* @_ZNK6dealii12SmartPointerINS_15SparsityPatternEEptEv(%"class.dealii::SmartPointer"* %call)
          to label %invoke.cont11 unwind label %lpad8, !dbg !4661

invoke.cont11:                                    ; preds = %invoke.cont10
  %call14 = invoke i32 @_ZNK6dealii15SparsityPattern6n_rowsEv(%"class.dealii::SparsityPattern"* %call12)
          to label %invoke.cont13 unwind label %lpad8, !dbg !4663

invoke.cont13:                                    ; preds = %invoke.cont11
  %5 = load i32, i32* %r, align 4, !dbg !4664
  %conv15 = zext i32 %5 to i64, !dbg !4664
  %call16 = call dereferenceable(4) i32* @_ZNSt6vectorIjSaIjEEixEm(%"class.std::vector"* %row_sizes, i64 %conv15) #3, !dbg !4665
  store i32 %call14, i32* %call16, align 4, !dbg !4666
  br label %for.inc, !dbg !4665

for.inc:                                          ; preds = %invoke.cont13
  %6 = load i32, i32* %r, align 4, !dbg !4667
  %inc = add i32 %6, 1, !dbg !4667
  store i32 %inc, i32* %r, align 4, !dbg !4667
  br label %for.cond, !dbg !4668, !llvm.loop !4669

lpad:                                             ; preds = %entry
  %7 = landingpad { i8*, i32 }
          cleanup, !dbg !4671
  %8 = extractvalue { i8*, i32 } %7, 0, !dbg !4671
  store i8* %8, i8** %exn.slot, align 8, !dbg !4671
  %9 = extractvalue { i8*, i32 } %7, 1, !dbg !4671
  store i32 %9, i32* %ehselector.slot, align 4, !dbg !4671
  call void @_ZNSaIjED2Ev(%"class.std::allocator.0"* %ref.tmp) #3, !dbg !4647
  br label %eh.resume, !dbg !4647

lpad4:                                            ; preds = %invoke.cont
  %10 = landingpad { i8*, i32 }
          cleanup, !dbg !4671
  %11 = extractvalue { i8*, i32 } %10, 0, !dbg !4671
  store i8* %11, i8** %exn.slot, align 8, !dbg !4671
  %12 = extractvalue { i8*, i32 } %10, 1, !dbg !4671
  store i32 %12, i32* %ehselector.slot, align 4, !dbg !4671
  call void @_ZNSaIjED2Ev(%"class.std::allocator.0"* %ref.tmp3) #3, !dbg !4650
  br label %ehcleanup, !dbg !4650

lpad8:                                            ; preds = %for.end67, %invoke.cont43, %invoke.cont41, %invoke.cont40, %for.body37, %for.end31, %invoke.cont11, %invoke.cont10, %invoke.cont9, %for.body
  %13 = landingpad { i8*, i32 }
          cleanup, !dbg !4672
  %14 = extractvalue { i8*, i32 } %13, 0, !dbg !4672
  store i8* %14, i8** %exn.slot, align 8, !dbg !4672
  %15 = extractvalue { i8*, i32 } %13, 1, !dbg !4672
  store i32 %15, i32* %ehselector.slot, align 4, !dbg !4672
  call void @_ZNSt6vectorIjSaIjEED2Ev(%"class.std::vector"* %col_sizes) #3, !dbg !4671
  br label %ehcleanup, !dbg !4671

for.end:                                          ; preds = %for.cond
  call void @llvm.dbg.declare(metadata i32* %c, metadata !4673, metadata !DIExpression()), !dbg !4675
  store i32 1, i32* %c, align 4, !dbg !4675
  br label %for.cond17, !dbg !4676

for.cond17:                                       ; preds = %for.inc29, %for.end
  %16 = load i32, i32* %c, align 4, !dbg !4677
  %columns18 = getelementptr inbounds %"class.dealii::BlockSparsityPatternBase", %"class.dealii::BlockSparsityPatternBase"* %this1, i32 0, i32 2, !dbg !4679
  %17 = load i32, i32* %columns18, align 4, !dbg !4679
  %cmp19 = icmp ult i32 %16, %17, !dbg !4680
  br i1 %cmp19, label %for.body20, label %for.end31, !dbg !4681

for.body20:                                       ; preds = %for.cond17
  call void @llvm.dbg.declare(metadata i32* %r21, metadata !4682, metadata !DIExpression()), !dbg !4684
  store i32 0, i32* %r21, align 4, !dbg !4684
  br label %for.cond22, !dbg !4685

for.cond22:                                       ; preds = %for.inc26, %for.body20
  %18 = load i32, i32* %r21, align 4, !dbg !4686
  %rows23 = getelementptr inbounds %"class.dealii::BlockSparsityPatternBase", %"class.dealii::BlockSparsityPatternBase"* %this1, i32 0, i32 1, !dbg !4688
  %19 = load i32, i32* %rows23, align 8, !dbg !4688
  %cmp24 = icmp ult i32 %18, %19, !dbg !4689
  br i1 %cmp24, label %for.body25, label %for.end28, !dbg !4690

for.body25:                                       ; preds = %for.cond22
  br label %for.inc26, !dbg !4691

for.inc26:                                        ; preds = %for.body25
  %20 = load i32, i32* %r21, align 4, !dbg !4693
  %inc27 = add i32 %20, 1, !dbg !4693
  store i32 %inc27, i32* %r21, align 4, !dbg !4693
  br label %for.cond22, !dbg !4694, !llvm.loop !4695

for.end28:                                        ; preds = %for.cond22
  br label %for.inc29, !dbg !4696

for.inc29:                                        ; preds = %for.end28
  %21 = load i32, i32* %c, align 4, !dbg !4697
  %inc30 = add i32 %21, 1, !dbg !4697
  store i32 %inc30, i32* %c, align 4, !dbg !4697
  br label %for.cond17, !dbg !4698, !llvm.loop !4699

for.end31:                                        ; preds = %for.cond17
  %row_indices = getelementptr inbounds %"class.dealii::BlockSparsityPatternBase", %"class.dealii::BlockSparsityPatternBase"* %this1, i32 0, i32 4, !dbg !4701
  invoke void @_ZN6dealii12BlockIndices6reinitERKSt6vectorIjSaIjEE(%"class.dealii::BlockIndices"* %row_indices, %"class.std::vector"* dereferenceable(24) %row_sizes)
          to label %invoke.cont32 unwind label %lpad8, !dbg !4702

invoke.cont32:                                    ; preds = %for.end31
  call void @llvm.dbg.declare(metadata i32* %c33, metadata !4703, metadata !DIExpression()), !dbg !4705
  store i32 0, i32* %c33, align 4, !dbg !4705
  br label %for.cond34, !dbg !4706

for.cond34:                                       ; preds = %for.inc49, %invoke.cont32
  %22 = load i32, i32* %c33, align 4, !dbg !4707
  %columns35 = getelementptr inbounds %"class.dealii::BlockSparsityPatternBase", %"class.dealii::BlockSparsityPatternBase"* %this1, i32 0, i32 2, !dbg !4709
  %23 = load i32, i32* %columns35, align 4, !dbg !4709
  %cmp36 = icmp ult i32 %22, %23, !dbg !4710
  br i1 %cmp36, label %for.body37, label %for.end51, !dbg !4711

for.body37:                                       ; preds = %for.cond34
  %sub_objects39 = getelementptr inbounds %"class.dealii::BlockSparsityPatternBase", %"class.dealii::BlockSparsityPatternBase"* %this1, i32 0, i32 3, !dbg !4712
  invoke void @_ZN6dealii5TableILi2ENS_12SmartPointerINS_15SparsityPatternEEEEixEj(%"class.dealii::internal::TableBaseAccessors::Accessor"* sret %ref.tmp38, %"class.dealii::Table"* %sub_objects39, i32 0)
          to label %invoke.cont40 unwind label %lpad8, !dbg !4712

invoke.cont40:                                    ; preds = %for.body37
  %24 = load i32, i32* %c33, align 4, !dbg !4713
  %call42 = invoke dereferenceable(16) %"class.dealii::SmartPointer"* @_ZNK6dealii8internal18TableBaseAccessors8AccessorILi2ENS_12SmartPointerINS_15SparsityPatternEEELb0ELj1EEixEj(%"class.dealii::internal::TableBaseAccessors::Accessor"* %ref.tmp38, i32 %24)
          to label %invoke.cont41 unwind label %lpad8, !dbg !4712

invoke.cont41:                                    ; preds = %invoke.cont40
  %call44 = invoke %"class.dealii::SparsityPattern"* @_ZNK6dealii12SmartPointerINS_15SparsityPatternEEptEv(%"class.dealii::SmartPointer"* %call42)
          to label %invoke.cont43 unwind label %lpad8, !dbg !4712

invoke.cont43:                                    ; preds = %invoke.cont41
  %call46 = invoke i32 @_ZNK6dealii15SparsityPattern6n_colsEv(%"class.dealii::SparsityPattern"* %call44)
          to label %invoke.cont45 unwind label %lpad8, !dbg !4714

invoke.cont45:                                    ; preds = %invoke.cont43
  %25 = load i32, i32* %c33, align 4, !dbg !4715
  %conv47 = zext i32 %25 to i64, !dbg !4715
  %call48 = call dereferenceable(4) i32* @_ZNSt6vectorIjSaIjEEixEm(%"class.std::vector"* %col_sizes, i64 %conv47) #3, !dbg !4716
  store i32 %call46, i32* %call48, align 4, !dbg !4717
  br label %for.inc49, !dbg !4716

for.inc49:                                        ; preds = %invoke.cont45
  %26 = load i32, i32* %c33, align 4, !dbg !4718
  %inc50 = add i32 %26, 1, !dbg !4718
  store i32 %inc50, i32* %c33, align 4, !dbg !4718
  br label %for.cond34, !dbg !4719, !llvm.loop !4720

for.end51:                                        ; preds = %for.cond34
  call void @llvm.dbg.declare(metadata i32* %r52, metadata !4722, metadata !DIExpression()), !dbg !4724
  store i32 1, i32* %r52, align 4, !dbg !4724
  br label %for.cond53, !dbg !4725

for.cond53:                                       ; preds = %for.inc65, %for.end51
  %27 = load i32, i32* %r52, align 4, !dbg !4726
  %rows54 = getelementptr inbounds %"class.dealii::BlockSparsityPatternBase", %"class.dealii::BlockSparsityPatternBase"* %this1, i32 0, i32 1, !dbg !4728
  %28 = load i32, i32* %rows54, align 8, !dbg !4728
  %cmp55 = icmp ult i32 %27, %28, !dbg !4729
  br i1 %cmp55, label %for.body56, label %for.end67, !dbg !4730

for.body56:                                       ; preds = %for.cond53
  call void @llvm.dbg.declare(metadata i32* %c57, metadata !4731, metadata !DIExpression()), !dbg !4733
  store i32 0, i32* %c57, align 4, !dbg !4733
  br label %for.cond58, !dbg !4734

for.cond58:                                       ; preds = %for.inc62, %for.body56
  %29 = load i32, i32* %c57, align 4, !dbg !4735
  %columns59 = getelementptr inbounds %"class.dealii::BlockSparsityPatternBase", %"class.dealii::BlockSparsityPatternBase"* %this1, i32 0, i32 2, !dbg !4737
  %30 = load i32, i32* %columns59, align 4, !dbg !4737
  %cmp60 = icmp ult i32 %29, %30, !dbg !4738
  br i1 %cmp60, label %for.body61, label %for.end64, !dbg !4739

for.body61:                                       ; preds = %for.cond58
  br label %for.inc62, !dbg !4740

for.inc62:                                        ; preds = %for.body61
  %31 = load i32, i32* %c57, align 4, !dbg !4742
  %inc63 = add i32 %31, 1, !dbg !4742
  store i32 %inc63, i32* %c57, align 4, !dbg !4742
  br label %for.cond58, !dbg !4743, !llvm.loop !4744

for.end64:                                        ; preds = %for.cond58
  br label %for.inc65, !dbg !4745

for.inc65:                                        ; preds = %for.end64
  %32 = load i32, i32* %r52, align 4, !dbg !4746
  %inc66 = add i32 %32, 1, !dbg !4746
  store i32 %inc66, i32* %r52, align 4, !dbg !4746
  br label %for.cond53, !dbg !4747, !llvm.loop !4748

for.end67:                                        ; preds = %for.cond53
  %column_indices = getelementptr inbounds %"class.dealii::BlockSparsityPatternBase", %"class.dealii::BlockSparsityPatternBase"* %this1, i32 0, i32 5, !dbg !4750
  invoke void @_ZN6dealii12BlockIndices6reinitERKSt6vectorIjSaIjEE(%"class.dealii::BlockIndices"* %column_indices, %"class.std::vector"* dereferenceable(24) %col_sizes)
          to label %invoke.cont68 unwind label %lpad8, !dbg !4751

invoke.cont68:                                    ; preds = %for.end67
  call void @_ZNSt6vectorIjSaIjEED2Ev(%"class.std::vector"* %col_sizes) #3, !dbg !4671
  call void @_ZNSt6vectorIjSaIjEED2Ev(%"class.std::vector"* %row_sizes) #3, !dbg !4671
  ret void, !dbg !4671

ehcleanup:                                        ; preds = %lpad8, %lpad4
  call void @_ZNSt6vectorIjSaIjEED2Ev(%"class.std::vector"* %row_sizes) #3, !dbg !4671
  br label %eh.resume, !dbg !4671

eh.resume:                                        ; preds = %ehcleanup, %lpad
  %exn = load i8*, i8** %exn.slot, align 8, !dbg !4647
  %sel = load i32, i32* %ehselector.slot, align 4, !dbg !4647
  %lpad.val = insertvalue { i8*, i32 } undef, i8* %exn, 0, !dbg !4647
  %lpad.val69 = insertvalue { i8*, i32 } %lpad.val, i32 %sel, 1, !dbg !4647
  resume { i8*, i32 } %lpad.val69, !dbg !4647
}

; Function Attrs: noinline nounwind uwtable
define linkonce_odr dso_local void @_ZNSaIjEC2Ev(%"class.std::allocator.0"* %this) unnamed_addr #5 comdat align 2 !dbg !4752 {
entry:
  %this.addr = alloca %"class.std::allocator.0"*, align 8
  store %"class.std::allocator.0"* %this, %"class.std::allocator.0"** %this.addr, align 8
  call void @llvm.dbg.declare(metadata %"class.std::allocator.0"** %this.addr, metadata !4753, metadata !DIExpression()), !dbg !4755
  %this1 = load %"class.std::allocator.0"*, %"class.std::allocator.0"** %this.addr, align 8
  %0 = bitcast %"class.std::allocator.0"* %this1 to %"class.__gnu_cxx::new_allocator.1"*, !dbg !4756
  call void @_ZN9__gnu_cxx13new_allocatorIjEC2Ev(%"class.__gnu_cxx::new_allocator.1"* %0) #3, !dbg !4757
  ret void, !dbg !4758
}

; Function Attrs: noinline uwtable
define linkonce_odr dso_local void @_ZNSt6vectorIjSaIjEEC2EmRKS0_(%"class.std::vector"* %this, i64 %__n, %"class.std::allocator.0"* dereferenceable(1) %__a) unnamed_addr #0 comdat align 2 personality i8* bitcast (i32 (...)* @__gxx_personality_v0 to i8*) !dbg !4759 {
entry:
  %this.addr = alloca %"class.std::vector"*, align 8
  %__n.addr = alloca i64, align 8
  %__a.addr = alloca %"class.std::allocator.0"*, align 8
  %exn.slot = alloca i8*
  %ehselector.slot = alloca i32
  store %"class.std::vector"* %this, %"class.std::vector"** %this.addr, align 8
  call void @llvm.dbg.declare(metadata %"class.std::vector"** %this.addr, metadata !4760, metadata !DIExpression()), !dbg !4761
  store i64 %__n, i64* %__n.addr, align 8
  call void @llvm.dbg.declare(metadata i64* %__n.addr, metadata !4762, metadata !DIExpression()), !dbg !4763
  store %"class.std::allocator.0"* %__a, %"class.std::allocator.0"** %__a.addr, align 8
  call void @llvm.dbg.declare(metadata %"class.std::allocator.0"** %__a.addr, metadata !4764, metadata !DIExpression()), !dbg !4765
  %this1 = load %"class.std::vector"*, %"class.std::vector"** %this.addr, align 8
  %0 = bitcast %"class.std::vector"* %this1 to %"struct.std::_Vector_base"*, !dbg !4766
  %1 = load i64, i64* %__n.addr, align 8, !dbg !4767
  %2 = load %"class.std::allocator.0"*, %"class.std::allocator.0"** %__a.addr, align 8, !dbg !4768
  %call = call i64 @_ZNSt6vectorIjSaIjEE17_S_check_init_lenEmRKS0_(i64 %1, %"class.std::allocator.0"* dereferenceable(1) %2), !dbg !4769
  %3 = load %"class.std::allocator.0"*, %"class.std::allocator.0"** %__a.addr, align 8, !dbg !4770
  call void @_ZNSt12_Vector_baseIjSaIjEEC2EmRKS0_(%"struct.std::_Vector_base"* %0, i64 %call, %"class.std::allocator.0"* dereferenceable(1) %3), !dbg !4771
  %4 = load i64, i64* %__n.addr, align 8, !dbg !4772
  invoke void @_ZNSt6vectorIjSaIjEE21_M_default_initializeEm(%"class.std::vector"* %this1, i64 %4)
          to label %invoke.cont unwind label %lpad, !dbg !4774

invoke.cont:                                      ; preds = %entry
  ret void, !dbg !4775

lpad:                                             ; preds = %entry
  %5 = landingpad { i8*, i32 }
          cleanup, !dbg !4776
  %6 = extractvalue { i8*, i32 } %5, 0, !dbg !4776
  store i8* %6, i8** %exn.slot, align 8, !dbg !4776
  %7 = extractvalue { i8*, i32 } %5, 1, !dbg !4776
  store i32 %7, i32* %ehselector.slot, align 4, !dbg !4776
  %8 = bitcast %"class.std::vector"* %this1 to %"struct.std::_Vector_base"*, !dbg !4776
  call void @_ZNSt12_Vector_baseIjSaIjEED2Ev(%"struct.std::_Vector_base"* %8) #3, !dbg !4776
  br label %eh.resume, !dbg !4776

eh.resume:                                        ; preds = %lpad
  %exn = load i8*, i8** %exn.slot, align 8, !dbg !4776
  %sel = load i32, i32* %ehselector.slot, align 4, !dbg !4776
  %lpad.val = insertvalue { i8*, i32 } undef, i8* %exn, 0, !dbg !4776
  %lpad.val2 = insertvalue { i8*, i32 } %lpad.val, i32 %sel, 1, !dbg !4776
  resume { i8*, i32 } %lpad.val2, !dbg !4776
}

; Function Attrs: noinline nounwind uwtable
define linkonce_odr dso_local void @_ZNSaIjED2Ev(%"class.std::allocator.0"* %this) unnamed_addr #5 comdat align 2 !dbg !4777 {
entry:
  %this.addr = alloca %"class.std::allocator.0"*, align 8
  store %"class.std::allocator.0"* %this, %"class.std::allocator.0"** %this.addr, align 8
  call void @llvm.dbg.declare(metadata %"class.std::allocator.0"** %this.addr, metadata !4778, metadata !DIExpression()), !dbg !4779
  %this1 = load %"class.std::allocator.0"*, %"class.std::allocator.0"** %this.addr, align 8
  %0 = bitcast %"class.std::allocator.0"* %this1 to %"class.__gnu_cxx::new_allocator.1"*, !dbg !4780
  call void @_ZN9__gnu_cxx13new_allocatorIjED2Ev(%"class.__gnu_cxx::new_allocator.1"* %0) #3, !dbg !4780
  ret void, !dbg !4782
}

; Function Attrs: noinline nounwind uwtable
define linkonce_odr dso_local %"class.dealii::SparsityPattern"* @_ZNK6dealii12SmartPointerINS_15SparsityPatternEEptEv(%"class.dealii::SmartPointer"* %this) #5 comdat align 2 !dbg !4783 {
entry:
  %this.addr = alloca %"class.dealii::SmartPointer"*, align 8
  store %"class.dealii::SmartPointer"* %this, %"class.dealii::SmartPointer"** %this.addr, align 8
  call void @llvm.dbg.declare(metadata %"class.dealii::SmartPointer"** %this.addr, metadata !4784, metadata !DIExpression()), !dbg !4785
  %this1 = load %"class.dealii::SmartPointer"*, %"class.dealii::SmartPointer"** %this.addr, align 8
  %t = getelementptr inbounds %"class.dealii::SmartPointer", %"class.dealii::SmartPointer"* %this1, i32 0, i32 0, !dbg !4786
  %0 = load %"class.dealii::SparsityPattern"*, %"class.dealii::SparsityPattern"** %t, align 8, !dbg !4786
  ret %"class.dealii::SparsityPattern"* %0, !dbg !4787
}

; Function Attrs: noinline nounwind uwtable
define linkonce_odr dso_local i32 @_ZNK6dealii15SparsityPattern6n_rowsEv(%"class.dealii::SparsityPattern"* %this) #5 comdat align 2 !dbg !4788 {
entry:
  %this.addr = alloca %"class.dealii::SparsityPattern"*, align 8
  store %"class.dealii::SparsityPattern"* %this, %"class.dealii::SparsityPattern"** %this.addr, align 8
  call void @llvm.dbg.declare(metadata %"class.dealii::SparsityPattern"** %this.addr, metadata !4793, metadata !DIExpression()), !dbg !4795
  %this1 = load %"class.dealii::SparsityPattern"*, %"class.dealii::SparsityPattern"** %this.addr, align 8
  %rows = getelementptr inbounds %"class.dealii::SparsityPattern", %"class.dealii::SparsityPattern"* %this1, i32 0, i32 2, !dbg !4796
  %0 = load i32, i32* %rows, align 4, !dbg !4796
  ret i32 %0, !dbg !4797
}

; Function Attrs: noinline nounwind uwtable
define linkonce_odr dso_local dereferenceable(4) i32* @_ZNSt6vectorIjSaIjEEixEm(%"class.std::vector"* %this, i64 %__n) #5 comdat align 2 !dbg !4798 {
entry:
  %this.addr = alloca %"class.std::vector"*, align 8
  %__n.addr = alloca i64, align 8
  store %"class.std::vector"* %this, %"class.std::vector"** %this.addr, align 8
  call void @llvm.dbg.declare(metadata %"class.std::vector"** %this.addr, metadata !4799, metadata !DIExpression()), !dbg !4800
  store i64 %__n, i64* %__n.addr, align 8
  call void @llvm.dbg.declare(metadata i64* %__n.addr, metadata !4801, metadata !DIExpression()), !dbg !4802
  %this1 = load %"class.std::vector"*, %"class.std::vector"** %this.addr, align 8
  %0 = bitcast %"class.std::vector"* %this1 to %"struct.std::_Vector_base"*, !dbg !4803
  %_M_impl = getelementptr inbounds %"struct.std::_Vector_base", %"struct.std::_Vector_base"* %0, i32 0, i32 0, !dbg !4803
  %1 = bitcast %"struct.std::_Vector_base<unsigned int, std::allocator<unsigned int> >::_Vector_impl"* %_M_impl to %"struct.std::_Vector_base<unsigned int, std::allocator<unsigned int> >::_Vector_impl_data"*, !dbg !4804
  %_M_start = getelementptr inbounds %"struct.std::_Vector_base<unsigned int, std::allocator<unsigned int> >::_Vector_impl_data", %"struct.std::_Vector_base<unsigned int, std::allocator<unsigned int> >::_Vector_impl_data"* %1, i32 0, i32 0, !dbg !4805
  %2 = load i32*, i32** %_M_start, align 8, !dbg !4805
  %3 = load i64, i64* %__n.addr, align 8, !dbg !4806
  %add.ptr = getelementptr inbounds i32, i32* %2, i64 %3, !dbg !4807
  ret i32* %add.ptr, !dbg !4808
}

; Function Attrs: noinline uwtable
define linkonce_odr dso_local void @_ZN6dealii12BlockIndices6reinitERKSt6vectorIjSaIjEE(%"class.dealii::BlockIndices"* %this, %"class.std::vector"* dereferenceable(24) %n) #0 comdat align 2 !dbg !4809 {
entry:
  %this.addr = alloca %"class.dealii::BlockIndices"*, align 8
  %n.addr = alloca %"class.std::vector"*, align 8
  %i = alloca i32, align 4
  store %"class.dealii::BlockIndices"* %this, %"class.dealii::BlockIndices"** %this.addr, align 8
  call void @llvm.dbg.declare(metadata %"class.dealii::BlockIndices"** %this.addr, metadata !4810, metadata !DIExpression()), !dbg !4811
  store %"class.std::vector"* %n, %"class.std::vector"** %n.addr, align 8
  call void @llvm.dbg.declare(metadata %"class.std::vector"** %n.addr, metadata !4812, metadata !DIExpression()), !dbg !4813
  %this1 = load %"class.dealii::BlockIndices"*, %"class.dealii::BlockIndices"** %this.addr, align 8
  %start_indices = getelementptr inbounds %"class.dealii::BlockIndices", %"class.dealii::BlockIndices"* %this1, i32 0, i32 1, !dbg !4814
  %call = call i64 @_ZNKSt6vectorIjSaIjEE4sizeEv(%"class.std::vector"* %start_indices) #3, !dbg !4816
  %0 = load %"class.std::vector"*, %"class.std::vector"** %n.addr, align 8, !dbg !4817
  %call2 = call i64 @_ZNKSt6vectorIjSaIjEE4sizeEv(%"class.std::vector"* %0) #3, !dbg !4818
  %add = add i64 %call2, 1, !dbg !4819
  %cmp = icmp ne i64 %call, %add, !dbg !4820
  br i1 %cmp, label %if.then, label %if.end, !dbg !4821

if.then:                                          ; preds = %entry
  %1 = load %"class.std::vector"*, %"class.std::vector"** %n.addr, align 8, !dbg !4822
  %call3 = call i64 @_ZNKSt6vectorIjSaIjEE4sizeEv(%"class.std::vector"* %1) #3, !dbg !4824
  %conv = trunc i64 %call3 to i32, !dbg !4822
  %n_blocks = getelementptr inbounds %"class.dealii::BlockIndices", %"class.dealii::BlockIndices"* %this1, i32 0, i32 0, !dbg !4825
  store i32 %conv, i32* %n_blocks, align 8, !dbg !4826
  %start_indices4 = getelementptr inbounds %"class.dealii::BlockIndices", %"class.dealii::BlockIndices"* %this1, i32 0, i32 1, !dbg !4827
  %n_blocks5 = getelementptr inbounds %"class.dealii::BlockIndices", %"class.dealii::BlockIndices"* %this1, i32 0, i32 0, !dbg !4828
  %2 = load i32, i32* %n_blocks5, align 8, !dbg !4828
  %add6 = add i32 %2, 1, !dbg !4829
  %conv7 = zext i32 %add6 to i64, !dbg !4828
  call void @_ZNSt6vectorIjSaIjEE6resizeEm(%"class.std::vector"* %start_indices4, i64 %conv7), !dbg !4830
  br label %if.end, !dbg !4831

if.end:                                           ; preds = %if.then, %entry
  %start_indices8 = getelementptr inbounds %"class.dealii::BlockIndices", %"class.dealii::BlockIndices"* %this1, i32 0, i32 1, !dbg !4832
  %call9 = call dereferenceable(4) i32* @_ZNSt6vectorIjSaIjEEixEm(%"class.std::vector"* %start_indices8, i64 0) #3, !dbg !4832
  store i32 0, i32* %call9, align 4, !dbg !4833
  call void @llvm.dbg.declare(metadata i32* %i, metadata !4834, metadata !DIExpression()), !dbg !4836
  store i32 1, i32* %i, align 4, !dbg !4836
  br label %for.cond, !dbg !4837

for.cond:                                         ; preds = %for.inc, %if.end
  %3 = load i32, i32* %i, align 4, !dbg !4838
  %n_blocks10 = getelementptr inbounds %"class.dealii::BlockIndices", %"class.dealii::BlockIndices"* %this1, i32 0, i32 0, !dbg !4840
  %4 = load i32, i32* %n_blocks10, align 8, !dbg !4840
  %cmp11 = icmp ule i32 %3, %4, !dbg !4841
  br i1 %cmp11, label %for.body, label %for.end, !dbg !4842

for.body:                                         ; preds = %for.cond
  %start_indices12 = getelementptr inbounds %"class.dealii::BlockIndices", %"class.dealii::BlockIndices"* %this1, i32 0, i32 1, !dbg !4843
  %5 = load i32, i32* %i, align 4, !dbg !4844
  %sub = sub i32 %5, 1, !dbg !4845
  %conv13 = zext i32 %sub to i64, !dbg !4844
  %call14 = call dereferenceable(4) i32* @_ZNSt6vectorIjSaIjEEixEm(%"class.std::vector"* %start_indices12, i64 %conv13) #3, !dbg !4843
  %6 = load i32, i32* %call14, align 4, !dbg !4843
  %7 = load %"class.std::vector"*, %"class.std::vector"** %n.addr, align 8, !dbg !4846
  %8 = load i32, i32* %i, align 4, !dbg !4847
  %sub15 = sub i32 %8, 1, !dbg !4848
  %conv16 = zext i32 %sub15 to i64, !dbg !4847
  %call17 = call dereferenceable(4) i32* @_ZNKSt6vectorIjSaIjEEixEm(%"class.std::vector"* %7, i64 %conv16) #3, !dbg !4846
  %9 = load i32, i32* %call17, align 4, !dbg !4846
  %add18 = add i32 %6, %9, !dbg !4849
  %start_indices19 = getelementptr inbounds %"class.dealii::BlockIndices", %"class.dealii::BlockIndices"* %this1, i32 0, i32 1, !dbg !4850
  %10 = load i32, i32* %i, align 4, !dbg !4851
  %conv20 = zext i32 %10 to i64, !dbg !4851
  %call21 = call dereferenceable(4) i32* @_ZNSt6vectorIjSaIjEEixEm(%"class.std::vector"* %start_indices19, i64 %conv20) #3, !dbg !4850
  store i32 %add18, i32* %call21, align 4, !dbg !4852
  br label %for.inc, !dbg !4850

for.inc:                                          ; preds = %for.body
  %11 = load i32, i32* %i, align 4, !dbg !4853
  %inc = add i32 %11, 1, !dbg !4853
  store i32 %inc, i32* %i, align 4, !dbg !4853
  br label %for.cond, !dbg !4854, !llvm.loop !4855

for.end:                                          ; preds = %for.cond
  ret void, !dbg !4857
}

; Function Attrs: noinline nounwind uwtable
define linkonce_odr dso_local i32 @_ZNK6dealii15SparsityPattern6n_colsEv(%"class.dealii::SparsityPattern"* %this) #5 comdat align 2 !dbg !4858 {
entry:
  %this.addr = alloca %"class.dealii::SparsityPattern"*, align 8
  store %"class.dealii::SparsityPattern"* %this, %"class.dealii::SparsityPattern"** %this.addr, align 8
  call void @llvm.dbg.declare(metadata %"class.dealii::SparsityPattern"** %this.addr, metadata !4860, metadata !DIExpression()), !dbg !4861
  %this1 = load %"class.dealii::SparsityPattern"*, %"class.dealii::SparsityPattern"** %this.addr, align 8
  %cols = getelementptr inbounds %"class.dealii::SparsityPattern", %"class.dealii::SparsityPattern"* %this1, i32 0, i32 3, !dbg !4862
  %0 = load i32, i32* %cols, align 8, !dbg !4862
  ret i32 %0, !dbg !4863
}

; Function Attrs: noinline uwtable
define weak_odr dso_local dereferenceable(128) %"class.dealii::SparsityPattern"* @_ZN6dealii24BlockSparsityPatternBaseINS_15SparsityPatternEE5blockEjj(%"class.dealii::BlockSparsityPatternBase"* %this, i32 %row, i32 %column) #0 comdat align 2 !dbg !4864 {
entry:
  %this.addr = alloca %"class.dealii::BlockSparsityPatternBase"*, align 8
  %row.addr = alloca i32, align 4
  %column.addr = alloca i32, align 4
  %ref.tmp = alloca %"class.dealii::internal::TableBaseAccessors::Accessor", align 8
  store %"class.dealii::BlockSparsityPatternBase"* %this, %"class.dealii::BlockSparsityPatternBase"** %this.addr, align 8
  call void @llvm.dbg.declare(metadata %"class.dealii::BlockSparsityPatternBase"** %this.addr, metadata !4865, metadata !DIExpression()), !dbg !4866
  store i32 %row, i32* %row.addr, align 4
  call void @llvm.dbg.declare(metadata i32* %row.addr, metadata !4867, metadata !DIExpression()), !dbg !4868
  store i32 %column, i32* %column.addr, align 4
  call void @llvm.dbg.declare(metadata i32* %column.addr, metadata !4869, metadata !DIExpression()), !dbg !4870
  %this1 = load %"class.dealii::BlockSparsityPatternBase"*, %"class.dealii::BlockSparsityPatternBase"** %this.addr, align 8
  %sub_objects = getelementptr inbounds %"class.dealii::BlockSparsityPatternBase", %"class.dealii::BlockSparsityPatternBase"* %this1, i32 0, i32 3, !dbg !4871
  %0 = load i32, i32* %row.addr, align 4, !dbg !4872
  call void @_ZN6dealii5TableILi2ENS_12SmartPointerINS_15SparsityPatternEEEEixEj(%"class.dealii::internal::TableBaseAccessors::Accessor"* sret %ref.tmp, %"class.dealii::Table"* %sub_objects, i32 %0), !dbg !4871
  %1 = load i32, i32* %column.addr, align 4, !dbg !4873
  %call = call dereferenceable(16) %"class.dealii::SmartPointer"* @_ZNK6dealii8internal18TableBaseAccessors8AccessorILi2ENS_12SmartPointerINS_15SparsityPatternEEELb0ELj1EEixEj(%"class.dealii::internal::TableBaseAccessors::Accessor"* %ref.tmp, i32 %1), !dbg !4871
  %call2 = call dereferenceable(128) %"class.dealii::SparsityPattern"* @_ZNK6dealii12SmartPointerINS_15SparsityPatternEEdeEv(%"class.dealii::SmartPointer"* %call), !dbg !4874
  ret %"class.dealii::SparsityPattern"* %call2, !dbg !4875
}

; Function Attrs: noinline uwtable
define weak_odr dso_local dereferenceable(128) %"class.dealii::SparsityPattern"* @_ZNK6dealii24BlockSparsityPatternBaseINS_15SparsityPatternEE5blockEjj(%"class.dealii::BlockSparsityPatternBase"* %this, i32 %row, i32 %column) #0 comdat align 2 !dbg !4876 {
entry:
  %this.addr = alloca %"class.dealii::BlockSparsityPatternBase"*, align 8
  %row.addr = alloca i32, align 4
  %column.addr = alloca i32, align 4
  %ref.tmp = alloca %"class.dealii::internal::TableBaseAccessors::Accessor.8", align 8
  store %"class.dealii::BlockSparsityPatternBase"* %this, %"class.dealii::BlockSparsityPatternBase"** %this.addr, align 8
  call void @llvm.dbg.declare(metadata %"class.dealii::BlockSparsityPatternBase"** %this.addr, metadata !4877, metadata !DIExpression()), !dbg !4879
  store i32 %row, i32* %row.addr, align 4
  call void @llvm.dbg.declare(metadata i32* %row.addr, metadata !4880, metadata !DIExpression()), !dbg !4881
  store i32 %column, i32* %column.addr, align 4
  call void @llvm.dbg.declare(metadata i32* %column.addr, metadata !4882, metadata !DIExpression()), !dbg !4883
  %this1 = load %"class.dealii::BlockSparsityPatternBase"*, %"class.dealii::BlockSparsityPatternBase"** %this.addr, align 8
  %sub_objects = getelementptr inbounds %"class.dealii::BlockSparsityPatternBase", %"class.dealii::BlockSparsityPatternBase"* %this1, i32 0, i32 3, !dbg !4884
  %0 = load i32, i32* %row.addr, align 4, !dbg !4885
  call void @_ZNK6dealii5TableILi2ENS_12SmartPointerINS_15SparsityPatternEEEEixEj(%"class.dealii::internal::TableBaseAccessors::Accessor.8"* sret %ref.tmp, %"class.dealii::Table"* %sub_objects, i32 %0), !dbg !4884
  %1 = load i32, i32* %column.addr, align 4, !dbg !4886
  %call = call dereferenceable(16) %"class.dealii::SmartPointer"* @_ZNK6dealii8internal18TableBaseAccessors8AccessorILi2ENS_12SmartPointerINS_15SparsityPatternEEELb1ELj1EEixEj(%"class.dealii::internal::TableBaseAccessors::Accessor.8"* %ref.tmp, i32 %1), !dbg !4884
  %call2 = call dereferenceable(128) %"class.dealii::SparsityPattern"* @_ZNK6dealii12SmartPointerINS_15SparsityPatternEEdeEv(%"class.dealii::SmartPointer"* %call), !dbg !4887
  ret %"class.dealii::SparsityPattern"* %call2, !dbg !4888
}

; Function Attrs: noinline nounwind uwtable
define weak_odr dso_local dereferenceable(32) %"class.dealii::BlockIndices"* @_ZNK6dealii24BlockSparsityPatternBaseINS_15SparsityPatternEE15get_row_indicesEv(%"class.dealii::BlockSparsityPatternBase"* %this) #5 comdat align 2 !dbg !4889 {
entry:
  %this.addr = alloca %"class.dealii::BlockSparsityPatternBase"*, align 8
  store %"class.dealii::BlockSparsityPatternBase"* %this, %"class.dealii::BlockSparsityPatternBase"** %this.addr, align 8
  call void @llvm.dbg.declare(metadata %"class.dealii::BlockSparsityPatternBase"** %this.addr, metadata !4890, metadata !DIExpression()), !dbg !4891
  %this1 = load %"class.dealii::BlockSparsityPatternBase"*, %"class.dealii::BlockSparsityPatternBase"** %this.addr, align 8
  %row_indices = getelementptr inbounds %"class.dealii::BlockSparsityPatternBase", %"class.dealii::BlockSparsityPatternBase"* %this1, i32 0, i32 4, !dbg !4892
  ret %"class.dealii::BlockIndices"* %row_indices, !dbg !4893
}

; Function Attrs: noinline nounwind uwtable
define weak_odr dso_local dereferenceable(32) %"class.dealii::BlockIndices"* @_ZNK6dealii24BlockSparsityPatternBaseINS_15SparsityPatternEE18get_column_indicesEv(%"class.dealii::BlockSparsityPatternBase"* %this) #5 comdat align 2 !dbg !4894 {
entry:
  %this.addr = alloca %"class.dealii::BlockSparsityPatternBase"*, align 8
  store %"class.dealii::BlockSparsityPatternBase"* %this, %"class.dealii::BlockSparsityPatternBase"** %this.addr, align 8
  call void @llvm.dbg.declare(metadata %"class.dealii::BlockSparsityPatternBase"** %this.addr, metadata !4895, metadata !DIExpression()), !dbg !4896
  %this1 = load %"class.dealii::BlockSparsityPatternBase"*, %"class.dealii::BlockSparsityPatternBase"** %this.addr, align 8
  %column_indices = getelementptr inbounds %"class.dealii::BlockSparsityPatternBase", %"class.dealii::BlockSparsityPatternBase"* %this1, i32 0, i32 5, !dbg !4897
  ret %"class.dealii::BlockIndices"* %column_indices, !dbg !4898
}

; Function Attrs: noinline uwtable
define weak_odr dso_local void @_ZN6dealii24BlockSparsityPatternBaseINS_15SparsityPatternEE8compressEv(%"class.dealii::BlockSparsityPatternBase"* %this) #0 comdat align 2 !dbg !4899 {
entry:
  %this.addr = alloca %"class.dealii::BlockSparsityPatternBase"*, align 8
  %i = alloca i32, align 4
  %j = alloca i32, align 4
  %ref.tmp = alloca %"class.dealii::internal::TableBaseAccessors::Accessor", align 8
  store %"class.dealii::BlockSparsityPatternBase"* %this, %"class.dealii::BlockSparsityPatternBase"** %this.addr, align 8
  call void @llvm.dbg.declare(metadata %"class.dealii::BlockSparsityPatternBase"** %this.addr, metadata !4900, metadata !DIExpression()), !dbg !4901
  %this1 = load %"class.dealii::BlockSparsityPatternBase"*, %"class.dealii::BlockSparsityPatternBase"** %this.addr, align 8
  call void @llvm.dbg.declare(metadata i32* %i, metadata !4902, metadata !DIExpression()), !dbg !4904
  store i32 0, i32* %i, align 4, !dbg !4904
  br label %for.cond, !dbg !4905

for.cond:                                         ; preds = %for.inc6, %entry
  %0 = load i32, i32* %i, align 4, !dbg !4906
  %rows = getelementptr inbounds %"class.dealii::BlockSparsityPatternBase", %"class.dealii::BlockSparsityPatternBase"* %this1, i32 0, i32 1, !dbg !4908
  %1 = load i32, i32* %rows, align 8, !dbg !4908
  %cmp = icmp ult i32 %0, %1, !dbg !4909
  br i1 %cmp, label %for.body, label %for.end8, !dbg !4910

for.body:                                         ; preds = %for.cond
  call void @llvm.dbg.declare(metadata i32* %j, metadata !4911, metadata !DIExpression()), !dbg !4913
  store i32 0, i32* %j, align 4, !dbg !4913
  br label %for.cond2, !dbg !4914

for.cond2:                                        ; preds = %for.inc, %for.body
  %2 = load i32, i32* %j, align 4, !dbg !4915
  %columns = getelementptr inbounds %"class.dealii::BlockSparsityPatternBase", %"class.dealii::BlockSparsityPatternBase"* %this1, i32 0, i32 2, !dbg !4917
  %3 = load i32, i32* %columns, align 4, !dbg !4917
  %cmp3 = icmp ult i32 %2, %3, !dbg !4918
  br i1 %cmp3, label %for.body4, label %for.end, !dbg !4919

for.body4:                                        ; preds = %for.cond2
  %sub_objects = getelementptr inbounds %"class.dealii::BlockSparsityPatternBase", %"class.dealii::BlockSparsityPatternBase"* %this1, i32 0, i32 3, !dbg !4920
  %4 = load i32, i32* %i, align 4, !dbg !4921
  call void @_ZN6dealii5TableILi2ENS_12SmartPointerINS_15SparsityPatternEEEEixEj(%"class.dealii::internal::TableBaseAccessors::Accessor"* sret %ref.tmp, %"class.dealii::Table"* %sub_objects, i32 %4), !dbg !4920
  %5 = load i32, i32* %j, align 4, !dbg !4922
  %call = call dereferenceable(16) %"class.dealii::SmartPointer"* @_ZNK6dealii8internal18TableBaseAccessors8AccessorILi2ENS_12SmartPointerINS_15SparsityPatternEEELb0ELj1EEixEj(%"class.dealii::internal::TableBaseAccessors::Accessor"* %ref.tmp, i32 %5), !dbg !4920
  %call5 = call %"class.dealii::SparsityPattern"* @_ZNK6dealii12SmartPointerINS_15SparsityPatternEEptEv(%"class.dealii::SmartPointer"* %call), !dbg !4920
  call void @_ZN6dealii15SparsityPattern8compressEv(%"class.dealii::SparsityPattern"* %call5), !dbg !4923
  br label %for.inc, !dbg !4920

for.inc:                                          ; preds = %for.body4
  %6 = load i32, i32* %j, align 4, !dbg !4924
  %inc = add i32 %6, 1, !dbg !4924
  store i32 %inc, i32* %j, align 4, !dbg !4924
  br label %for.cond2, !dbg !4925, !llvm.loop !4926

for.end:                                          ; preds = %for.cond2
  br label %for.inc6, !dbg !4927

for.inc6:                                         ; preds = %for.end
  %7 = load i32, i32* %i, align 4, !dbg !4928
  %inc7 = add i32 %7, 1, !dbg !4928
  store i32 %inc7, i32* %i, align 4, !dbg !4928
  br label %for.cond, !dbg !4929, !llvm.loop !4930

for.end8:                                         ; preds = %for.cond
  ret void, !dbg !4932
}

declare dso_local void @_ZN6dealii15SparsityPattern8compressEv(%"class.dealii::SparsityPattern"*) #1

; Function Attrs: noinline nounwind uwtable
define weak_odr dso_local i32 @_ZNK6dealii24BlockSparsityPatternBaseINS_15SparsityPatternEE12n_block_rowsEv(%"class.dealii::BlockSparsityPatternBase"* %this) #5 comdat align 2 !dbg !4933 {
entry:
  %this.addr = alloca %"class.dealii::BlockSparsityPatternBase"*, align 8
  store %"class.dealii::BlockSparsityPatternBase"* %this, %"class.dealii::BlockSparsityPatternBase"** %this.addr, align 8
  call void @llvm.dbg.declare(metadata %"class.dealii::BlockSparsityPatternBase"** %this.addr, metadata !4934, metadata !DIExpression()), !dbg !4935
  %this1 = load %"class.dealii::BlockSparsityPatternBase"*, %"class.dealii::BlockSparsityPatternBase"** %this.addr, align 8
  %rows = getelementptr inbounds %"class.dealii::BlockSparsityPatternBase", %"class.dealii::BlockSparsityPatternBase"* %this1, i32 0, i32 1, !dbg !4936
  %0 = load i32, i32* %rows, align 8, !dbg !4936
  ret i32 %0, !dbg !4937
}

; Function Attrs: noinline nounwind uwtable
define weak_odr dso_local i32 @_ZNK6dealii24BlockSparsityPatternBaseINS_15SparsityPatternEE12n_block_colsEv(%"class.dealii::BlockSparsityPatternBase"* %this) #5 comdat align 2 !dbg !4938 {
entry:
  %this.addr = alloca %"class.dealii::BlockSparsityPatternBase"*, align 8
  store %"class.dealii::BlockSparsityPatternBase"* %this, %"class.dealii::BlockSparsityPatternBase"** %this.addr, align 8
  call void @llvm.dbg.declare(metadata %"class.dealii::BlockSparsityPatternBase"** %this.addr, metadata !4939, metadata !DIExpression()), !dbg !4940
  %this1 = load %"class.dealii::BlockSparsityPatternBase"*, %"class.dealii::BlockSparsityPatternBase"** %this.addr, align 8
  %columns = getelementptr inbounds %"class.dealii::BlockSparsityPatternBase", %"class.dealii::BlockSparsityPatternBase"* %this1, i32 0, i32 2, !dbg !4941
  %0 = load i32, i32* %columns, align 4, !dbg !4941
  ret i32 %0, !dbg !4942
}

; Function Attrs: noinline uwtable
define weak_odr dso_local zeroext i1 @_ZNK6dealii24BlockSparsityPatternBaseINS_15SparsityPatternEE5emptyEv(%"class.dealii::BlockSparsityPatternBase"* %this) #0 comdat align 2 !dbg !4943 {
entry:
  %retval = alloca i1, align 1
  %this.addr = alloca %"class.dealii::BlockSparsityPatternBase"*, align 8
  %i = alloca i32, align 4
  %j = alloca i32, align 4
  %ref.tmp = alloca %"class.dealii::internal::TableBaseAccessors::Accessor.8", align 8
  store %"class.dealii::BlockSparsityPatternBase"* %this, %"class.dealii::BlockSparsityPatternBase"** %this.addr, align 8
  call void @llvm.dbg.declare(metadata %"class.dealii::BlockSparsityPatternBase"** %this.addr, metadata !4944, metadata !DIExpression()), !dbg !4945
  %this1 = load %"class.dealii::BlockSparsityPatternBase"*, %"class.dealii::BlockSparsityPatternBase"** %this.addr, align 8
  call void @llvm.dbg.declare(metadata i32* %i, metadata !4946, metadata !DIExpression()), !dbg !4948
  store i32 0, i32* %i, align 4, !dbg !4948
  br label %for.cond, !dbg !4949

for.cond:                                         ; preds = %for.inc8, %entry
  %0 = load i32, i32* %i, align 4, !dbg !4950
  %rows = getelementptr inbounds %"class.dealii::BlockSparsityPatternBase", %"class.dealii::BlockSparsityPatternBase"* %this1, i32 0, i32 1, !dbg !4952
  %1 = load i32, i32* %rows, align 8, !dbg !4952
  %cmp = icmp ult i32 %0, %1, !dbg !4953
  br i1 %cmp, label %for.body, label %for.end10, !dbg !4954

for.body:                                         ; preds = %for.cond
  call void @llvm.dbg.declare(metadata i32* %j, metadata !4955, metadata !DIExpression()), !dbg !4957
  store i32 0, i32* %j, align 4, !dbg !4957
  br label %for.cond2, !dbg !4958

for.cond2:                                        ; preds = %for.inc, %for.body
  %2 = load i32, i32* %j, align 4, !dbg !4959
  %columns = getelementptr inbounds %"class.dealii::BlockSparsityPatternBase", %"class.dealii::BlockSparsityPatternBase"* %this1, i32 0, i32 2, !dbg !4961
  %3 = load i32, i32* %columns, align 4, !dbg !4961
  %cmp3 = icmp ult i32 %2, %3, !dbg !4962
  br i1 %cmp3, label %for.body4, label %for.end, !dbg !4963

for.body4:                                        ; preds = %for.cond2
  %sub_objects = getelementptr inbounds %"class.dealii::BlockSparsityPatternBase", %"class.dealii::BlockSparsityPatternBase"* %this1, i32 0, i32 3, !dbg !4964
  %4 = load i32, i32* %i, align 4, !dbg !4966
  call void @_ZNK6dealii5TableILi2ENS_12SmartPointerINS_15SparsityPatternEEEEixEj(%"class.dealii::internal::TableBaseAccessors::Accessor.8"* sret %ref.tmp, %"class.dealii::Table"* %sub_objects, i32 %4), !dbg !4964
  %5 = load i32, i32* %j, align 4, !dbg !4967
  %call = call dereferenceable(16) %"class.dealii::SmartPointer"* @_ZNK6dealii8internal18TableBaseAccessors8AccessorILi2ENS_12SmartPointerINS_15SparsityPatternEEELb1ELj1EEixEj(%"class.dealii::internal::TableBaseAccessors::Accessor.8"* %ref.tmp, i32 %5), !dbg !4964
  %call5 = call %"class.dealii::SparsityPattern"* @_ZNK6dealii12SmartPointerINS_15SparsityPatternEEptEv(%"class.dealii::SmartPointer"* %call), !dbg !4964
  %call6 = call zeroext i1 @_ZNK6dealii15SparsityPattern5emptyEv(%"class.dealii::SparsityPattern"* %call5), !dbg !4968
  %conv = zext i1 %call6 to i32, !dbg !4964
  %cmp7 = icmp eq i32 %conv, 0, !dbg !4969
  br i1 %cmp7, label %if.then, label %if.end, !dbg !4970

if.then:                                          ; preds = %for.body4
  store i1 false, i1* %retval, align 1, !dbg !4971
  br label %return, !dbg !4971

if.end:                                           ; preds = %for.body4
  br label %for.inc, !dbg !4972

for.inc:                                          ; preds = %if.end
  %6 = load i32, i32* %j, align 4, !dbg !4973
  %inc = add i32 %6, 1, !dbg !4973
  store i32 %inc, i32* %j, align 4, !dbg !4973
  br label %for.cond2, !dbg !4974, !llvm.loop !4975

for.end:                                          ; preds = %for.cond2
  br label %for.inc8, !dbg !4976

for.inc8:                                         ; preds = %for.end
  %7 = load i32, i32* %i, align 4, !dbg !4977
  %inc9 = add i32 %7, 1, !dbg !4977
  store i32 %inc9, i32* %i, align 4, !dbg !4977
  br label %for.cond, !dbg !4978, !llvm.loop !4979

for.end10:                                        ; preds = %for.cond
  store i1 true, i1* %retval, align 1, !dbg !4981
  br label %return, !dbg !4981

return:                                           ; preds = %for.end10, %if.then
  %8 = load i1, i1* %retval, align 1, !dbg !4982
  ret i1 %8, !dbg !4982
}

declare dso_local zeroext i1 @_ZNK6dealii15SparsityPattern5emptyEv(%"class.dealii::SparsityPattern"*) #1

; Function Attrs: noinline uwtable
define weak_odr dso_local i32 @_ZNK6dealii24BlockSparsityPatternBaseINS_15SparsityPatternEE19max_entries_per_rowEv(%"class.dealii::BlockSparsityPatternBase"* %this) #0 comdat align 2 !dbg !4983 {
entry:
  %this.addr = alloca %"class.dealii::BlockSparsityPatternBase"*, align 8
  %max_entries = alloca i32, align 4
  %block_row = alloca i32, align 4
  %this_row = alloca i32, align 4
  %c = alloca i32, align 4
  %ref.tmp = alloca %"class.dealii::internal::TableBaseAccessors::Accessor.8", align 8
  store %"class.dealii::BlockSparsityPatternBase"* %this, %"class.dealii::BlockSparsityPatternBase"** %this.addr, align 8
  call void @llvm.dbg.declare(metadata %"class.dealii::BlockSparsityPatternBase"** %this.addr, metadata !4984, metadata !DIExpression()), !dbg !4985
  %this1 = load %"class.dealii::BlockSparsityPatternBase"*, %"class.dealii::BlockSparsityPatternBase"** %this.addr, align 8
  call void @llvm.dbg.declare(metadata i32* %max_entries, metadata !4986, metadata !DIExpression()), !dbg !4987
  store i32 0, i32* %max_entries, align 4, !dbg !4987
  call void @llvm.dbg.declare(metadata i32* %block_row, metadata !4988, metadata !DIExpression()), !dbg !4990
  store i32 0, i32* %block_row, align 4, !dbg !4990
  br label %for.cond, !dbg !4991

for.cond:                                         ; preds = %for.inc8, %entry
  %0 = load i32, i32* %block_row, align 4, !dbg !4992
  %rows = getelementptr inbounds %"class.dealii::BlockSparsityPatternBase", %"class.dealii::BlockSparsityPatternBase"* %this1, i32 0, i32 1, !dbg !4994
  %1 = load i32, i32* %rows, align 8, !dbg !4994
  %cmp = icmp ult i32 %0, %1, !dbg !4995
  br i1 %cmp, label %for.body, label %for.end10, !dbg !4996

for.body:                                         ; preds = %for.cond
  call void @llvm.dbg.declare(metadata i32* %this_row, metadata !4997, metadata !DIExpression()), !dbg !4999
  store i32 0, i32* %this_row, align 4, !dbg !4999
  call void @llvm.dbg.declare(metadata i32* %c, metadata !5000, metadata !DIExpression()), !dbg !5002
  store i32 0, i32* %c, align 4, !dbg !5002
  br label %for.cond2, !dbg !5003

for.cond2:                                        ; preds = %for.inc, %for.body
  %2 = load i32, i32* %c, align 4, !dbg !5004
  %columns = getelementptr inbounds %"class.dealii::BlockSparsityPatternBase", %"class.dealii::BlockSparsityPatternBase"* %this1, i32 0, i32 2, !dbg !5006
  %3 = load i32, i32* %columns, align 4, !dbg !5006
  %cmp3 = icmp ult i32 %2, %3, !dbg !5007
  br i1 %cmp3, label %for.body4, label %for.end, !dbg !5008

for.body4:                                        ; preds = %for.cond2
  %sub_objects = getelementptr inbounds %"class.dealii::BlockSparsityPatternBase", %"class.dealii::BlockSparsityPatternBase"* %this1, i32 0, i32 3, !dbg !5009
  %4 = load i32, i32* %block_row, align 4, !dbg !5010
  call void @_ZNK6dealii5TableILi2ENS_12SmartPointerINS_15SparsityPatternEEEEixEj(%"class.dealii::internal::TableBaseAccessors::Accessor.8"* sret %ref.tmp, %"class.dealii::Table"* %sub_objects, i32 %4), !dbg !5009
  %5 = load i32, i32* %c, align 4, !dbg !5011
  %call = call dereferenceable(16) %"class.dealii::SmartPointer"* @_ZNK6dealii8internal18TableBaseAccessors8AccessorILi2ENS_12SmartPointerINS_15SparsityPatternEEELb1ELj1EEixEj(%"class.dealii::internal::TableBaseAccessors::Accessor.8"* %ref.tmp, i32 %5), !dbg !5009
  %call5 = call %"class.dealii::SparsityPattern"* @_ZNK6dealii12SmartPointerINS_15SparsityPatternEEptEv(%"class.dealii::SmartPointer"* %call), !dbg !5009
  %call6 = call i32 @_ZNK6dealii15SparsityPattern19max_entries_per_rowEv(%"class.dealii::SparsityPattern"* %call5), !dbg !5012
  %6 = load i32, i32* %this_row, align 4, !dbg !5013
  %add = add i32 %6, %call6, !dbg !5013
  store i32 %add, i32* %this_row, align 4, !dbg !5013
  br label %for.inc, !dbg !5014

for.inc:                                          ; preds = %for.body4
  %7 = load i32, i32* %c, align 4, !dbg !5015
  %inc = add i32 %7, 1, !dbg !5015
  store i32 %inc, i32* %c, align 4, !dbg !5015
  br label %for.cond2, !dbg !5016, !llvm.loop !5017

for.end:                                          ; preds = %for.cond2
  %8 = load i32, i32* %this_row, align 4, !dbg !5019
  %9 = load i32, i32* %max_entries, align 4, !dbg !5021
  %cmp7 = icmp ugt i32 %8, %9, !dbg !5022
  br i1 %cmp7, label %if.then, label %if.end, !dbg !5023

if.then:                                          ; preds = %for.end
  %10 = load i32, i32* %this_row, align 4, !dbg !5024
  store i32 %10, i32* %max_entries, align 4, !dbg !5025
  br label %if.end, !dbg !5026

if.end:                                           ; preds = %if.then, %for.end
  br label %for.inc8, !dbg !5027

for.inc8:                                         ; preds = %if.end
  %11 = load i32, i32* %block_row, align 4, !dbg !5028
  %inc9 = add i32 %11, 1, !dbg !5028
  store i32 %inc9, i32* %block_row, align 4, !dbg !5028
  br label %for.cond, !dbg !5029, !llvm.loop !5030

for.end10:                                        ; preds = %for.cond
  %12 = load i32, i32* %max_entries, align 4, !dbg !5032
  ret i32 %12, !dbg !5033
}

declare dso_local i32 @_ZNK6dealii15SparsityPattern19max_entries_per_rowEv(%"class.dealii::SparsityPattern"*) #1

; Function Attrs: noinline uwtable
define weak_odr dso_local void @_ZN6dealii24BlockSparsityPatternBaseINS_15SparsityPatternEE3addEjj(%"class.dealii::BlockSparsityPatternBase"* %this, i32 %i, i32 %j) #0 comdat align 2 !dbg !5034 {
entry:
  %this.addr = alloca %"class.dealii::BlockSparsityPatternBase"*, align 8
  %i.addr = alloca i32, align 4
  %j.addr = alloca i32, align 4
  %row_index = alloca %"struct.std::pair", align 4
  %col_index = alloca %"struct.std::pair", align 4
  %ref.tmp = alloca %"class.dealii::internal::TableBaseAccessors::Accessor", align 8
  store %"class.dealii::BlockSparsityPatternBase"* %this, %"class.dealii::BlockSparsityPatternBase"** %this.addr, align 8
  call void @llvm.dbg.declare(metadata %"class.dealii::BlockSparsityPatternBase"** %this.addr, metadata !5035, metadata !DIExpression()), !dbg !5036
  store i32 %i, i32* %i.addr, align 4
  call void @llvm.dbg.declare(metadata i32* %i.addr, metadata !5037, metadata !DIExpression()), !dbg !5038
  store i32 %j, i32* %j.addr, align 4
  call void @llvm.dbg.declare(metadata i32* %j.addr, metadata !5039, metadata !DIExpression()), !dbg !5040
  %this1 = load %"class.dealii::BlockSparsityPatternBase"*, %"class.dealii::BlockSparsityPatternBase"** %this.addr, align 8
  call void @llvm.dbg.declare(metadata %"struct.std::pair"* %row_index, metadata !5041, metadata !DIExpression()), !dbg !5042
  %row_indices = getelementptr inbounds %"class.dealii::BlockSparsityPatternBase", %"class.dealii::BlockSparsityPatternBase"* %this1, i32 0, i32 4, !dbg !5043
  %0 = load i32, i32* %i.addr, align 4, !dbg !5044
  %call = call i64 @_ZNK6dealii12BlockIndices15global_to_localEj(%"class.dealii::BlockIndices"* %row_indices, i32 %0), !dbg !5045
  %1 = bitcast %"struct.std::pair"* %row_index to i64*, !dbg !5045
  store i64 %call, i64* %1, align 4, !dbg !5045
  call void @llvm.dbg.declare(metadata %"struct.std::pair"* %col_index, metadata !5046, metadata !DIExpression()), !dbg !5047
  %column_indices = getelementptr inbounds %"class.dealii::BlockSparsityPatternBase", %"class.dealii::BlockSparsityPatternBase"* %this1, i32 0, i32 5, !dbg !5048
  %2 = load i32, i32* %j.addr, align 4, !dbg !5049
  %call2 = call i64 @_ZNK6dealii12BlockIndices15global_to_localEj(%"class.dealii::BlockIndices"* %column_indices, i32 %2), !dbg !5050
  %3 = bitcast %"struct.std::pair"* %col_index to i64*, !dbg !5050
  store i64 %call2, i64* %3, align 4, !dbg !5050
  %sub_objects = getelementptr inbounds %"class.dealii::BlockSparsityPatternBase", %"class.dealii::BlockSparsityPatternBase"* %this1, i32 0, i32 3, !dbg !5051
  %first = getelementptr inbounds %"struct.std::pair", %"struct.std::pair"* %row_index, i32 0, i32 0, !dbg !5052
  %4 = load i32, i32* %first, align 4, !dbg !5052
  call void @_ZN6dealii5TableILi2ENS_12SmartPointerINS_15SparsityPatternEEEEixEj(%"class.dealii::internal::TableBaseAccessors::Accessor"* sret %ref.tmp, %"class.dealii::Table"* %sub_objects, i32 %4), !dbg !5051
  %first3 = getelementptr inbounds %"struct.std::pair", %"struct.std::pair"* %col_index, i32 0, i32 0, !dbg !5053
  %5 = load i32, i32* %first3, align 4, !dbg !5053
  %call4 = call dereferenceable(16) %"class.dealii::SmartPointer"* @_ZNK6dealii8internal18TableBaseAccessors8AccessorILi2ENS_12SmartPointerINS_15SparsityPatternEEELb0ELj1EEixEj(%"class.dealii::internal::TableBaseAccessors::Accessor"* %ref.tmp, i32 %5), !dbg !5051
  %call5 = call %"class.dealii::SparsityPattern"* @_ZNK6dealii12SmartPointerINS_15SparsityPatternEEptEv(%"class.dealii::SmartPointer"* %call4), !dbg !5051
  %second = getelementptr inbounds %"struct.std::pair", %"struct.std::pair"* %row_index, i32 0, i32 1, !dbg !5054
  %6 = load i32, i32* %second, align 4, !dbg !5054
  %second6 = getelementptr inbounds %"struct.std::pair", %"struct.std::pair"* %col_index, i32 0, i32 1, !dbg !5055
  %7 = load i32, i32* %second6, align 4, !dbg !5055
  call void @_ZN6dealii15SparsityPattern3addEjj(%"class.dealii::SparsityPattern"* %call5, i32 %6, i32 %7), !dbg !5056
  ret void, !dbg !5057
}

; Function Attrs: noinline uwtable
define linkonce_odr dso_local i64 @_ZNK6dealii12BlockIndices15global_to_localEj(%"class.dealii::BlockIndices"* %this, i32 %i) #0 comdat align 2 !dbg !5058 {
entry:
  %retval = alloca %"struct.std::pair", align 4
  %this.addr = alloca %"class.dealii::BlockIndices"*, align 8
  %i.addr = alloca i32, align 4
  %block = alloca i32, align 4
  %ref.tmp = alloca %"struct.std::pair.55", align 4
  %ref.tmp2 = alloca i32, align 4
  store %"class.dealii::BlockIndices"* %this, %"class.dealii::BlockIndices"** %this.addr, align 8
  call void @llvm.dbg.declare(metadata %"class.dealii::BlockIndices"** %this.addr, metadata !5059, metadata !DIExpression()), !dbg !5061
  store i32 %i, i32* %i.addr, align 4
  call void @llvm.dbg.declare(metadata i32* %i.addr, metadata !5062, metadata !DIExpression()), !dbg !5063
  %this1 = load %"class.dealii::BlockIndices"*, %"class.dealii::BlockIndices"** %this.addr, align 8
  call void @llvm.dbg.declare(metadata i32* %block, metadata !5064, metadata !DIExpression()), !dbg !5065
  %n_blocks = getelementptr inbounds %"class.dealii::BlockIndices", %"class.dealii::BlockIndices"* %this1, i32 0, i32 0, !dbg !5066
  %0 = load i32, i32* %n_blocks, align 8, !dbg !5066
  %sub = sub i32 %0, 1, !dbg !5067
  store i32 %sub, i32* %block, align 4, !dbg !5065
  br label %while.cond, !dbg !5068

while.cond:                                       ; preds = %while.body, %entry
  %1 = load i32, i32* %i.addr, align 4, !dbg !5069
  %start_indices = getelementptr inbounds %"class.dealii::BlockIndices", %"class.dealii::BlockIndices"* %this1, i32 0, i32 1, !dbg !5070
  %2 = load i32, i32* %block, align 4, !dbg !5071
  %conv = sext i32 %2 to i64, !dbg !5071
  %call = call dereferenceable(4) i32* @_ZNKSt6vectorIjSaIjEEixEm(%"class.std::vector"* %start_indices, i64 %conv) #3, !dbg !5070
  %3 = load i32, i32* %call, align 4, !dbg !5070
  %cmp = icmp ult i32 %1, %3, !dbg !5072
  br i1 %cmp, label %while.body, label %while.end, !dbg !5068

while.body:                                       ; preds = %while.cond
  %4 = load i32, i32* %block, align 4, !dbg !5073
  %dec = add nsw i32 %4, -1, !dbg !5073
  store i32 %dec, i32* %block, align 4, !dbg !5073
  br label %while.cond, !dbg !5068, !llvm.loop !5074

while.end:                                        ; preds = %while.cond
  %5 = load i32, i32* %i.addr, align 4, !dbg !5076
  %start_indices3 = getelementptr inbounds %"class.dealii::BlockIndices", %"class.dealii::BlockIndices"* %this1, i32 0, i32 1, !dbg !5077
  %6 = load i32, i32* %block, align 4, !dbg !5078
  %conv4 = sext i32 %6 to i64, !dbg !5078
  %call5 = call dereferenceable(4) i32* @_ZNKSt6vectorIjSaIjEEixEm(%"class.std::vector"* %start_indices3, i64 %conv4) #3, !dbg !5077
  %7 = load i32, i32* %call5, align 4, !dbg !5077
  %sub6 = sub i32 %5, %7, !dbg !5079
  store i32 %sub6, i32* %ref.tmp2, align 4, !dbg !5076
  %call7 = call i64 @_ZSt9make_pairIRijESt4pairINSt25__strip_reference_wrapperINSt5decayIT_E4typeEE6__typeENS2_INS3_IT0_E4typeEE6__typeEEOS4_OS9_(i32* dereferenceable(4) %block, i32* dereferenceable(4) %ref.tmp2), !dbg !5080
  %8 = bitcast %"struct.std::pair.55"* %ref.tmp to i64*, !dbg !5080
  store i64 %call7, i64* %8, align 4, !dbg !5080
  call void @_ZNSt4pairIjjEC2IijLb1EEEOS_IT_T0_E(%"struct.std::pair"* %retval, %"struct.std::pair.55"* dereferenceable(8) %ref.tmp), !dbg !5080
  %9 = bitcast %"struct.std::pair"* %retval to i64*, !dbg !5081
  %10 = load i64, i64* %9, align 4, !dbg !5081
  ret i64 %10, !dbg !5081
}

declare dso_local void @_ZN6dealii15SparsityPattern3addEjj(%"class.dealii::SparsityPattern"*, i32, i32) #1

; Function Attrs: noinline uwtable
define weak_odr dso_local i32 @_ZNK6dealii24BlockSparsityPatternBaseINS_15SparsityPatternEE6n_rowsEv(%"class.dealii::BlockSparsityPatternBase"* %this) #0 comdat align 2 !dbg !5082 {
entry:
  %this.addr = alloca %"class.dealii::BlockSparsityPatternBase"*, align 8
  %count = alloca i32, align 4
  %r = alloca i32, align 4
  %ref.tmp = alloca %"class.dealii::internal::TableBaseAccessors::Accessor.8", align 8
  store %"class.dealii::BlockSparsityPatternBase"* %this, %"class.dealii::BlockSparsityPatternBase"** %this.addr, align 8
  call void @llvm.dbg.declare(metadata %"class.dealii::BlockSparsityPatternBase"** %this.addr, metadata !5083, metadata !DIExpression()), !dbg !5084
  %this1 = load %"class.dealii::BlockSparsityPatternBase"*, %"class.dealii::BlockSparsityPatternBase"** %this.addr, align 8
  call void @llvm.dbg.declare(metadata i32* %count, metadata !5085, metadata !DIExpression()), !dbg !5086
  store i32 0, i32* %count, align 4, !dbg !5086
  call void @llvm.dbg.declare(metadata i32* %r, metadata !5087, metadata !DIExpression()), !dbg !5089
  store i32 0, i32* %r, align 4, !dbg !5089
  br label %for.cond, !dbg !5090

for.cond:                                         ; preds = %for.inc, %entry
  %0 = load i32, i32* %r, align 4, !dbg !5091
  %rows = getelementptr inbounds %"class.dealii::BlockSparsityPatternBase", %"class.dealii::BlockSparsityPatternBase"* %this1, i32 0, i32 1, !dbg !5093
  %1 = load i32, i32* %rows, align 8, !dbg !5093
  %cmp = icmp ult i32 %0, %1, !dbg !5094
  br i1 %cmp, label %for.body, label %for.end, !dbg !5095

for.body:                                         ; preds = %for.cond
  %sub_objects = getelementptr inbounds %"class.dealii::BlockSparsityPatternBase", %"class.dealii::BlockSparsityPatternBase"* %this1, i32 0, i32 3, !dbg !5096
  %2 = load i32, i32* %r, align 4, !dbg !5097
  call void @_ZNK6dealii5TableILi2ENS_12SmartPointerINS_15SparsityPatternEEEEixEj(%"class.dealii::internal::TableBaseAccessors::Accessor.8"* sret %ref.tmp, %"class.dealii::Table"* %sub_objects, i32 %2), !dbg !5096
  %call = call dereferenceable(16) %"class.dealii::SmartPointer"* @_ZNK6dealii8internal18TableBaseAccessors8AccessorILi2ENS_12SmartPointerINS_15SparsityPatternEEELb1ELj1EEixEj(%"class.dealii::internal::TableBaseAccessors::Accessor.8"* %ref.tmp, i32 0), !dbg !5096
  %call2 = call %"class.dealii::SparsityPattern"* @_ZNK6dealii12SmartPointerINS_15SparsityPatternEEptEv(%"class.dealii::SmartPointer"* %call), !dbg !5096
  %call3 = call i32 @_ZNK6dealii15SparsityPattern6n_rowsEv(%"class.dealii::SparsityPattern"* %call2), !dbg !5098
  %3 = load i32, i32* %count, align 4, !dbg !5099
  %add = add i32 %3, %call3, !dbg !5099
  store i32 %add, i32* %count, align 4, !dbg !5099
  br label %for.inc, !dbg !5100

for.inc:                                          ; preds = %for.body
  %4 = load i32, i32* %r, align 4, !dbg !5101
  %inc = add i32 %4, 1, !dbg !5101
  store i32 %inc, i32* %r, align 4, !dbg !5101
  br label %for.cond, !dbg !5102, !llvm.loop !5103

for.end:                                          ; preds = %for.cond
  %5 = load i32, i32* %count, align 4, !dbg !5105
  ret i32 %5, !dbg !5106
}

; Function Attrs: noinline uwtable
define weak_odr dso_local i32 @_ZNK6dealii24BlockSparsityPatternBaseINS_15SparsityPatternEE6n_colsEv(%"class.dealii::BlockSparsityPatternBase"* %this) #0 comdat align 2 !dbg !5107 {
entry:
  %this.addr = alloca %"class.dealii::BlockSparsityPatternBase"*, align 8
  %count = alloca i32, align 4
  %c = alloca i32, align 4
  %ref.tmp = alloca %"class.dealii::internal::TableBaseAccessors::Accessor.8", align 8
  store %"class.dealii::BlockSparsityPatternBase"* %this, %"class.dealii::BlockSparsityPatternBase"** %this.addr, align 8
  call void @llvm.dbg.declare(metadata %"class.dealii::BlockSparsityPatternBase"** %this.addr, metadata !5108, metadata !DIExpression()), !dbg !5109
  %this1 = load %"class.dealii::BlockSparsityPatternBase"*, %"class.dealii::BlockSparsityPatternBase"** %this.addr, align 8
  call void @llvm.dbg.declare(metadata i32* %count, metadata !5110, metadata !DIExpression()), !dbg !5111
  store i32 0, i32* %count, align 4, !dbg !5111
  call void @llvm.dbg.declare(metadata i32* %c, metadata !5112, metadata !DIExpression()), !dbg !5114
  store i32 0, i32* %c, align 4, !dbg !5114
  br label %for.cond, !dbg !5115

for.cond:                                         ; preds = %for.inc, %entry
  %0 = load i32, i32* %c, align 4, !dbg !5116
  %columns = getelementptr inbounds %"class.dealii::BlockSparsityPatternBase", %"class.dealii::BlockSparsityPatternBase"* %this1, i32 0, i32 2, !dbg !5118
  %1 = load i32, i32* %columns, align 4, !dbg !5118
  %cmp = icmp ult i32 %0, %1, !dbg !5119
  br i1 %cmp, label %for.body, label %for.end, !dbg !5120

for.body:                                         ; preds = %for.cond
  %sub_objects = getelementptr inbounds %"class.dealii::BlockSparsityPatternBase", %"class.dealii::BlockSparsityPatternBase"* %this1, i32 0, i32 3, !dbg !5121
  call void @_ZNK6dealii5TableILi2ENS_12SmartPointerINS_15SparsityPatternEEEEixEj(%"class.dealii::internal::TableBaseAccessors::Accessor.8"* sret %ref.tmp, %"class.dealii::Table"* %sub_objects, i32 0), !dbg !5121
  %2 = load i32, i32* %c, align 4, !dbg !5122
  %call = call dereferenceable(16) %"class.dealii::SmartPointer"* @_ZNK6dealii8internal18TableBaseAccessors8AccessorILi2ENS_12SmartPointerINS_15SparsityPatternEEELb1ELj1EEixEj(%"class.dealii::internal::TableBaseAccessors::Accessor.8"* %ref.tmp, i32 %2), !dbg !5121
  %call2 = call %"class.dealii::SparsityPattern"* @_ZNK6dealii12SmartPointerINS_15SparsityPatternEEptEv(%"class.dealii::SmartPointer"* %call), !dbg !5121
  %call3 = call i32 @_ZNK6dealii15SparsityPattern6n_colsEv(%"class.dealii::SparsityPattern"* %call2), !dbg !5123
  %3 = load i32, i32* %count, align 4, !dbg !5124
  %add = add i32 %3, %call3, !dbg !5124
  store i32 %add, i32* %count, align 4, !dbg !5124
  br label %for.inc, !dbg !5125

for.inc:                                          ; preds = %for.body
  %4 = load i32, i32* %c, align 4, !dbg !5126
  %inc = add i32 %4, 1, !dbg !5126
  store i32 %inc, i32* %c, align 4, !dbg !5126
  br label %for.cond, !dbg !5127, !llvm.loop !5128

for.end:                                          ; preds = %for.cond
  %5 = load i32, i32* %count, align 4, !dbg !5130
  ret i32 %5, !dbg !5131
}

; Function Attrs: noinline uwtable
define weak_odr dso_local zeroext i1 @_ZNK6dealii24BlockSparsityPatternBaseINS_15SparsityPatternEE6existsEjj(%"class.dealii::BlockSparsityPatternBase"* %this, i32 %i, i32 %j) #0 comdat align 2 !dbg !5132 {
entry:
  %this.addr = alloca %"class.dealii::BlockSparsityPatternBase"*, align 8
  %i.addr = alloca i32, align 4
  %j.addr = alloca i32, align 4
  %row_index = alloca %"struct.std::pair", align 4
  %col_index = alloca %"struct.std::pair", align 4
  %ref.tmp = alloca %"class.dealii::internal::TableBaseAccessors::Accessor.8", align 8
  store %"class.dealii::BlockSparsityPatternBase"* %this, %"class.dealii::BlockSparsityPatternBase"** %this.addr, align 8
  call void @llvm.dbg.declare(metadata %"class.dealii::BlockSparsityPatternBase"** %this.addr, metadata !5133, metadata !DIExpression()), !dbg !5134
  store i32 %i, i32* %i.addr, align 4
  call void @llvm.dbg.declare(metadata i32* %i.addr, metadata !5135, metadata !DIExpression()), !dbg !5136
  store i32 %j, i32* %j.addr, align 4
  call void @llvm.dbg.declare(metadata i32* %j.addr, metadata !5137, metadata !DIExpression()), !dbg !5138
  %this1 = load %"class.dealii::BlockSparsityPatternBase"*, %"class.dealii::BlockSparsityPatternBase"** %this.addr, align 8
  call void @llvm.dbg.declare(metadata %"struct.std::pair"* %row_index, metadata !5139, metadata !DIExpression()), !dbg !5140
  %row_indices = getelementptr inbounds %"class.dealii::BlockSparsityPatternBase", %"class.dealii::BlockSparsityPatternBase"* %this1, i32 0, i32 4, !dbg !5141
  %0 = load i32, i32* %i.addr, align 4, !dbg !5142
  %call = call i64 @_ZNK6dealii12BlockIndices15global_to_localEj(%"class.dealii::BlockIndices"* %row_indices, i32 %0), !dbg !5143
  %1 = bitcast %"struct.std::pair"* %row_index to i64*, !dbg !5143
  store i64 %call, i64* %1, align 4, !dbg !5143
  call void @llvm.dbg.declare(metadata %"struct.std::pair"* %col_index, metadata !5144, metadata !DIExpression()), !dbg !5145
  %column_indices = getelementptr inbounds %"class.dealii::BlockSparsityPatternBase", %"class.dealii::BlockSparsityPatternBase"* %this1, i32 0, i32 5, !dbg !5146
  %2 = load i32, i32* %j.addr, align 4, !dbg !5147
  %call2 = call i64 @_ZNK6dealii12BlockIndices15global_to_localEj(%"class.dealii::BlockIndices"* %column_indices, i32 %2), !dbg !5148
  %3 = bitcast %"struct.std::pair"* %col_index to i64*, !dbg !5148
  store i64 %call2, i64* %3, align 4, !dbg !5148
  %sub_objects = getelementptr inbounds %"class.dealii::BlockSparsityPatternBase", %"class.dealii::BlockSparsityPatternBase"* %this1, i32 0, i32 3, !dbg !5149
  %first = getelementptr inbounds %"struct.std::pair", %"struct.std::pair"* %row_index, i32 0, i32 0, !dbg !5150
  %4 = load i32, i32* %first, align 4, !dbg !5150
  call void @_ZNK6dealii5TableILi2ENS_12SmartPointerINS_15SparsityPatternEEEEixEj(%"class.dealii::internal::TableBaseAccessors::Accessor.8"* sret %ref.tmp, %"class.dealii::Table"* %sub_objects, i32 %4), !dbg !5149
  %first3 = getelementptr inbounds %"struct.std::pair", %"struct.std::pair"* %col_index, i32 0, i32 0, !dbg !5151
  %5 = load i32, i32* %first3, align 4, !dbg !5151
  %call4 = call dereferenceable(16) %"class.dealii::SmartPointer"* @_ZNK6dealii8internal18TableBaseAccessors8AccessorILi2ENS_12SmartPointerINS_15SparsityPatternEEELb1ELj1EEixEj(%"class.dealii::internal::TableBaseAccessors::Accessor.8"* %ref.tmp, i32 %5), !dbg !5149
  %call5 = call %"class.dealii::SparsityPattern"* @_ZNK6dealii12SmartPointerINS_15SparsityPatternEEptEv(%"class.dealii::SmartPointer"* %call4), !dbg !5149
  %second = getelementptr inbounds %"struct.std::pair", %"struct.std::pair"* %row_index, i32 0, i32 1, !dbg !5152
  %6 = load i32, i32* %second, align 4, !dbg !5152
  %second6 = getelementptr inbounds %"struct.std::pair", %"struct.std::pair"* %col_index, i32 0, i32 1, !dbg !5153
  %7 = load i32, i32* %second6, align 4, !dbg !5153
  %call7 = call zeroext i1 @_ZNK6dealii15SparsityPattern6existsEjj(%"class.dealii::SparsityPattern"* %call5, i32 %6, i32 %7), !dbg !5154
  ret i1 %call7, !dbg !5155
}

declare dso_local zeroext i1 @_ZNK6dealii15SparsityPattern6existsEjj(%"class.dealii::SparsityPattern"*, i32, i32) #1

; Function Attrs: noinline uwtable
define weak_odr dso_local i32 @_ZNK6dealii24BlockSparsityPatternBaseINS_15SparsityPatternEE10row_lengthEj(%"class.dealii::BlockSparsityPatternBase"* %this, i32 %row) #0 comdat align 2 !dbg !5156 {
entry:
  %this.addr = alloca %"class.dealii::BlockSparsityPatternBase"*, align 8
  %row.addr = alloca i32, align 4
  %row_index = alloca %"struct.std::pair", align 4
  %c = alloca i32, align 4
  %b = alloca i32, align 4
  %ref.tmp = alloca %"class.dealii::internal::TableBaseAccessors::Accessor.8", align 8
  store %"class.dealii::BlockSparsityPatternBase"* %this, %"class.dealii::BlockSparsityPatternBase"** %this.addr, align 8
  call void @llvm.dbg.declare(metadata %"class.dealii::BlockSparsityPatternBase"** %this.addr, metadata !5157, metadata !DIExpression()), !dbg !5158
  store i32 %row, i32* %row.addr, align 4
  call void @llvm.dbg.declare(metadata i32* %row.addr, metadata !5159, metadata !DIExpression()), !dbg !5160
  %this1 = load %"class.dealii::BlockSparsityPatternBase"*, %"class.dealii::BlockSparsityPatternBase"** %this.addr, align 8
  call void @llvm.dbg.declare(metadata %"struct.std::pair"* %row_index, metadata !5161, metadata !DIExpression()), !dbg !5162
  %row_indices = getelementptr inbounds %"class.dealii::BlockSparsityPatternBase", %"class.dealii::BlockSparsityPatternBase"* %this1, i32 0, i32 4, !dbg !5163
  %0 = load i32, i32* %row.addr, align 4, !dbg !5164
  %call = call i64 @_ZNK6dealii12BlockIndices15global_to_localEj(%"class.dealii::BlockIndices"* %row_indices, i32 %0), !dbg !5165
  %1 = bitcast %"struct.std::pair"* %row_index to i64*, !dbg !5165
  store i64 %call, i64* %1, align 4, !dbg !5165
  call void @llvm.dbg.declare(metadata i32* %c, metadata !5166, metadata !DIExpression()), !dbg !5167
  store i32 0, i32* %c, align 4, !dbg !5167
  call void @llvm.dbg.declare(metadata i32* %b, metadata !5168, metadata !DIExpression()), !dbg !5170
  store i32 0, i32* %b, align 4, !dbg !5170
  br label %for.cond, !dbg !5171

for.cond:                                         ; preds = %for.inc, %entry
  %2 = load i32, i32* %b, align 4, !dbg !5172
  %rows = getelementptr inbounds %"class.dealii::BlockSparsityPatternBase", %"class.dealii::BlockSparsityPatternBase"* %this1, i32 0, i32 1, !dbg !5174
  %3 = load i32, i32* %rows, align 8, !dbg !5174
  %cmp = icmp ult i32 %2, %3, !dbg !5175
  br i1 %cmp, label %for.body, label %for.end, !dbg !5176

for.body:                                         ; preds = %for.cond
  %sub_objects = getelementptr inbounds %"class.dealii::BlockSparsityPatternBase", %"class.dealii::BlockSparsityPatternBase"* %this1, i32 0, i32 3, !dbg !5177
  %first = getelementptr inbounds %"struct.std::pair", %"struct.std::pair"* %row_index, i32 0, i32 0, !dbg !5178
  %4 = load i32, i32* %first, align 4, !dbg !5178
  call void @_ZNK6dealii5TableILi2ENS_12SmartPointerINS_15SparsityPatternEEEEixEj(%"class.dealii::internal::TableBaseAccessors::Accessor.8"* sret %ref.tmp, %"class.dealii::Table"* %sub_objects, i32 %4), !dbg !5177
  %5 = load i32, i32* %b, align 4, !dbg !5179
  %call2 = call dereferenceable(16) %"class.dealii::SmartPointer"* @_ZNK6dealii8internal18TableBaseAccessors8AccessorILi2ENS_12SmartPointerINS_15SparsityPatternEEELb1ELj1EEixEj(%"class.dealii::internal::TableBaseAccessors::Accessor.8"* %ref.tmp, i32 %5), !dbg !5177
  %call3 = call %"class.dealii::SparsityPattern"* @_ZNK6dealii12SmartPointerINS_15SparsityPatternEEptEv(%"class.dealii::SmartPointer"* %call2), !dbg !5177
  %second = getelementptr inbounds %"struct.std::pair", %"struct.std::pair"* %row_index, i32 0, i32 1, !dbg !5180
  %6 = load i32, i32* %second, align 4, !dbg !5180
  %call4 = call i32 @_ZNK6dealii15SparsityPattern10row_lengthEj(%"class.dealii::SparsityPattern"* %call3, i32 %6), !dbg !5181
  %7 = load i32, i32* %c, align 4, !dbg !5182
  %add = add i32 %7, %call4, !dbg !5182
  store i32 %add, i32* %c, align 4, !dbg !5182
  br label %for.inc, !dbg !5183

for.inc:                                          ; preds = %for.body
  %8 = load i32, i32* %b, align 4, !dbg !5184
  %inc = add i32 %8, 1, !dbg !5184
  store i32 %inc, i32* %b, align 4, !dbg !5184
  br label %for.cond, !dbg !5185, !llvm.loop !5186

for.end:                                          ; preds = %for.cond
  %9 = load i32, i32* %c, align 4, !dbg !5188
  ret i32 %9, !dbg !5189
}

; Function Attrs: noinline nounwind uwtable
define linkonce_odr dso_local i32 @_ZNK6dealii15SparsityPattern10row_lengthEj(%"class.dealii::SparsityPattern"* %this, i32 %row) #5 comdat align 2 !dbg !5190 {
entry:
  %this.addr = alloca %"class.dealii::SparsityPattern"*, align 8
  %row.addr = alloca i32, align 4
  store %"class.dealii::SparsityPattern"* %this, %"class.dealii::SparsityPattern"** %this.addr, align 8
  call void @llvm.dbg.declare(metadata %"class.dealii::SparsityPattern"** %this.addr, metadata !5194, metadata !DIExpression()), !dbg !5195
  store i32 %row, i32* %row.addr, align 4
  call void @llvm.dbg.declare(metadata i32* %row.addr, metadata !5196, metadata !DIExpression()), !dbg !5197
  %this1 = load %"class.dealii::SparsityPattern"*, %"class.dealii::SparsityPattern"** %this.addr, align 8
  %rowstart = getelementptr inbounds %"class.dealii::SparsityPattern", %"class.dealii::SparsityPattern"* %this1, i32 0, i32 8, !dbg !5198
  %0 = load i64*, i64** %rowstart, align 8, !dbg !5198
  %1 = load i32, i32* %row.addr, align 4, !dbg !5199
  %add = add i32 %1, 1, !dbg !5200
  %idxprom = zext i32 %add to i64, !dbg !5198
  %arrayidx = getelementptr inbounds i64, i64* %0, i64 %idxprom, !dbg !5198
  %2 = load i64, i64* %arrayidx, align 8, !dbg !5198
  %rowstart2 = getelementptr inbounds %"class.dealii::SparsityPattern", %"class.dealii::SparsityPattern"* %this1, i32 0, i32 8, !dbg !5201
  %3 = load i64*, i64** %rowstart2, align 8, !dbg !5201
  %4 = load i32, i32* %row.addr, align 4, !dbg !5202
  %idxprom3 = zext i32 %4 to i64, !dbg !5201
  %arrayidx4 = getelementptr inbounds i64, i64* %3, i64 %idxprom3, !dbg !5201
  %5 = load i64, i64* %arrayidx4, align 8, !dbg !5201
  %sub = sub i64 %2, %5, !dbg !5203
  %conv = trunc i64 %sub to i32, !dbg !5198
  ret i32 %conv, !dbg !5204
}

; Function Attrs: noinline uwtable
define weak_odr dso_local i32 @_ZNK6dealii24BlockSparsityPatternBaseINS_15SparsityPatternEE18n_nonzero_elementsEv(%"class.dealii::BlockSparsityPatternBase"* %this) #0 comdat align 2 !dbg !5205 {
entry:
  %this.addr = alloca %"class.dealii::BlockSparsityPatternBase"*, align 8
  %count = alloca i32, align 4
  %i = alloca i32, align 4
  %j = alloca i32, align 4
  %ref.tmp = alloca %"class.dealii::internal::TableBaseAccessors::Accessor.8", align 8
  store %"class.dealii::BlockSparsityPatternBase"* %this, %"class.dealii::BlockSparsityPatternBase"** %this.addr, align 8
  call void @llvm.dbg.declare(metadata %"class.dealii::BlockSparsityPatternBase"** %this.addr, metadata !5206, metadata !DIExpression()), !dbg !5207
  %this1 = load %"class.dealii::BlockSparsityPatternBase"*, %"class.dealii::BlockSparsityPatternBase"** %this.addr, align 8
  call void @llvm.dbg.declare(metadata i32* %count, metadata !5208, metadata !DIExpression()), !dbg !5209
  store i32 0, i32* %count, align 4, !dbg !5209
  call void @llvm.dbg.declare(metadata i32* %i, metadata !5210, metadata !DIExpression()), !dbg !5212
  store i32 0, i32* %i, align 4, !dbg !5212
  br label %for.cond, !dbg !5213

for.cond:                                         ; preds = %for.inc7, %entry
  %0 = load i32, i32* %i, align 4, !dbg !5214
  %rows = getelementptr inbounds %"class.dealii::BlockSparsityPatternBase", %"class.dealii::BlockSparsityPatternBase"* %this1, i32 0, i32 1, !dbg !5216
  %1 = load i32, i32* %rows, align 8, !dbg !5216
  %cmp = icmp ult i32 %0, %1, !dbg !5217
  br i1 %cmp, label %for.body, label %for.end9, !dbg !5218

for.body:                                         ; preds = %for.cond
  call void @llvm.dbg.declare(metadata i32* %j, metadata !5219, metadata !DIExpression()), !dbg !5221
  store i32 0, i32* %j, align 4, !dbg !5221
  br label %for.cond2, !dbg !5222

for.cond2:                                        ; preds = %for.inc, %for.body
  %2 = load i32, i32* %j, align 4, !dbg !5223
  %columns = getelementptr inbounds %"class.dealii::BlockSparsityPatternBase", %"class.dealii::BlockSparsityPatternBase"* %this1, i32 0, i32 2, !dbg !5225
  %3 = load i32, i32* %columns, align 4, !dbg !5225
  %cmp3 = icmp ult i32 %2, %3, !dbg !5226
  br i1 %cmp3, label %for.body4, label %for.end, !dbg !5227

for.body4:                                        ; preds = %for.cond2
  %sub_objects = getelementptr inbounds %"class.dealii::BlockSparsityPatternBase", %"class.dealii::BlockSparsityPatternBase"* %this1, i32 0, i32 3, !dbg !5228
  %4 = load i32, i32* %i, align 4, !dbg !5229
  call void @_ZNK6dealii5TableILi2ENS_12SmartPointerINS_15SparsityPatternEEEEixEj(%"class.dealii::internal::TableBaseAccessors::Accessor.8"* sret %ref.tmp, %"class.dealii::Table"* %sub_objects, i32 %4), !dbg !5228
  %5 = load i32, i32* %j, align 4, !dbg !5230
  %call = call dereferenceable(16) %"class.dealii::SmartPointer"* @_ZNK6dealii8internal18TableBaseAccessors8AccessorILi2ENS_12SmartPointerINS_15SparsityPatternEEELb1ELj1EEixEj(%"class.dealii::internal::TableBaseAccessors::Accessor.8"* %ref.tmp, i32 %5), !dbg !5228
  %call5 = call %"class.dealii::SparsityPattern"* @_ZNK6dealii12SmartPointerINS_15SparsityPatternEEptEv(%"class.dealii::SmartPointer"* %call), !dbg !5228
  %call6 = call i32 @_ZNK6dealii15SparsityPattern18n_nonzero_elementsEv(%"class.dealii::SparsityPattern"* %call5), !dbg !5231
  %6 = load i32, i32* %count, align 4, !dbg !5232
  %add = add i32 %6, %call6, !dbg !5232
  store i32 %add, i32* %count, align 4, !dbg !5232
  br label %for.inc, !dbg !5233

for.inc:                                          ; preds = %for.body4
  %7 = load i32, i32* %j, align 4, !dbg !5234
  %inc = add i32 %7, 1, !dbg !5234
  store i32 %inc, i32* %j, align 4, !dbg !5234
  br label %for.cond2, !dbg !5235, !llvm.loop !5236

for.end:                                          ; preds = %for.cond2
  br label %for.inc7, !dbg !5237

for.inc7:                                         ; preds = %for.end
  %8 = load i32, i32* %i, align 4, !dbg !5238
  %inc8 = add i32 %8, 1, !dbg !5238
  store i32 %inc8, i32* %i, align 4, !dbg !5238
  br label %for.cond, !dbg !5239, !llvm.loop !5240

for.end9:                                         ; preds = %for.cond
  %9 = load i32, i32* %count, align 4, !dbg !5242
  ret i32 %9, !dbg !5243
}

; Function Attrs: noinline nounwind uwtable
define linkonce_odr dso_local i32 @_ZNK6dealii15SparsityPattern18n_nonzero_elementsEv(%"class.dealii::SparsityPattern"* %this) #5 comdat align 2 !dbg !5244 {
entry:
  %this.addr = alloca %"class.dealii::SparsityPattern"*, align 8
  store %"class.dealii::SparsityPattern"* %this, %"class.dealii::SparsityPattern"** %this.addr, align 8
  call void @llvm.dbg.declare(metadata %"class.dealii::SparsityPattern"** %this.addr, metadata !5246, metadata !DIExpression()), !dbg !5247
  %this1 = load %"class.dealii::SparsityPattern"*, %"class.dealii::SparsityPattern"** %this.addr, align 8
  %rowstart = getelementptr inbounds %"class.dealii::SparsityPattern", %"class.dealii::SparsityPattern"* %this1, i32 0, i32 8, !dbg !5248
  %0 = load i64*, i64** %rowstart, align 8, !dbg !5248
  %rows = getelementptr inbounds %"class.dealii::SparsityPattern", %"class.dealii::SparsityPattern"* %this1, i32 0, i32 2, !dbg !5249
  %1 = load i32, i32* %rows, align 4, !dbg !5249
  %idxprom = zext i32 %1 to i64, !dbg !5248
  %arrayidx = getelementptr inbounds i64, i64* %0, i64 %idxprom, !dbg !5248
  %2 = load i64, i64* %arrayidx, align 8, !dbg !5248
  %rowstart2 = getelementptr inbounds %"class.dealii::SparsityPattern", %"class.dealii::SparsityPattern"* %this1, i32 0, i32 8, !dbg !5250
  %3 = load i64*, i64** %rowstart2, align 8, !dbg !5250
  %arrayidx3 = getelementptr inbounds i64, i64* %3, i64 0, !dbg !5250
  %4 = load i64, i64* %arrayidx3, align 8, !dbg !5250
  %sub = sub i64 %2, %4, !dbg !5251
  %conv = trunc i64 %sub to i32, !dbg !5248
  ret i32 %conv, !dbg !5252
}

; Function Attrs: noinline uwtable
define weak_odr dso_local void @_ZNK6dealii24BlockSparsityPatternBaseINS_15SparsityPatternEE5printERSo(%"class.dealii::BlockSparsityPatternBase"* %this, %"class.std::basic_ostream"* dereferenceable(272) %out) #0 comdat align 2 !dbg !5253 {
entry:
  %this.addr = alloca %"class.dealii::BlockSparsityPatternBase"*, align 8
  %out.addr = alloca %"class.std::basic_ostream"*, align 8
  %k = alloca i32, align 4
  %ib = alloca i32, align 4
  %i = alloca i32, align 4
  %l = alloca i32, align 4
  %jb = alloca i32, align 4
  %b = alloca %"class.dealii::SparsityPattern"*, align 8
  %j = alloca i32, align 4
  store %"class.dealii::BlockSparsityPatternBase"* %this, %"class.dealii::BlockSparsityPatternBase"** %this.addr, align 8
  call void @llvm.dbg.declare(metadata %"class.dealii::BlockSparsityPatternBase"** %this.addr, metadata !5254, metadata !DIExpression()), !dbg !5255
  store %"class.std::basic_ostream"* %out, %"class.std::basic_ostream"** %out.addr, align 8
  call void @llvm.dbg.declare(metadata %"class.std::basic_ostream"** %out.addr, metadata !5256, metadata !DIExpression()), !dbg !5257
  %this1 = load %"class.dealii::BlockSparsityPatternBase"*, %"class.dealii::BlockSparsityPatternBase"** %this.addr, align 8
  call void @llvm.dbg.declare(metadata i32* %k, metadata !5258, metadata !DIExpression()), !dbg !5259
  store i32 0, i32* %k, align 4, !dbg !5259
  call void @llvm.dbg.declare(metadata i32* %ib, metadata !5260, metadata !DIExpression()), !dbg !5262
  store i32 0, i32* %ib, align 4, !dbg !5262
  br label %for.cond, !dbg !5263

for.cond:                                         ; preds = %for.inc35, %entry
  %0 = load i32, i32* %ib, align 4, !dbg !5264
  %call = call i32 @_ZNK6dealii24BlockSparsityPatternBaseINS_15SparsityPatternEE12n_block_rowsEv(%"class.dealii::BlockSparsityPatternBase"* %this1), !dbg !5266
  %cmp = icmp ult i32 %0, %call, !dbg !5267
  br i1 %cmp, label %for.body, label %for.end37, !dbg !5268

for.body:                                         ; preds = %for.cond
  call void @llvm.dbg.declare(metadata i32* %i, metadata !5269, metadata !DIExpression()), !dbg !5272
  store i32 0, i32* %i, align 4, !dbg !5272
  br label %for.cond2, !dbg !5273

for.cond2:                                        ; preds = %for.inc29, %for.body
  %1 = load i32, i32* %i, align 4, !dbg !5274
  %2 = load i32, i32* %ib, align 4, !dbg !5276
  %call3 = call dereferenceable(128) %"class.dealii::SparsityPattern"* @_ZNK6dealii24BlockSparsityPatternBaseINS_15SparsityPatternEE5blockEjj(%"class.dealii::BlockSparsityPatternBase"* %this1, i32 %2, i32 0), !dbg !5277
  %call4 = call i32 @_ZNK6dealii15SparsityPattern6n_rowsEv(%"class.dealii::SparsityPattern"* %call3), !dbg !5278
  %cmp5 = icmp ult i32 %1, %call4, !dbg !5279
  br i1 %cmp5, label %for.body6, label %for.end31, !dbg !5280

for.body6:                                        ; preds = %for.cond2
  %3 = load %"class.std::basic_ostream"*, %"class.std::basic_ostream"** %out.addr, align 8, !dbg !5281
  %call7 = call dereferenceable(272) %"class.std::basic_ostream"* @_ZStlsISt11char_traitsIcEERSt13basic_ostreamIcT_ES5_c(%"class.std::basic_ostream"* dereferenceable(272) %3, i8 signext 91), !dbg !5283
  %4 = load i32, i32* %i, align 4, !dbg !5284
  %5 = load i32, i32* %k, align 4, !dbg !5285
  %add = add i32 %4, %5, !dbg !5286
  %call8 = call dereferenceable(272) %"class.std::basic_ostream"* @_ZNSolsEj(%"class.std::basic_ostream"* %call7, i32 %add), !dbg !5287
  call void @llvm.dbg.declare(metadata i32* %l, metadata !5288, metadata !DIExpression()), !dbg !5289
  store i32 0, i32* %l, align 4, !dbg !5289
  call void @llvm.dbg.declare(metadata i32* %jb, metadata !5290, metadata !DIExpression()), !dbg !5292
  store i32 0, i32* %jb, align 4, !dbg !5292
  br label %for.cond9, !dbg !5293

for.cond9:                                        ; preds = %for.inc24, %for.body6
  %6 = load i32, i32* %jb, align 4, !dbg !5294
  %call10 = call i32 @_ZNK6dealii24BlockSparsityPatternBaseINS_15SparsityPatternEE12n_block_colsEv(%"class.dealii::BlockSparsityPatternBase"* %this1), !dbg !5296
  %cmp11 = icmp ult i32 %6, %call10, !dbg !5297
  br i1 %cmp11, label %for.body12, label %for.end26, !dbg !5298

for.body12:                                       ; preds = %for.cond9
  call void @llvm.dbg.declare(metadata %"class.dealii::SparsityPattern"** %b, metadata !5299, metadata !DIExpression()), !dbg !5301
  %7 = load i32, i32* %ib, align 4, !dbg !5302
  %8 = load i32, i32* %jb, align 4, !dbg !5303
  %call13 = call dereferenceable(128) %"class.dealii::SparsityPattern"* @_ZNK6dealii24BlockSparsityPatternBaseINS_15SparsityPatternEE5blockEjj(%"class.dealii::BlockSparsityPatternBase"* %this1, i32 %7, i32 %8), !dbg !5304
  store %"class.dealii::SparsityPattern"* %call13, %"class.dealii::SparsityPattern"** %b, align 8, !dbg !5301
  call void @llvm.dbg.declare(metadata i32* %j, metadata !5305, metadata !DIExpression()), !dbg !5307
  store i32 0, i32* %j, align 4, !dbg !5307
  br label %for.cond14, !dbg !5308

for.cond14:                                       ; preds = %for.inc, %for.body12
  %9 = load i32, i32* %j, align 4, !dbg !5309
  %10 = load %"class.dealii::SparsityPattern"*, %"class.dealii::SparsityPattern"** %b, align 8, !dbg !5311
  %call15 = call i32 @_ZNK6dealii15SparsityPattern6n_colsEv(%"class.dealii::SparsityPattern"* %10), !dbg !5312
  %cmp16 = icmp ult i32 %9, %call15, !dbg !5313
  br i1 %cmp16, label %for.body17, label %for.end, !dbg !5314

for.body17:                                       ; preds = %for.cond14
  %11 = load %"class.dealii::SparsityPattern"*, %"class.dealii::SparsityPattern"** %b, align 8, !dbg !5315
  %12 = load i32, i32* %i, align 4, !dbg !5317
  %13 = load i32, i32* %j, align 4, !dbg !5318
  %call18 = call zeroext i1 @_ZNK6dealii15SparsityPattern6existsEjj(%"class.dealii::SparsityPattern"* %11, i32 %12, i32 %13), !dbg !5319
  br i1 %call18, label %if.then, label %if.end, !dbg !5320

if.then:                                          ; preds = %for.body17
  %14 = load %"class.std::basic_ostream"*, %"class.std::basic_ostream"** %out.addr, align 8, !dbg !5321
  %call19 = call dereferenceable(272) %"class.std::basic_ostream"* @_ZStlsISt11char_traitsIcEERSt13basic_ostreamIcT_ES5_c(%"class.std::basic_ostream"* dereferenceable(272) %14, i8 signext 44), !dbg !5322
  %15 = load i32, i32* %l, align 4, !dbg !5323
  %16 = load i32, i32* %j, align 4, !dbg !5324
  %add20 = add i32 %15, %16, !dbg !5325
  %call21 = call dereferenceable(272) %"class.std::basic_ostream"* @_ZNSolsEj(%"class.std::basic_ostream"* %call19, i32 %add20), !dbg !5326
  br label %if.end, !dbg !5321

if.end:                                           ; preds = %if.then, %for.body17
  br label %for.inc, !dbg !5327

for.inc:                                          ; preds = %if.end
  %17 = load i32, i32* %j, align 4, !dbg !5328
  %inc = add i32 %17, 1, !dbg !5328
  store i32 %inc, i32* %j, align 4, !dbg !5328
  br label %for.cond14, !dbg !5329, !llvm.loop !5330

for.end:                                          ; preds = %for.cond14
  %18 = load %"class.dealii::SparsityPattern"*, %"class.dealii::SparsityPattern"** %b, align 8, !dbg !5332
  %call22 = call i32 @_ZNK6dealii15SparsityPattern6n_colsEv(%"class.dealii::SparsityPattern"* %18), !dbg !5333
  %19 = load i32, i32* %l, align 4, !dbg !5334
  %add23 = add i32 %19, %call22, !dbg !5334
  store i32 %add23, i32* %l, align 4, !dbg !5334
  br label %for.inc24, !dbg !5335

for.inc24:                                        ; preds = %for.end
  %20 = load i32, i32* %jb, align 4, !dbg !5336
  %inc25 = add i32 %20, 1, !dbg !5336
  store i32 %inc25, i32* %jb, align 4, !dbg !5336
  br label %for.cond9, !dbg !5337, !llvm.loop !5338

for.end26:                                        ; preds = %for.cond9
  %21 = load %"class.std::basic_ostream"*, %"class.std::basic_ostream"** %out.addr, align 8, !dbg !5340
  %call27 = call dereferenceable(272) %"class.std::basic_ostream"* @_ZStlsISt11char_traitsIcEERSt13basic_ostreamIcT_ES5_c(%"class.std::basic_ostream"* dereferenceable(272) %21, i8 signext 93), !dbg !5341
  %call28 = call dereferenceable(272) %"class.std::basic_ostream"* @_ZNSolsEPFRSoS_E(%"class.std::basic_ostream"* %call27, %"class.std::basic_ostream"* (%"class.std::basic_ostream"*)* @_ZSt4endlIcSt11char_traitsIcEERSt13basic_ostreamIT_T0_ES6_), !dbg !5342
  br label %for.inc29, !dbg !5343

for.inc29:                                        ; preds = %for.end26
  %22 = load i32, i32* %i, align 4, !dbg !5344
  %inc30 = add i32 %22, 1, !dbg !5344
  store i32 %inc30, i32* %i, align 4, !dbg !5344
  br label %for.cond2, !dbg !5345, !llvm.loop !5346

for.end31:                                        ; preds = %for.cond2
  %23 = load i32, i32* %ib, align 4, !dbg !5348
  %call32 = call dereferenceable(128) %"class.dealii::SparsityPattern"* @_ZNK6dealii24BlockSparsityPatternBaseINS_15SparsityPatternEE5blockEjj(%"class.dealii::BlockSparsityPatternBase"* %this1, i32 %23, i32 0), !dbg !5349
  %call33 = call i32 @_ZNK6dealii15SparsityPattern6n_rowsEv(%"class.dealii::SparsityPattern"* %call32), !dbg !5350
  %24 = load i32, i32* %k, align 4, !dbg !5351
  %add34 = add i32 %24, %call33, !dbg !5351
  store i32 %add34, i32* %k, align 4, !dbg !5351
  br label %for.inc35, !dbg !5352

for.inc35:                                        ; preds = %for.end31
  %25 = load i32, i32* %ib, align 4, !dbg !5353
  %inc36 = add i32 %25, 1, !dbg !5353
  store i32 %inc36, i32* %ib, align 4, !dbg !5353
  br label %for.cond, !dbg !5354, !llvm.loop !5355

for.end37:                                        ; preds = %for.cond
  ret void, !dbg !5357
}

declare dso_local dereferenceable(272) %"class.std::basic_ostream"* @_ZStlsISt11char_traitsIcEERSt13basic_ostreamIcT_ES5_c(%"class.std::basic_ostream"* dereferenceable(272), i8 signext) #1

declare dso_local dereferenceable(272) %"class.std::basic_ostream"* @_ZNSolsEj(%"class.std::basic_ostream"*, i32) #1

declare dso_local dereferenceable(272) %"class.std::basic_ostream"* @_ZNSolsEPFRSoS_E(%"class.std::basic_ostream"*, %"class.std::basic_ostream"* (%"class.std::basic_ostream"*)*) #1

declare dso_local dereferenceable(272) %"class.std::basic_ostream"* @_ZSt4endlIcSt11char_traitsIcEERSt13basic_ostreamIT_T0_ES6_(%"class.std::basic_ostream"* dereferenceable(272)) #1

; Function Attrs: noinline uwtable
define weak_odr dso_local void @_ZNK6dealii24BlockSparsityPatternBaseINS_15SparsityPatternEE13print_gnuplotERSo(%"class.dealii::BlockSparsityPatternBase"* %this, %"class.std::basic_ostream"* dereferenceable(272) %out) #0 comdat align 2 !dbg !5358 {
entry:
  %this.addr = alloca %"class.dealii::BlockSparsityPatternBase"*, align 8
  %out.addr = alloca %"class.std::basic_ostream"*, align 8
  %k = alloca i32, align 4
  %ib = alloca i32, align 4
  %i = alloca i32, align 4
  %l = alloca i32, align 4
  %jb = alloca i32, align 4
  %b = alloca %"class.dealii::SparsityPattern"*, align 8
  %j = alloca i32, align 4
  store %"class.dealii::BlockSparsityPatternBase"* %this, %"class.dealii::BlockSparsityPatternBase"** %this.addr, align 8
  call void @llvm.dbg.declare(metadata %"class.dealii::BlockSparsityPatternBase"** %this.addr, metadata !5359, metadata !DIExpression()), !dbg !5360
  store %"class.std::basic_ostream"* %out, %"class.std::basic_ostream"** %out.addr, align 8
  call void @llvm.dbg.declare(metadata %"class.std::basic_ostream"** %out.addr, metadata !5361, metadata !DIExpression()), !dbg !5362
  %this1 = load %"class.dealii::BlockSparsityPatternBase"*, %"class.dealii::BlockSparsityPatternBase"** %this.addr, align 8
  call void @llvm.dbg.declare(metadata i32* %k, metadata !5363, metadata !DIExpression()), !dbg !5364
  store i32 0, i32* %k, align 4, !dbg !5364
  call void @llvm.dbg.declare(metadata i32* %ib, metadata !5365, metadata !DIExpression()), !dbg !5367
  store i32 0, i32* %ib, align 4, !dbg !5367
  br label %for.cond, !dbg !5368

for.cond:                                         ; preds = %for.inc33, %entry
  %0 = load i32, i32* %ib, align 4, !dbg !5369
  %call = call i32 @_ZNK6dealii24BlockSparsityPatternBaseINS_15SparsityPatternEE12n_block_rowsEv(%"class.dealii::BlockSparsityPatternBase"* %this1), !dbg !5371
  %cmp = icmp ult i32 %0, %call, !dbg !5372
  br i1 %cmp, label %for.body, label %for.end35, !dbg !5373

for.body:                                         ; preds = %for.cond
  call void @llvm.dbg.declare(metadata i32* %i, metadata !5374, metadata !DIExpression()), !dbg !5377
  store i32 0, i32* %i, align 4, !dbg !5377
  br label %for.cond2, !dbg !5378

for.cond2:                                        ; preds = %for.inc27, %for.body
  %1 = load i32, i32* %i, align 4, !dbg !5379
  %2 = load i32, i32* %ib, align 4, !dbg !5381
  %call3 = call dereferenceable(128) %"class.dealii::SparsityPattern"* @_ZNK6dealii24BlockSparsityPatternBaseINS_15SparsityPatternEE5blockEjj(%"class.dealii::BlockSparsityPatternBase"* %this1, i32 %2, i32 0), !dbg !5382
  %call4 = call i32 @_ZNK6dealii15SparsityPattern6n_rowsEv(%"class.dealii::SparsityPattern"* %call3), !dbg !5383
  %cmp5 = icmp ult i32 %1, %call4, !dbg !5384
  br i1 %cmp5, label %for.body6, label %for.end29, !dbg !5385

for.body6:                                        ; preds = %for.cond2
  call void @llvm.dbg.declare(metadata i32* %l, metadata !5386, metadata !DIExpression()), !dbg !5388
  store i32 0, i32* %l, align 4, !dbg !5388
  call void @llvm.dbg.declare(metadata i32* %jb, metadata !5389, metadata !DIExpression()), !dbg !5391
  store i32 0, i32* %jb, align 4, !dbg !5391
  br label %for.cond7, !dbg !5392

for.cond7:                                        ; preds = %for.inc24, %for.body6
  %3 = load i32, i32* %jb, align 4, !dbg !5393
  %call8 = call i32 @_ZNK6dealii24BlockSparsityPatternBaseINS_15SparsityPatternEE12n_block_colsEv(%"class.dealii::BlockSparsityPatternBase"* %this1), !dbg !5395
  %cmp9 = icmp ult i32 %3, %call8, !dbg !5396
  br i1 %cmp9, label %for.body10, label %for.end26, !dbg !5397

for.body10:                                       ; preds = %for.cond7
  call void @llvm.dbg.declare(metadata %"class.dealii::SparsityPattern"** %b, metadata !5398, metadata !DIExpression()), !dbg !5400
  %4 = load i32, i32* %ib, align 4, !dbg !5401
  %5 = load i32, i32* %jb, align 4, !dbg !5402
  %call11 = call dereferenceable(128) %"class.dealii::SparsityPattern"* @_ZNK6dealii24BlockSparsityPatternBaseINS_15SparsityPatternEE5blockEjj(%"class.dealii::BlockSparsityPatternBase"* %this1, i32 %4, i32 %5), !dbg !5403
  store %"class.dealii::SparsityPattern"* %call11, %"class.dealii::SparsityPattern"** %b, align 8, !dbg !5400
  call void @llvm.dbg.declare(metadata i32* %j, metadata !5404, metadata !DIExpression()), !dbg !5406
  store i32 0, i32* %j, align 4, !dbg !5406
  br label %for.cond12, !dbg !5407

for.cond12:                                       ; preds = %for.inc, %for.body10
  %6 = load i32, i32* %j, align 4, !dbg !5408
  %7 = load %"class.dealii::SparsityPattern"*, %"class.dealii::SparsityPattern"** %b, align 8, !dbg !5410
  %call13 = call i32 @_ZNK6dealii15SparsityPattern6n_colsEv(%"class.dealii::SparsityPattern"* %7), !dbg !5411
  %cmp14 = icmp ult i32 %6, %call13, !dbg !5412
  br i1 %cmp14, label %for.body15, label %for.end, !dbg !5413

for.body15:                                       ; preds = %for.cond12
  %8 = load %"class.dealii::SparsityPattern"*, %"class.dealii::SparsityPattern"** %b, align 8, !dbg !5414
  %9 = load i32, i32* %i, align 4, !dbg !5416
  %10 = load i32, i32* %j, align 4, !dbg !5417
  %call16 = call zeroext i1 @_ZNK6dealii15SparsityPattern6existsEjj(%"class.dealii::SparsityPattern"* %8, i32 %9, i32 %10), !dbg !5418
  br i1 %call16, label %if.then, label %if.end, !dbg !5419

if.then:                                          ; preds = %for.body15
  %11 = load %"class.std::basic_ostream"*, %"class.std::basic_ostream"** %out.addr, align 8, !dbg !5420
  %12 = load i32, i32* %l, align 4, !dbg !5421
  %13 = load i32, i32* %j, align 4, !dbg !5422
  %add = add i32 %12, %13, !dbg !5423
  %call17 = call dereferenceable(272) %"class.std::basic_ostream"* @_ZNSolsEj(%"class.std::basic_ostream"* %11, i32 %add), !dbg !5424
  %call18 = call dereferenceable(272) %"class.std::basic_ostream"* @_ZStlsISt11char_traitsIcEERSt13basic_ostreamIcT_ES5_PKc(%"class.std::basic_ostream"* dereferenceable(272) %call17, i8* getelementptr inbounds ([2 x i8], [2 x i8]* @.str, i64 0, i64 0)), !dbg !5425
  %14 = load i32, i32* %i, align 4, !dbg !5426
  %15 = load i32, i32* %k, align 4, !dbg !5427
  %add19 = add i32 %14, %15, !dbg !5428
  %sub = sub nsw i32 0, %add19, !dbg !5429
  %call20 = call dereferenceable(272) %"class.std::basic_ostream"* @_ZNSolsEi(%"class.std::basic_ostream"* %call18, i32 %sub), !dbg !5430
  %call21 = call dereferenceable(272) %"class.std::basic_ostream"* @_ZNSolsEPFRSoS_E(%"class.std::basic_ostream"* %call20, %"class.std::basic_ostream"* (%"class.std::basic_ostream"*)* @_ZSt4endlIcSt11char_traitsIcEERSt13basic_ostreamIT_T0_ES6_), !dbg !5431
  br label %if.end, !dbg !5420

if.end:                                           ; preds = %if.then, %for.body15
  br label %for.inc, !dbg !5432

for.inc:                                          ; preds = %if.end
  %16 = load i32, i32* %j, align 4, !dbg !5433
  %inc = add i32 %16, 1, !dbg !5433
  store i32 %inc, i32* %j, align 4, !dbg !5433
  br label %for.cond12, !dbg !5434, !llvm.loop !5435

for.end:                                          ; preds = %for.cond12
  %17 = load %"class.dealii::SparsityPattern"*, %"class.dealii::SparsityPattern"** %b, align 8, !dbg !5437
  %call22 = call i32 @_ZNK6dealii15SparsityPattern6n_colsEv(%"class.dealii::SparsityPattern"* %17), !dbg !5438
  %18 = load i32, i32* %l, align 4, !dbg !5439
  %add23 = add i32 %18, %call22, !dbg !5439
  store i32 %add23, i32* %l, align 4, !dbg !5439
  br label %for.inc24, !dbg !5440

for.inc24:                                        ; preds = %for.end
  %19 = load i32, i32* %jb, align 4, !dbg !5441
  %inc25 = add i32 %19, 1, !dbg !5441
  store i32 %inc25, i32* %jb, align 4, !dbg !5441
  br label %for.cond7, !dbg !5442, !llvm.loop !5443

for.end26:                                        ; preds = %for.cond7
  br label %for.inc27, !dbg !5445

for.inc27:                                        ; preds = %for.end26
  %20 = load i32, i32* %i, align 4, !dbg !5446
  %inc28 = add i32 %20, 1, !dbg !5446
  store i32 %inc28, i32* %i, align 4, !dbg !5446
  br label %for.cond2, !dbg !5447, !llvm.loop !5448

for.end29:                                        ; preds = %for.cond2
  %21 = load i32, i32* %ib, align 4, !dbg !5450
  %call30 = call dereferenceable(128) %"class.dealii::SparsityPattern"* @_ZNK6dealii24BlockSparsityPatternBaseINS_15SparsityPatternEE5blockEjj(%"class.dealii::BlockSparsityPatternBase"* %this1, i32 %21, i32 0), !dbg !5451
  %call31 = call i32 @_ZNK6dealii15SparsityPattern6n_rowsEv(%"class.dealii::SparsityPattern"* %call30), !dbg !5452
  %22 = load i32, i32* %k, align 4, !dbg !5453
  %add32 = add i32 %22, %call31, !dbg !5453
  store i32 %add32, i32* %k, align 4, !dbg !5453
  br label %for.inc33, !dbg !5454

for.inc33:                                        ; preds = %for.end29
  %23 = load i32, i32* %ib, align 4, !dbg !5455
  %inc34 = add i32 %23, 1, !dbg !5455
  store i32 %inc34, i32* %ib, align 4, !dbg !5455
  br label %for.cond, !dbg !5456, !llvm.loop !5457

for.end35:                                        ; preds = %for.cond
  ret void, !dbg !5459
}

declare dso_local dereferenceable(272) %"class.std::basic_ostream"* @_ZStlsISt11char_traitsIcEERSt13basic_ostreamIcT_ES5_PKc(%"class.std::basic_ostream"* dereferenceable(272), i8*) #1

declare dso_local dereferenceable(272) %"class.std::basic_ostream"* @_ZNSolsEi(%"class.std::basic_ostream"*, i32) #1

; Function Attrs: noinline uwtable
define weak_odr dso_local void @_ZN6dealii24BlockSparsityPatternBaseINS_15SparsityPatternEE25ExcIncompatibleRowNumbersC2Eiiii(%"class.dealii::BlockSparsityPatternBase<dealii::SparsityPattern>::ExcIncompatibleRowNumbers"* %this, i32 %a1, i32 %a2, i32 %a3, i32 %a4) unnamed_addr #0 comdat($_ZN6dealii24BlockSparsityPatternBaseINS_15SparsityPatternEE25ExcIncompatibleRowNumbersC5Eiiii) align 2 !dbg !5460 {
entry:
  %this.addr = alloca %"class.dealii::BlockSparsityPatternBase<dealii::SparsityPattern>::ExcIncompatibleRowNumbers"*, align 8
  %a1.addr = alloca i32, align 4
  %a2.addr = alloca i32, align 4
  %a3.addr = alloca i32, align 4
  %a4.addr = alloca i32, align 4
  store %"class.dealii::BlockSparsityPatternBase<dealii::SparsityPattern>::ExcIncompatibleRowNumbers"* %this, %"class.dealii::BlockSparsityPatternBase<dealii::SparsityPattern>::ExcIncompatibleRowNumbers"** %this.addr, align 8
  call void @llvm.dbg.declare(metadata %"class.dealii::BlockSparsityPatternBase<dealii::SparsityPattern>::ExcIncompatibleRowNumbers"** %this.addr, metadata !5484, metadata !DIExpression()), !dbg !5486
  store i32 %a1, i32* %a1.addr, align 4
  call void @llvm.dbg.declare(metadata i32* %a1.addr, metadata !5487, metadata !DIExpression()), !dbg !5488
  store i32 %a2, i32* %a2.addr, align 4
  call void @llvm.dbg.declare(metadata i32* %a2.addr, metadata !5489, metadata !DIExpression()), !dbg !5488
  store i32 %a3, i32* %a3.addr, align 4
  call void @llvm.dbg.declare(metadata i32* %a3.addr, metadata !5490, metadata !DIExpression()), !dbg !5488
  store i32 %a4, i32* %a4.addr, align 4
  call void @llvm.dbg.declare(metadata i32* %a4.addr, metadata !5491, metadata !DIExpression()), !dbg !5488
  %this1 = load %"class.dealii::BlockSparsityPatternBase<dealii::SparsityPattern>::ExcIncompatibleRowNumbers"*, %"class.dealii::BlockSparsityPatternBase<dealii::SparsityPattern>::ExcIncompatibleRowNumbers"** %this.addr, align 8
  %0 = bitcast %"class.dealii::BlockSparsityPatternBase<dealii::SparsityPattern>::ExcIncompatibleRowNumbers"* %this1 to %"class.dealii::ExceptionBase"*, !dbg !5488
  call void @_ZN6dealii13ExceptionBaseC2Ev(%"class.dealii::ExceptionBase"* %0), !dbg !5488
  %1 = bitcast %"class.dealii::BlockSparsityPatternBase<dealii::SparsityPattern>::ExcIncompatibleRowNumbers"* %this1 to i32 (...)***, !dbg !5488
  store i32 (...)** bitcast (i8** getelementptr inbounds ({ [6 x i8*] }, { [6 x i8*] }* @_ZTVN6dealii24BlockSparsityPatternBaseINS_15SparsityPatternEE25ExcIncompatibleRowNumbersE, i32 0, inrange i32 0, i32 2) to i32 (...)**), i32 (...)*** %1, align 8, !dbg !5488
  %arg1 = getelementptr inbounds %"class.dealii::BlockSparsityPatternBase<dealii::SparsityPattern>::ExcIncompatibleRowNumbers", %"class.dealii::BlockSparsityPatternBase<dealii::SparsityPattern>::ExcIncompatibleRowNumbers"* %this1, i32 0, i32 1, !dbg !5488
  %2 = load i32, i32* %a1.addr, align 4, !dbg !5488
  store i32 %2, i32* %arg1, align 4, !dbg !5488
  %arg2 = getelementptr inbounds %"class.dealii::BlockSparsityPatternBase<dealii::SparsityPattern>::ExcIncompatibleRowNumbers", %"class.dealii::BlockSparsityPatternBase<dealii::SparsityPattern>::ExcIncompatibleRowNumbers"* %this1, i32 0, i32 2, !dbg !5488
  %3 = load i32, i32* %a2.addr, align 4, !dbg !5488
  store i32 %3, i32* %arg2, align 8, !dbg !5488
  %arg3 = getelementptr inbounds %"class.dealii::BlockSparsityPatternBase<dealii::SparsityPattern>::ExcIncompatibleRowNumbers", %"class.dealii::BlockSparsityPatternBase<dealii::SparsityPattern>::ExcIncompatibleRowNumbers"* %this1, i32 0, i32 3, !dbg !5488
  %4 = load i32, i32* %a3.addr, align 4, !dbg !5488
  store i32 %4, i32* %arg3, align 4, !dbg !5488
  %arg4 = getelementptr inbounds %"class.dealii::BlockSparsityPatternBase<dealii::SparsityPattern>::ExcIncompatibleRowNumbers", %"class.dealii::BlockSparsityPatternBase<dealii::SparsityPattern>::ExcIncompatibleRowNumbers"* %this1, i32 0, i32 4, !dbg !5488
  %5 = load i32, i32* %a4.addr, align 4, !dbg !5488
  store i32 %5, i32* %arg4, align 8, !dbg !5488
  ret void, !dbg !5488
}

declare dso_local void @_ZN6dealii13ExceptionBaseC2Ev(%"class.dealii::ExceptionBase"*) unnamed_addr #1

; Function Attrs: noinline nounwind uwtable
define weak_odr dso_local void @_ZN6dealii24BlockSparsityPatternBaseINS_15SparsityPatternEE25ExcIncompatibleRowNumbersD2Ev(%"class.dealii::BlockSparsityPatternBase<dealii::SparsityPattern>::ExcIncompatibleRowNumbers"* %this) unnamed_addr #5 comdat($_ZN6dealii24BlockSparsityPatternBaseINS_15SparsityPatternEE25ExcIncompatibleRowNumbersD5Ev) align 2 !dbg !5492 {
entry:
  %this.addr = alloca %"class.dealii::BlockSparsityPatternBase<dealii::SparsityPattern>::ExcIncompatibleRowNumbers"*, align 8
  store %"class.dealii::BlockSparsityPatternBase<dealii::SparsityPattern>::ExcIncompatibleRowNumbers"* %this, %"class.dealii::BlockSparsityPatternBase<dealii::SparsityPattern>::ExcIncompatibleRowNumbers"** %this.addr, align 8
  call void @llvm.dbg.declare(metadata %"class.dealii::BlockSparsityPatternBase<dealii::SparsityPattern>::ExcIncompatibleRowNumbers"** %this.addr, metadata !5493, metadata !DIExpression()), !dbg !5494
  %this1 = load %"class.dealii::BlockSparsityPatternBase<dealii::SparsityPattern>::ExcIncompatibleRowNumbers"*, %"class.dealii::BlockSparsityPatternBase<dealii::SparsityPattern>::ExcIncompatibleRowNumbers"** %this.addr, align 8
  %0 = bitcast %"class.dealii::BlockSparsityPatternBase<dealii::SparsityPattern>::ExcIncompatibleRowNumbers"* %this1 to %"class.dealii::ExceptionBase"*, !dbg !5495
  call void @_ZN6dealii13ExceptionBaseD2Ev(%"class.dealii::ExceptionBase"* %0) #3, !dbg !5495
  ret void, !dbg !5497
}

; Function Attrs: nounwind
declare dso_local void @_ZN6dealii13ExceptionBaseD2Ev(%"class.dealii::ExceptionBase"*) unnamed_addr #2

; Function Attrs: noinline nounwind uwtable
define weak_odr dso_local void @_ZN6dealii24BlockSparsityPatternBaseINS_15SparsityPatternEE25ExcIncompatibleRowNumbersD0Ev(%"class.dealii::BlockSparsityPatternBase<dealii::SparsityPattern>::ExcIncompatibleRowNumbers"* %this) unnamed_addr #5 comdat($_ZN6dealii24BlockSparsityPatternBaseINS_15SparsityPatternEE25ExcIncompatibleRowNumbersD5Ev) align 2 !dbg !5498 {
entry:
  %this.addr = alloca %"class.dealii::BlockSparsityPatternBase<dealii::SparsityPattern>::ExcIncompatibleRowNumbers"*, align 8
  store %"class.dealii::BlockSparsityPatternBase<dealii::SparsityPattern>::ExcIncompatibleRowNumbers"* %this, %"class.dealii::BlockSparsityPatternBase<dealii::SparsityPattern>::ExcIncompatibleRowNumbers"** %this.addr, align 8
  call void @llvm.dbg.declare(metadata %"class.dealii::BlockSparsityPatternBase<dealii::SparsityPattern>::ExcIncompatibleRowNumbers"** %this.addr, metadata !5499, metadata !DIExpression()), !dbg !5500
  %this1 = load %"class.dealii::BlockSparsityPatternBase<dealii::SparsityPattern>::ExcIncompatibleRowNumbers"*, %"class.dealii::BlockSparsityPatternBase<dealii::SparsityPattern>::ExcIncompatibleRowNumbers"** %this.addr, align 8
  call void @_ZN6dealii24BlockSparsityPatternBaseINS_15SparsityPatternEE25ExcIncompatibleRowNumbersD1Ev(%"class.dealii::BlockSparsityPatternBase<dealii::SparsityPattern>::ExcIncompatibleRowNumbers"* %this1) #3, !dbg !5501
  %0 = bitcast %"class.dealii::BlockSparsityPatternBase<dealii::SparsityPattern>::ExcIncompatibleRowNumbers"* %this1 to i8*, !dbg !5501
  call void @_ZdlPv(i8* %0) #14, !dbg !5501
  ret void, !dbg !5501
}

; Function Attrs: noinline uwtable
define weak_odr dso_local void @_ZNK6dealii24BlockSparsityPatternBaseINS_15SparsityPatternEE25ExcIncompatibleRowNumbers10print_infoERSo(%"class.dealii::BlockSparsityPatternBase<dealii::SparsityPattern>::ExcIncompatibleRowNumbers"* %this, %"class.std::basic_ostream"* dereferenceable(272) %out) unnamed_addr #0 comdat align 2 !dbg !5502 {
entry:
  %this.addr = alloca %"class.dealii::BlockSparsityPatternBase<dealii::SparsityPattern>::ExcIncompatibleRowNumbers"*, align 8
  %out.addr = alloca %"class.std::basic_ostream"*, align 8
  store %"class.dealii::BlockSparsityPatternBase<dealii::SparsityPattern>::ExcIncompatibleRowNumbers"* %this, %"class.dealii::BlockSparsityPatternBase<dealii::SparsityPattern>::ExcIncompatibleRowNumbers"** %this.addr, align 8
  call void @llvm.dbg.declare(metadata %"class.dealii::BlockSparsityPatternBase<dealii::SparsityPattern>::ExcIncompatibleRowNumbers"** %this.addr, metadata !5503, metadata !DIExpression()), !dbg !5505
  store %"class.std::basic_ostream"* %out, %"class.std::basic_ostream"** %out.addr, align 8
  call void @llvm.dbg.declare(metadata %"class.std::basic_ostream"** %out.addr, metadata !5506, metadata !DIExpression()), !dbg !5507
  %this1 = load %"class.dealii::BlockSparsityPatternBase<dealii::SparsityPattern>::ExcIncompatibleRowNumbers"*, %"class.dealii::BlockSparsityPatternBase<dealii::SparsityPattern>::ExcIncompatibleRowNumbers"** %this.addr, align 8
  %0 = load %"class.std::basic_ostream"*, %"class.std::basic_ostream"** %out.addr, align 8, !dbg !5507
  %call = call dereferenceable(272) %"class.std::basic_ostream"* @_ZStlsISt11char_traitsIcEERSt13basic_ostreamIcT_ES5_PKc(%"class.std::basic_ostream"* dereferenceable(272) %0, i8* getelementptr inbounds ([13 x i8], [13 x i8]* @.str.1, i64 0, i64 0)), !dbg !5507
  %arg1 = getelementptr inbounds %"class.dealii::BlockSparsityPatternBase<dealii::SparsityPattern>::ExcIncompatibleRowNumbers", %"class.dealii::BlockSparsityPatternBase<dealii::SparsityPattern>::ExcIncompatibleRowNumbers"* %this1, i32 0, i32 1, !dbg !5507
  %1 = load i32, i32* %arg1, align 4, !dbg !5507
  %call2 = call dereferenceable(272) %"class.std::basic_ostream"* @_ZNSolsEi(%"class.std::basic_ostream"* %call, i32 %1), !dbg !5507
  %call3 = call dereferenceable(272) %"class.std::basic_ostream"* @_ZStlsISt11char_traitsIcEERSt13basic_ostreamIcT_ES5_c(%"class.std::basic_ostream"* dereferenceable(272) %call2, i8 signext 44), !dbg !5507
  %arg2 = getelementptr inbounds %"class.dealii::BlockSparsityPatternBase<dealii::SparsityPattern>::ExcIncompatibleRowNumbers", %"class.dealii::BlockSparsityPatternBase<dealii::SparsityPattern>::ExcIncompatibleRowNumbers"* %this1, i32 0, i32 2, !dbg !5507
  %2 = load i32, i32* %arg2, align 8, !dbg !5507
  %call4 = call dereferenceable(272) %"class.std::basic_ostream"* @_ZNSolsEi(%"class.std::basic_ostream"* %call3, i32 %2), !dbg !5507
  %call5 = call dereferenceable(272) %"class.std::basic_ostream"* @_ZStlsISt11char_traitsIcEERSt13basic_ostreamIcT_ES5_PKc(%"class.std::basic_ostream"* dereferenceable(272) %call4, i8* getelementptr inbounds ([8 x i8], [8 x i8]* @.str.2, i64 0, i64 0)), !dbg !5507
  %arg3 = getelementptr inbounds %"class.dealii::BlockSparsityPatternBase<dealii::SparsityPattern>::ExcIncompatibleRowNumbers", %"class.dealii::BlockSparsityPatternBase<dealii::SparsityPattern>::ExcIncompatibleRowNumbers"* %this1, i32 0, i32 3, !dbg !5507
  %3 = load i32, i32* %arg3, align 4, !dbg !5507
  %call6 = call dereferenceable(272) %"class.std::basic_ostream"* @_ZNSolsEi(%"class.std::basic_ostream"* %call5, i32 %3), !dbg !5507
  %call7 = call dereferenceable(272) %"class.std::basic_ostream"* @_ZStlsISt11char_traitsIcEERSt13basic_ostreamIcT_ES5_c(%"class.std::basic_ostream"* dereferenceable(272) %call6, i8 signext 44), !dbg !5507
  %arg4 = getelementptr inbounds %"class.dealii::BlockSparsityPatternBase<dealii::SparsityPattern>::ExcIncompatibleRowNumbers", %"class.dealii::BlockSparsityPatternBase<dealii::SparsityPattern>::ExcIncompatibleRowNumbers"* %this1, i32 0, i32 4, !dbg !5507
  %4 = load i32, i32* %arg4, align 8, !dbg !5507
  %call8 = call dereferenceable(272) %"class.std::basic_ostream"* @_ZNSolsEi(%"class.std::basic_ostream"* %call7, i32 %4), !dbg !5507
  %call9 = call dereferenceable(272) %"class.std::basic_ostream"* @_ZStlsISt11char_traitsIcEERSt13basic_ostreamIcT_ES5_PKc(%"class.std::basic_ostream"* dereferenceable(272) %call8, i8* getelementptr inbounds ([30 x i8], [30 x i8]* @.str.3, i64 0, i64 0)), !dbg !5507
  %call10 = call dereferenceable(272) %"class.std::basic_ostream"* @_ZNSolsEPFRSoS_E(%"class.std::basic_ostream"* %call9, %"class.std::basic_ostream"* (%"class.std::basic_ostream"*)* @_ZSt4endlIcSt11char_traitsIcEERSt13basic_ostreamIT_T0_ES6_), !dbg !5507
  ret void, !dbg !5507
}

; Function Attrs: noinline uwtable
define weak_odr dso_local void @_ZN6dealii24BlockSparsityPatternBaseINS_15SparsityPatternEE25ExcIncompatibleColNumbersC2Eiiii(%"class.dealii::BlockSparsityPatternBase<dealii::SparsityPattern>::ExcIncompatibleColNumbers"* %this, i32 %a1, i32 %a2, i32 %a3, i32 %a4) unnamed_addr #0 comdat($_ZN6dealii24BlockSparsityPatternBaseINS_15SparsityPatternEE25ExcIncompatibleColNumbersC5Eiiii) align 2 !dbg !5508 {
entry:
  %this.addr = alloca %"class.dealii::BlockSparsityPatternBase<dealii::SparsityPattern>::ExcIncompatibleColNumbers"*, align 8
  %a1.addr = alloca i32, align 4
  %a2.addr = alloca i32, align 4
  %a3.addr = alloca i32, align 4
  %a4.addr = alloca i32, align 4
  store %"class.dealii::BlockSparsityPatternBase<dealii::SparsityPattern>::ExcIncompatibleColNumbers"* %this, %"class.dealii::BlockSparsityPatternBase<dealii::SparsityPattern>::ExcIncompatibleColNumbers"** %this.addr, align 8
  call void @llvm.dbg.declare(metadata %"class.dealii::BlockSparsityPatternBase<dealii::SparsityPattern>::ExcIncompatibleColNumbers"** %this.addr, metadata !5528, metadata !DIExpression()), !dbg !5530
  store i32 %a1, i32* %a1.addr, align 4
  call void @llvm.dbg.declare(metadata i32* %a1.addr, metadata !5531, metadata !DIExpression()), !dbg !5532
  store i32 %a2, i32* %a2.addr, align 4
  call void @llvm.dbg.declare(metadata i32* %a2.addr, metadata !5533, metadata !DIExpression()), !dbg !5532
  store i32 %a3, i32* %a3.addr, align 4
  call void @llvm.dbg.declare(metadata i32* %a3.addr, metadata !5534, metadata !DIExpression()), !dbg !5532
  store i32 %a4, i32* %a4.addr, align 4
  call void @llvm.dbg.declare(metadata i32* %a4.addr, metadata !5535, metadata !DIExpression()), !dbg !5532
  %this1 = load %"class.dealii::BlockSparsityPatternBase<dealii::SparsityPattern>::ExcIncompatibleColNumbers"*, %"class.dealii::BlockSparsityPatternBase<dealii::SparsityPattern>::ExcIncompatibleColNumbers"** %this.addr, align 8
  %0 = bitcast %"class.dealii::BlockSparsityPatternBase<dealii::SparsityPattern>::ExcIncompatibleColNumbers"* %this1 to %"class.dealii::ExceptionBase"*, !dbg !5532
  call void @_ZN6dealii13ExceptionBaseC2Ev(%"class.dealii::ExceptionBase"* %0), !dbg !5532
  %1 = bitcast %"class.dealii::BlockSparsityPatternBase<dealii::SparsityPattern>::ExcIncompatibleColNumbers"* %this1 to i32 (...)***, !dbg !5532
  store i32 (...)** bitcast (i8** getelementptr inbounds ({ [6 x i8*] }, { [6 x i8*] }* @_ZTVN6dealii24BlockSparsityPatternBaseINS_15SparsityPatternEE25ExcIncompatibleColNumbersE, i32 0, inrange i32 0, i32 2) to i32 (...)**), i32 (...)*** %1, align 8, !dbg !5532
  %arg1 = getelementptr inbounds %"class.dealii::BlockSparsityPatternBase<dealii::SparsityPattern>::ExcIncompatibleColNumbers", %"class.dealii::BlockSparsityPatternBase<dealii::SparsityPattern>::ExcIncompatibleColNumbers"* %this1, i32 0, i32 1, !dbg !5532
  %2 = load i32, i32* %a1.addr, align 4, !dbg !5532
  store i32 %2, i32* %arg1, align 4, !dbg !5532
  %arg2 = getelementptr inbounds %"class.dealii::BlockSparsityPatternBase<dealii::SparsityPattern>::ExcIncompatibleColNumbers", %"class.dealii::BlockSparsityPatternBase<dealii::SparsityPattern>::ExcIncompatibleColNumbers"* %this1, i32 0, i32 2, !dbg !5532
  %3 = load i32, i32* %a2.addr, align 4, !dbg !5532
  store i32 %3, i32* %arg2, align 8, !dbg !5532
  %arg3 = getelementptr inbounds %"class.dealii::BlockSparsityPatternBase<dealii::SparsityPattern>::ExcIncompatibleColNumbers", %"class.dealii::BlockSparsityPatternBase<dealii::SparsityPattern>::ExcIncompatibleColNumbers"* %this1, i32 0, i32 3, !dbg !5532
  %4 = load i32, i32* %a3.addr, align 4, !dbg !5532
  store i32 %4, i32* %arg3, align 4, !dbg !5532
  %arg4 = getelementptr inbounds %"class.dealii::BlockSparsityPatternBase<dealii::SparsityPattern>::ExcIncompatibleColNumbers", %"class.dealii::BlockSparsityPatternBase<dealii::SparsityPattern>::ExcIncompatibleColNumbers"* %this1, i32 0, i32 4, !dbg !5532
  %5 = load i32, i32* %a4.addr, align 4, !dbg !5532
  store i32 %5, i32* %arg4, align 8, !dbg !5532
  ret void, !dbg !5532
}

; Function Attrs: noinline nounwind uwtable
define weak_odr dso_local void @_ZN6dealii24BlockSparsityPatternBaseINS_15SparsityPatternEE25ExcIncompatibleColNumbersD2Ev(%"class.dealii::BlockSparsityPatternBase<dealii::SparsityPattern>::ExcIncompatibleColNumbers"* %this) unnamed_addr #5 comdat($_ZN6dealii24BlockSparsityPatternBaseINS_15SparsityPatternEE25ExcIncompatibleColNumbersD5Ev) align 2 !dbg !5536 {
entry:
  %this.addr = alloca %"class.dealii::BlockSparsityPatternBase<dealii::SparsityPattern>::ExcIncompatibleColNumbers"*, align 8
  store %"class.dealii::BlockSparsityPatternBase<dealii::SparsityPattern>::ExcIncompatibleColNumbers"* %this, %"class.dealii::BlockSparsityPatternBase<dealii::SparsityPattern>::ExcIncompatibleColNumbers"** %this.addr, align 8
  call void @llvm.dbg.declare(metadata %"class.dealii::BlockSparsityPatternBase<dealii::SparsityPattern>::ExcIncompatibleColNumbers"** %this.addr, metadata !5537, metadata !DIExpression()), !dbg !5538
  %this1 = load %"class.dealii::BlockSparsityPatternBase<dealii::SparsityPattern>::ExcIncompatibleColNumbers"*, %"class.dealii::BlockSparsityPatternBase<dealii::SparsityPattern>::ExcIncompatibleColNumbers"** %this.addr, align 8
  %0 = bitcast %"class.dealii::BlockSparsityPatternBase<dealii::SparsityPattern>::ExcIncompatibleColNumbers"* %this1 to %"class.dealii::ExceptionBase"*, !dbg !5539
  call void @_ZN6dealii13ExceptionBaseD2Ev(%"class.dealii::ExceptionBase"* %0) #3, !dbg !5539
  ret void, !dbg !5541
}

; Function Attrs: noinline nounwind uwtable
define weak_odr dso_local void @_ZN6dealii24BlockSparsityPatternBaseINS_15SparsityPatternEE25ExcIncompatibleColNumbersD0Ev(%"class.dealii::BlockSparsityPatternBase<dealii::SparsityPattern>::ExcIncompatibleColNumbers"* %this) unnamed_addr #5 comdat($_ZN6dealii24BlockSparsityPatternBaseINS_15SparsityPatternEE25ExcIncompatibleColNumbersD5Ev) align 2 !dbg !5542 {
entry:
  %this.addr = alloca %"class.dealii::BlockSparsityPatternBase<dealii::SparsityPattern>::ExcIncompatibleColNumbers"*, align 8
  store %"class.dealii::BlockSparsityPatternBase<dealii::SparsityPattern>::ExcIncompatibleColNumbers"* %this, %"class.dealii::BlockSparsityPatternBase<dealii::SparsityPattern>::ExcIncompatibleColNumbers"** %this.addr, align 8
  call void @llvm.dbg.declare(metadata %"class.dealii::BlockSparsityPatternBase<dealii::SparsityPattern>::ExcIncompatibleColNumbers"** %this.addr, metadata !5543, metadata !DIExpression()), !dbg !5544
  %this1 = load %"class.dealii::BlockSparsityPatternBase<dealii::SparsityPattern>::ExcIncompatibleColNumbers"*, %"class.dealii::BlockSparsityPatternBase<dealii::SparsityPattern>::ExcIncompatibleColNumbers"** %this.addr, align 8
  call void @_ZN6dealii24BlockSparsityPatternBaseINS_15SparsityPatternEE25ExcIncompatibleColNumbersD1Ev(%"class.dealii::BlockSparsityPatternBase<dealii::SparsityPattern>::ExcIncompatibleColNumbers"* %this1) #3, !dbg !5545
  %0 = bitcast %"class.dealii::BlockSparsityPatternBase<dealii::SparsityPattern>::ExcIncompatibleColNumbers"* %this1 to i8*, !dbg !5545
  call void @_ZdlPv(i8* %0) #14, !dbg !5545
  ret void, !dbg !5545
}

; Function Attrs: noinline uwtable
define weak_odr dso_local void @_ZNK6dealii24BlockSparsityPatternBaseINS_15SparsityPatternEE25ExcIncompatibleColNumbers10print_infoERSo(%"class.dealii::BlockSparsityPatternBase<dealii::SparsityPattern>::ExcIncompatibleColNumbers"* %this, %"class.std::basic_ostream"* dereferenceable(272) %out) unnamed_addr #0 comdat align 2 !dbg !5546 {
entry:
  %this.addr = alloca %"class.dealii::BlockSparsityPatternBase<dealii::SparsityPattern>::ExcIncompatibleColNumbers"*, align 8
  %out.addr = alloca %"class.std::basic_ostream"*, align 8
  store %"class.dealii::BlockSparsityPatternBase<dealii::SparsityPattern>::ExcIncompatibleColNumbers"* %this, %"class.dealii::BlockSparsityPatternBase<dealii::SparsityPattern>::ExcIncompatibleColNumbers"** %this.addr, align 8
  call void @llvm.dbg.declare(metadata %"class.dealii::BlockSparsityPatternBase<dealii::SparsityPattern>::ExcIncompatibleColNumbers"** %this.addr, metadata !5547, metadata !DIExpression()), !dbg !5549
  store %"class.std::basic_ostream"* %out, %"class.std::basic_ostream"** %out.addr, align 8
  call void @llvm.dbg.declare(metadata %"class.std::basic_ostream"** %out.addr, metadata !5550, metadata !DIExpression()), !dbg !5551
  %this1 = load %"class.dealii::BlockSparsityPatternBase<dealii::SparsityPattern>::ExcIncompatibleColNumbers"*, %"class.dealii::BlockSparsityPatternBase<dealii::SparsityPattern>::ExcIncompatibleColNumbers"** %this.addr, align 8
  %0 = load %"class.std::basic_ostream"*, %"class.std::basic_ostream"** %out.addr, align 8, !dbg !5551
  %call = call dereferenceable(272) %"class.std::basic_ostream"* @_ZStlsISt11char_traitsIcEERSt13basic_ostreamIcT_ES5_PKc(%"class.std::basic_ostream"* dereferenceable(272) %0, i8* getelementptr inbounds ([13 x i8], [13 x i8]* @.str.1, i64 0, i64 0)), !dbg !5551
  %arg1 = getelementptr inbounds %"class.dealii::BlockSparsityPatternBase<dealii::SparsityPattern>::ExcIncompatibleColNumbers", %"class.dealii::BlockSparsityPatternBase<dealii::SparsityPattern>::ExcIncompatibleColNumbers"* %this1, i32 0, i32 1, !dbg !5551
  %1 = load i32, i32* %arg1, align 4, !dbg !5551
  %call2 = call dereferenceable(272) %"class.std::basic_ostream"* @_ZNSolsEi(%"class.std::basic_ostream"* %call, i32 %1), !dbg !5551
  %call3 = call dereferenceable(272) %"class.std::basic_ostream"* @_ZStlsISt11char_traitsIcEERSt13basic_ostreamIcT_ES5_c(%"class.std::basic_ostream"* dereferenceable(272) %call2, i8 signext 44), !dbg !5551
  %arg2 = getelementptr inbounds %"class.dealii::BlockSparsityPatternBase<dealii::SparsityPattern>::ExcIncompatibleColNumbers", %"class.dealii::BlockSparsityPatternBase<dealii::SparsityPattern>::ExcIncompatibleColNumbers"* %this1, i32 0, i32 2, !dbg !5551
  %2 = load i32, i32* %arg2, align 8, !dbg !5551
  %call4 = call dereferenceable(272) %"class.std::basic_ostream"* @_ZNSolsEi(%"class.std::basic_ostream"* %call3, i32 %2), !dbg !5551
  %call5 = call dereferenceable(272) %"class.std::basic_ostream"* @_ZStlsISt11char_traitsIcEERSt13basic_ostreamIcT_ES5_PKc(%"class.std::basic_ostream"* dereferenceable(272) %call4, i8* getelementptr inbounds ([8 x i8], [8 x i8]* @.str.2, i64 0, i64 0)), !dbg !5551
  %arg3 = getelementptr inbounds %"class.dealii::BlockSparsityPatternBase<dealii::SparsityPattern>::ExcIncompatibleColNumbers", %"class.dealii::BlockSparsityPatternBase<dealii::SparsityPattern>::ExcIncompatibleColNumbers"* %this1, i32 0, i32 3, !dbg !5551
  %3 = load i32, i32* %arg3, align 4, !dbg !5551
  %call6 = call dereferenceable(272) %"class.std::basic_ostream"* @_ZNSolsEi(%"class.std::basic_ostream"* %call5, i32 %3), !dbg !5551
  %call7 = call dereferenceable(272) %"class.std::basic_ostream"* @_ZStlsISt11char_traitsIcEERSt13basic_ostreamIcT_ES5_c(%"class.std::basic_ostream"* dereferenceable(272) %call6, i8 signext 44), !dbg !5551
  %arg4 = getelementptr inbounds %"class.dealii::BlockSparsityPatternBase<dealii::SparsityPattern>::ExcIncompatibleColNumbers", %"class.dealii::BlockSparsityPatternBase<dealii::SparsityPattern>::ExcIncompatibleColNumbers"* %this1, i32 0, i32 4, !dbg !5551
  %4 = load i32, i32* %arg4, align 8, !dbg !5551
  %call8 = call dereferenceable(272) %"class.std::basic_ostream"* @_ZNSolsEi(%"class.std::basic_ostream"* %call7, i32 %4), !dbg !5551
  %call9 = call dereferenceable(272) %"class.std::basic_ostream"* @_ZStlsISt11char_traitsIcEERSt13basic_ostreamIcT_ES5_PKc(%"class.std::basic_ostream"* dereferenceable(272) %call8, i8* getelementptr inbounds ([33 x i8], [33 x i8]* @.str.4, i64 0, i64 0)), !dbg !5551
  %call10 = call dereferenceable(272) %"class.std::basic_ostream"* @_ZNSolsEPFRSoS_E(%"class.std::basic_ostream"* %call9, %"class.std::basic_ostream"* (%"class.std::basic_ostream"*)* @_ZSt4endlIcSt11char_traitsIcEERSt13basic_ostreamIT_T0_ES6_), !dbg !5551
  ret void, !dbg !5551
}

; Function Attrs: noinline uwtable
define weak_odr dso_local void @_ZN6dealii24BlockSparsityPatternBaseINS_15SparsityPatternEE20ExcIncompatibleSizesC2Eii(%"class.dealii::BlockSparsityPatternBase<dealii::SparsityPattern>::ExcIncompatibleSizes"* %this, i32 %a1, i32 %a2) unnamed_addr #0 comdat($_ZN6dealii24BlockSparsityPatternBaseINS_15SparsityPatternEE20ExcIncompatibleSizesC5Eii) align 2 !dbg !5552 {
entry:
  %this.addr = alloca %"class.dealii::BlockSparsityPatternBase<dealii::SparsityPattern>::ExcIncompatibleSizes"*, align 8
  %a1.addr = alloca i32, align 4
  %a2.addr = alloca i32, align 4
  store %"class.dealii::BlockSparsityPatternBase<dealii::SparsityPattern>::ExcIncompatibleSizes"* %this, %"class.dealii::BlockSparsityPatternBase<dealii::SparsityPattern>::ExcIncompatibleSizes"** %this.addr, align 8
  call void @llvm.dbg.declare(metadata %"class.dealii::BlockSparsityPatternBase<dealii::SparsityPattern>::ExcIncompatibleSizes"** %this.addr, metadata !5570, metadata !DIExpression()), !dbg !5572
  store i32 %a1, i32* %a1.addr, align 4
  call void @llvm.dbg.declare(metadata i32* %a1.addr, metadata !5573, metadata !DIExpression()), !dbg !5574
  store i32 %a2, i32* %a2.addr, align 4
  call void @llvm.dbg.declare(metadata i32* %a2.addr, metadata !5575, metadata !DIExpression()), !dbg !5574
  %this1 = load %"class.dealii::BlockSparsityPatternBase<dealii::SparsityPattern>::ExcIncompatibleSizes"*, %"class.dealii::BlockSparsityPatternBase<dealii::SparsityPattern>::ExcIncompatibleSizes"** %this.addr, align 8
  %0 = bitcast %"class.dealii::BlockSparsityPatternBase<dealii::SparsityPattern>::ExcIncompatibleSizes"* %this1 to %"class.dealii::ExceptionBase"*, !dbg !5574
  call void @_ZN6dealii13ExceptionBaseC2Ev(%"class.dealii::ExceptionBase"* %0), !dbg !5574
  %1 = bitcast %"class.dealii::BlockSparsityPatternBase<dealii::SparsityPattern>::ExcIncompatibleSizes"* %this1 to i32 (...)***, !dbg !5574
  store i32 (...)** bitcast (i8** getelementptr inbounds ({ [6 x i8*] }, { [6 x i8*] }* @_ZTVN6dealii24BlockSparsityPatternBaseINS_15SparsityPatternEE20ExcIncompatibleSizesE, i32 0, inrange i32 0, i32 2) to i32 (...)**), i32 (...)*** %1, align 8, !dbg !5574
  %arg1 = getelementptr inbounds %"class.dealii::BlockSparsityPatternBase<dealii::SparsityPattern>::ExcIncompatibleSizes", %"class.dealii::BlockSparsityPatternBase<dealii::SparsityPattern>::ExcIncompatibleSizes"* %this1, i32 0, i32 1, !dbg !5574
  %2 = load i32, i32* %a1.addr, align 4, !dbg !5574
  store i32 %2, i32* %arg1, align 4, !dbg !5574
  %arg2 = getelementptr inbounds %"class.dealii::BlockSparsityPatternBase<dealii::SparsityPattern>::ExcIncompatibleSizes", %"class.dealii::BlockSparsityPatternBase<dealii::SparsityPattern>::ExcIncompatibleSizes"* %this1, i32 0, i32 2, !dbg !5574
  %3 = load i32, i32* %a2.addr, align 4, !dbg !5574
  store i32 %3, i32* %arg2, align 8, !dbg !5574
  ret void, !dbg !5574
}

; Function Attrs: noinline nounwind uwtable
define weak_odr dso_local void @_ZN6dealii24BlockSparsityPatternBaseINS_15SparsityPatternEE20ExcIncompatibleSizesD2Ev(%"class.dealii::BlockSparsityPatternBase<dealii::SparsityPattern>::ExcIncompatibleSizes"* %this) unnamed_addr #5 comdat($_ZN6dealii24BlockSparsityPatternBaseINS_15SparsityPatternEE20ExcIncompatibleSizesD5Ev) align 2 !dbg !5576 {
entry:
  %this.addr = alloca %"class.dealii::BlockSparsityPatternBase<dealii::SparsityPattern>::ExcIncompatibleSizes"*, align 8
  store %"class.dealii::BlockSparsityPatternBase<dealii::SparsityPattern>::ExcIncompatibleSizes"* %this, %"class.dealii::BlockSparsityPatternBase<dealii::SparsityPattern>::ExcIncompatibleSizes"** %this.addr, align 8
  call void @llvm.dbg.declare(metadata %"class.dealii::BlockSparsityPatternBase<dealii::SparsityPattern>::ExcIncompatibleSizes"** %this.addr, metadata !5577, metadata !DIExpression()), !dbg !5578
  %this1 = load %"class.dealii::BlockSparsityPatternBase<dealii::SparsityPattern>::ExcIncompatibleSizes"*, %"class.dealii::BlockSparsityPatternBase<dealii::SparsityPattern>::ExcIncompatibleSizes"** %this.addr, align 8
  %0 = bitcast %"class.dealii::BlockSparsityPatternBase<dealii::SparsityPattern>::ExcIncompatibleSizes"* %this1 to %"class.dealii::ExceptionBase"*, !dbg !5579
  call void @_ZN6dealii13ExceptionBaseD2Ev(%"class.dealii::ExceptionBase"* %0) #3, !dbg !5579
  ret void, !dbg !5581
}

; Function Attrs: noinline nounwind uwtable
define weak_odr dso_local void @_ZN6dealii24BlockSparsityPatternBaseINS_15SparsityPatternEE20ExcIncompatibleSizesD0Ev(%"class.dealii::BlockSparsityPatternBase<dealii::SparsityPattern>::ExcIncompatibleSizes"* %this) unnamed_addr #5 comdat($_ZN6dealii24BlockSparsityPatternBaseINS_15SparsityPatternEE20ExcIncompatibleSizesD5Ev) align 2 !dbg !5582 {
entry:
  %this.addr = alloca %"class.dealii::BlockSparsityPatternBase<dealii::SparsityPattern>::ExcIncompatibleSizes"*, align 8
  store %"class.dealii::BlockSparsityPatternBase<dealii::SparsityPattern>::ExcIncompatibleSizes"* %this, %"class.dealii::BlockSparsityPatternBase<dealii::SparsityPattern>::ExcIncompatibleSizes"** %this.addr, align 8
  call void @llvm.dbg.declare(metadata %"class.dealii::BlockSparsityPatternBase<dealii::SparsityPattern>::ExcIncompatibleSizes"** %this.addr, metadata !5583, metadata !DIExpression()), !dbg !5584
  %this1 = load %"class.dealii::BlockSparsityPatternBase<dealii::SparsityPattern>::ExcIncompatibleSizes"*, %"class.dealii::BlockSparsityPatternBase<dealii::SparsityPattern>::ExcIncompatibleSizes"** %this.addr, align 8
  call void @_ZN6dealii24BlockSparsityPatternBaseINS_15SparsityPatternEE20ExcIncompatibleSizesD1Ev(%"class.dealii::BlockSparsityPatternBase<dealii::SparsityPattern>::ExcIncompatibleSizes"* %this1) #3, !dbg !5585
  %0 = bitcast %"class.dealii::BlockSparsityPatternBase<dealii::SparsityPattern>::ExcIncompatibleSizes"* %this1 to i8*, !dbg !5585
  call void @_ZdlPv(i8* %0) #14, !dbg !5585
  ret void, !dbg !5585
}

; Function Attrs: noinline uwtable
define weak_odr dso_local void @_ZNK6dealii24BlockSparsityPatternBaseINS_15SparsityPatternEE20ExcIncompatibleSizes10print_infoERSo(%"class.dealii::BlockSparsityPatternBase<dealii::SparsityPattern>::ExcIncompatibleSizes"* %this, %"class.std::basic_ostream"* dereferenceable(272) %out) unnamed_addr #0 comdat align 2 !dbg !5586 {
entry:
  %this.addr = alloca %"class.dealii::BlockSparsityPatternBase<dealii::SparsityPattern>::ExcIncompatibleSizes"*, align 8
  %out.addr = alloca %"class.std::basic_ostream"*, align 8
  store %"class.dealii::BlockSparsityPatternBase<dealii::SparsityPattern>::ExcIncompatibleSizes"* %this, %"class.dealii::BlockSparsityPatternBase<dealii::SparsityPattern>::ExcIncompatibleSizes"** %this.addr, align 8
  call void @llvm.dbg.declare(metadata %"class.dealii::BlockSparsityPatternBase<dealii::SparsityPattern>::ExcIncompatibleSizes"** %this.addr, metadata !5587, metadata !DIExpression()), !dbg !5589
  store %"class.std::basic_ostream"* %out, %"class.std::basic_ostream"** %out.addr, align 8
  call void @llvm.dbg.declare(metadata %"class.std::basic_ostream"** %out.addr, metadata !5590, metadata !DIExpression()), !dbg !5591
  %this1 = load %"class.dealii::BlockSparsityPatternBase<dealii::SparsityPattern>::ExcIncompatibleSizes"*, %"class.dealii::BlockSparsityPatternBase<dealii::SparsityPattern>::ExcIncompatibleSizes"** %this.addr, align 8
  %0 = load %"class.std::basic_ostream"*, %"class.std::basic_ostream"** %out.addr, align 8, !dbg !5591
  %call = call dereferenceable(272) %"class.std::basic_ostream"* @_ZStlsISt11char_traitsIcEERSt13basic_ostreamIcT_ES5_PKc(%"class.std::basic_ostream"* dereferenceable(272) %0, i8* getelementptr inbounds ([22 x i8], [22 x i8]* @.str.5, i64 0, i64 0)), !dbg !5591
  %arg1 = getelementptr inbounds %"class.dealii::BlockSparsityPatternBase<dealii::SparsityPattern>::ExcIncompatibleSizes", %"class.dealii::BlockSparsityPatternBase<dealii::SparsityPattern>::ExcIncompatibleSizes"* %this1, i32 0, i32 1, !dbg !5591
  %1 = load i32, i32* %arg1, align 4, !dbg !5591
  %call2 = call dereferenceable(272) %"class.std::basic_ostream"* @_ZNSolsEi(%"class.std::basic_ostream"* %call, i32 %1), !dbg !5591
  %call3 = call dereferenceable(272) %"class.std::basic_ostream"* @_ZStlsISt11char_traitsIcEERSt13basic_ostreamIcT_ES5_PKc(%"class.std::basic_ostream"* dereferenceable(272) %call2, i8* getelementptr inbounds ([6 x i8], [6 x i8]* @.str.6, i64 0, i64 0)), !dbg !5591
  %arg2 = getelementptr inbounds %"class.dealii::BlockSparsityPatternBase<dealii::SparsityPattern>::ExcIncompatibleSizes", %"class.dealii::BlockSparsityPatternBase<dealii::SparsityPattern>::ExcIncompatibleSizes"* %this1, i32 0, i32 2, !dbg !5591
  %2 = load i32, i32* %arg2, align 8, !dbg !5591
  %call4 = call dereferenceable(272) %"class.std::basic_ostream"* @_ZNSolsEi(%"class.std::basic_ostream"* %call3, i32 %2), !dbg !5591
  %call5 = call dereferenceable(272) %"class.std::basic_ostream"* @_ZStlsISt11char_traitsIcEERSt13basic_ostreamIcT_ES5_PKc(%"class.std::basic_ostream"* dereferenceable(272) %call4, i8* getelementptr inbounds ([16 x i8], [16 x i8]* @.str.7, i64 0, i64 0)), !dbg !5591
  %call6 = call dereferenceable(272) %"class.std::basic_ostream"* @_ZNSolsEPFRSoS_E(%"class.std::basic_ostream"* %call5, %"class.std::basic_ostream"* (%"class.std::basic_ostream"*)* @_ZSt4endlIcSt11char_traitsIcEERSt13basic_ostreamIT_T0_ES6_), !dbg !5591
  ret void, !dbg !5591
}

; Function Attrs: noinline uwtable
define weak_odr dso_local void @_ZN6dealii24BlockSparsityPatternBaseINS_25CompressedSparsityPatternEEC2Ev(%"class.dealii::BlockSparsityPatternBase.9"* %this) unnamed_addr #0 comdat($_ZN6dealii24BlockSparsityPatternBaseINS_25CompressedSparsityPatternEEC5Ev) align 2 personality i8* bitcast (i32 (...)* @__gxx_personality_v0 to i8*) !dbg !5592 {
entry:
  %this.addr = alloca %"class.dealii::BlockSparsityPatternBase.9"*, align 8
  %exn.slot = alloca i8*
  %ehselector.slot = alloca i32
  store %"class.dealii::BlockSparsityPatternBase.9"* %this, %"class.dealii::BlockSparsityPatternBase.9"** %this.addr, align 8
  call void @llvm.dbg.declare(metadata %"class.dealii::BlockSparsityPatternBase.9"** %this.addr, metadata !5593, metadata !DIExpression()), !dbg !5595
  %this1 = load %"class.dealii::BlockSparsityPatternBase.9"*, %"class.dealii::BlockSparsityPatternBase.9"** %this.addr, align 8
  %0 = bitcast %"class.dealii::BlockSparsityPatternBase.9"* %this1 to %"class.dealii::Subscriptor"*, !dbg !5596
  call void @_ZN6dealii11SubscriptorC2Ev(%"class.dealii::Subscriptor"* %0), !dbg !5597
  %1 = bitcast %"class.dealii::BlockSparsityPatternBase.9"* %this1 to i32 (...)***, !dbg !5596
  store i32 (...)** bitcast (i8** getelementptr inbounds ({ [4 x i8*] }, { [4 x i8*] }* @_ZTVN6dealii24BlockSparsityPatternBaseINS_25CompressedSparsityPatternEEE, i32 0, inrange i32 0, i32 2) to i32 (...)**), i32 (...)*** %1, align 8, !dbg !5596
  %rows = getelementptr inbounds %"class.dealii::BlockSparsityPatternBase.9", %"class.dealii::BlockSparsityPatternBase.9"* %this1, i32 0, i32 1, !dbg !5599
  store i32 0, i32* %rows, align 8, !dbg !5599
  %columns = getelementptr inbounds %"class.dealii::BlockSparsityPatternBase.9", %"class.dealii::BlockSparsityPatternBase.9"* %this1, i32 0, i32 2, !dbg !5601
  store i32 0, i32* %columns, align 4, !dbg !5601
  %sub_objects = getelementptr inbounds %"class.dealii::BlockSparsityPatternBase.9", %"class.dealii::BlockSparsityPatternBase.9"* %this1, i32 0, i32 3, !dbg !5597
  invoke void @_ZN6dealii5TableILi2ENS_12SmartPointerINS_25CompressedSparsityPatternEEEEC2Ev(%"class.dealii::Table.10"* %sub_objects)
          to label %invoke.cont unwind label %lpad, !dbg !5597

invoke.cont:                                      ; preds = %entry
  %row_indices = getelementptr inbounds %"class.dealii::BlockSparsityPatternBase.9", %"class.dealii::BlockSparsityPatternBase.9"* %this1, i32 0, i32 4, !dbg !5597
  invoke void @_ZN6dealii12BlockIndicesC2Ej(%"class.dealii::BlockIndices"* %row_indices, i32 0)
          to label %invoke.cont3 unwind label %lpad2, !dbg !5597

invoke.cont3:                                     ; preds = %invoke.cont
  %column_indices = getelementptr inbounds %"class.dealii::BlockSparsityPatternBase.9", %"class.dealii::BlockSparsityPatternBase.9"* %this1, i32 0, i32 5, !dbg !5597
  invoke void @_ZN6dealii12BlockIndicesC2Ej(%"class.dealii::BlockIndices"* %column_indices, i32 0)
          to label %invoke.cont5 unwind label %lpad4, !dbg !5597

invoke.cont5:                                     ; preds = %invoke.cont3
  %counter_within_block = getelementptr inbounds %"class.dealii::BlockSparsityPatternBase.9", %"class.dealii::BlockSparsityPatternBase.9"* %this1, i32 0, i32 6, !dbg !5597
  call void @_ZNSt6vectorIjSaIjEEC2Ev(%"class.std::vector"* %counter_within_block) #3, !dbg !5597
  %block_column_indices = getelementptr inbounds %"class.dealii::BlockSparsityPatternBase.9", %"class.dealii::BlockSparsityPatternBase.9"* %this1, i32 0, i32 7, !dbg !5597
  call void @_ZNSt6vectorIS_IjSaIjEESaIS1_EEC2Ev(%"class.std::vector.3"* %block_column_indices) #3, !dbg !5597
  ret void, !dbg !5602

lpad:                                             ; preds = %entry
  %2 = landingpad { i8*, i32 }
          cleanup, !dbg !5602
  %3 = extractvalue { i8*, i32 } %2, 0, !dbg !5602
  store i8* %3, i8** %exn.slot, align 8, !dbg !5602
  %4 = extractvalue { i8*, i32 } %2, 1, !dbg !5602
  store i32 %4, i32* %ehselector.slot, align 4, !dbg !5602
  br label %ehcleanup6, !dbg !5602

lpad2:                                            ; preds = %invoke.cont
  %5 = landingpad { i8*, i32 }
          cleanup, !dbg !5602
  %6 = extractvalue { i8*, i32 } %5, 0, !dbg !5602
  store i8* %6, i8** %exn.slot, align 8, !dbg !5602
  %7 = extractvalue { i8*, i32 } %5, 1, !dbg !5602
  store i32 %7, i32* %ehselector.slot, align 4, !dbg !5602
  br label %ehcleanup, !dbg !5602

lpad4:                                            ; preds = %invoke.cont3
  %8 = landingpad { i8*, i32 }
          cleanup, !dbg !5602
  %9 = extractvalue { i8*, i32 } %8, 0, !dbg !5602
  store i8* %9, i8** %exn.slot, align 8, !dbg !5602
  %10 = extractvalue { i8*, i32 } %8, 1, !dbg !5602
  store i32 %10, i32* %ehselector.slot, align 4, !dbg !5602
  call void @_ZN6dealii12BlockIndicesD2Ev(%"class.dealii::BlockIndices"* %row_indices) #3, !dbg !5603
  br label %ehcleanup, !dbg !5603

ehcleanup:                                        ; preds = %lpad4, %lpad2
  call void @_ZN6dealii5TableILi2ENS_12SmartPointerINS_25CompressedSparsityPatternEEEED2Ev(%"class.dealii::Table.10"* %sub_objects) #3, !dbg !5603
  br label %ehcleanup6, !dbg !5603

ehcleanup6:                                       ; preds = %ehcleanup, %lpad
  %11 = bitcast %"class.dealii::BlockSparsityPatternBase.9"* %this1 to %"class.dealii::Subscriptor"*, !dbg !5603
  call void @_ZN6dealii11SubscriptorD2Ev(%"class.dealii::Subscriptor"* %11) #3, !dbg !5603
  br label %eh.resume, !dbg !5603

eh.resume:                                        ; preds = %ehcleanup6
  %exn = load i8*, i8** %exn.slot, align 8, !dbg !5603
  %sel = load i32, i32* %ehselector.slot, align 4, !dbg !5603
  %lpad.val = insertvalue { i8*, i32 } undef, i8* %exn, 0, !dbg !5603
  %lpad.val7 = insertvalue { i8*, i32 } %lpad.val, i32 %sel, 1, !dbg !5603
  resume { i8*, i32 } %lpad.val7, !dbg !5603
}

; Function Attrs: noinline uwtable
define linkonce_odr dso_local void @_ZN6dealii5TableILi2ENS_12SmartPointerINS_25CompressedSparsityPatternEEEEC2Ev(%"class.dealii::Table.10"* %this) unnamed_addr #0 comdat align 2 !dbg !5605 {
entry:
  %this.addr = alloca %"class.dealii::Table.10"*, align 8
  store %"class.dealii::Table.10"* %this, %"class.dealii::Table.10"** %this.addr, align 8
  call void @llvm.dbg.declare(metadata %"class.dealii::Table.10"** %this.addr, metadata !5606, metadata !DIExpression()), !dbg !5608
  %this1 = load %"class.dealii::Table.10"*, %"class.dealii::Table.10"** %this.addr, align 8
  %0 = bitcast %"class.dealii::Table.10"* %this1 to %"class.dealii::TableBase.11"*, !dbg !5609
  call void @_ZN6dealii9TableBaseILi2ENS_12SmartPointerINS_25CompressedSparsityPatternEEEEC2Ev(%"class.dealii::TableBase.11"* %0), !dbg !5610
  %1 = bitcast %"class.dealii::Table.10"* %this1 to i32 (...)***, !dbg !5609
  store i32 (...)** bitcast (i8** getelementptr inbounds ({ [4 x i8*] }, { [4 x i8*] }* @_ZTVN6dealii5TableILi2ENS_12SmartPointerINS_25CompressedSparsityPatternEEEEE, i32 0, inrange i32 0, i32 2) to i32 (...)**), i32 (...)*** %1, align 8, !dbg !5609
  ret void, !dbg !5611
}

; Function Attrs: noinline nounwind uwtable
define linkonce_odr dso_local void @_ZN6dealii5TableILi2ENS_12SmartPointerINS_25CompressedSparsityPatternEEEED2Ev(%"class.dealii::Table.10"* %this) unnamed_addr #5 comdat align 2 !dbg !5612 {
entry:
  %this.addr = alloca %"class.dealii::Table.10"*, align 8
  store %"class.dealii::Table.10"* %this, %"class.dealii::Table.10"** %this.addr, align 8
  call void @llvm.dbg.declare(metadata %"class.dealii::Table.10"** %this.addr, metadata !5614, metadata !DIExpression()), !dbg !5615
  %this1 = load %"class.dealii::Table.10"*, %"class.dealii::Table.10"** %this.addr, align 8
  %0 = bitcast %"class.dealii::Table.10"* %this1 to %"class.dealii::TableBase.11"*, !dbg !5616
  call void @_ZN6dealii9TableBaseILi2ENS_12SmartPointerINS_25CompressedSparsityPatternEEEED2Ev(%"class.dealii::TableBase.11"* %0) #3, !dbg !5616
  ret void, !dbg !5618
}

; Function Attrs: noinline uwtable
define weak_odr dso_local void @_ZN6dealii24BlockSparsityPatternBaseINS_25CompressedSparsityPatternEEC2Ejj(%"class.dealii::BlockSparsityPatternBase.9"* %this, i32 %n_block_rows, i32 %n_block_columns) unnamed_addr #0 comdat($_ZN6dealii24BlockSparsityPatternBaseINS_25CompressedSparsityPatternEEC5Ejj) align 2 personality i8* bitcast (i32 (...)* @__gxx_personality_v0 to i8*) !dbg !5619 {
entry:
  %this.addr = alloca %"class.dealii::BlockSparsityPatternBase.9"*, align 8
  %n_block_rows.addr = alloca i32, align 4
  %n_block_columns.addr = alloca i32, align 4
  %exn.slot = alloca i8*
  %ehselector.slot = alloca i32
  store %"class.dealii::BlockSparsityPatternBase.9"* %this, %"class.dealii::BlockSparsityPatternBase.9"** %this.addr, align 8
  call void @llvm.dbg.declare(metadata %"class.dealii::BlockSparsityPatternBase.9"** %this.addr, metadata !5620, metadata !DIExpression()), !dbg !5621
  store i32 %n_block_rows, i32* %n_block_rows.addr, align 4
  call void @llvm.dbg.declare(metadata i32* %n_block_rows.addr, metadata !5622, metadata !DIExpression()), !dbg !5623
  store i32 %n_block_columns, i32* %n_block_columns.addr, align 4
  call void @llvm.dbg.declare(metadata i32* %n_block_columns.addr, metadata !5624, metadata !DIExpression()), !dbg !5625
  %this1 = load %"class.dealii::BlockSparsityPatternBase.9"*, %"class.dealii::BlockSparsityPatternBase.9"** %this.addr, align 8
  %0 = bitcast %"class.dealii::BlockSparsityPatternBase.9"* %this1 to %"class.dealii::Subscriptor"*, !dbg !5626
  call void @_ZN6dealii11SubscriptorC2Ev(%"class.dealii::Subscriptor"* %0), !dbg !5627
  %1 = bitcast %"class.dealii::BlockSparsityPatternBase.9"* %this1 to i32 (...)***, !dbg !5626
  store i32 (...)** bitcast (i8** getelementptr inbounds ({ [4 x i8*] }, { [4 x i8*] }* @_ZTVN6dealii24BlockSparsityPatternBaseINS_25CompressedSparsityPatternEEE, i32 0, inrange i32 0, i32 2) to i32 (...)**), i32 (...)*** %1, align 8, !dbg !5626
  %rows = getelementptr inbounds %"class.dealii::BlockSparsityPatternBase.9", %"class.dealii::BlockSparsityPatternBase.9"* %this1, i32 0, i32 1, !dbg !5629
  store i32 0, i32* %rows, align 8, !dbg !5629
  %columns = getelementptr inbounds %"class.dealii::BlockSparsityPatternBase.9", %"class.dealii::BlockSparsityPatternBase.9"* %this1, i32 0, i32 2, !dbg !5631
  store i32 0, i32* %columns, align 4, !dbg !5631
  %sub_objects = getelementptr inbounds %"class.dealii::BlockSparsityPatternBase.9", %"class.dealii::BlockSparsityPatternBase.9"* %this1, i32 0, i32 3, !dbg !5627
  invoke void @_ZN6dealii5TableILi2ENS_12SmartPointerINS_25CompressedSparsityPatternEEEEC2Ev(%"class.dealii::Table.10"* %sub_objects)
          to label %invoke.cont unwind label %lpad, !dbg !5627

invoke.cont:                                      ; preds = %entry
  %row_indices = getelementptr inbounds %"class.dealii::BlockSparsityPatternBase.9", %"class.dealii::BlockSparsityPatternBase.9"* %this1, i32 0, i32 4, !dbg !5627
  invoke void @_ZN6dealii12BlockIndicesC2Ej(%"class.dealii::BlockIndices"* %row_indices, i32 0)
          to label %invoke.cont3 unwind label %lpad2, !dbg !5627

invoke.cont3:                                     ; preds = %invoke.cont
  %column_indices = getelementptr inbounds %"class.dealii::BlockSparsityPatternBase.9", %"class.dealii::BlockSparsityPatternBase.9"* %this1, i32 0, i32 5, !dbg !5627
  invoke void @_ZN6dealii12BlockIndicesC2Ej(%"class.dealii::BlockIndices"* %column_indices, i32 0)
          to label %invoke.cont5 unwind label %lpad4, !dbg !5627

invoke.cont5:                                     ; preds = %invoke.cont3
  %counter_within_block = getelementptr inbounds %"class.dealii::BlockSparsityPatternBase.9", %"class.dealii::BlockSparsityPatternBase.9"* %this1, i32 0, i32 6, !dbg !5627
  call void @_ZNSt6vectorIjSaIjEEC2Ev(%"class.std::vector"* %counter_within_block) #3, !dbg !5627
  %block_column_indices = getelementptr inbounds %"class.dealii::BlockSparsityPatternBase.9", %"class.dealii::BlockSparsityPatternBase.9"* %this1, i32 0, i32 7, !dbg !5627
  call void @_ZNSt6vectorIS_IjSaIjEESaIS1_EEC2Ev(%"class.std::vector.3"* %block_column_indices) #3, !dbg !5627
  %2 = load i32, i32* %n_block_rows.addr, align 4, !dbg !5632
  %3 = load i32, i32* %n_block_columns.addr, align 4, !dbg !5634
  invoke void @_ZN6dealii24BlockSparsityPatternBaseINS_25CompressedSparsityPatternEE6reinitEjj(%"class.dealii::BlockSparsityPatternBase.9"* %this1, i32 %2, i32 %3)
          to label %invoke.cont7 unwind label %lpad6, !dbg !5635

invoke.cont7:                                     ; preds = %invoke.cont5
  ret void, !dbg !5636

lpad:                                             ; preds = %entry
  %4 = landingpad { i8*, i32 }
          cleanup, !dbg !5636
  %5 = extractvalue { i8*, i32 } %4, 0, !dbg !5636
  store i8* %5, i8** %exn.slot, align 8, !dbg !5636
  %6 = extractvalue { i8*, i32 } %4, 1, !dbg !5636
  store i32 %6, i32* %ehselector.slot, align 4, !dbg !5636
  br label %ehcleanup9, !dbg !5636

lpad2:                                            ; preds = %invoke.cont
  %7 = landingpad { i8*, i32 }
          cleanup, !dbg !5636
  %8 = extractvalue { i8*, i32 } %7, 0, !dbg !5636
  store i8* %8, i8** %exn.slot, align 8, !dbg !5636
  %9 = extractvalue { i8*, i32 } %7, 1, !dbg !5636
  store i32 %9, i32* %ehselector.slot, align 4, !dbg !5636
  br label %ehcleanup8, !dbg !5636

lpad4:                                            ; preds = %invoke.cont3
  %10 = landingpad { i8*, i32 }
          cleanup, !dbg !5636
  %11 = extractvalue { i8*, i32 } %10, 0, !dbg !5636
  store i8* %11, i8** %exn.slot, align 8, !dbg !5636
  %12 = extractvalue { i8*, i32 } %10, 1, !dbg !5636
  store i32 %12, i32* %ehselector.slot, align 4, !dbg !5636
  br label %ehcleanup, !dbg !5636

lpad6:                                            ; preds = %invoke.cont5
  %13 = landingpad { i8*, i32 }
          cleanup, !dbg !5637
  %14 = extractvalue { i8*, i32 } %13, 0, !dbg !5637
  store i8* %14, i8** %exn.slot, align 8, !dbg !5637
  %15 = extractvalue { i8*, i32 } %13, 1, !dbg !5637
  store i32 %15, i32* %ehselector.slot, align 4, !dbg !5637
  call void @_ZNSt6vectorIS_IjSaIjEESaIS1_EED2Ev(%"class.std::vector.3"* %block_column_indices) #3, !dbg !5637
  call void @_ZNSt6vectorIjSaIjEED2Ev(%"class.std::vector"* %counter_within_block) #3, !dbg !5637
  call void @_ZN6dealii12BlockIndicesD2Ev(%"class.dealii::BlockIndices"* %column_indices) #3, !dbg !5637
  br label %ehcleanup, !dbg !5637

ehcleanup:                                        ; preds = %lpad6, %lpad4
  call void @_ZN6dealii12BlockIndicesD2Ev(%"class.dealii::BlockIndices"* %row_indices) #3, !dbg !5637
  br label %ehcleanup8, !dbg !5637

ehcleanup8:                                       ; preds = %ehcleanup, %lpad2
  call void @_ZN6dealii5TableILi2ENS_12SmartPointerINS_25CompressedSparsityPatternEEEED2Ev(%"class.dealii::Table.10"* %sub_objects) #3, !dbg !5637
  br label %ehcleanup9, !dbg !5637

ehcleanup9:                                       ; preds = %ehcleanup8, %lpad
  %16 = bitcast %"class.dealii::BlockSparsityPatternBase.9"* %this1 to %"class.dealii::Subscriptor"*, !dbg !5637
  call void @_ZN6dealii11SubscriptorD2Ev(%"class.dealii::Subscriptor"* %16) #3, !dbg !5637
  br label %eh.resume, !dbg !5637

eh.resume:                                        ; preds = %ehcleanup9
  %exn = load i8*, i8** %exn.slot, align 8, !dbg !5637
  %sel = load i32, i32* %ehselector.slot, align 4, !dbg !5637
  %lpad.val = insertvalue { i8*, i32 } undef, i8* %exn, 0, !dbg !5637
  %lpad.val10 = insertvalue { i8*, i32 } %lpad.val, i32 %sel, 1, !dbg !5637
  resume { i8*, i32 } %lpad.val10, !dbg !5637
}

; Function Attrs: noinline uwtable
define weak_odr dso_local void @_ZN6dealii24BlockSparsityPatternBaseINS_25CompressedSparsityPatternEE6reinitEjj(%"class.dealii::BlockSparsityPatternBase.9"* %this, i32 %n_block_rows, i32 %n_block_columns) #0 comdat align 2 personality i8* bitcast (i32 (...)* @__gxx_personality_v0 to i8*) !dbg !5638 {
entry:
  %this.addr = alloca %"class.dealii::BlockSparsityPatternBase.9"*, align 8
  %n_block_rows.addr = alloca i32, align 4
  %n_block_columns.addr = alloca i32, align 4
  %i = alloca i32, align 4
  %j = alloca i32, align 4
  %sp = alloca %"class.dealii::CompressedSparsityPattern"*, align 8
  %ref.tmp = alloca %"class.dealii::internal::TableBaseAccessors::Accessor.20", align 8
  %ref.tmp6 = alloca %"class.dealii::internal::TableBaseAccessors::Accessor.20", align 8
  %i19 = alloca i32, align 4
  %j24 = alloca i32, align 4
  %p = alloca %"class.dealii::CompressedSparsityPattern"*, align 8
  %exn.slot = alloca i8*
  %ehselector.slot = alloca i32
  %ref.tmp30 = alloca %"class.dealii::internal::TableBaseAccessors::Accessor.20", align 8
  store %"class.dealii::BlockSparsityPatternBase.9"* %this, %"class.dealii::BlockSparsityPatternBase.9"** %this.addr, align 8
  call void @llvm.dbg.declare(metadata %"class.dealii::BlockSparsityPatternBase.9"** %this.addr, metadata !5639, metadata !DIExpression()), !dbg !5640
  store i32 %n_block_rows, i32* %n_block_rows.addr, align 4
  call void @llvm.dbg.declare(metadata i32* %n_block_rows.addr, metadata !5641, metadata !DIExpression()), !dbg !5642
  store i32 %n_block_columns, i32* %n_block_columns.addr, align 4
  call void @llvm.dbg.declare(metadata i32* %n_block_columns.addr, metadata !5643, metadata !DIExpression()), !dbg !5644
  %this1 = load %"class.dealii::BlockSparsityPatternBase.9"*, %"class.dealii::BlockSparsityPatternBase.9"** %this.addr, align 8
  call void @llvm.dbg.declare(metadata i32* %i, metadata !5645, metadata !DIExpression()), !dbg !5647
  store i32 0, i32* %i, align 4, !dbg !5647
  br label %for.cond, !dbg !5648

for.cond:                                         ; preds = %for.inc10, %entry
  %0 = load i32, i32* %i, align 4, !dbg !5649
  %rows = getelementptr inbounds %"class.dealii::BlockSparsityPatternBase.9", %"class.dealii::BlockSparsityPatternBase.9"* %this1, i32 0, i32 1, !dbg !5651
  %1 = load i32, i32* %rows, align 8, !dbg !5651
  %cmp = icmp ult i32 %0, %1, !dbg !5652
  br i1 %cmp, label %for.body, label %for.end12, !dbg !5653

for.body:                                         ; preds = %for.cond
  call void @llvm.dbg.declare(metadata i32* %j, metadata !5654, metadata !DIExpression()), !dbg !5656
  store i32 0, i32* %j, align 4, !dbg !5656
  br label %for.cond2, !dbg !5657

for.cond2:                                        ; preds = %for.inc, %for.body
  %2 = load i32, i32* %j, align 4, !dbg !5658
  %columns = getelementptr inbounds %"class.dealii::BlockSparsityPatternBase.9", %"class.dealii::BlockSparsityPatternBase.9"* %this1, i32 0, i32 2, !dbg !5660
  %3 = load i32, i32* %columns, align 4, !dbg !5660
  %cmp3 = icmp ult i32 %2, %3, !dbg !5661
  br i1 %cmp3, label %for.body4, label %for.end, !dbg !5662

for.body4:                                        ; preds = %for.cond2
  call void @llvm.dbg.declare(metadata %"class.dealii::CompressedSparsityPattern"** %sp, metadata !5663, metadata !DIExpression()), !dbg !5665
  %sub_objects = getelementptr inbounds %"class.dealii::BlockSparsityPatternBase.9", %"class.dealii::BlockSparsityPatternBase.9"* %this1, i32 0, i32 3, !dbg !5666
  %4 = load i32, i32* %i, align 4, !dbg !5667
  call void @_ZN6dealii5TableILi2ENS_12SmartPointerINS_25CompressedSparsityPatternEEEEixEj(%"class.dealii::internal::TableBaseAccessors::Accessor.20"* sret %ref.tmp, %"class.dealii::Table.10"* %sub_objects, i32 %4), !dbg !5666
  %5 = load i32, i32* %j, align 4, !dbg !5668
  %call = call dereferenceable(16) %"class.dealii::SmartPointer.12"* @_ZNK6dealii8internal18TableBaseAccessors8AccessorILi2ENS_12SmartPointerINS_25CompressedSparsityPatternEEELb0ELj1EEixEj(%"class.dealii::internal::TableBaseAccessors::Accessor.20"* %ref.tmp, i32 %5), !dbg !5666
  %call5 = call %"class.dealii::CompressedSparsityPattern"* @_ZNK6dealii12SmartPointerINS_25CompressedSparsityPatternEEcvPS1_Ev(%"class.dealii::SmartPointer.12"* %call), !dbg !5666
  store %"class.dealii::CompressedSparsityPattern"* %call5, %"class.dealii::CompressedSparsityPattern"** %sp, align 8, !dbg !5665
  %sub_objects7 = getelementptr inbounds %"class.dealii::BlockSparsityPatternBase.9", %"class.dealii::BlockSparsityPatternBase.9"* %this1, i32 0, i32 3, !dbg !5669
  %6 = load i32, i32* %i, align 4, !dbg !5670
  call void @_ZN6dealii5TableILi2ENS_12SmartPointerINS_25CompressedSparsityPatternEEEEixEj(%"class.dealii::internal::TableBaseAccessors::Accessor.20"* sret %ref.tmp6, %"class.dealii::Table.10"* %sub_objects7, i32 %6), !dbg !5669
  %7 = load i32, i32* %j, align 4, !dbg !5671
  %call8 = call dereferenceable(16) %"class.dealii::SmartPointer.12"* @_ZNK6dealii8internal18TableBaseAccessors8AccessorILi2ENS_12SmartPointerINS_25CompressedSparsityPatternEEELb0ELj1EEixEj(%"class.dealii::internal::TableBaseAccessors::Accessor.20"* %ref.tmp6, i32 %7), !dbg !5669
  %call9 = call dereferenceable(16) %"class.dealii::SmartPointer.12"* @_ZN6dealii12SmartPointerINS_25CompressedSparsityPatternEEaSEPS1_(%"class.dealii::SmartPointer.12"* %call8, %"class.dealii::CompressedSparsityPattern"* null), !dbg !5672
  %8 = load %"class.dealii::CompressedSparsityPattern"*, %"class.dealii::CompressedSparsityPattern"** %sp, align 8, !dbg !5673
  %isnull = icmp eq %"class.dealii::CompressedSparsityPattern"* %8, null, !dbg !5674
  br i1 %isnull, label %delete.end, label %delete.notnull, !dbg !5674

delete.notnull:                                   ; preds = %for.body4
  %9 = bitcast %"class.dealii::CompressedSparsityPattern"* %8 to void (%"class.dealii::CompressedSparsityPattern"*)***, !dbg !5674
  %vtable = load void (%"class.dealii::CompressedSparsityPattern"*)**, void (%"class.dealii::CompressedSparsityPattern"*)*** %9, align 8, !dbg !5674
  %vfn = getelementptr inbounds void (%"class.dealii::CompressedSparsityPattern"*)*, void (%"class.dealii::CompressedSparsityPattern"*)** %vtable, i64 1, !dbg !5674
  %10 = load void (%"class.dealii::CompressedSparsityPattern"*)*, void (%"class.dealii::CompressedSparsityPattern"*)** %vfn, align 8, !dbg !5674
  call void %10(%"class.dealii::CompressedSparsityPattern"* %8) #3, !dbg !5674
  br label %delete.end, !dbg !5674

delete.end:                                       ; preds = %delete.notnull, %for.body4
  br label %for.inc, !dbg !5675

for.inc:                                          ; preds = %delete.end
  %11 = load i32, i32* %j, align 4, !dbg !5676
  %inc = add i32 %11, 1, !dbg !5676
  store i32 %inc, i32* %j, align 4, !dbg !5676
  br label %for.cond2, !dbg !5677, !llvm.loop !5678

for.end:                                          ; preds = %for.cond2
  br label %for.inc10, !dbg !5679

for.inc10:                                        ; preds = %for.end
  %12 = load i32, i32* %i, align 4, !dbg !5680
  %inc11 = add i32 %12, 1, !dbg !5680
  store i32 %inc11, i32* %i, align 4, !dbg !5680
  br label %for.cond, !dbg !5681, !llvm.loop !5682

for.end12:                                        ; preds = %for.cond
  %sub_objects13 = getelementptr inbounds %"class.dealii::BlockSparsityPatternBase.9", %"class.dealii::BlockSparsityPatternBase.9"* %this1, i32 0, i32 3, !dbg !5684
  call void @_ZN6dealii5TableILi2ENS_12SmartPointerINS_25CompressedSparsityPatternEEEE6reinitEjj(%"class.dealii::Table.10"* %sub_objects13, i32 0, i32 0), !dbg !5685
  %13 = load i32, i32* %n_block_rows.addr, align 4, !dbg !5686
  %rows14 = getelementptr inbounds %"class.dealii::BlockSparsityPatternBase.9", %"class.dealii::BlockSparsityPatternBase.9"* %this1, i32 0, i32 1, !dbg !5687
  store i32 %13, i32* %rows14, align 8, !dbg !5688
  %14 = load i32, i32* %n_block_columns.addr, align 4, !dbg !5689
  %columns15 = getelementptr inbounds %"class.dealii::BlockSparsityPatternBase.9", %"class.dealii::BlockSparsityPatternBase.9"* %this1, i32 0, i32 2, !dbg !5690
  store i32 %14, i32* %columns15, align 4, !dbg !5691
  %sub_objects16 = getelementptr inbounds %"class.dealii::BlockSparsityPatternBase.9", %"class.dealii::BlockSparsityPatternBase.9"* %this1, i32 0, i32 3, !dbg !5692
  %rows17 = getelementptr inbounds %"class.dealii::BlockSparsityPatternBase.9", %"class.dealii::BlockSparsityPatternBase.9"* %this1, i32 0, i32 1, !dbg !5693
  %15 = load i32, i32* %rows17, align 8, !dbg !5693
  %columns18 = getelementptr inbounds %"class.dealii::BlockSparsityPatternBase.9", %"class.dealii::BlockSparsityPatternBase.9"* %this1, i32 0, i32 2, !dbg !5694
  %16 = load i32, i32* %columns18, align 4, !dbg !5694
  call void @_ZN6dealii5TableILi2ENS_12SmartPointerINS_25CompressedSparsityPatternEEEE6reinitEjj(%"class.dealii::Table.10"* %sub_objects16, i32 %15, i32 %16), !dbg !5695
  call void @llvm.dbg.declare(metadata i32* %i19, metadata !5696, metadata !DIExpression()), !dbg !5698
  store i32 0, i32* %i19, align 4, !dbg !5698
  br label %for.cond20, !dbg !5699

for.cond20:                                       ; preds = %for.inc37, %for.end12
  %17 = load i32, i32* %i19, align 4, !dbg !5700
  %rows21 = getelementptr inbounds %"class.dealii::BlockSparsityPatternBase.9", %"class.dealii::BlockSparsityPatternBase.9"* %this1, i32 0, i32 1, !dbg !5702
  %18 = load i32, i32* %rows21, align 8, !dbg !5702
  %cmp22 = icmp ult i32 %17, %18, !dbg !5703
  br i1 %cmp22, label %for.body23, label %for.end39, !dbg !5704

for.body23:                                       ; preds = %for.cond20
  call void @llvm.dbg.declare(metadata i32* %j24, metadata !5705, metadata !DIExpression()), !dbg !5707
  store i32 0, i32* %j24, align 4, !dbg !5707
  br label %for.cond25, !dbg !5708

for.cond25:                                       ; preds = %for.inc34, %for.body23
  %19 = load i32, i32* %j24, align 4, !dbg !5709
  %columns26 = getelementptr inbounds %"class.dealii::BlockSparsityPatternBase.9", %"class.dealii::BlockSparsityPatternBase.9"* %this1, i32 0, i32 2, !dbg !5711
  %20 = load i32, i32* %columns26, align 4, !dbg !5711
  %cmp27 = icmp ult i32 %19, %20, !dbg !5712
  br i1 %cmp27, label %for.body28, label %for.end36, !dbg !5713

for.body28:                                       ; preds = %for.cond25
  call void @llvm.dbg.declare(metadata %"class.dealii::CompressedSparsityPattern"** %p, metadata !5714, metadata !DIExpression()), !dbg !5716
  %call29 = call i8* @_Znwm(i64 104) #13, !dbg !5717
  %21 = bitcast i8* %call29 to %"class.dealii::CompressedSparsityPattern"*, !dbg !5717
  invoke void @_ZN6dealii25CompressedSparsityPatternC1Ev(%"class.dealii::CompressedSparsityPattern"* %21)
          to label %invoke.cont unwind label %lpad, !dbg !5718

invoke.cont:                                      ; preds = %for.body28
  store %"class.dealii::CompressedSparsityPattern"* %21, %"class.dealii::CompressedSparsityPattern"** %p, align 8, !dbg !5716
  %22 = load %"class.dealii::CompressedSparsityPattern"*, %"class.dealii::CompressedSparsityPattern"** %p, align 8, !dbg !5719
  %sub_objects31 = getelementptr inbounds %"class.dealii::BlockSparsityPatternBase.9", %"class.dealii::BlockSparsityPatternBase.9"* %this1, i32 0, i32 3, !dbg !5720
  %23 = load i32, i32* %i19, align 4, !dbg !5721
  call void @_ZN6dealii5TableILi2ENS_12SmartPointerINS_25CompressedSparsityPatternEEEEixEj(%"class.dealii::internal::TableBaseAccessors::Accessor.20"* sret %ref.tmp30, %"class.dealii::Table.10"* %sub_objects31, i32 %23), !dbg !5720
  %24 = load i32, i32* %j24, align 4, !dbg !5722
  %call32 = call dereferenceable(16) %"class.dealii::SmartPointer.12"* @_ZNK6dealii8internal18TableBaseAccessors8AccessorILi2ENS_12SmartPointerINS_25CompressedSparsityPatternEEELb0ELj1EEixEj(%"class.dealii::internal::TableBaseAccessors::Accessor.20"* %ref.tmp30, i32 %24), !dbg !5720
  %call33 = call dereferenceable(16) %"class.dealii::SmartPointer.12"* @_ZN6dealii12SmartPointerINS_25CompressedSparsityPatternEEaSEPS1_(%"class.dealii::SmartPointer.12"* %call32, %"class.dealii::CompressedSparsityPattern"* %22), !dbg !5723
  br label %for.inc34, !dbg !5724

for.inc34:                                        ; preds = %invoke.cont
  %25 = load i32, i32* %j24, align 4, !dbg !5725
  %inc35 = add i32 %25, 1, !dbg !5725
  store i32 %inc35, i32* %j24, align 4, !dbg !5725
  br label %for.cond25, !dbg !5726, !llvm.loop !5727

lpad:                                             ; preds = %for.body28
  %26 = landingpad { i8*, i32 }
          cleanup, !dbg !5729
  %27 = extractvalue { i8*, i32 } %26, 0, !dbg !5729
  store i8* %27, i8** %exn.slot, align 8, !dbg !5729
  %28 = extractvalue { i8*, i32 } %26, 1, !dbg !5729
  store i32 %28, i32* %ehselector.slot, align 4, !dbg !5729
  call void @_ZdlPv(i8* %call29) #14, !dbg !5717
  br label %eh.resume, !dbg !5717

for.end36:                                        ; preds = %for.cond25
  br label %for.inc37, !dbg !5728

for.inc37:                                        ; preds = %for.end36
  %29 = load i32, i32* %i19, align 4, !dbg !5730
  %inc38 = add i32 %29, 1, !dbg !5730
  store i32 %inc38, i32* %i19, align 4, !dbg !5730
  br label %for.cond20, !dbg !5731, !llvm.loop !5732

for.end39:                                        ; preds = %for.cond20
  ret void, !dbg !5734

eh.resume:                                        ; preds = %lpad
  %exn = load i8*, i8** %exn.slot, align 8, !dbg !5717
  %sel = load i32, i32* %ehselector.slot, align 4, !dbg !5717
  %lpad.val = insertvalue { i8*, i32 } undef, i8* %exn, 0, !dbg !5717
  %lpad.val40 = insertvalue { i8*, i32 } %lpad.val, i32 %sel, 1, !dbg !5717
  resume { i8*, i32 } %lpad.val40, !dbg !5717
}

; Function Attrs: noinline uwtable
define weak_odr dso_local void @_ZN6dealii24BlockSparsityPatternBaseINS_25CompressedSparsityPatternEEC2ERKS2_(%"class.dealii::BlockSparsityPatternBase.9"* %this, %"class.dealii::BlockSparsityPatternBase.9"* dereferenceable(288) %s) unnamed_addr #0 comdat($_ZN6dealii24BlockSparsityPatternBaseINS_25CompressedSparsityPatternEEC5ERKS2_) align 2 personality i8* bitcast (i32 (...)* @__gxx_personality_v0 to i8*) !dbg !5735 {
entry:
  %this.addr = alloca %"class.dealii::BlockSparsityPatternBase.9"*, align 8
  %s.addr = alloca %"class.dealii::BlockSparsityPatternBase.9"*, align 8
  %exn.slot = alloca i8*
  %ehselector.slot = alloca i32
  store %"class.dealii::BlockSparsityPatternBase.9"* %this, %"class.dealii::BlockSparsityPatternBase.9"** %this.addr, align 8
  call void @llvm.dbg.declare(metadata %"class.dealii::BlockSparsityPatternBase.9"** %this.addr, metadata !5736, metadata !DIExpression()), !dbg !5737
  store %"class.dealii::BlockSparsityPatternBase.9"* %s, %"class.dealii::BlockSparsityPatternBase.9"** %s.addr, align 8
  call void @llvm.dbg.declare(metadata %"class.dealii::BlockSparsityPatternBase.9"** %s.addr, metadata !5738, metadata !DIExpression()), !dbg !5739
  %this1 = load %"class.dealii::BlockSparsityPatternBase.9"*, %"class.dealii::BlockSparsityPatternBase.9"** %this.addr, align 8
  %0 = bitcast %"class.dealii::BlockSparsityPatternBase.9"* %this1 to %"class.dealii::Subscriptor"*, !dbg !5740
  call void @_ZN6dealii11SubscriptorC2Ev(%"class.dealii::Subscriptor"* %0), !dbg !5741
  %1 = bitcast %"class.dealii::BlockSparsityPatternBase.9"* %this1 to i32 (...)***, !dbg !5740
  store i32 (...)** bitcast (i8** getelementptr inbounds ({ [4 x i8*] }, { [4 x i8*] }* @_ZTVN6dealii24BlockSparsityPatternBaseINS_25CompressedSparsityPatternEEE, i32 0, inrange i32 0, i32 2) to i32 (...)**), i32 (...)*** %1, align 8, !dbg !5740
  %sub_objects = getelementptr inbounds %"class.dealii::BlockSparsityPatternBase.9", %"class.dealii::BlockSparsityPatternBase.9"* %this1, i32 0, i32 3, !dbg !5742
  invoke void @_ZN6dealii5TableILi2ENS_12SmartPointerINS_25CompressedSparsityPatternEEEEC2Ev(%"class.dealii::Table.10"* %sub_objects)
          to label %invoke.cont unwind label %lpad, !dbg !5742

invoke.cont:                                      ; preds = %entry
  %row_indices = getelementptr inbounds %"class.dealii::BlockSparsityPatternBase.9", %"class.dealii::BlockSparsityPatternBase.9"* %this1, i32 0, i32 4, !dbg !5742
  invoke void @_ZN6dealii12BlockIndicesC2Ej(%"class.dealii::BlockIndices"* %row_indices, i32 0)
          to label %invoke.cont3 unwind label %lpad2, !dbg !5742

invoke.cont3:                                     ; preds = %invoke.cont
  %column_indices = getelementptr inbounds %"class.dealii::BlockSparsityPatternBase.9", %"class.dealii::BlockSparsityPatternBase.9"* %this1, i32 0, i32 5, !dbg !5742
  invoke void @_ZN6dealii12BlockIndicesC2Ej(%"class.dealii::BlockIndices"* %column_indices, i32 0)
          to label %invoke.cont5 unwind label %lpad4, !dbg !5742

invoke.cont5:                                     ; preds = %invoke.cont3
  %counter_within_block = getelementptr inbounds %"class.dealii::BlockSparsityPatternBase.9", %"class.dealii::BlockSparsityPatternBase.9"* %this1, i32 0, i32 6, !dbg !5742
  call void @_ZNSt6vectorIjSaIjEEC2Ev(%"class.std::vector"* %counter_within_block) #3, !dbg !5742
  %block_column_indices = getelementptr inbounds %"class.dealii::BlockSparsityPatternBase.9", %"class.dealii::BlockSparsityPatternBase.9"* %this1, i32 0, i32 7, !dbg !5742
  call void @_ZNSt6vectorIS_IjSaIjEESaIS1_EEC2Ev(%"class.std::vector.3"* %block_column_indices) #3, !dbg !5742
  %rows = getelementptr inbounds %"class.dealii::BlockSparsityPatternBase.9", %"class.dealii::BlockSparsityPatternBase.9"* %this1, i32 0, i32 1, !dbg !5744
  store i32 0, i32* %rows, align 8, !dbg !5747
  %columns = getelementptr inbounds %"class.dealii::BlockSparsityPatternBase.9", %"class.dealii::BlockSparsityPatternBase.9"* %this1, i32 0, i32 2, !dbg !5748
  store i32 0, i32* %columns, align 4, !dbg !5749
  ret void, !dbg !5750

lpad:                                             ; preds = %entry
  %2 = landingpad { i8*, i32 }
          cleanup, !dbg !5750
  %3 = extractvalue { i8*, i32 } %2, 0, !dbg !5750
  store i8* %3, i8** %exn.slot, align 8, !dbg !5750
  %4 = extractvalue { i8*, i32 } %2, 1, !dbg !5750
  store i32 %4, i32* %ehselector.slot, align 4, !dbg !5750
  br label %ehcleanup6, !dbg !5750

lpad2:                                            ; preds = %invoke.cont
  %5 = landingpad { i8*, i32 }
          cleanup, !dbg !5750
  %6 = extractvalue { i8*, i32 } %5, 0, !dbg !5750
  store i8* %6, i8** %exn.slot, align 8, !dbg !5750
  %7 = extractvalue { i8*, i32 } %5, 1, !dbg !5750
  store i32 %7, i32* %ehselector.slot, align 4, !dbg !5750
  br label %ehcleanup, !dbg !5750

lpad4:                                            ; preds = %invoke.cont3
  %8 = landingpad { i8*, i32 }
          cleanup, !dbg !5750
  %9 = extractvalue { i8*, i32 } %8, 0, !dbg !5750
  store i8* %9, i8** %exn.slot, align 8, !dbg !5750
  %10 = extractvalue { i8*, i32 } %8, 1, !dbg !5750
  store i32 %10, i32* %ehselector.slot, align 4, !dbg !5750
  call void @_ZN6dealii12BlockIndicesD2Ev(%"class.dealii::BlockIndices"* %row_indices) #3, !dbg !5751
  br label %ehcleanup, !dbg !5751

ehcleanup:                                        ; preds = %lpad4, %lpad2
  call void @_ZN6dealii5TableILi2ENS_12SmartPointerINS_25CompressedSparsityPatternEEEED2Ev(%"class.dealii::Table.10"* %sub_objects) #3, !dbg !5751
  br label %ehcleanup6, !dbg !5751

ehcleanup6:                                       ; preds = %ehcleanup, %lpad
  %11 = bitcast %"class.dealii::BlockSparsityPatternBase.9"* %this1 to %"class.dealii::Subscriptor"*, !dbg !5751
  call void @_ZN6dealii11SubscriptorD2Ev(%"class.dealii::Subscriptor"* %11) #3, !dbg !5751
  br label %eh.resume, !dbg !5751

eh.resume:                                        ; preds = %ehcleanup6
  %exn = load i8*, i8** %exn.slot, align 8, !dbg !5751
  %sel = load i32, i32* %ehselector.slot, align 4, !dbg !5751
  %lpad.val = insertvalue { i8*, i32 } undef, i8* %exn, 0, !dbg !5751
  %lpad.val7 = insertvalue { i8*, i32 } %lpad.val, i32 %sel, 1, !dbg !5751
  resume { i8*, i32 } %lpad.val7, !dbg !5751
}

; Function Attrs: noinline nounwind uwtable
define weak_odr dso_local void @_ZN6dealii24BlockSparsityPatternBaseINS_25CompressedSparsityPatternEED2Ev(%"class.dealii::BlockSparsityPatternBase.9"* %this) unnamed_addr #5 comdat($_ZN6dealii24BlockSparsityPatternBaseINS_25CompressedSparsityPatternEED5Ev) align 2 personality i8* bitcast (i32 (...)* @__gxx_personality_v0 to i8*) !dbg !5752 {
entry:
  %this.addr = alloca %"class.dealii::BlockSparsityPatternBase.9"*, align 8
  %exn.slot = alloca i8*
  %ehselector.slot = alloca i32
  store %"class.dealii::BlockSparsityPatternBase.9"* %this, %"class.dealii::BlockSparsityPatternBase.9"** %this.addr, align 8
  call void @llvm.dbg.declare(metadata %"class.dealii::BlockSparsityPatternBase.9"** %this.addr, metadata !5753, metadata !DIExpression()), !dbg !5754
  %this1 = load %"class.dealii::BlockSparsityPatternBase.9"*, %"class.dealii::BlockSparsityPatternBase.9"** %this.addr, align 8
  %0 = bitcast %"class.dealii::BlockSparsityPatternBase.9"* %this1 to i32 (...)***, !dbg !5755
  store i32 (...)** bitcast (i8** getelementptr inbounds ({ [4 x i8*] }, { [4 x i8*] }* @_ZTVN6dealii24BlockSparsityPatternBaseINS_25CompressedSparsityPatternEEE, i32 0, inrange i32 0, i32 2) to i32 (...)**), i32 (...)*** %0, align 8, !dbg !5755
  invoke void @_ZN6dealii24BlockSparsityPatternBaseINS_25CompressedSparsityPatternEE6reinitEjj(%"class.dealii::BlockSparsityPatternBase.9"* %this1, i32 0, i32 0)
          to label %invoke.cont unwind label %lpad, !dbg !5756

invoke.cont:                                      ; preds = %entry
  %block_column_indices = getelementptr inbounds %"class.dealii::BlockSparsityPatternBase.9", %"class.dealii::BlockSparsityPatternBase.9"* %this1, i32 0, i32 7, !dbg !5758
  call void @_ZNSt6vectorIS_IjSaIjEESaIS1_EED2Ev(%"class.std::vector.3"* %block_column_indices) #3, !dbg !5758
  %counter_within_block = getelementptr inbounds %"class.dealii::BlockSparsityPatternBase.9", %"class.dealii::BlockSparsityPatternBase.9"* %this1, i32 0, i32 6, !dbg !5758
  call void @_ZNSt6vectorIjSaIjEED2Ev(%"class.std::vector"* %counter_within_block) #3, !dbg !5758
  %column_indices = getelementptr inbounds %"class.dealii::BlockSparsityPatternBase.9", %"class.dealii::BlockSparsityPatternBase.9"* %this1, i32 0, i32 5, !dbg !5758
  call void @_ZN6dealii12BlockIndicesD2Ev(%"class.dealii::BlockIndices"* %column_indices) #3, !dbg !5758
  %row_indices = getelementptr inbounds %"class.dealii::BlockSparsityPatternBase.9", %"class.dealii::BlockSparsityPatternBase.9"* %this1, i32 0, i32 4, !dbg !5758
  call void @_ZN6dealii12BlockIndicesD2Ev(%"class.dealii::BlockIndices"* %row_indices) #3, !dbg !5758
  %sub_objects = getelementptr inbounds %"class.dealii::BlockSparsityPatternBase.9", %"class.dealii::BlockSparsityPatternBase.9"* %this1, i32 0, i32 3, !dbg !5758
  call void @_ZN6dealii5TableILi2ENS_12SmartPointerINS_25CompressedSparsityPatternEEEED2Ev(%"class.dealii::Table.10"* %sub_objects) #3, !dbg !5758
  %1 = bitcast %"class.dealii::BlockSparsityPatternBase.9"* %this1 to %"class.dealii::Subscriptor"*, !dbg !5758
  call void @_ZN6dealii11SubscriptorD2Ev(%"class.dealii::Subscriptor"* %1) #3, !dbg !5758
  ret void, !dbg !5759

lpad:                                             ; preds = %entry
  %2 = landingpad { i8*, i32 }
          catch i8* null, !dbg !5758
  %3 = extractvalue { i8*, i32 } %2, 0, !dbg !5758
  store i8* %3, i8** %exn.slot, align 8, !dbg !5758
  %4 = extractvalue { i8*, i32 } %2, 1, !dbg !5758
  store i32 %4, i32* %ehselector.slot, align 4, !dbg !5758
  %block_column_indices2 = getelementptr inbounds %"class.dealii::BlockSparsityPatternBase.9", %"class.dealii::BlockSparsityPatternBase.9"* %this1, i32 0, i32 7, !dbg !5758
  call void @_ZNSt6vectorIS_IjSaIjEESaIS1_EED2Ev(%"class.std::vector.3"* %block_column_indices2) #3, !dbg !5758
  %counter_within_block3 = getelementptr inbounds %"class.dealii::BlockSparsityPatternBase.9", %"class.dealii::BlockSparsityPatternBase.9"* %this1, i32 0, i32 6, !dbg !5758
  call void @_ZNSt6vectorIjSaIjEED2Ev(%"class.std::vector"* %counter_within_block3) #3, !dbg !5758
  %column_indices4 = getelementptr inbounds %"class.dealii::BlockSparsityPatternBase.9", %"class.dealii::BlockSparsityPatternBase.9"* %this1, i32 0, i32 5, !dbg !5758
  call void @_ZN6dealii12BlockIndicesD2Ev(%"class.dealii::BlockIndices"* %column_indices4) #3, !dbg !5758
  %row_indices5 = getelementptr inbounds %"class.dealii::BlockSparsityPatternBase.9", %"class.dealii::BlockSparsityPatternBase.9"* %this1, i32 0, i32 4, !dbg !5758
  call void @_ZN6dealii12BlockIndicesD2Ev(%"class.dealii::BlockIndices"* %row_indices5) #3, !dbg !5758
  %sub_objects6 = getelementptr inbounds %"class.dealii::BlockSparsityPatternBase.9", %"class.dealii::BlockSparsityPatternBase.9"* %this1, i32 0, i32 3, !dbg !5758
  call void @_ZN6dealii5TableILi2ENS_12SmartPointerINS_25CompressedSparsityPatternEEEED2Ev(%"class.dealii::Table.10"* %sub_objects6) #3, !dbg !5758
  %5 = bitcast %"class.dealii::BlockSparsityPatternBase.9"* %this1 to %"class.dealii::Subscriptor"*, !dbg !5758
  call void @_ZN6dealii11SubscriptorD2Ev(%"class.dealii::Subscriptor"* %5) #3, !dbg !5758
  br label %terminate.handler, !dbg !5758

terminate.handler:                                ; preds = %lpad
  %exn = load i8*, i8** %exn.slot, align 8, !dbg !5758
  call void @__clang_call_terminate(i8* %exn) #15, !dbg !5758
  unreachable, !dbg !5758
}

; Function Attrs: noinline nounwind uwtable
define weak_odr dso_local void @_ZN6dealii24BlockSparsityPatternBaseINS_25CompressedSparsityPatternEED0Ev(%"class.dealii::BlockSparsityPatternBase.9"* %this) unnamed_addr #5 comdat($_ZN6dealii24BlockSparsityPatternBaseINS_25CompressedSparsityPatternEED5Ev) align 2 !dbg !5760 {
entry:
  %this.addr = alloca %"class.dealii::BlockSparsityPatternBase.9"*, align 8
  store %"class.dealii::BlockSparsityPatternBase.9"* %this, %"class.dealii::BlockSparsityPatternBase.9"** %this.addr, align 8
  call void @llvm.dbg.declare(metadata %"class.dealii::BlockSparsityPatternBase.9"** %this.addr, metadata !5761, metadata !DIExpression()), !dbg !5762
  %this1 = load %"class.dealii::BlockSparsityPatternBase.9"*, %"class.dealii::BlockSparsityPatternBase.9"** %this.addr, align 8
  call void @_ZN6dealii24BlockSparsityPatternBaseINS_25CompressedSparsityPatternEED1Ev(%"class.dealii::BlockSparsityPatternBase.9"* %this1) #3, !dbg !5763
  %0 = bitcast %"class.dealii::BlockSparsityPatternBase.9"* %this1 to i8*, !dbg !5763
  call void @_ZdlPv(i8* %0) #14, !dbg !5763
  ret void, !dbg !5764
}

; Function Attrs: noinline uwtable
define linkonce_odr dso_local void @_ZN6dealii5TableILi2ENS_12SmartPointerINS_25CompressedSparsityPatternEEEEixEj(%"class.dealii::internal::TableBaseAccessors::Accessor.20"* noalias sret %agg.result, %"class.dealii::Table.10"* %this, i32 %i) #0 comdat align 2 !dbg !5765 {
entry:
  %result.ptr = alloca i8*, align 8
  %this.addr = alloca %"class.dealii::Table.10"*, align 8
  %i.addr = alloca i32, align 4
  %0 = bitcast %"class.dealii::internal::TableBaseAccessors::Accessor.20"* %agg.result to i8*
  store i8* %0, i8** %result.ptr, align 8
  store %"class.dealii::Table.10"* %this, %"class.dealii::Table.10"** %this.addr, align 8
  call void @llvm.dbg.declare(metadata %"class.dealii::Table.10"** %this.addr, metadata !5766, metadata !DIExpression()), !dbg !5767
  store i32 %i, i32* %i.addr, align 4
  call void @llvm.dbg.declare(metadata i32* %i.addr, metadata !5768, metadata !DIExpression()), !dbg !5769
  %this1 = load %"class.dealii::Table.10"*, %"class.dealii::Table.10"** %this.addr, align 8
  %1 = bitcast %"class.dealii::Table.10"* %this1 to %"class.dealii::TableBase.11"*, !dbg !5770
  %2 = bitcast %"class.dealii::Table.10"* %this1 to %"class.dealii::TableBase.11"*, !dbg !5771
  %val = getelementptr inbounds %"class.dealii::TableBase.11", %"class.dealii::TableBase.11"* %2, i32 0, i32 1, !dbg !5771
  %3 = load %"class.dealii::SmartPointer.12"*, %"class.dealii::SmartPointer.12"** %val, align 8, !dbg !5771
  %4 = load i32, i32* %i.addr, align 4, !dbg !5772
  %call = call i32 @_ZNK6dealii5TableILi2ENS_12SmartPointerINS_25CompressedSparsityPatternEEEE6n_colsEv(%"class.dealii::Table.10"* %this1), !dbg !5773
  %mul = mul i32 %4, %call, !dbg !5774
  %idx.ext = zext i32 %mul to i64, !dbg !5775
  %add.ptr = getelementptr inbounds %"class.dealii::SmartPointer.12", %"class.dealii::SmartPointer.12"* %3, i64 %idx.ext, !dbg !5775
  call void @_ZN6dealii8internal18TableBaseAccessors8AccessorILi2ENS_12SmartPointerINS_25CompressedSparsityPatternEEELb0ELj1EEC2ERKNS_9TableBaseILi2ES5_EEPS5_(%"class.dealii::internal::TableBaseAccessors::Accessor.20"* %agg.result, %"class.dealii::TableBase.11"* dereferenceable(96) %1, %"class.dealii::SmartPointer.12"* %add.ptr), !dbg !5776
  ret void, !dbg !5777
}

; Function Attrs: noinline nounwind uwtable
define linkonce_odr dso_local dereferenceable(16) %"class.dealii::SmartPointer.12"* @_ZNK6dealii8internal18TableBaseAccessors8AccessorILi2ENS_12SmartPointerINS_25CompressedSparsityPatternEEELb0ELj1EEixEj(%"class.dealii::internal::TableBaseAccessors::Accessor.20"* %this, i32 %i) #5 comdat align 2 !dbg !5778 {
entry:
  %this.addr = alloca %"class.dealii::internal::TableBaseAccessors::Accessor.20"*, align 8
  %i.addr = alloca i32, align 4
  store %"class.dealii::internal::TableBaseAccessors::Accessor.20"* %this, %"class.dealii::internal::TableBaseAccessors::Accessor.20"** %this.addr, align 8
  call void @llvm.dbg.declare(metadata %"class.dealii::internal::TableBaseAccessors::Accessor.20"** %this.addr, metadata !5779, metadata !DIExpression()), !dbg !5781
  store i32 %i, i32* %i.addr, align 4
  call void @llvm.dbg.declare(metadata i32* %i.addr, metadata !5782, metadata !DIExpression()), !dbg !5783
  %this1 = load %"class.dealii::internal::TableBaseAccessors::Accessor.20"*, %"class.dealii::internal::TableBaseAccessors::Accessor.20"** %this.addr, align 8
  %data = getelementptr inbounds %"class.dealii::internal::TableBaseAccessors::Accessor.20", %"class.dealii::internal::TableBaseAccessors::Accessor.20"* %this1, i32 0, i32 1, !dbg !5784
  %0 = load %"class.dealii::SmartPointer.12"*, %"class.dealii::SmartPointer.12"** %data, align 8, !dbg !5784
  %1 = load i32, i32* %i.addr, align 4, !dbg !5785
  %idxprom = zext i32 %1 to i64, !dbg !5784
  %arrayidx = getelementptr inbounds %"class.dealii::SmartPointer.12", %"class.dealii::SmartPointer.12"* %0, i64 %idxprom, !dbg !5784
  ret %"class.dealii::SmartPointer.12"* %arrayidx, !dbg !5786
}

; Function Attrs: noinline nounwind uwtable
define linkonce_odr dso_local %"class.dealii::CompressedSparsityPattern"* @_ZNK6dealii12SmartPointerINS_25CompressedSparsityPatternEEcvPS1_Ev(%"class.dealii::SmartPointer.12"* %this) #5 comdat align 2 !dbg !5787 {
entry:
  %this.addr = alloca %"class.dealii::SmartPointer.12"*, align 8
  store %"class.dealii::SmartPointer.12"* %this, %"class.dealii::SmartPointer.12"** %this.addr, align 8
  call void @llvm.dbg.declare(metadata %"class.dealii::SmartPointer.12"** %this.addr, metadata !5788, metadata !DIExpression()), !dbg !5789
  %this1 = load %"class.dealii::SmartPointer.12"*, %"class.dealii::SmartPointer.12"** %this.addr, align 8
  %t = getelementptr inbounds %"class.dealii::SmartPointer.12", %"class.dealii::SmartPointer.12"* %this1, i32 0, i32 0, !dbg !5790
  %0 = load %"class.dealii::CompressedSparsityPattern"*, %"class.dealii::CompressedSparsityPattern"** %t, align 8, !dbg !5790
  ret %"class.dealii::CompressedSparsityPattern"* %0, !dbg !5791
}

; Function Attrs: noinline nounwind uwtable
define linkonce_odr dso_local dereferenceable(16) %"class.dealii::SmartPointer.12"* @_ZN6dealii12SmartPointerINS_25CompressedSparsityPatternEEaSEPS1_(%"class.dealii::SmartPointer.12"* %this, %"class.dealii::CompressedSparsityPattern"* %tt) #5 comdat align 2 !dbg !5792 {
entry:
  %retval = alloca %"class.dealii::SmartPointer.12"*, align 8
  %this.addr = alloca %"class.dealii::SmartPointer.12"*, align 8
  %tt.addr = alloca %"class.dealii::CompressedSparsityPattern"*, align 8
  store %"class.dealii::SmartPointer.12"* %this, %"class.dealii::SmartPointer.12"** %this.addr, align 8
  call void @llvm.dbg.declare(metadata %"class.dealii::SmartPointer.12"** %this.addr, metadata !5793, metadata !DIExpression()), !dbg !5794
  store %"class.dealii::CompressedSparsityPattern"* %tt, %"class.dealii::CompressedSparsityPattern"** %tt.addr, align 8
  call void @llvm.dbg.declare(metadata %"class.dealii::CompressedSparsityPattern"** %tt.addr, metadata !5795, metadata !DIExpression()), !dbg !5796
  %this1 = load %"class.dealii::SmartPointer.12"*, %"class.dealii::SmartPointer.12"** %this.addr, align 8
  %t = getelementptr inbounds %"class.dealii::SmartPointer.12", %"class.dealii::SmartPointer.12"* %this1, i32 0, i32 0, !dbg !5797
  %0 = load %"class.dealii::CompressedSparsityPattern"*, %"class.dealii::CompressedSparsityPattern"** %t, align 8, !dbg !5797
  %1 = load %"class.dealii::CompressedSparsityPattern"*, %"class.dealii::CompressedSparsityPattern"** %tt.addr, align 8, !dbg !5799
  %cmp = icmp eq %"class.dealii::CompressedSparsityPattern"* %0, %1, !dbg !5800
  br i1 %cmp, label %if.then, label %if.end, !dbg !5801

if.then:                                          ; preds = %entry
  store %"class.dealii::SmartPointer.12"* %this1, %"class.dealii::SmartPointer.12"** %retval, align 8, !dbg !5802
  br label %return, !dbg !5802

if.end:                                           ; preds = %entry
  %t2 = getelementptr inbounds %"class.dealii::SmartPointer.12", %"class.dealii::SmartPointer.12"* %this1, i32 0, i32 0, !dbg !5803
  %2 = load %"class.dealii::CompressedSparsityPattern"*, %"class.dealii::CompressedSparsityPattern"** %t2, align 8, !dbg !5803
  %cmp3 = icmp ne %"class.dealii::CompressedSparsityPattern"* %2, null, !dbg !5805
  br i1 %cmp3, label %if.then4, label %if.end6, !dbg !5806

if.then4:                                         ; preds = %if.end
  %t5 = getelementptr inbounds %"class.dealii::SmartPointer.12", %"class.dealii::SmartPointer.12"* %this1, i32 0, i32 0, !dbg !5807
  %3 = load %"class.dealii::CompressedSparsityPattern"*, %"class.dealii::CompressedSparsityPattern"** %t5, align 8, !dbg !5807
  %4 = bitcast %"class.dealii::CompressedSparsityPattern"* %3 to %"class.dealii::Subscriptor"*, !dbg !5808
  %id = getelementptr inbounds %"class.dealii::SmartPointer.12", %"class.dealii::SmartPointer.12"* %this1, i32 0, i32 1, !dbg !5809
  %5 = load i8*, i8** %id, align 8, !dbg !5809
  call void @_ZNK6dealii11Subscriptor11unsubscribeEPKc(%"class.dealii::Subscriptor"* %4, i8* %5), !dbg !5808
  br label %if.end6, !dbg !5807

if.end6:                                          ; preds = %if.then4, %if.end
  %6 = load %"class.dealii::CompressedSparsityPattern"*, %"class.dealii::CompressedSparsityPattern"** %tt.addr, align 8, !dbg !5810
  %t7 = getelementptr inbounds %"class.dealii::SmartPointer.12", %"class.dealii::SmartPointer.12"* %this1, i32 0, i32 0, !dbg !5811
  store %"class.dealii::CompressedSparsityPattern"* %6, %"class.dealii::CompressedSparsityPattern"** %t7, align 8, !dbg !5812
  %7 = load %"class.dealii::CompressedSparsityPattern"*, %"class.dealii::CompressedSparsityPattern"** %tt.addr, align 8, !dbg !5813
  %cmp8 = icmp ne %"class.dealii::CompressedSparsityPattern"* %7, null, !dbg !5815
  br i1 %cmp8, label %if.then9, label %if.end11, !dbg !5816

if.then9:                                         ; preds = %if.end6
  %8 = load %"class.dealii::CompressedSparsityPattern"*, %"class.dealii::CompressedSparsityPattern"** %tt.addr, align 8, !dbg !5817
  %9 = bitcast %"class.dealii::CompressedSparsityPattern"* %8 to %"class.dealii::Subscriptor"*, !dbg !5818
  %id10 = getelementptr inbounds %"class.dealii::SmartPointer.12", %"class.dealii::SmartPointer.12"* %this1, i32 0, i32 1, !dbg !5819
  %10 = load i8*, i8** %id10, align 8, !dbg !5819
  call void @_ZNK6dealii11Subscriptor9subscribeEPKc(%"class.dealii::Subscriptor"* %9, i8* %10), !dbg !5818
  br label %if.end11, !dbg !5817

if.end11:                                         ; preds = %if.then9, %if.end6
  store %"class.dealii::SmartPointer.12"* %this1, %"class.dealii::SmartPointer.12"** %retval, align 8, !dbg !5820
  br label %return, !dbg !5820

return:                                           ; preds = %if.end11, %if.then
  %11 = load %"class.dealii::SmartPointer.12"*, %"class.dealii::SmartPointer.12"** %retval, align 8, !dbg !5821
  ret %"class.dealii::SmartPointer.12"* %11, !dbg !5821
}

; Function Attrs: noinline uwtable
define linkonce_odr dso_local void @_ZN6dealii5TableILi2ENS_12SmartPointerINS_25CompressedSparsityPatternEEEE6reinitEjj(%"class.dealii::Table.10"* %this, i32 %size1, i32 %size2) #0 comdat align 2 !dbg !5822 {
entry:
  %this.addr = alloca %"class.dealii::Table.10"*, align 8
  %size1.addr = alloca i32, align 4
  %size2.addr = alloca i32, align 4
  %ref.tmp = alloca %"class.dealii::TableIndices", align 4
  store %"class.dealii::Table.10"* %this, %"class.dealii::Table.10"** %this.addr, align 8
  call void @llvm.dbg.declare(metadata %"class.dealii::Table.10"** %this.addr, metadata !5823, metadata !DIExpression()), !dbg !5824
  store i32 %size1, i32* %size1.addr, align 4
  call void @llvm.dbg.declare(metadata i32* %size1.addr, metadata !5825, metadata !DIExpression()), !dbg !5826
  store i32 %size2, i32* %size2.addr, align 4
  call void @llvm.dbg.declare(metadata i32* %size2.addr, metadata !5827, metadata !DIExpression()), !dbg !5828
  %this1 = load %"class.dealii::Table.10"*, %"class.dealii::Table.10"** %this.addr, align 8
  %0 = bitcast %"class.dealii::Table.10"* %this1 to %"class.dealii::TableBase.11"*, !dbg !5829
  %1 = load i32, i32* %size1.addr, align 4, !dbg !5830
  %2 = load i32, i32* %size2.addr, align 4, !dbg !5831
  call void @_ZN6dealii12TableIndicesILi2EEC2Ejj(%"class.dealii::TableIndices"* %ref.tmp, i32 %1, i32 %2), !dbg !5832
  call void @_ZN6dealii9TableBaseILi2ENS_12SmartPointerINS_25CompressedSparsityPatternEEEE6reinitERKNS_12TableIndicesILi2EEE(%"class.dealii::TableBase.11"* %0, %"class.dealii::TableIndices"* dereferenceable(8) %ref.tmp), !dbg !5829
  ret void, !dbg !5833
}

declare dso_local void @_ZN6dealii25CompressedSparsityPatternC1Ev(%"class.dealii::CompressedSparsityPattern"*) unnamed_addr #1

; Function Attrs: noinline uwtable
define weak_odr dso_local dereferenceable(288) %"class.dealii::BlockSparsityPatternBase.9"* @_ZN6dealii24BlockSparsityPatternBaseINS_25CompressedSparsityPatternEEaSERKS2_(%"class.dealii::BlockSparsityPatternBase.9"* %this, %"class.dealii::BlockSparsityPatternBase.9"* dereferenceable(288) %bsp) #0 comdat align 2 !dbg !5834 {
entry:
  %this.addr = alloca %"class.dealii::BlockSparsityPatternBase.9"*, align 8
  %bsp.addr = alloca %"class.dealii::BlockSparsityPatternBase.9"*, align 8
  %i = alloca i32, align 4
  %j = alloca i32, align 4
  %ref.tmp = alloca %"class.dealii::internal::TableBaseAccessors::Accessor.21", align 8
  %ref.tmp6 = alloca %"class.dealii::internal::TableBaseAccessors::Accessor.20", align 8
  store %"class.dealii::BlockSparsityPatternBase.9"* %this, %"class.dealii::BlockSparsityPatternBase.9"** %this.addr, align 8
  call void @llvm.dbg.declare(metadata %"class.dealii::BlockSparsityPatternBase.9"** %this.addr, metadata !5835, metadata !DIExpression()), !dbg !5836
  store %"class.dealii::BlockSparsityPatternBase.9"* %bsp, %"class.dealii::BlockSparsityPatternBase.9"** %bsp.addr, align 8
  call void @llvm.dbg.declare(metadata %"class.dealii::BlockSparsityPatternBase.9"** %bsp.addr, metadata !5837, metadata !DIExpression()), !dbg !5838
  %this1 = load %"class.dealii::BlockSparsityPatternBase.9"*, %"class.dealii::BlockSparsityPatternBase.9"** %this.addr, align 8
  call void @llvm.dbg.declare(metadata i32* %i, metadata !5839, metadata !DIExpression()), !dbg !5841
  store i32 0, i32* %i, align 4, !dbg !5841
  br label %for.cond, !dbg !5842

for.cond:                                         ; preds = %for.inc11, %entry
  %0 = load i32, i32* %i, align 4, !dbg !5843
  %rows = getelementptr inbounds %"class.dealii::BlockSparsityPatternBase.9", %"class.dealii::BlockSparsityPatternBase.9"* %this1, i32 0, i32 1, !dbg !5845
  %1 = load i32, i32* %rows, align 8, !dbg !5845
  %cmp = icmp ult i32 %0, %1, !dbg !5846
  br i1 %cmp, label %for.body, label %for.end13, !dbg !5847

for.body:                                         ; preds = %for.cond
  call void @llvm.dbg.declare(metadata i32* %j, metadata !5848, metadata !DIExpression()), !dbg !5850
  store i32 0, i32* %j, align 4, !dbg !5850
  br label %for.cond2, !dbg !5851

for.cond2:                                        ; preds = %for.inc, %for.body
  %2 = load i32, i32* %j, align 4, !dbg !5852
  %columns = getelementptr inbounds %"class.dealii::BlockSparsityPatternBase.9", %"class.dealii::BlockSparsityPatternBase.9"* %this1, i32 0, i32 2, !dbg !5854
  %3 = load i32, i32* %columns, align 4, !dbg !5854
  %cmp3 = icmp ult i32 %2, %3, !dbg !5855
  br i1 %cmp3, label %for.body4, label %for.end, !dbg !5856

for.body4:                                        ; preds = %for.cond2
  %4 = load %"class.dealii::BlockSparsityPatternBase.9"*, %"class.dealii::BlockSparsityPatternBase.9"** %bsp.addr, align 8, !dbg !5857
  %sub_objects = getelementptr inbounds %"class.dealii::BlockSparsityPatternBase.9", %"class.dealii::BlockSparsityPatternBase.9"* %4, i32 0, i32 3, !dbg !5858
  %5 = load i32, i32* %i, align 4, !dbg !5859
  call void @_ZNK6dealii5TableILi2ENS_12SmartPointerINS_25CompressedSparsityPatternEEEEixEj(%"class.dealii::internal::TableBaseAccessors::Accessor.21"* sret %ref.tmp, %"class.dealii::Table.10"* %sub_objects, i32 %5), !dbg !5857
  %6 = load i32, i32* %j, align 4, !dbg !5860
  %call = call dereferenceable(16) %"class.dealii::SmartPointer.12"* @_ZNK6dealii8internal18TableBaseAccessors8AccessorILi2ENS_12SmartPointerINS_25CompressedSparsityPatternEEELb1ELj1EEixEj(%"class.dealii::internal::TableBaseAccessors::Accessor.21"* %ref.tmp, i32 %6), !dbg !5857
  %call5 = call dereferenceable(104) %"class.dealii::CompressedSparsityPattern"* @_ZNK6dealii12SmartPointerINS_25CompressedSparsityPatternEEdeEv(%"class.dealii::SmartPointer.12"* %call), !dbg !5861
  %sub_objects7 = getelementptr inbounds %"class.dealii::BlockSparsityPatternBase.9", %"class.dealii::BlockSparsityPatternBase.9"* %this1, i32 0, i32 3, !dbg !5862
  %7 = load i32, i32* %i, align 4, !dbg !5863
  call void @_ZN6dealii5TableILi2ENS_12SmartPointerINS_25CompressedSparsityPatternEEEEixEj(%"class.dealii::internal::TableBaseAccessors::Accessor.20"* sret %ref.tmp6, %"class.dealii::Table.10"* %sub_objects7, i32 %7), !dbg !5862
  %8 = load i32, i32* %j, align 4, !dbg !5864
  %call8 = call dereferenceable(16) %"class.dealii::SmartPointer.12"* @_ZNK6dealii8internal18TableBaseAccessors8AccessorILi2ENS_12SmartPointerINS_25CompressedSparsityPatternEEELb0ELj1EEixEj(%"class.dealii::internal::TableBaseAccessors::Accessor.20"* %ref.tmp6, i32 %8), !dbg !5862
  %call9 = call dereferenceable(104) %"class.dealii::CompressedSparsityPattern"* @_ZNK6dealii12SmartPointerINS_25CompressedSparsityPatternEEdeEv(%"class.dealii::SmartPointer.12"* %call8), !dbg !5865
  %call10 = call dereferenceable(104) %"class.dealii::CompressedSparsityPattern"* @_ZN6dealii25CompressedSparsityPatternaSERKS0_(%"class.dealii::CompressedSparsityPattern"* %call9, %"class.dealii::CompressedSparsityPattern"* dereferenceable(104) %call5), !dbg !5866
  br label %for.inc, !dbg !5865

for.inc:                                          ; preds = %for.body4
  %9 = load i32, i32* %j, align 4, !dbg !5867
  %inc = add i32 %9, 1, !dbg !5867
  store i32 %inc, i32* %j, align 4, !dbg !5867
  br label %for.cond2, !dbg !5868, !llvm.loop !5869

for.end:                                          ; preds = %for.cond2
  br label %for.inc11, !dbg !5870

for.inc11:                                        ; preds = %for.end
  %10 = load i32, i32* %i, align 4, !dbg !5871
  %inc12 = add i32 %10, 1, !dbg !5871
  store i32 %inc12, i32* %i, align 4, !dbg !5871
  br label %for.cond, !dbg !5872, !llvm.loop !5873

for.end13:                                        ; preds = %for.cond
  call void @_ZN6dealii24BlockSparsityPatternBaseINS_25CompressedSparsityPatternEE13collect_sizesEv(%"class.dealii::BlockSparsityPatternBase.9"* %this1), !dbg !5875
  ret %"class.dealii::BlockSparsityPatternBase.9"* %this1, !dbg !5876
}

; Function Attrs: noinline uwtable
define linkonce_odr dso_local void @_ZNK6dealii5TableILi2ENS_12SmartPointerINS_25CompressedSparsityPatternEEEEixEj(%"class.dealii::internal::TableBaseAccessors::Accessor.21"* noalias sret %agg.result, %"class.dealii::Table.10"* %this, i32 %i) #0 comdat align 2 !dbg !5877 {
entry:
  %result.ptr = alloca i8*, align 8
  %this.addr = alloca %"class.dealii::Table.10"*, align 8
  %i.addr = alloca i32, align 4
  %0 = bitcast %"class.dealii::internal::TableBaseAccessors::Accessor.21"* %agg.result to i8*
  store i8* %0, i8** %result.ptr, align 8
  store %"class.dealii::Table.10"* %this, %"class.dealii::Table.10"** %this.addr, align 8
  call void @llvm.dbg.declare(metadata %"class.dealii::Table.10"** %this.addr, metadata !5878, metadata !DIExpression()), !dbg !5880
  store i32 %i, i32* %i.addr, align 4
  call void @llvm.dbg.declare(metadata i32* %i.addr, metadata !5881, metadata !DIExpression()), !dbg !5882
  %this1 = load %"class.dealii::Table.10"*, %"class.dealii::Table.10"** %this.addr, align 8
  %1 = bitcast %"class.dealii::Table.10"* %this1 to %"class.dealii::TableBase.11"*, !dbg !5883
  %2 = bitcast %"class.dealii::Table.10"* %this1 to %"class.dealii::TableBase.11"*, !dbg !5884
  %val = getelementptr inbounds %"class.dealii::TableBase.11", %"class.dealii::TableBase.11"* %2, i32 0, i32 1, !dbg !5884
  %3 = load %"class.dealii::SmartPointer.12"*, %"class.dealii::SmartPointer.12"** %val, align 8, !dbg !5884
  %4 = load i32, i32* %i.addr, align 4, !dbg !5885
  %call = call i32 @_ZNK6dealii5TableILi2ENS_12SmartPointerINS_25CompressedSparsityPatternEEEE6n_colsEv(%"class.dealii::Table.10"* %this1), !dbg !5886
  %mul = mul i32 %4, %call, !dbg !5887
  %idx.ext = zext i32 %mul to i64, !dbg !5888
  %add.ptr = getelementptr inbounds %"class.dealii::SmartPointer.12", %"class.dealii::SmartPointer.12"* %3, i64 %idx.ext, !dbg !5888
  call void @_ZN6dealii8internal18TableBaseAccessors8AccessorILi2ENS_12SmartPointerINS_25CompressedSparsityPatternEEELb1ELj1EEC2ERKNS_9TableBaseILi2ES5_EEPKS5_(%"class.dealii::internal::TableBaseAccessors::Accessor.21"* %agg.result, %"class.dealii::TableBase.11"* dereferenceable(96) %1, %"class.dealii::SmartPointer.12"* %add.ptr), !dbg !5889
  ret void, !dbg !5890
}

; Function Attrs: noinline nounwind uwtable
define linkonce_odr dso_local dereferenceable(16) %"class.dealii::SmartPointer.12"* @_ZNK6dealii8internal18TableBaseAccessors8AccessorILi2ENS_12SmartPointerINS_25CompressedSparsityPatternEEELb1ELj1EEixEj(%"class.dealii::internal::TableBaseAccessors::Accessor.21"* %this, i32 %i) #5 comdat align 2 !dbg !5891 {
entry:
  %this.addr = alloca %"class.dealii::internal::TableBaseAccessors::Accessor.21"*, align 8
  %i.addr = alloca i32, align 4
  store %"class.dealii::internal::TableBaseAccessors::Accessor.21"* %this, %"class.dealii::internal::TableBaseAccessors::Accessor.21"** %this.addr, align 8
  call void @llvm.dbg.declare(metadata %"class.dealii::internal::TableBaseAccessors::Accessor.21"** %this.addr, metadata !5892, metadata !DIExpression()), !dbg !5894
  store i32 %i, i32* %i.addr, align 4
  call void @llvm.dbg.declare(metadata i32* %i.addr, metadata !5895, metadata !DIExpression()), !dbg !5896
  %this1 = load %"class.dealii::internal::TableBaseAccessors::Accessor.21"*, %"class.dealii::internal::TableBaseAccessors::Accessor.21"** %this.addr, align 8
  %data = getelementptr inbounds %"class.dealii::internal::TableBaseAccessors::Accessor.21", %"class.dealii::internal::TableBaseAccessors::Accessor.21"* %this1, i32 0, i32 1, !dbg !5897
  %0 = load %"class.dealii::SmartPointer.12"*, %"class.dealii::SmartPointer.12"** %data, align 8, !dbg !5897
  %1 = load i32, i32* %i.addr, align 4, !dbg !5898
  %idxprom = zext i32 %1 to i64, !dbg !5897
  %arrayidx = getelementptr inbounds %"class.dealii::SmartPointer.12", %"class.dealii::SmartPointer.12"* %0, i64 %idxprom, !dbg !5897
  ret %"class.dealii::SmartPointer.12"* %arrayidx, !dbg !5899
}

; Function Attrs: noinline nounwind uwtable
define linkonce_odr dso_local dereferenceable(104) %"class.dealii::CompressedSparsityPattern"* @_ZNK6dealii12SmartPointerINS_25CompressedSparsityPatternEEdeEv(%"class.dealii::SmartPointer.12"* %this) #5 comdat align 2 !dbg !5900 {
entry:
  %this.addr = alloca %"class.dealii::SmartPointer.12"*, align 8
  store %"class.dealii::SmartPointer.12"* %this, %"class.dealii::SmartPointer.12"** %this.addr, align 8
  call void @llvm.dbg.declare(metadata %"class.dealii::SmartPointer.12"** %this.addr, metadata !5901, metadata !DIExpression()), !dbg !5902
  %this1 = load %"class.dealii::SmartPointer.12"*, %"class.dealii::SmartPointer.12"** %this.addr, align 8
  %t = getelementptr inbounds %"class.dealii::SmartPointer.12", %"class.dealii::SmartPointer.12"* %this1, i32 0, i32 0, !dbg !5903
  %0 = load %"class.dealii::CompressedSparsityPattern"*, %"class.dealii::CompressedSparsityPattern"** %t, align 8, !dbg !5903
  ret %"class.dealii::CompressedSparsityPattern"* %0, !dbg !5904
}

declare dso_local dereferenceable(104) %"class.dealii::CompressedSparsityPattern"* @_ZN6dealii25CompressedSparsityPatternaSERKS0_(%"class.dealii::CompressedSparsityPattern"*, %"class.dealii::CompressedSparsityPattern"* dereferenceable(104)) #1

; Function Attrs: noinline uwtable
define weak_odr dso_local void @_ZN6dealii24BlockSparsityPatternBaseINS_25CompressedSparsityPatternEE13collect_sizesEv(%"class.dealii::BlockSparsityPatternBase.9"* %this) #0 comdat align 2 personality i8* bitcast (i32 (...)* @__gxx_personality_v0 to i8*) !dbg !5905 {
entry:
  %this.addr = alloca %"class.dealii::BlockSparsityPatternBase.9"*, align 8
  %row_sizes = alloca %"class.std::vector", align 8
  %ref.tmp = alloca %"class.std::allocator.0", align 1
  %exn.slot = alloca i8*
  %ehselector.slot = alloca i32
  %col_sizes = alloca %"class.std::vector", align 8
  %ref.tmp3 = alloca %"class.std::allocator.0", align 1
  %r = alloca i32, align 4
  %ref.tmp7 = alloca %"class.dealii::internal::TableBaseAccessors::Accessor.20", align 8
  %c = alloca i32, align 4
  %r21 = alloca i32, align 4
  %c33 = alloca i32, align 4
  %ref.tmp38 = alloca %"class.dealii::internal::TableBaseAccessors::Accessor.20", align 8
  %r52 = alloca i32, align 4
  %c57 = alloca i32, align 4
  store %"class.dealii::BlockSparsityPatternBase.9"* %this, %"class.dealii::BlockSparsityPatternBase.9"** %this.addr, align 8
  call void @llvm.dbg.declare(metadata %"class.dealii::BlockSparsityPatternBase.9"** %this.addr, metadata !5906, metadata !DIExpression()), !dbg !5907
  %this1 = load %"class.dealii::BlockSparsityPatternBase.9"*, %"class.dealii::BlockSparsityPatternBase.9"** %this.addr, align 8
  call void @llvm.dbg.declare(metadata %"class.std::vector"* %row_sizes, metadata !5908, metadata !DIExpression()), !dbg !5909
  %rows = getelementptr inbounds %"class.dealii::BlockSparsityPatternBase.9", %"class.dealii::BlockSparsityPatternBase.9"* %this1, i32 0, i32 1, !dbg !5910
  %0 = load i32, i32* %rows, align 8, !dbg !5910
  %conv = zext i32 %0 to i64, !dbg !5910
  call void @_ZNSaIjEC2Ev(%"class.std::allocator.0"* %ref.tmp) #3, !dbg !5909
  invoke void @_ZNSt6vectorIjSaIjEEC2EmRKS0_(%"class.std::vector"* %row_sizes, i64 %conv, %"class.std::allocator.0"* dereferenceable(1) %ref.tmp)
          to label %invoke.cont unwind label %lpad, !dbg !5909

invoke.cont:                                      ; preds = %entry
  call void @_ZNSaIjED2Ev(%"class.std::allocator.0"* %ref.tmp) #3, !dbg !5909
  call void @llvm.dbg.declare(metadata %"class.std::vector"* %col_sizes, metadata !5911, metadata !DIExpression()), !dbg !5912
  %columns = getelementptr inbounds %"class.dealii::BlockSparsityPatternBase.9", %"class.dealii::BlockSparsityPatternBase.9"* %this1, i32 0, i32 2, !dbg !5913
  %1 = load i32, i32* %columns, align 4, !dbg !5913
  %conv2 = zext i32 %1 to i64, !dbg !5913
  call void @_ZNSaIjEC2Ev(%"class.std::allocator.0"* %ref.tmp3) #3, !dbg !5912
  invoke void @_ZNSt6vectorIjSaIjEEC2EmRKS0_(%"class.std::vector"* %col_sizes, i64 %conv2, %"class.std::allocator.0"* dereferenceable(1) %ref.tmp3)
          to label %invoke.cont5 unwind label %lpad4, !dbg !5912

invoke.cont5:                                     ; preds = %invoke.cont
  call void @_ZNSaIjED2Ev(%"class.std::allocator.0"* %ref.tmp3) #3, !dbg !5912
  call void @llvm.dbg.declare(metadata i32* %r, metadata !5914, metadata !DIExpression()), !dbg !5916
  store i32 0, i32* %r, align 4, !dbg !5916
  br label %for.cond, !dbg !5917

for.cond:                                         ; preds = %for.inc, %invoke.cont5
  %2 = load i32, i32* %r, align 4, !dbg !5918
  %rows6 = getelementptr inbounds %"class.dealii::BlockSparsityPatternBase.9", %"class.dealii::BlockSparsityPatternBase.9"* %this1, i32 0, i32 1, !dbg !5920
  %3 = load i32, i32* %rows6, align 8, !dbg !5920
  %cmp = icmp ult i32 %2, %3, !dbg !5921
  br i1 %cmp, label %for.body, label %for.end, !dbg !5922

for.body:                                         ; preds = %for.cond
  %sub_objects = getelementptr inbounds %"class.dealii::BlockSparsityPatternBase.9", %"class.dealii::BlockSparsityPatternBase.9"* %this1, i32 0, i32 3, !dbg !5923
  %4 = load i32, i32* %r, align 4, !dbg !5924
  invoke void @_ZN6dealii5TableILi2ENS_12SmartPointerINS_25CompressedSparsityPatternEEEEixEj(%"class.dealii::internal::TableBaseAccessors::Accessor.20"* sret %ref.tmp7, %"class.dealii::Table.10"* %sub_objects, i32 %4)
          to label %invoke.cont9 unwind label %lpad8, !dbg !5923

invoke.cont9:                                     ; preds = %for.body
  %call = invoke dereferenceable(16) %"class.dealii::SmartPointer.12"* @_ZNK6dealii8internal18TableBaseAccessors8AccessorILi2ENS_12SmartPointerINS_25CompressedSparsityPatternEEELb0ELj1EEixEj(%"class.dealii::internal::TableBaseAccessors::Accessor.20"* %ref.tmp7, i32 0)
          to label %invoke.cont10 unwind label %lpad8, !dbg !5923

invoke.cont10:                                    ; preds = %invoke.cont9
  %call12 = invoke %"class.dealii::CompressedSparsityPattern"* @_ZNK6dealii12SmartPointerINS_25CompressedSparsityPatternEEptEv(%"class.dealii::SmartPointer.12"* %call)
          to label %invoke.cont11 unwind label %lpad8, !dbg !5923

invoke.cont11:                                    ; preds = %invoke.cont10
  %call14 = invoke i32 @_ZNK6dealii25CompressedSparsityPattern6n_rowsEv(%"class.dealii::CompressedSparsityPattern"* %call12)
          to label %invoke.cont13 unwind label %lpad8, !dbg !5925

invoke.cont13:                                    ; preds = %invoke.cont11
  %5 = load i32, i32* %r, align 4, !dbg !5926
  %conv15 = zext i32 %5 to i64, !dbg !5926
  %call16 = call dereferenceable(4) i32* @_ZNSt6vectorIjSaIjEEixEm(%"class.std::vector"* %row_sizes, i64 %conv15) #3, !dbg !5927
  store i32 %call14, i32* %call16, align 4, !dbg !5928
  br label %for.inc, !dbg !5927

for.inc:                                          ; preds = %invoke.cont13
  %6 = load i32, i32* %r, align 4, !dbg !5929
  %inc = add i32 %6, 1, !dbg !5929
  store i32 %inc, i32* %r, align 4, !dbg !5929
  br label %for.cond, !dbg !5930, !llvm.loop !5931

lpad:                                             ; preds = %entry
  %7 = landingpad { i8*, i32 }
          cleanup, !dbg !5933
  %8 = extractvalue { i8*, i32 } %7, 0, !dbg !5933
  store i8* %8, i8** %exn.slot, align 8, !dbg !5933
  %9 = extractvalue { i8*, i32 } %7, 1, !dbg !5933
  store i32 %9, i32* %ehselector.slot, align 4, !dbg !5933
  call void @_ZNSaIjED2Ev(%"class.std::allocator.0"* %ref.tmp) #3, !dbg !5909
  br label %eh.resume, !dbg !5909

lpad4:                                            ; preds = %invoke.cont
  %10 = landingpad { i8*, i32 }
          cleanup, !dbg !5933
  %11 = extractvalue { i8*, i32 } %10, 0, !dbg !5933
  store i8* %11, i8** %exn.slot, align 8, !dbg !5933
  %12 = extractvalue { i8*, i32 } %10, 1, !dbg !5933
  store i32 %12, i32* %ehselector.slot, align 4, !dbg !5933
  call void @_ZNSaIjED2Ev(%"class.std::allocator.0"* %ref.tmp3) #3, !dbg !5912
  br label %ehcleanup, !dbg !5912

lpad8:                                            ; preds = %for.end67, %invoke.cont43, %invoke.cont41, %invoke.cont40, %for.body37, %for.end31, %invoke.cont11, %invoke.cont10, %invoke.cont9, %for.body
  %13 = landingpad { i8*, i32 }
          cleanup, !dbg !5934
  %14 = extractvalue { i8*, i32 } %13, 0, !dbg !5934
  store i8* %14, i8** %exn.slot, align 8, !dbg !5934
  %15 = extractvalue { i8*, i32 } %13, 1, !dbg !5934
  store i32 %15, i32* %ehselector.slot, align 4, !dbg !5934
  call void @_ZNSt6vectorIjSaIjEED2Ev(%"class.std::vector"* %col_sizes) #3, !dbg !5933
  br label %ehcleanup, !dbg !5933

for.end:                                          ; preds = %for.cond
  call void @llvm.dbg.declare(metadata i32* %c, metadata !5935, metadata !DIExpression()), !dbg !5937
  store i32 1, i32* %c, align 4, !dbg !5937
  br label %for.cond17, !dbg !5938

for.cond17:                                       ; preds = %for.inc29, %for.end
  %16 = load i32, i32* %c, align 4, !dbg !5939
  %columns18 = getelementptr inbounds %"class.dealii::BlockSparsityPatternBase.9", %"class.dealii::BlockSparsityPatternBase.9"* %this1, i32 0, i32 2, !dbg !5941
  %17 = load i32, i32* %columns18, align 4, !dbg !5941
  %cmp19 = icmp ult i32 %16, %17, !dbg !5942
  br i1 %cmp19, label %for.body20, label %for.end31, !dbg !5943

for.body20:                                       ; preds = %for.cond17
  call void @llvm.dbg.declare(metadata i32* %r21, metadata !5944, metadata !DIExpression()), !dbg !5946
  store i32 0, i32* %r21, align 4, !dbg !5946
  br label %for.cond22, !dbg !5947

for.cond22:                                       ; preds = %for.inc26, %for.body20
  %18 = load i32, i32* %r21, align 4, !dbg !5948
  %rows23 = getelementptr inbounds %"class.dealii::BlockSparsityPatternBase.9", %"class.dealii::BlockSparsityPatternBase.9"* %this1, i32 0, i32 1, !dbg !5950
  %19 = load i32, i32* %rows23, align 8, !dbg !5950
  %cmp24 = icmp ult i32 %18, %19, !dbg !5951
  br i1 %cmp24, label %for.body25, label %for.end28, !dbg !5952

for.body25:                                       ; preds = %for.cond22
  br label %for.inc26, !dbg !5953

for.inc26:                                        ; preds = %for.body25
  %20 = load i32, i32* %r21, align 4, !dbg !5955
  %inc27 = add i32 %20, 1, !dbg !5955
  store i32 %inc27, i32* %r21, align 4, !dbg !5955
  br label %for.cond22, !dbg !5956, !llvm.loop !5957

for.end28:                                        ; preds = %for.cond22
  br label %for.inc29, !dbg !5958

for.inc29:                                        ; preds = %for.end28
  %21 = load i32, i32* %c, align 4, !dbg !5959
  %inc30 = add i32 %21, 1, !dbg !5959
  store i32 %inc30, i32* %c, align 4, !dbg !5959
  br label %for.cond17, !dbg !5960, !llvm.loop !5961

for.end31:                                        ; preds = %for.cond17
  %row_indices = getelementptr inbounds %"class.dealii::BlockSparsityPatternBase.9", %"class.dealii::BlockSparsityPatternBase.9"* %this1, i32 0, i32 4, !dbg !5963
  invoke void @_ZN6dealii12BlockIndices6reinitERKSt6vectorIjSaIjEE(%"class.dealii::BlockIndices"* %row_indices, %"class.std::vector"* dereferenceable(24) %row_sizes)
          to label %invoke.cont32 unwind label %lpad8, !dbg !5964

invoke.cont32:                                    ; preds = %for.end31
  call void @llvm.dbg.declare(metadata i32* %c33, metadata !5965, metadata !DIExpression()), !dbg !5967
  store i32 0, i32* %c33, align 4, !dbg !5967
  br label %for.cond34, !dbg !5968

for.cond34:                                       ; preds = %for.inc49, %invoke.cont32
  %22 = load i32, i32* %c33, align 4, !dbg !5969
  %columns35 = getelementptr inbounds %"class.dealii::BlockSparsityPatternBase.9", %"class.dealii::BlockSparsityPatternBase.9"* %this1, i32 0, i32 2, !dbg !5971
  %23 = load i32, i32* %columns35, align 4, !dbg !5971
  %cmp36 = icmp ult i32 %22, %23, !dbg !5972
  br i1 %cmp36, label %for.body37, label %for.end51, !dbg !5973

for.body37:                                       ; preds = %for.cond34
  %sub_objects39 = getelementptr inbounds %"class.dealii::BlockSparsityPatternBase.9", %"class.dealii::BlockSparsityPatternBase.9"* %this1, i32 0, i32 3, !dbg !5974
  invoke void @_ZN6dealii5TableILi2ENS_12SmartPointerINS_25CompressedSparsityPatternEEEEixEj(%"class.dealii::internal::TableBaseAccessors::Accessor.20"* sret %ref.tmp38, %"class.dealii::Table.10"* %sub_objects39, i32 0)
          to label %invoke.cont40 unwind label %lpad8, !dbg !5974

invoke.cont40:                                    ; preds = %for.body37
  %24 = load i32, i32* %c33, align 4, !dbg !5975
  %call42 = invoke dereferenceable(16) %"class.dealii::SmartPointer.12"* @_ZNK6dealii8internal18TableBaseAccessors8AccessorILi2ENS_12SmartPointerINS_25CompressedSparsityPatternEEELb0ELj1EEixEj(%"class.dealii::internal::TableBaseAccessors::Accessor.20"* %ref.tmp38, i32 %24)
          to label %invoke.cont41 unwind label %lpad8, !dbg !5974

invoke.cont41:                                    ; preds = %invoke.cont40
  %call44 = invoke %"class.dealii::CompressedSparsityPattern"* @_ZNK6dealii12SmartPointerINS_25CompressedSparsityPatternEEptEv(%"class.dealii::SmartPointer.12"* %call42)
          to label %invoke.cont43 unwind label %lpad8, !dbg !5974

invoke.cont43:                                    ; preds = %invoke.cont41
  %call46 = invoke i32 @_ZNK6dealii25CompressedSparsityPattern6n_colsEv(%"class.dealii::CompressedSparsityPattern"* %call44)
          to label %invoke.cont45 unwind label %lpad8, !dbg !5976

invoke.cont45:                                    ; preds = %invoke.cont43
  %25 = load i32, i32* %c33, align 4, !dbg !5977
  %conv47 = zext i32 %25 to i64, !dbg !5977
  %call48 = call dereferenceable(4) i32* @_ZNSt6vectorIjSaIjEEixEm(%"class.std::vector"* %col_sizes, i64 %conv47) #3, !dbg !5978
  store i32 %call46, i32* %call48, align 4, !dbg !5979
  br label %for.inc49, !dbg !5978

for.inc49:                                        ; preds = %invoke.cont45
  %26 = load i32, i32* %c33, align 4, !dbg !5980
  %inc50 = add i32 %26, 1, !dbg !5980
  store i32 %inc50, i32* %c33, align 4, !dbg !5980
  br label %for.cond34, !dbg !5981, !llvm.loop !5982

for.end51:                                        ; preds = %for.cond34
  call void @llvm.dbg.declare(metadata i32* %r52, metadata !5984, metadata !DIExpression()), !dbg !5986
  store i32 1, i32* %r52, align 4, !dbg !5986
  br label %for.cond53, !dbg !5987

for.cond53:                                       ; preds = %for.inc65, %for.end51
  %27 = load i32, i32* %r52, align 4, !dbg !5988
  %rows54 = getelementptr inbounds %"class.dealii::BlockSparsityPatternBase.9", %"class.dealii::BlockSparsityPatternBase.9"* %this1, i32 0, i32 1, !dbg !5990
  %28 = load i32, i32* %rows54, align 8, !dbg !5990
  %cmp55 = icmp ult i32 %27, %28, !dbg !5991
  br i1 %cmp55, label %for.body56, label %for.end67, !dbg !5992

for.body56:                                       ; preds = %for.cond53
  call void @llvm.dbg.declare(metadata i32* %c57, metadata !5993, metadata !DIExpression()), !dbg !5995
  store i32 0, i32* %c57, align 4, !dbg !5995
  br label %for.cond58, !dbg !5996

for.cond58:                                       ; preds = %for.inc62, %for.body56
  %29 = load i32, i32* %c57, align 4, !dbg !5997
  %columns59 = getelementptr inbounds %"class.dealii::BlockSparsityPatternBase.9", %"class.dealii::BlockSparsityPatternBase.9"* %this1, i32 0, i32 2, !dbg !5999
  %30 = load i32, i32* %columns59, align 4, !dbg !5999
  %cmp60 = icmp ult i32 %29, %30, !dbg !6000
  br i1 %cmp60, label %for.body61, label %for.end64, !dbg !6001

for.body61:                                       ; preds = %for.cond58
  br label %for.inc62, !dbg !6002

for.inc62:                                        ; preds = %for.body61
  %31 = load i32, i32* %c57, align 4, !dbg !6004
  %inc63 = add i32 %31, 1, !dbg !6004
  store i32 %inc63, i32* %c57, align 4, !dbg !6004
  br label %for.cond58, !dbg !6005, !llvm.loop !6006

for.end64:                                        ; preds = %for.cond58
  br label %for.inc65, !dbg !6007

for.inc65:                                        ; preds = %for.end64
  %32 = load i32, i32* %r52, align 4, !dbg !6008
  %inc66 = add i32 %32, 1, !dbg !6008
  store i32 %inc66, i32* %r52, align 4, !dbg !6008
  br label %for.cond53, !dbg !6009, !llvm.loop !6010

for.end67:                                        ; preds = %for.cond53
  %column_indices = getelementptr inbounds %"class.dealii::BlockSparsityPatternBase.9", %"class.dealii::BlockSparsityPatternBase.9"* %this1, i32 0, i32 5, !dbg !6012
  invoke void @_ZN6dealii12BlockIndices6reinitERKSt6vectorIjSaIjEE(%"class.dealii::BlockIndices"* %column_indices, %"class.std::vector"* dereferenceable(24) %col_sizes)
          to label %invoke.cont68 unwind label %lpad8, !dbg !6013

invoke.cont68:                                    ; preds = %for.end67
  call void @_ZNSt6vectorIjSaIjEED2Ev(%"class.std::vector"* %col_sizes) #3, !dbg !5933
  call void @_ZNSt6vectorIjSaIjEED2Ev(%"class.std::vector"* %row_sizes) #3, !dbg !5933
  ret void, !dbg !5933

ehcleanup:                                        ; preds = %lpad8, %lpad4
  call void @_ZNSt6vectorIjSaIjEED2Ev(%"class.std::vector"* %row_sizes) #3, !dbg !5933
  br label %eh.resume, !dbg !5933

eh.resume:                                        ; preds = %ehcleanup, %lpad
  %exn = load i8*, i8** %exn.slot, align 8, !dbg !5909
  %sel = load i32, i32* %ehselector.slot, align 4, !dbg !5909
  %lpad.val = insertvalue { i8*, i32 } undef, i8* %exn, 0, !dbg !5909
  %lpad.val69 = insertvalue { i8*, i32 } %lpad.val, i32 %sel, 1, !dbg !5909
  resume { i8*, i32 } %lpad.val69, !dbg !5909
}

; Function Attrs: noinline nounwind uwtable
define linkonce_odr dso_local %"class.dealii::CompressedSparsityPattern"* @_ZNK6dealii12SmartPointerINS_25CompressedSparsityPatternEEptEv(%"class.dealii::SmartPointer.12"* %this) #5 comdat align 2 !dbg !6014 {
entry:
  %this.addr = alloca %"class.dealii::SmartPointer.12"*, align 8
  store %"class.dealii::SmartPointer.12"* %this, %"class.dealii::SmartPointer.12"** %this.addr, align 8
  call void @llvm.dbg.declare(metadata %"class.dealii::SmartPointer.12"** %this.addr, metadata !6015, metadata !DIExpression()), !dbg !6016
  %this1 = load %"class.dealii::SmartPointer.12"*, %"class.dealii::SmartPointer.12"** %this.addr, align 8
  %t = getelementptr inbounds %"class.dealii::SmartPointer.12", %"class.dealii::SmartPointer.12"* %this1, i32 0, i32 0, !dbg !6017
  %0 = load %"class.dealii::CompressedSparsityPattern"*, %"class.dealii::CompressedSparsityPattern"** %t, align 8, !dbg !6017
  ret %"class.dealii::CompressedSparsityPattern"* %0, !dbg !6018
}

; Function Attrs: noinline nounwind uwtable
define linkonce_odr dso_local i32 @_ZNK6dealii25CompressedSparsityPattern6n_rowsEv(%"class.dealii::CompressedSparsityPattern"* %this) #5 comdat align 2 !dbg !6019 {
entry:
  %this.addr = alloca %"class.dealii::CompressedSparsityPattern"*, align 8
  store %"class.dealii::CompressedSparsityPattern"* %this, %"class.dealii::CompressedSparsityPattern"** %this.addr, align 8
  call void @llvm.dbg.declare(metadata %"class.dealii::CompressedSparsityPattern"** %this.addr, metadata !6024, metadata !DIExpression()), !dbg !6026
  %this1 = load %"class.dealii::CompressedSparsityPattern"*, %"class.dealii::CompressedSparsityPattern"** %this.addr, align 8
  %rows = getelementptr inbounds %"class.dealii::CompressedSparsityPattern", %"class.dealii::CompressedSparsityPattern"* %this1, i32 0, i32 1, !dbg !6027
  %0 = load i32, i32* %rows, align 8, !dbg !6027
  ret i32 %0, !dbg !6028
}

; Function Attrs: noinline nounwind uwtable
define linkonce_odr dso_local i32 @_ZNK6dealii25CompressedSparsityPattern6n_colsEv(%"class.dealii::CompressedSparsityPattern"* %this) #5 comdat align 2 !dbg !6029 {
entry:
  %this.addr = alloca %"class.dealii::CompressedSparsityPattern"*, align 8
  store %"class.dealii::CompressedSparsityPattern"* %this, %"class.dealii::CompressedSparsityPattern"** %this.addr, align 8
  call void @llvm.dbg.declare(metadata %"class.dealii::CompressedSparsityPattern"** %this.addr, metadata !6031, metadata !DIExpression()), !dbg !6032
  %this1 = load %"class.dealii::CompressedSparsityPattern"*, %"class.dealii::CompressedSparsityPattern"** %this.addr, align 8
  %cols = getelementptr inbounds %"class.dealii::CompressedSparsityPattern", %"class.dealii::CompressedSparsityPattern"* %this1, i32 0, i32 2, !dbg !6033
  %0 = load i32, i32* %cols, align 4, !dbg !6033
  ret i32 %0, !dbg !6034
}

; Function Attrs: noinline uwtable
define weak_odr dso_local dereferenceable(104) %"class.dealii::CompressedSparsityPattern"* @_ZN6dealii24BlockSparsityPatternBaseINS_25CompressedSparsityPatternEE5blockEjj(%"class.dealii::BlockSparsityPatternBase.9"* %this, i32 %row, i32 %column) #0 comdat align 2 !dbg !6035 {
entry:
  %this.addr = alloca %"class.dealii::BlockSparsityPatternBase.9"*, align 8
  %row.addr = alloca i32, align 4
  %column.addr = alloca i32, align 4
  %ref.tmp = alloca %"class.dealii::internal::TableBaseAccessors::Accessor.20", align 8
  store %"class.dealii::BlockSparsityPatternBase.9"* %this, %"class.dealii::BlockSparsityPatternBase.9"** %this.addr, align 8
  call void @llvm.dbg.declare(metadata %"class.dealii::BlockSparsityPatternBase.9"** %this.addr, metadata !6036, metadata !DIExpression()), !dbg !6037
  store i32 %row, i32* %row.addr, align 4
  call void @llvm.dbg.declare(metadata i32* %row.addr, metadata !6038, metadata !DIExpression()), !dbg !6039
  store i32 %column, i32* %column.addr, align 4
  call void @llvm.dbg.declare(metadata i32* %column.addr, metadata !6040, metadata !DIExpression()), !dbg !6041
  %this1 = load %"class.dealii::BlockSparsityPatternBase.9"*, %"class.dealii::BlockSparsityPatternBase.9"** %this.addr, align 8
  %sub_objects = getelementptr inbounds %"class.dealii::BlockSparsityPatternBase.9", %"class.dealii::BlockSparsityPatternBase.9"* %this1, i32 0, i32 3, !dbg !6042
  %0 = load i32, i32* %row.addr, align 4, !dbg !6043
  call void @_ZN6dealii5TableILi2ENS_12SmartPointerINS_25CompressedSparsityPatternEEEEixEj(%"class.dealii::internal::TableBaseAccessors::Accessor.20"* sret %ref.tmp, %"class.dealii::Table.10"* %sub_objects, i32 %0), !dbg !6042
  %1 = load i32, i32* %column.addr, align 4, !dbg !6044
  %call = call dereferenceable(16) %"class.dealii::SmartPointer.12"* @_ZNK6dealii8internal18TableBaseAccessors8AccessorILi2ENS_12SmartPointerINS_25CompressedSparsityPatternEEELb0ELj1EEixEj(%"class.dealii::internal::TableBaseAccessors::Accessor.20"* %ref.tmp, i32 %1), !dbg !6042
  %call2 = call dereferenceable(104) %"class.dealii::CompressedSparsityPattern"* @_ZNK6dealii12SmartPointerINS_25CompressedSparsityPatternEEdeEv(%"class.dealii::SmartPointer.12"* %call), !dbg !6045
  ret %"class.dealii::CompressedSparsityPattern"* %call2, !dbg !6046
}

; Function Attrs: noinline uwtable
define weak_odr dso_local dereferenceable(104) %"class.dealii::CompressedSparsityPattern"* @_ZNK6dealii24BlockSparsityPatternBaseINS_25CompressedSparsityPatternEE5blockEjj(%"class.dealii::BlockSparsityPatternBase.9"* %this, i32 %row, i32 %column) #0 comdat align 2 !dbg !6047 {
entry:
  %this.addr = alloca %"class.dealii::BlockSparsityPatternBase.9"*, align 8
  %row.addr = alloca i32, align 4
  %column.addr = alloca i32, align 4
  %ref.tmp = alloca %"class.dealii::internal::TableBaseAccessors::Accessor.21", align 8
  store %"class.dealii::BlockSparsityPatternBase.9"* %this, %"class.dealii::BlockSparsityPatternBase.9"** %this.addr, align 8
  call void @llvm.dbg.declare(metadata %"class.dealii::BlockSparsityPatternBase.9"** %this.addr, metadata !6048, metadata !DIExpression()), !dbg !6050
  store i32 %row, i32* %row.addr, align 4
  call void @llvm.dbg.declare(metadata i32* %row.addr, metadata !6051, metadata !DIExpression()), !dbg !6052
  store i32 %column, i32* %column.addr, align 4
  call void @llvm.dbg.declare(metadata i32* %column.addr, metadata !6053, metadata !DIExpression()), !dbg !6054
  %this1 = load %"class.dealii::BlockSparsityPatternBase.9"*, %"class.dealii::BlockSparsityPatternBase.9"** %this.addr, align 8
  %sub_objects = getelementptr inbounds %"class.dealii::BlockSparsityPatternBase.9", %"class.dealii::BlockSparsityPatternBase.9"* %this1, i32 0, i32 3, !dbg !6055
  %0 = load i32, i32* %row.addr, align 4, !dbg !6056
  call void @_ZNK6dealii5TableILi2ENS_12SmartPointerINS_25CompressedSparsityPatternEEEEixEj(%"class.dealii::internal::TableBaseAccessors::Accessor.21"* sret %ref.tmp, %"class.dealii::Table.10"* %sub_objects, i32 %0), !dbg !6055
  %1 = load i32, i32* %column.addr, align 4, !dbg !6057
  %call = call dereferenceable(16) %"class.dealii::SmartPointer.12"* @_ZNK6dealii8internal18TableBaseAccessors8AccessorILi2ENS_12SmartPointerINS_25CompressedSparsityPatternEEELb1ELj1EEixEj(%"class.dealii::internal::TableBaseAccessors::Accessor.21"* %ref.tmp, i32 %1), !dbg !6055
  %call2 = call dereferenceable(104) %"class.dealii::CompressedSparsityPattern"* @_ZNK6dealii12SmartPointerINS_25CompressedSparsityPatternEEdeEv(%"class.dealii::SmartPointer.12"* %call), !dbg !6058
  ret %"class.dealii::CompressedSparsityPattern"* %call2, !dbg !6059
}

; Function Attrs: noinline nounwind uwtable
define weak_odr dso_local dereferenceable(32) %"class.dealii::BlockIndices"* @_ZNK6dealii24BlockSparsityPatternBaseINS_25CompressedSparsityPatternEE15get_row_indicesEv(%"class.dealii::BlockSparsityPatternBase.9"* %this) #5 comdat align 2 !dbg !6060 {
entry:
  %this.addr = alloca %"class.dealii::BlockSparsityPatternBase.9"*, align 8
  store %"class.dealii::BlockSparsityPatternBase.9"* %this, %"class.dealii::BlockSparsityPatternBase.9"** %this.addr, align 8
  call void @llvm.dbg.declare(metadata %"class.dealii::BlockSparsityPatternBase.9"** %this.addr, metadata !6061, metadata !DIExpression()), !dbg !6062
  %this1 = load %"class.dealii::BlockSparsityPatternBase.9"*, %"class.dealii::BlockSparsityPatternBase.9"** %this.addr, align 8
  %row_indices = getelementptr inbounds %"class.dealii::BlockSparsityPatternBase.9", %"class.dealii::BlockSparsityPatternBase.9"* %this1, i32 0, i32 4, !dbg !6063
  ret %"class.dealii::BlockIndices"* %row_indices, !dbg !6064
}

; Function Attrs: noinline nounwind uwtable
define weak_odr dso_local dereferenceable(32) %"class.dealii::BlockIndices"* @_ZNK6dealii24BlockSparsityPatternBaseINS_25CompressedSparsityPatternEE18get_column_indicesEv(%"class.dealii::BlockSparsityPatternBase.9"* %this) #5 comdat align 2 !dbg !6065 {
entry:
  %this.addr = alloca %"class.dealii::BlockSparsityPatternBase.9"*, align 8
  store %"class.dealii::BlockSparsityPatternBase.9"* %this, %"class.dealii::BlockSparsityPatternBase.9"** %this.addr, align 8
  call void @llvm.dbg.declare(metadata %"class.dealii::BlockSparsityPatternBase.9"** %this.addr, metadata !6066, metadata !DIExpression()), !dbg !6067
  %this1 = load %"class.dealii::BlockSparsityPatternBase.9"*, %"class.dealii::BlockSparsityPatternBase.9"** %this.addr, align 8
  %column_indices = getelementptr inbounds %"class.dealii::BlockSparsityPatternBase.9", %"class.dealii::BlockSparsityPatternBase.9"* %this1, i32 0, i32 5, !dbg !6068
  ret %"class.dealii::BlockIndices"* %column_indices, !dbg !6069
}

; Function Attrs: noinline uwtable
define weak_odr dso_local void @_ZN6dealii24BlockSparsityPatternBaseINS_25CompressedSparsityPatternEE8compressEv(%"class.dealii::BlockSparsityPatternBase.9"* %this) #0 comdat align 2 !dbg !6070 {
entry:
  %this.addr = alloca %"class.dealii::BlockSparsityPatternBase.9"*, align 8
  %i = alloca i32, align 4
  %j = alloca i32, align 4
  %ref.tmp = alloca %"class.dealii::internal::TableBaseAccessors::Accessor.20", align 8
  store %"class.dealii::BlockSparsityPatternBase.9"* %this, %"class.dealii::BlockSparsityPatternBase.9"** %this.addr, align 8
  call void @llvm.dbg.declare(metadata %"class.dealii::BlockSparsityPatternBase.9"** %this.addr, metadata !6071, metadata !DIExpression()), !dbg !6072
  %this1 = load %"class.dealii::BlockSparsityPatternBase.9"*, %"class.dealii::BlockSparsityPatternBase.9"** %this.addr, align 8
  call void @llvm.dbg.declare(metadata i32* %i, metadata !6073, metadata !DIExpression()), !dbg !6075
  store i32 0, i32* %i, align 4, !dbg !6075
  br label %for.cond, !dbg !6076

for.cond:                                         ; preds = %for.inc6, %entry
  %0 = load i32, i32* %i, align 4, !dbg !6077
  %rows = getelementptr inbounds %"class.dealii::BlockSparsityPatternBase.9", %"class.dealii::BlockSparsityPatternBase.9"* %this1, i32 0, i32 1, !dbg !6079
  %1 = load i32, i32* %rows, align 8, !dbg !6079
  %cmp = icmp ult i32 %0, %1, !dbg !6080
  br i1 %cmp, label %for.body, label %for.end8, !dbg !6081

for.body:                                         ; preds = %for.cond
  call void @llvm.dbg.declare(metadata i32* %j, metadata !6082, metadata !DIExpression()), !dbg !6084
  store i32 0, i32* %j, align 4, !dbg !6084
  br label %for.cond2, !dbg !6085

for.cond2:                                        ; preds = %for.inc, %for.body
  %2 = load i32, i32* %j, align 4, !dbg !6086
  %columns = getelementptr inbounds %"class.dealii::BlockSparsityPatternBase.9", %"class.dealii::BlockSparsityPatternBase.9"* %this1, i32 0, i32 2, !dbg !6088
  %3 = load i32, i32* %columns, align 4, !dbg !6088
  %cmp3 = icmp ult i32 %2, %3, !dbg !6089
  br i1 %cmp3, label %for.body4, label %for.end, !dbg !6090

for.body4:                                        ; preds = %for.cond2
  %sub_objects = getelementptr inbounds %"class.dealii::BlockSparsityPatternBase.9", %"class.dealii::BlockSparsityPatternBase.9"* %this1, i32 0, i32 3, !dbg !6091
  %4 = load i32, i32* %i, align 4, !dbg !6092
  call void @_ZN6dealii5TableILi2ENS_12SmartPointerINS_25CompressedSparsityPatternEEEEixEj(%"class.dealii::internal::TableBaseAccessors::Accessor.20"* sret %ref.tmp, %"class.dealii::Table.10"* %sub_objects, i32 %4), !dbg !6091
  %5 = load i32, i32* %j, align 4, !dbg !6093
  %call = call dereferenceable(16) %"class.dealii::SmartPointer.12"* @_ZNK6dealii8internal18TableBaseAccessors8AccessorILi2ENS_12SmartPointerINS_25CompressedSparsityPatternEEELb0ELj1EEixEj(%"class.dealii::internal::TableBaseAccessors::Accessor.20"* %ref.tmp, i32 %5), !dbg !6091
  %call5 = call %"class.dealii::CompressedSparsityPattern"* @_ZNK6dealii12SmartPointerINS_25CompressedSparsityPatternEEptEv(%"class.dealii::SmartPointer.12"* %call), !dbg !6091
  call void @_ZN6dealii25CompressedSparsityPattern8compressEv(%"class.dealii::CompressedSparsityPattern"* %call5), !dbg !6094
  br label %for.inc, !dbg !6091

for.inc:                                          ; preds = %for.body4
  %6 = load i32, i32* %j, align 4, !dbg !6095
  %inc = add i32 %6, 1, !dbg !6095
  store i32 %inc, i32* %j, align 4, !dbg !6095
  br label %for.cond2, !dbg !6096, !llvm.loop !6097

for.end:                                          ; preds = %for.cond2
  br label %for.inc6, !dbg !6098

for.inc6:                                         ; preds = %for.end
  %7 = load i32, i32* %i, align 4, !dbg !6099
  %inc7 = add i32 %7, 1, !dbg !6099
  store i32 %inc7, i32* %i, align 4, !dbg !6099
  br label %for.cond, !dbg !6100, !llvm.loop !6101

for.end8:                                         ; preds = %for.cond
  ret void, !dbg !6103
}

declare dso_local void @_ZN6dealii25CompressedSparsityPattern8compressEv(%"class.dealii::CompressedSparsityPattern"*) #1

; Function Attrs: noinline nounwind uwtable
define weak_odr dso_local i32 @_ZNK6dealii24BlockSparsityPatternBaseINS_25CompressedSparsityPatternEE12n_block_rowsEv(%"class.dealii::BlockSparsityPatternBase.9"* %this) #5 comdat align 2 !dbg !6104 {
entry:
  %this.addr = alloca %"class.dealii::BlockSparsityPatternBase.9"*, align 8
  store %"class.dealii::BlockSparsityPatternBase.9"* %this, %"class.dealii::BlockSparsityPatternBase.9"** %this.addr, align 8
  call void @llvm.dbg.declare(metadata %"class.dealii::BlockSparsityPatternBase.9"** %this.addr, metadata !6105, metadata !DIExpression()), !dbg !6106
  %this1 = load %"class.dealii::BlockSparsityPatternBase.9"*, %"class.dealii::BlockSparsityPatternBase.9"** %this.addr, align 8
  %rows = getelementptr inbounds %"class.dealii::BlockSparsityPatternBase.9", %"class.dealii::BlockSparsityPatternBase.9"* %this1, i32 0, i32 1, !dbg !6107
  %0 = load i32, i32* %rows, align 8, !dbg !6107
  ret i32 %0, !dbg !6108
}

; Function Attrs: noinline nounwind uwtable
define weak_odr dso_local i32 @_ZNK6dealii24BlockSparsityPatternBaseINS_25CompressedSparsityPatternEE12n_block_colsEv(%"class.dealii::BlockSparsityPatternBase.9"* %this) #5 comdat align 2 !dbg !6109 {
entry:
  %this.addr = alloca %"class.dealii::BlockSparsityPatternBase.9"*, align 8
  store %"class.dealii::BlockSparsityPatternBase.9"* %this, %"class.dealii::BlockSparsityPatternBase.9"** %this.addr, align 8
  call void @llvm.dbg.declare(metadata %"class.dealii::BlockSparsityPatternBase.9"** %this.addr, metadata !6110, metadata !DIExpression()), !dbg !6111
  %this1 = load %"class.dealii::BlockSparsityPatternBase.9"*, %"class.dealii::BlockSparsityPatternBase.9"** %this.addr, align 8
  %columns = getelementptr inbounds %"class.dealii::BlockSparsityPatternBase.9", %"class.dealii::BlockSparsityPatternBase.9"* %this1, i32 0, i32 2, !dbg !6112
  %0 = load i32, i32* %columns, align 4, !dbg !6112
  ret i32 %0, !dbg !6113
}

; Function Attrs: noinline uwtable
define weak_odr dso_local zeroext i1 @_ZNK6dealii24BlockSparsityPatternBaseINS_25CompressedSparsityPatternEE5emptyEv(%"class.dealii::BlockSparsityPatternBase.9"* %this) #0 comdat align 2 !dbg !6114 {
entry:
  %retval = alloca i1, align 1
  %this.addr = alloca %"class.dealii::BlockSparsityPatternBase.9"*, align 8
  %i = alloca i32, align 4
  %j = alloca i32, align 4
  %ref.tmp = alloca %"class.dealii::internal::TableBaseAccessors::Accessor.21", align 8
  store %"class.dealii::BlockSparsityPatternBase.9"* %this, %"class.dealii::BlockSparsityPatternBase.9"** %this.addr, align 8
  call void @llvm.dbg.declare(metadata %"class.dealii::BlockSparsityPatternBase.9"** %this.addr, metadata !6115, metadata !DIExpression()), !dbg !6116
  %this1 = load %"class.dealii::BlockSparsityPatternBase.9"*, %"class.dealii::BlockSparsityPatternBase.9"** %this.addr, align 8
  call void @llvm.dbg.declare(metadata i32* %i, metadata !6117, metadata !DIExpression()), !dbg !6119
  store i32 0, i32* %i, align 4, !dbg !6119
  br label %for.cond, !dbg !6120

for.cond:                                         ; preds = %for.inc8, %entry
  %0 = load i32, i32* %i, align 4, !dbg !6121
  %rows = getelementptr inbounds %"class.dealii::BlockSparsityPatternBase.9", %"class.dealii::BlockSparsityPatternBase.9"* %this1, i32 0, i32 1, !dbg !6123
  %1 = load i32, i32* %rows, align 8, !dbg !6123
  %cmp = icmp ult i32 %0, %1, !dbg !6124
  br i1 %cmp, label %for.body, label %for.end10, !dbg !6125

for.body:                                         ; preds = %for.cond
  call void @llvm.dbg.declare(metadata i32* %j, metadata !6126, metadata !DIExpression()), !dbg !6128
  store i32 0, i32* %j, align 4, !dbg !6128
  br label %for.cond2, !dbg !6129

for.cond2:                                        ; preds = %for.inc, %for.body
  %2 = load i32, i32* %j, align 4, !dbg !6130
  %columns = getelementptr inbounds %"class.dealii::BlockSparsityPatternBase.9", %"class.dealii::BlockSparsityPatternBase.9"* %this1, i32 0, i32 2, !dbg !6132
  %3 = load i32, i32* %columns, align 4, !dbg !6132
  %cmp3 = icmp ult i32 %2, %3, !dbg !6133
  br i1 %cmp3, label %for.body4, label %for.end, !dbg !6134

for.body4:                                        ; preds = %for.cond2
  %sub_objects = getelementptr inbounds %"class.dealii::BlockSparsityPatternBase.9", %"class.dealii::BlockSparsityPatternBase.9"* %this1, i32 0, i32 3, !dbg !6135
  %4 = load i32, i32* %i, align 4, !dbg !6137
  call void @_ZNK6dealii5TableILi2ENS_12SmartPointerINS_25CompressedSparsityPatternEEEEixEj(%"class.dealii::internal::TableBaseAccessors::Accessor.21"* sret %ref.tmp, %"class.dealii::Table.10"* %sub_objects, i32 %4), !dbg !6135
  %5 = load i32, i32* %j, align 4, !dbg !6138
  %call = call dereferenceable(16) %"class.dealii::SmartPointer.12"* @_ZNK6dealii8internal18TableBaseAccessors8AccessorILi2ENS_12SmartPointerINS_25CompressedSparsityPatternEEELb1ELj1EEixEj(%"class.dealii::internal::TableBaseAccessors::Accessor.21"* %ref.tmp, i32 %5), !dbg !6135
  %call5 = call %"class.dealii::CompressedSparsityPattern"* @_ZNK6dealii12SmartPointerINS_25CompressedSparsityPatternEEptEv(%"class.dealii::SmartPointer.12"* %call), !dbg !6135
  %call6 = call zeroext i1 @_ZNK6dealii25CompressedSparsityPattern5emptyEv(%"class.dealii::CompressedSparsityPattern"* %call5), !dbg !6139
  %conv = zext i1 %call6 to i32, !dbg !6135
  %cmp7 = icmp eq i32 %conv, 0, !dbg !6140
  br i1 %cmp7, label %if.then, label %if.end, !dbg !6141

if.then:                                          ; preds = %for.body4
  store i1 false, i1* %retval, align 1, !dbg !6142
  br label %return, !dbg !6142

if.end:                                           ; preds = %for.body4
  br label %for.inc, !dbg !6143

for.inc:                                          ; preds = %if.end
  %6 = load i32, i32* %j, align 4, !dbg !6144
  %inc = add i32 %6, 1, !dbg !6144
  store i32 %inc, i32* %j, align 4, !dbg !6144
  br label %for.cond2, !dbg !6145, !llvm.loop !6146

for.end:                                          ; preds = %for.cond2
  br label %for.inc8, !dbg !6147

for.inc8:                                         ; preds = %for.end
  %7 = load i32, i32* %i, align 4, !dbg !6148
  %inc9 = add i32 %7, 1, !dbg !6148
  store i32 %inc9, i32* %i, align 4, !dbg !6148
  br label %for.cond, !dbg !6149, !llvm.loop !6150

for.end10:                                        ; preds = %for.cond
  store i1 true, i1* %retval, align 1, !dbg !6152
  br label %return, !dbg !6152

return:                                           ; preds = %for.end10, %if.then
  %8 = load i1, i1* %retval, align 1, !dbg !6153
  ret i1 %8, !dbg !6153
}

declare dso_local zeroext i1 @_ZNK6dealii25CompressedSparsityPattern5emptyEv(%"class.dealii::CompressedSparsityPattern"*) #1

; Function Attrs: noinline uwtable
define weak_odr dso_local i32 @_ZNK6dealii24BlockSparsityPatternBaseINS_25CompressedSparsityPatternEE19max_entries_per_rowEv(%"class.dealii::BlockSparsityPatternBase.9"* %this) #0 comdat align 2 !dbg !6154 {
entry:
  %this.addr = alloca %"class.dealii::BlockSparsityPatternBase.9"*, align 8
  %max_entries = alloca i32, align 4
  %block_row = alloca i32, align 4
  %this_row = alloca i32, align 4
  %c = alloca i32, align 4
  %ref.tmp = alloca %"class.dealii::internal::TableBaseAccessors::Accessor.21", align 8
  store %"class.dealii::BlockSparsityPatternBase.9"* %this, %"class.dealii::BlockSparsityPatternBase.9"** %this.addr, align 8
  call void @llvm.dbg.declare(metadata %"class.dealii::BlockSparsityPatternBase.9"** %this.addr, metadata !6155, metadata !DIExpression()), !dbg !6156
  %this1 = load %"class.dealii::BlockSparsityPatternBase.9"*, %"class.dealii::BlockSparsityPatternBase.9"** %this.addr, align 8
  call void @llvm.dbg.declare(metadata i32* %max_entries, metadata !6157, metadata !DIExpression()), !dbg !6158
  store i32 0, i32* %max_entries, align 4, !dbg !6158
  call void @llvm.dbg.declare(metadata i32* %block_row, metadata !6159, metadata !DIExpression()), !dbg !6161
  store i32 0, i32* %block_row, align 4, !dbg !6161
  br label %for.cond, !dbg !6162

for.cond:                                         ; preds = %for.inc8, %entry
  %0 = load i32, i32* %block_row, align 4, !dbg !6163
  %rows = getelementptr inbounds %"class.dealii::BlockSparsityPatternBase.9", %"class.dealii::BlockSparsityPatternBase.9"* %this1, i32 0, i32 1, !dbg !6165
  %1 = load i32, i32* %rows, align 8, !dbg !6165
  %cmp = icmp ult i32 %0, %1, !dbg !6166
  br i1 %cmp, label %for.body, label %for.end10, !dbg !6167

for.body:                                         ; preds = %for.cond
  call void @llvm.dbg.declare(metadata i32* %this_row, metadata !6168, metadata !DIExpression()), !dbg !6170
  store i32 0, i32* %this_row, align 4, !dbg !6170
  call void @llvm.dbg.declare(metadata i32* %c, metadata !6171, metadata !DIExpression()), !dbg !6173
  store i32 0, i32* %c, align 4, !dbg !6173
  br label %for.cond2, !dbg !6174

for.cond2:                                        ; preds = %for.inc, %for.body
  %2 = load i32, i32* %c, align 4, !dbg !6175
  %columns = getelementptr inbounds %"class.dealii::BlockSparsityPatternBase.9", %"class.dealii::BlockSparsityPatternBase.9"* %this1, i32 0, i32 2, !dbg !6177
  %3 = load i32, i32* %columns, align 4, !dbg !6177
  %cmp3 = icmp ult i32 %2, %3, !dbg !6178
  br i1 %cmp3, label %for.body4, label %for.end, !dbg !6179

for.body4:                                        ; preds = %for.cond2
  %sub_objects = getelementptr inbounds %"class.dealii::BlockSparsityPatternBase.9", %"class.dealii::BlockSparsityPatternBase.9"* %this1, i32 0, i32 3, !dbg !6180
  %4 = load i32, i32* %block_row, align 4, !dbg !6181
  call void @_ZNK6dealii5TableILi2ENS_12SmartPointerINS_25CompressedSparsityPatternEEEEixEj(%"class.dealii::internal::TableBaseAccessors::Accessor.21"* sret %ref.tmp, %"class.dealii::Table.10"* %sub_objects, i32 %4), !dbg !6180
  %5 = load i32, i32* %c, align 4, !dbg !6182
  %call = call dereferenceable(16) %"class.dealii::SmartPointer.12"* @_ZNK6dealii8internal18TableBaseAccessors8AccessorILi2ENS_12SmartPointerINS_25CompressedSparsityPatternEEELb1ELj1EEixEj(%"class.dealii::internal::TableBaseAccessors::Accessor.21"* %ref.tmp, i32 %5), !dbg !6180
  %call5 = call %"class.dealii::CompressedSparsityPattern"* @_ZNK6dealii12SmartPointerINS_25CompressedSparsityPatternEEptEv(%"class.dealii::SmartPointer.12"* %call), !dbg !6180
  %call6 = call i32 @_ZNK6dealii25CompressedSparsityPattern19max_entries_per_rowEv(%"class.dealii::CompressedSparsityPattern"* %call5), !dbg !6183
  %6 = load i32, i32* %this_row, align 4, !dbg !6184
  %add = add i32 %6, %call6, !dbg !6184
  store i32 %add, i32* %this_row, align 4, !dbg !6184
  br label %for.inc, !dbg !6185

for.inc:                                          ; preds = %for.body4
  %7 = load i32, i32* %c, align 4, !dbg !6186
  %inc = add i32 %7, 1, !dbg !6186
  store i32 %inc, i32* %c, align 4, !dbg !6186
  br label %for.cond2, !dbg !6187, !llvm.loop !6188

for.end:                                          ; preds = %for.cond2
  %8 = load i32, i32* %this_row, align 4, !dbg !6190
  %9 = load i32, i32* %max_entries, align 4, !dbg !6192
  %cmp7 = icmp ugt i32 %8, %9, !dbg !6193
  br i1 %cmp7, label %if.then, label %if.end, !dbg !6194

if.then:                                          ; preds = %for.end
  %10 = load i32, i32* %this_row, align 4, !dbg !6195
  store i32 %10, i32* %max_entries, align 4, !dbg !6196
  br label %if.end, !dbg !6197

if.end:                                           ; preds = %if.then, %for.end
  br label %for.inc8, !dbg !6198

for.inc8:                                         ; preds = %if.end
  %11 = load i32, i32* %block_row, align 4, !dbg !6199
  %inc9 = add i32 %11, 1, !dbg !6199
  store i32 %inc9, i32* %block_row, align 4, !dbg !6199
  br label %for.cond, !dbg !6200, !llvm.loop !6201

for.end10:                                        ; preds = %for.cond
  %12 = load i32, i32* %max_entries, align 4, !dbg !6203
  ret i32 %12, !dbg !6204
}

declare dso_local i32 @_ZNK6dealii25CompressedSparsityPattern19max_entries_per_rowEv(%"class.dealii::CompressedSparsityPattern"*) #1

; Function Attrs: noinline uwtable
define weak_odr dso_local void @_ZN6dealii24BlockSparsityPatternBaseINS_25CompressedSparsityPatternEE3addEjj(%"class.dealii::BlockSparsityPatternBase.9"* %this, i32 %i, i32 %j) #0 comdat align 2 !dbg !6205 {
entry:
  %this.addr = alloca %"class.dealii::BlockSparsityPatternBase.9"*, align 8
  %i.addr = alloca i32, align 4
  %j.addr = alloca i32, align 4
  %row_index = alloca %"struct.std::pair", align 4
  %col_index = alloca %"struct.std::pair", align 4
  %ref.tmp = alloca %"class.dealii::internal::TableBaseAccessors::Accessor.20", align 8
  store %"class.dealii::BlockSparsityPatternBase.9"* %this, %"class.dealii::BlockSparsityPatternBase.9"** %this.addr, align 8
  call void @llvm.dbg.declare(metadata %"class.dealii::BlockSparsityPatternBase.9"** %this.addr, metadata !6206, metadata !DIExpression()), !dbg !6207
  store i32 %i, i32* %i.addr, align 4
  call void @llvm.dbg.declare(metadata i32* %i.addr, metadata !6208, metadata !DIExpression()), !dbg !6209
  store i32 %j, i32* %j.addr, align 4
  call void @llvm.dbg.declare(metadata i32* %j.addr, metadata !6210, metadata !DIExpression()), !dbg !6211
  %this1 = load %"class.dealii::BlockSparsityPatternBase.9"*, %"class.dealii::BlockSparsityPatternBase.9"** %this.addr, align 8
  call void @llvm.dbg.declare(metadata %"struct.std::pair"* %row_index, metadata !6212, metadata !DIExpression()), !dbg !6213
  %row_indices = getelementptr inbounds %"class.dealii::BlockSparsityPatternBase.9", %"class.dealii::BlockSparsityPatternBase.9"* %this1, i32 0, i32 4, !dbg !6214
  %0 = load i32, i32* %i.addr, align 4, !dbg !6215
  %call = call i64 @_ZNK6dealii12BlockIndices15global_to_localEj(%"class.dealii::BlockIndices"* %row_indices, i32 %0), !dbg !6216
  %1 = bitcast %"struct.std::pair"* %row_index to i64*, !dbg !6216
  store i64 %call, i64* %1, align 4, !dbg !6216
  call void @llvm.dbg.declare(metadata %"struct.std::pair"* %col_index, metadata !6217, metadata !DIExpression()), !dbg !6218
  %column_indices = getelementptr inbounds %"class.dealii::BlockSparsityPatternBase.9", %"class.dealii::BlockSparsityPatternBase.9"* %this1, i32 0, i32 5, !dbg !6219
  %2 = load i32, i32* %j.addr, align 4, !dbg !6220
  %call2 = call i64 @_ZNK6dealii12BlockIndices15global_to_localEj(%"class.dealii::BlockIndices"* %column_indices, i32 %2), !dbg !6221
  %3 = bitcast %"struct.std::pair"* %col_index to i64*, !dbg !6221
  store i64 %call2, i64* %3, align 4, !dbg !6221
  %sub_objects = getelementptr inbounds %"class.dealii::BlockSparsityPatternBase.9", %"class.dealii::BlockSparsityPatternBase.9"* %this1, i32 0, i32 3, !dbg !6222
  %first = getelementptr inbounds %"struct.std::pair", %"struct.std::pair"* %row_index, i32 0, i32 0, !dbg !6223
  %4 = load i32, i32* %first, align 4, !dbg !6223
  call void @_ZN6dealii5TableILi2ENS_12SmartPointerINS_25CompressedSparsityPatternEEEEixEj(%"class.dealii::internal::TableBaseAccessors::Accessor.20"* sret %ref.tmp, %"class.dealii::Table.10"* %sub_objects, i32 %4), !dbg !6222
  %first3 = getelementptr inbounds %"struct.std::pair", %"struct.std::pair"* %col_index, i32 0, i32 0, !dbg !6224
  %5 = load i32, i32* %first3, align 4, !dbg !6224
  %call4 = call dereferenceable(16) %"class.dealii::SmartPointer.12"* @_ZNK6dealii8internal18TableBaseAccessors8AccessorILi2ENS_12SmartPointerINS_25CompressedSparsityPatternEEELb0ELj1EEixEj(%"class.dealii::internal::TableBaseAccessors::Accessor.20"* %ref.tmp, i32 %5), !dbg !6222
  %call5 = call %"class.dealii::CompressedSparsityPattern"* @_ZNK6dealii12SmartPointerINS_25CompressedSparsityPatternEEptEv(%"class.dealii::SmartPointer.12"* %call4), !dbg !6222
  %second = getelementptr inbounds %"struct.std::pair", %"struct.std::pair"* %row_index, i32 0, i32 1, !dbg !6225
  %6 = load i32, i32* %second, align 4, !dbg !6225
  %second6 = getelementptr inbounds %"struct.std::pair", %"struct.std::pair"* %col_index, i32 0, i32 1, !dbg !6226
  %7 = load i32, i32* %second6, align 4, !dbg !6226
  call void @_ZN6dealii25CompressedSparsityPattern3addEjj(%"class.dealii::CompressedSparsityPattern"* %call5, i32 %6, i32 %7), !dbg !6227
  ret void, !dbg !6228
}

; Function Attrs: noinline uwtable
define linkonce_odr dso_local void @_ZN6dealii25CompressedSparsityPattern3addEjj(%"class.dealii::CompressedSparsityPattern"* %this, i32 %i, i32 %j) #0 comdat align 2 !dbg !6229 {
entry:
  %this.addr = alloca %"class.dealii::CompressedSparsityPattern"*, align 8
  %i.addr = alloca i32, align 4
  %j.addr = alloca i32, align 4
  store %"class.dealii::CompressedSparsityPattern"* %this, %"class.dealii::CompressedSparsityPattern"** %this.addr, align 8
  call void @llvm.dbg.declare(metadata %"class.dealii::CompressedSparsityPattern"** %this.addr, metadata !6234, metadata !DIExpression()), !dbg !6235
  store i32 %i, i32* %i.addr, align 4
  call void @llvm.dbg.declare(metadata i32* %i.addr, metadata !6236, metadata !DIExpression()), !dbg !6237
  store i32 %j, i32* %j.addr, align 4
  call void @llvm.dbg.declare(metadata i32* %j.addr, metadata !6238, metadata !DIExpression()), !dbg !6239
  %this1 = load %"class.dealii::CompressedSparsityPattern"*, %"class.dealii::CompressedSparsityPattern"** %this.addr, align 8
  %lines = getelementptr inbounds %"class.dealii::CompressedSparsityPattern", %"class.dealii::CompressedSparsityPattern"* %this1, i32 0, i32 3, !dbg !6240
  %0 = load i32, i32* %i.addr, align 4, !dbg !6241
  %conv = zext i32 %0 to i64, !dbg !6241
  %call = call dereferenceable(64) %"struct.dealii::CompressedSparsityPattern::Line"* @_ZNSt6vectorIN6dealii25CompressedSparsityPattern4LineESaIS2_EEixEm(%"class.std::vector.15"* %lines, i64 %conv) #3, !dbg !6240
  %1 = load i32, i32* %j.addr, align 4, !dbg !6242
  call void @_ZN6dealii25CompressedSparsityPattern4Line3addEj(%"struct.dealii::CompressedSparsityPattern::Line"* %call, i32 %1), !dbg !6243
  ret void, !dbg !6244
}

; Function Attrs: noinline uwtable
define weak_odr dso_local i32 @_ZNK6dealii24BlockSparsityPatternBaseINS_25CompressedSparsityPatternEE6n_rowsEv(%"class.dealii::BlockSparsityPatternBase.9"* %this) #0 comdat align 2 !dbg !6245 {
entry:
  %this.addr = alloca %"class.dealii::BlockSparsityPatternBase.9"*, align 8
  %count = alloca i32, align 4
  %r = alloca i32, align 4
  %ref.tmp = alloca %"class.dealii::internal::TableBaseAccessors::Accessor.21", align 8
  store %"class.dealii::BlockSparsityPatternBase.9"* %this, %"class.dealii::BlockSparsityPatternBase.9"** %this.addr, align 8
  call void @llvm.dbg.declare(metadata %"class.dealii::BlockSparsityPatternBase.9"** %this.addr, metadata !6246, metadata !DIExpression()), !dbg !6247
  %this1 = load %"class.dealii::BlockSparsityPatternBase.9"*, %"class.dealii::BlockSparsityPatternBase.9"** %this.addr, align 8
  call void @llvm.dbg.declare(metadata i32* %count, metadata !6248, metadata !DIExpression()), !dbg !6249
  store i32 0, i32* %count, align 4, !dbg !6249
  call void @llvm.dbg.declare(metadata i32* %r, metadata !6250, metadata !DIExpression()), !dbg !6252
  store i32 0, i32* %r, align 4, !dbg !6252
  br label %for.cond, !dbg !6253

for.cond:                                         ; preds = %for.inc, %entry
  %0 = load i32, i32* %r, align 4, !dbg !6254
  %rows = getelementptr inbounds %"class.dealii::BlockSparsityPatternBase.9", %"class.dealii::BlockSparsityPatternBase.9"* %this1, i32 0, i32 1, !dbg !6256
  %1 = load i32, i32* %rows, align 8, !dbg !6256
  %cmp = icmp ult i32 %0, %1, !dbg !6257
  br i1 %cmp, label %for.body, label %for.end, !dbg !6258

for.body:                                         ; preds = %for.cond
  %sub_objects = getelementptr inbounds %"class.dealii::BlockSparsityPatternBase.9", %"class.dealii::BlockSparsityPatternBase.9"* %this1, i32 0, i32 3, !dbg !6259
  %2 = load i32, i32* %r, align 4, !dbg !6260
  call void @_ZNK6dealii5TableILi2ENS_12SmartPointerINS_25CompressedSparsityPatternEEEEixEj(%"class.dealii::internal::TableBaseAccessors::Accessor.21"* sret %ref.tmp, %"class.dealii::Table.10"* %sub_objects, i32 %2), !dbg !6259
  %call = call dereferenceable(16) %"class.dealii::SmartPointer.12"* @_ZNK6dealii8internal18TableBaseAccessors8AccessorILi2ENS_12SmartPointerINS_25CompressedSparsityPatternEEELb1ELj1EEixEj(%"class.dealii::internal::TableBaseAccessors::Accessor.21"* %ref.tmp, i32 0), !dbg !6259
  %call2 = call %"class.dealii::CompressedSparsityPattern"* @_ZNK6dealii12SmartPointerINS_25CompressedSparsityPatternEEptEv(%"class.dealii::SmartPointer.12"* %call), !dbg !6259
  %call3 = call i32 @_ZNK6dealii25CompressedSparsityPattern6n_rowsEv(%"class.dealii::CompressedSparsityPattern"* %call2), !dbg !6261
  %3 = load i32, i32* %count, align 4, !dbg !6262
  %add = add i32 %3, %call3, !dbg !6262
  store i32 %add, i32* %count, align 4, !dbg !6262
  br label %for.inc, !dbg !6263

for.inc:                                          ; preds = %for.body
  %4 = load i32, i32* %r, align 4, !dbg !6264
  %inc = add i32 %4, 1, !dbg !6264
  store i32 %inc, i32* %r, align 4, !dbg !6264
  br label %for.cond, !dbg !6265, !llvm.loop !6266

for.end:                                          ; preds = %for.cond
  %5 = load i32, i32* %count, align 4, !dbg !6268
  ret i32 %5, !dbg !6269
}

; Function Attrs: noinline uwtable
define weak_odr dso_local i32 @_ZNK6dealii24BlockSparsityPatternBaseINS_25CompressedSparsityPatternEE6n_colsEv(%"class.dealii::BlockSparsityPatternBase.9"* %this) #0 comdat align 2 !dbg !6270 {
entry:
  %this.addr = alloca %"class.dealii::BlockSparsityPatternBase.9"*, align 8
  %count = alloca i32, align 4
  %c = alloca i32, align 4
  %ref.tmp = alloca %"class.dealii::internal::TableBaseAccessors::Accessor.21", align 8
  store %"class.dealii::BlockSparsityPatternBase.9"* %this, %"class.dealii::BlockSparsityPatternBase.9"** %this.addr, align 8
  call void @llvm.dbg.declare(metadata %"class.dealii::BlockSparsityPatternBase.9"** %this.addr, metadata !6271, metadata !DIExpression()), !dbg !6272
  %this1 = load %"class.dealii::BlockSparsityPatternBase.9"*, %"class.dealii::BlockSparsityPatternBase.9"** %this.addr, align 8
  call void @llvm.dbg.declare(metadata i32* %count, metadata !6273, metadata !DIExpression()), !dbg !6274
  store i32 0, i32* %count, align 4, !dbg !6274
  call void @llvm.dbg.declare(metadata i32* %c, metadata !6275, metadata !DIExpression()), !dbg !6277
  store i32 0, i32* %c, align 4, !dbg !6277
  br label %for.cond, !dbg !6278

for.cond:                                         ; preds = %for.inc, %entry
  %0 = load i32, i32* %c, align 4, !dbg !6279
  %columns = getelementptr inbounds %"class.dealii::BlockSparsityPatternBase.9", %"class.dealii::BlockSparsityPatternBase.9"* %this1, i32 0, i32 2, !dbg !6281
  %1 = load i32, i32* %columns, align 4, !dbg !6281
  %cmp = icmp ult i32 %0, %1, !dbg !6282
  br i1 %cmp, label %for.body, label %for.end, !dbg !6283

for.body:                                         ; preds = %for.cond
  %sub_objects = getelementptr inbounds %"class.dealii::BlockSparsityPatternBase.9", %"class.dealii::BlockSparsityPatternBase.9"* %this1, i32 0, i32 3, !dbg !6284
  call void @_ZNK6dealii5TableILi2ENS_12SmartPointerINS_25CompressedSparsityPatternEEEEixEj(%"class.dealii::internal::TableBaseAccessors::Accessor.21"* sret %ref.tmp, %"class.dealii::Table.10"* %sub_objects, i32 0), !dbg !6284
  %2 = load i32, i32* %c, align 4, !dbg !6285
  %call = call dereferenceable(16) %"class.dealii::SmartPointer.12"* @_ZNK6dealii8internal18TableBaseAccessors8AccessorILi2ENS_12SmartPointerINS_25CompressedSparsityPatternEEELb1ELj1EEixEj(%"class.dealii::internal::TableBaseAccessors::Accessor.21"* %ref.tmp, i32 %2), !dbg !6284
  %call2 = call %"class.dealii::CompressedSparsityPattern"* @_ZNK6dealii12SmartPointerINS_25CompressedSparsityPatternEEptEv(%"class.dealii::SmartPointer.12"* %call), !dbg !6284
  %call3 = call i32 @_ZNK6dealii25CompressedSparsityPattern6n_colsEv(%"class.dealii::CompressedSparsityPattern"* %call2), !dbg !6286
  %3 = load i32, i32* %count, align 4, !dbg !6287
  %add = add i32 %3, %call3, !dbg !6287
  store i32 %add, i32* %count, align 4, !dbg !6287
  br label %for.inc, !dbg !6288

for.inc:                                          ; preds = %for.body
  %4 = load i32, i32* %c, align 4, !dbg !6289
  %inc = add i32 %4, 1, !dbg !6289
  store i32 %inc, i32* %c, align 4, !dbg !6289
  br label %for.cond, !dbg !6290, !llvm.loop !6291

for.end:                                          ; preds = %for.cond
  %5 = load i32, i32* %count, align 4, !dbg !6293
  ret i32 %5, !dbg !6294
}

; Function Attrs: noinline uwtable
define weak_odr dso_local zeroext i1 @_ZNK6dealii24BlockSparsityPatternBaseINS_25CompressedSparsityPatternEE6existsEjj(%"class.dealii::BlockSparsityPatternBase.9"* %this, i32 %i, i32 %j) #0 comdat align 2 !dbg !6295 {
entry:
  %this.addr = alloca %"class.dealii::BlockSparsityPatternBase.9"*, align 8
  %i.addr = alloca i32, align 4
  %j.addr = alloca i32, align 4
  %row_index = alloca %"struct.std::pair", align 4
  %col_index = alloca %"struct.std::pair", align 4
  %ref.tmp = alloca %"class.dealii::internal::TableBaseAccessors::Accessor.21", align 8
  store %"class.dealii::BlockSparsityPatternBase.9"* %this, %"class.dealii::BlockSparsityPatternBase.9"** %this.addr, align 8
  call void @llvm.dbg.declare(metadata %"class.dealii::BlockSparsityPatternBase.9"** %this.addr, metadata !6296, metadata !DIExpression()), !dbg !6297
  store i32 %i, i32* %i.addr, align 4
  call void @llvm.dbg.declare(metadata i32* %i.addr, metadata !6298, metadata !DIExpression()), !dbg !6299
  store i32 %j, i32* %j.addr, align 4
  call void @llvm.dbg.declare(metadata i32* %j.addr, metadata !6300, metadata !DIExpression()), !dbg !6301
  %this1 = load %"class.dealii::BlockSparsityPatternBase.9"*, %"class.dealii::BlockSparsityPatternBase.9"** %this.addr, align 8
  call void @llvm.dbg.declare(metadata %"struct.std::pair"* %row_index, metadata !6302, metadata !DIExpression()), !dbg !6303
  %row_indices = getelementptr inbounds %"class.dealii::BlockSparsityPatternBase.9", %"class.dealii::BlockSparsityPatternBase.9"* %this1, i32 0, i32 4, !dbg !6304
  %0 = load i32, i32* %i.addr, align 4, !dbg !6305
  %call = call i64 @_ZNK6dealii12BlockIndices15global_to_localEj(%"class.dealii::BlockIndices"* %row_indices, i32 %0), !dbg !6306
  %1 = bitcast %"struct.std::pair"* %row_index to i64*, !dbg !6306
  store i64 %call, i64* %1, align 4, !dbg !6306
  call void @llvm.dbg.declare(metadata %"struct.std::pair"* %col_index, metadata !6307, metadata !DIExpression()), !dbg !6308
  %column_indices = getelementptr inbounds %"class.dealii::BlockSparsityPatternBase.9", %"class.dealii::BlockSparsityPatternBase.9"* %this1, i32 0, i32 5, !dbg !6309
  %2 = load i32, i32* %j.addr, align 4, !dbg !6310
  %call2 = call i64 @_ZNK6dealii12BlockIndices15global_to_localEj(%"class.dealii::BlockIndices"* %column_indices, i32 %2), !dbg !6311
  %3 = bitcast %"struct.std::pair"* %col_index to i64*, !dbg !6311
  store i64 %call2, i64* %3, align 4, !dbg !6311
  %sub_objects = getelementptr inbounds %"class.dealii::BlockSparsityPatternBase.9", %"class.dealii::BlockSparsityPatternBase.9"* %this1, i32 0, i32 3, !dbg !6312
  %first = getelementptr inbounds %"struct.std::pair", %"struct.std::pair"* %row_index, i32 0, i32 0, !dbg !6313
  %4 = load i32, i32* %first, align 4, !dbg !6313
  call void @_ZNK6dealii5TableILi2ENS_12SmartPointerINS_25CompressedSparsityPatternEEEEixEj(%"class.dealii::internal::TableBaseAccessors::Accessor.21"* sret %ref.tmp, %"class.dealii::Table.10"* %sub_objects, i32 %4), !dbg !6312
  %first3 = getelementptr inbounds %"struct.std::pair", %"struct.std::pair"* %col_index, i32 0, i32 0, !dbg !6314
  %5 = load i32, i32* %first3, align 4, !dbg !6314
  %call4 = call dereferenceable(16) %"class.dealii::SmartPointer.12"* @_ZNK6dealii8internal18TableBaseAccessors8AccessorILi2ENS_12SmartPointerINS_25CompressedSparsityPatternEEELb1ELj1EEixEj(%"class.dealii::internal::TableBaseAccessors::Accessor.21"* %ref.tmp, i32 %5), !dbg !6312
  %call5 = call %"class.dealii::CompressedSparsityPattern"* @_ZNK6dealii12SmartPointerINS_25CompressedSparsityPatternEEptEv(%"class.dealii::SmartPointer.12"* %call4), !dbg !6312
  %second = getelementptr inbounds %"struct.std::pair", %"struct.std::pair"* %row_index, i32 0, i32 1, !dbg !6315
  %6 = load i32, i32* %second, align 4, !dbg !6315
  %second6 = getelementptr inbounds %"struct.std::pair", %"struct.std::pair"* %col_index, i32 0, i32 1, !dbg !6316
  %7 = load i32, i32* %second6, align 4, !dbg !6316
  %call7 = call zeroext i1 @_ZNK6dealii25CompressedSparsityPattern6existsEjj(%"class.dealii::CompressedSparsityPattern"* %call5, i32 %6, i32 %7), !dbg !6317
  ret i1 %call7, !dbg !6318
}

declare dso_local zeroext i1 @_ZNK6dealii25CompressedSparsityPattern6existsEjj(%"class.dealii::CompressedSparsityPattern"*, i32, i32) #1

; Function Attrs: noinline uwtable
define weak_odr dso_local i32 @_ZNK6dealii24BlockSparsityPatternBaseINS_25CompressedSparsityPatternEE10row_lengthEj(%"class.dealii::BlockSparsityPatternBase.9"* %this, i32 %row) #0 comdat align 2 !dbg !6319 {
entry:
  %this.addr = alloca %"class.dealii::BlockSparsityPatternBase.9"*, align 8
  %row.addr = alloca i32, align 4
  %row_index = alloca %"struct.std::pair", align 4
  %c = alloca i32, align 4
  %b = alloca i32, align 4
  %ref.tmp = alloca %"class.dealii::internal::TableBaseAccessors::Accessor.21", align 8
  store %"class.dealii::BlockSparsityPatternBase.9"* %this, %"class.dealii::BlockSparsityPatternBase.9"** %this.addr, align 8
  call void @llvm.dbg.declare(metadata %"class.dealii::BlockSparsityPatternBase.9"** %this.addr, metadata !6320, metadata !DIExpression()), !dbg !6321
  store i32 %row, i32* %row.addr, align 4
  call void @llvm.dbg.declare(metadata i32* %row.addr, metadata !6322, metadata !DIExpression()), !dbg !6323
  %this1 = load %"class.dealii::BlockSparsityPatternBase.9"*, %"class.dealii::BlockSparsityPatternBase.9"** %this.addr, align 8
  call void @llvm.dbg.declare(metadata %"struct.std::pair"* %row_index, metadata !6324, metadata !DIExpression()), !dbg !6325
  %row_indices = getelementptr inbounds %"class.dealii::BlockSparsityPatternBase.9", %"class.dealii::BlockSparsityPatternBase.9"* %this1, i32 0, i32 4, !dbg !6326
  %0 = load i32, i32* %row.addr, align 4, !dbg !6327
  %call = call i64 @_ZNK6dealii12BlockIndices15global_to_localEj(%"class.dealii::BlockIndices"* %row_indices, i32 %0), !dbg !6328
  %1 = bitcast %"struct.std::pair"* %row_index to i64*, !dbg !6328
  store i64 %call, i64* %1, align 4, !dbg !6328
  call void @llvm.dbg.declare(metadata i32* %c, metadata !6329, metadata !DIExpression()), !dbg !6330
  store i32 0, i32* %c, align 4, !dbg !6330
  call void @llvm.dbg.declare(metadata i32* %b, metadata !6331, metadata !DIExpression()), !dbg !6333
  store i32 0, i32* %b, align 4, !dbg !6333
  br label %for.cond, !dbg !6334

for.cond:                                         ; preds = %for.inc, %entry
  %2 = load i32, i32* %b, align 4, !dbg !6335
  %rows = getelementptr inbounds %"class.dealii::BlockSparsityPatternBase.9", %"class.dealii::BlockSparsityPatternBase.9"* %this1, i32 0, i32 1, !dbg !6337
  %3 = load i32, i32* %rows, align 8, !dbg !6337
  %cmp = icmp ult i32 %2, %3, !dbg !6338
  br i1 %cmp, label %for.body, label %for.end, !dbg !6339

for.body:                                         ; preds = %for.cond
  %sub_objects = getelementptr inbounds %"class.dealii::BlockSparsityPatternBase.9", %"class.dealii::BlockSparsityPatternBase.9"* %this1, i32 0, i32 3, !dbg !6340
  %first = getelementptr inbounds %"struct.std::pair", %"struct.std::pair"* %row_index, i32 0, i32 0, !dbg !6341
  %4 = load i32, i32* %first, align 4, !dbg !6341
  call void @_ZNK6dealii5TableILi2ENS_12SmartPointerINS_25CompressedSparsityPatternEEEEixEj(%"class.dealii::internal::TableBaseAccessors::Accessor.21"* sret %ref.tmp, %"class.dealii::Table.10"* %sub_objects, i32 %4), !dbg !6340
  %5 = load i32, i32* %b, align 4, !dbg !6342
  %call2 = call dereferenceable(16) %"class.dealii::SmartPointer.12"* @_ZNK6dealii8internal18TableBaseAccessors8AccessorILi2ENS_12SmartPointerINS_25CompressedSparsityPatternEEELb1ELj1EEixEj(%"class.dealii::internal::TableBaseAccessors::Accessor.21"* %ref.tmp, i32 %5), !dbg !6340
  %call3 = call %"class.dealii::CompressedSparsityPattern"* @_ZNK6dealii12SmartPointerINS_25CompressedSparsityPatternEEptEv(%"class.dealii::SmartPointer.12"* %call2), !dbg !6340
  %second = getelementptr inbounds %"struct.std::pair", %"struct.std::pair"* %row_index, i32 0, i32 1, !dbg !6343
  %6 = load i32, i32* %second, align 4, !dbg !6343
  %call4 = call i32 @_ZNK6dealii25CompressedSparsityPattern10row_lengthEj(%"class.dealii::CompressedSparsityPattern"* %call3, i32 %6), !dbg !6344
  %7 = load i32, i32* %c, align 4, !dbg !6345
  %add = add i32 %7, %call4, !dbg !6345
  store i32 %add, i32* %c, align 4, !dbg !6345
  br label %for.inc, !dbg !6346

for.inc:                                          ; preds = %for.body
  %8 = load i32, i32* %b, align 4, !dbg !6347
  %inc = add i32 %8, 1, !dbg !6347
  store i32 %inc, i32* %b, align 4, !dbg !6347
  br label %for.cond, !dbg !6348, !llvm.loop !6349

for.end:                                          ; preds = %for.cond
  %9 = load i32, i32* %c, align 4, !dbg !6351
  ret i32 %9, !dbg !6352
}

; Function Attrs: noinline uwtable
define linkonce_odr dso_local i32 @_ZNK6dealii25CompressedSparsityPattern10row_lengthEj(%"class.dealii::CompressedSparsityPattern"* %this, i32 %row) #0 comdat align 2 !dbg !6353 {
entry:
  %this.addr = alloca %"class.dealii::CompressedSparsityPattern"*, align 8
  %row.addr = alloca i32, align 4
  store %"class.dealii::CompressedSparsityPattern"* %this, %"class.dealii::CompressedSparsityPattern"** %this.addr, align 8
  call void @llvm.dbg.declare(metadata %"class.dealii::CompressedSparsityPattern"** %this.addr, metadata !6357, metadata !DIExpression()), !dbg !6358
  store i32 %row, i32* %row.addr, align 4
  call void @llvm.dbg.declare(metadata i32* %row.addr, metadata !6359, metadata !DIExpression()), !dbg !6360
  %this1 = load %"class.dealii::CompressedSparsityPattern"*, %"class.dealii::CompressedSparsityPattern"** %this.addr, align 8
  %lines = getelementptr inbounds %"class.dealii::CompressedSparsityPattern", %"class.dealii::CompressedSparsityPattern"* %this1, i32 0, i32 3, !dbg !6361
  %0 = load i32, i32* %row.addr, align 4, !dbg !6363
  %conv = zext i32 %0 to i64, !dbg !6363
  %call = call dereferenceable(64) %"struct.dealii::CompressedSparsityPattern::Line"* @_ZNKSt6vectorIN6dealii25CompressedSparsityPattern4LineESaIS2_EEixEm(%"class.std::vector.15"* %lines, i64 %conv) #3, !dbg !6361
  %cache_entries = getelementptr inbounds %"struct.dealii::CompressedSparsityPattern::Line", %"struct.dealii::CompressedSparsityPattern::Line"* %call, i32 0, i32 2, !dbg !6364
  %1 = load i32, i32* %cache_entries, align 8, !dbg !6364
  %cmp = icmp ne i32 %1, 0, !dbg !6365
  br i1 %cmp, label %if.then, label %if.end, !dbg !6366

if.then:                                          ; preds = %entry
  %lines2 = getelementptr inbounds %"class.dealii::CompressedSparsityPattern", %"class.dealii::CompressedSparsityPattern"* %this1, i32 0, i32 3, !dbg !6367
  %2 = load i32, i32* %row.addr, align 4, !dbg !6368
  %conv3 = zext i32 %2 to i64, !dbg !6368
  %call4 = call dereferenceable(64) %"struct.dealii::CompressedSparsityPattern::Line"* @_ZNKSt6vectorIN6dealii25CompressedSparsityPattern4LineESaIS2_EEixEm(%"class.std::vector.15"* %lines2, i64 %conv3) #3, !dbg !6367
  call void @_ZNK6dealii25CompressedSparsityPattern4Line11flush_cacheEv(%"struct.dealii::CompressedSparsityPattern::Line"* %call4), !dbg !6369
  br label %if.end, !dbg !6367

if.end:                                           ; preds = %if.then, %entry
  %lines5 = getelementptr inbounds %"class.dealii::CompressedSparsityPattern", %"class.dealii::CompressedSparsityPattern"* %this1, i32 0, i32 3, !dbg !6370
  %3 = load i32, i32* %row.addr, align 4, !dbg !6371
  %conv6 = zext i32 %3 to i64, !dbg !6371
  %call7 = call dereferenceable(64) %"struct.dealii::CompressedSparsityPattern::Line"* @_ZNKSt6vectorIN6dealii25CompressedSparsityPattern4LineESaIS2_EEixEm(%"class.std::vector.15"* %lines5, i64 %conv6) #3, !dbg !6370
  %entries = getelementptr inbounds %"struct.dealii::CompressedSparsityPattern::Line", %"struct.dealii::CompressedSparsityPattern::Line"* %call7, i32 0, i32 0, !dbg !6372
  %call8 = call i64 @_ZNKSt6vectorIjSaIjEE4sizeEv(%"class.std::vector"* %entries) #3, !dbg !6373
  %conv9 = trunc i64 %call8 to i32, !dbg !6370
  ret i32 %conv9, !dbg !6374
}

; Function Attrs: noinline uwtable
define weak_odr dso_local i32 @_ZNK6dealii24BlockSparsityPatternBaseINS_25CompressedSparsityPatternEE18n_nonzero_elementsEv(%"class.dealii::BlockSparsityPatternBase.9"* %this) #0 comdat align 2 !dbg !6375 {
entry:
  %this.addr = alloca %"class.dealii::BlockSparsityPatternBase.9"*, align 8
  %count = alloca i32, align 4
  %i = alloca i32, align 4
  %j = alloca i32, align 4
  %ref.tmp = alloca %"class.dealii::internal::TableBaseAccessors::Accessor.21", align 8
  store %"class.dealii::BlockSparsityPatternBase.9"* %this, %"class.dealii::BlockSparsityPatternBase.9"** %this.addr, align 8
  call void @llvm.dbg.declare(metadata %"class.dealii::BlockSparsityPatternBase.9"** %this.addr, metadata !6376, metadata !DIExpression()), !dbg !6377
  %this1 = load %"class.dealii::BlockSparsityPatternBase.9"*, %"class.dealii::BlockSparsityPatternBase.9"** %this.addr, align 8
  call void @llvm.dbg.declare(metadata i32* %count, metadata !6378, metadata !DIExpression()), !dbg !6379
  store i32 0, i32* %count, align 4, !dbg !6379
  call void @llvm.dbg.declare(metadata i32* %i, metadata !6380, metadata !DIExpression()), !dbg !6382
  store i32 0, i32* %i, align 4, !dbg !6382
  br label %for.cond, !dbg !6383

for.cond:                                         ; preds = %for.inc7, %entry
  %0 = load i32, i32* %i, align 4, !dbg !6384
  %rows = getelementptr inbounds %"class.dealii::BlockSparsityPatternBase.9", %"class.dealii::BlockSparsityPatternBase.9"* %this1, i32 0, i32 1, !dbg !6386
  %1 = load i32, i32* %rows, align 8, !dbg !6386
  %cmp = icmp ult i32 %0, %1, !dbg !6387
  br i1 %cmp, label %for.body, label %for.end9, !dbg !6388

for.body:                                         ; preds = %for.cond
  call void @llvm.dbg.declare(metadata i32* %j, metadata !6389, metadata !DIExpression()), !dbg !6391
  store i32 0, i32* %j, align 4, !dbg !6391
  br label %for.cond2, !dbg !6392

for.cond2:                                        ; preds = %for.inc, %for.body
  %2 = load i32, i32* %j, align 4, !dbg !6393
  %columns = getelementptr inbounds %"class.dealii::BlockSparsityPatternBase.9", %"class.dealii::BlockSparsityPatternBase.9"* %this1, i32 0, i32 2, !dbg !6395
  %3 = load i32, i32* %columns, align 4, !dbg !6395
  %cmp3 = icmp ult i32 %2, %3, !dbg !6396
  br i1 %cmp3, label %for.body4, label %for.end, !dbg !6397

for.body4:                                        ; preds = %for.cond2
  %sub_objects = getelementptr inbounds %"class.dealii::BlockSparsityPatternBase.9", %"class.dealii::BlockSparsityPatternBase.9"* %this1, i32 0, i32 3, !dbg !6398
  %4 = load i32, i32* %i, align 4, !dbg !6399
  call void @_ZNK6dealii5TableILi2ENS_12SmartPointerINS_25CompressedSparsityPatternEEEEixEj(%"class.dealii::internal::TableBaseAccessors::Accessor.21"* sret %ref.tmp, %"class.dealii::Table.10"* %sub_objects, i32 %4), !dbg !6398
  %5 = load i32, i32* %j, align 4, !dbg !6400
  %call = call dereferenceable(16) %"class.dealii::SmartPointer.12"* @_ZNK6dealii8internal18TableBaseAccessors8AccessorILi2ENS_12SmartPointerINS_25CompressedSparsityPatternEEELb1ELj1EEixEj(%"class.dealii::internal::TableBaseAccessors::Accessor.21"* %ref.tmp, i32 %5), !dbg !6398
  %call5 = call %"class.dealii::CompressedSparsityPattern"* @_ZNK6dealii12SmartPointerINS_25CompressedSparsityPatternEEptEv(%"class.dealii::SmartPointer.12"* %call), !dbg !6398
  %call6 = call i32 @_ZNK6dealii25CompressedSparsityPattern18n_nonzero_elementsEv(%"class.dealii::CompressedSparsityPattern"* %call5), !dbg !6401
  %6 = load i32, i32* %count, align 4, !dbg !6402
  %add = add i32 %6, %call6, !dbg !6402
  store i32 %add, i32* %count, align 4, !dbg !6402
  br label %for.inc, !dbg !6403

for.inc:                                          ; preds = %for.body4
  %7 = load i32, i32* %j, align 4, !dbg !6404
  %inc = add i32 %7, 1, !dbg !6404
  store i32 %inc, i32* %j, align 4, !dbg !6404
  br label %for.cond2, !dbg !6405, !llvm.loop !6406

for.end:                                          ; preds = %for.cond2
  br label %for.inc7, !dbg !6407

for.inc7:                                         ; preds = %for.end
  %8 = load i32, i32* %i, align 4, !dbg !6408
  %inc8 = add i32 %8, 1, !dbg !6408
  store i32 %inc8, i32* %i, align 4, !dbg !6408
  br label %for.cond, !dbg !6409, !llvm.loop !6410

for.end9:                                         ; preds = %for.cond
  %9 = load i32, i32* %count, align 4, !dbg !6412
  ret i32 %9, !dbg !6413
}

declare dso_local i32 @_ZNK6dealii25CompressedSparsityPattern18n_nonzero_elementsEv(%"class.dealii::CompressedSparsityPattern"*) #1

; Function Attrs: noinline uwtable
define weak_odr dso_local void @_ZNK6dealii24BlockSparsityPatternBaseINS_25CompressedSparsityPatternEE5printERSo(%"class.dealii::BlockSparsityPatternBase.9"* %this, %"class.std::basic_ostream"* dereferenceable(272) %out) #0 comdat align 2 !dbg !6414 {
entry:
  %this.addr = alloca %"class.dealii::BlockSparsityPatternBase.9"*, align 8
  %out.addr = alloca %"class.std::basic_ostream"*, align 8
  %k = alloca i32, align 4
  %ib = alloca i32, align 4
  %i = alloca i32, align 4
  %l = alloca i32, align 4
  %jb = alloca i32, align 4
  %b = alloca %"class.dealii::CompressedSparsityPattern"*, align 8
  %j = alloca i32, align 4
  store %"class.dealii::BlockSparsityPatternBase.9"* %this, %"class.dealii::BlockSparsityPatternBase.9"** %this.addr, align 8
  call void @llvm.dbg.declare(metadata %"class.dealii::BlockSparsityPatternBase.9"** %this.addr, metadata !6415, metadata !DIExpression()), !dbg !6416
  store %"class.std::basic_ostream"* %out, %"class.std::basic_ostream"** %out.addr, align 8
  call void @llvm.dbg.declare(metadata %"class.std::basic_ostream"** %out.addr, metadata !6417, metadata !DIExpression()), !dbg !6418
  %this1 = load %"class.dealii::BlockSparsityPatternBase.9"*, %"class.dealii::BlockSparsityPatternBase.9"** %this.addr, align 8
  call void @llvm.dbg.declare(metadata i32* %k, metadata !6419, metadata !DIExpression()), !dbg !6420
  store i32 0, i32* %k, align 4, !dbg !6420
  call void @llvm.dbg.declare(metadata i32* %ib, metadata !6421, metadata !DIExpression()), !dbg !6423
  store i32 0, i32* %ib, align 4, !dbg !6423
  br label %for.cond, !dbg !6424

for.cond:                                         ; preds = %for.inc35, %entry
  %0 = load i32, i32* %ib, align 4, !dbg !6425
  %call = call i32 @_ZNK6dealii24BlockSparsityPatternBaseINS_25CompressedSparsityPatternEE12n_block_rowsEv(%"class.dealii::BlockSparsityPatternBase.9"* %this1), !dbg !6427
  %cmp = icmp ult i32 %0, %call, !dbg !6428
  br i1 %cmp, label %for.body, label %for.end37, !dbg !6429

for.body:                                         ; preds = %for.cond
  call void @llvm.dbg.declare(metadata i32* %i, metadata !6430, metadata !DIExpression()), !dbg !6433
  store i32 0, i32* %i, align 4, !dbg !6433
  br label %for.cond2, !dbg !6434

for.cond2:                                        ; preds = %for.inc29, %for.body
  %1 = load i32, i32* %i, align 4, !dbg !6435
  %2 = load i32, i32* %ib, align 4, !dbg !6437
  %call3 = call dereferenceable(104) %"class.dealii::CompressedSparsityPattern"* @_ZNK6dealii24BlockSparsityPatternBaseINS_25CompressedSparsityPatternEE5blockEjj(%"class.dealii::BlockSparsityPatternBase.9"* %this1, i32 %2, i32 0), !dbg !6438
  %call4 = call i32 @_ZNK6dealii25CompressedSparsityPattern6n_rowsEv(%"class.dealii::CompressedSparsityPattern"* %call3), !dbg !6439
  %cmp5 = icmp ult i32 %1, %call4, !dbg !6440
  br i1 %cmp5, label %for.body6, label %for.end31, !dbg !6441

for.body6:                                        ; preds = %for.cond2
  %3 = load %"class.std::basic_ostream"*, %"class.std::basic_ostream"** %out.addr, align 8, !dbg !6442
  %call7 = call dereferenceable(272) %"class.std::basic_ostream"* @_ZStlsISt11char_traitsIcEERSt13basic_ostreamIcT_ES5_c(%"class.std::basic_ostream"* dereferenceable(272) %3, i8 signext 91), !dbg !6444
  %4 = load i32, i32* %i, align 4, !dbg !6445
  %5 = load i32, i32* %k, align 4, !dbg !6446
  %add = add i32 %4, %5, !dbg !6447
  %call8 = call dereferenceable(272) %"class.std::basic_ostream"* @_ZNSolsEj(%"class.std::basic_ostream"* %call7, i32 %add), !dbg !6448
  call void @llvm.dbg.declare(metadata i32* %l, metadata !6449, metadata !DIExpression()), !dbg !6450
  store i32 0, i32* %l, align 4, !dbg !6450
  call void @llvm.dbg.declare(metadata i32* %jb, metadata !6451, metadata !DIExpression()), !dbg !6453
  store i32 0, i32* %jb, align 4, !dbg !6453
  br label %for.cond9, !dbg !6454

for.cond9:                                        ; preds = %for.inc24, %for.body6
  %6 = load i32, i32* %jb, align 4, !dbg !6455
  %call10 = call i32 @_ZNK6dealii24BlockSparsityPatternBaseINS_25CompressedSparsityPatternEE12n_block_colsEv(%"class.dealii::BlockSparsityPatternBase.9"* %this1), !dbg !6457
  %cmp11 = icmp ult i32 %6, %call10, !dbg !6458
  br i1 %cmp11, label %for.body12, label %for.end26, !dbg !6459

for.body12:                                       ; preds = %for.cond9
  call void @llvm.dbg.declare(metadata %"class.dealii::CompressedSparsityPattern"** %b, metadata !6460, metadata !DIExpression()), !dbg !6462
  %7 = load i32, i32* %ib, align 4, !dbg !6463
  %8 = load i32, i32* %jb, align 4, !dbg !6464
  %call13 = call dereferenceable(104) %"class.dealii::CompressedSparsityPattern"* @_ZNK6dealii24BlockSparsityPatternBaseINS_25CompressedSparsityPatternEE5blockEjj(%"class.dealii::BlockSparsityPatternBase.9"* %this1, i32 %7, i32 %8), !dbg !6465
  store %"class.dealii::CompressedSparsityPattern"* %call13, %"class.dealii::CompressedSparsityPattern"** %b, align 8, !dbg !6462
  call void @llvm.dbg.declare(metadata i32* %j, metadata !6466, metadata !DIExpression()), !dbg !6468
  store i32 0, i32* %j, align 4, !dbg !6468
  br label %for.cond14, !dbg !6469

for.cond14:                                       ; preds = %for.inc, %for.body12
