; ModuleID = 'source/fe/fe_dgp.cc'
source_filename = "source/fe/fe_dgp.cc"
target datalayout = "e-m:e-p270:32:32-p271:32:32-p272:64:64-i64:64-f80:128-n8:16:32:64-S128"
target triple = "x86_64-unknown-linux-gnu"

%"struct.boost::arg" = type { i8 }
%"struct.boost::arg.0" = type { i8 }
%"struct.boost::arg.2" = type { i8 }
%"struct.boost::arg.4" = type { i8 }
%"struct.boost::arg.6" = type { i8 }
%"struct.boost::arg.8" = type { i8 }
%"struct.boost::arg.10" = type { i8 }
%"struct.boost::arg.12" = type { i8 }
%"struct.boost::arg.14" = type { i8 }
%"class.std::ios_base::Init" = type { i8 }
%"class.dealii::FE_DGP" = type { %"class.dealii::FE_Poly" }
%"class.dealii::FE_Poly" = type { %"class.dealii::FiniteElement", %"class.dealii::PolynomialSpace" }
%"class.dealii::FiniteElement" = type { %"class.dealii::Subscriptor", %"class.dealii::FiniteElementData", i8, %"class.std::vector", %"class.std::vector", %"class.dealii::FullMatrix", %"class.std::vector.20", %"class.std::vector.25", %"class.std::vector.20", %"class.std::vector.25", %"class.dealii::Table.32", %"class.std::vector.36", %"class.std::vector.41", %"class.std::vector.41", %"class.std::vector.46", %"class.std::vector.46", %"class.std::vector.54", %"class.std::vector.46", %"class.std::vector.59", %"class.std::vector.63", %"class.std::vector.54" }
%"class.dealii::Subscriptor" = type { i32 (...)**, i32, %"class.std::map", %"class.std::type_info"* }
%"class.std::map" = type { %"class.std::_Rb_tree" }
%"class.std::_Rb_tree" = type { %"struct.std::_Rb_tree<const char *, std::pair<const char *const, unsigned int>, std::_Select1st<std::pair<const char *const, unsigned int> >, std::less<const char *>, std::allocator<std::pair<const char *const, unsigned int> > >::_Rb_tree_impl" }
%"struct.std::_Rb_tree<const char *, std::pair<const char *const, unsigned int>, std::_Select1st<std::pair<const char *const, unsigned int> >, std::less<const char *>, std::allocator<std::pair<const char *const, unsigned int> > >::_Rb_tree_impl" = type { %"struct.std::_Rb_tree_key_compare", %"struct.std::_Rb_tree_header" }
%"struct.std::_Rb_tree_key_compare" = type { %"struct.std::less" }
%"struct.std::less" = type { i8 }
%"struct.std::_Rb_tree_header" = type { %"struct.std::_Rb_tree_node_base", i64 }
%"struct.std::_Rb_tree_node_base" = type { i32, %"struct.std::_Rb_tree_node_base"*, %"struct.std::_Rb_tree_node_base"*, %"struct.std::_Rb_tree_node_base"* }
%"class.std::type_info" = type { i32 (...)**, i8* }
%"class.dealii::FiniteElementData" = type { i32, i32, i32, i32, i32, i32, i32, i32, i32, i32, i32, i32, i32, i32, i32 }
%"class.std::vector" = type { %"struct.std::_Vector_base" }
%"struct.std::_Vector_base" = type { %"struct.std::_Vector_base<std::vector<dealii::FullMatrix<double>, std::allocator<dealii::FullMatrix<double> > >, std::allocator<std::vector<dealii::FullMatrix<double>, std::allocator<dealii::FullMatrix<double> > > > >::_Vector_impl" }
%"struct.std::_Vector_base<std::vector<dealii::FullMatrix<double>, std::allocator<dealii::FullMatrix<double> > >, std::allocator<std::vector<dealii::FullMatrix<double>, std::allocator<dealii::FullMatrix<double> > > > >::_Vector_impl" = type { %"struct.std::_Vector_base<std::vector<dealii::FullMatrix<double>, std::allocator<dealii::FullMatrix<double> > >, std::allocator<std::vector<dealii::FullMatrix<double>, std::allocator<dealii::FullMatrix<double> > > > >::_Vector_impl_data" }
%"struct.std::_Vector_base<std::vector<dealii::FullMatrix<double>, std::allocator<dealii::FullMatrix<double> > >, std::allocator<std::vector<dealii::FullMatrix<double>, std::allocator<dealii::FullMatrix<double> > > > >::_Vector_impl_data" = type { %"class.std::vector.19"*, %"class.std::vector.19"*, %"class.std::vector.19"* }
%"class.std::vector.19" = type { %"struct.std::_Vector_base.87" }
%"struct.std::_Vector_base.87" = type { %"struct.std::_Vector_base<dealii::FullMatrix<double>, std::allocator<dealii::FullMatrix<double> > >::_Vector_impl" }
%"struct.std::_Vector_base<dealii::FullMatrix<double>, std::allocator<dealii::FullMatrix<double> > >::_Vector_impl" = type { %"struct.std::_Vector_base<dealii::FullMatrix<double>, std::allocator<dealii::FullMatrix<double> > >::_Vector_impl_data" }
%"struct.std::_Vector_base<dealii::FullMatrix<double>, std::allocator<dealii::FullMatrix<double> > >::_Vector_impl_data" = type { %"class.dealii::FullMatrix"*, %"class.dealii::FullMatrix"*, %"class.dealii::FullMatrix"* }
%"class.dealii::FullMatrix" = type { %"class.dealii::Table.base", [4 x i8] }
%"class.dealii::Table.base" = type { %"class.dealii::TableBase.base" }
%"class.dealii::TableBase.base" = type <{ %"class.dealii::Subscriptor", double*, i32, %"class.dealii::TableIndices" }>
%"class.dealii::TableIndices" = type { %"class.dealii::TableIndicesBase" }
%"class.dealii::TableIndicesBase" = type { [2 x i32] }
%"class.std::vector.20" = type { %"struct.std::_Vector_base.21" }
%"struct.std::_Vector_base.21" = type { %"struct.std::_Vector_base<dealii::Point<3>, std::allocator<dealii::Point<3> > >::_Vector_impl" }
%"struct.std::_Vector_base<dealii::Point<3>, std::allocator<dealii::Point<3> > >::_Vector_impl" = type { %"struct.std::_Vector_base<dealii::Point<3>, std::allocator<dealii::Point<3> > >::_Vector_impl_data" }
%"struct.std::_Vector_base<dealii::Point<3>, std::allocator<dealii::Point<3> > >::_Vector_impl_data" = type { %"class.dealii::Point"*, %"class.dealii::Point"*, %"class.dealii::Point"* }
%"class.dealii::Point" = type { %"class.dealii::Tensor" }
%"class.dealii::Tensor" = type { [3 x double] }
%"class.std::vector.25" = type { %"struct.std::_Vector_base.26" }
%"struct.std::_Vector_base.26" = type { %"struct.std::_Vector_base<dealii::Point<2>, std::allocator<dealii::Point<2> > >::_Vector_impl" }
%"struct.std::_Vector_base<dealii::Point<2>, std::allocator<dealii::Point<2> > >::_Vector_impl" = type { %"struct.std::_Vector_base<dealii::Point<2>, std::allocator<dealii::Point<2> > >::_Vector_impl_data" }
%"struct.std::_Vector_base<dealii::Point<2>, std::allocator<dealii::Point<2> > >::_Vector_impl_data" = type { %"class.dealii::Point.30"*, %"class.dealii::Point.30"*, %"class.dealii::Point.30"* }
%"class.dealii::Point.30" = type { %"class.dealii::Tensor.31" }
%"class.dealii::Tensor.31" = type { [2 x double] }
%"class.dealii::Table.32" = type { %"class.dealii::TableBase.base.34", [4 x i8] }
%"class.dealii::TableBase.base.34" = type <{ %"class.dealii::Subscriptor", i32*, i32, %"class.dealii::TableIndices" }>
%"class.std::vector.36" = type { %"struct.std::_Vector_base.37" }
%"struct.std::_Vector_base.37" = type { %"struct.std::_Vector_base<int, std::allocator<int> >::_Vector_impl" }
%"struct.std::_Vector_base<int, std::allocator<int> >::_Vector_impl" = type { %"struct.std::_Vector_base<int, std::allocator<int> >::_Vector_impl_data" }
%"struct.std::_Vector_base<int, std::allocator<int> >::_Vector_impl_data" = type { i32*, i32*, i32* }
%"class.std::vector.41" = type { %"struct.std::_Vector_base.42" }
%"struct.std::_Vector_base.42" = type { %"struct.std::_Vector_base<std::pair<unsigned int, unsigned int>, std::allocator<std::pair<unsigned int, unsigned int> > >::_Vector_impl" }
%"struct.std::_Vector_base<std::pair<unsigned int, unsigned int>, std::allocator<std::pair<unsigned int, unsigned int> > >::_Vector_impl" = type { %"struct.std::_Vector_base<std::pair<unsigned int, unsigned int>, std::allocator<std::pair<unsigned int, unsigned int> > >::_Vector_impl_data" }
%"struct.std::_Vector_base<std::pair<unsigned int, unsigned int>, std::allocator<std::pair<unsigned int, unsigned int> > >::_Vector_impl_data" = type { %"struct.std::pair"*, %"struct.std::pair"*, %"struct.std::pair"* }
%"struct.std::pair" = type { i32, i32 }
%"class.std::vector.46" = type { %"struct.std::_Vector_base.47" }
%"struct.std::_Vector_base.47" = type { %"struct.std::_Vector_base<std::pair<std::pair<unsigned int, unsigned int>, unsigned int>, std::allocator<std::pair<std::pair<unsigned int, unsigned int>, unsigned int> > >::_Vector_impl" }
%"struct.std::_Vector_base<std::pair<std::pair<unsigned int, unsigned int>, unsigned int>, std::allocator<std::pair<std::pair<unsigned int, unsigned int>, unsigned int> > >::_Vector_impl" = type { %"struct.std::_Vector_base<std::pair<std::pair<unsigned int, unsigned int>, unsigned int>, std::allocator<std::pair<std::pair<unsigned int, unsigned int>, unsigned int> > >::_Vector_impl_data" }
%"struct.std::_Vector_base<std::pair<std::pair<unsigned int, unsigned int>, unsigned int>, std::allocator<std::pair<std::pair<unsigned int, unsigned int>, unsigned int> > >::_Vector_impl_data" = type { %"struct.std::pair.51"*, %"struct.std::pair.51"*, %"struct.std::pair.51"* }
%"struct.std::pair.51" = type { %"struct.std::pair", i32 }
%"class.std::vector.59" = type { %"struct.std::_Bvector_base" }
%"struct.std::_Bvector_base" = type { %"struct.std::_Bvector_base<std::allocator<bool> >::_Bvector_impl" }
%"struct.std::_Bvector_base<std::allocator<bool> >::_Bvector_impl" = type { %"struct.std::_Bvector_base<std::allocator<bool> >::_Bvector_impl_data" }
%"struct.std::_Bvector_base<std::allocator<bool> >::_Bvector_impl_data" = type { %"struct.std::_Bit_iterator", %"struct.std::_Bit_iterator", i64* }
%"struct.std::_Bit_iterator" = type { %"struct.std::_Bit_iterator_base.base", [4 x i8] }
%"struct.std::_Bit_iterator_base.base" = type <{ i64*, i32 }>
%"class.std::vector.63" = type { %"struct.std::_Vector_base.64" }
%"struct.std::_Vector_base.64" = type { %"struct.std::_Vector_base<std::vector<bool, std::allocator<bool> >, std::allocator<std::vector<bool, std::allocator<bool> > > >::_Vector_impl" }
%"struct.std::_Vector_base<std::vector<bool, std::allocator<bool> >, std::allocator<std::vector<bool, std::allocator<bool> > > >::_Vector_impl" = type { %"struct.std::_Vector_base<std::vector<bool, std::allocator<bool> >, std::allocator<std::vector<bool, std::allocator<bool> > > >::_Vector_impl_data" }
%"struct.std::_Vector_base<std::vector<bool, std::allocator<bool> >, std::allocator<std::vector<bool, std::allocator<bool> > > >::_Vector_impl_data" = type { %"class.std::vector.59"*, %"class.std::vector.59"*, %"class.std::vector.59"* }
%"class.std::vector.54" = type { %"struct.std::_Vector_base.55" }
%"struct.std::_Vector_base.55" = type { %"struct.std::_Vector_base<unsigned int, std::allocator<unsigned int> >::_Vector_impl" }
%"struct.std::_Vector_base<unsigned int, std::allocator<unsigned int> >::_Vector_impl" = type { %"struct.std::_Vector_base<unsigned int, std::allocator<unsigned int> >::_Vector_impl_data" }
%"struct.std::_Vector_base<unsigned int, std::allocator<unsigned int> >::_Vector_impl_data" = type { i32*, i32*, i32* }
%"class.dealii::PolynomialSpace" = type { %"class.std::vector.68", i32, %"class.std::vector.54", %"class.std::vector.54" }
%"class.std::vector.68" = type { %"struct.std::_Vector_base.69" }
%"struct.std::_Vector_base.69" = type { %"struct.std::_Vector_base<dealii::Polynomials::Polynomial<double>, std::allocator<dealii::Polynomials::Polynomial<double> > >::_Vector_impl" }
%"struct.std::_Vector_base<dealii::Polynomials::Polynomial<double>, std::allocator<dealii::Polynomials::Polynomial<double> > >::_Vector_impl" = type { %"struct.std::_Vector_base<dealii::Polynomials::Polynomial<double>, std::allocator<dealii::Polynomials::Polynomial<double> > >::_Vector_impl_data" }
%"struct.std::_Vector_base<dealii::Polynomials::Polynomial<double>, std::allocator<dealii::Polynomials::Polynomial<double> > >::_Vector_impl_data" = type { %"class.dealii::Polynomials::Polynomial"*, %"class.dealii::Polynomials::Polynomial"*, %"class.dealii::Polynomials::Polynomial"* }
%"class.dealii::Polynomials::Polynomial" = type { %"class.dealii::Subscriptor", %"class.std::vector.73" }
%"class.std::vector.73" = type { %"struct.std::_Vector_base.74" }
%"struct.std::_Vector_base.74" = type { %"struct.std::_Vector_base<double, std::allocator<double> >::_Vector_impl" }
%"struct.std::_Vector_base<double, std::allocator<double> >::_Vector_impl" = type { %"struct.std::_Vector_base<double, std::allocator<double> >::_Vector_impl_data" }
%"struct.std::_Vector_base<double, std::allocator<double> >::_Vector_impl_data" = type { double*, double*, double* }
%"class.std::allocator.78" = type { i8 }
%"class.std::allocator.65" = type { i8 }
%"class.__gnu_cxx::__normal_iterator.99" = type { %"class.dealii::Polynomials::Polynomial"* }
%"class.std::allocator.70" = type { i8 }
%"class.std::allocator.56" = type { i8 }
%"class.__gnu_cxx::new_allocator.79" = type { i8 }
%"class.__gnu_cxx::new_allocator.66" = type { i8 }
%"class.std::__cxx11::basic_string" = type { %"struct.std::__cxx11::basic_string<char, std::char_traits<char>, std::allocator<char> >::_Alloc_hider", i64, %union.anon }
%"struct.std::__cxx11::basic_string<char, std::char_traits<char>, std::allocator<char> >::_Alloc_hider" = type { i8* }
%union.anon = type { i64, [8 x i8] }
%"class.std::__cxx11::basic_ostringstream" = type { %"class.std::basic_ostream.base", %"class.std::__cxx11::basic_stringbuf", %"class.std::basic_ios" }
%"class.std::basic_ostream.base" = type { i32 (...)** }
%"class.std::__cxx11::basic_stringbuf" = type { %"class.std::basic_streambuf", i32, %"class.std::__cxx11::basic_string" }
%"class.std::basic_streambuf" = type { i32 (...)**, i8*, i8*, i8*, i8*, i8*, i8*, %"class.std::locale" }
%"class.std::locale" = type { %"class.std::locale::_Impl"* }
%"class.std::locale::_Impl" = type { i32, %"class.std::locale::facet"**, i64, %"class.std::locale::facet"**, i8** }
%"class.std::locale::facet" = type <{ i32 (...)**, i32, [4 x i8] }>
%"class.std::basic_ios" = type { %"class.std::ios_base", %"class.std::basic_ostream"*, i8, i8, %"class.std::basic_streambuf"*, %"class.std::ctype"*, %"class.std::num_put"*, %"class.std::num_get"* }
%"class.std::ios_base" = type { i32 (...)**, i64, i64, i32, i32, i32, %"struct.std::ios_base::_Callback_list"*, %"struct.std::ios_base::_Words", [8 x %"struct.std::ios_base::_Words"], i32, %"struct.std::ios_base::_Words"*, %"class.std::locale" }
%"struct.std::ios_base::_Callback_list" = type { %"struct.std::ios_base::_Callback_list"*, void (i32, %"class.std::ios_base"*, i32)*, i32, i32 }
%"struct.std::ios_base::_Words" = type { i8*, i64 }
%"class.std::basic_ostream" = type { i32 (...)**, %"class.std::basic_ios" }
%"class.std::ctype" = type <{ %"class.std::locale::facet.base", [4 x i8], %struct.__locale_struct*, i8, [7 x i8], i32*, i32*, i16*, i8, [256 x i8], [256 x i8], i8, [6 x i8] }>
%"class.std::locale::facet.base" = type <{ i32 (...)**, i32 }>
%struct.__locale_struct = type { [13 x %struct.__locale_data*], i16*, i32*, i32*, [13 x i8*] }
%struct.__locale_data = type opaque
%"class.std::num_put" = type { %"class.std::locale::facet.base", [4 x i8] }
%"class.std::num_get" = type { %"class.std::locale::facet.base", [4 x i8] }
%"class.dealii::FiniteElement<3, 3>::ExcInterpolationNotImplemented" = type { %"class.dealii::ExceptionBase.base", [4 x i8] }
%"class.dealii::ExceptionBase.base" = type <{ %"class.std::exception", i8*, i32, [4 x i8], i8*, i8*, i8*, i8**, i32 }>
%"class.std::exception" = type { i32 (...)** }
%"class.dealii::ExceptionBase" = type <{ %"class.std::exception", i8*, i32, [4 x i8], i8*, i8*, i8*, i8**, i32, [4 x i8] }>
%"class.__gnu_cxx::new_allocator.57" = type { i8 }
%"class.dealii::Tensor.84" = type { [3 x %"class.dealii::Tensor"] }
%"class.std::vector.85" = type opaque
%"class.dealii::VectorSlice" = type opaque
%"class.dealii::Mapping<3, 3>::InternalDataBase" = type opaque
%"class.dealii::Mapping" = type { %"class.dealii::Subscriptor" }
%"class.dealii::Quadrature" = type opaque
%"class.dealii::Quadrature.86" = type opaque
%"class.dealii::TriaIterator" = type opaque
%"class.dealii::FEValuesData" = type opaque
%"class.std::allocator.43" = type { i8 }
%"class.__gnu_cxx::new_allocator.44" = type { i8 }
%"class.std::allocator.16" = type { i8 }
%"class.__gnu_cxx::__normal_iterator" = type { %"class.std::vector.19"* }
%"class.std::allocator.22" = type { i8 }
%"class.__gnu_cxx::__normal_iterator.92" = type { %"class.dealii::Point"* }
%"class.std::allocator.27" = type { i8 }
%"class.__gnu_cxx::__normal_iterator.93" = type { %"class.dealii::Point.30"* }
%"class.dealii::TableBase.33" = type <{ %"class.dealii::Subscriptor", i32*, i32, %"class.dealii::TableIndices", [4 x i8] }>
%"class.std::allocator.38" = type { i8 }
%"class.__gnu_cxx::__normal_iterator.94" = type { i32* }
%"class.__gnu_cxx::__normal_iterator.95" = type { %"struct.std::pair"* }
%"class.std::allocator.48" = type { i8 }
%"class.__gnu_cxx::__normal_iterator.96" = type { %"struct.std::pair.51"* }
%"class.__gnu_cxx::__normal_iterator.97" = type { i32* }
%"class.std::allocator.60" = type { i8 }
%"struct.std::_Bit_const_iterator" = type { %"struct.std::_Bit_iterator_base.base", [4 x i8] }
%"class.__gnu_cxx::__normal_iterator.98" = type { %"class.std::vector.59"* }
%"class.dealii::Table" = type { %"class.dealii::TableBase.base", [4 x i8] }
%"class.__gnu_cxx::new_allocator.17" = type { i8 }
%"class.std::allocator.88" = type { i8 }
%"class.__gnu_cxx::__normal_iterator.91" = type { %"class.dealii::FullMatrix"* }
%"class.__gnu_cxx::new_allocator.89" = type { i8 }
%"class.__gnu_cxx::new_allocator.23" = type { i8 }
%"class.__gnu_cxx::new_allocator.28" = type { i8 }
%"struct.std::random_access_iterator_tag" = type { i8 }
%"class.__gnu_cxx::new_allocator.39" = type { i8 }
%"class.__gnu_cxx::new_allocator.49" = type { i8 }
%"class.__gnu_cxx::new_allocator.61" = type { i8 }
%"struct.std::_Bit_iterator_base" = type <{ i64*, i32, [4 x i8] }>
%"struct.std::iterator" = type { i8 }
%"struct.std::_Bit_reference" = type { i64*, i64 }
%"class.dealii::TableBase" = type <{ %"class.dealii::Subscriptor", double*, i32, %"class.dealii::TableIndices", [4 x i8] }>
%"class.__gnu_cxx::new_allocator.71" = type { i8 }
%"class.std::allocator.75" = type { i8 }
%"class.__gnu_cxx::__normal_iterator.100" = type { double* }
%"class.__gnu_cxx::new_allocator.76" = type { i8 }
%"struct.std::forward_iterator_tag" = type { i8 }

$_ZN5boost3argILi1EEC2Ev = comdat any

$_ZN5boost3argILi2EEC2Ev = comdat any

$_ZN5boost3argILi3EEC2Ev = comdat any

$_ZN5boost3argILi4EEC2Ev = comdat any

$_ZN5boost3argILi5EEC2Ev = comdat any

$_ZN5boost3argILi6EEC2Ev = comdat any

$_ZN5boost3argILi7EEC2Ev = comdat any

$_ZN5boost3argILi8EEC2Ev = comdat any

$_ZN5boost3argILi9EEC2Ev = comdat any

$_ZN6dealii6FE_DGPILi3ELi3EEC5Ej = comdat any

$_ZN6dealii15PolynomialSpaceILi3EEC2INS_11Polynomials10PolynomialIdEEEERKSt6vectorIT_SaIS7_EE = comdat any

$_ZN6dealii6FE_DGPILi3ELi3EE14get_dpo_vectorEj = comdat any

$_ZNSaIbEC2Ev = comdat any

$_ZNSt6vectorIbSaIbEEC2EmRKbRKS0_ = comdat any

$_ZNSaISt6vectorIbSaIbEEEC2Ev = comdat any

$_ZNSt6vectorIS_IbSaIbEESaIS1_EEC2EmRKS1_RKS2_ = comdat any

$_ZNSt6vectorIS_IbSaIbEESaIS1_EED2Ev = comdat any

$_ZNSaISt6vectorIbSaIbEEED2Ev = comdat any

$_ZNSt6vectorIbSaIbEED2Ev = comdat any

$_ZNSaIbED2Ev = comdat any

$_ZNSt6vectorIjSaIjEED2Ev = comdat any

$_ZN6dealii15PolynomialSpaceILi3EED2Ev = comdat any

$_ZNSt6vectorIN6dealii11Polynomials10PolynomialIdEESaIS3_EED2Ev = comdat any

$_ZNK6dealii6FE_DGPILi3ELi3EE8get_nameB5cxx11Ev = comdat any

$_ZNK6dealii6FE_DGPILi3ELi3EE24hp_vertex_dof_identitiesERKNS_13FiniteElementILi3ELi3EEE = comdat any

$_ZNSt6vectorISt4pairIjjESaIS1_EEC2Ev = comdat any

$_ZNK6dealii6FE_DGPILi3ELi3EE22hp_line_dof_identitiesERKNS_13FiniteElementILi3ELi3EEE = comdat any

$_ZNK6dealii6FE_DGPILi3ELi3EE22hp_quad_dof_identitiesERKNS_13FiniteElementILi3ELi3EEE = comdat any

$_ZNK6dealii6FE_DGPILi3ELi3EE30hp_constraints_are_implementedEv = comdat any

$_ZNK6dealii6FE_DGPILi3ELi3EE27compare_for_face_dominationERKNS_13FiniteElementILi3ELi3EEE = comdat any

$_ZNK6dealii6FE_DGPILi3ELi3EE29get_face_interpolation_matrixERKNS_13FiniteElementILi3ELi3EEERNS_10FullMatrixIdEE = comdat any

$_ZN6dealii18deal_II_exceptions9internals17issue_error_throwINS_13FiniteElementILi3ELi3EE30ExcInterpolationNotImplementedEEEvPKciS7_S7_S7_T_ = comdat any

$_ZN6dealii13FiniteElementILi3ELi3EE30ExcInterpolationNotImplementedC2Ev = comdat any

$_ZN6dealii13FiniteElementILi3ELi3EE30ExcInterpolationNotImplementedD2Ev = comdat any

$_ZNK6dealii6FE_DGPILi3ELi3EE32get_subface_interpolation_matrixERKNS_13FiniteElementILi3ELi3EEEjRNS_10FullMatrixIdEE = comdat any

$_ZNK6dealii6FE_DGPILi3ELi3EE19has_support_on_faceEjj = comdat any

$_ZNK6dealii6FE_DGPILi3ELi3EE18memory_consumptionEv = comdat any

$_ZNK6dealii6FE_DGPILi3ELi3EE5cloneEv = comdat any

$_ZN6dealii6FE_DGPILi3ELi3EEC2ERKS1_ = comdat any

$_ZNSaIjEC2Ev = comdat any

$_ZNSt6vectorIjSaIjEEC2EmRKjRKS0_ = comdat any

$_ZNSaIjED2Ev = comdat any

$_ZNSt6vectorIjSaIjEEixEm = comdat any

$_ZN6dealii6FE_DGPILi3ELi3EED2Ev = comdat any

$_ZN6dealii6FE_DGPILi3ELi3EED0Ev = comdat any

$_ZN6dealii7FE_PolyINS_15PolynomialSpaceILi3EEELi3ELi3EED2Ev = comdat any

$_ZN6dealii7FE_PolyINS_15PolynomialSpaceILi3EEELi3ELi3EED0Ev = comdat any

$_ZNSt12_Vector_baseISt4pairIjjESaIS1_EEC2Ev = comdat any

$_ZNSt12_Vector_baseISt4pairIjjESaIS1_EE12_Vector_implC2Ev = comdat any

$_ZNSaISt4pairIjjEEC2Ev = comdat any

$_ZNSt12_Vector_baseISt4pairIjjESaIS1_EE17_Vector_impl_dataC2Ev = comdat any

$_ZN9__gnu_cxx13new_allocatorISt4pairIjjEEC2Ev = comdat any

$_ZN6dealii13FiniteElementILi3ELi3EE30ExcInterpolationNotImplementedD0Ev = comdat any

$_ZN6dealii7FE_PolyINS_15PolynomialSpaceILi3EEELi3ELi3EEC2ERKS3_ = comdat any

$_ZN6dealii13FiniteElementILi3ELi3EEC2ERKS1_ = comdat any

$_ZN6dealii15PolynomialSpaceILi3EEC2ERKS1_ = comdat any

$_ZNSt6vectorIS_IN6dealii10FullMatrixIdEESaIS2_EESaIS4_EEC2ERKS6_ = comdat any

$_ZNSt6vectorIN6dealii5PointILi3EEESaIS2_EEC2ERKS4_ = comdat any

$_ZNSt6vectorIN6dealii5PointILi2EEESaIS2_EEC2ERKS4_ = comdat any

$_ZN6dealii5TableILi2EiEC2ERKS1_ = comdat any

$_ZNSt6vectorIiSaIiEEC2ERKS1_ = comdat any

$_ZNSt6vectorISt4pairIjjESaIS1_EEC2ERKS3_ = comdat any

$_ZNSt6vectorISt4pairIS0_IjjEjESaIS2_EEC2ERKS4_ = comdat any

$_ZNSt6vectorIjSaIjEEC2ERKS1_ = comdat any

$_ZNSt6vectorIbSaIbEEC2ERKS1_ = comdat any

$_ZNSt6vectorIS_IbSaIbEESaIS1_EEC2ERKS3_ = comdat any

$_ZNSt6vectorISt4pairIS0_IjjEjESaIS2_EED2Ev = comdat any

$_ZNSt6vectorISt4pairIjjESaIS1_EED2Ev = comdat any

$_ZNSt6vectorIiSaIiEED2Ev = comdat any

$_ZN6dealii5TableILi2EiED2Ev = comdat any

$_ZNSt6vectorIN6dealii5PointILi2EEESaIS2_EED2Ev = comdat any

$_ZNSt6vectorIN6dealii5PointILi3EEESaIS2_EED2Ev = comdat any

$_ZN6dealii10FullMatrixIdED2Ev = comdat any

$_ZNSt6vectorIS_IN6dealii10FullMatrixIdEESaIS2_EESaIS4_EED2Ev = comdat any

$_ZNKSt6vectorIS_IN6dealii10FullMatrixIdEESaIS2_EESaIS4_EE4sizeEv = comdat any

$_ZN9__gnu_cxx14__alloc_traitsISaISt6vectorIN6dealii10FullMatrixIdEESaIS4_EEES6_E17_S_select_on_copyERKS7_ = comdat any

$_ZNKSt12_Vector_baseISt6vectorIN6dealii10FullMatrixIdEESaIS3_EESaIS5_EE19_M_get_Tp_allocatorEv = comdat any

$_ZNSt12_Vector_baseISt6vectorIN6dealii10FullMatrixIdEESaIS3_EESaIS5_EEC2EmRKS6_ = comdat any

$_ZNSaISt6vectorIN6dealii10FullMatrixIdEESaIS2_EEED2Ev = comdat any

$_ZSt22__uninitialized_copy_aIN9__gnu_cxx17__normal_iteratorIPKSt6vectorIN6dealii10FullMatrixIdEESaIS5_EES2_IS7_SaIS7_EEEEPS7_S7_ET0_T_SF_SE_RSaIT1_E = comdat any

$_ZNKSt6vectorIS_IN6dealii10FullMatrixIdEESaIS2_EESaIS4_EE5beginEv = comdat any

$_ZNKSt6vectorIS_IN6dealii10FullMatrixIdEESaIS2_EESaIS4_EE3endEv = comdat any

$_ZNSt12_Vector_baseISt6vectorIN6dealii10FullMatrixIdEESaIS3_EESaIS5_EE19_M_get_Tp_allocatorEv = comdat any

$_ZNSt12_Vector_baseISt6vectorIN6dealii10FullMatrixIdEESaIS3_EESaIS5_EED2Ev = comdat any

$_ZNSt16allocator_traitsISaISt6vectorIN6dealii10FullMatrixIdEESaIS3_EEEE37select_on_container_copy_constructionERKS6_ = comdat any

$_ZNSaISt6vectorIN6dealii10FullMatrixIdEESaIS2_EEEC2ERKS5_ = comdat any

$_ZN9__gnu_cxx13new_allocatorISt6vectorIN6dealii10FullMatrixIdEESaIS4_EEEC2ERKS7_ = comdat any

$_ZNSt12_Vector_baseISt6vectorIN6dealii10FullMatrixIdEESaIS3_EESaIS5_EE12_Vector_implC2ERKS6_ = comdat any

$_ZNSt12_Vector_baseISt6vectorIN6dealii10FullMatrixIdEESaIS3_EESaIS5_EE17_M_create_storageEm = comdat any

$_ZNSt12_Vector_baseISt6vectorIN6dealii10FullMatrixIdEESaIS3_EESaIS5_EE12_Vector_implD2Ev = comdat any

$_ZNSt12_Vector_baseISt6vectorIN6dealii10FullMatrixIdEESaIS3_EESaIS5_EE17_Vector_impl_dataC2Ev = comdat any

$_ZNSt12_Vector_baseISt6vectorIN6dealii10FullMatrixIdEESaIS3_EESaIS5_EE11_M_allocateEm = comdat any

$_ZNSt16allocator_traitsISaISt6vectorIN6dealii10FullMatrixIdEESaIS3_EEEE8allocateERS6_m = comdat any

$_ZN9__gnu_cxx13new_allocatorISt6vectorIN6dealii10FullMatrixIdEESaIS4_EEE8allocateEmPKv = comdat any

$_ZNK9__gnu_cxx13new_allocatorISt6vectorIN6dealii10FullMatrixIdEESaIS4_EEE11_M_max_sizeEv = comdat any

$_ZN9__gnu_cxx13new_allocatorISt6vectorIN6dealii10FullMatrixIdEESaIS4_EEED2Ev = comdat any

$_ZSt18uninitialized_copyIN9__gnu_cxx17__normal_iteratorIPKSt6vectorIN6dealii10FullMatrixIdEESaIS5_EES2_IS7_SaIS7_EEEEPS7_ET0_T_SF_SE_ = comdat any

$_ZNSt20__uninitialized_copyILb0EE13__uninit_copyIN9__gnu_cxx17__normal_iteratorIPKSt6vectorIN6dealii10FullMatrixIdEESaIS7_EES4_IS9_SaIS9_EEEEPS9_EET0_T_SH_SG_ = comdat any

$_ZN9__gnu_cxxneIPKSt6vectorIN6dealii10FullMatrixIdEESaIS4_EES1_IS6_SaIS6_EEEEbRKNS_17__normal_iteratorIT_T0_EESG_ = comdat any

$_ZSt10_ConstructISt6vectorIN6dealii10FullMatrixIdEESaIS3_EEJRKS5_EEvPT_DpOT0_ = comdat any

$_ZSt11__addressofISt6vectorIN6dealii10FullMatrixIdEESaIS3_EEEPT_RS6_ = comdat any

$_ZNK9__gnu_cxx17__normal_iteratorIPKSt6vectorIN6dealii10FullMatrixIdEESaIS4_EES1_IS6_SaIS6_EEEdeEv = comdat any

$_ZN9__gnu_cxx17__normal_iteratorIPKSt6vectorIN6dealii10FullMatrixIdEESaIS4_EES1_IS6_SaIS6_EEEppEv = comdat any

$_ZSt8_DestroyIPSt6vectorIN6dealii10FullMatrixIdEESaIS3_EEEvT_S7_ = comdat any

$__clang_call_terminate = comdat any

$_ZNK9__gnu_cxx17__normal_iteratorIPKSt6vectorIN6dealii10FullMatrixIdEESaIS4_EES1_IS6_SaIS6_EEE4baseEv = comdat any

$_ZSt7forwardIRKSt6vectorIN6dealii10FullMatrixIdEESaIS3_EEEOT_RNSt16remove_referenceIS8_E4typeE = comdat any

$_ZNSt6vectorIN6dealii10FullMatrixIdEESaIS2_EEC2ERKS4_ = comdat any

$_ZNKSt6vectorIN6dealii10FullMatrixIdEESaIS2_EE4sizeEv = comdat any

$_ZN9__gnu_cxx14__alloc_traitsISaIN6dealii10FullMatrixIdEEES3_E17_S_select_on_copyERKS4_ = comdat any

$_ZNKSt12_Vector_baseIN6dealii10FullMatrixIdEESaIS2_EE19_M_get_Tp_allocatorEv = comdat any

$_ZNSt12_Vector_baseIN6dealii10FullMatrixIdEESaIS2_EEC2EmRKS3_ = comdat any

$_ZNSaIN6dealii10FullMatrixIdEEED2Ev = comdat any

$_ZSt22__uninitialized_copy_aIN9__gnu_cxx17__normal_iteratorIPKN6dealii10FullMatrixIdEESt6vectorIS4_SaIS4_EEEEPS4_S4_ET0_T_SD_SC_RSaIT1_E = comdat any

$_ZNKSt6vectorIN6dealii10FullMatrixIdEESaIS2_EE5beginEv = comdat any

$_ZNKSt6vectorIN6dealii10FullMatrixIdEESaIS2_EE3endEv = comdat any

$_ZNSt12_Vector_baseIN6dealii10FullMatrixIdEESaIS2_EE19_M_get_Tp_allocatorEv = comdat any

$_ZNSt12_Vector_baseIN6dealii10FullMatrixIdEESaIS2_EED2Ev = comdat any

$_ZNSt16allocator_traitsISaIN6dealii10FullMatrixIdEEEE37select_on_container_copy_constructionERKS3_ = comdat any

$_ZNSaIN6dealii10FullMatrixIdEEEC2ERKS2_ = comdat any

$_ZN9__gnu_cxx13new_allocatorIN6dealii10FullMatrixIdEEEC2ERKS4_ = comdat any

$_ZNSt12_Vector_baseIN6dealii10FullMatrixIdEESaIS2_EE12_Vector_implC2ERKS3_ = comdat any

$_ZNSt12_Vector_baseIN6dealii10FullMatrixIdEESaIS2_EE17_M_create_storageEm = comdat any

$_ZNSt12_Vector_baseIN6dealii10FullMatrixIdEESaIS2_EE12_Vector_implD2Ev = comdat any

$_ZNSt12_Vector_baseIN6dealii10FullMatrixIdEESaIS2_EE17_Vector_impl_dataC2Ev = comdat any

$_ZNSt12_Vector_baseIN6dealii10FullMatrixIdEESaIS2_EE11_M_allocateEm = comdat any

$_ZNSt16allocator_traitsISaIN6dealii10FullMatrixIdEEEE8allocateERS3_m = comdat any

$_ZN9__gnu_cxx13new_allocatorIN6dealii10FullMatrixIdEEE8allocateEmPKv = comdat any

$_ZNK9__gnu_cxx13new_allocatorIN6dealii10FullMatrixIdEEE11_M_max_sizeEv = comdat any

$_ZN9__gnu_cxx13new_allocatorIN6dealii10FullMatrixIdEEED2Ev = comdat any

$_ZSt18uninitialized_copyIN9__gnu_cxx17__normal_iteratorIPKN6dealii10FullMatrixIdEESt6vectorIS4_SaIS4_EEEEPS4_ET0_T_SD_SC_ = comdat any

$_ZNSt20__uninitialized_copyILb0EE13__uninit_copyIN9__gnu_cxx17__normal_iteratorIPKN6dealii10FullMatrixIdEESt6vectorIS6_SaIS6_EEEEPS6_EET0_T_SF_SE_ = comdat any

$_ZN9__gnu_cxxneIPKN6dealii10FullMatrixIdEESt6vectorIS3_SaIS3_EEEEbRKNS_17__normal_iteratorIT_T0_EESE_ = comdat any

$_ZSt10_ConstructIN6dealii10FullMatrixIdEEJRKS2_EEvPT_DpOT0_ = comdat any

$_ZSt11__addressofIN6dealii10FullMatrixIdEEEPT_RS3_ = comdat any

$_ZNK9__gnu_cxx17__normal_iteratorIPKN6dealii10FullMatrixIdEESt6vectorIS3_SaIS3_EEEdeEv = comdat any

$_ZN9__gnu_cxx17__normal_iteratorIPKN6dealii10FullMatrixIdEESt6vectorIS3_SaIS3_EEEppEv = comdat any

$_ZSt8_DestroyIPN6dealii10FullMatrixIdEEEvT_S4_ = comdat any

$_ZNK9__gnu_cxx17__normal_iteratorIPKN6dealii10FullMatrixIdEESt6vectorIS3_SaIS3_EEE4baseEv = comdat any

$_ZSt7forwardIRKN6dealii10FullMatrixIdEEEOT_RNSt16remove_referenceIS5_E4typeE = comdat any

$_ZNSt12_Destroy_auxILb0EE9__destroyIPN6dealii10FullMatrixIdEEEEvT_S6_ = comdat any

$_ZSt8_DestroyIN6dealii10FullMatrixIdEEEvPT_ = comdat any

$_ZN9__gnu_cxx17__normal_iteratorIPKN6dealii10FullMatrixIdEESt6vectorIS3_SaIS3_EEEC2ERKS5_ = comdat any

$_ZNSt12_Vector_baseIN6dealii10FullMatrixIdEESaIS2_EE13_M_deallocateEPS2_m = comdat any

$_ZNSt16allocator_traitsISaIN6dealii10FullMatrixIdEEEE10deallocateERS3_PS2_m = comdat any

$_ZN9__gnu_cxx13new_allocatorIN6dealii10FullMatrixIdEEE10deallocateEPS3_m = comdat any

$_ZNSt12_Destroy_auxILb0EE9__destroyIPSt6vectorIN6dealii10FullMatrixIdEESaIS5_EEEEvT_S9_ = comdat any

$_ZSt8_DestroyISt6vectorIN6dealii10FullMatrixIdEESaIS3_EEEvPT_ = comdat any

$_ZNSt6vectorIN6dealii10FullMatrixIdEESaIS2_EED2Ev = comdat any

$_ZSt8_DestroyIPN6dealii10FullMatrixIdEES2_EvT_S4_RSaIT0_E = comdat any

$_ZN9__gnu_cxx17__normal_iteratorIPKSt6vectorIN6dealii10FullMatrixIdEESaIS4_EES1_IS6_SaIS6_EEEC2ERKS8_ = comdat any

$_ZNSt12_Vector_baseISt6vectorIN6dealii10FullMatrixIdEESaIS3_EESaIS5_EE13_M_deallocateEPS5_m = comdat any

$_ZNSt16allocator_traitsISaISt6vectorIN6dealii10FullMatrixIdEESaIS3_EEEE10deallocateERS6_PS5_m = comdat any

$_ZN9__gnu_cxx13new_allocatorISt6vectorIN6dealii10FullMatrixIdEESaIS4_EEE10deallocateEPS6_m = comdat any

$_ZNKSt6vectorIN6dealii5PointILi3EEESaIS2_EE4sizeEv = comdat any

$_ZN9__gnu_cxx14__alloc_traitsISaIN6dealii5PointILi3EEEES3_E17_S_select_on_copyERKS4_ = comdat any

$_ZNKSt12_Vector_baseIN6dealii5PointILi3EEESaIS2_EE19_M_get_Tp_allocatorEv = comdat any

$_ZNSt12_Vector_baseIN6dealii5PointILi3EEESaIS2_EEC2EmRKS3_ = comdat any

$_ZNSaIN6dealii5PointILi3EEEED2Ev = comdat any

$_ZSt22__uninitialized_copy_aIN9__gnu_cxx17__normal_iteratorIPKN6dealii5PointILi3EEESt6vectorIS4_SaIS4_EEEEPS4_S4_ET0_T_SD_SC_RSaIT1_E = comdat any

$_ZNKSt6vectorIN6dealii5PointILi3EEESaIS2_EE5beginEv = comdat any

$_ZNKSt6vectorIN6dealii5PointILi3EEESaIS2_EE3endEv = comdat any

$_ZNSt12_Vector_baseIN6dealii5PointILi3EEESaIS2_EE19_M_get_Tp_allocatorEv = comdat any

$_ZNSt12_Vector_baseIN6dealii5PointILi3EEESaIS2_EED2Ev = comdat any

$_ZNSt16allocator_traitsISaIN6dealii5PointILi3EEEEE37select_on_container_copy_constructionERKS3_ = comdat any

$_ZNSaIN6dealii5PointILi3EEEEC2ERKS2_ = comdat any

$_ZN9__gnu_cxx13new_allocatorIN6dealii5PointILi3EEEEC2ERKS4_ = comdat any

$_ZNSt12_Vector_baseIN6dealii5PointILi3EEESaIS2_EE12_Vector_implC2ERKS3_ = comdat any

$_ZNSt12_Vector_baseIN6dealii5PointILi3EEESaIS2_EE17_M_create_storageEm = comdat any

$_ZNSt12_Vector_baseIN6dealii5PointILi3EEESaIS2_EE12_Vector_implD2Ev = comdat any

$_ZNSt12_Vector_baseIN6dealii5PointILi3EEESaIS2_EE17_Vector_impl_dataC2Ev = comdat any

$_ZNSt12_Vector_baseIN6dealii5PointILi3EEESaIS2_EE11_M_allocateEm = comdat any

$_ZNSt16allocator_traitsISaIN6dealii5PointILi3EEEEE8allocateERS3_m = comdat any

$_ZN9__gnu_cxx13new_allocatorIN6dealii5PointILi3EEEE8allocateEmPKv = comdat any

$_ZNK9__gnu_cxx13new_allocatorIN6dealii5PointILi3EEEE11_M_max_sizeEv = comdat any

$_ZN9__gnu_cxx13new_allocatorIN6dealii5PointILi3EEEED2Ev = comdat any

$_ZSt18uninitialized_copyIN9__gnu_cxx17__normal_iteratorIPKN6dealii5PointILi3EEESt6vectorIS4_SaIS4_EEEEPS4_ET0_T_SD_SC_ = comdat any

$_ZNSt20__uninitialized_copyILb0EE13__uninit_copyIN9__gnu_cxx17__normal_iteratorIPKN6dealii5PointILi3EEESt6vectorIS6_SaIS6_EEEEPS6_EET0_T_SF_SE_ = comdat any

$_ZN9__gnu_cxxneIPKN6dealii5PointILi3EEESt6vectorIS3_SaIS3_EEEEbRKNS_17__normal_iteratorIT_T0_EESE_ = comdat any

$_ZSt10_ConstructIN6dealii5PointILi3EEEJRKS2_EEvPT_DpOT0_ = comdat any

$_ZSt11__addressofIN6dealii5PointILi3EEEEPT_RS3_ = comdat any

$_ZNK9__gnu_cxx17__normal_iteratorIPKN6dealii5PointILi3EEESt6vectorIS3_SaIS3_EEEdeEv = comdat any

$_ZN9__gnu_cxx17__normal_iteratorIPKN6dealii5PointILi3EEESt6vectorIS3_SaIS3_EEEppEv = comdat any

$_ZSt8_DestroyIPN6dealii5PointILi3EEEEvT_S4_ = comdat any

$_ZNK9__gnu_cxx17__normal_iteratorIPKN6dealii5PointILi3EEESt6vectorIS3_SaIS3_EEE4baseEv = comdat any

$_ZSt7forwardIRKN6dealii5PointILi3EEEEOT_RNSt16remove_referenceIS5_E4typeE = comdat any

$_ZN6dealii5PointILi3EEC2ERKS1_ = comdat any

$_ZN6dealii6TensorILi1ELi3EEC2ERKS1_ = comdat any

$_ZNSt12_Destroy_auxILb1EE9__destroyIPN6dealii5PointILi3EEEEEvT_S6_ = comdat any

$_ZN9__gnu_cxx17__normal_iteratorIPKN6dealii5PointILi3EEESt6vectorIS3_SaIS3_EEEC2ERKS5_ = comdat any

$_ZNSt12_Vector_baseIN6dealii5PointILi3EEESaIS2_EE13_M_deallocateEPS2_m = comdat any

$_ZNSt16allocator_traitsISaIN6dealii5PointILi3EEEEE10deallocateERS3_PS2_m = comdat any

$_ZN9__gnu_cxx13new_allocatorIN6dealii5PointILi3EEEE10deallocateEPS3_m = comdat any

$_ZNKSt6vectorIN6dealii5PointILi2EEESaIS2_EE4sizeEv = comdat any

$_ZN9__gnu_cxx14__alloc_traitsISaIN6dealii5PointILi2EEEES3_E17_S_select_on_copyERKS4_ = comdat any

$_ZNKSt12_Vector_baseIN6dealii5PointILi2EEESaIS2_EE19_M_get_Tp_allocatorEv = comdat any

$_ZNSt12_Vector_baseIN6dealii5PointILi2EEESaIS2_EEC2EmRKS3_ = comdat any

$_ZNSaIN6dealii5PointILi2EEEED2Ev = comdat any

$_ZSt22__uninitialized_copy_aIN9__gnu_cxx17__normal_iteratorIPKN6dealii5PointILi2EEESt6vectorIS4_SaIS4_EEEEPS4_S4_ET0_T_SD_SC_RSaIT1_E = comdat any

$_ZNKSt6vectorIN6dealii5PointILi2EEESaIS2_EE5beginEv = comdat any

$_ZNKSt6vectorIN6dealii5PointILi2EEESaIS2_EE3endEv = comdat any

$_ZNSt12_Vector_baseIN6dealii5PointILi2EEESaIS2_EE19_M_get_Tp_allocatorEv = comdat any

$_ZNSt12_Vector_baseIN6dealii5PointILi2EEESaIS2_EED2Ev = comdat any

$_ZNSt16allocator_traitsISaIN6dealii5PointILi2EEEEE37select_on_container_copy_constructionERKS3_ = comdat any

$_ZNSaIN6dealii5PointILi2EEEEC2ERKS2_ = comdat any

$_ZN9__gnu_cxx13new_allocatorIN6dealii5PointILi2EEEEC2ERKS4_ = comdat any

$_ZNSt12_Vector_baseIN6dealii5PointILi2EEESaIS2_EE12_Vector_implC2ERKS3_ = comdat any

$_ZNSt12_Vector_baseIN6dealii5PointILi2EEESaIS2_EE17_M_create_storageEm = comdat any

$_ZNSt12_Vector_baseIN6dealii5PointILi2EEESaIS2_EE12_Vector_implD2Ev = comdat any

$_ZNSt12_Vector_baseIN6dealii5PointILi2EEESaIS2_EE17_Vector_impl_dataC2Ev = comdat any

$_ZNSt12_Vector_baseIN6dealii5PointILi2EEESaIS2_EE11_M_allocateEm = comdat any

$_ZNSt16allocator_traitsISaIN6dealii5PointILi2EEEEE8allocateERS3_m = comdat any

$_ZN9__gnu_cxx13new_allocatorIN6dealii5PointILi2EEEE8allocateEmPKv = comdat any

$_ZNK9__gnu_cxx13new_allocatorIN6dealii5PointILi2EEEE11_M_max_sizeEv = comdat any

$_ZN9__gnu_cxx13new_allocatorIN6dealii5PointILi2EEEED2Ev = comdat any

$_ZSt18uninitialized_copyIN9__gnu_cxx17__normal_iteratorIPKN6dealii5PointILi2EEESt6vectorIS4_SaIS4_EEEEPS4_ET0_T_SD_SC_ = comdat any

$_ZNSt20__uninitialized_copyILb0EE13__uninit_copyIN9__gnu_cxx17__normal_iteratorIPKN6dealii5PointILi2EEESt6vectorIS6_SaIS6_EEEEPS6_EET0_T_SF_SE_ = comdat any

$_ZN9__gnu_cxxneIPKN6dealii5PointILi2EEESt6vectorIS3_SaIS3_EEEEbRKNS_17__normal_iteratorIT_T0_EESE_ = comdat any

$_ZSt10_ConstructIN6dealii5PointILi2EEEJRKS2_EEvPT_DpOT0_ = comdat any

$_ZSt11__addressofIN6dealii5PointILi2EEEEPT_RS3_ = comdat any

$_ZNK9__gnu_cxx17__normal_iteratorIPKN6dealii5PointILi2EEESt6vectorIS3_SaIS3_EEEdeEv = comdat any

$_ZN9__gnu_cxx17__normal_iteratorIPKN6dealii5PointILi2EEESt6vectorIS3_SaIS3_EEEppEv = comdat any

$_ZSt8_DestroyIPN6dealii5PointILi2EEEEvT_S4_ = comdat any

$_ZNK9__gnu_cxx17__normal_iteratorIPKN6dealii5PointILi2EEESt6vectorIS3_SaIS3_EEE4baseEv = comdat any

$_ZSt7forwardIRKN6dealii5PointILi2EEEEOT_RNSt16remove_referenceIS5_E4typeE = comdat any

$_ZN6dealii5PointILi2EEC2ERKS1_ = comdat any

$_ZN6dealii6TensorILi1ELi2EEC2ERKS1_ = comdat any

$_ZNSt12_Destroy_auxILb1EE9__destroyIPN6dealii5PointILi2EEEEEvT_S6_ = comdat any

$_ZN9__gnu_cxx17__normal_iteratorIPKN6dealii5PointILi2EEESt6vectorIS3_SaIS3_EEEC2ERKS5_ = comdat any

$_ZNSt12_Vector_baseIN6dealii5PointILi2EEESaIS2_EE13_M_deallocateEPS2_m = comdat any

$_ZNSt16allocator_traitsISaIN6dealii5PointILi2EEEEE10deallocateERS3_PS2_m = comdat any

$_ZN9__gnu_cxx13new_allocatorIN6dealii5PointILi2EEEE10deallocateEPS3_m = comdat any

$_ZN6dealii9TableBaseILi2EiEC2ERKS1_ = comdat any

$_ZN6dealii5TableILi2EiED0Ev = comdat any

$_ZN6dealii12TableIndicesILi2EEC2Ev = comdat any

$_ZN6dealii9TableBaseILi2EiE6reinitERKNS_12TableIndicesILi2EEE = comdat any

$_ZNK6dealii9TableBaseILi2EiE10n_elementsEv = comdat any

$_ZN6dealii9TableBaseILi2EiE4fillIiEEvPKT_ = comdat any

$_ZNK6dealii9TableBaseILi2EiE4dataEv = comdat any

$_ZN6dealii9TableBaseILi2EiED2Ev = comdat any

$_ZN6dealii9TableBaseILi2EiED0Ev = comdat any

$_ZN6dealii9TableBaseILi2EiE12reset_valuesEv = comdat any

$_ZSt6fill_nIPijiET_S1_T0_RKT1_ = comdat any

$_ZSt10__fill_n_aIPijiET_S1_T0_RKT1_St26random_access_iterator_tag = comdat any

$_ZSt17__size_to_integerj = comdat any

$_ZSt19__iterator_categoryIPiENSt15iterator_traitsIT_E17iterator_categoryERKS2_ = comdat any

$_ZSt8__fill_aIPiiEvT_S1_RKT0_ = comdat any

$_ZSt9__fill_a1IPiiEN9__gnu_cxx11__enable_ifIXsr11__is_scalarIT0_EE7__valueEvE6__typeET_S6_RKS3_ = comdat any

$_ZNK6dealii16TableIndicesBaseILi2EEixEj = comdat any

$_ZSt4copyIPKiPiET0_T_S4_S3_ = comdat any

$_ZSt13__copy_move_aILb0EPKiPiET1_T0_S4_S3_ = comdat any

$_ZSt12__miter_baseIPKiET_S2_ = comdat any

$_ZSt12__niter_wrapIPiET_RKS1_S1_ = comdat any

$_ZSt14__copy_move_a1ILb0EPKiPiET1_T0_S4_S3_ = comdat any

$_ZSt12__niter_baseIPKiET_S2_ = comdat any

$_ZSt12__niter_baseIPiET_S1_ = comdat any

$_ZSt14__copy_move_a2ILb0EPKiPiET1_T0_S4_S3_ = comdat any

$_ZNSt11__copy_moveILb0ELb1ESt26random_access_iterator_tagE8__copy_mIiEEPT_PKS3_S6_S4_ = comdat any

$_ZNKSt6vectorIiSaIiEE4sizeEv = comdat any

$_ZN9__gnu_cxx14__alloc_traitsISaIiEiE17_S_select_on_copyERKS1_ = comdat any

$_ZNKSt12_Vector_baseIiSaIiEE19_M_get_Tp_allocatorEv = comdat any

$_ZNSt12_Vector_baseIiSaIiEEC2EmRKS0_ = comdat any

$_ZNSaIiED2Ev = comdat any

$_ZSt22__uninitialized_copy_aIN9__gnu_cxx17__normal_iteratorIPKiSt6vectorIiSaIiEEEEPiiET0_T_SA_S9_RSaIT1_E = comdat any

$_ZNKSt6vectorIiSaIiEE5beginEv = comdat any

$_ZNKSt6vectorIiSaIiEE3endEv = comdat any

$_ZNSt12_Vector_baseIiSaIiEE19_M_get_Tp_allocatorEv = comdat any

$_ZNSt12_Vector_baseIiSaIiEED2Ev = comdat any

$_ZNSt16allocator_traitsISaIiEE37select_on_container_copy_constructionERKS0_ = comdat any

$_ZNSaIiEC2ERKS_ = comdat any

$_ZN9__gnu_cxx13new_allocatorIiEC2ERKS1_ = comdat any

$_ZNSt12_Vector_baseIiSaIiEE12_Vector_implC2ERKS0_ = comdat any

$_ZNSt12_Vector_baseIiSaIiEE17_M_create_storageEm = comdat any

$_ZNSt12_Vector_baseIiSaIiEE12_Vector_implD2Ev = comdat any

$_ZNSt12_Vector_baseIiSaIiEE17_Vector_impl_dataC2Ev = comdat any

$_ZNSt12_Vector_baseIiSaIiEE11_M_allocateEm = comdat any

$_ZNSt16allocator_traitsISaIiEE8allocateERS0_m = comdat any

$_ZN9__gnu_cxx13new_allocatorIiE8allocateEmPKv = comdat any

$_ZNK9__gnu_cxx13new_allocatorIiE11_M_max_sizeEv = comdat any

$_ZN9__gnu_cxx13new_allocatorIiED2Ev = comdat any

$_ZSt18uninitialized_copyIN9__gnu_cxx17__normal_iteratorIPKiSt6vectorIiSaIiEEEEPiET0_T_SA_S9_ = comdat any

$_ZNSt20__uninitialized_copyILb1EE13__uninit_copyIN9__gnu_cxx17__normal_iteratorIPKiSt6vectorIiSaIiEEEEPiEET0_T_SC_SB_ = comdat any

$_ZSt4copyIN9__gnu_cxx17__normal_iteratorIPKiSt6vectorIiSaIiEEEEPiET0_T_SA_S9_ = comdat any

$_ZSt13__copy_move_aILb0EN9__gnu_cxx17__normal_iteratorIPKiSt6vectorIiSaIiEEEEPiET1_T0_SA_S9_ = comdat any

$_ZSt12__miter_baseIN9__gnu_cxx17__normal_iteratorIPKiSt6vectorIiSaIiEEEEET_S8_ = comdat any

$_ZSt12__niter_baseIPKiSt6vectorIiSaIiEEET_N9__gnu_cxx17__normal_iteratorIS5_T0_EE = comdat any

$_ZNK9__gnu_cxx17__normal_iteratorIPKiSt6vectorIiSaIiEEE4baseEv = comdat any

$_ZN9__gnu_cxx17__normal_iteratorIPKiSt6vectorIiSaIiEEEC2ERKS2_ = comdat any

$_ZNSt12_Vector_baseIiSaIiEE13_M_deallocateEPim = comdat any

$_ZNSt16allocator_traitsISaIiEE10deallocateERS0_Pim = comdat any

$_ZN9__gnu_cxx13new_allocatorIiE10deallocateEPim = comdat any

$_ZNKSt6vectorISt4pairIjjESaIS1_EE4sizeEv = comdat any

$_ZN9__gnu_cxx14__alloc_traitsISaISt4pairIjjEES2_E17_S_select_on_copyERKS3_ = comdat any

$_ZNKSt12_Vector_baseISt4pairIjjESaIS1_EE19_M_get_Tp_allocatorEv = comdat any

$_ZNSt12_Vector_baseISt4pairIjjESaIS1_EEC2EmRKS2_ = comdat any

$_ZNSaISt4pairIjjEED2Ev = comdat any

$_ZSt22__uninitialized_copy_aIN9__gnu_cxx17__normal_iteratorIPKSt4pairIjjESt6vectorIS3_SaIS3_EEEEPS3_S3_ET0_T_SC_SB_RSaIT1_E = comdat any

$_ZNKSt6vectorISt4pairIjjESaIS1_EE5beginEv = comdat any

$_ZNKSt6vectorISt4pairIjjESaIS1_EE3endEv = comdat any

$_ZNSt12_Vector_baseISt4pairIjjESaIS1_EE19_M_get_Tp_allocatorEv = comdat any

$_ZNSt12_Vector_baseISt4pairIjjESaIS1_EED2Ev = comdat any

$_ZNSt16allocator_traitsISaISt4pairIjjEEE37select_on_container_copy_constructionERKS2_ = comdat any

$_ZNSaISt4pairIjjEEC2ERKS1_ = comdat any

$_ZN9__gnu_cxx13new_allocatorISt4pairIjjEEC2ERKS3_ = comdat any

$_ZNSt12_Vector_baseISt4pairIjjESaIS1_EE12_Vector_implC2ERKS2_ = comdat any

$_ZNSt12_Vector_baseISt4pairIjjESaIS1_EE17_M_create_storageEm = comdat any

$_ZNSt12_Vector_baseISt4pairIjjESaIS1_EE12_Vector_implD2Ev = comdat any

$_ZNSt12_Vector_baseISt4pairIjjESaIS1_EE11_M_allocateEm = comdat any

$_ZNSt16allocator_traitsISaISt4pairIjjEEE8allocateERS2_m = comdat any

$_ZN9__gnu_cxx13new_allocatorISt4pairIjjEE8allocateEmPKv = comdat any

$_ZNK9__gnu_cxx13new_allocatorISt4pairIjjEE11_M_max_sizeEv = comdat any

$_ZN9__gnu_cxx13new_allocatorISt4pairIjjEED2Ev = comdat any

$_ZSt18uninitialized_copyIN9__gnu_cxx17__normal_iteratorIPKSt4pairIjjESt6vectorIS3_SaIS3_EEEEPS3_ET0_T_SC_SB_ = comdat any

$_ZNSt20__uninitialized_copyILb0EE13__uninit_copyIN9__gnu_cxx17__normal_iteratorIPKSt4pairIjjESt6vectorIS5_SaIS5_EEEEPS5_EET0_T_SE_SD_ = comdat any

$_ZN9__gnu_cxxneIPKSt4pairIjjESt6vectorIS2_SaIS2_EEEEbRKNS_17__normal_iteratorIT_T0_EESD_ = comdat any

$_ZSt10_ConstructISt4pairIjjEJRKS1_EEvPT_DpOT0_ = comdat any

$_ZSt11__addressofISt4pairIjjEEPT_RS2_ = comdat any

$_ZNK9__gnu_cxx17__normal_iteratorIPKSt4pairIjjESt6vectorIS2_SaIS2_EEEdeEv = comdat any

$_ZN9__gnu_cxx17__normal_iteratorIPKSt4pairIjjESt6vectorIS2_SaIS2_EEEppEv = comdat any

$_ZSt8_DestroyIPSt4pairIjjEEvT_S3_ = comdat any

$_ZNK9__gnu_cxx17__normal_iteratorIPKSt4pairIjjESt6vectorIS2_SaIS2_EEE4baseEv = comdat any

$_ZSt7forwardIRKSt4pairIjjEEOT_RNSt16remove_referenceIS4_E4typeE = comdat any

$_ZNSt12_Destroy_auxILb1EE9__destroyIPSt4pairIjjEEEvT_S5_ = comdat any

$_ZN9__gnu_cxx17__normal_iteratorIPKSt4pairIjjESt6vectorIS2_SaIS2_EEEC2ERKS4_ = comdat any

$_ZNSt12_Vector_baseISt4pairIjjESaIS1_EE13_M_deallocateEPS1_m = comdat any

$_ZNSt16allocator_traitsISaISt4pairIjjEEE10deallocateERS2_PS1_m = comdat any

$_ZN9__gnu_cxx13new_allocatorISt4pairIjjEE10deallocateEPS2_m = comdat any

$_ZNKSt6vectorISt4pairIS0_IjjEjESaIS2_EE4sizeEv = comdat any

$_ZN9__gnu_cxx14__alloc_traitsISaISt4pairIS1_IjjEjEES3_E17_S_select_on_copyERKS4_ = comdat any

$_ZNKSt12_Vector_baseISt4pairIS0_IjjEjESaIS2_EE19_M_get_Tp_allocatorEv = comdat any

$_ZNSt12_Vector_baseISt4pairIS0_IjjEjESaIS2_EEC2EmRKS3_ = comdat any

$_ZNSaISt4pairIS_IjjEjEED2Ev = comdat any

$_ZSt22__uninitialized_copy_aIN9__gnu_cxx17__normal_iteratorIPKSt4pairIS2_IjjEjESt6vectorIS4_SaIS4_EEEEPS4_S4_ET0_T_SD_SC_RSaIT1_E = comdat any

$_ZNKSt6vectorISt4pairIS0_IjjEjESaIS2_EE5beginEv = comdat any

$_ZNKSt6vectorISt4pairIS0_IjjEjESaIS2_EE3endEv = comdat any

$_ZNSt12_Vector_baseISt4pairIS0_IjjEjESaIS2_EE19_M_get_Tp_allocatorEv = comdat any

$_ZNSt12_Vector_baseISt4pairIS0_IjjEjESaIS2_EED2Ev = comdat any

$_ZNSt16allocator_traitsISaISt4pairIS0_IjjEjEEE37select_on_container_copy_constructionERKS3_ = comdat any

$_ZNSaISt4pairIS_IjjEjEEC2ERKS2_ = comdat any

$_ZN9__gnu_cxx13new_allocatorISt4pairIS1_IjjEjEEC2ERKS4_ = comdat any

$_ZNSt12_Vector_baseISt4pairIS0_IjjEjESaIS2_EE12_Vector_implC2ERKS3_ = comdat any

$_ZNSt12_Vector_baseISt4pairIS0_IjjEjESaIS2_EE17_M_create_storageEm = comdat any

$_ZNSt12_Vector_baseISt4pairIS0_IjjEjESaIS2_EE12_Vector_implD2Ev = comdat any

$_ZNSt12_Vector_baseISt4pairIS0_IjjEjESaIS2_EE17_Vector_impl_dataC2Ev = comdat any

$_ZNSt12_Vector_baseISt4pairIS0_IjjEjESaIS2_EE11_M_allocateEm = comdat any

$_ZNSt16allocator_traitsISaISt4pairIS0_IjjEjEEE8allocateERS3_m = comdat any

$_ZN9__gnu_cxx13new_allocatorISt4pairIS1_IjjEjEE8allocateEmPKv = comdat any

$_ZNK9__gnu_cxx13new_allocatorISt4pairIS1_IjjEjEE11_M_max_sizeEv = comdat any

$_ZN9__gnu_cxx13new_allocatorISt4pairIS1_IjjEjEED2Ev = comdat any

$_ZSt18uninitialized_copyIN9__gnu_cxx17__normal_iteratorIPKSt4pairIS2_IjjEjESt6vectorIS4_SaIS4_EEEEPS4_ET0_T_SD_SC_ = comdat any

$_ZNSt20__uninitialized_copyILb0EE13__uninit_copyIN9__gnu_cxx17__normal_iteratorIPKSt4pairIS4_IjjEjESt6vectorIS6_SaIS6_EEEEPS6_EET0_T_SF_SE_ = comdat any

$_ZN9__gnu_cxxneIPKSt4pairIS1_IjjEjESt6vectorIS3_SaIS3_EEEEbRKNS_17__normal_iteratorIT_T0_EESE_ = comdat any

$_ZSt10_ConstructISt4pairIS0_IjjEjEJRKS2_EEvPT_DpOT0_ = comdat any

$_ZSt11__addressofISt4pairIS0_IjjEjEEPT_RS3_ = comdat any

$_ZNK9__gnu_cxx17__normal_iteratorIPKSt4pairIS1_IjjEjESt6vectorIS3_SaIS3_EEEdeEv = comdat any

$_ZN9__gnu_cxx17__normal_iteratorIPKSt4pairIS1_IjjEjESt6vectorIS3_SaIS3_EEEppEv = comdat any

$_ZSt8_DestroyIPSt4pairIS0_IjjEjEEvT_S4_ = comdat any

$_ZNK9__gnu_cxx17__normal_iteratorIPKSt4pairIS1_IjjEjESt6vectorIS3_SaIS3_EEE4baseEv = comdat any

$_ZSt7forwardIRKSt4pairIS0_IjjEjEEOT_RNSt16remove_referenceIS5_E4typeE = comdat any

$_ZNSt12_Destroy_auxILb1EE9__destroyIPSt4pairIS2_IjjEjEEEvT_S6_ = comdat any

$_ZN9__gnu_cxx17__normal_iteratorIPKSt4pairIS1_IjjEjESt6vectorIS3_SaIS3_EEEC2ERKS5_ = comdat any

$_ZNSt12_Vector_baseISt4pairIS0_IjjEjESaIS2_EE13_M_deallocateEPS2_m = comdat any

$_ZNSt16allocator_traitsISaISt4pairIS0_IjjEjEEE10deallocateERS3_PS2_m = comdat any

$_ZN9__gnu_cxx13new_allocatorISt4pairIS1_IjjEjEE10deallocateEPS3_m = comdat any

$_ZNKSt6vectorIjSaIjEE4sizeEv = comdat any

$_ZN9__gnu_cxx14__alloc_traitsISaIjEjE17_S_select_on_copyERKS1_ = comdat any

$_ZNKSt12_Vector_baseIjSaIjEE19_M_get_Tp_allocatorEv = comdat any

$_ZNSt12_Vector_baseIjSaIjEEC2EmRKS0_ = comdat any

$_ZSt22__uninitialized_copy_aIN9__gnu_cxx17__normal_iteratorIPKjSt6vectorIjSaIjEEEEPjjET0_T_SA_S9_RSaIT1_E = comdat any

$_ZNKSt6vectorIjSaIjEE5beginEv = comdat any

$_ZNKSt6vectorIjSaIjEE3endEv = comdat any

$_ZNSt12_Vector_baseIjSaIjEE19_M_get_Tp_allocatorEv = comdat any

$_ZNSt12_Vector_baseIjSaIjEED2Ev = comdat any

$_ZNSt16allocator_traitsISaIjEE37select_on_container_copy_constructionERKS0_ = comdat any

$_ZNSaIjEC2ERKS_ = comdat any

$_ZN9__gnu_cxx13new_allocatorIjEC2ERKS1_ = comdat any

$_ZNSt12_Vector_baseIjSaIjEE12_Vector_implC2ERKS0_ = comdat any

$_ZNSt12_Vector_baseIjSaIjEE17_M_create_storageEm = comdat any

$_ZNSt12_Vector_baseIjSaIjEE12_Vector_implD2Ev = comdat any

$_ZNSt12_Vector_baseIjSaIjEE17_Vector_impl_dataC2Ev = comdat any

$_ZNSt12_Vector_baseIjSaIjEE11_M_allocateEm = comdat any

$_ZNSt16allocator_traitsISaIjEE8allocateERS0_m = comdat any

$_ZN9__gnu_cxx13new_allocatorIjE8allocateEmPKv = comdat any

$_ZNK9__gnu_cxx13new_allocatorIjE11_M_max_sizeEv = comdat any

$_ZN9__gnu_cxx13new_allocatorIjED2Ev = comdat any

$_ZSt18uninitialized_copyIN9__gnu_cxx17__normal_iteratorIPKjSt6vectorIjSaIjEEEEPjET0_T_SA_S9_ = comdat any

$_ZNSt20__uninitialized_copyILb1EE13__uninit_copyIN9__gnu_cxx17__normal_iteratorIPKjSt6vectorIjSaIjEEEEPjEET0_T_SC_SB_ = comdat any

$_ZSt4copyIN9__gnu_cxx17__normal_iteratorIPKjSt6vectorIjSaIjEEEEPjET0_T_SA_S9_ = comdat any

$_ZSt13__copy_move_aILb0EN9__gnu_cxx17__normal_iteratorIPKjSt6vectorIjSaIjEEEEPjET1_T0_SA_S9_ = comdat any

$_ZSt12__miter_baseIN9__gnu_cxx17__normal_iteratorIPKjSt6vectorIjSaIjEEEEET_S8_ = comdat any

$_ZSt12__niter_wrapIPjET_RKS1_S1_ = comdat any

$_ZSt14__copy_move_a1ILb0EPKjPjET1_T0_S4_S3_ = comdat any

$_ZSt12__niter_baseIPKjSt6vectorIjSaIjEEET_N9__gnu_cxx17__normal_iteratorIS5_T0_EE = comdat any

$_ZSt12__niter_baseIPjET_S1_ = comdat any

$_ZSt14__copy_move_a2ILb0EPKjPjET1_T0_S4_S3_ = comdat any

$_ZNSt11__copy_moveILb0ELb1ESt26random_access_iterator_tagE8__copy_mIjEEPT_PKS3_S6_S4_ = comdat any

$_ZNK9__gnu_cxx17__normal_iteratorIPKjSt6vectorIjSaIjEEE4baseEv = comdat any

$_ZN9__gnu_cxx17__normal_iteratorIPKjSt6vectorIjSaIjEEEC2ERKS2_ = comdat any

$_ZNSt12_Vector_baseIjSaIjEE13_M_deallocateEPjm = comdat any

$_ZNSt16allocator_traitsISaIjEE10deallocateERS0_Pjm = comdat any

$_ZN9__gnu_cxx13new_allocatorIjE10deallocateEPjm = comdat any

$_ZN9__gnu_cxx14__alloc_traitsISaImEmE17_S_select_on_copyERKS1_ = comdat any

$_ZNKSt13_Bvector_baseISaIbEE20_M_get_Bit_allocatorEv = comdat any

$_ZNSaIbEC2ImEERKSaIT_E = comdat any

$_ZNSt13_Bvector_baseISaIbEEC2ERKS0_ = comdat any

$_ZNSaImED2Ev = comdat any

$_ZNSt6vectorIbSaIbEE13_M_initializeEm = comdat any

$_ZNKSt6vectorIbSaIbEE4sizeEv = comdat any

$_ZNSt6vectorIbSaIbEE15_M_copy_alignedESt19_Bit_const_iteratorS2_St13_Bit_iterator = comdat any

$_ZNKSt6vectorIbSaIbEE5beginEv = comdat any

$_ZNKSt6vectorIbSaIbEE3endEv = comdat any

$_ZNSt13_Bvector_baseISaIbEED2Ev = comdat any

$_ZNSt16allocator_traitsISaImEE37select_on_container_copy_constructionERKS0_ = comdat any

$_ZNSaImEC2ERKS_ = comdat any

$_ZN9__gnu_cxx13new_allocatorImEC2ERKS1_ = comdat any

$_ZN9__gnu_cxx13new_allocatorIbEC2Ev = comdat any

$_ZNSaImEC2IbEERKSaIT_E = comdat any

$_ZNSt13_Bvector_baseISaIbEE13_Bvector_implC2ERKSaImE = comdat any

$_ZN9__gnu_cxx13new_allocatorImEC2Ev = comdat any

$_ZNSt13_Bvector_baseISaIbEE18_Bvector_impl_dataC2Ev = comdat any

$_ZNSt13_Bit_iteratorC2Ev = comdat any

$_ZNSt18_Bit_iterator_baseC2EPmj = comdat any

$_ZN9__gnu_cxx13new_allocatorImED2Ev = comdat any

$_ZNSt13_Bvector_baseISaIbEE11_M_allocateEm = comdat any

$_ZNSt13_Bvector_baseISaIbEE8_S_nwordEm = comdat any

$_ZSt11__addressofImEPT_RS0_ = comdat any

$_ZNSt13_Bit_iteratorC2EPmj = comdat any

$_ZStplRKSt13_Bit_iteratorl = comdat any

$_ZNSt16allocator_traitsISaImEE8allocateERS0_m = comdat any

$_ZN9__gnu_cxx13new_allocatorImE8allocateEmPKv = comdat any

$_ZNK9__gnu_cxx13new_allocatorImE11_M_max_sizeEv = comdat any

$_ZNSt13_Bit_iteratorpLEl = comdat any

$_ZNSt18_Bit_iterator_base7_M_incrEl = comdat any

$_ZStmiRKSt18_Bit_iterator_baseS1_ = comdat any

$_ZSt4copyIPmS0_ET0_T_S2_S1_ = comdat any

$_ZSt4copyISt19_Bit_const_iteratorSt13_Bit_iteratorET0_T_S3_S2_ = comdat any

$_ZNSt19_Bit_const_iteratorC2EPmj = comdat any

$_ZSt13__copy_move_aILb0EPmS0_ET1_T0_S2_S1_ = comdat any

$_ZSt12__miter_baseIPmET_S1_ = comdat any

$_ZSt12__niter_wrapIPmET_RKS1_S1_ = comdat any

$_ZSt14__copy_move_a1ILb0EPmS0_ET1_T0_S2_S1_ = comdat any

$_ZSt12__niter_baseIPmET_S1_ = comdat any

$_ZSt14__copy_move_a2ILb0EPmS0_ET1_T0_S2_S1_ = comdat any

$_ZNSt11__copy_moveILb0ELb1ESt26random_access_iterator_tagE8__copy_mImEEPT_PKS3_S6_S4_ = comdat any

$_ZSt13__copy_move_aILb0ESt19_Bit_const_iteratorSt13_Bit_iteratorET1_T0_S3_S2_ = comdat any

$_ZSt12__miter_baseISt19_Bit_const_iteratorET_S1_ = comdat any

$_ZSt12__niter_wrapISt13_Bit_iteratorET_RKS1_S1_ = comdat any

$_ZSt14__copy_move_a1ILb0ESt19_Bit_const_iteratorSt13_Bit_iteratorET1_T0_S3_S2_ = comdat any

$_ZSt12__niter_baseISt19_Bit_const_iteratorET_S1_ = comdat any

$_ZSt12__niter_baseISt13_Bit_iteratorET_S1_ = comdat any

$_ZSt14__copy_move_a2ILb0ESt19_Bit_const_iteratorSt13_Bit_iteratorET1_T0_S3_S2_ = comdat any

$_ZNSt11__copy_moveILb0ELb0ESt26random_access_iterator_tagE8__copy_mISt19_Bit_const_iteratorSt13_Bit_iteratorEET0_T_S6_S5_ = comdat any

$_ZNKSt19_Bit_const_iteratordeEv = comdat any

$_ZNKSt13_Bit_iteratordeEv = comdat any

$_ZNSt14_Bit_referenceaSEb = comdat any

$_ZNSt19_Bit_const_iteratorppEv = comdat any

$_ZNSt13_Bit_iteratorppEv = comdat any

$_ZNSt14_Bit_referenceC2EPmm = comdat any

$_ZNKSt14_Bit_referencecvbEv = comdat any

$_ZNSt18_Bit_iterator_base10_M_bump_upEv = comdat any

$_ZNSt19_Bit_const_iteratorC2ERKSt13_Bit_iterator = comdat any

$_ZNSt13_Bvector_baseISaIbEE13_M_deallocateEv = comdat any

$_ZNSt13_Bvector_baseISaIbEE13_Bvector_implD2Ev = comdat any

$_ZNKSt13_Bvector_baseISaIbEE13_Bvector_impl11_M_end_addrEv = comdat any

$_ZNSt16allocator_traitsISaImEE10deallocateERS0_Pmm = comdat any

$_ZNSt13_Bvector_baseISaIbEE18_Bvector_impl_data8_M_resetEv = comdat any

$_ZN9__gnu_cxx13new_allocatorImE10deallocateEPmm = comdat any

$_ZNKSt6vectorIS_IbSaIbEESaIS1_EE4sizeEv = comdat any

$_ZN9__gnu_cxx14__alloc_traitsISaISt6vectorIbSaIbEEES3_E17_S_select_on_copyERKS4_ = comdat any

$_ZNKSt12_Vector_baseISt6vectorIbSaIbEESaIS2_EE19_M_get_Tp_allocatorEv = comdat any

$_ZNSt12_Vector_baseISt6vectorIbSaIbEESaIS2_EEC2EmRKS3_ = comdat any

$_ZSt22__uninitialized_copy_aIN9__gnu_cxx17__normal_iteratorIPKSt6vectorIbSaIbEES2_IS4_SaIS4_EEEEPS4_S4_ET0_T_SC_SB_RSaIT1_E = comdat any

$_ZNKSt6vectorIS_IbSaIbEESaIS1_EE5beginEv = comdat any

$_ZNKSt6vectorIS_IbSaIbEESaIS1_EE3endEv = comdat any

$_ZNSt12_Vector_baseISt6vectorIbSaIbEESaIS2_EE19_M_get_Tp_allocatorEv = comdat any

$_ZNSt12_Vector_baseISt6vectorIbSaIbEESaIS2_EED2Ev = comdat any

$_ZNSt16allocator_traitsISaISt6vectorIbSaIbEEEE37select_on_container_copy_constructionERKS3_ = comdat any

$_ZNSaISt6vectorIbSaIbEEEC2ERKS2_ = comdat any

$_ZN9__gnu_cxx13new_allocatorISt6vectorIbSaIbEEEC2ERKS4_ = comdat any

$_ZNSt12_Vector_baseISt6vectorIbSaIbEESaIS2_EE12_Vector_implC2ERKS3_ = comdat any

$_ZNSt12_Vector_baseISt6vectorIbSaIbEESaIS2_EE17_M_create_storageEm = comdat any

$_ZNSt12_Vector_baseISt6vectorIbSaIbEESaIS2_EE12_Vector_implD2Ev = comdat any

$_ZNSt12_Vector_baseISt6vectorIbSaIbEESaIS2_EE17_Vector_impl_dataC2Ev = comdat any

$_ZNSt12_Vector_baseISt6vectorIbSaIbEESaIS2_EE11_M_allocateEm = comdat any

$_ZNSt16allocator_traitsISaISt6vectorIbSaIbEEEE8allocateERS3_m = comdat any

$_ZN9__gnu_cxx13new_allocatorISt6vectorIbSaIbEEE8allocateEmPKv = comdat any

$_ZNK9__gnu_cxx13new_allocatorISt6vectorIbSaIbEEE11_M_max_sizeEv = comdat any

$_ZN9__gnu_cxx13new_allocatorISt6vectorIbSaIbEEED2Ev = comdat any

$_ZSt18uninitialized_copyIN9__gnu_cxx17__normal_iteratorIPKSt6vectorIbSaIbEES2_IS4_SaIS4_EEEEPS4_ET0_T_SC_SB_ = comdat any

$_ZNSt20__uninitialized_copyILb0EE13__uninit_copyIN9__gnu_cxx17__normal_iteratorIPKSt6vectorIbSaIbEES4_IS6_SaIS6_EEEEPS6_EET0_T_SE_SD_ = comdat any

$_ZN9__gnu_cxxneIPKSt6vectorIbSaIbEES1_IS3_SaIS3_EEEEbRKNS_17__normal_iteratorIT_T0_EESD_ = comdat any

$_ZSt10_ConstructISt6vectorIbSaIbEEJRKS2_EEvPT_DpOT0_ = comdat any

$_ZSt11__addressofISt6vectorIbSaIbEEEPT_RS3_ = comdat any

$_ZNK9__gnu_cxx17__normal_iteratorIPKSt6vectorIbSaIbEES1_IS3_SaIS3_EEEdeEv = comdat any

$_ZN9__gnu_cxx17__normal_iteratorIPKSt6vectorIbSaIbEES1_IS3_SaIS3_EEEppEv = comdat any

$_ZSt8_DestroyIPSt6vectorIbSaIbEEEvT_S4_ = comdat any

$_ZNK9__gnu_cxx17__normal_iteratorIPKSt6vectorIbSaIbEES1_IS3_SaIS3_EEE4baseEv = comdat any

$_ZSt7forwardIRKSt6vectorIbSaIbEEEOT_RNSt16remove_referenceIS5_E4typeE = comdat any

$_ZNSt12_Destroy_auxILb0EE9__destroyIPSt6vectorIbSaIbEEEEvT_S6_ = comdat any

$_ZSt8_DestroyISt6vectorIbSaIbEEEvPT_ = comdat any

$_ZN9__gnu_cxx17__normal_iteratorIPKSt6vectorIbSaIbEES1_IS3_SaIS3_EEEC2ERKS5_ = comdat any

$_ZNSt12_Vector_baseISt6vectorIbSaIbEESaIS2_EE13_M_deallocateEPS2_m = comdat any

$_ZNSt16allocator_traitsISaISt6vectorIbSaIbEEEE10deallocateERS3_PS2_m = comdat any

$_ZN9__gnu_cxx13new_allocatorISt6vectorIbSaIbEEE10deallocateEPS3_m = comdat any

$_ZSt8_DestroyIPSt4pairIS0_IjjEjES2_EvT_S4_RSaIT0_E = comdat any

$_ZSt8_DestroyIPSt4pairIjjES1_EvT_S3_RSaIT0_E = comdat any

$_ZSt8_DestroyIPiiEvT_S1_RSaIT0_E = comdat any

$_ZSt8_DestroyIPiEvT_S1_ = comdat any

$_ZNSt12_Destroy_auxILb1EE9__destroyIPiEEvT_S3_ = comdat any

$_ZSt8_DestroyIPN6dealii5PointILi2EEES2_EvT_S4_RSaIT0_E = comdat any

$_ZSt8_DestroyIPN6dealii5PointILi3EEES2_EvT_S4_RSaIT0_E = comdat any

$_ZN6dealii5TableILi2EdED2Ev = comdat any

$_ZN6dealii9TableBaseILi2EdED2Ev = comdat any

$_ZN6dealii9TableBaseILi2EdED0Ev = comdat any

$_ZSt8_DestroyIPSt6vectorIN6dealii10FullMatrixIdEESaIS3_EES5_EvT_S7_RSaIT0_E = comdat any

$_ZNSt6vectorIN6dealii11Polynomials10PolynomialIdEESaIS3_EEC2ERKS5_ = comdat any

$_ZNKSt6vectorIN6dealii11Polynomials10PolynomialIdEESaIS3_EE4sizeEv = comdat any

$_ZN9__gnu_cxx14__alloc_traitsISaIN6dealii11Polynomials10PolynomialIdEEES4_E17_S_select_on_copyERKS5_ = comdat any

$_ZNKSt12_Vector_baseIN6dealii11Polynomials10PolynomialIdEESaIS3_EE19_M_get_Tp_allocatorEv = comdat any

$_ZNSt12_Vector_baseIN6dealii11Polynomials10PolynomialIdEESaIS3_EEC2EmRKS4_ = comdat any

$_ZNSaIN6dealii11Polynomials10PolynomialIdEEED2Ev = comdat any

$_ZSt22__uninitialized_copy_aIN9__gnu_cxx17__normal_iteratorIPKN6dealii11Polynomials10PolynomialIdEESt6vectorIS5_SaIS5_EEEEPS5_S5_ET0_T_SE_SD_RSaIT1_E = comdat any

$_ZNKSt6vectorIN6dealii11Polynomials10PolynomialIdEESaIS3_EE5beginEv = comdat any

$_ZNKSt6vectorIN6dealii11Polynomials10PolynomialIdEESaIS3_EE3endEv = comdat any

$_ZNSt12_Vector_baseIN6dealii11Polynomials10PolynomialIdEESaIS3_EE19_M_get_Tp_allocatorEv = comdat any

$_ZNSt12_Vector_baseIN6dealii11Polynomials10PolynomialIdEESaIS3_EED2Ev = comdat any

$_ZNSt16allocator_traitsISaIN6dealii11Polynomials10PolynomialIdEEEE37select_on_container_copy_constructionERKS4_ = comdat any

$_ZNSaIN6dealii11Polynomials10PolynomialIdEEEC2ERKS3_ = comdat any

$_ZN9__gnu_cxx13new_allocatorIN6dealii11Polynomials10PolynomialIdEEEC2ERKS5_ = comdat any

$_ZNSt12_Vector_baseIN6dealii11Polynomials10PolynomialIdEESaIS3_EE12_Vector_implC2ERKS4_ = comdat any

$_ZNSt12_Vector_baseIN6dealii11Polynomials10PolynomialIdEESaIS3_EE17_M_create_storageEm = comdat any

$_ZNSt12_Vector_baseIN6dealii11Polynomials10PolynomialIdEESaIS3_EE12_Vector_implD2Ev = comdat any

$_ZNSt12_Vector_baseIN6dealii11Polynomials10PolynomialIdEESaIS3_EE17_Vector_impl_dataC2Ev = comdat any

$_ZNSt12_Vector_baseIN6dealii11Polynomials10PolynomialIdEESaIS3_EE11_M_allocateEm = comdat any

$_ZNSt16allocator_traitsISaIN6dealii11Polynomials10PolynomialIdEEEE8allocateERS4_m = comdat any

$_ZN9__gnu_cxx13new_allocatorIN6dealii11Polynomials10PolynomialIdEEE8allocateEmPKv = comdat any

$_ZNK9__gnu_cxx13new_allocatorIN6dealii11Polynomials10PolynomialIdEEE11_M_max_sizeEv = comdat any

$_ZN9__gnu_cxx13new_allocatorIN6dealii11Polynomials10PolynomialIdEEED2Ev = comdat any

$_ZSt18uninitialized_copyIN9__gnu_cxx17__normal_iteratorIPKN6dealii11Polynomials10PolynomialIdEESt6vectorIS5_SaIS5_EEEEPS5_ET0_T_SE_SD_ = comdat any

$_ZNSt20__uninitialized_copyILb0EE13__uninit_copyIN9__gnu_cxx17__normal_iteratorIPKN6dealii11Polynomials10PolynomialIdEESt6vectorIS7_SaIS7_EEEEPS7_EET0_T_SG_SF_ = comdat any

$_ZN9__gnu_cxxneIPKN6dealii11Polynomials10PolynomialIdEESt6vectorIS4_SaIS4_EEEEbRKNS_17__normal_iteratorIT_T0_EESF_ = comdat any

$_ZSt10_ConstructIN6dealii11Polynomials10PolynomialIdEEJRKS3_EEvPT_DpOT0_ = comdat any

$_ZSt11__addressofIN6dealii11Polynomials10PolynomialIdEEEPT_RS4_ = comdat any

$_ZNK9__gnu_cxx17__normal_iteratorIPKN6dealii11Polynomials10PolynomialIdEESt6vectorIS4_SaIS4_EEEdeEv = comdat any

$_ZN9__gnu_cxx17__normal_iteratorIPKN6dealii11Polynomials10PolynomialIdEESt6vectorIS4_SaIS4_EEEppEv = comdat any

$_ZSt8_DestroyIPN6dealii11Polynomials10PolynomialIdEEEvT_S5_ = comdat any

$_ZNK9__gnu_cxx17__normal_iteratorIPKN6dealii11Polynomials10PolynomialIdEESt6vectorIS4_SaIS4_EEE4baseEv = comdat any

$_ZSt7forwardIRKN6dealii11Polynomials10PolynomialIdEEEOT_RNSt16remove_referenceIS6_E4typeE = comdat any

$_ZN6dealii11Polynomials10PolynomialIdEC2ERKS2_ = comdat any

$_ZNSt6vectorIdSaIdEEC2ERKS1_ = comdat any

$_ZN6dealii11Polynomials10PolynomialIdED2Ev = comdat any

$_ZN6dealii11Polynomials10PolynomialIdED0Ev = comdat any

$_ZNKSt6vectorIdSaIdEE4sizeEv = comdat any

$_ZN9__gnu_cxx14__alloc_traitsISaIdEdE17_S_select_on_copyERKS1_ = comdat any

$_ZNKSt12_Vector_baseIdSaIdEE19_M_get_Tp_allocatorEv = comdat any

$_ZNSt12_Vector_baseIdSaIdEEC2EmRKS0_ = comdat any

$_ZNSaIdED2Ev = comdat any

$_ZSt22__uninitialized_copy_aIN9__gnu_cxx17__normal_iteratorIPKdSt6vectorIdSaIdEEEEPddET0_T_SA_S9_RSaIT1_E = comdat any

$_ZNKSt6vectorIdSaIdEE5beginEv = comdat any

$_ZNKSt6vectorIdSaIdEE3endEv = comdat any

$_ZNSt12_Vector_baseIdSaIdEE19_M_get_Tp_allocatorEv = comdat any

$_ZNSt12_Vector_baseIdSaIdEED2Ev = comdat any

$_ZNSt16allocator_traitsISaIdEE37select_on_container_copy_constructionERKS0_ = comdat any

$_ZNSaIdEC2ERKS_ = comdat any

$_ZN9__gnu_cxx13new_allocatorIdEC2ERKS1_ = comdat any

$_ZNSt12_Vector_baseIdSaIdEE12_Vector_implC2ERKS0_ = comdat any

$_ZNSt12_Vector_baseIdSaIdEE17_M_create_storageEm = comdat any

$_ZNSt12_Vector_baseIdSaIdEE12_Vector_implD2Ev = comdat any

$_ZNSt12_Vector_baseIdSaIdEE17_Vector_impl_dataC2Ev = comdat any

$_ZNSt12_Vector_baseIdSaIdEE11_M_allocateEm = comdat any

$_ZNSt16allocator_traitsISaIdEE8allocateERS0_m = comdat any

$_ZN9__gnu_cxx13new_allocatorIdE8allocateEmPKv = comdat any

$_ZNK9__gnu_cxx13new_allocatorIdE11_M_max_sizeEv = comdat any

$_ZN9__gnu_cxx13new_allocatorIdED2Ev = comdat any

$_ZSt18uninitialized_copyIN9__gnu_cxx17__normal_iteratorIPKdSt6vectorIdSaIdEEEEPdET0_T_SA_S9_ = comdat any

$_ZNSt20__uninitialized_copyILb1EE13__uninit_copyIN9__gnu_cxx17__normal_iteratorIPKdSt6vectorIdSaIdEEEEPdEET0_T_SC_SB_ = comdat any

$_ZSt4copyIN9__gnu_cxx17__normal_iteratorIPKdSt6vectorIdSaIdEEEEPdET0_T_SA_S9_ = comdat any

$_ZSt13__copy_move_aILb0EN9__gnu_cxx17__normal_iteratorIPKdSt6vectorIdSaIdEEEEPdET1_T0_SA_S9_ = comdat any

$_ZSt12__miter_baseIN9__gnu_cxx17__normal_iteratorIPKdSt6vectorIdSaIdEEEEET_S8_ = comdat any

$_ZSt12__niter_wrapIPdET_RKS1_S1_ = comdat any

$_ZSt14__copy_move_a1ILb0EPKdPdET1_T0_S4_S3_ = comdat any

$_ZSt12__niter_baseIPKdSt6vectorIdSaIdEEET_N9__gnu_cxx17__normal_iteratorIS5_T0_EE = comdat any

$_ZSt12__niter_baseIPdET_S1_ = comdat any

$_ZSt14__copy_move_a2ILb0EPKdPdET1_T0_S4_S3_ = comdat any

$_ZNSt11__copy_moveILb0ELb1ESt26random_access_iterator_tagE8__copy_mIdEEPT_PKS3_S6_S4_ = comdat any

$_ZNK9__gnu_cxx17__normal_iteratorIPKdSt6vectorIdSaIdEEE4baseEv = comdat any

$_ZN9__gnu_cxx17__normal_iteratorIPKdSt6vectorIdSaIdEEEC2ERKS2_ = comdat any

$_ZNSt12_Vector_baseIdSaIdEE13_M_deallocateEPdm = comdat any

$_ZNSt16allocator_traitsISaIdEE10deallocateERS0_Pdm = comdat any

$_ZN9__gnu_cxx13new_allocatorIdE10deallocateEPdm = comdat any

$_ZNSt6vectorIdSaIdEED2Ev = comdat any

$_ZSt8_DestroyIPddEvT_S1_RSaIT0_E = comdat any

$_ZSt8_DestroyIPdEvT_S1_ = comdat any

$_ZNSt12_Destroy_auxILb1EE9__destroyIPdEEvT_S3_ = comdat any

$_ZNSt12_Destroy_auxILb0EE9__destroyIPN6dealii11Polynomials10PolynomialIdEEEEvT_S7_ = comdat any

$_ZSt8_DestroyIN6dealii11Polynomials10PolynomialIdEEEvPT_ = comdat any

$_ZN9__gnu_cxx17__normal_iteratorIPKN6dealii11Polynomials10PolynomialIdEESt6vectorIS4_SaIS4_EEEC2ERKS6_ = comdat any

$_ZNSt12_Vector_baseIN6dealii11Polynomials10PolynomialIdEESaIS3_EE13_M_deallocateEPS3_m = comdat any

$_ZNSt16allocator_traitsISaIN6dealii11Polynomials10PolynomialIdEEEE10deallocateERS4_PS3_m = comdat any

$_ZN9__gnu_cxx13new_allocatorIN6dealii11Polynomials10PolynomialIdEEE10deallocateEPS4_m = comdat any

$_ZN9__gnu_cxx13new_allocatorIjEC2Ev = comdat any

$_ZN9__gnu_cxx13new_allocatorIbED2Ev = comdat any

$_ZSt8_DestroyIPN6dealii11Polynomials10PolynomialIdEES3_EvT_S5_RSaIT0_E = comdat any

$_ZNSaIN6dealii11Polynomials10PolynomialIdEEEC2Ev = comdat any

$_ZNSt6vectorIN6dealii11Polynomials10PolynomialIdEESaIS3_EEC2IN9__gnu_cxx17__normal_iteratorIPKS3_S5_EEvEET_SC_RKS4_ = comdat any

$_ZNSt6vectorIjSaIjEEC2EmRKS0_ = comdat any

$_ZN9__gnu_cxx13new_allocatorIN6dealii11Polynomials10PolynomialIdEEEC2Ev = comdat any

$_ZNSt12_Vector_baseIN6dealii11Polynomials10PolynomialIdEESaIS3_EEC2ERKS4_ = comdat any

$_ZNSt6vectorIN6dealii11Polynomials10PolynomialIdEESaIS3_EE19_M_range_initializeIN9__gnu_cxx17__normal_iteratorIPKS3_S5_EEEEvT_SC_St20forward_iterator_tag = comdat any

$_ZSt19__iterator_categoryIN9__gnu_cxx17__normal_iteratorIPKN6dealii11Polynomials10PolynomialIdEESt6vectorIS5_SaIS5_EEEEENSt15iterator_traitsIT_E17iterator_categoryERKSD_ = comdat any

$_ZSt8distanceIN9__gnu_cxx17__normal_iteratorIPKN6dealii11Polynomials10PolynomialIdEESt6vectorIS5_SaIS5_EEEEENSt15iterator_traitsIT_E15difference_typeESD_SD_ = comdat any

$_ZNSt6vectorIN6dealii11Polynomials10PolynomialIdEESaIS3_EE17_S_check_init_lenEmRKS4_ = comdat any

$_ZSt10__distanceIN9__gnu_cxx17__normal_iteratorIPKN6dealii11Polynomials10PolynomialIdEESt6vectorIS5_SaIS5_EEEEENSt15iterator_traitsIT_E15difference_typeESD_SD_St26random_access_iterator_tag = comdat any

$_ZN9__gnu_cxxmiIPKN6dealii11Polynomials10PolynomialIdEESt6vectorIS4_SaIS4_EEEENS_17__normal_iteratorIT_T0_E15difference_typeERKSD_SG_ = comdat any

$_ZNSt6vectorIN6dealii11Polynomials10PolynomialIdEESaIS3_EE11_S_max_sizeERKS4_ = comdat any

$_ZNSt16allocator_traitsISaIN6dealii11Polynomials10PolynomialIdEEEE8max_sizeERKS4_ = comdat any

$_ZSt3minImERKT_S2_S2_ = comdat any

$_ZNK9__gnu_cxx13new_allocatorIN6dealii11Polynomials10PolynomialIdEEE8max_sizeEv = comdat any

$_ZNSt6vectorIjSaIjEE17_S_check_init_lenEmRKS0_ = comdat any

$_ZNSt6vectorIjSaIjEE21_M_default_initializeEm = comdat any

$_ZNSt6vectorIjSaIjEE11_S_max_sizeERKS0_ = comdat any

$_ZNSt16allocator_traitsISaIjEE8max_sizeERKS0_ = comdat any

$_ZNK9__gnu_cxx13new_allocatorIjE8max_sizeEv = comdat any

$_ZSt27__uninitialized_default_n_aIPjmjET_S1_T0_RSaIT1_E = comdat any

$_ZSt25__uninitialized_default_nIPjmET_S1_T0_ = comdat any

$_ZNSt27__uninitialized_default_n_1ILb1EE18__uninit_default_nIPjmEET_S3_T0_ = comdat any

$_ZSt6fill_nIPjmjET_S1_T0_RKT1_ = comdat any

$_ZSt10__fill_n_aIPjmjET_S1_T0_RKT1_St26random_access_iterator_tag = comdat any

$_ZSt17__size_to_integerm = comdat any

$_ZSt19__iterator_categoryIPjENSt15iterator_traitsIT_E17iterator_categoryERKS2_ = comdat any

$_ZSt8__fill_aIPjjEvT_S1_RKT0_ = comdat any

$_ZSt9__fill_a1IPjjEN9__gnu_cxx11__enable_ifIXsr11__is_scalarIT0_EE7__valueEvE6__typeET_S6_RKS3_ = comdat any

$_ZSt8_DestroyIPjjEvT_S1_RSaIT0_E = comdat any

$_ZSt8_DestroyIPjEvT_S1_ = comdat any

$_ZNSt12_Destroy_auxILb1EE9__destroyIPjEEvT_S3_ = comdat any

$_ZNSt6vectorIbSaIbEE19_M_initialize_valueEb = comdat any

$_ZN9__gnu_cxx13new_allocatorISt6vectorIbSaIbEEEC2Ev = comdat any

$_ZNSt6vectorIS_IbSaIbEESaIS1_EE17_S_check_init_lenEmRKS2_ = comdat any

$_ZNSt6vectorIS_IbSaIbEESaIS1_EE18_M_fill_initializeEmRKS1_ = comdat any

$_ZNSt6vectorIS_IbSaIbEESaIS1_EE11_S_max_sizeERKS2_ = comdat any

$_ZNSt16allocator_traitsISaISt6vectorIbSaIbEEEE8max_sizeERKS3_ = comdat any

$_ZNK9__gnu_cxx13new_allocatorISt6vectorIbSaIbEEE8max_sizeEv = comdat any

$_ZSt24__uninitialized_fill_n_aIPSt6vectorIbSaIbEEmS2_S2_ET_S4_T0_RKT1_RSaIT2_E = comdat any

$_ZSt20uninitialized_fill_nIPSt6vectorIbSaIbEEmS2_ET_S4_T0_RKT1_ = comdat any

$_ZNSt22__uninitialized_fill_nILb0EE15__uninit_fill_nIPSt6vectorIbSaIbEEmS4_EET_S6_T0_RKT1_ = comdat any

$_ZSt8_DestroyIPSt6vectorIbSaIbEES2_EvT_S4_RSaIT0_E = comdat any

$_ZN6dealii13FiniteElementILi3ELi3EE30ExcInterpolationNotImplementedC2EOS2_ = comdat any

$_ZNSt6vectorIjSaIjEE18_M_fill_initializeEmRKj = comdat any

$_ZSt24__uninitialized_fill_n_aIPjmjjET_S1_T0_RKT1_RSaIT2_E = comdat any

$_ZSt20uninitialized_fill_nIPjmjET_S1_T0_RKT1_ = comdat any

$_ZNSt22__uninitialized_fill_nILb1EE15__uninit_fill_nIPjmjEET_S3_T0_RKT1_ = comdat any

$_ZTVN6dealii6FE_DGPILi3ELi3EEE = comdat any

$_ZTSN6dealii13FiniteElementILi3ELi3EEE = comdat any

$_ZTSN6dealii17FiniteElementDataILi3EEE = comdat any

$_ZTIN6dealii17FiniteElementDataILi3EEE = comdat any

$_ZTIN6dealii13FiniteElementILi3ELi3EEE = comdat any

$_ZTSN6dealii6FE_DGPILi3ELi3EEE = comdat any

$_ZTSN6dealii7FE_PolyINS_15PolynomialSpaceILi3EEELi3ELi3EEE = comdat any

$_ZTIN6dealii7FE_PolyINS_15PolynomialSpaceILi3EEELi3ELi3EEE = comdat any

$_ZTIN6dealii6FE_DGPILi3ELi3EEE = comdat any

$_ZTVN6dealii7FE_PolyINS_15PolynomialSpaceILi3EEELi3ELi3EEE = comdat any

$_ZTVN6dealii13FiniteElementILi3ELi3EE30ExcInterpolationNotImplementedE = comdat any

$_ZTSN6dealii13FiniteElementILi3ELi3EE30ExcInterpolationNotImplementedE = comdat any

$_ZTIN6dealii13FiniteElementILi3ELi3EE30ExcInterpolationNotImplementedE = comdat any

$_ZTVN6dealii13FiniteElementILi3ELi3EEE = comdat any

$_ZTVN6dealii5TableILi2EiEE = comdat any

$_ZTSN6dealii5TableILi2EiEE = comdat any

$_ZTSN6dealii9TableBaseILi2EiEE = comdat any

$_ZTIN6dealii9TableBaseILi2EiEE = comdat any

$_ZTIN6dealii5TableILi2EiEE = comdat any

$_ZTVN6dealii9TableBaseILi2EiEE = comdat any

$_ZTVN6dealii9TableBaseILi2EdEE = comdat any

$_ZTSN6dealii9TableBaseILi2EdEE = comdat any

$_ZTIN6dealii9TableBaseILi2EdEE = comdat any

$_ZTVN6dealii11Polynomials10PolynomialIdEE = comdat any

$_ZTSN6dealii11Polynomials10PolynomialIdEE = comdat any

$_ZTIN6dealii11Polynomials10PolynomialIdEE = comdat any

@_ZN12_GLOBAL__N_12_1E = internal global %"struct.boost::arg" zeroinitializer, align 1, !dbg !0
@_ZN12_GLOBAL__N_12_2E = internal global %"struct.boost::arg.0" zeroinitializer, align 1, !dbg !15
@_ZN12_GLOBAL__N_12_3E = internal global %"struct.boost::arg.2" zeroinitializer, align 1, !dbg !25
@_ZN12_GLOBAL__N_12_4E = internal global %"struct.boost::arg.4" zeroinitializer, align 1, !dbg !35
@_ZN12_GLOBAL__N_12_5E = internal global %"struct.boost::arg.6" zeroinitializer, align 1, !dbg !45
@_ZN12_GLOBAL__N_12_6E = internal global %"struct.boost::arg.8" zeroinitializer, align 1, !dbg !55
@_ZN12_GLOBAL__N_12_7E = internal global %"struct.boost::arg.10" zeroinitializer, align 1, !dbg !65
@_ZN12_GLOBAL__N_12_8E = internal global %"struct.boost::arg.12" zeroinitializer, align 1, !dbg !75
@_ZN12_GLOBAL__N_12_9E = internal global %"struct.boost::arg.14" zeroinitializer, align 1, !dbg !85
@_ZStL8__ioinit = internal global %"class.std::ios_base::Init" zeroinitializer, align 1, !dbg !95
@__dso_handle = external hidden global i8
@_ZTVN6dealii6FE_DGPILi3ELi3EEE = weak_odr dso_local unnamed_addr constant { [38 x i8*] } { [38 x i8*] [i8* null, i8* bitcast ({ i8*, i8*, i8* }* @_ZTIN6dealii6FE_DGPILi3ELi3EEE to i8*), i8* bitcast (void (%"class.dealii::FE_DGP"*)* @_ZN6dealii6FE_DGPILi3ELi3EED2Ev to i8*), i8* bitcast (void (%"class.dealii::FE_DGP"*)* @_ZN6dealii6FE_DGPILi3ELi3EED0Ev to i8*), i8* bitcast (void (%"class.std::__cxx11::basic_string"*, %"class.dealii::FE_DGP"*)* @_ZNK6dealii6FE_DGPILi3ELi3EE8get_nameB5cxx11Ev to i8*), i8* bitcast (double (%"class.dealii::FE_Poly"*, i32, %"class.dealii::Point"*)* @_ZNK6dealii7FE_PolyINS_15PolynomialSpaceILi3EEELi3ELi3EE11shape_valueEjRKNS_5PointILi3EEE to i8*), i8* bitcast (double (%"class.dealii::FE_Poly"*, i32, %"class.dealii::Point"*, i32)* @_ZNK6dealii7FE_PolyINS_15PolynomialSpaceILi3EEELi3ELi3EE21shape_value_componentEjRKNS_5PointILi3EEEj to i8*), i8* bitcast (void (%"class.dealii::Tensor"*, %"class.dealii::FE_Poly"*, i32, %"class.dealii::Point"*)* @_ZNK6dealii7FE_PolyINS_15PolynomialSpaceILi3EEELi3ELi3EE10shape_gradEjRKNS_5PointILi3EEE to i8*), i8* bitcast (void (%"class.dealii::Tensor"*, %"class.dealii::FE_Poly"*, i32, %"class.dealii::Point"*, i32)* @_ZNK6dealii7FE_PolyINS_15PolynomialSpaceILi3EEELi3ELi3EE20shape_grad_componentEjRKNS_5PointILi3EEEj to i8*), i8* bitcast (void (%"class.dealii::Tensor.84"*, %"class.dealii::FE_Poly"*, i32, %"class.dealii::Point"*)* @_ZNK6dealii7FE_PolyINS_15PolynomialSpaceILi3EEELi3ELi3EE15shape_grad_gradEjRKNS_5PointILi3EEE to i8*), i8* bitcast (void (%"class.dealii::Tensor.84"*, %"class.dealii::FE_Poly"*, i32, %"class.dealii::Point"*, i32)* @_ZNK6dealii7FE_PolyINS_15PolynomialSpaceILi3EEELi3ELi3EE25shape_grad_grad_componentEjRKNS_5PointILi3EEEj to i8*), i8* bitcast (i1 (%"class.dealii::FE_DGP"*, i32, i32)* @_ZNK6dealii6FE_DGPILi3ELi3EE19has_support_on_faceEjj to i8*), i8* bitcast (i1 (%"class.dealii::FE_DGP"*)* @_ZNK6dealii6FE_DGPILi3ELi3EE30hp_constraints_are_implementedEv to i8*), i8* bitcast (void (%"class.dealii::FiniteElement"*, %"class.dealii::FiniteElement"*, %"class.dealii::FullMatrix"*)* @_ZNK6dealii13FiniteElementILi3ELi3EE24get_interpolation_matrixERKS1_RNS_10FullMatrixIdEE to i8*), i8* bitcast (void (%"class.dealii::FE_DGP"*, %"class.dealii::FiniteElement"*, %"class.dealii::FullMatrix"*)* @_ZNK6dealii6FE_DGPILi3ELi3EE29get_face_interpolation_matrixERKNS_13FiniteElementILi3ELi3EEERNS_10FullMatrixIdEE to i8*), i8* bitcast (void (%"class.dealii::FE_DGP"*, %"class.dealii::FiniteElement"*, i32, %"class.dealii::FullMatrix"*)* @_ZNK6dealii6FE_DGPILi3ELi3EE32get_subface_interpolation_matrixERKNS_13FiniteElementILi3ELi3EEEjRNS_10FullMatrixIdEE to i8*), i8* bitcast (void (%"class.std::vector.41"*, %"class.dealii::FE_DGP"*, %"class.dealii::FiniteElement"*)* @_ZNK6dealii6FE_DGPILi3ELi3EE24hp_vertex_dof_identitiesERKNS_13FiniteElementILi3ELi3EEE to i8*), i8* bitcast (void (%"class.std::vector.41"*, %"class.dealii::FE_DGP"*, %"class.dealii::FiniteElement"*)* @_ZNK6dealii6FE_DGPILi3ELi3EE22hp_line_dof_identitiesERKNS_13FiniteElementILi3ELi3EEE to i8*), i8* bitcast (void (%"class.std::vector.41"*, %"class.dealii::FE_DGP"*, %"class.dealii::FiniteElement"*)* @_ZNK6dealii6FE_DGPILi3ELi3EE22hp_quad_dof_identitiesERKNS_13FiniteElementILi3ELi3EEE to i8*), i8* bitcast (i32 (%"class.dealii::FE_DGP"*, %"class.dealii::FiniteElement"*)* @_ZNK6dealii6FE_DGPILi3ELi3EE27compare_for_face_dominationERKNS_13FiniteElementILi3ELi3EEE to i8*), i8* bitcast (i32 (%"class.dealii::FE_Poly"*)* @_ZNK6dealii7FE_PolyINS_15PolynomialSpaceILi3EEELi3ELi3EE15n_base_elementsEv to i8*), i8* bitcast (%"class.dealii::FiniteElement"* (%"class.dealii::FE_Poly"*, i32)* @_ZNK6dealii7FE_PolyINS_15PolynomialSpaceILi3EEELi3ELi3EE12base_elementEj to i8*), i8* bitcast (i32 (%"class.dealii::FE_Poly"*, i32)* @_ZNK6dealii7FE_PolyINS_15PolynomialSpaceILi3EEELi3ELi3EE20element_multiplicityEj to i8*), i8* bitcast (void (%"class.dealii::Point"*, %"class.dealii::FiniteElement"*, i32)* @_ZNK6dealii13FiniteElementILi3ELi3EE18unit_support_pointEj to i8*), i8* bitcast (void (%"class.dealii::Point.30"*, %"class.dealii::FiniteElement"*, i32)* @_ZNK6dealii13FiniteElementILi3ELi3EE23unit_face_support_pointEj to i8*), i8* bitcast (void (%"class.dealii::FiniteElement"*, %"class.std::vector.73"*, %"class.std::vector.73"*)* @_ZNK6dealii13FiniteElementILi3ELi3EE11interpolateERSt6vectorIdSaIdEERKS4_ to i8*), i8* bitcast (void (%"class.dealii::FiniteElement"*, %"class.std::vector.73"*, %"class.std::vector.85"*, i32)* @_ZNK6dealii13FiniteElementILi3ELi3EE11interpolateERSt6vectorIdSaIdEERKS2_INS_6VectorIdEESaIS7_EEj to i8*), i8* bitcast (void (%"class.dealii::FiniteElement"*, %"class.std::vector.73"*, %"class.dealii::VectorSlice"*)* @_ZNK6dealii13FiniteElementILi3ELi3EE11interpolateERSt6vectorIdSaIdEERKNS_11VectorSliceIKS2_IS4_SaIS4_EEEE to i8*), i8* bitcast (i32 (%"class.dealii::FE_DGP"*)* @_ZNK6dealii6FE_DGPILi3ELi3EE18memory_consumptionEv to i8*), i8* bitcast (i32 (%"class.dealii::FE_Poly"*, i32)* @_ZNK6dealii7FE_PolyINS_15PolynomialSpaceILi3EEELi3ELi3EE11update_onceENS_11UpdateFlagsE to i8*), i8* bitcast (i32 (%"class.dealii::FE_Poly"*, i32)* @_ZNK6dealii7FE_PolyINS_15PolynomialSpaceILi3EEELi3ELi3EE11update_eachENS_11UpdateFlagsE to i8*), i8* bitcast (%"class.dealii::FiniteElement"* (%"class.dealii::FE_DGP"*)* @_ZNK6dealii6FE_DGPILi3ELi3EE5cloneEv to i8*), i8* bitcast (%"class.dealii::Mapping<3, 3>::InternalDataBase"* (%"class.dealii::FE_Poly"*, i32, %"class.dealii::Mapping"*, %"class.dealii::Quadrature"*)* @_ZNK6dealii7FE_PolyINS_15PolynomialSpaceILi3EEELi3ELi3EE8get_dataENS_11UpdateFlagsERKNS_7MappingILi3ELi3EEERKNS_10QuadratureILi3EEE to i8*), i8* bitcast (%"class.dealii::Mapping<3, 3>::InternalDataBase"* (%"class.dealii::FiniteElement"*, i32, %"class.dealii::Mapping"*, %"class.dealii::Quadrature.86"*)* @_ZNK6dealii13FiniteElementILi3ELi3EE13get_face_dataENS_11UpdateFlagsERKNS_7MappingILi3ELi3EEERKNS_10QuadratureILi2EEE to i8*), i8* bitcast (%"class.dealii::Mapping<3, 3>::InternalDataBase"* (%"class.dealii::FiniteElement"*, i32, %"class.dealii::Mapping"*, %"class.dealii::Quadrature.86"*)* @_ZNK6dealii13FiniteElementILi3ELi3EE16get_subface_dataENS_11UpdateFlagsERKNS_7MappingILi3ELi3EEERKNS_10QuadratureILi2EEE to i8*), i8* bitcast (void (%"class.dealii::FE_Poly"*, %"class.dealii::Mapping"*, %"class.dealii::TriaIterator"*, %"class.dealii::Quadrature"*, %"class.dealii::Mapping<3, 3>::InternalDataBase"*, %"class.dealii::Mapping<3, 3>::InternalDataBase"*, %"class.dealii::FEValuesData"*, i32*)* @_ZNK6dealii7FE_PolyINS_15PolynomialSpaceILi3EEELi3ELi3EE14fill_fe_valuesERKNS_7MappingILi3ELi3EEERKNS_12TriaIteratorINS_12CellAccessorILi3ELi3EEEEERKNS_10QuadratureILi3EEERNS5_16InternalDataBaseESJ_RNS_12FEValuesDataILi3ELi3EEERNS_14CellSimilarity10SimilarityE to i8*), i8* bitcast (void (%"class.dealii::FE_Poly"*, %"class.dealii::Mapping"*, %"class.dealii::TriaIterator"*, i32, %"class.dealii::Quadrature.86"*, %"class.dealii::Mapping<3, 3>::InternalDataBase"*, %"class.dealii::Mapping<3, 3>::InternalDataBase"*, %"class.dealii::FEValuesData"*)* @_ZNK6dealii7FE_PolyINS_15PolynomialSpaceILi3EEELi3ELi3EE19fill_fe_face_valuesERKNS_7MappingILi3ELi3EEERKNS_12TriaIteratorINS_12CellAccessorILi3ELi3EEEEEjRKNS_10QuadratureILi2EEERNS5_16InternalDataBaseESJ_RNS_12FEValuesDataILi3ELi3EEE to i8*), i8* bitcast (void (%"class.dealii::FE_Poly"*, %"class.dealii::Mapping"*, %"class.dealii::TriaIterator"*, i32, i32, %"class.dealii::Quadrature.86"*, %"class.dealii::Mapping<3, 3>::InternalDataBase"*, %"class.dealii::Mapping<3, 3>::InternalDataBase"*, %"class.dealii::FEValuesData"*)* @_ZNK6dealii7FE_PolyINS_15PolynomialSpaceILi3EEELi3ELi3EE22fill_fe_subface_valuesERKNS_7MappingILi3ELi3EEERKNS_12TriaIteratorINS_12CellAccessorILi3ELi3EEEEEjjRKNS_10QuadratureILi2EEERNS5_16InternalDataBaseESJ_RNS_12FEValuesDataILi3ELi3EEE to i8*)] }, comdat, align 8
@.str = private unnamed_addr constant [8 x i8] c"FE_DGP<\00", align 1
@.str.10 = private unnamed_addr constant [3 x i8] c">(\00", align 1
@.str.11 = private unnamed_addr constant [2 x i8] c")\00", align 1
@_ZTVN10__cxxabiv121__vmi_class_type_infoE = external dso_local global i8*
@_ZTSN6dealii13FiniteElementILi3ELi3EEE = linkonce_odr dso_local constant [35 x i8] c"N6dealii13FiniteElementILi3ELi3EEE\00", comdat, align 1
@_ZTIN6dealii11SubscriptorE = external dso_local constant i8*
@_ZTVN10__cxxabiv117__class_type_infoE = external dso_local global i8*
@_ZTSN6dealii17FiniteElementDataILi3EEE = linkonce_odr dso_local constant [35 x i8] c"N6dealii17FiniteElementDataILi3EEE\00", comdat, align 1
@_ZTIN6dealii17FiniteElementDataILi3EEE = linkonce_odr dso_local constant { i8*, i8* } { i8* bitcast (i8** getelementptr inbounds (i8*, i8** @_ZTVN10__cxxabiv117__class_type_infoE, i64 2) to i8*), i8* getelementptr inbounds ([35 x i8], [35 x i8]* @_ZTSN6dealii17FiniteElementDataILi3EEE, i32 0, i32 0) }, comdat, align 8
@_ZTIN6dealii13FiniteElementILi3ELi3EEE = linkonce_odr dso_local constant { i8*, i8*, i32, i32, i8*, i64, i8*, i64 } { i8* bitcast (i8** getelementptr inbounds (i8*, i8** @_ZTVN10__cxxabiv121__vmi_class_type_infoE, i64 2) to i8*), i8* getelementptr inbounds ([35 x i8], [35 x i8]* @_ZTSN6dealii13FiniteElementILi3ELi3EEE, i32 0, i32 0), i32 0, i32 2, i8* bitcast (i8** @_ZTIN6dealii11SubscriptorE to i8*), i64 2, i8* bitcast ({ i8*, i8* }* @_ZTIN6dealii17FiniteElementDataILi3EEE to i8*), i64 18434 }, comdat, align 8
@_ZTVN10__cxxabiv120__si_class_type_infoE = external dso_local global i8*
@_ZTSN6dealii6FE_DGPILi3ELi3EEE = weak_odr dso_local constant [27 x i8] c"N6dealii6FE_DGPILi3ELi3EEE\00", comdat, align 1
@_ZTSN6dealii7FE_PolyINS_15PolynomialSpaceILi3EEELi3ELi3EEE = linkonce_odr dso_local constant [55 x i8] c"N6dealii7FE_PolyINS_15PolynomialSpaceILi3EEELi3ELi3EEE\00", comdat, align 1
@_ZTIN6dealii7FE_PolyINS_15PolynomialSpaceILi3EEELi3ELi3EEE = linkonce_odr dso_local constant { i8*, i8*, i8* } { i8* bitcast (i8** getelementptr inbounds (i8*, i8** @_ZTVN10__cxxabiv120__si_class_type_infoE, i64 2) to i8*), i8* getelementptr inbounds ([55 x i8], [55 x i8]* @_ZTSN6dealii7FE_PolyINS_15PolynomialSpaceILi3EEELi3ELi3EEE, i32 0, i32 0), i8* bitcast ({ i8*, i8*, i32, i32, i8*, i64, i8*, i64 }* @_ZTIN6dealii13FiniteElementILi3ELi3EEE to i8*) }, comdat, align 8
@_ZTIN6dealii6FE_DGPILi3ELi3EEE = weak_odr dso_local constant { i8*, i8*, i8* } { i8* bitcast (i8** getelementptr inbounds (i8*, i8** @_ZTVN10__cxxabiv120__si_class_type_infoE, i64 2) to i8*), i8* getelementptr inbounds ([27 x i8], [27 x i8]* @_ZTSN6dealii6FE_DGPILi3ELi3EEE, i32 0, i32 0), i8* bitcast ({ i8*, i8*, i8* }* @_ZTIN6dealii7FE_PolyINS_15PolynomialSpaceILi3EEELi3ELi3EEE to i8*) }, comdat, align 8
@.str.12 = private unnamed_addr constant [20 x i8] c"source/fe/fe_dgp.cc\00", align 1
@.str.13 = private unnamed_addr constant [1 x i8] zeroinitializer, align 1
@.str.14 = private unnamed_addr constant [98 x i8] c"(x_source_fe.get_name().find (\22FE_DGP<\22) == 0) || (dynamic_cast<const FEDGP*>(&x_source_fe) != 0)\00", align 1
@.str.15 = private unnamed_addr constant [47 x i8] c"typename FE:: ExcInterpolationNotImplemented()\00", align 1
@_ZTVN6dealii7FE_PolyINS_15PolynomialSpaceILi3EEELi3ELi3EEE = linkonce_odr dso_local unnamed_addr constant { [38 x i8*] } { [38 x i8*] [i8* null, i8* bitcast ({ i8*, i8*, i8* }* @_ZTIN6dealii7FE_PolyINS_15PolynomialSpaceILi3EEELi3ELi3EEE to i8*), i8* bitcast (void (%"class.dealii::FE_Poly"*)* @_ZN6dealii7FE_PolyINS_15PolynomialSpaceILi3EEELi3ELi3EED2Ev to i8*), i8* bitcast (void (%"class.dealii::FE_Poly"*)* @_ZN6dealii7FE_PolyINS_15PolynomialSpaceILi3EEELi3ELi3EED0Ev to i8*), i8* bitcast (void ()* @__cxa_pure_virtual to i8*), i8* bitcast (double (%"class.dealii::FE_Poly"*, i32, %"class.dealii::Point"*)* @_ZNK6dealii7FE_PolyINS_15PolynomialSpaceILi3EEELi3ELi3EE11shape_valueEjRKNS_5PointILi3EEE to i8*), i8* bitcast (double (%"class.dealii::FE_Poly"*, i32, %"class.dealii::Point"*, i32)* @_ZNK6dealii7FE_PolyINS_15PolynomialSpaceILi3EEELi3ELi3EE21shape_value_componentEjRKNS_5PointILi3EEEj to i8*), i8* bitcast (void (%"class.dealii::Tensor"*, %"class.dealii::FE_Poly"*, i32, %"class.dealii::Point"*)* @_ZNK6dealii7FE_PolyINS_15PolynomialSpaceILi3EEELi3ELi3EE10shape_gradEjRKNS_5PointILi3EEE to i8*), i8* bitcast (void (%"class.dealii::Tensor"*, %"class.dealii::FE_Poly"*, i32, %"class.dealii::Point"*, i32)* @_ZNK6dealii7FE_PolyINS_15PolynomialSpaceILi3EEELi3ELi3EE20shape_grad_componentEjRKNS_5PointILi3EEEj to i8*), i8* bitcast (void (%"class.dealii::Tensor.84"*, %"class.dealii::FE_Poly"*, i32, %"class.dealii::Point"*)* @_ZNK6dealii7FE_PolyINS_15PolynomialSpaceILi3EEELi3ELi3EE15shape_grad_gradEjRKNS_5PointILi3EEE to i8*), i8* bitcast (void (%"class.dealii::Tensor.84"*, %"class.dealii::FE_Poly"*, i32, %"class.dealii::Point"*, i32)* @_ZNK6dealii7FE_PolyINS_15PolynomialSpaceILi3EEELi3ELi3EE25shape_grad_grad_componentEjRKNS_5PointILi3EEEj to i8*), i8* bitcast (i1 (%"class.dealii::FiniteElement"*, i32, i32)* @_ZNK6dealii13FiniteElementILi3ELi3EE19has_support_on_faceEjj to i8*), i8* bitcast (i1 (%"class.dealii::FiniteElement"*)* @_ZNK6dealii13FiniteElementILi3ELi3EE30hp_constraints_are_implementedEv to i8*), i8* bitcast (void (%"class.dealii::FiniteElement"*, %"class.dealii::FiniteElement"*, %"class.dealii::FullMatrix"*)* @_ZNK6dealii13FiniteElementILi3ELi3EE24get_interpolation_matrixERKS1_RNS_10FullMatrixIdEE to i8*), i8* bitcast (void (%"class.dealii::FiniteElement"*, %"class.dealii::FiniteElement"*, %"class.dealii::FullMatrix"*)* @_ZNK6dealii13FiniteElementILi3ELi3EE29get_face_interpolation_matrixERKS1_RNS_10FullMatrixIdEE to i8*), i8* bitcast (void (%"class.dealii::FiniteElement"*, %"class.dealii::FiniteElement"*, i32, %"class.dealii::FullMatrix"*)* @_ZNK6dealii13FiniteElementILi3ELi3EE32get_subface_interpolation_matrixERKS1_jRNS_10FullMatrixIdEE to i8*), i8* bitcast (void (%"class.std::vector.41"*, %"class.dealii::FiniteElement"*, %"class.dealii::FiniteElement"*)* @_ZNK6dealii13FiniteElementILi3ELi3EE24hp_vertex_dof_identitiesERKS1_ to i8*), i8* bitcast (void (%"class.std::vector.41"*, %"class.dealii::FiniteElement"*, %"class.dealii::FiniteElement"*)* @_ZNK6dealii13FiniteElementILi3ELi3EE22hp_line_dof_identitiesERKS1_ to i8*), i8* bitcast (void (%"class.std::vector.41"*, %"class.dealii::FiniteElement"*, %"class.dealii::FiniteElement"*)* @_ZNK6dealii13FiniteElementILi3ELi3EE22hp_quad_dof_identitiesERKS1_ to i8*), i8* bitcast (i32 (%"class.dealii::FiniteElement"*, %"class.dealii::FiniteElement"*)* @_ZNK6dealii13FiniteElementILi3ELi3EE27compare_for_face_dominationERKS1_ to i8*), i8* bitcast (i32 (%"class.dealii::FE_Poly"*)* @_ZNK6dealii7FE_PolyINS_15PolynomialSpaceILi3EEELi3ELi3EE15n_base_elementsEv to i8*), i8* bitcast (%"class.dealii::FiniteElement"* (%"class.dealii::FE_Poly"*, i32)* @_ZNK6dealii7FE_PolyINS_15PolynomialSpaceILi3EEELi3ELi3EE12base_elementEj to i8*), i8* bitcast (i32 (%"class.dealii::FE_Poly"*, i32)* @_ZNK6dealii7FE_PolyINS_15PolynomialSpaceILi3EEELi3ELi3EE20element_multiplicityEj to i8*), i8* bitcast (void (%"class.dealii::Point"*, %"class.dealii::FiniteElement"*, i32)* @_ZNK6dealii13FiniteElementILi3ELi3EE18unit_support_pointEj to i8*), i8* bitcast (void (%"class.dealii::Point.30"*, %"class.dealii::FiniteElement"*, i32)* @_ZNK6dealii13FiniteElementILi3ELi3EE23unit_face_support_pointEj to i8*), i8* bitcast (void (%"class.dealii::FiniteElement"*, %"class.std::vector.73"*, %"class.std::vector.73"*)* @_ZNK6dealii13FiniteElementILi3ELi3EE11interpolateERSt6vectorIdSaIdEERKS4_ to i8*), i8* bitcast (void (%"class.dealii::FiniteElement"*, %"class.std::vector.73"*, %"class.std::vector.85"*, i32)* @_ZNK6dealii13FiniteElementILi3ELi3EE11interpolateERSt6vectorIdSaIdEERKS2_INS_6VectorIdEESaIS7_EEj to i8*), i8* bitcast (void (%"class.dealii::FiniteElement"*, %"class.std::vector.73"*, %"class.dealii::VectorSlice"*)* @_ZNK6dealii13FiniteElementILi3ELi3EE11interpolateERSt6vectorIdSaIdEERKNS_11VectorSliceIKS2_IS4_SaIS4_EEEE to i8*), i8* bitcast (i32 (%"class.dealii::FiniteElement"*)* @_ZNK6dealii13FiniteElementILi3ELi3EE18memory_consumptionEv to i8*), i8* bitcast (i32 (%"class.dealii::FE_Poly"*, i32)* @_ZNK6dealii7FE_PolyINS_15PolynomialSpaceILi3EEELi3ELi3EE11update_onceENS_11UpdateFlagsE to i8*), i8* bitcast (i32 (%"class.dealii::FE_Poly"*, i32)* @_ZNK6dealii7FE_PolyINS_15PolynomialSpaceILi3EEELi3ELi3EE11update_eachENS_11UpdateFlagsE to i8*), i8* bitcast (void ()* @__cxa_pure_virtual to i8*), i8* bitcast (%"class.dealii::Mapping<3, 3>::InternalDataBase"* (%"class.dealii::FE_Poly"*, i32, %"class.dealii::Mapping"*, %"class.dealii::Quadrature"*)* @_ZNK6dealii7FE_PolyINS_15PolynomialSpaceILi3EEELi3ELi3EE8get_dataENS_11UpdateFlagsERKNS_7MappingILi3ELi3EEERKNS_10QuadratureILi3EEE to i8*), i8* bitcast (%"class.dealii::Mapping<3, 3>::InternalDataBase"* (%"class.dealii::FiniteElement"*, i32, %"class.dealii::Mapping"*, %"class.dealii::Quadrature.86"*)* @_ZNK6dealii13FiniteElementILi3ELi3EE13get_face_dataENS_11UpdateFlagsERKNS_7MappingILi3ELi3EEERKNS_10QuadratureILi2EEE to i8*), i8* bitcast (%"class.dealii::Mapping<3, 3>::InternalDataBase"* (%"class.dealii::FiniteElement"*, i32, %"class.dealii::Mapping"*, %"class.dealii::Quadrature.86"*)* @_ZNK6dealii13FiniteElementILi3ELi3EE16get_subface_dataENS_11UpdateFlagsERKNS_7MappingILi3ELi3EEERKNS_10QuadratureILi2EEE to i8*), i8* bitcast (void (%"class.dealii::FE_Poly"*, %"class.dealii::Mapping"*, %"class.dealii::TriaIterator"*, %"class.dealii::Quadrature"*, %"class.dealii::Mapping<3, 3>::InternalDataBase"*, %"class.dealii::Mapping<3, 3>::InternalDataBase"*, %"class.dealii::FEValuesData"*, i32*)* @_ZNK6dealii7FE_PolyINS_15PolynomialSpaceILi3EEELi3ELi3EE14fill_fe_valuesERKNS_7MappingILi3ELi3EEERKNS_12TriaIteratorINS_12CellAccessorILi3ELi3EEEEERKNS_10QuadratureILi3EEERNS5_16InternalDataBaseESJ_RNS_12FEValuesDataILi3ELi3EEERNS_14CellSimilarity10SimilarityE to i8*), i8* bitcast (void (%"class.dealii::FE_Poly"*, %"class.dealii::Mapping"*, %"class.dealii::TriaIterator"*, i32, %"class.dealii::Quadrature.86"*, %"class.dealii::Mapping<3, 3>::InternalDataBase"*, %"class.dealii::Mapping<3, 3>::InternalDataBase"*, %"class.dealii::FEValuesData"*)* @_ZNK6dealii7FE_PolyINS_15PolynomialSpaceILi3EEELi3ELi3EE19fill_fe_face_valuesERKNS_7MappingILi3ELi3EEERKNS_12TriaIteratorINS_12CellAccessorILi3ELi3EEEEEjRKNS_10QuadratureILi2EEERNS5_16InternalDataBaseESJ_RNS_12FEValuesDataILi3ELi3EEE to i8*), i8* bitcast (void (%"class.dealii::FE_Poly"*, %"class.dealii::Mapping"*, %"class.dealii::TriaIterator"*, i32, i32, %"class.dealii::Quadrature.86"*, %"class.dealii::Mapping<3, 3>::InternalDataBase"*, %"class.dealii::Mapping<3, 3>::InternalDataBase"*, %"class.dealii::FEValuesData"*)* @_ZNK6dealii7FE_PolyINS_15PolynomialSpaceILi3EEELi3ELi3EE22fill_fe_subface_valuesERKNS_7MappingILi3ELi3EEERKNS_12TriaIteratorINS_12CellAccessorILi3ELi3EEEEEjjRKNS_10QuadratureILi2EEERNS5_16InternalDataBaseESJ_RNS_12FEValuesDataILi3ELi3EEE to i8*)] }, comdat, align 8
@_ZTVN6dealii13FiniteElementILi3ELi3EE30ExcInterpolationNotImplementedE = linkonce_odr dso_local unnamed_addr constant { [6 x i8*] } { [6 x i8*] [i8* null, i8* bitcast ({ i8*, i8*, i8* }* @_ZTIN6dealii13FiniteElementILi3ELi3EE30ExcInterpolationNotImplementedE to i8*), i8* bitcast (void (%"class.dealii::FiniteElement<3, 3>::ExcInterpolationNotImplemented"*)* @_ZN6dealii13FiniteElementILi3ELi3EE30ExcInterpolationNotImplementedD2Ev to i8*), i8* bitcast (void (%"class.dealii::FiniteElement<3, 3>::ExcInterpolationNotImplemented"*)* @_ZN6dealii13FiniteElementILi3ELi3EE30ExcInterpolationNotImplementedD0Ev to i8*), i8* bitcast (i8* (%"class.dealii::ExceptionBase"*)* @_ZNK6dealii13ExceptionBase4whatEv to i8*), i8* bitcast (void (%"class.dealii::ExceptionBase"*, %"class.std::basic_ostream"*)* @_ZNK6dealii13ExceptionBase10print_infoERSo to i8*)] }, comdat, align 8
@_ZTSN6dealii13FiniteElementILi3ELi3EE30ExcInterpolationNotImplementedE = linkonce_odr dso_local constant [67 x i8] c"N6dealii13FiniteElementILi3ELi3EE30ExcInterpolationNotImplementedE\00", comdat, align 1
@_ZTIN6dealii13ExceptionBaseE = external dso_local constant i8*
@_ZTIN6dealii13FiniteElementILi3ELi3EE30ExcInterpolationNotImplementedE = linkonce_odr dso_local constant { i8*, i8*, i8* } { i8* bitcast (i8** getelementptr inbounds (i8*, i8** @_ZTVN10__cxxabiv120__si_class_type_infoE, i64 2) to i8*), i8* getelementptr inbounds ([67 x i8], [67 x i8]* @_ZTSN6dealii13FiniteElementILi3ELi3EE30ExcInterpolationNotImplementedE, i32 0, i32 0), i8* bitcast (i8** @_ZTIN6dealii13ExceptionBaseE to i8*) }, comdat, align 8
@_ZTVN6dealii13FiniteElementILi3ELi3EEE = linkonce_odr dso_local unnamed_addr constant { [38 x i8*] } { [38 x i8*] [i8* null, i8* bitcast ({ i8*, i8*, i32, i32, i8*, i64, i8*, i64 }* @_ZTIN6dealii13FiniteElementILi3ELi3EEE to i8*), i8* bitcast (void (%"class.dealii::FiniteElement"*)* @_ZN6dealii13FiniteElementILi3ELi3EED1Ev to i8*), i8* bitcast (void (%"class.dealii::FiniteElement"*)* @_ZN6dealii13FiniteElementILi3ELi3EED0Ev to i8*), i8* bitcast (void ()* @__cxa_pure_virtual to i8*), i8* bitcast (double (%"class.dealii::FiniteElement"*, i32, %"class.dealii::Point"*)* @_ZNK6dealii13FiniteElementILi3ELi3EE11shape_valueEjRKNS_5PointILi3EEE to i8*), i8* bitcast (double (%"class.dealii::FiniteElement"*, i32, %"class.dealii::Point"*, i32)* @_ZNK6dealii13FiniteElementILi3ELi3EE21shape_value_componentEjRKNS_5PointILi3EEEj to i8*), i8* bitcast (void (%"class.dealii::Tensor"*, %"class.dealii::FiniteElement"*, i32, %"class.dealii::Point"*)* @_ZNK6dealii13FiniteElementILi3ELi3EE10shape_gradEjRKNS_5PointILi3EEE to i8*), i8* bitcast (void (%"class.dealii::Tensor"*, %"class.dealii::FiniteElement"*, i32, %"class.dealii::Point"*, i32)* @_ZNK6dealii13FiniteElementILi3ELi3EE20shape_grad_componentEjRKNS_5PointILi3EEEj to i8*), i8* bitcast (void (%"class.dealii::Tensor.84"*, %"class.dealii::FiniteElement"*, i32, %"class.dealii::Point"*)* @_ZNK6dealii13FiniteElementILi3ELi3EE15shape_grad_gradEjRKNS_5PointILi3EEE to i8*), i8* bitcast (void (%"class.dealii::Tensor.84"*, %"class.dealii::FiniteElement"*, i32, %"class.dealii::Point"*, i32)* @_ZNK6dealii13FiniteElementILi3ELi3EE25shape_grad_grad_componentEjRKNS_5PointILi3EEEj to i8*), i8* bitcast (i1 (%"class.dealii::FiniteElement"*, i32, i32)* @_ZNK6dealii13FiniteElementILi3ELi3EE19has_support_on_faceEjj to i8*), i8* bitcast (i1 (%"class.dealii::FiniteElement"*)* @_ZNK6dealii13FiniteElementILi3ELi3EE30hp_constraints_are_implementedEv to i8*), i8* bitcast (void (%"class.dealii::FiniteElement"*, %"class.dealii::FiniteElement"*, %"class.dealii::FullMatrix"*)* @_ZNK6dealii13FiniteElementILi3ELi3EE24get_interpolation_matrixERKS1_RNS_10FullMatrixIdEE to i8*), i8* bitcast (void (%"class.dealii::FiniteElement"*, %"class.dealii::FiniteElement"*, %"class.dealii::FullMatrix"*)* @_ZNK6dealii13FiniteElementILi3ELi3EE29get_face_interpolation_matrixERKS1_RNS_10FullMatrixIdEE to i8*), i8* bitcast (void (%"class.dealii::FiniteElement"*, %"class.dealii::FiniteElement"*, i32, %"class.dealii::FullMatrix"*)* @_ZNK6dealii13FiniteElementILi3ELi3EE32get_subface_interpolation_matrixERKS1_jRNS_10FullMatrixIdEE to i8*), i8* bitcast (void (%"class.std::vector.41"*, %"class.dealii::FiniteElement"*, %"class.dealii::FiniteElement"*)* @_ZNK6dealii13FiniteElementILi3ELi3EE24hp_vertex_dof_identitiesERKS1_ to i8*), i8* bitcast (void (%"class.std::vector.41"*, %"class.dealii::FiniteElement"*, %"class.dealii::FiniteElement"*)* @_ZNK6dealii13FiniteElementILi3ELi3EE22hp_line_dof_identitiesERKS1_ to i8*), i8* bitcast (void (%"class.std::vector.41"*, %"class.dealii::FiniteElement"*, %"class.dealii::FiniteElement"*)* @_ZNK6dealii13FiniteElementILi3ELi3EE22hp_quad_dof_identitiesERKS1_ to i8*), i8* bitcast (i32 (%"class.dealii::FiniteElement"*, %"class.dealii::FiniteElement"*)* @_ZNK6dealii13FiniteElementILi3ELi3EE27compare_for_face_dominationERKS1_ to i8*), i8* bitcast (void ()* @__cxa_pure_virtual to i8*), i8* bitcast (void ()* @__cxa_pure_virtual to i8*), i8* bitcast (void ()* @__cxa_pure_virtual to i8*), i8* bitcast (void (%"class.dealii::Point"*, %"class.dealii::FiniteElement"*, i32)* @_ZNK6dealii13FiniteElementILi3ELi3EE18unit_support_pointEj to i8*), i8* bitcast (void (%"class.dealii::Point.30"*, %"class.dealii::FiniteElement"*, i32)* @_ZNK6dealii13FiniteElementILi3ELi3EE23unit_face_support_pointEj to i8*), i8* bitcast (void (%"class.dealii::FiniteElement"*, %"class.std::vector.73"*, %"class.std::vector.73"*)* @_ZNK6dealii13FiniteElementILi3ELi3EE11interpolateERSt6vectorIdSaIdEERKS4_ to i8*), i8* bitcast (void (%"class.dealii::FiniteElement"*, %"class.std::vector.73"*, %"class.std::vector.85"*, i32)* @_ZNK6dealii13FiniteElementILi3ELi3EE11interpolateERSt6vectorIdSaIdEERKS2_INS_6VectorIdEESaIS7_EEj to i8*), i8* bitcast (void (%"class.dealii::FiniteElement"*, %"class.std::vector.73"*, %"class.dealii::VectorSlice"*)* @_ZNK6dealii13FiniteElementILi3ELi3EE11interpolateERSt6vectorIdSaIdEERKNS_11VectorSliceIKS2_IS4_SaIS4_EEEE to i8*), i8* bitcast (i32 (%"class.dealii::FiniteElement"*)* @_ZNK6dealii13FiniteElementILi3ELi3EE18memory_consumptionEv to i8*), i8* bitcast (void ()* @__cxa_pure_virtual to i8*), i8* bitcast (void ()* @__cxa_pure_virtual to i8*), i8* bitcast (void ()* @__cxa_pure_virtual to i8*), i8* bitcast (void ()* @__cxa_pure_virtual to i8*), i8* bitcast (%"class.dealii::Mapping<3, 3>::InternalDataBase"* (%"class.dealii::FiniteElement"*, i32, %"class.dealii::Mapping"*, %"class.dealii::Quadrature.86"*)* @_ZNK6dealii13FiniteElementILi3ELi3EE13get_face_dataENS_11UpdateFlagsERKNS_7MappingILi3ELi3EEERKNS_10QuadratureILi2EEE to i8*), i8* bitcast (%"class.dealii::Mapping<3, 3>::InternalDataBase"* (%"class.dealii::FiniteElement"*, i32, %"class.dealii::Mapping"*, %"class.dealii::Quadrature.86"*)* @_ZNK6dealii13FiniteElementILi3ELi3EE16get_subface_dataENS_11UpdateFlagsERKNS_7MappingILi3ELi3EEERKNS_10QuadratureILi2EEE to i8*), i8* bitcast (void ()* @__cxa_pure_virtual to i8*), i8* bitcast (void ()* @__cxa_pure_virtual to i8*), i8* bitcast (void ()* @__cxa_pure_virtual to i8*)] }, comdat, align 8
@_ZTVN6dealii5TableILi2EiEE = linkonce_odr dso_local unnamed_addr constant { [4 x i8*] } { [4 x i8*] [i8* null, i8* bitcast ({ i8*, i8*, i8* }* @_ZTIN6dealii5TableILi2EiEE to i8*), i8* bitcast (void (%"class.dealii::Table.32"*)* @_ZN6dealii5TableILi2EiED2Ev to i8*), i8* bitcast (void (%"class.dealii::Table.32"*)* @_ZN6dealii5TableILi2EiED0Ev to i8*)] }, comdat, align 8
@_ZTSN6dealii5TableILi2EiEE = linkonce_odr dso_local constant [23 x i8] c"N6dealii5TableILi2EiEE\00", comdat, align 1
@_ZTSN6dealii9TableBaseILi2EiEE = linkonce_odr dso_local constant [27 x i8] c"N6dealii9TableBaseILi2EiEE\00", comdat, align 1
@_ZTIN6dealii9TableBaseILi2EiEE = linkonce_odr dso_local constant { i8*, i8*, i8* } { i8* bitcast (i8** getelementptr inbounds (i8*, i8** @_ZTVN10__cxxabiv120__si_class_type_infoE, i64 2) to i8*), i8* getelementptr inbounds ([27 x i8], [27 x i8]* @_ZTSN6dealii9TableBaseILi2EiEE, i32 0, i32 0), i8* bitcast (i8** @_ZTIN6dealii11SubscriptorE to i8*) }, comdat, align 8
@_ZTIN6dealii5TableILi2EiEE = linkonce_odr dso_local constant { i8*, i8*, i8* } { i8* bitcast (i8** getelementptr inbounds (i8*, i8** @_ZTVN10__cxxabiv120__si_class_type_infoE, i64 2) to i8*), i8* getelementptr inbounds ([23 x i8], [23 x i8]* @_ZTSN6dealii5TableILi2EiEE, i32 0, i32 0), i8* bitcast ({ i8*, i8*, i8* }* @_ZTIN6dealii9TableBaseILi2EiEE to i8*) }, comdat, align 8
@_ZTVN6dealii9TableBaseILi2EiEE = linkonce_odr dso_local unnamed_addr constant { [4 x i8*] } { [4 x i8*] [i8* null, i8* bitcast ({ i8*, i8*, i8* }* @_ZTIN6dealii9TableBaseILi2EiEE to i8*), i8* bitcast (void (%"class.dealii::TableBase.33"*)* @_ZN6dealii9TableBaseILi2EiED2Ev to i8*), i8* bitcast (void (%"class.dealii::TableBase.33"*)* @_ZN6dealii9TableBaseILi2EiED0Ev to i8*)] }, comdat, align 8
@_ZTVN6dealii9TableBaseILi2EdEE = linkonce_odr dso_local unnamed_addr constant { [4 x i8*] } { [4 x i8*] [i8* null, i8* bitcast ({ i8*, i8*, i8* }* @_ZTIN6dealii9TableBaseILi2EdEE to i8*), i8* bitcast (void (%"class.dealii::TableBase"*)* @_ZN6dealii9TableBaseILi2EdED2Ev to i8*), i8* bitcast (void (%"class.dealii::TableBase"*)* @_ZN6dealii9TableBaseILi2EdED0Ev to i8*)] }, comdat, align 8
@_ZTSN6dealii9TableBaseILi2EdEE = linkonce_odr dso_local constant [27 x i8] c"N6dealii9TableBaseILi2EdEE\00", comdat, align 1
@_ZTIN6dealii9TableBaseILi2EdEE = linkonce_odr dso_local constant { i8*, i8*, i8* } { i8* bitcast (i8** getelementptr inbounds (i8*, i8** @_ZTVN10__cxxabiv120__si_class_type_infoE, i64 2) to i8*), i8* getelementptr inbounds ([27 x i8], [27 x i8]* @_ZTSN6dealii9TableBaseILi2EdEE, i32 0, i32 0), i8* bitcast (i8** @_ZTIN6dealii11SubscriptorE to i8*) }, comdat, align 8
@_ZTVN6dealii11Polynomials10PolynomialIdEE = linkonce_odr dso_local unnamed_addr constant { [4 x i8*] } { [4 x i8*] [i8* null, i8* bitcast ({ i8*, i8*, i8* }* @_ZTIN6dealii11Polynomials10PolynomialIdEE to i8*), i8* bitcast (void (%"class.dealii::Polynomials::Polynomial"*)* @_ZN6dealii11Polynomials10PolynomialIdED2Ev to i8*), i8* bitcast (void (%"class.dealii::Polynomials::Polynomial"*)* @_ZN6dealii11Polynomials10PolynomialIdED0Ev to i8*)] }, comdat, align 8
@_ZTSN6dealii11Polynomials10PolynomialIdEE = linkonce_odr dso_local constant [38 x i8] c"N6dealii11Polynomials10PolynomialIdEE\00", comdat, align 1
@_ZTIN6dealii11Polynomials10PolynomialIdEE = linkonce_odr dso_local constant { i8*, i8*, i8* } { i8* bitcast (i8** getelementptr inbounds (i8*, i8** @_ZTVN10__cxxabiv120__si_class_type_infoE, i64 2) to i8*), i8* getelementptr inbounds ([38 x i8], [38 x i8]* @_ZTSN6dealii11Polynomials10PolynomialIdEE, i32 0, i32 0), i8* bitcast (i8** @_ZTIN6dealii11SubscriptorE to i8*) }, comdat, align 8
@.str.16 = private unnamed_addr constant [49 x i8] c"cannot create std::vector larger than max_size()\00", align 1
@llvm.global_ctors = appending global [1 x { i32, void ()*, i8* }] [{ i32, void ()*, i8* } { i32 65535, void ()* @_GLOBAL__sub_I_fe_dgp.cc, i8* null }]

@_ZN6dealii6FE_DGPILi3ELi3EEC1Ej = weak_odr dso_local unnamed_addr alias void (%"class.dealii::FE_DGP"*, i32), void (%"class.dealii::FE_DGP"*, i32)* @_ZN6dealii6FE_DGPILi3ELi3EEC2Ej

; Function Attrs: noinline uwtable
define internal void @__cxx_global_var_init() #0 section ".text.startup" !dbg !8813 {
entry:
  call void @_ZN5boost3argILi1EEC2Ev(%"struct.boost::arg"* @_ZN12_GLOBAL__N_12_1E), !dbg !8814
  ret void, !dbg !8814
}

; Function Attrs: noinline nounwind uwtable
define linkonce_odr dso_local void @_ZN5boost3argILi1EEC2Ev(%"struct.boost::arg"* %this) unnamed_addr #1 comdat align 2 !dbg !8815 {
entry:
  %this.addr = alloca %"struct.boost::arg"*, align 8
  store %"struct.boost::arg"* %this, %"struct.boost::arg"** %this.addr, align 8
  call void @llvm.dbg.declare(metadata %"struct.boost::arg"** %this.addr, metadata !8816, metadata !DIExpression()), !dbg !8818
  %this1 = load %"struct.boost::arg"*, %"struct.boost::arg"** %this.addr, align 8
  ret void, !dbg !8819
}

; Function Attrs: noinline uwtable
define internal void @__cxx_global_var_init.1() #0 section ".text.startup" !dbg !8820 {
entry:
  call void @_ZN5boost3argILi2EEC2Ev(%"struct.boost::arg.0"* @_ZN12_GLOBAL__N_12_2E), !dbg !8821
  ret void, !dbg !8821
}

; Function Attrs: noinline nounwind uwtable
define linkonce_odr dso_local void @_ZN5boost3argILi2EEC2Ev(%"struct.boost::arg.0"* %this) unnamed_addr #1 comdat align 2 !dbg !8822 {
entry:
  %this.addr = alloca %"struct.boost::arg.0"*, align 8
  store %"struct.boost::arg.0"* %this, %"struct.boost::arg.0"** %this.addr, align 8
  call void @llvm.dbg.declare(metadata %"struct.boost::arg.0"** %this.addr, metadata !8823, metadata !DIExpression()), !dbg !8825
  %this1 = load %"struct.boost::arg.0"*, %"struct.boost::arg.0"** %this.addr, align 8
  ret void, !dbg !8826
}

; Function Attrs: noinline uwtable
define internal void @__cxx_global_var_init.2() #0 section ".text.startup" !dbg !8827 {
entry:
  call void @_ZN5boost3argILi3EEC2Ev(%"struct.boost::arg.2"* @_ZN12_GLOBAL__N_12_3E), !dbg !8828
  ret void, !dbg !8828
}

; Function Attrs: noinline nounwind uwtable
define linkonce_odr dso_local void @_ZN5boost3argILi3EEC2Ev(%"struct.boost::arg.2"* %this) unnamed_addr #1 comdat align 2 !dbg !8829 {
entry:
  %this.addr = alloca %"struct.boost::arg.2"*, align 8
  store %"struct.boost::arg.2"* %this, %"struct.boost::arg.2"** %this.addr, align 8
  call void @llvm.dbg.declare(metadata %"struct.boost::arg.2"** %this.addr, metadata !8830, metadata !DIExpression()), !dbg !8832
  %this1 = load %"struct.boost::arg.2"*, %"struct.boost::arg.2"** %this.addr, align 8
  ret void, !dbg !8833
}

; Function Attrs: noinline uwtable
define internal void @__cxx_global_var_init.3() #0 section ".text.startup" !dbg !8834 {
entry:
  call void @_ZN5boost3argILi4EEC2Ev(%"struct.boost::arg.4"* @_ZN12_GLOBAL__N_12_4E), !dbg !8835
  ret void, !dbg !8835
}

; Function Attrs: noinline nounwind uwtable
define linkonce_odr dso_local void @_ZN5boost3argILi4EEC2Ev(%"struct.boost::arg.4"* %this) unnamed_addr #1 comdat align 2 !dbg !8836 {
entry:
  %this.addr = alloca %"struct.boost::arg.4"*, align 8
  store %"struct.boost::arg.4"* %this, %"struct.boost::arg.4"** %this.addr, align 8
  call void @llvm.dbg.declare(metadata %"struct.boost::arg.4"** %this.addr, metadata !8837, metadata !DIExpression()), !dbg !8839
  %this1 = load %"struct.boost::arg.4"*, %"struct.boost::arg.4"** %this.addr, align 8
  ret void, !dbg !8840
}

; Function Attrs: noinline uwtable
define internal void @__cxx_global_var_init.4() #0 section ".text.startup" !dbg !8841 {
entry:
  call void @_ZN5boost3argILi5EEC2Ev(%"struct.boost::arg.6"* @_ZN12_GLOBAL__N_12_5E), !dbg !8842
  ret void, !dbg !8842
}

; Function Attrs: noinline nounwind uwtable
define linkonce_odr dso_local void @_ZN5boost3argILi5EEC2Ev(%"struct.boost::arg.6"* %this) unnamed_addr #1 comdat align 2 !dbg !8843 {
entry:
  %this.addr = alloca %"struct.boost::arg.6"*, align 8
  store %"struct.boost::arg.6"* %this, %"struct.boost::arg.6"** %this.addr, align 8
  call void @llvm.dbg.declare(metadata %"struct.boost::arg.6"** %this.addr, metadata !8844, metadata !DIExpression()), !dbg !8846
  %this1 = load %"struct.boost::arg.6"*, %"struct.boost::arg.6"** %this.addr, align 8
  ret void, !dbg !8847
}

; Function Attrs: noinline uwtable
define internal void @__cxx_global_var_init.5() #0 section ".text.startup" !dbg !8848 {
entry:
  call void @_ZN5boost3argILi6EEC2Ev(%"struct.boost::arg.8"* @_ZN12_GLOBAL__N_12_6E), !dbg !8849
  ret void, !dbg !8849
}

; Function Attrs: noinline nounwind uwtable
define linkonce_odr dso_local void @_ZN5boost3argILi6EEC2Ev(%"struct.boost::arg.8"* %this) unnamed_addr #1 comdat align 2 !dbg !8850 {
entry:
  %this.addr = alloca %"struct.boost::arg.8"*, align 8
  store %"struct.boost::arg.8"* %this, %"struct.boost::arg.8"** %this.addr, align 8
  call void @llvm.dbg.declare(metadata %"struct.boost::arg.8"** %this.addr, metadata !8851, metadata !DIExpression()), !dbg !8853
  %this1 = load %"struct.boost::arg.8"*, %"struct.boost::arg.8"** %this.addr, align 8
  ret void, !dbg !8854
}

; Function Attrs: noinline uwtable
define internal void @__cxx_global_var_init.6() #0 section ".text.startup" !dbg !8855 {
entry:
  call void @_ZN5boost3argILi7EEC2Ev(%"struct.boost::arg.10"* @_ZN12_GLOBAL__N_12_7E), !dbg !8856
  ret void, !dbg !8856
}

; Function Attrs: noinline nounwind uwtable
define linkonce_odr dso_local void @_ZN5boost3argILi7EEC2Ev(%"struct.boost::arg.10"* %this) unnamed_addr #1 comdat align 2 !dbg !8857 {
entry:
  %this.addr = alloca %"struct.boost::arg.10"*, align 8
  store %"struct.boost::arg.10"* %this, %"struct.boost::arg.10"** %this.addr, align 8
  call void @llvm.dbg.declare(metadata %"struct.boost::arg.10"** %this.addr, metadata !8858, metadata !DIExpression()), !dbg !8860
  %this1 = load %"struct.boost::arg.10"*, %"struct.boost::arg.10"** %this.addr, align 8
  ret void, !dbg !8861
}

; Function Attrs: noinline uwtable
define internal void @__cxx_global_var_init.7() #0 section ".text.startup" !dbg !8862 {
entry:
  call void @_ZN5boost3argILi8EEC2Ev(%"struct.boost::arg.12"* @_ZN12_GLOBAL__N_12_8E), !dbg !8863
  ret void, !dbg !8863
}

; Function Attrs: noinline nounwind uwtable
define linkonce_odr dso_local void @_ZN5boost3argILi8EEC2Ev(%"struct.boost::arg.12"* %this) unnamed_addr #1 comdat align 2 !dbg !8864 {
entry:
  %this.addr = alloca %"struct.boost::arg.12"*, align 8
  store %"struct.boost::arg.12"* %this, %"struct.boost::arg.12"** %this.addr, align 8
  call void @llvm.dbg.declare(metadata %"struct.boost::arg.12"** %this.addr, metadata !8865, metadata !DIExpression()), !dbg !8867
  %this1 = load %"struct.boost::arg.12"*, %"struct.boost::arg.12"** %this.addr, align 8
  ret void, !dbg !8868
}

; Function Attrs: noinline uwtable
define internal void @__cxx_global_var_init.8() #0 section ".text.startup" !dbg !8869 {
entry:
  call void @_ZN5boost3argILi9EEC2Ev(%"struct.boost::arg.14"* @_ZN12_GLOBAL__N_12_9E), !dbg !8870
  ret void, !dbg !8870
}

; Function Attrs: noinline nounwind uwtable
define linkonce_odr dso_local void @_ZN5boost3argILi9EEC2Ev(%"struct.boost::arg.14"* %this) unnamed_addr #1 comdat align 2 !dbg !8871 {
entry:
  %this.addr = alloca %"struct.boost::arg.14"*, align 8
  store %"struct.boost::arg.14"* %this, %"struct.boost::arg.14"** %this.addr, align 8
  call void @llvm.dbg.declare(metadata %"struct.boost::arg.14"** %this.addr, metadata !8872, metadata !DIExpression()), !dbg !8874
  %this1 = load %"struct.boost::arg.14"*, %"struct.boost::arg.14"** %this.addr, align 8
  ret void, !dbg !8875
}

; Function Attrs: noinline uwtable
define internal void @__cxx_global_var_init.9() #0 section ".text.startup" !dbg !8876 {
entry:
  call void @_ZNSt8ios_base4InitC1Ev(%"class.std::ios_base::Init"* @_ZStL8__ioinit), !dbg !8877
  %0 = call i32 @__cxa_atexit(void (i8*)* bitcast (void (%"class.std::ios_base::Init"*)* @_ZNSt8ios_base4InitD1Ev to void (i8*)*), i8* getelementptr inbounds (%"class.std::ios_base::Init", %"class.std::ios_base::Init"* @_ZStL8__ioinit, i32 0, i32 0), i8* @__dso_handle) #4, !dbg !8877
  ret void, !dbg !8877
}

declare dso_local void @_ZNSt8ios_base4InitC1Ev(%"class.std::ios_base::Init"*) unnamed_addr #2

; Function Attrs: nounwind
declare dso_local void @_ZNSt8ios_base4InitD1Ev(%"class.std::ios_base::Init"*) unnamed_addr #3

; Function Attrs: nounwind
declare dso_local i32 @__cxa_atexit(void (i8*)*, i8*, i8*) #4

; Function Attrs: noinline uwtable
define weak_odr dso_local void @_ZN6dealii6FE_DGPILi3ELi3EEC2Ej(%"class.dealii::FE_DGP"* %this, i32 %degree) unnamed_addr #0 comdat($_ZN6dealii6FE_DGPILi3ELi3EEC5Ej) align 2 personality i8* bitcast (i32 (...)* @__gxx_personality_v0 to i8*) !dbg !8878 {
entry:
  %this.addr = alloca %"class.dealii::FE_DGP"*, align 8
  %degree.addr = alloca i32, align 4
  %ref.tmp = alloca %"class.dealii::PolynomialSpace", align 8
  %ref.tmp2 = alloca %"class.std::vector.68", align 8
  %exn.slot = alloca i8*
  %ehselector.slot = alloca i32
  %ref.tmp3 = alloca %"class.dealii::FiniteElementData", align 4
  %ref.tmp4 = alloca %"class.std::vector.54", align 8
  %ref.tmp9 = alloca %"class.std::vector.59", align 8
  %ref.tmp10 = alloca %"class.dealii::FiniteElementData", align 4
  %ref.tmp11 = alloca %"class.std::vector.54", align 8
  %ref.tmp15 = alloca i8, align 1
  %ref.tmp16 = alloca %"class.std::allocator.78", align 1
  %ref.tmp19 = alloca %"class.std::vector.63", align 8
  %ref.tmp20 = alloca %"class.dealii::FiniteElementData", align 4
  %ref.tmp21 = alloca %"class.std::vector.54", align 8
  %ref.tmp28 = alloca %"class.std::vector.59", align 8
  %ref.tmp29 = alloca i8, align 1
  %ref.tmp30 = alloca %"class.std::allocator.78", align 1
  %ref.tmp33 = alloca %"class.std::allocator.65", align 1
  store %"class.dealii::FE_DGP"* %this, %"class.dealii::FE_DGP"** %this.addr, align 8
  call void @llvm.dbg.declare(metadata %"class.dealii::FE_DGP"** %this.addr, metadata !8879, metadata !DIExpression()), !dbg !8881
  store i32 %degree, i32* %degree.addr, align 4
  call void @llvm.dbg.declare(metadata i32* %degree.addr, metadata !8882, metadata !DIExpression()), !dbg !8883
  %this1 = load %"class.dealii::FE_DGP"*, %"class.dealii::FE_DGP"** %this.addr, align 8
  %0 = bitcast %"class.dealii::FE_DGP"* %this1 to %"class.dealii::FE_Poly"*, !dbg !8884
  %1 = load i32, i32* %degree.addr, align 4, !dbg !8885
  call void @_ZN6dealii11Polynomials8Legendre23generate_complete_basisEj(%"class.std::vector.68"* sret %ref.tmp2, i32 %1), !dbg !8886
  invoke void @_ZN6dealii15PolynomialSpaceILi3EEC2INS_11Polynomials10PolynomialIdEEEERKSt6vectorIT_SaIS7_EE(%"class.dealii::PolynomialSpace"* %ref.tmp, %"class.std::vector.68"* dereferenceable(24) %ref.tmp2)
          to label %invoke.cont unwind label %lpad, !dbg !8887

invoke.cont:                                      ; preds = %entry
  %2 = load i32, i32* %degree.addr, align 4, !dbg !8888
  invoke void @_ZN6dealii6FE_DGPILi3ELi3EE14get_dpo_vectorEj(%"class.std::vector.54"* sret %ref.tmp4, i32 %2)
          to label %invoke.cont6 unwind label %lpad5, !dbg !8889

invoke.cont6:                                     ; preds = %invoke.cont
  %3 = load i32, i32* %degree.addr, align 4, !dbg !8890
  invoke void @_ZN6dealii17FiniteElementDataILi3EEC1ERKSt6vectorIjSaIjEEjjNS1_10ConformityEj(%"class.dealii::FiniteElementData"* %ref.tmp3, %"class.std::vector.54"* dereferenceable(24) %ref.tmp4, i32 1, i32 %3, i32 1, i32 -1)
          to label %invoke.cont8 unwind label %lpad7, !dbg !8891

invoke.cont8:                                     ; preds = %invoke.cont6
  %4 = load i32, i32* %degree.addr, align 4, !dbg !8892
  invoke void @_ZN6dealii6FE_DGPILi3ELi3EE14get_dpo_vectorEj(%"class.std::vector.54"* sret %ref.tmp11, i32 %4)
          to label %invoke.cont12 unwind label %lpad7, !dbg !8893

invoke.cont12:                                    ; preds = %invoke.cont8
  %5 = load i32, i32* %degree.addr, align 4, !dbg !8894
  invoke void @_ZN6dealii17FiniteElementDataILi3EEC1ERKSt6vectorIjSaIjEEjjNS1_10ConformityEj(%"class.dealii::FiniteElementData"* %ref.tmp10, %"class.std::vector.54"* dereferenceable(24) %ref.tmp11, i32 1, i32 %5, i32 0, i32 -1)
          to label %invoke.cont14 unwind label %lpad13, !dbg !8895

invoke.cont14:                                    ; preds = %invoke.cont12
  %dofs_per_cell = getelementptr inbounds %"class.dealii::FiniteElementData", %"class.dealii::FiniteElementData"* %ref.tmp10, i32 0, i32 10, !dbg !8896
  %6 = load i32, i32* %dofs_per_cell, align 4, !dbg !8896
  %conv = zext i32 %6 to i64, !dbg !8895
  store i8 1, i8* %ref.tmp15, align 1, !dbg !8897
  call void @_ZNSaIbEC2Ev(%"class.std::allocator.78"* %ref.tmp16) #4, !dbg !8898
  invoke void @_ZNSt6vectorIbSaIbEEC2EmRKbRKS0_(%"class.std::vector.59"* %ref.tmp9, i64 %conv, i8* dereferenceable(1) %ref.tmp15, %"class.std::allocator.78"* dereferenceable(1) %ref.tmp16)
          to label %invoke.cont18 unwind label %lpad17, !dbg !8898

invoke.cont18:                                    ; preds = %invoke.cont14
  %7 = load i32, i32* %degree.addr, align 4, !dbg !8899
  invoke void @_ZN6dealii6FE_DGPILi3ELi3EE14get_dpo_vectorEj(%"class.std::vector.54"* sret %ref.tmp21, i32 %7)
          to label %invoke.cont23 unwind label %lpad22, !dbg !8900

invoke.cont23:                                    ; preds = %invoke.cont18
  %8 = load i32, i32* %degree.addr, align 4, !dbg !8901
  invoke void @_ZN6dealii17FiniteElementDataILi3EEC1ERKSt6vectorIjSaIjEEjjNS1_10ConformityEj(%"class.dealii::FiniteElementData"* %ref.tmp20, %"class.std::vector.54"* dereferenceable(24) %ref.tmp21, i32 1, i32 %8, i32 0, i32 -1)
          to label %invoke.cont25 unwind label %lpad24, !dbg !8902

invoke.cont25:                                    ; preds = %invoke.cont23
  %dofs_per_cell26 = getelementptr inbounds %"class.dealii::FiniteElementData", %"class.dealii::FiniteElementData"* %ref.tmp20, i32 0, i32 10, !dbg !8903
  %9 = load i32, i32* %dofs_per_cell26, align 4, !dbg !8903
  %conv27 = zext i32 %9 to i64, !dbg !8902
  store i8 1, i8* %ref.tmp29, align 1, !dbg !8904
  call void @_ZNSaIbEC2Ev(%"class.std::allocator.78"* %ref.tmp30) #4, !dbg !8905
  invoke void @_ZNSt6vectorIbSaIbEEC2EmRKbRKS0_(%"class.std::vector.59"* %ref.tmp28, i64 1, i8* dereferenceable(1) %ref.tmp29, %"class.std::allocator.78"* dereferenceable(1) %ref.tmp30)
          to label %invoke.cont32 unwind label %lpad31, !dbg !8905

invoke.cont32:                                    ; preds = %invoke.cont25
  call void @_ZNSaISt6vectorIbSaIbEEEC2Ev(%"class.std::allocator.65"* %ref.tmp33) #4, !dbg !8906
  invoke void @_ZNSt6vectorIS_IbSaIbEESaIS1_EEC2EmRKS1_RKS2_(%"class.std::vector.63"* %ref.tmp19, i64 %conv27, %"class.std::vector.59"* dereferenceable(40) %ref.tmp28, %"class.std::allocator.65"* dereferenceable(1) %ref.tmp33)
          to label %invoke.cont35 unwind label %lpad34, !dbg !8906

invoke.cont35:                                    ; preds = %invoke.cont32
  invoke void @_ZN6dealii7FE_PolyINS_15PolynomialSpaceILi3EEELi3ELi3EEC2ERKS2_RKNS_17FiniteElementDataILi3EEERKSt6vectorIbSaIbEERKSA_ISC_SaISC_EE(%"class.dealii::FE_Poly"* %0, %"class.dealii::PolynomialSpace"* dereferenceable(80) %ref.tmp, %"class.dealii::FiniteElementData"* dereferenceable(60) %ref.tmp3, %"class.std::vector.59"* dereferenceable(40) %ref.tmp9, %"class.std::vector.63"* dereferenceable(24) %ref.tmp19)
          to label %invoke.cont37 unwind label %lpad36, !dbg !8907

invoke.cont37:                                    ; preds = %invoke.cont35
  call void @_ZNSt6vectorIS_IbSaIbEESaIS1_EED2Ev(%"class.std::vector.63"* %ref.tmp19) #4, !dbg !8907
  call void @_ZNSaISt6vectorIbSaIbEEED2Ev(%"class.std::allocator.65"* %ref.tmp33) #4, !dbg !8907
  call void @_ZNSt6vectorIbSaIbEED2Ev(%"class.std::vector.59"* %ref.tmp28) #4, !dbg !8907
  call void @_ZNSaIbED2Ev(%"class.std::allocator.78"* %ref.tmp30) #4, !dbg !8907
  call void @_ZNSt6vectorIjSaIjEED2Ev(%"class.std::vector.54"* %ref.tmp21) #4, !dbg !8907
  call void @_ZNSt6vectorIbSaIbEED2Ev(%"class.std::vector.59"* %ref.tmp9) #4, !dbg !8907
  call void @_ZNSaIbED2Ev(%"class.std::allocator.78"* %ref.tmp16) #4, !dbg !8907
  call void @_ZNSt6vectorIjSaIjEED2Ev(%"class.std::vector.54"* %ref.tmp11) #4, !dbg !8907
  call void @_ZNSt6vectorIjSaIjEED2Ev(%"class.std::vector.54"* %ref.tmp4) #4, !dbg !8907
  call void @_ZN6dealii15PolynomialSpaceILi3EED2Ev(%"class.dealii::PolynomialSpace"* %ref.tmp) #4, !dbg !8907
  call void @_ZNSt6vectorIN6dealii11Polynomials10PolynomialIdEESaIS3_EED2Ev(%"class.std::vector.68"* %ref.tmp2) #4, !dbg !8907
  %10 = bitcast %"class.dealii::FE_DGP"* %this1 to i32 (...)***, !dbg !8884
  store i32 (...)** bitcast (i8** getelementptr inbounds ({ [38 x i8*] }, { [38 x i8*] }* @_ZTVN6dealii6FE_DGPILi3ELi3EEE, i32 0, inrange i32 0, i32 2) to i32 (...)**), i32 (...)*** %10, align 8, !dbg !8884
  %11 = bitcast %"class.dealii::FE_DGP"* %this1 to %"class.dealii::FiniteElement"*, !dbg !8908
  invoke void @_ZN6dealii13FiniteElementILi3ELi3EE44reinit_restriction_and_prolongation_matricesEbb(%"class.dealii::FiniteElement"* %11, i1 zeroext false, i1 zeroext false)
          to label %invoke.cont48 unwind label %lpad47, !dbg !8908

invoke.cont48:                                    ; preds = %invoke.cont37
  %12 = bitcast %"class.dealii::FE_DGP"* %this1 to %"class.dealii::FiniteElement"*, !dbg !8910
  %13 = bitcast %"class.dealii::FE_DGP"* %this1 to %"class.dealii::FiniteElement"*, !dbg !8913
  %prolongation = getelementptr inbounds %"class.dealii::FiniteElement", %"class.dealii::FiniteElement"* %13, i32 0, i32 4, !dbg !8913
  invoke void @_ZN6dealii7FETools26compute_embedding_matricesILi3EdLi3EEEvRKNS_13FiniteElementIXT_EXT1_EEERSt6vectorIS6_INS_10FullMatrixIT0_EESaIS9_EESaISB_EEb(%"class.dealii::FiniteElement"* dereferenceable(728) %12, %"class.std::vector"* dereferenceable(24) %prolongation, i1 zeroext false)
          to label %invoke.cont49 unwind label %lpad47, !dbg !8914

invoke.cont49:                                    ; preds = %invoke.cont48
  %14 = bitcast %"class.dealii::FE_DGP"* %this1 to %"class.dealii::FiniteElement"*, !dbg !8915
  %15 = bitcast %"class.dealii::FE_DGP"* %this1 to %"class.dealii::FiniteElement"*, !dbg !8916
  %restriction = getelementptr inbounds %"class.dealii::FiniteElement", %"class.dealii::FiniteElement"* %15, i32 0, i32 3, !dbg !8916
  invoke void @_ZN6dealii7FETools27compute_projection_matricesILi3EdLi3EEEvRKNS_13FiniteElementIXT_EXT1_EEERSt6vectorIS6_INS_10FullMatrixIT0_EESaIS9_EESaISB_EE(%"class.dealii::FiniteElement"* dereferenceable(728) %14, %"class.std::vector"* dereferenceable(24) %restriction)
          to label %invoke.cont50 unwind label %lpad47, !dbg !8917

invoke.cont50:                                    ; preds = %invoke.cont49
  ret void, !dbg !8918

lpad:                                             ; preds = %entry
  %16 = landingpad { i8*, i32 }
          cleanup, !dbg !8918
  %17 = extractvalue { i8*, i32 } %16, 0, !dbg !8918
  store i8* %17, i8** %exn.slot, align 8, !dbg !8918
  %18 = extractvalue { i8*, i32 } %16, 1, !dbg !8918
  store i32 %18, i32* %ehselector.slot, align 4, !dbg !8918
  br label %ehcleanup46, !dbg !8918

lpad5:                                            ; preds = %invoke.cont
  %19 = landingpad { i8*, i32 }
          cleanup, !dbg !8918
  %20 = extractvalue { i8*, i32 } %19, 0, !dbg !8918
  store i8* %20, i8** %exn.slot, align 8, !dbg !8918
  %21 = extractvalue { i8*, i32 } %19, 1, !dbg !8918
  store i32 %21, i32* %ehselector.slot, align 4, !dbg !8918
  br label %ehcleanup45, !dbg !8918

lpad7:                                            ; preds = %invoke.cont8, %invoke.cont6
  %22 = landingpad { i8*, i32 }
          cleanup, !dbg !8918
  %23 = extractvalue { i8*, i32 } %22, 0, !dbg !8918
  store i8* %23, i8** %exn.slot, align 8, !dbg !8918
  %24 = extractvalue { i8*, i32 } %22, 1, !dbg !8918
  store i32 %24, i32* %ehselector.slot, align 4, !dbg !8918
  br label %ehcleanup44, !dbg !8918

lpad13:                                           ; preds = %invoke.cont12
  %25 = landingpad { i8*, i32 }
          cleanup, !dbg !8918
  %26 = extractvalue { i8*, i32 } %25, 0, !dbg !8918
  store i8* %26, i8** %exn.slot, align 8, !dbg !8918
  %27 = extractvalue { i8*, i32 } %25, 1, !dbg !8918
  store i32 %27, i32* %ehselector.slot, align 4, !dbg !8918
  br label %ehcleanup43, !dbg !8918

lpad17:                                           ; preds = %invoke.cont14
  %28 = landingpad { i8*, i32 }
          cleanup, !dbg !8918
  %29 = extractvalue { i8*, i32 } %28, 0, !dbg !8918
  store i8* %29, i8** %exn.slot, align 8, !dbg !8918
  %30 = extractvalue { i8*, i32 } %28, 1, !dbg !8918
  store i32 %30, i32* %ehselector.slot, align 4, !dbg !8918
  br label %ehcleanup42, !dbg !8918

lpad22:                                           ; preds = %invoke.cont18
  %31 = landingpad { i8*, i32 }
          cleanup, !dbg !8918
  %32 = extractvalue { i8*, i32 } %31, 0, !dbg !8918
  store i8* %32, i8** %exn.slot, align 8, !dbg !8918
  %33 = extractvalue { i8*, i32 } %31, 1, !dbg !8918
  store i32 %33, i32* %ehselector.slot, align 4, !dbg !8918
  br label %ehcleanup41, !dbg !8918

lpad24:                                           ; preds = %invoke.cont23
  %34 = landingpad { i8*, i32 }
          cleanup, !dbg !8918
  %35 = extractvalue { i8*, i32 } %34, 0, !dbg !8918
  store i8* %35, i8** %exn.slot, align 8, !dbg !8918
  %36 = extractvalue { i8*, i32 } %34, 1, !dbg !8918
  store i32 %36, i32* %ehselector.slot, align 4, !dbg !8918
  br label %ehcleanup40, !dbg !8918

lpad31:                                           ; preds = %invoke.cont25
  %37 = landingpad { i8*, i32 }
          cleanup, !dbg !8918
  %38 = extractvalue { i8*, i32 } %37, 0, !dbg !8918
  store i8* %38, i8** %exn.slot, align 8, !dbg !8918
  %39 = extractvalue { i8*, i32 } %37, 1, !dbg !8918
  store i32 %39, i32* %ehselector.slot, align 4, !dbg !8918
  br label %ehcleanup39, !dbg !8918

lpad34:                                           ; preds = %invoke.cont32
  %40 = landingpad { i8*, i32 }
          cleanup, !dbg !8918
  %41 = extractvalue { i8*, i32 } %40, 0, !dbg !8918
  store i8* %41, i8** %exn.slot, align 8, !dbg !8918
  %42 = extractvalue { i8*, i32 } %40, 1, !dbg !8918
  store i32 %42, i32* %ehselector.slot, align 4, !dbg !8918
  br label %ehcleanup, !dbg !8918

lpad36:                                           ; preds = %invoke.cont35
  %43 = landingpad { i8*, i32 }
          cleanup, !dbg !8918
  %44 = extractvalue { i8*, i32 } %43, 0, !dbg !8918
  store i8* %44, i8** %exn.slot, align 8, !dbg !8918
  %45 = extractvalue { i8*, i32 } %43, 1, !dbg !8918
  store i32 %45, i32* %ehselector.slot, align 4, !dbg !8918
  call void @_ZNSt6vectorIS_IbSaIbEESaIS1_EED2Ev(%"class.std::vector.63"* %ref.tmp19) #4, !dbg !8907
  br label %ehcleanup, !dbg !8907

ehcleanup:                                        ; preds = %lpad36, %lpad34
  call void @_ZNSaISt6vectorIbSaIbEEED2Ev(%"class.std::allocator.65"* %ref.tmp33) #4, !dbg !8907
  call void @_ZNSt6vectorIbSaIbEED2Ev(%"class.std::vector.59"* %ref.tmp28) #4, !dbg !8907
  br label %ehcleanup39, !dbg !8907

ehcleanup39:                                      ; preds = %ehcleanup, %lpad31
  call void @_ZNSaIbED2Ev(%"class.std::allocator.78"* %ref.tmp30) #4, !dbg !8907
  br label %ehcleanup40, !dbg !8907

ehcleanup40:                                      ; preds = %ehcleanup39, %lpad24
  call void @_ZNSt6vectorIjSaIjEED2Ev(%"class.std::vector.54"* %ref.tmp21) #4, !dbg !8907
  br label %ehcleanup41, !dbg !8907

ehcleanup41:                                      ; preds = %ehcleanup40, %lpad22
  call void @_ZNSt6vectorIbSaIbEED2Ev(%"class.std::vector.59"* %ref.tmp9) #4, !dbg !8907
  br label %ehcleanup42, !dbg !8907

ehcleanup42:                                      ; preds = %ehcleanup41, %lpad17
  call void @_ZNSaIbED2Ev(%"class.std::allocator.78"* %ref.tmp16) #4, !dbg !8907
  br label %ehcleanup43, !dbg !8907

ehcleanup43:                                      ; preds = %ehcleanup42, %lpad13
  call void @_ZNSt6vectorIjSaIjEED2Ev(%"class.std::vector.54"* %ref.tmp11) #4, !dbg !8907
  br label %ehcleanup44, !dbg !8907

ehcleanup44:                                      ; preds = %ehcleanup43, %lpad7
  call void @_ZNSt6vectorIjSaIjEED2Ev(%"class.std::vector.54"* %ref.tmp4) #4, !dbg !8907
  br label %ehcleanup45, !dbg !8907

ehcleanup45:                                      ; preds = %ehcleanup44, %lpad5
  call void @_ZN6dealii15PolynomialSpaceILi3EED2Ev(%"class.dealii::PolynomialSpace"* %ref.tmp) #4, !dbg !8907
  br label %ehcleanup46, !dbg !8907

ehcleanup46:                                      ; preds = %ehcleanup45, %lpad
  call void @_ZNSt6vectorIN6dealii11Polynomials10PolynomialIdEESaIS3_EED2Ev(%"class.std::vector.68"* %ref.tmp2) #4, !dbg !8907
  br label %eh.resume, !dbg !8907

lpad47:                                           ; preds = %invoke.cont49, %invoke.cont48, %invoke.cont37
  %46 = landingpad { i8*, i32 }
          cleanup, !dbg !8919
  %47 = extractvalue { i8*, i32 } %46, 0, !dbg !8919
  store i8* %47, i8** %exn.slot, align 8, !dbg !8919
  %48 = extractvalue { i8*, i32 } %46, 1, !dbg !8919
  store i32 %48, i32* %ehselector.slot, align 4, !dbg !8919
  %49 = bitcast %"class.dealii::FE_DGP"* %this1 to %"class.dealii::FE_Poly"*, !dbg !8919
  call void @_ZN6dealii7FE_PolyINS_15PolynomialSpaceILi3EEELi3ELi3EED2Ev(%"class.dealii::FE_Poly"* %49) #4, !dbg !8919
  br label %eh.resume, !dbg !8919

eh.resume:                                        ; preds = %lpad47, %ehcleanup46
  %exn = load i8*, i8** %exn.slot, align 8, !dbg !8907
  %sel = load i32, i32* %ehselector.slot, align 4, !dbg !8907
  %lpad.val = insertvalue { i8*, i32 } undef, i8* %exn, 0, !dbg !8907
  %lpad.val52 = insertvalue { i8*, i32 } %lpad.val, i32 %sel, 1, !dbg !8907
  resume { i8*, i32 } %lpad.val52, !dbg !8907
}

; Function Attrs: nounwind readnone speculatable willreturn
declare void @llvm.dbg.declare(metadata, metadata, metadata) #5

declare dso_local void @_ZN6dealii11Polynomials8Legendre23generate_complete_basisEj(%"class.std::vector.68"* sret, i32) #2

; Function Attrs: noinline uwtable
define linkonce_odr dso_local void @_ZN6dealii15PolynomialSpaceILi3EEC2INS_11Polynomials10PolynomialIdEEEERKSt6vectorIT_SaIS7_EE(%"class.dealii::PolynomialSpace"* %this, %"class.std::vector.68"* dereferenceable(24) %pols) unnamed_addr #0 comdat align 2 personality i8* bitcast (i32 (...)* @__gxx_personality_v0 to i8*) !dbg !8920 {
entry:
  %this.addr = alloca %"class.dealii::PolynomialSpace"*, align 8
  %pols.addr = alloca %"class.std::vector.68"*, align 8
  %agg.tmp = alloca %"class.__gnu_cxx::__normal_iterator.99", align 8
  %agg.tmp2 = alloca %"class.__gnu_cxx::__normal_iterator.99", align 8
  %ref.tmp = alloca %"class.std::allocator.70", align 1
  %exn.slot = alloca i8*
  %ehselector.slot = alloca i32
  %ref.tmp14 = alloca %"class.std::allocator.56", align 1
  %ref.tmp19 = alloca %"class.std::allocator.56", align 1
  %i = alloca i32, align 4
  store %"class.dealii::PolynomialSpace"* %this, %"class.dealii::PolynomialSpace"** %this.addr, align 8
  call void @llvm.dbg.declare(metadata %"class.dealii::PolynomialSpace"** %this.addr, metadata !8926, metadata !DIExpression()), !dbg !8928
  store %"class.std::vector.68"* %pols, %"class.std::vector.68"** %pols.addr, align 8
  call void @llvm.dbg.declare(metadata %"class.std::vector.68"** %pols.addr, metadata !8929, metadata !DIExpression()), !dbg !8930
  %this1 = load %"class.dealii::PolynomialSpace"*, %"class.dealii::PolynomialSpace"** %this.addr, align 8
  %polynomials = getelementptr inbounds %"class.dealii::PolynomialSpace", %"class.dealii::PolynomialSpace"* %this1, i32 0, i32 0, !dbg !8931
  %0 = load %"class.std::vector.68"*, %"class.std::vector.68"** %pols.addr, align 8, !dbg !8932
  %call = call %"class.dealii::Polynomials::Polynomial"* @_ZNKSt6vectorIN6dealii11Polynomials10PolynomialIdEESaIS3_EE5beginEv(%"class.std::vector.68"* %0) #4, !dbg !8933
  %coerce.dive = getelementptr inbounds %"class.__gnu_cxx::__normal_iterator.99", %"class.__gnu_cxx::__normal_iterator.99"* %agg.tmp, i32 0, i32 0, !dbg !8933
  store %"class.dealii::Polynomials::Polynomial"* %call, %"class.dealii::Polynomials::Polynomial"** %coerce.dive, align 8, !dbg !8933
  %1 = load %"class.std::vector.68"*, %"class.std::vector.68"** %pols.addr, align 8, !dbg !8934
  %call3 = call %"class.dealii::Polynomials::Polynomial"* @_ZNKSt6vectorIN6dealii11Polynomials10PolynomialIdEESaIS3_EE3endEv(%"class.std::vector.68"* %1) #4, !dbg !8935
  %coerce.dive4 = getelementptr inbounds %"class.__gnu_cxx::__normal_iterator.99", %"class.__gnu_cxx::__normal_iterator.99"* %agg.tmp2, i32 0, i32 0, !dbg !8935
  store %"class.dealii::Polynomials::Polynomial"* %call3, %"class.dealii::Polynomials::Polynomial"** %coerce.dive4, align 8, !dbg !8935
  call void @_ZNSaIN6dealii11Polynomials10PolynomialIdEEEC2Ev(%"class.std::allocator.70"* %ref.tmp) #4, !dbg !8931
  %coerce.dive5 = getelementptr inbounds %"class.__gnu_cxx::__normal_iterator.99", %"class.__gnu_cxx::__normal_iterator.99"* %agg.tmp, i32 0, i32 0, !dbg !8931
  %2 = load %"class.dealii::Polynomials::Polynomial"*, %"class.dealii::Polynomials::Polynomial"** %coerce.dive5, align 8, !dbg !8931
  %coerce.dive6 = getelementptr inbounds %"class.__gnu_cxx::__normal_iterator.99", %"class.__gnu_cxx::__normal_iterator.99"* %agg.tmp2, i32 0, i32 0, !dbg !8931
  %3 = load %"class.dealii::Polynomials::Polynomial"*, %"class.dealii::Polynomials::Polynomial"** %coerce.dive6, align 8, !dbg !8931
  invoke void @_ZNSt6vectorIN6dealii11Polynomials10PolynomialIdEESaIS3_EEC2IN9__gnu_cxx17__normal_iteratorIPKS3_S5_EEvEET_SC_RKS4_(%"class.std::vector.68"* %polynomials, %"class.dealii::Polynomials::Polynomial"* %2, %"class.dealii::Polynomials::Polynomial"* %3, %"class.std::allocator.70"* dereferenceable(1) %ref.tmp)
          to label %invoke.cont unwind label %lpad, !dbg !8931

invoke.cont:                                      ; preds = %entry
  call void @_ZNSaIN6dealii11Polynomials10PolynomialIdEEED2Ev(%"class.std::allocator.70"* %ref.tmp) #4, !dbg !8931
  %n_pols = getelementptr inbounds %"class.dealii::PolynomialSpace", %"class.dealii::PolynomialSpace"* %this1, i32 0, i32 1, !dbg !8936
  %polynomials7 = getelementptr inbounds %"class.dealii::PolynomialSpace", %"class.dealii::PolynomialSpace"* %this1, i32 0, i32 0, !dbg !8937
  %call8 = call i64 @_ZNKSt6vectorIN6dealii11Polynomials10PolynomialIdEESaIS3_EE4sizeEv(%"class.std::vector.68"* %polynomials7) #4, !dbg !8938
  %conv = trunc i64 %call8 to i32, !dbg !8937
  %call11 = invoke i32 @_ZN6dealii15PolynomialSpaceILi3EE14compute_n_polsEj(i32 %conv)
          to label %invoke.cont10 unwind label %lpad9, !dbg !8939

invoke.cont10:                                    ; preds = %invoke.cont
  store i32 %call11, i32* %n_pols, align 8, !dbg !8936
  %index_map = getelementptr inbounds %"class.dealii::PolynomialSpace", %"class.dealii::PolynomialSpace"* %this1, i32 0, i32 2, !dbg !8940
  %n_pols12 = getelementptr inbounds %"class.dealii::PolynomialSpace", %"class.dealii::PolynomialSpace"* %this1, i32 0, i32 1, !dbg !8941
  %4 = load i32, i32* %n_pols12, align 8, !dbg !8941
  %conv13 = zext i32 %4 to i64, !dbg !8941
  call void @_ZNSaIjEC2Ev(%"class.std::allocator.56"* %ref.tmp14) #4, !dbg !8940
  invoke void @_ZNSt6vectorIjSaIjEEC2EmRKS0_(%"class.std::vector.54"* %index_map, i64 %conv13, %"class.std::allocator.56"* dereferenceable(1) %ref.tmp14)
          to label %invoke.cont16 unwind label %lpad15, !dbg !8940

invoke.cont16:                                    ; preds = %invoke.cont10
  call void @_ZNSaIjED2Ev(%"class.std::allocator.56"* %ref.tmp14) #4, !dbg !8940
  %index_map_inverse = getelementptr inbounds %"class.dealii::PolynomialSpace", %"class.dealii::PolynomialSpace"* %this1, i32 0, i32 3, !dbg !8942
  %n_pols17 = getelementptr inbounds %"class.dealii::PolynomialSpace", %"class.dealii::PolynomialSpace"* %this1, i32 0, i32 1, !dbg !8943
  %5 = load i32, i32* %n_pols17, align 8, !dbg !8943
  %conv18 = zext i32 %5 to i64, !dbg !8943
  call void @_ZNSaIjEC2Ev(%"class.std::allocator.56"* %ref.tmp19) #4, !dbg !8942
  invoke void @_ZNSt6vectorIjSaIjEEC2EmRKS0_(%"class.std::vector.54"* %index_map_inverse, i64 %conv18, %"class.std::allocator.56"* dereferenceable(1) %ref.tmp19)
          to label %invoke.cont21 unwind label %lpad20, !dbg !8942

invoke.cont21:                                    ; preds = %invoke.cont16
  call void @_ZNSaIjED2Ev(%"class.std::allocator.56"* %ref.tmp19) #4, !dbg !8942
  call void @llvm.dbg.declare(metadata i32* %i, metadata !8944, metadata !DIExpression()), !dbg !8947
  store i32 0, i32* %i, align 4, !dbg !8947
  br label %for.cond, !dbg !8948

for.cond:                                         ; preds = %for.inc, %invoke.cont21
  %6 = load i32, i32* %i, align 4, !dbg !8949
  %n_pols22 = getelementptr inbounds %"class.dealii::PolynomialSpace", %"class.dealii::PolynomialSpace"* %this1, i32 0, i32 1, !dbg !8951
  %7 = load i32, i32* %n_pols22, align 8, !dbg !8951
  %cmp = icmp ult i32 %6, %7, !dbg !8952
  br i1 %cmp, label %for.body, label %for.end, !dbg !8953

for.body:                                         ; preds = %for.cond
  %8 = load i32, i32* %i, align 4, !dbg !8954
  %index_map23 = getelementptr inbounds %"class.dealii::PolynomialSpace", %"class.dealii::PolynomialSpace"* %this1, i32 0, i32 2, !dbg !8956
  %9 = load i32, i32* %i, align 4, !dbg !8957
  %conv24 = zext i32 %9 to i64, !dbg !8957
  %call25 = call dereferenceable(4) i32* @_ZNSt6vectorIjSaIjEEixEm(%"class.std::vector.54"* %index_map23, i64 %conv24) #4, !dbg !8956
  store i32 %8, i32* %call25, align 4, !dbg !8958
  %10 = load i32, i32* %i, align 4, !dbg !8959
  %index_map_inverse26 = getelementptr inbounds %"class.dealii::PolynomialSpace", %"class.dealii::PolynomialSpace"* %this1, i32 0, i32 3, !dbg !8960
  %11 = load i32, i32* %i, align 4, !dbg !8961
  %conv27 = zext i32 %11 to i64, !dbg !8961
  %call28 = call dereferenceable(4) i32* @_ZNSt6vectorIjSaIjEEixEm(%"class.std::vector.54"* %index_map_inverse26, i64 %conv27) #4, !dbg !8960
  store i32 %10, i32* %call28, align 4, !dbg !8962
  br label %for.inc, !dbg !8963

for.inc:                                          ; preds = %for.body
  %12 = load i32, i32* %i, align 4, !dbg !8964
  %inc = add i32 %12, 1, !dbg !8964
  store i32 %inc, i32* %i, align 4, !dbg !8964
  br label %for.cond, !dbg !8965, !llvm.loop !8966

lpad:                                             ; preds = %entry
  %13 = landingpad { i8*, i32 }
          cleanup, !dbg !8968
  %14 = extractvalue { i8*, i32 } %13, 0, !dbg !8968
  store i8* %14, i8** %exn.slot, align 8, !dbg !8968
  %15 = extractvalue { i8*, i32 } %13, 1, !dbg !8968
  store i32 %15, i32* %ehselector.slot, align 4, !dbg !8968
  call void @_ZNSaIN6dealii11Polynomials10PolynomialIdEEED2Ev(%"class.std::allocator.70"* %ref.tmp) #4, !dbg !8931
  br label %eh.resume, !dbg !8931

lpad9:                                            ; preds = %invoke.cont
  %16 = landingpad { i8*, i32 }
          cleanup, !dbg !8968
  %17 = extractvalue { i8*, i32 } %16, 0, !dbg !8968
  store i8* %17, i8** %exn.slot, align 8, !dbg !8968
  %18 = extractvalue { i8*, i32 } %16, 1, !dbg !8968
  store i32 %18, i32* %ehselector.slot, align 4, !dbg !8968
  br label %ehcleanup, !dbg !8968

lpad15:                                           ; preds = %invoke.cont10
  %19 = landingpad { i8*, i32 }
          cleanup, !dbg !8968
  %20 = extractvalue { i8*, i32 } %19, 0, !dbg !8968
  store i8* %20, i8** %exn.slot, align 8, !dbg !8968
  %21 = extractvalue { i8*, i32 } %19, 1, !dbg !8968
  store i32 %21, i32* %ehselector.slot, align 4, !dbg !8968
  call void @_ZNSaIjED2Ev(%"class.std::allocator.56"* %ref.tmp14) #4, !dbg !8940
  br label %ehcleanup, !dbg !8940

lpad20:                                           ; preds = %invoke.cont16
  %22 = landingpad { i8*, i32 }
          cleanup, !dbg !8968
  %23 = extractvalue { i8*, i32 } %22, 0, !dbg !8968
  store i8* %23, i8** %exn.slot, align 8, !dbg !8968
  %24 = extractvalue { i8*, i32 } %22, 1, !dbg !8968
  store i32 %24, i32* %ehselector.slot, align 4, !dbg !8968
  call void @_ZNSaIjED2Ev(%"class.std::allocator.56"* %ref.tmp19) #4, !dbg !8942
  call void @_ZNSt6vectorIjSaIjEED2Ev(%"class.std::vector.54"* %index_map) #4, !dbg !8969
  br label %ehcleanup, !dbg !8969

for.end:                                          ; preds = %for.cond
  ret void, !dbg !8968

ehcleanup:                                        ; preds = %lpad20, %lpad15, %lpad9
  call void @_ZNSt6vectorIN6dealii11Polynomials10PolynomialIdEESaIS3_EED2Ev(%"class.std::vector.68"* %polynomials) #4, !dbg !8969
  br label %eh.resume, !dbg !8969

eh.resume:                                        ; preds = %ehcleanup, %lpad
  %exn = load i8*, i8** %exn.slot, align 8, !dbg !8931
  %sel = load i32, i32* %ehselector.slot, align 4, !dbg !8931
  %lpad.val = insertvalue { i8*, i32 } undef, i8* %exn, 0, !dbg !8931
  %lpad.val29 = insertvalue { i8*, i32 } %lpad.val, i32 %sel, 1, !dbg !8931
  resume { i8*, i32 } %lpad.val29, !dbg !8931
}

declare dso_local i32 @__gxx_personality_v0(...)

; Function Attrs: noinline uwtable
define weak_odr dso_local void @_ZN6dealii6FE_DGPILi3ELi3EE14get_dpo_vectorEj(%"class.std::vector.54"* noalias sret %agg.result, i32 %deg) #0 comdat align 2 personality i8* bitcast (i32 (...)* @__gxx_personality_v0 to i8*) !dbg !8970 {
entry:
  %result.ptr = alloca i8*, align 8
  %deg.addr = alloca i32, align 4
  %nrvo = alloca i1, align 1
  %ref.tmp = alloca i32, align 4
  %ref.tmp1 = alloca %"class.std::allocator.56", align 1
  %exn.slot = alloca i8*
  %ehselector.slot = alloca i32
  %i = alloca i32, align 4
  %0 = bitcast %"class.std::vector.54"* %agg.result to i8*
  store i8* %0, i8** %result.ptr, align 8
  store i32 %deg, i32* %deg.addr, align 4
  call void @llvm.dbg.declare(metadata i32* %deg.addr, metadata !8971, metadata !DIExpression()), !dbg !8972
  store i1 false, i1* %nrvo, align 1, !dbg !8973
  call void @llvm.dbg.declare(metadata i8** %result.ptr, metadata !8974, metadata !DIExpression(DW_OP_deref)), !dbg !8975
  store i32 0, i32* %ref.tmp, align 4, !dbg !8976
  call void @_ZNSaIjEC2Ev(%"class.std::allocator.56"* %ref.tmp1) #4, !dbg !8975
  invoke void @_ZNSt6vectorIjSaIjEEC2EmRKjRKS0_(%"class.std::vector.54"* %agg.result, i64 4, i32* dereferenceable(4) %ref.tmp, %"class.std::allocator.56"* dereferenceable(1) %ref.tmp1)
          to label %invoke.cont unwind label %lpad, !dbg !8975

invoke.cont:                                      ; preds = %entry
  call void @_ZNSaIjED2Ev(%"class.std::allocator.56"* %ref.tmp1) #4, !dbg !8975
  %1 = load i32, i32* %deg.addr, align 4, !dbg !8977
  %add = add i32 %1, 1, !dbg !8978
  %call = call dereferenceable(4) i32* @_ZNSt6vectorIjSaIjEEixEm(%"class.std::vector.54"* %agg.result, i64 3) #4, !dbg !8979
  store i32 %add, i32* %call, align 4, !dbg !8980
  call void @llvm.dbg.declare(metadata i32* %i, metadata !8981, metadata !DIExpression()), !dbg !8983
  store i32 1, i32* %i, align 4, !dbg !8983
  br label %for.cond, !dbg !8984

for.cond:                                         ; preds = %for.inc, %invoke.cont
  %2 = load i32, i32* %i, align 4, !dbg !8985
  %cmp = icmp ult i32 %2, 3, !dbg !8987
  br i1 %cmp, label %for.body, label %for.end, !dbg !8988

for.body:                                         ; preds = %for.cond
  %3 = load i32, i32* %deg.addr, align 4, !dbg !8989
  %add2 = add i32 %3, 1, !dbg !8991
  %4 = load i32, i32* %i, align 4, !dbg !8992
  %add3 = add i32 %add2, %4, !dbg !8993
  %call4 = call dereferenceable(4) i32* @_ZNSt6vectorIjSaIjEEixEm(%"class.std::vector.54"* %agg.result, i64 3) #4, !dbg !8994
  %5 = load i32, i32* %call4, align 4, !dbg !8995
  %mul = mul i32 %5, %add3, !dbg !8995
  store i32 %mul, i32* %call4, align 4, !dbg !8995
  %6 = load i32, i32* %i, align 4, !dbg !8996
  %add5 = add i32 %6, 1, !dbg !8997
  %call6 = call dereferenceable(4) i32* @_ZNSt6vectorIjSaIjEEixEm(%"class.std::vector.54"* %agg.result, i64 3) #4, !dbg !8998
  %7 = load i32, i32* %call6, align 4, !dbg !8999
  %div = udiv i32 %7, %add5, !dbg !8999
  store i32 %div, i32* %call6, align 4, !dbg !8999
  br label %for.inc, !dbg !9000

for.inc:                                          ; preds = %for.body
  %8 = load i32, i32* %i, align 4, !dbg !9001
  %inc = add i32 %8, 1, !dbg !9001
  store i32 %inc, i32* %i, align 4, !dbg !9001
  br label %for.cond, !dbg !9002, !llvm.loop !9003

lpad:                                             ; preds = %entry
  %9 = landingpad { i8*, i32 }
          cleanup, !dbg !9005
  %10 = extractvalue { i8*, i32 } %9, 0, !dbg !9005
  store i8* %10, i8** %exn.slot, align 8, !dbg !9005
  %11 = extractvalue { i8*, i32 } %9, 1, !dbg !9005
  store i32 %11, i32* %ehselector.slot, align 4, !dbg !9005
  call void @_ZNSaIjED2Ev(%"class.std::allocator.56"* %ref.tmp1) #4, !dbg !8975
  br label %eh.resume, !dbg !8975

for.end:                                          ; preds = %for.cond
  store i1 true, i1* %nrvo, align 1, !dbg !9006
  %nrvo.val = load i1, i1* %nrvo, align 1, !dbg !9005
  br i1 %nrvo.val, label %nrvo.skipdtor, label %nrvo.unused, !dbg !9005

nrvo.unused:                                      ; preds = %for.end
  call void @_ZNSt6vectorIjSaIjEED2Ev(%"class.std::vector.54"* %agg.result) #4, !dbg !9005
  br label %nrvo.skipdtor, !dbg !9005

nrvo.skipdtor:                                    ; preds = %nrvo.unused, %for.end
  ret void, !dbg !9005

eh.resume:                                        ; preds = %lpad
  %exn = load i8*, i8** %exn.slot, align 8, !dbg !8975
  %sel = load i32, i32* %ehselector.slot, align 4, !dbg !8975
  %lpad.val = insertvalue { i8*, i32 } undef, i8* %exn, 0, !dbg !8975
  %lpad.val7 = insertvalue { i8*, i32 } %lpad.val, i32 %sel, 1, !dbg !8975
  resume { i8*, i32 } %lpad.val7, !dbg !8975
}

declare dso_local void @_ZN6dealii17FiniteElementDataILi3EEC1ERKSt6vectorIjSaIjEEjjNS1_10ConformityEj(%"class.dealii::FiniteElementData"*, %"class.std::vector.54"* dereferenceable(24), i32, i32, i32, i32) unnamed_addr #2

; Function Attrs: noinline nounwind uwtable
define linkonce_odr dso_local void @_ZNSaIbEC2Ev(%"class.std::allocator.78"* %this) unnamed_addr #1 comdat align 2 !dbg !9007 {
entry:
  %this.addr = alloca %"class.std::allocator.78"*, align 8
  store %"class.std::allocator.78"* %this, %"class.std::allocator.78"** %this.addr, align 8
  call void @llvm.dbg.declare(metadata %"class.std::allocator.78"** %this.addr, metadata !9008, metadata !DIExpression()), !dbg !9010
  %this1 = load %"class.std::allocator.78"*, %"class.std::allocator.78"** %this.addr, align 8
  %0 = bitcast %"class.std::allocator.78"* %this1 to %"class.__gnu_cxx::new_allocator.79"*, !dbg !9011
  call void @_ZN9__gnu_cxx13new_allocatorIbEC2Ev(%"class.__gnu_cxx::new_allocator.79"* %0) #4, !dbg !9012
  ret void, !dbg !9013
}

; Function Attrs: noinline uwtable
define linkonce_odr dso_local void @_ZNSt6vectorIbSaIbEEC2EmRKbRKS0_(%"class.std::vector.59"* %this, i64 %__n, i8* dereferenceable(1) %__value, %"class.std::allocator.78"* dereferenceable(1) %__a) unnamed_addr #0 comdat align 2 personality i8* bitcast (i32 (...)* @__gxx_personality_v0 to i8*) !dbg !9014 {
entry:
  %this.addr = alloca %"class.std::vector.59"*, align 8
  %__n.addr = alloca i64, align 8
  %__value.addr = alloca i8*, align 8
  %__a.addr = alloca %"class.std::allocator.78"*, align 8
  %exn.slot = alloca i8*
  %ehselector.slot = alloca i32
  store %"class.std::vector.59"* %this, %"class.std::vector.59"** %this.addr, align 8
  call void @llvm.dbg.declare(metadata %"class.std::vector.59"** %this.addr, metadata !9015, metadata !DIExpression()), !dbg !9016
  store i64 %__n, i64* %__n.addr, align 8
  call void @llvm.dbg.declare(metadata i64* %__n.addr, metadata !9017, metadata !DIExpression()), !dbg !9018
  store i8* %__value, i8** %__value.addr, align 8
  call void @llvm.dbg.declare(metadata i8** %__value.addr, metadata !9019, metadata !DIExpression()), !dbg !9020
  store %"class.std::allocator.78"* %__a, %"class.std::allocator.78"** %__a.addr, align 8
  call void @llvm.dbg.declare(metadata %"class.std::allocator.78"** %__a.addr, metadata !9021, metadata !DIExpression()), !dbg !9022
  %this1 = load %"class.std::vector.59"*, %"class.std::vector.59"** %this.addr, align 8
  %0 = bitcast %"class.std::vector.59"* %this1 to %"struct.std::_Bvector_base"*, !dbg !9023
  %1 = load %"class.std::allocator.78"*, %"class.std::allocator.78"** %__a.addr, align 8, !dbg !9024
  call void @_ZNSt13_Bvector_baseISaIbEEC2ERKS0_(%"struct.std::_Bvector_base"* %0, %"class.std::allocator.78"* dereferenceable(1) %1), !dbg !9025
  %2 = load i64, i64* %__n.addr, align 8, !dbg !9026
  invoke void @_ZNSt6vectorIbSaIbEE13_M_initializeEm(%"class.std::vector.59"* %this1, i64 %2)
          to label %invoke.cont unwind label %lpad, !dbg !9028

invoke.cont:                                      ; preds = %entry
  %3 = load i8*, i8** %__value.addr, align 8, !dbg !9029
  %4 = load i8, i8* %3, align 1, !dbg !9029
  %tobool = trunc i8 %4 to i1, !dbg !9029
  invoke void @_ZNSt6vectorIbSaIbEE19_M_initialize_valueEb(%"class.std::vector.59"* %this1, i1 zeroext %tobool)
          to label %invoke.cont2 unwind label %lpad, !dbg !9030

invoke.cont2:                                     ; preds = %invoke.cont
  ret void, !dbg !9031

lpad:                                             ; preds = %invoke.cont, %entry
  %5 = landingpad { i8*, i32 }
          cleanup, !dbg !9032
  %6 = extractvalue { i8*, i32 } %5, 0, !dbg !9032
  store i8* %6, i8** %exn.slot, align 8, !dbg !9032
  %7 = extractvalue { i8*, i32 } %5, 1, !dbg !9032
  store i32 %7, i32* %ehselector.slot, align 4, !dbg !9032
  %8 = bitcast %"class.std::vector.59"* %this1 to %"struct.std::_Bvector_base"*, !dbg !9032
  call void @_ZNSt13_Bvector_baseISaIbEED2Ev(%"struct.std::_Bvector_base"* %8) #4, !dbg !9032
  br label %eh.resume, !dbg !9032

eh.resume:                                        ; preds = %lpad
  %exn = load i8*, i8** %exn.slot, align 8, !dbg !9032
  %sel = load i32, i32* %ehselector.slot, align 4, !dbg !9032
  %lpad.val = insertvalue { i8*, i32 } undef, i8* %exn, 0, !dbg !9032
  %lpad.val3 = insertvalue { i8*, i32 } %lpad.val, i32 %sel, 1, !dbg !9032
  resume { i8*, i32 } %lpad.val3, !dbg !9032
}

; Function Attrs: noinline nounwind uwtable
define linkonce_odr dso_local void @_ZNSaISt6vectorIbSaIbEEEC2Ev(%"class.std::allocator.65"* %this) unnamed_addr #1 comdat align 2 !dbg !9033 {
entry:
  %this.addr = alloca %"class.std::allocator.65"*, align 8
  store %"class.std::allocator.65"* %this, %"class.std::allocator.65"** %this.addr, align 8
  call void @llvm.dbg.declare(metadata %"class.std::allocator.65"** %this.addr, metadata !9034, metadata !DIExpression()), !dbg !9036
  %this1 = load %"class.std::allocator.65"*, %"class.std::allocator.65"** %this.addr, align 8
  %0 = bitcast %"class.std::allocator.65"* %this1 to %"class.__gnu_cxx::new_allocator.66"*, !dbg !9037
  call void @_ZN9__gnu_cxx13new_allocatorISt6vectorIbSaIbEEEC2Ev(%"class.__gnu_cxx::new_allocator.66"* %0) #4, !dbg !9038
  ret void, !dbg !9039
}

; Function Attrs: noinline uwtable
define linkonce_odr dso_local void @_ZNSt6vectorIS_IbSaIbEESaIS1_EEC2EmRKS1_RKS2_(%"class.std::vector.63"* %this, i64 %__n, %"class.std::vector.59"* dereferenceable(40) %__value, %"class.std::allocator.65"* dereferenceable(1) %__a) unnamed_addr #0 comdat align 2 personality i8* bitcast (i32 (...)* @__gxx_personality_v0 to i8*) !dbg !9040 {
entry:
  %this.addr = alloca %"class.std::vector.63"*, align 8
  %__n.addr = alloca i64, align 8
  %__value.addr = alloca %"class.std::vector.59"*, align 8
  %__a.addr = alloca %"class.std::allocator.65"*, align 8
  %exn.slot = alloca i8*
  %ehselector.slot = alloca i32
  store %"class.std::vector.63"* %this, %"class.std::vector.63"** %this.addr, align 8
  call void @llvm.dbg.declare(metadata %"class.std::vector.63"** %this.addr, metadata !9041, metadata !DIExpression()), !dbg !9043
  store i64 %__n, i64* %__n.addr, align 8
  call void @llvm.dbg.declare(metadata i64* %__n.addr, metadata !9044, metadata !DIExpression()), !dbg !9045
  store %"class.std::vector.59"* %__value, %"class.std::vector.59"** %__value.addr, align 8
  call void @llvm.dbg.declare(metadata %"class.std::vector.59"** %__value.addr, metadata !9046, metadata !DIExpression()), !dbg !9047
  store %"class.std::allocator.65"* %__a, %"class.std::allocator.65"** %__a.addr, align 8
  call void @llvm.dbg.declare(metadata %"class.std::allocator.65"** %__a.addr, metadata !9048, metadata !DIExpression()), !dbg !9049
  %this1 = load %"class.std::vector.63"*, %"class.std::vector.63"** %this.addr, align 8
  %0 = bitcast %"class.std::vector.63"* %this1 to %"struct.std::_Vector_base.64"*, !dbg !9050
  %1 = load i64, i64* %__n.addr, align 8, !dbg !9051
  %2 = load %"class.std::allocator.65"*, %"class.std::allocator.65"** %__a.addr, align 8, !dbg !9052
  %call = call i64 @_ZNSt6vectorIS_IbSaIbEESaIS1_EE17_S_check_init_lenEmRKS2_(i64 %1, %"class.std::allocator.65"* dereferenceable(1) %2), !dbg !9053
  %3 = load %"class.std::allocator.65"*, %"class.std::allocator.65"** %__a.addr, align 8, !dbg !9054
  call void @_ZNSt12_Vector_baseISt6vectorIbSaIbEESaIS2_EEC2EmRKS3_(%"struct.std::_Vector_base.64"* %0, i64 %call, %"class.std::allocator.65"* dereferenceable(1) %3), !dbg !9055
  %4 = load i64, i64* %__n.addr, align 8, !dbg !9056
  %5 = load %"class.std::vector.59"*, %"class.std::vector.59"** %__value.addr, align 8, !dbg !9058
  invoke void @_ZNSt6vectorIS_IbSaIbEESaIS1_EE18_M_fill_initializeEmRKS1_(%"class.std::vector.63"* %this1, i64 %4, %"class.std::vector.59"* dereferenceable(40) %5)
          to label %invoke.cont unwind label %lpad, !dbg !9059

invoke.cont:                                      ; preds = %entry
  ret void, !dbg !9060

lpad:                                             ; preds = %entry
  %6 = landingpad { i8*, i32 }
          cleanup, !dbg !9061
  %7 = extractvalue { i8*, i32 } %6, 0, !dbg !9061
  store i8* %7, i8** %exn.slot, align 8, !dbg !9061
  %8 = extractvalue { i8*, i32 } %6, 1, !dbg !9061
  store i32 %8, i32* %ehselector.slot, align 4, !dbg !9061
  %9 = bitcast %"class.std::vector.63"* %this1 to %"struct.std::_Vector_base.64"*, !dbg !9061
  call void @_ZNSt12_Vector_baseISt6vectorIbSaIbEESaIS2_EED2Ev(%"struct.std::_Vector_base.64"* %9) #4, !dbg !9061
  br label %eh.resume, !dbg !9061

eh.resume:                                        ; preds = %lpad
  %exn = load i8*, i8** %exn.slot, align 8, !dbg !9061
  %sel = load i32, i32* %ehselector.slot, align 4, !dbg !9061
  %lpad.val = insertvalue { i8*, i32 } undef, i8* %exn, 0, !dbg !9061
  %lpad.val2 = insertvalue { i8*, i32 } %lpad.val, i32 %sel, 1, !dbg !9061
  resume { i8*, i32 } %lpad.val2, !dbg !9061
}

declare dso_local void @_ZN6dealii7FE_PolyINS_15PolynomialSpaceILi3EEELi3ELi3EEC2ERKS2_RKNS_17FiniteElementDataILi3EEERKSt6vectorIbSaIbEERKSA_ISC_SaISC_EE(%"class.dealii::FE_Poly"*, %"class.dealii::PolynomialSpace"* dereferenceable(80), %"class.dealii::FiniteElementData"* dereferenceable(60), %"class.std::vector.59"* dereferenceable(40), %"class.std::vector.63"* dereferenceable(24)) unnamed_addr #2

; Function Attrs: noinline nounwind uwtable
define linkonce_odr dso_local void @_ZNSt6vectorIS_IbSaIbEESaIS1_EED2Ev(%"class.std::vector.63"* %this) unnamed_addr #1 comdat align 2 personality i8* bitcast (i32 (...)* @__gxx_personality_v0 to i8*) !dbg !9062 {
entry:
  %this.addr = alloca %"class.std::vector.63"*, align 8
  %exn.slot = alloca i8*
  %ehselector.slot = alloca i32
  store %"class.std::vector.63"* %this, %"class.std::vector.63"** %this.addr, align 8
  call void @llvm.dbg.declare(metadata %"class.std::vector.63"** %this.addr, metadata !9063, metadata !DIExpression()), !dbg !9064
  %this1 = load %"class.std::vector.63"*, %"class.std::vector.63"** %this.addr, align 8
  %0 = bitcast %"class.std::vector.63"* %this1 to %"struct.std::_Vector_base.64"*, !dbg !9065
  %_M_impl = getelementptr inbounds %"struct.std::_Vector_base.64", %"struct.std::_Vector_base.64"* %0, i32 0, i32 0, !dbg !9065
  %1 = bitcast %"struct.std::_Vector_base<std::vector<bool, std::allocator<bool> >, std::allocator<std::vector<bool, std::allocator<bool> > > >::_Vector_impl"* %_M_impl to %"struct.std::_Vector_base<std::vector<bool, std::allocator<bool> >, std::allocator<std::vector<bool, std::allocator<bool> > > >::_Vector_impl_data"*, !dbg !9067
  %_M_start = getelementptr inbounds %"struct.std::_Vector_base<std::vector<bool, std::allocator<bool> >, std::allocator<std::vector<bool, std::allocator<bool> > > >::_Vector_impl_data", %"struct.std::_Vector_base<std::vector<bool, std::allocator<bool> >, std::allocator<std::vector<bool, std::allocator<bool> > > >::_Vector_impl_data"* %1, i32 0, i32 0, !dbg !9068
  %2 = load %"class.std::vector.59"*, %"class.std::vector.59"** %_M_start, align 8, !dbg !9068
  %3 = bitcast %"class.std::vector.63"* %this1 to %"struct.std::_Vector_base.64"*, !dbg !9069
  %_M_impl2 = getelementptr inbounds %"struct.std::_Vector_base.64", %"struct.std::_Vector_base.64"* %3, i32 0, i32 0, !dbg !9069
  %4 = bitcast %"struct.std::_Vector_base<std::vector<bool, std::allocator<bool> >, std::allocator<std::vector<bool, std::allocator<bool> > > >::_Vector_impl"* %_M_impl2 to %"struct.std::_Vector_base<std::vector<bool, std::allocator<bool> >, std::allocator<std::vector<bool, std::allocator<bool> > > >::_Vector_impl_data"*, !dbg !9070
  %_M_finish = getelementptr inbounds %"struct.std::_Vector_base<std::vector<bool, std::allocator<bool> >, std::allocator<std::vector<bool, std::allocator<bool> > > >::_Vector_impl_data", %"struct.std::_Vector_base<std::vector<bool, std::allocator<bool> >, std::allocator<std::vector<bool, std::allocator<bool> > > >::_Vector_impl_data"* %4, i32 0, i32 1, !dbg !9071
  %5 = load %"class.std::vector.59"*, %"class.std::vector.59"** %_M_finish, align 8, !dbg !9071
  %6 = bitcast %"class.std::vector.63"* %this1 to %"struct.std::_Vector_base.64"*, !dbg !9072
  %call = call dereferenceable(1) %"class.std::allocator.65"* @_ZNSt12_Vector_baseISt6vectorIbSaIbEESaIS2_EE19_M_get_Tp_allocatorEv(%"struct.std::_Vector_base.64"* %6) #4, !dbg !9072
  invoke void @_ZSt8_DestroyIPSt6vectorIbSaIbEES2_EvT_S4_RSaIT0_E(%"class.std::vector.59"* %2, %"class.std::vector.59"* %5, %"class.std::allocator.65"* dereferenceable(1) %call)
          to label %invoke.cont unwind label %lpad, !dbg !9073

invoke.cont:                                      ; preds = %entry
  %7 = bitcast %"class.std::vector.63"* %this1 to %"struct.std::_Vector_base.64"*, !dbg !9074
  call void @_ZNSt12_Vector_baseISt6vectorIbSaIbEESaIS2_EED2Ev(%"struct.std::_Vector_base.64"* %7) #4, !dbg !9074
  ret void, !dbg !9075

lpad:                                             ; preds = %entry
  %8 = landingpad { i8*, i32 }
          catch i8* null, !dbg !9074
  %9 = extractvalue { i8*, i32 } %8, 0, !dbg !9074
  store i8* %9, i8** %exn.slot, align 8, !dbg !9074
  %10 = extractvalue { i8*, i32 } %8, 1, !dbg !9074
  store i32 %10, i32* %ehselector.slot, align 4, !dbg !9074
  %11 = bitcast %"class.std::vector.63"* %this1 to %"struct.std::_Vector_base.64"*, !dbg !9074
  call void @_ZNSt12_Vector_baseISt6vectorIbSaIbEESaIS2_EED2Ev(%"struct.std::_Vector_base.64"* %11) #4, !dbg !9074
  br label %terminate.handler, !dbg !9074

terminate.handler:                                ; preds = %lpad
  %exn = load i8*, i8** %exn.slot, align 8, !dbg !9074
  call void @__clang_call_terminate(i8* %exn) #13, !dbg !9074
  unreachable, !dbg !9074
}

; Function Attrs: noinline nounwind uwtable
define linkonce_odr dso_local void @_ZNSaISt6vectorIbSaIbEEED2Ev(%"class.std::allocator.65"* %this) unnamed_addr #1 comdat align 2 !dbg !9076 {
entry:
  %this.addr = alloca %"class.std::allocator.65"*, align 8
  store %"class.std::allocator.65"* %this, %"class.std::allocator.65"** %this.addr, align 8
  call void @llvm.dbg.declare(metadata %"class.std::allocator.65"** %this.addr, metadata !9077, metadata !DIExpression()), !dbg !9078
  %this1 = load %"class.std::allocator.65"*, %"class.std::allocator.65"** %this.addr, align 8
  %0 = bitcast %"class.std::allocator.65"* %this1 to %"class.__gnu_cxx::new_allocator.66"*, !dbg !9079
  call void @_ZN9__gnu_cxx13new_allocatorISt6vectorIbSaIbEEED2Ev(%"class.__gnu_cxx::new_allocator.66"* %0) #4, !dbg !9079
  ret void, !dbg !9081
}

; Function Attrs: noinline nounwind uwtable
define linkonce_odr dso_local void @_ZNSt6vectorIbSaIbEED2Ev(%"class.std::vector.59"* %this) unnamed_addr #1 comdat align 2 !dbg !9082 {
entry:
  %this.addr = alloca %"class.std::vector.59"*, align 8
  store %"class.std::vector.59"* %this, %"class.std::vector.59"** %this.addr, align 8
  call void @llvm.dbg.declare(metadata %"class.std::vector.59"** %this.addr, metadata !9083, metadata !DIExpression()), !dbg !9084
  %this1 = load %"class.std::vector.59"*, %"class.std::vector.59"** %this.addr, align 8
  %0 = bitcast %"class.std::vector.59"* %this1 to %"struct.std::_Bvector_base"*, !dbg !9085
  call void @_ZNSt13_Bvector_baseISaIbEED2Ev(%"struct.std::_Bvector_base"* %0) #4, !dbg !9085
  ret void, !dbg !9087
}

; Function Attrs: noinline nounwind uwtable
define linkonce_odr dso_local void @_ZNSaIbED2Ev(%"class.std::allocator.78"* %this) unnamed_addr #1 comdat align 2 !dbg !9088 {
entry:
  %this.addr = alloca %"class.std::allocator.78"*, align 8
  store %"class.std::allocator.78"* %this, %"class.std::allocator.78"** %this.addr, align 8
  call void @llvm.dbg.declare(metadata %"class.std::allocator.78"** %this.addr, metadata !9089, metadata !DIExpression()), !dbg !9090
  %this1 = load %"class.std::allocator.78"*, %"class.std::allocator.78"** %this.addr, align 8
  %0 = bitcast %"class.std::allocator.78"* %this1 to %"class.__gnu_cxx::new_allocator.79"*, !dbg !9091
  call void @_ZN9__gnu_cxx13new_allocatorIbED2Ev(%"class.__gnu_cxx::new_allocator.79"* %0) #4, !dbg !9091
  ret void, !dbg !9093
}

; Function Attrs: noinline nounwind uwtable
define linkonce_odr dso_local void @_ZNSt6vectorIjSaIjEED2Ev(%"class.std::vector.54"* %this) unnamed_addr #1 comdat align 2 personality i8* bitcast (i32 (...)* @__gxx_personality_v0 to i8*) !dbg !9094 {
entry:
  %this.addr = alloca %"class.std::vector.54"*, align 8
  %exn.slot = alloca i8*
  %ehselector.slot = alloca i32
  store %"class.std::vector.54"* %this, %"class.std::vector.54"** %this.addr, align 8
  call void @llvm.dbg.declare(metadata %"class.std::vector.54"** %this.addr, metadata !9095, metadata !DIExpression()), !dbg !9097
  %this1 = load %"class.std::vector.54"*, %"class.std::vector.54"** %this.addr, align 8
  %0 = bitcast %"class.std::vector.54"* %this1 to %"struct.std::_Vector_base.55"*, !dbg !9098
  %_M_impl = getelementptr inbounds %"struct.std::_Vector_base.55", %"struct.std::_Vector_base.55"* %0, i32 0, i32 0, !dbg !9098
  %1 = bitcast %"struct.std::_Vector_base<unsigned int, std::allocator<unsigned int> >::_Vector_impl"* %_M_impl to %"struct.std::_Vector_base<unsigned int, std::allocator<unsigned int> >::_Vector_impl_data"*, !dbg !9100
  %_M_start = getelementptr inbounds %"struct.std::_Vector_base<unsigned int, std::allocator<unsigned int> >::_Vector_impl_data", %"struct.std::_Vector_base<unsigned int, std::allocator<unsigned int> >::_Vector_impl_data"* %1, i32 0, i32 0, !dbg !9101
  %2 = load i32*, i32** %_M_start, align 8, !dbg !9101
  %3 = bitcast %"class.std::vector.54"* %this1 to %"struct.std::_Vector_base.55"*, !dbg !9102
  %_M_impl2 = getelementptr inbounds %"struct.std::_Vector_base.55", %"struct.std::_Vector_base.55"* %3, i32 0, i32 0, !dbg !9102
  %4 = bitcast %"struct.std::_Vector_base<unsigned int, std::allocator<unsigned int> >::_Vector_impl"* %_M_impl2 to %"struct.std::_Vector_base<unsigned int, std::allocator<unsigned int> >::_Vector_impl_data"*, !dbg !9103
  %_M_finish = getelementptr inbounds %"struct.std::_Vector_base<unsigned int, std::allocator<unsigned int> >::_Vector_impl_data", %"struct.std::_Vector_base<unsigned int, std::allocator<unsigned int> >::_Vector_impl_data"* %4, i32 0, i32 1, !dbg !9104
  %5 = load i32*, i32** %_M_finish, align 8, !dbg !9104
  %6 = bitcast %"class.std::vector.54"* %this1 to %"struct.std::_Vector_base.55"*, !dbg !9105
  %call = call dereferenceable(1) %"class.std::allocator.56"* @_ZNSt12_Vector_baseIjSaIjEE19_M_get_Tp_allocatorEv(%"struct.std::_Vector_base.55"* %6) #4, !dbg !9105
  invoke void @_ZSt8_DestroyIPjjEvT_S1_RSaIT0_E(i32* %2, i32* %5, %"class.std::allocator.56"* dereferenceable(1) %call)
          to label %invoke.cont unwind label %lpad, !dbg !9106

invoke.cont:                                      ; preds = %entry
  %7 = bitcast %"class.std::vector.54"* %this1 to %"struct.std::_Vector_base.55"*, !dbg !9107
  call void @_ZNSt12_Vector_baseIjSaIjEED2Ev(%"struct.std::_Vector_base.55"* %7) #4, !dbg !9107
  ret void, !dbg !9108

lpad:                                             ; preds = %entry
  %8 = landingpad { i8*, i32 }
          catch i8* null, !dbg !9107
  %9 = extractvalue { i8*, i32 } %8, 0, !dbg !9107
  store i8* %9, i8** %exn.slot, align 8, !dbg !9107
  %10 = extractvalue { i8*, i32 } %8, 1, !dbg !9107
  store i32 %10, i32* %ehselector.slot, align 4, !dbg !9107
  %11 = bitcast %"class.std::vector.54"* %this1 to %"struct.std::_Vector_base.55"*, !dbg !9107
  call void @_ZNSt12_Vector_baseIjSaIjEED2Ev(%"struct.std::_Vector_base.55"* %11) #4, !dbg !9107
  br label %terminate.handler, !dbg !9107

terminate.handler:                                ; preds = %lpad
  %exn = load i8*, i8** %exn.slot, align 8, !dbg !9107
  call void @__clang_call_terminate(i8* %exn) #13, !dbg !9107
  unreachable, !dbg !9107
}

; Function Attrs: noinline nounwind uwtable
define linkonce_odr dso_local void @_ZN6dealii15PolynomialSpaceILi3EED2Ev(%"class.dealii::PolynomialSpace"* %this) unnamed_addr #1 comdat align 2 !dbg !9109 {
entry:
  %this.addr = alloca %"class.dealii::PolynomialSpace"*, align 8
  store %"class.dealii::PolynomialSpace"* %this, %"class.dealii::PolynomialSpace"** %this.addr, align 8
  call void @llvm.dbg.declare(metadata %"class.dealii::PolynomialSpace"** %this.addr, metadata !9113, metadata !DIExpression()), !dbg !9114
  %this1 = load %"class.dealii::PolynomialSpace"*, %"class.dealii::PolynomialSpace"** %this.addr, align 8
  %index_map_inverse = getelementptr inbounds %"class.dealii::PolynomialSpace", %"class.dealii::PolynomialSpace"* %this1, i32 0, i32 3, !dbg !9115
  call void @_ZNSt6vectorIjSaIjEED2Ev(%"class.std::vector.54"* %index_map_inverse) #4, !dbg !9115
  %index_map = getelementptr inbounds %"class.dealii::PolynomialSpace", %"class.dealii::PolynomialSpace"* %this1, i32 0, i32 2, !dbg !9115
  call void @_ZNSt6vectorIjSaIjEED2Ev(%"class.std::vector.54"* %index_map) #4, !dbg !9115
  %polynomials = getelementptr inbounds %"class.dealii::PolynomialSpace", %"class.dealii::PolynomialSpace"* %this1, i32 0, i32 0, !dbg !9115
  call void @_ZNSt6vectorIN6dealii11Polynomials10PolynomialIdEESaIS3_EED2Ev(%"class.std::vector.68"* %polynomials) #4, !dbg !9115
  ret void, !dbg !9117
}

; Function Attrs: noinline nounwind uwtable
define linkonce_odr dso_local void @_ZNSt6vectorIN6dealii11Polynomials10PolynomialIdEESaIS3_EED2Ev(%"class.std::vector.68"* %this) unnamed_addr #1 comdat align 2 personality i8* bitcast (i32 (...)* @__gxx_personality_v0 to i8*) !dbg !9118 {
entry:
  %this.addr = alloca %"class.std::vector.68"*, align 8
  %exn.slot = alloca i8*
  %ehselector.slot = alloca i32
  store %"class.std::vector.68"* %this, %"class.std::vector.68"** %this.addr, align 8
  call void @llvm.dbg.declare(metadata %"class.std::vector.68"** %this.addr, metadata !9119, metadata !DIExpression()), !dbg !9121
  %this1 = load %"class.std::vector.68"*, %"class.std::vector.68"** %this.addr, align 8
  %0 = bitcast %"class.std::vector.68"* %this1 to %"struct.std::_Vector_base.69"*, !dbg !9122
  %_M_impl = getelementptr inbounds %"struct.std::_Vector_base.69", %"struct.std::_Vector_base.69"* %0, i32 0, i32 0, !dbg !9122
  %1 = bitcast %"struct.std::_Vector_base<dealii::Polynomials::Polynomial<double>, std::allocator<dealii::Polynomials::Polynomial<double> > >::_Vector_impl"* %_M_impl to %"struct.std::_Vector_base<dealii::Polynomials::Polynomial<double>, std::allocator<dealii::Polynomials::Polynomial<double> > >::_Vector_impl_data"*, !dbg !9124
  %_M_start = getelementptr inbounds %"struct.std::_Vector_base<dealii::Polynomials::Polynomial<double>, std::allocator<dealii::Polynomials::Polynomial<double> > >::_Vector_impl_data", %"struct.std::_Vector_base<dealii::Polynomials::Polynomial<double>, std::allocator<dealii::Polynomials::Polynomial<double> > >::_Vector_impl_data"* %1, i32 0, i32 0, !dbg !9125
  %2 = load %"class.dealii::Polynomials::Polynomial"*, %"class.dealii::Polynomials::Polynomial"** %_M_start, align 8, !dbg !9125
  %3 = bitcast %"class.std::vector.68"* %this1 to %"struct.std::_Vector_base.69"*, !dbg !9126
  %_M_impl2 = getelementptr inbounds %"struct.std::_Vector_base.69", %"struct.std::_Vector_base.69"* %3, i32 0, i32 0, !dbg !9126
  %4 = bitcast %"struct.std::_Vector_base<dealii::Polynomials::Polynomial<double>, std::allocator<dealii::Polynomials::Polynomial<double> > >::_Vector_impl"* %_M_impl2 to %"struct.std::_Vector_base<dealii::Polynomials::Polynomial<double>, std::allocator<dealii::Polynomials::Polynomial<double> > >::_Vector_impl_data"*, !dbg !9127
  %_M_finish = getelementptr inbounds %"struct.std::_Vector_base<dealii::Polynomials::Polynomial<double>, std::allocator<dealii::Polynomials::Polynomial<double> > >::_Vector_impl_data", %"struct.std::_Vector_base<dealii::Polynomials::Polynomial<double>, std::allocator<dealii::Polynomials::Polynomial<double> > >::_Vector_impl_data"* %4, i32 0, i32 1, !dbg !9128
  %5 = load %"class.dealii::Polynomials::Polynomial"*, %"class.dealii::Polynomials::Polynomial"** %_M_finish, align 8, !dbg !9128
  %6 = bitcast %"class.std::vector.68"* %this1 to %"struct.std::_Vector_base.69"*, !dbg !9129
  %call = call dereferenceable(1) %"class.std::allocator.70"* @_ZNSt12_Vector_baseIN6dealii11Polynomials10PolynomialIdEESaIS3_EE19_M_get_Tp_allocatorEv(%"struct.std::_Vector_base.69"* %6) #4, !dbg !9129
  invoke void @_ZSt8_DestroyIPN6dealii11Polynomials10PolynomialIdEES3_EvT_S5_RSaIT0_E(%"class.dealii::Polynomials::Polynomial"* %2, %"class.dealii::Polynomials::Polynomial"* %5, %"class.std::allocator.70"* dereferenceable(1) %call)
          to label %invoke.cont unwind label %lpad, !dbg !9130

invoke.cont:                                      ; preds = %entry
  %7 = bitcast %"class.std::vector.68"* %this1 to %"struct.std::_Vector_base.69"*, !dbg !9131
  call void @_ZNSt12_Vector_baseIN6dealii11Polynomials10PolynomialIdEESaIS3_EED2Ev(%"struct.std::_Vector_base.69"* %7) #4, !dbg !9131
  ret void, !dbg !9132

lpad:                                             ; preds = %entry
  %8 = landingpad { i8*, i32 }
          catch i8* null, !dbg !9131
  %9 = extractvalue { i8*, i32 } %8, 0, !dbg !9131
  store i8* %9, i8** %exn.slot, align 8, !dbg !9131
  %10 = extractvalue { i8*, i32 } %8, 1, !dbg !9131
  store i32 %10, i32* %ehselector.slot, align 4, !dbg !9131
  %11 = bitcast %"class.std::vector.68"* %this1 to %"struct.std::_Vector_base.69"*, !dbg !9131
  call void @_ZNSt12_Vector_baseIN6dealii11Polynomials10PolynomialIdEESaIS3_EED2Ev(%"struct.std::_Vector_base.69"* %11) #4, !dbg !9131
  br label %terminate.handler, !dbg !9131

terminate.handler:                                ; preds = %lpad
  %exn = load i8*, i8** %exn.slot, align 8, !dbg !9131
  call void @__clang_call_terminate(i8* %exn) #13, !dbg !9131
  unreachable, !dbg !9131
}

declare dso_local void @_ZN6dealii13FiniteElementILi3ELi3EE44reinit_restriction_and_prolongation_matricesEbb(%"class.dealii::FiniteElement"*, i1 zeroext, i1 zeroext) #2

declare dso_local void @_ZN6dealii7FETools26compute_embedding_matricesILi3EdLi3EEEvRKNS_13FiniteElementIXT_EXT1_EEERSt6vectorIS6_INS_10FullMatrixIT0_EESaIS9_EESaISB_EEb(%"class.dealii::FiniteElement"* dereferenceable(728), %"class.std::vector"* dereferenceable(24), i1 zeroext) #2

declare dso_local void @_ZN6dealii7FETools27compute_projection_matricesILi3EdLi3EEEvRKNS_13FiniteElementIXT_EXT1_EEERSt6vectorIS6_INS_10FullMatrixIT0_EESaIS9_EESaISB_EE(%"class.dealii::FiniteElement"* dereferenceable(728), %"class.std::vector"* dereferenceable(24)) #2

; Function Attrs: noinline uwtable
define weak_odr dso_local void @_ZNK6dealii6FE_DGPILi3ELi3EE8get_nameB5cxx11Ev(%"class.std::__cxx11::basic_string"* noalias sret %agg.result, %"class.dealii::FE_DGP"* %this) unnamed_addr #0 comdat align 2 personality i8* bitcast (i32 (...)* @__gxx_personality_v0 to i8*) !dbg !9133 {
entry:
  %result.ptr = alloca i8*, align 8
  %this.addr = alloca %"class.dealii::FE_DGP"*, align 8
  %namebuf = alloca %"class.std::__cxx11::basic_ostringstream", align 8
  %exn.slot = alloca i8*
  %ehselector.slot = alloca i32
  %0 = bitcast %"class.std::__cxx11::basic_string"* %agg.result to i8*
  store i8* %0, i8** %result.ptr, align 8
  store %"class.dealii::FE_DGP"* %this, %"class.dealii::FE_DGP"** %this.addr, align 8
  call void @llvm.dbg.declare(metadata %"class.dealii::FE_DGP"** %this.addr, metadata !9134, metadata !DIExpression()), !dbg !9135
  %this1 = load %"class.dealii::FE_DGP"*, %"class.dealii::FE_DGP"** %this.addr, align 8
  call void @llvm.dbg.declare(metadata %"class.std::__cxx11::basic_ostringstream"* %namebuf, metadata !9136, metadata !DIExpression()), !dbg !9140
  call void @_ZNSt7__cxx1119basic_ostringstreamIcSt11char_traitsIcESaIcEEC1Ev(%"class.std::__cxx11::basic_ostringstream"* %namebuf), !dbg !9140
  %1 = bitcast %"class.std::__cxx11::basic_ostringstream"* %namebuf to %"class.std::basic_ostream"*, !dbg !9141
  %call = invoke dereferenceable(272) %"class.std::basic_ostream"* @_ZStlsISt11char_traitsIcEERSt13basic_ostreamIcT_ES5_PKc(%"class.std::basic_ostream"* dereferenceable(272) %1, i8* getelementptr inbounds ([8 x i8], [8 x i8]* @.str, i64 0, i64 0))
          to label %invoke.cont unwind label %lpad, !dbg !9142

invoke.cont:                                      ; preds = %entry
  %call3 = invoke dereferenceable(272) %"class.std::basic_ostream"* @_ZNSolsEi(%"class.std::basic_ostream"* %call, i32 3)
          to label %invoke.cont2 unwind label %lpad, !dbg !9143

invoke.cont2:                                     ; preds = %invoke.cont
  %call5 = invoke dereferenceable(272) %"class.std::basic_ostream"* @_ZStlsISt11char_traitsIcEERSt13basic_ostreamIcT_ES5_PKc(%"class.std::basic_ostream"* dereferenceable(272) %call3, i8* getelementptr inbounds ([3 x i8], [3 x i8]* @.str.10, i64 0, i64 0))
          to label %invoke.cont4 unwind label %lpad, !dbg !9144

invoke.cont4:                                     ; preds = %invoke.cont2
  %2 = bitcast %"class.dealii::FE_DGP"* %this1 to i8*, !dbg !9145
  %add.ptr = getelementptr inbounds i8, i8* %2, i64 72, !dbg !9145
  %3 = bitcast i8* %add.ptr to %"class.dealii::FiniteElementData"*, !dbg !9145
  %degree = getelementptr inbounds %"class.dealii::FiniteElementData", %"class.dealii::FiniteElementData"* %3, i32 0, i32 13, !dbg !9145
  %4 = load i32, i32* %degree, align 4, !dbg !9145
  %call7 = invoke dereferenceable(272) %"class.std::basic_ostream"* @_ZNSolsEj(%"class.std::basic_ostream"* %call5, i32 %4)
          to label %invoke.cont6 unwind label %lpad, !dbg !9146

invoke.cont6:                                     ; preds = %invoke.cont4
  %call9 = invoke dereferenceable(272) %"class.std::basic_ostream"* @_ZStlsISt11char_traitsIcEERSt13basic_ostreamIcT_ES5_PKc(%"class.std::basic_ostream"* dereferenceable(272) %call7, i8* getelementptr inbounds ([2 x i8], [2 x i8]* @.str.11, i64 0, i64 0))
          to label %invoke.cont8 unwind label %lpad, !dbg !9147

invoke.cont8:                                     ; preds = %invoke.cont6
  invoke void @_ZNKSt7__cxx1119basic_ostringstreamIcSt11char_traitsIcESaIcEE3strEv(%"class.std::__cxx11::basic_string"* sret %agg.result, %"class.std::__cxx11::basic_ostringstream"* %namebuf)
          to label %invoke.cont10 unwind label %lpad, !dbg !9148

invoke.cont10:                                    ; preds = %invoke.cont8
  call void @_ZNSt7__cxx1119basic_ostringstreamIcSt11char_traitsIcESaIcEED1Ev(%"class.std::__cxx11::basic_ostringstream"* %namebuf) #4, !dbg !9149
  ret void, !dbg !9149

lpad:                                             ; preds = %invoke.cont8, %invoke.cont6, %invoke.cont4, %invoke.cont2, %invoke.cont, %entry
  %5 = landingpad { i8*, i32 }
          cleanup, !dbg !9149
  %6 = extractvalue { i8*, i32 } %5, 0, !dbg !9149
  store i8* %6, i8** %exn.slot, align 8, !dbg !9149
  %7 = extractvalue { i8*, i32 } %5, 1, !dbg !9149
  store i32 %7, i32* %ehselector.slot, align 4, !dbg !9149
  call void @_ZNSt7__cxx1119basic_ostringstreamIcSt11char_traitsIcESaIcEED1Ev(%"class.std::__cxx11::basic_ostringstream"* %namebuf) #4, !dbg !9149
  br label %eh.resume, !dbg !9149

eh.resume:                                        ; preds = %lpad
  %exn = load i8*, i8** %exn.slot, align 8, !dbg !9149
  %sel = load i32, i32* %ehselector.slot, align 4, !dbg !9149
  %lpad.val = insertvalue { i8*, i32 } undef, i8* %exn, 0, !dbg !9149
  %lpad.val11 = insertvalue { i8*, i32 } %lpad.val, i32 %sel, 1, !dbg !9149
  resume { i8*, i32 } %lpad.val11, !dbg !9149
}

declare dso_local void @_ZNSt7__cxx1119basic_ostringstreamIcSt11char_traitsIcESaIcEEC1Ev(%"class.std::__cxx11::basic_ostringstream"*) unnamed_addr #2

declare dso_local dereferenceable(272) %"class.std::basic_ostream"* @_ZStlsISt11char_traitsIcEERSt13basic_ostreamIcT_ES5_PKc(%"class.std::basic_ostream"* dereferenceable(272), i8*) #2

declare dso_local dereferenceable(272) %"class.std::basic_ostream"* @_ZNSolsEi(%"class.std::basic_ostream"*, i32) #2

declare dso_local dereferenceable(272) %"class.std::basic_ostream"* @_ZNSolsEj(%"class.std::basic_ostream"*, i32) #2

declare dso_local void @_ZNKSt7__cxx1119basic_ostringstreamIcSt11char_traitsIcESaIcEE3strEv(%"class.std::__cxx11::basic_string"* sret, %"class.std::__cxx11::basic_ostringstream"*) #2

; Function Attrs: nounwind
declare dso_local void @_ZNSt7__cxx1119basic_ostringstreamIcSt11char_traitsIcESaIcEED1Ev(%"class.std::__cxx11::basic_ostringstream"*) unnamed_addr #3

; Function Attrs: noinline nounwind uwtable
define weak_odr dso_local void @_ZNK6dealii6FE_DGPILi3ELi3EE24hp_vertex_dof_identitiesERKNS_13FiniteElementILi3ELi3EEE(%"class.std::vector.41"* noalias sret %agg.result, %"class.dealii::FE_DGP"* %this, %"class.dealii::FiniteElement"* dereferenceable(728) %fe_other) unnamed_addr #1 comdat align 2 !dbg !9150 {
entry:
  %result.ptr = alloca i8*, align 8
  %this.addr = alloca %"class.dealii::FE_DGP"*, align 8
  %fe_other.addr = alloca %"class.dealii::FiniteElement"*, align 8
  %0 = bitcast %"class.std::vector.41"* %agg.result to i8*
  store i8* %0, i8** %result.ptr, align 8
  store %"class.dealii::FE_DGP"* %this, %"class.dealii::FE_DGP"** %this.addr, align 8
  call void @llvm.dbg.declare(metadata %"class.dealii::FE_DGP"** %this.addr, metadata !9151, metadata !DIExpression()), !dbg !9152
  store %"class.dealii::FiniteElement"* %fe_other, %"class.dealii::FiniteElement"** %fe_other.addr, align 8
  call void @llvm.dbg.declare(metadata %"class.dealii::FiniteElement"** %fe_other.addr, metadata !9153, metadata !DIExpression()), !dbg !9154
  %this1 = load %"class.dealii::FE_DGP"*, %"class.dealii::FE_DGP"** %this.addr, align 8
  %1 = load %"class.dealii::FiniteElement"*, %"class.dealii::FiniteElement"** %fe_other.addr, align 8, !dbg !9155
  %2 = icmp eq %"class.dealii::FiniteElement"* %1, null, !dbg !9157
  br i1 %2, label %dynamic_cast.null, label %dynamic_cast.notnull, !dbg !9157

dynamic_cast.notnull:                             ; preds = %entry
  %3 = bitcast %"class.dealii::FiniteElement"* %1 to i8*, !dbg !9157
  %4 = call i8* @__dynamic_cast(i8* %3, i8* bitcast ({ i8*, i8*, i32, i32, i8*, i64, i8*, i64 }* @_ZTIN6dealii13FiniteElementILi3ELi3EEE to i8*), i8* bitcast ({ i8*, i8*, i8* }* @_ZTIN6dealii6FE_DGPILi3ELi3EEE to i8*), i64 0) #4, !dbg !9157
  %5 = bitcast i8* %4 to %"class.dealii::FE_DGP"*, !dbg !9157
  br label %dynamic_cast.end, !dbg !9157

dynamic_cast.null:                                ; preds = %entry
  br label %dynamic_cast.end, !dbg !9157

dynamic_cast.end:                                 ; preds = %dynamic_cast.null, %dynamic_cast.notnull
  %6 = phi %"class.dealii::FE_DGP"* [ %5, %dynamic_cast.notnull ], [ null, %dynamic_cast.null ], !dbg !9157
  %cmp = icmp ne %"class.dealii::FE_DGP"* %6, null, !dbg !9158
  br i1 %cmp, label %if.then, label %if.else, !dbg !9159

if.then:                                          ; preds = %dynamic_cast.end
  %7 = bitcast %"class.std::vector.41"* %agg.result to i8*, !dbg !9160
  call void @llvm.memset.p0i8.i64(i8* align 8 %7, i8 0, i64 24, i1 false), !dbg !9160
  call void @_ZNSt6vectorISt4pairIjjESaIS1_EEC2Ev(%"class.std::vector.41"* %agg.result) #4, !dbg !9160
  br label %return, !dbg !9161

if.else:                                          ; preds = %dynamic_cast.end
  %8 = bitcast %"class.std::vector.41"* %agg.result to i8*, !dbg !9162
  call void @llvm.memset.p0i8.i64(i8* align 8 %8, i8 0, i64 24, i1 false), !dbg !9162
  call void @_ZNSt6vectorISt4pairIjjESaIS1_EEC2Ev(%"class.std::vector.41"* %agg.result) #4, !dbg !9162
  br label %return, !dbg !9164

return:                                           ; preds = %if.else, %if.then
  ret void, !dbg !9165
}

; Function Attrs: nounwind readonly
declare dso_local i8* @__dynamic_cast(i8*, i8*, i8*, i64) #6

; Function Attrs: argmemonly nounwind willreturn
declare void @llvm.memset.p0i8.i64(i8* nocapture writeonly, i8, i64, i1 immarg) #7

; Function Attrs: noinline nounwind uwtable
define linkonce_odr dso_local void @_ZNSt6vectorISt4pairIjjESaIS1_EEC2Ev(%"class.std::vector.41"* %this) unnamed_addr #1 comdat align 2 !dbg !9166 {
entry:
  %this.addr = alloca %"class.std::vector.41"*, align 8
  store %"class.std::vector.41"* %this, %"class.std::vector.41"** %this.addr, align 8
  call void @llvm.dbg.declare(metadata %"class.std::vector.41"** %this.addr, metadata !9167, metadata !DIExpression()), !dbg !9169
  %this1 = load %"class.std::vector.41"*, %"class.std::vector.41"** %this.addr, align 8
  %0 = bitcast %"class.std::vector.41"* %this1 to %"struct.std::_Vector_base.42"*, !dbg !9170
  call void @_ZNSt12_Vector_baseISt4pairIjjESaIS1_EEC2Ev(%"struct.std::_Vector_base.42"* %0) #4, !dbg !9171
  ret void, !dbg !9170
}

; Function Attrs: noinline nounwind uwtable
define weak_odr dso_local void @_ZNK6dealii6FE_DGPILi3ELi3EE22hp_line_dof_identitiesERKNS_13FiniteElementILi3ELi3EEE(%"class.std::vector.41"* noalias sret %agg.result, %"class.dealii::FE_DGP"* %this, %"class.dealii::FiniteElement"* dereferenceable(728) %fe_other) unnamed_addr #1 comdat align 2 !dbg !9172 {
entry:
  %result.ptr = alloca i8*, align 8
  %this.addr = alloca %"class.dealii::FE_DGP"*, align 8
  %fe_other.addr = alloca %"class.dealii::FiniteElement"*, align 8
  %0 = bitcast %"class.std::vector.41"* %agg.result to i8*
  store i8* %0, i8** %result.ptr, align 8
  store %"class.dealii::FE_DGP"* %this, %"class.dealii::FE_DGP"** %this.addr, align 8
  call void @llvm.dbg.declare(metadata %"class.dealii::FE_DGP"** %this.addr, metadata !9173, metadata !DIExpression()), !dbg !9174
  store %"class.dealii::FiniteElement"* %fe_other, %"class.dealii::FiniteElement"** %fe_other.addr, align 8
  call void @llvm.dbg.declare(metadata %"class.dealii::FiniteElement"** %fe_other.addr, metadata !9175, metadata !DIExpression()), !dbg !9176
  %this1 = load %"class.dealii::FE_DGP"*, %"class.dealii::FE_DGP"** %this.addr, align 8
  %1 = load %"class.dealii::FiniteElement"*, %"class.dealii::FiniteElement"** %fe_other.addr, align 8, !dbg !9177
  %2 = icmp eq %"class.dealii::FiniteElement"* %1, null, !dbg !9179
  br i1 %2, label %dynamic_cast.null, label %dynamic_cast.notnull, !dbg !9179

dynamic_cast.notnull:                             ; preds = %entry
  %3 = bitcast %"class.dealii::FiniteElement"* %1 to i8*, !dbg !9179
  %4 = call i8* @__dynamic_cast(i8* %3, i8* bitcast ({ i8*, i8*, i32, i32, i8*, i64, i8*, i64 }* @_ZTIN6dealii13FiniteElementILi3ELi3EEE to i8*), i8* bitcast ({ i8*, i8*, i8* }* @_ZTIN6dealii6FE_DGPILi3ELi3EEE to i8*), i64 0) #4, !dbg !9179
  %5 = bitcast i8* %4 to %"class.dealii::FE_DGP"*, !dbg !9179
  br label %dynamic_cast.end, !dbg !9179

dynamic_cast.null:                                ; preds = %entry
  br label %dynamic_cast.end, !dbg !9179

dynamic_cast.end:                                 ; preds = %dynamic_cast.null, %dynamic_cast.notnull
  %6 = phi %"class.dealii::FE_DGP"* [ %5, %dynamic_cast.notnull ], [ null, %dynamic_cast.null ], !dbg !9179
  %cmp = icmp ne %"class.dealii::FE_DGP"* %6, null, !dbg !9180
  br i1 %cmp, label %if.then, label %if.else, !dbg !9181

if.then:                                          ; preds = %dynamic_cast.end
  %7 = bitcast %"class.std::vector.41"* %agg.result to i8*, !dbg !9182
  call void @llvm.memset.p0i8.i64(i8* align 8 %7, i8 0, i64 24, i1 false), !dbg !9182
  call void @_ZNSt6vectorISt4pairIjjESaIS1_EEC2Ev(%"class.std::vector.41"* %agg.result) #4, !dbg !9182
  br label %return, !dbg !9183

if.else:                                          ; preds = %dynamic_cast.end
  %8 = bitcast %"class.std::vector.41"* %agg.result to i8*, !dbg !9184
  call void @llvm.memset.p0i8.i64(i8* align 8 %8, i8 0, i64 24, i1 false), !dbg !9184
  call void @_ZNSt6vectorISt4pairIjjESaIS1_EEC2Ev(%"class.std::vector.41"* %agg.result) #4, !dbg !9184
  br label %return, !dbg !9186

return:                                           ; preds = %if.else, %if.then
  ret void, !dbg !9187
}

; Function Attrs: noinline nounwind uwtable
define weak_odr dso_local void @_ZNK6dealii6FE_DGPILi3ELi3EE22hp_quad_dof_identitiesERKNS_13FiniteElementILi3ELi3EEE(%"class.std::vector.41"* noalias sret %agg.result, %"class.dealii::FE_DGP"* %this, %"class.dealii::FiniteElement"* dereferenceable(728) %fe_other) unnamed_addr #1 comdat align 2 !dbg !9188 {
entry:
  %result.ptr = alloca i8*, align 8
  %this.addr = alloca %"class.dealii::FE_DGP"*, align 8
  %fe_other.addr = alloca %"class.dealii::FiniteElement"*, align 8
  %0 = bitcast %"class.std::vector.41"* %agg.result to i8*
  store i8* %0, i8** %result.ptr, align 8
  store %"class.dealii::FE_DGP"* %this, %"class.dealii::FE_DGP"** %this.addr, align 8
  call void @llvm.dbg.declare(metadata %"class.dealii::FE_DGP"** %this.addr, metadata !9189, metadata !DIExpression()), !dbg !9190
  store %"class.dealii::FiniteElement"* %fe_other, %"class.dealii::FiniteElement"** %fe_other.addr, align 8
  call void @llvm.dbg.declare(metadata %"class.dealii::FiniteElement"** %fe_other.addr, metadata !9191, metadata !DIExpression()), !dbg !9192
  %this1 = load %"class.dealii::FE_DGP"*, %"class.dealii::FE_DGP"** %this.addr, align 8
  %1 = load %"class.dealii::FiniteElement"*, %"class.dealii::FiniteElement"** %fe_other.addr, align 8, !dbg !9193
  %2 = icmp eq %"class.dealii::FiniteElement"* %1, null, !dbg !9195
  br i1 %2, label %dynamic_cast.null, label %dynamic_cast.notnull, !dbg !9195

dynamic_cast.notnull:                             ; preds = %entry
  %3 = bitcast %"class.dealii::FiniteElement"* %1 to i8*, !dbg !9195
  %4 = call i8* @__dynamic_cast(i8* %3, i8* bitcast ({ i8*, i8*, i32, i32, i8*, i64, i8*, i64 }* @_ZTIN6dealii13FiniteElementILi3ELi3EEE to i8*), i8* bitcast ({ i8*, i8*, i8* }* @_ZTIN6dealii6FE_DGPILi3ELi3EEE to i8*), i64 0) #4, !dbg !9195
  %5 = bitcast i8* %4 to %"class.dealii::FE_DGP"*, !dbg !9195
  br label %dynamic_cast.end, !dbg !9195

dynamic_cast.null:                                ; preds = %entry
  br label %dynamic_cast.end, !dbg !9195

dynamic_cast.end:                                 ; preds = %dynamic_cast.null, %dynamic_cast.notnull
  %6 = phi %"class.dealii::FE_DGP"* [ %5, %dynamic_cast.notnull ], [ null, %dynamic_cast.null ], !dbg !9195
  %cmp = icmp ne %"class.dealii::FE_DGP"* %6, null, !dbg !9196
  br i1 %cmp, label %if.then, label %if.else, !dbg !9197

if.then:                                          ; preds = %dynamic_cast.end
  %7 = bitcast %"class.std::vector.41"* %agg.result to i8*, !dbg !9198
  call void @llvm.memset.p0i8.i64(i8* align 8 %7, i8 0, i64 24, i1 false), !dbg !9198
  call void @_ZNSt6vectorISt4pairIjjESaIS1_EEC2Ev(%"class.std::vector.41"* %agg.result) #4, !dbg !9198
  br label %return, !dbg !9199

if.else:                                          ; preds = %dynamic_cast.end
  %8 = bitcast %"class.std::vector.41"* %agg.result to i8*, !dbg !9200
  call void @llvm.memset.p0i8.i64(i8* align 8 %8, i8 0, i64 24, i1 false), !dbg !9200
  call void @_ZNSt6vectorISt4pairIjjESaIS1_EEC2Ev(%"class.std::vector.41"* %agg.result) #4, !dbg !9200
  br label %return, !dbg !9202

return:                                           ; preds = %if.else, %if.then
  ret void, !dbg !9203
}

; Function Attrs: noinline nounwind uwtable
define weak_odr dso_local zeroext i1 @_ZNK6dealii6FE_DGPILi3ELi3EE30hp_constraints_are_implementedEv(%"class.dealii::FE_DGP"* %this) unnamed_addr #1 comdat align 2 !dbg !9204 {
entry:
  %this.addr = alloca %"class.dealii::FE_DGP"*, align 8
  store %"class.dealii::FE_DGP"* %this, %"class.dealii::FE_DGP"** %this.addr, align 8
  call void @llvm.dbg.declare(metadata %"class.dealii::FE_DGP"** %this.addr, metadata !9205, metadata !DIExpression()), !dbg !9206
  %this1 = load %"class.dealii::FE_DGP"*, %"class.dealii::FE_DGP"** %this.addr, align 8
  ret i1 true, !dbg !9207
}

; Function Attrs: noinline nounwind uwtable
define weak_odr dso_local i32 @_ZNK6dealii6FE_DGPILi3ELi3EE27compare_for_face_dominationERKNS_13FiniteElementILi3ELi3EEE(%"class.dealii::FE_DGP"* %this, %"class.dealii::FiniteElement"* dereferenceable(728) %fe_other) unnamed_addr #1 comdat align 2 !dbg !9208 {
entry:
  %retval = alloca i32, align 4
  %this.addr = alloca %"class.dealii::FE_DGP"*, align 8
  %fe_other.addr = alloca %"class.dealii::FiniteElement"*, align 8
  store %"class.dealii::FE_DGP"* %this, %"class.dealii::FE_DGP"** %this.addr, align 8
  call void @llvm.dbg.declare(metadata %"class.dealii::FE_DGP"** %this.addr, metadata !9209, metadata !DIExpression()), !dbg !9210
  store %"class.dealii::FiniteElement"* %fe_other, %"class.dealii::FiniteElement"** %fe_other.addr, align 8
  call void @llvm.dbg.declare(metadata %"class.dealii::FiniteElement"** %fe_other.addr, metadata !9211, metadata !DIExpression()), !dbg !9212
  %this1 = load %"class.dealii::FE_DGP"*, %"class.dealii::FE_DGP"** %this.addr, align 8
  %0 = load %"class.dealii::FiniteElement"*, %"class.dealii::FiniteElement"** %fe_other.addr, align 8, !dbg !9213
  %1 = icmp eq %"class.dealii::FiniteElement"* %0, null, !dbg !9215
  br i1 %1, label %dynamic_cast.null, label %dynamic_cast.notnull, !dbg !9215

dynamic_cast.notnull:                             ; preds = %entry
  %2 = bitcast %"class.dealii::FiniteElement"* %0 to i8*, !dbg !9215
  %3 = call i8* @__dynamic_cast(i8* %2, i8* bitcast ({ i8*, i8*, i32, i32, i8*, i64, i8*, i64 }* @_ZTIN6dealii13FiniteElementILi3ELi3EEE to i8*), i8* bitcast ({ i8*, i8*, i8* }* @_ZTIN6dealii6FE_DGPILi3ELi3EEE to i8*), i64 0) #4, !dbg !9215
  %4 = bitcast i8* %3 to %"class.dealii::FE_DGP"*, !dbg !9215
  br label %dynamic_cast.end, !dbg !9215

dynamic_cast.null:                                ; preds = %entry
  br label %dynamic_cast.end, !dbg !9215

dynamic_cast.end:                                 ; preds = %dynamic_cast.null, %dynamic_cast.notnull
  %5 = phi %"class.dealii::FE_DGP"* [ %4, %dynamic_cast.notnull ], [ null, %dynamic_cast.null ], !dbg !9215
  %cmp = icmp ne %"class.dealii::FE_DGP"* %5, null, !dbg !9216
  br i1 %cmp, label %if.then, label %if.end, !dbg !9217

if.then:                                          ; preds = %dynamic_cast.end
  store i32 3, i32* %retval, align 4, !dbg !9218
  br label %return, !dbg !9218

if.end:                                           ; preds = %dynamic_cast.end
  store i32 2, i32* %retval, align 4, !dbg !9219
  br label %return, !dbg !9219

return:                                           ; preds = %if.end, %if.then
  %6 = load i32, i32* %retval, align 4, !dbg !9220
  ret i32 %6, !dbg !9220
}

; Function Attrs: noinline uwtable
define weak_odr dso_local void @_ZNK6dealii6FE_DGPILi3ELi3EE29get_face_interpolation_matrixERKNS_13FiniteElementILi3ELi3EEERNS_10FullMatrixIdEE(%"class.dealii::FE_DGP"* %this, %"class.dealii::FiniteElement"* dereferenceable(728) %x_source_fe, %"class.dealii::FullMatrix"* dereferenceable(96) %interpolation_matrix) unnamed_addr #0 comdat align 2 personality i8* bitcast (i32 (...)* @__gxx_personality_v0 to i8*) !dbg !7402 {
entry:
  %this.addr = alloca %"class.dealii::FE_DGP"*, align 8
  %x_source_fe.addr = alloca %"class.dealii::FiniteElement"*, align 8
  %interpolation_matrix.addr = alloca %"class.dealii::FullMatrix"*, align 8
  %ref.tmp = alloca %"class.std::__cxx11::basic_string", align 8
  %agg.tmp = alloca %"class.dealii::FiniteElement<3, 3>::ExcInterpolationNotImplemented", align 8
  %exn.slot = alloca i8*
  %ehselector.slot = alloca i32
  store %"class.dealii::FE_DGP"* %this, %"class.dealii::FE_DGP"** %this.addr, align 8
  call void @llvm.dbg.declare(metadata %"class.dealii::FE_DGP"** %this.addr, metadata !9221, metadata !DIExpression()), !dbg !9222
  store %"class.dealii::FiniteElement"* %x_source_fe, %"class.dealii::FiniteElement"** %x_source_fe.addr, align 8
  call void @llvm.dbg.declare(metadata %"class.dealii::FiniteElement"** %x_source_fe.addr, metadata !9223, metadata !DIExpression()), !dbg !9224
  store %"class.dealii::FullMatrix"* %interpolation_matrix, %"class.dealii::FullMatrix"** %interpolation_matrix.addr, align 8
  call void @llvm.dbg.declare(metadata %"class.dealii::FullMatrix"** %interpolation_matrix.addr, metadata !9225, metadata !DIExpression()), !dbg !9226
  %this1 = load %"class.dealii::FE_DGP"*, %"class.dealii::FE_DGP"** %this.addr, align 8
  %0 = load %"class.dealii::FiniteElement"*, %"class.dealii::FiniteElement"** %x_source_fe.addr, align 8, !dbg !9227
  %1 = bitcast %"class.dealii::FiniteElement"* %0 to void (%"class.std::__cxx11::basic_string"*, %"class.dealii::FiniteElement"*)***, !dbg !9227
  %vtable = load void (%"class.std::__cxx11::basic_string"*, %"class.dealii::FiniteElement"*)**, void (%"class.std::__cxx11::basic_string"*, %"class.dealii::FiniteElement"*)*** %1, align 8, !dbg !9227
  %vfn = getelementptr inbounds void (%"class.std::__cxx11::basic_string"*, %"class.dealii::FiniteElement"*)*, void (%"class.std::__cxx11::basic_string"*, %"class.dealii::FiniteElement"*)** %vtable, i64 2, !dbg !9227
  %2 = load void (%"class.std::__cxx11::basic_string"*, %"class.dealii::FiniteElement"*)*, void (%"class.std::__cxx11::basic_string"*, %"class.dealii::FiniteElement"*)** %vfn, align 8, !dbg !9227
  call void %2(%"class.std::__cxx11::basic_string"* sret %ref.tmp, %"class.dealii::FiniteElement"* %0), !dbg !9227
  %call = call i64 @_ZNKSt7__cxx1112basic_stringIcSt11char_traitsIcESaIcEE4findEPKcm(%"class.std::__cxx11::basic_string"* %ref.tmp, i8* getelementptr inbounds ([8 x i8], [8 x i8]* @.str, i64 0, i64 0), i64 0) #4, !dbg !9227
  %cmp = icmp eq i64 %call, 0, !dbg !9227
  br i1 %cmp, label %lor.end, label %lor.rhs, !dbg !9227

lor.rhs:                                          ; preds = %entry
  %3 = load %"class.dealii::FiniteElement"*, %"class.dealii::FiniteElement"** %x_source_fe.addr, align 8, !dbg !9227
  %4 = icmp eq %"class.dealii::FiniteElement"* %3, null, !dbg !9227
  br i1 %4, label %dynamic_cast.null, label %dynamic_cast.notnull, !dbg !9227

dynamic_cast.notnull:                             ; preds = %lor.rhs
  %5 = bitcast %"class.dealii::FiniteElement"* %3 to i8*, !dbg !9227
  %6 = call i8* @__dynamic_cast(i8* %5, i8* bitcast ({ i8*, i8*, i32, i32, i8*, i64, i8*, i64 }* @_ZTIN6dealii13FiniteElementILi3ELi3EEE to i8*), i8* bitcast ({ i8*, i8*, i8* }* @_ZTIN6dealii6FE_DGPILi3ELi3EEE to i8*), i64 0) #4, !dbg !9227
  %7 = bitcast i8* %6 to %"class.dealii::FE_DGP"*, !dbg !9227
  br label %dynamic_cast.end, !dbg !9227

dynamic_cast.null:                                ; preds = %lor.rhs
  br label %dynamic_cast.end, !dbg !9227

dynamic_cast.end:                                 ; preds = %dynamic_cast.null, %dynamic_cast.notnull
  %8 = phi %"class.dealii::FE_DGP"* [ %7, %dynamic_cast.notnull ], [ null, %dynamic_cast.null ], !dbg !9227
  %cmp2 = icmp ne %"class.dealii::FE_DGP"* %8, null, !dbg !9227
  br label %lor.end, !dbg !9227

lor.end:                                          ; preds = %dynamic_cast.end, %entry
  %9 = phi i1 [ true, %entry ], [ %cmp2, %dynamic_cast.end ]
  %lnot = xor i1 %9, true, !dbg !9227
  call void @_ZNSt7__cxx1112basic_stringIcSt11char_traitsIcESaIcEED1Ev(%"class.std::__cxx11::basic_string"* %ref.tmp) #4, !dbg !9227
  br i1 %lnot, label %if.then, label %if.end, !dbg !9230

if.then:                                          ; preds = %lor.end
  %10 = bitcast %"class.dealii::FiniteElement<3, 3>::ExcInterpolationNotImplemented"* %agg.tmp to i8*, !dbg !9227
  call void @llvm.memset.p0i8.i64(i8* align 8 %10, i8 0, i64 64, i1 false), !dbg !9227
  call void @_ZN6dealii13FiniteElementILi3ELi3EE30ExcInterpolationNotImplementedC2Ev(%"class.dealii::FiniteElement<3, 3>::ExcInterpolationNotImplemented"* %agg.tmp), !dbg !9227
  invoke void @_ZN6dealii18deal_II_exceptions9internals17issue_error_throwINS_13FiniteElementILi3ELi3EE30ExcInterpolationNotImplementedEEEvPKciS7_S7_S7_T_(i8* getelementptr inbounds ([20 x i8], [20 x i8]* @.str.12, i64 0, i64 0), i32 112, i8* getelementptr inbounds ([1 x i8], [1 x i8]* @.str.13, i64 0, i64 0), i8* getelementptr inbounds ([98 x i8], [98 x i8]* @.str.14, i64 0, i64 0), i8* getelementptr inbounds ([47 x i8], [47 x i8]* @.str.15, i64 0, i64 0), %"class.dealii::FiniteElement<3, 3>::ExcInterpolationNotImplemented"* %agg.tmp)
          to label %invoke.cont unwind label %lpad, !dbg !9227

invoke.cont:                                      ; preds = %if.then
  call void @_ZN6dealii13FiniteElementILi3ELi3EE30ExcInterpolationNotImplementedD2Ev(%"class.dealii::FiniteElement<3, 3>::ExcInterpolationNotImplemented"* %agg.tmp) #4, !dbg !9227
  br label %if.end, !dbg !9227

lpad:                                             ; preds = %if.then
  %11 = landingpad { i8*, i32 }
          cleanup, !dbg !9231
  %12 = extractvalue { i8*, i32 } %11, 0, !dbg !9231
  store i8* %12, i8** %exn.slot, align 8, !dbg !9231
  %13 = extractvalue { i8*, i32 } %11, 1, !dbg !9231
  store i32 %13, i32* %ehselector.slot, align 4, !dbg !9231
  call void @_ZN6dealii13FiniteElementILi3ELi3EE30ExcInterpolationNotImplementedD2Ev(%"class.dealii::FiniteElement<3, 3>::ExcInterpolationNotImplemented"* %agg.tmp) #4, !dbg !9227
  br label %eh.resume, !dbg !9227

if.end:                                           ; preds = %invoke.cont, %lor.end
  ret void, !dbg !9232

eh.resume:                                        ; preds = %lpad
  %exn = load i8*, i8** %exn.slot, align 8, !dbg !9227
  %sel = load i32, i32* %ehselector.slot, align 4, !dbg !9227
  %lpad.val = insertvalue { i8*, i32 } undef, i8* %exn, 0, !dbg !9227
  %lpad.val3 = insertvalue { i8*, i32 } %lpad.val, i32 %sel, 1, !dbg !9227
  resume { i8*, i32 } %lpad.val3, !dbg !9227
}

; Function Attrs: nounwind
declare dso_local i64 @_ZNKSt7__cxx1112basic_stringIcSt11char_traitsIcESaIcEE4findEPKcm(%"class.std::__cxx11::basic_string"*, i8*, i64) #3

; Function Attrs: nounwind
declare dso_local void @_ZNSt7__cxx1112basic_stringIcSt11char_traitsIcESaIcEED1Ev(%"class.std::__cxx11::basic_string"*) unnamed_addr #3

; Function Attrs: noinline uwtable
define linkonce_odr dso_local void @_ZN6dealii18deal_II_exceptions9internals17issue_error_throwINS_13FiniteElementILi3ELi3EE30ExcInterpolationNotImplementedEEEvPKciS7_S7_S7_T_(i8* %file, i32 %line, i8* %function, i8* %cond, i8* %exc_name, %"class.dealii::FiniteElement<3, 3>::ExcInterpolationNotImplemented"* %e) #0 comdat personality i8* bitcast (i32 (...)* @__gxx_personality_v0 to i8*) !dbg !9233 {
entry:
  %file.addr = alloca i8*, align 8
  %line.addr = alloca i32, align 4
  %function.addr = alloca i8*, align 8
  %cond.addr = alloca i8*, align 8
  %exc_name.addr = alloca i8*, align 8
  %exn.slot = alloca i8*
  %ehselector.slot = alloca i32
  store i8* %file, i8** %file.addr, align 8
  call void @llvm.dbg.declare(metadata i8** %file.addr, metadata !9246, metadata !DIExpression()), !dbg !9247
  store i32 %line, i32* %line.addr, align 4
  call void @llvm.dbg.declare(metadata i32* %line.addr, metadata !9248, metadata !DIExpression()), !dbg !9249
  store i8* %function, i8** %function.addr, align 8
  call void @llvm.dbg.declare(metadata i8** %function.addr, metadata !9250, metadata !DIExpression()), !dbg !9251
  store i8* %cond, i8** %cond.addr, align 8
  call void @llvm.dbg.declare(metadata i8** %cond.addr, metadata !9252, metadata !DIExpression()), !dbg !9253
  store i8* %exc_name, i8** %exc_name.addr, align 8
  call void @llvm.dbg.declare(metadata i8** %exc_name.addr, metadata !9254, metadata !DIExpression()), !dbg !9255
  call void @llvm.dbg.declare(metadata %"class.dealii::FiniteElement<3, 3>::ExcInterpolationNotImplemented"* %e, metadata !9256, metadata !DIExpression()), !dbg !9257
  %0 = bitcast %"class.dealii::FiniteElement<3, 3>::ExcInterpolationNotImplemented"* %e to %"class.dealii::ExceptionBase"*, !dbg !9258
  %1 = load i8*, i8** %file.addr, align 8, !dbg !9259
  %2 = load i32, i32* %line.addr, align 4, !dbg !9260
  %3 = load i8*, i8** %function.addr, align 8, !dbg !9261
  %4 = load i8*, i8** %cond.addr, align 8, !dbg !9262
  %5 = load i8*, i8** %exc_name.addr, align 8, !dbg !9263
  call void @_ZN6dealii13ExceptionBase10set_fieldsEPKciS2_S2_S2_(%"class.dealii::ExceptionBase"* %0, i8* %1, i32 %2, i8* %3, i8* %4, i8* %5), !dbg !9264
  %exception = call i8* @__cxa_allocate_exception(i64 64) #4, !dbg !9265
  %6 = bitcast i8* %exception to %"class.dealii::FiniteElement<3, 3>::ExcInterpolationNotImplemented"*, !dbg !9265
  invoke void @_ZN6dealii13FiniteElementILi3ELi3EE30ExcInterpolationNotImplementedC2EOS2_(%"class.dealii::FiniteElement<3, 3>::ExcInterpolationNotImplemented"* %6, %"class.dealii::FiniteElement<3, 3>::ExcInterpolationNotImplemented"* dereferenceable(64) %e)
          to label %invoke.cont unwind label %lpad, !dbg !9266

invoke.cont:                                      ; preds = %entry
  call void @__cxa_throw(i8* %exception, i8* bitcast ({ i8*, i8*, i8* }* @_ZTIN6dealii13FiniteElementILi3ELi3EE30ExcInterpolationNotImplementedE to i8*), i8* bitcast (void (%"class.dealii::FiniteElement<3, 3>::ExcInterpolationNotImplemented"*)* @_ZN6dealii13FiniteElementILi3ELi3EE30ExcInterpolationNotImplementedD2Ev to i8*)) #14, !dbg !9265
  unreachable, !dbg !9265

lpad:                                             ; preds = %entry
  %7 = landingpad { i8*, i32 }
          cleanup, !dbg !9267
  %8 = extractvalue { i8*, i32 } %7, 0, !dbg !9267
  store i8* %8, i8** %exn.slot, align 8, !dbg !9267
  %9 = extractvalue { i8*, i32 } %7, 1, !dbg !9267
  store i32 %9, i32* %ehselector.slot, align 4, !dbg !9267
  call void @__cxa_free_exception(i8* %exception) #4, !dbg !9265
  br label %eh.resume, !dbg !9265

eh.resume:                                        ; preds = %lpad
  %exn = load i8*, i8** %exn.slot, align 8, !dbg !9265
  %sel = load i32, i32* %ehselector.slot, align 4, !dbg !9265
  %lpad.val = insertvalue { i8*, i32 } undef, i8* %exn, 0, !dbg !9265
  %lpad.val1 = insertvalue { i8*, i32 } %lpad.val, i32 %sel, 1, !dbg !9265
  resume { i8*, i32 } %lpad.val1, !dbg !9265
}

; Function Attrs: noinline uwtable
define linkonce_odr dso_local void @_ZN6dealii13FiniteElementILi3ELi3EE30ExcInterpolationNotImplementedC2Ev(%"class.dealii::FiniteElement<3, 3>::ExcInterpolationNotImplemented"* %this) unnamed_addr #0 comdat align 2 !dbg !9268 {
entry:
  %this.addr = alloca %"class.dealii::FiniteElement<3, 3>::ExcInterpolationNotImplemented"*, align 8
  store %"class.dealii::FiniteElement<3, 3>::ExcInterpolationNotImplemented"* %this, %"class.dealii::FiniteElement<3, 3>::ExcInterpolationNotImplemented"** %this.addr, align 8
  call void @llvm.dbg.declare(metadata %"class.dealii::FiniteElement<3, 3>::ExcInterpolationNotImplemented"** %this.addr, metadata !9273, metadata !DIExpression()), !dbg !9275
  %this1 = load %"class.dealii::FiniteElement<3, 3>::ExcInterpolationNotImplemented"*, %"class.dealii::FiniteElement<3, 3>::ExcInterpolationNotImplemented"** %this.addr, align 8
  %0 = bitcast %"class.dealii::FiniteElement<3, 3>::ExcInterpolationNotImplemented"* %this1 to %"class.dealii::ExceptionBase"*, !dbg !9276
  call void @_ZN6dealii13ExceptionBaseC2Ev(%"class.dealii::ExceptionBase"* %0), !dbg !9276
  %1 = bitcast %"class.dealii::FiniteElement<3, 3>::ExcInterpolationNotImplemented"* %this1 to i32 (...)***, !dbg !9276
  store i32 (...)** bitcast (i8** getelementptr inbounds ({ [6 x i8*] }, { [6 x i8*] }* @_ZTVN6dealii13FiniteElementILi3ELi3EE30ExcInterpolationNotImplementedE, i32 0, inrange i32 0, i32 2) to i32 (...)**), i32 (...)*** %1, align 8, !dbg !9276
  ret void, !dbg !9276
}

; Function Attrs: noinline nounwind uwtable
define linkonce_odr dso_local void @_ZN6dealii13FiniteElementILi3ELi3EE30ExcInterpolationNotImplementedD2Ev(%"class.dealii::FiniteElement<3, 3>::ExcInterpolationNotImplemented"* %this) unnamed_addr #1 comdat align 2 !dbg !9277 {
entry:
  %this.addr = alloca %"class.dealii::FiniteElement<3, 3>::ExcInterpolationNotImplemented"*, align 8
  store %"class.dealii::FiniteElement<3, 3>::ExcInterpolationNotImplemented"* %this, %"class.dealii::FiniteElement<3, 3>::ExcInterpolationNotImplemented"** %this.addr, align 8
  call void @llvm.dbg.declare(metadata %"class.dealii::FiniteElement<3, 3>::ExcInterpolationNotImplemented"** %this.addr, metadata !9279, metadata !DIExpression()), !dbg !9280
  %this1 = load %"class.dealii::FiniteElement<3, 3>::ExcInterpolationNotImplemented"*, %"class.dealii::FiniteElement<3, 3>::ExcInterpolationNotImplemented"** %this.addr, align 8
  %0 = bitcast %"class.dealii::FiniteElement<3, 3>::ExcInterpolationNotImplemented"* %this1 to %"class.dealii::ExceptionBase"*, !dbg !9281
  call void @_ZN6dealii13ExceptionBaseD2Ev(%"class.dealii::ExceptionBase"* %0) #4, !dbg !9281
  ret void, !dbg !9283
}

; Function Attrs: noinline uwtable
define weak_odr dso_local void @_ZNK6dealii6FE_DGPILi3ELi3EE32get_subface_interpolation_matrixERKNS_13FiniteElementILi3ELi3EEEjRNS_10FullMatrixIdEE(%"class.dealii::FE_DGP"* %this, %"class.dealii::FiniteElement"* dereferenceable(728) %x_source_fe, i32 %0, %"class.dealii::FullMatrix"* dereferenceable(96) %interpolation_matrix) unnamed_addr #0 comdat align 2 personality i8* bitcast (i32 (...)* @__gxx_personality_v0 to i8*) !dbg !7406 {
entry:
  %this.addr = alloca %"class.dealii::FE_DGP"*, align 8
  %x_source_fe.addr = alloca %"class.dealii::FiniteElement"*, align 8
  %.addr = alloca i32, align 4
  %interpolation_matrix.addr = alloca %"class.dealii::FullMatrix"*, align 8
  %ref.tmp = alloca %"class.std::__cxx11::basic_string", align 8
  %agg.tmp = alloca %"class.dealii::FiniteElement<3, 3>::ExcInterpolationNotImplemented", align 8
  %exn.slot = alloca i8*
  %ehselector.slot = alloca i32
  store %"class.dealii::FE_DGP"* %this, %"class.dealii::FE_DGP"** %this.addr, align 8
  call void @llvm.dbg.declare(metadata %"class.dealii::FE_DGP"** %this.addr, metadata !9284, metadata !DIExpression()), !dbg !9285
  store %"class.dealii::FiniteElement"* %x_source_fe, %"class.dealii::FiniteElement"** %x_source_fe.addr, align 8
  call void @llvm.dbg.declare(metadata %"class.dealii::FiniteElement"** %x_source_fe.addr, metadata !9286, metadata !DIExpression()), !dbg !9287
  store i32 %0, i32* %.addr, align 4
  call void @llvm.dbg.declare(metadata i32* %.addr, metadata !9288, metadata !DIExpression()), !dbg !9289
  store %"class.dealii::FullMatrix"* %interpolation_matrix, %"class.dealii::FullMatrix"** %interpolation_matrix.addr, align 8
  call void @llvm.dbg.declare(metadata %"class.dealii::FullMatrix"** %interpolation_matrix.addr, metadata !9290, metadata !DIExpression()), !dbg !9291
  %this1 = load %"class.dealii::FE_DGP"*, %"class.dealii::FE_DGP"** %this.addr, align 8
  %1 = load %"class.dealii::FiniteElement"*, %"class.dealii::FiniteElement"** %x_source_fe.addr, align 8, !dbg !9292
  %2 = bitcast %"class.dealii::FiniteElement"* %1 to void (%"class.std::__cxx11::basic_string"*, %"class.dealii::FiniteElement"*)***, !dbg !9292
  %vtable = load void (%"class.std::__cxx11::basic_string"*, %"class.dealii::FiniteElement"*)**, void (%"class.std::__cxx11::basic_string"*, %"class.dealii::FiniteElement"*)*** %2, align 8, !dbg !9292
  %vfn = getelementptr inbounds void (%"class.std::__cxx11::basic_string"*, %"class.dealii::FiniteElement"*)*, void (%"class.std::__cxx11::basic_string"*, %"class.dealii::FiniteElement"*)** %vtable, i64 2, !dbg !9292
  %3 = load void (%"class.std::__cxx11::basic_string"*, %"class.dealii::FiniteElement"*)*, void (%"class.std::__cxx11::basic_string"*, %"class.dealii::FiniteElement"*)** %vfn, align 8, !dbg !9292
  call void %3(%"class.std::__cxx11::basic_string"* sret %ref.tmp, %"class.dealii::FiniteElement"* %1), !dbg !9292
  %call = call i64 @_ZNKSt7__cxx1112basic_stringIcSt11char_traitsIcESaIcEE4findEPKcm(%"class.std::__cxx11::basic_string"* %ref.tmp, i8* getelementptr inbounds ([8 x i8], [8 x i8]* @.str, i64 0, i64 0), i64 0) #4, !dbg !9292
  %cmp = icmp eq i64 %call, 0, !dbg !9292
  br i1 %cmp, label %lor.end, label %lor.rhs, !dbg !9292

lor.rhs:                                          ; preds = %entry
  %4 = load %"class.dealii::FiniteElement"*, %"class.dealii::FiniteElement"** %x_source_fe.addr, align 8, !dbg !9292
  %5 = icmp eq %"class.dealii::FiniteElement"* %4, null, !dbg !9292
  br i1 %5, label %dynamic_cast.null, label %dynamic_cast.notnull, !dbg !9292

dynamic_cast.notnull:                             ; preds = %lor.rhs
  %6 = bitcast %"class.dealii::FiniteElement"* %4 to i8*, !dbg !9292
  %7 = call i8* @__dynamic_cast(i8* %6, i8* bitcast ({ i8*, i8*, i32, i32, i8*, i64, i8*, i64 }* @_ZTIN6dealii13FiniteElementILi3ELi3EEE to i8*), i8* bitcast ({ i8*, i8*, i8* }* @_ZTIN6dealii6FE_DGPILi3ELi3EEE to i8*), i64 0) #4, !dbg !9292
  %8 = bitcast i8* %7 to %"class.dealii::FE_DGP"*, !dbg !9292
  br label %dynamic_cast.end, !dbg !9292

dynamic_cast.null:                                ; preds = %lor.rhs
  br label %dynamic_cast.end, !dbg !9292

dynamic_cast.end:                                 ; preds = %dynamic_cast.null, %dynamic_cast.notnull
  %9 = phi %"class.dealii::FE_DGP"* [ %8, %dynamic_cast.notnull ], [ null, %dynamic_cast.null ], !dbg !9292
  %cmp2 = icmp ne %"class.dealii::FE_DGP"* %9, null, !dbg !9292
  br label %lor.end, !dbg !9292

lor.end:                                          ; preds = %dynamic_cast.end, %entry
  %10 = phi i1 [ true, %entry ], [ %cmp2, %dynamic_cast.end ]
  %lnot = xor i1 %10, true, !dbg !9292
  call void @_ZNSt7__cxx1112basic_stringIcSt11char_traitsIcESaIcEED1Ev(%"class.std::__cxx11::basic_string"* %ref.tmp) #4, !dbg !9292
  br i1 %lnot, label %if.then, label %if.end, !dbg !9295

if.then:                                          ; preds = %lor.end
  %11 = bitcast %"class.dealii::FiniteElement<3, 3>::ExcInterpolationNotImplemented"* %agg.tmp to i8*, !dbg !9292
  call void @llvm.memset.p0i8.i64(i8* align 8 %11, i8 0, i64 64, i1 false), !dbg !9292
  call void @_ZN6dealii13FiniteElementILi3ELi3EE30ExcInterpolationNotImplementedC2Ev(%"class.dealii::FiniteElement<3, 3>::ExcInterpolationNotImplemented"* %agg.tmp), !dbg !9292
  invoke void @_ZN6dealii18deal_II_exceptions9internals17issue_error_throwINS_13FiniteElementILi3ELi3EE30ExcInterpolationNotImplementedEEEvPKciS7_S7_S7_T_(i8* getelementptr inbounds ([20 x i8], [20 x i8]* @.str.12, i64 0, i64 0), i32 143, i8* getelementptr inbounds ([1 x i8], [1 x i8]* @.str.13, i64 0, i64 0), i8* getelementptr inbounds ([98 x i8], [98 x i8]* @.str.14, i64 0, i64 0), i8* getelementptr inbounds ([47 x i8], [47 x i8]* @.str.15, i64 0, i64 0), %"class.dealii::FiniteElement<3, 3>::ExcInterpolationNotImplemented"* %agg.tmp)
          to label %invoke.cont unwind label %lpad, !dbg !9292

invoke.cont:                                      ; preds = %if.then
  call void @_ZN6dealii13FiniteElementILi3ELi3EE30ExcInterpolationNotImplementedD2Ev(%"class.dealii::FiniteElement<3, 3>::ExcInterpolationNotImplemented"* %agg.tmp) #4, !dbg !9292
  br label %if.end, !dbg !9292

lpad:                                             ; preds = %if.then
  %12 = landingpad { i8*, i32 }
          cleanup, !dbg !9296
  %13 = extractvalue { i8*, i32 } %12, 0, !dbg !9296
  store i8* %13, i8** %exn.slot, align 8, !dbg !9296
  %14 = extractvalue { i8*, i32 } %12, 1, !dbg !9296
  store i32 %14, i32* %ehselector.slot, align 4, !dbg !9296
  call void @_ZN6dealii13FiniteElementILi3ELi3EE30ExcInterpolationNotImplementedD2Ev(%"class.dealii::FiniteElement<3, 3>::ExcInterpolationNotImplemented"* %agg.tmp) #4, !dbg !9292
  br label %eh.resume, !dbg !9292

if.end:                                           ; preds = %invoke.cont, %lor.end
  ret void, !dbg !9297

eh.resume:                                        ; preds = %lpad
  %exn = load i8*, i8** %exn.slot, align 8, !dbg !9292
  %sel = load i32, i32* %ehselector.slot, align 4, !dbg !9292
  %lpad.val = insertvalue { i8*, i32 } undef, i8* %exn, 0, !dbg !9292
  %lpad.val3 = insertvalue { i8*, i32 } %lpad.val, i32 %sel, 1, !dbg !9292
  resume { i8*, i32 } %lpad.val3, !dbg !9292
}

; Function Attrs: noinline nounwind uwtable
define weak_odr dso_local zeroext i1 @_ZNK6dealii6FE_DGPILi3ELi3EE19has_support_on_faceEjj(%"class.dealii::FE_DGP"* %this, i32 %0, i32 %1) unnamed_addr #1 comdat align 2 !dbg !9298 {
entry:
  %this.addr = alloca %"class.dealii::FE_DGP"*, align 8
  %.addr = alloca i32, align 4
  %.addr1 = alloca i32, align 4
  store %"class.dealii::FE_DGP"* %this, %"class.dealii::FE_DGP"** %this.addr, align 8
  call void @llvm.dbg.declare(metadata %"class.dealii::FE_DGP"** %this.addr, metadata !9299, metadata !DIExpression()), !dbg !9300
  store i32 %0, i32* %.addr, align 4
  call void @llvm.dbg.declare(metadata i32* %.addr, metadata !9301, metadata !DIExpression()), !dbg !9302
  store i32 %1, i32* %.addr1, align 4
  call void @llvm.dbg.declare(metadata i32* %.addr1, metadata !9303, metadata !DIExpression()), !dbg !9304
  %this2 = load %"class.dealii::FE_DGP"*, %"class.dealii::FE_DGP"** %this.addr, align 8
  ret i1 true, !dbg !9305
}

; Function Attrs: noinline nounwind uwtable
define weak_odr dso_local i32 @_ZNK6dealii6FE_DGPILi3ELi3EE18memory_consumptionEv(%"class.dealii::FE_DGP"* %this) unnamed_addr #1 comdat align 2 !dbg !9306 {
entry:
  %this.addr = alloca %"class.dealii::FE_DGP"*, align 8
  store %"class.dealii::FE_DGP"* %this, %"class.dealii::FE_DGP"** %this.addr, align 8
  call void @llvm.dbg.declare(metadata %"class.dealii::FE_DGP"** %this.addr, metadata !9307, metadata !DIExpression()), !dbg !9308
  %this1 = load %"class.dealii::FE_DGP"*, %"class.dealii::FE_DGP"** %this.addr, align 8
  ret i32 0, !dbg !9309
}

; Function Attrs: noinline uwtable
define weak_odr dso_local %"class.dealii::FiniteElement"* @_ZNK6dealii6FE_DGPILi3ELi3EE5cloneEv(%"class.dealii::FE_DGP"* %this) unnamed_addr #0 comdat align 2 personality i8* bitcast (i32 (...)* @__gxx_personality_v0 to i8*) !dbg !9310 {
entry:
  %this.addr = alloca %"class.dealii::FE_DGP"*, align 8
  %exn.slot = alloca i8*
  %ehselector.slot = alloca i32
  store %"class.dealii::FE_DGP"* %this, %"class.dealii::FE_DGP"** %this.addr, align 8
  call void @llvm.dbg.declare(metadata %"class.dealii::FE_DGP"** %this.addr, metadata !9311, metadata !DIExpression()), !dbg !9312
  %this1 = load %"class.dealii::FE_DGP"*, %"class.dealii::FE_DGP"** %this.addr, align 8
  %call = call i8* @_Znwm(i64 808) #15, !dbg !9313
  %0 = bitcast i8* %call to %"class.dealii::FE_DGP"*, !dbg !9313
  invoke void @_ZN6dealii6FE_DGPILi3ELi3EEC2ERKS1_(%"class.dealii::FE_DGP"* %0, %"class.dealii::FE_DGP"* dereferenceable(808) %this1)
          to label %invoke.cont unwind label %lpad, !dbg !9314

invoke.cont:                                      ; preds = %entry
  %1 = bitcast %"class.dealii::FE_DGP"* %0 to %"class.dealii::FiniteElement"*, !dbg !9313
  ret %"class.dealii::FiniteElement"* %1, !dbg !9315

lpad:                                             ; preds = %entry
  %2 = landingpad { i8*, i32 }
          cleanup, !dbg !9316
  %3 = extractvalue { i8*, i32 } %2, 0, !dbg !9316
  store i8* %3, i8** %exn.slot, align 8, !dbg !9316
  %4 = extractvalue { i8*, i32 } %2, 1, !dbg !9316
  store i32 %4, i32* %ehselector.slot, align 4, !dbg !9316
  call void @_ZdlPv(i8* %call) #16, !dbg !9313
  br label %eh.resume, !dbg !9313

eh.resume:                                        ; preds = %lpad
  %exn = load i8*, i8** %exn.slot, align 8, !dbg !9313
  %sel = load i32, i32* %ehselector.slot, align 4, !dbg !9313
  %lpad.val = insertvalue { i8*, i32 } undef, i8* %exn, 0, !dbg !9313
  %lpad.val2 = insertvalue { i8*, i32 } %lpad.val, i32 %sel, 1, !dbg !9313
  resume { i8*, i32 } %lpad.val2, !dbg !9313
}

; Function Attrs: nobuiltin
declare dso_local noalias i8* @_Znwm(i64) #8

; Function Attrs: noinline uwtable
define linkonce_odr dso_local void @_ZN6dealii6FE_DGPILi3ELi3EEC2ERKS1_(%"class.dealii::FE_DGP"* %this, %"class.dealii::FE_DGP"* dereferenceable(808) %0) unnamed_addr #0 comdat align 2 !dbg !9317 {
entry:
  %this.addr = alloca %"class.dealii::FE_DGP"*, align 8
  %.addr = alloca %"class.dealii::FE_DGP"*, align 8
  store %"class.dealii::FE_DGP"* %this, %"class.dealii::FE_DGP"** %this.addr, align 8
  call void @llvm.dbg.declare(metadata %"class.dealii::FE_DGP"** %this.addr, metadata !9322, metadata !DIExpression()), !dbg !9323
  store %"class.dealii::FE_DGP"* %0, %"class.dealii::FE_DGP"** %.addr, align 8
  call void @llvm.dbg.declare(metadata %"class.dealii::FE_DGP"** %.addr, metadata !9324, metadata !DIExpression()), !dbg !9323
  %this1 = load %"class.dealii::FE_DGP"*, %"class.dealii::FE_DGP"** %this.addr, align 8
  %1 = bitcast %"class.dealii::FE_DGP"* %this1 to %"class.dealii::FE_Poly"*, !dbg !9325
  %2 = load %"class.dealii::FE_DGP"*, %"class.dealii::FE_DGP"** %.addr, align 8, !dbg !9325
  %3 = bitcast %"class.dealii::FE_DGP"* %2 to %"class.dealii::FE_Poly"*, !dbg !9325
  call void @_ZN6dealii7FE_PolyINS_15PolynomialSpaceILi3EEELi3ELi3EEC2ERKS3_(%"class.dealii::FE_Poly"* %1, %"class.dealii::FE_Poly"* dereferenceable(808) %3), !dbg !9325
  %4 = bitcast %"class.dealii::FE_DGP"* %this1 to i32 (...)***, !dbg !9325
  store i32 (...)** bitcast (i8** getelementptr inbounds ({ [38 x i8*] }, { [38 x i8*] }* @_ZTVN6dealii6FE_DGPILi3ELi3EEE, i32 0, inrange i32 0, i32 2) to i32 (...)**), i32 (...)*** %4, align 8, !dbg !9325
  ret void, !dbg !9325
}

; Function Attrs: nobuiltin nounwind
declare dso_local void @_ZdlPv(i8*) #9

; Function Attrs: noinline nounwind uwtable
define linkonce_odr dso_local void @_ZNSaIjEC2Ev(%"class.std::allocator.56"* %this) unnamed_addr #1 comdat align 2 !dbg !9326 {
entry:
  %this.addr = alloca %"class.std::allocator.56"*, align 8
  store %"class.std::allocator.56"* %this, %"class.std::allocator.56"** %this.addr, align 8
  call void @llvm.dbg.declare(metadata %"class.std::allocator.56"** %this.addr, metadata !9327, metadata !DIExpression()), !dbg !9329
  %this1 = load %"class.std::allocator.56"*, %"class.std::allocator.56"** %this.addr, align 8
  %0 = bitcast %"class.std::allocator.56"* %this1 to %"class.__gnu_cxx::new_allocator.57"*, !dbg !9330
  call void @_ZN9__gnu_cxx13new_allocatorIjEC2Ev(%"class.__gnu_cxx::new_allocator.57"* %0) #4, !dbg !9331
  ret void, !dbg !9332
}

; Function Attrs: noinline uwtable
define linkonce_odr dso_local void @_ZNSt6vectorIjSaIjEEC2EmRKjRKS0_(%"class.std::vector.54"* %this, i64 %__n, i32* dereferenceable(4) %__value, %"class.std::allocator.56"* dereferenceable(1) %__a) unnamed_addr #0 comdat align 2 personality i8* bitcast (i32 (...)* @__gxx_personality_v0 to i8*) !dbg !9333 {
entry:
  %this.addr = alloca %"class.std::vector.54"*, align 8
  %__n.addr = alloca i64, align 8
  %__value.addr = alloca i32*, align 8
  %__a.addr = alloca %"class.std::allocator.56"*, align 8
  %exn.slot = alloca i8*
  %ehselector.slot = alloca i32
  store %"class.std::vector.54"* %this, %"class.std::vector.54"** %this.addr, align 8
  call void @llvm.dbg.declare(metadata %"class.std::vector.54"** %this.addr, metadata !9334, metadata !DIExpression()), !dbg !9335
  store i64 %__n, i64* %__n.addr, align 8
  call void @llvm.dbg.declare(metadata i64* %__n.addr, metadata !9336, metadata !DIExpression()), !dbg !9337
  store i32* %__value, i32** %__value.addr, align 8
  call void @llvm.dbg.declare(metadata i32** %__value.addr, metadata !9338, metadata !DIExpression()), !dbg !9339
  store %"class.std::allocator.56"* %__a, %"class.std::allocator.56"** %__a.addr, align 8
  call void @llvm.dbg.declare(metadata %"class.std::allocator.56"** %__a.addr, metadata !9340, metadata !DIExpression()), !dbg !9341
  %this1 = load %"class.std::vector.54"*, %"class.std::vector.54"** %this.addr, align 8
  %0 = bitcast %"class.std::vector.54"* %this1 to %"struct.std::_Vector_base.55"*, !dbg !9342
  %1 = load i64, i64* %__n.addr, align 8, !dbg !9343
  %2 = load %"class.std::allocator.56"*, %"class.std::allocator.56"** %__a.addr, align 8, !dbg !9344
  %call = call i64 @_ZNSt6vectorIjSaIjEE17_S_check_init_lenEmRKS0_(i64 %1, %"class.std::allocator.56"* dereferenceable(1) %2), !dbg !9345
  %3 = load %"class.std::allocator.56"*, %"class.std::allocator.56"** %__a.addr, align 8, !dbg !9346
  call void @_ZNSt12_Vector_baseIjSaIjEEC2EmRKS0_(%"struct.std::_Vector_base.55"* %0, i64 %call, %"class.std::allocator.56"* dereferenceable(1) %3), !dbg !9347
  %4 = load i64, i64* %__n.addr, align 8, !dbg !9348
  %5 = load i32*, i32** %__value.addr, align 8, !dbg !9350
  invoke void @_ZNSt6vectorIjSaIjEE18_M_fill_initializeEmRKj(%"class.std::vector.54"* %this1, i64 %4, i32* dereferenceable(4) %5)
          to label %invoke.cont unwind label %lpad, !dbg !9351

invoke.cont:                                      ; preds = %entry
  ret void, !dbg !9352

lpad:                                             ; preds = %entry
  %6 = landingpad { i8*, i32 }
          cleanup, !dbg !9353
  %7 = extractvalue { i8*, i32 } %6, 0, !dbg !9353
  store i8* %7, i8** %exn.slot, align 8, !dbg !9353
  %8 = extractvalue { i8*, i32 } %6, 1, !dbg !9353
  store i32 %8, i32* %ehselector.slot, align 4, !dbg !9353
  %9 = bitcast %"class.std::vector.54"* %this1 to %"struct.std::_Vector_base.55"*, !dbg !9353
  call void @_ZNSt12_Vector_baseIjSaIjEED2Ev(%"struct.std::_Vector_base.55"* %9) #4, !dbg !9353
  br label %eh.resume, !dbg !9353

eh.resume:                                        ; preds = %lpad
  %exn = load i8*, i8** %exn.slot, align 8, !dbg !9353
  %sel = load i32, i32* %ehselector.slot, align 4, !dbg !9353
  %lpad.val = insertvalue { i8*, i32 } undef, i8* %exn, 0, !dbg !9353
  %lpad.val2 = insertvalue { i8*, i32 } %lpad.val, i32 %sel, 1, !dbg !9353
  resume { i8*, i32 } %lpad.val2, !dbg !9353
}

; Function Attrs: noinline nounwind uwtable
define linkonce_odr dso_local void @_ZNSaIjED2Ev(%"class.std::allocator.56"* %this) unnamed_addr #1 comdat align 2 !dbg !9354 {
entry:
  %this.addr = alloca %"class.std::allocator.56"*, align 8
  store %"class.std::allocator.56"* %this, %"class.std::allocator.56"** %this.addr, align 8
  call void @llvm.dbg.declare(metadata %"class.std::allocator.56"** %this.addr, metadata !9355, metadata !DIExpression()), !dbg !9356
  %this1 = load %"class.std::allocator.56"*, %"class.std::allocator.56"** %this.addr, align 8
  %0 = bitcast %"class.std::allocator.56"* %this1 to %"class.__gnu_cxx::new_allocator.57"*, !dbg !9357
  call void @_ZN9__gnu_cxx13new_allocatorIjED2Ev(%"class.__gnu_cxx::new_allocator.57"* %0) #4, !dbg !9357
  ret void, !dbg !9359
}

; Function Attrs: noinline nounwind uwtable
define linkonce_odr dso_local dereferenceable(4) i32* @_ZNSt6vectorIjSaIjEEixEm(%"class.std::vector.54"* %this, i64 %__n) #1 comdat align 2 !dbg !9360 {
entry:
  %this.addr = alloca %"class.std::vector.54"*, align 8
  %__n.addr = alloca i64, align 8
  store %"class.std::vector.54"* %this, %"class.std::vector.54"** %this.addr, align 8
  call void @llvm.dbg.declare(metadata %"class.std::vector.54"** %this.addr, metadata !9361, metadata !DIExpression()), !dbg !9362
  store i64 %__n, i64* %__n.addr, align 8
  call void @llvm.dbg.declare(metadata i64* %__n.addr, metadata !9363, metadata !DIExpression()), !dbg !9364
  %this1 = load %"class.std::vector.54"*, %"class.std::vector.54"** %this.addr, align 8
  %0 = bitcast %"class.std::vector.54"* %this1 to %"struct.std::_Vector_base.55"*, !dbg !9365
  %_M_impl = getelementptr inbounds %"struct.std::_Vector_base.55", %"struct.std::_Vector_base.55"* %0, i32 0, i32 0, !dbg !9365
  %1 = bitcast %"struct.std::_Vector_base<unsigned int, std::allocator<unsigned int> >::_Vector_impl"* %_M_impl to %"struct.std::_Vector_base<unsigned int, std::allocator<unsigned int> >::_Vector_impl_data"*, !dbg !9366
  %_M_start = getelementptr inbounds %"struct.std::_Vector_base<unsigned int, std::allocator<unsigned int> >::_Vector_impl_data", %"struct.std::_Vector_base<unsigned int, std::allocator<unsigned int> >::_Vector_impl_data"* %1, i32 0, i32 0, !dbg !9367
  %2 = load i32*, i32** %_M_start, align 8, !dbg !9367
  %3 = load i64, i64* %__n.addr, align 8, !dbg !9368
  %add.ptr = getelementptr inbounds i32, i32* %2, i64 %3, !dbg !9369
  ret i32* %add.ptr, !dbg !9370
}

; Function Attrs: noinline nounwind uwtable
define linkonce_odr dso_local void @_ZN6dealii6FE_DGPILi3ELi3EED2Ev(%"class.dealii::FE_DGP"* %this) unnamed_addr #1 comdat align 2 !dbg !9371 {
entry:
  %this.addr = alloca %"class.dealii::FE_DGP"*, align 8
  store %"class.dealii::FE_DGP"* %this, %"class.dealii::FE_DGP"** %this.addr, align 8
  call void @llvm.dbg.declare(metadata %"class.dealii::FE_DGP"** %this.addr, metadata !9375, metadata !DIExpression()), !dbg !9376
  %this1 = load %"class.dealii::FE_DGP"*, %"class.dealii::FE_DGP"** %this.addr, align 8
  %0 = bitcast %"class.dealii::FE_DGP"* %this1 to %"class.dealii::FE_Poly"*, !dbg !9377
  call void @_ZN6dealii7FE_PolyINS_15PolynomialSpaceILi3EEELi3ELi3EED2Ev(%"class.dealii::FE_Poly"* %0) #4, !dbg !9377
  ret void, !dbg !9379
}

; Function Attrs: noinline nounwind uwtable
define linkonce_odr dso_local void @_ZN6dealii6FE_DGPILi3ELi3EED0Ev(%"class.dealii::FE_DGP"* %this) unnamed_addr #1 comdat align 2 !dbg !9380 {
entry:
  %this.addr = alloca %"class.dealii::FE_DGP"*, align 8
  store %"class.dealii::FE_DGP"* %this, %"class.dealii::FE_DGP"** %this.addr, align 8
  call void @llvm.dbg.declare(metadata %"class.dealii::FE_DGP"** %this.addr, metadata !9381, metadata !DIExpression()), !dbg !9382
  %this1 = load %"class.dealii::FE_DGP"*, %"class.dealii::FE_DGP"** %this.addr, align 8
  call void @_ZN6dealii6FE_DGPILi3ELi3EED2Ev(%"class.dealii::FE_DGP"* %this1) #4, !dbg !9383
  %0 = bitcast %"class.dealii::FE_DGP"* %this1 to i8*, !dbg !9383
  call void @_ZdlPv(i8* %0) #16, !dbg !9383
  ret void, !dbg !9383
}

declare dso_local double @_ZNK6dealii7FE_PolyINS_15PolynomialSpaceILi3EEELi3ELi3EE11shape_valueEjRKNS_5PointILi3EEE(%"class.dealii::FE_Poly"*, i32, %"class.dealii::Point"* dereferenceable(24)) unnamed_addr #2

declare dso_local double @_ZNK6dealii7FE_PolyINS_15PolynomialSpaceILi3EEELi3ELi3EE21shape_value_componentEjRKNS_5PointILi3EEEj(%"class.dealii::FE_Poly"*, i32, %"class.dealii::Point"* dereferenceable(24), i32) unnamed_addr #2

declare dso_local void @_ZNK6dealii7FE_PolyINS_15PolynomialSpaceILi3EEELi3ELi3EE10shape_gradEjRKNS_5PointILi3EEE(%"class.dealii::Tensor"* sret, %"class.dealii::FE_Poly"*, i32, %"class.dealii::Point"* dereferenceable(24)) unnamed_addr #2

declare dso_local void @_ZNK6dealii7FE_PolyINS_15PolynomialSpaceILi3EEELi3ELi3EE20shape_grad_componentEjRKNS_5PointILi3EEEj(%"class.dealii::Tensor"* sret, %"class.dealii::FE_Poly"*, i32, %"class.dealii::Point"* dereferenceable(24), i32) unnamed_addr #2

declare dso_local void @_ZNK6dealii7FE_PolyINS_15PolynomialSpaceILi3EEELi3ELi3EE15shape_grad_gradEjRKNS_5PointILi3EEE(%"class.dealii::Tensor.84"* sret, %"class.dealii::FE_Poly"*, i32, %"class.dealii::Point"* dereferenceable(24)) unnamed_addr #2

declare dso_local void @_ZNK6dealii7FE_PolyINS_15PolynomialSpaceILi3EEELi3ELi3EE25shape_grad_grad_componentEjRKNS_5PointILi3EEEj(%"class.dealii::Tensor.84"* sret, %"class.dealii::FE_Poly"*, i32, %"class.dealii::Point"* dereferenceable(24), i32) unnamed_addr #2

declare dso_local void @_ZNK6dealii13FiniteElementILi3ELi3EE24get_interpolation_matrixERKS1_RNS_10FullMatrixIdEE(%"class.dealii::FiniteElement"*, %"class.dealii::FiniteElement"* dereferenceable(728), %"class.dealii::FullMatrix"* dereferenceable(96)) unnamed_addr #2

declare dso_local i32 @_ZNK6dealii7FE_PolyINS_15PolynomialSpaceILi3EEELi3ELi3EE15n_base_elementsEv(%"class.dealii::FE_Poly"*) unnamed_addr #2

declare dso_local dereferenceable(728) %"class.dealii::FiniteElement"* @_ZNK6dealii7FE_PolyINS_15PolynomialSpaceILi3EEELi3ELi3EE12base_elementEj(%"class.dealii::FE_Poly"*, i32) unnamed_addr #2

declare dso_local i32 @_ZNK6dealii7FE_PolyINS_15PolynomialSpaceILi3EEELi3ELi3EE20element_multiplicityEj(%"class.dealii::FE_Poly"*, i32) unnamed_addr #2

declare dso_local void @_ZNK6dealii13FiniteElementILi3ELi3EE18unit_support_pointEj(%"class.dealii::Point"* sret, %"class.dealii::FiniteElement"*, i32) unnamed_addr #2

declare dso_local void @_ZNK6dealii13FiniteElementILi3ELi3EE23unit_face_support_pointEj(%"class.dealii::Point.30"* sret, %"class.dealii::FiniteElement"*, i32) unnamed_addr #2

declare dso_local void @_ZNK6dealii13FiniteElementILi3ELi3EE11interpolateERSt6vectorIdSaIdEERKS4_(%"class.dealii::FiniteElement"*, %"class.std::vector.73"* dereferenceable(24), %"class.std::vector.73"* dereferenceable(24)) unnamed_addr #2

declare dso_local void @_ZNK6dealii13FiniteElementILi3ELi3EE11interpolateERSt6vectorIdSaIdEERKS2_INS_6VectorIdEESaIS7_EEj(%"class.dealii::FiniteElement"*, %"class.std::vector.73"* dereferenceable(24), %"class.std::vector.85"* nonnull, i32) unnamed_addr #2

declare dso_local void @_ZNK6dealii13FiniteElementILi3ELi3EE11interpolateERSt6vectorIdSaIdEERKNS_11VectorSliceIKS2_IS4_SaIS4_EEEE(%"class.dealii::FiniteElement"*, %"class.std::vector.73"* dereferenceable(24), %"class.dealii::VectorSlice"* nonnull) unnamed_addr #2

declare dso_local i32 @_ZNK6dealii7FE_PolyINS_15PolynomialSpaceILi3EEELi3ELi3EE11update_onceENS_11UpdateFlagsE(%"class.dealii::FE_Poly"*, i32) unnamed_addr #2

declare dso_local i32 @_ZNK6dealii7FE_PolyINS_15PolynomialSpaceILi3EEELi3ELi3EE11update_eachENS_11UpdateFlagsE(%"class.dealii::FE_Poly"*, i32) unnamed_addr #2

declare dso_local %"class.dealii::Mapping<3, 3>::InternalDataBase"* @_ZNK6dealii7FE_PolyINS_15PolynomialSpaceILi3EEELi3ELi3EE8get_dataENS_11UpdateFlagsERKNS_7MappingILi3ELi3EEERKNS_10QuadratureILi3EEE(%"class.dealii::FE_Poly"*, i32, %"class.dealii::Mapping"* dereferenceable(72), %"class.dealii::Quadrature"* nonnull) unnamed_addr #2

declare dso_local %"class.dealii::Mapping<3, 3>::InternalDataBase"* @_ZNK6dealii13FiniteElementILi3ELi3EE13get_face_dataENS_11UpdateFlagsERKNS_7MappingILi3ELi3EEERKNS_10QuadratureILi2EEE(%"class.dealii::FiniteElement"*, i32, %"class.dealii::Mapping"* dereferenceable(72), %"class.dealii::Quadrature.86"* nonnull) unnamed_addr #2

declare dso_local %"class.dealii::Mapping<3, 3>::InternalDataBase"* @_ZNK6dealii13FiniteElementILi3ELi3EE16get_subface_dataENS_11UpdateFlagsERKNS_7MappingILi3ELi3EEERKNS_10QuadratureILi2EEE(%"class.dealii::FiniteElement"*, i32, %"class.dealii::Mapping"* dereferenceable(72), %"class.dealii::Quadrature.86"* nonnull) unnamed_addr #2

declare dso_local void @_ZNK6dealii7FE_PolyINS_15PolynomialSpaceILi3EEELi3ELi3EE14fill_fe_valuesERKNS_7MappingILi3ELi3EEERKNS_12TriaIteratorINS_12CellAccessorILi3ELi3EEEEERKNS_10QuadratureILi3EEERNS5_16InternalDataBaseESJ_RNS_12FEValuesDataILi3ELi3EEERNS_14CellSimilarity10SimilarityE(%"class.dealii::FE_Poly"*, %"class.dealii::Mapping"* dereferenceable(72), %"class.dealii::TriaIterator"* nonnull, %"class.dealii::Quadrature"* nonnull, %"class.dealii::Mapping<3, 3>::InternalDataBase"* nonnull, %"class.dealii::Mapping<3, 3>::InternalDataBase"* nonnull, %"class.dealii::FEValuesData"* nonnull, i32* dereferenceable(4)) unnamed_addr #2

declare dso_local void @_ZNK6dealii7FE_PolyINS_15PolynomialSpaceILi3EEELi3ELi3EE19fill_fe_face_valuesERKNS_7MappingILi3ELi3EEERKNS_12TriaIteratorINS_12CellAccessorILi3ELi3EEEEEjRKNS_10QuadratureILi2EEERNS5_16InternalDataBaseESJ_RNS_12FEValuesDataILi3ELi3EEE(%"class.dealii::FE_Poly"*, %"class.dealii::Mapping"* dereferenceable(72), %"class.dealii::TriaIterator"* nonnull, i32, %"class.dealii::Quadrature.86"* nonnull, %"class.dealii::Mapping<3, 3>::InternalDataBase"* nonnull, %"class.dealii::Mapping<3, 3>::InternalDataBase"* nonnull, %"class.dealii::FEValuesData"* nonnull) unnamed_addr #2

declare dso_local void @_ZNK6dealii7FE_PolyINS_15PolynomialSpaceILi3EEELi3ELi3EE22fill_fe_subface_valuesERKNS_7MappingILi3ELi3EEERKNS_12TriaIteratorINS_12CellAccessorILi3ELi3EEEEEjjRKNS_10QuadratureILi2EEERNS5_16InternalDataBaseESJ_RNS_12FEValuesDataILi3ELi3EEE(%"class.dealii::FE_Poly"*, %"class.dealii::Mapping"* dereferenceable(72), %"class.dealii::TriaIterator"* nonnull, i32, i32, %"class.dealii::Quadrature.86"* nonnull, %"class.dealii::Mapping<3, 3>::InternalDataBase"* nonnull, %"class.dealii::Mapping<3, 3>::InternalDataBase"* nonnull, %"class.dealii::FEValuesData"* nonnull) unnamed_addr #2

; Function Attrs: nounwind
declare dso_local void @_ZN6dealii13FiniteElementILi3ELi3EED2Ev(%"class.dealii::FiniteElement"*) unnamed_addr #3

; Function Attrs: noinline nounwind uwtable
define linkonce_odr dso_local void @_ZN6dealii7FE_PolyINS_15PolynomialSpaceILi3EEELi3ELi3EED2Ev(%"class.dealii::FE_Poly"* %this) unnamed_addr #1 comdat align 2 !dbg !9384 {
entry:
  %this.addr = alloca %"class.dealii::FE_Poly"*, align 8
  store %"class.dealii::FE_Poly"* %this, %"class.dealii::FE_Poly"** %this.addr, align 8
  call void @llvm.dbg.declare(metadata %"class.dealii::FE_Poly"** %this.addr, metadata !9388, metadata !DIExpression()), !dbg !9390
  %this1 = load %"class.dealii::FE_Poly"*, %"class.dealii::FE_Poly"** %this.addr, align 8
  %0 = bitcast %"class.dealii::FE_Poly"* %this1 to i32 (...)***, !dbg !9391
  store i32 (...)** bitcast (i8** getelementptr inbounds ({ [38 x i8*] }, { [38 x i8*] }* @_ZTVN6dealii7FE_PolyINS_15PolynomialSpaceILi3EEELi3ELi3EEE, i32 0, inrange i32 0, i32 2) to i32 (...)**), i32 (...)*** %0, align 8, !dbg !9391
  %poly_space = getelementptr inbounds %"class.dealii::FE_Poly", %"class.dealii::FE_Poly"* %this1, i32 0, i32 1, !dbg !9392
  call void @_ZN6dealii15PolynomialSpaceILi3EED2Ev(%"class.dealii::PolynomialSpace"* %poly_space) #4, !dbg !9392
  %1 = bitcast %"class.dealii::FE_Poly"* %this1 to %"class.dealii::FiniteElement"*, !dbg !9392
  call void @_ZN6dealii13FiniteElementILi3ELi3EED2Ev(%"class.dealii::FiniteElement"* %1) #4, !dbg !9392
  ret void, !dbg !9391
}

; Function Attrs: noinline nounwind uwtable
define linkonce_odr dso_local void @_ZN6dealii7FE_PolyINS_15PolynomialSpaceILi3EEELi3ELi3EED0Ev(%"class.dealii::FE_Poly"* %this) unnamed_addr #1 comdat align 2 !dbg !9394 {
entry:
  %this.addr = alloca %"class.dealii::FE_Poly"*, align 8
  store %"class.dealii::FE_Poly"* %this, %"class.dealii::FE_Poly"** %this.addr, align 8
  call void @llvm.dbg.declare(metadata %"class.dealii::FE_Poly"** %this.addr, metadata !9395, metadata !DIExpression()), !dbg !9396
  %this1 = load %"class.dealii::FE_Poly"*, %"class.dealii::FE_Poly"** %this.addr, align 8
  call void @llvm.trap() #13, !dbg !9397
  unreachable, !dbg !9397
}

declare dso_local void @__cxa_pure_virtual() unnamed_addr

declare dso_local zeroext i1 @_ZNK6dealii13FiniteElementILi3ELi3EE19has_support_on_faceEjj(%"class.dealii::FiniteElement"*, i32, i32) unnamed_addr #2

declare dso_local zeroext i1 @_ZNK6dealii13FiniteElementILi3ELi3EE30hp_constraints_are_implementedEv(%"class.dealii::FiniteElement"*) unnamed_addr #2

declare dso_local void @_ZNK6dealii13FiniteElementILi3ELi3EE29get_face_interpolation_matrixERKS1_RNS_10FullMatrixIdEE(%"class.dealii::FiniteElement"*, %"class.dealii::FiniteElement"* dereferenceable(728), %"class.dealii::FullMatrix"* dereferenceable(96)) unnamed_addr #2

declare dso_local void @_ZNK6dealii13FiniteElementILi3ELi3EE32get_subface_interpolation_matrixERKS1_jRNS_10FullMatrixIdEE(%"class.dealii::FiniteElement"*, %"class.dealii::FiniteElement"* dereferenceable(728), i32, %"class.dealii::FullMatrix"* dereferenceable(96)) unnamed_addr #2

declare dso_local void @_ZNK6dealii13FiniteElementILi3ELi3EE24hp_vertex_dof_identitiesERKS1_(%"class.std::vector.41"* sret, %"class.dealii::FiniteElement"*, %"class.dealii::FiniteElement"* dereferenceable(728)) unnamed_addr #2

declare dso_local void @_ZNK6dealii13FiniteElementILi3ELi3EE22hp_line_dof_identitiesERKS1_(%"class.std::vector.41"* sret, %"class.dealii::FiniteElement"*, %"class.dealii::FiniteElement"* dereferenceable(728)) unnamed_addr #2

declare dso_local void @_ZNK6dealii13FiniteElementILi3ELi3EE22hp_quad_dof_identitiesERKS1_(%"class.std::vector.41"* sret, %"class.dealii::FiniteElement"*, %"class.dealii::FiniteElement"* dereferenceable(728)) unnamed_addr #2

declare dso_local i32 @_ZNK6dealii13FiniteElementILi3ELi3EE27compare_for_face_dominationERKS1_(%"class.dealii::FiniteElement"*, %"class.dealii::FiniteElement"* dereferenceable(728)) unnamed_addr #2

declare dso_local i32 @_ZNK6dealii13FiniteElementILi3ELi3EE18memory_consumptionEv(%"class.dealii::FiniteElement"*) unnamed_addr #2

; Function Attrs: cold noreturn nounwind
declare void @llvm.trap() #10

; Function Attrs: noinline nounwind uwtable
define linkonce_odr dso_local void @_ZNSt12_Vector_baseISt4pairIjjESaIS1_EEC2Ev(%"struct.std::_Vector_base.42"* %this) unnamed_addr #1 comdat align 2 !dbg !9398 {
entry:
  %this.addr = alloca %"struct.std::_Vector_base.42"*, align 8
  store %"struct.std::_Vector_base.42"* %this, %"struct.std::_Vector_base.42"** %this.addr, align 8
  call void @llvm.dbg.declare(metadata %"struct.std::_Vector_base.42"** %this.addr, metadata !9399, metadata !DIExpression()), !dbg !9401
  %this1 = load %"struct.std::_Vector_base.42"*, %"struct.std::_Vector_base.42"** %this.addr, align 8
  %_M_impl = getelementptr inbounds %"struct.std::_Vector_base.42", %"struct.std::_Vector_base.42"* %this1, i32 0, i32 0, !dbg !9402
  call void @_ZNSt12_Vector_baseISt4pairIjjESaIS1_EE12_Vector_implC2Ev(%"struct.std::_Vector_base<std::pair<unsigned int, unsigned int>, std::allocator<std::pair<unsigned int, unsigned int> > >::_Vector_impl"* %_M_impl) #4, !dbg !9402
  ret void, !dbg !9403
}

; Function Attrs: noinline nounwind uwtable
define linkonce_odr dso_local void @_ZNSt12_Vector_baseISt4pairIjjESaIS1_EE12_Vector_implC2Ev(%"struct.std::_Vector_base<std::pair<unsigned int, unsigned int>, std::allocator<std::pair<unsigned int, unsigned int> > >::_Vector_impl"* %this) unnamed_addr #1 comdat align 2 !dbg !9404 {
entry:
  %this.addr = alloca %"struct.std::_Vector_base<std::pair<unsigned int, unsigned int>, std::allocator<std::pair<unsigned int, unsigned int> > >::_Vector_impl"*, align 8
  store %"struct.std::_Vector_base<std::pair<unsigned int, unsigned int>, std::allocator<std::pair<unsigned int, unsigned int> > >::_Vector_impl"* %this, %"struct.std::_Vector_base<std::pair<unsigned int, unsigned int>, std::allocator<std::pair<unsigned int, unsigned int> > >::_Vector_impl"** %this.addr, align 8
  call void @llvm.dbg.declare(metadata %"struct.std::_Vector_base<std::pair<unsigned int, unsigned int>, std::allocator<std::pair<unsigned int, unsigned int> > >::_Vector_impl"** %this.addr, metadata !9405, metadata !DIExpression()), !dbg !9407
  %this1 = load %"struct.std::_Vector_base<std::pair<unsigned int, unsigned int>, std::allocator<std::pair<unsigned int, unsigned int> > >::_Vector_impl"*, %"struct.std::_Vector_base<std::pair<unsigned int, unsigned int>, std::allocator<std::pair<unsigned int, unsigned int> > >::_Vector_impl"** %this.addr, align 8
  %0 = bitcast %"struct.std::_Vector_base<std::pair<unsigned int, unsigned int>, std::allocator<std::pair<unsigned int, unsigned int> > >::_Vector_impl"* %this1 to %"class.std::allocator.43"*, !dbg !9408
  call void @_ZNSaISt4pairIjjEEC2Ev(%"class.std::allocator.43"* %0) #4, !dbg !9409
  %1 = bitcast %"struct.std::_Vector_base<std::pair<unsigned int, unsigned int>, std::allocator<std::pair<unsigned int, unsigned int> > >::_Vector_impl"* %this1 to %"struct.std::_Vector_base<std::pair<unsigned int, unsigned int>, std::allocator<std::pair<unsigned int, unsigned int> > >::_Vector_impl_data"*, !dbg !9408
  call void @_ZNSt12_Vector_baseISt4pairIjjESaIS1_EE17_Vector_impl_dataC2Ev(%"struct.std::_Vector_base<std::pair<unsigned int, unsigned int>, std::allocator<std::pair<unsigned int, unsigned int> > >::_Vector_impl_data"* %1) #4, !dbg !9410
  ret void, !dbg !9411
}

; Function Attrs: noinline nounwind uwtable
define linkonce_odr dso_local void @_ZNSaISt4pairIjjEEC2Ev(%"class.std::allocator.43"* %this) unnamed_addr #1 comdat align 2 !dbg !9412 {
entry:
  %this.addr = alloca %"class.std::allocator.43"*, align 8
  store %"class.std::allocator.43"* %this, %"class.std::allocator.43"** %this.addr, align 8
  call void @llvm.dbg.declare(metadata %"class.std::allocator.43"** %this.addr, metadata !9413, metadata !DIExpression()), !dbg !9415
  %this1 = load %"class.std::allocator.43"*, %"class.std::allocator.43"** %this.addr, align 8
  %0 = bitcast %"class.std::allocator.43"* %this1 to %"class.__gnu_cxx::new_allocator.44"*, !dbg !9416
  call void @_ZN9__gnu_cxx13new_allocatorISt4pairIjjEEC2Ev(%"class.__gnu_cxx::new_allocator.44"* %0) #4, !dbg !9417
  ret void, !dbg !9418
}

; Function Attrs: noinline nounwind uwtable
define linkonce_odr dso_local void @_ZNSt12_Vector_baseISt4pairIjjESaIS1_EE17_Vector_impl_dataC2Ev(%"struct.std::_Vector_base<std::pair<unsigned int, unsigned int>, std::allocator<std::pair<unsigned int, unsigned int> > >::_Vector_impl_data"* %this) unnamed_addr #1 comdat align 2 !dbg !9419 {
entry:
  %this.addr = alloca %"struct.std::_Vector_base<std::pair<unsigned int, unsigned int>, std::allocator<std::pair<unsigned int, unsigned int> > >::_Vector_impl_data"*, align 8
  store %"struct.std::_Vector_base<std::pair<unsigned int, unsigned int>, std::allocator<std::pair<unsigned int, unsigned int> > >::_Vector_impl_data"* %this, %"struct.std::_Vector_base<std::pair<unsigned int, unsigned int>, std::allocator<std::pair<unsigned int, unsigned int> > >::_Vector_impl_data"** %this.addr, align 8
  call void @llvm.dbg.declare(metadata %"struct.std::_Vector_base<std::pair<unsigned int, unsigned int>, std::allocator<std::pair<unsigned int, unsigned int> > >::_Vector_impl_data"** %this.addr, metadata !9420, metadata !DIExpression()), !dbg !9422
  %this1 = load %"struct.std::_Vector_base<std::pair<unsigned int, unsigned int>, std::allocator<std::pair<unsigned int, unsigned int> > >::_Vector_impl_data"*, %"struct.std::_Vector_base<std::pair<unsigned int, unsigned int>, std::allocator<std::pair<unsigned int, unsigned int> > >::_Vector_impl_data"** %this.addr, align 8
  %_M_start = getelementptr inbounds %"struct.std::_Vector_base<std::pair<unsigned int, unsigned int>, std::allocator<std::pair<unsigned int, unsigned int> > >::_Vector_impl_data", %"struct.std::_Vector_base<std::pair<unsigned int, unsigned int>, std::allocator<std::pair<unsigned int, unsigned int> > >::_Vector_impl_data"* %this1, i32 0, i32 0, !dbg !9423
  store %"struct.std::pair"* null, %"struct.std::pair"** %_M_start, align 8, !dbg !9423
  %_M_finish = getelementptr inbounds %"struct.std::_Vector_base<std::pair<unsigned int, unsigned int>, std::allocator<std::pair<unsigned int, unsigned int> > >::_Vector_impl_data", %"struct.std::_Vector_base<std::pair<unsigned int, unsigned int>, std::allocator<std::pair<unsigned int, unsigned int> > >::_Vector_impl_data"* %this1, i32 0, i32 1, !dbg !9424
  store %"struct.std::pair"* null, %"struct.std::pair"** %_M_finish, align 8, !dbg !9424
  %_M_end_of_storage = getelementptr inbounds %"struct.std::_Vector_base<std::pair<unsigned int, unsigned int>, std::allocator<std::pair<unsigned int, unsigned int> > >::_Vector_impl_data", %"struct.std::_Vector_base<std::pair<unsigned int, unsigned int>, std::allocator<std::pair<unsigned int, unsigned int> > >::_Vector_impl_data"* %this1, i32 0, i32 2, !dbg !9425
  store %"struct.std::pair"* null, %"struct.std::pair"** %_M_end_of_storage, align 8, !dbg !9425
  ret void, !dbg !9426
}

; Function Attrs: noinline nounwind uwtable
define linkonce_odr dso_local void @_ZN9__gnu_cxx13new_allocatorISt4pairIjjEEC2Ev(%"class.__gnu_cxx::new_allocator.44"* %this) unnamed_addr #1 comdat align 2 !dbg !9427 {
entry:
  %this.addr = alloca %"class.__gnu_cxx::new_allocator.44"*, align 8
  store %"class.__gnu_cxx::new_allocator.44"* %this, %"class.__gnu_cxx::new_allocator.44"** %this.addr, align 8
  call void @llvm.dbg.declare(metadata %"class.__gnu_cxx::new_allocator.44"** %this.addr, metadata !9428, metadata !DIExpression()), !dbg !9430
  %this1 = load %"class.__gnu_cxx::new_allocator.44"*, %"class.__gnu_cxx::new_allocator.44"** %this.addr, align 8
  ret void, !dbg !9431
}

declare dso_local void @_ZN6dealii13ExceptionBaseC2Ev(%"class.dealii::ExceptionBase"*) unnamed_addr #2

; Function Attrs: noinline nounwind uwtable
define linkonce_odr dso_local void @_ZN6dealii13FiniteElementILi3ELi3EE30ExcInterpolationNotImplementedD0Ev(%"class.dealii::FiniteElement<3, 3>::ExcInterpolationNotImplemented"* %this) unnamed_addr #1 comdat align 2 !dbg !9432 {
entry:
  %this.addr = alloca %"class.dealii::FiniteElement<3, 3>::ExcInterpolationNotImplemented"*, align 8
  store %"class.dealii::FiniteElement<3, 3>::ExcInterpolationNotImplemented"* %this, %"class.dealii::FiniteElement<3, 3>::ExcInterpolationNotImplemented"** %this.addr, align 8
  call void @llvm.dbg.declare(metadata %"class.dealii::FiniteElement<3, 3>::ExcInterpolationNotImplemented"** %this.addr, metadata !9433, metadata !DIExpression()), !dbg !9434
  %this1 = load %"class.dealii::FiniteElement<3, 3>::ExcInterpolationNotImplemented"*, %"class.dealii::FiniteElement<3, 3>::ExcInterpolationNotImplemented"** %this.addr, align 8
  call void @_ZN6dealii13FiniteElementILi3ELi3EE30ExcInterpolationNotImplementedD2Ev(%"class.dealii::FiniteElement<3, 3>::ExcInterpolationNotImplemented"* %this1) #4, !dbg !9435
  %0 = bitcast %"class.dealii::FiniteElement<3, 3>::ExcInterpolationNotImplemented"* %this1 to i8*, !dbg !9435
  call void @_ZdlPv(i8* %0) #16, !dbg !9435
  ret void, !dbg !9435
}

; Function Attrs: nounwind
declare dso_local i8* @_ZNK6dealii13ExceptionBase4whatEv(%"class.dealii::ExceptionBase"*) unnamed_addr #3

declare dso_local void @_ZNK6dealii13ExceptionBase10print_infoERSo(%"class.dealii::ExceptionBase"*, %"class.std::basic_ostream"* dereferenceable(272)) unnamed_addr #2

; Function Attrs: nounwind
declare dso_local void @_ZN6dealii13ExceptionBaseD2Ev(%"class.dealii::ExceptionBase"*) unnamed_addr #3

; Function Attrs: noinline uwtable
define linkonce_odr dso_local void @_ZN6dealii7FE_PolyINS_15PolynomialSpaceILi3EEELi3ELi3EEC2ERKS3_(%"class.dealii::FE_Poly"* %this, %"class.dealii::FE_Poly"* dereferenceable(808) %0) unnamed_addr #0 comdat align 2 personality i8* bitcast (i32 (...)* @__gxx_personality_v0 to i8*) !dbg !9436 {
entry:
  %this.addr = alloca %"class.dealii::FE_Poly"*, align 8
  %.addr = alloca %"class.dealii::FE_Poly"*, align 8
  %exn.slot = alloca i8*
  %ehselector.slot = alloca i32
  store %"class.dealii::FE_Poly"* %this, %"class.dealii::FE_Poly"** %this.addr, align 8
  call void @llvm.dbg.declare(metadata %"class.dealii::FE_Poly"** %this.addr, metadata !9441, metadata !DIExpression()), !dbg !9442
  store %"class.dealii::FE_Poly"* %0, %"class.dealii::FE_Poly"** %.addr, align 8
  call void @llvm.dbg.declare(metadata %"class.dealii::FE_Poly"** %.addr, metadata !9443, metadata !DIExpression()), !dbg !9442
  %this1 = load %"class.dealii::FE_Poly"*, %"class.dealii::FE_Poly"** %this.addr, align 8
  %1 = bitcast %"class.dealii::FE_Poly"* %this1 to %"class.dealii::FiniteElement"*, !dbg !9444
  %2 = load %"class.dealii::FE_Poly"*, %"class.dealii::FE_Poly"** %.addr, align 8, !dbg !9444
  %3 = bitcast %"class.dealii::FE_Poly"* %2 to %"class.dealii::FiniteElement"*, !dbg !9444
  call void @_ZN6dealii13FiniteElementILi3ELi3EEC2ERKS1_(%"class.dealii::FiniteElement"* %1, %"class.dealii::FiniteElement"* dereferenceable(728) %3), !dbg !9444
  %4 = bitcast %"class.dealii::FE_Poly"* %this1 to i32 (...)***, !dbg !9444
  store i32 (...)** bitcast (i8** getelementptr inbounds ({ [38 x i8*] }, { [38 x i8*] }* @_ZTVN6dealii7FE_PolyINS_15PolynomialSpaceILi3EEELi3ELi3EEE, i32 0, inrange i32 0, i32 2) to i32 (...)**), i32 (...)*** %4, align 8, !dbg !9444
  %poly_space = getelementptr inbounds %"class.dealii::FE_Poly", %"class.dealii::FE_Poly"* %this1, i32 0, i32 1, !dbg !9444
  %5 = load %"class.dealii::FE_Poly"*, %"class.dealii::FE_Poly"** %.addr, align 8, !dbg !9444
  %poly_space2 = getelementptr inbounds %"class.dealii::FE_Poly", %"class.dealii::FE_Poly"* %5, i32 0, i32 1, !dbg !9444
  invoke void @_ZN6dealii15PolynomialSpaceILi3EEC2ERKS1_(%"class.dealii::PolynomialSpace"* %poly_space, %"class.dealii::PolynomialSpace"* dereferenceable(80) %poly_space2)
          to label %invoke.cont unwind label %lpad, !dbg !9444

invoke.cont:                                      ; preds = %entry
  ret void, !dbg !9444

lpad:                                             ; preds = %entry
  %6 = landingpad { i8*, i32 }
          cleanup, !dbg !9444
  %7 = extractvalue { i8*, i32 } %6, 0, !dbg !9444
  store i8* %7, i8** %exn.slot, align 8, !dbg !9444
  %8 = extractvalue { i8*, i32 } %6, 1, !dbg !9444
  store i32 %8, i32* %ehselector.slot, align 4, !dbg !9444
  %9 = bitcast %"class.dealii::FE_Poly"* %this1 to %"class.dealii::FiniteElement"*, !dbg !9445
  call void @_ZN6dealii13FiniteElementILi3ELi3EED2Ev(%"class.dealii::FiniteElement"* %9) #4, !dbg !9445
  br label %eh.resume, !dbg !9445

eh.resume:                                        ; preds = %lpad
  %exn = load i8*, i8** %exn.slot, align 8, !dbg !9445
  %sel = load i32, i32* %ehselector.slot, align 4, !dbg !9445
  %lpad.val = insertvalue { i8*, i32 } undef, i8* %exn, 0, !dbg !9445
  %lpad.val3 = insertvalue { i8*, i32 } %lpad.val, i32 %sel, 1, !dbg !9445
  resume { i8*, i32 } %lpad.val3, !dbg !9445
}

; Function Attrs: noinline uwtable
define linkonce_odr dso_local void @_ZN6dealii13FiniteElementILi3ELi3EEC2ERKS1_(%"class.dealii::FiniteElement"* %this, %"class.dealii::FiniteElement"* dereferenceable(728) %0) unnamed_addr #0 comdat align 2 personality i8* bitcast (i32 (...)* @__gxx_personality_v0 to i8*) !dbg !9447 {
entry:
  %this.addr = alloca %"class.dealii::FiniteElement"*, align 8
  %.addr = alloca %"class.dealii::FiniteElement"*, align 8
  %exn.slot = alloca i8*
  %ehselector.slot = alloca i32
  store %"class.dealii::FiniteElement"* %this, %"class.dealii::FiniteElement"** %this.addr, align 8
  call void @llvm.dbg.declare(metadata %"class.dealii::FiniteElement"** %this.addr, metadata !9451, metadata !DIExpression()), !dbg !9452
  store %"class.dealii::FiniteElement"* %0, %"class.dealii::FiniteElement"** %.addr, align 8
  call void @llvm.dbg.declare(metadata %"class.dealii::FiniteElement"** %.addr, metadata !9453, metadata !DIExpression()), !dbg !9452
  %this1 = load %"class.dealii::FiniteElement"*, %"class.dealii::FiniteElement"** %this.addr, align 8
  %1 = bitcast %"class.dealii::FiniteElement"* %this1 to %"class.dealii::Subscriptor"*, !dbg !9454
  %2 = load %"class.dealii::FiniteElement"*, %"class.dealii::FiniteElement"** %.addr, align 8, !dbg !9454
  %3 = bitcast %"class.dealii::FiniteElement"* %2 to %"class.dealii::Subscriptor"*, !dbg !9454
  call void @_ZN6dealii11SubscriptorC2ERKS0_(%"class.dealii::Subscriptor"* %1, %"class.dealii::Subscriptor"* dereferenceable(72) %3), !dbg !9454
  %4 = bitcast %"class.dealii::FiniteElement"* %this1 to i8*, !dbg !9454
  %5 = getelementptr inbounds i8, i8* %4, i64 72, !dbg !9454
  %6 = bitcast i8* %5 to %"class.dealii::FiniteElementData"*, !dbg !9454
  %7 = load %"class.dealii::FiniteElement"*, %"class.dealii::FiniteElement"** %.addr, align 8, !dbg !9454
  %8 = bitcast %"class.dealii::FiniteElement"* %7 to i8*, !dbg !9454
  %add.ptr = getelementptr inbounds i8, i8* %8, i64 72, !dbg !9454
  %9 = bitcast i8* %add.ptr to %"class.dealii::FiniteElementData"*, !dbg !9454
  %10 = bitcast %"class.dealii::FiniteElementData"* %6 to i8*, !dbg !9454
  %11 = bitcast %"class.dealii::FiniteElementData"* %9 to i8*, !dbg !9454
  call void @llvm.memcpy.p0i8.p0i8.i64(i8* align 8 %10, i8* align 8 %11, i64 60, i1 false), !dbg !9454
  %12 = bitcast %"class.dealii::FiniteElement"* %this1 to i32 (...)***, !dbg !9454
  store i32 (...)** bitcast (i8** getelementptr inbounds ({ [38 x i8*] }, { [38 x i8*] }* @_ZTVN6dealii13FiniteElementILi3ELi3EEE, i32 0, inrange i32 0, i32 2) to i32 (...)**), i32 (...)*** %12, align 8, !dbg !9454
  %cached_primitivity = getelementptr inbounds %"class.dealii::FiniteElement", %"class.dealii::FiniteElement"* %this1, i32 0, i32 2, !dbg !9454
  %13 = load %"class.dealii::FiniteElement"*, %"class.dealii::FiniteElement"** %.addr, align 8, !dbg !9454
  %cached_primitivity2 = getelementptr inbounds %"class.dealii::FiniteElement", %"class.dealii::FiniteElement"* %13, i32 0, i32 2, !dbg !9454
  %14 = load i8, i8* %cached_primitivity2, align 4, !dbg !9454
  %tobool = trunc i8 %14 to i1, !dbg !9454
  %frombool = zext i1 %tobool to i8, !dbg !9454
  store i8 %frombool, i8* %cached_primitivity, align 4, !dbg !9454
  %restriction = getelementptr inbounds %"class.dealii::FiniteElement", %"class.dealii::FiniteElement"* %this1, i32 0, i32 3, !dbg !9454
  %15 = load %"class.dealii::FiniteElement"*, %"class.dealii::FiniteElement"** %.addr, align 8, !dbg !9454
  %restriction3 = getelementptr inbounds %"class.dealii::FiniteElement", %"class.dealii::FiniteElement"* %15, i32 0, i32 3, !dbg !9454
  invoke void @_ZNSt6vectorIS_IN6dealii10FullMatrixIdEESaIS2_EESaIS4_EEC2ERKS6_(%"class.std::vector"* %restriction, %"class.std::vector"* dereferenceable(24) %restriction3)
          to label %invoke.cont unwind label %lpad, !dbg !9454

invoke.cont:                                      ; preds = %entry
  %prolongation = getelementptr inbounds %"class.dealii::FiniteElement", %"class.dealii::FiniteElement"* %this1, i32 0, i32 4, !dbg !9454
  %16 = load %"class.dealii::FiniteElement"*, %"class.dealii::FiniteElement"** %.addr, align 8, !dbg !9454
  %prolongation4 = getelementptr inbounds %"class.dealii::FiniteElement", %"class.dealii::FiniteElement"* %16, i32 0, i32 4, !dbg !9454
  invoke void @_ZNSt6vectorIS_IN6dealii10FullMatrixIdEESaIS2_EESaIS4_EEC2ERKS6_(%"class.std::vector"* %prolongation, %"class.std::vector"* dereferenceable(24) %prolongation4)
          to label %invoke.cont6 unwind label %lpad5, !dbg !9454

invoke.cont6:                                     ; preds = %invoke.cont
  %interface_constraints = getelementptr inbounds %"class.dealii::FiniteElement", %"class.dealii::FiniteElement"* %this1, i32 0, i32 5, !dbg !9454
  %17 = load %"class.dealii::FiniteElement"*, %"class.dealii::FiniteElement"** %.addr, align 8, !dbg !9454
  %interface_constraints7 = getelementptr inbounds %"class.dealii::FiniteElement", %"class.dealii::FiniteElement"* %17, i32 0, i32 5, !dbg !9454
  invoke void @_ZN6dealii10FullMatrixIdEC1ERKS1_(%"class.dealii::FullMatrix"* %interface_constraints, %"class.dealii::FullMatrix"* dereferenceable(96) %interface_constraints7)
          to label %invoke.cont9 unwind label %lpad8, !dbg !9454

invoke.cont9:                                     ; preds = %invoke.cont6
  %unit_support_points = getelementptr inbounds %"class.dealii::FiniteElement", %"class.dealii::FiniteElement"* %this1, i32 0, i32 6, !dbg !9454
  %18 = load %"class.dealii::FiniteElement"*, %"class.dealii::FiniteElement"** %.addr, align 8, !dbg !9454
  %unit_support_points10 = getelementptr inbounds %"class.dealii::FiniteElement", %"class.dealii::FiniteElement"* %18, i32 0, i32 6, !dbg !9454
  invoke void @_ZNSt6vectorIN6dealii5PointILi3EEESaIS2_EEC2ERKS4_(%"class.std::vector.20"* %unit_support_points, %"class.std::vector.20"* dereferenceable(24) %unit_support_points10)
          to label %invoke.cont12 unwind label %lpad11, !dbg !9454

invoke.cont12:                                    ; preds = %invoke.cont9
  %unit_face_support_points = getelementptr inbounds %"class.dealii::FiniteElement", %"class.dealii::FiniteElement"* %this1, i32 0, i32 7, !dbg !9454
  %19 = load %"class.dealii::FiniteElement"*, %"class.dealii::FiniteElement"** %.addr, align 8, !dbg !9454
  %unit_face_support_points13 = getelementptr inbounds %"class.dealii::FiniteElement", %"class.dealii::FiniteElement"* %19, i32 0, i32 7, !dbg !9454
  invoke void @_ZNSt6vectorIN6dealii5PointILi2EEESaIS2_EEC2ERKS4_(%"class.std::vector.25"* %unit_face_support_points, %"class.std::vector.25"* dereferenceable(24) %unit_face_support_points13)
          to label %invoke.cont15 unwind label %lpad14, !dbg !9454

invoke.cont15:                                    ; preds = %invoke.cont12
  %generalized_support_points = getelementptr inbounds %"class.dealii::FiniteElement", %"class.dealii::FiniteElement"* %this1, i32 0, i32 8, !dbg !9454
  %20 = load %"class.dealii::FiniteElement"*, %"class.dealii::FiniteElement"** %.addr, align 8, !dbg !9454
  %generalized_support_points16 = getelementptr inbounds %"class.dealii::FiniteElement", %"class.dealii::FiniteElement"* %20, i32 0, i32 8, !dbg !9454
  invoke void @_ZNSt6vectorIN6dealii5PointILi3EEESaIS2_EEC2ERKS4_(%"class.std::vector.20"* %generalized_support_points, %"class.std::vector.20"* dereferenceable(24) %generalized_support_points16)
          to label %invoke.cont18 unwind label %lpad17, !dbg !9454

invoke.cont18:                                    ; preds = %invoke.cont15
  %generalized_face_support_points = getelementptr inbounds %"class.dealii::FiniteElement", %"class.dealii::FiniteElement"* %this1, i32 0, i32 9, !dbg !9454
  %21 = load %"class.dealii::FiniteElement"*, %"class.dealii::FiniteElement"** %.addr, align 8, !dbg !9454
  %generalized_face_support_points19 = getelementptr inbounds %"class.dealii::FiniteElement", %"class.dealii::FiniteElement"* %21, i32 0, i32 9, !dbg !9454
  invoke void @_ZNSt6vectorIN6dealii5PointILi2EEESaIS2_EEC2ERKS4_(%"class.std::vector.25"* %generalized_face_support_points, %"class.std::vector.25"* dereferenceable(24) %generalized_face_support_points19)
          to label %invoke.cont21 unwind label %lpad20, !dbg !9454

invoke.cont21:                                    ; preds = %invoke.cont18
  %adjust_quad_dof_index_for_face_orientation_table = getelementptr inbounds %"class.dealii::FiniteElement", %"class.dealii::FiniteElement"* %this1, i32 0, i32 10, !dbg !9454
  %22 = load %"class.dealii::FiniteElement"*, %"class.dealii::FiniteElement"** %.addr, align 8, !dbg !9454
  %adjust_quad_dof_index_for_face_orientation_table22 = getelementptr inbounds %"class.dealii::FiniteElement", %"class.dealii::FiniteElement"* %22, i32 0, i32 10, !dbg !9454
  invoke void @_ZN6dealii5TableILi2EiEC2ERKS1_(%"class.dealii::Table.32"* %adjust_quad_dof_index_for_face_orientation_table, %"class.dealii::Table.32"* dereferenceable(96) %adjust_quad_dof_index_for_face_orientation_table22)
          to label %invoke.cont24 unwind label %lpad23, !dbg !9454

invoke.cont24:                                    ; preds = %invoke.cont21
  %adjust_line_dof_index_for_line_orientation_table = getelementptr inbounds %"class.dealii::FiniteElement", %"class.dealii::FiniteElement"* %this1, i32 0, i32 11, !dbg !9454
  %23 = load %"class.dealii::FiniteElement"*, %"class.dealii::FiniteElement"** %.addr, align 8, !dbg !9454
  %adjust_line_dof_index_for_line_orientation_table25 = getelementptr inbounds %"class.dealii::FiniteElement", %"class.dealii::FiniteElement"* %23, i32 0, i32 11, !dbg !9454
  invoke void @_ZNSt6vectorIiSaIiEEC2ERKS1_(%"class.std::vector.36"* %adjust_line_dof_index_for_line_orientation_table, %"class.std::vector.36"* dereferenceable(24) %adjust_line_dof_index_for_line_orientation_table25)
          to label %invoke.cont27 unwind label %lpad26, !dbg !9454

invoke.cont27:                                    ; preds = %invoke.cont24
  %system_to_component_table = getelementptr inbounds %"class.dealii::FiniteElement", %"class.dealii::FiniteElement"* %this1, i32 0, i32 12, !dbg !9454
  %24 = load %"class.dealii::FiniteElement"*, %"class.dealii::FiniteElement"** %.addr, align 8, !dbg !9454
  %system_to_component_table28 = getelementptr inbounds %"class.dealii::FiniteElement", %"class.dealii::FiniteElement"* %24, i32 0, i32 12, !dbg !9454
  invoke void @_ZNSt6vectorISt4pairIjjESaIS1_EEC2ERKS3_(%"class.std::vector.41"* %system_to_component_table, %"class.std::vector.41"* dereferenceable(24) %system_to_component_table28)
          to label %invoke.cont30 unwind label %lpad29, !dbg !9454

invoke.cont30:                                    ; preds = %invoke.cont27
  %face_system_to_component_table = getelementptr inbounds %"class.dealii::FiniteElement", %"class.dealii::FiniteElement"* %this1, i32 0, i32 13, !dbg !9454
  %25 = load %"class.dealii::FiniteElement"*, %"class.dealii::FiniteElement"** %.addr, align 8, !dbg !9454
  %face_system_to_component_table31 = getelementptr inbounds %"class.dealii::FiniteElement", %"class.dealii::FiniteElement"* %25, i32 0, i32 13, !dbg !9454
  invoke void @_ZNSt6vectorISt4pairIjjESaIS1_EEC2ERKS3_(%"class.std::vector.41"* %face_system_to_component_table, %"class.std::vector.41"* dereferenceable(24) %face_system_to_component_table31)
          to label %invoke.cont33 unwind label %lpad32, !dbg !9454

invoke.cont33:                                    ; preds = %invoke.cont30
  %system_to_base_table = getelementptr inbounds %"class.dealii::FiniteElement", %"class.dealii::FiniteElement"* %this1, i32 0, i32 14, !dbg !9454
  %26 = load %"class.dealii::FiniteElement"*, %"class.dealii::FiniteElement"** %.addr, align 8, !dbg !9454
  %system_to_base_table34 = getelementptr inbounds %"class.dealii::FiniteElement", %"class.dealii::FiniteElement"* %26, i32 0, i32 14, !dbg !9454
  invoke void @_ZNSt6vectorISt4pairIS0_IjjEjESaIS2_EEC2ERKS4_(%"class.std::vector.46"* %system_to_base_table, %"class.std::vector.46"* dereferenceable(24) %system_to_base_table34)
          to label %invoke.cont36 unwind label %lpad35, !dbg !9454

invoke.cont36:                                    ; preds = %invoke.cont33
  %face_system_to_base_table = getelementptr inbounds %"class.dealii::FiniteElement", %"class.dealii::FiniteElement"* %this1, i32 0, i32 15, !dbg !9454
  %27 = load %"class.dealii::FiniteElement"*, %"class.dealii::FiniteElement"** %.addr, align 8, !dbg !9454
  %face_system_to_base_table37 = getelementptr inbounds %"class.dealii::FiniteElement", %"class.dealii::FiniteElement"* %27, i32 0, i32 15, !dbg !9454
  invoke void @_ZNSt6vectorISt4pairIS0_IjjEjESaIS2_EEC2ERKS4_(%"class.std::vector.46"* %face_system_to_base_table, %"class.std::vector.46"* dereferenceable(24) %face_system_to_base_table37)
          to label %invoke.cont39 unwind label %lpad38, !dbg !9454

invoke.cont39:                                    ; preds = %invoke.cont36
  %first_block_of_base_table = getelementptr inbounds %"class.dealii::FiniteElement", %"class.dealii::FiniteElement"* %this1, i32 0, i32 16, !dbg !9454
  %28 = load %"class.dealii::FiniteElement"*, %"class.dealii::FiniteElement"** %.addr, align 8, !dbg !9454
  %first_block_of_base_table40 = getelementptr inbounds %"class.dealii::FiniteElement", %"class.dealii::FiniteElement"* %28, i32 0, i32 16, !dbg !9454
  invoke void @_ZNSt6vectorIjSaIjEEC2ERKS1_(%"class.std::vector.54"* %first_block_of_base_table, %"class.std::vector.54"* dereferenceable(24) %first_block_of_base_table40)
          to label %invoke.cont42 unwind label %lpad41, !dbg !9454

invoke.cont42:                                    ; preds = %invoke.cont39
  %component_to_base_table = getelementptr inbounds %"class.dealii::FiniteElement", %"class.dealii::FiniteElement"* %this1, i32 0, i32 17, !dbg !9454
  %29 = load %"class.dealii::FiniteElement"*, %"class.dealii::FiniteElement"** %.addr, align 8, !dbg !9454
  %component_to_base_table43 = getelementptr inbounds %"class.dealii::FiniteElement", %"class.dealii::FiniteElement"* %29, i32 0, i32 17, !dbg !9454
  invoke void @_ZNSt6vectorISt4pairIS0_IjjEjESaIS2_EEC2ERKS4_(%"class.std::vector.46"* %component_to_base_table, %"class.std::vector.46"* dereferenceable(24) %component_to_base_table43)
          to label %invoke.cont45 unwind label %lpad44, !dbg !9454

invoke.cont45:                                    ; preds = %invoke.cont42
  %restriction_is_additive_flags = getelementptr inbounds %"class.dealii::FiniteElement", %"class.dealii::FiniteElement"* %this1, i32 0, i32 18, !dbg !9454
  %30 = load %"class.dealii::FiniteElement"*, %"class.dealii::FiniteElement"** %.addr, align 8, !dbg !9454
  %restriction_is_additive_flags46 = getelementptr inbounds %"class.dealii::FiniteElement", %"class.dealii::FiniteElement"* %30, i32 0, i32 18, !dbg !9454
  invoke void @_ZNSt6vectorIbSaIbEEC2ERKS1_(%"class.std::vector.59"* %restriction_is_additive_flags, %"class.std::vector.59"* dereferenceable(40) %restriction_is_additive_flags46)
          to label %invoke.cont48 unwind label %lpad47, !dbg !9454

invoke.cont48:                                    ; preds = %invoke.cont45
  %nonzero_components = getelementptr inbounds %"class.dealii::FiniteElement", %"class.dealii::FiniteElement"* %this1, i32 0, i32 19, !dbg !9454
  %31 = load %"class.dealii::FiniteElement"*, %"class.dealii::FiniteElement"** %.addr, align 8, !dbg !9454
  %nonzero_components49 = getelementptr inbounds %"class.dealii::FiniteElement", %"class.dealii::FiniteElement"* %31, i32 0, i32 19, !dbg !9454
  invoke void @_ZNSt6vectorIS_IbSaIbEESaIS1_EEC2ERKS3_(%"class.std::vector.63"* %nonzero_components, %"class.std::vector.63"* dereferenceable(24) %nonzero_components49)
          to label %invoke.cont51 unwind label %lpad50, !dbg !9454

invoke.cont51:                                    ; preds = %invoke.cont48
  %n_nonzero_components_table = getelementptr inbounds %"class.dealii::FiniteElement", %"class.dealii::FiniteElement"* %this1, i32 0, i32 20, !dbg !9454
  %32 = load %"class.dealii::FiniteElement"*, %"class.dealii::FiniteElement"** %.addr, align 8, !dbg !9454
  %n_nonzero_components_table52 = getelementptr inbounds %"class.dealii::FiniteElement", %"class.dealii::FiniteElement"* %32, i32 0, i32 20, !dbg !9454
  invoke void @_ZNSt6vectorIjSaIjEEC2ERKS1_(%"class.std::vector.54"* %n_nonzero_components_table, %"class.std::vector.54"* dereferenceable(24) %n_nonzero_components_table52)
          to label %invoke.cont54 unwind label %lpad53, !dbg !9454

invoke.cont54:                                    ; preds = %invoke.cont51
  ret void, !dbg !9454

lpad:                                             ; preds = %entry
  %33 = landingpad { i8*, i32 }
          cleanup, !dbg !9454
  %34 = extractvalue { i8*, i32 } %33, 0, !dbg !9454
  store i8* %34, i8** %exn.slot, align 8, !dbg !9454
  %35 = extractvalue { i8*, i32 } %33, 1, !dbg !9454
  store i32 %35, i32* %ehselector.slot, align 4, !dbg !9454
  br label %ehcleanup70, !dbg !9454

lpad5:                                            ; preds = %invoke.cont
  %36 = landingpad { i8*, i32 }
          cleanup, !dbg !9454
  %37 = extractvalue { i8*, i32 } %36, 0, !dbg !9454
  store i8* %37, i8** %exn.slot, align 8, !dbg !9454
  %38 = extractvalue { i8*, i32 } %36, 1, !dbg !9454
  store i32 %38, i32* %ehselector.slot, align 4, !dbg !9454
  br label %ehcleanup69, !dbg !9454

lpad8:                                            ; preds = %invoke.cont6
  %39 = landingpad { i8*, i32 }
          cleanup, !dbg !9454
  %40 = extractvalue { i8*, i32 } %39, 0, !dbg !9454
  store i8* %40, i8** %exn.slot, align 8, !dbg !9454
  %41 = extractvalue { i8*, i32 } %39, 1, !dbg !9454
  store i32 %41, i32* %ehselector.slot, align 4, !dbg !9454
  br label %ehcleanup68, !dbg !9454

lpad11:                                           ; preds = %invoke.cont9
  %42 = landingpad { i8*, i32 }
          cleanup, !dbg !9454
  %43 = extractvalue { i8*, i32 } %42, 0, !dbg !9454
  store i8* %43, i8** %exn.slot, align 8, !dbg !9454
  %44 = extractvalue { i8*, i32 } %42, 1, !dbg !9454
  store i32 %44, i32* %ehselector.slot, align 4, !dbg !9454
  br label %ehcleanup67, !dbg !9454

lpad14:                                           ; preds = %invoke.cont12
  %45 = landingpad { i8*, i32 }
          cleanup, !dbg !9454
  %46 = extractvalue { i8*, i32 } %45, 0, !dbg !9454
  store i8* %46, i8** %exn.slot, align 8, !dbg !9454
  %47 = extractvalue { i8*, i32 } %45, 1, !dbg !9454
  store i32 %47, i32* %ehselector.slot, align 4, !dbg !9454
  br label %ehcleanup66, !dbg !9454

lpad17:                                           ; preds = %invoke.cont15
  %48 = landingpad { i8*, i32 }
          cleanup, !dbg !9454
  %49 = extractvalue { i8*, i32 } %48, 0, !dbg !9454
  store i8* %49, i8** %exn.slot, align 8, !dbg !9454
  %50 = extractvalue { i8*, i32 } %48, 1, !dbg !9454
  store i32 %50, i32* %ehselector.slot, align 4, !dbg !9454
  br label %ehcleanup65, !dbg !9454

lpad20:                                           ; preds = %invoke.cont18
  %51 = landingpad { i8*, i32 }
          cleanup, !dbg !9454
  %52 = extractvalue { i8*, i32 } %51, 0, !dbg !9454
  store i8* %52, i8** %exn.slot, align 8, !dbg !9454
  %53 = extractvalue { i8*, i32 } %51, 1, !dbg !9454
  store i32 %53, i32* %ehselector.slot, align 4, !dbg !9454
  br label %ehcleanup64, !dbg !9454

lpad23:                                           ; preds = %invoke.cont21
  %54 = landingpad { i8*, i32 }
          cleanup, !dbg !9454
  %55 = extractvalue { i8*, i32 } %54, 0, !dbg !9454
  store i8* %55, i8** %exn.slot, align 8, !dbg !9454
  %56 = extractvalue { i8*, i32 } %54, 1, !dbg !9454
  store i32 %56, i32* %ehselector.slot, align 4, !dbg !9454
  br label %ehcleanup63, !dbg !9454

lpad26:                                           ; preds = %invoke.cont24
  %57 = landingpad { i8*, i32 }
          cleanup, !dbg !9454
  %58 = extractvalue { i8*, i32 } %57, 0, !dbg !9454
  store i8* %58, i8** %exn.slot, align 8, !dbg !9454
  %59 = extractvalue { i8*, i32 } %57, 1, !dbg !9454
  store i32 %59, i32* %ehselector.slot, align 4, !dbg !9454
  br label %ehcleanup62, !dbg !9454

lpad29:                                           ; preds = %invoke.cont27
  %60 = landingpad { i8*, i32 }
          cleanup, !dbg !9454
  %61 = extractvalue { i8*, i32 } %60, 0, !dbg !9454
  store i8* %61, i8** %exn.slot, align 8, !dbg !9454
  %62 = extractvalue { i8*, i32 } %60, 1, !dbg !9454
  store i32 %62, i32* %ehselector.slot, align 4, !dbg !9454
  br label %ehcleanup61, !dbg !9454

lpad32:                                           ; preds = %invoke.cont30
  %63 = landingpad { i8*, i32 }
          cleanup, !dbg !9454
  %64 = extractvalue { i8*, i32 } %63, 0, !dbg !9454
  store i8* %64, i8** %exn.slot, align 8, !dbg !9454
  %65 = extractvalue { i8*, i32 } %63, 1, !dbg !9454
  store i32 %65, i32* %ehselector.slot, align 4, !dbg !9454
  br label %ehcleanup60, !dbg !9454

lpad35:                                           ; preds = %invoke.cont33
  %66 = landingpad { i8*, i32 }
          cleanup, !dbg !9454
  %67 = extractvalue { i8*, i32 } %66, 0, !dbg !9454
  store i8* %67, i8** %exn.slot, align 8, !dbg !9454
  %68 = extractvalue { i8*, i32 } %66, 1, !dbg !9454
  store i32 %68, i32* %ehselector.slot, align 4, !dbg !9454
  br label %ehcleanup59, !dbg !9454

lpad38:                                           ; preds = %invoke.cont36
  %69 = landingpad { i8*, i32 }
          cleanup, !dbg !9454
  %70 = extractvalue { i8*, i32 } %69, 0, !dbg !9454
  store i8* %70, i8** %exn.slot, align 8, !dbg !9454
  %71 = extractvalue { i8*, i32 } %69, 1, !dbg !9454
  store i32 %71, i32* %ehselector.slot, align 4, !dbg !9454
  br label %ehcleanup58, !dbg !9454

lpad41:                                           ; preds = %invoke.cont39
  %72 = landingpad { i8*, i32 }
          cleanup, !dbg !9454
  %73 = extractvalue { i8*, i32 } %72, 0, !dbg !9454
  store i8* %73, i8** %exn.slot, align 8, !dbg !9454
  %74 = extractvalue { i8*, i32 } %72, 1, !dbg !9454
  store i32 %74, i32* %ehselector.slot, align 4, !dbg !9454
  br label %ehcleanup57, !dbg !9454

lpad44:                                           ; preds = %invoke.cont42
  %75 = landingpad { i8*, i32 }
          cleanup, !dbg !9454
  %76 = extractvalue { i8*, i32 } %75, 0, !dbg !9454
  store i8* %76, i8** %exn.slot, align 8, !dbg !9454
  %77 = extractvalue { i8*, i32 } %75, 1, !dbg !9454
  store i32 %77, i32* %ehselector.slot, align 4, !dbg !9454
  br label %ehcleanup56, !dbg !9454

lpad47:                                           ; preds = %invoke.cont45
  %78 = landingpad { i8*, i32 }
          cleanup, !dbg !9454
  %79 = extractvalue { i8*, i32 } %78, 0, !dbg !9454
  store i8* %79, i8** %exn.slot, align 8, !dbg !9454
  %80 = extractvalue { i8*, i32 } %78, 1, !dbg !9454
  store i32 %80, i32* %ehselector.slot, align 4, !dbg !9454
  br label %ehcleanup55, !dbg !9454

lpad50:                                           ; preds = %invoke.cont48
  %81 = landingpad { i8*, i32 }
          cleanup, !dbg !9454
  %82 = extractvalue { i8*, i32 } %81, 0, !dbg !9454
  store i8* %82, i8** %exn.slot, align 8, !dbg !9454
  %83 = extractvalue { i8*, i32 } %81, 1, !dbg !9454
  store i32 %83, i32* %ehselector.slot, align 4, !dbg !9454
  br label %ehcleanup, !dbg !9454

lpad53:                                           ; preds = %invoke.cont51
  %84 = landingpad { i8*, i32 }
          cleanup, !dbg !9454
  %85 = extractvalue { i8*, i32 } %84, 0, !dbg !9454
  store i8* %85, i8** %exn.slot, align 8, !dbg !9454
  %86 = extractvalue { i8*, i32 } %84, 1, !dbg !9454
  store i32 %86, i32* %ehselector.slot, align 4, !dbg !9454
  call void @_ZNSt6vectorIS_IbSaIbEESaIS1_EED2Ev(%"class.std::vector.63"* %nonzero_components) #4, !dbg !9455
  br label %ehcleanup, !dbg !9455

ehcleanup:                                        ; preds = %lpad53, %lpad50
  call void @_ZNSt6vectorIbSaIbEED2Ev(%"class.std::vector.59"* %restriction_is_additive_flags) #4, !dbg !9455
  br label %ehcleanup55, !dbg !9455

ehcleanup55:                                      ; preds = %ehcleanup, %lpad47
  call void @_ZNSt6vectorISt4pairIS0_IjjEjESaIS2_EED2Ev(%"class.std::vector.46"* %component_to_base_table) #4, !dbg !9455
  br label %ehcleanup56, !dbg !9455

ehcleanup56:                                      ; preds = %ehcleanup55, %lpad44
  call void @_ZNSt6vectorIjSaIjEED2Ev(%"class.std::vector.54"* %first_block_of_base_table) #4, !dbg !9455
  br label %ehcleanup57, !dbg !9455

ehcleanup57:                                      ; preds = %ehcleanup56, %lpad41
  call void @_ZNSt6vectorISt4pairIS0_IjjEjESaIS2_EED2Ev(%"class.std::vector.46"* %face_system_to_base_table) #4, !dbg !9455
  br label %ehcleanup58, !dbg !9455

ehcleanup58:                                      ; preds = %ehcleanup57, %lpad38
  call void @_ZNSt6vectorISt4pairIS0_IjjEjESaIS2_EED2Ev(%"class.std::vector.46"* %system_to_base_table) #4, !dbg !9455
  br label %ehcleanup59, !dbg !9455

ehcleanup59:                                      ; preds = %ehcleanup58, %lpad35
  call void @_ZNSt6vectorISt4pairIjjESaIS1_EED2Ev(%"class.std::vector.41"* %face_system_to_component_table) #4, !dbg !9455
  br label %ehcleanup60, !dbg !9455

ehcleanup60:                                      ; preds = %ehcleanup59, %lpad32
  call void @_ZNSt6vectorISt4pairIjjESaIS1_EED2Ev(%"class.std::vector.41"* %system_to_component_table) #4, !dbg !9455
  br label %ehcleanup61, !dbg !9455

ehcleanup61:                                      ; preds = %ehcleanup60, %lpad29
  call void @_ZNSt6vectorIiSaIiEED2Ev(%"class.std::vector.36"* %adjust_line_dof_index_for_line_orientation_table) #4, !dbg !9455
  br label %ehcleanup62, !dbg !9455

ehcleanup62:                                      ; preds = %ehcleanup61, %lpad26
  call void @_ZN6dealii5TableILi2EiED2Ev(%"class.dealii::Table.32"* %adjust_quad_dof_index_for_face_orientation_table) #4, !dbg !9455
  br label %ehcleanup63, !dbg !9455

ehcleanup63:                                      ; preds = %ehcleanup62, %lpad23
  call void @_ZNSt6vectorIN6dealii5PointILi2EEESaIS2_EED2Ev(%"class.std::vector.25"* %generalized_face_support_points) #4, !dbg !9455
  br label %ehcleanup64, !dbg !9455

ehcleanup64:                                      ; preds = %ehcleanup63, %lpad20
  call void @_ZNSt6vectorIN6dealii5PointILi3EEESaIS2_EED2Ev(%"class.std::vector.20"* %generalized_support_points) #4, !dbg !9455
  br label %ehcleanup65, !dbg !9455

ehcleanup65:                                      ; preds = %ehcleanup64, %lpad17
  call void @_ZNSt6vectorIN6dealii5PointILi2EEESaIS2_EED2Ev(%"class.std::vector.25"* %unit_face_support_points) #4, !dbg !9455
  br label %ehcleanup66, !dbg !9455

ehcleanup66:                                      ; preds = %ehcleanup65, %lpad14
  call void @_ZNSt6vectorIN6dealii5PointILi3EEESaIS2_EED2Ev(%"class.std::vector.20"* %unit_support_points) #4, !dbg !9455
  br label %ehcleanup67, !dbg !9455

ehcleanup67:                                      ; preds = %ehcleanup66, %lpad11
  call void @_ZN6dealii10FullMatrixIdED2Ev(%"class.dealii::FullMatrix"* %interface_constraints) #4, !dbg !9455
  br label %ehcleanup68, !dbg !9455

ehcleanup68:                                      ; preds = %ehcleanup67, %lpad8
  call void @_ZNSt6vectorIS_IN6dealii10FullMatrixIdEESaIS2_EESaIS4_EED2Ev(%"class.std::vector"* %prolongation) #4, !dbg !9455
  br label %ehcleanup69, !dbg !9455

ehcleanup69:                                      ; preds = %ehcleanup68, %lpad5
  call void @_ZNSt6vectorIS_IN6dealii10FullMatrixIdEESaIS2_EESaIS4_EED2Ev(%"class.std::vector"* %restriction) #4, !dbg !9455
  br label %ehcleanup70, !dbg !9455

ehcleanup70:                                      ; preds = %ehcleanup69, %lpad
  %87 = bitcast %"class.dealii::FiniteElement"* %this1 to %"class.dealii::Subscriptor"*, !dbg !9455
  call void @_ZN6dealii11SubscriptorD2Ev(%"class.dealii::Subscriptor"* %87) #4, !dbg !9455
  br label %eh.resume, !dbg !9455

eh.resume:                                        ; preds = %ehcleanup70
  %exn = load i8*, i8** %exn.slot, align 8, !dbg !9455
  %sel = load i32, i32* %ehselector.slot, align 4, !dbg !9455
  %lpad.val = insertvalue { i8*, i32 } undef, i8* %exn, 0, !dbg !9455
  %lpad.val71 = insertvalue { i8*, i32 } %lpad.val, i32 %sel, 1, !dbg !9455
  resume { i8*, i32 } %lpad.val71, !dbg !9455
}

; Function Attrs: noinline uwtable
define linkonce_odr dso_local void @_ZN6dealii15PolynomialSpaceILi3EEC2ERKS1_(%"class.dealii::PolynomialSpace"* %this, %"class.dealii::PolynomialSpace"* dereferenceable(80) %0) unnamed_addr #0 comdat align 2 personality i8* bitcast (i32 (...)* @__gxx_personality_v0 to i8*) !dbg !9457 {
entry:
  %this.addr = alloca %"class.dealii::PolynomialSpace"*, align 8
  %.addr = alloca %"class.dealii::PolynomialSpace"*, align 8
  %exn.slot = alloca i8*
  %ehselector.slot = alloca i32
  store %"class.dealii::PolynomialSpace"* %this, %"class.dealii::PolynomialSpace"** %this.addr, align 8
  call void @llvm.dbg.declare(metadata %"class.dealii::PolynomialSpace"** %this.addr, metadata !9461, metadata !DIExpression()), !dbg !9462
  store %"class.dealii::PolynomialSpace"* %0, %"class.dealii::PolynomialSpace"** %.addr, align 8
  call void @llvm.dbg.declare(metadata %"class.dealii::PolynomialSpace"** %.addr, metadata !9463, metadata !DIExpression()), !dbg !9462
  %this1 = load %"class.dealii::PolynomialSpace"*, %"class.dealii::PolynomialSpace"** %this.addr, align 8
  %polynomials = getelementptr inbounds %"class.dealii::PolynomialSpace", %"class.dealii::PolynomialSpace"* %this1, i32 0, i32 0, !dbg !9464
  %1 = load %"class.dealii::PolynomialSpace"*, %"class.dealii::PolynomialSpace"** %.addr, align 8, !dbg !9464
  %polynomials2 = getelementptr inbounds %"class.dealii::PolynomialSpace", %"class.dealii::PolynomialSpace"* %1, i32 0, i32 0, !dbg !9464
  call void @_ZNSt6vectorIN6dealii11Polynomials10PolynomialIdEESaIS3_EEC2ERKS5_(%"class.std::vector.68"* %polynomials, %"class.std::vector.68"* dereferenceable(24) %polynomials2), !dbg !9464
  %n_pols = getelementptr inbounds %"class.dealii::PolynomialSpace", %"class.dealii::PolynomialSpace"* %this1, i32 0, i32 1, !dbg !9464
  %2 = load %"class.dealii::PolynomialSpace"*, %"class.dealii::PolynomialSpace"** %.addr, align 8, !dbg !9464
  %n_pols3 = getelementptr inbounds %"class.dealii::PolynomialSpace", %"class.dealii::PolynomialSpace"* %2, i32 0, i32 1, !dbg !9464
  %3 = load i32, i32* %n_pols3, align 8, !dbg !9464
  store i32 %3, i32* %n_pols, align 8, !dbg !9464
  %index_map = getelementptr inbounds %"class.dealii::PolynomialSpace", %"class.dealii::PolynomialSpace"* %this1, i32 0, i32 2, !dbg !9464
  %4 = load %"class.dealii::PolynomialSpace"*, %"class.dealii::PolynomialSpace"** %.addr, align 8, !dbg !9464
  %index_map4 = getelementptr inbounds %"class.dealii::PolynomialSpace", %"class.dealii::PolynomialSpace"* %4, i32 0, i32 2, !dbg !9464
  invoke void @_ZNSt6vectorIjSaIjEEC2ERKS1_(%"class.std::vector.54"* %index_map, %"class.std::vector.54"* dereferenceable(24) %index_map4)
          to label %invoke.cont unwind label %lpad, !dbg !9464

invoke.cont:                                      ; preds = %entry
  %index_map_inverse = getelementptr inbounds %"class.dealii::PolynomialSpace", %"class.dealii::PolynomialSpace"* %this1, i32 0, i32 3, !dbg !9464
  %5 = load %"class.dealii::PolynomialSpace"*, %"class.dealii::PolynomialSpace"** %.addr, align 8, !dbg !9464
  %index_map_inverse5 = getelementptr inbounds %"class.dealii::PolynomialSpace", %"class.dealii::PolynomialSpace"* %5, i32 0, i32 3, !dbg !9464
  invoke void @_ZNSt6vectorIjSaIjEEC2ERKS1_(%"class.std::vector.54"* %index_map_inverse, %"class.std::vector.54"* dereferenceable(24) %index_map_inverse5)
          to label %invoke.cont7 unwind label %lpad6, !dbg !9464

invoke.cont7:                                     ; preds = %invoke.cont
  ret void, !dbg !9464

lpad:                                             ; preds = %entry
  %6 = landingpad { i8*, i32 }
          cleanup, !dbg !9464
  %7 = extractvalue { i8*, i32 } %6, 0, !dbg !9464
  store i8* %7, i8** %exn.slot, align 8, !dbg !9464
  %8 = extractvalue { i8*, i32 } %6, 1, !dbg !9464
  store i32 %8, i32* %ehselector.slot, align 4, !dbg !9464
  br label %ehcleanup, !dbg !9464

lpad6:                                            ; preds = %invoke.cont
  %9 = landingpad { i8*, i32 }
          cleanup, !dbg !9464
  %10 = extractvalue { i8*, i32 } %9, 0, !dbg !9464
  store i8* %10, i8** %exn.slot, align 8, !dbg !9464
  %11 = extractvalue { i8*, i32 } %9, 1, !dbg !9464
  store i32 %11, i32* %ehselector.slot, align 4, !dbg !9464
  call void @_ZNSt6vectorIjSaIjEED2Ev(%"class.std::vector.54"* %index_map) #4, !dbg !9465
  br label %ehcleanup, !dbg !9465

ehcleanup:                                        ; preds = %lpad6, %lpad
  call void @_ZNSt6vectorIN6dealii11Polynomials10PolynomialIdEESaIS3_EED2Ev(%"class.std::vector.68"* %polynomials) #4, !dbg !9465
  br label %eh.resume, !dbg !9465

eh.resume:                                        ; preds = %ehcleanup
  %exn = load i8*, i8** %exn.slot, align 8, !dbg !9465
  %sel = load i32, i32* %ehselector.slot, align 4, !dbg !9465
  %lpad.val = insertvalue { i8*, i32 } undef, i8* %exn, 0, !dbg !9465
  %lpad.val8 = insertvalue { i8*, i32 } %lpad.val, i32 %sel, 1, !dbg !9465
  resume { i8*, i32 } %lpad.val8, !dbg !9465
}

declare dso_local void @_ZN6dealii11SubscriptorC2ERKS0_(%"class.dealii::Subscriptor"*, %"class.dealii::Subscriptor"* dereferenceable(72)) unnamed_addr #2

; Function Attrs: argmemonly nounwind willreturn
declare void @llvm.memcpy.p0i8.p0i8.i64(i8* noalias nocapture writeonly, i8* noalias nocapture readonly, i64, i1 immarg) #7

; Function Attrs: noinline uwtable
define linkonce_odr dso_local void @_ZNSt6vectorIS_IN6dealii10FullMatrixIdEESaIS2_EESaIS4_EEC2ERKS6_(%"class.std::vector"* %this, %"class.std::vector"* dereferenceable(24) %__x) unnamed_addr #0 comdat align 2 personality i8* bitcast (i32 (...)* @__gxx_personality_v0 to i8*) !dbg !9467 {
entry:
  %this.addr = alloca %"class.std::vector"*, align 8
  %__x.addr = alloca %"class.std::vector"*, align 8
  %ref.tmp = alloca %"class.std::allocator.16", align 1
  %exn.slot = alloca i8*
  %ehselector.slot = alloca i32
  %agg.tmp = alloca %"class.__gnu_cxx::__normal_iterator", align 8
  %agg.tmp4 = alloca %"class.__gnu_cxx::__normal_iterator", align 8
  store %"class.std::vector"* %this, %"class.std::vector"** %this.addr, align 8
  call void @llvm.dbg.declare(metadata %"class.std::vector"** %this.addr, metadata !9468, metadata !DIExpression()), !dbg !9470
  store %"class.std::vector"* %__x, %"class.std::vector"** %__x.addr, align 8
  call void @llvm.dbg.declare(metadata %"class.std::vector"** %__x.addr, metadata !9471, metadata !DIExpression()), !dbg !9472
  %this1 = load %"class.std::vector"*, %"class.std::vector"** %this.addr, align 8
  %0 = bitcast %"class.std::vector"* %this1 to %"struct.std::_Vector_base"*, !dbg !9473
  %1 = load %"class.std::vector"*, %"class.std::vector"** %__x.addr, align 8, !dbg !9474
  %call = call i64 @_ZNKSt6vectorIS_IN6dealii10FullMatrixIdEESaIS2_EESaIS4_EE4sizeEv(%"class.std::vector"* %1) #4, !dbg !9475
  %2 = load %"class.std::vector"*, %"class.std::vector"** %__x.addr, align 8, !dbg !9476
  %3 = bitcast %"class.std::vector"* %2 to %"struct.std::_Vector_base"*, !dbg !9476
  %call2 = call dereferenceable(1) %"class.std::allocator.16"* @_ZNKSt12_Vector_baseISt6vectorIN6dealii10FullMatrixIdEESaIS3_EESaIS5_EE19_M_get_Tp_allocatorEv(%"struct.std::_Vector_base"* %3) #4, !dbg !9477
  call void @_ZN9__gnu_cxx14__alloc_traitsISaISt6vectorIN6dealii10FullMatrixIdEESaIS4_EEES6_E17_S_select_on_copyERKS7_(%"class.std::allocator.16"* sret %ref.tmp, %"class.std::allocator.16"* dereferenceable(1) %call2), !dbg !9478
  invoke void @_ZNSt12_Vector_baseISt6vectorIN6dealii10FullMatrixIdEESaIS3_EESaIS5_EEC2EmRKS6_(%"struct.std::_Vector_base"* %0, i64 %call, %"class.std::allocator.16"* dereferenceable(1) %ref.tmp)
          to label %invoke.cont unwind label %lpad, !dbg !9479

invoke.cont:                                      ; preds = %entry
  call void @_ZNSaISt6vectorIN6dealii10FullMatrixIdEESaIS2_EEED2Ev(%"class.std::allocator.16"* %ref.tmp) #4, !dbg !9479
  %4 = load %"class.std::vector"*, %"class.std::vector"** %__x.addr, align 8, !dbg !9480
  %call3 = call %"class.std::vector.19"* @_ZNKSt6vectorIS_IN6dealii10FullMatrixIdEESaIS2_EESaIS4_EE5beginEv(%"class.std::vector"* %4) #4, !dbg !9482
  %coerce.dive = getelementptr inbounds %"class.__gnu_cxx::__normal_iterator", %"class.__gnu_cxx::__normal_iterator"* %agg.tmp, i32 0, i32 0, !dbg !9482
  store %"class.std::vector.19"* %call3, %"class.std::vector.19"** %coerce.dive, align 8, !dbg !9482
  %5 = load %"class.std::vector"*, %"class.std::vector"** %__x.addr, align 8, !dbg !9483
  %call5 = call %"class.std::vector.19"* @_ZNKSt6vectorIS_IN6dealii10FullMatrixIdEESaIS2_EESaIS4_EE3endEv(%"class.std::vector"* %5) #4, !dbg !9484
  %coerce.dive6 = getelementptr inbounds %"class.__gnu_cxx::__normal_iterator", %"class.__gnu_cxx::__normal_iterator"* %agg.tmp4, i32 0, i32 0, !dbg !9484
  store %"class.std::vector.19"* %call5, %"class.std::vector.19"** %coerce.dive6, align 8, !dbg !9484
  %6 = bitcast %"class.std::vector"* %this1 to %"struct.std::_Vector_base"*, !dbg !9485
  %_M_impl = getelementptr inbounds %"struct.std::_Vector_base", %"struct.std::_Vector_base"* %6, i32 0, i32 0, !dbg !9485
  %7 = bitcast %"struct.std::_Vector_base<std::vector<dealii::FullMatrix<double>, std::allocator<dealii::FullMatrix<double> > >, std::allocator<std::vector<dealii::FullMatrix<double>, std::allocator<dealii::FullMatrix<double> > > > >::_Vector_impl"* %_M_impl to %"struct.std::_Vector_base<std::vector<dealii::FullMatrix<double>, std::allocator<dealii::FullMatrix<double> > >, std::allocator<std::vector<dealii::FullMatrix<double>, std::allocator<dealii::FullMatrix<double> > > > >::_Vector_impl_data"*, !dbg !9486
  %_M_start = getelementptr inbounds %"struct.std::_Vector_base<std::vector<dealii::FullMatrix<double>, std::allocator<dealii::FullMatrix<double> > >, std::allocator<std::vector<dealii::FullMatrix<double>, std::allocator<dealii::FullMatrix<double> > > > >::_Vector_impl_data", %"struct.std::_Vector_base<std::vector<dealii::FullMatrix<double>, std::allocator<dealii::FullMatrix<double> > >, std::allocator<std::vector<dealii::FullMatrix<double>, std::allocator<dealii::FullMatrix<double> > > > >::_Vector_impl_data"* %7, i32 0, i32 0, !dbg !9487
  %8 = load %"class.std::vector.19"*, %"class.std::vector.19"** %_M_start, align 8, !dbg !9487
  %9 = bitcast %"class.std::vector"* %this1 to %"struct.std::_Vector_base"*, !dbg !9488
  %call7 = call dereferenceable(1) %"class.std::allocator.16"* @_ZNSt12_Vector_baseISt6vectorIN6dealii10FullMatrixIdEESaIS3_EESaIS5_EE19_M_get_Tp_allocatorEv(%"struct.std::_Vector_base"* %9) #4, !dbg !9488
  %coerce.dive8 = getelementptr inbounds %"class.__gnu_cxx::__normal_iterator", %"class.__gnu_cxx::__normal_iterator"* %agg.tmp, i32 0, i32 0, !dbg !9489
  %10 = load %"class.std::vector.19"*, %"class.std::vector.19"** %coerce.dive8, align 8, !dbg !9489
  %coerce.dive9 = getelementptr inbounds %"class.__gnu_cxx::__normal_iterator", %"class.__gnu_cxx::__normal_iterator"* %agg.tmp4, i32 0, i32 0, !dbg !9489
  %11 = load %"class.std::vector.19"*, %"class.std::vector.19"** %coerce.dive9, align 8, !dbg !9489
  %call12 = invoke %"class.std::vector.19"* @_ZSt22__uninitialized_copy_aIN9__gnu_cxx17__normal_iteratorIPKSt6vectorIN6dealii10FullMatrixIdEESaIS5_EES2_IS7_SaIS7_EEEEPS7_S7_ET0_T_SF_SE_RSaIT1_E(%"class.std::vector.19"* %10, %"class.std::vector.19"* %11, %"class.std::vector.19"* %8, %"class.std::allocator.16"* dereferenceable(1) %call7)
          to label %invoke.cont11 unwind label %lpad10, !dbg !9489

invoke.cont11:                                    ; preds = %invoke.cont
  %12 = bitcast %"class.std::vector"* %this1 to %"struct.std::_Vector_base"*, !dbg !9490
  %_M_impl13 = getelementptr inbounds %"struct.std::_Vector_base", %"struct.std::_Vector_base"* %12, i32 0, i32 0, !dbg !9490
  %13 = bitcast %"struct.std::_Vector_base<std::vector<dealii::FullMatrix<double>, std::allocator<dealii::FullMatrix<double> > >, std::allocator<std::vector<dealii::FullMatrix<double>, std::allocator<dealii::FullMatrix<double> > > > >::_Vector_impl"* %_M_impl13 to %"struct.std::_Vector_base<std::vector<dealii::FullMatrix<double>, std::allocator<dealii::FullMatrix<double> > >, std::allocator<std::vector<dealii::FullMatrix<double>, std::allocator<dealii::FullMatrix<double> > > > >::_Vector_impl_data"*, !dbg !9491
  %_M_finish = getelementptr inbounds %"struct.std::_Vector_base<std::vector<dealii::FullMatrix<double>, std::allocator<dealii::FullMatrix<double> > >, std::allocator<std::vector<dealii::FullMatrix<double>, std::allocator<dealii::FullMatrix<double> > > > >::_Vector_impl_data", %"struct.std::_Vector_base<std::vector<dealii::FullMatrix<double>, std::allocator<dealii::FullMatrix<double> > >, std::allocator<std::vector<dealii::FullMatrix<double>, std::allocator<dealii::FullMatrix<double> > > > >::_Vector_impl_data"* %13, i32 0, i32 1, !dbg !9492
  store %"class.std::vector.19"* %call12, %"class.std::vector.19"** %_M_finish, align 8, !dbg !9493
  ret void, !dbg !9494

lpad:                                             ; preds = %entry
  %14 = landingpad { i8*, i32 }
          cleanup, !dbg !9494
  %15 = extractvalue { i8*, i32 } %14, 0, !dbg !9494
  store i8* %15, i8** %exn.slot, align 8, !dbg !9494
  %16 = extractvalue { i8*, i32 } %14, 1, !dbg !9494
  store i32 %16, i32* %ehselector.slot, align 4, !dbg !9494
  call void @_ZNSaISt6vectorIN6dealii10FullMatrixIdEESaIS2_EEED2Ev(%"class.std::allocator.16"* %ref.tmp) #4, !dbg !9479
  br label %eh.resume, !dbg !9479

lpad10:                                           ; preds = %invoke.cont
  %17 = landingpad { i8*, i32 }
          cleanup, !dbg !9495
  %18 = extractvalue { i8*, i32 } %17, 0, !dbg !9495
  store i8* %18, i8** %exn.slot, align 8, !dbg !9495
  %19 = extractvalue { i8*, i32 } %17, 1, !dbg !9495
  store i32 %19, i32* %ehselector.slot, align 4, !dbg !9495
  %20 = bitcast %"class.std::vector"* %this1 to %"struct.std::_Vector_base"*, !dbg !9495
  call void @_ZNSt12_Vector_baseISt6vectorIN6dealii10FullMatrixIdEESaIS3_EESaIS5_EED2Ev(%"struct.std::_Vector_base"* %20) #4, !dbg !9495
  br label %eh.resume, !dbg !9495

eh.resume:                                        ; preds = %lpad10, %lpad
  %exn = load i8*, i8** %exn.slot, align 8, !dbg !9479
  %sel = load i32, i32* %ehselector.slot, align 4, !dbg !9479
  %lpad.val = insertvalue { i8*, i32 } undef, i8* %exn, 0, !dbg !9479
  %lpad.val14 = insertvalue { i8*, i32 } %lpad.val, i32 %sel, 1, !dbg !9479
  resume { i8*, i32 } %lpad.val14, !dbg !9479
}

declare dso_local void @_ZN6dealii10FullMatrixIdEC1ERKS1_(%"class.dealii::FullMatrix"*, %"class.dealii::FullMatrix"* dereferenceable(96)) unnamed_addr #2

; Function Attrs: noinline uwtable
define linkonce_odr dso_local void @_ZNSt6vectorIN6dealii5PointILi3EEESaIS2_EEC2ERKS4_(%"class.std::vector.20"* %this, %"class.std::vector.20"* dereferenceable(24) %__x) unnamed_addr #0 comdat align 2 personality i8* bitcast (i32 (...)* @__gxx_personality_v0 to i8*) !dbg !9496 {
entry:
  %this.addr = alloca %"class.std::vector.20"*, align 8
  %__x.addr = alloca %"class.std::vector.20"*, align 8
  %ref.tmp = alloca %"class.std::allocator.22", align 1
  %exn.slot = alloca i8*
  %ehselector.slot = alloca i32
  %agg.tmp = alloca %"class.__gnu_cxx::__normal_iterator.92", align 8
  %agg.tmp4 = alloca %"class.__gnu_cxx::__normal_iterator.92", align 8
  store %"class.std::vector.20"* %this, %"class.std::vector.20"** %this.addr, align 8
  call void @llvm.dbg.declare(metadata %"class.std::vector.20"** %this.addr, metadata !9497, metadata !DIExpression()), !dbg !9499
  store %"class.std::vector.20"* %__x, %"class.std::vector.20"** %__x.addr, align 8
  call void @llvm.dbg.declare(metadata %"class.std::vector.20"** %__x.addr, metadata !9500, metadata !DIExpression()), !dbg !9501
  %this1 = load %"class.std::vector.20"*, %"class.std::vector.20"** %this.addr, align 8
  %0 = bitcast %"class.std::vector.20"* %this1 to %"struct.std::_Vector_base.21"*, !dbg !9502
  %1 = load %"class.std::vector.20"*, %"class.std::vector.20"** %__x.addr, align 8, !dbg !9503
  %call = call i64 @_ZNKSt6vectorIN6dealii5PointILi3EEESaIS2_EE4sizeEv(%"class.std::vector.20"* %1) #4, !dbg !9504
  %2 = load %"class.std::vector.20"*, %"class.std::vector.20"** %__x.addr, align 8, !dbg !9505
  %3 = bitcast %"class.std::vector.20"* %2 to %"struct.std::_Vector_base.21"*, !dbg !9505
  %call2 = call dereferenceable(1) %"class.std::allocator.22"* @_ZNKSt12_Vector_baseIN6dealii5PointILi3EEESaIS2_EE19_M_get_Tp_allocatorEv(%"struct.std::_Vector_base.21"* %3) #4, !dbg !9506
  call void @_ZN9__gnu_cxx14__alloc_traitsISaIN6dealii5PointILi3EEEES3_E17_S_select_on_copyERKS4_(%"class.std::allocator.22"* sret %ref.tmp, %"class.std::allocator.22"* dereferenceable(1) %call2), !dbg !9507
  invoke void @_ZNSt12_Vector_baseIN6dealii5PointILi3EEESaIS2_EEC2EmRKS3_(%"struct.std::_Vector_base.21"* %0, i64 %call, %"class.std::allocator.22"* dereferenceable(1) %ref.tmp)
          to label %invoke.cont unwind label %lpad, !dbg !9508

invoke.cont:                                      ; preds = %entry
  call void @_ZNSaIN6dealii5PointILi3EEEED2Ev(%"class.std::allocator.22"* %ref.tmp) #4, !dbg !9508
  %4 = load %"class.std::vector.20"*, %"class.std::vector.20"** %__x.addr, align 8, !dbg !9509
  %call3 = call %"class.dealii::Point"* @_ZNKSt6vectorIN6dealii5PointILi3EEESaIS2_EE5beginEv(%"class.std::vector.20"* %4) #4, !dbg !9511
  %coerce.dive = getelementptr inbounds %"class.__gnu_cxx::__normal_iterator.92", %"class.__gnu_cxx::__normal_iterator.92"* %agg.tmp, i32 0, i32 0, !dbg !9511
  store %"class.dealii::Point"* %call3, %"class.dealii::Point"** %coerce.dive, align 8, !dbg !9511
  %5 = load %"class.std::vector.20"*, %"class.std::vector.20"** %__x.addr, align 8, !dbg !9512
  %call5 = call %"class.dealii::Point"* @_ZNKSt6vectorIN6dealii5PointILi3EEESaIS2_EE3endEv(%"class.std::vector.20"* %5) #4, !dbg !9513
  %coerce.dive6 = getelementptr inbounds %"class.__gnu_cxx::__normal_iterator.92", %"class.__gnu_cxx::__normal_iterator.92"* %agg.tmp4, i32 0, i32 0, !dbg !9513
  store %"class.dealii::Point"* %call5, %"class.dealii::Point"** %coerce.dive6, align 8, !dbg !9513
  %6 = bitcast %"class.std::vector.20"* %this1 to %"struct.std::_Vector_base.21"*, !dbg !9514
  %_M_impl = getelementptr inbounds %"struct.std::_Vector_base.21", %"struct.std::_Vector_base.21"* %6, i32 0, i32 0, !dbg !9514
  %7 = bitcast %"struct.std::_Vector_base<dealii::Point<3>, std::allocator<dealii::Point<3> > >::_Vector_impl"* %_M_impl to %"struct.std::_Vector_base<dealii::Point<3>, std::allocator<dealii::Point<3> > >::_Vector_impl_data"*, !dbg !9515
  %_M_start = getelementptr inbounds %"struct.std::_Vector_base<dealii::Point<3>, std::allocator<dealii::Point<3> > >::_Vector_impl_data", %"struct.std::_Vector_base<dealii::Point<3>, std::allocator<dealii::Point<3> > >::_Vector_impl_data"* %7, i32 0, i32 0, !dbg !9516
  %8 = load %"class.dealii::Point"*, %"class.dealii::Point"** %_M_start, align 8, !dbg !9516
  %9 = bitcast %"class.std::vector.20"* %this1 to %"struct.std::_Vector_base.21"*, !dbg !9517
  %call7 = call dereferenceable(1) %"class.std::allocator.22"* @_ZNSt12_Vector_baseIN6dealii5PointILi3EEESaIS2_EE19_M_get_Tp_allocatorEv(%"struct.std::_Vector_base.21"* %9) #4, !dbg !9517
  %coerce.dive8 = getelementptr inbounds %"class.__gnu_cxx::__normal_iterator.92", %"class.__gnu_cxx::__normal_iterator.92"* %agg.tmp, i32 0, i32 0, !dbg !9518
  %10 = load %"class.dealii::Point"*, %"class.dealii::Point"** %coerce.dive8, align 8, !dbg !9518
  %coerce.dive9 = getelementptr inbounds %"class.__gnu_cxx::__normal_iterator.92", %"class.__gnu_cxx::__normal_iterator.92"* %agg.tmp4, i32 0, i32 0, !dbg !9518
  %11 = load %"class.dealii::Point"*, %"class.dealii::Point"** %coerce.dive9, align 8, !dbg !9518
  %call12 = invoke %"class.dealii::Point"* @_ZSt22__uninitialized_copy_aIN9__gnu_cxx17__normal_iteratorIPKN6dealii5PointILi3EEESt6vectorIS4_SaIS4_EEEEPS4_S4_ET0_T_SD_SC_RSaIT1_E(%"class.dealii::Point"* %10, %"class.dealii::Point"* %11, %"class.dealii::Point"* %8, %"class.std::allocator.22"* dereferenceable(1) %call7)
          to label %invoke.cont11 unwind label %lpad10, !dbg !9518

invoke.cont11:                                    ; preds = %invoke.cont
  %12 = bitcast %"class.std::vector.20"* %this1 to %"struct.std::_Vector_base.21"*, !dbg !9519
  %_M_impl13 = getelementptr inbounds %"struct.std::_Vector_base.21", %"struct.std::_Vector_base.21"* %12, i32 0, i32 0, !dbg !9519
  %13 = bitcast %"struct.std::_Vector_base<dealii::Point<3>, std::allocator<dealii::Point<3> > >::_Vector_impl"* %_M_impl13 to %"struct.std::_Vector_base<dealii::Point<3>, std::allocator<dealii::Point<3> > >::_Vector_impl_data"*, !dbg !9520
  %_M_finish = getelementptr inbounds %"struct.std::_Vector_base<dealii::Point<3>, std::allocator<dealii::Point<3> > >::_Vector_impl_data", %"struct.std::_Vector_base<dealii::Point<3>, std::allocator<dealii::Point<3> > >::_Vector_impl_data"* %13, i32 0, i32 1, !dbg !9521
  store %"class.dealii::Point"* %call12, %"class.dealii::Point"** %_M_finish, align 8, !dbg !9522
  ret void, !dbg !9523

lpad:                                             ; preds = %entry
  %14 = landingpad { i8*, i32 }
          cleanup, !dbg !9523
  %15 = extractvalue { i8*, i32 } %14, 0, !dbg !9523
  store i8* %15, i8** %exn.slot, align 8, !dbg !9523
  %16 = extractvalue { i8*, i32 } %14, 1, !dbg !9523
  store i32 %16, i32* %ehselector.slot, align 4, !dbg !9523
  call void @_ZNSaIN6dealii5PointILi3EEEED2Ev(%"class.std::allocator.22"* %ref.tmp) #4, !dbg !9508
  br label %eh.resume, !dbg !9508

lpad10:                                           ; preds = %invoke.cont
  %17 = landingpad { i8*, i32 }
          cleanup, !dbg !9524
  %18 = extractvalue { i8*, i32 } %17, 0, !dbg !9524
  store i8* %18, i8** %exn.slot, align 8, !dbg !9524
  %19 = extractvalue { i8*, i32 } %17, 1, !dbg !9524
  store i32 %19, i32* %ehselector.slot, align 4, !dbg !9524
  %20 = bitcast %"class.std::vector.20"* %this1 to %"struct.std::_Vector_base.21"*, !dbg !9524
  call void @_ZNSt12_Vector_baseIN6dealii5PointILi3EEESaIS2_EED2Ev(%"struct.std::_Vector_base.21"* %20) #4, !dbg !9524
  br label %eh.resume, !dbg !9524

eh.resume:                                        ; preds = %lpad10, %lpad
  %exn = load i8*, i8** %exn.slot, align 8, !dbg !9508
  %sel = load i32, i32* %ehselector.slot, align 4, !dbg !9508
  %lpad.val = insertvalue { i8*, i32 } undef, i8* %exn, 0, !dbg !9508
  %lpad.val14 = insertvalue { i8*, i32 } %lpad.val, i32 %sel, 1, !dbg !9508
  resume { i8*, i32 } %lpad.val14, !dbg !9508
}

; Function Attrs: noinline uwtable
define linkonce_odr dso_local void @_ZNSt6vectorIN6dealii5PointILi2EEESaIS2_EEC2ERKS4_(%"class.std::vector.25"* %this, %"class.std::vector.25"* dereferenceable(24) %__x) unnamed_addr #0 comdat align 2 personality i8* bitcast (i32 (...)* @__gxx_personality_v0 to i8*) !dbg !9525 {
entry:
  %this.addr = alloca %"class.std::vector.25"*, align 8
  %__x.addr = alloca %"class.std::vector.25"*, align 8
  %ref.tmp = alloca %"class.std::allocator.27", align 1
  %exn.slot = alloca i8*
  %ehselector.slot = alloca i32
  %agg.tmp = alloca %"class.__gnu_cxx::__normal_iterator.93", align 8
  %agg.tmp4 = alloca %"class.__gnu_cxx::__normal_iterator.93", align 8
  store %"class.std::vector.25"* %this, %"class.std::vector.25"** %this.addr, align 8
  call void @llvm.dbg.declare(metadata %"class.std::vector.25"** %this.addr, metadata !9526, metadata !DIExpression()), !dbg !9528
  store %"class.std::vector.25"* %__x, %"class.std::vector.25"** %__x.addr, align 8
  call void @llvm.dbg.declare(metadata %"class.std::vector.25"** %__x.addr, metadata !9529, metadata !DIExpression()), !dbg !9530
  %this1 = load %"class.std::vector.25"*, %"class.std::vector.25"** %this.addr, align 8
  %0 = bitcast %"class.std::vector.25"* %this1 to %"struct.std::_Vector_base.26"*, !dbg !9531
  %1 = load %"class.std::vector.25"*, %"class.std::vector.25"** %__x.addr, align 8, !dbg !9532
  %call = call i64 @_ZNKSt6vectorIN6dealii5PointILi2EEESaIS2_EE4sizeEv(%"class.std::vector.25"* %1) #4, !dbg !9533
  %2 = load %"class.std::vector.25"*, %"class.std::vector.25"** %__x.addr, align 8, !dbg !9534
  %3 = bitcast %"class.std::vector.25"* %2 to %"struct.std::_Vector_base.26"*, !dbg !9534
  %call2 = call dereferenceable(1) %"class.std::allocator.27"* @_ZNKSt12_Vector_baseIN6dealii5PointILi2EEESaIS2_EE19_M_get_Tp_allocatorEv(%"struct.std::_Vector_base.26"* %3) #4, !dbg !9535
  call void @_ZN9__gnu_cxx14__alloc_traitsISaIN6dealii5PointILi2EEEES3_E17_S_select_on_copyERKS4_(%"class.std::allocator.27"* sret %ref.tmp, %"class.std::allocator.27"* dereferenceable(1) %call2), !dbg !9536
  invoke void @_ZNSt12_Vector_baseIN6dealii5PointILi2EEESaIS2_EEC2EmRKS3_(%"struct.std::_Vector_base.26"* %0, i64 %call, %"class.std::allocator.27"* dereferenceable(1) %ref.tmp)
          to label %invoke.cont unwind label %lpad, !dbg !9537

invoke.cont:                                      ; preds = %entry
  call void @_ZNSaIN6dealii5PointILi2EEEED2Ev(%"class.std::allocator.27"* %ref.tmp) #4, !dbg !9537
  %4 = load %"class.std::vector.25"*, %"class.std::vector.25"** %__x.addr, align 8, !dbg !9538
  %call3 = call %"class.dealii::Point.30"* @_ZNKSt6vectorIN6dealii5PointILi2EEESaIS2_EE5beginEv(%"class.std::vector.25"* %4) #4, !dbg !9540
  %coerce.dive = getelementptr inbounds %"class.__gnu_cxx::__normal_iterator.93", %"class.__gnu_cxx::__normal_iterator.93"* %agg.tmp, i32 0, i32 0, !dbg !9540
  store %"class.dealii::Point.30"* %call3, %"class.dealii::Point.30"** %coerce.dive, align 8, !dbg !9540
  %5 = load %"class.std::vector.25"*, %"class.std::vector.25"** %__x.addr, align 8, !dbg !9541
  %call5 = call %"class.dealii::Point.30"* @_ZNKSt6vectorIN6dealii5PointILi2EEESaIS2_EE3endEv(%"class.std::vector.25"* %5) #4, !dbg !9542
  %coerce.dive6 = getelementptr inbounds %"class.__gnu_cxx::__normal_iterator.93", %"class.__gnu_cxx::__normal_iterator.93"* %agg.tmp4, i32 0, i32 0, !dbg !9542
  store %"class.dealii::Point.30"* %call5, %"class.dealii::Point.30"** %coerce.dive6, align 8, !dbg !9542
  %6 = bitcast %"class.std::vector.25"* %this1 to %"struct.std::_Vector_base.26"*, !dbg !9543
  %_M_impl = getelementptr inbounds %"struct.std::_Vector_base.26", %"struct.std::_Vector_base.26"* %6, i32 0, i32 0, !dbg !9543
  %7 = bitcast %"struct.std::_Vector_base<dealii::Point<2>, std::allocator<dealii::Point<2> > >::_Vector_impl"* %_M_impl to %"struct.std::_Vector_base<dealii::Point<2>, std::allocator<dealii::Point<2> > >::_Vector_impl_data"*, !dbg !9544
  %_M_start = getelementptr inbounds %"struct.std::_Vector_base<dealii::Point<2>, std::allocator<dealii::Point<2> > >::_Vector_impl_data", %"struct.std::_Vector_base<dealii::Point<2>, std::allocator<dealii::Point<2> > >::_Vector_impl_data"* %7, i32 0, i32 0, !dbg !9545
  %8 = load %"class.dealii::Point.30"*, %"class.dealii::Point.30"** %_M_start, align 8, !dbg !9545
  %9 = bitcast %"class.std::vector.25"* %this1 to %"struct.std::_Vector_base.26"*, !dbg !9546
  %call7 = call dereferenceable(1) %"class.std::allocator.27"* @_ZNSt12_Vector_baseIN6dealii5PointILi2EEESaIS2_EE19_M_get_Tp_allocatorEv(%"struct.std::_Vector_base.26"* %9) #4, !dbg !9546
  %coerce.dive8 = getelementptr inbounds %"class.__gnu_cxx::__normal_iterator.93", %"class.__gnu_cxx::__normal_iterator.93"* %agg.tmp, i32 0, i32 0, !dbg !9547
  %10 = load %"class.dealii::Point.30"*, %"class.dealii::Point.30"** %coerce.dive8, align 8, !dbg !9547
  %coerce.dive9 = getelementptr inbounds %"class.__gnu_cxx::__normal_iterator.93", %"class.__gnu_cxx::__normal_iterator.93"* %agg.tmp4, i32 0, i32 0, !dbg !9547
  %11 = load %"class.dealii::Point.30"*, %"class.dealii::Point.30"** %coerce.dive9, align 8, !dbg !9547
  %call12 = invoke %"class.dealii::Point.30"* @_ZSt22__uninitialized_copy_aIN9__gnu_cxx17__normal_iteratorIPKN6dealii5PointILi2EEESt6vectorIS4_SaIS4_EEEEPS4_S4_ET0_T_SD_SC_RSaIT1_E(%"class.dealii::Point.30"* %10, %"class.dealii::Point.30"* %11, %"class.dealii::Point.30"* %8, %"class.std::allocator.27"* dereferenceable(1) %call7)
          to label %invoke.cont11 unwind label %lpad10, !dbg !9547

invoke.cont11:                                    ; preds = %invoke.cont
  %12 = bitcast %"class.std::vector.25"* %this1 to %"struct.std::_Vector_base.26"*, !dbg !9548
  %_M_impl13 = getelementptr inbounds %"struct.std::_Vector_base.26", %"struct.std::_Vector_base.26"* %12, i32 0, i32 0, !dbg !9548
  %13 = bitcast %"struct.std::_Vector_base<dealii::Point<2>, std::allocator<dealii::Point<2> > >::_Vector_impl"* %_M_impl13 to %"struct.std::_Vector_base<dealii::Point<2>, std::allocator<dealii::Point<2> > >::_Vector_impl_data"*, !dbg !9549
  %_M_finish = getelementptr inbounds %"struct.std::_Vector_base<dealii::Point<2>, std::allocator<dealii::Point<2> > >::_Vector_impl_data", %"struct.std::_Vector_base<dealii::Point<2>, std::allocator<dealii::Point<2> > >::_Vector_impl_data"* %13, i32 0, i32 1, !dbg !9550
  store %"class.dealii::Point.30"* %call12, %"class.dealii::Point.30"** %_M_finish, align 8, !dbg !9551
  ret void, !dbg !9552

lpad:                                             ; preds = %entry
  %14 = landingpad { i8*, i32 }
          cleanup, !dbg !9552
  %15 = extractvalue { i8*, i32 } %14, 0, !dbg !9552
  store i8* %15, i8** %exn.slot, align 8, !dbg !9552
  %16 = extractvalue { i8*, i32 } %14, 1, !dbg !9552
  store i32 %16, i32* %ehselector.slot, align 4, !dbg !9552
  call void @_ZNSaIN6dealii5PointILi2EEEED2Ev(%"class.std::allocator.27"* %ref.tmp) #4, !dbg !9537
  br label %eh.resume, !dbg !9537

lpad10:                                           ; preds = %invoke.cont
  %17 = landingpad { i8*, i32 }
          cleanup, !dbg !9553
  %18 = extractvalue { i8*, i32 } %17, 0, !dbg !9553
  store i8* %18, i8** %exn.slot, align 8, !dbg !9553
  %19 = extractvalue { i8*, i32 } %17, 1, !dbg !9553
  store i32 %19, i32* %ehselector.slot, align 4, !dbg !9553
  %20 = bitcast %"class.std::vector.25"* %this1 to %"struct.std::_Vector_base.26"*, !dbg !9553
  call void @_ZNSt12_Vector_baseIN6dealii5PointILi2EEESaIS2_EED2Ev(%"struct.std::_Vector_base.26"* %20) #4, !dbg !9553
  br label %eh.resume, !dbg !9553

eh.resume:                                        ; preds = %lpad10, %lpad
  %exn = load i8*, i8** %exn.slot, align 8, !dbg !9537
  %sel = load i32, i32* %ehselector.slot, align 4, !dbg !9537
  %lpad.val = insertvalue { i8*, i32 } undef, i8* %exn, 0, !dbg !9537
  %lpad.val14 = insertvalue { i8*, i32 } %lpad.val, i32 %sel, 1, !dbg !9537
  resume { i8*, i32 } %lpad.val14, !dbg !9537
}

; Function Attrs: noinline uwtable
define linkonce_odr dso_local void @_ZN6dealii5TableILi2EiEC2ERKS1_(%"class.dealii::Table.32"* %this, %"class.dealii::Table.32"* dereferenceable(96) %0) unnamed_addr #0 comdat align 2 !dbg !9554 {
entry:
  %this.addr = alloca %"class.dealii::Table.32"*, align 8
  %.addr = alloca %"class.dealii::Table.32"*, align 8
  store %"class.dealii::Table.32"* %this, %"class.dealii::Table.32"** %this.addr, align 8
  call void @llvm.dbg.declare(metadata %"class.dealii::Table.32"** %this.addr, metadata !9559, metadata !DIExpression()), !dbg !9561
  store %"class.dealii::Table.32"* %0, %"class.dealii::Table.32"** %.addr, align 8
  call void @llvm.dbg.declare(metadata %"class.dealii::Table.32"** %.addr, metadata !9562, metadata !DIExpression()), !dbg !9561
  %this1 = load %"class.dealii::Table.32"*, %"class.dealii::Table.32"** %this.addr, align 8
  %1 = bitcast %"class.dealii::Table.32"* %this1 to %"class.dealii::TableBase.33"*, !dbg !9563
  %2 = load %"class.dealii::Table.32"*, %"class.dealii::Table.32"** %.addr, align 8, !dbg !9563
  %3 = bitcast %"class.dealii::Table.32"* %2 to %"class.dealii::TableBase.33"*, !dbg !9563
  call void @_ZN6dealii9TableBaseILi2EiEC2ERKS1_(%"class.dealii::TableBase.33"* %1, %"class.dealii::TableBase.33"* dereferenceable(96) %3), !dbg !9563
  %4 = bitcast %"class.dealii::Table.32"* %this1 to i32 (...)***, !dbg !9563
  store i32 (...)** bitcast (i8** getelementptr inbounds ({ [4 x i8*] }, { [4 x i8*] }* @_ZTVN6dealii5TableILi2EiEE, i32 0, inrange i32 0, i32 2) to i32 (...)**), i32 (...)*** %4, align 8, !dbg !9563
  ret void, !dbg !9563
}

; Function Attrs: noinline uwtable
define linkonce_odr dso_local void @_ZNSt6vectorIiSaIiEEC2ERKS1_(%"class.std::vector.36"* %this, %"class.std::vector.36"* dereferenceable(24) %__x) unnamed_addr #0 comdat align 2 personality i8* bitcast (i32 (...)* @__gxx_personality_v0 to i8*) !dbg !9564 {
entry:
  %this.addr = alloca %"class.std::vector.36"*, align 8
  %__x.addr = alloca %"class.std::vector.36"*, align 8
  %ref.tmp = alloca %"class.std::allocator.38", align 1
  %exn.slot = alloca i8*
  %ehselector.slot = alloca i32
  %agg.tmp = alloca %"class.__gnu_cxx::__normal_iterator.94", align 8
  %agg.tmp4 = alloca %"class.__gnu_cxx::__normal_iterator.94", align 8
  store %"class.std::vector.36"* %this, %"class.std::vector.36"** %this.addr, align 8
  call void @llvm.dbg.declare(metadata %"class.std::vector.36"** %this.addr, metadata !9565, metadata !DIExpression()), !dbg !9567
  store %"class.std::vector.36"* %__x, %"class.std::vector.36"** %__x.addr, align 8
  call void @llvm.dbg.declare(metadata %"class.std::vector.36"** %__x.addr, metadata !9568, metadata !DIExpression()), !dbg !9569
  %this1 = load %"class.std::vector.36"*, %"class.std::vector.36"** %this.addr, align 8
  %0 = bitcast %"class.std::vector.36"* %this1 to %"struct.std::_Vector_base.37"*, !dbg !9570
  %1 = load %"class.std::vector.36"*, %"class.std::vector.36"** %__x.addr, align 8, !dbg !9571
  %call = call i64 @_ZNKSt6vectorIiSaIiEE4sizeEv(%"class.std::vector.36"* %1) #4, !dbg !9572
  %2 = load %"class.std::vector.36"*, %"class.std::vector.36"** %__x.addr, align 8, !dbg !9573
  %3 = bitcast %"class.std::vector.36"* %2 to %"struct.std::_Vector_base.37"*, !dbg !9573
  %call2 = call dereferenceable(1) %"class.std::allocator.38"* @_ZNKSt12_Vector_baseIiSaIiEE19_M_get_Tp_allocatorEv(%"struct.std::_Vector_base.37"* %3) #4, !dbg !9574
  call void @_ZN9__gnu_cxx14__alloc_traitsISaIiEiE17_S_select_on_copyERKS1_(%"class.std::allocator.38"* sret %ref.tmp, %"class.std::allocator.38"* dereferenceable(1) %call2), !dbg !9575
  invoke void @_ZNSt12_Vector_baseIiSaIiEEC2EmRKS0_(%"struct.std::_Vector_base.37"* %0, i64 %call, %"class.std::allocator.38"* dereferenceable(1) %ref.tmp)
          to label %invoke.cont unwind label %lpad, !dbg !9576

invoke.cont:                                      ; preds = %entry
  call void @_ZNSaIiED2Ev(%"class.std::allocator.38"* %ref.tmp) #4, !dbg !9576
  %4 = load %"class.std::vector.36"*, %"class.std::vector.36"** %__x.addr, align 8, !dbg !9577
  %call3 = call i32* @_ZNKSt6vectorIiSaIiEE5beginEv(%"class.std::vector.36"* %4) #4, !dbg !9579
  %coerce.dive = getelementptr inbounds %"class.__gnu_cxx::__normal_iterator.94", %"class.__gnu_cxx::__normal_iterator.94"* %agg.tmp, i32 0, i32 0, !dbg !9579
  store i32* %call3, i32** %coerce.dive, align 8, !dbg !9579
  %5 = load %"class.std::vector.36"*, %"class.std::vector.36"** %__x.addr, align 8, !dbg !9580
  %call5 = call i32* @_ZNKSt6vectorIiSaIiEE3endEv(%"class.std::vector.36"* %5) #4, !dbg !9581
  %coerce.dive6 = getelementptr inbounds %"class.__gnu_cxx::__normal_iterator.94", %"class.__gnu_cxx::__normal_iterator.94"* %agg.tmp4, i32 0, i32 0, !dbg !9581
  store i32* %call5, i32** %coerce.dive6, align 8, !dbg !9581
  %6 = bitcast %"class.std::vector.36"* %this1 to %"struct.std::_Vector_base.37"*, !dbg !9582
  %_M_impl = getelementptr inbounds %"struct.std::_Vector_base.37", %"struct.std::_Vector_base.37"* %6, i32 0, i32 0, !dbg !9582
  %7 = bitcast %"struct.std::_Vector_base<int, std::allocator<int> >::_Vector_impl"* %_M_impl to %"struct.std::_Vector_base<int, std::allocator<int> >::_Vector_impl_data"*, !dbg !9583
  %_M_start = getelementptr inbounds %"struct.std::_Vector_base<int, std::allocator<int> >::_Vector_impl_data", %"struct.std::_Vector_base<int, std::allocator<int> >::_Vector_impl_data"* %7, i32 0, i32 0, !dbg !9584
  %8 = load i32*, i32** %_M_start, align 8, !dbg !9584
  %9 = bitcast %"class.std::vector.36"* %this1 to %"struct.std::_Vector_base.37"*, !dbg !9585
  %call7 = call dereferenceable(1) %"class.std::allocator.38"* @_ZNSt12_Vector_baseIiSaIiEE19_M_get_Tp_allocatorEv(%"struct.std::_Vector_base.37"* %9) #4, !dbg !9585
  %coerce.dive8 = getelementptr inbounds %"class.__gnu_cxx::__normal_iterator.94", %"class.__gnu_cxx::__normal_iterator.94"* %agg.tmp, i32 0, i32 0, !dbg !9586
  %10 = load i32*, i32** %coerce.dive8, align 8, !dbg !9586
  %coerce.dive9 = getelementptr inbounds %"class.__gnu_cxx::__normal_iterator.94", %"class.__gnu_cxx::__normal_iterator.94"* %agg.tmp4, i32 0, i32 0, !dbg !9586
  %11 = load i32*, i32** %coerce.dive9, align 8, !dbg !9586
  %call12 = invoke i32* @_ZSt22__uninitialized_copy_aIN9__gnu_cxx17__normal_iteratorIPKiSt6vectorIiSaIiEEEEPiiET0_T_SA_S9_RSaIT1_E(i32* %10, i32* %11, i32* %8, %"class.std::allocator.38"* dereferenceable(1) %call7)
          to label %invoke.cont11 unwind label %lpad10, !dbg !9586

invoke.cont11:                                    ; preds = %invoke.cont
  %12 = bitcast %"class.std::vector.36"* %this1 to %"struct.std::_Vector_base.37"*, !dbg !9587
  %_M_impl13 = getelementptr inbounds %"struct.std::_Vector_base.37", %"struct.std::_Vector_base.37"* %12, i32 0, i32 0, !dbg !9587
  %13 = bitcast %"struct.std::_Vector_base<int, std::allocator<int> >::_Vector_impl"* %_M_impl13 to %"struct.std::_Vector_base<int, std::allocator<int> >::_Vector_impl_data"*, !dbg !9588
  %_M_finish = getelementptr inbounds %"struct.std::_Vector_base<int, std::allocator<int> >::_Vector_impl_data", %"struct.std::_Vector_base<int, std::allocator<int> >::_Vector_impl_data"* %13, i32 0, i32 1, !dbg !9589
  store i32* %call12, i32** %_M_finish, align 8, !dbg !9590
  ret void, !dbg !9591

lpad:                                             ; preds = %entry
  %14 = landingpad { i8*, i32 }
          cleanup, !dbg !9591
  %15 = extractvalue { i8*, i32 } %14, 0, !dbg !9591
  store i8* %15, i8** %exn.slot, align 8, !dbg !9591
  %16 = extractvalue { i8*, i32 } %14, 1, !dbg !9591
  store i32 %16, i32* %ehselector.slot, align 4, !dbg !9591
  call void @_ZNSaIiED2Ev(%"class.std::allocator.38"* %ref.tmp) #4, !dbg !9576
  br label %eh.resume, !dbg !9576

lpad10:                                           ; preds = %invoke.cont
  %17 = landingpad { i8*, i32 }
          cleanup, !dbg !9592
  %18 = extractvalue { i8*, i32 } %17, 0, !dbg !9592
  store i8* %18, i8** %exn.slot, align 8, !dbg !9592
  %19 = extractvalue { i8*, i32 } %17, 1, !dbg !9592
  store i32 %19, i32* %ehselector.slot, align 4, !dbg !9592
  %20 = bitcast %"class.std::vector.36"* %this1 to %"struct.std::_Vector_base.37"*, !dbg !9592
  call void @_ZNSt12_Vector_baseIiSaIiEED2Ev(%"struct.std::_Vector_base.37"* %20) #4, !dbg !9592
  br label %eh.resume, !dbg !9592

eh.resume:                                        ; preds = %lpad10, %lpad
  %exn = load i8*, i8** %exn.slot, align 8, !dbg !9576
  %sel = load i32, i32* %ehselector.slot, align 4, !dbg !9576
  %lpad.val = insertvalue { i8*, i32 } undef, i8* %exn, 0, !dbg !9576
  %lpad.val14 = insertvalue { i8*, i32 } %lpad.val, i32 %sel, 1, !dbg !9576
  resume { i8*, i32 } %lpad.val14, !dbg !9576
}

; Function Attrs: noinline uwtable
define linkonce_odr dso_local void @_ZNSt6vectorISt4pairIjjESaIS1_EEC2ERKS3_(%"class.std::vector.41"* %this, %"class.std::vector.41"* dereferenceable(24) %__x) unnamed_addr #0 comdat align 2 personality i8* bitcast (i32 (...)* @__gxx_personality_v0 to i8*) !dbg !9593 {
entry:
  %this.addr = alloca %"class.std::vector.41"*, align 8
  %__x.addr = alloca %"class.std::vector.41"*, align 8
  %ref.tmp = alloca %"class.std::allocator.43", align 1
  %exn.slot = alloca i8*
  %ehselector.slot = alloca i32
  %agg.tmp = alloca %"class.__gnu_cxx::__normal_iterator.95", align 8
  %agg.tmp4 = alloca %"class.__gnu_cxx::__normal_iterator.95", align 8
  store %"class.std::vector.41"* %this, %"class.std::vector.41"** %this.addr, align 8
  call void @llvm.dbg.declare(metadata %"class.std::vector.41"** %this.addr, metadata !9594, metadata !DIExpression()), !dbg !9595
  store %"class.std::vector.41"* %__x, %"class.std::vector.41"** %__x.addr, align 8
  call void @llvm.dbg.declare(metadata %"class.std::vector.41"** %__x.addr, metadata !9596, metadata !DIExpression()), !dbg !9597
  %this1 = load %"class.std::vector.41"*, %"class.std::vector.41"** %this.addr, align 8
  %0 = bitcast %"class.std::vector.41"* %this1 to %"struct.std::_Vector_base.42"*, !dbg !9598
  %1 = load %"class.std::vector.41"*, %"class.std::vector.41"** %__x.addr, align 8, !dbg !9599
  %call = call i64 @_ZNKSt6vectorISt4pairIjjESaIS1_EE4sizeEv(%"class.std::vector.41"* %1) #4, !dbg !9600
  %2 = load %"class.std::vector.41"*, %"class.std::vector.41"** %__x.addr, align 8, !dbg !9601
  %3 = bitcast %"class.std::vector.41"* %2 to %"struct.std::_Vector_base.42"*, !dbg !9601
  %call2 = call dereferenceable(1) %"class.std::allocator.43"* @_ZNKSt12_Vector_baseISt4pairIjjESaIS1_EE19_M_get_Tp_allocatorEv(%"struct.std::_Vector_base.42"* %3) #4, !dbg !9602
  call void @_ZN9__gnu_cxx14__alloc_traitsISaISt4pairIjjEES2_E17_S_select_on_copyERKS3_(%"class.std::allocator.43"* sret %ref.tmp, %"class.std::allocator.43"* dereferenceable(1) %call2), !dbg !9603
  invoke void @_ZNSt12_Vector_baseISt4pairIjjESaIS1_EEC2EmRKS2_(%"struct.std::_Vector_base.42"* %0, i64 %call, %"class.std::allocator.43"* dereferenceable(1) %ref.tmp)
          to label %invoke.cont unwind label %lpad, !dbg !9604

invoke.cont:                                      ; preds = %entry
  call void @_ZNSaISt4pairIjjEED2Ev(%"class.std::allocator.43"* %ref.tmp) #4, !dbg !9604
  %4 = load %"class.std::vector.41"*, %"class.std::vector.41"** %__x.addr, align 8, !dbg !9605
  %call3 = call %"struct.std::pair"* @_ZNKSt6vectorISt4pairIjjESaIS1_EE5beginEv(%"class.std::vector.41"* %4) #4, !dbg !9607
  %coerce.dive = getelementptr inbounds %"class.__gnu_cxx::__normal_iterator.95", %"class.__gnu_cxx::__normal_iterator.95"* %agg.tmp, i32 0, i32 0, !dbg !9607
  store %"struct.std::pair"* %call3, %"struct.std::pair"** %coerce.dive, align 8, !dbg !9607
  %5 = load %"class.std::vector.41"*, %"class.std::vector.41"** %__x.addr, align 8, !dbg !9608
  %call5 = call %"struct.std::pair"* @_ZNKSt6vectorISt4pairIjjESaIS1_EE3endEv(%"class.std::vector.41"* %5) #4, !dbg !9609
  %coerce.dive6 = getelementptr inbounds %"class.__gnu_cxx::__normal_iterator.95", %"class.__gnu_cxx::__normal_iterator.95"* %agg.tmp4, i32 0, i32 0, !dbg !9609
  store %"struct.std::pair"* %call5, %"struct.std::pair"** %coerce.dive6, align 8, !dbg !9609
  %6 = bitcast %"class.std::vector.41"* %this1 to %"struct.std::_Vector_base.42"*, !dbg !9610
  %_M_impl = getelementptr inbounds %"struct.std::_Vector_base.42", %"struct.std::_Vector_base.42"* %6, i32 0, i32 0, !dbg !9610
  %7 = bitcast %"struct.std::_Vector_base<std::pair<unsigned int, unsigned int>, std::allocator<std::pair<unsigned int, unsigned int> > >::_Vector_impl"* %_M_impl to %"struct.std::_Vector_base<std::pair<unsigned int, unsigned int>, std::allocator<std::pair<unsigned int, unsigned int> > >::_Vector_impl_data"*, !dbg !9611
  %_M_start = getelementptr inbounds %"struct.std::_Vector_base<std::pair<unsigned int, unsigned int>, std::allocator<std::pair<unsigned int, unsigned int> > >::_Vector_impl_data", %"struct.std::_Vector_base<std::pair<unsigned int, unsigned int>, std::allocator<std::pair<unsigned int, unsigned int> > >::_Vector_impl_data"* %7, i32 0, i32 0, !dbg !9612
  %8 = load %"struct.std::pair"*, %"struct.std::pair"** %_M_start, align 8, !dbg !9612
  %9 = bitcast %"class.std::vector.41"* %this1 to %"struct.std::_Vector_base.42"*, !dbg !9613
  %call7 = call dereferenceable(1) %"class.std::allocator.43"* @_ZNSt12_Vector_baseISt4pairIjjESaIS1_EE19_M_get_Tp_allocatorEv(%"struct.std::_Vector_base.42"* %9) #4, !dbg !9613
  %coerce.dive8 = getelementptr inbounds %"class.__gnu_cxx::__normal_iterator.95", %"class.__gnu_cxx::__normal_iterator.95"* %agg.tmp, i32 0, i32 0, !dbg !9614
  %10 = load %"struct.std::pair"*, %"struct.std::pair"** %coerce.dive8, align 8, !dbg !9614
  %coerce.dive9 = getelementptr inbounds %"class.__gnu_cxx::__normal_iterator.95", %"class.__gnu_cxx::__normal_iterator.95"* %agg.tmp4, i32 0, i32 0, !dbg !9614
  %11 = load %"struct.std::pair"*, %"struct.std::pair"** %coerce.dive9, align 8, !dbg !9614
  %call12 = invoke %"struct.std::pair"* @_ZSt22__uninitialized_copy_aIN9__gnu_cxx17__normal_iteratorIPKSt4pairIjjESt6vectorIS3_SaIS3_EEEEPS3_S3_ET0_T_SC_SB_RSaIT1_E(%"struct.std::pair"* %10, %"struct.std::pair"* %11, %"struct.std::pair"* %8, %"class.std::allocator.43"* dereferenceable(1) %call7)
          to label %invoke.cont11 unwind label %lpad10, !dbg !9614

invoke.cont11:                                    ; preds = %invoke.cont
  %12 = bitcast %"class.std::vector.41"* %this1 to %"struct.std::_Vector_base.42"*, !dbg !9615
  %_M_impl13 = getelementptr inbounds %"struct.std::_Vector_base.42", %"struct.std::_Vector_base.42"* %12, i32 0, i32 0, !dbg !9615
  %13 = bitcast %"struct.std::_Vector_base<std::pair<unsigned int, unsigned int>, std::allocator<std::pair<unsigned int, unsigned int> > >::_Vector_impl"* %_M_impl13 to %"struct.std::_Vector_base<std::pair<unsigned int, unsigned int>, std::allocator<std::pair<unsigned int, unsigned int> > >::_Vector_impl_data"*, !dbg !9616
  %_M_finish = getelementptr inbounds %"struct.std::_Vector_base<std::pair<unsigned int, unsigned int>, std::allocator<std::pair<unsigned int, unsigned int> > >::_Vector_impl_data", %"struct.std::_Vector_base<std::pair<unsigned int, unsigned int>, std::allocator<std::pair<unsigned int, unsigned int> > >::_Vector_impl_data"* %13, i32 0, i32 1, !dbg !9617
  store %"struct.std::pair"* %call12, %"struct.std::pair"** %_M_finish, align 8, !dbg !9618
  ret void, !dbg !9619

lpad:                                             ; preds = %entry
  %14 = landingpad { i8*, i32 }
          cleanup, !dbg !9619
  %15 = extractvalue { i8*, i32 } %14, 0, !dbg !9619
  store i8* %15, i8** %exn.slot, align 8, !dbg !9619
  %16 = extractvalue { i8*, i32 } %14, 1, !dbg !9619
  store i32 %16, i32* %ehselector.slot, align 4, !dbg !9619
  call void @_ZNSaISt4pairIjjEED2Ev(%"class.std::allocator.43"* %ref.tmp) #4, !dbg !9604
  br label %eh.resume, !dbg !9604

lpad10:                                           ; preds = %invoke.cont
  %17 = landingpad { i8*, i32 }
          cleanup, !dbg !9620
  %18 = extractvalue { i8*, i32 } %17, 0, !dbg !9620
  store i8* %18, i8** %exn.slot, align 8, !dbg !9620
  %19 = extractvalue { i8*, i32 } %17, 1, !dbg !9620
  store i32 %19, i32* %ehselector.slot, align 4, !dbg !9620
  %20 = bitcast %"class.std::vector.41"* %this1 to %"struct.std::_Vector_base.42"*, !dbg !9620
  call void @_ZNSt12_Vector_baseISt4pairIjjESaIS1_EED2Ev(%"struct.std::_Vector_base.42"* %20) #4, !dbg !9620
  br label %eh.resume, !dbg !9620

eh.resume:                                        ; preds = %lpad10, %lpad
  %exn = load i8*, i8** %exn.slot, align 8, !dbg !9604
  %sel = load i32, i32* %ehselector.slot, align 4, !dbg !9604
  %lpad.val = insertvalue { i8*, i32 } undef, i8* %exn, 0, !dbg !9604
  %lpad.val14 = insertvalue { i8*, i32 } %lpad.val, i32 %sel, 1, !dbg !9604
  resume { i8*, i32 } %lpad.val14, !dbg !9604
}

; Function Attrs: noinline uwtable
define linkonce_odr dso_local void @_ZNSt6vectorISt4pairIS0_IjjEjESaIS2_EEC2ERKS4_(%"class.std::vector.46"* %this, %"class.std::vector.46"* dereferenceable(24) %__x) unnamed_addr #0 comdat align 2 personality i8* bitcast (i32 (...)* @__gxx_personality_v0 to i8*) !dbg !9621 {
entry:
  %this.addr = alloca %"class.std::vector.46"*, align 8
  %__x.addr = alloca %"class.std::vector.46"*, align 8
  %ref.tmp = alloca %"class.std::allocator.48", align 1
  %exn.slot = alloca i8*
  %ehselector.slot = alloca i32
  %agg.tmp = alloca %"class.__gnu_cxx::__normal_iterator.96", align 8
  %agg.tmp4 = alloca %"class.__gnu_cxx::__normal_iterator.96", align 8
  store %"class.std::vector.46"* %this, %"class.std::vector.46"** %this.addr, align 8
  call void @llvm.dbg.declare(metadata %"class.std::vector.46"** %this.addr, metadata !9622, metadata !DIExpression()), !dbg !9624
  store %"class.std::vector.46"* %__x, %"class.std::vector.46"** %__x.addr, align 8
  call void @llvm.dbg.declare(metadata %"class.std::vector.46"** %__x.addr, metadata !9625, metadata !DIExpression()), !dbg !9626
  %this1 = load %"class.std::vector.46"*, %"class.std::vector.46"** %this.addr, align 8
  %0 = bitcast %"class.std::vector.46"* %this1 to %"struct.std::_Vector_base.47"*, !dbg !9627
  %1 = load %"class.std::vector.46"*, %"class.std::vector.46"** %__x.addr, align 8, !dbg !9628
  %call = call i64 @_ZNKSt6vectorISt4pairIS0_IjjEjESaIS2_EE4sizeEv(%"class.std::vector.46"* %1) #4, !dbg !9629
  %2 = load %"class.std::vector.46"*, %"class.std::vector.46"** %__x.addr, align 8, !dbg !9630
  %3 = bitcast %"class.std::vector.46"* %2 to %"struct.std::_Vector_base.47"*, !dbg !9630
  %call2 = call dereferenceable(1) %"class.std::allocator.48"* @_ZNKSt12_Vector_baseISt4pairIS0_IjjEjESaIS2_EE19_M_get_Tp_allocatorEv(%"struct.std::_Vector_base.47"* %3) #4, !dbg !9631
  call void @_ZN9__gnu_cxx14__alloc_traitsISaISt4pairIS1_IjjEjEES3_E17_S_select_on_copyERKS4_(%"class.std::allocator.48"* sret %ref.tmp, %"class.std::allocator.48"* dereferenceable(1) %call2), !dbg !9632
  invoke void @_ZNSt12_Vector_baseISt4pairIS0_IjjEjESaIS2_EEC2EmRKS3_(%"struct.std::_Vector_base.47"* %0, i64 %call, %"class.std::allocator.48"* dereferenceable(1) %ref.tmp)
          to label %invoke.cont unwind label %lpad, !dbg !9633

invoke.cont:                                      ; preds = %entry
  call void @_ZNSaISt4pairIS_IjjEjEED2Ev(%"class.std::allocator.48"* %ref.tmp) #4, !dbg !9633
  %4 = load %"class.std::vector.46"*, %"class.std::vector.46"** %__x.addr, align 8, !dbg !9634
  %call3 = call %"struct.std::pair.51"* @_ZNKSt6vectorISt4pairIS0_IjjEjESaIS2_EE5beginEv(%"class.std::vector.46"* %4) #4, !dbg !9636
  %coerce.dive = getelementptr inbounds %"class.__gnu_cxx::__normal_iterator.96", %"class.__gnu_cxx::__normal_iterator.96"* %agg.tmp, i32 0, i32 0, !dbg !9636
  store %"struct.std::pair.51"* %call3, %"struct.std::pair.51"** %coerce.dive, align 8, !dbg !9636
  %5 = load %"class.std::vector.46"*, %"class.std::vector.46"** %__x.addr, align 8, !dbg !9637
  %call5 = call %"struct.std::pair.51"* @_ZNKSt6vectorISt4pairIS0_IjjEjESaIS2_EE3endEv(%"class.std::vector.46"* %5) #4, !dbg !9638
  %coerce.dive6 = getelementptr inbounds %"class.__gnu_cxx::__normal_iterator.96", %"class.__gnu_cxx::__normal_iterator.96"* %agg.tmp4, i32 0, i32 0, !dbg !9638
  store %"struct.std::pair.51"* %call5, %"struct.std::pair.51"** %coerce.dive6, align 8, !dbg !9638
  %6 = bitcast %"class.std::vector.46"* %this1 to %"struct.std::_Vector_base.47"*, !dbg !9639
  %_M_impl = getelementptr inbounds %"struct.std::_Vector_base.47", %"struct.std::_Vector_base.47"* %6, i32 0, i32 0, !dbg !9639
  %7 = bitcast %"struct.std::_Vector_base<std::pair<std::pair<unsigned int, unsigned int>, unsigned int>, std::allocator<std::pair<std::pair<unsigned int, unsigned int>, unsigned int> > >::_Vector_impl"* %_M_impl to %"struct.std::_Vector_base<std::pair<std::pair<unsigned int, unsigned int>, unsigned int>, std::allocator<std::pair<std::pair<unsigned int, unsigned int>, unsigned int> > >::_Vector_impl_data"*, !dbg !9640
  %_M_start = getelementptr inbounds %"struct.std::_Vector_base<std::pair<std::pair<unsigned int, unsigned int>, unsigned int>, std::allocator<std::pair<std::pair<unsigned int, unsigned int>, unsigned int> > >::_Vector_impl_data", %"struct.std::_Vector_base<std::pair<std::pair<unsigned int, unsigned int>, unsigned int>, std::allocator<std::pair<std::pair<unsigned int, unsigned int>, unsigned int> > >::_Vector_impl_data"* %7, i32 0, i32 0, !dbg !9641
  %8 = load %"struct.std::pair.51"*, %"struct.std::pair.51"** %_M_start, align 8, !dbg !9641
  %9 = bitcast %"class.std::vector.46"* %this1 to %"struct.std::_Vector_base.47"*, !dbg !9642
  %call7 = call dereferenceable(1) %"class.std::allocator.48"* @_ZNSt12_Vector_baseISt4pairIS0_IjjEjESaIS2_EE19_M_get_Tp_allocatorEv(%"struct.std::_Vector_base.47"* %9) #4, !dbg !9642
  %coerce.dive8 = getelementptr inbounds %"class.__gnu_cxx::__normal_iterator.96", %"class.__gnu_cxx::__normal_iterator.96"* %agg.tmp, i32 0, i32 0, !dbg !9643
  %10 = load %"struct.std::pair.51"*, %"struct.std::pair.51"** %coerce.dive8, align 8, !dbg !9643
  %coerce.dive9 = getelementptr inbounds %"class.__gnu_cxx::__normal_iterator.96", %"class.__gnu_cxx::__normal_iterator.96"* %agg.tmp4, i32 0, i32 0, !dbg !9643
  %11 = load %"struct.std::pair.51"*, %"struct.std::pair.51"** %coerce.dive9, align 8, !dbg !9643
  %call12 = invoke %"struct.std::pair.51"* @_ZSt22__uninitialized_copy_aIN9__gnu_cxx17__normal_iteratorIPKSt4pairIS2_IjjEjESt6vectorIS4_SaIS4_EEEEPS4_S4_ET0_T_SD_SC_RSaIT1_E(%"struct.std::pair.51"* %10, %"struct.std::pair.51"* %11, %"struct.std::pair.51"* %8, %"class.std::allocator.48"* dereferenceable(1) %call7)
          to label %invoke.cont11 unwind label %lpad10, !dbg !9643

invoke.cont11:                                    ; preds = %invoke.cont
  %12 = bitcast %"class.std::vector.46"* %this1 to %"struct.std::_Vector_base.47"*, !dbg !9644
  %_M_impl13 = getelementptr inbounds %"struct.std::_Vector_base.47", %"struct.std::_Vector_base.47"* %12, i32 0, i32 0, !dbg !9644
  %13 = bitcast %"struct.std::_Vector_base<std::pair<std::pair<unsigned int, unsigned int>, unsigned int>, std::allocator<std::pair<std::pair<unsigned int, unsigned int>, unsigned int> > >::_Vector_impl"* %_M_impl13 to %"struct.std::_Vector_base<std::pair<std::pair<unsigned int, unsigned int>, unsigned int>, std::allocator<std::pair<std::pair<unsigned int, unsigned int>, unsigned int> > >::_Vector_impl_data"*, !dbg !9645
  %_M_finish = getelementptr inbounds %"struct.std::_Vector_base<std::pair<std::pair<unsigned int, unsigned int>, unsigned int>, std::allocator<std::pair<std::pair<unsigned int, unsigned int>, unsigned int> > >::_Vector_impl_data", %"struct.std::_Vector_base<std::pair<std::pair<unsigned int, unsigned int>, unsigned int>, std::allocator<std::pair<std::pair<unsigned int, unsigned int>, unsigned int> > >::_Vector_impl_data"* %13, i32 0, i32 1, !dbg !9646
  store %"struct.std::pair.51"* %call12, %"struct.std::pair.51"** %_M_finish, align 8, !dbg !9647
  ret void, !dbg !9648

lpad:                                             ; preds = %entry
  %14 = landingpad { i8*, i32 }
          cleanup, !dbg !9648
  %15 = extractvalue { i8*, i32 } %14, 0, !dbg !9648
  store i8* %15, i8** %exn.slot, align 8, !dbg !9648
  %16 = extractvalue { i8*, i32 } %14, 1, !dbg !9648
  store i32 %16, i32* %ehselector.slot, align 4, !dbg !9648
  call void @_ZNSaISt4pairIS_IjjEjEED2Ev(%"class.std::allocator.48"* %ref.tmp) #4, !dbg !9633
  br label %eh.resume, !dbg !9633

lpad10:                                           ; preds = %invoke.cont
  %17 = landingpad { i8*, i32 }
          cleanup, !dbg !9649
  %18 = extractvalue { i8*, i32 } %17, 0, !dbg !9649
  store i8* %18, i8** %exn.slot, align 8, !dbg !9649
  %19 = extractvalue { i8*, i32 } %17, 1, !dbg !9649
  store i32 %19, i32* %ehselector.slot, align 4, !dbg !9649
  %20 = bitcast %"class.std::vector.46"* %this1 to %"struct.std::_Vector_base.47"*, !dbg !9649
  call void @_ZNSt12_Vector_baseISt4pairIS0_IjjEjESaIS2_EED2Ev(%"struct.std::_Vector_base.47"* %20) #4, !dbg !9649
  br label %eh.resume, !dbg !9649

eh.resume:                                        ; preds = %lpad10, %lpad
  %exn = load i8*, i8** %exn.slot, align 8, !dbg !9633
  %sel = load i32, i32* %ehselector.slot, align 4, !dbg !9633
  %lpad.val = insertvalue { i8*, i32 } undef, i8* %exn, 0, !dbg !9633
  %lpad.val14 = insertvalue { i8*, i32 } %lpad.val, i32 %sel, 1, !dbg !9633
  resume { i8*, i32 } %lpad.val14, !dbg !9633
}

; Function Attrs: noinline uwtable
define linkonce_odr dso_local void @_ZNSt6vectorIjSaIjEEC2ERKS1_(%"class.std::vector.54"* %this, %"class.std::vector.54"* dereferenceable(24) %__x) unnamed_addr #0 comdat align 2 personality i8* bitcast (i32 (...)* @__gxx_personality_v0 to i8*) !dbg !9650 {
entry:
  %this.addr = alloca %"class.std::vector.54"*, align 8
  %__x.addr = alloca %"class.std::vector.54"*, align 8
  %ref.tmp = alloca %"class.std::allocator.56", align 1
  %exn.slot = alloca i8*
  %ehselector.slot = alloca i32
  %agg.tmp = alloca %"class.__gnu_cxx::__normal_iterator.97", align 8
  %agg.tmp4 = alloca %"class.__gnu_cxx::__normal_iterator.97", align 8
  store %"class.std::vector.54"* %this, %"class.std::vector.54"** %this.addr, align 8
  call void @llvm.dbg.declare(metadata %"class.std::vector.54"** %this.addr, metadata !9651, metadata !DIExpression()), !dbg !9652
  store %"class.std::vector.54"* %__x, %"class.std::vector.54"** %__x.addr, align 8
  call void @llvm.dbg.declare(metadata %"class.std::vector.54"** %__x.addr, metadata !9653, metadata !DIExpression()), !dbg !9654
  %this1 = load %"class.std::vector.54"*, %"class.std::vector.54"** %this.addr, align 8
  %0 = bitcast %"class.std::vector.54"* %this1 to %"struct.std::_Vector_base.55"*, !dbg !9655
  %1 = load %"class.std::vector.54"*, %"class.std::vector.54"** %__x.addr, align 8, !dbg !9656
  %call = call i64 @_ZNKSt6vectorIjSaIjEE4sizeEv(%"class.std::vector.54"* %1) #4, !dbg !9657
  %2 = load %"class.std::vector.54"*, %"class.std::vector.54"** %__x.addr, align 8, !dbg !9658
  %3 = bitcast %"class.std::vector.54"* %2 to %"struct.std::_Vector_base.55"*, !dbg !9658
  %call2 = call dereferenceable(1) %"class.std::allocator.56"* @_ZNKSt12_Vector_baseIjSaIjEE19_M_get_Tp_allocatorEv(%"struct.std::_Vector_base.55"* %3) #4, !dbg !9659
  call void @_ZN9__gnu_cxx14__alloc_traitsISaIjEjE17_S_select_on_copyERKS1_(%"class.std::allocator.56"* sret %ref.tmp, %"class.std::allocator.56"* dereferenceable(1) %call2), !dbg !9660
  invoke void @_ZNSt12_Vector_baseIjSaIjEEC2EmRKS0_(%"struct.std::_Vector_base.55"* %0, i64 %call, %"class.std::allocator.56"* dereferenceable(1) %ref.tmp)
          to label %invoke.cont unwind label %lpad, !dbg !9661

invoke.cont:                                      ; preds = %entry
  call void @_ZNSaIjED2Ev(%"class.std::allocator.56"* %ref.tmp) #4, !dbg !9661
  %4 = load %"class.std::vector.54"*, %"class.std::vector.54"** %__x.addr, align 8, !dbg !9662
  %call3 = call i32* @_ZNKSt6vectorIjSaIjEE5beginEv(%"class.std::vector.54"* %4) #4, !dbg !9664
  %coerce.dive = getelementptr inbounds %"class.__gnu_cxx::__normal_iterator.97", %"class.__gnu_cxx::__normal_iterator.97"* %agg.tmp, i32 0, i32 0, !dbg !9664
  store i32* %call3, i32** %coerce.dive, align 8, !dbg !9664
  %5 = load %"class.std::vector.54"*, %"class.std::vector.54"** %__x.addr, align 8, !dbg !9665
  %call5 = call i32* @_ZNKSt6vectorIjSaIjEE3endEv(%"class.std::vector.54"* %5) #4, !dbg !9666
  %coerce.dive6 = getelementptr inbounds %"class.__gnu_cxx::__normal_iterator.97", %"class.__gnu_cxx::__normal_iterator.97"* %agg.tmp4, i32 0, i32 0, !dbg !9666
  store i32* %call5, i32** %coerce.dive6, align 8, !dbg !9666
  %6 = bitcast %"class.std::vector.54"* %this1 to %"struct.std::_Vector_base.55"*, !dbg !9667
  %_M_impl = getelementptr inbounds %"struct.std::_Vector_base.55", %"struct.std::_Vector_base.55"* %6, i32 0, i32 0, !dbg !9667
  %7 = bitcast %"struct.std::_Vector_base<unsigned int, std::allocator<unsigned int> >::_Vector_impl"* %_M_impl to %"struct.std::_Vector_base<unsigned int, std::allocator<unsigned int> >::_Vector_impl_data"*, !dbg !9668
  %_M_start = getelementptr inbounds %"struct.std::_Vector_base<unsigned int, std::allocator<unsigned int> >::_Vector_impl_data", %"struct.std::_Vector_base<unsigned int, std::allocator<unsigned int> >::_Vector_impl_data"* %7, i32 0, i32 0, !dbg !9669
  %8 = load i32*, i32** %_M_start, align 8, !dbg !9669
  %9 = bitcast %"class.std::vector.54"* %this1 to %"struct.std::_Vector_base.55"*, !dbg !9670
  %call7 = call dereferenceable(1) %"class.std::allocator.56"* @_ZNSt12_Vector_baseIjSaIjEE19_M_get_Tp_allocatorEv(%"struct.std::_Vector_base.55"* %9) #4, !dbg !9670
  %coerce.dive8 = getelementptr inbounds %"class.__gnu_cxx::__normal_iterator.97", %"class.__gnu_cxx::__normal_iterator.97"* %agg.tmp, i32 0, i32 0, !dbg !9671
  %10 = load i32*, i32** %coerce.dive8, align 8, !dbg !9671
  %coerce.dive9 = getelementptr inbounds %"class.__gnu_cxx::__normal_iterator.97", %"class.__gnu_cxx::__normal_iterator.97"* %agg.tmp4, i32 0, i32 0, !dbg !9671
  %11 = load i32*, i32** %coerce.dive9, align 8, !dbg !9671
  %call12 = invoke i32* @_ZSt22__uninitialized_copy_aIN9__gnu_cxx17__normal_iteratorIPKjSt6vectorIjSaIjEEEEPjjET0_T_SA_S9_RSaIT1_E(i32* %10, i32* %11, i32* %8, %"class.std::allocator.56"* dereferenceable(1) %call7)
          to label %invoke.cont11 unwind label %lpad10, !dbg !9671

invoke.cont11:                                    ; preds = %invoke.cont
  %12 = bitcast %"class.std::vector.54"* %this1 to %"struct.std::_Vector_base.55"*, !dbg !9672
  %_M_impl13 = getelementptr inbounds %"struct.std::_Vector_base.55", %"struct.std::_Vector_base.55"* %12, i32 0, i32 0, !dbg !9672
  %13 = bitcast %"struct.std::_Vector_base<unsigned int, std::allocator<unsigned int> >::_Vector_impl"* %_M_impl13 to %"struct.std::_Vector_base<unsigned int, std::allocator<unsigned int> >::_Vector_impl_data"*, !dbg !9673
  %_M_finish = getelementptr inbounds %"struct.std::_Vector_base<unsigned int, std::allocator<unsigned int> >::_Vector_impl_data", %"struct.std::_Vector_base<unsigned int, std::allocator<unsigned int> >::_Vector_impl_data"* %13, i32 0, i32 1, !dbg !9674
  store i32* %call12, i32** %_M_finish, align 8, !dbg !9675
  ret void, !dbg !9676

lpad:                                             ; preds = %entry
  %14 = landingpad { i8*, i32 }
          cleanup, !dbg !9676
  %15 = extractvalue { i8*, i32 } %14, 0, !dbg !9676
  store i8* %15, i8** %exn.slot, align 8, !dbg !9676
  %16 = extractvalue { i8*, i32 } %14, 1, !dbg !9676
  store i32 %16, i32* %ehselector.slot, align 4, !dbg !9676
  call void @_ZNSaIjED2Ev(%"class.std::allocator.56"* %ref.tmp) #4, !dbg !9661
  br label %eh.resume, !dbg !9661

lpad10:                                           ; preds = %invoke.cont
  %17 = landingpad { i8*, i32 }
          cleanup, !dbg !9677
  %18 = extractvalue { i8*, i32 } %17, 0, !dbg !9677
  store i8* %18, i8** %exn.slot, align 8, !dbg !9677
  %19 = extractvalue { i8*, i32 } %17, 1, !dbg !9677
  store i32 %19, i32* %ehselector.slot, align 4, !dbg !9677
  %20 = bitcast %"class.std::vector.54"* %this1 to %"struct.std::_Vector_base.55"*, !dbg !9677
  call void @_ZNSt12_Vector_baseIjSaIjEED2Ev(%"struct.std::_Vector_base.55"* %20) #4, !dbg !9677
  br label %eh.resume, !dbg !9677

eh.resume:                                        ; preds = %lpad10, %lpad
  %exn = load i8*, i8** %exn.slot, align 8, !dbg !9661
  %sel = load i32, i32* %ehselector.slot, align 4, !dbg !9661
  %lpad.val = insertvalue { i8*, i32 } undef, i8* %exn, 0, !dbg !9661
  %lpad.val14 = insertvalue { i8*, i32 } %lpad.val, i32 %sel, 1, !dbg !9661
  resume { i8*, i32 } %lpad.val14, !dbg !9661
}

; Function Attrs: noinline uwtable
define linkonce_odr dso_local void @_ZNSt6vectorIbSaIbEEC2ERKS1_(%"class.std::vector.59"* %this, %"class.std::vector.59"* dereferenceable(40) %__x) unnamed_addr #0 comdat align 2 personality i8* bitcast (i32 (...)* @__gxx_personality_v0 to i8*) !dbg !9678 {
entry:
  %this.addr = alloca %"class.std::vector.59"*, align 8
  %__x.addr = alloca %"class.std::vector.59"*, align 8
  %ref.tmp = alloca %"class.std::allocator.78", align 1
  %ref.tmp2 = alloca %"class.std::allocator.60", align 1
  %exn.slot = alloca i8*
  %ehselector.slot = alloca i32
  %agg.tmp = alloca %"struct.std::_Bit_const_iterator", align 8
  %agg.tmp7 = alloca %"struct.std::_Bit_const_iterator", align 8
  %agg.tmp9 = alloca %"struct.std::_Bit_iterator", align 8
  %coerce = alloca %"struct.std::_Bit_iterator", align 8
  store %"class.std::vector.59"* %this, %"class.std::vector.59"** %this.addr, align 8
  call void @llvm.dbg.declare(metadata %"class.std::vector.59"** %this.addr, metadata !9679, metadata !DIExpression()), !dbg !9680
  store %"class.std::vector.59"* %__x, %"class.std::vector.59"** %__x.addr, align 8
  call void @llvm.dbg.declare(metadata %"class.std::vector.59"** %__x.addr, metadata !9681, metadata !DIExpression()), !dbg !9682
  %this1 = load %"class.std::vector.59"*, %"class.std::vector.59"** %this.addr, align 8
  %0 = bitcast %"class.std::vector.59"* %this1 to %"struct.std::_Bvector_base"*, !dbg !9683
  %1 = load %"class.std::vector.59"*, %"class.std::vector.59"** %__x.addr, align 8, !dbg !9684
  %2 = bitcast %"class.std::vector.59"* %1 to %"struct.std::_Bvector_base"*, !dbg !9684
  %call = call dereferenceable(1) %"class.std::allocator.60"* @_ZNKSt13_Bvector_baseISaIbEE20_M_get_Bit_allocatorEv(%"struct.std::_Bvector_base"* %2) #4, !dbg !9685
  call void @_ZN9__gnu_cxx14__alloc_traitsISaImEmE17_S_select_on_copyERKS1_(%"class.std::allocator.60"* sret %ref.tmp2, %"class.std::allocator.60"* dereferenceable(1) %call), !dbg !9686
  call void @_ZNSaIbEC2ImEERKSaIT_E(%"class.std::allocator.78"* %ref.tmp, %"class.std::allocator.60"* dereferenceable(1) %ref.tmp2) #4, !dbg !9686
  invoke void @_ZNSt13_Bvector_baseISaIbEEC2ERKS0_(%"struct.std::_Bvector_base"* %0, %"class.std::allocator.78"* dereferenceable(1) %ref.tmp)
          to label %invoke.cont unwind label %lpad, !dbg !9687

invoke.cont:                                      ; preds = %entry
  call void @_ZNSaIbED2Ev(%"class.std::allocator.78"* %ref.tmp) #4, !dbg !9687
  call void @_ZNSaImED2Ev(%"class.std::allocator.60"* %ref.tmp2) #4, !dbg !9687
  %3 = load %"class.std::vector.59"*, %"class.std::vector.59"** %__x.addr, align 8, !dbg !9688
  %call3 = call i64 @_ZNKSt6vectorIbSaIbEE4sizeEv(%"class.std::vector.59"* %3) #4, !dbg !9690
  invoke void @_ZNSt6vectorIbSaIbEE13_M_initializeEm(%"class.std::vector.59"* %this1, i64 %call3)
          to label %invoke.cont5 unwind label %lpad4, !dbg !9691

invoke.cont5:                                     ; preds = %invoke.cont
  %4 = load %"class.std::vector.59"*, %"class.std::vector.59"** %__x.addr, align 8, !dbg !9692
  %call6 = call { i64*, i32 } @_ZNKSt6vectorIbSaIbEE5beginEv(%"class.std::vector.59"* %4) #4, !dbg !9693
  %5 = bitcast %"struct.std::_Bit_const_iterator"* %agg.tmp to { i64*, i32 }*, !dbg !9693
  %6 = getelementptr inbounds { i64*, i32 }, { i64*, i32 }* %5, i32 0, i32 0, !dbg !9693
  %7 = extractvalue { i64*, i32 } %call6, 0, !dbg !9693
  store i64* %7, i64** %6, align 8, !dbg !9693
  %8 = getelementptr inbounds { i64*, i32 }, { i64*, i32 }* %5, i32 0, i32 1, !dbg !9693
  %9 = extractvalue { i64*, i32 } %call6, 1, !dbg !9693
  store i32 %9, i32* %8, align 8, !dbg !9693
  %10 = load %"class.std::vector.59"*, %"class.std::vector.59"** %__x.addr, align 8, !dbg !9694
  %call8 = call { i64*, i32 } @_ZNKSt6vectorIbSaIbEE3endEv(%"class.std::vector.59"* %10) #4, !dbg !9695
  %11 = bitcast %"struct.std::_Bit_const_iterator"* %agg.tmp7 to { i64*, i32 }*, !dbg !9695
  %12 = getelementptr inbounds { i64*, i32 }, { i64*, i32 }* %11, i32 0, i32 0, !dbg !9695
  %13 = extractvalue { i64*, i32 } %call8, 0, !dbg !9695
  store i64* %13, i64** %12, align 8, !dbg !9695
  %14 = getelementptr inbounds { i64*, i32 }, { i64*, i32 }* %11, i32 0, i32 1, !dbg !9695
  %15 = extractvalue { i64*, i32 } %call8, 1, !dbg !9695
  store i32 %15, i32* %14, align 8, !dbg !9695
  %16 = bitcast %"class.std::vector.59"* %this1 to %"struct.std::_Bvector_base"*, !dbg !9696
  %_M_impl = getelementptr inbounds %"struct.std::_Bvector_base", %"struct.std::_Bvector_base"* %16, i32 0, i32 0, !dbg !9696
  %17 = bitcast %"struct.std::_Bvector_base<std::allocator<bool> >::_Bvector_impl"* %_M_impl to %"struct.std::_Bvector_base<std::allocator<bool> >::_Bvector_impl_data"*, !dbg !9697
  %_M_start = getelementptr inbounds %"struct.std::_Bvector_base<std::allocator<bool> >::_Bvector_impl_data", %"struct.std::_Bvector_base<std::allocator<bool> >::_Bvector_impl_data"* %17, i32 0, i32 0, !dbg !9698
  %18 = bitcast %"struct.std::_Bit_iterator"* %agg.tmp9 to i8*, !dbg !9697
  %19 = bitcast %"struct.std::_Bit_iterator"* %_M_start to i8*, !dbg !9697
  call void @llvm.memcpy.p0i8.p0i8.i64(i8* align 8 %18, i8* align 8 %19, i64 16, i1 false), !dbg !9697
  %20 = bitcast %"struct.std::_Bit_const_iterator"* %agg.tmp to { i64*, i32 }*, !dbg !9699
  %21 = getelementptr inbounds { i64*, i32 }, { i64*, i32 }* %20, i32 0, i32 0, !dbg !9699
  %22 = load i64*, i64** %21, align 8, !dbg !9699
  %23 = getelementptr inbounds { i64*, i32 }, { i64*, i32 }* %20, i32 0, i32 1, !dbg !9699
  %24 = load i32, i32* %23, align 8, !dbg !9699
  %25 = bitcast %"struct.std::_Bit_const_iterator"* %agg.tmp7 to { i64*, i32 }*, !dbg !9699
  %26 = getelementptr inbounds { i64*, i32 }, { i64*, i32 }* %25, i32 0, i32 0, !dbg !9699
  %27 = load i64*, i64** %26, align 8, !dbg !9699
  %28 = getelementptr inbounds { i64*, i32 }, { i64*, i32 }* %25, i32 0, i32 1, !dbg !9699
  %29 = load i32, i32* %28, align 8, !dbg !9699
  %call11 = invoke { i64*, i32 } @_ZNSt6vectorIbSaIbEE15_M_copy_alignedESt19_Bit_const_iteratorS2_St13_Bit_iterator(%"class.std::vector.59"* %this1, i64* %22, i32 %24, i64* %27, i32 %29, %"struct.std::_Bit_iterator"* byval(%"struct.std::_Bit_iterator") align 8 %agg.tmp9)
          to label %invoke.cont10 unwind label %lpad4, !dbg !9699

invoke.cont10:                                    ; preds = %invoke.cont5
  %30 = bitcast %"struct.std::_Bit_iterator"* %coerce to { i64*, i32 }*, !dbg !9699
  %31 = getelementptr inbounds { i64*, i32 }, { i64*, i32 }* %30, i32 0, i32 0, !dbg !9699
  %32 = extractvalue { i64*, i32 } %call11, 0, !dbg !9699
  store i64* %32, i64** %31, align 8, !dbg !9699
  %33 = getelementptr inbounds { i64*, i32 }, { i64*, i32 }* %30, i32 0, i32 1, !dbg !9699
  %34 = extractvalue { i64*, i32 } %call11, 1, !dbg !9699
  store i32 %34, i32* %33, align 8, !dbg !9699
  ret void, !dbg !9700

lpad:                                             ; preds = %entry
  %35 = landingpad { i8*, i32 }
          cleanup, !dbg !9700
  %36 = extractvalue { i8*, i32 } %35, 0, !dbg !9700
  store i8* %36, i8** %exn.slot, align 8, !dbg !9700
  %37 = extractvalue { i8*, i32 } %35, 1, !dbg !9700
  store i32 %37, i32* %ehselector.slot, align 4, !dbg !9700
  call void @_ZNSaIbED2Ev(%"class.std::allocator.78"* %ref.tmp) #4, !dbg !9687
  call void @_ZNSaImED2Ev(%"class.std::allocator.60"* %ref.tmp2) #4, !dbg !9687
  br label %eh.resume, !dbg !9687

lpad4:                                            ; preds = %invoke.cont5, %invoke.cont
  %38 = landingpad { i8*, i32 }
          cleanup, !dbg !9701
  %39 = extractvalue { i8*, i32 } %38, 0, !dbg !9701
  store i8* %39, i8** %exn.slot, align 8, !dbg !9701
  %40 = extractvalue { i8*, i32 } %38, 1, !dbg !9701
  store i32 %40, i32* %ehselector.slot, align 4, !dbg !9701
  %41 = bitcast %"class.std::vector.59"* %this1 to %"struct.std::_Bvector_base"*, !dbg !9701
  call void @_ZNSt13_Bvector_baseISaIbEED2Ev(%"struct.std::_Bvector_base"* %41) #4, !dbg !9701
  br label %eh.resume, !dbg !9701

eh.resume:                                        ; preds = %lpad4, %lpad
  %exn = load i8*, i8** %exn.slot, align 8, !dbg !9687
  %sel = load i32, i32* %ehselector.slot, align 4, !dbg !9687
  %lpad.val = insertvalue { i8*, i32 } undef, i8* %exn, 0, !dbg !9687
  %lpad.val12 = insertvalue { i8*, i32 } %lpad.val, i32 %sel, 1, !dbg !9687
  resume { i8*, i32 } %lpad.val12, !dbg !9687
}

; Function Attrs: noinline uwtable
define linkonce_odr dso_local void @_ZNSt6vectorIS_IbSaIbEESaIS1_EEC2ERKS3_(%"class.std::vector.63"* %this, %"class.std::vector.63"* dereferenceable(24) %__x) unnamed_addr #0 comdat align 2 personality i8* bitcast (i32 (...)* @__gxx_personality_v0 to i8*) !dbg !9702 {
entry:
  %this.addr = alloca %"class.std::vector.63"*, align 8
  %__x.addr = alloca %"class.std::vector.63"*, align 8
  %ref.tmp = alloca %"class.std::allocator.65", align 1
  %exn.slot = alloca i8*
  %ehselector.slot = alloca i32
  %agg.tmp = alloca %"class.__gnu_cxx::__normal_iterator.98", align 8
  %agg.tmp4 = alloca %"class.__gnu_cxx::__normal_iterator.98", align 8
  store %"class.std::vector.63"* %this, %"class.std::vector.63"** %this.addr, align 8
  call void @llvm.dbg.declare(metadata %"class.std::vector.63"** %this.addr, metadata !9703, metadata !DIExpression()), !dbg !9704
  store %"class.std::vector.63"* %__x, %"class.std::vector.63"** %__x.addr, align 8
  call void @llvm.dbg.declare(metadata %"class.std::vector.63"** %__x.addr, metadata !9705, metadata !DIExpression()), !dbg !9706
  %this1 = load %"class.std::vector.63"*, %"class.std::vector.63"** %this.addr, align 8
  %0 = bitcast %"class.std::vector.63"* %this1 to %"struct.std::_Vector_base.64"*, !dbg !9707
  %1 = load %"class.std::vector.63"*, %"class.std::vector.63"** %__x.addr, align 8, !dbg !9708
  %call = call i64 @_ZNKSt6vectorIS_IbSaIbEESaIS1_EE4sizeEv(%"class.std::vector.63"* %1) #4, !dbg !9709
  %2 = load %"class.std::vector.63"*, %"class.std::vector.63"** %__x.addr, align 8, !dbg !9710
  %3 = bitcast %"class.std::vector.63"* %2 to %"struct.std::_Vector_base.64"*, !dbg !9710
  %call2 = call dereferenceable(1) %"class.std::allocator.65"* @_ZNKSt12_Vector_baseISt6vectorIbSaIbEESaIS2_EE19_M_get_Tp_allocatorEv(%"struct.std::_Vector_base.64"* %3) #4, !dbg !9711
  call void @_ZN9__gnu_cxx14__alloc_traitsISaISt6vectorIbSaIbEEES3_E17_S_select_on_copyERKS4_(%"class.std::allocator.65"* sret %ref.tmp, %"class.std::allocator.65"* dereferenceable(1) %call2), !dbg !9712
  invoke void @_ZNSt12_Vector_baseISt6vectorIbSaIbEESaIS2_EEC2EmRKS3_(%"struct.std::_Vector_base.64"* %0, i64 %call, %"class.std::allocator.65"* dereferenceable(1) %ref.tmp)
          to label %invoke.cont unwind label %lpad, !dbg !9713

invoke.cont:                                      ; preds = %entry
  call void @_ZNSaISt6vectorIbSaIbEEED2Ev(%"class.std::allocator.65"* %ref.tmp) #4, !dbg !9713
  %4 = load %"class.std::vector.63"*, %"class.std::vector.63"** %__x.addr, align 8, !dbg !9714
  %call3 = call %"class.std::vector.59"* @_ZNKSt6vectorIS_IbSaIbEESaIS1_EE5beginEv(%"class.std::vector.63"* %4) #4, !dbg !9716
  %coerce.dive = getelementptr inbounds %"class.__gnu_cxx::__normal_iterator.98", %"class.__gnu_cxx::__normal_iterator.98"* %agg.tmp, i32 0, i32 0, !dbg !9716
  store %"class.std::vector.59"* %call3, %"class.std::vector.59"** %coerce.dive, align 8, !dbg !9716
  %5 = load %"class.std::vector.63"*, %"class.std::vector.63"** %__x.addr, align 8, !dbg !9717
  %call5 = call %"class.std::vector.59"* @_ZNKSt6vectorIS_IbSaIbEESaIS1_EE3endEv(%"class.std::vector.63"* %5) #4, !dbg !9718
  %coerce.dive6 = getelementptr inbounds %"class.__gnu_cxx::__normal_iterator.98", %"class.__gnu_cxx::__normal_iterator.98"* %agg.tmp4, i32 0, i32 0, !dbg !9718
  store %"class.std::vector.59"* %call5, %"class.std::vector.59"** %coerce.dive6, align 8, !dbg !9718
  %6 = bitcast %"class.std::vector.63"* %this1 to %"struct.std::_Vector_base.64"*, !dbg !9719
  %_M_impl = getelementptr inbounds %"struct.std::_Vector_base.64", %"struct.std::_Vector_base.64"* %6, i32 0, i32 0, !dbg !9719
  %7 = bitcast %"struct.std::_Vector_base<std::vector<bool, std::allocator<bool> >, std::allocator<std::vector<bool, std::allocator<bool> > > >::_Vector_impl"* %_M_impl to %"struct.std::_Vector_base<std::vector<bool, std::allocator<bool> >, std::allocator<std::vector<bool, std::allocator<bool> > > >::_Vector_impl_data"*, !dbg !9720
  %_M_start = getelementptr inbounds %"struct.std::_Vector_base<std::vector<bool, std::allocator<bool> >, std::allocator<std::vector<bool, std::allocator<bool> > > >::_Vector_impl_data", %"struct.std::_Vector_base<std::vector<bool, std::allocator<bool> >, std::allocator<std::vector<bool, std::allocator<bool> > > >::_Vector_impl_data"* %7, i32 0, i32 0, !dbg !9721
  %8 = load %"class.std::vector.59"*, %"class.std::vector.59"** %_M_start, align 8, !dbg !9721
  %9 = bitcast %"class.std::vector.63"* %this1 to %"struct.std::_Vector_base.64"*, !dbg !9722
  %call7 = call dereferenceable(1) %"class.std::allocator.65"* @_ZNSt12_Vector_baseISt6vectorIbSaIbEESaIS2_EE19_M_get_Tp_allocatorEv(%"struct.std::_Vector_base.64"* %9) #4, !dbg !9722
  %coerce.dive8 = getelementptr inbounds %"class.__gnu_cxx::__normal_iterator.98", %"class.__gnu_cxx::__normal_iterator.98"* %agg.tmp, i32 0, i32 0, !dbg !9723
  %10 = load %"class.std::vector.59"*, %"class.std::vector.59"** %coerce.dive8, align 8, !dbg !9723
  %coerce.dive9 = getelementptr inbounds %"class.__gnu_cxx::__normal_iterator.98", %"class.__gnu_cxx::__normal_iterator.98"* %agg.tmp4, i32 0, i32 0, !dbg !9723
  %11 = load %"class.std::vector.59"*, %"class.std::vector.59"** %coerce.dive9, align 8, !dbg !9723
  %call12 = invoke %"class.std::vector.59"* @_ZSt22__uninitialized_copy_aIN9__gnu_cxx17__normal_iteratorIPKSt6vectorIbSaIbEES2_IS4_SaIS4_EEEEPS4_S4_ET0_T_SC_SB_RSaIT1_E(%"class.std::vector.59"* %10, %"class.std::vector.59"* %11, %"class.std::vector.59"* %8, %"class.std::allocator.65"* dereferenceable(1) %call7)
          to label %invoke.cont11 unwind label %lpad10, !dbg !9723

invoke.cont11:                                    ; preds = %invoke.cont
  %12 = bitcast %"class.std::vector.63"* %this1 to %"struct.std::_Vector_base.64"*, !dbg !9724
  %_M_impl13 = getelementptr inbounds %"struct.std::_Vector_base.64", %"struct.std::_Vector_base.64"* %12, i32 0, i32 0, !dbg !9724
  %13 = bitcast %"struct.std::_Vector_base<std::vector<bool, std::allocator<bool> >, std::allocator<std::vector<bool, std::allocator<bool> > > >::_Vector_impl"* %_M_impl13 to %"struct.std::_Vector_base<std::vector<bool, std::allocator<bool> >, std::allocator<std::vector<bool, std::allocator<bool> > > >::_Vector_impl_data"*, !dbg !9725
  %_M_finish = getelementptr inbounds %"struct.std::_Vector_base<std::vector<bool, std::allocator<bool> >, std::allocator<std::vector<bool, std::allocator<bool> > > >::_Vector_impl_data", %"struct.std::_Vector_base<std::vector<bool, std::allocator<bool> >, std::allocator<std::vector<bool, std::allocator<bool> > > >::_Vector_impl_data"* %13, i32 0, i32 1, !dbg !9726
  store %"class.std::vector.59"* %call12, %"class.std::vector.59"** %_M_finish, align 8, !dbg !9727
  ret void, !dbg !9728

lpad:                                             ; preds = %entry
  %14 = landingpad { i8*, i32 }
          cleanup, !dbg !9728
  %15 = extractvalue { i8*, i32 } %14, 0, !dbg !9728
  store i8* %15, i8** %exn.slot, align 8, !dbg !9728
  %16 = extractvalue { i8*, i32 } %14, 1, !dbg !9728
  store i32 %16, i32* %ehselector.slot, align 4, !dbg !9728
  call void @_ZNSaISt6vectorIbSaIbEEED2Ev(%"class.std::allocator.65"* %ref.tmp) #4, !dbg !9713
  br label %eh.resume, !dbg !9713

lpad10:                                           ; preds = %invoke.cont
  %17 = landingpad { i8*, i32 }
          cleanup, !dbg !9729
  %18 = extractvalue { i8*, i32 } %17, 0, !dbg !9729
  store i8* %18, i8** %exn.slot, align 8, !dbg !9729
  %19 = extractvalue { i8*, i32 } %17, 1, !dbg !9729
  store i32 %19, i32* %ehselector.slot, align 4, !dbg !9729
  %20 = bitcast %"class.std::vector.63"* %this1 to %"struct.std::_Vector_base.64"*, !dbg !9729
  call void @_ZNSt12_Vector_baseISt6vectorIbSaIbEESaIS2_EED2Ev(%"struct.std::_Vector_base.64"* %20) #4, !dbg !9729
  br label %eh.resume, !dbg !9729

eh.resume:                                        ; preds = %lpad10, %lpad
  %exn = load i8*, i8** %exn.slot, align 8, !dbg !9713
  %sel = load i32, i32* %ehselector.slot, align 4, !dbg !9713
  %lpad.val = insertvalue { i8*, i32 } undef, i8* %exn, 0, !dbg !9713
  %lpad.val14 = insertvalue { i8*, i32 } %lpad.val, i32 %sel, 1, !dbg !9713
  resume { i8*, i32 } %lpad.val14, !dbg !9713
}

; Function Attrs: noinline nounwind uwtable
define linkonce_odr dso_local void @_ZNSt6vectorISt4pairIS0_IjjEjESaIS2_EED2Ev(%"class.std::vector.46"* %this) unnamed_addr #1 comdat align 2 personality i8* bitcast (i32 (...)* @__gxx_personality_v0 to i8*) !dbg !9730 {
entry:
  %this.addr = alloca %"class.std::vector.46"*, align 8
  %exn.slot = alloca i8*
  %ehselector.slot = alloca i32
  store %"class.std::vector.46"* %this, %"class.std::vector.46"** %this.addr, align 8
  call void @llvm.dbg.declare(metadata %"class.std::vector.46"** %this.addr, metadata !9731, metadata !DIExpression()), !dbg !9732
  %this1 = load %"class.std::vector.46"*, %"class.std::vector.46"** %this.addr, align 8
  %0 = bitcast %"class.std::vector.46"* %this1 to %"struct.std::_Vector_base.47"*, !dbg !9733
  %_M_impl = getelementptr inbounds %"struct.std::_Vector_base.47", %"struct.std::_Vector_base.47"* %0, i32 0, i32 0, !dbg !9733
  %1 = bitcast %"struct.std::_Vector_base<std::pair<std::pair<unsigned int, unsigned int>, unsigned int>, std::allocator<std::pair<std::pair<unsigned int, unsigned int>, unsigned int> > >::_Vector_impl"* %_M_impl to %"struct.std::_Vector_base<std::pair<std::pair<unsigned int, unsigned int>, unsigned int>, std::allocator<std::pair<std::pair<unsigned int, unsigned int>, unsigned int> > >::_Vector_impl_data"*, !dbg !9735
  %_M_start = getelementptr inbounds %"struct.std::_Vector_base<std::pair<std::pair<unsigned int, unsigned int>, unsigned int>, std::allocator<std::pair<std::pair<unsigned int, unsigned int>, unsigned int> > >::_Vector_impl_data", %"struct.std::_Vector_base<std::pair<std::pair<unsigned int, unsigned int>, unsigned int>, std::allocator<std::pair<std::pair<unsigned int, unsigned int>, unsigned int> > >::_Vector_impl_data"* %1, i32 0, i32 0, !dbg !9736
  %2 = load %"struct.std::pair.51"*, %"struct.std::pair.51"** %_M_start, align 8, !dbg !9736
  %3 = bitcast %"class.std::vector.46"* %this1 to %"struct.std::_Vector_base.47"*, !dbg !9737
  %_M_impl2 = getelementptr inbounds %"struct.std::_Vector_base.47", %"struct.std::_Vector_base.47"* %3, i32 0, i32 0, !dbg !9737
  %4 = bitcast %"struct.std::_Vector_base<std::pair<std::pair<unsigned int, unsigned int>, unsigned int>, std::allocator<std::pair<std::pair<unsigned int, unsigned int>, unsigned int> > >::_Vector_impl"* %_M_impl2 to %"struct.std::_Vector_base<std::pair<std::pair<unsigned int, unsigned int>, unsigned int>, std::allocator<std::pair<std::pair<unsigned int, unsigned int>, unsigned int> > >::_Vector_impl_data"*, !dbg !9738
  %_M_finish = getelementptr inbounds %"struct.std::_Vector_base<std::pair<std::pair<unsigned int, unsigned int>, unsigned int>, std::allocator<std::pair<std::pair<unsigned int, unsigned int>, unsigned int> > >::_Vector_impl_data", %"struct.std::_Vector_base<std::pair<std::pair<unsigned int, unsigned int>, unsigned int>, std::allocator<std::pair<std::pair<unsigned int, unsigned int>, unsigned int> > >::_Vector_impl_data"* %4, i32 0, i32 1, !dbg !9739
  %5 = load %"struct.std::pair.51"*, %"struct.std::pair.51"** %_M_finish, align 8, !dbg !9739
  %6 = bitcast %"class.std::vector.46"* %this1 to %"struct.std::_Vector_base.47"*, !dbg !9740
  %call = call dereferenceable(1) %"class.std::allocator.48"* @_ZNSt12_Vector_baseISt4pairIS0_IjjEjESaIS2_EE19_M_get_Tp_allocatorEv(%"struct.std::_Vector_base.47"* %6) #4, !dbg !9740
  invoke void @_ZSt8_DestroyIPSt4pairIS0_IjjEjES2_EvT_S4_RSaIT0_E(%"struct.std::pair.51"* %2, %"struct.std::pair.51"* %5, %"class.std::allocator.48"* dereferenceable(1) %call)
          to label %invoke.cont unwind label %lpad, !dbg !9741

invoke.cont:                                      ; preds = %entry
  %7 = bitcast %"class.std::vector.46"* %this1 to %"struct.std::_Vector_base.47"*, !dbg !9742
  call void @_ZNSt12_Vector_baseISt4pairIS0_IjjEjESaIS2_EED2Ev(%"struct.std::_Vector_base.47"* %7) #4, !dbg !9742
  ret void, !dbg !9743

lpad:                                             ; preds = %entry
  %8 = landingpad { i8*, i32 }
          catch i8* null, !dbg !9742
  %9 = extractvalue { i8*, i32 } %8, 0, !dbg !9742
  store i8* %9, i8** %exn.slot, align 8, !dbg !9742
  %10 = extractvalue { i8*, i32 } %8, 1, !dbg !9742
  store i32 %10, i32* %ehselector.slot, align 4, !dbg !9742
  %11 = bitcast %"class.std::vector.46"* %this1 to %"struct.std::_Vector_base.47"*, !dbg !9742
  call void @_ZNSt12_Vector_baseISt4pairIS0_IjjEjESaIS2_EED2Ev(%"struct.std::_Vector_base.47"* %11) #4, !dbg !9742
  br label %terminate.handler, !dbg !9742

terminate.handler:                                ; preds = %lpad
  %exn = load i8*, i8** %exn.slot, align 8, !dbg !9742
  call void @__clang_call_terminate(i8* %exn) #13, !dbg !9742
  unreachable, !dbg !9742
}

; Function Attrs: noinline nounwind uwtable
define linkonce_odr dso_local void @_ZNSt6vectorISt4pairIjjESaIS1_EED2Ev(%"class.std::vector.41"* %this) unnamed_addr #1 comdat align 2 personality i8* bitcast (i32 (...)* @__gxx_personality_v0 to i8*) !dbg !9744 {
entry:
  %this.addr = alloca %"class.std::vector.41"*, align 8
  %exn.slot = alloca i8*
  %ehselector.slot = alloca i32
  store %"class.std::vector.41"* %this, %"class.std::vector.41"** %this.addr, align 8
  call void @llvm.dbg.declare(metadata %"class.std::vector.41"** %this.addr, metadata !9745, metadata !DIExpression()), !dbg !9746
  %this1 = load %"class.std::vector.41"*, %"class.std::vector.41"** %this.addr, align 8
  %0 = bitcast %"class.std::vector.41"* %this1 to %"struct.std::_Vector_base.42"*, !dbg !9747
  %_M_impl = getelementptr inbounds %"struct.std::_Vector_base.42", %"struct.std::_Vector_base.42"* %0, i32 0, i32 0, !dbg !9747
  %1 = bitcast %"struct.std::_Vector_base<std::pair<unsigned int, unsigned int>, std::allocator<std::pair<unsigned int, unsigned int> > >::_Vector_impl"* %_M_impl to %"struct.std::_Vector_base<std::pair<unsigned int, unsigned int>, std::allocator<std::pair<unsigned int, unsigned int> > >::_Vector_impl_data"*, !dbg !9749
  %_M_start = getelementptr inbounds %"struct.std::_Vector_base<std::pair<unsigned int, unsigned int>, std::allocator<std::pair<unsigned int, unsigned int> > >::_Vector_impl_data", %"struct.std::_Vector_base<std::pair<unsigned int, unsigned int>, std::allocator<std::pair<unsigned int, unsigned int> > >::_Vector_impl_data"* %1, i32 0, i32 0, !dbg !9750
  %2 = load %"struct.std::pair"*, %"struct.std::pair"** %_M_start, align 8, !dbg !9750
  %3 = bitcast %"class.std::vector.41"* %this1 to %"struct.std::_Vector_base.42"*, !dbg !9751
  %_M_impl2 = getelementptr inbounds %"struct.std::_Vector_base.42", %"struct.std::_Vector_base.42"* %3, i32 0, i32 0, !dbg !9751
  %4 = bitcast %"struct.std::_Vector_base<std::pair<unsigned int, unsigned int>, std::allocator<std::pair<unsigned int, unsigned int> > >::_Vector_impl"* %_M_impl2 to %"struct.std::_Vector_base<std::pair<unsigned int, unsigned int>, std::allocator<std::pair<unsigned int, unsigned int> > >::_Vector_impl_data"*, !dbg !9752
  %_M_finish = getelementptr inbounds %"struct.std::_Vector_base<std::pair<unsigned int, unsigned int>, std::allocator<std::pair<unsigned int, unsigned int> > >::_Vector_impl_data", %"struct.std::_Vector_base<std::pair<unsigned int, unsigned int>, std::allocator<std::pair<unsigned int, unsigned int> > >::_Vector_impl_data"* %4, i32 0, i32 1, !dbg !9753
  %5 = load %"struct.std::pair"*, %"struct.std::pair"** %_M_finish, align 8, !dbg !9753
  %6 = bitcast %"class.std::vector.41"* %this1 to %"struct.std::_Vector_base.42"*, !dbg !9754
  %call = call dereferenceable(1) %"class.std::allocator.43"* @_ZNSt12_Vector_baseISt4pairIjjESaIS1_EE19_M_get_Tp_allocatorEv(%"struct.std::_Vector_base.42"* %6) #4, !dbg !9754
  invoke void @_ZSt8_DestroyIPSt4pairIjjES1_EvT_S3_RSaIT0_E(%"struct.std::pair"* %2, %"struct.std::pair"* %5, %"class.std::allocator.43"* dereferenceable(1) %call)
          to label %invoke.cont unwind label %lpad, !dbg !9755

invoke.cont:                                      ; preds = %entry
  %7 = bitcast %"class.std::vector.41"* %this1 to %"struct.std::_Vector_base.42"*, !dbg !9756
  call void @_ZNSt12_Vector_baseISt4pairIjjESaIS1_EED2Ev(%"struct.std::_Vector_base.42"* %7) #4, !dbg !9756
  ret void, !dbg !9757

lpad:                                             ; preds = %entry
  %8 = landingpad { i8*, i32 }
          catch i8* null, !dbg !9756
  %9 = extractvalue { i8*, i32 } %8, 0, !dbg !9756
  store i8* %9, i8** %exn.slot, align 8, !dbg !9756
  %10 = extractvalue { i8*, i32 } %8, 1, !dbg !9756
  store i32 %10, i32* %ehselector.slot, align 4, !dbg !9756
  %11 = bitcast %"class.std::vector.41"* %this1 to %"struct.std::_Vector_base.42"*, !dbg !9756
  call void @_ZNSt12_Vector_baseISt4pairIjjESaIS1_EED2Ev(%"struct.std::_Vector_base.42"* %11) #4, !dbg !9756
  br label %terminate.handler, !dbg !9756

terminate.handler:                                ; preds = %lpad
  %exn = load i8*, i8** %exn.slot, align 8, !dbg !9756
  call void @__clang_call_terminate(i8* %exn) #13, !dbg !9756
  unreachable, !dbg !9756
}

; Function Attrs: noinline nounwind uwtable
define linkonce_odr dso_local void @_ZNSt6vectorIiSaIiEED2Ev(%"class.std::vector.36"* %this) unnamed_addr #1 comdat align 2 personality i8* bitcast (i32 (...)* @__gxx_personality_v0 to i8*) !dbg !9758 {
entry:
  %this.addr = alloca %"class.std::vector.36"*, align 8
  %exn.slot = alloca i8*
  %ehselector.slot = alloca i32
  store %"class.std::vector.36"* %this, %"class.std::vector.36"** %this.addr, align 8
  call void @llvm.dbg.declare(metadata %"class.std::vector.36"** %this.addr, metadata !9759, metadata !DIExpression()), !dbg !9760
  %this1 = load %"class.std::vector.36"*, %"class.std::vector.36"** %this.addr, align 8
  %0 = bitcast %"class.std::vector.36"* %this1 to %"struct.std::_Vector_base.37"*, !dbg !9761
  %_M_impl = getelementptr inbounds %"struct.std::_Vector_base.37", %"struct.std::_Vector_base.37"* %0, i32 0, i32 0, !dbg !9761
  %1 = bitcast %"struct.std::_Vector_base<int, std::allocator<int> >::_Vector_impl"* %_M_impl to %"struct.std::_Vector_base<int, std::allocator<int> >::_Vector_impl_data"*, !dbg !9763
  %_M_start = getelementptr inbounds %"struct.std::_Vector_base<int, std::allocator<int> >::_Vector_impl_data", %"struct.std::_Vector_base<int, std::allocator<int> >::_Vector_impl_data"* %1, i32 0, i32 0, !dbg !9764
  %2 = load i32*, i32** %_M_start, align 8, !dbg !9764
  %3 = bitcast %"class.std::vector.36"* %this1 to %"struct.std::_Vector_base.37"*, !dbg !9765
  %_M_impl2 = getelementptr inbounds %"struct.std::_Vector_base.37", %"struct.std::_Vector_base.37"* %3, i32 0, i32 0, !dbg !9765
  %4 = bitcast %"struct.std::_Vector_base<int, std::allocator<int> >::_Vector_impl"* %_M_impl2 to %"struct.std::_Vector_base<int, std::allocator<int> >::_Vector_impl_data"*, !dbg !9766
  %_M_finish = getelementptr inbounds %"struct.std::_Vector_base<int, std::allocator<int> >::_Vector_impl_data", %"struct.std::_Vector_base<int, std::allocator<int> >::_Vector_impl_data"* %4, i32 0, i32 1, !dbg !9767
  %5 = load i32*, i32** %_M_finish, align 8, !dbg !9767
  %6 = bitcast %"class.std::vector.36"* %this1 to %"struct.std::_Vector_base.37"*, !dbg !9768
  %call = call dereferenceable(1) %"class.std::allocator.38"* @_ZNSt12_Vector_baseIiSaIiEE19_M_get_Tp_allocatorEv(%"struct.std::_Vector_base.37"* %6) #4, !dbg !9768
  invoke void @_ZSt8_DestroyIPiiEvT_S1_RSaIT0_E(i32* %2, i32* %5, %"class.std::allocator.38"* dereferenceable(1) %call)
          to label %invoke.cont unwind label %lpad, !dbg !9769

invoke.cont:                                      ; preds = %entry
  %7 = bitcast %"class.std::vector.36"* %this1 to %"struct.std::_Vector_base.37"*, !dbg !9770
  call void @_ZNSt12_Vector_baseIiSaIiEED2Ev(%"struct.std::_Vector_base.37"* %7) #4, !dbg !9770
  ret void, !dbg !9771

lpad:                                             ; preds = %entry
  %8 = landingpad { i8*, i32 }
          catch i8* null, !dbg !9770
  %9 = extractvalue { i8*, i32 } %8, 0, !dbg !9770
  store i8* %9, i8** %exn.slot, align 8, !dbg !9770
  %10 = extractvalue { i8*, i32 } %8, 1, !dbg !9770
  store i32 %10, i32* %ehselector.slot, align 4, !dbg !9770
  %11 = bitcast %"class.std::vector.36"* %this1 to %"struct.std::_Vector_base.37"*, !dbg !9770
  call void @_ZNSt12_Vector_baseIiSaIiEED2Ev(%"struct.std::_Vector_base.37"* %11) #4, !dbg !9770
  br label %terminate.handler, !dbg !9770

terminate.handler:                                ; preds = %lpad
  %exn = load i8*, i8** %exn.slot, align 8, !dbg !9770
  call void @__clang_call_terminate(i8* %exn) #13, !dbg !9770
  unreachable, !dbg !9770
}

; Function Attrs: noinline nounwind uwtable
define linkonce_odr dso_local void @_ZN6dealii5TableILi2EiED2Ev(%"class.dealii::Table.32"* %this) unnamed_addr #1 comdat align 2 !dbg !9772 {
entry:
  %this.addr = alloca %"class.dealii::Table.32"*, align 8
  store %"class.dealii::Table.32"* %this, %"class.dealii::Table.32"** %this.addr, align 8
  call void @llvm.dbg.declare(metadata %"class.dealii::Table.32"** %this.addr, metadata !9774, metadata !DIExpression()), !dbg !9775
  %this1 = load %"class.dealii::Table.32"*, %"class.dealii::Table.32"** %this.addr, align 8
  %0 = bitcast %"class.dealii::Table.32"* %this1 to %"class.dealii::TableBase.33"*, !dbg !9776
  call void @_ZN6dealii9TableBaseILi2EiED2Ev(%"class.dealii::TableBase.33"* %0) #4, !dbg !9776
  ret void, !dbg !9778
}

; Function Attrs: noinline nounwind uwtable
define linkonce_odr dso_local void @_ZNSt6vectorIN6dealii5PointILi2EEESaIS2_EED2Ev(%"class.std::vector.25"* %this) unnamed_addr #1 comdat align 2 personality i8* bitcast (i32 (...)* @__gxx_personality_v0 to i8*) !dbg !9779 {
entry:
  %this.addr = alloca %"class.std::vector.25"*, align 8
  %exn.slot = alloca i8*
  %ehselector.slot = alloca i32
  store %"class.std::vector.25"* %this, %"class.std::vector.25"** %this.addr, align 8
  call void @llvm.dbg.declare(metadata %"class.std::vector.25"** %this.addr, metadata !9780, metadata !DIExpression()), !dbg !9781
  %this1 = load %"class.std::vector.25"*, %"class.std::vector.25"** %this.addr, align 8
  %0 = bitcast %"class.std::vector.25"* %this1 to %"struct.std::_Vector_base.26"*, !dbg !9782
  %_M_impl = getelementptr inbounds %"struct.std::_Vector_base.26", %"struct.std::_Vector_base.26"* %0, i32 0, i32 0, !dbg !9782
  %1 = bitcast %"struct.std::_Vector_base<dealii::Point<2>, std::allocator<dealii::Point<2> > >::_Vector_impl"* %_M_impl to %"struct.std::_Vector_base<dealii::Point<2>, std::allocator<dealii::Point<2> > >::_Vector_impl_data"*, !dbg !9784
  %_M_start = getelementptr inbounds %"struct.std::_Vector_base<dealii::Point<2>, std::allocator<dealii::Point<2> > >::_Vector_impl_data", %"struct.std::_Vector_base<dealii::Point<2>, std::allocator<dealii::Point<2> > >::_Vector_impl_data"* %1, i32 0, i32 0, !dbg !9785
  %2 = load %"class.dealii::Point.30"*, %"class.dealii::Point.30"** %_M_start, align 8, !dbg !9785
  %3 = bitcast %"class.std::vector.25"* %this1 to %"struct.std::_Vector_base.26"*, !dbg !9786
  %_M_impl2 = getelementptr inbounds %"struct.std::_Vector_base.26", %"struct.std::_Vector_base.26"* %3, i32 0, i32 0, !dbg !9786
  %4 = bitcast %"struct.std::_Vector_base<dealii::Point<2>, std::allocator<dealii::Point<2> > >::_Vector_impl"* %_M_impl2 to %"struct.std::_Vector_base<dealii::Point<2>, std::allocator<dealii::Point<2> > >::_Vector_impl_data"*, !dbg !9787
  %_M_finish = getelementptr inbounds %"struct.std::_Vector_base<dealii::Point<2>, std::allocator<dealii::Point<2> > >::_Vector_impl_data", %"struct.std::_Vector_base<dealii::Point<2>, std::allocator<dealii::Point<2> > >::_Vector_impl_data"* %4, i32 0, i32 1, !dbg !9788
  %5 = load %"class.dealii::Point.30"*, %"class.dealii::Point.30"** %_M_finish, align 8, !dbg !9788
  %6 = bitcast %"class.std::vector.25"* %this1 to %"struct.std::_Vector_base.26"*, !dbg !9789
  %call = call dereferenceable(1) %"class.std::allocator.27"* @_ZNSt12_Vector_baseIN6dealii5PointILi2EEESaIS2_EE19_M_get_Tp_allocatorEv(%"struct.std::_Vector_base.26"* %6) #4, !dbg !9789
  invoke void @_ZSt8_DestroyIPN6dealii5PointILi2EEES2_EvT_S4_RSaIT0_E(%"class.dealii::Point.30"* %2, %"class.dealii::Point.30"* %5, %"class.std::allocator.27"* dereferenceable(1) %call)
          to label %invoke.cont unwind label %lpad, !dbg !9790

invoke.cont:                                      ; preds = %entry
  %7 = bitcast %"class.std::vector.25"* %this1 to %"struct.std::_Vector_base.26"*, !dbg !9791
  call void @_ZNSt12_Vector_baseIN6dealii5PointILi2EEESaIS2_EED2Ev(%"struct.std::_Vector_base.26"* %7) #4, !dbg !9791
  ret void, !dbg !9792

lpad:                                             ; preds = %entry
  %8 = landingpad { i8*, i32 }
          catch i8* null, !dbg !9791
  %9 = extractvalue { i8*, i32 } %8, 0, !dbg !9791
  store i8* %9, i8** %exn.slot, align 8, !dbg !9791
  %10 = extractvalue { i8*, i32 } %8, 1, !dbg !9791
  store i32 %10, i32* %ehselector.slot, align 4, !dbg !9791
  %11 = bitcast %"class.std::vector.25"* %this1 to %"struct.std::_Vector_base.26"*, !dbg !9791
  call void @_ZNSt12_Vector_baseIN6dealii5PointILi2EEESaIS2_EED2Ev(%"struct.std::_Vector_base.26"* %11) #4, !dbg !9791
  br label %terminate.handler, !dbg !9791

terminate.handler:                                ; preds = %lpad
  %exn = load i8*, i8** %exn.slot, align 8, !dbg !9791
  call void @__clang_call_terminate(i8* %exn) #13, !dbg !9791
  unreachable, !dbg !9791
}

; Function Attrs: noinline nounwind uwtable
define linkonce_odr dso_local void @_ZNSt6vectorIN6dealii5PointILi3EEESaIS2_EED2Ev(%"class.std::vector.20"* %this) unnamed_addr #1 comdat align 2 personality i8* bitcast (i32 (...)* @__gxx_personality_v0 to i8*) !dbg !9793 {
entry:
  %this.addr = alloca %"class.std::vector.20"*, align 8
  %exn.slot = alloca i8*
  %ehselector.slot = alloca i32
  store %"class.std::vector.20"* %this, %"class.std::vector.20"** %this.addr, align 8
  call void @llvm.dbg.declare(metadata %"class.std::vector.20"** %this.addr, metadata !9794, metadata !DIExpression()), !dbg !9795
  %this1 = load %"class.std::vector.20"*, %"class.std::vector.20"** %this.addr, align 8
  %0 = bitcast %"class.std::vector.20"* %this1 to %"struct.std::_Vector_base.21"*, !dbg !9796
  %_M_impl = getelementptr inbounds %"struct.std::_Vector_base.21", %"struct.std::_Vector_base.21"* %0, i32 0, i32 0, !dbg !9796
  %1 = bitcast %"struct.std::_Vector_base<dealii::Point<3>, std::allocator<dealii::Point<3> > >::_Vector_impl"* %_M_impl to %"struct.std::_Vector_base<dealii::Point<3>, std::allocator<dealii::Point<3> > >::_Vector_impl_data"*, !dbg !9798
  %_M_start = getelementptr inbounds %"struct.std::_Vector_base<dealii::Point<3>, std::allocator<dealii::Point<3> > >::_Vector_impl_data", %"struct.std::_Vector_base<dealii::Point<3>, std::allocator<dealii::Point<3> > >::_Vector_impl_data"* %1, i32 0, i32 0, !dbg !9799
  %2 = load %"class.dealii::Point"*, %"class.dealii::Point"** %_M_start, align 8, !dbg !9799
  %3 = bitcast %"class.std::vector.20"* %this1 to %"struct.std::_Vector_base.21"*, !dbg !9800
  %_M_impl2 = getelementptr inbounds %"struct.std::_Vector_base.21", %"struct.std::_Vector_base.21"* %3, i32 0, i32 0, !dbg !9800
  %4 = bitcast %"struct.std::_Vector_base<dealii::Point<3>, std::allocator<dealii::Point<3> > >::_Vector_impl"* %_M_impl2 to %"struct.std::_Vector_base<dealii::Point<3>, std::allocator<dealii::Point<3> > >::_Vector_impl_data"*, !dbg !9801
  %_M_finish = getelementptr inbounds %"struct.std::_Vector_base<dealii::Point<3>, std::allocator<dealii::Point<3> > >::_Vector_impl_data", %"struct.std::_Vector_base<dealii::Point<3>, std::allocator<dealii::Point<3> > >::_Vector_impl_data"* %4, i32 0, i32 1, !dbg !9802
  %5 = load %"class.dealii::Point"*, %"class.dealii::Point"** %_M_finish, align 8, !dbg !9802
  %6 = bitcast %"class.std::vector.20"* %this1 to %"struct.std::_Vector_base.21"*, !dbg !9803
  %call = call dereferenceable(1) %"class.std::allocator.22"* @_ZNSt12_Vector_baseIN6dealii5PointILi3EEESaIS2_EE19_M_get_Tp_allocatorEv(%"struct.std::_Vector_base.21"* %6) #4, !dbg !9803
  invoke void @_ZSt8_DestroyIPN6dealii5PointILi3EEES2_EvT_S4_RSaIT0_E(%"class.dealii::Point"* %2, %"class.dealii::Point"* %5, %"class.std::allocator.22"* dereferenceable(1) %call)
          to label %invoke.cont unwind label %lpad, !dbg !9804

invoke.cont:                                      ; preds = %entry
  %7 = bitcast %"class.std::vector.20"* %this1 to %"struct.std::_Vector_base.21"*, !dbg !9805
  call void @_ZNSt12_Vector_baseIN6dealii5PointILi3EEESaIS2_EED2Ev(%"struct.std::_Vector_base.21"* %7) #4, !dbg !9805
  ret void, !dbg !9806

lpad:                                             ; preds = %entry
  %8 = landingpad { i8*, i32 }
          catch i8* null, !dbg !9805
  %9 = extractvalue { i8*, i32 } %8, 0, !dbg !9805
  store i8* %9, i8** %exn.slot, align 8, !dbg !9805
  %10 = extractvalue { i8*, i32 } %8, 1, !dbg !9805
  store i32 %10, i32* %ehselector.slot, align 4, !dbg !9805
  %11 = bitcast %"class.std::vector.20"* %this1 to %"struct.std::_Vector_base.21"*, !dbg !9805
  call void @_ZNSt12_Vector_baseIN6dealii5PointILi3EEESaIS2_EED2Ev(%"struct.std::_Vector_base.21"* %11) #4, !dbg !9805
  br label %terminate.handler, !dbg !9805

terminate.handler:                                ; preds = %lpad
  %exn = load i8*, i8** %exn.slot, align 8, !dbg !9805
  call void @__clang_call_terminate(i8* %exn) #13, !dbg !9805
  unreachable, !dbg !9805
}

; Function Attrs: noinline nounwind uwtable
define linkonce_odr dso_local void @_ZN6dealii10FullMatrixIdED2Ev(%"class.dealii::FullMatrix"* %this) unnamed_addr #1 comdat align 2 !dbg !9807 {
entry:
  %this.addr = alloca %"class.dealii::FullMatrix"*, align 8
  store %"class.dealii::FullMatrix"* %this, %"class.dealii::FullMatrix"** %this.addr, align 8
  call void @llvm.dbg.declare(metadata %"class.dealii::FullMatrix"** %this.addr, metadata !9812, metadata !DIExpression()), !dbg !9813
  %this1 = load %"class.dealii::FullMatrix"*, %"class.dealii::FullMatrix"** %this.addr, align 8
  %0 = bitcast %"class.dealii::FullMatrix"* %this1 to %"class.dealii::Table"*, !dbg !9814
  call void @_ZN6dealii5TableILi2EdED2Ev(%"class.dealii::Table"* %0) #4, !dbg !9814
  ret void, !dbg !9816
}

; Function Attrs: noinline nounwind uwtable
define linkonce_odr dso_local void @_ZNSt6vectorIS_IN6dealii10FullMatrixIdEESaIS2_EESaIS4_EED2Ev(%"class.std::vector"* %this) unnamed_addr #1 comdat align 2 personality i8* bitcast (i32 (...)* @__gxx_personality_v0 to i8*) !dbg !9817 {
entry:
  %this.addr = alloca %"class.std::vector"*, align 8
  %exn.slot = alloca i8*
  %ehselector.slot = alloca i32
  store %"class.std::vector"* %this, %"class.std::vector"** %this.addr, align 8
  call void @llvm.dbg.declare(metadata %"class.std::vector"** %this.addr, metadata !9818, metadata !DIExpression()), !dbg !9819
  %this1 = load %"class.std::vector"*, %"class.std::vector"** %this.addr, align 8
  %0 = bitcast %"class.std::vector"* %this1 to %"struct.std::_Vector_base"*, !dbg !9820
  %_M_impl = getelementptr inbounds %"struct.std::_Vector_base", %"struct.std::_Vector_base"* %0, i32 0, i32 0, !dbg !9820
  %1 = bitcast %"struct.std::_Vector_base<std::vector<dealii::FullMatrix<double>, std::allocator<dealii::FullMatrix<double> > >, std::allocator<std::vector<dealii::FullMatrix<double>, std::allocator<dealii::FullMatrix<double> > > > >::_Vector_impl"* %_M_impl to %"struct.std::_Vector_base<std::vector<dealii::FullMatrix<double>, std::allocator<dealii::FullMatrix<double> > >, std::allocator<std::vector<dealii::FullMatrix<double>, std::allocator<dealii::FullMatrix<double> > > > >::_Vector_impl_data"*, !dbg !9822
  %_M_start = getelementptr inbounds %"struct.std::_Vector_base<std::vector<dealii::FullMatrix<double>, std::allocator<dealii::FullMatrix<double> > >, std::allocator<std::vector<dealii::FullMatrix<double>, std::allocator<dealii::FullMatrix<double> > > > >::_Vector_impl_data", %"struct.std::_Vector_base<std::vector<dealii::FullMatrix<double>, std::allocator<dealii::FullMatrix<double> > >, std::allocator<std::vector<dealii::FullMatrix<double>, std::allocator<dealii::FullMatrix<double> > > > >::_Vector_impl_data"* %1, i32 0, i32 0, !dbg !9823
  %2 = load %"class.std::vector.19"*, %"class.std::vector.19"** %_M_start, align 8, !dbg !9823
  %3 = bitcast %"class.std::vector"* %this1 to %"struct.std::_Vector_base"*, !dbg !9824
  %_M_impl2 = getelementptr inbounds %"struct.std::_Vector_base", %"struct.std::_Vector_base"* %3, i32 0, i32 0, !dbg !9824
  %4 = bitcast %"struct.std::_Vector_base<std::vector<dealii::FullMatrix<double>, std::allocator<dealii::FullMatrix<double> > >, std::allocator<std::vector<dealii::FullMatrix<double>, std::allocator<dealii::FullMatrix<double> > > > >::_Vector_impl"* %_M_impl2 to %"struct.std::_Vector_base<std::vector<dealii::FullMatrix<double>, std::allocator<dealii::FullMatrix<double> > >, std::allocator<std::vector<dealii::FullMatrix<double>, std::allocator<dealii::FullMatrix<double> > > > >::_Vector_impl_data"*, !dbg !9825
  %_M_finish = getelementptr inbounds %"struct.std::_Vector_base<std::vector<dealii::FullMatrix<double>, std::allocator<dealii::FullMatrix<double> > >, std::allocator<std::vector<dealii::FullMatrix<double>, std::allocator<dealii::FullMatrix<double> > > > >::_Vector_impl_data", %"struct.std::_Vector_base<std::vector<dealii::FullMatrix<double>, std::allocator<dealii::FullMatrix<double> > >, std::allocator<std::vector<dealii::FullMatrix<double>, std::allocator<dealii::FullMatrix<double> > > > >::_Vector_impl_data"* %4, i32 0, i32 1, !dbg !9826
  %5 = load %"class.std::vector.19"*, %"class.std::vector.19"** %_M_finish, align 8, !dbg !9826
  %6 = bitcast %"class.std::vector"* %this1 to %"struct.std::_Vector_base"*, !dbg !9827
  %call = call dereferenceable(1) %"class.std::allocator.16"* @_ZNSt12_Vector_baseISt6vectorIN6dealii10FullMatrixIdEESaIS3_EESaIS5_EE19_M_get_Tp_allocatorEv(%"struct.std::_Vector_base"* %6) #4, !dbg !9827
  invoke void @_ZSt8_DestroyIPSt6vectorIN6dealii10FullMatrixIdEESaIS3_EES5_EvT_S7_RSaIT0_E(%"class.std::vector.19"* %2, %"class.std::vector.19"* %5, %"class.std::allocator.16"* dereferenceable(1) %call)
          to label %invoke.cont unwind label %lpad, !dbg !9828

invoke.cont:                                      ; preds = %entry
  %7 = bitcast %"class.std::vector"* %this1 to %"struct.std::_Vector_base"*, !dbg !9829
  call void @_ZNSt12_Vector_baseISt6vectorIN6dealii10FullMatrixIdEESaIS3_EESaIS5_EED2Ev(%"struct.std::_Vector_base"* %7) #4, !dbg !9829
  ret void, !dbg !9830

lpad:                                             ; preds = %entry
  %8 = landingpad { i8*, i32 }
          catch i8* null, !dbg !9829
  %9 = extractvalue { i8*, i32 } %8, 0, !dbg !9829
  store i8* %9, i8** %exn.slot, align 8, !dbg !9829
  %10 = extractvalue { i8*, i32 } %8, 1, !dbg !9829
  store i32 %10, i32* %ehselector.slot, align 4, !dbg !9829
  %11 = bitcast %"class.std::vector"* %this1 to %"struct.std::_Vector_base"*, !dbg !9829
  call void @_ZNSt12_Vector_baseISt6vectorIN6dealii10FullMatrixIdEESaIS3_EESaIS5_EED2Ev(%"struct.std::_Vector_base"* %11) #4, !dbg !9829
  br label %terminate.handler, !dbg !9829

terminate.handler:                                ; preds = %lpad
  %exn = load i8*, i8** %exn.slot, align 8, !dbg !9829
  call void @__clang_call_terminate(i8* %exn) #13, !dbg !9829
  unreachable, !dbg !9829
}

; Function Attrs: nounwind
declare dso_local void @_ZN6dealii11SubscriptorD2Ev(%"class.dealii::Subscriptor"*) unnamed_addr #3

; Function Attrs: nounwind
declare dso_local void @_ZN6dealii13FiniteElementILi3ELi3EED1Ev(%"class.dealii::FiniteElement"*) unnamed_addr #3

; Function Attrs: nounwind
declare dso_local void @_ZN6dealii13FiniteElementILi3ELi3EED0Ev(%"class.dealii::FiniteElement"*) unnamed_addr #3

declare dso_local double @_ZNK6dealii13FiniteElementILi3ELi3EE11shape_valueEjRKNS_5PointILi3EEE(%"class.dealii::FiniteElement"*, i32, %"class.dealii::Point"* dereferenceable(24)) unnamed_addr #2

declare dso_local double @_ZNK6dealii13FiniteElementILi3ELi3EE21shape_value_componentEjRKNS_5PointILi3EEEj(%"class.dealii::FiniteElement"*, i32, %"class.dealii::Point"* dereferenceable(24), i32) unnamed_addr #2

declare dso_local void @_ZNK6dealii13FiniteElementILi3ELi3EE10shape_gradEjRKNS_5PointILi3EEE(%"class.dealii::Tensor"* sret, %"class.dealii::FiniteElement"*, i32, %"class.dealii::Point"* dereferenceable(24)) unnamed_addr #2

declare dso_local void @_ZNK6dealii13FiniteElementILi3ELi3EE20shape_grad_componentEjRKNS_5PointILi3EEEj(%"class.dealii::Tensor"* sret, %"class.dealii::FiniteElement"*, i32, %"class.dealii::Point"* dereferenceable(24), i32) unnamed_addr #2

declare dso_local void @_ZNK6dealii13FiniteElementILi3ELi3EE15shape_grad_gradEjRKNS_5PointILi3EEE(%"class.dealii::Tensor.84"* sret, %"class.dealii::FiniteElement"*, i32, %"class.dealii::Point"* dereferenceable(24)) unnamed_addr #2

declare dso_local void @_ZNK6dealii13FiniteElementILi3ELi3EE25shape_grad_grad_componentEjRKNS_5PointILi3EEEj(%"class.dealii::Tensor.84"* sret, %"class.dealii::FiniteElement"*, i32, %"class.dealii::Point"* dereferenceable(24), i32) unnamed_addr #2

; Function Attrs: noinline nounwind uwtable
define linkonce_odr dso_local i64 @_ZNKSt6vectorIS_IN6dealii10FullMatrixIdEESaIS2_EESaIS4_EE4sizeEv(%"class.std::vector"* %this) #1 comdat align 2 !dbg !9831 {
entry:
  %this.addr = alloca %"class.std::vector"*, align 8
  store %"class.std::vector"* %this, %"class.std::vector"** %this.addr, align 8
  call void @llvm.dbg.declare(metadata %"class.std::vector"** %this.addr, metadata !9832, metadata !DIExpression()), !dbg !9834
  %this1 = load %"class.std::vector"*, %"class.std::vector"** %this.addr, align 8
  %0 = bitcast %"class.std::vector"* %this1 to %"struct.std::_Vector_base"*, !dbg !9835
  %_M_impl = getelementptr inbounds %"struct.std::_Vector_base", %"struct.std::_Vector_base"* %0, i32 0, i32 0, !dbg !9835
  %1 = bitcast %"struct.std::_Vector_base<std::vector<dealii::FullMatrix<double>, std::allocator<dealii::FullMatrix<double> > >, std::allocator<std::vector<dealii::FullMatrix<double>, std::allocator<dealii::FullMatrix<double> > > > >::_Vector_impl"* %_M_impl to %"struct.std::_Vector_base<std::vector<dealii::FullMatrix<double>, std::allocator<dealii::FullMatrix<double> > >, std::allocator<std::vector<dealii::FullMatrix<double>, std::allocator<dealii::FullMatrix<double> > > > >::_Vector_impl_data"*, !dbg !9836
  %_M_finish = getelementptr inbounds %"struct.std::_Vector_base<std::vector<dealii::FullMatrix<double>, std::allocator<dealii::FullMatrix<double> > >, std::allocator<std::vector<dealii::FullMatrix<double>, std::allocator<dealii::FullMatrix<double> > > > >::_Vector_impl_data", %"struct.std::_Vector_base<std::vector<dealii::FullMatrix<double>, std::allocator<dealii::FullMatrix<double> > >, std::allocator<std::vector<dealii::FullMatrix<double>, std::allocator<dealii::FullMatrix<double> > > > >::_Vector_impl_data"* %1, i32 0, i32 1, !dbg !9837
  %2 = load %"class.std::vector.19"*, %"class.std::vector.19"** %_M_finish, align 8, !dbg !9837
  %3 = bitcast %"class.std::vector"* %this1 to %"struct.std::_Vector_base"*, !dbg !9838
  %_M_impl2 = getelementptr inbounds %"struct.std::_Vector_base", %"struct.std::_Vector_base"* %3, i32 0, i32 0, !dbg !9838
  %4 = bitcast %"struct.std::_Vector_base<std::vector<dealii::FullMatrix<double>, std::allocator<dealii::FullMatrix<double> > >, std::allocator<std::vector<dealii::FullMatrix<double>, std::allocator<dealii::FullMatrix<double> > > > >::_Vector_impl"* %_M_impl2 to %"struct.std::_Vector_base<std::vector<dealii::FullMatrix<double>, std::allocator<dealii::FullMatrix<double> > >, std::allocator<std::vector<dealii::FullMatrix<double>, std::allocator<dealii::FullMatrix<double> > > > >::_Vector_impl_data"*, !dbg !9839
  %_M_start = getelementptr inbounds %"struct.std::_Vector_base<std::vector<dealii::FullMatrix<double>, std::allocator<dealii::FullMatrix<double> > >, std::allocator<std::vector<dealii::FullMatrix<double>, std::allocator<dealii::FullMatrix<double> > > > >::_Vector_impl_data", %"struct.std::_Vector_base<std::vector<dealii::FullMatrix<double>, std::allocator<dealii::FullMatrix<double> > >, std::allocator<std::vector<dealii::FullMatrix<double>, std::allocator<dealii::FullMatrix<double> > > > >::_Vector_impl_data"* %4, i32 0, i32 0, !dbg !9840
  %5 = load %"class.std::vector.19"*, %"class.std::vector.19"** %_M_start, align 8, !dbg !9840
  %sub.ptr.lhs.cast = ptrtoint %"class.std::vector.19"* %2 to i64, !dbg !9841
  %sub.ptr.rhs.cast = ptrtoint %"class.std::vector.19"* %5 to i64, !dbg !9841
  %sub.ptr.sub = sub i64 %sub.ptr.lhs.cast, %sub.ptr.rhs.cast, !dbg !9841
  %sub.ptr.div = sdiv exact i64 %sub.ptr.sub, 24, !dbg !9841
  ret i64 %sub.ptr.div, !dbg !9842
}

; Function Attrs: noinline uwtable
define linkonce_odr dso_local void @_ZN9__gnu_cxx14__alloc_traitsISaISt6vectorIN6dealii10FullMatrixIdEESaIS4_EEES6_E17_S_select_on_copyERKS7_(%"class.std::allocator.16"* noalias sret %agg.result, %"class.std::allocator.16"* dereferenceable(1) %__a) #0 comdat align 2 !dbg !9843 {
entry:
  %result.ptr = alloca i8*, align 8
  %__a.addr = alloca %"class.std::allocator.16"*, align 8
  %0 = bitcast %"class.std::allocator.16"* %agg.result to i8*
  store i8* %0, i8** %result.ptr, align 8
  store %"class.std::allocator.16"* %__a, %"class.std::allocator.16"** %__a.addr, align 8
  call void @llvm.dbg.declare(metadata %"class.std::allocator.16"** %__a.addr, metadata !9844, metadata !DIExpression()), !dbg !9845
  %1 = load %"class.std::allocator.16"*, %"class.std::allocator.16"** %__a.addr, align 8, !dbg !9846
  call void @_ZNSt16allocator_traitsISaISt6vectorIN6dealii10FullMatrixIdEESaIS3_EEEE37select_on_container_copy_constructionERKS6_(%"class.std::allocator.16"* sret %agg.result, %"class.std::allocator.16"* dereferenceable(1) %1), !dbg !9847
  ret void, !dbg !9848
}

; Function Attrs: noinline nounwind uwtable
define linkonce_odr dso_local dereferenceable(1) %"class.std::allocator.16"* @_ZNKSt12_Vector_baseISt6vectorIN6dealii10FullMatrixIdEESaIS3_EESaIS5_EE19_M_get_Tp_allocatorEv(%"struct.std::_Vector_base"* %this) #1 comdat align 2 !dbg !9849 {
entry:
  %this.addr = alloca %"struct.std::_Vector_base"*, align 8
  store %"struct.std::_Vector_base"* %this, %"struct.std::_Vector_base"** %this.addr, align 8
  call void @llvm.dbg.declare(metadata %"struct.std::_Vector_base"** %this.addr, metadata !9850, metadata !DIExpression()), !dbg !9852
  %this1 = load %"struct.std::_Vector_base"*, %"struct.std::_Vector_base"** %this.addr, align 8
  %_M_impl = getelementptr inbounds %"struct.std::_Vector_base", %"struct.std::_Vector_base"* %this1, i32 0, i32 0, !dbg !9853
  %0 = bitcast %"struct.std::_Vector_base<std::vector<dealii::FullMatrix<double>, std::allocator<dealii::FullMatrix<double> > >, std::allocator<std::vector<dealii::FullMatrix<double>, std::allocator<dealii::FullMatrix<double> > > > >::_Vector_impl"* %_M_impl to %"class.std::allocator.16"*, !dbg !9854
  ret %"class.std::allocator.16"* %0, !dbg !9855
}

; Function Attrs: noinline uwtable
define linkonce_odr dso_local void @_ZNSt12_Vector_baseISt6vectorIN6dealii10FullMatrixIdEESaIS3_EESaIS5_EEC2EmRKS6_(%"struct.std::_Vector_base"* %this, i64 %__n, %"class.std::allocator.16"* dereferenceable(1) %__a) unnamed_addr #0 comdat align 2 personality i8* bitcast (i32 (...)* @__gxx_personality_v0 to i8*) !dbg !9856 {
entry:
  %this.addr = alloca %"struct.std::_Vector_base"*, align 8
  %__n.addr = alloca i64, align 8
  %__a.addr = alloca %"class.std::allocator.16"*, align 8
  %exn.slot = alloca i8*
  %ehselector.slot = alloca i32
  store %"struct.std::_Vector_base"* %this, %"struct.std::_Vector_base"** %this.addr, align 8
  call void @llvm.dbg.declare(metadata %"struct.std::_Vector_base"** %this.addr, metadata !9857, metadata !DIExpression()), !dbg !9859
  store i64 %__n, i64* %__n.addr, align 8
  call void @llvm.dbg.declare(metadata i64* %__n.addr, metadata !9860, metadata !DIExpression()), !dbg !9861
  store %"class.std::allocator.16"* %__a, %"class.std::allocator.16"** %__a.addr, align 8
  call void @llvm.dbg.declare(metadata %"class.std::allocator.16"** %__a.addr, metadata !9862, metadata !DIExpression()), !dbg !9863
  %this1 = load %"struct.std::_Vector_base"*, %"struct.std::_Vector_base"** %this.addr, align 8
  %_M_impl = getelementptr inbounds %"struct.std::_Vector_base", %"struct.std::_Vector_base"* %this1, i32 0, i32 0, !dbg !9864
  %0 = load %"class.std::allocator.16"*, %"class.std::allocator.16"** %__a.addr, align 8, !dbg !9865
  call void @_ZNSt12_Vector_baseISt6vectorIN6dealii10FullMatrixIdEESaIS3_EESaIS5_EE12_Vector_implC2ERKS6_(%"struct.std::_Vector_base<std::vector<dealii::FullMatrix<double>, std::allocator<dealii::FullMatrix<double> > >, std::allocator<std::vector<dealii::FullMatrix<double>, std::allocator<dealii::FullMatrix<double> > > > >::_Vector_impl"* %_M_impl, %"class.std::allocator.16"* dereferenceable(1) %0) #4, !dbg !9864
  %1 = load i64, i64* %__n.addr, align 8, !dbg !9866
  invoke void @_ZNSt12_Vector_baseISt6vectorIN6dealii10FullMatrixIdEESaIS3_EESaIS5_EE17_M_create_storageEm(%"struct.std::_Vector_base"* %this1, i64 %1)
          to label %invoke.cont unwind label %lpad, !dbg !9868

invoke.cont:                                      ; preds = %entry
  ret void, !dbg !9869

lpad:                                             ; preds = %entry
  %2 = landingpad { i8*, i32 }
          cleanup, !dbg !9870
  %3 = extractvalue { i8*, i32 } %2, 0, !dbg !9870
  store i8* %3, i8** %exn.slot, align 8, !dbg !9870
  %4 = extractvalue { i8*, i32 } %2, 1, !dbg !9870
  store i32 %4, i32* %ehselector.slot, align 4, !dbg !9870
  call void @_ZNSt12_Vector_baseISt6vectorIN6dealii10FullMatrixIdEESaIS3_EESaIS5_EE12_Vector_implD2Ev(%"struct.std::_Vector_base<std::vector<dealii::FullMatrix<double>, std::allocator<dealii::FullMatrix<double> > >, std::allocator<std::vector<dealii::FullMatrix<double>, std::allocator<dealii::FullMatrix<double> > > > >::_Vector_impl"* %_M_impl) #4, !dbg !9870
  br label %eh.resume, !dbg !9870

eh.resume:                                        ; preds = %lpad
  %exn = load i8*, i8** %exn.slot, align 8, !dbg !9870
  %sel = load i32, i32* %ehselector.slot, align 4, !dbg !9870
  %lpad.val = insertvalue { i8*, i32 } undef, i8* %exn, 0, !dbg !9870
  %lpad.val2 = insertvalue { i8*, i32 } %lpad.val, i32 %sel, 1, !dbg !9870
  resume { i8*, i32 } %lpad.val2, !dbg !9870
}

; Function Attrs: noinline nounwind uwtable
define linkonce_odr dso_local void @_ZNSaISt6vectorIN6dealii10FullMatrixIdEESaIS2_EEED2Ev(%"class.std::allocator.16"* %this) unnamed_addr #1 comdat align 2 !dbg !9871 {
entry:
  %this.addr = alloca %"class.std::allocator.16"*, align 8
  store %"class.std::allocator.16"* %this, %"class.std::allocator.16"** %this.addr, align 8
  call void @llvm.dbg.declare(metadata %"class.std::allocator.16"** %this.addr, metadata !9872, metadata !DIExpression()), !dbg !9874
  %this1 = load %"class.std::allocator.16"*, %"class.std::allocator.16"** %this.addr, align 8
  %0 = bitcast %"class.std::allocator.16"* %this1 to %"class.__gnu_cxx::new_allocator.17"*, !dbg !9875
  call void @_ZN9__gnu_cxx13new_allocatorISt6vectorIN6dealii10FullMatrixIdEESaIS4_EEED2Ev(%"class.__gnu_cxx::new_allocator.17"* %0) #4, !dbg !9875
  ret void, !dbg !9877
}

; Function Attrs: noinline uwtable
define linkonce_odr dso_local %"class.std::vector.19"* @_ZSt22__uninitialized_copy_aIN9__gnu_cxx17__normal_iteratorIPKSt6vectorIN6dealii10FullMatrixIdEESaIS5_EES2_IS7_SaIS7_EEEEPS7_S7_ET0_T_SF_SE_RSaIT1_E(%"class.std::vector.19"* %__first.coerce, %"class.std::vector.19"* %__last.coerce, %"class.std::vector.19"* %__result, %"class.std::allocator.16"* dereferenceable(1) %0) #0 comdat !dbg !9878 {
entry:
  %__first = alloca %"class.__gnu_cxx::__normal_iterator", align 8
  %__last = alloca %"class.__gnu_cxx::__normal_iterator", align 8
  %__result.addr = alloca %"class.std::vector.19"*, align 8
  %.addr = alloca %"class.std::allocator.16"*, align 8
  %agg.tmp = alloca %"class.__gnu_cxx::__normal_iterator", align 8
  %agg.tmp2 = alloca %"class.__gnu_cxx::__normal_iterator", align 8
  %coerce.dive = getelementptr inbounds %"class.__gnu_cxx::__normal_iterator", %"class.__gnu_cxx::__normal_iterator"* %__first, i32 0, i32 0
  store %"class.std::vector.19"* %__first.coerce, %"class.std::vector.19"** %coerce.dive, align 8
  %coerce.dive1 = getelementptr inbounds %"class.__gnu_cxx::__normal_iterator", %"class.__gnu_cxx::__normal_iterator"* %__last, i32 0, i32 0
  store %"class.std::vector.19"* %__last.coerce, %"class.std::vector.19"** %coerce.dive1, align 8
  call void @llvm.dbg.declare(metadata %"class.__gnu_cxx::__normal_iterator"* %__first, metadata !9885, metadata !DIExpression()), !dbg !9886
  call void @llvm.dbg.declare(metadata %"class.__gnu_cxx::__normal_iterator"* %__last, metadata !9887, metadata !DIExpression()), !dbg !9888
  store %"class.std::vector.19"* %__result, %"class.std::vector.19"** %__result.addr, align 8
  call void @llvm.dbg.declare(metadata %"class.std::vector.19"** %__result.addr, metadata !9889, metadata !DIExpression()), !dbg !9890
  store %"class.std::allocator.16"* %0, %"class.std::allocator.16"** %.addr, align 8
  call void @llvm.dbg.declare(metadata %"class.std::allocator.16"** %.addr, metadata !9891, metadata !DIExpression()), !dbg !9892
  %1 = bitcast %"class.__gnu_cxx::__normal_iterator"* %agg.tmp to i8*, !dbg !9893
  %2 = bitcast %"class.__gnu_cxx::__normal_iterator"* %__first to i8*, !dbg !9893
  call void @llvm.memcpy.p0i8.p0i8.i64(i8* align 8 %1, i8* align 8 %2, i64 8, i1 false), !dbg !9893
  %3 = bitcast %"class.__gnu_cxx::__normal_iterator"* %agg.tmp2 to i8*, !dbg !9894
  %4 = bitcast %"class.__gnu_cxx::__normal_iterator"* %__last to i8*, !dbg !9894
  call void @llvm.memcpy.p0i8.p0i8.i64(i8* align 8 %3, i8* align 8 %4, i64 8, i1 false), !dbg !9894
  %5 = load %"class.std::vector.19"*, %"class.std::vector.19"** %__result.addr, align 8, !dbg !9895
  %coerce.dive3 = getelementptr inbounds %"class.__gnu_cxx::__normal_iterator", %"class.__gnu_cxx::__normal_iterator"* %agg.tmp, i32 0, i32 0, !dbg !9896
  %6 = load %"class.std::vector.19"*, %"class.std::vector.19"** %coerce.dive3, align 8, !dbg !9896
  %coerce.dive4 = getelementptr inbounds %"class.__gnu_cxx::__normal_iterator", %"class.__gnu_cxx::__normal_iterator"* %agg.tmp2, i32 0, i32 0, !dbg !9896
  %7 = load %"class.std::vector.19"*, %"class.std::vector.19"** %coerce.dive4, align 8, !dbg !9896
  %call = call %"class.std::vector.19"* @_ZSt18uninitialized_copyIN9__gnu_cxx17__normal_iteratorIPKSt6vectorIN6dealii10FullMatrixIdEESaIS5_EES2_IS7_SaIS7_EEEEPS7_ET0_T_SF_SE_(%"class.std::vector.19"* %6, %"class.std::vector.19"* %7, %"class.std::vector.19"* %5), !dbg !9896
  ret %"class.std::vector.19"* %call, !dbg !9897
}

; Function Attrs: noinline nounwind uwtable
define linkonce_odr dso_local %"class.std::vector.19"* @_ZNKSt6vectorIS_IN6dealii10FullMatrixIdEESaIS2_EESaIS4_EE5beginEv(%"class.std::vector"* %this) #1 comdat align 2 !dbg !9898 {
entry:
  %retval = alloca %"class.__gnu_cxx::__normal_iterator", align 8
  %this.addr = alloca %"class.std::vector"*, align 8
  store %"class.std::vector"* %this, %"class.std::vector"** %this.addr, align 8
  call void @llvm.dbg.declare(metadata %"class.std::vector"** %this.addr, metadata !9899, metadata !DIExpression()), !dbg !9900
  %this1 = load %"class.std::vector"*, %"class.std::vector"** %this.addr, align 8
  %0 = bitcast %"class.std::vector"* %this1 to %"struct.std::_Vector_base"*, !dbg !9901
  %_M_impl = getelementptr inbounds %"struct.std::_Vector_base", %"struct.std::_Vector_base"* %0, i32 0, i32 0, !dbg !9901
  %1 = bitcast %"struct.std::_Vector_base<std::vector<dealii::FullMatrix<double>, std::allocator<dealii::FullMatrix<double> > >, std::allocator<std::vector<dealii::FullMatrix<double>, std::allocator<dealii::FullMatrix<double> > > > >::_Vector_impl"* %_M_impl to %"struct.std::_Vector_base<std::vector<dealii::FullMatrix<double>, std::allocator<dealii::FullMatrix<double> > >, std::allocator<std::vector<dealii::FullMatrix<double>, std::allocator<dealii::FullMatrix<double> > > > >::_Vector_impl_data"*, !dbg !9902
  %_M_start = getelementptr inbounds %"struct.std::_Vector_base<std::vector<dealii::FullMatrix<double>, std::allocator<dealii::FullMatrix<double> > >, std::allocator<std::vector<dealii::FullMatrix<double>, std::allocator<dealii::FullMatrix<double> > > > >::_Vector_impl_data", %"struct.std::_Vector_base<std::vector<dealii::FullMatrix<double>, std::allocator<dealii::FullMatrix<double> > >, std::allocator<std::vector<dealii::FullMatrix<double>, std::allocator<dealii::FullMatrix<double> > > > >::_Vector_impl_data"* %1, i32 0, i32 0, !dbg !9903
  call void @_ZN9__gnu_cxx17__normal_iteratorIPKSt6vectorIN6dealii10FullMatrixIdEESaIS4_EES1_IS6_SaIS6_EEEC2ERKS8_(%"class.__gnu_cxx::__normal_iterator"* %retval, %"class.std::vector.19"** dereferenceable(8) %_M_start) #4, !dbg !9904
  %coerce.dive = getelementptr inbounds %"class.__gnu_cxx::__normal_iterator", %"class.__gnu_cxx::__normal_iterator"* %retval, i32 0, i32 0, !dbg !9905
  %2 = load %"class.std::vector.19"*, %"class.std::vector.19"** %coerce.dive, align 8, !dbg !9905
  ret %"class.std::vector.19"* %2, !dbg !9905
}

; Function Attrs: noinline nounwind uwtable
define linkonce_odr dso_local %"class.std::vector.19"* @_ZNKSt6vectorIS_IN6dealii10FullMatrixIdEESaIS2_EESaIS4_EE3endEv(%"class.std::vector"* %this) #1 comdat align 2 !dbg !9906 {
entry:
  %retval = alloca %"class.__gnu_cxx::__normal_iterator", align 8
  %this.addr = alloca %"class.std::vector"*, align 8
  store %"class.std::vector"* %this, %"class.std::vector"** %this.addr, align 8
  call void @llvm.dbg.declare(metadata %"class.std::vector"** %this.addr, metadata !9907, metadata !DIExpression()), !dbg !9908
  %this1 = load %"class.std::vector"*, %"class.std::vector"** %this.addr, align 8
  %0 = bitcast %"class.std::vector"* %this1 to %"struct.std::_Vector_base"*, !dbg !9909
  %_M_impl = getelementptr inbounds %"struct.std::_Vector_base", %"struct.std::_Vector_base"* %0, i32 0, i32 0, !dbg !9909
  %1 = bitcast %"struct.std::_Vector_base<std::vector<dealii::FullMatrix<double>, std::allocator<dealii::FullMatrix<double> > >, std::allocator<std::vector<dealii::FullMatrix<double>, std::allocator<dealii::FullMatrix<double> > > > >::_Vector_impl"* %_M_impl to %"struct.std::_Vector_base<std::vector<dealii::FullMatrix<double>, std::allocator<dealii::FullMatrix<double> > >, std::allocator<std::vector<dealii::FullMatrix<double>, std::allocator<dealii::FullMatrix<double> > > > >::_Vector_impl_data"*, !dbg !9910
  %_M_finish = getelementptr inbounds %"struct.std::_Vector_base<std::vector<dealii::FullMatrix<double>, std::allocator<dealii::FullMatrix<double> > >, std::allocator<std::vector<dealii::FullMatrix<double>, std::allocator<dealii::FullMatrix<double> > > > >::_Vector_impl_data", %"struct.std::_Vector_base<std::vector<dealii::FullMatrix<double>, std::allocator<dealii::FullMatrix<double> > >, std::allocator<std::vector<dealii::FullMatrix<double>, std::allocator<dealii::FullMatrix<double> > > > >::_Vector_impl_data"* %1, i32 0, i32 1, !dbg !9911
  call void @_ZN9__gnu_cxx17__normal_iteratorIPKSt6vectorIN6dealii10FullMatrixIdEESaIS4_EES1_IS6_SaIS6_EEEC2ERKS8_(%"class.__gnu_cxx::__normal_iterator"* %retval, %"class.std::vector.19"** dereferenceable(8) %_M_finish) #4, !dbg !9912
  %coerce.dive = getelementptr inbounds %"class.__gnu_cxx::__normal_iterator", %"class.__gnu_cxx::__normal_iterator"* %retval, i32 0, i32 0, !dbg !9913
  %2 = load %"class.std::vector.19"*, %"class.std::vector.19"** %coerce.dive, align 8, !dbg !9913
  ret %"class.std::vector.19"* %2, !dbg !9913
}

; Function Attrs: noinline nounwind uwtable
define linkonce_odr dso_local dereferenceable(1) %"class.std::allocator.16"* @_ZNSt12_Vector_baseISt6vectorIN6dealii10FullMatrixIdEESaIS3_EESaIS5_EE19_M_get_Tp_allocatorEv(%"struct.std::_Vector_base"* %this) #1 comdat align 2 !dbg !9914 {
entry:
  %this.addr = alloca %"struct.std::_Vector_base"*, align 8
  store %"struct.std::_Vector_base"* %this, %"struct.std::_Vector_base"** %this.addr, align 8
  call void @llvm.dbg.declare(metadata %"struct.std::_Vector_base"** %this.addr, metadata !9915, metadata !DIExpression()), !dbg !9916
  %this1 = load %"struct.std::_Vector_base"*, %"struct.std::_Vector_base"** %this.addr, align 8
  %_M_impl = getelementptr inbounds %"struct.std::_Vector_base", %"struct.std::_Vector_base"* %this1, i32 0, i32 0, !dbg !9917
  %0 = bitcast %"struct.std::_Vector_base<std::vector<dealii::FullMatrix<double>, std::allocator<dealii::FullMatrix<double> > >, std::allocator<std::vector<dealii::FullMatrix<double>, std::allocator<dealii::FullMatrix<double> > > > >::_Vector_impl"* %_M_impl to %"class.std::allocator.16"*, !dbg !9918
  ret %"class.std::allocator.16"* %0, !dbg !9919
}

; Function Attrs: noinline nounwind uwtable
define linkonce_odr dso_local void @_ZNSt12_Vector_baseISt6vectorIN6dealii10FullMatrixIdEESaIS3_EESaIS5_EED2Ev(%"struct.std::_Vector_base"* %this) unnamed_addr #1 comdat align 2 personality i8* bitcast (i32 (...)* @__gxx_personality_v0 to i8*) !dbg !9920 {
entry:
  %this.addr = alloca %"struct.std::_Vector_base"*, align 8
  %exn.slot = alloca i8*
  %ehselector.slot = alloca i32
  store %"struct.std::_Vector_base"* %this, %"struct.std::_Vector_base"** %this.addr, align 8
  call void @llvm.dbg.declare(metadata %"struct.std::_Vector_base"** %this.addr, metadata !9921, metadata !DIExpression()), !dbg !9922
  %this1 = load %"struct.std::_Vector_base"*, %"struct.std::_Vector_base"** %this.addr, align 8
  %_M_impl = getelementptr inbounds %"struct.std::_Vector_base", %"struct.std::_Vector_base"* %this1, i32 0, i32 0, !dbg !9923
  %0 = bitcast %"struct.std::_Vector_base<std::vector<dealii::FullMatrix<double>, std::allocator<dealii::FullMatrix<double> > >, std::allocator<std::vector<dealii::FullMatrix<double>, std::allocator<dealii::FullMatrix<double> > > > >::_Vector_impl"* %_M_impl to %"struct.std::_Vector_base<std::vector<dealii::FullMatrix<double>, std::allocator<dealii::FullMatrix<double> > >, std::allocator<std::vector<dealii::FullMatrix<double>, std::allocator<dealii::FullMatrix<double> > > > >::_Vector_impl_data"*, !dbg !9923
  %_M_start = getelementptr inbounds %"struct.std::_Vector_base<std::vector<dealii::FullMatrix<double>, std::allocator<dealii::FullMatrix<double> > >, std::allocator<std::vector<dealii::FullMatrix<double>, std::allocator<dealii::FullMatrix<double> > > > >::_Vector_impl_data", %"struct.std::_Vector_base<std::vector<dealii::FullMatrix<double>, std::allocator<dealii::FullMatrix<double> > >, std::allocator<std::vector<dealii::FullMatrix<double>, std::allocator<dealii::FullMatrix<double> > > > >::_Vector_impl_data"* %0, i32 0, i32 0, !dbg !9925
  %1 = load %"class.std::vector.19"*, %"class.std::vector.19"** %_M_start, align 8, !dbg !9925
  %_M_impl2 = getelementptr inbounds %"struct.std::_Vector_base", %"struct.std::_Vector_base"* %this1, i32 0, i32 0, !dbg !9926
  %2 = bitcast %"struct.std::_Vector_base<std::vector<dealii::FullMatrix<double>, std::allocator<dealii::FullMatrix<double> > >, std::allocator<std::vector<dealii::FullMatrix<double>, std::allocator<dealii::FullMatrix<double> > > > >::_Vector_impl"* %_M_impl2 to %"struct.std::_Vector_base<std::vector<dealii::FullMatrix<double>, std::allocator<dealii::FullMatrix<double> > >, std::allocator<std::vector<dealii::FullMatrix<double>, std::allocator<dealii::FullMatrix<double> > > > >::_Vector_impl_data"*, !dbg !9926
  %_M_end_of_storage = getelementptr inbounds %"struct.std::_Vector_base<std::vector<dealii::FullMatrix<double>, std::allocator<dealii::FullMatrix<double> > >, std::allocator<std::vector<dealii::FullMatrix<double>, std::allocator<dealii::FullMatrix<double> > > > >::_Vector_impl_data", %"struct.std::_Vector_base<std::vector<dealii::FullMatrix<double>, std::allocator<dealii::FullMatrix<double> > >, std::allocator<std::vector<dealii::FullMatrix<double>, std::allocator<dealii::FullMatrix<double> > > > >::_Vector_impl_data"* %2, i32 0, i32 2, !dbg !9927
  %3 = load %"class.std::vector.19"*, %"class.std::vector.19"** %_M_end_of_storage, align 8, !dbg !9927
  %_M_impl3 = getelementptr inbounds %"struct.std::_Vector_base", %"struct.std::_Vector_base"* %this1, i32 0, i32 0, !dbg !9928
  %4 = bitcast %"struct.std::_Vector_base<std::vector<dealii::FullMatrix<double>, std::allocator<dealii::FullMatrix<double> > >, std::allocator<std::vector<dealii::FullMatrix<double>, std::allocator<dealii::FullMatrix<double> > > > >::_Vector_impl"* %_M_impl3 to %"struct.std::_Vector_base<std::vector<dealii::FullMatrix<double>, std::allocator<dealii::FullMatrix<double> > >, std::allocator<std::vector<dealii::FullMatrix<double>, std::allocator<dealii::FullMatrix<double> > > > >::_Vector_impl_data"*, !dbg !9928
  %_M_start4 = getelementptr inbounds %"struct.std::_Vector_base<std::vector<dealii::FullMatrix<double>, std::allocator<dealii::FullMatrix<double> > >, std::allocator<std::vector<dealii::FullMatrix<double>, std::allocator<dealii::FullMatrix<double> > > > >::_Vector_impl_data", %"struct.std::_Vector_base<std::vector<dealii::FullMatrix<double>, std::allocator<dealii::FullMatrix<double> > >, std::allocator<std::vector<dealii::FullMatrix<double>, std::allocator<dealii::FullMatrix<double> > > > >::_Vector_impl_data"* %4, i32 0, i32 0, !dbg !9929
  %5 = load %"class.std::vector.19"*, %"class.std::vector.19"** %_M_start4, align 8, !dbg !9929
  %sub.ptr.lhs.cast = ptrtoint %"class.std::vector.19"* %3 to i64, !dbg !9930
  %sub.ptr.rhs.cast = ptrtoint %"class.std::vector.19"* %5 to i64, !dbg !9930
  %sub.ptr.sub = sub i64 %sub.ptr.lhs.cast, %sub.ptr.rhs.cast, !dbg !9930
  %sub.ptr.div = sdiv exact i64 %sub.ptr.sub, 24, !dbg !9930
  invoke void @_ZNSt12_Vector_baseISt6vectorIN6dealii10FullMatrixIdEESaIS3_EESaIS5_EE13_M_deallocateEPS5_m(%"struct.std::_Vector_base"* %this1, %"class.std::vector.19"* %1, i64 %sub.ptr.div)
          to label %invoke.cont unwind label %lpad, !dbg !9931

invoke.cont:                                      ; preds = %entry
  %_M_impl5 = getelementptr inbounds %"struct.std::_Vector_base", %"struct.std::_Vector_base"* %this1, i32 0, i32 0, !dbg !9932
  call void @_ZNSt12_Vector_baseISt6vectorIN6dealii10FullMatrixIdEESaIS3_EESaIS5_EE12_Vector_implD2Ev(%"struct.std::_Vector_base<std::vector<dealii::FullMatrix<double>, std::allocator<dealii::FullMatrix<double> > >, std::allocator<std::vector<dealii::FullMatrix<double>, std::allocator<dealii::FullMatrix<double> > > > >::_Vector_impl"* %_M_impl5) #4, !dbg !9932
  ret void, !dbg !9933

lpad:                                             ; preds = %entry
  %6 = landingpad { i8*, i32 }
          catch i8* null, !dbg !9932
  %7 = extractvalue { i8*, i32 } %6, 0, !dbg !9932
  store i8* %7, i8** %exn.slot, align 8, !dbg !9932
  %8 = extractvalue { i8*, i32 } %6, 1, !dbg !9932
  store i32 %8, i32* %ehselector.slot, align 4, !dbg !9932
  %_M_impl6 = getelementptr inbounds %"struct.std::_Vector_base", %"struct.std::_Vector_base"* %this1, i32 0, i32 0, !dbg !9932
  call void @_ZNSt12_Vector_baseISt6vectorIN6dealii10FullMatrixIdEESaIS3_EESaIS5_EE12_Vector_implD2Ev(%"struct.std::_Vector_base<std::vector<dealii::FullMatrix<double>, std::allocator<dealii::FullMatrix<double> > >, std::allocator<std::vector<dealii::FullMatrix<double>, std::allocator<dealii::FullMatrix<double> > > > >::_Vector_impl"* %_M_impl6) #4, !dbg !9932
  br label %terminate.handler, !dbg !9932

terminate.handler:                                ; preds = %lpad
  %exn = load i8*, i8** %exn.slot, align 8, !dbg !9932
  call void @__clang_call_terminate(i8* %exn) #13, !dbg !9932
  unreachable, !dbg !9932
}

; Function Attrs: noinline nounwind uwtable
define linkonce_odr dso_local void @_ZNSt16allocator_traitsISaISt6vectorIN6dealii10FullMatrixIdEESaIS3_EEEE37select_on_container_copy_constructionERKS6_(%"class.std::allocator.16"* noalias sret %agg.result, %"class.std::allocator.16"* dereferenceable(1) %__rhs) #1 comdat align 2 !dbg !9934 {
entry:
  %result.ptr = alloca i8*, align 8
  %__rhs.addr = alloca %"class.std::allocator.16"*, align 8
  %0 = bitcast %"class.std::allocator.16"* %agg.result to i8*
  store i8* %0, i8** %result.ptr, align 8
  store %"class.std::allocator.16"* %__rhs, %"class.std::allocator.16"** %__rhs.addr, align 8
  call void @llvm.dbg.declare(metadata %"class.std::allocator.16"** %__rhs.addr, metadata !9935, metadata !DIExpression()), !dbg !9936
  %1 = load %"class.std::allocator.16"*, %"class.std::allocator.16"** %__rhs.addr, align 8, !dbg !9937
  call void @_ZNSaISt6vectorIN6dealii10FullMatrixIdEESaIS2_EEEC2ERKS5_(%"class.std::allocator.16"* %agg.result, %"class.std::allocator.16"* dereferenceable(1) %1) #4, !dbg !9937
  ret void, !dbg !9938
}

; Function Attrs: noinline nounwind uwtable
define linkonce_odr dso_local void @_ZNSaISt6vectorIN6dealii10FullMatrixIdEESaIS2_EEEC2ERKS5_(%"class.std::allocator.16"* %this, %"class.std::allocator.16"* dereferenceable(1) %__a) unnamed_addr #1 comdat align 2 !dbg !9939 {
entry:
  %this.addr = alloca %"class.std::allocator.16"*, align 8
  %__a.addr = alloca %"class.std::allocator.16"*, align 8
  store %"class.std::allocator.16"* %this, %"class.std::allocator.16"** %this.addr, align 8
  call void @llvm.dbg.declare(metadata %"class.std::allocator.16"** %this.addr, metadata !9940, metadata !DIExpression()), !dbg !9941
  store %"class.std::allocator.16"* %__a, %"class.std::allocator.16"** %__a.addr, align 8
  call void @llvm.dbg.declare(metadata %"class.std::allocator.16"** %__a.addr, metadata !9942, metadata !DIExpression()), !dbg !9943
  %this1 = load %"class.std::allocator.16"*, %"class.std::allocator.16"** %this.addr, align 8
  %0 = bitcast %"class.std::allocator.16"* %this1 to %"class.__gnu_cxx::new_allocator.17"*, !dbg !9944
  %1 = load %"class.std::allocator.16"*, %"class.std::allocator.16"** %__a.addr, align 8, !dbg !9945
  %2 = bitcast %"class.std::allocator.16"* %1 to %"class.__gnu_cxx::new_allocator.17"*, !dbg !9945
  call void @_ZN9__gnu_cxx13new_allocatorISt6vectorIN6dealii10FullMatrixIdEESaIS4_EEEC2ERKS7_(%"class.__gnu_cxx::new_allocator.17"* %0, %"class.__gnu_cxx::new_allocator.17"* dereferenceable(1) %2) #4, !dbg !9946
  ret void, !dbg !9947
}

; Function Attrs: noinline nounwind uwtable
define linkonce_odr dso_local void @_ZN9__gnu_cxx13new_allocatorISt6vectorIN6dealii10FullMatrixIdEESaIS4_EEEC2ERKS7_(%"class.__gnu_cxx::new_allocator.17"* %this, %"class.__gnu_cxx::new_allocator.17"* dereferenceable(1) %0) unnamed_addr #1 comdat align 2 !dbg !9948 {
entry:
  %this.addr = alloca %"class.__gnu_cxx::new_allocator.17"*, align 8
  %.addr = alloca %"class.__gnu_cxx::new_allocator.17"*, align 8
  store %"class.__gnu_cxx::new_allocator.17"* %this, %"class.__gnu_cxx::new_allocator.17"** %this.addr, align 8
  call void @llvm.dbg.declare(metadata %"class.__gnu_cxx::new_allocator.17"** %this.addr, metadata !9949, metadata !DIExpression()), !dbg !9951
  store %"class.__gnu_cxx::new_allocator.17"* %0, %"class.__gnu_cxx::new_allocator.17"** %.addr, align 8
  call void @llvm.dbg.declare(metadata %"class.__gnu_cxx::new_allocator.17"** %.addr, metadata !9952, metadata !DIExpression()), !dbg !9953
  %this1 = load %"class.__gnu_cxx::new_allocator.17"*, %"class.__gnu_cxx::new_allocator.17"** %this.addr, align 8
  ret void, !dbg !9954
}

; Function Attrs: noinline nounwind uwtable
define linkonce_odr dso_local void @_ZNSt12_Vector_baseISt6vectorIN6dealii10FullMatrixIdEESaIS3_EESaIS5_EE12_Vector_implC2ERKS6_(%"struct.std::_Vector_base<std::vector<dealii::FullMatrix<double>, std::allocator<dealii::FullMatrix<double> > >, std::allocator<std::vector<dealii::FullMatrix<double>, std::allocator<dealii::FullMatrix<double> > > > >::_Vector_impl"* %this, %"class.std::allocator.16"* dereferenceable(1) %__a) unnamed_addr #1 comdat align 2 !dbg !9955 {
entry:
  %this.addr = alloca %"struct.std::_Vector_base<std::vector<dealii::FullMatrix<double>, std::allocator<dealii::FullMatrix<double> > >, std::allocator<std::vector<dealii::FullMatrix<double>, std::allocator<dealii::FullMatrix<double> > > > >::_Vector_impl"*, align 8
  %__a.addr = alloca %"class.std::allocator.16"*, align 8
  store %"struct.std::_Vector_base<std::vector<dealii::FullMatrix<double>, std::allocator<dealii::FullMatrix<double> > >, std::allocator<std::vector<dealii::FullMatrix<double>, std::allocator<dealii::FullMatrix<double> > > > >::_Vector_impl"* %this, %"struct.std::_Vector_base<std::vector<dealii::FullMatrix<double>, std::allocator<dealii::FullMatrix<double> > >, std::allocator<std::vector<dealii::FullMatrix<double>, std::allocator<dealii::FullMatrix<double> > > > >::_Vector_impl"** %this.addr, align 8
  call void @llvm.dbg.declare(metadata %"struct.std::_Vector_base<std::vector<dealii::FullMatrix<double>, std::allocator<dealii::FullMatrix<double> > >, std::allocator<std::vector<dealii::FullMatrix<double>, std::allocator<dealii::FullMatrix<double> > > > >::_Vector_impl"** %this.addr, metadata !9956, metadata !DIExpression()), !dbg !9958
  store %"class.std::allocator.16"* %__a, %"class.std::allocator.16"** %__a.addr, align 8
  call void @llvm.dbg.declare(metadata %"class.std::allocator.16"** %__a.addr, metadata !9959, metadata !DIExpression()), !dbg !9960
  %this1 = load %"struct.std::_Vector_base<std::vector<dealii::FullMatrix<double>, std::allocator<dealii::FullMatrix<double> > >, std::allocator<std::vector<dealii::FullMatrix<double>, std::allocator<dealii::FullMatrix<double> > > > >::_Vector_impl"*, %"struct.std::_Vector_base<std::vector<dealii::FullMatrix<double>, std::allocator<dealii::FullMatrix<double> > >, std::allocator<std::vector<dealii::FullMatrix<double>, std::allocator<dealii::FullMatrix<double> > > > >::_Vector_impl"** %this.addr, align 8
  %0 = bitcast %"struct.std::_Vector_base<std::vector<dealii::FullMatrix<double>, std::allocator<dealii::FullMatrix<double> > >, std::allocator<std::vector<dealii::FullMatrix<double>, std::allocator<dealii::FullMatrix<double> > > > >::_Vector_impl"* %this1 to %"class.std::allocator.16"*, !dbg !9961
  %1 = load %"class.std::allocator.16"*, %"class.std::allocator.16"** %__a.addr, align 8, !dbg !9962
  call void @_ZNSaISt6vectorIN6dealii10FullMatrixIdEESaIS2_EEEC2ERKS5_(%"class.std::allocator.16"* %0, %"class.std::allocator.16"* dereferenceable(1) %1) #4, !dbg !9963
  %2 = bitcast %"struct.std::_Vector_base<std::vector<dealii::FullMatrix<double>, std::allocator<dealii::FullMatrix<double> > >, std::allocator<std::vector<dealii::FullMatrix<double>, std::allocator<dealii::FullMatrix<double> > > > >::_Vector_impl"* %this1 to %"struct.std::_Vector_base<std::vector<dealii::FullMatrix<double>, std::allocator<dealii::FullMatrix<double> > >, std::allocator<std::vector<dealii::FullMatrix<double>, std::allocator<dealii::FullMatrix<double> > > > >::_Vector_impl_data"*, !dbg !9961
  call void @_ZNSt12_Vector_baseISt6vectorIN6dealii10FullMatrixIdEESaIS3_EESaIS5_EE17_Vector_impl_dataC2Ev(%"struct.std::_Vector_base<std::vector<dealii::FullMatrix<double>, std::allocator<dealii::FullMatrix<double> > >, std::allocator<std::vector<dealii::FullMatrix<double>, std::allocator<dealii::FullMatrix<double> > > > >::_Vector_impl_data"* %2) #4, !dbg !9964
  ret void, !dbg !9965
}

; Function Attrs: noinline uwtable
define linkonce_odr dso_local void @_ZNSt12_Vector_baseISt6vectorIN6dealii10FullMatrixIdEESaIS3_EESaIS5_EE17_M_create_storageEm(%"struct.std::_Vector_base"* %this, i64 %__n) #0 comdat align 2 !dbg !9966 {
entry:
  %this.addr = alloca %"struct.std::_Vector_base"*, align 8
  %__n.addr = alloca i64, align 8
  store %"struct.std::_Vector_base"* %this, %"struct.std::_Vector_base"** %this.addr, align 8
  call void @llvm.dbg.declare(metadata %"struct.std::_Vector_base"** %this.addr, metadata !9967, metadata !DIExpression()), !dbg !9968
  store i64 %__n, i64* %__n.addr, align 8
  call void @llvm.dbg.declare(metadata i64* %__n.addr, metadata !9969, metadata !DIExpression()), !dbg !9970
  %this1 = load %"struct.std::_Vector_base"*, %"struct.std::_Vector_base"** %this.addr, align 8
  %0 = load i64, i64* %__n.addr, align 8, !dbg !9971
  %call = call %"class.std::vector.19"* @_ZNSt12_Vector_baseISt6vectorIN6dealii10FullMatrixIdEESaIS3_EESaIS5_EE11_M_allocateEm(%"struct.std::_Vector_base"* %this1, i64 %0), !dbg !9972
  %_M_impl = getelementptr inbounds %"struct.std::_Vector_base", %"struct.std::_Vector_base"* %this1, i32 0, i32 0, !dbg !9973
  %1 = bitcast %"struct.std::_Vector_base<std::vector<dealii::FullMatrix<double>, std::allocator<dealii::FullMatrix<double> > >, std::allocator<std::vector<dealii::FullMatrix<double>, std::allocator<dealii::FullMatrix<double> > > > >::_Vector_impl"* %_M_impl to %"struct.std::_Vector_base<std::vector<dealii::FullMatrix<double>, std::allocator<dealii::FullMatrix<double> > >, std::allocator<std::vector<dealii::FullMatrix<double>, std::allocator<dealii::FullMatrix<double> > > > >::_Vector_impl_data"*, !dbg !9974
  %_M_start = getelementptr inbounds %"struct.std::_Vector_base<std::vector<dealii::FullMatrix<double>, std::allocator<dealii::FullMatrix<double> > >, std::allocator<std::vector<dealii::FullMatrix<double>, std::allocator<dealii::FullMatrix<double> > > > >::_Vector_impl_data", %"struct.std::_Vector_base<std::vector<dealii::FullMatrix<double>, std::allocator<dealii::FullMatrix<double> > >, std::allocator<std::vector<dealii::FullMatrix<double>, std::allocator<dealii::FullMatrix<double> > > > >::_Vector_impl_data"* %1, i32 0, i32 0, !dbg !9975
  store %"class.std::vector.19"* %call, %"class.std::vector.19"** %_M_start, align 8, !dbg !9976
  %_M_impl2 = getelementptr inbounds %"struct.std::_Vector_base", %"struct.std::_Vector_base"* %this1, i32 0, i32 0, !dbg !9977
  %2 = bitcast %"struct.std::_Vector_base<std::vector<dealii::FullMatrix<double>, std::allocator<dealii::FullMatrix<double> > >, std::allocator<std::vector<dealii::FullMatrix<double>, std::allocator<dealii::FullMatrix<double> > > > >::_Vector_impl"* %_M_impl2 to %"struct.std::_Vector_base<std::vector<dealii::FullMatrix<double>, std::allocator<dealii::FullMatrix<double> > >, std::allocator<std::vector<dealii::FullMatrix<double>, std::allocator<dealii::FullMatrix<double> > > > >::_Vector_impl_data"*, !dbg !9978
  %_M_start3 = getelementptr inbounds %"struct.std::_Vector_base<std::vector<dealii::FullMatrix<double>, std::allocator<dealii::FullMatrix<double> > >, std::allocator<std::vector<dealii::FullMatrix<double>, std::allocator<dealii::FullMatrix<double> > > > >::_Vector_impl_data", %"struct.std::_Vector_base<std::vector<dealii::FullMatrix<double>, std::allocator<dealii::FullMatrix<double> > >, std::allocator<std::vector<dealii::FullMatrix<double>, std::allocator<dealii::FullMatrix<double> > > > >::_Vector_impl_data"* %2, i32 0, i32 0, !dbg !9979
  %3 = load %"class.std::vector.19"*, %"class.std::vector.19"** %_M_start3, align 8, !dbg !9979
  %_M_impl4 = getelementptr inbounds %"struct.std::_Vector_base", %"struct.std::_Vector_base"* %this1, i32 0, i32 0, !dbg !9980
  %4 = bitcast %"struct.std::_Vector_base<std::vector<dealii::FullMatrix<double>, std::allocator<dealii::FullMatrix<double> > >, std::allocator<std::vector<dealii::FullMatrix<double>, std::allocator<dealii::FullMatrix<double> > > > >::_Vector_impl"* %_M_impl4 to %"struct.std::_Vector_base<std::vector<dealii::FullMatrix<double>, std::allocator<dealii::FullMatrix<double> > >, std::allocator<std::vector<dealii::FullMatrix<double>, std::allocator<dealii::FullMatrix<double> > > > >::_Vector_impl_data"*, !dbg !9981
  %_M_finish = getelementptr inbounds %"struct.std::_Vector_base<std::vector<dealii::FullMatrix<double>, std::allocator<dealii::FullMatrix<double> > >, std::allocator<std::vector<dealii::FullMatrix<double>, std::allocator<dealii::FullMatrix<double> > > > >::_Vector_impl_data", %"struct.std::_Vector_base<std::vector<dealii::FullMatrix<double>, std::allocator<dealii::FullMatrix<double> > >, std::allocator<std::vector<dealii::FullMatrix<double>, std::allocator<dealii::FullMatrix<double> > > > >::_Vector_impl_data"* %4, i32 0, i32 1, !dbg !9982
  store %"class.std::vector.19"* %3, %"class.std::vector.19"** %_M_finish, align 8, !dbg !9983
  %_M_impl5 = getelementptr inbounds %"struct.std::_Vector_base", %"struct.std::_Vector_base"* %this1, i32 0, i32 0, !dbg !9984
  %5 = bitcast %"struct.std::_Vector_base<std::vector<dealii::FullMatrix<double>, std::allocator<dealii::FullMatrix<double> > >, std::allocator<std::vector<dealii::FullMatrix<double>, std::allocator<dealii::FullMatrix<double> > > > >::_Vector_impl"* %_M_impl5 to %"struct.std::_Vector_base<std::vector<dealii::FullMatrix<double>, std::allocator<dealii::FullMatrix<double> > >, std::allocator<std::vector<dealii::FullMatrix<double>, std::allocator<dealii::FullMatrix<double> > > > >::_Vector_impl_data"*, !dbg !9985
  %_M_start6 = getelementptr inbounds %"struct.std::_Vector_base<std::vector<dealii::FullMatrix<double>, std::allocator<dealii::FullMatrix<double> > >, std::allocator<std::vector<dealii::FullMatrix<double>, std::allocator<dealii::FullMatrix<double> > > > >::_Vector_impl_data", %"struct.std::_Vector_base<std::vector<dealii::FullMatrix<double>, std::allocator<dealii::FullMatrix<double> > >, std::allocator<std::vector<dealii::FullMatrix<double>, std::allocator<dealii::FullMatrix<double> > > > >::_Vector_impl_data"* %5, i32 0, i32 0, !dbg !9986
  %6 = load %"class.std::vector.19"*, %"class.std::vector.19"** %_M_start6, align 8, !dbg !9986
  %7 = load i64, i64* %__n.addr, align 8, !dbg !9987
  %add.ptr = getelementptr inbounds %"class.std::vector.19", %"class.std::vector.19"* %6, i64 %7, !dbg !9988
  %_M_impl7 = getelementptr inbounds %"struct.std::_Vector_base", %"struct.std::_Vector_base"* %this1, i32 0, i32 0, !dbg !9989
  %8 = bitcast %"struct.std::_Vector_base<std::vector<dealii::FullMatrix<double>, std::allocator<dealii::FullMatrix<double> > >, std::allocator<std::vector<dealii::FullMatrix<double>, std::allocator<dealii::FullMatrix<double> > > > >::_Vector_impl"* %_M_impl7 to %"struct.std::_Vector_base<std::vector<dealii::FullMatrix<double>, std::allocator<dealii::FullMatrix<double> > >, std::allocator<std::vector<dealii::FullMatrix<double>, std::allocator<dealii::FullMatrix<double> > > > >::_Vector_impl_data"*, !dbg !9990
  %_M_end_of_storage = getelementptr inbounds %"struct.std::_Vector_base<std::vector<dealii::FullMatrix<double>, std::allocator<dealii::FullMatrix<double> > >, std::allocator<std::vector<dealii::FullMatrix<double>, std::allocator<dealii::FullMatrix<double> > > > >::_Vector_impl_data", %"struct.std::_Vector_base<std::vector<dealii::FullMatrix<double>, std::allocator<dealii::FullMatrix<double> > >, std::allocator<std::vector<dealii::FullMatrix<double>, std::allocator<dealii::FullMatrix<double> > > > >::_Vector_impl_data"* %8, i32 0, i32 2, !dbg !9991
  store %"class.std::vector.19"* %add.ptr, %"class.std::vector.19"** %_M_end_of_storage, align 8, !dbg !9992
  ret void, !dbg !9993
}

; Function Attrs: noinline nounwind uwtable
define linkonce_odr dso_local void @_ZNSt12_Vector_baseISt6vectorIN6dealii10FullMatrixIdEESaIS3_EESaIS5_EE12_Vector_implD2Ev(%"struct.std::_Vector_base<std::vector<dealii::FullMatrix<double>, std::allocator<dealii::FullMatrix<double> > >, std::allocator<std::vector<dealii::FullMatrix<double>, std::allocator<dealii::FullMatrix<double> > > > >::_Vector_impl"* %this) unnamed_addr #1 comdat align 2 !dbg !9994 {
entry:
  %this.addr = alloca %"struct.std::_Vector_base<std::vector<dealii::FullMatrix<double>, std::allocator<dealii::FullMatrix<double> > >, std::allocator<std::vector<dealii::FullMatrix<double>, std::allocator<dealii::FullMatrix<double> > > > >::_Vector_impl"*, align 8
  store %"struct.std::_Vector_base<std::vector<dealii::FullMatrix<double>, std::allocator<dealii::FullMatrix<double> > >, std::allocator<std::vector<dealii::FullMatrix<double>, std::allocator<dealii::FullMatrix<double> > > > >::_Vector_impl"* %this, %"struct.std::_Vector_base<std::vector<dealii::FullMatrix<double>, std::allocator<dealii::FullMatrix<double> > >, std::allocator<std::vector<dealii::FullMatrix<double>, std::allocator<dealii::FullMatrix<double> > > > >::_Vector_impl"** %this.addr, align 8
  call void @llvm.dbg.declare(metadata %"struct.std::_Vector_base<std::vector<dealii::FullMatrix<double>, std::allocator<dealii::FullMatrix<double> > >, std::allocator<std::vector<dealii::FullMatrix<double>, std::allocator<dealii::FullMatrix<double> > > > >::_Vector_impl"** %this.addr, metadata !9996, metadata !DIExpression()), !dbg !9997
  %this1 = load %"struct.std::_Vector_base<std::vector<dealii::FullMatrix<double>, std::allocator<dealii::FullMatrix<double> > >, std::allocator<std::vector<dealii::FullMatrix<double>, std::allocator<dealii::FullMatrix<double> > > > >::_Vector_impl"*, %"struct.std::_Vector_base<std::vector<dealii::FullMatrix<double>, std::allocator<dealii::FullMatrix<double> > >, std::allocator<std::vector<dealii::FullMatrix<double>, std::allocator<dealii::FullMatrix<double> > > > >::_Vector_impl"** %this.addr, align 8
  %0 = bitcast %"struct.std::_Vector_base<std::vector<dealii::FullMatrix<double>, std::allocator<dealii::FullMatrix<double> > >, std::allocator<std::vector<dealii::FullMatrix<double>, std::allocator<dealii::FullMatrix<double> > > > >::_Vector_impl"* %this1 to %"class.std::allocator.16"*, !dbg !9998
  call void @_ZNSaISt6vectorIN6dealii10FullMatrixIdEESaIS2_EEED2Ev(%"class.std::allocator.16"* %0) #4, !dbg !9998
  ret void, !dbg !10000
}

; Function Attrs: noinline nounwind uwtable
define linkonce_odr dso_local void @_ZNSt12_Vector_baseISt6vectorIN6dealii10FullMatrixIdEESaIS3_EESaIS5_EE17_Vector_impl_dataC2Ev(%"struct.std::_Vector_base<std::vector<dealii::FullMatrix<double>, std::allocator<dealii::FullMatrix<double> > >, std::allocator<std::vector<dealii::FullMatrix<double>, std::allocator<dealii::FullMatrix<double> > > > >::_Vector_impl_data"* %this) unnamed_addr #1 comdat align 2 !dbg !10001 {
entry:
  %this.addr = alloca %"struct.std::_Vector_base<std::vector<dealii::FullMatrix<double>, std::allocator<dealii::FullMatrix<double> > >, std::allocator<std::vector<dealii::FullMatrix<double>, std::allocator<dealii::FullMatrix<double> > > > >::_Vector_impl_data"*, align 8
  store %"struct.std::_Vector_base<std::vector<dealii::FullMatrix<double>, std::allocator<dealii::FullMatrix<double> > >, std::allocator<std::vector<dealii::FullMatrix<double>, std::allocator<dealii::FullMatrix<double> > > > >::_Vector_impl_data"* %this, %"struct.std::_Vector_base<std::vector<dealii::FullMatrix<double>, std::allocator<dealii::FullMatrix<double> > >, std::allocator<std::vector<dealii::FullMatrix<double>, std::allocator<dealii::FullMatrix<double> > > > >::_Vector_impl_data"** %this.addr, align 8
  call void @llvm.dbg.declare(metadata %"struct.std::_Vector_base<std::vector<dealii::FullMatrix<double>, std::allocator<dealii::FullMatrix<double> > >, std::allocator<std::vector<dealii::FullMatrix<double>, std::allocator<dealii::FullMatrix<double> > > > >::_Vector_impl_data"** %this.addr, metadata !10002, metadata !DIExpression()), !dbg !10004
  %this1 = load %"struct.std::_Vector_base<std::vector<dealii::FullMatrix<double>, std::allocator<dealii::FullMatrix<double> > >, std::allocator<std::vector<dealii::FullMatrix<double>, std::allocator<dealii::FullMatrix<double> > > > >::_Vector_impl_data"*, %"struct.std::_Vector_base<std::vector<dealii::FullMatrix<double>, std::allocator<dealii::FullMatrix<double> > >, std::allocator<std::vector<dealii::FullMatrix<double>, std::allocator<dealii::FullMatrix<double> > > > >::_Vector_impl_data"** %this.addr, align 8
  %_M_start = getelementptr inbounds %"struct.std::_Vector_base<std::vector<dealii::FullMatrix<double>, std::allocator<dealii::FullMatrix<double> > >, std::allocator<std::vector<dealii::FullMatrix<double>, std::allocator<dealii::FullMatrix<double> > > > >::_Vector_impl_data", %"struct.std::_Vector_base<std::vector<dealii::FullMatrix<double>, std::allocator<dealii::FullMatrix<double> > >, std::allocator<std::vector<dealii::FullMatrix<double>, std::allocator<dealii::FullMatrix<double> > > > >::_Vector_impl_data"* %this1, i32 0, i32 0, !dbg !10005
  store %"class.std::vector.19"* null, %"class.std::vector.19"** %_M_start, align 8, !dbg !10005
  %_M_finish = getelementptr inbounds %"struct.std::_Vector_base<std::vector<dealii::FullMatrix<double>, std::allocator<dealii::FullMatrix<double> > >, std::allocator<std::vector<dealii::FullMatrix<double>, std::allocator<dealii::FullMatrix<double> > > > >::_Vector_impl_data", %"struct.std::_Vector_base<std::vector<dealii::FullMatrix<double>, std::allocator<dealii::FullMatrix<double> > >, std::allocator<std::vector<dealii::FullMatrix<double>, std::allocator<dealii::FullMatrix<double> > > > >::_Vector_impl_data"* %this1, i32 0, i32 1, !dbg !10006
  store %"class.std::vector.19"* null, %"class.std::vector.19"** %_M_finish, align 8, !dbg !10006
  %_M_end_of_storage = getelementptr inbounds %"struct.std::_Vector_base<std::vector<dealii::FullMatrix<double>, std::allocator<dealii::FullMatrix<double> > >, std::allocator<std::vector<dealii::FullMatrix<double>, std::allocator<dealii::FullMatrix<double> > > > >::_Vector_impl_data", %"struct.std::_Vector_base<std::vector<dealii::FullMatrix<double>, std::allocator<dealii::FullMatrix<double> > >, std::allocator<std::vector<dealii::FullMatrix<double>, std::allocator<dealii::FullMatrix<double> > > > >::_Vector_impl_data"* %this1, i32 0, i32 2, !dbg !10007
  store %"class.std::vector.19"* null, %"class.std::vector.19"** %_M_end_of_storage, align 8, !dbg !10007
  ret void, !dbg !10008
}

; Function Attrs: noinline uwtable
define linkonce_odr dso_local %"class.std::vector.19"* @_ZNSt12_Vector_baseISt6vectorIN6dealii10FullMatrixIdEESaIS3_EESaIS5_EE11_M_allocateEm(%"struct.std::_Vector_base"* %this, i64 %__n) #0 comdat align 2 !dbg !10009 {
entry:
  %this.addr = alloca %"struct.std::_Vector_base"*, align 8
  %__n.addr = alloca i64, align 8
  store %"struct.std::_Vector_base"* %this, %"struct.std::_Vector_base"** %this.addr, align 8
  call void @llvm.dbg.declare(metadata %"struct.std::_Vector_base"** %this.addr, metadata !10010, metadata !DIExpression()), !dbg !10011
  store i64 %__n, i64* %__n.addr, align 8
  call void @llvm.dbg.declare(metadata i64* %__n.addr, metadata !10012, metadata !DIExpression()), !dbg !10013
  %this1 = load %"struct.std::_Vector_base"*, %"struct.std::_Vector_base"** %this.addr, align 8
  %0 = load i64, i64* %__n.addr, align 8, !dbg !10014
  %cmp = icmp ne i64 %0, 0, !dbg !10015
  br i1 %cmp, label %cond.true, label %cond.false, !dbg !10014

cond.true:                                        ; preds = %entry
  %_M_impl = getelementptr inbounds %"struct.std::_Vector_base", %"struct.std::_Vector_base"* %this1, i32 0, i32 0, !dbg !10016
  %1 = bitcast %"struct.std::_Vector_base<std::vector<dealii::FullMatrix<double>, std::allocator<dealii::FullMatrix<double> > >, std::allocator<std::vector<dealii::FullMatrix<double>, std::allocator<dealii::FullMatrix<double> > > > >::_Vector_impl"* %_M_impl to %"class.std::allocator.16"*, !dbg !10016
  %2 = load i64, i64* %__n.addr, align 8, !dbg !10017
  %call = call %"class.std::vector.19"* @_ZNSt16allocator_traitsISaISt6vectorIN6dealii10FullMatrixIdEESaIS3_EEEE8allocateERS6_m(%"class.std::allocator.16"* dereferenceable(1) %1, i64 %2), !dbg !10018
  br label %cond.end, !dbg !10014

cond.false:                                       ; preds = %entry
  br label %cond.end, !dbg !10014

cond.end:                                         ; preds = %cond.false, %cond.true
  %cond = phi %"class.std::vector.19"* [ %call, %cond.true ], [ null, %cond.false ], !dbg !10014
  ret %"class.std::vector.19"* %cond, !dbg !10019
}

; Function Attrs: noinline uwtable
define linkonce_odr dso_local %"class.std::vector.19"* @_ZNSt16allocator_traitsISaISt6vectorIN6dealii10FullMatrixIdEESaIS3_EEEE8allocateERS6_m(%"class.std::allocator.16"* dereferenceable(1) %__a, i64 %__n) #0 comdat align 2 !dbg !10020 {
entry:
  %__a.addr = alloca %"class.std::allocator.16"*, align 8
  %__n.addr = alloca i64, align 8
  store %"class.std::allocator.16"* %__a, %"class.std::allocator.16"** %__a.addr, align 8
  call void @llvm.dbg.declare(metadata %"class.std::allocator.16"** %__a.addr, metadata !10021, metadata !DIExpression()), !dbg !10022
  store i64 %__n, i64* %__n.addr, align 8
  call void @llvm.dbg.declare(metadata i64* %__n.addr, metadata !10023, metadata !DIExpression()), !dbg !10024
  %0 = load %"class.std::allocator.16"*, %"class.std::allocator.16"** %__a.addr, align 8, !dbg !10025
  %1 = bitcast %"class.std::allocator.16"* %0 to %"class.__gnu_cxx::new_allocator.17"*, !dbg !10025
  %2 = load i64, i64* %__n.addr, align 8, !dbg !10026
  %call = call %"class.std::vector.19"* @_ZN9__gnu_cxx13new_allocatorISt6vectorIN6dealii10FullMatrixIdEESaIS4_EEE8allocateEmPKv(%"class.__gnu_cxx::new_allocator.17"* %1, i64 %2, i8* null), !dbg !10027
  ret %"class.std::vector.19"* %call, !dbg !10028
}

; Function Attrs: noinline uwtable
define linkonce_odr dso_local %"class.std::vector.19"* @_ZN9__gnu_cxx13new_allocatorISt6vectorIN6dealii10FullMatrixIdEESaIS4_EEE8allocateEmPKv(%"class.__gnu_cxx::new_allocator.17"* %this, i64 %__n, i8* %0) #0 comdat align 2 !dbg !10029 {
entry:
  %this.addr = alloca %"class.__gnu_cxx::new_allocator.17"*, align 8
  %__n.addr = alloca i64, align 8
  %.addr = alloca i8*, align 8
  store %"class.__gnu_cxx::new_allocator.17"* %this, %"class.__gnu_cxx::new_allocator.17"** %this.addr, align 8
  call void @llvm.dbg.declare(metadata %"class.__gnu_cxx::new_allocator.17"** %this.addr, metadata !10030, metadata !DIExpression()), !dbg !10031
  store i64 %__n, i64* %__n.addr, align 8
  call void @llvm.dbg.declare(metadata i64* %__n.addr, metadata !10032, metadata !DIExpression()), !dbg !10033
  store i8* %0, i8** %.addr, align 8
  call void @llvm.dbg.declare(metadata i8** %.addr, metadata !10034, metadata !DIExpression()), !dbg !10035
  %this1 = load %"class.__gnu_cxx::new_allocator.17"*, %"class.__gnu_cxx::new_allocator.17"** %this.addr, align 8
  %1 = load i64, i64* %__n.addr, align 8, !dbg !10036
  %call = call i64 @_ZNK9__gnu_cxx13new_allocatorISt6vectorIN6dealii10FullMatrixIdEESaIS4_EEE11_M_max_sizeEv(%"class.__gnu_cxx::new_allocator.17"* %this1) #4, !dbg !10038
  %cmp = icmp ugt i64 %1, %call, !dbg !10039
  br i1 %cmp, label %if.then, label %if.end, !dbg !10040

if.then:                                          ; preds = %entry
  call void @_ZSt17__throw_bad_allocv() #14, !dbg !10041
  unreachable, !dbg !10041

if.end:                                           ; preds = %entry
  %2 = load i64, i64* %__n.addr, align 8, !dbg !10042
  %mul = mul i64 %2, 24, !dbg !10043
  %call2 = call i8* @_Znwm(i64 %mul), !dbg !10044
  %3 = bitcast i8* %call2 to %"class.std::vector.19"*, !dbg !10045
  ret %"class.std::vector.19"* %3, !dbg !10046
}

; Function Attrs: noinline nounwind uwtable
define linkonce_odr dso_local i64 @_ZNK9__gnu_cxx13new_allocatorISt6vectorIN6dealii10FullMatrixIdEESaIS4_EEE11_M_max_sizeEv(%"class.__gnu_cxx::new_allocator.17"* %this) #1 comdat align 2 !dbg !10047 {
entry:
  %this.addr = alloca %"class.__gnu_cxx::new_allocator.17"*, align 8
  store %"class.__gnu_cxx::new_allocator.17"* %this, %"class.__gnu_cxx::new_allocator.17"** %this.addr, align 8
  call void @llvm.dbg.declare(metadata %"class.__gnu_cxx::new_allocator.17"** %this.addr, metadata !10048, metadata !DIExpression()), !dbg !10050
  %this1 = load %"class.__gnu_cxx::new_allocator.17"*, %"class.__gnu_cxx::new_allocator.17"** %this.addr, align 8
  ret i64 384307168202282325, !dbg !10051
}

; Function Attrs: noreturn
declare dso_local void @_ZSt17__throw_bad_allocv() #11

; Function Attrs: noinline nounwind uwtable
define linkonce_odr dso_local void @_ZN9__gnu_cxx13new_allocatorISt6vectorIN6dealii10FullMatrixIdEESaIS4_EEED2Ev(%"class.__gnu_cxx::new_allocator.17"* %this) unnamed_addr #1 comdat align 2 !dbg !10052 {
entry:
  %this.addr = alloca %"class.__gnu_cxx::new_allocator.17"*, align 8
  store %"class.__gnu_cxx::new_allocator.17"* %this, %"class.__gnu_cxx::new_allocator.17"** %this.addr, align 8
  call void @llvm.dbg.declare(metadata %"class.__gnu_cxx::new_allocator.17"** %this.addr, metadata !10053, metadata !DIExpression()), !dbg !10054
  %this1 = load %"class.__gnu_cxx::new_allocator.17"*, %"class.__gnu_cxx::new_allocator.17"** %this.addr, align 8
  ret void, !dbg !10055
}

; Function Attrs: noinline uwtable
define linkonce_odr dso_local %"class.std::vector.19"* @_ZSt18uninitialized_copyIN9__gnu_cxx17__normal_iteratorIPKSt6vectorIN6dealii10FullMatrixIdEESaIS5_EES2_IS7_SaIS7_EEEEPS7_ET0_T_SF_SE_(%"class.std::vector.19"* %__first.coerce, %"class.std::vector.19"* %__last.coerce, %"class.std::vector.19"* %__result) #0 comdat !dbg !10056 {
entry:
  %__first = alloca %"class.__gnu_cxx::__normal_iterator", align 8
  %__last = alloca %"class.__gnu_cxx::__normal_iterator", align 8
  %__result.addr = alloca %"class.std::vector.19"*, align 8
  %__assignable = alloca i8, align 1
  %agg.tmp = alloca %"class.__gnu_cxx::__normal_iterator", align 8
  %agg.tmp2 = alloca %"class.__gnu_cxx::__normal_iterator", align 8
  %coerce.dive = getelementptr inbounds %"class.__gnu_cxx::__normal_iterator", %"class.__gnu_cxx::__normal_iterator"* %__first, i32 0, i32 0
  store %"class.std::vector.19"* %__first.coerce, %"class.std::vector.19"** %coerce.dive, align 8
  %coerce.dive1 = getelementptr inbounds %"class.__gnu_cxx::__normal_iterator", %"class.__gnu_cxx::__normal_iterator"* %__last, i32 0, i32 0
  store %"class.std::vector.19"* %__last.coerce, %"class.std::vector.19"** %coerce.dive1, align 8
  call void @llvm.dbg.declare(metadata %"class.__gnu_cxx::__normal_iterator"* %__first, metadata !10060, metadata !DIExpression()), !dbg !10061
  call void @llvm.dbg.declare(metadata %"class.__gnu_cxx::__normal_iterator"* %__last, metadata !10062, metadata !DIExpression()), !dbg !10063
  store %"class.std::vector.19"* %__result, %"class.std::vector.19"** %__result.addr, align 8
  call void @llvm.dbg.declare(metadata %"class.std::vector.19"** %__result.addr, metadata !10064, metadata !DIExpression()), !dbg !10065
  call void @llvm.dbg.declare(metadata i8* %__assignable, metadata !10066, metadata !DIExpression()), !dbg !10067
  store i8 1, i8* %__assignable, align 1, !dbg !10067
  %0 = bitcast %"class.__gnu_cxx::__normal_iterator"* %agg.tmp to i8*, !dbg !10068
  %1 = bitcast %"class.__gnu_cxx::__normal_iterator"* %__first to i8*, !dbg !10068
  call void @llvm.memcpy.p0i8.p0i8.i64(i8* align 8 %0, i8* align 8 %1, i64 8, i1 false), !dbg !10068
  %2 = bitcast %"class.__gnu_cxx::__normal_iterator"* %agg.tmp2 to i8*, !dbg !10069
  %3 = bitcast %"class.__gnu_cxx::__normal_iterator"* %__last to i8*, !dbg !10069
  call void @llvm.memcpy.p0i8.p0i8.i64(i8* align 8 %2, i8* align 8 %3, i64 8, i1 false), !dbg !10069
  %4 = load %"class.std::vector.19"*, %"class.std::vector.19"** %__result.addr, align 8, !dbg !10070
  %coerce.dive3 = getelementptr inbounds %"class.__gnu_cxx::__normal_iterator", %"class.__gnu_cxx::__normal_iterator"* %agg.tmp, i32 0, i32 0, !dbg !10071
  %5 = load %"class.std::vector.19"*, %"class.std::vector.19"** %coerce.dive3, align 8, !dbg !10071
  %coerce.dive4 = getelementptr inbounds %"class.__gnu_cxx::__normal_iterator", %"class.__gnu_cxx::__normal_iterator"* %agg.tmp2, i32 0, i32 0, !dbg !10071
  %6 = load %"class.std::vector.19"*, %"class.std::vector.19"** %coerce.dive4, align 8, !dbg !10071
  %call = call %"class.std::vector.19"* @_ZNSt20__uninitialized_copyILb0EE13__uninit_copyIN9__gnu_cxx17__normal_iteratorIPKSt6vectorIN6dealii10FullMatrixIdEESaIS7_EES4_IS9_SaIS9_EEEEPS9_EET0_T_SH_SG_(%"class.std::vector.19"* %5, %"class.std::vector.19"* %6, %"class.std::vector.19"* %4), !dbg !10071
  ret %"class.std::vector.19"* %call, !dbg !10072
}

; Function Attrs: noinline uwtable
define linkonce_odr dso_local %"class.std::vector.19"* @_ZNSt20__uninitialized_copyILb0EE13__uninit_copyIN9__gnu_cxx17__normal_iteratorIPKSt6vectorIN6dealii10FullMatrixIdEESaIS7_EES4_IS9_SaIS9_EEEEPS9_EET0_T_SH_SG_(%"class.std::vector.19"* %__first.coerce, %"class.std::vector.19"* %__last.coerce, %"class.std::vector.19"* %__result) #0 comdat align 2 personality i8* bitcast (i32 (...)* @__gxx_personality_v0 to i8*) !dbg !10073 {
entry:
  %__first = alloca %"class.__gnu_cxx::__normal_iterator", align 8
  %__last = alloca %"class.__gnu_cxx::__normal_iterator", align 8
  %__result.addr = alloca %"class.std::vector.19"*, align 8
  %__cur = alloca %"class.std::vector.19"*, align 8
  %exn.slot = alloca i8*
  %ehselector.slot = alloca i32
  %coerce.dive = getelementptr inbounds %"class.__gnu_cxx::__normal_iterator", %"class.__gnu_cxx::__normal_iterator"* %__first, i32 0, i32 0
  store %"class.std::vector.19"* %__first.coerce, %"class.std::vector.19"** %coerce.dive, align 8
  %coerce.dive1 = getelementptr inbounds %"class.__gnu_cxx::__normal_iterator", %"class.__gnu_cxx::__normal_iterator"* %__last, i32 0, i32 0
  store %"class.std::vector.19"* %__last.coerce, %"class.std::vector.19"** %coerce.dive1, align 8
  call void @llvm.dbg.declare(metadata %"class.__gnu_cxx::__normal_iterator"* %__first, metadata !10078, metadata !DIExpression()), !dbg !10079
  call void @llvm.dbg.declare(metadata %"class.__gnu_cxx::__normal_iterator"* %__last, metadata !10080, metadata !DIExpression()), !dbg !10081
  store %"class.std::vector.19"* %__result, %"class.std::vector.19"** %__result.addr, align 8
  call void @llvm.dbg.declare(metadata %"class.std::vector.19"** %__result.addr, metadata !10082, metadata !DIExpression()), !dbg !10083
  call void @llvm.dbg.declare(metadata %"class.std::vector.19"** %__cur, metadata !10084, metadata !DIExpression()), !dbg !10085
  %0 = load %"class.std::vector.19"*, %"class.std::vector.19"** %__result.addr, align 8, !dbg !10086
  store %"class.std::vector.19"* %0, %"class.std::vector.19"** %__cur, align 8, !dbg !10085
  br label %for.cond, !dbg !10087

for.cond:                                         ; preds = %for.inc, %entry
  %call = call zeroext i1 @_ZN9__gnu_cxxneIPKSt6vectorIN6dealii10FullMatrixIdEESaIS4_EES1_IS6_SaIS6_EEEEbRKNS_17__normal_iteratorIT_T0_EESG_(%"class.__gnu_cxx::__normal_iterator"* dereferenceable(8) %__first, %"class.__gnu_cxx::__normal_iterator"* dereferenceable(8) %__last) #4, !dbg !10089
  br i1 %call, label %for.body, label %for.end, !dbg !10092

for.body:                                         ; preds = %for.cond
  %1 = load %"class.std::vector.19"*, %"class.std::vector.19"** %__cur, align 8, !dbg !10093
  %call2 = call %"class.std::vector.19"* @_ZSt11__addressofISt6vectorIN6dealii10FullMatrixIdEESaIS3_EEEPT_RS6_(%"class.std::vector.19"* dereferenceable(24) %1) #4, !dbg !10094
  %call3 = call dereferenceable(24) %"class.std::vector.19"* @_ZNK9__gnu_cxx17__normal_iteratorIPKSt6vectorIN6dealii10FullMatrixIdEESaIS4_EES1_IS6_SaIS6_EEEdeEv(%"class.__gnu_cxx::__normal_iterator"* %__first) #4, !dbg !10095
  invoke void @_ZSt10_ConstructISt6vectorIN6dealii10FullMatrixIdEESaIS3_EEJRKS5_EEvPT_DpOT0_(%"class.std::vector.19"* %call2, %"class.std::vector.19"* dereferenceable(24) %call3)
          to label %invoke.cont unwind label %lpad, !dbg !10096

invoke.cont:                                      ; preds = %for.body
  br label %for.inc, !dbg !10096

for.inc:                                          ; preds = %invoke.cont
  %call4 = call dereferenceable(8) %"class.__gnu_cxx::__normal_iterator"* @_ZN9__gnu_cxx17__normal_iteratorIPKSt6vectorIN6dealii10FullMatrixIdEESaIS4_EES1_IS6_SaIS6_EEEppEv(%"class.__gnu_cxx::__normal_iterator"* %__first) #4, !dbg !10097
  %2 = load %"class.std::vector.19"*, %"class.std::vector.19"** %__cur, align 8, !dbg !10098
  %incdec.ptr = getelementptr inbounds %"class.std::vector.19", %"class.std::vector.19"* %2, i32 1, !dbg !10098
  store %"class.std::vector.19"* %incdec.ptr, %"class.std::vector.19"** %__cur, align 8, !dbg !10098
  br label %for.cond, !dbg !10099, !llvm.loop !10100

lpad:                                             ; preds = %for.body
  %3 = landingpad { i8*, i32 }
          catch i8* null, !dbg !10102
  %4 = extractvalue { i8*, i32 } %3, 0, !dbg !10102
  store i8* %4, i8** %exn.slot, align 8, !dbg !10102
  %5 = extractvalue { i8*, i32 } %3, 1, !dbg !10102
  store i32 %5, i32* %ehselector.slot, align 4, !dbg !10102
  br label %catch, !dbg !10102

catch:                                            ; preds = %lpad
  %exn = load i8*, i8** %exn.slot, align 8, !dbg !10103
  %6 = call i8* @__cxa_begin_catch(i8* %exn) #4, !dbg !10103
  %7 = load %"class.std::vector.19"*, %"class.std::vector.19"** %__result.addr, align 8, !dbg !10104
  %8 = load %"class.std::vector.19"*, %"class.std::vector.19"** %__cur, align 8, !dbg !10106
  invoke void @_ZSt8_DestroyIPSt6vectorIN6dealii10FullMatrixIdEESaIS3_EEEvT_S7_(%"class.std::vector.19"* %7, %"class.std::vector.19"* %8)
          to label %invoke.cont6 unwind label %lpad5, !dbg !10107

invoke.cont6:                                     ; preds = %catch
  invoke void @__cxa_rethrow() #14
          to label %unreachable unwind label %lpad5, !dbg !10108

for.end:                                          ; preds = %for.cond
  %9 = load %"class.std::vector.19"*, %"class.std::vector.19"** %__cur, align 8, !dbg !10109
  ret %"class.std::vector.19"* %9, !dbg !10110

lpad5:                                            ; preds = %invoke.cont6, %catch
  %10 = landingpad { i8*, i32 }
          cleanup, !dbg !10111
  %11 = extractvalue { i8*, i32 } %10, 0, !dbg !10111
  store i8* %11, i8** %exn.slot, align 8, !dbg !10111
  %12 = extractvalue { i8*, i32 } %10, 1, !dbg !10111
  store i32 %12, i32* %ehselector.slot, align 4, !dbg !10111
  invoke void @__cxa_end_catch()
          to label %invoke.cont7 unwind label %terminate.lpad, !dbg !10112

invoke.cont7:                                     ; preds = %lpad5
  br label %eh.resume, !dbg !10112

try.cont:                                         ; No predecessors!
  call void @llvm.trap(), !dbg !10112
  unreachable, !dbg !10112

eh.resume:                                        ; preds = %invoke.cont7
  %exn8 = load i8*, i8** %exn.slot, align 8, !dbg !10112
  %sel = load i32, i32* %ehselector.slot, align 4, !dbg !10112
  %lpad.val = insertvalue { i8*, i32 } undef, i8* %exn8, 0, !dbg !10112
  %lpad.val9 = insertvalue { i8*, i32 } %lpad.val, i32 %sel, 1, !dbg !10112
  resume { i8*, i32 } %lpad.val9, !dbg !10112

terminate.lpad:                                   ; preds = %lpad5
  %13 = landingpad { i8*, i32 }
          catch i8* null, !dbg !10112
  %14 = extractvalue { i8*, i32 } %13, 0, !dbg !10112
  call void @__clang_call_terminate(i8* %14) #13, !dbg !10112
  unreachable, !dbg !10112

unreachable:                                      ; preds = %invoke.cont6
  unreachable
}

; Function Attrs: noinline nounwind uwtable
define linkonce_odr dso_local zeroext i1 @_ZN9__gnu_cxxneIPKSt6vectorIN6dealii10FullMatrixIdEESaIS4_EES1_IS6_SaIS6_EEEEbRKNS_17__normal_iteratorIT_T0_EESG_(%"class.__gnu_cxx::__normal_iterator"* dereferenceable(8) %__lhs, %"class.__gnu_cxx::__normal_iterator"* dereferenceable(8) %__rhs) #1 comdat !dbg !10113 {
entry:
  %__lhs.addr = alloca %"class.__gnu_cxx::__normal_iterator"*, align 8
  %__rhs.addr = alloca %"class.__gnu_cxx::__normal_iterator"*, align 8
  store %"class.__gnu_cxx::__normal_iterator"* %__lhs, %"class.__gnu_cxx::__normal_iterator"** %__lhs.addr, align 8
  call void @llvm.dbg.declare(metadata %"class.__gnu_cxx::__normal_iterator"** %__lhs.addr, metadata !10117, metadata !DIExpression()), !dbg !10118
  store %"class.__gnu_cxx::__normal_iterator"* %__rhs, %"class.__gnu_cxx::__normal_iterator"** %__rhs.addr, align 8
  call void @llvm.dbg.declare(metadata %"class.__gnu_cxx::__normal_iterator"** %__rhs.addr, metadata !10119, metadata !DIExpression()), !dbg !10120
  %0 = load %"class.__gnu_cxx::__normal_iterator"*, %"class.__gnu_cxx::__normal_iterator"** %__lhs.addr, align 8, !dbg !10121
  %call = call dereferenceable(8) %"class.std::vector.19"** @_ZNK9__gnu_cxx17__normal_iteratorIPKSt6vectorIN6dealii10FullMatrixIdEESaIS4_EES1_IS6_SaIS6_EEE4baseEv(%"class.__gnu_cxx::__normal_iterator"* %0) #4, !dbg !10122
  %1 = load %"class.std::vector.19"*, %"class.std::vector.19"** %call, align 8, !dbg !10122
  %2 = load %"class.__gnu_cxx::__normal_iterator"*, %"class.__gnu_cxx::__normal_iterator"** %__rhs.addr, align 8, !dbg !10123
  %call1 = call dereferenceable(8) %"class.std::vector.19"** @_ZNK9__gnu_cxx17__normal_iteratorIPKSt6vectorIN6dealii10FullMatrixIdEESaIS4_EES1_IS6_SaIS6_EEE4baseEv(%"class.__gnu_cxx::__normal_iterator"* %2) #4, !dbg !10124
  %3 = load %"class.std::vector.19"*, %"class.std::vector.19"** %call1, align 8, !dbg !10124
  %cmp = icmp ne %"class.std::vector.19"* %1, %3, !dbg !10125
  ret i1 %cmp, !dbg !10126
}

; Function Attrs: noinline uwtable
define linkonce_odr dso_local void @_ZSt10_ConstructISt6vectorIN6dealii10FullMatrixIdEESaIS3_EEJRKS5_EEvPT_DpOT0_(%"class.std::vector.19"* %__p, %"class.std::vector.19"* dereferenceable(24) %__args) #0 comdat !dbg !10127 {
entry:
  %__p.addr = alloca %"class.std::vector.19"*, align 8
  %__args.addr = alloca %"class.std::vector.19"*, align 8
  store %"class.std::vector.19"* %__p, %"class.std::vector.19"** %__p.addr, align 8
  call void @llvm.dbg.declare(metadata %"class.std::vector.19"** %__p.addr, metadata !10135, metadata !DIExpression()), !dbg !10136
  store %"class.std::vector.19"* %__args, %"class.std::vector.19"** %__args.addr, align 8
  call void @llvm.dbg.declare(metadata %"class.std::vector.19"** %__args.addr, metadata !10137, metadata !DIExpression()), !dbg !10138
  %0 = load %"class.std::vector.19"*, %"class.std::vector.19"** %__p.addr, align 8, !dbg !10139
  %1 = bitcast %"class.std::vector.19"* %0 to i8*, !dbg !10139
  %2 = bitcast i8* %1 to %"class.std::vector.19"*, !dbg !10140
  %3 = load %"class.std::vector.19"*, %"class.std::vector.19"** %__args.addr, align 8, !dbg !10141
  %call = call dereferenceable(24) %"class.std::vector.19"* @_ZSt7forwardIRKSt6vectorIN6dealii10FullMatrixIdEESaIS3_EEEOT_RNSt16remove_referenceIS8_E4typeE(%"class.std::vector.19"* dereferenceable(24) %3) #4, !dbg !10142
  call void @_ZNSt6vectorIN6dealii10FullMatrixIdEESaIS2_EEC2ERKS4_(%"class.std::vector.19"* %2, %"class.std::vector.19"* dereferenceable(24) %call), !dbg !10143
  ret void, !dbg !10144
}

; Function Attrs: noinline nounwind uwtable
define linkonce_odr dso_local %"class.std::vector.19"* @_ZSt11__addressofISt6vectorIN6dealii10FullMatrixIdEESaIS3_EEEPT_RS6_(%"class.std::vector.19"* dereferenceable(24) %__r) #1 comdat !dbg !10145 {
entry:
  %__r.addr = alloca %"class.std::vector.19"*, align 8
  store %"class.std::vector.19"* %__r, %"class.std::vector.19"** %__r.addr, align 8
  call void @llvm.dbg.declare(metadata %"class.std::vector.19"** %__r.addr, metadata !10149, metadata !DIExpression()), !dbg !10150
  %0 = load %"class.std::vector.19"*, %"class.std::vector.19"** %__r.addr, align 8, !dbg !10151
  ret %"class.std::vector.19"* %0, !dbg !10152
}

; Function Attrs: noinline nounwind uwtable
define linkonce_odr dso_local dereferenceable(24) %"class.std::vector.19"* @_ZNK9__gnu_cxx17__normal_iteratorIPKSt6vectorIN6dealii10FullMatrixIdEESaIS4_EES1_IS6_SaIS6_EEEdeEv(%"class.__gnu_cxx::__normal_iterator"* %this) #1 comdat align 2 !dbg !10153 {
entry:
  %this.addr = alloca %"class.__gnu_cxx::__normal_iterator"*, align 8
  store %"class.__gnu_cxx::__normal_iterator"* %this, %"class.__gnu_cxx::__normal_iterator"** %this.addr, align 8
  call void @llvm.dbg.declare(metadata %"class.__gnu_cxx::__normal_iterator"** %this.addr, metadata !10154, metadata !DIExpression()), !dbg !10156
  %this1 = load %"class.__gnu_cxx::__normal_iterator"*, %"class.__gnu_cxx::__normal_iterator"** %this.addr, align 8
  %_M_current = getelementptr inbounds %"class.__gnu_cxx::__normal_iterator", %"class.__gnu_cxx::__normal_iterator"* %this1, i32 0, i32 0, !dbg !10157
  %0 = load %"class.std::vector.19"*, %"class.std::vector.19"** %_M_current, align 8, !dbg !10157
  ret %"class.std::vector.19"* %0, !dbg !10158
}

; Function Attrs: noinline nounwind uwtable
define linkonce_odr dso_local dereferenceable(8) %"class.__gnu_cxx::__normal_iterator"* @_ZN9__gnu_cxx17__normal_iteratorIPKSt6vectorIN6dealii10FullMatrixIdEESaIS4_EES1_IS6_SaIS6_EEEppEv(%"class.__gnu_cxx::__normal_iterator"* %this) #1 comdat align 2 !dbg !10159 {
entry:
  %this.addr = alloca %"class.__gnu_cxx::__normal_iterator"*, align 8
  store %"class.__gnu_cxx::__normal_iterator"* %this, %"class.__gnu_cxx::__normal_iterator"** %this.addr, align 8
  call void @llvm.dbg.declare(metadata %"class.__gnu_cxx::__normal_iterator"** %this.addr, metadata !10160, metadata !DIExpression()), !dbg !10162
  %this1 = load %"class.__gnu_cxx::__normal_iterator"*, %"class.__gnu_cxx::__normal_iterator"** %this.addr, align 8
  %_M_current = getelementptr inbounds %"class.__gnu_cxx::__normal_iterator", %"class.__gnu_cxx::__normal_iterator"* %this1, i32 0, i32 0, !dbg !10163
  %0 = load %"class.std::vector.19"*, %"class.std::vector.19"** %_M_current, align 8, !dbg !10164
  %incdec.ptr = getelementptr inbounds %"class.std::vector.19", %"class.std::vector.19"* %0, i32 1, !dbg !10164
  store %"class.std::vector.19"* %incdec.ptr, %"class.std::vector.19"** %_M_current, align 8, !dbg !10164
  ret %"class.__gnu_cxx::__normal_iterator"* %this1, !dbg !10165
}

declare dso_local i8* @__cxa_begin_catch(i8*)

; Function Attrs: noinline uwtable
define linkonce_odr dso_local void @_ZSt8_DestroyIPSt6vectorIN6dealii10FullMatrixIdEESaIS3_EEEvT_S7_(%"class.std::vector.19"* %__first, %"class.std::vector.19"* %__last) #0 comdat !dbg !10166 {
entry:
  %__first.addr = alloca %"class.std::vector.19"*, align 8
  %__last.addr = alloca %"class.std::vector.19"*, align 8
  store %"class.std::vector.19"* %__first, %"class.std::vector.19"** %__first.addr, align 8
  call void @llvm.dbg.declare(metadata %"class.std::vector.19"** %__first.addr, metadata !10170, metadata !DIExpression()), !dbg !10171
  store %"class.std::vector.19"* %__last, %"class.std::vector.19"** %__last.addr, align 8
  call void @llvm.dbg.declare(metadata %"class.std::vector.19"** %__last.addr, metadata !10172, metadata !DIExpression()), !dbg !10173
  %0 = load %"class.std::vector.19"*, %"class.std::vector.19"** %__first.addr, align 8, !dbg !10174
  %1 = load %"class.std::vector.19"*, %"class.std::vector.19"** %__last.addr, align 8, !dbg !10175
  call void @_ZNSt12_Destroy_auxILb0EE9__destroyIPSt6vectorIN6dealii10FullMatrixIdEESaIS5_EEEEvT_S9_(%"class.std::vector.19"* %0, %"class.std::vector.19"* %1), !dbg !10176
  ret void, !dbg !10177
}

declare dso_local void @__cxa_rethrow()

declare dso_local void @__cxa_end_catch()

; Function Attrs: noinline noreturn nounwind
define linkonce_odr hidden void @__clang_call_terminate(i8* %0) #12 comdat {
  %2 = call i8* @__cxa_begin_catch(i8* %0) #4
  call void @_ZSt9terminatev() #13
  unreachable
}

declare dso_local void @_ZSt9terminatev()

; Function Attrs: noinline nounwind uwtable
define linkonce_odr dso_local dereferenceable(8) %"class.std::vector.19"** @_ZNK9__gnu_cxx17__normal_iteratorIPKSt6vectorIN6dealii10FullMatrixIdEESaIS4_EES1_IS6_SaIS6_EEE4baseEv(%"class.__gnu_cxx::__normal_iterator"* %this) #1 comdat align 2 !dbg !10178 {
entry:
  %this.addr = alloca %"class.__gnu_cxx::__normal_iterator"*, align 8
  store %"class.__gnu_cxx::__normal_iterator"* %this, %"class.__gnu_cxx::__normal_iterator"** %this.addr, align 8
  call void @llvm.dbg.declare(metadata %"class.__gnu_cxx::__normal_iterator"** %this.addr, metadata !10179, metadata !DIExpression()), !dbg !10180
  %this1 = load %"class.__gnu_cxx::__normal_iterator"*, %"class.__gnu_cxx::__normal_iterator"** %this.addr, align 8
  %_M_current = getelementptr inbounds %"class.__gnu_cxx::__normal_iterator", %"class.__gnu_cxx::__normal_iterator"* %this1, i32 0, i32 0, !dbg !10181
  ret %"class.std::vector.19"** %_M_current, !dbg !10182
}

; Function Attrs: noinline nounwind uwtable
define linkonce_odr dso_local dereferenceable(24) %"class.std::vector.19"* @_ZSt7forwardIRKSt6vectorIN6dealii10FullMatrixIdEESaIS3_EEEOT_RNSt16remove_referenceIS8_E4typeE(%"class.std::vector.19"* dereferenceable(24) %__t) #1 comdat !dbg !10183 {
entry:
  %__t.addr = alloca %"class.std::vector.19"*, align 8
  store %"class.std::vector.19"* %__t, %"class.std::vector.19"** %__t.addr, align 8
  call void @llvm.dbg.declare(metadata %"class.std::vector.19"** %__t.addr, metadata !10191, metadata !DIExpression()), !dbg !10192
  %0 = load %"class.std::vector.19"*, %"class.std::vector.19"** %__t.addr, align 8, !dbg !10193
  ret %"class.std::vector.19"* %0, !dbg !10194
}

; Function Attrs: noinline uwtable
define linkonce_odr dso_local void @_ZNSt6vectorIN6dealii10FullMatrixIdEESaIS2_EEC2ERKS4_(%"class.std::vector.19"* %this, %"class.std::vector.19"* dereferenceable(24) %__x) unnamed_addr #0 comdat align 2 personality i8* bitcast (i32 (...)* @__gxx_personality_v0 to i8*) !dbg !10195 {
entry:
  %this.addr = alloca %"class.std::vector.19"*, align 8
  %__x.addr = alloca %"class.std::vector.19"*, align 8
  %ref.tmp = alloca %"class.std::allocator.88", align 1
  %exn.slot = alloca i8*
  %ehselector.slot = alloca i32
  %agg.tmp = alloca %"class.__gnu_cxx::__normal_iterator.91", align 8
  %agg.tmp4 = alloca %"class.__gnu_cxx::__normal_iterator.91", align 8
  store %"class.std::vector.19"* %this, %"class.std::vector.19"** %this.addr, align 8
  call void @llvm.dbg.declare(metadata %"class.std::vector.19"** %this.addr, metadata !10196, metadata !DIExpression()), !dbg !10197
  store %"class.std::vector.19"* %__x, %"class.std::vector.19"** %__x.addr, align 8
  call void @llvm.dbg.declare(metadata %"class.std::vector.19"** %__x.addr, metadata !10198, metadata !DIExpression()), !dbg !10199
  %this1 = load %"class.std::vector.19"*, %"class.std::vector.19"** %this.addr, align 8
  %0 = bitcast %"class.std::vector.19"* %this1 to %"struct.std::_Vector_base.87"*, !dbg !10200
  %1 = load %"class.std::vector.19"*, %"class.std::vector.19"** %__x.addr, align 8, !dbg !10201
  %call = call i64 @_ZNKSt6vectorIN6dealii10FullMatrixIdEESaIS2_EE4sizeEv(%"class.std::vector.19"* %1) #4, !dbg !10202
  %2 = load %"class.std::vector.19"*, %"class.std::vector.19"** %__x.addr, align 8, !dbg !10203
  %3 = bitcast %"class.std::vector.19"* %2 to %"struct.std::_Vector_base.87"*, !dbg !10203
  %call2 = call dereferenceable(1) %"class.std::allocator.88"* @_ZNKSt12_Vector_baseIN6dealii10FullMatrixIdEESaIS2_EE19_M_get_Tp_allocatorEv(%"struct.std::_Vector_base.87"* %3) #4, !dbg !10204
  call void @_ZN9__gnu_cxx14__alloc_traitsISaIN6dealii10FullMatrixIdEEES3_E17_S_select_on_copyERKS4_(%"class.std::allocator.88"* sret %ref.tmp, %"class.std::allocator.88"* dereferenceable(1) %call2), !dbg !10205
  invoke void @_ZNSt12_Vector_baseIN6dealii10FullMatrixIdEESaIS2_EEC2EmRKS3_(%"struct.std::_Vector_base.87"* %0, i64 %call, %"class.std::allocator.88"* dereferenceable(1) %ref.tmp)
          to label %invoke.cont unwind label %lpad, !dbg !10206

invoke.cont:                                      ; preds = %entry
  call void @_ZNSaIN6dealii10FullMatrixIdEEED2Ev(%"class.std::allocator.88"* %ref.tmp) #4, !dbg !10206
  %4 = load %"class.std::vector.19"*, %"class.std::vector.19"** %__x.addr, align 8, !dbg !10207
  %call3 = call %"class.dealii::FullMatrix"* @_ZNKSt6vectorIN6dealii10FullMatrixIdEESaIS2_EE5beginEv(%"class.std::vector.19"* %4) #4, !dbg !10209
  %coerce.dive = getelementptr inbounds %"class.__gnu_cxx::__normal_iterator.91", %"class.__gnu_cxx::__normal_iterator.91"* %agg.tmp, i32 0, i32 0, !dbg !10209
  store %"class.dealii::FullMatrix"* %call3, %"class.dealii::FullMatrix"** %coerce.dive, align 8, !dbg !10209
  %5 = load %"class.std::vector.19"*, %"class.std::vector.19"** %__x.addr, align 8, !dbg !10210
  %call5 = call %"class.dealii::FullMatrix"* @_ZNKSt6vectorIN6dealii10FullMatrixIdEESaIS2_EE3endEv(%"class.std::vector.19"* %5) #4, !dbg !10211
  %coerce.dive6 = getelementptr inbounds %"class.__gnu_cxx::__normal_iterator.91", %"class.__gnu_cxx::__normal_iterator.91"* %agg.tmp4, i32 0, i32 0, !dbg !10211
  store %"class.dealii::FullMatrix"* %call5, %"class.dealii::FullMatrix"** %coerce.dive6, align 8, !dbg !10211
  %6 = bitcast %"class.std::vector.19"* %this1 to %"struct.std::_Vector_base.87"*, !dbg !10212
  %_M_impl = getelementptr inbounds %"struct.std::_Vector_base.87", %"struct.std::_Vector_base.87"* %6, i32 0, i32 0, !dbg !10212
  %7 = bitcast %"struct.std::_Vector_base<dealii::FullMatrix<double>, std::allocator<dealii::FullMatrix<double> > >::_Vector_impl"* %_M_impl to %"struct.std::_Vector_base<dealii::FullMatrix<double>, std::allocator<dealii::FullMatrix<double> > >::_Vector_impl_data"*, !dbg !10213
  %_M_start = getelementptr inbounds %"struct.std::_Vector_base<dealii::FullMatrix<double>, std::allocator<dealii::FullMatrix<double> > >::_Vector_impl_data", %"struct.std::_Vector_base<dealii::FullMatrix<double>, std::allocator<dealii::FullMatrix<double> > >::_Vector_impl_data"* %7, i32 0, i32 0, !dbg !10214
  %8 = load %"class.dealii::FullMatrix"*, %"class.dealii::FullMatrix"** %_M_start, align 8, !dbg !10214
  %9 = bitcast %"class.std::vector.19"* %this1 to %"struct.std::_Vector_base.87"*, !dbg !10215
  %call7 = call dereferenceable(1) %"class.std::allocator.88"* @_ZNSt12_Vector_baseIN6dealii10FullMatrixIdEESaIS2_EE19_M_get_Tp_allocatorEv(%"struct.std::_Vector_base.87"* %9) #4, !dbg !10215
  %coerce.dive8 = getelementptr inbounds %"class.__gnu_cxx::__normal_iterator.91", %"class.__gnu_cxx::__normal_iterator.91"* %agg.tmp, i32 0, i32 0, !dbg !10216
  %10 = load %"class.dealii::FullMatrix"*, %"class.dealii::FullMatrix"** %coerce.dive8, align 8, !dbg !10216
  %coerce.dive9 = getelementptr inbounds %"class.__gnu_cxx::__normal_iterator.91", %"class.__gnu_cxx::__normal_iterator.91"* %agg.tmp4, i32 0, i32 0, !dbg !10216
  %11 = load %"class.dealii::FullMatrix"*, %"class.dealii::FullMatrix"** %coerce.dive9, align 8, !dbg !10216
  %call12 = invoke %"class.dealii::FullMatrix"* @_ZSt22__uninitialized_copy_aIN9__gnu_cxx17__normal_iteratorIPKN6dealii10FullMatrixIdEESt6vectorIS4_SaIS4_EEEEPS4_S4_ET0_T_SD_SC_RSaIT1_E(%"class.dealii::FullMatrix"* %10, %"class.dealii::FullMatrix"* %11, %"class.dealii::FullMatrix"* %8, %"class.std::allocator.88"* dereferenceable(1) %call7)
          to label %invoke.cont11 unwind label %lpad10, !dbg !10216

invoke.cont11:                                    ; preds = %invoke.cont
  %12 = bitcast %"class.std::vector.19"* %this1 to %"struct.std::_Vector_base.87"*, !dbg !10217
  %_M_impl13 = getelementptr inbounds %"struct.std::_Vector_base.87", %"struct.std::_Vector_base.87"* %12, i32 0, i32 0, !dbg !10217
  %13 = bitcast %"struct.std::_Vector_base<dealii::FullMatrix<double>, std::allocator<dealii::FullMatrix<double> > >::_Vector_impl"* %_M_impl13 to %"struct.std::_Vector_base<dealii::FullMatrix<double>, std::allocator<dealii::FullMatrix<double> > >::_Vector_impl_data"*, !dbg !10218
  %_M_finish = getelementptr inbounds %"struct.std::_Vector_base<dealii::FullMatrix<double>, std::allocator<dealii::FullMatrix<double> > >::_Vector_impl_data", %"struct.std::_Vector_base<dealii::FullMatrix<double>, std::allocator<dealii::FullMatrix<double> > >::_Vector_impl_data"* %13, i32 0, i32 1, !dbg !10219
  store %"class.dealii::FullMatrix"* %call12, %"class.dealii::FullMatrix"** %_M_finish, align 8, !dbg !10220
  ret void, !dbg !10221

lpad:                                             ; preds = %entry
  %14 = landingpad { i8*, i32 }
          cleanup, !dbg !10221
  %15 = extractvalue { i8*, i32 } %14, 0, !dbg !10221
  store i8* %15, i8** %exn.slot, align 8, !dbg !10221
  %16 = extractvalue { i8*, i32 } %14, 1, !dbg !10221
  store i32 %16, i32* %ehselector.slot, align 4, !dbg !10221
  call void @_ZNSaIN6dealii10FullMatrixIdEEED2Ev(%"class.std::allocator.88"* %ref.tmp) #4, !dbg !10206
  br label %eh.resume, !dbg !10206

lpad10:                                           ; preds = %invoke.cont
  %17 = landingpad { i8*, i32 }
          cleanup, !dbg !10222
  %18 = extractvalue { i8*, i32 } %17, 0, !dbg !10222
  store i8* %18, i8** %exn.slot, align 8, !dbg !10222
  %19 = extractvalue { i8*, i32 } %17, 1, !dbg !10222
  store i32 %19, i32* %ehselector.slot, align 4, !dbg !10222
  %20 = bitcast %"class.std::vector.19"* %this1 to %"struct.std::_Vector_base.87"*, !dbg !10222
  call void @_ZNSt12_Vector_baseIN6dealii10FullMatrixIdEESaIS2_EED2Ev(%"struct.std::_Vector_base.87"* %20) #4, !dbg !10222
  br label %eh.resume, !dbg !10222

eh.resume:                                        ; preds = %lpad10, %lpad
  %exn = load i8*, i8** %exn.slot, align 8, !dbg !10206
  %sel = load i32, i32* %ehselector.slot, align 4, !dbg !10206
  %lpad.val = insertvalue { i8*, i32 } undef, i8* %exn, 0, !dbg !10206
  %lpad.val14 = insertvalue { i8*, i32 } %lpad.val, i32 %sel, 1, !dbg !10206
  resume { i8*, i32 } %lpad.val14, !dbg !10206
}

; Function Attrs: noinline nounwind uwtable
define linkonce_odr dso_local i64 @_ZNKSt6vectorIN6dealii10FullMatrixIdEESaIS2_EE4sizeEv(%"class.std::vector.19"* %this) #1 comdat align 2 !dbg !10223 {
entry:
  %this.addr = alloca %"class.std::vector.19"*, align 8
  store %"class.std::vector.19"* %this, %"class.std::vector.19"** %this.addr, align 8
  call void @llvm.dbg.declare(metadata %"class.std::vector.19"** %this.addr, metadata !10224, metadata !DIExpression()), !dbg !10225
  %this1 = load %"class.std::vector.19"*, %"class.std::vector.19"** %this.addr, align 8
  %0 = bitcast %"class.std::vector.19"* %this1 to %"struct.std::_Vector_base.87"*, !dbg !10226
  %_M_impl = getelementptr inbounds %"struct.std::_Vector_base.87", %"struct.std::_Vector_base.87"* %0, i32 0, i32 0, !dbg !10226
  %1 = bitcast %"struct.std::_Vector_base<dealii::FullMatrix<double>, std::allocator<dealii::FullMatrix<double> > >::_Vector_impl"* %_M_impl to %"struct.std::_Vector_base<dealii::FullMatrix<double>, std::allocator<dealii::FullMatrix<double> > >::_Vector_impl_data"*, !dbg !10227
  %_M_finish = getelementptr inbounds %"struct.std::_Vector_base<dealii::FullMatrix<double>, std::allocator<dealii::FullMatrix<double> > >::_Vector_impl_data", %"struct.std::_Vector_base<dealii::FullMatrix<double>, std::allocator<dealii::FullMatrix<double> > >::_Vector_impl_data"* %1, i32 0, i32 1, !dbg !10228
  %2 = load %"class.dealii::FullMatrix"*, %"class.dealii::FullMatrix"** %_M_finish, align 8, !dbg !10228
  %3 = bitcast %"class.std::vector.19"* %this1 to %"struct.std::_Vector_base.87"*, !dbg !10229
  %_M_impl2 = getelementptr inbounds %"struct.std::_Vector_base.87", %"struct.std::_Vector_base.87"* %3, i32 0, i32 0, !dbg !10229
  %4 = bitcast %"struct.std::_Vector_base<dealii::FullMatrix<double>, std::allocator<dealii::FullMatrix<double> > >::_Vector_impl"* %_M_impl2 to %"struct.std::_Vector_base<dealii::FullMatrix<double>, std::allocator<dealii::FullMatrix<double> > >::_Vector_impl_data"*, !dbg !10230
  %_M_start = getelementptr inbounds %"struct.std::_Vector_base<dealii::FullMatrix<double>, std::allocator<dealii::FullMatrix<double> > >::_Vector_impl_data", %"struct.std::_Vector_base<dealii::FullMatrix<double>, std::allocator<dealii::FullMatrix<double> > >::_Vector_impl_data"* %4, i32 0, i32 0, !dbg !10231
  %5 = load %"class.dealii::FullMatrix"*, %"class.dealii::FullMatrix"** %_M_start, align 8, !dbg !10231
  %sub.ptr.lhs.cast = ptrtoint %"class.dealii::FullMatrix"* %2 to i64, !dbg !10232
  %sub.ptr.rhs.cast = ptrtoint %"class.dealii::FullMatrix"* %5 to i64, !dbg !10232
  %sub.ptr.sub = sub i64 %sub.ptr.lhs.cast, %sub.ptr.rhs.cast, !dbg !10232
  %sub.ptr.div = sdiv exact i64 %sub.ptr.sub, 96, !dbg !10232
  ret i64 %sub.ptr.div, !dbg !10233
}

; Function Attrs: noinline uwtable
define linkonce_odr dso_local void @_ZN9__gnu_cxx14__alloc_traitsISaIN6dealii10FullMatrixIdEEES3_E17_S_select_on_copyERKS4_(%"class.std::allocator.88"* noalias sret %agg.result, %"class.std::allocator.88"* dereferenceable(1) %__a) #0 comdat align 2 !dbg !10234 {
entry:
  %result.ptr = alloca i8*, align 8
  %__a.addr = alloca %"class.std::allocator.88"*, align 8
  %0 = bitcast %"class.std::allocator.88"* %agg.result to i8*
  store i8* %0, i8** %result.ptr, align 8
  store %"class.std::allocator.88"* %__a, %"class.std::allocator.88"** %__a.addr, align 8
  call void @llvm.dbg.declare(metadata %"class.std::allocator.88"** %__a.addr, metadata !10235, metadata !DIExpression()), !dbg !10236
  %1 = load %"class.std::allocator.88"*, %"class.std::allocator.88"** %__a.addr, align 8, !dbg !10237
  call void @_ZNSt16allocator_traitsISaIN6dealii10FullMatrixIdEEEE37select_on_container_copy_constructionERKS3_(%"class.std::allocator.88"* sret %agg.result, %"class.std::allocator.88"* dereferenceable(1) %1), !dbg !10238
  ret void, !dbg !10239
}

; Function Attrs: noinline nounwind uwtable
define linkonce_odr dso_local dereferenceable(1) %"class.std::allocator.88"* @_ZNKSt12_Vector_baseIN6dealii10FullMatrixIdEESaIS2_EE19_M_get_Tp_allocatorEv(%"struct.std::_Vector_base.87"* %this) #1 comdat align 2 !dbg !10240 {
entry:
  %this.addr = alloca %"struct.std::_Vector_base.87"*, align 8
  store %"struct.std::_Vector_base.87"* %this, %"struct.std::_Vector_base.87"** %this.addr, align 8
  call void @llvm.dbg.declare(metadata %"struct.std::_Vector_base.87"** %this.addr, metadata !10241, metadata !DIExpression()), !dbg !10243
  %this1 = load %"struct.std::_Vector_base.87"*, %"struct.std::_Vector_base.87"** %this.addr, align 8
  %_M_impl = getelementptr inbounds %"struct.std::_Vector_base.87", %"struct.std::_Vector_base.87"* %this1, i32 0, i32 0, !dbg !10244
  %0 = bitcast %"struct.std::_Vector_base<dealii::FullMatrix<double>, std::allocator<dealii::FullMatrix<double> > >::_Vector_impl"* %_M_impl to %"class.std::allocator.88"*, !dbg !10245
  ret %"class.std::allocator.88"* %0, !dbg !10246
}

; Function Attrs: noinline uwtable
define linkonce_odr dso_local void @_ZNSt12_Vector_baseIN6dealii10FullMatrixIdEESaIS2_EEC2EmRKS3_(%"struct.std::_Vector_base.87"* %this, i64 %__n, %"class.std::allocator.88"* dereferenceable(1) %__a) unnamed_addr #0 comdat align 2 personality i8* bitcast (i32 (...)* @__gxx_personality_v0 to i8*) !dbg !10247 {
entry:
  %this.addr = alloca %"struct.std::_Vector_base.87"*, align 8
  %__n.addr = alloca i64, align 8
  %__a.addr = alloca %"class.std::allocator.88"*, align 8
  %exn.slot = alloca i8*
  %ehselector.slot = alloca i32
  store %"struct.std::_Vector_base.87"* %this, %"struct.std::_Vector_base.87"** %this.addr, align 8
  call void @llvm.dbg.declare(metadata %"struct.std::_Vector_base.87"** %this.addr, metadata !10248, metadata !DIExpression()), !dbg !10250
  store i64 %__n, i64* %__n.addr, align 8
  call void @llvm.dbg.declare(metadata i64* %__n.addr, metadata !10251, metadata !DIExpression()), !dbg !10252
  store %"class.std::allocator.88"* %__a, %"class.std::allocator.88"** %__a.addr, align 8
  call void @llvm.dbg.declare(metadata %"class.std::allocator.88"** %__a.addr, metadata !10253, metadata !DIExpression()), !dbg !10254
  %this1 = load %"struct.std::_Vector_base.87"*, %"struct.std::_Vector_base.87"** %this.addr, align 8
  %_M_impl = getelementptr inbounds %"struct.std::_Vector_base.87", %"struct.std::_Vector_base.87"* %this1, i32 0, i32 0, !dbg !10255
  %0 = load %"class.std::allocator.88"*, %"class.std::allocator.88"** %__a.addr, align 8, !dbg !10256
  call void @_ZNSt12_Vector_baseIN6dealii10FullMatrixIdEESaIS2_EE12_Vector_implC2ERKS3_(%"struct.std::_Vector_base<dealii::FullMatrix<double>, std::allocator<dealii::FullMatrix<double> > >::_Vector_impl"* %_M_impl, %"class.std::allocator.88"* dereferenceable(1) %0) #4, !dbg !10255
  %1 = load i64, i64* %__n.addr, align 8, !dbg !10257
  invoke void @_ZNSt12_Vector_baseIN6dealii10FullMatrixIdEESaIS2_EE17_M_create_storageEm(%"struct.std::_Vector_base.87"* %this1, i64 %1)
          to label %invoke.cont unwind label %lpad, !dbg !10259

invoke.cont:                                      ; preds = %entry
  ret void, !dbg !10260

lpad:                                             ; preds = %entry
  %2 = landingpad { i8*, i32 }
          cleanup, !dbg !10261
  %3 = extractvalue { i8*, i32 } %2, 0, !dbg !10261
  store i8* %3, i8** %exn.slot, align 8, !dbg !10261
  %4 = extractvalue { i8*, i32 } %2, 1, !dbg !10261
  store i32 %4, i32* %ehselector.slot, align 4, !dbg !10261
  call void @_ZNSt12_Vector_baseIN6dealii10FullMatrixIdEESaIS2_EE12_Vector_implD2Ev(%"struct.std::_Vector_base<dealii::FullMatrix<double>, std::allocator<dealii::FullMatrix<double> > >::_Vector_impl"* %_M_impl) #4, !dbg !10261
  br label %eh.resume, !dbg !10261

eh.resume:                                        ; preds = %lpad
  %exn = load i8*, i8** %exn.slot, align 8, !dbg !10261
  %sel = load i32, i32* %ehselector.slot, align 4, !dbg !10261
  %lpad.val = insertvalue { i8*, i32 } undef, i8* %exn, 0, !dbg !10261
  %lpad.val2 = insertvalue { i8*, i32 } %lpad.val, i32 %sel, 1, !dbg !10261
  resume { i8*, i32 } %lpad.val2, !dbg !10261
}

; Function Attrs: noinline nounwind uwtable
define linkonce_odr dso_local void @_ZNSaIN6dealii10FullMatrixIdEEED2Ev(%"class.std::allocator.88"* %this) unnamed_addr #1 comdat align 2 !dbg !10262 {
entry:
  %this.addr = alloca %"class.std::allocator.88"*, align 8
  store %"class.std::allocator.88"* %this, %"class.std::allocator.88"** %this.addr, align 8
  call void @llvm.dbg.declare(metadata %"class.std::allocator.88"** %this.addr, metadata !10263, metadata !DIExpression()), !dbg !10265
  %this1 = load %"class.std::allocator.88"*, %"class.std::allocator.88"** %this.addr, align 8
  %0 = bitcast %"class.std::allocator.88"* %this1 to %"class.__gnu_cxx::new_allocator.89"*, !dbg !10266
  call void @_ZN9__gnu_cxx13new_allocatorIN6dealii10FullMatrixIdEEED2Ev(%"class.__gnu_cxx::new_allocator.89"* %0) #4, !dbg !10266
  ret void, !dbg !10268
}

; Function Attrs: noinline uwtable
define linkonce_odr dso_local %"class.dealii::FullMatrix"* @_ZSt22__uninitialized_copy_aIN9__gnu_cxx17__normal_iteratorIPKN6dealii10FullMatrixIdEESt6vectorIS4_SaIS4_EEEEPS4_S4_ET0_T_SD_SC_RSaIT1_E(%"class.dealii::FullMatrix"* %__first.coerce, %"class.dealii::FullMatrix"* %__last.coerce, %"class.dealii::FullMatrix"* %__result, %"class.std::allocator.88"* dereferenceable(1) %0) #0 comdat !dbg !10269 {
entry:
  %__first = alloca %"class.__gnu_cxx::__normal_iterator.91", align 8
  %__last = alloca %"class.__gnu_cxx::__normal_iterator.91", align 8
  %__result.addr = alloca %"class.dealii::FullMatrix"*, align 8
  %.addr = alloca %"class.std::allocator.88"*, align 8
  %agg.tmp = alloca %"class.__gnu_cxx::__normal_iterator.91", align 8
  %agg.tmp2 = alloca %"class.__gnu_cxx::__normal_iterator.91", align 8
  %coerce.dive = getelementptr inbounds %"class.__gnu_cxx::__normal_iterator.91", %"class.__gnu_cxx::__normal_iterator.91"* %__first, i32 0, i32 0
  store %"class.dealii::FullMatrix"* %__first.coerce, %"class.dealii::FullMatrix"** %coerce.dive, align 8
  %coerce.dive1 = getelementptr inbounds %"class.__gnu_cxx::__normal_iterator.91", %"class.__gnu_cxx::__normal_iterator.91"* %__last, i32 0, i32 0
  store %"class.dealii::FullMatrix"* %__last.coerce, %"class.dealii::FullMatrix"** %coerce.dive1, align 8
  call void @llvm.dbg.declare(metadata %"class.__gnu_cxx::__normal_iterator.91"* %__first, metadata !10275, metadata !DIExpression()), !dbg !10276
  call void @llvm.dbg.declare(metadata %"class.__gnu_cxx::__normal_iterator.91"* %__last, metadata !10277, metadata !DIExpression()), !dbg !10278
  store %"class.dealii::FullMatrix"* %__result, %"class.dealii::FullMatrix"** %__result.addr, align 8
  call void @llvm.dbg.declare(metadata %"class.dealii::FullMatrix"** %__result.addr, metadata !10279, metadata !DIExpression()), !dbg !10280
  store %"class.std::allocator.88"* %0, %"class.std::allocator.88"** %.addr, align 8
  call void @llvm.dbg.declare(metadata %"class.std::allocator.88"** %.addr, metadata !10281, metadata !DIExpression()), !dbg !10282
  %1 = bitcast %"class.__gnu_cxx::__normal_iterator.91"* %agg.tmp to i8*, !dbg !10283
  %2 = bitcast %"class.__gnu_cxx::__normal_iterator.91"* %__first to i8*, !dbg !10283
  call void @llvm.memcpy.p0i8.p0i8.i64(i8* align 8 %1, i8* align 8 %2, i64 8, i1 false), !dbg !10283
  %3 = bitcast %"class.__gnu_cxx::__normal_iterator.91"* %agg.tmp2 to i8*, !dbg !10284
  %4 = bitcast %"class.__gnu_cxx::__normal_iterator.91"* %__last to i8*, !dbg !10284
  call void @llvm.memcpy.p0i8.p0i8.i64(i8* align 8 %3, i8* align 8 %4, i64 8, i1 false), !dbg !10284
  %5 = load %"class.dealii::FullMatrix"*, %"class.dealii::FullMatrix"** %__result.addr, align 8, !dbg !10285
  %coerce.dive3 = getelementptr inbounds %"class.__gnu_cxx::__normal_iterator.91", %"class.__gnu_cxx::__normal_iterator.91"* %agg.tmp, i32 0, i32 0, !dbg !10286
  %6 = load %"class.dealii::FullMatrix"*, %"class.dealii::FullMatrix"** %coerce.dive3, align 8, !dbg !10286
  %coerce.dive4 = getelementptr inbounds %"class.__gnu_cxx::__normal_iterator.91", %"class.__gnu_cxx::__normal_iterator.91"* %agg.tmp2, i32 0, i32 0, !dbg !10286
  %7 = load %"class.dealii::FullMatrix"*, %"class.dealii::FullMatrix"** %coerce.dive4, align 8, !dbg !10286
  %call = call %"class.dealii::FullMatrix"* @_ZSt18uninitialized_copyIN9__gnu_cxx17__normal_iteratorIPKN6dealii10FullMatrixIdEESt6vectorIS4_SaIS4_EEEEPS4_ET0_T_SD_SC_(%"class.dealii::FullMatrix"* %6, %"class.dealii::FullMatrix"* %7, %"class.dealii::FullMatrix"* %5), !dbg !10286
  ret %"class.dealii::FullMatrix"* %call, !dbg !10287
}

; Function Attrs: noinline nounwind uwtable
define linkonce_odr dso_local %"class.dealii::FullMatrix"* @_ZNKSt6vectorIN6dealii10FullMatrixIdEESaIS2_EE5beginEv(%"class.std::vector.19"* %this) #1 comdat align 2 !dbg !10288 {
entry:
  %retval = alloca %"class.__gnu_cxx::__normal_iterator.91", align 8
  %this.addr = alloca %"class.std::vector.19"*, align 8
  store %"class.std::vector.19"* %this, %"class.std::vector.19"** %this.addr, align 8
  call void @llvm.dbg.declare(metadata %"class.std::vector.19"** %this.addr, metadata !10289, metadata !DIExpression()), !dbg !10290
  %this1 = load %"class.std::vector.19"*, %"class.std::vector.19"** %this.addr, align 8
  %0 = bitcast %"class.std::vector.19"* %this1 to %"struct.std::_Vector_base.87"*, !dbg !10291
  %_M_impl = getelementptr inbounds %"struct.std::_Vector_base.87", %"struct.std::_Vector_base.87"* %0, i32 0, i32 0, !dbg !10291
  %1 = bitcast %"struct.std::_Vector_base<dealii::FullMatrix<double>, std::allocator<dealii::FullMatrix<double> > >::_Vector_impl"* %_M_impl to %"struct.std::_Vector_base<dealii::FullMatrix<double>, std::allocator<dealii::FullMatrix<double> > >::_Vector_impl_data"*, !dbg !10292
  %_M_start = getelementptr inbounds %"struct.std::_Vector_base<dealii::FullMatrix<double>, std::allocator<dealii::FullMatrix<double> > >::_Vector_impl_data", %"struct.std::_Vector_base<dealii::FullMatrix<double>, std::allocator<dealii::FullMatrix<double> > >::_Vector_impl_data"* %1, i32 0, i32 0, !dbg !10293
  call void @_ZN9__gnu_cxx17__normal_iteratorIPKN6dealii10FullMatrixIdEESt6vectorIS3_SaIS3_EEEC2ERKS5_(%"class.__gnu_cxx::__normal_iterator.91"* %retval, %"class.dealii::FullMatrix"** dereferenceable(8) %_M_start) #4, !dbg !10294
  %coerce.dive = getelementptr inbounds %"class.__gnu_cxx::__normal_iterator.91", %"class.__gnu_cxx::__normal_iterator.91"* %retval, i32 0, i32 0, !dbg !10295
  %2 = load %"class.dealii::FullMatrix"*, %"class.dealii::FullMatrix"** %coerce.dive, align 8, !dbg !10295
  ret %"class.dealii::FullMatrix"* %2, !dbg !10295
}

; Function Attrs: noinline nounwind uwtable
define linkonce_odr dso_local %"class.dealii::FullMatrix"* @_ZNKSt6vectorIN6dealii10FullMatrixIdEESaIS2_EE3endEv(%"class.std::vector.19"* %this) #1 comdat align 2 !dbg !10296 {
entry:
  %retval = alloca %"class.__gnu_cxx::__normal_iterator.91", align 8
  %this.addr = alloca %"class.std::vector.19"*, align 8
  store %"class.std::vector.19"* %this, %"class.std::vector.19"** %this.addr, align 8
  call void @llvm.dbg.declare(metadata %"class.std::vector.19"** %this.addr, metadata !10297, metadata !DIExpression()), !dbg !10298
  %this1 = load %"class.std::vector.19"*, %"class.std::vector.19"** %this.addr, align 8
  %0 = bitcast %"class.std::vector.19"* %this1 to %"struct.std::_Vector_base.87"*, !dbg !10299
  %_M_impl = getelementptr inbounds %"struct.std::_Vector_base.87", %"struct.std::_Vector_base.87"* %0, i32 0, i32 0, !dbg !10299
  %1 = bitcast %"struct.std::_Vector_base<dealii::FullMatrix<double>, std::allocator<dealii::FullMatrix<double> > >::_Vector_impl"* %_M_impl to %"struct.std::_Vector_base<dealii::FullMatrix<double>, std::allocator<dealii::FullMatrix<double> > >::_Vector_impl_data"*, !dbg !10300
  %_M_finish = getelementptr inbounds %"struct.std::_Vector_base<dealii::FullMatrix<double>, std::allocator<dealii::FullMatrix<double> > >::_Vector_impl_data", %"struct.std::_Vector_base<dealii::FullMatrix<double>, std::allocator<dealii::FullMatrix<double> > >::_Vector_impl_data"* %1, i32 0, i32 1, !dbg !10301
  call void @_ZN9__gnu_cxx17__normal_iteratorIPKN6dealii10FullMatrixIdEESt6vectorIS3_SaIS3_EEEC2ERKS5_(%"class.__gnu_cxx::__normal_iterator.91"* %retval, %"class.dealii::FullMatrix"** dereferenceable(8) %_M_finish) #4, !dbg !10302
  %coerce.dive = getelementptr inbounds %"class.__gnu_cxx::__normal_iterator.91", %"class.__gnu_cxx::__normal_iterator.91"* %retval, i32 0, i32 0, !dbg !10303
  %2 = load %"class.dealii::FullMatrix"*, %"class.dealii::FullMatrix"** %coerce.dive, align 8, !dbg !10303
  ret %"class.dealii::FullMatrix"* %2, !dbg !10303
}

; Function Attrs: noinline nounwind uwtable
define linkonce_odr dso_local dereferenceable(1) %"class.std::allocator.88"* @_ZNSt12_Vector_baseIN6dealii10FullMatrixIdEESaIS2_EE19_M_get_Tp_allocatorEv(%"struct.std::_Vector_base.87"* %this) #1 comdat align 2 !dbg !10304 {
entry:
  %this.addr = alloca %"struct.std::_Vector_base.87"*, align 8
  store %"struct.std::_Vector_base.87"* %this, %"struct.std::_Vector_base.87"** %this.addr, align 8
  call void @llvm.dbg.declare(metadata %"struct.std::_Vector_base.87"** %this.addr, metadata !10305, metadata !DIExpression()), !dbg !10306
  %this1 = load %"struct.std::_Vector_base.87"*, %"struct.std::_Vector_base.87"** %this.addr, align 8
  %_M_impl = getelementptr inbounds %"struct.std::_Vector_base.87", %"struct.std::_Vector_base.87"* %this1, i32 0, i32 0, !dbg !10307
  %0 = bitcast %"struct.std::_Vector_base<dealii::FullMatrix<double>, std::allocator<dealii::FullMatrix<double> > >::_Vector_impl"* %_M_impl to %"class.std::allocator.88"*, !dbg !10308
  ret %"class.std::allocator.88"* %0, !dbg !10309
}

; Function Attrs: noinline nounwind uwtable
define linkonce_odr dso_local void @_ZNSt12_Vector_baseIN6dealii10FullMatrixIdEESaIS2_EED2Ev(%"struct.std::_Vector_base.87"* %this) unnamed_addr #1 comdat align 2 personality i8* bitcast (i32 (...)* @__gxx_personality_v0 to i8*) !dbg !10310 {
entry:
  %this.addr = alloca %"struct.std::_Vector_base.87"*, align 8
  %exn.slot = alloca i8*
  %ehselector.slot = alloca i32
  store %"struct.std::_Vector_base.87"* %this, %"struct.std::_Vector_base.87"** %this.addr, align 8
  call void @llvm.dbg.declare(metadata %"struct.std::_Vector_base.87"** %this.addr, metadata !10311, metadata !DIExpression()), !dbg !10312
  %this1 = load %"struct.std::_Vector_base.87"*, %"struct.std::_Vector_base.87"** %this.addr, align 8
  %_M_impl = getelementptr inbounds %"struct.std::_Vector_base.87", %"struct.std::_Vector_base.87"* %this1, i32 0, i32 0, !dbg !10313
  %0 = bitcast %"struct.std::_Vector_base<dealii::FullMatrix<double>, std::allocator<dealii::FullMatrix<double> > >::_Vector_impl"* %_M_impl to %"struct.std::_Vector_base<dealii::FullMatrix<double>, std::allocator<dealii::FullMatrix<double> > >::_Vector_impl_data"*, !dbg !10313
  %_M_start = getelementptr inbounds %"struct.std::_Vector_base<dealii::FullMatrix<double>, std::allocator<dealii::FullMatrix<double> > >::_Vector_impl_data", %"struct.std::_Vector_base<dealii::FullMatrix<double>, std::allocator<dealii::FullMatrix<double> > >::_Vector_impl_data"* %0, i32 0, i32 0, !dbg !10315
  %1 = load %"class.dealii::FullMatrix"*, %"class.dealii::FullMatrix"** %_M_start, align 8, !dbg !10315
  %_M_impl2 = getelementptr inbounds %"struct.std::_Vector_base.87", %"struct.std::_Vector_base.87"* %this1, i32 0, i32 0, !dbg !10316
  %2 = bitcast %"struct.std::_Vector_base<dealii::FullMatrix<double>, std::allocator<dealii::FullMatrix<double> > >::_Vector_impl"* %_M_impl2 to %"struct.std::_Vector_base<dealii::FullMatrix<double>, std::allocator<dealii::FullMatrix<double> > >::_Vector_impl_data"*, !dbg !10316
  %_M_end_of_storage = getelementptr inbounds %"struct.std::_Vector_base<dealii::FullMatrix<double>, std::allocator<dealii::FullMatrix<double> > >::_Vector_impl_data", %"struct.std::_Vector_base<dealii::FullMatrix<double>, std::allocator<dealii::FullMatrix<double> > >::_Vector_impl_data"* %2, i32 0, i32 2, !dbg !10317
  %3 = load %"class.dealii::FullMatrix"*, %"class.dealii::FullMatrix"** %_M_end_of_storage, align 8, !dbg !10317
  %_M_impl3 = getelementptr inbounds %"struct.std::_Vector_base.87", %"struct.std::_Vector_base.87"* %this1, i32 0, i32 0, !dbg !10318
  %4 = bitcast %"struct.std::_Vector_base<dealii::FullMatrix<double>, std::allocator<dealii::FullMatrix<double> > >::_Vector_impl"* %_M_impl3 to %"struct.std::_Vector_base<dealii::FullMatrix<double>, std::allocator<dealii::FullMatrix<double> > >::_Vector_impl_data"*, !dbg !10318
  %_M_start4 = getelementptr inbounds %"struct.std::_Vector_base<dealii::FullMatrix<double>, std::allocator<dealii::FullMatrix<double> > >::_Vector_impl_data", %"struct.std::_Vector_base<dealii::FullMatrix<double>, std::allocator<dealii::FullMatrix<double> > >::_Vector_impl_data"* %4, i32 0, i32 0, !dbg !10319
  %5 = load %"class.dealii::FullMatrix"*, %"class.dealii::FullMatrix"** %_M_start4, align 8, !dbg !10319
  %sub.ptr.lhs.cast = ptrtoint %"class.dealii::FullMatrix"* %3 to i64, !dbg !10320
  %sub.ptr.rhs.cast = ptrtoint %"class.dealii::FullMatrix"* %5 to i64, !dbg !10320
  %sub.ptr.sub = sub i64 %sub.ptr.lhs.cast, %sub.ptr.rhs.cast, !dbg !10320
  %sub.ptr.div = sdiv exact i64 %sub.ptr.sub, 96, !dbg !10320
  invoke void @_ZNSt12_Vector_baseIN6dealii10FullMatrixIdEESaIS2_EE13_M_deallocateEPS2_m(%"struct.std::_Vector_base.87"* %this1, %"class.dealii::FullMatrix"* %1, i64 %sub.ptr.div)
          to label %invoke.cont unwind label %lpad, !dbg !10321

invoke.cont:                                      ; preds = %entry
  %_M_impl5 = getelementptr inbounds %"struct.std::_Vector_base.87", %"struct.std::_Vector_base.87"* %this1, i32 0, i32 0, !dbg !10322
  call void @_ZNSt12_Vector_baseIN6dealii10FullMatrixIdEESaIS2_EE12_Vector_implD2Ev(%"struct.std::_Vector_base<dealii::FullMatrix<double>, std::allocator<dealii::FullMatrix<double> > >::_Vector_impl"* %_M_impl5) #4, !dbg !10322
  ret void, !dbg !10323

lpad:                                             ; preds = %entry
  %6 = landingpad { i8*, i32 }
          catch i8* null, !dbg !10322
  %7 = extractvalue { i8*, i32 } %6, 0, !dbg !10322
  store i8* %7, i8** %exn.slot, align 8, !dbg !10322
  %8 = extractvalue { i8*, i32 } %6, 1, !dbg !10322
  store i32 %8, i32* %ehselector.slot, align 4, !dbg !10322
  %_M_impl6 = getelementptr inbounds %"struct.std::_Vector_base.87", %"struct.std::_Vector_base.87"* %this1, i32 0, i32 0, !dbg !10322
  call void @_ZNSt12_Vector_baseIN6dealii10FullMatrixIdEESaIS2_EE12_Vector_implD2Ev(%"struct.std::_Vector_base<dealii::FullMatrix<double>, std::allocator<dealii::FullMatrix<double> > >::_Vector_impl"* %_M_impl6) #4, !dbg !10322
  br label %terminate.handler, !dbg !10322

terminate.handler:                                ; preds = %lpad
  %exn = load i8*, i8** %exn.slot, align 8, !dbg !10322
  call void @__clang_call_terminate(i8* %exn) #13, !dbg !10322
  unreachable, !dbg !10322
}

; Function Attrs: noinline nounwind uwtable
define linkonce_odr dso_local void @_ZNSt16allocator_traitsISaIN6dealii10FullMatrixIdEEEE37select_on_container_copy_constructionERKS3_(%"class.std::allocator.88"* noalias sret %agg.result, %"class.std::allocator.88"* dereferenceable(1) %__rhs) #1 comdat align 2 !dbg !10324 {
entry:
  %result.ptr = alloca i8*, align 8
  %__rhs.addr = alloca %"class.std::allocator.88"*, align 8
  %0 = bitcast %"class.std::allocator.88"* %agg.result to i8*
  store i8* %0, i8** %result.ptr, align 8
  store %"class.std::allocator.88"* %__rhs, %"class.std::allocator.88"** %__rhs.addr, align 8
  call void @llvm.dbg.declare(metadata %"class.std::allocator.88"** %__rhs.addr, metadata !10325, metadata !DIExpression()), !dbg !10326
  %1 = load %"class.std::allocator.88"*, %"class.std::allocator.88"** %__rhs.addr, align 8, !dbg !10327
  call void @_ZNSaIN6dealii10FullMatrixIdEEEC2ERKS2_(%"class.std::allocator.88"* %agg.result, %"class.std::allocator.88"* dereferenceable(1) %1) #4, !dbg !10327
  ret void, !dbg !10328
}

; Function Attrs: noinline nounwind uwtable
define linkonce_odr dso_local void @_ZNSaIN6dealii10FullMatrixIdEEEC2ERKS2_(%"class.std::allocator.88"* %this, %"class.std::allocator.88"* dereferenceable(1) %__a) unnamed_addr #1 comdat align 2 !dbg !10329 {
entry:
  %this.addr = alloca %"class.std::allocator.88"*, align 8
  %__a.addr = alloca %"class.std::allocator.88"*, align 8
  store %"class.std::allocator.88"* %this, %"class.std::allocator.88"** %this.addr, align 8
  call void @llvm.dbg.declare(metadata %"class.std::allocator.88"** %this.addr, metadata !10330, metadata !DIExpression()), !dbg !10331
  store %"class.std::allocator.88"* %__a, %"class.std::allocator.88"** %__a.addr, align 8
  call void @llvm.dbg.declare(metadata %"class.std::allocator.88"** %__a.addr, metadata !10332, metadata !DIExpression()), !dbg !10333
  %this1 = load %"class.std::allocator.88"*, %"class.std::allocator.88"** %this.addr, align 8
  %0 = bitcast %"class.std::allocator.88"* %this1 to %"class.__gnu_cxx::new_allocator.89"*, !dbg !10334
  %1 = load %"class.std::allocator.88"*, %"class.std::allocator.88"** %__a.addr, align 8, !dbg !10335
  %2 = bitcast %"class.std::allocator.88"* %1 to %"class.__gnu_cxx::new_allocator.89"*, !dbg !10335
  call void @_ZN9__gnu_cxx13new_allocatorIN6dealii10FullMatrixIdEEEC2ERKS4_(%"class.__gnu_cxx::new_allocator.89"* %0, %"class.__gnu_cxx::new_allocator.89"* dereferenceable(1) %2) #4, !dbg !10336
  ret void, !dbg !10337
}

; Function Attrs: noinline nounwind uwtable
define linkonce_odr dso_local void @_ZN9__gnu_cxx13new_allocatorIN6dealii10FullMatrixIdEEEC2ERKS4_(%"class.__gnu_cxx::new_allocator.89"* %this, %"class.__gnu_cxx::new_allocator.89"* dereferenceable(1) %0) unnamed_addr #1 comdat align 2 !dbg !10338 {
entry:
  %this.addr = alloca %"class.__gnu_cxx::new_allocator.89"*, align 8
  %.addr = alloca %"class.__gnu_cxx::new_allocator.89"*, align 8
  store %"class.__gnu_cxx::new_allocator.89"* %this, %"class.__gnu_cxx::new_allocator.89"** %this.addr, align 8
  call void @llvm.dbg.declare(metadata %"class.__gnu_cxx::new_allocator.89"** %this.addr, metadata !10339, metadata !DIExpression()), !dbg !10341
  store %"class.__gnu_cxx::new_allocator.89"* %0, %"class.__gnu_cxx::new_allocator.89"** %.addr, align 8
  call void @llvm.dbg.declare(metadata %"class.__gnu_cxx::new_allocator.89"** %.addr, metadata !10342, metadata !DIExpression()), !dbg !10343
  %this1 = load %"class.__gnu_cxx::new_allocator.89"*, %"class.__gnu_cxx::new_allocator.89"** %this.addr, align 8
  ret void, !dbg !10344
}

; Function Attrs: noinline nounwind uwtable
define linkonce_odr dso_local void @_ZNSt12_Vector_baseIN6dealii10FullMatrixIdEESaIS2_EE12_Vector_implC2ERKS3_(%"struct.std::_Vector_base<dealii::FullMatrix<double>, std::allocator<dealii::FullMatrix<double> > >::_Vector_impl"* %this, %"class.std::allocator.88"* dereferenceable(1) %__a) unnamed_addr #1 comdat align 2 !dbg !10345 {
entry:
  %this.addr = alloca %"struct.std::_Vector_base<dealii::FullMatrix<double>, std::allocator<dealii::FullMatrix<double> > >::_Vector_impl"*, align 8
  %__a.addr = alloca %"class.std::allocator.88"*, align 8
  store %"struct.std::_Vector_base<dealii::FullMatrix<double>, std::allocator<dealii::FullMatrix<double> > >::_Vector_impl"* %this, %"struct.std::_Vector_base<dealii::FullMatrix<double>, std::allocator<dealii::FullMatrix<double> > >::_Vector_impl"** %this.addr, align 8
  call void @llvm.dbg.declare(metadata %"struct.std::_Vector_base<dealii::FullMatrix<double>, std::allocator<dealii::FullMatrix<double> > >::_Vector_impl"** %this.addr, metadata !10346, metadata !DIExpression()), !dbg !10348
  store %"class.std::allocator.88"* %__a, %"class.std::allocator.88"** %__a.addr, align 8
  call void @llvm.dbg.declare(metadata %"class.std::allocator.88"** %__a.addr, metadata !10349, metadata !DIExpression()), !dbg !10350
  %this1 = load %"struct.std::_Vector_base<dealii::FullMatrix<double>, std::allocator<dealii::FullMatrix<double> > >::_Vector_impl"*, %"struct.std::_Vector_base<dealii::FullMatrix<double>, std::allocator<dealii::FullMatrix<double> > >::_Vector_impl"** %this.addr, align 8
  %0 = bitcast %"struct.std::_Vector_base<dealii::FullMatrix<double>, std::allocator<dealii::FullMatrix<double> > >::_Vector_impl"* %this1 to %"class.std::allocator.88"*, !dbg !10351
  %1 = load %"class.std::allocator.88"*, %"class.std::allocator.88"** %__a.addr, align 8, !dbg !10352
  call void @_ZNSaIN6dealii10FullMatrixIdEEEC2ERKS2_(%"class.std::allocator.88"* %0, %"class.std::allocator.88"* dereferenceable(1) %1) #4, !dbg !10353
  %2 = bitcast %"struct.std::_Vector_base<dealii::FullMatrix<double>, std::allocator<dealii::FullMatrix<double> > >::_Vector_impl"* %this1 to %"struct.std::_Vector_base<dealii::FullMatrix<double>, std::allocator<dealii::FullMatrix<double> > >::_Vector_impl_data"*, !dbg !10351
  call void @_ZNSt12_Vector_baseIN6dealii10FullMatrixIdEESaIS2_EE17_Vector_impl_dataC2Ev(%"struct.std::_Vector_base<dealii::FullMatrix<double>, std::allocator<dealii::FullMatrix<double> > >::_Vector_impl_data"* %2) #4, !dbg !10354
  ret void, !dbg !10355
}

; Function Attrs: noinline uwtable
define linkonce_odr dso_local void @_ZNSt12_Vector_baseIN6dealii10FullMatrixIdEESaIS2_EE17_M_create_storageEm(%"struct.std::_Vector_base.87"* %this, i64 %__n) #0 comdat align 2 !dbg !10356 {
entry:
  %this.addr = alloca %"struct.std::_Vector_base.87"*, align 8
  %__n.addr = alloca i64, align 8
  store %"struct.std::_Vector_base.87"* %this, %"struct.std::_Vector_base.87"** %this.addr, align 8
  call void @llvm.dbg.declare(metadata %"struct.std::_Vector_base.87"** %this.addr, metadata !10357, metadata !DIExpression()), !dbg !10358
  store i64 %__n, i64* %__n.addr, align 8
  call void @llvm.dbg.declare(metadata i64* %__n.addr, metadata !10359, metadata !DIExpression()), !dbg !10360
  %this1 = load %"struct.std::_Vector_base.87"*, %"struct.std::_Vector_base.87"** %this.addr, align 8
  %0 = load i64, i64* %__n.addr, align 8, !dbg !10361
  %call = call %"class.dealii::FullMatrix"* @_ZNSt12_Vector_baseIN6dealii10FullMatrixIdEESaIS2_EE11_M_allocateEm(%"struct.std::_Vector_base.87"* %this1, i64 %0), !dbg !10362
  %_M_impl = getelementptr inbounds %"struct.std::_Vector_base.87", %"struct.std::_Vector_base.87"* %this1, i32 0, i32 0, !dbg !10363
  %1 = bitcast %"struct.std::_Vector_base<dealii::FullMatrix<double>, std::allocator<dealii::FullMatrix<double> > >::_Vector_impl"* %_M_impl to %"struct.std::_Vector_base<dealii::FullMatrix<double>, std::allocator<dealii::FullMatrix<double> > >::_Vector_impl_data"*, !dbg !10364
  %_M_start = getelementptr inbounds %"struct.std::_Vector_base<dealii::FullMatrix<double>, std::allocator<dealii::FullMatrix<double> > >::_Vector_impl_data", %"struct.std::_Vector_base<dealii::FullMatrix<double>, std::allocator<dealii::FullMatrix<double> > >::_Vector_impl_data"* %1, i32 0, i32 0, !dbg !10365
  store %"class.dealii::FullMatrix"* %call, %"class.dealii::FullMatrix"** %_M_start, align 8, !dbg !10366
  %_M_impl2 = getelementptr inbounds %"struct.std::_Vector_base.87", %"struct.std::_Vector_base.87"* %this1, i32 0, i32 0, !dbg !10367
  %2 = bitcast %"struct.std::_Vector_base<dealii::FullMatrix<double>, std::allocator<dealii::FullMatrix<double> > >::_Vector_impl"* %_M_impl2 to %"struct.std::_Vector_base<dealii::FullMatrix<double>, std::allocator<dealii::FullMatrix<double> > >::_Vector_impl_data"*, !dbg !10368
  %_M_start3 = getelementptr inbounds %"struct.std::_Vector_base<dealii::FullMatrix<double>, std::allocator<dealii::FullMatrix<double> > >::_Vector_impl_data", %"struct.std::_Vector_base<dealii::FullMatrix<double>, std::allocator<dealii::FullMatrix<double> > >::_Vector_impl_data"* %2, i32 0, i32 0, !dbg !10369
  %3 = load %"class.dealii::FullMatrix"*, %"class.dealii::FullMatrix"** %_M_start3, align 8, !dbg !10369
  %_M_impl4 = getelementptr inbounds %"struct.std::_Vector_base.87", %"struct.std::_Vector_base.87"* %this1, i32 0, i32 0, !dbg !10370
  %4 = bitcast %"struct.std::_Vector_base<dealii::FullMatrix<double>, std::allocator<dealii::FullMatrix<double> > >::_Vector_impl"* %_M_impl4 to %"struct.std::_Vector_base<dealii::FullMatrix<double>, std::allocator<dealii::FullMatrix<double> > >::_Vector_impl_data"*, !dbg !10371
  %_M_finish = getelementptr inbounds %"struct.std::_Vector_base<dealii::FullMatrix<double>, std::allocator<dealii::FullMatrix<double> > >::_Vector_impl_data", %"struct.std::_Vector_base<dealii::FullMatrix<double>, std::allocator<dealii::FullMatrix<double> > >::_Vector_impl_data"* %4, i32 0, i32 1, !dbg !10372
  store %"class.dealii::FullMatrix"* %3, %"class.dealii::FullMatrix"** %_M_finish, align 8, !dbg !10373
  %_M_impl5 = getelementptr inbounds %"struct.std::_Vector_base.87", %"struct.std::_Vector_base.87"* %this1, i32 0, i32 0, !dbg !10374
  %5 = bitcast %"struct.std::_Vector_base<dealii::FullMatrix<double>, std::allocator<dealii::FullMatrix<double> > >::_Vector_impl"* %_M_impl5 to %"struct.std::_Vector_base<dealii::FullMatrix<double>, std::allocator<dealii::FullMatrix<double> > >::_Vector_impl_data"*, !dbg !10375
  %_M_start6 = getelementptr inbounds %"struct.std::_Vector_base<dealii::FullMatrix<double>, std::allocator<dealii::FullMatrix<double> > >::_Vector_impl_data", %"struct.std::_Vector_base<dealii::FullMatrix<double>, std::allocator<dealii::FullMatrix<double> > >::_Vector_impl_data"* %5, i32 0, i32 0, !dbg !10376
