; ModuleID = 'source/libparest/slave/stationary/problem_description.cc'
source_filename = "source/libparest/slave/stationary/problem_description.cc"
target datalayout = "e-m:e-p270:32:32-p271:32:32-p272:64:64-i64:64-f80:128-n8:16:32:64-S128"
target triple = "x86_64-unknown-linux-gnu"

%"class.libparest::Slave::Stationary::ProblemDescription" = type { %"class.dealii::Subscriptor", i32, i32, i32, i32 }
%"class.dealii::Subscriptor" = type { i32 (...)**, i32, %"class.std::map", %"class.std::type_info"* }
%"class.std::map" = type { %"class.std::_Rb_tree" }
%"class.std::_Rb_tree" = type { %"struct.std::_Rb_tree<const char *, std::pair<const char *const, unsigned int>, std::_Select1st<std::pair<const char *const, unsigned int> >, std::less<const char *>, std::allocator<std::pair<const char *const, unsigned int> > >::_Rb_tree_impl" }
%"struct.std::_Rb_tree<const char *, std::pair<const char *const, unsigned int>, std::_Select1st<std::pair<const char *const, unsigned int> >, std::less<const char *>, std::allocator<std::pair<const char *const, unsigned int> > >::_Rb_tree_impl" = type { %"struct.std::_Rb_tree_key_compare", %"struct.std::_Rb_tree_header" }
%"struct.std::_Rb_tree_key_compare" = type { %"struct.std::less" }
%"struct.std::less" = type { i8 }
%"struct.std::_Rb_tree_header" = type { %"struct.std::_Rb_tree_node_base", i64 }
%"struct.std::_Rb_tree_node_base" = type { i32, %"struct.std::_Rb_tree_node_base"*, %"struct.std::_Rb_tree_node_base"*, %"struct.std::_Rb_tree_node_base"* }
%"class.std::type_info" = type { i32 (...)**, i8* }
%"class.std::vector" = type { %"struct.std::_Bvector_base" }
%"struct.std::_Bvector_base" = type { %"struct.std::_Bvector_base<std::allocator<bool> >::_Bvector_impl" }
%"struct.std::_Bvector_base<std::allocator<bool> >::_Bvector_impl" = type { %"struct.std::_Bvector_base<std::allocator<bool> >::_Bvector_impl_data" }
%"struct.std::_Bvector_base<std::allocator<bool> >::_Bvector_impl_data" = type { %"struct.std::_Bit_iterator", %"struct.std::_Bit_iterator", i64* }
%"struct.std::_Bit_iterator" = type { %"struct.std::_Bit_iterator_base.base", [4 x i8] }
%"struct.std::_Bit_iterator_base.base" = type <{ i64*, i32 }>
%"class.std::allocator.3" = type { i8 }
%"struct.std::_Bit_reference" = type { i64*, i64 }
%"class.__gnu_cxx::new_allocator.4" = type { i8 }
%"struct.std::_Bit_iterator_base" = type <{ i64*, i32, [4 x i8] }>
%"class.std::allocator.0" = type { i8 }
%"class.__gnu_cxx::new_allocator.1" = type { i8 }
%"struct.std::iterator" = type { i8 }

$_ZNSaIbEC2Ev = comdat any

$_ZNSt6vectorIbSaIbEEC2EmRKbRKS0_ = comdat any

$_ZNSaIbED2Ev = comdat any

$_ZNK9libparest5Slave10Stationary18ProblemDescription18is_primal_variableEj = comdat any

$_ZNSt6vectorIbSaIbEEixEm = comdat any

$_ZNSt14_Bit_referenceaSEb = comdat any

$_ZNSt6vectorIbSaIbEED2Ev = comdat any

$_ZNK9libparest5Slave10Stationary18ProblemDescription16is_dual_variableEj = comdat any

$_ZNK9libparest5Slave10Stationary18ProblemDescription21is_parameter_variableEj = comdat any

$_ZN9libparest5Slave10Stationary18ProblemDescriptionD2Ev = comdat any

$_ZN9libparest5Slave10Stationary18ProblemDescriptionD0Ev = comdat any

$_ZN9__gnu_cxx13new_allocatorIbEC2Ev = comdat any

$_ZN9__gnu_cxx13new_allocatorIbED2Ev = comdat any

$_ZNSt13_Bvector_baseISaIbEEC2ERKS0_ = comdat any

$_ZNSt6vectorIbSaIbEE13_M_initializeEm = comdat any

$_ZNSt6vectorIbSaIbEE19_M_initialize_valueEb = comdat any

$_ZNSt13_Bvector_baseISaIbEED2Ev = comdat any

$_ZNSaImEC2IbEERKSaIT_E = comdat any

$_ZNSt13_Bvector_baseISaIbEE13_Bvector_implC2ERKSaImE = comdat any

$_ZNSaImED2Ev = comdat any

$_ZN9__gnu_cxx13new_allocatorImEC2Ev = comdat any

$_ZNSaImEC2ERKS_ = comdat any

$_ZNSt13_Bvector_baseISaIbEE18_Bvector_impl_dataC2Ev = comdat any

$_ZN9__gnu_cxx13new_allocatorImEC2ERKS1_ = comdat any

$_ZNSt13_Bit_iteratorC2Ev = comdat any

$__clang_call_terminate = comdat any

$_ZNSt18_Bit_iterator_baseC2EPmj = comdat any

$_ZN9__gnu_cxx13new_allocatorImED2Ev = comdat any

$_ZNSt13_Bvector_baseISaIbEE11_M_allocateEm = comdat any

$_ZNSt13_Bvector_baseISaIbEE8_S_nwordEm = comdat any

$_ZSt11__addressofImEPT_RS0_ = comdat any

$_ZNSt13_Bit_iteratorC2EPmj = comdat any

$_ZStplRKSt13_Bit_iteratorl = comdat any

$_ZNSt16allocator_traitsISaImEE8allocateERS0_m = comdat any

$_ZN9__gnu_cxx13new_allocatorImE8allocateEmPKv = comdat any

$_ZNK9__gnu_cxx13new_allocatorImE11_M_max_sizeEv = comdat any

$_ZNSt13_Bit_iteratorpLEl = comdat any

$_ZNSt18_Bit_iterator_base7_M_incrEl = comdat any

$_ZNKSt13_Bvector_baseISaIbEE13_Bvector_impl11_M_end_addrEv = comdat any

$_ZNSt13_Bvector_baseISaIbEE13_M_deallocateEv = comdat any

$_ZNSt13_Bvector_baseISaIbEE13_Bvector_implD2Ev = comdat any

$_ZNSt16allocator_traitsISaImEE10deallocateERS0_Pmm = comdat any

$_ZNSt13_Bvector_baseISaIbEE18_Bvector_impl_data8_M_resetEv = comdat any

$_ZN9__gnu_cxx13new_allocatorImE10deallocateEPmm = comdat any

$_ZNKSt13_Bit_iteratordeEv = comdat any

$_ZNSt14_Bit_referenceC2EPmm = comdat any

$_ZTVN9libparest5Slave10Stationary18ProblemDescriptionE = comdat any

$_ZTSN9libparest5Slave10Stationary18ProblemDescriptionE = comdat any

$_ZTIN9libparest5Slave10Stationary18ProblemDescriptionE = comdat any

@_ZTVN9libparest5Slave10Stationary18ProblemDescriptionE = linkonce_odr dso_local unnamed_addr constant { [4 x i8*] } { [4 x i8*] [i8* null, i8* bitcast ({ i8*, i8*, i8* }* @_ZTIN9libparest5Slave10Stationary18ProblemDescriptionE to i8*), i8* bitcast (void (%"class.libparest::Slave::Stationary::ProblemDescription"*)* @_ZN9libparest5Slave10Stationary18ProblemDescriptionD2Ev to i8*), i8* bitcast (void (%"class.libparest::Slave::Stationary::ProblemDescription"*)* @_ZN9libparest5Slave10Stationary18ProblemDescriptionD0Ev to i8*)] }, comdat, align 8
@_ZTVN10__cxxabiv120__si_class_type_infoE = external dso_local global i8*
@_ZTSN9libparest5Slave10Stationary18ProblemDescriptionE = linkonce_odr dso_local constant [51 x i8] c"N9libparest5Slave10Stationary18ProblemDescriptionE\00", comdat, align 1
@_ZTIN6dealii11SubscriptorE = external dso_local constant i8*
@_ZTIN9libparest5Slave10Stationary18ProblemDescriptionE = linkonce_odr dso_local constant { i8*, i8*, i8* } { i8* bitcast (i8** getelementptr inbounds (i8*, i8** @_ZTVN10__cxxabiv120__si_class_type_infoE, i64 2) to i8*), i8* getelementptr inbounds ([51 x i8], [51 x i8]* @_ZTSN9libparest5Slave10Stationary18ProblemDescriptionE, i32 0, i32 0), i8* bitcast (i8** @_ZTIN6dealii11SubscriptorE to i8*) }, comdat, align 8

@_ZN9libparest5Slave10Stationary18ProblemDescriptionC1Ejjj = dso_local unnamed_addr alias void (%"class.libparest::Slave::Stationary::ProblemDescription"*, i32, i32, i32), void (%"class.libparest::Slave::Stationary::ProblemDescription"*, i32, i32, i32)* @_ZN9libparest5Slave10Stationary18ProblemDescriptionC2Ejjj

; Function Attrs: noinline uwtable
define dso_local void @_ZN9libparest5Slave10Stationary18ProblemDescriptionC2Ejjj(%"class.libparest::Slave::Stationary::ProblemDescription"* %this, i32 %n_primal_variables, i32 %n_dual_variables, i32 %n_parameter_variables) unnamed_addr #0 align 2 !dbg !1246 {
entry:
  %this.addr = alloca %"class.libparest::Slave::Stationary::ProblemDescription"*, align 8
  %n_primal_variables.addr = alloca i32, align 4
  %n_dual_variables.addr = alloca i32, align 4
  %n_parameter_variables.addr = alloca i32, align 4
  store %"class.libparest::Slave::Stationary::ProblemDescription"* %this, %"class.libparest::Slave::Stationary::ProblemDescription"** %this.addr, align 8
  call void @llvm.dbg.declare(metadata %"class.libparest::Slave::Stationary::ProblemDescription"** %this.addr, metadata !2055, metadata !DIExpression()), !dbg !2057
  store i32 %n_primal_variables, i32* %n_primal_variables.addr, align 4
  call void @llvm.dbg.declare(metadata i32* %n_primal_variables.addr, metadata !2058, metadata !DIExpression()), !dbg !2059
  store i32 %n_dual_variables, i32* %n_dual_variables.addr, align 4
  call void @llvm.dbg.declare(metadata i32* %n_dual_variables.addr, metadata !2060, metadata !DIExpression()), !dbg !2061
  store i32 %n_parameter_variables, i32* %n_parameter_variables.addr, align 4
  call void @llvm.dbg.declare(metadata i32* %n_parameter_variables.addr, metadata !2062, metadata !DIExpression()), !dbg !2063
  %this1 = load %"class.libparest::Slave::Stationary::ProblemDescription"*, %"class.libparest::Slave::Stationary::ProblemDescription"** %this.addr, align 8
  %0 = bitcast %"class.libparest::Slave::Stationary::ProblemDescription"* %this1 to %"class.dealii::Subscriptor"*, !dbg !2064
  call void @_ZN6dealii11SubscriptorC2Ev(%"class.dealii::Subscriptor"* %0), !dbg !2065
  %1 = bitcast %"class.libparest::Slave::Stationary::ProblemDescription"* %this1 to i32 (...)***, !dbg !2064
  store i32 (...)** bitcast (i8** getelementptr inbounds ({ [4 x i8*] }, { [4 x i8*] }* @_ZTVN9libparest5Slave10Stationary18ProblemDescriptionE, i32 0, inrange i32 0, i32 2) to i32 (...)**), i32 (...)*** %1, align 8, !dbg !2064
  %n_primal_variables2 = getelementptr inbounds %"class.libparest::Slave::Stationary::ProblemDescription", %"class.libparest::Slave::Stationary::ProblemDescription"* %this1, i32 0, i32 1, !dbg !2066
  %2 = load i32, i32* %n_primal_variables.addr, align 4, !dbg !2067
  store i32 %2, i32* %n_primal_variables2, align 8, !dbg !2066
  %n_dual_variables3 = getelementptr inbounds %"class.libparest::Slave::Stationary::ProblemDescription", %"class.libparest::Slave::Stationary::ProblemDescription"* %this1, i32 0, i32 2, !dbg !2068
  %3 = load i32, i32* %n_dual_variables.addr, align 4, !dbg !2069
  store i32 %3, i32* %n_dual_variables3, align 4, !dbg !2068
  %n_parameter_variables4 = getelementptr inbounds %"class.libparest::Slave::Stationary::ProblemDescription", %"class.libparest::Slave::Stationary::ProblemDescription"* %this1, i32 0, i32 3, !dbg !2070
  %4 = load i32, i32* %n_parameter_variables.addr, align 4, !dbg !2071
  store i32 %4, i32* %n_parameter_variables4, align 8, !dbg !2070
  %n_variables = getelementptr inbounds %"class.libparest::Slave::Stationary::ProblemDescription", %"class.libparest::Slave::Stationary::ProblemDescription"* %this1, i32 0, i32 4, !dbg !2072
  %5 = load i32, i32* %n_primal_variables.addr, align 4, !dbg !2073
  %6 = load i32, i32* %n_dual_variables.addr, align 4, !dbg !2074
  %add = add i32 %5, %6, !dbg !2075
  %7 = load i32, i32* %n_parameter_variables.addr, align 4, !dbg !2076
  %add5 = add i32 %add, %7, !dbg !2077
  store i32 %add5, i32* %n_variables, align 4, !dbg !2072
  ret void, !dbg !2078
}

; Function Attrs: nounwind readnone speculatable willreturn
declare void @llvm.dbg.declare(metadata, metadata, metadata) #1

declare dso_local void @_ZN6dealii11SubscriptorC2Ev(%"class.dealii::Subscriptor"*) unnamed_addr #2

; Function Attrs: noinline uwtable
define dso_local void @_ZNK9libparest5Slave10Stationary18ProblemDescription20get_primal_variablesEv(%"class.std::vector"* noalias sret %agg.result, %"class.libparest::Slave::Stationary::ProblemDescription"* %this) #0 align 2 personality i8* bitcast (i32 (...)* @__gxx_personality_v0 to i8*) !dbg !2079 {
entry:
  %result.ptr = alloca i8*, align 8
  %this.addr = alloca %"class.libparest::Slave::Stationary::ProblemDescription"*, align 8
  %nrvo = alloca i1, align 1
  %ref.tmp = alloca i8, align 1
  %ref.tmp2 = alloca %"class.std::allocator.3", align 1
  %exn.slot = alloca i8*
  %ehselector.slot = alloca i32
  %i = alloca i32, align 4
  %ref.tmp8 = alloca %"struct.std::_Bit_reference", align 8
  %0 = bitcast %"class.std::vector"* %agg.result to i8*
  store i8* %0, i8** %result.ptr, align 8
  store %"class.libparest::Slave::Stationary::ProblemDescription"* %this, %"class.libparest::Slave::Stationary::ProblemDescription"** %this.addr, align 8
  call void @llvm.dbg.declare(metadata %"class.libparest::Slave::Stationary::ProblemDescription"** %this.addr, metadata !2080, metadata !DIExpression()), !dbg !2082
  %this1 = load %"class.libparest::Slave::Stationary::ProblemDescription"*, %"class.libparest::Slave::Stationary::ProblemDescription"** %this.addr, align 8
  store i1 false, i1* %nrvo, align 1, !dbg !2083
  call void @llvm.dbg.declare(metadata i8** %result.ptr, metadata !2084, metadata !DIExpression(DW_OP_deref)), !dbg !2085
  %n_variables = getelementptr inbounds %"class.libparest::Slave::Stationary::ProblemDescription", %"class.libparest::Slave::Stationary::ProblemDescription"* %this1, i32 0, i32 4, !dbg !2086
  %1 = load i32, i32* %n_variables, align 4, !dbg !2086
  %conv = zext i32 %1 to i64, !dbg !2086
  store i8 0, i8* %ref.tmp, align 1, !dbg !2087
  call void @_ZNSaIbEC2Ev(%"class.std::allocator.3"* %ref.tmp2) #10, !dbg !2085
  invoke void @_ZNSt6vectorIbSaIbEEC2EmRKbRKS0_(%"class.std::vector"* %agg.result, i64 %conv, i8* dereferenceable(1) %ref.tmp, %"class.std::allocator.3"* dereferenceable(1) %ref.tmp2)
          to label %invoke.cont unwind label %lpad, !dbg !2085

invoke.cont:                                      ; preds = %entry
  call void @_ZNSaIbED2Ev(%"class.std::allocator.3"* %ref.tmp2) #10, !dbg !2085
  call void @llvm.dbg.declare(metadata i32* %i, metadata !2088, metadata !DIExpression()), !dbg !2090
  store i32 0, i32* %i, align 4, !dbg !2090
  br label %for.cond, !dbg !2091

for.cond:                                         ; preds = %for.inc, %invoke.cont
  %2 = load i32, i32* %i, align 4, !dbg !2092
  %n_variables3 = getelementptr inbounds %"class.libparest::Slave::Stationary::ProblemDescription", %"class.libparest::Slave::Stationary::ProblemDescription"* %this1, i32 0, i32 4, !dbg !2094
  %3 = load i32, i32* %n_variables3, align 4, !dbg !2094
  %cmp = icmp ult i32 %2, %3, !dbg !2095
  br i1 %cmp, label %for.body, label %for.end, !dbg !2096

for.body:                                         ; preds = %for.cond
  %4 = load i32, i32* %i, align 4, !dbg !2097
  %call = invoke zeroext i1 @_ZNK9libparest5Slave10Stationary18ProblemDescription18is_primal_variableEj(%"class.libparest::Slave::Stationary::ProblemDescription"* %this1, i32 %4)
          to label %invoke.cont5 unwind label %lpad4, !dbg !2098

invoke.cont5:                                     ; preds = %for.body
  %conv6 = zext i1 %call to i32, !dbg !2098
  %cmp7 = icmp eq i32 %conv6, 1, !dbg !2099
  %5 = load i32, i32* %i, align 4, !dbg !2100
  %conv9 = zext i32 %5 to i64, !dbg !2100
  %call11 = invoke { i64*, i64 } @_ZNSt6vectorIbSaIbEEixEm(%"class.std::vector"* %agg.result, i64 %conv9)
          to label %invoke.cont10 unwind label %lpad4, !dbg !2101

invoke.cont10:                                    ; preds = %invoke.cont5
  %6 = bitcast %"struct.std::_Bit_reference"* %ref.tmp8 to { i64*, i64 }*, !dbg !2101
  %7 = getelementptr inbounds { i64*, i64 }, { i64*, i64 }* %6, i32 0, i32 0, !dbg !2101
  %8 = extractvalue { i64*, i64 } %call11, 0, !dbg !2101
  store i64* %8, i64** %7, align 8, !dbg !2101
  %9 = getelementptr inbounds { i64*, i64 }, { i64*, i64 }* %6, i32 0, i32 1, !dbg !2101
  %10 = extractvalue { i64*, i64 } %call11, 1, !dbg !2101
  store i64 %10, i64* %9, align 8, !dbg !2101
  %call12 = call dereferenceable(16) %"struct.std::_Bit_reference"* @_ZNSt14_Bit_referenceaSEb(%"struct.std::_Bit_reference"* %ref.tmp8, i1 zeroext %cmp7) #10, !dbg !2102
  br label %for.inc, !dbg !2101

for.inc:                                          ; preds = %invoke.cont10
  %11 = load i32, i32* %i, align 4, !dbg !2103
  %inc = add i32 %11, 1, !dbg !2103
  store i32 %inc, i32* %i, align 4, !dbg !2103
  br label %for.cond, !dbg !2104, !llvm.loop !2105

lpad:                                             ; preds = %entry
  %12 = landingpad { i8*, i32 }
          cleanup, !dbg !2107
  %13 = extractvalue { i8*, i32 } %12, 0, !dbg !2107
  store i8* %13, i8** %exn.slot, align 8, !dbg !2107
  %14 = extractvalue { i8*, i32 } %12, 1, !dbg !2107
  store i32 %14, i32* %ehselector.slot, align 4, !dbg !2107
  call void @_ZNSaIbED2Ev(%"class.std::allocator.3"* %ref.tmp2) #10, !dbg !2085
  br label %eh.resume, !dbg !2085

lpad4:                                            ; preds = %invoke.cont5, %for.body
  %15 = landingpad { i8*, i32 }
          cleanup, !dbg !2108
  %16 = extractvalue { i8*, i32 } %15, 0, !dbg !2108
  store i8* %16, i8** %exn.slot, align 8, !dbg !2108
  %17 = extractvalue { i8*, i32 } %15, 1, !dbg !2108
  store i32 %17, i32* %ehselector.slot, align 4, !dbg !2108
  call void @_ZNSt6vectorIbSaIbEED2Ev(%"class.std::vector"* %agg.result) #10, !dbg !2107
  br label %eh.resume, !dbg !2107

for.end:                                          ; preds = %for.cond
  store i1 true, i1* %nrvo, align 1, !dbg !2109
  %nrvo.val = load i1, i1* %nrvo, align 1, !dbg !2107
  br i1 %nrvo.val, label %nrvo.skipdtor, label %nrvo.unused, !dbg !2107

nrvo.unused:                                      ; preds = %for.end
  call void @_ZNSt6vectorIbSaIbEED2Ev(%"class.std::vector"* %agg.result) #10, !dbg !2107
  br label %nrvo.skipdtor, !dbg !2107

nrvo.skipdtor:                                    ; preds = %nrvo.unused, %for.end
  ret void, !dbg !2107

eh.resume:                                        ; preds = %lpad4, %lpad
  %exn = load i8*, i8** %exn.slot, align 8, !dbg !2085
  %sel = load i32, i32* %ehselector.slot, align 4, !dbg !2085
  %lpad.val = insertvalue { i8*, i32 } undef, i8* %exn, 0, !dbg !2085
  %lpad.val13 = insertvalue { i8*, i32 } %lpad.val, i32 %sel, 1, !dbg !2085
  resume { i8*, i32 } %lpad.val13, !dbg !2085
}

; Function Attrs: noinline nounwind uwtable
define linkonce_odr dso_local void @_ZNSaIbEC2Ev(%"class.std::allocator.3"* %this) unnamed_addr #3 comdat align 2 !dbg !2110 {
entry:
  %this.addr = alloca %"class.std::allocator.3"*, align 8
  store %"class.std::allocator.3"* %this, %"class.std::allocator.3"** %this.addr, align 8
  call void @llvm.dbg.declare(metadata %"class.std::allocator.3"** %this.addr, metadata !2111, metadata !DIExpression()), !dbg !2113
  %this1 = load %"class.std::allocator.3"*, %"class.std::allocator.3"** %this.addr, align 8
  %0 = bitcast %"class.std::allocator.3"* %this1 to %"class.__gnu_cxx::new_allocator.4"*, !dbg !2114
  call void @_ZN9__gnu_cxx13new_allocatorIbEC2Ev(%"class.__gnu_cxx::new_allocator.4"* %0) #10, !dbg !2115
  ret void, !dbg !2116
}

; Function Attrs: noinline uwtable
define linkonce_odr dso_local void @_ZNSt6vectorIbSaIbEEC2EmRKbRKS0_(%"class.std::vector"* %this, i64 %__n, i8* dereferenceable(1) %__value, %"class.std::allocator.3"* dereferenceable(1) %__a) unnamed_addr #0 comdat align 2 personality i8* bitcast (i32 (...)* @__gxx_personality_v0 to i8*) !dbg !2117 {
entry:
  %this.addr = alloca %"class.std::vector"*, align 8
  %__n.addr = alloca i64, align 8
  %__value.addr = alloca i8*, align 8
  %__a.addr = alloca %"class.std::allocator.3"*, align 8
  %exn.slot = alloca i8*
  %ehselector.slot = alloca i32
  store %"class.std::vector"* %this, %"class.std::vector"** %this.addr, align 8
  call void @llvm.dbg.declare(metadata %"class.std::vector"** %this.addr, metadata !2118, metadata !DIExpression()), !dbg !2120
  store i64 %__n, i64* %__n.addr, align 8
  call void @llvm.dbg.declare(metadata i64* %__n.addr, metadata !2121, metadata !DIExpression()), !dbg !2122
  store i8* %__value, i8** %__value.addr, align 8
  call void @llvm.dbg.declare(metadata i8** %__value.addr, metadata !2123, metadata !DIExpression()), !dbg !2124
  store %"class.std::allocator.3"* %__a, %"class.std::allocator.3"** %__a.addr, align 8
  call void @llvm.dbg.declare(metadata %"class.std::allocator.3"** %__a.addr, metadata !2125, metadata !DIExpression()), !dbg !2126
  %this1 = load %"class.std::vector"*, %"class.std::vector"** %this.addr, align 8
  %0 = bitcast %"class.std::vector"* %this1 to %"struct.std::_Bvector_base"*, !dbg !2127
  %1 = load %"class.std::allocator.3"*, %"class.std::allocator.3"** %__a.addr, align 8, !dbg !2128
  call void @_ZNSt13_Bvector_baseISaIbEEC2ERKS0_(%"struct.std::_Bvector_base"* %0, %"class.std::allocator.3"* dereferenceable(1) %1), !dbg !2129
  %2 = load i64, i64* %__n.addr, align 8, !dbg !2130
  invoke void @_ZNSt6vectorIbSaIbEE13_M_initializeEm(%"class.std::vector"* %this1, i64 %2)
          to label %invoke.cont unwind label %lpad, !dbg !2132

invoke.cont:                                      ; preds = %entry
  %3 = load i8*, i8** %__value.addr, align 8, !dbg !2133
  %4 = load i8, i8* %3, align 1, !dbg !2133
  %tobool = trunc i8 %4 to i1, !dbg !2133
  invoke void @_ZNSt6vectorIbSaIbEE19_M_initialize_valueEb(%"class.std::vector"* %this1, i1 zeroext %tobool)
          to label %invoke.cont2 unwind label %lpad, !dbg !2134

invoke.cont2:                                     ; preds = %invoke.cont
  ret void, !dbg !2135

lpad:                                             ; preds = %invoke.cont, %entry
  %5 = landingpad { i8*, i32 }
          cleanup, !dbg !2136
  %6 = extractvalue { i8*, i32 } %5, 0, !dbg !2136
  store i8* %6, i8** %exn.slot, align 8, !dbg !2136
  %7 = extractvalue { i8*, i32 } %5, 1, !dbg !2136
  store i32 %7, i32* %ehselector.slot, align 4, !dbg !2136
  %8 = bitcast %"class.std::vector"* %this1 to %"struct.std::_Bvector_base"*, !dbg !2136
  call void @_ZNSt13_Bvector_baseISaIbEED2Ev(%"struct.std::_Bvector_base"* %8) #10, !dbg !2136
  br label %eh.resume, !dbg !2136

eh.resume:                                        ; preds = %lpad
  %exn = load i8*, i8** %exn.slot, align 8, !dbg !2136
  %sel = load i32, i32* %ehselector.slot, align 4, !dbg !2136
  %lpad.val = insertvalue { i8*, i32 } undef, i8* %exn, 0, !dbg !2136
  %lpad.val3 = insertvalue { i8*, i32 } %lpad.val, i32 %sel, 1, !dbg !2136
  resume { i8*, i32 } %lpad.val3, !dbg !2136
}

declare dso_local i32 @__gxx_personality_v0(...)

; Function Attrs: noinline nounwind uwtable
define linkonce_odr dso_local void @_ZNSaIbED2Ev(%"class.std::allocator.3"* %this) unnamed_addr #3 comdat align 2 !dbg !2137 {
entry:
  %this.addr = alloca %"class.std::allocator.3"*, align 8
  store %"class.std::allocator.3"* %this, %"class.std::allocator.3"** %this.addr, align 8
  call void @llvm.dbg.declare(metadata %"class.std::allocator.3"** %this.addr, metadata !2138, metadata !DIExpression()), !dbg !2139
  %this1 = load %"class.std::allocator.3"*, %"class.std::allocator.3"** %this.addr, align 8
  %0 = bitcast %"class.std::allocator.3"* %this1 to %"class.__gnu_cxx::new_allocator.4"*, !dbg !2140
  call void @_ZN9__gnu_cxx13new_allocatorIbED2Ev(%"class.__gnu_cxx::new_allocator.4"* %0) #10, !dbg !2140
  ret void, !dbg !2142
}

; Function Attrs: noinline nounwind uwtable
define linkonce_odr dso_local zeroext i1 @_ZNK9libparest5Slave10Stationary18ProblemDescription18is_primal_variableEj(%"class.libparest::Slave::Stationary::ProblemDescription"* %this, i32 %n) #3 comdat align 2 !dbg !2143 {
entry:
  %this.addr = alloca %"class.libparest::Slave::Stationary::ProblemDescription"*, align 8
  %n.addr = alloca i32, align 4
  store %"class.libparest::Slave::Stationary::ProblemDescription"* %this, %"class.libparest::Slave::Stationary::ProblemDescription"** %this.addr, align 8
  call void @llvm.dbg.declare(metadata %"class.libparest::Slave::Stationary::ProblemDescription"** %this.addr, metadata !2144, metadata !DIExpression()), !dbg !2145
  store i32 %n, i32* %n.addr, align 4
  call void @llvm.dbg.declare(metadata i32* %n.addr, metadata !2146, metadata !DIExpression()), !dbg !2147
  %this1 = load %"class.libparest::Slave::Stationary::ProblemDescription"*, %"class.libparest::Slave::Stationary::ProblemDescription"** %this.addr, align 8
  %0 = load i32, i32* %n.addr, align 4, !dbg !2148
  %n_primal_variables = getelementptr inbounds %"class.libparest::Slave::Stationary::ProblemDescription", %"class.libparest::Slave::Stationary::ProblemDescription"* %this1, i32 0, i32 1, !dbg !2149
  %1 = load i32, i32* %n_primal_variables, align 8, !dbg !2149
  %cmp = icmp ult i32 %0, %1, !dbg !2150
  ret i1 %cmp, !dbg !2151
}

; Function Attrs: noinline uwtable
define linkonce_odr dso_local { i64*, i64 } @_ZNSt6vectorIbSaIbEEixEm(%"class.std::vector"* %this, i64 %__n) #0 comdat align 2 !dbg !2152 {
entry:
  %retval = alloca %"struct.std::_Bit_reference", align 8
  %this.addr = alloca %"class.std::vector"*, align 8
  %__n.addr = alloca i64, align 8
  %ref.tmp = alloca %"struct.std::_Bit_iterator", align 8
  store %"class.std::vector"* %this, %"class.std::vector"** %this.addr, align 8
  call void @llvm.dbg.declare(metadata %"class.std::vector"** %this.addr, metadata !2153, metadata !DIExpression()), !dbg !2154
  store i64 %__n, i64* %__n.addr, align 8
  call void @llvm.dbg.declare(metadata i64* %__n.addr, metadata !2155, metadata !DIExpression()), !dbg !2156
  %this1 = load %"class.std::vector"*, %"class.std::vector"** %this.addr, align 8
  %0 = bitcast %"class.std::vector"* %this1 to %"struct.std::_Bvector_base"*, !dbg !2157
  %_M_impl = getelementptr inbounds %"struct.std::_Bvector_base", %"struct.std::_Bvector_base"* %0, i32 0, i32 0, !dbg !2157
  %1 = bitcast %"struct.std::_Bvector_base<std::allocator<bool> >::_Bvector_impl"* %_M_impl to %"struct.std::_Bvector_base<std::allocator<bool> >::_Bvector_impl_data"*, !dbg !2158
  %_M_start = getelementptr inbounds %"struct.std::_Bvector_base<std::allocator<bool> >::_Bvector_impl_data", %"struct.std::_Bvector_base<std::allocator<bool> >::_Bvector_impl_data"* %1, i32 0, i32 0, !dbg !2159
  %2 = bitcast %"struct.std::_Bit_iterator"* %_M_start to %"struct.std::_Bit_iterator_base"*, !dbg !2158
  %_M_p = getelementptr inbounds %"struct.std::_Bit_iterator_base", %"struct.std::_Bit_iterator_base"* %2, i32 0, i32 0, !dbg !2160
  %3 = load i64*, i64** %_M_p, align 8, !dbg !2160
  %4 = load i64, i64* %__n.addr, align 8, !dbg !2161
  %div = udiv i64 %4, 64, !dbg !2162
  %add.ptr = getelementptr inbounds i64, i64* %3, i64 %div, !dbg !2163
  %5 = load i64, i64* %__n.addr, align 8, !dbg !2164
  %rem = urem i64 %5, 64, !dbg !2165
  %conv = trunc i64 %rem to i32, !dbg !2164
  call void @_ZNSt13_Bit_iteratorC2EPmj(%"struct.std::_Bit_iterator"* %ref.tmp, i64* %add.ptr, i32 %conv), !dbg !2166
  %call = call { i64*, i64 } @_ZNKSt13_Bit_iteratordeEv(%"struct.std::_Bit_iterator"* %ref.tmp), !dbg !2167
  %6 = bitcast %"struct.std::_Bit_reference"* %retval to { i64*, i64 }*, !dbg !2167
  %7 = getelementptr inbounds { i64*, i64 }, { i64*, i64 }* %6, i32 0, i32 0, !dbg !2167
  %8 = extractvalue { i64*, i64 } %call, 0, !dbg !2167
  store i64* %8, i64** %7, align 8, !dbg !2167
  %9 = getelementptr inbounds { i64*, i64 }, { i64*, i64 }* %6, i32 0, i32 1, !dbg !2167
  %10 = extractvalue { i64*, i64 } %call, 1, !dbg !2167
  store i64 %10, i64* %9, align 8, !dbg !2167
  %11 = bitcast %"struct.std::_Bit_reference"* %retval to { i64*, i64 }*, !dbg !2168
  %12 = load { i64*, i64 }, { i64*, i64 }* %11, align 8, !dbg !2168
  ret { i64*, i64 } %12, !dbg !2168
}

; Function Attrs: noinline nounwind uwtable
define linkonce_odr dso_local dereferenceable(16) %"struct.std::_Bit_reference"* @_ZNSt14_Bit_referenceaSEb(%"struct.std::_Bit_reference"* %this, i1 zeroext %__x) #3 comdat align 2 !dbg !2169 {
entry:
  %this.addr = alloca %"struct.std::_Bit_reference"*, align 8
  %__x.addr = alloca i8, align 1
  store %"struct.std::_Bit_reference"* %this, %"struct.std::_Bit_reference"** %this.addr, align 8
  call void @llvm.dbg.declare(metadata %"struct.std::_Bit_reference"** %this.addr, metadata !2170, metadata !DIExpression()), !dbg !2171
  %frombool = zext i1 %__x to i8
  store i8 %frombool, i8* %__x.addr, align 1
  call void @llvm.dbg.declare(metadata i8* %__x.addr, metadata !2172, metadata !DIExpression()), !dbg !2173
  %this1 = load %"struct.std::_Bit_reference"*, %"struct.std::_Bit_reference"** %this.addr, align 8
  %0 = load i8, i8* %__x.addr, align 1, !dbg !2174
  %tobool = trunc i8 %0 to i1, !dbg !2174
  br i1 %tobool, label %if.then, label %if.else, !dbg !2176

if.then:                                          ; preds = %entry
  %_M_mask = getelementptr inbounds %"struct.std::_Bit_reference", %"struct.std::_Bit_reference"* %this1, i32 0, i32 1, !dbg !2177
  %1 = load i64, i64* %_M_mask, align 8, !dbg !2177
  %_M_p = getelementptr inbounds %"struct.std::_Bit_reference", %"struct.std::_Bit_reference"* %this1, i32 0, i32 0, !dbg !2178
  %2 = load i64*, i64** %_M_p, align 8, !dbg !2178
  %3 = load i64, i64* %2, align 8, !dbg !2179
  %or = or i64 %3, %1, !dbg !2179
  store i64 %or, i64* %2, align 8, !dbg !2179
  br label %if.end, !dbg !2180

if.else:                                          ; preds = %entry
  %_M_mask2 = getelementptr inbounds %"struct.std::_Bit_reference", %"struct.std::_Bit_reference"* %this1, i32 0, i32 1, !dbg !2181
  %4 = load i64, i64* %_M_mask2, align 8, !dbg !2181
  %neg = xor i64 %4, -1, !dbg !2182
  %_M_p3 = getelementptr inbounds %"struct.std::_Bit_reference", %"struct.std::_Bit_reference"* %this1, i32 0, i32 0, !dbg !2183
  %5 = load i64*, i64** %_M_p3, align 8, !dbg !2183
  %6 = load i64, i64* %5, align 8, !dbg !2184
  %and = and i64 %6, %neg, !dbg !2184
  store i64 %and, i64* %5, align 8, !dbg !2184
  br label %if.end

if.end:                                           ; preds = %if.else, %if.then
  ret %"struct.std::_Bit_reference"* %this1, !dbg !2185
}

; Function Attrs: noinline nounwind uwtable
define linkonce_odr dso_local void @_ZNSt6vectorIbSaIbEED2Ev(%"class.std::vector"* %this) unnamed_addr #3 comdat align 2 !dbg !2186 {
entry:
  %this.addr = alloca %"class.std::vector"*, align 8
  store %"class.std::vector"* %this, %"class.std::vector"** %this.addr, align 8
  call void @llvm.dbg.declare(metadata %"class.std::vector"** %this.addr, metadata !2187, metadata !DIExpression()), !dbg !2188
  %this1 = load %"class.std::vector"*, %"class.std::vector"** %this.addr, align 8
  %0 = bitcast %"class.std::vector"* %this1 to %"struct.std::_Bvector_base"*, !dbg !2189
  call void @_ZNSt13_Bvector_baseISaIbEED2Ev(%"struct.std::_Bvector_base"* %0) #10, !dbg !2189
  ret void, !dbg !2191
}

; Function Attrs: noinline uwtable
define dso_local void @_ZNK9libparest5Slave10Stationary18ProblemDescription18get_dual_variablesEv(%"class.std::vector"* noalias sret %agg.result, %"class.libparest::Slave::Stationary::ProblemDescription"* %this) #0 align 2 personality i8* bitcast (i32 (...)* @__gxx_personality_v0 to i8*) !dbg !2192 {
entry:
  %result.ptr = alloca i8*, align 8
  %this.addr = alloca %"class.libparest::Slave::Stationary::ProblemDescription"*, align 8
  %nrvo = alloca i1, align 1
  %ref.tmp = alloca i8, align 1
  %ref.tmp2 = alloca %"class.std::allocator.3", align 1
  %exn.slot = alloca i8*
  %ehselector.slot = alloca i32
  %i = alloca i32, align 4
  %ref.tmp8 = alloca %"struct.std::_Bit_reference", align 8
  %0 = bitcast %"class.std::vector"* %agg.result to i8*
  store i8* %0, i8** %result.ptr, align 8
  store %"class.libparest::Slave::Stationary::ProblemDescription"* %this, %"class.libparest::Slave::Stationary::ProblemDescription"** %this.addr, align 8
  call void @llvm.dbg.declare(metadata %"class.libparest::Slave::Stationary::ProblemDescription"** %this.addr, metadata !2193, metadata !DIExpression()), !dbg !2194
  %this1 = load %"class.libparest::Slave::Stationary::ProblemDescription"*, %"class.libparest::Slave::Stationary::ProblemDescription"** %this.addr, align 8
  store i1 false, i1* %nrvo, align 1, !dbg !2195
  call void @llvm.dbg.declare(metadata i8** %result.ptr, metadata !2196, metadata !DIExpression(DW_OP_deref)), !dbg !2197
  %n_variables = getelementptr inbounds %"class.libparest::Slave::Stationary::ProblemDescription", %"class.libparest::Slave::Stationary::ProblemDescription"* %this1, i32 0, i32 4, !dbg !2198
  %1 = load i32, i32* %n_variables, align 4, !dbg !2198
  %conv = zext i32 %1 to i64, !dbg !2198
  store i8 0, i8* %ref.tmp, align 1, !dbg !2199
  call void @_ZNSaIbEC2Ev(%"class.std::allocator.3"* %ref.tmp2) #10, !dbg !2197
  invoke void @_ZNSt6vectorIbSaIbEEC2EmRKbRKS0_(%"class.std::vector"* %agg.result, i64 %conv, i8* dereferenceable(1) %ref.tmp, %"class.std::allocator.3"* dereferenceable(1) %ref.tmp2)
          to label %invoke.cont unwind label %lpad, !dbg !2197

invoke.cont:                                      ; preds = %entry
  call void @_ZNSaIbED2Ev(%"class.std::allocator.3"* %ref.tmp2) #10, !dbg !2197
  call void @llvm.dbg.declare(metadata i32* %i, metadata !2200, metadata !DIExpression()), !dbg !2202
  store i32 0, i32* %i, align 4, !dbg !2202
  br label %for.cond, !dbg !2203

for.cond:                                         ; preds = %for.inc, %invoke.cont
  %2 = load i32, i32* %i, align 4, !dbg !2204
  %n_variables3 = getelementptr inbounds %"class.libparest::Slave::Stationary::ProblemDescription", %"class.libparest::Slave::Stationary::ProblemDescription"* %this1, i32 0, i32 4, !dbg !2206
  %3 = load i32, i32* %n_variables3, align 4, !dbg !2206
  %cmp = icmp ult i32 %2, %3, !dbg !2207
  br i1 %cmp, label %for.body, label %for.end, !dbg !2208

for.body:                                         ; preds = %for.cond
  %4 = load i32, i32* %i, align 4, !dbg !2209
  %call = invoke zeroext i1 @_ZNK9libparest5Slave10Stationary18ProblemDescription16is_dual_variableEj(%"class.libparest::Slave::Stationary::ProblemDescription"* %this1, i32 %4)
          to label %invoke.cont5 unwind label %lpad4, !dbg !2210

invoke.cont5:                                     ; preds = %for.body
  %conv6 = zext i1 %call to i32, !dbg !2210
  %cmp7 = icmp eq i32 %conv6, 1, !dbg !2211
  %5 = load i32, i32* %i, align 4, !dbg !2212
  %conv9 = zext i32 %5 to i64, !dbg !2212
  %call11 = invoke { i64*, i64 } @_ZNSt6vectorIbSaIbEEixEm(%"class.std::vector"* %agg.result, i64 %conv9)
          to label %invoke.cont10 unwind label %lpad4, !dbg !2213

invoke.cont10:                                    ; preds = %invoke.cont5
  %6 = bitcast %"struct.std::_Bit_reference"* %ref.tmp8 to { i64*, i64 }*, !dbg !2213
  %7 = getelementptr inbounds { i64*, i64 }, { i64*, i64 }* %6, i32 0, i32 0, !dbg !2213
  %8 = extractvalue { i64*, i64 } %call11, 0, !dbg !2213
  store i64* %8, i64** %7, align 8, !dbg !2213
  %9 = getelementptr inbounds { i64*, i64 }, { i64*, i64 }* %6, i32 0, i32 1, !dbg !2213
  %10 = extractvalue { i64*, i64 } %call11, 1, !dbg !2213
  store i64 %10, i64* %9, align 8, !dbg !2213
  %call12 = call dereferenceable(16) %"struct.std::_Bit_reference"* @_ZNSt14_Bit_referenceaSEb(%"struct.std::_Bit_reference"* %ref.tmp8, i1 zeroext %cmp7) #10, !dbg !2214
  br label %for.inc, !dbg !2213

for.inc:                                          ; preds = %invoke.cont10
  %11 = load i32, i32* %i, align 4, !dbg !2215
  %inc = add i32 %11, 1, !dbg !2215
  store i32 %inc, i32* %i, align 4, !dbg !2215
  br label %for.cond, !dbg !2216, !llvm.loop !2217

lpad:                                             ; preds = %entry
  %12 = landingpad { i8*, i32 }
          cleanup, !dbg !2219
  %13 = extractvalue { i8*, i32 } %12, 0, !dbg !2219
  store i8* %13, i8** %exn.slot, align 8, !dbg !2219
  %14 = extractvalue { i8*, i32 } %12, 1, !dbg !2219
  store i32 %14, i32* %ehselector.slot, align 4, !dbg !2219
  call void @_ZNSaIbED2Ev(%"class.std::allocator.3"* %ref.tmp2) #10, !dbg !2197
  br label %eh.resume, !dbg !2197

lpad4:                                            ; preds = %invoke.cont5, %for.body
  %15 = landingpad { i8*, i32 }
          cleanup, !dbg !2220
  %16 = extractvalue { i8*, i32 } %15, 0, !dbg !2220
  store i8* %16, i8** %exn.slot, align 8, !dbg !2220
  %17 = extractvalue { i8*, i32 } %15, 1, !dbg !2220
  store i32 %17, i32* %ehselector.slot, align 4, !dbg !2220
  call void @_ZNSt6vectorIbSaIbEED2Ev(%"class.std::vector"* %agg.result) #10, !dbg !2219
  br label %eh.resume, !dbg !2219

for.end:                                          ; preds = %for.cond
  store i1 true, i1* %nrvo, align 1, !dbg !2221
  %nrvo.val = load i1, i1* %nrvo, align 1, !dbg !2219
  br i1 %nrvo.val, label %nrvo.skipdtor, label %nrvo.unused, !dbg !2219

nrvo.unused:                                      ; preds = %for.end
  call void @_ZNSt6vectorIbSaIbEED2Ev(%"class.std::vector"* %agg.result) #10, !dbg !2219
  br label %nrvo.skipdtor, !dbg !2219

nrvo.skipdtor:                                    ; preds = %nrvo.unused, %for.end
  ret void, !dbg !2219

eh.resume:                                        ; preds = %lpad4, %lpad
  %exn = load i8*, i8** %exn.slot, align 8, !dbg !2197
  %sel = load i32, i32* %ehselector.slot, align 4, !dbg !2197
  %lpad.val = insertvalue { i8*, i32 } undef, i8* %exn, 0, !dbg !2197
  %lpad.val13 = insertvalue { i8*, i32 } %lpad.val, i32 %sel, 1, !dbg !2197
  resume { i8*, i32 } %lpad.val13, !dbg !2197
}

; Function Attrs: noinline nounwind uwtable
define linkonce_odr dso_local zeroext i1 @_ZNK9libparest5Slave10Stationary18ProblemDescription16is_dual_variableEj(%"class.libparest::Slave::Stationary::ProblemDescription"* %this, i32 %n) #3 comdat align 2 !dbg !2222 {
entry:
  %this.addr = alloca %"class.libparest::Slave::Stationary::ProblemDescription"*, align 8
  %n.addr = alloca i32, align 4
  store %"class.libparest::Slave::Stationary::ProblemDescription"* %this, %"class.libparest::Slave::Stationary::ProblemDescription"** %this.addr, align 8
  call void @llvm.dbg.declare(metadata %"class.libparest::Slave::Stationary::ProblemDescription"** %this.addr, metadata !2223, metadata !DIExpression()), !dbg !2224
  store i32 %n, i32* %n.addr, align 4
  call void @llvm.dbg.declare(metadata i32* %n.addr, metadata !2225, metadata !DIExpression()), !dbg !2226
  %this1 = load %"class.libparest::Slave::Stationary::ProblemDescription"*, %"class.libparest::Slave::Stationary::ProblemDescription"** %this.addr, align 8
  %0 = load i32, i32* %n.addr, align 4, !dbg !2227
  %n_primal_variables = getelementptr inbounds %"class.libparest::Slave::Stationary::ProblemDescription", %"class.libparest::Slave::Stationary::ProblemDescription"* %this1, i32 0, i32 1, !dbg !2228
  %1 = load i32, i32* %n_primal_variables, align 8, !dbg !2228
  %cmp = icmp uge i32 %0, %1, !dbg !2229
  br i1 %cmp, label %land.rhs, label %land.end, !dbg !2230

land.rhs:                                         ; preds = %entry
  %2 = load i32, i32* %n.addr, align 4, !dbg !2231
  %n_primal_variables2 = getelementptr inbounds %"class.libparest::Slave::Stationary::ProblemDescription", %"class.libparest::Slave::Stationary::ProblemDescription"* %this1, i32 0, i32 1, !dbg !2232
  %3 = load i32, i32* %n_primal_variables2, align 8, !dbg !2232
  %n_dual_variables = getelementptr inbounds %"class.libparest::Slave::Stationary::ProblemDescription", %"class.libparest::Slave::Stationary::ProblemDescription"* %this1, i32 0, i32 2, !dbg !2233
  %4 = load i32, i32* %n_dual_variables, align 4, !dbg !2233
  %add = add i32 %3, %4, !dbg !2234
  %cmp3 = icmp ult i32 %2, %add, !dbg !2235
  br label %land.end

land.end:                                         ; preds = %land.rhs, %entry
  %5 = phi i1 [ false, %entry ], [ %cmp3, %land.rhs ], !dbg !2224
  ret i1 %5, !dbg !2236
}

; Function Attrs: noinline uwtable
define dso_local void @_ZNK9libparest5Slave10Stationary18ProblemDescription23get_parameter_variablesEv(%"class.std::vector"* noalias sret %agg.result, %"class.libparest::Slave::Stationary::ProblemDescription"* %this) #0 align 2 personality i8* bitcast (i32 (...)* @__gxx_personality_v0 to i8*) !dbg !2237 {
entry:
  %result.ptr = alloca i8*, align 8
  %this.addr = alloca %"class.libparest::Slave::Stationary::ProblemDescription"*, align 8
  %nrvo = alloca i1, align 1
  %ref.tmp = alloca i8, align 1
  %ref.tmp2 = alloca %"class.std::allocator.3", align 1
  %exn.slot = alloca i8*
  %ehselector.slot = alloca i32
  %i = alloca i32, align 4
  %ref.tmp8 = alloca %"struct.std::_Bit_reference", align 8
  %0 = bitcast %"class.std::vector"* %agg.result to i8*
  store i8* %0, i8** %result.ptr, align 8
  store %"class.libparest::Slave::Stationary::ProblemDescription"* %this, %"class.libparest::Slave::Stationary::ProblemDescription"** %this.addr, align 8
  call void @llvm.dbg.declare(metadata %"class.libparest::Slave::Stationary::ProblemDescription"** %this.addr, metadata !2238, metadata !DIExpression()), !dbg !2239
  %this1 = load %"class.libparest::Slave::Stationary::ProblemDescription"*, %"class.libparest::Slave::Stationary::ProblemDescription"** %this.addr, align 8
  store i1 false, i1* %nrvo, align 1, !dbg !2240
  call void @llvm.dbg.declare(metadata i8** %result.ptr, metadata !2241, metadata !DIExpression(DW_OP_deref)), !dbg !2242
  %n_variables = getelementptr inbounds %"class.libparest::Slave::Stationary::ProblemDescription", %"class.libparest::Slave::Stationary::ProblemDescription"* %this1, i32 0, i32 4, !dbg !2243
  %1 = load i32, i32* %n_variables, align 4, !dbg !2243
  %conv = zext i32 %1 to i64, !dbg !2243
  store i8 0, i8* %ref.tmp, align 1, !dbg !2244
  call void @_ZNSaIbEC2Ev(%"class.std::allocator.3"* %ref.tmp2) #10, !dbg !2242
  invoke void @_ZNSt6vectorIbSaIbEEC2EmRKbRKS0_(%"class.std::vector"* %agg.result, i64 %conv, i8* dereferenceable(1) %ref.tmp, %"class.std::allocator.3"* dereferenceable(1) %ref.tmp2)
          to label %invoke.cont unwind label %lpad, !dbg !2242

invoke.cont:                                      ; preds = %entry
  call void @_ZNSaIbED2Ev(%"class.std::allocator.3"* %ref.tmp2) #10, !dbg !2242
  call void @llvm.dbg.declare(metadata i32* %i, metadata !2245, metadata !DIExpression()), !dbg !2247
  store i32 0, i32* %i, align 4, !dbg !2247
  br label %for.cond, !dbg !2248

for.cond:                                         ; preds = %for.inc, %invoke.cont
  %2 = load i32, i32* %i, align 4, !dbg !2249
  %n_variables3 = getelementptr inbounds %"class.libparest::Slave::Stationary::ProblemDescription", %"class.libparest::Slave::Stationary::ProblemDescription"* %this1, i32 0, i32 4, !dbg !2251
  %3 = load i32, i32* %n_variables3, align 4, !dbg !2251
  %cmp = icmp ult i32 %2, %3, !dbg !2252
  br i1 %cmp, label %for.body, label %for.end, !dbg !2253

for.body:                                         ; preds = %for.cond
  %4 = load i32, i32* %i, align 4, !dbg !2254
  %call = invoke zeroext i1 @_ZNK9libparest5Slave10Stationary18ProblemDescription21is_parameter_variableEj(%"class.libparest::Slave::Stationary::ProblemDescription"* %this1, i32 %4)
          to label %invoke.cont5 unwind label %lpad4, !dbg !2255

invoke.cont5:                                     ; preds = %for.body
  %conv6 = zext i1 %call to i32, !dbg !2255
  %cmp7 = icmp eq i32 %conv6, 1, !dbg !2256
  %5 = load i32, i32* %i, align 4, !dbg !2257
  %conv9 = zext i32 %5 to i64, !dbg !2257
  %call11 = invoke { i64*, i64 } @_ZNSt6vectorIbSaIbEEixEm(%"class.std::vector"* %agg.result, i64 %conv9)
          to label %invoke.cont10 unwind label %lpad4, !dbg !2258

invoke.cont10:                                    ; preds = %invoke.cont5
  %6 = bitcast %"struct.std::_Bit_reference"* %ref.tmp8 to { i64*, i64 }*, !dbg !2258
  %7 = getelementptr inbounds { i64*, i64 }, { i64*, i64 }* %6, i32 0, i32 0, !dbg !2258
  %8 = extractvalue { i64*, i64 } %call11, 0, !dbg !2258
  store i64* %8, i64** %7, align 8, !dbg !2258
  %9 = getelementptr inbounds { i64*, i64 }, { i64*, i64 }* %6, i32 0, i32 1, !dbg !2258
  %10 = extractvalue { i64*, i64 } %call11, 1, !dbg !2258
  store i64 %10, i64* %9, align 8, !dbg !2258
  %call12 = call dereferenceable(16) %"struct.std::_Bit_reference"* @_ZNSt14_Bit_referenceaSEb(%"struct.std::_Bit_reference"* %ref.tmp8, i1 zeroext %cmp7) #10, !dbg !2259
  br label %for.inc, !dbg !2258

for.inc:                                          ; preds = %invoke.cont10
  %11 = load i32, i32* %i, align 4, !dbg !2260
  %inc = add i32 %11, 1, !dbg !2260
  store i32 %inc, i32* %i, align 4, !dbg !2260
  br label %for.cond, !dbg !2261, !llvm.loop !2262

lpad:                                             ; preds = %entry
  %12 = landingpad { i8*, i32 }
          cleanup, !dbg !2264
  %13 = extractvalue { i8*, i32 } %12, 0, !dbg !2264
  store i8* %13, i8** %exn.slot, align 8, !dbg !2264
  %14 = extractvalue { i8*, i32 } %12, 1, !dbg !2264
  store i32 %14, i32* %ehselector.slot, align 4, !dbg !2264
  call void @_ZNSaIbED2Ev(%"class.std::allocator.3"* %ref.tmp2) #10, !dbg !2242
  br label %eh.resume, !dbg !2242

lpad4:                                            ; preds = %invoke.cont5, %for.body
  %15 = landingpad { i8*, i32 }
          cleanup, !dbg !2265
  %16 = extractvalue { i8*, i32 } %15, 0, !dbg !2265
  store i8* %16, i8** %exn.slot, align 8, !dbg !2265
  %17 = extractvalue { i8*, i32 } %15, 1, !dbg !2265
  store i32 %17, i32* %ehselector.slot, align 4, !dbg !2265
  call void @_ZNSt6vectorIbSaIbEED2Ev(%"class.std::vector"* %agg.result) #10, !dbg !2264
  br label %eh.resume, !dbg !2264

for.end:                                          ; preds = %for.cond
  store i1 true, i1* %nrvo, align 1, !dbg !2266
  %nrvo.val = load i1, i1* %nrvo, align 1, !dbg !2264
  br i1 %nrvo.val, label %nrvo.skipdtor, label %nrvo.unused, !dbg !2264

nrvo.unused:                                      ; preds = %for.end
  call void @_ZNSt6vectorIbSaIbEED2Ev(%"class.std::vector"* %agg.result) #10, !dbg !2264
  br label %nrvo.skipdtor, !dbg !2264

nrvo.skipdtor:                                    ; preds = %nrvo.unused, %for.end
  ret void, !dbg !2264

eh.resume:                                        ; preds = %lpad4, %lpad
  %exn = load i8*, i8** %exn.slot, align 8, !dbg !2242
  %sel = load i32, i32* %ehselector.slot, align 4, !dbg !2242
  %lpad.val = insertvalue { i8*, i32 } undef, i8* %exn, 0, !dbg !2242
  %lpad.val13 = insertvalue { i8*, i32 } %lpad.val, i32 %sel, 1, !dbg !2242
  resume { i8*, i32 } %lpad.val13, !dbg !2242
}

; Function Attrs: noinline nounwind uwtable
define linkonce_odr dso_local zeroext i1 @_ZNK9libparest5Slave10Stationary18ProblemDescription21is_parameter_variableEj(%"class.libparest::Slave::Stationary::ProblemDescription"* %this, i32 %n) #3 comdat align 2 !dbg !2267 {
entry:
  %this.addr = alloca %"class.libparest::Slave::Stationary::ProblemDescription"*, align 8
  %n.addr = alloca i32, align 4
  store %"class.libparest::Slave::Stationary::ProblemDescription"* %this, %"class.libparest::Slave::Stationary::ProblemDescription"** %this.addr, align 8
  call void @llvm.dbg.declare(metadata %"class.libparest::Slave::Stationary::ProblemDescription"** %this.addr, metadata !2268, metadata !DIExpression()), !dbg !2269
  store i32 %n, i32* %n.addr, align 4
  call void @llvm.dbg.declare(metadata i32* %n.addr, metadata !2270, metadata !DIExpression()), !dbg !2271
  %this1 = load %"class.libparest::Slave::Stationary::ProblemDescription"*, %"class.libparest::Slave::Stationary::ProblemDescription"** %this.addr, align 8
  %0 = load i32, i32* %n.addr, align 4, !dbg !2272
  %n_primal_variables = getelementptr inbounds %"class.libparest::Slave::Stationary::ProblemDescription", %"class.libparest::Slave::Stationary::ProblemDescription"* %this1, i32 0, i32 1, !dbg !2273
  %1 = load i32, i32* %n_primal_variables, align 8, !dbg !2273
  %n_dual_variables = getelementptr inbounds %"class.libparest::Slave::Stationary::ProblemDescription", %"class.libparest::Slave::Stationary::ProblemDescription"* %this1, i32 0, i32 2, !dbg !2274
  %2 = load i32, i32* %n_dual_variables, align 4, !dbg !2274
  %add = add i32 %1, %2, !dbg !2275
  %cmp = icmp uge i32 %0, %add, !dbg !2276
  ret i1 %cmp, !dbg !2277
}

; Function Attrs: noinline nounwind uwtable
define linkonce_odr dso_local void @_ZN9libparest5Slave10Stationary18ProblemDescriptionD2Ev(%"class.libparest::Slave::Stationary::ProblemDescription"* %this) unnamed_addr #3 comdat align 2 !dbg !2278 {
entry:
  %this.addr = alloca %"class.libparest::Slave::Stationary::ProblemDescription"*, align 8
  store %"class.libparest::Slave::Stationary::ProblemDescription"* %this, %"class.libparest::Slave::Stationary::ProblemDescription"** %this.addr, align 8
  call void @llvm.dbg.declare(metadata %"class.libparest::Slave::Stationary::ProblemDescription"** %this.addr, metadata !2282, metadata !DIExpression()), !dbg !2283
  %this1 = load %"class.libparest::Slave::Stationary::ProblemDescription"*, %"class.libparest::Slave::Stationary::ProblemDescription"** %this.addr, align 8
  %0 = bitcast %"class.libparest::Slave::Stationary::ProblemDescription"* %this1 to %"class.dealii::Subscriptor"*, !dbg !2284
  call void @_ZN6dealii11SubscriptorD2Ev(%"class.dealii::Subscriptor"* %0) #10, !dbg !2284
  ret void, !dbg !2286
}

; Function Attrs: noinline nounwind uwtable
define linkonce_odr dso_local void @_ZN9libparest5Slave10Stationary18ProblemDescriptionD0Ev(%"class.libparest::Slave::Stationary::ProblemDescription"* %this) unnamed_addr #3 comdat align 2 !dbg !2287 {
entry:
  %this.addr = alloca %"class.libparest::Slave::Stationary::ProblemDescription"*, align 8
  store %"class.libparest::Slave::Stationary::ProblemDescription"* %this, %"class.libparest::Slave::Stationary::ProblemDescription"** %this.addr, align 8
  call void @llvm.dbg.declare(metadata %"class.libparest::Slave::Stationary::ProblemDescription"** %this.addr, metadata !2288, metadata !DIExpression()), !dbg !2289
  %this1 = load %"class.libparest::Slave::Stationary::ProblemDescription"*, %"class.libparest::Slave::Stationary::ProblemDescription"** %this.addr, align 8
  call void @_ZN9libparest5Slave10Stationary18ProblemDescriptionD2Ev(%"class.libparest::Slave::Stationary::ProblemDescription"* %this1) #10, !dbg !2290
  %0 = bitcast %"class.libparest::Slave::Stationary::ProblemDescription"* %this1 to i8*, !dbg !2290
  call void @_ZdlPv(i8* %0) #11, !dbg !2290
  ret void, !dbg !2290
}

; Function Attrs: noinline nounwind uwtable
define linkonce_odr dso_local void @_ZN9__gnu_cxx13new_allocatorIbEC2Ev(%"class.__gnu_cxx::new_allocator.4"* %this) unnamed_addr #3 comdat align 2 !dbg !2291 {
entry:
  %this.addr = alloca %"class.__gnu_cxx::new_allocator.4"*, align 8
  store %"class.__gnu_cxx::new_allocator.4"* %this, %"class.__gnu_cxx::new_allocator.4"** %this.addr, align 8
  call void @llvm.dbg.declare(metadata %"class.__gnu_cxx::new_allocator.4"** %this.addr, metadata !2292, metadata !DIExpression()), !dbg !2294
  %this1 = load %"class.__gnu_cxx::new_allocator.4"*, %"class.__gnu_cxx::new_allocator.4"** %this.addr, align 8
  ret void, !dbg !2295
}

; Function Attrs: noinline nounwind uwtable
define linkonce_odr dso_local void @_ZN9__gnu_cxx13new_allocatorIbED2Ev(%"class.__gnu_cxx::new_allocator.4"* %this) unnamed_addr #3 comdat align 2 !dbg !2296 {
entry:
  %this.addr = alloca %"class.__gnu_cxx::new_allocator.4"*, align 8
  store %"class.__gnu_cxx::new_allocator.4"* %this, %"class.__gnu_cxx::new_allocator.4"** %this.addr, align 8
  call void @llvm.dbg.declare(metadata %"class.__gnu_cxx::new_allocator.4"** %this.addr, metadata !2297, metadata !DIExpression()), !dbg !2298
  %this1 = load %"class.__gnu_cxx::new_allocator.4"*, %"class.__gnu_cxx::new_allocator.4"** %this.addr, align 8
  ret void, !dbg !2299
}

; Function Attrs: noinline nounwind uwtable
define linkonce_odr dso_local void @_ZNSt13_Bvector_baseISaIbEEC2ERKS0_(%"struct.std::_Bvector_base"* %this, %"class.std::allocator.3"* dereferenceable(1) %__a) unnamed_addr #3 comdat align 2 !dbg !2300 {
entry:
  %this.addr = alloca %"struct.std::_Bvector_base"*, align 8
  %__a.addr = alloca %"class.std::allocator.3"*, align 8
  %ref.tmp = alloca %"class.std::allocator.0", align 1
  store %"struct.std::_Bvector_base"* %this, %"struct.std::_Bvector_base"** %this.addr, align 8
  call void @llvm.dbg.declare(metadata %"struct.std::_Bvector_base"** %this.addr, metadata !2301, metadata !DIExpression()), !dbg !2303
  store %"class.std::allocator.3"* %__a, %"class.std::allocator.3"** %__a.addr, align 8
  call void @llvm.dbg.declare(metadata %"class.std::allocator.3"** %__a.addr, metadata !2304, metadata !DIExpression()), !dbg !2305
  %this1 = load %"struct.std::_Bvector_base"*, %"struct.std::_Bvector_base"** %this.addr, align 8
  %_M_impl = getelementptr inbounds %"struct.std::_Bvector_base", %"struct.std::_Bvector_base"* %this1, i32 0, i32 0, !dbg !2306
  %0 = load %"class.std::allocator.3"*, %"class.std::allocator.3"** %__a.addr, align 8, !dbg !2307
  call void @_ZNSaImEC2IbEERKSaIT_E(%"class.std::allocator.0"* %ref.tmp, %"class.std::allocator.3"* dereferenceable(1) %0) #10, !dbg !2307
  call void @_ZNSt13_Bvector_baseISaIbEE13_Bvector_implC2ERKSaImE(%"struct.std::_Bvector_base<std::allocator<bool> >::_Bvector_impl"* %_M_impl, %"class.std::allocator.0"* dereferenceable(1) %ref.tmp) #10, !dbg !2306
  call void @_ZNSaImED2Ev(%"class.std::allocator.0"* %ref.tmp) #10, !dbg !2306
  ret void, !dbg !2308
}

; Function Attrs: noinline uwtable
define linkonce_odr dso_local void @_ZNSt6vectorIbSaIbEE13_M_initializeEm(%"class.std::vector"* %this, i64 %__n) #0 comdat align 2 !dbg !2309 {
entry:
  %this.addr = alloca %"class.std::vector"*, align 8
  %__n.addr = alloca i64, align 8
  %__q = alloca i64*, align 8
  %ref.tmp = alloca %"struct.std::_Bit_iterator", align 8
  %ref.tmp7 = alloca %"struct.std::_Bit_iterator", align 8
  %ref.tmp10 = alloca %"struct.std::_Bit_iterator", align 8
  store %"class.std::vector"* %this, %"class.std::vector"** %this.addr, align 8
  call void @llvm.dbg.declare(metadata %"class.std::vector"** %this.addr, metadata !2310, metadata !DIExpression()), !dbg !2311
  store i64 %__n, i64* %__n.addr, align 8
  call void @llvm.dbg.declare(metadata i64* %__n.addr, metadata !2312, metadata !DIExpression()), !dbg !2313
  %this1 = load %"class.std::vector"*, %"class.std::vector"** %this.addr, align 8
  %0 = load i64, i64* %__n.addr, align 8, !dbg !2314
  %tobool = icmp ne i64 %0, 0, !dbg !2314
  br i1 %tobool, label %if.then, label %if.else, !dbg !2316

if.then:                                          ; preds = %entry
  call void @llvm.dbg.declare(metadata i64** %__q, metadata !2317, metadata !DIExpression()), !dbg !2320
  %1 = bitcast %"class.std::vector"* %this1 to %"struct.std::_Bvector_base"*, !dbg !2321
  %2 = load i64, i64* %__n.addr, align 8, !dbg !2322
  %call = call i64* @_ZNSt13_Bvector_baseISaIbEE11_M_allocateEm(%"struct.std::_Bvector_base"* %1, i64 %2), !dbg !2321
  store i64* %call, i64** %__q, align 8, !dbg !2320
  %3 = load i64*, i64** %__q, align 8, !dbg !2323
  %4 = load i64, i64* %__n.addr, align 8, !dbg !2324
  %call2 = call i64 @_ZNSt13_Bvector_baseISaIbEE8_S_nwordEm(i64 %4), !dbg !2325
  %add.ptr = getelementptr inbounds i64, i64* %3, i64 %call2, !dbg !2326
  %5 = bitcast %"class.std::vector"* %this1 to %"struct.std::_Bvector_base"*, !dbg !2327
  %_M_impl = getelementptr inbounds %"struct.std::_Bvector_base", %"struct.std::_Bvector_base"* %5, i32 0, i32 0, !dbg !2327
  %6 = bitcast %"struct.std::_Bvector_base<std::allocator<bool> >::_Bvector_impl"* %_M_impl to %"struct.std::_Bvector_base<std::allocator<bool> >::_Bvector_impl_data"*, !dbg !2328
  %_M_end_of_storage = getelementptr inbounds %"struct.std::_Bvector_base<std::allocator<bool> >::_Bvector_impl_data", %"struct.std::_Bvector_base<std::allocator<bool> >::_Bvector_impl_data"* %6, i32 0, i32 2, !dbg !2329
  store i64* %add.ptr, i64** %_M_end_of_storage, align 8, !dbg !2330
  %7 = load i64*, i64** %__q, align 8, !dbg !2331
  %call3 = call i64* @_ZSt11__addressofImEPT_RS0_(i64* dereferenceable(8) %7) #10, !dbg !2332
  call void @_ZNSt13_Bit_iteratorC2EPmj(%"struct.std::_Bit_iterator"* %ref.tmp, i64* %call3, i32 0), !dbg !2333
  %8 = bitcast %"class.std::vector"* %this1 to %"struct.std::_Bvector_base"*, !dbg !2334
  %_M_impl4 = getelementptr inbounds %"struct.std::_Bvector_base", %"struct.std::_Bvector_base"* %8, i32 0, i32 0, !dbg !2334
  %9 = bitcast %"struct.std::_Bvector_base<std::allocator<bool> >::_Bvector_impl"* %_M_impl4 to %"struct.std::_Bvector_base<std::allocator<bool> >::_Bvector_impl_data"*, !dbg !2335
  %_M_start = getelementptr inbounds %"struct.std::_Bvector_base<std::allocator<bool> >::_Bvector_impl_data", %"struct.std::_Bvector_base<std::allocator<bool> >::_Bvector_impl_data"* %9, i32 0, i32 0, !dbg !2336
  %10 = bitcast %"struct.std::_Bit_iterator"* %_M_start to i8*, !dbg !2337
  %11 = bitcast %"struct.std::_Bit_iterator"* %ref.tmp to i8*, !dbg !2337
  call void @llvm.memcpy.p0i8.p0i8.i64(i8* align 8 %10, i8* align 8 %11, i64 12, i1 false), !dbg !2337
  br label %if.end, !dbg !2338

if.else:                                          ; preds = %entry
  %12 = bitcast %"class.std::vector"* %this1 to %"struct.std::_Bvector_base"*, !dbg !2339
  %_M_impl5 = getelementptr inbounds %"struct.std::_Bvector_base", %"struct.std::_Bvector_base"* %12, i32 0, i32 0, !dbg !2339
  %13 = bitcast %"struct.std::_Bvector_base<std::allocator<bool> >::_Bvector_impl"* %_M_impl5 to %"struct.std::_Bvector_base<std::allocator<bool> >::_Bvector_impl_data"*, !dbg !2341
  %_M_end_of_storage6 = getelementptr inbounds %"struct.std::_Bvector_base<std::allocator<bool> >::_Bvector_impl_data", %"struct.std::_Bvector_base<std::allocator<bool> >::_Bvector_impl_data"* %13, i32 0, i32 2, !dbg !2342
  store i64* null, i64** %_M_end_of_storage6, align 8, !dbg !2343
  call void @_ZNSt13_Bit_iteratorC2EPmj(%"struct.std::_Bit_iterator"* %ref.tmp7, i64* null, i32 0), !dbg !2344
  %14 = bitcast %"class.std::vector"* %this1 to %"struct.std::_Bvector_base"*, !dbg !2345
  %_M_impl8 = getelementptr inbounds %"struct.std::_Bvector_base", %"struct.std::_Bvector_base"* %14, i32 0, i32 0, !dbg !2345
  %15 = bitcast %"struct.std::_Bvector_base<std::allocator<bool> >::_Bvector_impl"* %_M_impl8 to %"struct.std::_Bvector_base<std::allocator<bool> >::_Bvector_impl_data"*, !dbg !2346
  %_M_start9 = getelementptr inbounds %"struct.std::_Bvector_base<std::allocator<bool> >::_Bvector_impl_data", %"struct.std::_Bvector_base<std::allocator<bool> >::_Bvector_impl_data"* %15, i32 0, i32 0, !dbg !2347
  %16 = bitcast %"struct.std::_Bit_iterator"* %_M_start9 to i8*, !dbg !2348
  %17 = bitcast %"struct.std::_Bit_iterator"* %ref.tmp7 to i8*, !dbg !2348
  call void @llvm.memcpy.p0i8.p0i8.i64(i8* align 8 %16, i8* align 8 %17, i64 12, i1 false), !dbg !2348
  br label %if.end

if.end:                                           ; preds = %if.else, %if.then
  %18 = bitcast %"class.std::vector"* %this1 to %"struct.std::_Bvector_base"*, !dbg !2349
  %_M_impl11 = getelementptr inbounds %"struct.std::_Bvector_base", %"struct.std::_Bvector_base"* %18, i32 0, i32 0, !dbg !2349
  %19 = bitcast %"struct.std::_Bvector_base<std::allocator<bool> >::_Bvector_impl"* %_M_impl11 to %"struct.std::_Bvector_base<std::allocator<bool> >::_Bvector_impl_data"*, !dbg !2350
  %_M_start12 = getelementptr inbounds %"struct.std::_Bvector_base<std::allocator<bool> >::_Bvector_impl_data", %"struct.std::_Bvector_base<std::allocator<bool> >::_Bvector_impl_data"* %19, i32 0, i32 0, !dbg !2351
  %20 = load i64, i64* %__n.addr, align 8, !dbg !2352
  %call13 = call { i64*, i32 } @_ZStplRKSt13_Bit_iteratorl(%"struct.std::_Bit_iterator"* dereferenceable(16) %_M_start12, i64 %20), !dbg !2353
  %21 = bitcast %"struct.std::_Bit_iterator"* %ref.tmp10 to { i64*, i32 }*, !dbg !2353
  %22 = getelementptr inbounds { i64*, i32 }, { i64*, i32 }* %21, i32 0, i32 0, !dbg !2353
  %23 = extractvalue { i64*, i32 } %call13, 0, !dbg !2353
  store i64* %23, i64** %22, align 8, !dbg !2353
  %24 = getelementptr inbounds { i64*, i32 }, { i64*, i32 }* %21, i32 0, i32 1, !dbg !2353
  %25 = extractvalue { i64*, i32 } %call13, 1, !dbg !2353
  store i32 %25, i32* %24, align 8, !dbg !2353
  %26 = bitcast %"class.std::vector"* %this1 to %"struct.std::_Bvector_base"*, !dbg !2354
  %_M_impl14 = getelementptr inbounds %"struct.std::_Bvector_base", %"struct.std::_Bvector_base"* %26, i32 0, i32 0, !dbg !2354
  %27 = bitcast %"struct.std::_Bvector_base<std::allocator<bool> >::_Bvector_impl"* %_M_impl14 to %"struct.std::_Bvector_base<std::allocator<bool> >::_Bvector_impl_data"*, !dbg !2355
  %_M_finish = getelementptr inbounds %"struct.std::_Bvector_base<std::allocator<bool> >::_Bvector_impl_data", %"struct.std::_Bvector_base<std::allocator<bool> >::_Bvector_impl_data"* %27, i32 0, i32 1, !dbg !2356
  %28 = bitcast %"struct.std::_Bit_iterator"* %_M_finish to i8*, !dbg !2357
  %29 = bitcast %"struct.std::_Bit_iterator"* %ref.tmp10 to i8*, !dbg !2357
  call void @llvm.memcpy.p0i8.p0i8.i64(i8* align 8 %28, i8* align 8 %29, i64 12, i1 false), !dbg !2357
  ret void, !dbg !2358
}

; Function Attrs: noinline nounwind uwtable
define linkonce_odr dso_local void @_ZNSt6vectorIbSaIbEE19_M_initialize_valueEb(%"class.std::vector"* %this, i1 zeroext %__x) #3 comdat align 2 !dbg !2359 {
entry:
  %this.addr = alloca %"class.std::vector"*, align 8
  %__x.addr = alloca i8, align 1
  %__p = alloca i64*, align 8
  store %"class.std::vector"* %this, %"class.std::vector"** %this.addr, align 8
  call void @llvm.dbg.declare(metadata %"class.std::vector"** %this.addr, metadata !2360, metadata !DIExpression()), !dbg !2361
  %frombool = zext i1 %__x to i8
  store i8 %frombool, i8* %__x.addr, align 1
  call void @llvm.dbg.declare(metadata i8* %__x.addr, metadata !2362, metadata !DIExpression()), !dbg !2363
  %this1 = load %"class.std::vector"*, %"class.std::vector"** %this.addr, align 8
  call void @llvm.dbg.declare(metadata i64** %__p, metadata !2364, metadata !DIExpression()), !dbg !2366
  %0 = bitcast %"class.std::vector"* %this1 to %"struct.std::_Bvector_base"*, !dbg !2367
  %_M_impl = getelementptr inbounds %"struct.std::_Bvector_base", %"struct.std::_Bvector_base"* %0, i32 0, i32 0, !dbg !2367
  %1 = bitcast %"struct.std::_Bvector_base<std::allocator<bool> >::_Bvector_impl"* %_M_impl to %"struct.std::_Bvector_base<std::allocator<bool> >::_Bvector_impl_data"*, !dbg !2368
  %_M_start = getelementptr inbounds %"struct.std::_Bvector_base<std::allocator<bool> >::_Bvector_impl_data", %"struct.std::_Bvector_base<std::allocator<bool> >::_Bvector_impl_data"* %1, i32 0, i32 0, !dbg !2369
  %2 = bitcast %"struct.std::_Bit_iterator"* %_M_start to %"struct.std::_Bit_iterator_base"*, !dbg !2368
  %_M_p = getelementptr inbounds %"struct.std::_Bit_iterator_base", %"struct.std::_Bit_iterator_base"* %2, i32 0, i32 0, !dbg !2370
  %3 = load i64*, i64** %_M_p, align 8, !dbg !2370
  store i64* %3, i64** %__p, align 8, !dbg !2366
  %4 = load i64*, i64** %__p, align 8, !dbg !2366
  %tobool = icmp ne i64* %4, null, !dbg !2366
  br i1 %tobool, label %if.then, label %if.end, !dbg !2371

if.then:                                          ; preds = %entry
  %5 = load i64*, i64** %__p, align 8, !dbg !2372
  %6 = bitcast i64* %5 to i8*, !dbg !2373
  %7 = load i8, i8* %__x.addr, align 1, !dbg !2374
  %tobool2 = trunc i8 %7 to i1, !dbg !2374
  %8 = zext i1 %tobool2 to i64, !dbg !2374
  %cond = select i1 %tobool2, i32 -1, i32 0, !dbg !2374
  %9 = trunc i32 %cond to i8, !dbg !2373
  %10 = bitcast %"class.std::vector"* %this1 to %"struct.std::_Bvector_base"*, !dbg !2375
  %_M_impl3 = getelementptr inbounds %"struct.std::_Bvector_base", %"struct.std::_Bvector_base"* %10, i32 0, i32 0, !dbg !2375
  %call = call i64* @_ZNKSt13_Bvector_baseISaIbEE13_Bvector_impl11_M_end_addrEv(%"struct.std::_Bvector_base<std::allocator<bool> >::_Bvector_impl"* %_M_impl3) #10, !dbg !2376
  %11 = load i64*, i64** %__p, align 8, !dbg !2377
  %sub.ptr.lhs.cast = ptrtoint i64* %call to i64, !dbg !2378
  %sub.ptr.rhs.cast = ptrtoint i64* %11 to i64, !dbg !2378
  %sub.ptr.sub = sub i64 %sub.ptr.lhs.cast, %sub.ptr.rhs.cast, !dbg !2378
  %sub.ptr.div = sdiv exact i64 %sub.ptr.sub, 8, !dbg !2378
  %mul = mul i64 %sub.ptr.div, 8, !dbg !2379
  call void @llvm.memset.p0i8.i64(i8* align 8 %6, i8 %9, i64 %mul, i1 false), !dbg !2373
  br label %if.end, !dbg !2373

if.end:                                           ; preds = %if.then, %entry
  ret void, !dbg !2380
}

; Function Attrs: noinline nounwind uwtable
define linkonce_odr dso_local void @_ZNSt13_Bvector_baseISaIbEED2Ev(%"struct.std::_Bvector_base"* %this) unnamed_addr #3 comdat align 2 personality i8* bitcast (i32 (...)* @__gxx_personality_v0 to i8*) !dbg !2381 {
entry:
  %this.addr = alloca %"struct.std::_Bvector_base"*, align 8
  %exn.slot = alloca i8*
  %ehselector.slot = alloca i32
  store %"struct.std::_Bvector_base"* %this, %"struct.std::_Bvector_base"** %this.addr, align 8
  call void @llvm.dbg.declare(metadata %"struct.std::_Bvector_base"** %this.addr, metadata !2382, metadata !DIExpression()), !dbg !2383
  %this1 = load %"struct.std::_Bvector_base"*, %"struct.std::_Bvector_base"** %this.addr, align 8
  invoke void @_ZNSt13_Bvector_baseISaIbEE13_M_deallocateEv(%"struct.std::_Bvector_base"* %this1)
          to label %invoke.cont unwind label %lpad, !dbg !2384

invoke.cont:                                      ; preds = %entry
  %_M_impl = getelementptr inbounds %"struct.std::_Bvector_base", %"struct.std::_Bvector_base"* %this1, i32 0, i32 0, !dbg !2386
  call void @_ZNSt13_Bvector_baseISaIbEE13_Bvector_implD2Ev(%"struct.std::_Bvector_base<std::allocator<bool> >::_Bvector_impl"* %_M_impl) #10, !dbg !2386
  ret void, !dbg !2387

lpad:                                             ; preds = %entry
  %0 = landingpad { i8*, i32 }
          catch i8* null, !dbg !2386
  %1 = extractvalue { i8*, i32 } %0, 0, !dbg !2386
  store i8* %1, i8** %exn.slot, align 8, !dbg !2386
  %2 = extractvalue { i8*, i32 } %0, 1, !dbg !2386
  store i32 %2, i32* %ehselector.slot, align 4, !dbg !2386
  %_M_impl2 = getelementptr inbounds %"struct.std::_Bvector_base", %"struct.std::_Bvector_base"* %this1, i32 0, i32 0, !dbg !2386
  call void @_ZNSt13_Bvector_baseISaIbEE13_Bvector_implD2Ev(%"struct.std::_Bvector_base<std::allocator<bool> >::_Bvector_impl"* %_M_impl2) #10, !dbg !2386
  br label %terminate.handler, !dbg !2386

terminate.handler:                                ; preds = %lpad
  %exn = load i8*, i8** %exn.slot, align 8, !dbg !2386
  call void @__clang_call_terminate(i8* %exn) #12, !dbg !2386
  unreachable, !dbg !2386
}

; Function Attrs: noinline nounwind uwtable
define linkonce_odr dso_local void @_ZNSaImEC2IbEERKSaIT_E(%"class.std::allocator.0"* %this, %"class.std::allocator.3"* dereferenceable(1) %0) unnamed_addr #3 comdat align 2 !dbg !2388 {
entry:
  %this.addr = alloca %"class.std::allocator.0"*, align 8
  %.addr = alloca %"class.std::allocator.3"*, align 8
  store %"class.std::allocator.0"* %this, %"class.std::allocator.0"** %this.addr, align 8
  call void @llvm.dbg.declare(metadata %"class.std::allocator.0"** %this.addr, metadata !2394, metadata !DIExpression()), !dbg !2396
  store %"class.std::allocator.3"* %0, %"class.std::allocator.3"** %.addr, align 8
  call void @llvm.dbg.declare(metadata %"class.std::allocator.3"** %.addr, metadata !2397, metadata !DIExpression()), !dbg !2398
  %this1 = load %"class.std::allocator.0"*, %"class.std::allocator.0"** %this.addr, align 8
  %1 = bitcast %"class.std::allocator.0"* %this1 to %"class.__gnu_cxx::new_allocator.1"*, !dbg !2399
  call void @_ZN9__gnu_cxx13new_allocatorImEC2Ev(%"class.__gnu_cxx::new_allocator.1"* %1) #10, !dbg !2400
  ret void, !dbg !2401
}

; Function Attrs: noinline nounwind uwtable
define linkonce_odr dso_local void @_ZNSt13_Bvector_baseISaIbEE13_Bvector_implC2ERKSaImE(%"struct.std::_Bvector_base<std::allocator<bool> >::_Bvector_impl"* %this, %"class.std::allocator.0"* dereferenceable(1) %__a) unnamed_addr #3 comdat align 2 !dbg !2402 {
entry:
  %this.addr = alloca %"struct.std::_Bvector_base<std::allocator<bool> >::_Bvector_impl"*, align 8
  %__a.addr = alloca %"class.std::allocator.0"*, align 8
  store %"struct.std::_Bvector_base<std::allocator<bool> >::_Bvector_impl"* %this, %"struct.std::_Bvector_base<std::allocator<bool> >::_Bvector_impl"** %this.addr, align 8
  call void @llvm.dbg.declare(metadata %"struct.std::_Bvector_base<std::allocator<bool> >::_Bvector_impl"** %this.addr, metadata !2403, metadata !DIExpression()), !dbg !2405
  store %"class.std::allocator.0"* %__a, %"class.std::allocator.0"** %__a.addr, align 8
  call void @llvm.dbg.declare(metadata %"class.std::allocator.0"** %__a.addr, metadata !2406, metadata !DIExpression()), !dbg !2407
  %this1 = load %"struct.std::_Bvector_base<std::allocator<bool> >::_Bvector_impl"*, %"struct.std::_Bvector_base<std::allocator<bool> >::_Bvector_impl"** %this.addr, align 8
  %0 = bitcast %"struct.std::_Bvector_base<std::allocator<bool> >::_Bvector_impl"* %this1 to %"class.std::allocator.0"*, !dbg !2408
  %1 = load %"class.std::allocator.0"*, %"class.std::allocator.0"** %__a.addr, align 8, !dbg !2409
  call void @_ZNSaImEC2ERKS_(%"class.std::allocator.0"* %0, %"class.std::allocator.0"* dereferenceable(1) %1) #10, !dbg !2410
  %2 = bitcast %"struct.std::_Bvector_base<std::allocator<bool> >::_Bvector_impl"* %this1 to %"struct.std::_Bvector_base<std::allocator<bool> >::_Bvector_impl_data"*, !dbg !2408
  call void @_ZNSt13_Bvector_baseISaIbEE18_Bvector_impl_dataC2Ev(%"struct.std::_Bvector_base<std::allocator<bool> >::_Bvector_impl_data"* %2) #10, !dbg !2411
  ret void, !dbg !2412
}

; Function Attrs: noinline nounwind uwtable
define linkonce_odr dso_local void @_ZNSaImED2Ev(%"class.std::allocator.0"* %this) unnamed_addr #3 comdat align 2 !dbg !2413 {
entry:
  %this.addr = alloca %"class.std::allocator.0"*, align 8
  store %"class.std::allocator.0"* %this, %"class.std::allocator.0"** %this.addr, align 8
  call void @llvm.dbg.declare(metadata %"class.std::allocator.0"** %this.addr, metadata !2414, metadata !DIExpression()), !dbg !2415
  %this1 = load %"class.std::allocator.0"*, %"class.std::allocator.0"** %this.addr, align 8
  %0 = bitcast %"class.std::allocator.0"* %this1 to %"class.__gnu_cxx::new_allocator.1"*, !dbg !2416
  call void @_ZN9__gnu_cxx13new_allocatorImED2Ev(%"class.__gnu_cxx::new_allocator.1"* %0) #10, !dbg !2416
  ret void, !dbg !2418
}

; Function Attrs: noinline nounwind uwtable
define linkonce_odr dso_local void @_ZN9__gnu_cxx13new_allocatorImEC2Ev(%"class.__gnu_cxx::new_allocator.1"* %this) unnamed_addr #3 comdat align 2 !dbg !2419 {
entry:
  %this.addr = alloca %"class.__gnu_cxx::new_allocator.1"*, align 8
  store %"class.__gnu_cxx::new_allocator.1"* %this, %"class.__gnu_cxx::new_allocator.1"** %this.addr, align 8
  call void @llvm.dbg.declare(metadata %"class.__gnu_cxx::new_allocator.1"** %this.addr, metadata !2420, metadata !DIExpression()), !dbg !2422
  %this1 = load %"class.__gnu_cxx::new_allocator.1"*, %"class.__gnu_cxx::new_allocator.1"** %this.addr, align 8
  ret void, !dbg !2423
}

; Function Attrs: noinline nounwind uwtable
define linkonce_odr dso_local void @_ZNSaImEC2ERKS_(%"class.std::allocator.0"* %this, %"class.std::allocator.0"* dereferenceable(1) %__a) unnamed_addr #3 comdat align 2 !dbg !2424 {
entry:
  %this.addr = alloca %"class.std::allocator.0"*, align 8
  %__a.addr = alloca %"class.std::allocator.0"*, align 8
  store %"class.std::allocator.0"* %this, %"class.std::allocator.0"** %this.addr, align 8
  call void @llvm.dbg.declare(metadata %"class.std::allocator.0"** %this.addr, metadata !2425, metadata !DIExpression()), !dbg !2426
  store %"class.std::allocator.0"* %__a, %"class.std::allocator.0"** %__a.addr, align 8
  call void @llvm.dbg.declare(metadata %"class.std::allocator.0"** %__a.addr, metadata !2427, metadata !DIExpression()), !dbg !2428
  %this1 = load %"class.std::allocator.0"*, %"class.std::allocator.0"** %this.addr, align 8
  %0 = bitcast %"class.std::allocator.0"* %this1 to %"class.__gnu_cxx::new_allocator.1"*, !dbg !2429
  %1 = load %"class.std::allocator.0"*, %"class.std::allocator.0"** %__a.addr, align 8, !dbg !2430
  %2 = bitcast %"class.std::allocator.0"* %1 to %"class.__gnu_cxx::new_allocator.1"*, !dbg !2430
  call void @_ZN9__gnu_cxx13new_allocatorImEC2ERKS1_(%"class.__gnu_cxx::new_allocator.1"* %0, %"class.__gnu_cxx::new_allocator.1"* dereferenceable(1) %2) #10, !dbg !2431
  ret void, !dbg !2432
}

; Function Attrs: noinline nounwind uwtable
define linkonce_odr dso_local void @_ZNSt13_Bvector_baseISaIbEE18_Bvector_impl_dataC2Ev(%"struct.std::_Bvector_base<std::allocator<bool> >::_Bvector_impl_data"* %this) unnamed_addr #3 comdat align 2 personality i8* bitcast (i32 (...)* @__gxx_personality_v0 to i8*) !dbg !2433 {
entry:
  %this.addr = alloca %"struct.std::_Bvector_base<std::allocator<bool> >::_Bvector_impl_data"*, align 8
  store %"struct.std::_Bvector_base<std::allocator<bool> >::_Bvector_impl_data"* %this, %"struct.std::_Bvector_base<std::allocator<bool> >::_Bvector_impl_data"** %this.addr, align 8
  call void @llvm.dbg.declare(metadata %"struct.std::_Bvector_base<std::allocator<bool> >::_Bvector_impl_data"** %this.addr, metadata !2434, metadata !DIExpression()), !dbg !2436
  %this1 = load %"struct.std::_Bvector_base<std::allocator<bool> >::_Bvector_impl_data"*, %"struct.std::_Bvector_base<std::allocator<bool> >::_Bvector_impl_data"** %this.addr, align 8
  %_M_start = getelementptr inbounds %"struct.std::_Bvector_base<std::allocator<bool> >::_Bvector_impl_data", %"struct.std::_Bvector_base<std::allocator<bool> >::_Bvector_impl_data"* %this1, i32 0, i32 0, !dbg !2437
  invoke void @_ZNSt13_Bit_iteratorC2Ev(%"struct.std::_Bit_iterator"* %_M_start)
          to label %invoke.cont unwind label %terminate.lpad, !dbg !2437

invoke.cont:                                      ; preds = %entry
  %_M_finish = getelementptr inbounds %"struct.std::_Bvector_base<std::allocator<bool> >::_Bvector_impl_data", %"struct.std::_Bvector_base<std::allocator<bool> >::_Bvector_impl_data"* %this1, i32 0, i32 1, !dbg !2438
  invoke void @_ZNSt13_Bit_iteratorC2Ev(%"struct.std::_Bit_iterator"* %_M_finish)
          to label %invoke.cont2 unwind label %terminate.lpad, !dbg !2438

invoke.cont2:                                     ; preds = %invoke.cont
  %_M_end_of_storage = getelementptr inbounds %"struct.std::_Bvector_base<std::allocator<bool> >::_Bvector_impl_data", %"struct.std::_Bvector_base<std::allocator<bool> >::_Bvector_impl_data"* %this1, i32 0, i32 2, !dbg !2439
  store i64* null, i64** %_M_end_of_storage, align 8, !dbg !2439
  ret void, !dbg !2440

terminate.lpad:                                   ; preds = %invoke.cont, %entry
  %0 = landingpad { i8*, i32 }
          catch i8* null, !dbg !2437
  %1 = extractvalue { i8*, i32 } %0, 0, !dbg !2437
  call void @__clang_call_terminate(i8* %1) #12, !dbg !2437
  unreachable, !dbg !2437
}

; Function Attrs: noinline nounwind uwtable
define linkonce_odr dso_local void @_ZN9__gnu_cxx13new_allocatorImEC2ERKS1_(%"class.__gnu_cxx::new_allocator.1"* %this, %"class.__gnu_cxx::new_allocator.1"* dereferenceable(1) %0) unnamed_addr #3 comdat align 2 !dbg !2441 {
entry:
  %this.addr = alloca %"class.__gnu_cxx::new_allocator.1"*, align 8
  %.addr = alloca %"class.__gnu_cxx::new_allocator.1"*, align 8
  store %"class.__gnu_cxx::new_allocator.1"* %this, %"class.__gnu_cxx::new_allocator.1"** %this.addr, align 8
  call void @llvm.dbg.declare(metadata %"class.__gnu_cxx::new_allocator.1"** %this.addr, metadata !2442, metadata !DIExpression()), !dbg !2443
  store %"class.__gnu_cxx::new_allocator.1"* %0, %"class.__gnu_cxx::new_allocator.1"** %.addr, align 8
  call void @llvm.dbg.declare(metadata %"class.__gnu_cxx::new_allocator.1"** %.addr, metadata !2444, metadata !DIExpression()), !dbg !2445
  %this1 = load %"class.__gnu_cxx::new_allocator.1"*, %"class.__gnu_cxx::new_allocator.1"** %this.addr, align 8
  ret void, !dbg !2446
}

; Function Attrs: noinline uwtable
define linkonce_odr dso_local void @_ZNSt13_Bit_iteratorC2Ev(%"struct.std::_Bit_iterator"* %this) unnamed_addr #0 comdat align 2 !dbg !2447 {
entry:
  %this.addr = alloca %"struct.std::_Bit_iterator"*, align 8
  store %"struct.std::_Bit_iterator"* %this, %"struct.std::_Bit_iterator"** %this.addr, align 8
  call void @llvm.dbg.declare(metadata %"struct.std::_Bit_iterator"** %this.addr, metadata !2448, metadata !DIExpression()), !dbg !2450
  %this1 = load %"struct.std::_Bit_iterator"*, %"struct.std::_Bit_iterator"** %this.addr, align 8
  %0 = bitcast %"struct.std::_Bit_iterator"* %this1 to %"struct.std::_Bit_iterator_base"*, !dbg !2451
  call void @_ZNSt18_Bit_iterator_baseC2EPmj(%"struct.std::_Bit_iterator_base"* %0, i64* null, i32 0), !dbg !2452
  ret void, !dbg !2453
}

; Function Attrs: noinline noreturn nounwind
define linkonce_odr hidden void @__clang_call_terminate(i8* %0) #4 comdat {
  %2 = call i8* @__cxa_begin_catch(i8* %0) #10
  call void @_ZSt9terminatev() #12
  unreachable
}

declare dso_local i8* @__cxa_begin_catch(i8*)

declare dso_local void @_ZSt9terminatev()

; Function Attrs: noinline nounwind uwtable
define linkonce_odr dso_local void @_ZNSt18_Bit_iterator_baseC2EPmj(%"struct.std::_Bit_iterator_base"* %this, i64* %__x, i32 %__y) unnamed_addr #3 comdat align 2 !dbg !2454 {
entry:
  %this.addr = alloca %"struct.std::_Bit_iterator_base"*, align 8
  %__x.addr = alloca i64*, align 8
  %__y.addr = alloca i32, align 4
  store %"struct.std::_Bit_iterator_base"* %this, %"struct.std::_Bit_iterator_base"** %this.addr, align 8
  call void @llvm.dbg.declare(metadata %"struct.std::_Bit_iterator_base"** %this.addr, metadata !2455, metadata !DIExpression()), !dbg !2457
  store i64* %__x, i64** %__x.addr, align 8
  call void @llvm.dbg.declare(metadata i64** %__x.addr, metadata !2458, metadata !DIExpression()), !dbg !2459
  store i32 %__y, i32* %__y.addr, align 4
  call void @llvm.dbg.declare(metadata i32* %__y.addr, metadata !2460, metadata !DIExpression()), !dbg !2461
  %this1 = load %"struct.std::_Bit_iterator_base"*, %"struct.std::_Bit_iterator_base"** %this.addr, align 8
  %0 = bitcast %"struct.std::_Bit_iterator_base"* %this1 to %"struct.std::iterator"*, !dbg !2462
  %_M_p = getelementptr inbounds %"struct.std::_Bit_iterator_base", %"struct.std::_Bit_iterator_base"* %this1, i32 0, i32 0, !dbg !2463
  %1 = load i64*, i64** %__x.addr, align 8, !dbg !2464
  store i64* %1, i64** %_M_p, align 8, !dbg !2463
  %_M_offset = getelementptr inbounds %"struct.std::_Bit_iterator_base", %"struct.std::_Bit_iterator_base"* %this1, i32 0, i32 1, !dbg !2465
  %2 = load i32, i32* %__y.addr, align 4, !dbg !2466
  store i32 %2, i32* %_M_offset, align 8, !dbg !2465
  ret void, !dbg !2467
}

; Function Attrs: noinline nounwind uwtable
define linkonce_odr dso_local void @_ZN9__gnu_cxx13new_allocatorImED2Ev(%"class.__gnu_cxx::new_allocator.1"* %this) unnamed_addr #3 comdat align 2 !dbg !2468 {
entry:
  %this.addr = alloca %"class.__gnu_cxx::new_allocator.1"*, align 8
  store %"class.__gnu_cxx::new_allocator.1"* %this, %"class.__gnu_cxx::new_allocator.1"** %this.addr, align 8
  call void @llvm.dbg.declare(metadata %"class.__gnu_cxx::new_allocator.1"** %this.addr, metadata !2469, metadata !DIExpression()), !dbg !2470
  %this1 = load %"class.__gnu_cxx::new_allocator.1"*, %"class.__gnu_cxx::new_allocator.1"** %this.addr, align 8
  ret void, !dbg !2471
}

; Function Attrs: noinline uwtable
define linkonce_odr dso_local i64* @_ZNSt13_Bvector_baseISaIbEE11_M_allocateEm(%"struct.std::_Bvector_base"* %this, i64 %__n) #0 comdat align 2 !dbg !2472 {
entry:
  %this.addr = alloca %"struct.std::_Bvector_base"*, align 8
  %__n.addr = alloca i64, align 8
  store %"struct.std::_Bvector_base"* %this, %"struct.std::_Bvector_base"** %this.addr, align 8
  call void @llvm.dbg.declare(metadata %"struct.std::_Bvector_base"** %this.addr, metadata !2473, metadata !DIExpression()), !dbg !2474
  store i64 %__n, i64* %__n.addr, align 8
  call void @llvm.dbg.declare(metadata i64* %__n.addr, metadata !2475, metadata !DIExpression()), !dbg !2476
  %this1 = load %"struct.std::_Bvector_base"*, %"struct.std::_Bvector_base"** %this.addr, align 8
  %_M_impl = getelementptr inbounds %"struct.std::_Bvector_base", %"struct.std::_Bvector_base"* %this1, i32 0, i32 0, !dbg !2477
  %0 = bitcast %"struct.std::_Bvector_base<std::allocator<bool> >::_Bvector_impl"* %_M_impl to %"class.std::allocator.0"*, !dbg !2477
  %1 = load i64, i64* %__n.addr, align 8, !dbg !2478
  %call = call i64 @_ZNSt13_Bvector_baseISaIbEE8_S_nwordEm(i64 %1), !dbg !2479
  %call2 = call i64* @_ZNSt16allocator_traitsISaImEE8allocateERS0_m(%"class.std::allocator.0"* dereferenceable(1) %0, i64 %call), !dbg !2480
  ret i64* %call2, !dbg !2481
}

; Function Attrs: noinline nounwind uwtable
define linkonce_odr dso_local i64 @_ZNSt13_Bvector_baseISaIbEE8_S_nwordEm(i64 %__n) #3 comdat align 2 !dbg !2482 {
entry:
  %__n.addr = alloca i64, align 8
  store i64 %__n, i64* %__n.addr, align 8
  call void @llvm.dbg.declare(metadata i64* %__n.addr, metadata !2483, metadata !DIExpression()), !dbg !2484
  %0 = load i64, i64* %__n.addr, align 8, !dbg !2485
  %add = add i64 %0, 64, !dbg !2486
  %sub = sub i64 %add, 1, !dbg !2487
  %div = udiv i64 %sub, 64, !dbg !2488
  ret i64 %div, !dbg !2489
}

; Function Attrs: noinline nounwind uwtable
define linkonce_odr dso_local i64* @_ZSt11__addressofImEPT_RS0_(i64* dereferenceable(8) %__r) #3 comdat !dbg !2490 {
entry:
  %__r.addr = alloca i64*, align 8
  store i64* %__r, i64** %__r.addr, align 8
  call void @llvm.dbg.declare(metadata i64** %__r.addr, metadata !2494, metadata !DIExpression()), !dbg !2495
  %0 = load i64*, i64** %__r.addr, align 8, !dbg !2496
  ret i64* %0, !dbg !2497
}

; Function Attrs: noinline nounwind uwtable
define linkonce_odr dso_local void @_ZNSt13_Bit_iteratorC2EPmj(%"struct.std::_Bit_iterator"* %this, i64* %__x, i32 %__y) unnamed_addr #3 comdat align 2 !dbg !2498 {
entry:
  %this.addr = alloca %"struct.std::_Bit_iterator"*, align 8
  %__x.addr = alloca i64*, align 8
  %__y.addr = alloca i32, align 4
  store %"struct.std::_Bit_iterator"* %this, %"struct.std::_Bit_iterator"** %this.addr, align 8
  call void @llvm.dbg.declare(metadata %"struct.std::_Bit_iterator"** %this.addr, metadata !2499, metadata !DIExpression()), !dbg !2500
  store i64* %__x, i64** %__x.addr, align 8
  call void @llvm.dbg.declare(metadata i64** %__x.addr, metadata !2501, metadata !DIExpression()), !dbg !2502
  store i32 %__y, i32* %__y.addr, align 4
  call void @llvm.dbg.declare(metadata i32* %__y.addr, metadata !2503, metadata !DIExpression()), !dbg !2504
  %this1 = load %"struct.std::_Bit_iterator"*, %"struct.std::_Bit_iterator"** %this.addr, align 8
  %0 = bitcast %"struct.std::_Bit_iterator"* %this1 to %"struct.std::_Bit_iterator_base"*, !dbg !2505
  %1 = load i64*, i64** %__x.addr, align 8, !dbg !2506
  %2 = load i32, i32* %__y.addr, align 4, !dbg !2507
  call void @_ZNSt18_Bit_iterator_baseC2EPmj(%"struct.std::_Bit_iterator_base"* %0, i64* %1, i32 %2), !dbg !2508
  ret void, !dbg !2509
}

; Function Attrs: argmemonly nounwind willreturn
declare void @llvm.memcpy.p0i8.p0i8.i64(i8* noalias nocapture writeonly, i8* noalias nocapture readonly, i64, i1 immarg) #5

; Function Attrs: noinline uwtable
define linkonce_odr dso_local { i64*, i32 } @_ZStplRKSt13_Bit_iteratorl(%"struct.std::_Bit_iterator"* dereferenceable(16) %__x, i64 %__n) #0 comdat !dbg !2510 {
entry:
  %retval = alloca %"struct.std::_Bit_iterator", align 8
  %__x.addr = alloca %"struct.std::_Bit_iterator"*, align 8
  %__n.addr = alloca i64, align 8
  store %"struct.std::_Bit_iterator"* %__x, %"struct.std::_Bit_iterator"** %__x.addr, align 8
  call void @llvm.dbg.declare(metadata %"struct.std::_Bit_iterator"** %__x.addr, metadata !2515, metadata !DIExpression()), !dbg !2516
  store i64 %__n, i64* %__n.addr, align 8
  call void @llvm.dbg.declare(metadata i64* %__n.addr, metadata !2517, metadata !DIExpression()), !dbg !2518
  call void @llvm.dbg.declare(metadata %"struct.std::_Bit_iterator"* %retval, metadata !2519, metadata !DIExpression()), !dbg !2520
  %0 = load %"struct.std::_Bit_iterator"*, %"struct.std::_Bit_iterator"** %__x.addr, align 8, !dbg !2521
  %1 = bitcast %"struct.std::_Bit_iterator"* %retval to i8*, !dbg !2521
  %2 = bitcast %"struct.std::_Bit_iterator"* %0 to i8*, !dbg !2521
  call void @llvm.memcpy.p0i8.p0i8.i64(i8* align 8 %1, i8* align 8 %2, i64 16, i1 false), !dbg !2521
  %3 = load i64, i64* %__n.addr, align 8, !dbg !2522
  %call = call dereferenceable(16) %"struct.std::_Bit_iterator"* @_ZNSt13_Bit_iteratorpLEl(%"struct.std::_Bit_iterator"* %retval, i64 %3), !dbg !2523
  %4 = bitcast %"struct.std::_Bit_iterator"* %retval to { i64*, i32 }*, !dbg !2524
  %5 = load { i64*, i32 }, { i64*, i32 }* %4, align 8, !dbg !2524
  ret { i64*, i32 } %5, !dbg !2524
}

; Function Attrs: noinline uwtable
define linkonce_odr dso_local i64* @_ZNSt16allocator_traitsISaImEE8allocateERS0_m(%"class.std::allocator.0"* dereferenceable(1) %__a, i64 %__n) #0 comdat align 2 !dbg !2525 {
entry:
  %__a.addr = alloca %"class.std::allocator.0"*, align 8
  %__n.addr = alloca i64, align 8
  store %"class.std::allocator.0"* %__a, %"class.std::allocator.0"** %__a.addr, align 8
  call void @llvm.dbg.declare(metadata %"class.std::allocator.0"** %__a.addr, metadata !2526, metadata !DIExpression()), !dbg !2527
  store i64 %__n, i64* %__n.addr, align 8
  call void @llvm.dbg.declare(metadata i64* %__n.addr, metadata !2528, metadata !DIExpression()), !dbg !2529
  %0 = load %"class.std::allocator.0"*, %"class.std::allocator.0"** %__a.addr, align 8, !dbg !2530
  %1 = bitcast %"class.std::allocator.0"* %0 to %"class.__gnu_cxx::new_allocator.1"*, !dbg !2530
  %2 = load i64, i64* %__n.addr, align 8, !dbg !2531
  %call = call i64* @_ZN9__gnu_cxx13new_allocatorImE8allocateEmPKv(%"class.__gnu_cxx::new_allocator.1"* %1, i64 %2, i8* null), !dbg !2532
  ret i64* %call, !dbg !2533
}

; Function Attrs: noinline uwtable
define linkonce_odr dso_local i64* @_ZN9__gnu_cxx13new_allocatorImE8allocateEmPKv(%"class.__gnu_cxx::new_allocator.1"* %this, i64 %__n, i8* %0) #0 comdat align 2 !dbg !2534 {
entry:
  %this.addr = alloca %"class.__gnu_cxx::new_allocator.1"*, align 8
  %__n.addr = alloca i64, align 8
  %.addr = alloca i8*, align 8
  store %"class.__gnu_cxx::new_allocator.1"* %this, %"class.__gnu_cxx::new_allocator.1"** %this.addr, align 8
  call void @llvm.dbg.declare(metadata %"class.__gnu_cxx::new_allocator.1"** %this.addr, metadata !2535, metadata !DIExpression()), !dbg !2536
  store i64 %__n, i64* %__n.addr, align 8
  call void @llvm.dbg.declare(metadata i64* %__n.addr, metadata !2537, metadata !DIExpression()), !dbg !2538
  store i8* %0, i8** %.addr, align 8
  call void @llvm.dbg.declare(metadata i8** %.addr, metadata !2539, metadata !DIExpression()), !dbg !2540
  %this1 = load %"class.__gnu_cxx::new_allocator.1"*, %"class.__gnu_cxx::new_allocator.1"** %this.addr, align 8
  %1 = load i64, i64* %__n.addr, align 8, !dbg !2541
  %call = call i64 @_ZNK9__gnu_cxx13new_allocatorImE11_M_max_sizeEv(%"class.__gnu_cxx::new_allocator.1"* %this1) #10, !dbg !2543
  %cmp = icmp ugt i64 %1, %call, !dbg !2544
  br i1 %cmp, label %if.then, label %if.end, !dbg !2545

if.then:                                          ; preds = %entry
  call void @_ZSt17__throw_bad_allocv() #13, !dbg !2546
  unreachable, !dbg !2546

if.end:                                           ; preds = %entry
  %2 = load i64, i64* %__n.addr, align 8, !dbg !2547
  %mul = mul i64 %2, 8, !dbg !2548
  %call2 = call i8* @_Znwm(i64 %mul), !dbg !2549
  %3 = bitcast i8* %call2 to i64*, !dbg !2550
  ret i64* %3, !dbg !2551
}

; Function Attrs: noinline nounwind uwtable
define linkonce_odr dso_local i64 @_ZNK9__gnu_cxx13new_allocatorImE11_M_max_sizeEv(%"class.__gnu_cxx::new_allocator.1"* %this) #3 comdat align 2 !dbg !2552 {
entry:
  %this.addr = alloca %"class.__gnu_cxx::new_allocator.1"*, align 8
  store %"class.__gnu_cxx::new_allocator.1"* %this, %"class.__gnu_cxx::new_allocator.1"** %this.addr, align 8
  call void @llvm.dbg.declare(metadata %"class.__gnu_cxx::new_allocator.1"** %this.addr, metadata !2553, metadata !DIExpression()), !dbg !2555
  %this1 = load %"class.__gnu_cxx::new_allocator.1"*, %"class.__gnu_cxx::new_allocator.1"** %this.addr, align 8
  ret i64 1152921504606846975, !dbg !2556
}

; Function Attrs: noreturn
declare dso_local void @_ZSt17__throw_bad_allocv() #6

; Function Attrs: nobuiltin
declare dso_local noalias i8* @_Znwm(i64) #7

; Function Attrs: noinline uwtable
define linkonce_odr dso_local dereferenceable(16) %"struct.std::_Bit_iterator"* @_ZNSt13_Bit_iteratorpLEl(%"struct.std::_Bit_iterator"* %this, i64 %__i) #0 comdat align 2 !dbg !2557 {
entry:
  %this.addr = alloca %"struct.std::_Bit_iterator"*, align 8
  %__i.addr = alloca i64, align 8
  store %"struct.std::_Bit_iterator"* %this, %"struct.std::_Bit_iterator"** %this.addr, align 8
  call void @llvm.dbg.declare(metadata %"struct.std::_Bit_iterator"** %this.addr, metadata !2558, metadata !DIExpression()), !dbg !2559
  store i64 %__i, i64* %__i.addr, align 8
  call void @llvm.dbg.declare(metadata i64* %__i.addr, metadata !2560, metadata !DIExpression()), !dbg !2561
  %this1 = load %"struct.std::_Bit_iterator"*, %"struct.std::_Bit_iterator"** %this.addr, align 8
  %0 = bitcast %"struct.std::_Bit_iterator"* %this1 to %"struct.std::_Bit_iterator_base"*, !dbg !2562
  %1 = load i64, i64* %__i.addr, align 8, !dbg !2563
  call void @_ZNSt18_Bit_iterator_base7_M_incrEl(%"struct.std::_Bit_iterator_base"* %0, i64 %1), !dbg !2562
  ret %"struct.std::_Bit_iterator"* %this1, !dbg !2564
}

; Function Attrs: noinline nounwind uwtable
define linkonce_odr dso_local void @_ZNSt18_Bit_iterator_base7_M_incrEl(%"struct.std::_Bit_iterator_base"* %this, i64 %__i) #3 comdat align 2 !dbg !2565 {
entry:
  %this.addr = alloca %"struct.std::_Bit_iterator_base"*, align 8
  %__i.addr = alloca i64, align 8
  %__n = alloca i64, align 8
  store %"struct.std::_Bit_iterator_base"* %this, %"struct.std::_Bit_iterator_base"** %this.addr, align 8
  call void @llvm.dbg.declare(metadata %"struct.std::_Bit_iterator_base"** %this.addr, metadata !2566, metadata !DIExpression()), !dbg !2567
  store i64 %__i, i64* %__i.addr, align 8
  call void @llvm.dbg.declare(metadata i64* %__i.addr, metadata !2568, metadata !DIExpression()), !dbg !2569
  %this1 = load %"struct.std::_Bit_iterator_base"*, %"struct.std::_Bit_iterator_base"** %this.addr, align 8
  call void @llvm.dbg.declare(metadata i64* %__n, metadata !2570, metadata !DIExpression()), !dbg !2571
  %0 = load i64, i64* %__i.addr, align 8, !dbg !2572
  %_M_offset = getelementptr inbounds %"struct.std::_Bit_iterator_base", %"struct.std::_Bit_iterator_base"* %this1, i32 0, i32 1, !dbg !2573
  %1 = load i32, i32* %_M_offset, align 8, !dbg !2573
  %conv = zext i32 %1 to i64, !dbg !2573
  %add = add nsw i64 %0, %conv, !dbg !2574
  store i64 %add, i64* %__n, align 8, !dbg !2571
  %2 = load i64, i64* %__n, align 8, !dbg !2575
  %div = sdiv i64 %2, 64, !dbg !2576
  %_M_p = getelementptr inbounds %"struct.std::_Bit_iterator_base", %"struct.std::_Bit_iterator_base"* %this1, i32 0, i32 0, !dbg !2577
  %3 = load i64*, i64** %_M_p, align 8, !dbg !2578
  %add.ptr = getelementptr inbounds i64, i64* %3, i64 %div, !dbg !2578
  store i64* %add.ptr, i64** %_M_p, align 8, !dbg !2578
  %4 = load i64, i64* %__n, align 8, !dbg !2579
  %rem = srem i64 %4, 64, !dbg !2580
  store i64 %rem, i64* %__n, align 8, !dbg !2581
  %5 = load i64, i64* %__n, align 8, !dbg !2582
  %cmp = icmp slt i64 %5, 0, !dbg !2584
  br i1 %cmp, label %if.then, label %if.end, !dbg !2585

if.then:                                          ; preds = %entry
  %6 = load i64, i64* %__n, align 8, !dbg !2586
  %add2 = add nsw i64 %6, 64, !dbg !2586
  store i64 %add2, i64* %__n, align 8, !dbg !2586
  %_M_p3 = getelementptr inbounds %"struct.std::_Bit_iterator_base", %"struct.std::_Bit_iterator_base"* %this1, i32 0, i32 0, !dbg !2588
  %7 = load i64*, i64** %_M_p3, align 8, !dbg !2589
  %incdec.ptr = getelementptr inbounds i64, i64* %7, i32 -1, !dbg !2589
  store i64* %incdec.ptr, i64** %_M_p3, align 8, !dbg !2589
  br label %if.end, !dbg !2590

if.end:                                           ; preds = %if.then, %entry
  %8 = load i64, i64* %__n, align 8, !dbg !2591
  %conv4 = trunc i64 %8 to i32, !dbg !2591
  %_M_offset5 = getelementptr inbounds %"struct.std::_Bit_iterator_base", %"struct.std::_Bit_iterator_base"* %this1, i32 0, i32 1, !dbg !2592
  store i32 %conv4, i32* %_M_offset5, align 8, !dbg !2593
  ret void, !dbg !2594
}

; Function Attrs: noinline nounwind uwtable
define linkonce_odr dso_local i64* @_ZNKSt13_Bvector_baseISaIbEE13_Bvector_impl11_M_end_addrEv(%"struct.std::_Bvector_base<std::allocator<bool> >::_Bvector_impl"* %this) #3 comdat align 2 !dbg !2595 {
entry:
  %retval = alloca i64*, align 8
  %this.addr = alloca %"struct.std::_Bvector_base<std::allocator<bool> >::_Bvector_impl"*, align 8
  store %"struct.std::_Bvector_base<std::allocator<bool> >::_Bvector_impl"* %this, %"struct.std::_Bvector_base<std::allocator<bool> >::_Bvector_impl"** %this.addr, align 8
  call void @llvm.dbg.declare(metadata %"struct.std::_Bvector_base<std::allocator<bool> >::_Bvector_impl"** %this.addr, metadata !2596, metadata !DIExpression()), !dbg !2598
  %this1 = load %"struct.std::_Bvector_base<std::allocator<bool> >::_Bvector_impl"*, %"struct.std::_Bvector_base<std::allocator<bool> >::_Bvector_impl"** %this.addr, align 8
  %0 = bitcast %"struct.std::_Bvector_base<std::allocator<bool> >::_Bvector_impl"* %this1 to %"struct.std::_Bvector_base<std::allocator<bool> >::_Bvector_impl_data"*, !dbg !2599
  %_M_end_of_storage = getelementptr inbounds %"struct.std::_Bvector_base<std::allocator<bool> >::_Bvector_impl_data", %"struct.std::_Bvector_base<std::allocator<bool> >::_Bvector_impl_data"* %0, i32 0, i32 2, !dbg !2599
  %1 = load i64*, i64** %_M_end_of_storage, align 8, !dbg !2599
  %tobool = icmp ne i64* %1, null, !dbg !2601
  br i1 %tobool, label %if.then, label %if.end, !dbg !2602

if.then:                                          ; preds = %entry
  %2 = bitcast %"struct.std::_Bvector_base<std::allocator<bool> >::_Bvector_impl"* %this1 to %"struct.std::_Bvector_base<std::allocator<bool> >::_Bvector_impl_data"*, !dbg !2603
  %_M_end_of_storage2 = getelementptr inbounds %"struct.std::_Bvector_base<std::allocator<bool> >::_Bvector_impl_data", %"struct.std::_Bvector_base<std::allocator<bool> >::_Bvector_impl_data"* %2, i32 0, i32 2, !dbg !2603
  %3 = load i64*, i64** %_M_end_of_storage2, align 8, !dbg !2603
  %arrayidx = getelementptr inbounds i64, i64* %3, i64 -1, !dbg !2604
  %call = call i64* @_ZSt11__addressofImEPT_RS0_(i64* dereferenceable(8) %arrayidx) #10, !dbg !2605
  %add.ptr = getelementptr inbounds i64, i64* %call, i64 1, !dbg !2606
  store i64* %add.ptr, i64** %retval, align 8, !dbg !2607
  br label %return, !dbg !2607

if.end:                                           ; preds = %entry
  store i64* null, i64** %retval, align 8, !dbg !2608
  br label %return, !dbg !2608

return:                                           ; preds = %if.end, %if.then
  %4 = load i64*, i64** %retval, align 8, !dbg !2609
  ret i64* %4, !dbg !2609
}

; Function Attrs: argmemonly nounwind willreturn
declare void @llvm.memset.p0i8.i64(i8* nocapture writeonly, i8, i64, i1 immarg) #5

; Function Attrs: noinline uwtable
define linkonce_odr dso_local void @_ZNSt13_Bvector_baseISaIbEE13_M_deallocateEv(%"struct.std::_Bvector_base"* %this) #0 comdat align 2 !dbg !2610 {
entry:
  %this.addr = alloca %"struct.std::_Bvector_base"*, align 8
  %__n = alloca i64, align 8
  store %"struct.std::_Bvector_base"* %this, %"struct.std::_Bvector_base"** %this.addr, align 8
  call void @llvm.dbg.declare(metadata %"struct.std::_Bvector_base"** %this.addr, metadata !2611, metadata !DIExpression()), !dbg !2612
  %this1 = load %"struct.std::_Bvector_base"*, %"struct.std::_Bvector_base"** %this.addr, align 8
  %_M_impl = getelementptr inbounds %"struct.std::_Bvector_base", %"struct.std::_Bvector_base"* %this1, i32 0, i32 0, !dbg !2613
  %0 = bitcast %"struct.std::_Bvector_base<std::allocator<bool> >::_Bvector_impl"* %_M_impl to %"struct.std::_Bvector_base<std::allocator<bool> >::_Bvector_impl_data"*, !dbg !2613
  %_M_start = getelementptr inbounds %"struct.std::_Bvector_base<std::allocator<bool> >::_Bvector_impl_data", %"struct.std::_Bvector_base<std::allocator<bool> >::_Bvector_impl_data"* %0, i32 0, i32 0, !dbg !2615
  %1 = bitcast %"struct.std::_Bit_iterator"* %_M_start to %"struct.std::_Bit_iterator_base"*, !dbg !2613
  %_M_p = getelementptr inbounds %"struct.std::_Bit_iterator_base", %"struct.std::_Bit_iterator_base"* %1, i32 0, i32 0, !dbg !2616
  %2 = load i64*, i64** %_M_p, align 8, !dbg !2616
  %tobool = icmp ne i64* %2, null, !dbg !2613
  br i1 %tobool, label %if.then, label %if.end, !dbg !2617

if.then:                                          ; preds = %entry
  call void @llvm.dbg.declare(metadata i64* %__n, metadata !2618, metadata !DIExpression()), !dbg !2621
  %_M_impl2 = getelementptr inbounds %"struct.std::_Bvector_base", %"struct.std::_Bvector_base"* %this1, i32 0, i32 0, !dbg !2622
  %call = call i64* @_ZNKSt13_Bvector_baseISaIbEE13_Bvector_impl11_M_end_addrEv(%"struct.std::_Bvector_base<std::allocator<bool> >::_Bvector_impl"* %_M_impl2) #10, !dbg !2623
  %_M_impl3 = getelementptr inbounds %"struct.std::_Bvector_base", %"struct.std::_Bvector_base"* %this1, i32 0, i32 0, !dbg !2624
  %3 = bitcast %"struct.std::_Bvector_base<std::allocator<bool> >::_Bvector_impl"* %_M_impl3 to %"struct.std::_Bvector_base<std::allocator<bool> >::_Bvector_impl_data"*, !dbg !2624
  %_M_start4 = getelementptr inbounds %"struct.std::_Bvector_base<std::allocator<bool> >::_Bvector_impl_data", %"struct.std::_Bvector_base<std::allocator<bool> >::_Bvector_impl_data"* %3, i32 0, i32 0, !dbg !2625
  %4 = bitcast %"struct.std::_Bit_iterator"* %_M_start4 to %"struct.std::_Bit_iterator_base"*, !dbg !2624
  %_M_p5 = getelementptr inbounds %"struct.std::_Bit_iterator_base", %"struct.std::_Bit_iterator_base"* %4, i32 0, i32 0, !dbg !2626
  %5 = load i64*, i64** %_M_p5, align 8, !dbg !2626
  %sub.ptr.lhs.cast = ptrtoint i64* %call to i64, !dbg !2627
  %sub.ptr.rhs.cast = ptrtoint i64* %5 to i64, !dbg !2627
  %sub.ptr.sub = sub i64 %sub.ptr.lhs.cast, %sub.ptr.rhs.cast, !dbg !2627
  %sub.ptr.div = sdiv exact i64 %sub.ptr.sub, 8, !dbg !2627
  store i64 %sub.ptr.div, i64* %__n, align 8, !dbg !2621
  %_M_impl6 = getelementptr inbounds %"struct.std::_Bvector_base", %"struct.std::_Bvector_base"* %this1, i32 0, i32 0, !dbg !2628
  %6 = bitcast %"struct.std::_Bvector_base<std::allocator<bool> >::_Bvector_impl"* %_M_impl6 to %"class.std::allocator.0"*, !dbg !2628
  %_M_impl7 = getelementptr inbounds %"struct.std::_Bvector_base", %"struct.std::_Bvector_base"* %this1, i32 0, i32 0, !dbg !2629
  %7 = bitcast %"struct.std::_Bvector_base<std::allocator<bool> >::_Bvector_impl"* %_M_impl7 to %"struct.std::_Bvector_base<std::allocator<bool> >::_Bvector_impl_data"*, !dbg !2629
  %_M_end_of_storage = getelementptr inbounds %"struct.std::_Bvector_base<std::allocator<bool> >::_Bvector_impl_data", %"struct.std::_Bvector_base<std::allocator<bool> >::_Bvector_impl_data"* %7, i32 0, i32 2, !dbg !2630
  %8 = load i64*, i64** %_M_end_of_storage, align 8, !dbg !2630
  %9 = load i64, i64* %__n, align 8, !dbg !2631
  %idx.neg = sub i64 0, %9, !dbg !2632
  %add.ptr = getelementptr inbounds i64, i64* %8, i64 %idx.neg, !dbg !2632
  %10 = load i64, i64* %__n, align 8, !dbg !2633
  call void @_ZNSt16allocator_traitsISaImEE10deallocateERS0_Pmm(%"class.std::allocator.0"* dereferenceable(1) %6, i64* %add.ptr, i64 %10), !dbg !2634
  %_M_impl8 = getelementptr inbounds %"struct.std::_Bvector_base", %"struct.std::_Bvector_base"* %this1, i32 0, i32 0, !dbg !2635
  %11 = bitcast %"struct.std::_Bvector_base<std::allocator<bool> >::_Bvector_impl"* %_M_impl8 to %"struct.std::_Bvector_base<std::allocator<bool> >::_Bvector_impl_data"*, !dbg !2635
  call void @_ZNSt13_Bvector_baseISaIbEE18_Bvector_impl_data8_M_resetEv(%"struct.std::_Bvector_base<std::allocator<bool> >::_Bvector_impl_data"* %11) #10, !dbg !2636
  br label %if.end, !dbg !2637

if.end:                                           ; preds = %if.then, %entry
  ret void, !dbg !2638
}

; Function Attrs: noinline nounwind uwtable
define linkonce_odr dso_local void @_ZNSt13_Bvector_baseISaIbEE13_Bvector_implD2Ev(%"struct.std::_Bvector_base<std::allocator<bool> >::_Bvector_impl"* %this) unnamed_addr #3 comdat align 2 !dbg !2639 {
entry:
  %this.addr = alloca %"struct.std::_Bvector_base<std::allocator<bool> >::_Bvector_impl"*, align 8
  store %"struct.std::_Bvector_base<std::allocator<bool> >::_Bvector_impl"* %this, %"struct.std::_Bvector_base<std::allocator<bool> >::_Bvector_impl"** %this.addr, align 8
  call void @llvm.dbg.declare(metadata %"struct.std::_Bvector_base<std::allocator<bool> >::_Bvector_impl"** %this.addr, metadata !2641, metadata !DIExpression()), !dbg !2642
  %this1 = load %"struct.std::_Bvector_base<std::allocator<bool> >::_Bvector_impl"*, %"struct.std::_Bvector_base<std::allocator<bool> >::_Bvector_impl"** %this.addr, align 8
  %0 = bitcast %"struct.std::_Bvector_base<std::allocator<bool> >::_Bvector_impl"* %this1 to %"class.std::allocator.0"*, !dbg !2643
  call void @_ZNSaImED2Ev(%"class.std::allocator.0"* %0) #10, !dbg !2643
  ret void, !dbg !2645
}

; Function Attrs: noinline uwtable
define linkonce_odr dso_local void @_ZNSt16allocator_traitsISaImEE10deallocateERS0_Pmm(%"class.std::allocator.0"* dereferenceable(1) %__a, i64* %__p, i64 %__n) #0 comdat align 2 !dbg !2646 {
entry:
  %__a.addr = alloca %"class.std::allocator.0"*, align 8
  %__p.addr = alloca i64*, align 8
  %__n.addr = alloca i64, align 8
  store %"class.std::allocator.0"* %__a, %"class.std::allocator.0"** %__a.addr, align 8
  call void @llvm.dbg.declare(metadata %"class.std::allocator.0"** %__a.addr, metadata !2647, metadata !DIExpression()), !dbg !2648
  store i64* %__p, i64** %__p.addr, align 8
  call void @llvm.dbg.declare(metadata i64** %__p.addr, metadata !2649, metadata !DIExpression()), !dbg !2650
  store i64 %__n, i64* %__n.addr, align 8
  call void @llvm.dbg.declare(metadata i64* %__n.addr, metadata !2651, metadata !DIExpression()), !dbg !2652
  %0 = load %"class.std::allocator.0"*, %"class.std::allocator.0"** %__a.addr, align 8, !dbg !2653
  %1 = bitcast %"class.std::allocator.0"* %0 to %"class.__gnu_cxx::new_allocator.1"*, !dbg !2653
  %2 = load i64*, i64** %__p.addr, align 8, !dbg !2654
  %3 = load i64, i64* %__n.addr, align 8, !dbg !2655
  call void @_ZN9__gnu_cxx13new_allocatorImE10deallocateEPmm(%"class.__gnu_cxx::new_allocator.1"* %1, i64* %2, i64 %3), !dbg !2656
  ret void, !dbg !2657
}

; Function Attrs: noinline nounwind uwtable
define linkonce_odr dso_local void @_ZNSt13_Bvector_baseISaIbEE18_Bvector_impl_data8_M_resetEv(%"struct.std::_Bvector_base<std::allocator<bool> >::_Bvector_impl_data"* %this) #3 comdat align 2 personality i8* bitcast (i32 (...)* @__gxx_personality_v0 to i8*) !dbg !2658 {
entry:
  %this.addr = alloca %"struct.std::_Bvector_base<std::allocator<bool> >::_Bvector_impl_data"*, align 8
  %ref.tmp = alloca %"struct.std::_Bit_iterator", align 8
  store %"struct.std::_Bvector_base<std::allocator<bool> >::_Bvector_impl_data"* %this, %"struct.std::_Bvector_base<std::allocator<bool> >::_Bvector_impl_data"** %this.addr, align 8
  call void @llvm.dbg.declare(metadata %"struct.std::_Bvector_base<std::allocator<bool> >::_Bvector_impl_data"** %this.addr, metadata !2659, metadata !DIExpression()), !dbg !2660
  %this1 = load %"struct.std::_Bvector_base<std::allocator<bool> >::_Bvector_impl_data"*, %"struct.std::_Bvector_base<std::allocator<bool> >::_Bvector_impl_data"** %this.addr, align 8
  invoke void @_ZNSt13_Bit_iteratorC2Ev(%"struct.std::_Bit_iterator"* %ref.tmp)
          to label %invoke.cont unwind label %terminate.lpad, !dbg !2661

invoke.cont:                                      ; preds = %entry
  %_M_finish = getelementptr inbounds %"struct.std::_Bvector_base<std::allocator<bool> >::_Bvector_impl_data", %"struct.std::_Bvector_base<std::allocator<bool> >::_Bvector_impl_data"* %this1, i32 0, i32 1, !dbg !2662
  %0 = bitcast %"struct.std::_Bit_iterator"* %_M_finish to i8*, !dbg !2663
  %1 = bitcast %"struct.std::_Bit_iterator"* %ref.tmp to i8*, !dbg !2663
  call void @llvm.memcpy.p0i8.p0i8.i64(i8* align 8 %0, i8* align 8 %1, i64 12, i1 false), !dbg !2663
  %_M_start = getelementptr inbounds %"struct.std::_Bvector_base<std::allocator<bool> >::_Bvector_impl_data", %"struct.std::_Bvector_base<std::allocator<bool> >::_Bvector_impl_data"* %this1, i32 0, i32 0, !dbg !2664
  %2 = bitcast %"struct.std::_Bit_iterator"* %_M_start to i8*, !dbg !2665
  %3 = bitcast %"struct.std::_Bit_iterator"* %_M_finish to i8*, !dbg !2665
  call void @llvm.memcpy.p0i8.p0i8.i64(i8* align 8 %2, i8* align 8 %3, i64 12, i1 false), !dbg !2665
  %_M_end_of_storage = getelementptr inbounds %"struct.std::_Bvector_base<std::allocator<bool> >::_Bvector_impl_data", %"struct.std::_Bvector_base<std::allocator<bool> >::_Bvector_impl_data"* %this1, i32 0, i32 2, !dbg !2666
  store i64* null, i64** %_M_end_of_storage, align 8, !dbg !2667
  ret void, !dbg !2668

terminate.lpad:                                   ; preds = %entry
  %4 = landingpad { i8*, i32 }
          catch i8* null, !dbg !2661
  %5 = extractvalue { i8*, i32 } %4, 0, !dbg !2661
  call void @__clang_call_terminate(i8* %5) #12, !dbg !2661
  unreachable, !dbg !2661
}

; Function Attrs: noinline nounwind uwtable
define linkonce_odr dso_local void @_ZN9__gnu_cxx13new_allocatorImE10deallocateEPmm(%"class.__gnu_cxx::new_allocator.1"* %this, i64* %__p, i64 %__t) #3 comdat align 2 !dbg !2669 {
entry:
  %this.addr = alloca %"class.__gnu_cxx::new_allocator.1"*, align 8
  %__p.addr = alloca i64*, align 8
  %__t.addr = alloca i64, align 8
  store %"class.__gnu_cxx::new_allocator.1"* %this, %"class.__gnu_cxx::new_allocator.1"** %this.addr, align 8
  call void @llvm.dbg.declare(metadata %"class.__gnu_cxx::new_allocator.1"** %this.addr, metadata !2670, metadata !DIExpression()), !dbg !2671
  store i64* %__p, i64** %__p.addr, align 8
  call void @llvm.dbg.declare(metadata i64** %__p.addr, metadata !2672, metadata !DIExpression()), !dbg !2673
  store i64 %__t, i64* %__t.addr, align 8
  call void @llvm.dbg.declare(metadata i64* %__t.addr, metadata !2674, metadata !DIExpression()), !dbg !2675
  %this1 = load %"class.__gnu_cxx::new_allocator.1"*, %"class.__gnu_cxx::new_allocator.1"** %this.addr, align 8
  %0 = load i64*, i64** %__p.addr, align 8, !dbg !2676
  %1 = bitcast i64* %0 to i8*, !dbg !2676
  call void @_ZdlPv(i8* %1) #10, !dbg !2677
  ret void, !dbg !2678
}

; Function Attrs: nobuiltin nounwind
declare dso_local void @_ZdlPv(i8*) #8

; Function Attrs: noinline uwtable
define linkonce_odr dso_local { i64*, i64 } @_ZNKSt13_Bit_iteratordeEv(%"struct.std::_Bit_iterator"* %this) #0 comdat align 2 !dbg !2679 {
entry:
  %retval = alloca %"struct.std::_Bit_reference", align 8
  %this.addr = alloca %"struct.std::_Bit_iterator"*, align 8
  store %"struct.std::_Bit_iterator"* %this, %"struct.std::_Bit_iterator"** %this.addr, align 8
  call void @llvm.dbg.declare(metadata %"struct.std::_Bit_iterator"** %this.addr, metadata !2680, metadata !DIExpression()), !dbg !2682
  %this1 = load %"struct.std::_Bit_iterator"*, %"struct.std::_Bit_iterator"** %this.addr, align 8
  %0 = bitcast %"struct.std::_Bit_iterator"* %this1 to %"struct.std::_Bit_iterator_base"*, !dbg !2683
  %_M_p = getelementptr inbounds %"struct.std::_Bit_iterator_base", %"struct.std::_Bit_iterator_base"* %0, i32 0, i32 0, !dbg !2683
  %1 = load i64*, i64** %_M_p, align 8, !dbg !2683
  %2 = bitcast %"struct.std::_Bit_iterator"* %this1 to %"struct.std::_Bit_iterator_base"*, !dbg !2684
  %_M_offset = getelementptr inbounds %"struct.std::_Bit_iterator_base", %"struct.std::_Bit_iterator_base"* %2, i32 0, i32 1, !dbg !2684
  %3 = load i32, i32* %_M_offset, align 8, !dbg !2684
  %sh_prom = zext i32 %3 to i64, !dbg !2685
  %shl = shl i64 1, %sh_prom, !dbg !2685
  call void @_ZNSt14_Bit_referenceC2EPmm(%"struct.std::_Bit_reference"* %retval, i64* %1, i64 %shl), !dbg !2686
  %4 = bitcast %"struct.std::_Bit_reference"* %retval to { i64*, i64 }*, !dbg !2687
  %5 = load { i64*, i64 }, { i64*, i64 }* %4, align 8, !dbg !2687
  ret { i64*, i64 } %5, !dbg !2687
}

; Function Attrs: noinline nounwind uwtable
define linkonce_odr dso_local void @_ZNSt14_Bit_referenceC2EPmm(%"struct.std::_Bit_reference"* %this, i64* %__x, i64 %__y) unnamed_addr #3 comdat align 2 !dbg !2688 {
entry:
  %this.addr = alloca %"struct.std::_Bit_reference"*, align 8
  %__x.addr = alloca i64*, align 8
  %__y.addr = alloca i64, align 8
  store %"struct.std::_Bit_reference"* %this, %"struct.std::_Bit_reference"** %this.addr, align 8
  call void @llvm.dbg.declare(metadata %"struct.std::_Bit_reference"** %this.addr, metadata !2689, metadata !DIExpression()), !dbg !2690
  store i64* %__x, i64** %__x.addr, align 8
  call void @llvm.dbg.declare(metadata i64** %__x.addr, metadata !2691, metadata !DIExpression()), !dbg !2692
  store i64 %__y, i64* %__y.addr, align 8
  call void @llvm.dbg.declare(metadata i64* %__y.addr, metadata !2693, metadata !DIExpression()), !dbg !2694
  %this1 = load %"struct.std::_Bit_reference"*, %"struct.std::_Bit_reference"** %this.addr, align 8
  %_M_p = getelementptr inbounds %"struct.std::_Bit_reference", %"struct.std::_Bit_reference"* %this1, i32 0, i32 0, !dbg !2695
  %0 = load i64*, i64** %__x.addr, align 8, !dbg !2696
  store i64* %0, i64** %_M_p, align 8, !dbg !2695
  %_M_mask = getelementptr inbounds %"struct.std::_Bit_reference", %"struct.std::_Bit_reference"* %this1, i32 0, i32 1, !dbg !2697
  %1 = load i64, i64* %__y.addr, align 8, !dbg !2698
  store i64 %1, i64* %_M_mask, align 8, !dbg !2697
  ret void, !dbg !2699
}

; Function Attrs: nounwind
declare dso_local void @_ZN6dealii11SubscriptorD2Ev(%"class.dealii::Subscriptor"*) unnamed_addr #9

attributes #0 = { noinline uwtable "correctly-rounded-divide-sqrt-fp-math"="false" "disable-tail-calls"="false" "frame-pointer"="all" "less-precise-fpmad"="false" "min-legal-vector-width"="0" "no-infs-fp-math"="false" "no-jump-tables"="false" "no-nans-fp-math"="false" "no-signed-zeros-fp-math"="false" "no-trapping-math"="false" "stack-protector-buffer-size"="8" "target-cpu"="x86-64" "target-features"="+cx8,+fxsr,+mmx,+sse,+sse2,+x87" "unsafe-fp-math"="false" "use-soft-float"="false" }
attributes #1 = { nounwind readnone speculatable willreturn }
attributes #2 = { "correctly-rounded-divide-sqrt-fp-math"="false" "disable-tail-calls"="false" "frame-pointer"="all" "less-precise-fpmad"="false" "no-infs-fp-math"="false" "no-nans-fp-math"="false" "no-signed-zeros-fp-math"="false" "no-trapping-math"="false" "stack-protector-buffer-size"="8" "target-cpu"="x86-64" "target-features"="+cx8,+fxsr,+mmx,+sse,+sse2,+x87" "unsafe-fp-math"="false" "use-soft-float"="false" }
attributes #3 = { noinline nounwind uwtable "correctly-rounded-divide-sqrt-fp-math"="false" "disable-tail-calls"="false" "frame-pointer"="all" "less-precise-fpmad"="false" "min-legal-vector-width"="0" "no-infs-fp-math"="false" "no-jump-tables"="false" "no-nans-fp-math"="false" "no-signed-zeros-fp-math"="false" "no-trapping-math"="false" "stack-protector-buffer-size"="8" "target-cpu"="x86-64" "target-features"="+cx8,+fxsr,+mmx,+sse,+sse2,+x87" "unsafe-fp-math"="false" "use-soft-float"="false" }
attributes #4 = { noinline noreturn nounwind }
attributes #5 = { argmemonly nounwind willreturn }
attributes #6 = { noreturn "correctly-rounded-divide-sqrt-fp-math"="false" "disable-tail-calls"="false" "frame-pointer"="all" "less-precise-fpmad"="false" "no-infs-fp-math"="false" "no-nans-fp-math"="false" "no-signed-zeros-fp-math"="false" "no-trapping-math"="false" "stack-protector-buffer-size"="8" "target-cpu"="x86-64" "target-features"="+cx8,+fxsr,+mmx,+sse,+sse2,+x87" "unsafe-fp-math"="false" "use-soft-float"="false" }
attributes #7 = { nobuiltin "correctly-rounded-divide-sqrt-fp-math"="false" "disable-tail-calls"="false" "frame-pointer"="all" "less-precise-fpmad"="false" "no-infs-fp-math"="false" "no-nans-fp-math"="false" "no-signed-zeros-fp-math"="false" "no-trapping-math"="false" "stack-protector-buffer-size"="8" "target-cpu"="x86-64" "target-features"="+cx8,+fxsr,+mmx,+sse,+sse2,+x87" "unsafe-fp-math"="false" "use-soft-float"="false" }
attributes #8 = { nobuiltin nounwind "correctly-rounded-divide-sqrt-fp-math"="false" "disable-tail-calls"="false" "frame-pointer"="all" "less-precise-fpmad"="false" "no-infs-fp-math"="false" "no-nans-fp-math"="false" "no-signed-zeros-fp-math"="false" "no-trapping-math"="false" "stack-protector-buffer-size"="8" "target-cpu"="x86-64" "target-features"="+cx8,+fxsr,+mmx,+sse,+sse2,+x87" "unsafe-fp-math"="false" "use-soft-float"="false" }
attributes #9 = { nounwind "correctly-rounded-divide-sqrt-fp-math"="false" "disable-tail-calls"="false" "frame-pointer"="all" "less-precise-fpmad"="false" "no-infs-fp-math"="false" "no-nans-fp-math"="false" "no-signed-zeros-fp-math"="false" "no-trapping-math"="false" "stack-protector-buffer-size"="8" "target-cpu"="x86-64" "target-features"="+cx8,+fxsr,+mmx,+sse,+sse2,+x87" "unsafe-fp-math"="false" "use-soft-float"="false" }
attributes #10 = { nounwind }
attributes #11 = { builtin nounwind }
attributes #12 = { noreturn nounwind }
attributes #13 = { noreturn }

!llvm.dbg.cu = !{!0}
!llvm.module.flags = !{!1242, !1243, !1244}
!llvm.ident = !{!1245}

!0 = distinct !DICompileUnit(language: DW_LANG_C_plus_plus_14, file: !1, producer: "clang version 10.0.1 (https://github.com/svkeerthy/IR2Vec-LoopOptimizationFramework.git 561ac470e63b728263a0ac06ef987886ac648486)", isOptimized: false, runtimeVersion: 0, emissionKind: FullDebug, enums: !2, retainedTypes: !9, imports: !20, splitDebugInlining: false, nameTableKind: None)
!1 = !DIFile(filename: "source/libparest/slave/stationary/problem_description.cc", directory: "/home/venkat/IF-DV/spec_build_release/CPU_2017/benchspec/CPU/510.parest_r/build/build_base_ld-loop-ext-m64.0000")
!2 = !{!3}
!3 = !DICompositeType(tag: DW_TAG_enumeration_type, scope: !5, file: !4, line: 70, baseType: !6, size: 32, elements: !7)
!4 = !DIFile(filename: "/usr/lib/gcc/x86_64-linux-gnu/10/../../../../include/c++/10/bits/stl_bvector.h", directory: "")
!5 = !DINamespace(name: "std", scope: null)
!6 = !DIBasicType(name: "unsigned int", size: 32, encoding: DW_ATE_unsigned)
!7 = !{!8}
!8 = !DIEnumerator(name: "_S_word_bit", value: 64, isUnsigned: true)
!9 = !{!10, !14, !16, !18, !19, !6}
!10 = !DIDerivedType(tag: DW_TAG_typedef, name: "difference_type", file: !4, line: 628, baseType: !11)
!11 = !DIDerivedType(tag: DW_TAG_typedef, name: "ptrdiff_t", scope: !5, file: !12, line: 261, baseType: !13)
!12 = !DIFile(filename: "/usr/lib/gcc/x86_64-linux-gnu/10/../../../../include/x86_64-linux-gnu/c++/10/bits/c++config.h", directory: "")
!13 = !DIBasicType(name: "long int", size: 64, encoding: DW_ATE_signed)
!14 = !DIDerivedType(tag: DW_TAG_pointer_type, baseType: !15, size: 64)
!15 = !DIDerivedType(tag: DW_TAG_const_type, baseType: null)
!16 = !DIDerivedType(tag: DW_TAG_pointer_type, baseType: !17, size: 64)
!17 = !DIBasicType(name: "long unsigned int", size: 64, encoding: DW_ATE_unsigned)
!18 = !DIDerivedType(tag: DW_TAG_typedef, name: "size_t", scope: !5, file: !12, line: 260, baseType: !17)
!19 = !DIBasicType(name: "int", size: 32, encoding: DW_ATE_signed)
!20 = !{!21, !27, !34, !36, !38, !42, !44, !46, !48, !50, !52, !54, !56, !61, !65, !67, !69, !74, !76, !78, !80, !82, !84, !86, !89, !92, !94, !98, !103, !105, !107, !109, !111, !113, !115, !117, !119, !121, !123, !127, !131, !133, !135, !137, !139, !141, !143, !145, !147, !149, !151, !153, !155, !157, !159, !161, !165, !169, !173, !175, !177, !179, !181, !183, !185, !187, !189, !191, !195, !199, !203, !205, !207, !209, !214, !218, !222, !224, !226, !228, !230, !232, !234, !236, !238, !240, !242, !244, !246, !250, !254, !258, !260, !262, !264, !271, !275, !279, !281, !283, !285, !287, !289, !291, !295, !299, !301, !303, !305, !307, !311, !315, !319, !321, !323, !325, !327, !329, !331, !335, !339, !343, !345, !349, !353, !355, !357, !359, !361, !363, !365, !382, !385, !390, !398, !406, !410, !417, !421, !425, !427, !429, !433, !442, !446, !452, !458, !460, !464, !468, !472, !476, !488, !490, !494, !498, !502, !504, !510, !514, !518, !520, !522, !526, !534, !538, !542, !546, !548, !554, !556, !562, !566, !570, !574, !578, !582, !586, !588, !590, !594, !598, !602, !604, !608, !612, !614, !616, !620, !625, !629, !634, !635, !636, !637, !638, !639, !640, !641, !642, !643, !644, !699, !703, !707, !714, !718, !721, !724, !727, !729, !731, !733, !736, !739, !742, !745, !748, !750, !755, !759, !762, !765, !767, !769, !771, !773, !776, !779, !782, !785, !788, !790, !794, !798, !803, !807, !809, !811, !813, !815, !817, !819, !821, !823, !825, !827, !829, !831, !833, !837, !843, !847, !852, !854, !856, !860, !864, !872, !876, !880, !884, !888, !892, !896, !900, !904, !908, !912, !916, !920, !922, !926, !930, !934, !940, !944, !948, !950, !954, !958, !964, !966, !970, !974, !978, !982, !986, !990, !994, !995, !996, !997, !999, !1000, !1001, !1002, !1003, !1004, !1005, !1009, !1015, !1020, !1024, !1026, !1028, !1030, !1032, !1039, !1043, !1047, !1051, !1055, !1059, !1064, !1068, !1070, !1074, !1080, !1084, !1089, !1091, !1093, !1097, !1101, !1103, !1105, !1107, !1109, !1113, !1115, !1117, !1121, !1125, !1129, !1133, !1137, !1141, !1143, !1147, !1151, !1155, !1159, !1161, !1163, !1167, !1171, !1172, !1173, !1174, !1175, !1176, !1182, !1185, !1186, !1188, !1190, !1192, !1194, !1198, !1200, !1202, !1204, !1206, !1208, !1210, !1212, !1214, !1218, !1222, !1224, !1228, !1232, !1236, !1239}
!21 = !DIImportedEntity(tag: DW_TAG_imported_declaration, scope: !5, entity: !22, file: !26, line: 52)
!22 = !DISubprogram(name: "abs", scope: !23, file: !23, line: 840, type: !24, flags: DIFlagPrototyped, spFlags: 0)
!23 = !DIFile(filename: "/usr/include/stdlib.h", directory: "")
!24 = !DISubroutineType(types: !25)
!25 = !{!19, !19}
!26 = !DIFile(filename: "/usr/lib/gcc/x86_64-linux-gnu/10/../../../../include/c++/10/bits/std_abs.h", directory: "")
!27 = !DIImportedEntity(tag: DW_TAG_imported_declaration, scope: !5, entity: !28, file: !33, line: 83)
!28 = !DISubprogram(name: "acos", scope: !29, file: !29, line: 53, type: !30, flags: DIFlagPrototyped, spFlags: 0)
!29 = !DIFile(filename: "/usr/include/x86_64-linux-gnu/bits/mathcalls.h", directory: "")
!30 = !DISubroutineType(types: !31)
!31 = !{!32, !32}
!32 = !DIBasicType(name: "double", size: 64, encoding: DW_ATE_float)
!33 = !DIFile(filename: "/usr/lib/gcc/x86_64-linux-gnu/10/../../../../include/c++/10/cmath", directory: "")
!34 = !DIImportedEntity(tag: DW_TAG_imported_declaration, scope: !5, entity: !35, file: !33, line: 102)
!35 = !DISubprogram(name: "asin", scope: !29, file: !29, line: 55, type: !30, flags: DIFlagPrototyped, spFlags: 0)
!36 = !DIImportedEntity(tag: DW_TAG_imported_declaration, scope: !5, entity: !37, file: !33, line: 121)
!37 = !DISubprogram(name: "atan", scope: !29, file: !29, line: 57, type: !30, flags: DIFlagPrototyped, spFlags: 0)
!38 = !DIImportedEntity(tag: DW_TAG_imported_declaration, scope: !5, entity: !39, file: !33, line: 140)
!39 = !DISubprogram(name: "atan2", scope: !29, file: !29, line: 59, type: !40, flags: DIFlagPrototyped, spFlags: 0)
!40 = !DISubroutineType(types: !41)
!41 = !{!32, !32, !32}
!42 = !DIImportedEntity(tag: DW_TAG_imported_declaration, scope: !5, entity: !43, file: !33, line: 161)
!43 = !DISubprogram(name: "ceil", scope: !29, file: !29, line: 159, type: !30, flags: DIFlagPrototyped, spFlags: 0)
!44 = !DIImportedEntity(tag: DW_TAG_imported_declaration, scope: !5, entity: !45, file: !33, line: 180)
!45 = !DISubprogram(name: "cos", scope: !29, file: !29, line: 62, type: !30, flags: DIFlagPrototyped, spFlags: 0)
!46 = !DIImportedEntity(tag: DW_TAG_imported_declaration, scope: !5, entity: !47, file: !33, line: 199)
!47 = !DISubprogram(name: "cosh", scope: !29, file: !29, line: 71, type: !30, flags: DIFlagPrototyped, spFlags: 0)
!48 = !DIImportedEntity(tag: DW_TAG_imported_declaration, scope: !5, entity: !49, file: !33, line: 218)
!49 = !DISubprogram(name: "exp", scope: !29, file: !29, line: 95, type: !30, flags: DIFlagPrototyped, spFlags: 0)
!50 = !DIImportedEntity(tag: DW_TAG_imported_declaration, scope: !5, entity: !51, file: !33, line: 237)
!51 = !DISubprogram(name: "fabs", scope: !29, file: !29, line: 162, type: !30, flags: DIFlagPrototyped, spFlags: 0)
!52 = !DIImportedEntity(tag: DW_TAG_imported_declaration, scope: !5, entity: !53, file: !33, line: 256)
!53 = !DISubprogram(name: "floor", scope: !29, file: !29, line: 165, type: !30, flags: DIFlagPrototyped, spFlags: 0)
!54 = !DIImportedEntity(tag: DW_TAG_imported_declaration, scope: !5, entity: !55, file: !33, line: 275)
!55 = !DISubprogram(name: "fmod", scope: !29, file: !29, line: 168, type: !40, flags: DIFlagPrototyped, spFlags: 0)
!56 = !DIImportedEntity(tag: DW_TAG_imported_declaration, scope: !5, entity: !57, file: !33, line: 296)
!57 = !DISubprogram(name: "frexp", scope: !29, file: !29, line: 98, type: !58, flags: DIFlagPrototyped, spFlags: 0)
!58 = !DISubroutineType(types: !59)
!59 = !{!32, !32, !60}
!60 = !DIDerivedType(tag: DW_TAG_pointer_type, baseType: !19, size: 64)
!61 = !DIImportedEntity(tag: DW_TAG_imported_declaration, scope: !5, entity: !62, file: !33, line: 315)
!62 = !DISubprogram(name: "ldexp", scope: !29, file: !29, line: 101, type: !63, flags: DIFlagPrototyped, spFlags: 0)
!63 = !DISubroutineType(types: !64)
!64 = !{!32, !32, !19}
!65 = !DIImportedEntity(tag: DW_TAG_imported_declaration, scope: !5, entity: !66, file: !33, line: 334)
!66 = !DISubprogram(name: "log", scope: !29, file: !29, line: 104, type: !30, flags: DIFlagPrototyped, spFlags: 0)
!67 = !DIImportedEntity(tag: DW_TAG_imported_declaration, scope: !5, entity: !68, file: !33, line: 353)
!68 = !DISubprogram(name: "log10", scope: !29, file: !29, line: 107, type: !30, flags: DIFlagPrototyped, spFlags: 0)
!69 = !DIImportedEntity(tag: DW_TAG_imported_declaration, scope: !5, entity: !70, file: !33, line: 372)
!70 = !DISubprogram(name: "modf", scope: !29, file: !29, line: 110, type: !71, flags: DIFlagPrototyped, spFlags: 0)
!71 = !DISubroutineType(types: !72)
!72 = !{!32, !32, !73}
!73 = !DIDerivedType(tag: DW_TAG_pointer_type, baseType: !32, size: 64)
!74 = !DIImportedEntity(tag: DW_TAG_imported_declaration, scope: !5, entity: !75, file: !33, line: 384)
!75 = !DISubprogram(name: "pow", scope: !29, file: !29, line: 140, type: !40, flags: DIFlagPrototyped, spFlags: 0)
!76 = !DIImportedEntity(tag: DW_TAG_imported_declaration, scope: !5, entity: !77, file: !33, line: 421)
!77 = !DISubprogram(name: "sin", scope: !29, file: !29, line: 64, type: !30, flags: DIFlagPrototyped, spFlags: 0)
!78 = !DIImportedEntity(tag: DW_TAG_imported_declaration, scope: !5, entity: !79, file: !33, line: 440)
!79 = !DISubprogram(name: "sinh", scope: !29, file: !29, line: 73, type: !30, flags: DIFlagPrototyped, spFlags: 0)
!80 = !DIImportedEntity(tag: DW_TAG_imported_declaration, scope: !5, entity: !81, file: !33, line: 459)
!81 = !DISubprogram(name: "sqrt", scope: !29, file: !29, line: 143, type: !30, flags: DIFlagPrototyped, spFlags: 0)
!82 = !DIImportedEntity(tag: DW_TAG_imported_declaration, scope: !5, entity: !83, file: !33, line: 478)
!83 = !DISubprogram(name: "tan", scope: !29, file: !29, line: 66, type: !30, flags: DIFlagPrototyped, spFlags: 0)
!84 = !DIImportedEntity(tag: DW_TAG_imported_declaration, scope: !5, entity: !85, file: !33, line: 497)
!85 = !DISubprogram(name: "tanh", scope: !29, file: !29, line: 75, type: !30, flags: DIFlagPrototyped, spFlags: 0)
!86 = !DIImportedEntity(tag: DW_TAG_imported_declaration, scope: !5, entity: !87, file: !33, line: 1065)
!87 = !DIDerivedType(tag: DW_TAG_typedef, name: "double_t", file: !88, line: 150, baseType: !32)
!88 = !DIFile(filename: "/usr/include/math.h", directory: "")
!89 = !DIImportedEntity(tag: DW_TAG_imported_declaration, scope: !5, entity: !90, file: !33, line: 1066)
!90 = !DIDerivedType(tag: DW_TAG_typedef, name: "float_t", file: !88, line: 149, baseType: !91)
!91 = !DIBasicType(name: "float", size: 32, encoding: DW_ATE_float)
!92 = !DIImportedEntity(tag: DW_TAG_imported_declaration, scope: !5, entity: !93, file: !33, line: 1069)
!93 = !DISubprogram(name: "acosh", scope: !29, file: !29, line: 85, type: !30, flags: DIFlagPrototyped, spFlags: 0)
!94 = !DIImportedEntity(tag: DW_TAG_imported_declaration, scope: !5, entity: !95, file: !33, line: 1070)
!95 = !DISubprogram(name: "acoshf", scope: !29, file: !29, line: 85, type: !96, flags: DIFlagPrototyped, spFlags: 0)
!96 = !DISubroutineType(types: !97)
!97 = !{!91, !91}
!98 = !DIImportedEntity(tag: DW_TAG_imported_declaration, scope: !5, entity: !99, file: !33, line: 1071)
!99 = !DISubprogram(name: "acoshl", scope: !29, file: !29, line: 85, type: !100, flags: DIFlagPrototyped, spFlags: 0)
!100 = !DISubroutineType(types: !101)
!101 = !{!102, !102}
!102 = !DIBasicType(name: "long double", size: 128, encoding: DW_ATE_float)
!103 = !DIImportedEntity(tag: DW_TAG_imported_declaration, scope: !5, entity: !104, file: !33, line: 1073)
!104 = !DISubprogram(name: "asinh", scope: !29, file: !29, line: 87, type: !30, flags: DIFlagPrototyped, spFlags: 0)
!105 = !DIImportedEntity(tag: DW_TAG_imported_declaration, scope: !5, entity: !106, file: !33, line: 1074)
!106 = !DISubprogram(name: "asinhf", scope: !29, file: !29, line: 87, type: !96, flags: DIFlagPrototyped, spFlags: 0)
!107 = !DIImportedEntity(tag: DW_TAG_imported_declaration, scope: !5, entity: !108, file: !33, line: 1075)
!108 = !DISubprogram(name: "asinhl", scope: !29, file: !29, line: 87, type: !100, flags: DIFlagPrototyped, spFlags: 0)
!109 = !DIImportedEntity(tag: DW_TAG_imported_declaration, scope: !5, entity: !110, file: !33, line: 1077)
!110 = !DISubprogram(name: "atanh", scope: !29, file: !29, line: 89, type: !30, flags: DIFlagPrototyped, spFlags: 0)
!111 = !DIImportedEntity(tag: DW_TAG_imported_declaration, scope: !5, entity: !112, file: !33, line: 1078)
!112 = !DISubprogram(name: "atanhf", scope: !29, file: !29, line: 89, type: !96, flags: DIFlagPrototyped, spFlags: 0)
!113 = !DIImportedEntity(tag: DW_TAG_imported_declaration, scope: !5, entity: !114, file: !33, line: 1079)
!114 = !DISubprogram(name: "atanhl", scope: !29, file: !29, line: 89, type: !100, flags: DIFlagPrototyped, spFlags: 0)
!115 = !DIImportedEntity(tag: DW_TAG_imported_declaration, scope: !5, entity: !116, file: !33, line: 1081)
!116 = !DISubprogram(name: "cbrt", scope: !29, file: !29, line: 152, type: !30, flags: DIFlagPrototyped, spFlags: 0)
!117 = !DIImportedEntity(tag: DW_TAG_imported_declaration, scope: !5, entity: !118, file: !33, line: 1082)
!118 = !DISubprogram(name: "cbrtf", scope: !29, file: !29, line: 152, type: !96, flags: DIFlagPrototyped, spFlags: 0)
!119 = !DIImportedEntity(tag: DW_TAG_imported_declaration, scope: !5, entity: !120, file: !33, line: 1083)
!120 = !DISubprogram(name: "cbrtl", scope: !29, file: !29, line: 152, type: !100, flags: DIFlagPrototyped, spFlags: 0)
!121 = !DIImportedEntity(tag: DW_TAG_imported_declaration, scope: !5, entity: !122, file: !33, line: 1085)
!122 = !DISubprogram(name: "copysign", scope: !29, file: !29, line: 196, type: !40, flags: DIFlagPrototyped, spFlags: 0)
!123 = !DIImportedEntity(tag: DW_TAG_imported_declaration, scope: !5, entity: !124, file: !33, line: 1086)
!124 = !DISubprogram(name: "copysignf", scope: !29, file: !29, line: 196, type: !125, flags: DIFlagPrototyped, spFlags: 0)
!125 = !DISubroutineType(types: !126)
!126 = !{!91, !91, !91}
!127 = !DIImportedEntity(tag: DW_TAG_imported_declaration, scope: !5, entity: !128, file: !33, line: 1087)
!128 = !DISubprogram(name: "copysignl", scope: !29, file: !29, line: 196, type: !129, flags: DIFlagPrototyped, spFlags: 0)
!129 = !DISubroutineType(types: !130)
!130 = !{!102, !102, !102}
!131 = !DIImportedEntity(tag: DW_TAG_imported_declaration, scope: !5, entity: !132, file: !33, line: 1089)
!132 = !DISubprogram(name: "erf", scope: !29, file: !29, line: 228, type: !30, flags: DIFlagPrototyped, spFlags: 0)
!133 = !DIImportedEntity(tag: DW_TAG_imported_declaration, scope: !5, entity: !134, file: !33, line: 1090)
!134 = !DISubprogram(name: "erff", scope: !29, file: !29, line: 228, type: !96, flags: DIFlagPrototyped, spFlags: 0)
!135 = !DIImportedEntity(tag: DW_TAG_imported_declaration, scope: !5, entity: !136, file: !33, line: 1091)
!136 = !DISubprogram(name: "erfl", scope: !29, file: !29, line: 228, type: !100, flags: DIFlagPrototyped, spFlags: 0)
!137 = !DIImportedEntity(tag: DW_TAG_imported_declaration, scope: !5, entity: !138, file: !33, line: 1093)
!138 = !DISubprogram(name: "erfc", scope: !29, file: !29, line: 229, type: !30, flags: DIFlagPrototyped, spFlags: 0)
!139 = !DIImportedEntity(tag: DW_TAG_imported_declaration, scope: !5, entity: !140, file: !33, line: 1094)
!140 = !DISubprogram(name: "erfcf", scope: !29, file: !29, line: 229, type: !96, flags: DIFlagPrototyped, spFlags: 0)
!141 = !DIImportedEntity(tag: DW_TAG_imported_declaration, scope: !5, entity: !142, file: !33, line: 1095)
!142 = !DISubprogram(name: "erfcl", scope: !29, file: !29, line: 229, type: !100, flags: DIFlagPrototyped, spFlags: 0)
!143 = !DIImportedEntity(tag: DW_TAG_imported_declaration, scope: !5, entity: !144, file: !33, line: 1097)
!144 = !DISubprogram(name: "exp2", scope: !29, file: !29, line: 130, type: !30, flags: DIFlagPrototyped, spFlags: 0)
!145 = !DIImportedEntity(tag: DW_TAG_imported_declaration, scope: !5, entity: !146, file: !33, line: 1098)
!146 = !DISubprogram(name: "exp2f", scope: !29, file: !29, line: 130, type: !96, flags: DIFlagPrototyped, spFlags: 0)
!147 = !DIImportedEntity(tag: DW_TAG_imported_declaration, scope: !5, entity: !148, file: !33, line: 1099)
!148 = !DISubprogram(name: "exp2l", scope: !29, file: !29, line: 130, type: !100, flags: DIFlagPrototyped, spFlags: 0)
!149 = !DIImportedEntity(tag: DW_TAG_imported_declaration, scope: !5, entity: !150, file: !33, line: 1101)
!150 = !DISubprogram(name: "expm1", scope: !29, file: !29, line: 119, type: !30, flags: DIFlagPrototyped, spFlags: 0)
!151 = !DIImportedEntity(tag: DW_TAG_imported_declaration, scope: !5, entity: !152, file: !33, line: 1102)
!152 = !DISubprogram(name: "expm1f", scope: !29, file: !29, line: 119, type: !96, flags: DIFlagPrototyped, spFlags: 0)
!153 = !DIImportedEntity(tag: DW_TAG_imported_declaration, scope: !5, entity: !154, file: !33, line: 1103)
!154 = !DISubprogram(name: "expm1l", scope: !29, file: !29, line: 119, type: !100, flags: DIFlagPrototyped, spFlags: 0)
!155 = !DIImportedEntity(tag: DW_TAG_imported_declaration, scope: !5, entity: !156, file: !33, line: 1105)
!156 = !DISubprogram(name: "fdim", scope: !29, file: !29, line: 326, type: !40, flags: DIFlagPrototyped, spFlags: 0)
!157 = !DIImportedEntity(tag: DW_TAG_imported_declaration, scope: !5, entity: !158, file: !33, line: 1106)
!158 = !DISubprogram(name: "fdimf", scope: !29, file: !29, line: 326, type: !125, flags: DIFlagPrototyped, spFlags: 0)
!159 = !DIImportedEntity(tag: DW_TAG_imported_declaration, scope: !5, entity: !160, file: !33, line: 1107)
!160 = !DISubprogram(name: "fdiml", scope: !29, file: !29, line: 326, type: !129, flags: DIFlagPrototyped, spFlags: 0)
!161 = !DIImportedEntity(tag: DW_TAG_imported_declaration, scope: !5, entity: !162, file: !33, line: 1109)
!162 = !DISubprogram(name: "fma", scope: !29, file: !29, line: 335, type: !163, flags: DIFlagPrototyped, spFlags: 0)
!163 = !DISubroutineType(types: !164)
!164 = !{!32, !32, !32, !32}
!165 = !DIImportedEntity(tag: DW_TAG_imported_declaration, scope: !5, entity: !166, file: !33, line: 1110)
!166 = !DISubprogram(name: "fmaf", scope: !29, file: !29, line: 335, type: !167, flags: DIFlagPrototyped, spFlags: 0)
!167 = !DISubroutineType(types: !168)
!168 = !{!91, !91, !91, !91}
!169 = !DIImportedEntity(tag: DW_TAG_imported_declaration, scope: !5, entity: !170, file: !33, line: 1111)
!170 = !DISubprogram(name: "fmal", scope: !29, file: !29, line: 335, type: !171, flags: DIFlagPrototyped, spFlags: 0)
!171 = !DISubroutineType(types: !172)
!172 = !{!102, !102, !102, !102}
!173 = !DIImportedEntity(tag: DW_TAG_imported_declaration, scope: !5, entity: !174, file: !33, line: 1113)
!174 = !DISubprogram(name: "fmax", scope: !29, file: !29, line: 329, type: !40, flags: DIFlagPrototyped, spFlags: 0)
!175 = !DIImportedEntity(tag: DW_TAG_imported_declaration, scope: !5, entity: !176, file: !33, line: 1114)
!176 = !DISubprogram(name: "fmaxf", scope: !29, file: !29, line: 329, type: !125, flags: DIFlagPrototyped, spFlags: 0)
!177 = !DIImportedEntity(tag: DW_TAG_imported_declaration, scope: !5, entity: !178, file: !33, line: 1115)
!178 = !DISubprogram(name: "fmaxl", scope: !29, file: !29, line: 329, type: !129, flags: DIFlagPrototyped, spFlags: 0)
!179 = !DIImportedEntity(tag: DW_TAG_imported_declaration, scope: !5, entity: !180, file: !33, line: 1117)
!180 = !DISubprogram(name: "fmin", scope: !29, file: !29, line: 332, type: !40, flags: DIFlagPrototyped, spFlags: 0)
!181 = !DIImportedEntity(tag: DW_TAG_imported_declaration, scope: !5, entity: !182, file: !33, line: 1118)
!182 = !DISubprogram(name: "fminf", scope: !29, file: !29, line: 332, type: !125, flags: DIFlagPrototyped, spFlags: 0)
!183 = !DIImportedEntity(tag: DW_TAG_imported_declaration, scope: !5, entity: !184, file: !33, line: 1119)
!184 = !DISubprogram(name: "fminl", scope: !29, file: !29, line: 332, type: !129, flags: DIFlagPrototyped, spFlags: 0)
!185 = !DIImportedEntity(tag: DW_TAG_imported_declaration, scope: !5, entity: !186, file: !33, line: 1121)
!186 = !DISubprogram(name: "hypot", scope: !29, file: !29, line: 147, type: !40, flags: DIFlagPrototyped, spFlags: 0)
!187 = !DIImportedEntity(tag: DW_TAG_imported_declaration, scope: !5, entity: !188, file: !33, line: 1122)
!188 = !DISubprogram(name: "hypotf", scope: !29, file: !29, line: 147, type: !125, flags: DIFlagPrototyped, spFlags: 0)
!189 = !DIImportedEntity(tag: DW_TAG_imported_declaration, scope: !5, entity: !190, file: !33, line: 1123)
!190 = !DISubprogram(name: "hypotl", scope: !29, file: !29, line: 147, type: !129, flags: DIFlagPrototyped, spFlags: 0)
!191 = !DIImportedEntity(tag: DW_TAG_imported_declaration, scope: !5, entity: !192, file: !33, line: 1125)
!192 = !DISubprogram(name: "ilogb", scope: !29, file: !29, line: 280, type: !193, flags: DIFlagPrototyped, spFlags: 0)
!193 = !DISubroutineType(types: !194)
!194 = !{!19, !32}
!195 = !DIImportedEntity(tag: DW_TAG_imported_declaration, scope: !5, entity: !196, file: !33, line: 1126)
!196 = !DISubprogram(name: "ilogbf", scope: !29, file: !29, line: 280, type: !197, flags: DIFlagPrototyped, spFlags: 0)
!197 = !DISubroutineType(types: !198)
!198 = !{!19, !91}
!199 = !DIImportedEntity(tag: DW_TAG_imported_declaration, scope: !5, entity: !200, file: !33, line: 1127)
!200 = !DISubprogram(name: "ilogbl", scope: !29, file: !29, line: 280, type: !201, flags: DIFlagPrototyped, spFlags: 0)
!201 = !DISubroutineType(types: !202)
!202 = !{!19, !102}
!203 = !DIImportedEntity(tag: DW_TAG_imported_declaration, scope: !5, entity: !204, file: !33, line: 1129)
!204 = !DISubprogram(name: "lgamma", scope: !29, file: !29, line: 230, type: !30, flags: DIFlagPrototyped, spFlags: 0)
!205 = !DIImportedEntity(tag: DW_TAG_imported_declaration, scope: !5, entity: !206, file: !33, line: 1130)
!206 = !DISubprogram(name: "lgammaf", scope: !29, file: !29, line: 230, type: !96, flags: DIFlagPrototyped, spFlags: 0)
!207 = !DIImportedEntity(tag: DW_TAG_imported_declaration, scope: !5, entity: !208, file: !33, line: 1131)
!208 = !DISubprogram(name: "lgammal", scope: !29, file: !29, line: 230, type: !100, flags: DIFlagPrototyped, spFlags: 0)
!209 = !DIImportedEntity(tag: DW_TAG_imported_declaration, scope: !5, entity: !210, file: !33, line: 1134)
!210 = !DISubprogram(name: "llrint", scope: !29, file: !29, line: 316, type: !211, flags: DIFlagPrototyped, spFlags: 0)
!211 = !DISubroutineType(types: !212)
!212 = !{!213, !32}
!213 = !DIBasicType(name: "long long int", size: 64, encoding: DW_ATE_signed)
!214 = !DIImportedEntity(tag: DW_TAG_imported_declaration, scope: !5, entity: !215, file: !33, line: 1135)
!215 = !DISubprogram(name: "llrintf", scope: !29, file: !29, line: 316, type: !216, flags: DIFlagPrototyped, spFlags: 0)
!216 = !DISubroutineType(types: !217)
!217 = !{!213, !91}
!218 = !DIImportedEntity(tag: DW_TAG_imported_declaration, scope: !5, entity: !219, file: !33, line: 1136)
!219 = !DISubprogram(name: "llrintl", scope: !29, file: !29, line: 316, type: !220, flags: DIFlagPrototyped, spFlags: 0)
!220 = !DISubroutineType(types: !221)
!221 = !{!213, !102}
!222 = !DIImportedEntity(tag: DW_TAG_imported_declaration, scope: !5, entity: !223, file: !33, line: 1138)
!223 = !DISubprogram(name: "llround", scope: !29, file: !29, line: 322, type: !211, flags: DIFlagPrototyped, spFlags: 0)
!224 = !DIImportedEntity(tag: DW_TAG_imported_declaration, scope: !5, entity: !225, file: !33, line: 1139)
!225 = !DISubprogram(name: "llroundf", scope: !29, file: !29, line: 322, type: !216, flags: DIFlagPrototyped, spFlags: 0)
!226 = !DIImportedEntity(tag: DW_TAG_imported_declaration, scope: !5, entity: !227, file: !33, line: 1140)
!227 = !DISubprogram(name: "llroundl", scope: !29, file: !29, line: 322, type: !220, flags: DIFlagPrototyped, spFlags: 0)
!228 = !DIImportedEntity(tag: DW_TAG_imported_declaration, scope: !5, entity: !229, file: !33, line: 1143)
!229 = !DISubprogram(name: "log1p", scope: !29, file: !29, line: 122, type: !30, flags: DIFlagPrototyped, spFlags: 0)
!230 = !DIImportedEntity(tag: DW_TAG_imported_declaration, scope: !5, entity: !231, file: !33, line: 1144)
!231 = !DISubprogram(name: "log1pf", scope: !29, file: !29, line: 122, type: !96, flags: DIFlagPrototyped, spFlags: 0)
!232 = !DIImportedEntity(tag: DW_TAG_imported_declaration, scope: !5, entity: !233, file: !33, line: 1145)
!233 = !DISubprogram(name: "log1pl", scope: !29, file: !29, line: 122, type: !100, flags: DIFlagPrototyped, spFlags: 0)
!234 = !DIImportedEntity(tag: DW_TAG_imported_declaration, scope: !5, entity: !235, file: !33, line: 1147)
!235 = !DISubprogram(name: "log2", scope: !29, file: !29, line: 133, type: !30, flags: DIFlagPrototyped, spFlags: 0)
!236 = !DIImportedEntity(tag: DW_TAG_imported_declaration, scope: !5, entity: !237, file: !33, line: 1148)
!237 = !DISubprogram(name: "log2f", scope: !29, file: !29, line: 133, type: !96, flags: DIFlagPrototyped, spFlags: 0)
!238 = !DIImportedEntity(tag: DW_TAG_imported_declaration, scope: !5, entity: !239, file: !33, line: 1149)
!239 = !DISubprogram(name: "log2l", scope: !29, file: !29, line: 133, type: !100, flags: DIFlagPrototyped, spFlags: 0)
!240 = !DIImportedEntity(tag: DW_TAG_imported_declaration, scope: !5, entity: !241, file: !33, line: 1151)
!241 = !DISubprogram(name: "logb", scope: !29, file: !29, line: 125, type: !30, flags: DIFlagPrototyped, spFlags: 0)
!242 = !DIImportedEntity(tag: DW_TAG_imported_declaration, scope: !5, entity: !243, file: !33, line: 1152)
!243 = !DISubprogram(name: "logbf", scope: !29, file: !29, line: 125, type: !96, flags: DIFlagPrototyped, spFlags: 0)
!244 = !DIImportedEntity(tag: DW_TAG_imported_declaration, scope: !5, entity: !245, file: !33, line: 1153)
!245 = !DISubprogram(name: "logbl", scope: !29, file: !29, line: 125, type: !100, flags: DIFlagPrototyped, spFlags: 0)
!246 = !DIImportedEntity(tag: DW_TAG_imported_declaration, scope: !5, entity: !247, file: !33, line: 1155)
!247 = !DISubprogram(name: "lrint", scope: !29, file: !29, line: 314, type: !248, flags: DIFlagPrototyped, spFlags: 0)
!248 = !DISubroutineType(types: !249)
!249 = !{!13, !32}
!250 = !DIImportedEntity(tag: DW_TAG_imported_declaration, scope: !5, entity: !251, file: !33, line: 1156)
!251 = !DISubprogram(name: "lrintf", scope: !29, file: !29, line: 314, type: !252, flags: DIFlagPrototyped, spFlags: 0)
!252 = !DISubroutineType(types: !253)
!253 = !{!13, !91}
!254 = !DIImportedEntity(tag: DW_TAG_imported_declaration, scope: !5, entity: !255, file: !33, line: 1157)
!255 = !DISubprogram(name: "lrintl", scope: !29, file: !29, line: 314, type: !256, flags: DIFlagPrototyped, spFlags: 0)
!256 = !DISubroutineType(types: !257)
!257 = !{!13, !102}
!258 = !DIImportedEntity(tag: DW_TAG_imported_declaration, scope: !5, entity: !259, file: !33, line: 1159)
!259 = !DISubprogram(name: "lround", scope: !29, file: !29, line: 320, type: !248, flags: DIFlagPrototyped, spFlags: 0)
!260 = !DIImportedEntity(tag: DW_TAG_imported_declaration, scope: !5, entity: !261, file: !33, line: 1160)
!261 = !DISubprogram(name: "lroundf", scope: !29, file: !29, line: 320, type: !252, flags: DIFlagPrototyped, spFlags: 0)
!262 = !DIImportedEntity(tag: DW_TAG_imported_declaration, scope: !5, entity: !263, file: !33, line: 1161)
!263 = !DISubprogram(name: "lroundl", scope: !29, file: !29, line: 320, type: !256, flags: DIFlagPrototyped, spFlags: 0)
!264 = !DIImportedEntity(tag: DW_TAG_imported_declaration, scope: !5, entity: !265, file: !33, line: 1163)
!265 = !DISubprogram(name: "nan", scope: !29, file: !29, line: 201, type: !266, flags: DIFlagPrototyped, spFlags: 0)
!266 = !DISubroutineType(types: !267)
!267 = !{!32, !268}
!268 = !DIDerivedType(tag: DW_TAG_pointer_type, baseType: !269, size: 64)
!269 = !DIDerivedType(tag: DW_TAG_const_type, baseType: !270)
!270 = !DIBasicType(name: "char", size: 8, encoding: DW_ATE_signed_char)
!271 = !DIImportedEntity(tag: DW_TAG_imported_declaration, scope: !5, entity: !272, file: !33, line: 1164)
!272 = !DISubprogram(name: "nanf", scope: !29, file: !29, line: 201, type: !273, flags: DIFlagPrototyped, spFlags: 0)
!273 = !DISubroutineType(types: !274)
!274 = !{!91, !268}
!275 = !DIImportedEntity(tag: DW_TAG_imported_declaration, scope: !5, entity: !276, file: !33, line: 1165)
!276 = !DISubprogram(name: "nanl", scope: !29, file: !29, line: 201, type: !277, flags: DIFlagPrototyped, spFlags: 0)
!277 = !DISubroutineType(types: !278)
!278 = !{!102, !268}
!279 = !DIImportedEntity(tag: DW_TAG_imported_declaration, scope: !5, entity: !280, file: !33, line: 1167)
!280 = !DISubprogram(name: "nearbyint", scope: !29, file: !29, line: 294, type: !30, flags: DIFlagPrototyped, spFlags: 0)
!281 = !DIImportedEntity(tag: DW_TAG_imported_declaration, scope: !5, entity: !282, file: !33, line: 1168)
!282 = !DISubprogram(name: "nearbyintf", scope: !29, file: !29, line: 294, type: !96, flags: DIFlagPrototyped, spFlags: 0)
!283 = !DIImportedEntity(tag: DW_TAG_imported_declaration, scope: !5, entity: !284, file: !33, line: 1169)
!284 = !DISubprogram(name: "nearbyintl", scope: !29, file: !29, line: 294, type: !100, flags: DIFlagPrototyped, spFlags: 0)
!285 = !DIImportedEntity(tag: DW_TAG_imported_declaration, scope: !5, entity: !286, file: !33, line: 1171)
!286 = !DISubprogram(name: "nextafter", scope: !29, file: !29, line: 259, type: !40, flags: DIFlagPrototyped, spFlags: 0)
!287 = !DIImportedEntity(tag: DW_TAG_imported_declaration, scope: !5, entity: !288, file: !33, line: 1172)
!288 = !DISubprogram(name: "nextafterf", scope: !29, file: !29, line: 259, type: !125, flags: DIFlagPrototyped, spFlags: 0)
!289 = !DIImportedEntity(tag: DW_TAG_imported_declaration, scope: !5, entity: !290, file: !33, line: 1173)
!290 = !DISubprogram(name: "nextafterl", scope: !29, file: !29, line: 259, type: !129, flags: DIFlagPrototyped, spFlags: 0)
!291 = !DIImportedEntity(tag: DW_TAG_imported_declaration, scope: !5, entity: !292, file: !33, line: 1175)
!292 = !DISubprogram(name: "nexttoward", scope: !29, file: !29, line: 261, type: !293, flags: DIFlagPrototyped, spFlags: 0)
!293 = !DISubroutineType(types: !294)
!294 = !{!32, !32, !102}
!295 = !DIImportedEntity(tag: DW_TAG_imported_declaration, scope: !5, entity: !296, file: !33, line: 1176)
!296 = !DISubprogram(name: "nexttowardf", scope: !29, file: !29, line: 261, type: !297, flags: DIFlagPrototyped, spFlags: 0)
!297 = !DISubroutineType(types: !298)
!298 = !{!91, !91, !102}
!299 = !DIImportedEntity(tag: DW_TAG_imported_declaration, scope: !5, entity: !300, file: !33, line: 1177)
!300 = !DISubprogram(name: "nexttowardl", scope: !29, file: !29, line: 261, type: !129, flags: DIFlagPrototyped, spFlags: 0)
!301 = !DIImportedEntity(tag: DW_TAG_imported_declaration, scope: !5, entity: !302, file: !33, line: 1179)
!302 = !DISubprogram(name: "remainder", scope: !29, file: !29, line: 272, type: !40, flags: DIFlagPrototyped, spFlags: 0)
!303 = !DIImportedEntity(tag: DW_TAG_imported_declaration, scope: !5, entity: !304, file: !33, line: 1180)
!304 = !DISubprogram(name: "remainderf", scope: !29, file: !29, line: 272, type: !125, flags: DIFlagPrototyped, spFlags: 0)
!305 = !DIImportedEntity(tag: DW_TAG_imported_declaration, scope: !5, entity: !306, file: !33, line: 1181)
!306 = !DISubprogram(name: "remainderl", scope: !29, file: !29, line: 272, type: !129, flags: DIFlagPrototyped, spFlags: 0)
!307 = !DIImportedEntity(tag: DW_TAG_imported_declaration, scope: !5, entity: !308, file: !33, line: 1183)
!308 = !DISubprogram(name: "remquo", scope: !29, file: !29, line: 307, type: !309, flags: DIFlagPrototyped, spFlags: 0)
!309 = !DISubroutineType(types: !310)
!310 = !{!32, !32, !32, !60}
!311 = !DIImportedEntity(tag: DW_TAG_imported_declaration, scope: !5, entity: !312, file: !33, line: 1184)
!312 = !DISubprogram(name: "remquof", scope: !29, file: !29, line: 307, type: !313, flags: DIFlagPrototyped, spFlags: 0)
!313 = !DISubroutineType(types: !314)
!314 = !{!91, !91, !91, !60}
!315 = !DIImportedEntity(tag: DW_TAG_imported_declaration, scope: !5, entity: !316, file: !33, line: 1185)
!316 = !DISubprogram(name: "remquol", scope: !29, file: !29, line: 307, type: !317, flags: DIFlagPrototyped, spFlags: 0)
!317 = !DISubroutineType(types: !318)
!318 = !{!102, !102, !102, !60}
!319 = !DIImportedEntity(tag: DW_TAG_imported_declaration, scope: !5, entity: !320, file: !33, line: 1187)
!320 = !DISubprogram(name: "rint", scope: !29, file: !29, line: 256, type: !30, flags: DIFlagPrototyped, spFlags: 0)
!321 = !DIImportedEntity(tag: DW_TAG_imported_declaration, scope: !5, entity: !322, file: !33, line: 1188)
!322 = !DISubprogram(name: "rintf", scope: !29, file: !29, line: 256, type: !96, flags: DIFlagPrototyped, spFlags: 0)
!323 = !DIImportedEntity(tag: DW_TAG_imported_declaration, scope: !5, entity: !324, file: !33, line: 1189)
!324 = !DISubprogram(name: "rintl", scope: !29, file: !29, line: 256, type: !100, flags: DIFlagPrototyped, spFlags: 0)
!325 = !DIImportedEntity(tag: DW_TAG_imported_declaration, scope: !5, entity: !326, file: !33, line: 1191)
!326 = !DISubprogram(name: "round", scope: !29, file: !29, line: 298, type: !30, flags: DIFlagPrototyped, spFlags: 0)
!327 = !DIImportedEntity(tag: DW_TAG_imported_declaration, scope: !5, entity: !328, file: !33, line: 1192)
!328 = !DISubprogram(name: "roundf", scope: !29, file: !29, line: 298, type: !96, flags: DIFlagPrototyped, spFlags: 0)
!329 = !DIImportedEntity(tag: DW_TAG_imported_declaration, scope: !5, entity: !330, file: !33, line: 1193)
!330 = !DISubprogram(name: "roundl", scope: !29, file: !29, line: 298, type: !100, flags: DIFlagPrototyped, spFlags: 0)
!331 = !DIImportedEntity(tag: DW_TAG_imported_declaration, scope: !5, entity: !332, file: !33, line: 1195)
!332 = !DISubprogram(name: "scalbln", scope: !29, file: !29, line: 290, type: !333, flags: DIFlagPrototyped, spFlags: 0)
!333 = !DISubroutineType(types: !334)
!334 = !{!32, !32, !13}
!335 = !DIImportedEntity(tag: DW_TAG_imported_declaration, scope: !5, entity: !336, file: !33, line: 1196)
!336 = !DISubprogram(name: "scalblnf", scope: !29, file: !29, line: 290, type: !337, flags: DIFlagPrototyped, spFlags: 0)
!337 = !DISubroutineType(types: !338)
!338 = !{!91, !91, !13}
!339 = !DIImportedEntity(tag: DW_TAG_imported_declaration, scope: !5, entity: !340, file: !33, line: 1197)
!340 = !DISubprogram(name: "scalblnl", scope: !29, file: !29, line: 290, type: !341, flags: DIFlagPrototyped, spFlags: 0)
!341 = !DISubroutineType(types: !342)
!342 = !{!102, !102, !13}
!343 = !DIImportedEntity(tag: DW_TAG_imported_declaration, scope: !5, entity: !344, file: !33, line: 1199)
!344 = !DISubprogram(name: "scalbn", scope: !29, file: !29, line: 276, type: !63, flags: DIFlagPrototyped, spFlags: 0)
!345 = !DIImportedEntity(tag: DW_TAG_imported_declaration, scope: !5, entity: !346, file: !33, line: 1200)
!346 = !DISubprogram(name: "scalbnf", scope: !29, file: !29, line: 276, type: !347, flags: DIFlagPrototyped, spFlags: 0)
!347 = !DISubroutineType(types: !348)
!348 = !{!91, !91, !19}
!349 = !DIImportedEntity(tag: DW_TAG_imported_declaration, scope: !5, entity: !350, file: !33, line: 1201)
!350 = !DISubprogram(name: "scalbnl", scope: !29, file: !29, line: 276, type: !351, flags: DIFlagPrototyped, spFlags: 0)
!351 = !DISubroutineType(types: !352)
!352 = !{!102, !102, !19}
!353 = !DIImportedEntity(tag: DW_TAG_imported_declaration, scope: !5, entity: !354, file: !33, line: 1203)
!354 = !DISubprogram(name: "tgamma", scope: !29, file: !29, line: 235, type: !30, flags: DIFlagPrototyped, spFlags: 0)
!355 = !DIImportedEntity(tag: DW_TAG_imported_declaration, scope: !5, entity: !356, file: !33, line: 1204)
!356 = !DISubprogram(name: "tgammaf", scope: !29, file: !29, line: 235, type: !96, flags: DIFlagPrototyped, spFlags: 0)
!357 = !DIImportedEntity(tag: DW_TAG_imported_declaration, scope: !5, entity: !358, file: !33, line: 1205)
!358 = !DISubprogram(name: "tgammal", scope: !29, file: !29, line: 235, type: !100, flags: DIFlagPrototyped, spFlags: 0)
!359 = !DIImportedEntity(tag: DW_TAG_imported_declaration, scope: !5, entity: !360, file: !33, line: 1207)
!360 = !DISubprogram(name: "trunc", scope: !29, file: !29, line: 302, type: !30, flags: DIFlagPrototyped, spFlags: 0)
!361 = !DIImportedEntity(tag: DW_TAG_imported_declaration, scope: !5, entity: !362, file: !33, line: 1208)
!362 = !DISubprogram(name: "truncf", scope: !29, file: !29, line: 302, type: !96, flags: DIFlagPrototyped, spFlags: 0)
!363 = !DIImportedEntity(tag: DW_TAG_imported_declaration, scope: !5, entity: !364, file: !33, line: 1209)
!364 = !DISubprogram(name: "truncl", scope: !29, file: !29, line: 302, type: !100, flags: DIFlagPrototyped, spFlags: 0)
!365 = !DIImportedEntity(tag: DW_TAG_imported_declaration, scope: !5, entity: !366, file: !381, line: 64)
!366 = !DIDerivedType(tag: DW_TAG_typedef, name: "mbstate_t", file: !367, line: 6, baseType: !368)
!367 = !DIFile(filename: "/usr/include/x86_64-linux-gnu/bits/types/mbstate_t.h", directory: "")
!368 = !DIDerivedType(tag: DW_TAG_typedef, name: "__mbstate_t", file: !369, line: 21, baseType: !370)
!369 = !DIFile(filename: "/usr/include/x86_64-linux-gnu/bits/types/__mbstate_t.h", directory: "")
!370 = distinct !DICompositeType(tag: DW_TAG_structure_type, file: !369, line: 13, size: 64, flags: DIFlagTypePassByValue, elements: !371, identifier: "_ZTS11__mbstate_t")
!371 = !{!372, !373}
!372 = !DIDerivedType(tag: DW_TAG_member, name: "__count", scope: !370, file: !369, line: 15, baseType: !19, size: 32)
!373 = !DIDerivedType(tag: DW_TAG_member, name: "__value", scope: !370, file: !369, line: 20, baseType: !374, size: 32, offset: 32)
!374 = distinct !DICompositeType(tag: DW_TAG_union_type, scope: !370, file: !369, line: 16, size: 32, flags: DIFlagTypePassByValue, elements: !375, identifier: "_ZTSN11__mbstate_tUt_E")
!375 = !{!376, !377}
!376 = !DIDerivedType(tag: DW_TAG_member, name: "__wch", scope: !374, file: !369, line: 18, baseType: !6, size: 32)
!377 = !DIDerivedType(tag: DW_TAG_member, name: "__wchb", scope: !374, file: !369, line: 19, baseType: !378, size: 32)
!378 = !DICompositeType(tag: DW_TAG_array_type, baseType: !270, size: 32, elements: !379)
!379 = !{!380}
!380 = !DISubrange(count: 4)
!381 = !DIFile(filename: "/usr/lib/gcc/x86_64-linux-gnu/10/../../../../include/c++/10/cwchar", directory: "")
!382 = !DIImportedEntity(tag: DW_TAG_imported_declaration, scope: !5, entity: !383, file: !381, line: 141)
!383 = !DIDerivedType(tag: DW_TAG_typedef, name: "wint_t", file: !384, line: 20, baseType: !6)
!384 = !DIFile(filename: "/usr/include/x86_64-linux-gnu/bits/types/wint_t.h", directory: "")
!385 = !DIImportedEntity(tag: DW_TAG_imported_declaration, scope: !5, entity: !386, file: !381, line: 143)
!386 = !DISubprogram(name: "btowc", scope: !387, file: !387, line: 284, type: !388, flags: DIFlagPrototyped, spFlags: 0)
!387 = !DIFile(filename: "/usr/include/wchar.h", directory: "")
!388 = !DISubroutineType(types: !389)
!389 = !{!383, !19}
!390 = !DIImportedEntity(tag: DW_TAG_imported_declaration, scope: !5, entity: !391, file: !381, line: 144)
!391 = !DISubprogram(name: "fgetwc", scope: !387, file: !387, line: 726, type: !392, flags: DIFlagPrototyped, spFlags: 0)
!392 = !DISubroutineType(types: !393)
!393 = !{!383, !394}
!394 = !DIDerivedType(tag: DW_TAG_pointer_type, baseType: !395, size: 64)
!395 = !DIDerivedType(tag: DW_TAG_typedef, name: "__FILE", file: !396, line: 5, baseType: !397)
!396 = !DIFile(filename: "/usr/include/x86_64-linux-gnu/bits/types/__FILE.h", directory: "")
!397 = !DICompositeType(tag: DW_TAG_structure_type, name: "_IO_FILE", file: !396, line: 4, flags: DIFlagFwdDecl, identifier: "_ZTS8_IO_FILE")
!398 = !DIImportedEntity(tag: DW_TAG_imported_declaration, scope: !5, entity: !399, file: !381, line: 145)
!399 = !DISubprogram(name: "fgetws", scope: !387, file: !387, line: 755, type: !400, flags: DIFlagPrototyped, spFlags: 0)
!400 = !DISubroutineType(types: !401)
!401 = !{!402, !404, !19, !405}
!402 = !DIDerivedType(tag: DW_TAG_pointer_type, baseType: !403, size: 64)
!403 = !DIBasicType(name: "wchar_t", size: 32, encoding: DW_ATE_signed)
!404 = !DIDerivedType(tag: DW_TAG_restrict_type, baseType: !402)
!405 = !DIDerivedType(tag: DW_TAG_restrict_type, baseType: !394)
!406 = !DIImportedEntity(tag: DW_TAG_imported_declaration, scope: !5, entity: !407, file: !381, line: 146)
!407 = !DISubprogram(name: "fputwc", scope: !387, file: !387, line: 740, type: !408, flags: DIFlagPrototyped, spFlags: 0)
!408 = !DISubroutineType(types: !409)
!409 = !{!383, !403, !394}
!410 = !DIImportedEntity(tag: DW_TAG_imported_declaration, scope: !5, entity: !411, file: !381, line: 147)
!411 = !DISubprogram(name: "fputws", scope: !387, file: !387, line: 762, type: !412, flags: DIFlagPrototyped, spFlags: 0)
!412 = !DISubroutineType(types: !413)
!413 = !{!19, !414, !405}
!414 = !DIDerivedType(tag: DW_TAG_restrict_type, baseType: !415)
!415 = !DIDerivedType(tag: DW_TAG_pointer_type, baseType: !416, size: 64)
!416 = !DIDerivedType(tag: DW_TAG_const_type, baseType: !403)
!417 = !DIImportedEntity(tag: DW_TAG_imported_declaration, scope: !5, entity: !418, file: !381, line: 148)
!418 = !DISubprogram(name: "fwide", scope: !387, file: !387, line: 573, type: !419, flags: DIFlagPrototyped, spFlags: 0)
!419 = !DISubroutineType(types: !420)
!420 = !{!19, !394, !19}
!421 = !DIImportedEntity(tag: DW_TAG_imported_declaration, scope: !5, entity: !422, file: !381, line: 149)
!422 = !DISubprogram(name: "fwprintf", scope: !387, file: !387, line: 580, type: !423, flags: DIFlagPrototyped, spFlags: 0)
!423 = !DISubroutineType(types: !424)
!424 = !{!19, !405, !414, null}
!425 = !DIImportedEntity(tag: DW_TAG_imported_declaration, scope: !5, entity: !426, file: !381, line: 150)
!426 = !DISubprogram(name: "fwscanf", linkageName: "__isoc99_fwscanf", scope: !387, file: !387, line: 640, type: !423, flags: DIFlagPrototyped, spFlags: 0)
!427 = !DIImportedEntity(tag: DW_TAG_imported_declaration, scope: !5, entity: !428, file: !381, line: 151)
!428 = !DISubprogram(name: "getwc", scope: !387, file: !387, line: 727, type: !392, flags: DIFlagPrototyped, spFlags: 0)
!429 = !DIImportedEntity(tag: DW_TAG_imported_declaration, scope: !5, entity: !430, file: !381, line: 152)
!430 = !DISubprogram(name: "getwchar", scope: !387, file: !387, line: 733, type: !431, flags: DIFlagPrototyped, spFlags: 0)
!431 = !DISubroutineType(types: !432)
!432 = !{!383}
!433 = !DIImportedEntity(tag: DW_TAG_imported_declaration, scope: !5, entity: !434, file: !381, line: 153)
!434 = !DISubprogram(name: "mbrlen", scope: !387, file: !387, line: 307, type: !435, flags: DIFlagPrototyped, spFlags: 0)
!435 = !DISubroutineType(types: !436)
!436 = !{!437, !439, !437, !440}
!437 = !DIDerivedType(tag: DW_TAG_typedef, name: "size_t", file: !438, line: 46, baseType: !17)
!438 = !DIFile(filename: "Rohit/IR2Vec-LoopOptimizationFramework/build_REL_AsrtON/lib/clang/10.0.1/include/stddef.h", directory: "/home/venkat/IF-DV")
!439 = !DIDerivedType(tag: DW_TAG_restrict_type, baseType: !268)
!440 = !DIDerivedType(tag: DW_TAG_restrict_type, baseType: !441)
!441 = !DIDerivedType(tag: DW_TAG_pointer_type, baseType: !366, size: 64)
!442 = !DIImportedEntity(tag: DW_TAG_imported_declaration, scope: !5, entity: !443, file: !381, line: 154)
!443 = !DISubprogram(name: "mbrtowc", scope: !387, file: !387, line: 296, type: !444, flags: DIFlagPrototyped, spFlags: 0)
!444 = !DISubroutineType(types: !445)
!445 = !{!437, !404, !439, !437, !440}
!446 = !DIImportedEntity(tag: DW_TAG_imported_declaration, scope: !5, entity: !447, file: !381, line: 155)
!447 = !DISubprogram(name: "mbsinit", scope: !387, file: !387, line: 292, type: !448, flags: DIFlagPrototyped, spFlags: 0)
!448 = !DISubroutineType(types: !449)
!449 = !{!19, !450}
!450 = !DIDerivedType(tag: DW_TAG_pointer_type, baseType: !451, size: 64)
!451 = !DIDerivedType(tag: DW_TAG_const_type, baseType: !366)
!452 = !DIImportedEntity(tag: DW_TAG_imported_declaration, scope: !5, entity: !453, file: !381, line: 156)
!453 = !DISubprogram(name: "mbsrtowcs", scope: !387, file: !387, line: 337, type: !454, flags: DIFlagPrototyped, spFlags: 0)
!454 = !DISubroutineType(types: !455)
!455 = !{!437, !404, !456, !437, !440}
!456 = !DIDerivedType(tag: DW_TAG_restrict_type, baseType: !457)
!457 = !DIDerivedType(tag: DW_TAG_pointer_type, baseType: !268, size: 64)
!458 = !DIImportedEntity(tag: DW_TAG_imported_declaration, scope: !5, entity: !459, file: !381, line: 157)
!459 = !DISubprogram(name: "putwc", scope: !387, file: !387, line: 741, type: !408, flags: DIFlagPrototyped, spFlags: 0)
!460 = !DIImportedEntity(tag: DW_TAG_imported_declaration, scope: !5, entity: !461, file: !381, line: 158)
!461 = !DISubprogram(name: "putwchar", scope: !387, file: !387, line: 747, type: !462, flags: DIFlagPrototyped, spFlags: 0)
!462 = !DISubroutineType(types: !463)
!463 = !{!383, !403}
!464 = !DIImportedEntity(tag: DW_TAG_imported_declaration, scope: !5, entity: !465, file: !381, line: 160)
!465 = !DISubprogram(name: "swprintf", scope: !387, file: !387, line: 590, type: !466, flags: DIFlagPrototyped, spFlags: 0)
!466 = !DISubroutineType(types: !467)
!467 = !{!19, !404, !437, !414, null}
!468 = !DIImportedEntity(tag: DW_TAG_imported_declaration, scope: !5, entity: !469, file: !381, line: 162)
!469 = !DISubprogram(name: "swscanf", linkageName: "__isoc99_swscanf", scope: !387, file: !387, line: 647, type: !470, flags: DIFlagPrototyped, spFlags: 0)
!470 = !DISubroutineType(types: !471)
!471 = !{!19, !414, !414, null}
!472 = !DIImportedEntity(tag: DW_TAG_imported_declaration, scope: !5, entity: !473, file: !381, line: 163)
!473 = !DISubprogram(name: "ungetwc", scope: !387, file: !387, line: 770, type: !474, flags: DIFlagPrototyped, spFlags: 0)
!474 = !DISubroutineType(types: !475)
!475 = !{!383, !383, !394}
!476 = !DIImportedEntity(tag: DW_TAG_imported_declaration, scope: !5, entity: !477, file: !381, line: 164)
!477 = !DISubprogram(name: "vfwprintf", scope: !387, file: !387, line: 598, type: !478, flags: DIFlagPrototyped, spFlags: 0)
!478 = !DISubroutineType(types: !479)
!479 = !{!19, !405, !414, !480}
!480 = !DIDerivedType(tag: DW_TAG_pointer_type, baseType: !481, size: 64)
!481 = distinct !DICompositeType(tag: DW_TAG_structure_type, name: "__va_list_tag", file: !1, size: 192, flags: DIFlagTypePassByValue, elements: !482, identifier: "_ZTS13__va_list_tag")
!482 = !{!483, !484, !485, !487}
!483 = !DIDerivedType(tag: DW_TAG_member, name: "gp_offset", scope: !481, file: !1, baseType: !6, size: 32)
!484 = !DIDerivedType(tag: DW_TAG_member, name: "fp_offset", scope: !481, file: !1, baseType: !6, size: 32, offset: 32)
!485 = !DIDerivedType(tag: DW_TAG_member, name: "overflow_arg_area", scope: !481, file: !1, baseType: !486, size: 64, offset: 64)
!486 = !DIDerivedType(tag: DW_TAG_pointer_type, baseType: null, size: 64)
!487 = !DIDerivedType(tag: DW_TAG_member, name: "reg_save_area", scope: !481, file: !1, baseType: !486, size: 64, offset: 128)
!488 = !DIImportedEntity(tag: DW_TAG_imported_declaration, scope: !5, entity: !489, file: !381, line: 166)
!489 = !DISubprogram(name: "vfwscanf", linkageName: "__isoc99_vfwscanf", scope: !387, file: !387, line: 693, type: !478, flags: DIFlagPrototyped, spFlags: 0)
!490 = !DIImportedEntity(tag: DW_TAG_imported_declaration, scope: !5, entity: !491, file: !381, line: 169)
!491 = !DISubprogram(name: "vswprintf", scope: !387, file: !387, line: 611, type: !492, flags: DIFlagPrototyped, spFlags: 0)
!492 = !DISubroutineType(types: !493)
!493 = !{!19, !404, !437, !414, !480}
!494 = !DIImportedEntity(tag: DW_TAG_imported_declaration, scope: !5, entity: !495, file: !381, line: 172)
!495 = !DISubprogram(name: "vswscanf", linkageName: "__isoc99_vswscanf", scope: !387, file: !387, line: 700, type: !496, flags: DIFlagPrototyped, spFlags: 0)
!496 = !DISubroutineType(types: !497)
!497 = !{!19, !414, !414, !480}
!498 = !DIImportedEntity(tag: DW_TAG_imported_declaration, scope: !5, entity: !499, file: !381, line: 174)
!499 = !DISubprogram(name: "vwprintf", scope: !387, file: !387, line: 606, type: !500, flags: DIFlagPrototyped, spFlags: 0)
!500 = !DISubroutineType(types: !501)
!501 = !{!19, !414, !480}
!502 = !DIImportedEntity(tag: DW_TAG_imported_declaration, scope: !5, entity: !503, file: !381, line: 176)
!503 = !DISubprogram(name: "vwscanf", linkageName: "__isoc99_vwscanf", scope: !387, file: !387, line: 697, type: !500, flags: DIFlagPrototyped, spFlags: 0)
!504 = !DIImportedEntity(tag: DW_TAG_imported_declaration, scope: !5, entity: !505, file: !381, line: 178)
!505 = !DISubprogram(name: "wcrtomb", scope: !387, file: !387, line: 301, type: !506, flags: DIFlagPrototyped, spFlags: 0)
!506 = !DISubroutineType(types: !507)
!507 = !{!437, !508, !403, !440}
!508 = !DIDerivedType(tag: DW_TAG_restrict_type, baseType: !509)
!509 = !DIDerivedType(tag: DW_TAG_pointer_type, baseType: !270, size: 64)
!510 = !DIImportedEntity(tag: DW_TAG_imported_declaration, scope: !5, entity: !511, file: !381, line: 179)
!511 = !DISubprogram(name: "wcscat", scope: !387, file: !387, line: 97, type: !512, flags: DIFlagPrototyped, spFlags: 0)
!512 = !DISubroutineType(types: !513)
!513 = !{!402, !404, !414}
!514 = !DIImportedEntity(tag: DW_TAG_imported_declaration, scope: !5, entity: !515, file: !381, line: 180)
!515 = !DISubprogram(name: "wcscmp", scope: !387, file: !387, line: 106, type: !516, flags: DIFlagPrototyped, spFlags: 0)
!516 = !DISubroutineType(types: !517)
!517 = !{!19, !415, !415}
!518 = !DIImportedEntity(tag: DW_TAG_imported_declaration, scope: !5, entity: !519, file: !381, line: 181)
!519 = !DISubprogram(name: "wcscoll", scope: !387, file: !387, line: 131, type: !516, flags: DIFlagPrototyped, spFlags: 0)
!520 = !DIImportedEntity(tag: DW_TAG_imported_declaration, scope: !5, entity: !521, file: !381, line: 182)
!521 = !DISubprogram(name: "wcscpy", scope: !387, file: !387, line: 87, type: !512, flags: DIFlagPrototyped, spFlags: 0)
!522 = !DIImportedEntity(tag: DW_TAG_imported_declaration, scope: !5, entity: !523, file: !381, line: 183)
!523 = !DISubprogram(name: "wcscspn", scope: !387, file: !387, line: 187, type: !524, flags: DIFlagPrototyped, spFlags: 0)
!524 = !DISubroutineType(types: !525)
!525 = !{!437, !415, !415}
!526 = !DIImportedEntity(tag: DW_TAG_imported_declaration, scope: !5, entity: !527, file: !381, line: 184)
!527 = !DISubprogram(name: "wcsftime", scope: !387, file: !387, line: 834, type: !528, flags: DIFlagPrototyped, spFlags: 0)
!528 = !DISubroutineType(types: !529)
!529 = !{!437, !404, !437, !414, !530}
!530 = !DIDerivedType(tag: DW_TAG_restrict_type, baseType: !531)
!531 = !DIDerivedType(tag: DW_TAG_pointer_type, baseType: !532, size: 64)
!532 = !DIDerivedType(tag: DW_TAG_const_type, baseType: !533)
!533 = !DICompositeType(tag: DW_TAG_structure_type, name: "tm", file: !387, line: 83, flags: DIFlagFwdDecl, identifier: "_ZTS2tm")
!534 = !DIImportedEntity(tag: DW_TAG_imported_declaration, scope: !5, entity: !535, file: !381, line: 185)
!535 = !DISubprogram(name: "wcslen", scope: !387, file: !387, line: 222, type: !536, flags: DIFlagPrototyped, spFlags: 0)
!536 = !DISubroutineType(types: !537)
!537 = !{!437, !415}
!538 = !DIImportedEntity(tag: DW_TAG_imported_declaration, scope: !5, entity: !539, file: !381, line: 186)
!539 = !DISubprogram(name: "wcsncat", scope: !387, file: !387, line: 101, type: !540, flags: DIFlagPrototyped, spFlags: 0)
!540 = !DISubroutineType(types: !541)
!541 = !{!402, !404, !414, !437}
!542 = !DIImportedEntity(tag: DW_TAG_imported_declaration, scope: !5, entity: !543, file: !381, line: 187)
!543 = !DISubprogram(name: "wcsncmp", scope: !387, file: !387, line: 109, type: !544, flags: DIFlagPrototyped, spFlags: 0)
!544 = !DISubroutineType(types: !545)
!545 = !{!19, !415, !415, !437}
!546 = !DIImportedEntity(tag: DW_TAG_imported_declaration, scope: !5, entity: !547, file: !381, line: 188)
!547 = !DISubprogram(name: "wcsncpy", scope: !387, file: !387, line: 92, type: !540, flags: DIFlagPrototyped, spFlags: 0)
!548 = !DIImportedEntity(tag: DW_TAG_imported_declaration, scope: !5, entity: !549, file: !381, line: 189)
!549 = !DISubprogram(name: "wcsrtombs", scope: !387, file: !387, line: 343, type: !550, flags: DIFlagPrototyped, spFlags: 0)
!550 = !DISubroutineType(types: !551)
!551 = !{!437, !508, !552, !437, !440}
!552 = !DIDerivedType(tag: DW_TAG_restrict_type, baseType: !553)
!553 = !DIDerivedType(tag: DW_TAG_pointer_type, baseType: !415, size: 64)
!554 = !DIImportedEntity(tag: DW_TAG_imported_declaration, scope: !5, entity: !555, file: !381, line: 190)
!555 = !DISubprogram(name: "wcsspn", scope: !387, file: !387, line: 191, type: !524, flags: DIFlagPrototyped, spFlags: 0)
!556 = !DIImportedEntity(tag: DW_TAG_imported_declaration, scope: !5, entity: !557, file: !381, line: 191)
!557 = !DISubprogram(name: "wcstod", scope: !387, file: !387, line: 377, type: !558, flags: DIFlagPrototyped, spFlags: 0)
!558 = !DISubroutineType(types: !559)
!559 = !{!32, !414, !560}
!560 = !DIDerivedType(tag: DW_TAG_restrict_type, baseType: !561)
!561 = !DIDerivedType(tag: DW_TAG_pointer_type, baseType: !402, size: 64)
!562 = !DIImportedEntity(tag: DW_TAG_imported_declaration, scope: !5, entity: !563, file: !381, line: 193)
!563 = !DISubprogram(name: "wcstof", scope: !387, file: !387, line: 382, type: !564, flags: DIFlagPrototyped, spFlags: 0)
!564 = !DISubroutineType(types: !565)
!565 = !{!91, !414, !560}
!566 = !DIImportedEntity(tag: DW_TAG_imported_declaration, scope: !5, entity: !567, file: !381, line: 195)
!567 = !DISubprogram(name: "wcstok", scope: !387, file: !387, line: 217, type: !568, flags: DIFlagPrototyped, spFlags: 0)
!568 = !DISubroutineType(types: !569)
!569 = !{!402, !404, !414, !560}
!570 = !DIImportedEntity(tag: DW_TAG_imported_declaration, scope: !5, entity: !571, file: !381, line: 196)
!571 = !DISubprogram(name: "wcstol", scope: !387, file: !387, line: 428, type: !572, flags: DIFlagPrototyped, spFlags: 0)
!572 = !DISubroutineType(types: !573)
!573 = !{!13, !414, !560, !19}
!574 = !DIImportedEntity(tag: DW_TAG_imported_declaration, scope: !5, entity: !575, file: !381, line: 197)
!575 = !DISubprogram(name: "wcstoul", scope: !387, file: !387, line: 433, type: !576, flags: DIFlagPrototyped, spFlags: 0)
!576 = !DISubroutineType(types: !577)
!577 = !{!17, !414, !560, !19}
!578 = !DIImportedEntity(tag: DW_TAG_imported_declaration, scope: !5, entity: !579, file: !381, line: 198)
!579 = !DISubprogram(name: "wcsxfrm", scope: !387, file: !387, line: 135, type: !580, flags: DIFlagPrototyped, spFlags: 0)
!580 = !DISubroutineType(types: !581)
!581 = !{!437, !404, !414, !437}
!582 = !DIImportedEntity(tag: DW_TAG_imported_declaration, scope: !5, entity: !583, file: !381, line: 199)
!583 = !DISubprogram(name: "wctob", scope: !387, file: !387, line: 288, type: !584, flags: DIFlagPrototyped, spFlags: 0)
!584 = !DISubroutineType(types: !585)
!585 = !{!19, !383}
!586 = !DIImportedEntity(tag: DW_TAG_imported_declaration, scope: !5, entity: !587, file: !381, line: 200)
!587 = !DISubprogram(name: "wmemcmp", scope: !387, file: !387, line: 258, type: !544, flags: DIFlagPrototyped, spFlags: 0)
!588 = !DIImportedEntity(tag: DW_TAG_imported_declaration, scope: !5, entity: !589, file: !381, line: 201)
!589 = !DISubprogram(name: "wmemcpy", scope: !387, file: !387, line: 262, type: !540, flags: DIFlagPrototyped, spFlags: 0)
!590 = !DIImportedEntity(tag: DW_TAG_imported_declaration, scope: !5, entity: !591, file: !381, line: 202)
!591 = !DISubprogram(name: "wmemmove", scope: !387, file: !387, line: 267, type: !592, flags: DIFlagPrototyped, spFlags: 0)
!592 = !DISubroutineType(types: !593)
!593 = !{!402, !402, !415, !437}
!594 = !DIImportedEntity(tag: DW_TAG_imported_declaration, scope: !5, entity: !595, file: !381, line: 203)
!595 = !DISubprogram(name: "wmemset", scope: !387, file: !387, line: 271, type: !596, flags: DIFlagPrototyped, spFlags: 0)
!596 = !DISubroutineType(types: !597)
!597 = !{!402, !402, !403, !437}
!598 = !DIImportedEntity(tag: DW_TAG_imported_declaration, scope: !5, entity: !599, file: !381, line: 204)
!599 = !DISubprogram(name: "wprintf", scope: !387, file: !387, line: 587, type: !600, flags: DIFlagPrototyped, spFlags: 0)
!600 = !DISubroutineType(types: !601)
!601 = !{!19, !414, null}
!602 = !DIImportedEntity(tag: DW_TAG_imported_declaration, scope: !5, entity: !603, file: !381, line: 205)
!603 = !DISubprogram(name: "wscanf", linkageName: "__isoc99_wscanf", scope: !387, file: !387, line: 644, type: !600, flags: DIFlagPrototyped, spFlags: 0)
!604 = !DIImportedEntity(tag: DW_TAG_imported_declaration, scope: !5, entity: !605, file: !381, line: 206)
!605 = !DISubprogram(name: "wcschr", scope: !387, file: !387, line: 164, type: !606, flags: DIFlagPrototyped, spFlags: 0)
!606 = !DISubroutineType(types: !607)
!607 = !{!402, !415, !403}
!608 = !DIImportedEntity(tag: DW_TAG_imported_declaration, scope: !5, entity: !609, file: !381, line: 207)
!609 = !DISubprogram(name: "wcspbrk", scope: !387, file: !387, line: 201, type: !610, flags: DIFlagPrototyped, spFlags: 0)
!610 = !DISubroutineType(types: !611)
!611 = !{!402, !415, !415}
!612 = !DIImportedEntity(tag: DW_TAG_imported_declaration, scope: !5, entity: !613, file: !381, line: 208)
!613 = !DISubprogram(name: "wcsrchr", scope: !387, file: !387, line: 174, type: !606, flags: DIFlagPrototyped, spFlags: 0)
!614 = !DIImportedEntity(tag: DW_TAG_imported_declaration, scope: !5, entity: !615, file: !381, line: 209)
!615 = !DISubprogram(name: "wcsstr", scope: !387, file: !387, line: 212, type: !610, flags: DIFlagPrototyped, spFlags: 0)
!616 = !DIImportedEntity(tag: DW_TAG_imported_declaration, scope: !5, entity: !617, file: !381, line: 210)
!617 = !DISubprogram(name: "wmemchr", scope: !387, file: !387, line: 253, type: !618, flags: DIFlagPrototyped, spFlags: 0)
!618 = !DISubroutineType(types: !619)
!619 = !{!402, !415, !403, !437}
!620 = !DIImportedEntity(tag: DW_TAG_imported_declaration, scope: !621, entity: !622, file: !381, line: 251)
!621 = !DINamespace(name: "__gnu_cxx", scope: null)
!622 = !DISubprogram(name: "wcstold", scope: !387, file: !387, line: 384, type: !623, flags: DIFlagPrototyped, spFlags: 0)
!623 = !DISubroutineType(types: !624)
!624 = !{!102, !414, !560}
!625 = !DIImportedEntity(tag: DW_TAG_imported_declaration, scope: !621, entity: !626, file: !381, line: 260)
!626 = !DISubprogram(name: "wcstoll", scope: !387, file: !387, line: 441, type: !627, flags: DIFlagPrototyped, spFlags: 0)
!627 = !DISubroutineType(types: !628)
!628 = !{!213, !414, !560, !19}
!629 = !DIImportedEntity(tag: DW_TAG_imported_declaration, scope: !621, entity: !630, file: !381, line: 261)
!630 = !DISubprogram(name: "wcstoull", scope: !387, file: !387, line: 448, type: !631, flags: DIFlagPrototyped, spFlags: 0)
!631 = !DISubroutineType(types: !632)
!632 = !{!633, !414, !560, !19}
!633 = !DIBasicType(name: "long long unsigned int", size: 64, encoding: DW_ATE_unsigned)
!634 = !DIImportedEntity(tag: DW_TAG_imported_declaration, scope: !5, entity: !622, file: !381, line: 267)
!635 = !DIImportedEntity(tag: DW_TAG_imported_declaration, scope: !5, entity: !626, file: !381, line: 268)
!636 = !DIImportedEntity(tag: DW_TAG_imported_declaration, scope: !5, entity: !630, file: !381, line: 269)
!637 = !DIImportedEntity(tag: DW_TAG_imported_declaration, scope: !5, entity: !563, file: !381, line: 283)
!638 = !DIImportedEntity(tag: DW_TAG_imported_declaration, scope: !5, entity: !489, file: !381, line: 286)
!639 = !DIImportedEntity(tag: DW_TAG_imported_declaration, scope: !5, entity: !495, file: !381, line: 289)
!640 = !DIImportedEntity(tag: DW_TAG_imported_declaration, scope: !5, entity: !503, file: !381, line: 292)
!641 = !DIImportedEntity(tag: DW_TAG_imported_declaration, scope: !5, entity: !622, file: !381, line: 296)
!642 = !DIImportedEntity(tag: DW_TAG_imported_declaration, scope: !5, entity: !626, file: !381, line: 297)
!643 = !DIImportedEntity(tag: DW_TAG_imported_declaration, scope: !5, entity: !630, file: !381, line: 298)
!644 = !DIImportedEntity(tag: DW_TAG_imported_declaration, scope: !5, entity: !645, file: !646, line: 58)
!645 = distinct !DICompositeType(tag: DW_TAG_class_type, name: "exception_ptr", scope: !647, file: !646, line: 80, size: 64, flags: DIFlagTypePassByReference | DIFlagNonTrivial, elements: !648, identifier: "_ZTSNSt15__exception_ptr13exception_ptrE")
!646 = !DIFile(filename: "/usr/lib/gcc/x86_64-linux-gnu/10/../../../../include/c++/10/bits/exception_ptr.h", directory: "")
!647 = !DINamespace(name: "__exception_ptr", scope: !5)
!648 = !{!649, !650, !654, !657, !658, !663, !664, !668, !673, !677, !681, !684, !685, !688, !692}
!649 = !DIDerivedType(tag: DW_TAG_member, name: "_M_exception_object", scope: !645, file: !646, line: 82, baseType: !486, size: 64)
!650 = !DISubprogram(name: "exception_ptr", scope: !645, file: !646, line: 84, type: !651, scopeLine: 84, flags: DIFlagExplicit | DIFlagPrototyped, spFlags: 0)
!651 = !DISubroutineType(types: !652)
!652 = !{null, !653, !486}
!653 = !DIDerivedType(tag: DW_TAG_pointer_type, baseType: !645, size: 64, flags: DIFlagArtificial | DIFlagObjectPointer)
!654 = !DISubprogram(name: "_M_addref", linkageName: "_ZNSt15__exception_ptr13exception_ptr9_M_addrefEv", scope: !645, file: !646, line: 86, type: !655, scopeLine: 86, flags: DIFlagPrototyped, spFlags: 0)
!655 = !DISubroutineType(types: !656)
!656 = !{null, !653}
!657 = !DISubprogram(name: "_M_release", linkageName: "_ZNSt15__exception_ptr13exception_ptr10_M_releaseEv", scope: !645, file: !646, line: 87, type: !655, scopeLine: 87, flags: DIFlagPrototyped, spFlags: 0)
!658 = !DISubprogram(name: "_M_get", linkageName: "_ZNKSt15__exception_ptr13exception_ptr6_M_getEv", scope: !645, file: !646, line: 89, type: !659, scopeLine: 89, flags: DIFlagPrototyped, spFlags: 0)
!659 = !DISubroutineType(types: !660)
!660 = !{!486, !661}
!661 = !DIDerivedType(tag: DW_TAG_pointer_type, baseType: !662, size: 64, flags: DIFlagArtificial | DIFlagObjectPointer)
!662 = !DIDerivedType(tag: DW_TAG_const_type, baseType: !645)
!663 = !DISubprogram(name: "exception_ptr", scope: !645, file: !646, line: 97, type: !655, scopeLine: 97, flags: DIFlagPublic | DIFlagPrototyped, spFlags: 0)
!664 = !DISubprogram(name: "exception_ptr", scope: !645, file: !646, line: 99, type: !665, scopeLine: 99, flags: DIFlagPublic | DIFlagPrototyped, spFlags: 0)
!665 = !DISubroutineType(types: !666)
!666 = !{null, !653, !667}
!667 = !DIDerivedType(tag: DW_TAG_reference_type, baseType: !662, size: 64)
!668 = !DISubprogram(name: "exception_ptr", scope: !645, file: !646, line: 102, type: !669, scopeLine: 102, flags: DIFlagPublic | DIFlagPrototyped, spFlags: 0)
!669 = !DISubroutineType(types: !670)
!670 = !{null, !653, !671}
!671 = !DIDerivedType(tag: DW_TAG_typedef, name: "nullptr_t", scope: !5, file: !12, line: 264, baseType: !672)
!672 = !DIBasicType(tag: DW_TAG_unspecified_type, name: "decltype(nullptr)")
!673 = !DISubprogram(name: "exception_ptr", scope: !645, file: !646, line: 106, type: !674, scopeLine: 106, flags: DIFlagPublic | DIFlagPrototyped, spFlags: 0)
!674 = !DISubroutineType(types: !675)
!675 = !{null, !653, !676}
!676 = !DIDerivedType(tag: DW_TAG_rvalue_reference_type, baseType: !645, size: 64)
!677 = !DISubprogram(name: "operator=", linkageName: "_ZNSt15__exception_ptr13exception_ptraSERKS0_", scope: !645, file: !646, line: 119, type: !678, scopeLine: 119, flags: DIFlagPublic | DIFlagPrototyped, spFlags: 0)
!678 = !DISubroutineType(types: !679)
!679 = !{!680, !653, !667}
!680 = !DIDerivedType(tag: DW_TAG_reference_type, baseType: !645, size: 64)
!681 = !DISubprogram(name: "operator=", linkageName: "_ZNSt15__exception_ptr13exception_ptraSEOS0_", scope: !645, file: !646, line: 123, type: !682, scopeLine: 123, flags: DIFlagPublic | DIFlagPrototyped, spFlags: 0)
!682 = !DISubroutineType(types: !683)
!683 = !{!680, !653, !676}
!684 = !DISubprogram(name: "~exception_ptr", scope: !645, file: !646, line: 130, type: !655, scopeLine: 130, flags: DIFlagPublic | DIFlagPrototyped, spFlags: 0)
!685 = !DISubprogram(name: "swap", linkageName: "_ZNSt15__exception_ptr13exception_ptr4swapERS0_", scope: !645, file: !646, line: 133, type: !686, scopeLine: 133, flags: DIFlagPublic | DIFlagPrototyped, spFlags: 0)
!686 = !DISubroutineType(types: !687)
!687 = !{null, !653, !680}
!688 = !DISubprogram(name: "operator bool", linkageName: "_ZNKSt15__exception_ptr13exception_ptrcvbEv", scope: !645, file: !646, line: 145, type: !689, scopeLine: 145, flags: DIFlagPublic | DIFlagExplicit | DIFlagPrototyped, spFlags: 0)
!689 = !DISubroutineType(types: !690)
!690 = !{!691, !661}
!691 = !DIBasicType(name: "bool", size: 8, encoding: DW_ATE_boolean)
!692 = !DISubprogram(name: "__cxa_exception_type", linkageName: "_ZNKSt15__exception_ptr13exception_ptr20__cxa_exception_typeEv", scope: !645, file: !646, line: 154, type: !693, scopeLine: 154, flags: DIFlagPublic | DIFlagPrototyped, spFlags: 0)
!693 = !DISubroutineType(types: !694)
!694 = !{!695, !661}
!695 = !DIDerivedType(tag: DW_TAG_pointer_type, baseType: !696, size: 64)
!696 = !DIDerivedType(tag: DW_TAG_const_type, baseType: !697)
!697 = !DICompositeType(tag: DW_TAG_class_type, name: "type_info", scope: !5, file: !698, line: 88, flags: DIFlagFwdDecl)
!698 = !DIFile(filename: "/usr/lib/gcc/x86_64-linux-gnu/10/../../../../include/c++/10/typeinfo", directory: "")
!699 = !DIImportedEntity(tag: DW_TAG_imported_declaration, scope: !647, entity: !700, file: !646, line: 74)
!700 = !DISubprogram(name: "rethrow_exception", linkageName: "_ZSt17rethrow_exceptionNSt15__exception_ptr13exception_ptrE", scope: !5, file: !646, line: 70, type: !701, flags: DIFlagPrototyped | DIFlagNoReturn, spFlags: 0)
!701 = !DISubroutineType(types: !702)
!702 = !{null, !645}
!703 = !DIImportedEntity(tag: DW_TAG_imported_module, scope: !704, entity: !705, file: !706, line: 58)
!704 = !DINamespace(name: "__gnu_debug", scope: null)
!705 = !DINamespace(name: "__debug", scope: !5)
!706 = !DIFile(filename: "/usr/lib/gcc/x86_64-linux-gnu/10/../../../../include/c++/10/debug/debug.h", directory: "")
!707 = !DIImportedEntity(tag: DW_TAG_imported_declaration, scope: !5, entity: !708, file: !713, line: 47)
!708 = !DIDerivedType(tag: DW_TAG_typedef, name: "int8_t", file: !709, line: 24, baseType: !710)
!709 = !DIFile(filename: "/usr/include/x86_64-linux-gnu/bits/stdint-intn.h", directory: "")
!710 = !DIDerivedType(tag: DW_TAG_typedef, name: "__int8_t", file: !711, line: 37, baseType: !712)
!711 = !DIFile(filename: "/usr/include/x86_64-linux-gnu/bits/types.h", directory: "")
!712 = !DIBasicType(name: "signed char", size: 8, encoding: DW_ATE_signed_char)
!713 = !DIFile(filename: "/usr/lib/gcc/x86_64-linux-gnu/10/../../../../include/c++/10/cstdint", directory: "")
!714 = !DIImportedEntity(tag: DW_TAG_imported_declaration, scope: !5, entity: !715, file: !713, line: 48)
!715 = !DIDerivedType(tag: DW_TAG_typedef, name: "int16_t", file: !709, line: 25, baseType: !716)
!716 = !DIDerivedType(tag: DW_TAG_typedef, name: "__int16_t", file: !711, line: 39, baseType: !717)
!717 = !DIBasicType(name: "short", size: 16, encoding: DW_ATE_signed)
!718 = !DIImportedEntity(tag: DW_TAG_imported_declaration, scope: !5, entity: !719, file: !713, line: 49)
!719 = !DIDerivedType(tag: DW_TAG_typedef, name: "int32_t", file: !709, line: 26, baseType: !720)
!720 = !DIDerivedType(tag: DW_TAG_typedef, name: "__int32_t", file: !711, line: 41, baseType: !19)
!721 = !DIImportedEntity(tag: DW_TAG_imported_declaration, scope: !5, entity: !722, file: !713, line: 50)
!722 = !DIDerivedType(tag: DW_TAG_typedef, name: "int64_t", file: !709, line: 27, baseType: !723)
!723 = !DIDerivedType(tag: DW_TAG_typedef, name: "__int64_t", file: !711, line: 44, baseType: !13)
!724 = !DIImportedEntity(tag: DW_TAG_imported_declaration, scope: !5, entity: !725, file: !713, line: 52)
!725 = !DIDerivedType(tag: DW_TAG_typedef, name: "int_fast8_t", file: !726, line: 58, baseType: !712)
!726 = !DIFile(filename: "/usr/include/stdint.h", directory: "")
!727 = !DIImportedEntity(tag: DW_TAG_imported_declaration, scope: !5, entity: !728, file: !713, line: 53)
!728 = !DIDerivedType(tag: DW_TAG_typedef, name: "int_fast16_t", file: !726, line: 60, baseType: !13)
!729 = !DIImportedEntity(tag: DW_TAG_imported_declaration, scope: !5, entity: !730, file: !713, line: 54)
!730 = !DIDerivedType(tag: DW_TAG_typedef, name: "int_fast32_t", file: !726, line: 61, baseType: !13)
!731 = !DIImportedEntity(tag: DW_TAG_imported_declaration, scope: !5, entity: !732, file: !713, line: 55)
!732 = !DIDerivedType(tag: DW_TAG_typedef, name: "int_fast64_t", file: !726, line: 62, baseType: !13)
!733 = !DIImportedEntity(tag: DW_TAG_imported_declaration, scope: !5, entity: !734, file: !713, line: 57)
!734 = !DIDerivedType(tag: DW_TAG_typedef, name: "int_least8_t", file: !726, line: 43, baseType: !735)
!735 = !DIDerivedType(tag: DW_TAG_typedef, name: "__int_least8_t", file: !711, line: 52, baseType: !710)
!736 = !DIImportedEntity(tag: DW_TAG_imported_declaration, scope: !5, entity: !737, file: !713, line: 58)
!737 = !DIDerivedType(tag: DW_TAG_typedef, name: "int_least16_t", file: !726, line: 44, baseType: !738)
!738 = !DIDerivedType(tag: DW_TAG_typedef, name: "__int_least16_t", file: !711, line: 54, baseType: !716)
!739 = !DIImportedEntity(tag: DW_TAG_imported_declaration, scope: !5, entity: !740, file: !713, line: 59)
!740 = !DIDerivedType(tag: DW_TAG_typedef, name: "int_least32_t", file: !726, line: 45, baseType: !741)
!741 = !DIDerivedType(tag: DW_TAG_typedef, name: "__int_least32_t", file: !711, line: 56, baseType: !720)
!742 = !DIImportedEntity(tag: DW_TAG_imported_declaration, scope: !5, entity: !743, file: !713, line: 60)
!743 = !DIDerivedType(tag: DW_TAG_typedef, name: "int_least64_t", file: !726, line: 46, baseType: !744)
!744 = !DIDerivedType(tag: DW_TAG_typedef, name: "__int_least64_t", file: !711, line: 58, baseType: !723)
!745 = !DIImportedEntity(tag: DW_TAG_imported_declaration, scope: !5, entity: !746, file: !713, line: 62)
!746 = !DIDerivedType(tag: DW_TAG_typedef, name: "intmax_t", file: !726, line: 101, baseType: !747)
!747 = !DIDerivedType(tag: DW_TAG_typedef, name: "__intmax_t", file: !711, line: 72, baseType: !13)
!748 = !DIImportedEntity(tag: DW_TAG_imported_declaration, scope: !5, entity: !749, file: !713, line: 63)
!749 = !DIDerivedType(tag: DW_TAG_typedef, name: "intptr_t", file: !726, line: 87, baseType: !13)
!750 = !DIImportedEntity(tag: DW_TAG_imported_declaration, scope: !5, entity: !751, file: !713, line: 65)
!751 = !DIDerivedType(tag: DW_TAG_typedef, name: "uint8_t", file: !752, line: 24, baseType: !753)
!752 = !DIFile(filename: "/usr/include/x86_64-linux-gnu/bits/stdint-uintn.h", directory: "")
!753 = !DIDerivedType(tag: DW_TAG_typedef, name: "__uint8_t", file: !711, line: 38, baseType: !754)
!754 = !DIBasicType(name: "unsigned char", size: 8, encoding: DW_ATE_unsigned_char)
!755 = !DIImportedEntity(tag: DW_TAG_imported_declaration, scope: !5, entity: !756, file: !713, line: 66)
!756 = !DIDerivedType(tag: DW_TAG_typedef, name: "uint16_t", file: !752, line: 25, baseType: !757)
!757 = !DIDerivedType(tag: DW_TAG_typedef, name: "__uint16_t", file: !711, line: 40, baseType: !758)
!758 = !DIBasicType(name: "unsigned short", size: 16, encoding: DW_ATE_unsigned)
!759 = !DIImportedEntity(tag: DW_TAG_imported_declaration, scope: !5, entity: !760, file: !713, line: 67)
!760 = !DIDerivedType(tag: DW_TAG_typedef, name: "uint32_t", file: !752, line: 26, baseType: !761)
!761 = !DIDerivedType(tag: DW_TAG_typedef, name: "__uint32_t", file: !711, line: 42, baseType: !6)
!762 = !DIImportedEntity(tag: DW_TAG_imported_declaration, scope: !5, entity: !763, file: !713, line: 68)
!763 = !DIDerivedType(tag: DW_TAG_typedef, name: "uint64_t", file: !752, line: 27, baseType: !764)
!764 = !DIDerivedType(tag: DW_TAG_typedef, name: "__uint64_t", file: !711, line: 45, baseType: !17)
!765 = !DIImportedEntity(tag: DW_TAG_imported_declaration, scope: !5, entity: !766, file: !713, line: 70)
!766 = !DIDerivedType(tag: DW_TAG_typedef, name: "uint_fast8_t", file: !726, line: 71, baseType: !754)
!767 = !DIImportedEntity(tag: DW_TAG_imported_declaration, scope: !5, entity: !768, file: !713, line: 71)
!768 = !DIDerivedType(tag: DW_TAG_typedef, name: "uint_fast16_t", file: !726, line: 73, baseType: !17)
!769 = !DIImportedEntity(tag: DW_TAG_imported_declaration, scope: !5, entity: !770, file: !713, line: 72)
!770 = !DIDerivedType(tag: DW_TAG_typedef, name: "uint_fast32_t", file: !726, line: 74, baseType: !17)
!771 = !DIImportedEntity(tag: DW_TAG_imported_declaration, scope: !5, entity: !772, file: !713, line: 73)
!772 = !DIDerivedType(tag: DW_TAG_typedef, name: "uint_fast64_t", file: !726, line: 75, baseType: !17)
!773 = !DIImportedEntity(tag: DW_TAG_imported_declaration, scope: !5, entity: !774, file: !713, line: 75)
!774 = !DIDerivedType(tag: DW_TAG_typedef, name: "uint_least8_t", file: !726, line: 49, baseType: !775)
!775 = !DIDerivedType(tag: DW_TAG_typedef, name: "__uint_least8_t", file: !711, line: 53, baseType: !753)
!776 = !DIImportedEntity(tag: DW_TAG_imported_declaration, scope: !5, entity: !777, file: !713, line: 76)
!777 = !DIDerivedType(tag: DW_TAG_typedef, name: "uint_least16_t", file: !726, line: 50, baseType: !778)
!778 = !DIDerivedType(tag: DW_TAG_typedef, name: "__uint_least16_t", file: !711, line: 55, baseType: !757)
!779 = !DIImportedEntity(tag: DW_TAG_imported_declaration, scope: !5, entity: !780, file: !713, line: 77)
!780 = !DIDerivedType(tag: DW_TAG_typedef, name: "uint_least32_t", file: !726, line: 51, baseType: !781)
!781 = !DIDerivedType(tag: DW_TAG_typedef, name: "__uint_least32_t", file: !711, line: 57, baseType: !761)
!782 = !DIImportedEntity(tag: DW_TAG_imported_declaration, scope: !5, entity: !783, file: !713, line: 78)
!783 = !DIDerivedType(tag: DW_TAG_typedef, name: "uint_least64_t", file: !726, line: 52, baseType: !784)
!784 = !DIDerivedType(tag: DW_TAG_typedef, name: "__uint_least64_t", file: !711, line: 59, baseType: !764)
!785 = !DIImportedEntity(tag: DW_TAG_imported_declaration, scope: !5, entity: !786, file: !713, line: 80)
!786 = !DIDerivedType(tag: DW_TAG_typedef, name: "uintmax_t", file: !726, line: 102, baseType: !787)
!787 = !DIDerivedType(tag: DW_TAG_typedef, name: "__uintmax_t", file: !711, line: 73, baseType: !17)
!788 = !DIImportedEntity(tag: DW_TAG_imported_declaration, scope: !5, entity: !789, file: !713, line: 81)
!789 = !DIDerivedType(tag: DW_TAG_typedef, name: "uintptr_t", file: !726, line: 90, baseType: !17)
!790 = !DIImportedEntity(tag: DW_TAG_imported_declaration, scope: !5, entity: !791, file: !793, line: 53)
!791 = !DICompositeType(tag: DW_TAG_structure_type, name: "lconv", file: !792, line: 51, flags: DIFlagFwdDecl, identifier: "_ZTS5lconv")
!792 = !DIFile(filename: "/usr/include/locale.h", directory: "")
!793 = !DIFile(filename: "/usr/lib/gcc/x86_64-linux-gnu/10/../../../../include/c++/10/clocale", directory: "")
!794 = !DIImportedEntity(tag: DW_TAG_imported_declaration, scope: !5, entity: !795, file: !793, line: 54)
!795 = !DISubprogram(name: "setlocale", scope: !792, file: !792, line: 122, type: !796, flags: DIFlagPrototyped, spFlags: 0)
!796 = !DISubroutineType(types: !797)
!797 = !{!509, !19, !268}
!798 = !DIImportedEntity(tag: DW_TAG_imported_declaration, scope: !5, entity: !799, file: !793, line: 55)
!799 = !DISubprogram(name: "localeconv", scope: !792, file: !792, line: 125, type: !800, flags: DIFlagPrototyped, spFlags: 0)
!800 = !DISubroutineType(types: !801)
!801 = !{!802}
!802 = !DIDerivedType(tag: DW_TAG_pointer_type, baseType: !791, size: 64)
!803 = !DIImportedEntity(tag: DW_TAG_imported_declaration, scope: !5, entity: !804, file: !806, line: 64)
!804 = !DISubprogram(name: "isalnum", scope: !805, file: !805, line: 108, type: !24, flags: DIFlagPrototyped, spFlags: 0)
!805 = !DIFile(filename: "/usr/include/ctype.h", directory: "")
!806 = !DIFile(filename: "/usr/lib/gcc/x86_64-linux-gnu/10/../../../../include/c++/10/cctype", directory: "")
!807 = !DIImportedEntity(tag: DW_TAG_imported_declaration, scope: !5, entity: !808, file: !806, line: 65)
!808 = !DISubprogram(name: "isalpha", scope: !805, file: !805, line: 109, type: !24, flags: DIFlagPrototyped, spFlags: 0)
!809 = !DIImportedEntity(tag: DW_TAG_imported_declaration, scope: !5, entity: !810, file: !806, line: 66)
!810 = !DISubprogram(name: "iscntrl", scope: !805, file: !805, line: 110, type: !24, flags: DIFlagPrototyped, spFlags: 0)
!811 = !DIImportedEntity(tag: DW_TAG_imported_declaration, scope: !5, entity: !812, file: !806, line: 67)
!812 = !DISubprogram(name: "isdigit", scope: !805, file: !805, line: 111, type: !24, flags: DIFlagPrototyped, spFlags: 0)
!813 = !DIImportedEntity(tag: DW_TAG_imported_declaration, scope: !5, entity: !814, file: !806, line: 68)
!814 = !DISubprogram(name: "isgraph", scope: !805, file: !805, line: 113, type: !24, flags: DIFlagPrototyped, spFlags: 0)
!815 = !DIImportedEntity(tag: DW_TAG_imported_declaration, scope: !5, entity: !816, file: !806, line: 69)
!816 = !DISubprogram(name: "islower", scope: !805, file: !805, line: 112, type: !24, flags: DIFlagPrototyped, spFlags: 0)
!817 = !DIImportedEntity(tag: DW_TAG_imported_declaration, scope: !5, entity: !818, file: !806, line: 70)
!818 = !DISubprogram(name: "isprint", scope: !805, file: !805, line: 114, type: !24, flags: DIFlagPrototyped, spFlags: 0)
!819 = !DIImportedEntity(tag: DW_TAG_imported_declaration, scope: !5, entity: !820, file: !806, line: 71)
!820 = !DISubprogram(name: "ispunct", scope: !805, file: !805, line: 115, type: !24, flags: DIFlagPrototyped, spFlags: 0)
!821 = !DIImportedEntity(tag: DW_TAG_imported_declaration, scope: !5, entity: !822, file: !806, line: 72)
!822 = !DISubprogram(name: "isspace", scope: !805, file: !805, line: 116, type: !24, flags: DIFlagPrototyped, spFlags: 0)
!823 = !DIImportedEntity(tag: DW_TAG_imported_declaration, scope: !5, entity: !824, file: !806, line: 73)
!824 = !DISubprogram(name: "isupper", scope: !805, file: !805, line: 117, type: !24, flags: DIFlagPrototyped, spFlags: 0)
!825 = !DIImportedEntity(tag: DW_TAG_imported_declaration, scope: !5, entity: !826, file: !806, line: 74)
!826 = !DISubprogram(name: "isxdigit", scope: !805, file: !805, line: 118, type: !24, flags: DIFlagPrototyped, spFlags: 0)
!827 = !DIImportedEntity(tag: DW_TAG_imported_declaration, scope: !5, entity: !828, file: !806, line: 75)
!828 = !DISubprogram(name: "tolower", scope: !805, file: !805, line: 122, type: !24, flags: DIFlagPrototyped, spFlags: 0)
!829 = !DIImportedEntity(tag: DW_TAG_imported_declaration, scope: !5, entity: !830, file: !806, line: 76)
!830 = !DISubprogram(name: "toupper", scope: !805, file: !805, line: 125, type: !24, flags: DIFlagPrototyped, spFlags: 0)
!831 = !DIImportedEntity(tag: DW_TAG_imported_declaration, scope: !5, entity: !832, file: !806, line: 87)
!832 = !DISubprogram(name: "isblank", scope: !805, file: !805, line: 130, type: !24, flags: DIFlagPrototyped, spFlags: 0)
!833 = !DIImportedEntity(tag: DW_TAG_imported_declaration, scope: !5, entity: !834, file: !836, line: 127)
!834 = !DIDerivedType(tag: DW_TAG_typedef, name: "div_t", file: !23, line: 62, baseType: !835)
!835 = !DICompositeType(tag: DW_TAG_structure_type, file: !23, line: 58, flags: DIFlagFwdDecl, identifier: "_ZTS5div_t")
!836 = !DIFile(filename: "/usr/lib/gcc/x86_64-linux-gnu/10/../../../../include/c++/10/cstdlib", directory: "")
!837 = !DIImportedEntity(tag: DW_TAG_imported_declaration, scope: !5, entity: !838, file: !836, line: 128)
!838 = !DIDerivedType(tag: DW_TAG_typedef, name: "ldiv_t", file: !23, line: 70, baseType: !839)
!839 = distinct !DICompositeType(tag: DW_TAG_structure_type, file: !23, line: 66, size: 128, flags: DIFlagTypePassByValue, elements: !840, identifier: "_ZTS6ldiv_t")
!840 = !{!841, !842}
!841 = !DIDerivedType(tag: DW_TAG_member, name: "quot", scope: !839, file: !23, line: 68, baseType: !13, size: 64)
!842 = !DIDerivedType(tag: DW_TAG_member, name: "rem", scope: !839, file: !23, line: 69, baseType: !13, size: 64, offset: 64)
!843 = !DIImportedEntity(tag: DW_TAG_imported_declaration, scope: !5, entity: !844, file: !836, line: 130)
!844 = !DISubprogram(name: "abort", scope: !23, file: !23, line: 591, type: !845, flags: DIFlagPrototyped | DIFlagNoReturn, spFlags: 0)
!845 = !DISubroutineType(types: !846)
!846 = !{null}
!847 = !DIImportedEntity(tag: DW_TAG_imported_declaration, scope: !5, entity: !848, file: !836, line: 134)
!848 = !DISubprogram(name: "atexit", scope: !23, file: !23, line: 595, type: !849, flags: DIFlagPrototyped, spFlags: 0)
!849 = !DISubroutineType(types: !850)
!850 = !{!19, !851}
!851 = !DIDerivedType(tag: DW_TAG_pointer_type, baseType: !845, size: 64)
!852 = !DIImportedEntity(tag: DW_TAG_imported_declaration, scope: !5, entity: !853, file: !836, line: 137)
!853 = !DISubprogram(name: "at_quick_exit", scope: !23, file: !23, line: 600, type: !849, flags: DIFlagPrototyped, spFlags: 0)
!854 = !DIImportedEntity(tag: DW_TAG_imported_declaration, scope: !5, entity: !855, file: !836, line: 140)
!855 = !DISubprogram(name: "atof", scope: !23, file: !23, line: 101, type: !266, flags: DIFlagPrototyped, spFlags: 0)
!856 = !DIImportedEntity(tag: DW_TAG_imported_declaration, scope: !5, entity: !857, file: !836, line: 141)
!857 = !DISubprogram(name: "atoi", scope: !23, file: !23, line: 104, type: !858, flags: DIFlagPrototyped, spFlags: 0)
!858 = !DISubroutineType(types: !859)
!859 = !{!19, !268}
!860 = !DIImportedEntity(tag: DW_TAG_imported_declaration, scope: !5, entity: !861, file: !836, line: 142)
!861 = !DISubprogram(name: "atol", scope: !23, file: !23, line: 107, type: !862, flags: DIFlagPrototyped, spFlags: 0)
!862 = !DISubroutineType(types: !863)
!863 = !{!13, !268}
!864 = !DIImportedEntity(tag: DW_TAG_imported_declaration, scope: !5, entity: !865, file: !836, line: 143)
!865 = !DISubprogram(name: "bsearch", scope: !23, file: !23, line: 820, type: !866, flags: DIFlagPrototyped, spFlags: 0)
!866 = !DISubroutineType(types: !867)
!867 = !{!486, !14, !14, !437, !437, !868}
!868 = !DIDerivedType(tag: DW_TAG_typedef, name: "__compar_fn_t", file: !23, line: 808, baseType: !869)
!869 = !DIDerivedType(tag: DW_TAG_pointer_type, baseType: !870, size: 64)
!870 = !DISubroutineType(types: !871)
!871 = !{!19, !14, !14}
!872 = !DIImportedEntity(tag: DW_TAG_imported_declaration, scope: !5, entity: !873, file: !836, line: 144)
!873 = !DISubprogram(name: "calloc", scope: !23, file: !23, line: 542, type: !874, flags: DIFlagPrototyped, spFlags: 0)
!874 = !DISubroutineType(types: !875)
!875 = !{!486, !437, !437}
!876 = !DIImportedEntity(tag: DW_TAG_imported_declaration, scope: !5, entity: !877, file: !836, line: 145)
!877 = !DISubprogram(name: "div", scope: !23, file: !23, line: 852, type: !878, flags: DIFlagPrototyped, spFlags: 0)
!878 = !DISubroutineType(types: !879)
!879 = !{!834, !19, !19}
!880 = !DIImportedEntity(tag: DW_TAG_imported_declaration, scope: !5, entity: !881, file: !836, line: 146)
!881 = !DISubprogram(name: "exit", scope: !23, file: !23, line: 617, type: !882, flags: DIFlagPrototyped | DIFlagNoReturn, spFlags: 0)
!882 = !DISubroutineType(types: !883)
!883 = !{null, !19}
!884 = !DIImportedEntity(tag: DW_TAG_imported_declaration, scope: !5, entity: !885, file: !836, line: 147)
!885 = !DISubprogram(name: "free", scope: !23, file: !23, line: 565, type: !886, flags: DIFlagPrototyped, spFlags: 0)
!886 = !DISubroutineType(types: !887)
!887 = !{null, !486}
!888 = !DIImportedEntity(tag: DW_TAG_imported_declaration, scope: !5, entity: !889, file: !836, line: 148)
!889 = !DISubprogram(name: "getenv", scope: !23, file: !23, line: 634, type: !890, flags: DIFlagPrototyped, spFlags: 0)
!890 = !DISubroutineType(types: !891)
!891 = !{!509, !268}
!892 = !DIImportedEntity(tag: DW_TAG_imported_declaration, scope: !5, entity: !893, file: !836, line: 149)
!893 = !DISubprogram(name: "labs", scope: !23, file: !23, line: 841, type: !894, flags: DIFlagPrototyped, spFlags: 0)
!894 = !DISubroutineType(types: !895)
!895 = !{!13, !13}
!896 = !DIImportedEntity(tag: DW_TAG_imported_declaration, scope: !5, entity: !897, file: !836, line: 150)
!897 = !DISubprogram(name: "ldiv", scope: !23, file: !23, line: 854, type: !898, flags: DIFlagPrototyped, spFlags: 0)
!898 = !DISubroutineType(types: !899)
!899 = !{!838, !13, !13}
!900 = !DIImportedEntity(tag: DW_TAG_imported_declaration, scope: !5, entity: !901, file: !836, line: 151)
!901 = !DISubprogram(name: "malloc", scope: !23, file: !23, line: 539, type: !902, flags: DIFlagPrototyped, spFlags: 0)
!902 = !DISubroutineType(types: !903)
!903 = !{!486, !437}
!904 = !DIImportedEntity(tag: DW_TAG_imported_declaration, scope: !5, entity: !905, file: !836, line: 153)
!905 = !DISubprogram(name: "mblen", scope: !23, file: !23, line: 922, type: !906, flags: DIFlagPrototyped, spFlags: 0)
!906 = !DISubroutineType(types: !907)
!907 = !{!19, !268, !437}
!908 = !DIImportedEntity(tag: DW_TAG_imported_declaration, scope: !5, entity: !909, file: !836, line: 154)
!909 = !DISubprogram(name: "mbstowcs", scope: !23, file: !23, line: 933, type: !910, flags: DIFlagPrototyped, spFlags: 0)
!910 = !DISubroutineType(types: !911)
!911 = !{!437, !404, !439, !437}
!912 = !DIImportedEntity(tag: DW_TAG_imported_declaration, scope: !5, entity: !913, file: !836, line: 155)
!913 = !DISubprogram(name: "mbtowc", scope: !23, file: !23, line: 925, type: !914, flags: DIFlagPrototyped, spFlags: 0)
!914 = !DISubroutineType(types: !915)
!915 = !{!19, !404, !439, !437}
!916 = !DIImportedEntity(tag: DW_TAG_imported_declaration, scope: !5, entity: !917, file: !836, line: 157)
!917 = !DISubprogram(name: "qsort", scope: !23, file: !23, line: 830, type: !918, flags: DIFlagPrototyped, spFlags: 0)
!918 = !DISubroutineType(types: !919)
!919 = !{null, !486, !437, !437, !868}
!920 = !DIImportedEntity(tag: DW_TAG_imported_declaration, scope: !5, entity: !921, file: !836, line: 160)
!921 = !DISubprogram(name: "quick_exit", scope: !23, file: !23, line: 623, type: !882, flags: DIFlagPrototyped | DIFlagNoReturn, spFlags: 0)
!922 = !DIImportedEntity(tag: DW_TAG_imported_declaration, scope: !5, entity: !923, file: !836, line: 163)
!923 = !DISubprogram(name: "rand", scope: !23, file: !23, line: 453, type: !924, flags: DIFlagPrototyped, spFlags: 0)
!924 = !DISubroutineType(types: !925)
!925 = !{!19}
!926 = !DIImportedEntity(tag: DW_TAG_imported_declaration, scope: !5, entity: !927, file: !836, line: 164)
!927 = !DISubprogram(name: "realloc", scope: !23, file: !23, line: 550, type: !928, flags: DIFlagPrototyped, spFlags: 0)
!928 = !DISubroutineType(types: !929)
!929 = !{!486, !486, !437}
!930 = !DIImportedEntity(tag: DW_TAG_imported_declaration, scope: !5, entity: !931, file: !836, line: 165)
!931 = !DISubprogram(name: "srand", scope: !23, file: !23, line: 455, type: !932, flags: DIFlagPrototyped, spFlags: 0)
!932 = !DISubroutineType(types: !933)
!933 = !{null, !6}
!934 = !DIImportedEntity(tag: DW_TAG_imported_declaration, scope: !5, entity: !935, file: !836, line: 166)
!935 = !DISubprogram(name: "strtod", scope: !23, file: !23, line: 117, type: !936, flags: DIFlagPrototyped, spFlags: 0)
!936 = !DISubroutineType(types: !937)
!937 = !{!32, !439, !938}
!938 = !DIDerivedType(tag: DW_TAG_restrict_type, baseType: !939)
!939 = !DIDerivedType(tag: DW_TAG_pointer_type, baseType: !509, size: 64)
!940 = !DIImportedEntity(tag: DW_TAG_imported_declaration, scope: !5, entity: !941, file: !836, line: 167)
!941 = !DISubprogram(name: "strtol", scope: !23, file: !23, line: 176, type: !942, flags: DIFlagPrototyped, spFlags: 0)
!942 = !DISubroutineType(types: !943)
!943 = !{!13, !439, !938, !19}
!944 = !DIImportedEntity(tag: DW_TAG_imported_declaration, scope: !5, entity: !945, file: !836, line: 168)
!945 = !DISubprogram(name: "strtoul", scope: !23, file: !23, line: 180, type: !946, flags: DIFlagPrototyped, spFlags: 0)
!946 = !DISubroutineType(types: !947)
!947 = !{!17, !439, !938, !19}
!948 = !DIImportedEntity(tag: DW_TAG_imported_declaration, scope: !5, entity: !949, file: !836, line: 169)
!949 = !DISubprogram(name: "system", scope: !23, file: !23, line: 784, type: !858, flags: DIFlagPrototyped, spFlags: 0)
!950 = !DIImportedEntity(tag: DW_TAG_imported_declaration, scope: !5, entity: !951, file: !836, line: 171)
!951 = !DISubprogram(name: "wcstombs", scope: !23, file: !23, line: 936, type: !952, flags: DIFlagPrototyped, spFlags: 0)
!952 = !DISubroutineType(types: !953)
!953 = !{!437, !508, !414, !437}
!954 = !DIImportedEntity(tag: DW_TAG_imported_declaration, scope: !5, entity: !955, file: !836, line: 172)
!955 = !DISubprogram(name: "wctomb", scope: !23, file: !23, line: 929, type: !956, flags: DIFlagPrototyped, spFlags: 0)
!956 = !DISubroutineType(types: !957)
!957 = !{!19, !509, !403}
!958 = !DIImportedEntity(tag: DW_TAG_imported_declaration, scope: !621, entity: !959, file: !836, line: 200)
!959 = !DIDerivedType(tag: DW_TAG_typedef, name: "lldiv_t", file: !23, line: 80, baseType: !960)
!960 = distinct !DICompositeType(tag: DW_TAG_structure_type, file: !23, line: 76, size: 128, flags: DIFlagTypePassByValue, elements: !961, identifier: "_ZTS7lldiv_t")
!961 = !{!962, !963}
!962 = !DIDerivedType(tag: DW_TAG_member, name: "quot", scope: !960, file: !23, line: 78, baseType: !213, size: 64)
!963 = !DIDerivedType(tag: DW_TAG_member, name: "rem", scope: !960, file: !23, line: 79, baseType: !213, size: 64, offset: 64)
!964 = !DIImportedEntity(tag: DW_TAG_imported_declaration, scope: !621, entity: !965, file: !836, line: 206)
!965 = !DISubprogram(name: "_Exit", scope: !23, file: !23, line: 629, type: !882, flags: DIFlagPrototyped | DIFlagNoReturn, spFlags: 0)
!966 = !DIImportedEntity(tag: DW_TAG_imported_declaration, scope: !621, entity: !967, file: !836, line: 210)
!967 = !DISubprogram(name: "llabs", scope: !23, file: !23, line: 844, type: !968, flags: DIFlagPrototyped, spFlags: 0)
!968 = !DISubroutineType(types: !969)
!969 = !{!213, !213}
!970 = !DIImportedEntity(tag: DW_TAG_imported_declaration, scope: !621, entity: !971, file: !836, line: 216)
!971 = !DISubprogram(name: "lldiv", scope: !23, file: !23, line: 858, type: !972, flags: DIFlagPrototyped, spFlags: 0)
!972 = !DISubroutineType(types: !973)
!973 = !{!959, !213, !213}
!974 = !DIImportedEntity(tag: DW_TAG_imported_declaration, scope: !621, entity: !975, file: !836, line: 227)
!975 = !DISubprogram(name: "atoll", scope: !23, file: !23, line: 112, type: !976, flags: DIFlagPrototyped, spFlags: 0)
!976 = !DISubroutineType(types: !977)
!977 = !{!213, !268}
!978 = !DIImportedEntity(tag: DW_TAG_imported_declaration, scope: !621, entity: !979, file: !836, line: 228)
!979 = !DISubprogram(name: "strtoll", scope: !23, file: !23, line: 200, type: !980, flags: DIFlagPrototyped, spFlags: 0)
!980 = !DISubroutineType(types: !981)
!981 = !{!213, !439, !938, !19}
!982 = !DIImportedEntity(tag: DW_TAG_imported_declaration, scope: !621, entity: !983, file: !836, line: 229)
!983 = !DISubprogram(name: "strtoull", scope: !23, file: !23, line: 205, type: !984, flags: DIFlagPrototyped, spFlags: 0)
!984 = !DISubroutineType(types: !985)
!985 = !{!633, !439, !938, !19}
!986 = !DIImportedEntity(tag: DW_TAG_imported_declaration, scope: !621, entity: !987, file: !836, line: 231)
!987 = !DISubprogram(name: "strtof", scope: !23, file: !23, line: 123, type: !988, flags: DIFlagPrototyped, spFlags: 0)
!988 = !DISubroutineType(types: !989)
!989 = !{!91, !439, !938}
!990 = !DIImportedEntity(tag: DW_TAG_imported_declaration, scope: !621, entity: !991, file: !836, line: 232)
!991 = !DISubprogram(name: "strtold", scope: !23, file: !23, line: 126, type: !992, flags: DIFlagPrototyped, spFlags: 0)
!992 = !DISubroutineType(types: !993)
!993 = !{!102, !439, !938}
!994 = !DIImportedEntity(tag: DW_TAG_imported_declaration, scope: !5, entity: !959, file: !836, line: 240)
!995 = !DIImportedEntity(tag: DW_TAG_imported_declaration, scope: !5, entity: !965, file: !836, line: 242)
!996 = !DIImportedEntity(tag: DW_TAG_imported_declaration, scope: !5, entity: !967, file: !836, line: 244)
!997 = !DIImportedEntity(tag: DW_TAG_imported_declaration, scope: !5, entity: !998, file: !836, line: 245)
!998 = !DISubprogram(name: "div", linkageName: "_ZN9__gnu_cxx3divExx", scope: !621, file: !836, line: 213, type: !972, flags: DIFlagPrototyped, spFlags: 0)
!999 = !DIImportedEntity(tag: DW_TAG_imported_declaration, scope: !5, entity: !971, file: !836, line: 246)
!1000 = !DIImportedEntity(tag: DW_TAG_imported_declaration, scope: !5, entity: !975, file: !836, line: 248)
!1001 = !DIImportedEntity(tag: DW_TAG_imported_declaration, scope: !5, entity: !987, file: !836, line: 249)
!1002 = !DIImportedEntity(tag: DW_TAG_imported_declaration, scope: !5, entity: !979, file: !836, line: 250)
!1003 = !DIImportedEntity(tag: DW_TAG_imported_declaration, scope: !5, entity: !983, file: !836, line: 251)
!1004 = !DIImportedEntity(tag: DW_TAG_imported_declaration, scope: !5, entity: !991, file: !836, line: 252)
!1005 = !DIImportedEntity(tag: DW_TAG_imported_declaration, scope: !5, entity: !1006, file: !1008, line: 98)
!1006 = !DIDerivedType(tag: DW_TAG_typedef, name: "FILE", file: !1007, line: 7, baseType: !397)
!1007 = !DIFile(filename: "/usr/include/x86_64-linux-gnu/bits/types/FILE.h", directory: "")
!1008 = !DIFile(filename: "/usr/lib/gcc/x86_64-linux-gnu/10/../../../../include/c++/10/cstdio", directory: "")
!1009 = !DIImportedEntity(tag: DW_TAG_imported_declaration, scope: !5, entity: !1010, file: !1008, line: 99)
!1010 = !DIDerivedType(tag: DW_TAG_typedef, name: "fpos_t", file: !1011, line: 84, baseType: !1012)
!1011 = !DIFile(filename: "/usr/include/stdio.h", directory: "")
!1012 = !DIDerivedType(tag: DW_TAG_typedef, name: "__fpos_t", file: !1013, line: 14, baseType: !1014)
!1013 = !DIFile(filename: "/usr/include/x86_64-linux-gnu/bits/types/__fpos_t.h", directory: "")
!1014 = !DICompositeType(tag: DW_TAG_structure_type, name: "_G_fpos_t", file: !1013, line: 10, flags: DIFlagFwdDecl, identifier: "_ZTS9_G_fpos_t")
!1015 = !DIImportedEntity(tag: DW_TAG_imported_declaration, scope: !5, entity: !1016, file: !1008, line: 101)
!1016 = !DISubprogram(name: "clearerr", scope: !1011, file: !1011, line: 757, type: !1017, flags: DIFlagPrototyped, spFlags: 0)
!1017 = !DISubroutineType(types: !1018)
!1018 = !{null, !1019}
!1019 = !DIDerivedType(tag: DW_TAG_pointer_type, baseType: !1006, size: 64)
!1020 = !DIImportedEntity(tag: DW_TAG_imported_declaration, scope: !5, entity: !1021, file: !1008, line: 102)
!1021 = !DISubprogram(name: "fclose", scope: !1011, file: !1011, line: 213, type: !1022, flags: DIFlagPrototyped, spFlags: 0)
!1022 = !DISubroutineType(types: !1023)
!1023 = !{!19, !1019}
!1024 = !DIImportedEntity(tag: DW_TAG_imported_declaration, scope: !5, entity: !1025, file: !1008, line: 103)
!1025 = !DISubprogram(name: "feof", scope: !1011, file: !1011, line: 759, type: !1022, flags: DIFlagPrototyped, spFlags: 0)
!1026 = !DIImportedEntity(tag: DW_TAG_imported_declaration, scope: !5, entity: !1027, file: !1008, line: 104)
!1027 = !DISubprogram(name: "ferror", scope: !1011, file: !1011, line: 761, type: !1022, flags: DIFlagPrototyped, spFlags: 0)
!1028 = !DIImportedEntity(tag: DW_TAG_imported_declaration, scope: !5, entity: !1029, file: !1008, line: 105)
!1029 = !DISubprogram(name: "fflush", scope: !1011, file: !1011, line: 218, type: !1022, flags: DIFlagPrototyped, spFlags: 0)
!1030 = !DIImportedEntity(tag: DW_TAG_imported_declaration, scope: !5, entity: !1031, file: !1008, line: 106)
!1031 = !DISubprogram(name: "fgetc", scope: !1011, file: !1011, line: 485, type: !1022, flags: DIFlagPrototyped, spFlags: 0)
!1032 = !DIImportedEntity(tag: DW_TAG_imported_declaration, scope: !5, entity: !1033, file: !1008, line: 107)
!1033 = !DISubprogram(name: "fgetpos", scope: !1011, file: !1011, line: 731, type: !1034, flags: DIFlagPrototyped, spFlags: 0)
!1034 = !DISubroutineType(types: !1035)
!1035 = !{!19, !1036, !1037}
!1036 = !DIDerivedType(tag: DW_TAG_restrict_type, baseType: !1019)
!1037 = !DIDerivedType(tag: DW_TAG_restrict_type, baseType: !1038)
!1038 = !DIDerivedType(tag: DW_TAG_pointer_type, baseType: !1010, size: 64)
!1039 = !DIImportedEntity(tag: DW_TAG_imported_declaration, scope: !5, entity: !1040, file: !1008, line: 108)
!1040 = !DISubprogram(name: "fgets", scope: !1011, file: !1011, line: 564, type: !1041, flags: DIFlagPrototyped, spFlags: 0)
!1041 = !DISubroutineType(types: !1042)
!1042 = !{!509, !508, !19, !1036}
!1043 = !DIImportedEntity(tag: DW_TAG_imported_declaration, scope: !5, entity: !1044, file: !1008, line: 109)
!1044 = !DISubprogram(name: "fopen", scope: !1011, file: !1011, line: 246, type: !1045, flags: DIFlagPrototyped, spFlags: 0)
!1045 = !DISubroutineType(types: !1046)
!1046 = !{!1019, !439, !439}
!1047 = !DIImportedEntity(tag: DW_TAG_imported_declaration, scope: !5, entity: !1048, file: !1008, line: 110)
!1048 = !DISubprogram(name: "fprintf", scope: !1011, file: !1011, line: 326, type: !1049, flags: DIFlagPrototyped, spFlags: 0)
!1049 = !DISubroutineType(types: !1050)
!1050 = !{!19, !1036, !439, null}
!1051 = !DIImportedEntity(tag: DW_TAG_imported_declaration, scope: !5, entity: !1052, file: !1008, line: 111)
!1052 = !DISubprogram(name: "fputc", scope: !1011, file: !1011, line: 521, type: !1053, flags: DIFlagPrototyped, spFlags: 0)
!1053 = !DISubroutineType(types: !1054)
!1054 = !{!19, !19, !1019}
!1055 = !DIImportedEntity(tag: DW_TAG_imported_declaration, scope: !5, entity: !1056, file: !1008, line: 112)
!1056 = !DISubprogram(name: "fputs", scope: !1011, file: !1011, line: 626, type: !1057, flags: DIFlagPrototyped, spFlags: 0)
!1057 = !DISubroutineType(types: !1058)
!1058 = !{!19, !439, !1036}
!1059 = !DIImportedEntity(tag: DW_TAG_imported_declaration, scope: !5, entity: !1060, file: !1008, line: 113)
!1060 = !DISubprogram(name: "fread", scope: !1011, file: !1011, line: 646, type: !1061, flags: DIFlagPrototyped, spFlags: 0)
!1061 = !DISubroutineType(types: !1062)
!1062 = !{!437, !1063, !437, !437, !1036}
!1063 = !DIDerivedType(tag: DW_TAG_restrict_type, baseType: !486)
!1064 = !DIImportedEntity(tag: DW_TAG_imported_declaration, scope: !5, entity: !1065, file: !1008, line: 114)
!1065 = !DISubprogram(name: "freopen", scope: !1011, file: !1011, line: 252, type: !1066, flags: DIFlagPrototyped, spFlags: 0)
!1066 = !DISubroutineType(types: !1067)
!1067 = !{!1019, !439, !439, !1036}
!1068 = !DIImportedEntity(tag: DW_TAG_imported_declaration, scope: !5, entity: !1069, file: !1008, line: 115)
!1069 = !DISubprogram(name: "fscanf", linkageName: "__isoc99_fscanf", scope: !1011, file: !1011, line: 407, type: !1049, flags: DIFlagPrototyped, spFlags: 0)
!1070 = !DIImportedEntity(tag: DW_TAG_imported_declaration, scope: !5, entity: !1071, file: !1008, line: 116)
!1071 = !DISubprogram(name: "fseek", scope: !1011, file: !1011, line: 684, type: !1072, flags: DIFlagPrototyped, spFlags: 0)
!1072 = !DISubroutineType(types: !1073)
!1073 = !{!19, !1019, !13, !19}
!1074 = !DIImportedEntity(tag: DW_TAG_imported_declaration, scope: !5, entity: !1075, file: !1008, line: 117)
!1075 = !DISubprogram(name: "fsetpos", scope: !1011, file: !1011, line: 736, type: !1076, flags: DIFlagPrototyped, spFlags: 0)
!1076 = !DISubroutineType(types: !1077)
!1077 = !{!19, !1019, !1078}
!1078 = !DIDerivedType(tag: DW_TAG_pointer_type, baseType: !1079, size: 64)
!1079 = !DIDerivedType(tag: DW_TAG_const_type, baseType: !1010)
!1080 = !DIImportedEntity(tag: DW_TAG_imported_declaration, scope: !5, entity: !1081, file: !1008, line: 118)
!1081 = !DISubprogram(name: "ftell", scope: !1011, file: !1011, line: 689, type: !1082, flags: DIFlagPrototyped, spFlags: 0)
!1082 = !DISubroutineType(types: !1083)
!1083 = !{!13, !1019}
!1084 = !DIImportedEntity(tag: DW_TAG_imported_declaration, scope: !5, entity: !1085, file: !1008, line: 119)
!1085 = !DISubprogram(name: "fwrite", scope: !1011, file: !1011, line: 652, type: !1086, flags: DIFlagPrototyped, spFlags: 0)
!1086 = !DISubroutineType(types: !1087)
!1087 = !{!437, !1088, !437, !437, !1036}
!1088 = !DIDerivedType(tag: DW_TAG_restrict_type, baseType: !14)
!1089 = !DIImportedEntity(tag: DW_TAG_imported_declaration, scope: !5, entity: !1090, file: !1008, line: 120)
!1090 = !DISubprogram(name: "getc", scope: !1011, file: !1011, line: 486, type: !1022, flags: DIFlagPrototyped, spFlags: 0)
!1091 = !DIImportedEntity(tag: DW_TAG_imported_declaration, scope: !5, entity: !1092, file: !1008, line: 121)
!1092 = !DISubprogram(name: "getchar", scope: !1011, file: !1011, line: 492, type: !924, flags: DIFlagPrototyped, spFlags: 0)
!1093 = !DIImportedEntity(tag: DW_TAG_imported_declaration, scope: !5, entity: !1094, file: !1008, line: 126)
!1094 = !DISubprogram(name: "perror", scope: !1011, file: !1011, line: 775, type: !1095, flags: DIFlagPrototyped, spFlags: 0)
!1095 = !DISubroutineType(types: !1096)
!1096 = !{null, !268}
!1097 = !DIImportedEntity(tag: DW_TAG_imported_declaration, scope: !5, entity: !1098, file: !1008, line: 127)
!1098 = !DISubprogram(name: "printf", scope: !1011, file: !1011, line: 332, type: !1099, flags: DIFlagPrototyped, spFlags: 0)
!1099 = !DISubroutineType(types: !1100)
!1100 = !{!19, !439, null}
!1101 = !DIImportedEntity(tag: DW_TAG_imported_declaration, scope: !5, entity: !1102, file: !1008, line: 128)
!1102 = !DISubprogram(name: "putc", scope: !1011, file: !1011, line: 522, type: !1053, flags: DIFlagPrototyped, spFlags: 0)
!1103 = !DIImportedEntity(tag: DW_TAG_imported_declaration, scope: !5, entity: !1104, file: !1008, line: 129)
!1104 = !DISubprogram(name: "putchar", scope: !1011, file: !1011, line: 528, type: !24, flags: DIFlagPrototyped, spFlags: 0)
!1105 = !DIImportedEntity(tag: DW_TAG_imported_declaration, scope: !5, entity: !1106, file: !1008, line: 130)
!1106 = !DISubprogram(name: "puts", scope: !1011, file: !1011, line: 632, type: !858, flags: DIFlagPrototyped, spFlags: 0)
!1107 = !DIImportedEntity(tag: DW_TAG_imported_declaration, scope: !5, entity: !1108, file: !1008, line: 131)
!1108 = !DISubprogram(name: "remove", scope: !1011, file: !1011, line: 146, type: !858, flags: DIFlagPrototyped, spFlags: 0)
!1109 = !DIImportedEntity(tag: DW_TAG_imported_declaration, scope: !5, entity: !1110, file: !1008, line: 132)
!1110 = !DISubprogram(name: "rename", scope: !1011, file: !1011, line: 148, type: !1111, flags: DIFlagPrototyped, spFlags: 0)
!1111 = !DISubroutineType(types: !1112)
!1112 = !{!19, !268, !268}
!1113 = !DIImportedEntity(tag: DW_TAG_imported_declaration, scope: !5, entity: !1114, file: !1008, line: 133)
!1114 = !DISubprogram(name: "rewind", scope: !1011, file: !1011, line: 694, type: !1017, flags: DIFlagPrototyped, spFlags: 0)
!1115 = !DIImportedEntity(tag: DW_TAG_imported_declaration, scope: !5, entity: !1116, file: !1008, line: 134)
!1116 = !DISubprogram(name: "scanf", linkageName: "__isoc99_scanf", scope: !1011, file: !1011, line: 410, type: !1099, flags: DIFlagPrototyped, spFlags: 0)
!1117 = !DIImportedEntity(tag: DW_TAG_imported_declaration, scope: !5, entity: !1118, file: !1008, line: 135)
!1118 = !DISubprogram(name: "setbuf", scope: !1011, file: !1011, line: 304, type: !1119, flags: DIFlagPrototyped, spFlags: 0)
!1119 = !DISubroutineType(types: !1120)
!1120 = !{null, !1036, !508}
!1121 = !DIImportedEntity(tag: DW_TAG_imported_declaration, scope: !5, entity: !1122, file: !1008, line: 136)
!1122 = !DISubprogram(name: "setvbuf", scope: !1011, file: !1011, line: 308, type: !1123, flags: DIFlagPrototyped, spFlags: 0)
!1123 = !DISubroutineType(types: !1124)
!1124 = !{!19, !1036, !508, !19, !437}
!1125 = !DIImportedEntity(tag: DW_TAG_imported_declaration, scope: !5, entity: !1126, file: !1008, line: 137)
!1126 = !DISubprogram(name: "sprintf", scope: !1011, file: !1011, line: 334, type: !1127, flags: DIFlagPrototyped, spFlags: 0)
!1127 = !DISubroutineType(types: !1128)
!1128 = !{!19, !508, !439, null}
!1129 = !DIImportedEntity(tag: DW_TAG_imported_declaration, scope: !5, entity: !1130, file: !1008, line: 138)
!1130 = !DISubprogram(name: "sscanf", linkageName: "__isoc99_sscanf", scope: !1011, file: !1011, line: 412, type: !1131, flags: DIFlagPrototyped, spFlags: 0)
!1131 = !DISubroutineType(types: !1132)
!1132 = !{!19, !439, !439, null}
!1133 = !DIImportedEntity(tag: DW_TAG_imported_declaration, scope: !5, entity: !1134, file: !1008, line: 139)
!1134 = !DISubprogram(name: "tmpfile", scope: !1011, file: !1011, line: 173, type: !1135, flags: DIFlagPrototyped, spFlags: 0)
!1135 = !DISubroutineType(types: !1136)
!1136 = !{!1019}
!1137 = !DIImportedEntity(tag: DW_TAG_imported_declaration, scope: !5, entity: !1138, file: !1008, line: 141)
!1138 = !DISubprogram(name: "tmpnam", scope: !1011, file: !1011, line: 187, type: !1139, flags: DIFlagPrototyped, spFlags: 0)
!1139 = !DISubroutineType(types: !1140)
!1140 = !{!509, !509}
!1141 = !DIImportedEntity(tag: DW_TAG_imported_declaration, scope: !5, entity: !1142, file: !1008, line: 143)
!1142 = !DISubprogram(name: "ungetc", scope: !1011, file: !1011, line: 639, type: !1053, flags: DIFlagPrototyped, spFlags: 0)
!1143 = !DIImportedEntity(tag: DW_TAG_imported_declaration, scope: !5, entity: !1144, file: !1008, line: 144)
!1144 = !DISubprogram(name: "vfprintf", scope: !1011, file: !1011, line: 341, type: !1145, flags: DIFlagPrototyped, spFlags: 0)
!1145 = !DISubroutineType(types: !1146)
!1146 = !{!19, !1036, !439, !480}
!1147 = !DIImportedEntity(tag: DW_TAG_imported_declaration, scope: !5, entity: !1148, file: !1008, line: 145)
!1148 = !DISubprogram(name: "vprintf", scope: !1011, file: !1011, line: 347, type: !1149, flags: DIFlagPrototyped, spFlags: 0)
!1149 = !DISubroutineType(types: !1150)
!1150 = !{!19, !439, !480}
!1151 = !DIImportedEntity(tag: DW_TAG_imported_declaration, scope: !5, entity: !1152, file: !1008, line: 146)
!1152 = !DISubprogram(name: "vsprintf", scope: !1011, file: !1011, line: 349, type: !1153, flags: DIFlagPrototyped, spFlags: 0)
!1153 = !DISubroutineType(types: !1154)
!1154 = !{!19, !508, !439, !480}
!1155 = !DIImportedEntity(tag: DW_TAG_imported_declaration, scope: !621, entity: !1156, file: !1008, line: 175)
!1156 = !DISubprogram(name: "snprintf", scope: !1011, file: !1011, line: 354, type: !1157, flags: DIFlagPrototyped, spFlags: 0)
!1157 = !DISubroutineType(types: !1158)
!1158 = !{!19, !508, !437, !439, null}
!1159 = !DIImportedEntity(tag: DW_TAG_imported_declaration, scope: !621, entity: !1160, file: !1008, line: 176)
!1160 = !DISubprogram(name: "vfscanf", linkageName: "__isoc99_vfscanf", scope: !1011, file: !1011, line: 451, type: !1145, flags: DIFlagPrototyped, spFlags: 0)
!1161 = !DIImportedEntity(tag: DW_TAG_imported_declaration, scope: !621, entity: !1162, file: !1008, line: 177)
!1162 = !DISubprogram(name: "vscanf", linkageName: "__isoc99_vscanf", scope: !1011, file: !1011, line: 456, type: !1149, flags: DIFlagPrototyped, spFlags: 0)
!1163 = !DIImportedEntity(tag: DW_TAG_imported_declaration, scope: !621, entity: !1164, file: !1008, line: 178)
!1164 = !DISubprogram(name: "vsnprintf", scope: !1011, file: !1011, line: 358, type: !1165, flags: DIFlagPrototyped, spFlags: 0)
!1165 = !DISubroutineType(types: !1166)
!1166 = !{!19, !508, !437, !439, !480}
!1167 = !DIImportedEntity(tag: DW_TAG_imported_declaration, scope: !621, entity: !1168, file: !1008, line: 179)
!1168 = !DISubprogram(name: "vsscanf", linkageName: "__isoc99_vsscanf", scope: !1011, file: !1011, line: 459, type: !1169, flags: DIFlagPrototyped, spFlags: 0)
!1169 = !DISubroutineType(types: !1170)
!1170 = !{!19, !439, !439, !480}
!1171 = !DIImportedEntity(tag: DW_TAG_imported_declaration, scope: !5, entity: !1156, file: !1008, line: 185)
!1172 = !DIImportedEntity(tag: DW_TAG_imported_declaration, scope: !5, entity: !1160, file: !1008, line: 186)
!1173 = !DIImportedEntity(tag: DW_TAG_imported_declaration, scope: !5, entity: !1162, file: !1008, line: 187)
!1174 = !DIImportedEntity(tag: DW_TAG_imported_declaration, scope: !5, entity: !1164, file: !1008, line: 188)
!1175 = !DIImportedEntity(tag: DW_TAG_imported_declaration, scope: !5, entity: !1168, file: !1008, line: 189)
!1176 = !DIImportedEntity(tag: DW_TAG_imported_declaration, scope: !5, entity: !1177, file: !1181, line: 82)
!1177 = !DIDerivedType(tag: DW_TAG_typedef, name: "wctrans_t", file: !1178, line: 48, baseType: !1179)
!1178 = !DIFile(filename: "/usr/include/wctype.h", directory: "")
!1179 = !DIDerivedType(tag: DW_TAG_pointer_type, baseType: !1180, size: 64)
!1180 = !DIDerivedType(tag: DW_TAG_const_type, baseType: !720)
!1181 = !DIFile(filename: "/usr/lib/gcc/x86_64-linux-gnu/10/../../../../include/c++/10/cwctype", directory: "")
!1182 = !DIImportedEntity(tag: DW_TAG_imported_declaration, scope: !5, entity: !1183, file: !1181, line: 83)
!1183 = !DIDerivedType(tag: DW_TAG_typedef, name: "wctype_t", file: !1184, line: 38, baseType: !17)
!1184 = !DIFile(filename: "/usr/include/x86_64-linux-gnu/bits/wctype-wchar.h", directory: "")
!1185 = !DIImportedEntity(tag: DW_TAG_imported_declaration, scope: !5, entity: !383, file: !1181, line: 84)
!1186 = !DIImportedEntity(tag: DW_TAG_imported_declaration, scope: !5, entity: !1187, file: !1181, line: 86)
!1187 = !DISubprogram(name: "iswalnum", scope: !1184, file: !1184, line: 95, type: !584, flags: DIFlagPrototyped, spFlags: 0)
!1188 = !DIImportedEntity(tag: DW_TAG_imported_declaration, scope: !5, entity: !1189, file: !1181, line: 87)
!1189 = !DISubprogram(name: "iswalpha", scope: !1184, file: !1184, line: 101, type: !584, flags: DIFlagPrototyped, spFlags: 0)
!1190 = !DIImportedEntity(tag: DW_TAG_imported_declaration, scope: !5, entity: !1191, file: !1181, line: 89)
!1191 = !DISubprogram(name: "iswblank", scope: !1184, file: !1184, line: 146, type: !584, flags: DIFlagPrototyped, spFlags: 0)
!1192 = !DIImportedEntity(tag: DW_TAG_imported_declaration, scope: !5, entity: !1193, file: !1181, line: 91)
!1193 = !DISubprogram(name: "iswcntrl", scope: !1184, file: !1184, line: 104, type: !584, flags: DIFlagPrototyped, spFlags: 0)
!1194 = !DIImportedEntity(tag: DW_TAG_imported_declaration, scope: !5, entity: !1195, file: !1181, line: 92)
!1195 = !DISubprogram(name: "iswctype", scope: !1184, file: !1184, line: 159, type: !1196, flags: DIFlagPrototyped, spFlags: 0)
!1196 = !DISubroutineType(types: !1197)
!1197 = !{!19, !383, !1183}
!1198 = !DIImportedEntity(tag: DW_TAG_imported_declaration, scope: !5, entity: !1199, file: !1181, line: 93)
!1199 = !DISubprogram(name: "iswdigit", scope: !1184, file: !1184, line: 108, type: !584, flags: DIFlagPrototyped, spFlags: 0)
!1200 = !DIImportedEntity(tag: DW_TAG_imported_declaration, scope: !5, entity: !1201, file: !1181, line: 94)
!1201 = !DISubprogram(name: "iswgraph", scope: !1184, file: !1184, line: 112, type: !584, flags: DIFlagPrototyped, spFlags: 0)
!1202 = !DIImportedEntity(tag: DW_TAG_imported_declaration, scope: !5, entity: !1203, file: !1181, line: 95)
!1203 = !DISubprogram(name: "iswlower", scope: !1184, file: !1184, line: 117, type: !584, flags: DIFlagPrototyped, spFlags: 0)
!1204 = !DIImportedEntity(tag: DW_TAG_imported_declaration, scope: !5, entity: !1205, file: !1181, line: 96)
!1205 = !DISubprogram(name: "iswprint", scope: !1184, file: !1184, line: 120, type: !584, flags: DIFlagPrototyped, spFlags: 0)
!1206 = !DIImportedEntity(tag: DW_TAG_imported_declaration, scope: !5, entity: !1207, file: !1181, line: 97)
!1207 = !DISubprogram(name: "iswpunct", scope: !1184, file: !1184, line: 125, type: !584, flags: DIFlagPrototyped, spFlags: 0)
!1208 = !DIImportedEntity(tag: DW_TAG_imported_declaration, scope: !5, entity: !1209, file: !1181, line: 98)
!1209 = !DISubprogram(name: "iswspace", scope: !1184, file: !1184, line: 130, type: !584, flags: DIFlagPrototyped, spFlags: 0)
!1210 = !DIImportedEntity(tag: DW_TAG_imported_declaration, scope: !5, entity: !1211, file: !1181, line: 99)
!1211 = !DISubprogram(name: "iswupper", scope: !1184, file: !1184, line: 135, type: !584, flags: DIFlagPrototyped, spFlags: 0)
!1212 = !DIImportedEntity(tag: DW_TAG_imported_declaration, scope: !5, entity: !1213, file: !1181, line: 100)
!1213 = !DISubprogram(name: "iswxdigit", scope: !1184, file: !1184, line: 140, type: !584, flags: DIFlagPrototyped, spFlags: 0)
!1214 = !DIImportedEntity(tag: DW_TAG_imported_declaration, scope: !5, entity: !1215, file: !1181, line: 101)
!1215 = !DISubprogram(name: "towctrans", scope: !1178, file: !1178, line: 55, type: !1216, flags: DIFlagPrototyped, spFlags: 0)
!1216 = !DISubroutineType(types: !1217)
!1217 = !{!383, !383, !1177}
!1218 = !DIImportedEntity(tag: DW_TAG_imported_declaration, scope: !5, entity: !1219, file: !1181, line: 102)
!1219 = !DISubprogram(name: "towlower", scope: !1184, file: !1184, line: 166, type: !1220, flags: DIFlagPrototyped, spFlags: 0)
!1220 = !DISubroutineType(types: !1221)
!1221 = !{!383, !383}
!1222 = !DIImportedEntity(tag: DW_TAG_imported_declaration, scope: !5, entity: !1223, file: !1181, line: 103)
!1223 = !DISubprogram(name: "towupper", scope: !1184, file: !1184, line: 169, type: !1220, flags: DIFlagPrototyped, spFlags: 0)
!1224 = !DIImportedEntity(tag: DW_TAG_imported_declaration, scope: !5, entity: !1225, file: !1181, line: 104)
!1225 = !DISubprogram(name: "wctrans", scope: !1178, file: !1178, line: 52, type: !1226, flags: DIFlagPrototyped, spFlags: 0)
!1226 = !DISubroutineType(types: !1227)
!1227 = !{!1177, !268}
!1228 = !DIImportedEntity(tag: DW_TAG_imported_declaration, scope: !5, entity: !1229, file: !1181, line: 105)
!1229 = !DISubprogram(name: "wctype", scope: !1184, file: !1184, line: 155, type: !1230, flags: DIFlagPrototyped, spFlags: 0)
!1230 = !DISubroutineType(types: !1231)
!1231 = !{!1183, !268}
!1232 = !DIImportedEntity(tag: DW_TAG_imported_declaration, name: "deal_II_numbers", scope: !1233, entity: !1234, file: !1235, line: 302)
!1233 = !DINamespace(name: "dealii", scope: null)
!1234 = !DINamespace(name: "numbers", scope: !1233)
!1235 = !DIFile(filename: "include/base/numbers.h", directory: "/home/venkat/IF-DV/spec_build_release/CPU_2017/benchspec/CPU/510.parest_r/build/build_base_ld-loop-ext-m64.0000")
!1236 = !DIImportedEntity(tag: DW_TAG_imported_module, scope: !1233, entity: !1237, file: !1238, line: 991)
!1237 = !DINamespace(name: "StandardExceptions", scope: !1233)
!1238 = !DIFile(filename: "include/base/exceptions.h", directory: "/home/venkat/IF-DV/spec_build_release/CPU_2017/benchspec/CPU/510.parest_r/build/build_base_ld-loop-ext-m64.0000")
!1239 = !DIImportedEntity(tag: DW_TAG_imported_module, scope: !1240, entity: !1233, file: !1241, line: 19)
!1240 = !DINamespace(name: "libparest", scope: null)
!1241 = !DIFile(filename: "include/libparest/slave/stationary/problem_description.h", directory: "/home/venkat/IF-DV/spec_build_release/CPU_2017/benchspec/CPU/510.parest_r/build/build_base_ld-loop-ext-m64.0000")
!1242 = !{i32 7, !"Dwarf Version", i32 4}
!1243 = !{i32 2, !"Debug Info Version", i32 3}
!1244 = !{i32 1, !"wchar_size", i32 4}
!1245 = !{!"clang version 10.0.1 (https://github.com/svkeerthy/IR2Vec-LoopOptimizationFramework.git 561ac470e63b728263a0ac06ef987886ac648486)"}
!1246 = distinct !DISubprogram(name: "ProblemDescription", linkageName: "_ZN9libparest5Slave10Stationary18ProblemDescriptionC2Ejjj", scope: !1247, file: !1, line: 12, type: !1260, scopeLine: 22, flags: DIFlagPrototyped, spFlags: DISPFlagDefinition, unit: !0, declaration: !1259, retainedNodes: !1394)
!1247 = distinct !DICompositeType(tag: DW_TAG_class_type, name: "ProblemDescription", scope: !1248, file: !1241, line: 27, size: 704, flags: DIFlagTypePassByReference | DIFlagNonTrivial, elements: !1250, vtableHolder: !1252, identifier: "_ZTSN9libparest5Slave10Stationary18ProblemDescriptionE")
!1248 = !DINamespace(name: "Stationary", scope: !1249)
!1249 = !DINamespace(name: "Slave", scope: !1240)
!1250 = !{!1251, !1254, !1256, !1257, !1258, !1259, !1263, !1268, !1269, !1270, !2048, !2049, !2050, !2053, !2054}
!1251 = !DIDerivedType(tag: DW_TAG_inheritance, scope: !1247, baseType: !1252, flags: DIFlagPublic, extraData: i32 0)
!1252 = !DICompositeType(tag: DW_TAG_class_type, name: "Subscriptor", scope: !1233, file: !1253, line: 53, flags: DIFlagFwdDecl)
!1253 = !DIFile(filename: "include/base/subscriptor.h", directory: "/home/venkat/IF-DV/spec_build_release/CPU_2017/benchspec/CPU/510.parest_r/build/build_base_ld-loop-ext-m64.0000")
!1254 = !DIDerivedType(tag: DW_TAG_member, name: "n_primal_variables", scope: !1247, file: !1241, line: 30, baseType: !1255, size: 32, offset: 576, flags: DIFlagPublic)
!1255 = !DIDerivedType(tag: DW_TAG_const_type, baseType: !6)
!1256 = !DIDerivedType(tag: DW_TAG_member, name: "n_dual_variables", scope: !1247, file: !1241, line: 32, baseType: !1255, size: 32, offset: 608, flags: DIFlagPublic)
!1257 = !DIDerivedType(tag: DW_TAG_member, name: "n_parameter_variables", scope: !1247, file: !1241, line: 34, baseType: !1255, size: 32, offset: 640, flags: DIFlagPublic)
!1258 = !DIDerivedType(tag: DW_TAG_member, name: "n_variables", scope: !1247, file: !1241, line: 36, baseType: !1255, size: 32, offset: 672, flags: DIFlagPublic)
!1259 = !DISubprogram(name: "ProblemDescription", scope: !1247, file: !1241, line: 38, type: !1260, scopeLine: 38, flags: DIFlagPublic | DIFlagPrototyped, spFlags: 0)
!1260 = !DISubroutineType(types: !1261)
!1261 = !{null, !1262, !1255, !1255, !1255}
!1262 = !DIDerivedType(tag: DW_TAG_pointer_type, baseType: !1247, size: 64, flags: DIFlagArtificial | DIFlagObjectPointer)
!1263 = !DISubprogram(name: "is_primal_variable", linkageName: "_ZNK9libparest5Slave10Stationary18ProblemDescription18is_primal_variableEj", scope: !1247, file: !1241, line: 42, type: !1264, scopeLine: 42, flags: DIFlagPublic | DIFlagPrototyped, spFlags: 0)
!1264 = !DISubroutineType(types: !1265)
!1265 = !{!691, !1266, !1255}
!1266 = !DIDerivedType(tag: DW_TAG_pointer_type, baseType: !1267, size: 64, flags: DIFlagArtificial | DIFlagObjectPointer)
!1267 = !DIDerivedType(tag: DW_TAG_const_type, baseType: !1247)
!1268 = !DISubprogram(name: "is_dual_variable", linkageName: "_ZNK9libparest5Slave10Stationary18ProblemDescription16is_dual_variableEj", scope: !1247, file: !1241, line: 44, type: !1264, scopeLine: 44, flags: DIFlagPublic | DIFlagPrototyped, spFlags: 0)
!1269 = !DISubprogram(name: "is_parameter_variable", linkageName: "_ZNK9libparest5Slave10Stationary18ProblemDescription21is_parameter_variableEj", scope: !1247, file: !1241, line: 46, type: !1264, scopeLine: 46, flags: DIFlagPublic | DIFlagPrototyped, spFlags: 0)
!1270 = !DISubprogram(name: "get_primal_variables", linkageName: "_ZNK9libparest5Slave10Stationary18ProblemDescription20get_primal_variablesEv", scope: !1247, file: !1241, line: 48, type: !1271, scopeLine: 48, flags: DIFlagPublic | DIFlagPrototyped, spFlags: 0)
!1271 = !DISubroutineType(types: !1272)
!1272 = !{!1273, !1266}
!1273 = distinct !DICompositeType(tag: DW_TAG_class_type, name: "vector<bool, std::allocator<bool> >", scope: !5, file: !4, line: 615, size: 320, flags: DIFlagTypePassByReference | DIFlagNonTrivial, elements: !1274, templateParams: !2047, identifier: "_ZTSSt6vectorIbSaIbEE")
!1274 = !{!1275, !1669, !1675, !1679, !1684, !1688, !1691, !1695, !1699, !1702, !1705, !1734, !1735, !1739, !1742, !1745, !1748, !1751, !1755, !1799, !1800, !1801, !1873, !1943, !1944, !1945, !1946, !1947, !1948, !1949, !1952, !1953, !1954, !1957, !1961, !1965, !1968, !1969, !1970, !1973, !1977, !1981, !1982, !1983, !1984, !1987, !1990, !1993, !1997, !2000, !2003, !2004, !2007, !2010, !2013, !2014, !2015, !2016, !2019, !2020, !2021, !2022, !2025, !2028, !2031, !2034, !2038, !2041, !2044}
!1275 = !DIDerivedType(tag: DW_TAG_inheritance, scope: !1273, baseType: !1276, flags: DIFlagProtected, extraData: i32 0)
!1276 = distinct !DICompositeType(tag: DW_TAG_structure_type, name: "_Bvector_base<std::allocator<bool> >", scope: !5, file: !4, line: 453, size: 320, flags: DIFlagTypePassByReference | DIFlagNonTrivial, elements: !1277, templateParams: !1377, identifier: "_ZTSSt13_Bvector_baseISaIbEE")
!1277 = !{!1278, !1634, !1639, !1644, !1648, !1651, !1656, !1660, !1661, !1664, !1665, !1666}
!1278 = !DIDerivedType(tag: DW_TAG_member, name: "_M_impl", scope: !1276, file: !4, line: 553, baseType: !1279, size: 320, flags: DIFlagProtected)
!1279 = distinct !DICompositeType(tag: DW_TAG_structure_type, name: "_Bvector_impl", scope: !1276, file: !4, line: 495, size: 320, flags: DIFlagTypePassByReference | DIFlagNonTrivial, elements: !1280, identifier: "_ZTSNSt13_Bvector_baseISaIbEE13_Bvector_implE")
!1280 = !{!1281, !1453, !1616, !1620, !1625, !1629}
!1281 = !DIDerivedType(tag: DW_TAG_inheritance, scope: !1279, baseType: !1282, extraData: i32 0)
!1282 = !DIDerivedType(tag: DW_TAG_typedef, name: "_Bit_alloc_type", scope: !1276, file: !4, line: 456, baseType: !1283)
!1283 = !DIDerivedType(tag: DW_TAG_typedef, name: "other", scope: !1285, file: !1284, line: 120, baseType: !1397)
!1284 = !DIFile(filename: "/usr/lib/gcc/x86_64-linux-gnu/10/../../../../include/c++/10/ext/alloc_traits.h", directory: "")
!1285 = distinct !DICompositeType(tag: DW_TAG_structure_type, name: "rebind<unsigned long>", scope: !1286, file: !1284, line: 119, size: 8, flags: DIFlagTypePassByValue, elements: !1394, templateParams: !1395, identifier: "_ZTSN9__gnu_cxx14__alloc_traitsISaIbEbE6rebindImEE")
!1286 = distinct !DICompositeType(tag: DW_TAG_structure_type, name: "__alloc_traits<std::allocator<bool>, bool>", scope: !621, file: !1284, line: 48, size: 8, flags: DIFlagTypePassByValue, elements: !1287, templateParams: !1392, identifier: "_ZTSN9__gnu_cxx14__alloc_traitsISaIbEbEE")
!1287 = !{!1288, !1379, !1382, !1385, !1388, !1389, !1390, !1391}
!1288 = !DIDerivedType(tag: DW_TAG_inheritance, scope: !1286, baseType: !1289, extraData: i32 0)
!1289 = distinct !DICompositeType(tag: DW_TAG_structure_type, name: "allocator_traits<std::allocator<bool> >", scope: !5, file: !1290, line: 407, size: 8, flags: DIFlagTypePassByValue, elements: !1291, templateParams: !1377, identifier: "_ZTSSt16allocator_traitsISaIbEE")
!1290 = !DIFile(filename: "/usr/lib/gcc/x86_64-linux-gnu/10/../../../../include/c++/10/bits/alloc_traits.h", directory: "")
!1291 = !{!1292, !1361, !1365, !1368, !1374}
!1292 = !DISubprogram(name: "allocate", linkageName: "_ZNSt16allocator_traitsISaIbEE8allocateERS0_m", scope: !1289, file: !1290, line: 459, type: !1293, scopeLine: 459, flags: DIFlagPrototyped | DIFlagStaticMember, spFlags: 0)
!1293 = !DISubroutineType(types: !1294)
!1294 = !{!1295, !1297, !1360}
!1295 = !DIDerivedType(tag: DW_TAG_typedef, name: "pointer", scope: !1289, file: !1290, line: 416, baseType: !1296)
!1296 = !DIDerivedType(tag: DW_TAG_pointer_type, baseType: !691, size: 64)
!1297 = !DIDerivedType(tag: DW_TAG_reference_type, baseType: !1298, size: 64)
!1298 = !DIDerivedType(tag: DW_TAG_typedef, name: "allocator_type", scope: !1289, file: !1290, line: 410, baseType: !1299)
!1299 = distinct !DICompositeType(tag: DW_TAG_class_type, name: "allocator<bool>", scope: !5, file: !1300, line: 116, size: 8, flags: DIFlagTypePassByReference | DIFlagNonTrivial, elements: !1301, templateParams: !1344, identifier: "_ZTSSaIbE")
!1300 = !DIFile(filename: "/usr/lib/gcc/x86_64-linux-gnu/10/../../../../include/c++/10/bits/allocator.h", directory: "")
!1301 = !{!1302, !1346, !1350, !1355, !1359}
!1302 = !DIDerivedType(tag: DW_TAG_inheritance, scope: !1299, baseType: !1303, flags: DIFlagPublic, extraData: i32 0)
!1303 = !DIDerivedType(tag: DW_TAG_typedef, name: "__allocator_base<bool>", scope: !5, file: !1304, line: 48, baseType: !1305)
!1304 = !DIFile(filename: "/usr/lib/gcc/x86_64-linux-gnu/10/../../../../include/x86_64-linux-gnu/c++/10/bits/c++allocator.h", directory: "")
!1305 = distinct !DICompositeType(tag: DW_TAG_class_type, name: "new_allocator<bool>", scope: !621, file: !1306, line: 55, size: 8, flags: DIFlagTypePassByReference | DIFlagNonTrivial, elements: !1307, templateParams: !1344, identifier: "_ZTSN9__gnu_cxx13new_allocatorIbEE")
!1306 = !DIFile(filename: "/usr/lib/gcc/x86_64-linux-gnu/10/../../../../include/c++/10/ext/new_allocator.h", directory: "")
!1307 = !{!1308, !1312, !1317, !1318, !1325, !1333, !1337, !1340, !1343}
!1308 = !DISubprogram(name: "new_allocator", scope: !1305, file: !1306, line: 79, type: !1309, scopeLine: 79, flags: DIFlagPublic | DIFlagPrototyped, spFlags: 0)
!1309 = !DISubroutineType(types: !1310)
!1310 = !{null, !1311}
!1311 = !DIDerivedType(tag: DW_TAG_pointer_type, baseType: !1305, size: 64, flags: DIFlagArtificial | DIFlagObjectPointer)
!1312 = !DISubprogram(name: "new_allocator", scope: !1305, file: !1306, line: 82, type: !1313, scopeLine: 82, flags: DIFlagPublic | DIFlagPrototyped, spFlags: 0)
!1313 = !DISubroutineType(types: !1314)
!1314 = !{null, !1311, !1315}
!1315 = !DIDerivedType(tag: DW_TAG_reference_type, baseType: !1316, size: 64)
!1316 = !DIDerivedType(tag: DW_TAG_const_type, baseType: !1305)
!1317 = !DISubprogram(name: "~new_allocator", scope: !1305, file: !1306, line: 89, type: !1309, scopeLine: 89, flags: DIFlagPublic | DIFlagPrototyped, spFlags: 0)
!1318 = !DISubprogram(name: "address", linkageName: "_ZNK9__gnu_cxx13new_allocatorIbE7addressERb", scope: !1305, file: !1306, line: 92, type: !1319, scopeLine: 92, flags: DIFlagPublic | DIFlagPrototyped, spFlags: 0)
!1319 = !DISubroutineType(types: !1320)
!1320 = !{!1321, !1322, !1323}
!1321 = !DIDerivedType(tag: DW_TAG_typedef, name: "pointer", scope: !1305, file: !1306, line: 62, baseType: !1296)
!1322 = !DIDerivedType(tag: DW_TAG_pointer_type, baseType: !1316, size: 64, flags: DIFlagArtificial | DIFlagObjectPointer)
!1323 = !DIDerivedType(tag: DW_TAG_typedef, name: "reference", scope: !1305, file: !1306, line: 64, baseType: !1324)
!1324 = !DIDerivedType(tag: DW_TAG_reference_type, baseType: !691, size: 64)
!1325 = !DISubprogram(name: "address", linkageName: "_ZNK9__gnu_cxx13new_allocatorIbE7addressERKb", scope: !1305, file: !1306, line: 96, type: !1326, scopeLine: 96, flags: DIFlagPublic | DIFlagPrototyped, spFlags: 0)
!1326 = !DISubroutineType(types: !1327)
!1327 = !{!1328, !1322, !1331}
!1328 = !DIDerivedType(tag: DW_TAG_typedef, name: "const_pointer", scope: !1305, file: !1306, line: 63, baseType: !1329)
!1329 = !DIDerivedType(tag: DW_TAG_pointer_type, baseType: !1330, size: 64)
!1330 = !DIDerivedType(tag: DW_TAG_const_type, baseType: !691)
!1331 = !DIDerivedType(tag: DW_TAG_typedef, name: "const_reference", scope: !1305, file: !1306, line: 65, baseType: !1332)
!1332 = !DIDerivedType(tag: DW_TAG_reference_type, baseType: !1330, size: 64)
!1333 = !DISubprogram(name: "allocate", linkageName: "_ZN9__gnu_cxx13new_allocatorIbE8allocateEmPKv", scope: !1305, file: !1306, line: 103, type: !1334, scopeLine: 103, flags: DIFlagPublic | DIFlagPrototyped, spFlags: 0)
!1334 = !DISubroutineType(types: !1335)
!1335 = !{!1296, !1311, !1336, !14}
!1336 = !DIDerivedType(tag: DW_TAG_typedef, name: "size_type", file: !1306, line: 59, baseType: !18)
!1337 = !DISubprogram(name: "deallocate", linkageName: "_ZN9__gnu_cxx13new_allocatorIbE10deallocateEPbm", scope: !1305, file: !1306, line: 120, type: !1338, scopeLine: 120, flags: DIFlagPublic | DIFlagPrototyped, spFlags: 0)
!1338 = !DISubroutineType(types: !1339)
!1339 = !{null, !1311, !1296, !1336}
!1340 = !DISubprogram(name: "max_size", linkageName: "_ZNK9__gnu_cxx13new_allocatorIbE8max_sizeEv", scope: !1305, file: !1306, line: 142, type: !1341, scopeLine: 142, flags: DIFlagPublic | DIFlagPrototyped, spFlags: 0)
!1341 = !DISubroutineType(types: !1342)
!1342 = !{!1336, !1322}
!1343 = !DISubprogram(name: "_M_max_size", linkageName: "_ZNK9__gnu_cxx13new_allocatorIbE11_M_max_sizeEv", scope: !1305, file: !1306, line: 185, type: !1341, scopeLine: 185, flags: DIFlagPrototyped, spFlags: 0)
!1344 = !{!1345}
!1345 = !DITemplateTypeParameter(name: "_Tp", type: !691)
!1346 = !DISubprogram(name: "allocator", scope: !1299, file: !1300, line: 144, type: !1347, scopeLine: 144, flags: DIFlagPublic | DIFlagPrototyped, spFlags: 0)
!1347 = !DISubroutineType(types: !1348)
!1348 = !{null, !1349}
!1349 = !DIDerivedType(tag: DW_TAG_pointer_type, baseType: !1299, size: 64, flags: DIFlagArtificial | DIFlagObjectPointer)
!1350 = !DISubprogram(name: "allocator", scope: !1299, file: !1300, line: 147, type: !1351, scopeLine: 147, flags: DIFlagPublic | DIFlagPrototyped, spFlags: 0)
!1351 = !DISubroutineType(types: !1352)
!1352 = !{null, !1349, !1353}
!1353 = !DIDerivedType(tag: DW_TAG_reference_type, baseType: !1354, size: 64)
!1354 = !DIDerivedType(tag: DW_TAG_const_type, baseType: !1299)
!1355 = !DISubprogram(name: "operator=", linkageName: "_ZNSaIbEaSERKS_", scope: !1299, file: !1300, line: 152, type: !1356, scopeLine: 152, flags: DIFlagPublic | DIFlagPrototyped, spFlags: 0)
!1356 = !DISubroutineType(types: !1357)
!1357 = !{!1358, !1349, !1353}
!1358 = !DIDerivedType(tag: DW_TAG_reference_type, baseType: !1299, size: 64)
!1359 = !DISubprogram(name: "~allocator", scope: !1299, file: !1300, line: 162, type: !1347, scopeLine: 162, flags: DIFlagPublic | DIFlagPrototyped, spFlags: 0)
!1360 = !DIDerivedType(tag: DW_TAG_typedef, name: "size_type", file: !1290, line: 431, baseType: !18)
!1361 = !DISubprogram(name: "allocate", linkageName: "_ZNSt16allocator_traitsISaIbEE8allocateERS0_mPKv", scope: !1289, file: !1290, line: 473, type: !1362, scopeLine: 473, flags: DIFlagPrototyped | DIFlagStaticMember, spFlags: 0)
!1362 = !DISubroutineType(types: !1363)
!1363 = !{!1295, !1297, !1360, !1364}
!1364 = !DIDerivedType(tag: DW_TAG_typedef, name: "const_void_pointer", file: !1290, line: 425, baseType: !14)
!1365 = !DISubprogram(name: "deallocate", linkageName: "_ZNSt16allocator_traitsISaIbEE10deallocateERS0_Pbm", scope: !1289, file: !1290, line: 491, type: !1366, scopeLine: 491, flags: DIFlagPrototyped | DIFlagStaticMember, spFlags: 0)
!1366 = !DISubroutineType(types: !1367)
!1367 = !{null, !1297, !1295, !1360}
!1368 = !DISubprogram(name: "max_size", linkageName: "_ZNSt16allocator_traitsISaIbEE8max_sizeERKS0_", scope: !1289, file: !1290, line: 543, type: !1369, scopeLine: 543, flags: DIFlagPrototyped | DIFlagStaticMember, spFlags: 0)
!1369 = !DISubroutineType(types: !1370)
!1370 = !{!1371, !1372}
!1371 = !DIDerivedType(tag: DW_TAG_typedef, name: "size_type", scope: !1289, file: !1290, line: 431, baseType: !18)
!1372 = !DIDerivedType(tag: DW_TAG_reference_type, baseType: !1373, size: 64)
!1373 = !DIDerivedType(tag: DW_TAG_const_type, baseType: !1298)
!1374 = !DISubprogram(name: "select_on_container_copy_construction", linkageName: "_ZNSt16allocator_traitsISaIbEE37select_on_container_copy_constructionERKS0_", scope: !1289, file: !1290, line: 558, type: !1375, scopeLine: 558, flags: DIFlagPrototyped | DIFlagStaticMember, spFlags: 0)
!1375 = !DISubroutineType(types: !1376)
!1376 = !{!1298, !1372}
!1377 = !{!1378}
!1378 = !DITemplateTypeParameter(name: "_Alloc", type: !1299)
!1379 = !DISubprogram(name: "_S_select_on_copy", linkageName: "_ZN9__gnu_cxx14__alloc_traitsISaIbEbE17_S_select_on_copyERKS1_", scope: !1286, file: !1284, line: 97, type: !1380, scopeLine: 97, flags: DIFlagPrototyped | DIFlagStaticMember, spFlags: 0)
!1380 = !DISubroutineType(types: !1381)
!1381 = !{!1299, !1353}
!1382 = !DISubprogram(name: "_S_on_swap", linkageName: "_ZN9__gnu_cxx14__alloc_traitsISaIbEbE10_S_on_swapERS1_S3_", scope: !1286, file: !1284, line: 100, type: !1383, scopeLine: 100, flags: DIFlagPrototyped | DIFlagStaticMember, spFlags: 0)
!1383 = !DISubroutineType(types: !1384)
!1384 = !{null, !1358, !1358}
!1385 = !DISubprogram(name: "_S_propagate_on_copy_assign", linkageName: "_ZN9__gnu_cxx14__alloc_traitsISaIbEbE27_S_propagate_on_copy_assignEv", scope: !1286, file: !1284, line: 103, type: !1386, scopeLine: 103, flags: DIFlagPrototyped | DIFlagStaticMember, spFlags: 0)
!1386 = !DISubroutineType(types: !1387)
!1387 = !{!691}
!1388 = !DISubprogram(name: "_S_propagate_on_move_assign", linkageName: "_ZN9__gnu_cxx14__alloc_traitsISaIbEbE27_S_propagate_on_move_assignEv", scope: !1286, file: !1284, line: 106, type: !1386, scopeLine: 106, flags: DIFlagPrototyped | DIFlagStaticMember, spFlags: 0)
!1389 = !DISubprogram(name: "_S_propagate_on_swap", linkageName: "_ZN9__gnu_cxx14__alloc_traitsISaIbEbE20_S_propagate_on_swapEv", scope: !1286, file: !1284, line: 109, type: !1386, scopeLine: 109, flags: DIFlagPrototyped | DIFlagStaticMember, spFlags: 0)
!1390 = !DISubprogram(name: "_S_always_equal", linkageName: "_ZN9__gnu_cxx14__alloc_traitsISaIbEbE15_S_always_equalEv", scope: !1286, file: !1284, line: 112, type: !1386, scopeLine: 112, flags: DIFlagPrototyped | DIFlagStaticMember, spFlags: 0)
!1391 = !DISubprogram(name: "_S_nothrow_move", linkageName: "_ZN9__gnu_cxx14__alloc_traitsISaIbEbE15_S_nothrow_moveEv", scope: !1286, file: !1284, line: 115, type: !1386, scopeLine: 115, flags: DIFlagPrototyped | DIFlagStaticMember, spFlags: 0)
!1392 = !{!1378, !1393}
!1393 = !DITemplateTypeParameter(type: !691)
!1394 = !{}
!1395 = !{!1396}
!1396 = !DITemplateTypeParameter(name: "_Tp", type: !17)
!1397 = !DIDerivedType(tag: DW_TAG_typedef, name: "rebind_alloc<unsigned long>", scope: !1289, file: !1290, line: 446, baseType: !1398)
!1398 = distinct !DICompositeType(tag: DW_TAG_class_type, name: "allocator<unsigned long>", scope: !5, file: !1300, line: 116, size: 8, flags: DIFlagTypePassByReference | DIFlagNonTrivial, elements: !1399, templateParams: !1395, identifier: "_ZTSSaImE")
!1399 = !{!1400, !1439, !1443, !1448, !1452}
!1400 = !DIDerivedType(tag: DW_TAG_inheritance, scope: !1398, baseType: !1401, flags: DIFlagPublic, extraData: i32 0)
!1401 = !DIDerivedType(tag: DW_TAG_typedef, name: "__allocator_base<unsigned long>", scope: !5, file: !1304, line: 48, baseType: !1402)
!1402 = distinct !DICompositeType(tag: DW_TAG_class_type, name: "new_allocator<unsigned long>", scope: !621, file: !1306, line: 55, size: 8, flags: DIFlagTypePassByReference | DIFlagNonTrivial, elements: !1403, templateParams: !1395, identifier: "_ZTSN9__gnu_cxx13new_allocatorImEE")
!1403 = !{!1404, !1408, !1413, !1414, !1421, !1429, !1432, !1435, !1438}
!1404 = !DISubprogram(name: "new_allocator", scope: !1402, file: !1306, line: 79, type: !1405, scopeLine: 79, flags: DIFlagPublic | DIFlagPrototyped, spFlags: 0)
!1405 = !DISubroutineType(types: !1406)
!1406 = !{null, !1407}
!1407 = !DIDerivedType(tag: DW_TAG_pointer_type, baseType: !1402, size: 64, flags: DIFlagArtificial | DIFlagObjectPointer)
!1408 = !DISubprogram(name: "new_allocator", scope: !1402, file: !1306, line: 82, type: !1409, scopeLine: 82, flags: DIFlagPublic | DIFlagPrototyped, spFlags: 0)
!1409 = !DISubroutineType(types: !1410)
!1410 = !{null, !1407, !1411}
!1411 = !DIDerivedType(tag: DW_TAG_reference_type, baseType: !1412, size: 64)
!1412 = !DIDerivedType(tag: DW_TAG_const_type, baseType: !1402)
!1413 = !DISubprogram(name: "~new_allocator", scope: !1402, file: !1306, line: 89, type: !1405, scopeLine: 89, flags: DIFlagPublic | DIFlagPrototyped, spFlags: 0)
!1414 = !DISubprogram(name: "address", linkageName: "_ZNK9__gnu_cxx13new_allocatorImE7addressERm", scope: !1402, file: !1306, line: 92, type: !1415, scopeLine: 92, flags: DIFlagPublic | DIFlagPrototyped, spFlags: 0)
!1415 = !DISubroutineType(types: !1416)
!1416 = !{!1417, !1418, !1419}
!1417 = !DIDerivedType(tag: DW_TAG_typedef, name: "pointer", scope: !1402, file: !1306, line: 62, baseType: !16)
!1418 = !DIDerivedType(tag: DW_TAG_pointer_type, baseType: !1412, size: 64, flags: DIFlagArtificial | DIFlagObjectPointer)
!1419 = !DIDerivedType(tag: DW_TAG_typedef, name: "reference", scope: !1402, file: !1306, line: 64, baseType: !1420)
!1420 = !DIDerivedType(tag: DW_TAG_reference_type, baseType: !17, size: 64)
!1421 = !DISubprogram(name: "address", linkageName: "_ZNK9__gnu_cxx13new_allocatorImE7addressERKm", scope: !1402, file: !1306, line: 96, type: !1422, scopeLine: 96, flags: DIFlagPublic | DIFlagPrototyped, spFlags: 0)
!1422 = !DISubroutineType(types: !1423)
!1423 = !{!1424, !1418, !1427}
!1424 = !DIDerivedType(tag: DW_TAG_typedef, name: "const_pointer", scope: !1402, file: !1306, line: 63, baseType: !1425)
!1425 = !DIDerivedType(tag: DW_TAG_pointer_type, baseType: !1426, size: 64)
!1426 = !DIDerivedType(tag: DW_TAG_const_type, baseType: !17)
!1427 = !DIDerivedType(tag: DW_TAG_typedef, name: "const_reference", scope: !1402, file: !1306, line: 65, baseType: !1428)
!1428 = !DIDerivedType(tag: DW_TAG_reference_type, baseType: !1426, size: 64)
!1429 = !DISubprogram(name: "allocate", linkageName: "_ZN9__gnu_cxx13new_allocatorImE8allocateEmPKv", scope: !1402, file: !1306, line: 103, type: !1430, scopeLine: 103, flags: DIFlagPublic | DIFlagPrototyped, spFlags: 0)
!1430 = !DISubroutineType(types: !1431)
!1431 = !{!16, !1407, !1336, !14}
!1432 = !DISubprogram(name: "deallocate", linkageName: "_ZN9__gnu_cxx13new_allocatorImE10deallocateEPmm", scope: !1402, file: !1306, line: 120, type: !1433, scopeLine: 120, flags: DIFlagPublic | DIFlagPrototyped, spFlags: 0)
!1433 = !DISubroutineType(types: !1434)
!1434 = !{null, !1407, !16, !1336}
!1435 = !DISubprogram(name: "max_size", linkageName: "_ZNK9__gnu_cxx13new_allocatorImE8max_sizeEv", scope: !1402, file: !1306, line: 142, type: !1436, scopeLine: 142, flags: DIFlagPublic | DIFlagPrototyped, spFlags: 0)
!1436 = !DISubroutineType(types: !1437)
!1437 = !{!1336, !1418}
!1438 = !DISubprogram(name: "_M_max_size", linkageName: "_ZNK9__gnu_cxx13new_allocatorImE11_M_max_sizeEv", scope: !1402, file: !1306, line: 185, type: !1436, scopeLine: 185, flags: DIFlagPrototyped, spFlags: 0)
!1439 = !DISubprogram(name: "allocator", scope: !1398, file: !1300, line: 144, type: !1440, scopeLine: 144, flags: DIFlagPublic | DIFlagPrototyped, spFlags: 0)
!1440 = !DISubroutineType(types: !1441)
!1441 = !{null, !1442}
!1442 = !DIDerivedType(tag: DW_TAG_pointer_type, baseType: !1398, size: 64, flags: DIFlagArtificial | DIFlagObjectPointer)
!1443 = !DISubprogram(name: "allocator", scope: !1398, file: !1300, line: 147, type: !1444, scopeLine: 147, flags: DIFlagPublic | DIFlagPrototyped, spFlags: 0)
!1444 = !DISubroutineType(types: !1445)
!1445 = !{null, !1442, !1446}
!1446 = !DIDerivedType(tag: DW_TAG_reference_type, baseType: !1447, size: 64)
!1447 = !DIDerivedType(tag: DW_TAG_const_type, baseType: !1398)
