; ModuleID = 'source/libparest/master/step_length_control.cc'
source_filename = "source/libparest/master/step_length_control.cc"
target datalayout = "e-m:e-p270:32:32-p271:32:32-p272:64:64-i64:64-f80:128-n8:16:32:64-S128"
target triple = "x86_64-unknown-linux-gnu"

%"struct.boost::arg" = type { i8 }
%"struct.boost::arg.0" = type { i8 }
%"struct.boost::arg.2" = type { i8 }
%"struct.boost::arg.4" = type { i8 }
%"struct.boost::arg.6" = type { i8 }
%"struct.boost::arg.8" = type { i8 }
%"struct.boost::arg.10" = type { i8 }
%"struct.boost::arg.12" = type { i8 }
%"struct.boost::arg.14" = type { i8 }
%"class.std::ios_base::Init" = type { i8 }
%"struct.std::pair" = type { double, double }
%"class.libparest::Master::StepLengthControl::ResidualComputationBase" = type { i32 (...)** }
%"class.libparest::Master::StepLengthControl::LineSearch" = type { %"class.libparest::Master::StepLengthControl::ResidualComputationBase"*, %"class.std::vector.16", double }
%"class.std::vector.16" = type { %"struct.std::_Vector_base.17" }
%"struct.std::_Vector_base.17" = type { %"struct.std::_Vector_base<std::pair<double, double>, std::allocator<std::pair<double, double> > >::_Vector_impl" }
%"struct.std::_Vector_base<std::pair<double, double>, std::allocator<std::pair<double, double> > >::_Vector_impl" = type { %"struct.std::_Vector_base<std::pair<double, double>, std::allocator<std::pair<double, double> > >::_Vector_impl_data" }
%"struct.std::_Vector_base<std::pair<double, double>, std::allocator<std::pair<double, double> > >::_Vector_impl_data" = type { %"struct.std::pair"*, %"struct.std::pair"*, %"struct.std::pair"* }
%"class.std::vector" = type { %"struct.std::_Vector_base" }
%"struct.std::_Vector_base" = type { %"struct.std::_Vector_base<double, std::allocator<double> >::_Vector_impl" }
%"struct.std::_Vector_base<double, std::allocator<double> >::_Vector_impl" = type { %"struct.std::_Vector_base<double, std::allocator<double> >::_Vector_impl_data" }
%"struct.std::_Vector_base<double, std::allocator<double> >::_Vector_impl_data" = type { double*, double*, double* }
%"class.std::allocator" = type { i8 }
%"class.__gnu_cxx::new_allocator" = type { i8 }
%"class.__gnu_cxx::__normal_iterator.22" = type { double* }
%"class.__gnu_cxx::__normal_iterator" = type { %"struct.std::pair"* }
%"struct.libparest::Master::StepLengthControl::LessThanByFirstNumber" = type { i8 }
%"struct.__gnu_cxx::__ops::_Iter_comp_iter" = type { %"struct.libparest::Master::StepLengthControl::LessThanByFirstNumber" }
%"struct.std::forward_iterator_tag" = type { i8 }
%"struct.std::random_access_iterator_tag" = type { i8 }
%"class.dealii::Tensor" = type { [3 x %"class.dealii::Tensor.21"] }
%"class.dealii::Tensor.21" = type { [3 x double] }
%"class.__gnu_cxx::__normal_iterator.23" = type { %"struct.std::pair"* }
%"class.std::allocator.18" = type { i8 }
%"class.__gnu_cxx::new_allocator.19" = type { i8 }
%"class.std::__pair_base" = type { i8 }
%"struct.__gnu_cxx::__ops::_Iter_comp_val" = type { %"struct.libparest::Master::StepLengthControl::LessThanByFirstNumber" }
%"struct.__gnu_cxx::__ops::_Val_comp_iter" = type { %"struct.libparest::Master::StepLengthControl::LessThanByFirstNumber" }
%"struct.std::integral_constant" = type { i8 }

$_ZN5boost3argILi1EEC2Ev = comdat any

$_ZN5boost3argILi2EEC2Ev = comdat any

$_ZN5boost3argILi3EEC2Ev = comdat any

$_ZN5boost3argILi4EEC2Ev = comdat any

$_ZN5boost3argILi5EEC2Ev = comdat any

$_ZN5boost3argILi6EEC2Ev = comdat any

$_ZN5boost3argILi7EEC2Ev = comdat any

$_ZN5boost3argILi8EEC2Ev = comdat any

$_ZN5boost3argILi9EEC2Ev = comdat any

$_ZNSaIdEC2Ev = comdat any

$_ZNSt6vectorIdSaIdEEC2EmRKdRKS0_ = comdat any

$_ZNSaIdED2Ev = comdat any

$_ZNSt6vectorIdSaIdEEC2ERKS1_ = comdat any

$_ZNSt6vectorIdSaIdEED2Ev = comdat any

$_ZNSt6vectorIdSaIdEEixEm = comdat any

$_ZNSt6vectorISt4pairIddESaIS1_EEC2Ev = comdat any

$_ZSt4sortIN9__gnu_cxx17__normal_iteratorIPSt4pairIddESt6vectorIS3_SaIS3_EEEEN9libparest6Master17StepLengthControl21LessThanByFirstNumberEEvT_SD_T0_ = comdat any

$_ZNSt6vectorISt4pairIddESaIS1_EE5beginEv = comdat any

$_ZNSt6vectorISt4pairIddESaIS1_EE3endEv = comdat any

$_ZNSt6vectorIdSaIdEEC2IPKdvEET_S5_RKS0_ = comdat any

$_ZNSt6vectorIdSaIdEEC2EmRKS0_ = comdat any

$_ZNSt6vectorISt4pairIddESaIS1_EE9push_backEOS1_ = comdat any

$_ZSt9make_pairIRKdRdESt4pairINSt25__strip_reference_wrapperINSt5decayIT_E4typeEE6__typeENS4_INS5_IT0_E4typeEE6__typeEEOS6_OSB_ = comdat any

$_ZNKSt6vectorIdSaIdEEixEm = comdat any

$_ZNKSt6vectorISt4pairIddESaIS1_EE4sizeEv = comdat any

$_ZNKSt6vectorISt4pairIddESaIS1_EEixEm = comdat any

$_ZN6dealii6TensorILi2ELi3EEC2Ev = comdat any

$_ZN6dealii6TensorILi1ELi3EEC2Eb = comdat any

$_ZN6dealii6TensorILi2ELi3EEixEj = comdat any

$_ZN6dealii6TensorILi1ELi3EEixEj = comdat any

$_ZN6dealii8contractILi3EEEvRNS_6TensorILi1EXT_EEERKNS1_ILi2EXT_EEERKS2_ = comdat any

$_ZN6dealii6invertILi3EEENS_6TensorILi2EXT_EEERKS2_ = comdat any

$_ZSt9make_pairIRKdS1_ESt4pairINSt25__strip_reference_wrapperINSt5decayIT_E4typeEE6__typeENS3_INS4_IT0_E4typeEE6__typeEEOS5_OSA_ = comdat any

$_ZNKSt6vectorISt4pairIddESaIS1_EE4backEv = comdat any

$_ZNKSt6vectorISt4pairIddESaIS1_EE5frontEv = comdat any

$_ZSteqIddEbRKSt4pairIT_T0_ES5_ = comdat any

$_ZSt9make_pairIdRKdESt4pairINSt25__strip_reference_wrapperINSt5decayIT_E4typeEE6__typeENS3_INS4_IT0_E4typeEE6__typeEEOS5_OSA_ = comdat any

$_ZStneIddEbRKSt4pairIT_T0_ES5_ = comdat any

$_ZNSt12_Vector_baseISt4pairIddESaIS1_EEC2Ev = comdat any

$_ZNSt12_Vector_baseISt4pairIddESaIS1_EE12_Vector_implC2Ev = comdat any

$_ZNSaISt4pairIddEEC2Ev = comdat any

$_ZNSt12_Vector_baseISt4pairIddESaIS1_EE17_Vector_impl_dataC2Ev = comdat any

$_ZN9__gnu_cxx13new_allocatorISt4pairIddEEC2Ev = comdat any

$_ZSt7forwardIRKdEOT_RNSt16remove_referenceIS2_E4typeE = comdat any

$_ZSt7forwardIRdEOT_RNSt16remove_referenceIS1_E4typeE = comdat any

$_ZNSt4pairIddEC2IRdLb1EEERKdOT_ = comdat any

$_ZNSt4pairIddEC2IddLb1EEERKdS3_ = comdat any

$_ZSt7forwardIdEOT_RNSt16remove_referenceIS0_E4typeE = comdat any

$_ZNSt4pairIddEC2IdLb1EEEOT_RKd = comdat any

$_ZN9__gnu_cxx13new_allocatorIdEC2Ev = comdat any

$_ZN9__gnu_cxx13new_allocatorIdED2Ev = comdat any

$_ZNSt6vectorIdSaIdEE17_S_check_init_lenEmRKS0_ = comdat any

$_ZNSt12_Vector_baseIdSaIdEEC2EmRKS0_ = comdat any

$_ZNSt6vectorIdSaIdEE18_M_fill_initializeEmRKd = comdat any

$_ZNSt12_Vector_baseIdSaIdEED2Ev = comdat any

$_ZNSt6vectorIdSaIdEE11_S_max_sizeERKS0_ = comdat any

$_ZNSaIdEC2ERKS_ = comdat any

$_ZNSt16allocator_traitsISaIdEE8max_sizeERKS0_ = comdat any

$_ZSt3minImERKT_S2_S2_ = comdat any

$__clang_call_terminate = comdat any

$_ZNK9__gnu_cxx13new_allocatorIdE8max_sizeEv = comdat any

$_ZNK9__gnu_cxx13new_allocatorIdE11_M_max_sizeEv = comdat any

$_ZN9__gnu_cxx13new_allocatorIdEC2ERKS1_ = comdat any

$_ZNSt12_Vector_baseIdSaIdEE12_Vector_implC2ERKS0_ = comdat any

$_ZNSt12_Vector_baseIdSaIdEE17_M_create_storageEm = comdat any

$_ZNSt12_Vector_baseIdSaIdEE12_Vector_implD2Ev = comdat any

$_ZNSt12_Vector_baseIdSaIdEE17_Vector_impl_dataC2Ev = comdat any

$_ZNSt12_Vector_baseIdSaIdEE11_M_allocateEm = comdat any

$_ZNSt16allocator_traitsISaIdEE8allocateERS0_m = comdat any

$_ZN9__gnu_cxx13new_allocatorIdE8allocateEmPKv = comdat any

$_ZSt24__uninitialized_fill_n_aIPdmddET_S1_T0_RKT1_RSaIT2_E = comdat any

$_ZNSt12_Vector_baseIdSaIdEE19_M_get_Tp_allocatorEv = comdat any

$_ZSt20uninitialized_fill_nIPdmdET_S1_T0_RKT1_ = comdat any

$_ZNSt22__uninitialized_fill_nILb1EE15__uninit_fill_nIPdmdEET_S3_T0_RKT1_ = comdat any

$_ZSt6fill_nIPdmdET_S1_T0_RKT1_ = comdat any

$_ZSt10__fill_n_aIPdmdET_S1_T0_RKT1_St26random_access_iterator_tag = comdat any

$_ZSt17__size_to_integerm = comdat any

$_ZSt19__iterator_categoryIPdENSt15iterator_traitsIT_E17iterator_categoryERKS2_ = comdat any

$_ZSt8__fill_aIPddEvT_S1_RKT0_ = comdat any

$_ZSt9__fill_a1IPddEN9__gnu_cxx11__enable_ifIXsr11__is_scalarIT0_EE7__valueEvE6__typeET_S6_RKS3_ = comdat any

$_ZNSt12_Vector_baseIdSaIdEE13_M_deallocateEPdm = comdat any

$_ZNSt16allocator_traitsISaIdEE10deallocateERS0_Pdm = comdat any

$_ZN9__gnu_cxx13new_allocatorIdE10deallocateEPdm = comdat any

$_ZSt8_DestroyIPddEvT_S1_RSaIT0_E = comdat any

$_ZSt8_DestroyIPdEvT_S1_ = comdat any

$_ZNSt12_Destroy_auxILb1EE9__destroyIPdEEvT_S3_ = comdat any

$_ZNKSt6vectorIdSaIdEE4sizeEv = comdat any

$_ZN9__gnu_cxx14__alloc_traitsISaIdEdE17_S_select_on_copyERKS1_ = comdat any

$_ZNKSt12_Vector_baseIdSaIdEE19_M_get_Tp_allocatorEv = comdat any

$_ZSt22__uninitialized_copy_aIN9__gnu_cxx17__normal_iteratorIPKdSt6vectorIdSaIdEEEEPddET0_T_SA_S9_RSaIT1_E = comdat any

$_ZNKSt6vectorIdSaIdEE5beginEv = comdat any

$_ZNKSt6vectorIdSaIdEE3endEv = comdat any

$_ZNSt16allocator_traitsISaIdEE37select_on_container_copy_constructionERKS0_ = comdat any

$_ZSt18uninitialized_copyIN9__gnu_cxx17__normal_iteratorIPKdSt6vectorIdSaIdEEEEPdET0_T_SA_S9_ = comdat any

$_ZNSt20__uninitialized_copyILb1EE13__uninit_copyIN9__gnu_cxx17__normal_iteratorIPKdSt6vectorIdSaIdEEEEPdEET0_T_SC_SB_ = comdat any

$_ZSt4copyIN9__gnu_cxx17__normal_iteratorIPKdSt6vectorIdSaIdEEEEPdET0_T_SA_S9_ = comdat any

$_ZSt13__copy_move_aILb0EN9__gnu_cxx17__normal_iteratorIPKdSt6vectorIdSaIdEEEEPdET1_T0_SA_S9_ = comdat any

$_ZSt12__miter_baseIN9__gnu_cxx17__normal_iteratorIPKdSt6vectorIdSaIdEEEEET_S8_ = comdat any

$_ZSt12__niter_wrapIPdET_RKS1_S1_ = comdat any

$_ZSt14__copy_move_a1ILb0EPKdPdET1_T0_S4_S3_ = comdat any

$_ZSt12__niter_baseIPKdSt6vectorIdSaIdEEET_N9__gnu_cxx17__normal_iteratorIS5_T0_EE = comdat any

$_ZSt12__niter_baseIPdET_S1_ = comdat any

$_ZSt14__copy_move_a2ILb0EPKdPdET1_T0_S4_S3_ = comdat any

$_ZNSt11__copy_moveILb0ELb1ESt26random_access_iterator_tagE8__copy_mIdEEPT_PKS3_S6_S4_ = comdat any

$_ZNK9__gnu_cxx17__normal_iteratorIPKdSt6vectorIdSaIdEEE4baseEv = comdat any

$_ZN9__gnu_cxx17__normal_iteratorIPKdSt6vectorIdSaIdEEEC2ERKS2_ = comdat any

$_ZN9__gnu_cxx17__normal_iteratorIPSt4pairIddESt6vectorIS2_SaIS2_EEEC2ERKS3_ = comdat any

$_ZSt6__sortIN9__gnu_cxx17__normal_iteratorIPSt4pairIddESt6vectorIS3_SaIS3_EEEENS0_5__ops15_Iter_comp_iterIN9libparest6Master17StepLengthControl21LessThanByFirstNumberEEEEvT_SG_T0_ = comdat any

$_ZN9__gnu_cxx5__ops16__iter_comp_iterIN9libparest6Master17StepLengthControl21LessThanByFirstNumberEEENS0_15_Iter_comp_iterIT_EES7_ = comdat any

$_ZN9__gnu_cxxneIPSt4pairIddESt6vectorIS2_SaIS2_EEEEbRKNS_17__normal_iteratorIT_T0_EESC_ = comdat any

$_ZSt16__introsort_loopIN9__gnu_cxx17__normal_iteratorIPSt4pairIddESt6vectorIS3_SaIS3_EEEElNS0_5__ops15_Iter_comp_iterIN9libparest6Master17StepLengthControl21LessThanByFirstNumberEEEEvT_SG_T0_T1_ = comdat any

$_ZSt4__lgl = comdat any

$_ZN9__gnu_cxxmiIPSt4pairIddESt6vectorIS2_SaIS2_EEEENS_17__normal_iteratorIT_T0_E15difference_typeERKSA_SD_ = comdat any

$_ZSt22__final_insertion_sortIN9__gnu_cxx17__normal_iteratorIPSt4pairIddESt6vectorIS3_SaIS3_EEEENS0_5__ops15_Iter_comp_iterIN9libparest6Master17StepLengthControl21LessThanByFirstNumberEEEEvT_SG_T0_ = comdat any

$_ZNK9__gnu_cxx17__normal_iteratorIPSt4pairIddESt6vectorIS2_SaIS2_EEE4baseEv = comdat any

$_ZSt14__partial_sortIN9__gnu_cxx17__normal_iteratorIPSt4pairIddESt6vectorIS3_SaIS3_EEEENS0_5__ops15_Iter_comp_iterIN9libparest6Master17StepLengthControl21LessThanByFirstNumberEEEEvT_SG_SG_T0_ = comdat any

$_ZSt27__unguarded_partition_pivotIN9__gnu_cxx17__normal_iteratorIPSt4pairIddESt6vectorIS3_SaIS3_EEEENS0_5__ops15_Iter_comp_iterIN9libparest6Master17StepLengthControl21LessThanByFirstNumberEEEET_SG_SG_T0_ = comdat any

$_ZSt13__heap_selectIN9__gnu_cxx17__normal_iteratorIPSt4pairIddESt6vectorIS3_SaIS3_EEEENS0_5__ops15_Iter_comp_iterIN9libparest6Master17StepLengthControl21LessThanByFirstNumberEEEEvT_SG_SG_T0_ = comdat any

$_ZSt11__sort_heapIN9__gnu_cxx17__normal_iteratorIPSt4pairIddESt6vectorIS3_SaIS3_EEEENS0_5__ops15_Iter_comp_iterIN9libparest6Master17StepLengthControl21LessThanByFirstNumberEEEEvT_SG_RT0_ = comdat any

$_ZSt11__make_heapIN9__gnu_cxx17__normal_iteratorIPSt4pairIddESt6vectorIS3_SaIS3_EEEENS0_5__ops15_Iter_comp_iterIN9libparest6Master17StepLengthControl21LessThanByFirstNumberEEEEvT_SG_RT0_ = comdat any

$_ZN9__gnu_cxxltIPSt4pairIddESt6vectorIS2_SaIS2_EEEEbRKNS_17__normal_iteratorIT_T0_EESC_ = comdat any

$_ZN9__gnu_cxx5__ops15_Iter_comp_iterIN9libparest6Master17StepLengthControl21LessThanByFirstNumberEEclINS_17__normal_iteratorIPSt4pairIddESt6vectorISA_SaISA_EEEESF_EEbT_T0_ = comdat any

$_ZSt10__pop_heapIN9__gnu_cxx17__normal_iteratorIPSt4pairIddESt6vectorIS3_SaIS3_EEEENS0_5__ops15_Iter_comp_iterIN9libparest6Master17StepLengthControl21LessThanByFirstNumberEEEEvT_SG_SG_RT0_ = comdat any

$_ZN9__gnu_cxx17__normal_iteratorIPSt4pairIddESt6vectorIS2_SaIS2_EEEppEv = comdat any

$_ZSt4moveIRSt4pairIddEEONSt16remove_referenceIT_E4typeEOS4_ = comdat any

$_ZNK9__gnu_cxx17__normal_iteratorIPSt4pairIddESt6vectorIS2_SaIS2_EEEplEl = comdat any

$_ZNK9__gnu_cxx17__normal_iteratorIPSt4pairIddESt6vectorIS2_SaIS2_EEEdeEv = comdat any

$_ZSt13__adjust_heapIN9__gnu_cxx17__normal_iteratorIPSt4pairIddESt6vectorIS3_SaIS3_EEEElS3_NS0_5__ops15_Iter_comp_iterIN9libparest6Master17StepLengthControl21LessThanByFirstNumberEEEEvT_T0_SH_T1_T2_ = comdat any

$_ZNSt4pairIddEaSEOS0_ = comdat any

$_ZSt4moveIRN9__gnu_cxx5__ops15_Iter_comp_iterIN9libparest6Master17StepLengthControl21LessThanByFirstNumberEEEEONSt16remove_referenceIT_E4typeEOSA_ = comdat any

$_ZN9__gnu_cxx5__ops14_Iter_comp_valIN9libparest6Master17StepLengthControl21LessThanByFirstNumberEEC2EONS0_15_Iter_comp_iterIS5_EE = comdat any

$_ZSt11__push_heapIN9__gnu_cxx17__normal_iteratorIPSt4pairIddESt6vectorIS3_SaIS3_EEEElS3_NS0_5__ops14_Iter_comp_valIN9libparest6Master17StepLengthControl21LessThanByFirstNumberEEEEvT_T0_SH_T1_RT2_ = comdat any

$_ZSt4moveIRN9libparest6Master17StepLengthControl21LessThanByFirstNumberEEONSt16remove_referenceIT_E4typeEOS6_ = comdat any

$_ZN9__gnu_cxx5__ops14_Iter_comp_valIN9libparest6Master17StepLengthControl21LessThanByFirstNumberEEclINS_17__normal_iteratorIPSt4pairIddESt6vectorISA_SaISA_EEEESA_EEbT_RT0_ = comdat any

$_ZN9libparest6Master17StepLengthControl21LessThanByFirstNumberclIddEEbRKSt4pairIT_T0_ES9_ = comdat any

$_ZN9__gnu_cxx17__normal_iteratorIPSt4pairIddESt6vectorIS2_SaIS2_EEEmmEv = comdat any

$_ZSt22__move_median_to_firstIN9__gnu_cxx17__normal_iteratorIPSt4pairIddESt6vectorIS3_SaIS3_EEEENS0_5__ops15_Iter_comp_iterIN9libparest6Master17StepLengthControl21LessThanByFirstNumberEEEEvT_SG_SG_SG_T0_ = comdat any

$_ZNK9__gnu_cxx17__normal_iteratorIPSt4pairIddESt6vectorIS2_SaIS2_EEEmiEl = comdat any

$_ZSt21__unguarded_partitionIN9__gnu_cxx17__normal_iteratorIPSt4pairIddESt6vectorIS3_SaIS3_EEEENS0_5__ops15_Iter_comp_iterIN9libparest6Master17StepLengthControl21LessThanByFirstNumberEEEET_SG_SG_SG_T0_ = comdat any

$_ZSt9iter_swapIN9__gnu_cxx17__normal_iteratorIPSt4pairIddESt6vectorIS3_SaIS3_EEEES8_EvT_T0_ = comdat any

$_ZSt4swapIddENSt9enable_ifIXsr6__and_ISt14__is_swappableIT_ES1_IT0_EEE5valueEvE4typeERSt4pairIS2_S4_ESA_ = comdat any

$_ZNSt4pairIddE4swapERS0_ = comdat any

$_ZSt4swapIdENSt9enable_ifIXsr6__and_ISt6__not_ISt15__is_tuple_likeIT_EESt21is_move_constructibleIS3_ESt18is_move_assignableIS3_EEE5valueEvE4typeERS3_SC_ = comdat any

$_ZSt4moveIRdEONSt16remove_referenceIT_E4typeEOS2_ = comdat any

$_ZSt16__insertion_sortIN9__gnu_cxx17__normal_iteratorIPSt4pairIddESt6vectorIS3_SaIS3_EEEENS0_5__ops15_Iter_comp_iterIN9libparest6Master17StepLengthControl21LessThanByFirstNumberEEEEvT_SG_T0_ = comdat any

$_ZSt26__unguarded_insertion_sortIN9__gnu_cxx17__normal_iteratorIPSt4pairIddESt6vectorIS3_SaIS3_EEEENS0_5__ops15_Iter_comp_iterIN9libparest6Master17StepLengthControl21LessThanByFirstNumberEEEEvT_SG_T0_ = comdat any

$_ZN9__gnu_cxxeqIPSt4pairIddESt6vectorIS2_SaIS2_EEEEbRKNS_17__normal_iteratorIT_T0_EESC_ = comdat any

$_ZSt13move_backwardIN9__gnu_cxx17__normal_iteratorIPSt4pairIddESt6vectorIS3_SaIS3_EEEES8_ET0_T_SA_S9_ = comdat any

$_ZSt25__unguarded_linear_insertIN9__gnu_cxx17__normal_iteratorIPSt4pairIddESt6vectorIS3_SaIS3_EEEENS0_5__ops14_Val_comp_iterIN9libparest6Master17StepLengthControl21LessThanByFirstNumberEEEEvT_T0_ = comdat any

$_ZN9__gnu_cxx5__ops15__val_comp_iterIN9libparest6Master17StepLengthControl21LessThanByFirstNumberEEENS0_14_Val_comp_iterIT_EENS0_15_Iter_comp_iterIS7_EE = comdat any

$_ZSt22__copy_move_backward_aILb1EN9__gnu_cxx17__normal_iteratorIPSt4pairIddESt6vectorIS3_SaIS3_EEEES8_ET1_T0_SA_S9_ = comdat any

$_ZSt12__miter_baseIN9__gnu_cxx17__normal_iteratorIPSt4pairIddESt6vectorIS3_SaIS3_EEEEET_S9_ = comdat any

$_ZSt12__niter_wrapIN9__gnu_cxx17__normal_iteratorIPSt4pairIddESt6vectorIS3_SaIS3_EEEES4_ET_S9_T0_ = comdat any

$_ZSt23__copy_move_backward_a1ILb1EPSt4pairIddES2_ET1_T0_S4_S3_ = comdat any

$_ZSt12__niter_baseIPSt4pairIddESt6vectorIS1_SaIS1_EEET_N9__gnu_cxx17__normal_iteratorIS6_T0_EE = comdat any

$_ZSt23__copy_move_backward_a2ILb1EPSt4pairIddES2_ET1_T0_S4_S3_ = comdat any

$_ZNSt20__copy_move_backwardILb1ELb0ESt26random_access_iterator_tagE13__copy_move_bIPSt4pairIddES5_EET0_T_S7_S6_ = comdat any

$_ZN9__gnu_cxx5__ops14_Val_comp_iterIN9libparest6Master17StepLengthControl21LessThanByFirstNumberEEclISt4pairIddENS_17__normal_iteratorIPS9_St6vectorIS9_SaIS9_EEEEEEbRT_T0_ = comdat any

$_ZN9__gnu_cxx5__ops14_Val_comp_iterIN9libparest6Master17StepLengthControl21LessThanByFirstNumberEEC2EONS0_15_Iter_comp_iterIS5_EE = comdat any

$_ZN9__gnu_cxx5__ops15_Iter_comp_iterIN9libparest6Master17StepLengthControl21LessThanByFirstNumberEEC2ES5_ = comdat any

$_ZNSt12_Vector_baseIdSaIdEEC2ERKS0_ = comdat any

$_ZNSt6vectorIdSaIdEE19_M_range_initializeIPKdEEvT_S5_St20forward_iterator_tag = comdat any

$_ZSt19__iterator_categoryIPKdENSt15iterator_traitsIT_E17iterator_categoryERKS3_ = comdat any

$_ZSt8distanceIPKdENSt15iterator_traitsIT_E15difference_typeES3_S3_ = comdat any

$_ZSt22__uninitialized_copy_aIPKdPddET0_T_S4_S3_RSaIT1_E = comdat any

$_ZSt10__distanceIPKdENSt15iterator_traitsIT_E15difference_typeES3_S3_St26random_access_iterator_tag = comdat any

$_ZSt18uninitialized_copyIPKdPdET0_T_S4_S3_ = comdat any

$_ZNSt20__uninitialized_copyILb1EE13__uninit_copyIPKdPdEET0_T_S6_S5_ = comdat any

$_ZSt4copyIPKdPdET0_T_S4_S3_ = comdat any

$_ZSt13__copy_move_aILb0EPKdPdET1_T0_S4_S3_ = comdat any

$_ZSt12__miter_baseIPKdET_S2_ = comdat any

$_ZSt12__niter_baseIPKdET_S2_ = comdat any

$_ZNSt6vectorIdSaIdEE21_M_default_initializeEm = comdat any

$_ZSt27__uninitialized_default_n_aIPdmdET_S1_T0_RSaIT1_E = comdat any

$_ZSt25__uninitialized_default_nIPdmET_S1_T0_ = comdat any

$_ZNSt27__uninitialized_default_n_1ILb1EE18__uninit_default_nIPdmEET_S3_T0_ = comdat any

$_ZNSt6vectorISt4pairIddESaIS1_EE12emplace_backIJS1_EEEvDpOT_ = comdat any

$_ZNSt16allocator_traitsISaISt4pairIddEEE9constructIS1_JS1_EEEvRS2_PT_DpOT0_ = comdat any

$_ZSt7forwardISt4pairIddEEOT_RNSt16remove_referenceIS2_E4typeE = comdat any

$_ZNSt6vectorISt4pairIddESaIS1_EE17_M_realloc_insertIJS1_EEEvN9__gnu_cxx17__normal_iteratorIPS1_S3_EEDpOT_ = comdat any

$_ZN9__gnu_cxx13new_allocatorISt4pairIddEE9constructIS2_JS2_EEEvPT_DpOT0_ = comdat any

$_ZNKSt6vectorISt4pairIddESaIS1_EE12_M_check_lenEmPKc = comdat any

$_ZNSt12_Vector_baseISt4pairIddESaIS1_EE11_M_allocateEm = comdat any

$_ZNSt6vectorISt4pairIddESaIS1_EE11_S_relocateEPS1_S4_S4_RS2_ = comdat any

$_ZNSt12_Vector_baseISt4pairIddESaIS1_EE19_M_get_Tp_allocatorEv = comdat any

$_ZNSt12_Vector_baseISt4pairIddESaIS1_EE13_M_deallocateEPS1_m = comdat any

$_ZNKSt6vectorISt4pairIddESaIS1_EE8max_sizeEv = comdat any

$_ZSt3maxImERKT_S2_S2_ = comdat any

$_ZNSt6vectorISt4pairIddESaIS1_EE11_S_max_sizeERKS2_ = comdat any

$_ZNKSt12_Vector_baseISt4pairIddESaIS1_EE19_M_get_Tp_allocatorEv = comdat any

$_ZNSt16allocator_traitsISaISt4pairIddEEE8max_sizeERKS2_ = comdat any

$_ZNK9__gnu_cxx13new_allocatorISt4pairIddEE8max_sizeEv = comdat any

$_ZNK9__gnu_cxx13new_allocatorISt4pairIddEE11_M_max_sizeEv = comdat any

$_ZNSt16allocator_traitsISaISt4pairIddEEE8allocateERS2_m = comdat any

$_ZN9__gnu_cxx13new_allocatorISt4pairIddEE8allocateEmPKv = comdat any

$_ZNSt6vectorISt4pairIddESaIS1_EE14_S_do_relocateEPS1_S4_S4_RS2_St17integral_constantIbLb1EE = comdat any

$_ZSt12__relocate_aIPSt4pairIddES2_SaIS1_EET0_T_S5_S4_RT1_ = comdat any

$_ZSt14__relocate_a_1IPSt4pairIddES2_SaIS1_EET0_T_S5_S4_RT1_ = comdat any

$_ZSt12__niter_baseIPSt4pairIddEET_S3_ = comdat any

$_ZSt19__relocate_object_aISt4pairIddES1_SaIS1_EEvPT_PT0_RT1_ = comdat any

$_ZSt11__addressofISt4pairIddEEPT_RS2_ = comdat any

$_ZNSt16allocator_traitsISaISt4pairIddEEE7destroyIS1_EEvRS2_PT_ = comdat any

$_ZN9__gnu_cxx13new_allocatorISt4pairIddEE7destroyIS2_EEvPT_ = comdat any

$_ZNSt16allocator_traitsISaISt4pairIddEEE10deallocateERS2_PS1_m = comdat any

$_ZN9__gnu_cxx13new_allocatorISt4pairIddEE10deallocateEPS2_m = comdat any

$_ZNK6dealii6TensorILi2ELi3EEixEj = comdat any

$_ZNK6dealii6TensorILi1ELi3EEixEj = comdat any

$_ZN6dealii6TensorILi1ELi3EE5clearEv = comdat any

$_ZNKSt6vectorISt4pairIddESaIS1_EE3endEv = comdat any

$_ZNK9__gnu_cxx17__normal_iteratorIPKSt4pairIddESt6vectorIS2_SaIS2_EEEmiEl = comdat any

$_ZNK9__gnu_cxx17__normal_iteratorIPKSt4pairIddESt6vectorIS2_SaIS2_EEEdeEv = comdat any

$_ZN9__gnu_cxx17__normal_iteratorIPKSt4pairIddESt6vectorIS2_SaIS2_EEEC2ERKS4_ = comdat any

$_ZNKSt6vectorISt4pairIddESaIS1_EE5beginEv = comdat any

@_ZN12_GLOBAL__N_12_1E = internal global %"struct.boost::arg" zeroinitializer, align 1, !dbg !0
@_ZN12_GLOBAL__N_12_2E = internal global %"struct.boost::arg.0" zeroinitializer, align 1, !dbg !15
@_ZN12_GLOBAL__N_12_3E = internal global %"struct.boost::arg.2" zeroinitializer, align 1, !dbg !25
@_ZN12_GLOBAL__N_12_4E = internal global %"struct.boost::arg.4" zeroinitializer, align 1, !dbg !35
@_ZN12_GLOBAL__N_12_5E = internal global %"struct.boost::arg.6" zeroinitializer, align 1, !dbg !45
@_ZN12_GLOBAL__N_12_6E = internal global %"struct.boost::arg.8" zeroinitializer, align 1, !dbg !55
@_ZN12_GLOBAL__N_12_7E = internal global %"struct.boost::arg.10" zeroinitializer, align 1, !dbg !65
@_ZN12_GLOBAL__N_12_8E = internal global %"struct.boost::arg.12" zeroinitializer, align 1, !dbg !75
@_ZN12_GLOBAL__N_12_9E = internal global %"struct.boost::arg.14" zeroinitializer, align 1, !dbg !85
@_ZStL8__ioinit = internal global %"class.std::ios_base::Init" zeroinitializer, align 1, !dbg !95
@__dso_handle = external hidden global i8
@_ZN9libparest6Master17StepLengthControl10LineSearch15invalid_minimumE = dso_local constant %"struct.std::pair" { double -1.000000e+00, double -1.000000e+00 }, align 8, !dbg !122
@__const._ZN9libparest6Master17StepLengthControl10LineSearch25compute_initial_residualsEv.trial_alphas1 = private unnamed_addr constant [4 x double] [double 0.000000e+00, double 0x3FE6666666666666, double 9.000000e-01, double 1.050000e+00], align 16
@_ZTVN9libparest6Master17StepLengthControl23ResidualComputationBaseE = dso_local unnamed_addr constant { [5 x i8*] } { [5 x i8*] [i8* null, i8* bitcast ({ i8*, i8* }* @_ZTIN9libparest6Master17StepLengthControl23ResidualComputationBaseE to i8*), i8* bitcast (void (%"class.libparest::Master::StepLengthControl::ResidualComputationBase"*)* @_ZN9libparest6Master17StepLengthControl23ResidualComputationBaseD1Ev to i8*), i8* bitcast (void (%"class.libparest::Master::StepLengthControl::ResidualComputationBase"*)* @_ZN9libparest6Master17StepLengthControl23ResidualComputationBaseD0Ev to i8*), i8* bitcast (void ()* @__cxa_pure_virtual to i8*)] }, align 8
@_ZTVN10__cxxabiv117__class_type_infoE = external dso_local global i8*
@_ZTSN9libparest6Master17StepLengthControl23ResidualComputationBaseE = dso_local constant [64 x i8] c"N9libparest6Master17StepLengthControl23ResidualComputationBaseE\00", align 1
@_ZTIN9libparest6Master17StepLengthControl23ResidualComputationBaseE = dso_local constant { i8*, i8* } { i8* bitcast (i8** getelementptr inbounds (i8*, i8** @_ZTVN10__cxxabiv117__class_type_infoE, i64 2) to i8*), i8* getelementptr inbounds ([64 x i8], [64 x i8]* @_ZTSN9libparest6Master17StepLengthControl23ResidualComputationBaseE, i32 0, i32 0) }, align 8
@.str = private unnamed_addr constant [49 x i8] c"cannot create std::vector larger than max_size()\00", align 1
@.str.10 = private unnamed_addr constant [26 x i8] c"vector::_M_realloc_insert\00", align 1
@llvm.global_ctors = appending global [1 x { i32, void ()*, i8* }] [{ i32, void ()*, i8* } { i32 65535, void ()* @_GLOBAL__sub_I_step_length_control.cc, i8* null }]

@_ZN9libparest6Master17StepLengthControl23ResidualComputationBaseD1Ev = dso_local unnamed_addr alias void (%"class.libparest::Master::StepLengthControl::ResidualComputationBase"*), void (%"class.libparest::Master::StepLengthControl::ResidualComputationBase"*)* @_ZN9libparest6Master17StepLengthControl23ResidualComputationBaseD2Ev
@_ZN9libparest6Master17StepLengthControl10LineSearchC1ERKNS1_23ResidualComputationBaseE = dso_local unnamed_addr alias void (%"class.libparest::Master::StepLengthControl::LineSearch"*, %"class.libparest::Master::StepLengthControl::ResidualComputationBase"*), void (%"class.libparest::Master::StepLengthControl::LineSearch"*, %"class.libparest::Master::StepLengthControl::ResidualComputationBase"*)* @_ZN9libparest6Master17StepLengthControl10LineSearchC2ERKNS1_23ResidualComputationBaseE

; Function Attrs: noinline uwtable
define internal void @__cxx_global_var_init() #0 section ".text.startup" !dbg !2726 {
entry:
  call void @_ZN5boost3argILi1EEC2Ev(%"struct.boost::arg"* @_ZN12_GLOBAL__N_12_1E), !dbg !2727
  ret void, !dbg !2727
}

; Function Attrs: noinline nounwind uwtable
define linkonce_odr dso_local void @_ZN5boost3argILi1EEC2Ev(%"struct.boost::arg"* %this) unnamed_addr #1 comdat align 2 !dbg !2728 {
entry:
  %this.addr = alloca %"struct.boost::arg"*, align 8
  store %"struct.boost::arg"* %this, %"struct.boost::arg"** %this.addr, align 8
  call void @llvm.dbg.declare(metadata %"struct.boost::arg"** %this.addr, metadata !2729, metadata !DIExpression()), !dbg !2731
  %this1 = load %"struct.boost::arg"*, %"struct.boost::arg"** %this.addr, align 8
  ret void, !dbg !2732
}

; Function Attrs: noinline uwtable
define internal void @__cxx_global_var_init.1() #0 section ".text.startup" !dbg !2733 {
entry:
  call void @_ZN5boost3argILi2EEC2Ev(%"struct.boost::arg.0"* @_ZN12_GLOBAL__N_12_2E), !dbg !2734
  ret void, !dbg !2734
}

; Function Attrs: noinline nounwind uwtable
define linkonce_odr dso_local void @_ZN5boost3argILi2EEC2Ev(%"struct.boost::arg.0"* %this) unnamed_addr #1 comdat align 2 !dbg !2735 {
entry:
  %this.addr = alloca %"struct.boost::arg.0"*, align 8
  store %"struct.boost::arg.0"* %this, %"struct.boost::arg.0"** %this.addr, align 8
  call void @llvm.dbg.declare(metadata %"struct.boost::arg.0"** %this.addr, metadata !2736, metadata !DIExpression()), !dbg !2738
  %this1 = load %"struct.boost::arg.0"*, %"struct.boost::arg.0"** %this.addr, align 8
  ret void, !dbg !2739
}

; Function Attrs: noinline uwtable
define internal void @__cxx_global_var_init.2() #0 section ".text.startup" !dbg !2740 {
entry:
  call void @_ZN5boost3argILi3EEC2Ev(%"struct.boost::arg.2"* @_ZN12_GLOBAL__N_12_3E), !dbg !2741
  ret void, !dbg !2741
}

; Function Attrs: noinline nounwind uwtable
define linkonce_odr dso_local void @_ZN5boost3argILi3EEC2Ev(%"struct.boost::arg.2"* %this) unnamed_addr #1 comdat align 2 !dbg !2742 {
entry:
  %this.addr = alloca %"struct.boost::arg.2"*, align 8
  store %"struct.boost::arg.2"* %this, %"struct.boost::arg.2"** %this.addr, align 8
  call void @llvm.dbg.declare(metadata %"struct.boost::arg.2"** %this.addr, metadata !2743, metadata !DIExpression()), !dbg !2745
  %this1 = load %"struct.boost::arg.2"*, %"struct.boost::arg.2"** %this.addr, align 8
  ret void, !dbg !2746
}

; Function Attrs: noinline uwtable
define internal void @__cxx_global_var_init.3() #0 section ".text.startup" !dbg !2747 {
entry:
  call void @_ZN5boost3argILi4EEC2Ev(%"struct.boost::arg.4"* @_ZN12_GLOBAL__N_12_4E), !dbg !2748
  ret void, !dbg !2748
}

; Function Attrs: noinline nounwind uwtable
define linkonce_odr dso_local void @_ZN5boost3argILi4EEC2Ev(%"struct.boost::arg.4"* %this) unnamed_addr #1 comdat align 2 !dbg !2749 {
entry:
  %this.addr = alloca %"struct.boost::arg.4"*, align 8
  store %"struct.boost::arg.4"* %this, %"struct.boost::arg.4"** %this.addr, align 8
  call void @llvm.dbg.declare(metadata %"struct.boost::arg.4"** %this.addr, metadata !2750, metadata !DIExpression()), !dbg !2752
  %this1 = load %"struct.boost::arg.4"*, %"struct.boost::arg.4"** %this.addr, align 8
  ret void, !dbg !2753
}

; Function Attrs: noinline uwtable
define internal void @__cxx_global_var_init.4() #0 section ".text.startup" !dbg !2754 {
entry:
  call void @_ZN5boost3argILi5EEC2Ev(%"struct.boost::arg.6"* @_ZN12_GLOBAL__N_12_5E), !dbg !2755
  ret void, !dbg !2755
}

; Function Attrs: noinline nounwind uwtable
define linkonce_odr dso_local void @_ZN5boost3argILi5EEC2Ev(%"struct.boost::arg.6"* %this) unnamed_addr #1 comdat align 2 !dbg !2756 {
entry:
  %this.addr = alloca %"struct.boost::arg.6"*, align 8
  store %"struct.boost::arg.6"* %this, %"struct.boost::arg.6"** %this.addr, align 8
  call void @llvm.dbg.declare(metadata %"struct.boost::arg.6"** %this.addr, metadata !2757, metadata !DIExpression()), !dbg !2759
  %this1 = load %"struct.boost::arg.6"*, %"struct.boost::arg.6"** %this.addr, align 8
  ret void, !dbg !2760
}

; Function Attrs: noinline uwtable
define internal void @__cxx_global_var_init.5() #0 section ".text.startup" !dbg !2761 {
entry:
  call void @_ZN5boost3argILi6EEC2Ev(%"struct.boost::arg.8"* @_ZN12_GLOBAL__N_12_6E), !dbg !2762
  ret void, !dbg !2762
}

; Function Attrs: noinline nounwind uwtable
define linkonce_odr dso_local void @_ZN5boost3argILi6EEC2Ev(%"struct.boost::arg.8"* %this) unnamed_addr #1 comdat align 2 !dbg !2763 {
entry:
  %this.addr = alloca %"struct.boost::arg.8"*, align 8
  store %"struct.boost::arg.8"* %this, %"struct.boost::arg.8"** %this.addr, align 8
  call void @llvm.dbg.declare(metadata %"struct.boost::arg.8"** %this.addr, metadata !2764, metadata !DIExpression()), !dbg !2766
  %this1 = load %"struct.boost::arg.8"*, %"struct.boost::arg.8"** %this.addr, align 8
  ret void, !dbg !2767
}

; Function Attrs: noinline uwtable
define internal void @__cxx_global_var_init.6() #0 section ".text.startup" !dbg !2768 {
entry:
  call void @_ZN5boost3argILi7EEC2Ev(%"struct.boost::arg.10"* @_ZN12_GLOBAL__N_12_7E), !dbg !2769
  ret void, !dbg !2769
}

; Function Attrs: noinline nounwind uwtable
define linkonce_odr dso_local void @_ZN5boost3argILi7EEC2Ev(%"struct.boost::arg.10"* %this) unnamed_addr #1 comdat align 2 !dbg !2770 {
entry:
  %this.addr = alloca %"struct.boost::arg.10"*, align 8
  store %"struct.boost::arg.10"* %this, %"struct.boost::arg.10"** %this.addr, align 8
  call void @llvm.dbg.declare(metadata %"struct.boost::arg.10"** %this.addr, metadata !2771, metadata !DIExpression()), !dbg !2773
  %this1 = load %"struct.boost::arg.10"*, %"struct.boost::arg.10"** %this.addr, align 8
  ret void, !dbg !2774
}

; Function Attrs: noinline uwtable
define internal void @__cxx_global_var_init.7() #0 section ".text.startup" !dbg !2775 {
entry:
  call void @_ZN5boost3argILi8EEC2Ev(%"struct.boost::arg.12"* @_ZN12_GLOBAL__N_12_8E), !dbg !2776
  ret void, !dbg !2776
}

; Function Attrs: noinline nounwind uwtable
define linkonce_odr dso_local void @_ZN5boost3argILi8EEC2Ev(%"struct.boost::arg.12"* %this) unnamed_addr #1 comdat align 2 !dbg !2777 {
entry:
  %this.addr = alloca %"struct.boost::arg.12"*, align 8
  store %"struct.boost::arg.12"* %this, %"struct.boost::arg.12"** %this.addr, align 8
  call void @llvm.dbg.declare(metadata %"struct.boost::arg.12"** %this.addr, metadata !2778, metadata !DIExpression()), !dbg !2780
  %this1 = load %"struct.boost::arg.12"*, %"struct.boost::arg.12"** %this.addr, align 8
  ret void, !dbg !2781
}

; Function Attrs: noinline uwtable
define internal void @__cxx_global_var_init.8() #0 section ".text.startup" !dbg !2782 {
entry:
  call void @_ZN5boost3argILi9EEC2Ev(%"struct.boost::arg.14"* @_ZN12_GLOBAL__N_12_9E), !dbg !2783
  ret void, !dbg !2783
}

; Function Attrs: noinline nounwind uwtable
define linkonce_odr dso_local void @_ZN5boost3argILi9EEC2Ev(%"struct.boost::arg.14"* %this) unnamed_addr #1 comdat align 2 !dbg !2784 {
entry:
  %this.addr = alloca %"struct.boost::arg.14"*, align 8
  store %"struct.boost::arg.14"* %this, %"struct.boost::arg.14"** %this.addr, align 8
  call void @llvm.dbg.declare(metadata %"struct.boost::arg.14"** %this.addr, metadata !2785, metadata !DIExpression()), !dbg !2787
  %this1 = load %"struct.boost::arg.14"*, %"struct.boost::arg.14"** %this.addr, align 8
  ret void, !dbg !2788
}

; Function Attrs: noinline uwtable
define internal void @__cxx_global_var_init.9() #0 section ".text.startup" !dbg !2789 {
entry:
  call void @_ZNSt8ios_base4InitC1Ev(%"class.std::ios_base::Init"* @_ZStL8__ioinit), !dbg !2790
  %0 = call i32 @__cxa_atexit(void (i8*)* bitcast (void (%"class.std::ios_base::Init"*)* @_ZNSt8ios_base4InitD1Ev to void (i8*)*), i8* getelementptr inbounds (%"class.std::ios_base::Init", %"class.std::ios_base::Init"* @_ZStL8__ioinit, i32 0, i32 0), i8* @__dso_handle) #4, !dbg !2790
  ret void, !dbg !2790
}

declare dso_local void @_ZNSt8ios_base4InitC1Ev(%"class.std::ios_base::Init"*) unnamed_addr #2

; Function Attrs: nounwind
declare dso_local void @_ZNSt8ios_base4InitD1Ev(%"class.std::ios_base::Init"*) unnamed_addr #3

; Function Attrs: nounwind
declare dso_local i32 @__cxa_atexit(void (i8*)*, i8*, i8*) #4

; Function Attrs: noinline nounwind uwtable
define dso_local void @_ZN9libparest6Master17StepLengthControl23ResidualComputationBaseD2Ev(%"class.libparest::Master::StepLengthControl::ResidualComputationBase"* %this) unnamed_addr #1 align 2 !dbg !2791 {
entry:
  %this.addr = alloca %"class.libparest::Master::StepLengthControl::ResidualComputationBase"*, align 8
  store %"class.libparest::Master::StepLengthControl::ResidualComputationBase"* %this, %"class.libparest::Master::StepLengthControl::ResidualComputationBase"** %this.addr, align 8
  call void @llvm.dbg.declare(metadata %"class.libparest::Master::StepLengthControl::ResidualComputationBase"** %this.addr, metadata !2792, metadata !DIExpression()), !dbg !2794
  %this1 = load %"class.libparest::Master::StepLengthControl::ResidualComputationBase"*, %"class.libparest::Master::StepLengthControl::ResidualComputationBase"** %this.addr, align 8
  ret void, !dbg !2795
}

; Function Attrs: nounwind readnone speculatable willreturn
declare void @llvm.dbg.declare(metadata, metadata, metadata) #5

; Function Attrs: noinline nounwind uwtable
define dso_local void @_ZN9libparest6Master17StepLengthControl23ResidualComputationBaseD0Ev(%"class.libparest::Master::StepLengthControl::ResidualComputationBase"* %this) unnamed_addr #1 align 2 !dbg !2796 {
entry:
  %this.addr = alloca %"class.libparest::Master::StepLengthControl::ResidualComputationBase"*, align 8
  store %"class.libparest::Master::StepLengthControl::ResidualComputationBase"* %this, %"class.libparest::Master::StepLengthControl::ResidualComputationBase"** %this.addr, align 8
  call void @llvm.dbg.declare(metadata %"class.libparest::Master::StepLengthControl::ResidualComputationBase"** %this.addr, metadata !2797, metadata !DIExpression()), !dbg !2798
  %this1 = load %"class.libparest::Master::StepLengthControl::ResidualComputationBase"*, %"class.libparest::Master::StepLengthControl::ResidualComputationBase"** %this.addr, align 8
  call void @llvm.trap() #12, !dbg !2799
  unreachable, !dbg !2799
}

; Function Attrs: cold noreturn nounwind
declare void @llvm.trap() #6

; Function Attrs: noinline uwtable
define dso_local double @_ZNK9libparest6Master17StepLengthControl23ResidualComputationBase22compute_trial_residualEd(%"class.libparest::Master::StepLengthControl::ResidualComputationBase"* %this, double %alpha) #0 align 2 personality i8* bitcast (i32 (...)* @__gxx_personality_v0 to i8*) !dbg !2800 {
entry:
  %this.addr = alloca %"class.libparest::Master::StepLengthControl::ResidualComputationBase"*, align 8
  %alpha.addr = alloca double, align 8
  %a = alloca %"class.std::vector", align 8
  %ref.tmp = alloca %"class.std::allocator", align 1
  %exn.slot = alloca i8*
  %ehselector.slot = alloca i32
  %r = alloca %"class.std::vector", align 8
  %ref.tmp2 = alloca double, align 8
  %ref.tmp3 = alloca %"class.std::allocator", align 1
  %agg.tmp = alloca %"class.std::vector", align 8
  store %"class.libparest::Master::StepLengthControl::ResidualComputationBase"* %this, %"class.libparest::Master::StepLengthControl::ResidualComputationBase"** %this.addr, align 8
  call void @llvm.dbg.declare(metadata %"class.libparest::Master::StepLengthControl::ResidualComputationBase"** %this.addr, metadata !2801, metadata !DIExpression()), !dbg !2803
  store double %alpha, double* %alpha.addr, align 8
  call void @llvm.dbg.declare(metadata double* %alpha.addr, metadata !2804, metadata !DIExpression()), !dbg !2805
  %this1 = load %"class.libparest::Master::StepLengthControl::ResidualComputationBase"*, %"class.libparest::Master::StepLengthControl::ResidualComputationBase"** %this.addr, align 8
  call void @llvm.dbg.declare(metadata %"class.std::vector"* %a, metadata !2806, metadata !DIExpression()), !dbg !2807
  call void @_ZNSaIdEC2Ev(%"class.std::allocator"* %ref.tmp) #4, !dbg !2807
  invoke void @_ZNSt6vectorIdSaIdEEC2EmRKdRKS0_(%"class.std::vector"* %a, i64 1, double* dereferenceable(8) %alpha.addr, %"class.std::allocator"* dereferenceable(1) %ref.tmp)
          to label %invoke.cont unwind label %lpad, !dbg !2807

invoke.cont:                                      ; preds = %entry
  call void @_ZNSaIdED2Ev(%"class.std::allocator"* %ref.tmp) #4, !dbg !2807
  call void @llvm.dbg.declare(metadata %"class.std::vector"* %r, metadata !2808, metadata !DIExpression()), !dbg !2809
  store double -1.000000e+00, double* %ref.tmp2, align 8, !dbg !2810
  call void @_ZNSaIdEC2Ev(%"class.std::allocator"* %ref.tmp3) #4, !dbg !2809
  invoke void @_ZNSt6vectorIdSaIdEEC2EmRKdRKS0_(%"class.std::vector"* %r, i64 1, double* dereferenceable(8) %ref.tmp2, %"class.std::allocator"* dereferenceable(1) %ref.tmp3)
          to label %invoke.cont5 unwind label %lpad4, !dbg !2809

invoke.cont5:                                     ; preds = %invoke.cont
  call void @_ZNSaIdED2Ev(%"class.std::allocator"* %ref.tmp3) #4, !dbg !2809
  invoke void @_ZNSt6vectorIdSaIdEEC2ERKS1_(%"class.std::vector"* %agg.tmp, %"class.std::vector"* dereferenceable(24) %a)
          to label %invoke.cont7 unwind label %lpad6, !dbg !2811

invoke.cont7:                                     ; preds = %invoke.cont5
  %0 = bitcast %"class.libparest::Master::StepLengthControl::ResidualComputationBase"* %this1 to void (%"class.libparest::Master::StepLengthControl::ResidualComputationBase"*, %"class.std::vector"*, %"class.std::vector"*)***, !dbg !2812
  %vtable = load void (%"class.libparest::Master::StepLengthControl::ResidualComputationBase"*, %"class.std::vector"*, %"class.std::vector"*)**, void (%"class.libparest::Master::StepLengthControl::ResidualComputationBase"*, %"class.std::vector"*, %"class.std::vector"*)*** %0, align 8, !dbg !2812
  %vfn = getelementptr inbounds void (%"class.libparest::Master::StepLengthControl::ResidualComputationBase"*, %"class.std::vector"*, %"class.std::vector"*)*, void (%"class.libparest::Master::StepLengthControl::ResidualComputationBase"*, %"class.std::vector"*, %"class.std::vector"*)** %vtable, i64 2, !dbg !2812
  %1 = load void (%"class.libparest::Master::StepLengthControl::ResidualComputationBase"*, %"class.std::vector"*, %"class.std::vector"*)*, void (%"class.libparest::Master::StepLengthControl::ResidualComputationBase"*, %"class.std::vector"*, %"class.std::vector"*)** %vfn, align 8, !dbg !2812
  invoke void %1(%"class.libparest::Master::StepLengthControl::ResidualComputationBase"* %this1, %"class.std::vector"* %agg.tmp, %"class.std::vector"* dereferenceable(24) %r)
          to label %invoke.cont9 unwind label %lpad8, !dbg !2812

invoke.cont9:                                     ; preds = %invoke.cont7
  call void @_ZNSt6vectorIdSaIdEED2Ev(%"class.std::vector"* %agg.tmp) #4, !dbg !2812
  %call = call dereferenceable(8) double* @_ZNSt6vectorIdSaIdEEixEm(%"class.std::vector"* %r, i64 0) #4, !dbg !2813
  %2 = load double, double* %call, align 8, !dbg !2813
  call void @_ZNSt6vectorIdSaIdEED2Ev(%"class.std::vector"* %r) #4, !dbg !2814
  call void @_ZNSt6vectorIdSaIdEED2Ev(%"class.std::vector"* %a) #4, !dbg !2814
  ret double %2, !dbg !2814

lpad:                                             ; preds = %entry
  %3 = landingpad { i8*, i32 }
          cleanup, !dbg !2814
  %4 = extractvalue { i8*, i32 } %3, 0, !dbg !2814
  store i8* %4, i8** %exn.slot, align 8, !dbg !2814
  %5 = extractvalue { i8*, i32 } %3, 1, !dbg !2814
  store i32 %5, i32* %ehselector.slot, align 4, !dbg !2814
  call void @_ZNSaIdED2Ev(%"class.std::allocator"* %ref.tmp) #4, !dbg !2807
  br label %eh.resume, !dbg !2807

lpad4:                                            ; preds = %invoke.cont
  %6 = landingpad { i8*, i32 }
          cleanup, !dbg !2814
  %7 = extractvalue { i8*, i32 } %6, 0, !dbg !2814
  store i8* %7, i8** %exn.slot, align 8, !dbg !2814
  %8 = extractvalue { i8*, i32 } %6, 1, !dbg !2814
  store i32 %8, i32* %ehselector.slot, align 4, !dbg !2814
  call void @_ZNSaIdED2Ev(%"class.std::allocator"* %ref.tmp3) #4, !dbg !2809
  br label %ehcleanup10, !dbg !2809

lpad6:                                            ; preds = %invoke.cont5
  %9 = landingpad { i8*, i32 }
          cleanup, !dbg !2814
  %10 = extractvalue { i8*, i32 } %9, 0, !dbg !2814
  store i8* %10, i8** %exn.slot, align 8, !dbg !2814
  %11 = extractvalue { i8*, i32 } %9, 1, !dbg !2814
  store i32 %11, i32* %ehselector.slot, align 4, !dbg !2814
  br label %ehcleanup, !dbg !2814

lpad8:                                            ; preds = %invoke.cont7
  %12 = landingpad { i8*, i32 }
          cleanup, !dbg !2814
  %13 = extractvalue { i8*, i32 } %12, 0, !dbg !2814
  store i8* %13, i8** %exn.slot, align 8, !dbg !2814
  %14 = extractvalue { i8*, i32 } %12, 1, !dbg !2814
  store i32 %14, i32* %ehselector.slot, align 4, !dbg !2814
  call void @_ZNSt6vectorIdSaIdEED2Ev(%"class.std::vector"* %agg.tmp) #4, !dbg !2812
  br label %ehcleanup, !dbg !2812

ehcleanup:                                        ; preds = %lpad8, %lpad6
  call void @_ZNSt6vectorIdSaIdEED2Ev(%"class.std::vector"* %r) #4, !dbg !2814
  br label %ehcleanup10, !dbg !2814

ehcleanup10:                                      ; preds = %ehcleanup, %lpad4
  call void @_ZNSt6vectorIdSaIdEED2Ev(%"class.std::vector"* %a) #4, !dbg !2814
  br label %eh.resume, !dbg !2814

eh.resume:                                        ; preds = %ehcleanup10, %lpad
  %exn = load i8*, i8** %exn.slot, align 8, !dbg !2807
  %sel = load i32, i32* %ehselector.slot, align 4, !dbg !2807
  %lpad.val = insertvalue { i8*, i32 } undef, i8* %exn, 0, !dbg !2807
  %lpad.val11 = insertvalue { i8*, i32 } %lpad.val, i32 %sel, 1, !dbg !2807
  resume { i8*, i32 } %lpad.val11, !dbg !2807
}

; Function Attrs: noinline nounwind uwtable
define linkonce_odr dso_local void @_ZNSaIdEC2Ev(%"class.std::allocator"* %this) unnamed_addr #1 comdat align 2 !dbg !2815 {
entry:
  %this.addr = alloca %"class.std::allocator"*, align 8
  store %"class.std::allocator"* %this, %"class.std::allocator"** %this.addr, align 8
  call void @llvm.dbg.declare(metadata %"class.std::allocator"** %this.addr, metadata !2816, metadata !DIExpression()), !dbg !2818
  %this1 = load %"class.std::allocator"*, %"class.std::allocator"** %this.addr, align 8
  %0 = bitcast %"class.std::allocator"* %this1 to %"class.__gnu_cxx::new_allocator"*, !dbg !2819
  call void @_ZN9__gnu_cxx13new_allocatorIdEC2Ev(%"class.__gnu_cxx::new_allocator"* %0) #4, !dbg !2820
  ret void, !dbg !2821
}

; Function Attrs: noinline uwtable
define linkonce_odr dso_local void @_ZNSt6vectorIdSaIdEEC2EmRKdRKS0_(%"class.std::vector"* %this, i64 %__n, double* dereferenceable(8) %__value, %"class.std::allocator"* dereferenceable(1) %__a) unnamed_addr #0 comdat align 2 personality i8* bitcast (i32 (...)* @__gxx_personality_v0 to i8*) !dbg !2822 {
entry:
  %this.addr = alloca %"class.std::vector"*, align 8
  %__n.addr = alloca i64, align 8
  %__value.addr = alloca double*, align 8
  %__a.addr = alloca %"class.std::allocator"*, align 8
  %exn.slot = alloca i8*
  %ehselector.slot = alloca i32
  store %"class.std::vector"* %this, %"class.std::vector"** %this.addr, align 8
  call void @llvm.dbg.declare(metadata %"class.std::vector"** %this.addr, metadata !2823, metadata !DIExpression()), !dbg !2825
  store i64 %__n, i64* %__n.addr, align 8
  call void @llvm.dbg.declare(metadata i64* %__n.addr, metadata !2826, metadata !DIExpression()), !dbg !2827
  store double* %__value, double** %__value.addr, align 8
  call void @llvm.dbg.declare(metadata double** %__value.addr, metadata !2828, metadata !DIExpression()), !dbg !2829
  store %"class.std::allocator"* %__a, %"class.std::allocator"** %__a.addr, align 8
  call void @llvm.dbg.declare(metadata %"class.std::allocator"** %__a.addr, metadata !2830, metadata !DIExpression()), !dbg !2831
  %this1 = load %"class.std::vector"*, %"class.std::vector"** %this.addr, align 8
  %0 = bitcast %"class.std::vector"* %this1 to %"struct.std::_Vector_base"*, !dbg !2832
  %1 = load i64, i64* %__n.addr, align 8, !dbg !2833
  %2 = load %"class.std::allocator"*, %"class.std::allocator"** %__a.addr, align 8, !dbg !2834
  %call = call i64 @_ZNSt6vectorIdSaIdEE17_S_check_init_lenEmRKS0_(i64 %1, %"class.std::allocator"* dereferenceable(1) %2), !dbg !2835
  %3 = load %"class.std::allocator"*, %"class.std::allocator"** %__a.addr, align 8, !dbg !2836
  call void @_ZNSt12_Vector_baseIdSaIdEEC2EmRKS0_(%"struct.std::_Vector_base"* %0, i64 %call, %"class.std::allocator"* dereferenceable(1) %3), !dbg !2837
  %4 = load i64, i64* %__n.addr, align 8, !dbg !2838
  %5 = load double*, double** %__value.addr, align 8, !dbg !2840
  invoke void @_ZNSt6vectorIdSaIdEE18_M_fill_initializeEmRKd(%"class.std::vector"* %this1, i64 %4, double* dereferenceable(8) %5)
          to label %invoke.cont unwind label %lpad, !dbg !2841

invoke.cont:                                      ; preds = %entry
  ret void, !dbg !2842

lpad:                                             ; preds = %entry
  %6 = landingpad { i8*, i32 }
          cleanup, !dbg !2843
  %7 = extractvalue { i8*, i32 } %6, 0, !dbg !2843
  store i8* %7, i8** %exn.slot, align 8, !dbg !2843
  %8 = extractvalue { i8*, i32 } %6, 1, !dbg !2843
  store i32 %8, i32* %ehselector.slot, align 4, !dbg !2843
  %9 = bitcast %"class.std::vector"* %this1 to %"struct.std::_Vector_base"*, !dbg !2843
  call void @_ZNSt12_Vector_baseIdSaIdEED2Ev(%"struct.std::_Vector_base"* %9) #4, !dbg !2843
  br label %eh.resume, !dbg !2843

eh.resume:                                        ; preds = %lpad
  %exn = load i8*, i8** %exn.slot, align 8, !dbg !2843
  %sel = load i32, i32* %ehselector.slot, align 4, !dbg !2843
  %lpad.val = insertvalue { i8*, i32 } undef, i8* %exn, 0, !dbg !2843
  %lpad.val2 = insertvalue { i8*, i32 } %lpad.val, i32 %sel, 1, !dbg !2843
  resume { i8*, i32 } %lpad.val2, !dbg !2843
}

declare dso_local i32 @__gxx_personality_v0(...)

; Function Attrs: noinline nounwind uwtable
define linkonce_odr dso_local void @_ZNSaIdED2Ev(%"class.std::allocator"* %this) unnamed_addr #1 comdat align 2 !dbg !2844 {
entry:
  %this.addr = alloca %"class.std::allocator"*, align 8
  store %"class.std::allocator"* %this, %"class.std::allocator"** %this.addr, align 8
  call void @llvm.dbg.declare(metadata %"class.std::allocator"** %this.addr, metadata !2845, metadata !DIExpression()), !dbg !2846
  %this1 = load %"class.std::allocator"*, %"class.std::allocator"** %this.addr, align 8
  %0 = bitcast %"class.std::allocator"* %this1 to %"class.__gnu_cxx::new_allocator"*, !dbg !2847
  call void @_ZN9__gnu_cxx13new_allocatorIdED2Ev(%"class.__gnu_cxx::new_allocator"* %0) #4, !dbg !2847
  ret void, !dbg !2849
}

; Function Attrs: noinline uwtable
define linkonce_odr dso_local void @_ZNSt6vectorIdSaIdEEC2ERKS1_(%"class.std::vector"* %this, %"class.std::vector"* dereferenceable(24) %__x) unnamed_addr #0 comdat align 2 personality i8* bitcast (i32 (...)* @__gxx_personality_v0 to i8*) !dbg !2850 {
entry:
  %this.addr = alloca %"class.std::vector"*, align 8
  %__x.addr = alloca %"class.std::vector"*, align 8
  %ref.tmp = alloca %"class.std::allocator", align 1
  %exn.slot = alloca i8*
  %ehselector.slot = alloca i32
  %agg.tmp = alloca %"class.__gnu_cxx::__normal_iterator.22", align 8
  %agg.tmp4 = alloca %"class.__gnu_cxx::__normal_iterator.22", align 8
  store %"class.std::vector"* %this, %"class.std::vector"** %this.addr, align 8
  call void @llvm.dbg.declare(metadata %"class.std::vector"** %this.addr, metadata !2851, metadata !DIExpression()), !dbg !2852
  store %"class.std::vector"* %__x, %"class.std::vector"** %__x.addr, align 8
  call void @llvm.dbg.declare(metadata %"class.std::vector"** %__x.addr, metadata !2853, metadata !DIExpression()), !dbg !2854
  %this1 = load %"class.std::vector"*, %"class.std::vector"** %this.addr, align 8
  %0 = bitcast %"class.std::vector"* %this1 to %"struct.std::_Vector_base"*, !dbg !2855
  %1 = load %"class.std::vector"*, %"class.std::vector"** %__x.addr, align 8, !dbg !2856
  %call = call i64 @_ZNKSt6vectorIdSaIdEE4sizeEv(%"class.std::vector"* %1) #4, !dbg !2857
  %2 = load %"class.std::vector"*, %"class.std::vector"** %__x.addr, align 8, !dbg !2858
  %3 = bitcast %"class.std::vector"* %2 to %"struct.std::_Vector_base"*, !dbg !2858
  %call2 = call dereferenceable(1) %"class.std::allocator"* @_ZNKSt12_Vector_baseIdSaIdEE19_M_get_Tp_allocatorEv(%"struct.std::_Vector_base"* %3) #4, !dbg !2859
  call void @_ZN9__gnu_cxx14__alloc_traitsISaIdEdE17_S_select_on_copyERKS1_(%"class.std::allocator"* sret %ref.tmp, %"class.std::allocator"* dereferenceable(1) %call2), !dbg !2860
  invoke void @_ZNSt12_Vector_baseIdSaIdEEC2EmRKS0_(%"struct.std::_Vector_base"* %0, i64 %call, %"class.std::allocator"* dereferenceable(1) %ref.tmp)
          to label %invoke.cont unwind label %lpad, !dbg !2861

invoke.cont:                                      ; preds = %entry
  call void @_ZNSaIdED2Ev(%"class.std::allocator"* %ref.tmp) #4, !dbg !2861
  %4 = load %"class.std::vector"*, %"class.std::vector"** %__x.addr, align 8, !dbg !2862
  %call3 = call double* @_ZNKSt6vectorIdSaIdEE5beginEv(%"class.std::vector"* %4) #4, !dbg !2864
  %coerce.dive = getelementptr inbounds %"class.__gnu_cxx::__normal_iterator.22", %"class.__gnu_cxx::__normal_iterator.22"* %agg.tmp, i32 0, i32 0, !dbg !2864
  store double* %call3, double** %coerce.dive, align 8, !dbg !2864
  %5 = load %"class.std::vector"*, %"class.std::vector"** %__x.addr, align 8, !dbg !2865
  %call5 = call double* @_ZNKSt6vectorIdSaIdEE3endEv(%"class.std::vector"* %5) #4, !dbg !2866
  %coerce.dive6 = getelementptr inbounds %"class.__gnu_cxx::__normal_iterator.22", %"class.__gnu_cxx::__normal_iterator.22"* %agg.tmp4, i32 0, i32 0, !dbg !2866
  store double* %call5, double** %coerce.dive6, align 8, !dbg !2866
  %6 = bitcast %"class.std::vector"* %this1 to %"struct.std::_Vector_base"*, !dbg !2867
  %_M_impl = getelementptr inbounds %"struct.std::_Vector_base", %"struct.std::_Vector_base"* %6, i32 0, i32 0, !dbg !2867
  %7 = bitcast %"struct.std::_Vector_base<double, std::allocator<double> >::_Vector_impl"* %_M_impl to %"struct.std::_Vector_base<double, std::allocator<double> >::_Vector_impl_data"*, !dbg !2868
  %_M_start = getelementptr inbounds %"struct.std::_Vector_base<double, std::allocator<double> >::_Vector_impl_data", %"struct.std::_Vector_base<double, std::allocator<double> >::_Vector_impl_data"* %7, i32 0, i32 0, !dbg !2869
  %8 = load double*, double** %_M_start, align 8, !dbg !2869
  %9 = bitcast %"class.std::vector"* %this1 to %"struct.std::_Vector_base"*, !dbg !2870
  %call7 = call dereferenceable(1) %"class.std::allocator"* @_ZNSt12_Vector_baseIdSaIdEE19_M_get_Tp_allocatorEv(%"struct.std::_Vector_base"* %9) #4, !dbg !2870
  %coerce.dive8 = getelementptr inbounds %"class.__gnu_cxx::__normal_iterator.22", %"class.__gnu_cxx::__normal_iterator.22"* %agg.tmp, i32 0, i32 0, !dbg !2871
  %10 = load double*, double** %coerce.dive8, align 8, !dbg !2871
  %coerce.dive9 = getelementptr inbounds %"class.__gnu_cxx::__normal_iterator.22", %"class.__gnu_cxx::__normal_iterator.22"* %agg.tmp4, i32 0, i32 0, !dbg !2871
  %11 = load double*, double** %coerce.dive9, align 8, !dbg !2871
  %call12 = invoke double* @_ZSt22__uninitialized_copy_aIN9__gnu_cxx17__normal_iteratorIPKdSt6vectorIdSaIdEEEEPddET0_T_SA_S9_RSaIT1_E(double* %10, double* %11, double* %8, %"class.std::allocator"* dereferenceable(1) %call7)
          to label %invoke.cont11 unwind label %lpad10, !dbg !2871

invoke.cont11:                                    ; preds = %invoke.cont
  %12 = bitcast %"class.std::vector"* %this1 to %"struct.std::_Vector_base"*, !dbg !2872
  %_M_impl13 = getelementptr inbounds %"struct.std::_Vector_base", %"struct.std::_Vector_base"* %12, i32 0, i32 0, !dbg !2872
  %13 = bitcast %"struct.std::_Vector_base<double, std::allocator<double> >::_Vector_impl"* %_M_impl13 to %"struct.std::_Vector_base<double, std::allocator<double> >::_Vector_impl_data"*, !dbg !2873
  %_M_finish = getelementptr inbounds %"struct.std::_Vector_base<double, std::allocator<double> >::_Vector_impl_data", %"struct.std::_Vector_base<double, std::allocator<double> >::_Vector_impl_data"* %13, i32 0, i32 1, !dbg !2874
  store double* %call12, double** %_M_finish, align 8, !dbg !2875
  ret void, !dbg !2876

lpad:                                             ; preds = %entry
  %14 = landingpad { i8*, i32 }
          cleanup, !dbg !2876
  %15 = extractvalue { i8*, i32 } %14, 0, !dbg !2876
  store i8* %15, i8** %exn.slot, align 8, !dbg !2876
  %16 = extractvalue { i8*, i32 } %14, 1, !dbg !2876
  store i32 %16, i32* %ehselector.slot, align 4, !dbg !2876
  call void @_ZNSaIdED2Ev(%"class.std::allocator"* %ref.tmp) #4, !dbg !2861
  br label %eh.resume, !dbg !2861

lpad10:                                           ; preds = %invoke.cont
  %17 = landingpad { i8*, i32 }
          cleanup, !dbg !2877
  %18 = extractvalue { i8*, i32 } %17, 0, !dbg !2877
  store i8* %18, i8** %exn.slot, align 8, !dbg !2877
  %19 = extractvalue { i8*, i32 } %17, 1, !dbg !2877
  store i32 %19, i32* %ehselector.slot, align 4, !dbg !2877
  %20 = bitcast %"class.std::vector"* %this1 to %"struct.std::_Vector_base"*, !dbg !2877
  call void @_ZNSt12_Vector_baseIdSaIdEED2Ev(%"struct.std::_Vector_base"* %20) #4, !dbg !2877
  br label %eh.resume, !dbg !2877

eh.resume:                                        ; preds = %lpad10, %lpad
  %exn = load i8*, i8** %exn.slot, align 8, !dbg !2861
  %sel = load i32, i32* %ehselector.slot, align 4, !dbg !2861
  %lpad.val = insertvalue { i8*, i32 } undef, i8* %exn, 0, !dbg !2861
  %lpad.val14 = insertvalue { i8*, i32 } %lpad.val, i32 %sel, 1, !dbg !2861
  resume { i8*, i32 } %lpad.val14, !dbg !2861
}

; Function Attrs: noinline nounwind uwtable
define linkonce_odr dso_local void @_ZNSt6vectorIdSaIdEED2Ev(%"class.std::vector"* %this) unnamed_addr #1 comdat align 2 personality i8* bitcast (i32 (...)* @__gxx_personality_v0 to i8*) !dbg !2878 {
entry:
  %this.addr = alloca %"class.std::vector"*, align 8
  %exn.slot = alloca i8*
  %ehselector.slot = alloca i32
  store %"class.std::vector"* %this, %"class.std::vector"** %this.addr, align 8
  call void @llvm.dbg.declare(metadata %"class.std::vector"** %this.addr, metadata !2879, metadata !DIExpression()), !dbg !2880
  %this1 = load %"class.std::vector"*, %"class.std::vector"** %this.addr, align 8
  %0 = bitcast %"class.std::vector"* %this1 to %"struct.std::_Vector_base"*, !dbg !2881
  %_M_impl = getelementptr inbounds %"struct.std::_Vector_base", %"struct.std::_Vector_base"* %0, i32 0, i32 0, !dbg !2881
  %1 = bitcast %"struct.std::_Vector_base<double, std::allocator<double> >::_Vector_impl"* %_M_impl to %"struct.std::_Vector_base<double, std::allocator<double> >::_Vector_impl_data"*, !dbg !2883
  %_M_start = getelementptr inbounds %"struct.std::_Vector_base<double, std::allocator<double> >::_Vector_impl_data", %"struct.std::_Vector_base<double, std::allocator<double> >::_Vector_impl_data"* %1, i32 0, i32 0, !dbg !2884
  %2 = load double*, double** %_M_start, align 8, !dbg !2884
  %3 = bitcast %"class.std::vector"* %this1 to %"struct.std::_Vector_base"*, !dbg !2885
  %_M_impl2 = getelementptr inbounds %"struct.std::_Vector_base", %"struct.std::_Vector_base"* %3, i32 0, i32 0, !dbg !2885
  %4 = bitcast %"struct.std::_Vector_base<double, std::allocator<double> >::_Vector_impl"* %_M_impl2 to %"struct.std::_Vector_base<double, std::allocator<double> >::_Vector_impl_data"*, !dbg !2886
  %_M_finish = getelementptr inbounds %"struct.std::_Vector_base<double, std::allocator<double> >::_Vector_impl_data", %"struct.std::_Vector_base<double, std::allocator<double> >::_Vector_impl_data"* %4, i32 0, i32 1, !dbg !2887
  %5 = load double*, double** %_M_finish, align 8, !dbg !2887
  %6 = bitcast %"class.std::vector"* %this1 to %"struct.std::_Vector_base"*, !dbg !2888
  %call = call dereferenceable(1) %"class.std::allocator"* @_ZNSt12_Vector_baseIdSaIdEE19_M_get_Tp_allocatorEv(%"struct.std::_Vector_base"* %6) #4, !dbg !2888
  invoke void @_ZSt8_DestroyIPddEvT_S1_RSaIT0_E(double* %2, double* %5, %"class.std::allocator"* dereferenceable(1) %call)
          to label %invoke.cont unwind label %lpad, !dbg !2889

invoke.cont:                                      ; preds = %entry
  %7 = bitcast %"class.std::vector"* %this1 to %"struct.std::_Vector_base"*, !dbg !2890
  call void @_ZNSt12_Vector_baseIdSaIdEED2Ev(%"struct.std::_Vector_base"* %7) #4, !dbg !2890
  ret void, !dbg !2891

lpad:                                             ; preds = %entry
  %8 = landingpad { i8*, i32 }
          catch i8* null, !dbg !2890
  %9 = extractvalue { i8*, i32 } %8, 0, !dbg !2890
  store i8* %9, i8** %exn.slot, align 8, !dbg !2890
  %10 = extractvalue { i8*, i32 } %8, 1, !dbg !2890
  store i32 %10, i32* %ehselector.slot, align 4, !dbg !2890
  %11 = bitcast %"class.std::vector"* %this1 to %"struct.std::_Vector_base"*, !dbg !2890
  call void @_ZNSt12_Vector_baseIdSaIdEED2Ev(%"struct.std::_Vector_base"* %11) #4, !dbg !2890
  br label %terminate.handler, !dbg !2890

terminate.handler:                                ; preds = %lpad
  %exn = load i8*, i8** %exn.slot, align 8, !dbg !2890
  call void @__clang_call_terminate(i8* %exn) #12, !dbg !2890
  unreachable, !dbg !2890
}

; Function Attrs: noinline nounwind uwtable
define linkonce_odr dso_local dereferenceable(8) double* @_ZNSt6vectorIdSaIdEEixEm(%"class.std::vector"* %this, i64 %__n) #1 comdat align 2 !dbg !2892 {
entry:
  %this.addr = alloca %"class.std::vector"*, align 8
  %__n.addr = alloca i64, align 8
  store %"class.std::vector"* %this, %"class.std::vector"** %this.addr, align 8
  call void @llvm.dbg.declare(metadata %"class.std::vector"** %this.addr, metadata !2893, metadata !DIExpression()), !dbg !2894
  store i64 %__n, i64* %__n.addr, align 8
  call void @llvm.dbg.declare(metadata i64* %__n.addr, metadata !2895, metadata !DIExpression()), !dbg !2896
  %this1 = load %"class.std::vector"*, %"class.std::vector"** %this.addr, align 8
  %0 = bitcast %"class.std::vector"* %this1 to %"struct.std::_Vector_base"*, !dbg !2897
  %_M_impl = getelementptr inbounds %"struct.std::_Vector_base", %"struct.std::_Vector_base"* %0, i32 0, i32 0, !dbg !2897
  %1 = bitcast %"struct.std::_Vector_base<double, std::allocator<double> >::_Vector_impl"* %_M_impl to %"struct.std::_Vector_base<double, std::allocator<double> >::_Vector_impl_data"*, !dbg !2898
  %_M_start = getelementptr inbounds %"struct.std::_Vector_base<double, std::allocator<double> >::_Vector_impl_data", %"struct.std::_Vector_base<double, std::allocator<double> >::_Vector_impl_data"* %1, i32 0, i32 0, !dbg !2899
  %2 = load double*, double** %_M_start, align 8, !dbg !2899
  %3 = load i64, i64* %__n.addr, align 8, !dbg !2900
  %add.ptr = getelementptr inbounds double, double* %2, i64 %3, !dbg !2901
  ret double* %add.ptr, !dbg !2902
}

; Function Attrs: noinline nounwind uwtable
define dso_local void @_ZN9libparest6Master17StepLengthControl10LineSearchC2ERKNS1_23ResidualComputationBaseE(%"class.libparest::Master::StepLengthControl::LineSearch"* %this, %"class.libparest::Master::StepLengthControl::ResidualComputationBase"* dereferenceable(8) %residual_computation) unnamed_addr #1 align 2 !dbg !2903 {
entry:
  %this.addr = alloca %"class.libparest::Master::StepLengthControl::LineSearch"*, align 8
  %residual_computation.addr = alloca %"class.libparest::Master::StepLengthControl::ResidualComputationBase"*, align 8
  store %"class.libparest::Master::StepLengthControl::LineSearch"* %this, %"class.libparest::Master::StepLengthControl::LineSearch"** %this.addr, align 8
  call void @llvm.dbg.declare(metadata %"class.libparest::Master::StepLengthControl::LineSearch"** %this.addr, metadata !2904, metadata !DIExpression()), !dbg !2906
  store %"class.libparest::Master::StepLengthControl::ResidualComputationBase"* %residual_computation, %"class.libparest::Master::StepLengthControl::ResidualComputationBase"** %residual_computation.addr, align 8
  call void @llvm.dbg.declare(metadata %"class.libparest::Master::StepLengthControl::ResidualComputationBase"** %residual_computation.addr, metadata !2907, metadata !DIExpression()), !dbg !2908
  %this1 = load %"class.libparest::Master::StepLengthControl::LineSearch"*, %"class.libparest::Master::StepLengthControl::LineSearch"** %this.addr, align 8
  %residual_computation2 = getelementptr inbounds %"class.libparest::Master::StepLengthControl::LineSearch", %"class.libparest::Master::StepLengthControl::LineSearch"* %this1, i32 0, i32 0, !dbg !2909
  %0 = load %"class.libparest::Master::StepLengthControl::ResidualComputationBase"*, %"class.libparest::Master::StepLengthControl::ResidualComputationBase"** %residual_computation.addr, align 8, !dbg !2910
  store %"class.libparest::Master::StepLengthControl::ResidualComputationBase"* %0, %"class.libparest::Master::StepLengthControl::ResidualComputationBase"** %residual_computation2, align 8, !dbg !2909
  %res_of_alpha = getelementptr inbounds %"class.libparest::Master::StepLengthControl::LineSearch", %"class.libparest::Master::StepLengthControl::LineSearch"* %this1, i32 0, i32 1, !dbg !2911
  call void @_ZNSt6vectorISt4pairIddESaIS1_EEC2Ev(%"class.std::vector.16"* %res_of_alpha) #4, !dbg !2911
  ret void, !dbg !2912
}

; Function Attrs: noinline nounwind uwtable
define linkonce_odr dso_local void @_ZNSt6vectorISt4pairIddESaIS1_EEC2Ev(%"class.std::vector.16"* %this) unnamed_addr #1 comdat align 2 !dbg !2913 {
entry:
  %this.addr = alloca %"class.std::vector.16"*, align 8
  store %"class.std::vector.16"* %this, %"class.std::vector.16"** %this.addr, align 8
  call void @llvm.dbg.declare(metadata %"class.std::vector.16"** %this.addr, metadata !2914, metadata !DIExpression()), !dbg !2916
  %this1 = load %"class.std::vector.16"*, %"class.std::vector.16"** %this.addr, align 8
  %0 = bitcast %"class.std::vector.16"* %this1 to %"struct.std::_Vector_base.17"*, !dbg !2917
  call void @_ZNSt12_Vector_baseISt4pairIddESaIS1_EEC2Ev(%"struct.std::_Vector_base.17"* %0) #4, !dbg !2918
  ret void, !dbg !2917
}

; Function Attrs: noinline uwtable
define dso_local void @_ZN9libparest6Master17StepLengthControl10LineSearch12sort_resultsEv(%"class.libparest::Master::StepLengthControl::LineSearch"* %this) #0 align 2 !dbg !2919 {
entry:
  %this.addr = alloca %"class.libparest::Master::StepLengthControl::LineSearch"*, align 8
  %agg.tmp = alloca %"class.__gnu_cxx::__normal_iterator", align 8
  %agg.tmp2 = alloca %"class.__gnu_cxx::__normal_iterator", align 8
  %agg.tmp6 = alloca %"struct.libparest::Master::StepLengthControl::LessThanByFirstNumber", align 1
  store %"class.libparest::Master::StepLengthControl::LineSearch"* %this, %"class.libparest::Master::StepLengthControl::LineSearch"** %this.addr, align 8
  call void @llvm.dbg.declare(metadata %"class.libparest::Master::StepLengthControl::LineSearch"** %this.addr, metadata !2920, metadata !DIExpression()), !dbg !2921
  %this1 = load %"class.libparest::Master::StepLengthControl::LineSearch"*, %"class.libparest::Master::StepLengthControl::LineSearch"** %this.addr, align 8
  %res_of_alpha = getelementptr inbounds %"class.libparest::Master::StepLengthControl::LineSearch", %"class.libparest::Master::StepLengthControl::LineSearch"* %this1, i32 0, i32 1, !dbg !2922
  %call = call %"struct.std::pair"* @_ZNSt6vectorISt4pairIddESaIS1_EE5beginEv(%"class.std::vector.16"* %res_of_alpha) #4, !dbg !2923
  %coerce.dive = getelementptr inbounds %"class.__gnu_cxx::__normal_iterator", %"class.__gnu_cxx::__normal_iterator"* %agg.tmp, i32 0, i32 0, !dbg !2923
  store %"struct.std::pair"* %call, %"struct.std::pair"** %coerce.dive, align 8, !dbg !2923
  %res_of_alpha3 = getelementptr inbounds %"class.libparest::Master::StepLengthControl::LineSearch", %"class.libparest::Master::StepLengthControl::LineSearch"* %this1, i32 0, i32 1, !dbg !2924
  %call4 = call %"struct.std::pair"* @_ZNSt6vectorISt4pairIddESaIS1_EE3endEv(%"class.std::vector.16"* %res_of_alpha3) #4, !dbg !2925
  %coerce.dive5 = getelementptr inbounds %"class.__gnu_cxx::__normal_iterator", %"class.__gnu_cxx::__normal_iterator"* %agg.tmp2, i32 0, i32 0, !dbg !2925
  store %"struct.std::pair"* %call4, %"struct.std::pair"** %coerce.dive5, align 8, !dbg !2925
  %coerce.dive7 = getelementptr inbounds %"class.__gnu_cxx::__normal_iterator", %"class.__gnu_cxx::__normal_iterator"* %agg.tmp, i32 0, i32 0, !dbg !2926
  %0 = load %"struct.std::pair"*, %"struct.std::pair"** %coerce.dive7, align 8, !dbg !2926
  %coerce.dive8 = getelementptr inbounds %"class.__gnu_cxx::__normal_iterator", %"class.__gnu_cxx::__normal_iterator"* %agg.tmp2, i32 0, i32 0, !dbg !2926
  %1 = load %"struct.std::pair"*, %"struct.std::pair"** %coerce.dive8, align 8, !dbg !2926
  call void @_ZSt4sortIN9__gnu_cxx17__normal_iteratorIPSt4pairIddESt6vectorIS3_SaIS3_EEEEN9libparest6Master17StepLengthControl21LessThanByFirstNumberEEvT_SD_T0_(%"struct.std::pair"* %0, %"struct.std::pair"* %1), !dbg !2926
  ret void, !dbg !2927
}

; Function Attrs: noinline uwtable
define linkonce_odr dso_local void @_ZSt4sortIN9__gnu_cxx17__normal_iteratorIPSt4pairIddESt6vectorIS3_SaIS3_EEEEN9libparest6Master17StepLengthControl21LessThanByFirstNumberEEvT_SD_T0_(%"struct.std::pair"* %__first.coerce, %"struct.std::pair"* %__last.coerce) #0 comdat !dbg !2928 {
entry:
  %__first = alloca %"class.__gnu_cxx::__normal_iterator", align 8
  %__last = alloca %"class.__gnu_cxx::__normal_iterator", align 8
  %__comp = alloca %"struct.libparest::Master::StepLengthControl::LessThanByFirstNumber", align 1
  %agg.tmp = alloca %"class.__gnu_cxx::__normal_iterator", align 8
  %agg.tmp2 = alloca %"class.__gnu_cxx::__normal_iterator", align 8
  %agg.tmp3 = alloca %"struct.__gnu_cxx::__ops::_Iter_comp_iter", align 1
  %agg.tmp4 = alloca %"struct.libparest::Master::StepLengthControl::LessThanByFirstNumber", align 1
  %undef.agg.tmp = alloca %"struct.__gnu_cxx::__ops::_Iter_comp_iter", align 1
  %coerce.dive = getelementptr inbounds %"class.__gnu_cxx::__normal_iterator", %"class.__gnu_cxx::__normal_iterator"* %__first, i32 0, i32 0
  store %"struct.std::pair"* %__first.coerce, %"struct.std::pair"** %coerce.dive, align 8
  %coerce.dive1 = getelementptr inbounds %"class.__gnu_cxx::__normal_iterator", %"class.__gnu_cxx::__normal_iterator"* %__last, i32 0, i32 0
  store %"struct.std::pair"* %__last.coerce, %"struct.std::pair"** %coerce.dive1, align 8
  call void @llvm.dbg.declare(metadata %"class.__gnu_cxx::__normal_iterator"* %__first, metadata !2932, metadata !DIExpression()), !dbg !2933
  call void @llvm.dbg.declare(metadata %"class.__gnu_cxx::__normal_iterator"* %__last, metadata !2934, metadata !DIExpression()), !dbg !2935
  call void @llvm.dbg.declare(metadata %"struct.libparest::Master::StepLengthControl::LessThanByFirstNumber"* %__comp, metadata !2936, metadata !DIExpression()), !dbg !2937
  %0 = bitcast %"class.__gnu_cxx::__normal_iterator"* %agg.tmp to i8*, !dbg !2938
  %1 = bitcast %"class.__gnu_cxx::__normal_iterator"* %__first to i8*, !dbg !2938
  call void @llvm.memcpy.p0i8.p0i8.i64(i8* align 8 %0, i8* align 8 %1, i64 8, i1 false), !dbg !2938
  %2 = bitcast %"class.__gnu_cxx::__normal_iterator"* %agg.tmp2 to i8*, !dbg !2939
  %3 = bitcast %"class.__gnu_cxx::__normal_iterator"* %__last to i8*, !dbg !2939
  call void @llvm.memcpy.p0i8.p0i8.i64(i8* align 8 %2, i8* align 8 %3, i64 8, i1 false), !dbg !2939
  call void @_ZN9__gnu_cxx5__ops16__iter_comp_iterIN9libparest6Master17StepLengthControl21LessThanByFirstNumberEEENS0_15_Iter_comp_iterIT_EES7_(), !dbg !2940
  %coerce.dive5 = getelementptr inbounds %"class.__gnu_cxx::__normal_iterator", %"class.__gnu_cxx::__normal_iterator"* %agg.tmp, i32 0, i32 0, !dbg !2941
  %4 = load %"struct.std::pair"*, %"struct.std::pair"** %coerce.dive5, align 8, !dbg !2941
  %coerce.dive6 = getelementptr inbounds %"class.__gnu_cxx::__normal_iterator", %"class.__gnu_cxx::__normal_iterator"* %agg.tmp2, i32 0, i32 0, !dbg !2941
  %5 = load %"struct.std::pair"*, %"struct.std::pair"** %coerce.dive6, align 8, !dbg !2941
  call void @_ZSt6__sortIN9__gnu_cxx17__normal_iteratorIPSt4pairIddESt6vectorIS3_SaIS3_EEEENS0_5__ops15_Iter_comp_iterIN9libparest6Master17StepLengthControl21LessThanByFirstNumberEEEEvT_SG_T0_(%"struct.std::pair"* %4, %"struct.std::pair"* %5), !dbg !2941
  ret void, !dbg !2942
}

; Function Attrs: noinline nounwind uwtable
define linkonce_odr dso_local %"struct.std::pair"* @_ZNSt6vectorISt4pairIddESaIS1_EE5beginEv(%"class.std::vector.16"* %this) #1 comdat align 2 !dbg !2943 {
entry:
  %retval = alloca %"class.__gnu_cxx::__normal_iterator", align 8
  %this.addr = alloca %"class.std::vector.16"*, align 8
  store %"class.std::vector.16"* %this, %"class.std::vector.16"** %this.addr, align 8
  call void @llvm.dbg.declare(metadata %"class.std::vector.16"** %this.addr, metadata !2944, metadata !DIExpression()), !dbg !2945
  %this1 = load %"class.std::vector.16"*, %"class.std::vector.16"** %this.addr, align 8
  %0 = bitcast %"class.std::vector.16"* %this1 to %"struct.std::_Vector_base.17"*, !dbg !2946
  %_M_impl = getelementptr inbounds %"struct.std::_Vector_base.17", %"struct.std::_Vector_base.17"* %0, i32 0, i32 0, !dbg !2946
  %1 = bitcast %"struct.std::_Vector_base<std::pair<double, double>, std::allocator<std::pair<double, double> > >::_Vector_impl"* %_M_impl to %"struct.std::_Vector_base<std::pair<double, double>, std::allocator<std::pair<double, double> > >::_Vector_impl_data"*, !dbg !2947
  %_M_start = getelementptr inbounds %"struct.std::_Vector_base<std::pair<double, double>, std::allocator<std::pair<double, double> > >::_Vector_impl_data", %"struct.std::_Vector_base<std::pair<double, double>, std::allocator<std::pair<double, double> > >::_Vector_impl_data"* %1, i32 0, i32 0, !dbg !2948
  call void @_ZN9__gnu_cxx17__normal_iteratorIPSt4pairIddESt6vectorIS2_SaIS2_EEEC2ERKS3_(%"class.__gnu_cxx::__normal_iterator"* %retval, %"struct.std::pair"** dereferenceable(8) %_M_start) #4, !dbg !2949
  %coerce.dive = getelementptr inbounds %"class.__gnu_cxx::__normal_iterator", %"class.__gnu_cxx::__normal_iterator"* %retval, i32 0, i32 0, !dbg !2950
  %2 = load %"struct.std::pair"*, %"struct.std::pair"** %coerce.dive, align 8, !dbg !2950
  ret %"struct.std::pair"* %2, !dbg !2950
}

; Function Attrs: noinline nounwind uwtable
define linkonce_odr dso_local %"struct.std::pair"* @_ZNSt6vectorISt4pairIddESaIS1_EE3endEv(%"class.std::vector.16"* %this) #1 comdat align 2 !dbg !2951 {
entry:
  %retval = alloca %"class.__gnu_cxx::__normal_iterator", align 8
  %this.addr = alloca %"class.std::vector.16"*, align 8
  store %"class.std::vector.16"* %this, %"class.std::vector.16"** %this.addr, align 8
  call void @llvm.dbg.declare(metadata %"class.std::vector.16"** %this.addr, metadata !2952, metadata !DIExpression()), !dbg !2953
  %this1 = load %"class.std::vector.16"*, %"class.std::vector.16"** %this.addr, align 8
  %0 = bitcast %"class.std::vector.16"* %this1 to %"struct.std::_Vector_base.17"*, !dbg !2954
  %_M_impl = getelementptr inbounds %"struct.std::_Vector_base.17", %"struct.std::_Vector_base.17"* %0, i32 0, i32 0, !dbg !2954
  %1 = bitcast %"struct.std::_Vector_base<std::pair<double, double>, std::allocator<std::pair<double, double> > >::_Vector_impl"* %_M_impl to %"struct.std::_Vector_base<std::pair<double, double>, std::allocator<std::pair<double, double> > >::_Vector_impl_data"*, !dbg !2955
  %_M_finish = getelementptr inbounds %"struct.std::_Vector_base<std::pair<double, double>, std::allocator<std::pair<double, double> > >::_Vector_impl_data", %"struct.std::_Vector_base<std::pair<double, double>, std::allocator<std::pair<double, double> > >::_Vector_impl_data"* %1, i32 0, i32 1, !dbg !2956
  call void @_ZN9__gnu_cxx17__normal_iteratorIPSt4pairIddESt6vectorIS2_SaIS2_EEEC2ERKS3_(%"class.__gnu_cxx::__normal_iterator"* %retval, %"struct.std::pair"** dereferenceable(8) %_M_finish) #4, !dbg !2957
  %coerce.dive = getelementptr inbounds %"class.__gnu_cxx::__normal_iterator", %"class.__gnu_cxx::__normal_iterator"* %retval, i32 0, i32 0, !dbg !2958
  %2 = load %"struct.std::pair"*, %"struct.std::pair"** %coerce.dive, align 8, !dbg !2958
  ret %"struct.std::pair"* %2, !dbg !2958
}

; Function Attrs: noinline uwtable
define dso_local void @_ZN9libparest6Master17StepLengthControl10LineSearch25compute_initial_residualsEv(%"class.libparest::Master::StepLengthControl::LineSearch"* %this) #0 align 2 personality i8* bitcast (i32 (...)* @__gxx_personality_v0 to i8*) !dbg !2959 {
entry:
  %this.addr = alloca %"class.libparest::Master::StepLengthControl::LineSearch"*, align 8
  %trial_alphas1 = alloca [4 x double], align 16
  %n_trial_alphas = alloca i32, align 4
  %trial_alphas = alloca %"class.std::vector", align 8
  %ref.tmp = alloca %"class.std::allocator", align 1
  %exn.slot = alloca i8*
  %ehselector.slot = alloca i32
  %residuals = alloca %"class.std::vector", align 8
  %ref.tmp3 = alloca %"class.std::allocator", align 1
  %agg.tmp = alloca %"class.std::vector", align 8
  %i = alloca i32, align 4
  %ref.tmp10 = alloca %"struct.std::pair", align 8
  store %"class.libparest::Master::StepLengthControl::LineSearch"* %this, %"class.libparest::Master::StepLengthControl::LineSearch"** %this.addr, align 8
  call void @llvm.dbg.declare(metadata %"class.libparest::Master::StepLengthControl::LineSearch"** %this.addr, metadata !2960, metadata !DIExpression()), !dbg !2961
  %this1 = load %"class.libparest::Master::StepLengthControl::LineSearch"*, %"class.libparest::Master::StepLengthControl::LineSearch"** %this.addr, align 8
  call void @llvm.dbg.declare(metadata [4 x double]* %trial_alphas1, metadata !2962, metadata !DIExpression()), !dbg !2964
  %0 = bitcast [4 x double]* %trial_alphas1 to i8*, !dbg !2964
  call void @llvm.memcpy.p0i8.p0i8.i64(i8* align 16 %0, i8* align 16 bitcast ([4 x double]* @__const._ZN9libparest6Master17StepLengthControl10LineSearch25compute_initial_residualsEv.trial_alphas1 to i8*), i64 32, i1 false), !dbg !2964
  call void @llvm.dbg.declare(metadata i32* %n_trial_alphas, metadata !2965, metadata !DIExpression()), !dbg !2967
  store i32 4, i32* %n_trial_alphas, align 4, !dbg !2967
  call void @llvm.dbg.declare(metadata %"class.std::vector"* %trial_alphas, metadata !2968, metadata !DIExpression()), !dbg !2969
  %arrayidx = getelementptr inbounds [4 x double], [4 x double]* %trial_alphas1, i64 0, i64 0, !dbg !2970
  %arrayidx2 = getelementptr inbounds [4 x double], [4 x double]* %trial_alphas1, i64 0, i64 4, !dbg !2971
  call void @_ZNSaIdEC2Ev(%"class.std::allocator"* %ref.tmp) #4, !dbg !2969
  invoke void @_ZNSt6vectorIdSaIdEEC2IPKdvEET_S5_RKS0_(%"class.std::vector"* %trial_alphas, double* %arrayidx, double* %arrayidx2, %"class.std::allocator"* dereferenceable(1) %ref.tmp)
          to label %invoke.cont unwind label %lpad, !dbg !2969

invoke.cont:                                      ; preds = %entry
  call void @_ZNSaIdED2Ev(%"class.std::allocator"* %ref.tmp) #4, !dbg !2969
  call void @llvm.dbg.declare(metadata %"class.std::vector"* %residuals, metadata !2972, metadata !DIExpression()), !dbg !2973
  call void @_ZNSaIdEC2Ev(%"class.std::allocator"* %ref.tmp3) #4, !dbg !2973
  invoke void @_ZNSt6vectorIdSaIdEEC2EmRKS0_(%"class.std::vector"* %residuals, i64 4, %"class.std::allocator"* dereferenceable(1) %ref.tmp3)
          to label %invoke.cont5 unwind label %lpad4, !dbg !2973

invoke.cont5:                                     ; preds = %invoke.cont
  call void @_ZNSaIdED2Ev(%"class.std::allocator"* %ref.tmp3) #4, !dbg !2973
  %residual_computation = getelementptr inbounds %"class.libparest::Master::StepLengthControl::LineSearch", %"class.libparest::Master::StepLengthControl::LineSearch"* %this1, i32 0, i32 0, !dbg !2974
  %1 = load %"class.libparest::Master::StepLengthControl::ResidualComputationBase"*, %"class.libparest::Master::StepLengthControl::ResidualComputationBase"** %residual_computation, align 8, !dbg !2974
  invoke void @_ZNSt6vectorIdSaIdEEC2ERKS1_(%"class.std::vector"* %agg.tmp, %"class.std::vector"* dereferenceable(24) %trial_alphas)
          to label %invoke.cont7 unwind label %lpad6, !dbg !2975

invoke.cont7:                                     ; preds = %invoke.cont5
  %2 = bitcast %"class.libparest::Master::StepLengthControl::ResidualComputationBase"* %1 to void (%"class.libparest::Master::StepLengthControl::ResidualComputationBase"*, %"class.std::vector"*, %"class.std::vector"*)***, !dbg !2976
  %vtable = load void (%"class.libparest::Master::StepLengthControl::ResidualComputationBase"*, %"class.std::vector"*, %"class.std::vector"*)**, void (%"class.libparest::Master::StepLengthControl::ResidualComputationBase"*, %"class.std::vector"*, %"class.std::vector"*)*** %2, align 8, !dbg !2976
  %vfn = getelementptr inbounds void (%"class.libparest::Master::StepLengthControl::ResidualComputationBase"*, %"class.std::vector"*, %"class.std::vector"*)*, void (%"class.libparest::Master::StepLengthControl::ResidualComputationBase"*, %"class.std::vector"*, %"class.std::vector"*)** %vtable, i64 2, !dbg !2976
  %3 = load void (%"class.libparest::Master::StepLengthControl::ResidualComputationBase"*, %"class.std::vector"*, %"class.std::vector"*)*, void (%"class.libparest::Master::StepLengthControl::ResidualComputationBase"*, %"class.std::vector"*, %"class.std::vector"*)** %vfn, align 8, !dbg !2976
  invoke void %3(%"class.libparest::Master::StepLengthControl::ResidualComputationBase"* %1, %"class.std::vector"* %agg.tmp, %"class.std::vector"* dereferenceable(24) %residuals)
          to label %invoke.cont9 unwind label %lpad8, !dbg !2976

invoke.cont9:                                     ; preds = %invoke.cont7
  call void @_ZNSt6vectorIdSaIdEED2Ev(%"class.std::vector"* %agg.tmp) #4, !dbg !2974
  %call = call dereferenceable(8) double* @_ZNSt6vectorIdSaIdEEixEm(%"class.std::vector"* %residuals, i64 0) #4, !dbg !2977
  %4 = load double, double* %call, align 8, !dbg !2977
  %initial_residual = getelementptr inbounds %"class.libparest::Master::StepLengthControl::LineSearch", %"class.libparest::Master::StepLengthControl::LineSearch"* %this1, i32 0, i32 2, !dbg !2978
  store double %4, double* %initial_residual, align 8, !dbg !2979
  call void @llvm.dbg.declare(metadata i32* %i, metadata !2980, metadata !DIExpression()), !dbg !2982
  store i32 1, i32* %i, align 4, !dbg !2982
  br label %for.cond, !dbg !2983

for.cond:                                         ; preds = %for.inc, %invoke.cont9
  %5 = load i32, i32* %i, align 4, !dbg !2984
  %cmp = icmp ult i32 %5, 4, !dbg !2986
  br i1 %cmp, label %for.body, label %for.end, !dbg !2987

for.body:                                         ; preds = %for.cond
  %res_of_alpha = getelementptr inbounds %"class.libparest::Master::StepLengthControl::LineSearch", %"class.libparest::Master::StepLengthControl::LineSearch"* %this1, i32 0, i32 1, !dbg !2988
  %6 = load i32, i32* %i, align 4, !dbg !2990
  %conv = zext i32 %6 to i64, !dbg !2990
  %call11 = call dereferenceable(8) double* @_ZNKSt6vectorIdSaIdEEixEm(%"class.std::vector"* %trial_alphas, i64 %conv) #4, !dbg !2991
  %7 = load i32, i32* %i, align 4, !dbg !2992
  %conv12 = zext i32 %7 to i64, !dbg !2992
  %call13 = call dereferenceable(8) double* @_ZNSt6vectorIdSaIdEEixEm(%"class.std::vector"* %residuals, i64 %conv12) #4, !dbg !2993
  %call15 = invoke { double, double } @_ZSt9make_pairIRKdRdESt4pairINSt25__strip_reference_wrapperINSt5decayIT_E4typeEE6__typeENS4_INS5_IT0_E4typeEE6__typeEEOS6_OSB_(double* dereferenceable(8) %call11, double* dereferenceable(8) %call13)
          to label %invoke.cont14 unwind label %lpad6, !dbg !2994

invoke.cont14:                                    ; preds = %for.body
  %8 = bitcast %"struct.std::pair"* %ref.tmp10 to { double, double }*, !dbg !2994
  %9 = getelementptr inbounds { double, double }, { double, double }* %8, i32 0, i32 0, !dbg !2994
  %10 = extractvalue { double, double } %call15, 0, !dbg !2994
  store double %10, double* %9, align 8, !dbg !2994
  %11 = getelementptr inbounds { double, double }, { double, double }* %8, i32 0, i32 1, !dbg !2994
  %12 = extractvalue { double, double } %call15, 1, !dbg !2994
  store double %12, double* %11, align 8, !dbg !2994
  invoke void @_ZNSt6vectorISt4pairIddESaIS1_EE9push_backEOS1_(%"class.std::vector.16"* %res_of_alpha, %"struct.std::pair"* dereferenceable(16) %ref.tmp10)
          to label %invoke.cont16 unwind label %lpad6, !dbg !2995

invoke.cont16:                                    ; preds = %invoke.cont14
  br label %for.inc, !dbg !2996

for.inc:                                          ; preds = %invoke.cont16
  %13 = load i32, i32* %i, align 4, !dbg !2997
  %inc = add i32 %13, 1, !dbg !2997
  store i32 %inc, i32* %i, align 4, !dbg !2997
  br label %for.cond, !dbg !2998, !llvm.loop !2999

lpad:                                             ; preds = %entry
  %14 = landingpad { i8*, i32 }
          cleanup, !dbg !3001
  %15 = extractvalue { i8*, i32 } %14, 0, !dbg !3001
  store i8* %15, i8** %exn.slot, align 8, !dbg !3001
  %16 = extractvalue { i8*, i32 } %14, 1, !dbg !3001
  store i32 %16, i32* %ehselector.slot, align 4, !dbg !3001
  call void @_ZNSaIdED2Ev(%"class.std::allocator"* %ref.tmp) #4, !dbg !2969
  br label %eh.resume, !dbg !2969

lpad4:                                            ; preds = %invoke.cont
  %17 = landingpad { i8*, i32 }
          cleanup, !dbg !3001
  %18 = extractvalue { i8*, i32 } %17, 0, !dbg !3001
  store i8* %18, i8** %exn.slot, align 8, !dbg !3001
  %19 = extractvalue { i8*, i32 } %17, 1, !dbg !3001
  store i32 %19, i32* %ehselector.slot, align 4, !dbg !3001
  call void @_ZNSaIdED2Ev(%"class.std::allocator"* %ref.tmp3) #4, !dbg !2973
  br label %ehcleanup18, !dbg !2973

lpad6:                                            ; preds = %for.end, %invoke.cont14, %for.body, %invoke.cont5
  %20 = landingpad { i8*, i32 }
          cleanup, !dbg !3001
  %21 = extractvalue { i8*, i32 } %20, 0, !dbg !3001
  store i8* %21, i8** %exn.slot, align 8, !dbg !3001
  %22 = extractvalue { i8*, i32 } %20, 1, !dbg !3001
  store i32 %22, i32* %ehselector.slot, align 4, !dbg !3001
  br label %ehcleanup, !dbg !3001

lpad8:                                            ; preds = %invoke.cont7
  %23 = landingpad { i8*, i32 }
          cleanup, !dbg !3001
  %24 = extractvalue { i8*, i32 } %23, 0, !dbg !3001
  store i8* %24, i8** %exn.slot, align 8, !dbg !3001
  %25 = extractvalue { i8*, i32 } %23, 1, !dbg !3001
  store i32 %25, i32* %ehselector.slot, align 4, !dbg !3001
  call void @_ZNSt6vectorIdSaIdEED2Ev(%"class.std::vector"* %agg.tmp) #4, !dbg !2974
  br label %ehcleanup, !dbg !2974

for.end:                                          ; preds = %for.cond
  invoke void @_ZN9libparest6Master17StepLengthControl10LineSearch12sort_resultsEv(%"class.libparest::Master::StepLengthControl::LineSearch"* %this1)
          to label %invoke.cont17 unwind label %lpad6, !dbg !3002

invoke.cont17:                                    ; preds = %for.end
  call void @_ZNSt6vectorIdSaIdEED2Ev(%"class.std::vector"* %residuals) #4, !dbg !3001
  call void @_ZNSt6vectorIdSaIdEED2Ev(%"class.std::vector"* %trial_alphas) #4, !dbg !3001
  ret void, !dbg !3001

ehcleanup:                                        ; preds = %lpad8, %lpad6
  call void @_ZNSt6vectorIdSaIdEED2Ev(%"class.std::vector"* %residuals) #4, !dbg !3001
  br label %ehcleanup18, !dbg !3001

ehcleanup18:                                      ; preds = %ehcleanup, %lpad4
  call void @_ZNSt6vectorIdSaIdEED2Ev(%"class.std::vector"* %trial_alphas) #4, !dbg !3001
  br label %eh.resume, !dbg !3001

eh.resume:                                        ; preds = %ehcleanup18, %lpad
  %exn = load i8*, i8** %exn.slot, align 8, !dbg !2969
  %sel = load i32, i32* %ehselector.slot, align 4, !dbg !2969
  %lpad.val = insertvalue { i8*, i32 } undef, i8* %exn, 0, !dbg !2969
  %lpad.val19 = insertvalue { i8*, i32 } %lpad.val, i32 %sel, 1, !dbg !2969
  resume { i8*, i32 } %lpad.val19, !dbg !2969
}

; Function Attrs: argmemonly nounwind willreturn
declare void @llvm.memcpy.p0i8.p0i8.i64(i8* noalias nocapture writeonly, i8* noalias nocapture readonly, i64, i1 immarg) #7

; Function Attrs: noinline uwtable
define linkonce_odr dso_local void @_ZNSt6vectorIdSaIdEEC2IPKdvEET_S5_RKS0_(%"class.std::vector"* %this, double* %__first, double* %__last, %"class.std::allocator"* dereferenceable(1) %__a) unnamed_addr #0 comdat align 2 personality i8* bitcast (i32 (...)* @__gxx_personality_v0 to i8*) !dbg !3003 {
entry:
  %this.addr = alloca %"class.std::vector"*, align 8
  %__first.addr = alloca double*, align 8
  %__last.addr = alloca double*, align 8
  %__a.addr = alloca %"class.std::allocator"*, align 8
  %agg.tmp = alloca %"struct.std::forward_iterator_tag", align 1
  %ref.tmp = alloca %"struct.std::random_access_iterator_tag", align 1
  %exn.slot = alloca i8*
  %ehselector.slot = alloca i32
  %undef.agg.tmp = alloca %"struct.std::random_access_iterator_tag", align 1
  store %"class.std::vector"* %this, %"class.std::vector"** %this.addr, align 8
  call void @llvm.dbg.declare(metadata %"class.std::vector"** %this.addr, metadata !3009, metadata !DIExpression()), !dbg !3010
  store double* %__first, double** %__first.addr, align 8
  call void @llvm.dbg.declare(metadata double** %__first.addr, metadata !3011, metadata !DIExpression()), !dbg !3012
  store double* %__last, double** %__last.addr, align 8
  call void @llvm.dbg.declare(metadata double** %__last.addr, metadata !3013, metadata !DIExpression()), !dbg !3014
  store %"class.std::allocator"* %__a, %"class.std::allocator"** %__a.addr, align 8
  call void @llvm.dbg.declare(metadata %"class.std::allocator"** %__a.addr, metadata !3015, metadata !DIExpression()), !dbg !3016
  %this1 = load %"class.std::vector"*, %"class.std::vector"** %this.addr, align 8
  %0 = bitcast %"class.std::vector"* %this1 to %"struct.std::_Vector_base"*, !dbg !3017
  %1 = load %"class.std::allocator"*, %"class.std::allocator"** %__a.addr, align 8, !dbg !3018
  call void @_ZNSt12_Vector_baseIdSaIdEEC2ERKS0_(%"struct.std::_Vector_base"* %0, %"class.std::allocator"* dereferenceable(1) %1) #4, !dbg !3019
  %2 = load double*, double** %__first.addr, align 8, !dbg !3020
  %3 = load double*, double** %__last.addr, align 8, !dbg !3022
  invoke void @_ZSt19__iterator_categoryIPKdENSt15iterator_traitsIT_E17iterator_categoryERKS3_(double** dereferenceable(8) %__first.addr)
          to label %invoke.cont unwind label %lpad, !dbg !3023

invoke.cont:                                      ; preds = %entry
  %4 = bitcast %"struct.std::random_access_iterator_tag"* %ref.tmp to %"struct.std::forward_iterator_tag"*, !dbg !3023
  invoke void @_ZNSt6vectorIdSaIdEE19_M_range_initializeIPKdEEvT_S5_St20forward_iterator_tag(%"class.std::vector"* %this1, double* %2, double* %3)
          to label %invoke.cont2 unwind label %lpad, !dbg !3024

invoke.cont2:                                     ; preds = %invoke.cont
  ret void, !dbg !3025

lpad:                                             ; preds = %invoke.cont, %entry
  %5 = landingpad { i8*, i32 }
          cleanup, !dbg !3026
  %6 = extractvalue { i8*, i32 } %5, 0, !dbg !3026
  store i8* %6, i8** %exn.slot, align 8, !dbg !3026
  %7 = extractvalue { i8*, i32 } %5, 1, !dbg !3026
  store i32 %7, i32* %ehselector.slot, align 4, !dbg !3026
  %8 = bitcast %"class.std::vector"* %this1 to %"struct.std::_Vector_base"*, !dbg !3026
  call void @_ZNSt12_Vector_baseIdSaIdEED2Ev(%"struct.std::_Vector_base"* %8) #4, !dbg !3026
  br label %eh.resume, !dbg !3026

eh.resume:                                        ; preds = %lpad
  %exn = load i8*, i8** %exn.slot, align 8, !dbg !3026
  %sel = load i32, i32* %ehselector.slot, align 4, !dbg !3026
  %lpad.val = insertvalue { i8*, i32 } undef, i8* %exn, 0, !dbg !3026
  %lpad.val3 = insertvalue { i8*, i32 } %lpad.val, i32 %sel, 1, !dbg !3026
  resume { i8*, i32 } %lpad.val3, !dbg !3026
}

; Function Attrs: noinline uwtable
define linkonce_odr dso_local void @_ZNSt6vectorIdSaIdEEC2EmRKS0_(%"class.std::vector"* %this, i64 %__n, %"class.std::allocator"* dereferenceable(1) %__a) unnamed_addr #0 comdat align 2 personality i8* bitcast (i32 (...)* @__gxx_personality_v0 to i8*) !dbg !3027 {
entry:
  %this.addr = alloca %"class.std::vector"*, align 8
  %__n.addr = alloca i64, align 8
  %__a.addr = alloca %"class.std::allocator"*, align 8
  %exn.slot = alloca i8*
  %ehselector.slot = alloca i32
  store %"class.std::vector"* %this, %"class.std::vector"** %this.addr, align 8
  call void @llvm.dbg.declare(metadata %"class.std::vector"** %this.addr, metadata !3028, metadata !DIExpression()), !dbg !3029
  store i64 %__n, i64* %__n.addr, align 8
  call void @llvm.dbg.declare(metadata i64* %__n.addr, metadata !3030, metadata !DIExpression()), !dbg !3031
  store %"class.std::allocator"* %__a, %"class.std::allocator"** %__a.addr, align 8
  call void @llvm.dbg.declare(metadata %"class.std::allocator"** %__a.addr, metadata !3032, metadata !DIExpression()), !dbg !3033
  %this1 = load %"class.std::vector"*, %"class.std::vector"** %this.addr, align 8
  %0 = bitcast %"class.std::vector"* %this1 to %"struct.std::_Vector_base"*, !dbg !3034
  %1 = load i64, i64* %__n.addr, align 8, !dbg !3035
  %2 = load %"class.std::allocator"*, %"class.std::allocator"** %__a.addr, align 8, !dbg !3036
  %call = call i64 @_ZNSt6vectorIdSaIdEE17_S_check_init_lenEmRKS0_(i64 %1, %"class.std::allocator"* dereferenceable(1) %2), !dbg !3037
  %3 = load %"class.std::allocator"*, %"class.std::allocator"** %__a.addr, align 8, !dbg !3038
  call void @_ZNSt12_Vector_baseIdSaIdEEC2EmRKS0_(%"struct.std::_Vector_base"* %0, i64 %call, %"class.std::allocator"* dereferenceable(1) %3), !dbg !3039
  %4 = load i64, i64* %__n.addr, align 8, !dbg !3040
  invoke void @_ZNSt6vectorIdSaIdEE21_M_default_initializeEm(%"class.std::vector"* %this1, i64 %4)
          to label %invoke.cont unwind label %lpad, !dbg !3042

invoke.cont:                                      ; preds = %entry
  ret void, !dbg !3043

lpad:                                             ; preds = %entry
  %5 = landingpad { i8*, i32 }
          cleanup, !dbg !3044
  %6 = extractvalue { i8*, i32 } %5, 0, !dbg !3044
  store i8* %6, i8** %exn.slot, align 8, !dbg !3044
  %7 = extractvalue { i8*, i32 } %5, 1, !dbg !3044
  store i32 %7, i32* %ehselector.slot, align 4, !dbg !3044
  %8 = bitcast %"class.std::vector"* %this1 to %"struct.std::_Vector_base"*, !dbg !3044
  call void @_ZNSt12_Vector_baseIdSaIdEED2Ev(%"struct.std::_Vector_base"* %8) #4, !dbg !3044
  br label %eh.resume, !dbg !3044

eh.resume:                                        ; preds = %lpad
  %exn = load i8*, i8** %exn.slot, align 8, !dbg !3044
  %sel = load i32, i32* %ehselector.slot, align 4, !dbg !3044
  %lpad.val = insertvalue { i8*, i32 } undef, i8* %exn, 0, !dbg !3044
  %lpad.val2 = insertvalue { i8*, i32 } %lpad.val, i32 %sel, 1, !dbg !3044
  resume { i8*, i32 } %lpad.val2, !dbg !3044
}

; Function Attrs: noinline uwtable
define linkonce_odr dso_local void @_ZNSt6vectorISt4pairIddESaIS1_EE9push_backEOS1_(%"class.std::vector.16"* %this, %"struct.std::pair"* dereferenceable(16) %__x) #0 comdat align 2 !dbg !3045 {
entry:
  %this.addr = alloca %"class.std::vector.16"*, align 8
  %__x.addr = alloca %"struct.std::pair"*, align 8
  store %"class.std::vector.16"* %this, %"class.std::vector.16"** %this.addr, align 8
  call void @llvm.dbg.declare(metadata %"class.std::vector.16"** %this.addr, metadata !3046, metadata !DIExpression()), !dbg !3047
  store %"struct.std::pair"* %__x, %"struct.std::pair"** %__x.addr, align 8
  call void @llvm.dbg.declare(metadata %"struct.std::pair"** %__x.addr, metadata !3048, metadata !DIExpression()), !dbg !3049
  %this1 = load %"class.std::vector.16"*, %"class.std::vector.16"** %this.addr, align 8
  %0 = load %"struct.std::pair"*, %"struct.std::pair"** %__x.addr, align 8, !dbg !3050
  %call = call dereferenceable(16) %"struct.std::pair"* @_ZSt4moveIRSt4pairIddEEONSt16remove_referenceIT_E4typeEOS4_(%"struct.std::pair"* dereferenceable(16) %0) #4, !dbg !3051
  call void @_ZNSt6vectorISt4pairIddESaIS1_EE12emplace_backIJS1_EEEvDpOT_(%"class.std::vector.16"* %this1, %"struct.std::pair"* dereferenceable(16) %call), !dbg !3052
  ret void, !dbg !3053
}

; Function Attrs: noinline uwtable
define linkonce_odr dso_local { double, double } @_ZSt9make_pairIRKdRdESt4pairINSt25__strip_reference_wrapperINSt5decayIT_E4typeEE6__typeENS4_INS5_IT0_E4typeEE6__typeEEOS6_OSB_(double* dereferenceable(8) %__x, double* dereferenceable(8) %__y) #0 comdat !dbg !3054 {
entry:
  %retval = alloca %"struct.std::pair", align 8
  %__x.addr = alloca double*, align 8
  %__y.addr = alloca double*, align 8
  store double* %__x, double** %__x.addr, align 8
  call void @llvm.dbg.declare(metadata double** %__x.addr, metadata !3060, metadata !DIExpression()), !dbg !3061
  store double* %__y, double** %__y.addr, align 8
  call void @llvm.dbg.declare(metadata double** %__y.addr, metadata !3062, metadata !DIExpression()), !dbg !3063
  %0 = load double*, double** %__x.addr, align 8, !dbg !3064
  %call = call dereferenceable(8) double* @_ZSt7forwardIRKdEOT_RNSt16remove_referenceIS2_E4typeE(double* dereferenceable(8) %0) #4, !dbg !3065
  %1 = load double*, double** %__y.addr, align 8, !dbg !3066
  %call1 = call dereferenceable(8) double* @_ZSt7forwardIRdEOT_RNSt16remove_referenceIS1_E4typeE(double* dereferenceable(8) %1) #4, !dbg !3067
  call void @_ZNSt4pairIddEC2IRdLb1EEERKdOT_(%"struct.std::pair"* %retval, double* dereferenceable(8) %call, double* dereferenceable(8) %call1), !dbg !3068
  %2 = bitcast %"struct.std::pair"* %retval to { double, double }*, !dbg !3069
  %3 = load { double, double }, { double, double }* %2, align 8, !dbg !3069
  ret { double, double } %3, !dbg !3069
}

; Function Attrs: noinline nounwind uwtable
define linkonce_odr dso_local dereferenceable(8) double* @_ZNKSt6vectorIdSaIdEEixEm(%"class.std::vector"* %this, i64 %__n) #1 comdat align 2 !dbg !3070 {
entry:
  %this.addr = alloca %"class.std::vector"*, align 8
  %__n.addr = alloca i64, align 8
  store %"class.std::vector"* %this, %"class.std::vector"** %this.addr, align 8
  call void @llvm.dbg.declare(metadata %"class.std::vector"** %this.addr, metadata !3071, metadata !DIExpression()), !dbg !3073
  store i64 %__n, i64* %__n.addr, align 8
  call void @llvm.dbg.declare(metadata i64* %__n.addr, metadata !3074, metadata !DIExpression()), !dbg !3075
  %this1 = load %"class.std::vector"*, %"class.std::vector"** %this.addr, align 8
  %0 = bitcast %"class.std::vector"* %this1 to %"struct.std::_Vector_base"*, !dbg !3076
  %_M_impl = getelementptr inbounds %"struct.std::_Vector_base", %"struct.std::_Vector_base"* %0, i32 0, i32 0, !dbg !3076
  %1 = bitcast %"struct.std::_Vector_base<double, std::allocator<double> >::_Vector_impl"* %_M_impl to %"struct.std::_Vector_base<double, std::allocator<double> >::_Vector_impl_data"*, !dbg !3077
  %_M_start = getelementptr inbounds %"struct.std::_Vector_base<double, std::allocator<double> >::_Vector_impl_data", %"struct.std::_Vector_base<double, std::allocator<double> >::_Vector_impl_data"* %1, i32 0, i32 0, !dbg !3078
  %2 = load double*, double** %_M_start, align 8, !dbg !3078
  %3 = load i64, i64* %__n.addr, align 8, !dbg !3079
  %add.ptr = getelementptr inbounds double, double* %2, i64 %3, !dbg !3080
  ret double* %add.ptr, !dbg !3081
}

; Function Attrs: noinline nounwind uwtable
define dso_local double @_ZNK9libparest6Master17StepLengthControl10LineSearch16nearest_residualEd(%"class.libparest::Master::StepLengthControl::LineSearch"* %this, double %alpha) #1 align 2 !dbg !3082 {
entry:
  %this.addr = alloca %"class.libparest::Master::StepLengthControl::LineSearch"*, align 8
  %alpha.addr = alloca double, align 8
  %dist = alloca double, align 8
  %res = alloca double, align 8
  %i = alloca i32, align 4
  store %"class.libparest::Master::StepLengthControl::LineSearch"* %this, %"class.libparest::Master::StepLengthControl::LineSearch"** %this.addr, align 8
  call void @llvm.dbg.declare(metadata %"class.libparest::Master::StepLengthControl::LineSearch"** %this.addr, metadata !3083, metadata !DIExpression()), !dbg !3085
  store double %alpha, double* %alpha.addr, align 8
  call void @llvm.dbg.declare(metadata double* %alpha.addr, metadata !3086, metadata !DIExpression()), !dbg !3087
  %this1 = load %"class.libparest::Master::StepLengthControl::LineSearch"*, %"class.libparest::Master::StepLengthControl::LineSearch"** %this.addr, align 8
  call void @llvm.dbg.declare(metadata double* %dist, metadata !3088, metadata !DIExpression()), !dbg !3089
  store double 1.000000e+06, double* %dist, align 8, !dbg !3089
  call void @llvm.dbg.declare(metadata double* %res, metadata !3090, metadata !DIExpression()), !dbg !3091
  store double 1.000000e+06, double* %res, align 8, !dbg !3091
  call void @llvm.dbg.declare(metadata i32* %i, metadata !3092, metadata !DIExpression()), !dbg !3094
  store i32 0, i32* %i, align 4, !dbg !3094
  br label %for.cond, !dbg !3095

for.cond:                                         ; preds = %for.inc, %entry
  %0 = load i32, i32* %i, align 4, !dbg !3096
  %conv = zext i32 %0 to i64, !dbg !3096
  %res_of_alpha = getelementptr inbounds %"class.libparest::Master::StepLengthControl::LineSearch", %"class.libparest::Master::StepLengthControl::LineSearch"* %this1, i32 0, i32 1, !dbg !3098
  %call = call i64 @_ZNKSt6vectorISt4pairIddESaIS1_EE4sizeEv(%"class.std::vector.16"* %res_of_alpha) #4, !dbg !3099
  %cmp = icmp ult i64 %conv, %call, !dbg !3100
  br i1 %cmp, label %for.body, label %for.end, !dbg !3101

for.body:                                         ; preds = %for.cond
  %res_of_alpha2 = getelementptr inbounds %"class.libparest::Master::StepLengthControl::LineSearch", %"class.libparest::Master::StepLengthControl::LineSearch"* %this1, i32 0, i32 1, !dbg !3102
  %1 = load i32, i32* %i, align 4, !dbg !3104
  %conv3 = zext i32 %1 to i64, !dbg !3104
  %call4 = call dereferenceable(16) %"struct.std::pair"* @_ZNKSt6vectorISt4pairIddESaIS1_EEixEm(%"class.std::vector.16"* %res_of_alpha2, i64 %conv3) #4, !dbg !3102
  %first = getelementptr inbounds %"struct.std::pair", %"struct.std::pair"* %call4, i32 0, i32 0, !dbg !3105
  %2 = load double, double* %first, align 8, !dbg !3105
  %3 = load double, double* %alpha.addr, align 8, !dbg !3106
  %sub = fsub double %2, %3, !dbg !3107
  %4 = call double @llvm.fabs.f64(double %sub), !dbg !3108
  %5 = load double, double* %dist, align 8, !dbg !3109
  %cmp5 = fcmp olt double %4, %5, !dbg !3110
  br i1 %cmp5, label %if.then, label %if.end, !dbg !3111

if.then:                                          ; preds = %for.body
  %res_of_alpha6 = getelementptr inbounds %"class.libparest::Master::StepLengthControl::LineSearch", %"class.libparest::Master::StepLengthControl::LineSearch"* %this1, i32 0, i32 1, !dbg !3112
  %6 = load i32, i32* %i, align 4, !dbg !3114
  %conv7 = zext i32 %6 to i64, !dbg !3114
  %call8 = call dereferenceable(16) %"struct.std::pair"* @_ZNKSt6vectorISt4pairIddESaIS1_EEixEm(%"class.std::vector.16"* %res_of_alpha6, i64 %conv7) #4, !dbg !3112
  %first9 = getelementptr inbounds %"struct.std::pair", %"struct.std::pair"* %call8, i32 0, i32 0, !dbg !3115
  %7 = load double, double* %first9, align 8, !dbg !3115
  %8 = load double, double* %alpha.addr, align 8, !dbg !3116
  %sub10 = fsub double %7, %8, !dbg !3117
  %9 = call double @llvm.fabs.f64(double %sub10), !dbg !3118
  store double %9, double* %dist, align 8, !dbg !3119
  %res_of_alpha11 = getelementptr inbounds %"class.libparest::Master::StepLengthControl::LineSearch", %"class.libparest::Master::StepLengthControl::LineSearch"* %this1, i32 0, i32 1, !dbg !3120
  %10 = load i32, i32* %i, align 4, !dbg !3121
  %conv12 = zext i32 %10 to i64, !dbg !3121
  %call13 = call dereferenceable(16) %"struct.std::pair"* @_ZNKSt6vectorISt4pairIddESaIS1_EEixEm(%"class.std::vector.16"* %res_of_alpha11, i64 %conv12) #4, !dbg !3120
  %second = getelementptr inbounds %"struct.std::pair", %"struct.std::pair"* %call13, i32 0, i32 1, !dbg !3122
  %11 = load double, double* %second, align 8, !dbg !3122
  store double %11, double* %res, align 8, !dbg !3123
  br label %if.end, !dbg !3124

if.end:                                           ; preds = %if.then, %for.body
  br label %for.inc, !dbg !3109

for.inc:                                          ; preds = %if.end
  %12 = load i32, i32* %i, align 4, !dbg !3125
  %inc = add i32 %12, 1, !dbg !3125
  store i32 %inc, i32* %i, align 4, !dbg !3125
  br label %for.cond, !dbg !3126, !llvm.loop !3127

for.end:                                          ; preds = %for.cond
  %13 = load double, double* %res, align 8, !dbg !3129
  ret double %13, !dbg !3130
}

; Function Attrs: noinline nounwind uwtable
define linkonce_odr dso_local i64 @_ZNKSt6vectorISt4pairIddESaIS1_EE4sizeEv(%"class.std::vector.16"* %this) #1 comdat align 2 !dbg !3131 {
entry:
  %this.addr = alloca %"class.std::vector.16"*, align 8
  store %"class.std::vector.16"* %this, %"class.std::vector.16"** %this.addr, align 8
  call void @llvm.dbg.declare(metadata %"class.std::vector.16"** %this.addr, metadata !3132, metadata !DIExpression()), !dbg !3134
  %this1 = load %"class.std::vector.16"*, %"class.std::vector.16"** %this.addr, align 8
  %0 = bitcast %"class.std::vector.16"* %this1 to %"struct.std::_Vector_base.17"*, !dbg !3135
  %_M_impl = getelementptr inbounds %"struct.std::_Vector_base.17", %"struct.std::_Vector_base.17"* %0, i32 0, i32 0, !dbg !3135
  %1 = bitcast %"struct.std::_Vector_base<std::pair<double, double>, std::allocator<std::pair<double, double> > >::_Vector_impl"* %_M_impl to %"struct.std::_Vector_base<std::pair<double, double>, std::allocator<std::pair<double, double> > >::_Vector_impl_data"*, !dbg !3136
  %_M_finish = getelementptr inbounds %"struct.std::_Vector_base<std::pair<double, double>, std::allocator<std::pair<double, double> > >::_Vector_impl_data", %"struct.std::_Vector_base<std::pair<double, double>, std::allocator<std::pair<double, double> > >::_Vector_impl_data"* %1, i32 0, i32 1, !dbg !3137
  %2 = load %"struct.std::pair"*, %"struct.std::pair"** %_M_finish, align 8, !dbg !3137
  %3 = bitcast %"class.std::vector.16"* %this1 to %"struct.std::_Vector_base.17"*, !dbg !3138
  %_M_impl2 = getelementptr inbounds %"struct.std::_Vector_base.17", %"struct.std::_Vector_base.17"* %3, i32 0, i32 0, !dbg !3138
  %4 = bitcast %"struct.std::_Vector_base<std::pair<double, double>, std::allocator<std::pair<double, double> > >::_Vector_impl"* %_M_impl2 to %"struct.std::_Vector_base<std::pair<double, double>, std::allocator<std::pair<double, double> > >::_Vector_impl_data"*, !dbg !3139
  %_M_start = getelementptr inbounds %"struct.std::_Vector_base<std::pair<double, double>, std::allocator<std::pair<double, double> > >::_Vector_impl_data", %"struct.std::_Vector_base<std::pair<double, double>, std::allocator<std::pair<double, double> > >::_Vector_impl_data"* %4, i32 0, i32 0, !dbg !3140
  %5 = load %"struct.std::pair"*, %"struct.std::pair"** %_M_start, align 8, !dbg !3140
  %sub.ptr.lhs.cast = ptrtoint %"struct.std::pair"* %2 to i64, !dbg !3141
  %sub.ptr.rhs.cast = ptrtoint %"struct.std::pair"* %5 to i64, !dbg !3141
  %sub.ptr.sub = sub i64 %sub.ptr.lhs.cast, %sub.ptr.rhs.cast, !dbg !3141
  %sub.ptr.div = sdiv exact i64 %sub.ptr.sub, 16, !dbg !3141
  ret i64 %sub.ptr.div, !dbg !3142
}

; Function Attrs: noinline nounwind uwtable
define linkonce_odr dso_local dereferenceable(16) %"struct.std::pair"* @_ZNKSt6vectorISt4pairIddESaIS1_EEixEm(%"class.std::vector.16"* %this, i64 %__n) #1 comdat align 2 !dbg !3143 {
entry:
  %this.addr = alloca %"class.std::vector.16"*, align 8
  %__n.addr = alloca i64, align 8
  store %"class.std::vector.16"* %this, %"class.std::vector.16"** %this.addr, align 8
  call void @llvm.dbg.declare(metadata %"class.std::vector.16"** %this.addr, metadata !3144, metadata !DIExpression()), !dbg !3145
  store i64 %__n, i64* %__n.addr, align 8
  call void @llvm.dbg.declare(metadata i64* %__n.addr, metadata !3146, metadata !DIExpression()), !dbg !3147
  %this1 = load %"class.std::vector.16"*, %"class.std::vector.16"** %this.addr, align 8
  %0 = bitcast %"class.std::vector.16"* %this1 to %"struct.std::_Vector_base.17"*, !dbg !3148
  %_M_impl = getelementptr inbounds %"struct.std::_Vector_base.17", %"struct.std::_Vector_base.17"* %0, i32 0, i32 0, !dbg !3148
  %1 = bitcast %"struct.std::_Vector_base<std::pair<double, double>, std::allocator<std::pair<double, double> > >::_Vector_impl"* %_M_impl to %"struct.std::_Vector_base<std::pair<double, double>, std::allocator<std::pair<double, double> > >::_Vector_impl_data"*, !dbg !3149
  %_M_start = getelementptr inbounds %"struct.std::_Vector_base<std::pair<double, double>, std::allocator<std::pair<double, double> > >::_Vector_impl_data", %"struct.std::_Vector_base<std::pair<double, double>, std::allocator<std::pair<double, double> > >::_Vector_impl_data"* %1, i32 0, i32 0, !dbg !3150
  %2 = load %"struct.std::pair"*, %"struct.std::pair"** %_M_start, align 8, !dbg !3150
  %3 = load i64, i64* %__n.addr, align 8, !dbg !3151
  %add.ptr = getelementptr inbounds %"struct.std::pair", %"struct.std::pair"* %2, i64 %3, !dbg !3152
  ret %"struct.std::pair"* %add.ptr, !dbg !3153
}

; Function Attrs: nounwind readnone speculatable willreturn
declare double @llvm.fabs.f64(double) #5

; Function Attrs: noinline uwtable
define dso_local { double, double } @_ZNK9libparest6Master17StepLengthControl10LineSearch24compute_minimum_residualEv(%"class.libparest::Master::StepLengthControl::LineSearch"* %this) #0 align 2 !dbg !3154 {
entry:
  %retval = alloca %"struct.std::pair", align 8
  %this.addr = alloca %"class.libparest::Master::StepLengthControl::LineSearch"*, align 8
  %coefficient_matrix = alloca %"class.dealii::Tensor", align 8
  %rhs = alloca %"class.dealii::Tensor.21", align 8
  %n = alloca i32, align 4
  %x = alloca double, align 8
  %y = alloca double, align 8
  %solution = alloca %"class.dealii::Tensor.21", align 8
  %ref.tmp = alloca %"class.dealii::Tensor", align 8
  %a = alloca double, align 8
  %b = alloca double, align 8
  %c = alloca double, align 8
  %extremum = alloca double, align 8
  %extremal_value = alloca double, align 8
  %expected_residual = alloca double, align 8
  store %"class.libparest::Master::StepLengthControl::LineSearch"* %this, %"class.libparest::Master::StepLengthControl::LineSearch"** %this.addr, align 8
  call void @llvm.dbg.declare(metadata %"class.libparest::Master::StepLengthControl::LineSearch"** %this.addr, metadata !3155, metadata !DIExpression()), !dbg !3156
  %this1 = load %"class.libparest::Master::StepLengthControl::LineSearch"*, %"class.libparest::Master::StepLengthControl::LineSearch"** %this.addr, align 8
  call void @llvm.dbg.declare(metadata %"class.dealii::Tensor"* %coefficient_matrix, metadata !3157, metadata !DIExpression()), !dbg !3299
  call void @_ZN6dealii6TensorILi2ELi3EEC2Ev(%"class.dealii::Tensor"* %coefficient_matrix), !dbg !3299
  call void @llvm.dbg.declare(metadata %"class.dealii::Tensor.21"* %rhs, metadata !3300, metadata !DIExpression()), !dbg !3301
  call void @_ZN6dealii6TensorILi1ELi3EEC2Eb(%"class.dealii::Tensor.21"* %rhs, i1 zeroext true), !dbg !3301
  call void @llvm.dbg.declare(metadata i32* %n, metadata !3302, metadata !DIExpression()), !dbg !3304
  store i32 0, i32* %n, align 4, !dbg !3304
  br label %for.cond, !dbg !3305

for.cond:                                         ; preds = %for.inc, %entry
  %0 = load i32, i32* %n, align 4, !dbg !3306
  %conv = zext i32 %0 to i64, !dbg !3306
  %res_of_alpha = getelementptr inbounds %"class.libparest::Master::StepLengthControl::LineSearch", %"class.libparest::Master::StepLengthControl::LineSearch"* %this1, i32 0, i32 1, !dbg !3308
  %call = call i64 @_ZNKSt6vectorISt4pairIddESaIS1_EE4sizeEv(%"class.std::vector.16"* %res_of_alpha) #4, !dbg !3309
  %cmp = icmp ult i64 %conv, %call, !dbg !3310
  br i1 %cmp, label %for.body, label %for.end, !dbg !3311

for.body:                                         ; preds = %for.cond
  call void @llvm.dbg.declare(metadata double* %x, metadata !3312, metadata !DIExpression()), !dbg !3314
  %res_of_alpha2 = getelementptr inbounds %"class.libparest::Master::StepLengthControl::LineSearch", %"class.libparest::Master::StepLengthControl::LineSearch"* %this1, i32 0, i32 1, !dbg !3315
  %1 = load i32, i32* %n, align 4, !dbg !3316
  %conv3 = zext i32 %1 to i64, !dbg !3316
  %call4 = call dereferenceable(16) %"struct.std::pair"* @_ZNKSt6vectorISt4pairIddESaIS1_EEixEm(%"class.std::vector.16"* %res_of_alpha2, i64 %conv3) #4, !dbg !3315
  %first = getelementptr inbounds %"struct.std::pair", %"struct.std::pair"* %call4, i32 0, i32 0, !dbg !3317
  %2 = load double, double* %first, align 8, !dbg !3317
  store double %2, double* %x, align 8, !dbg !3314
  call void @llvm.dbg.declare(metadata double* %y, metadata !3318, metadata !DIExpression()), !dbg !3319
  %res_of_alpha5 = getelementptr inbounds %"class.libparest::Master::StepLengthControl::LineSearch", %"class.libparest::Master::StepLengthControl::LineSearch"* %this1, i32 0, i32 1, !dbg !3320
  %3 = load i32, i32* %n, align 4, !dbg !3321
  %conv6 = zext i32 %3 to i64, !dbg !3321
  %call7 = call dereferenceable(16) %"struct.std::pair"* @_ZNKSt6vectorISt4pairIddESaIS1_EEixEm(%"class.std::vector.16"* %res_of_alpha5, i64 %conv6) #4, !dbg !3320
  %second = getelementptr inbounds %"struct.std::pair", %"struct.std::pair"* %call7, i32 0, i32 1, !dbg !3322
  %4 = load double, double* %second, align 8, !dbg !3322
  store double %4, double* %y, align 8, !dbg !3319
  %5 = load double, double* %x, align 8, !dbg !3323
  %6 = load double, double* %x, align 8, !dbg !3324
  %mul = fmul double %5, %6, !dbg !3325
  %7 = load double, double* %x, align 8, !dbg !3326
  %mul8 = fmul double %mul, %7, !dbg !3327
  %8 = load double, double* %x, align 8, !dbg !3328
  %mul9 = fmul double %mul8, %8, !dbg !3329
  %call10 = call dereferenceable(24) %"class.dealii::Tensor.21"* @_ZN6dealii6TensorILi2ELi3EEixEj(%"class.dealii::Tensor"* %coefficient_matrix, i32 0), !dbg !3330
  %call11 = call dereferenceable(8) double* @_ZN6dealii6TensorILi1ELi3EEixEj(%"class.dealii::Tensor.21"* %call10, i32 0), !dbg !3330
  %9 = load double, double* %call11, align 8, !dbg !3331
  %add = fadd double %9, %mul9, !dbg !3331
  store double %add, double* %call11, align 8, !dbg !3331
  %10 = load double, double* %x, align 8, !dbg !3332
  %11 = load double, double* %x, align 8, !dbg !3333
  %mul12 = fmul double %10, %11, !dbg !3334
  %12 = load double, double* %x, align 8, !dbg !3335
  %mul13 = fmul double %mul12, %12, !dbg !3336
  %call14 = call dereferenceable(24) %"class.dealii::Tensor.21"* @_ZN6dealii6TensorILi2ELi3EEixEj(%"class.dealii::Tensor"* %coefficient_matrix, i32 1), !dbg !3337
  %call15 = call dereferenceable(8) double* @_ZN6dealii6TensorILi1ELi3EEixEj(%"class.dealii::Tensor.21"* %call14, i32 0), !dbg !3337
  %13 = load double, double* %call15, align 8, !dbg !3338
  %add16 = fadd double %13, %mul13, !dbg !3338
  store double %add16, double* %call15, align 8, !dbg !3338
  %14 = load double, double* %x, align 8, !dbg !3339
  %15 = load double, double* %x, align 8, !dbg !3340
  %mul17 = fmul double %14, %15, !dbg !3341
  %16 = load double, double* %x, align 8, !dbg !3342
  %mul18 = fmul double %mul17, %16, !dbg !3343
  %call19 = call dereferenceable(24) %"class.dealii::Tensor.21"* @_ZN6dealii6TensorILi2ELi3EEixEj(%"class.dealii::Tensor"* %coefficient_matrix, i32 0), !dbg !3344
  %call20 = call dereferenceable(8) double* @_ZN6dealii6TensorILi1ELi3EEixEj(%"class.dealii::Tensor.21"* %call19, i32 1), !dbg !3344
  %17 = load double, double* %call20, align 8, !dbg !3345
  %add21 = fadd double %17, %mul18, !dbg !3345
  store double %add21, double* %call20, align 8, !dbg !3345
  %18 = load double, double* %x, align 8, !dbg !3346
  %19 = load double, double* %x, align 8, !dbg !3347
  %mul22 = fmul double %18, %19, !dbg !3348
  %call23 = call dereferenceable(24) %"class.dealii::Tensor.21"* @_ZN6dealii6TensorILi2ELi3EEixEj(%"class.dealii::Tensor"* %coefficient_matrix, i32 2), !dbg !3349
  %call24 = call dereferenceable(8) double* @_ZN6dealii6TensorILi1ELi3EEixEj(%"class.dealii::Tensor.21"* %call23, i32 0), !dbg !3349
  %20 = load double, double* %call24, align 8, !dbg !3350
  %add25 = fadd double %20, %mul22, !dbg !3350
  store double %add25, double* %call24, align 8, !dbg !3350
  %21 = load double, double* %x, align 8, !dbg !3351
  %22 = load double, double* %x, align 8, !dbg !3352
  %mul26 = fmul double %21, %22, !dbg !3353
  %call27 = call dereferenceable(24) %"class.dealii::Tensor.21"* @_ZN6dealii6TensorILi2ELi3EEixEj(%"class.dealii::Tensor"* %coefficient_matrix, i32 1), !dbg !3354
  %call28 = call dereferenceable(8) double* @_ZN6dealii6TensorILi1ELi3EEixEj(%"class.dealii::Tensor.21"* %call27, i32 1), !dbg !3354
  %23 = load double, double* %call28, align 8, !dbg !3355
  %add29 = fadd double %23, %mul26, !dbg !3355
  store double %add29, double* %call28, align 8, !dbg !3355
  %24 = load double, double* %x, align 8, !dbg !3356
  %25 = load double, double* %x, align 8, !dbg !3357
  %mul30 = fmul double %24, %25, !dbg !3358
  %call31 = call dereferenceable(24) %"class.dealii::Tensor.21"* @_ZN6dealii6TensorILi2ELi3EEixEj(%"class.dealii::Tensor"* %coefficient_matrix, i32 0), !dbg !3359
  %call32 = call dereferenceable(8) double* @_ZN6dealii6TensorILi1ELi3EEixEj(%"class.dealii::Tensor.21"* %call31, i32 2), !dbg !3359
  %26 = load double, double* %call32, align 8, !dbg !3360
  %add33 = fadd double %26, %mul30, !dbg !3360
  store double %add33, double* %call32, align 8, !dbg !3360
  %27 = load double, double* %x, align 8, !dbg !3361
  %call34 = call dereferenceable(24) %"class.dealii::Tensor.21"* @_ZN6dealii6TensorILi2ELi3EEixEj(%"class.dealii::Tensor"* %coefficient_matrix, i32 2), !dbg !3362
  %call35 = call dereferenceable(8) double* @_ZN6dealii6TensorILi1ELi3EEixEj(%"class.dealii::Tensor.21"* %call34, i32 1), !dbg !3362
  %28 = load double, double* %call35, align 8, !dbg !3363
  %add36 = fadd double %28, %27, !dbg !3363
  store double %add36, double* %call35, align 8, !dbg !3363
  %29 = load double, double* %x, align 8, !dbg !3364
  %call37 = call dereferenceable(24) %"class.dealii::Tensor.21"* @_ZN6dealii6TensorILi2ELi3EEixEj(%"class.dealii::Tensor"* %coefficient_matrix, i32 1), !dbg !3365
  %call38 = call dereferenceable(8) double* @_ZN6dealii6TensorILi1ELi3EEixEj(%"class.dealii::Tensor.21"* %call37, i32 2), !dbg !3365
  %30 = load double, double* %call38, align 8, !dbg !3366
  %add39 = fadd double %30, %29, !dbg !3366
  store double %add39, double* %call38, align 8, !dbg !3366
  %call40 = call dereferenceable(24) %"class.dealii::Tensor.21"* @_ZN6dealii6TensorILi2ELi3EEixEj(%"class.dealii::Tensor"* %coefficient_matrix, i32 2), !dbg !3367
  %call41 = call dereferenceable(8) double* @_ZN6dealii6TensorILi1ELi3EEixEj(%"class.dealii::Tensor.21"* %call40, i32 2), !dbg !3367
  %31 = load double, double* %call41, align 8, !dbg !3368
  %add42 = fadd double %31, 1.000000e+00, !dbg !3368
  store double %add42, double* %call41, align 8, !dbg !3368
  %32 = load double, double* %y, align 8, !dbg !3369
  %33 = load double, double* %x, align 8, !dbg !3370
  %mul43 = fmul double %32, %33, !dbg !3371
  %34 = load double, double* %x, align 8, !dbg !3372
  %mul44 = fmul double %mul43, %34, !dbg !3373
  %call45 = call dereferenceable(8) double* @_ZN6dealii6TensorILi1ELi3EEixEj(%"class.dealii::Tensor.21"* %rhs, i32 0), !dbg !3374
  %35 = load double, double* %call45, align 8, !dbg !3375
  %add46 = fadd double %35, %mul44, !dbg !3375
  store double %add46, double* %call45, align 8, !dbg !3375
  %36 = load double, double* %y, align 8, !dbg !3376
  %37 = load double, double* %x, align 8, !dbg !3377
  %mul47 = fmul double %36, %37, !dbg !3378
  %call48 = call dereferenceable(8) double* @_ZN6dealii6TensorILi1ELi3EEixEj(%"class.dealii::Tensor.21"* %rhs, i32 1), !dbg !3379
  %38 = load double, double* %call48, align 8, !dbg !3380
  %add49 = fadd double %38, %mul47, !dbg !3380
  store double %add49, double* %call48, align 8, !dbg !3380
  %39 = load double, double* %y, align 8, !dbg !3381
  %call50 = call dereferenceable(8) double* @_ZN6dealii6TensorILi1ELi3EEixEj(%"class.dealii::Tensor.21"* %rhs, i32 2), !dbg !3382
  %40 = load double, double* %call50, align 8, !dbg !3383
  %add51 = fadd double %40, %39, !dbg !3383
  store double %add51, double* %call50, align 8, !dbg !3383
  br label %for.inc, !dbg !3384

for.inc:                                          ; preds = %for.body
  %41 = load i32, i32* %n, align 4, !dbg !3385
  %inc = add i32 %41, 1, !dbg !3385
  store i32 %inc, i32* %n, align 4, !dbg !3385
  br label %for.cond, !dbg !3386, !llvm.loop !3387

for.end:                                          ; preds = %for.cond
  call void @llvm.dbg.declare(metadata %"class.dealii::Tensor.21"* %solution, metadata !3389, metadata !DIExpression()), !dbg !3390
  call void @_ZN6dealii6TensorILi1ELi3EEC2Eb(%"class.dealii::Tensor.21"* %solution, i1 zeroext true), !dbg !3390
  call void @_ZN6dealii6invertILi3EEENS_6TensorILi2EXT_EEERKS2_(%"class.dealii::Tensor"* sret %ref.tmp, %"class.dealii::Tensor"* dereferenceable(72) %coefficient_matrix), !dbg !3391
  call void @_ZN6dealii8contractILi3EEEvRNS_6TensorILi1EXT_EEERKNS1_ILi2EXT_EEERKS2_(%"class.dealii::Tensor.21"* dereferenceable(24) %solution, %"class.dealii::Tensor"* dereferenceable(72) %ref.tmp, %"class.dealii::Tensor.21"* dereferenceable(24) %rhs), !dbg !3392
  call void @llvm.dbg.declare(metadata double* %a, metadata !3393, metadata !DIExpression()), !dbg !3394
  %call52 = call dereferenceable(8) double* @_ZN6dealii6TensorILi1ELi3EEixEj(%"class.dealii::Tensor.21"* %solution, i32 0), !dbg !3395
  %42 = load double, double* %call52, align 8, !dbg !3395
  store double %42, double* %a, align 8, !dbg !3394
  call void @llvm.dbg.declare(metadata double* %b, metadata !3396, metadata !DIExpression()), !dbg !3397
  %call53 = call dereferenceable(8) double* @_ZN6dealii6TensorILi1ELi3EEixEj(%"class.dealii::Tensor.21"* %solution, i32 1), !dbg !3398
  %43 = load double, double* %call53, align 8, !dbg !3398
  store double %43, double* %b, align 8, !dbg !3397
  call void @llvm.dbg.declare(metadata double* %c, metadata !3399, metadata !DIExpression()), !dbg !3400
  %call54 = call dereferenceable(8) double* @_ZN6dealii6TensorILi1ELi3EEixEj(%"class.dealii::Tensor.21"* %solution, i32 2), !dbg !3401
  %44 = load double, double* %call54, align 8, !dbg !3401
  store double %44, double* %c, align 8, !dbg !3400
  call void @llvm.dbg.declare(metadata double* %extremum, metadata !3402, metadata !DIExpression()), !dbg !3403
  %45 = load double, double* %b, align 8, !dbg !3404
  %fneg = fneg double %45, !dbg !3405
  %div = fdiv double %fneg, 2.000000e+00, !dbg !3406
  %46 = load double, double* %a, align 8, !dbg !3407
  %div55 = fdiv double %div, %46, !dbg !3408
  store double %div55, double* %extremum, align 8, !dbg !3403
  call void @llvm.dbg.declare(metadata double* %extremal_value, metadata !3409, metadata !DIExpression()), !dbg !3410
  %47 = load double, double* %a, align 8, !dbg !3411
  %48 = load double, double* %extremum, align 8, !dbg !3412
  %mul56 = fmul double %47, %48, !dbg !3413
  %49 = load double, double* %extremum, align 8, !dbg !3414
  %mul57 = fmul double %mul56, %49, !dbg !3415
  %50 = load double, double* %b, align 8, !dbg !3416
  %51 = load double, double* %extremum, align 8, !dbg !3417
  %mul58 = fmul double %50, %51, !dbg !3418
  %add59 = fadd double %mul57, %mul58, !dbg !3419
  %52 = load double, double* %c, align 8, !dbg !3420
  %add60 = fadd double %add59, %52, !dbg !3421
  store double %add60, double* %extremal_value, align 8, !dbg !3410
  %53 = load double, double* %a, align 8, !dbg !3422
  %cmp61 = fcmp ole double %53, 0.000000e+00, !dbg !3424
  br i1 %cmp61, label %if.then, label %lor.lhs.false, !dbg !3425

lor.lhs.false:                                    ; preds = %for.end
  %54 = load double, double* %extremal_value, align 8, !dbg !3426
  %initial_residual = getelementptr inbounds %"class.libparest::Master::StepLengthControl::LineSearch", %"class.libparest::Master::StepLengthControl::LineSearch"* %this1, i32 0, i32 2, !dbg !3427
  %55 = load double, double* %initial_residual, align 8, !dbg !3427
  %cmp62 = fcmp ogt double %54, %55, !dbg !3428
  br i1 %cmp62, label %if.then, label %lor.lhs.false63, !dbg !3429

lor.lhs.false63:                                  ; preds = %lor.lhs.false
  %56 = load double, double* %extremal_value, align 8, !dbg !3430
  %call64 = call double @_ZNK9libparest6Master17StepLengthControl10LineSearch21min_computed_residualEv(%"class.libparest::Master::StepLengthControl::LineSearch"* %this1), !dbg !3431
  %mul65 = fmul double 1.200000e+00, %call64, !dbg !3432
  %cmp66 = fcmp ogt double %56, %mul65, !dbg !3433
  br i1 %cmp66, label %if.then, label %if.end, !dbg !3434

if.then:                                          ; preds = %lor.lhs.false63, %lor.lhs.false, %for.end
  %57 = bitcast %"struct.std::pair"* %retval to i8*, !dbg !3435
  call void @llvm.memcpy.p0i8.p0i8.i64(i8* align 8 %57, i8* align 8 bitcast (%"struct.std::pair"* @_ZN9libparest6Master17StepLengthControl10LineSearch15invalid_minimumE to i8*), i64 16, i1 false), !dbg !3435
  br label %return, !dbg !3436

if.end:                                           ; preds = %lor.lhs.false63
  call void @llvm.dbg.declare(metadata double* %expected_residual, metadata !3437, metadata !DIExpression()), !dbg !3438
  %58 = load double, double* %extremal_value, align 8, !dbg !3439
  %cmp67 = fcmp ogt double %58, 0.000000e+00, !dbg !3440
  br i1 %cmp67, label %cond.true, label %cond.false, !dbg !3439

cond.true:                                        ; preds = %if.end
  %59 = load double, double* %extremal_value, align 8, !dbg !3441
  br label %cond.end, !dbg !3439

cond.false:                                       ; preds = %if.end
  %60 = load double, double* %extremum, align 8, !dbg !3442
  %call68 = call double @_ZNK9libparest6Master17StepLengthControl10LineSearch16nearest_residualEd(%"class.libparest::Master::StepLengthControl::LineSearch"* %this1, double %60), !dbg !3443
  %div69 = fdiv double %call68, 5.000000e+00, !dbg !3444
  br label %cond.end, !dbg !3439

cond.end:                                         ; preds = %cond.false, %cond.true
  %cond = phi double [ %59, %cond.true ], [ %div69, %cond.false ], !dbg !3439
  store double %cond, double* %expected_residual, align 8, !dbg !3438
  %call70 = call { double, double } @_ZSt9make_pairIRKdS1_ESt4pairINSt25__strip_reference_wrapperINSt5decayIT_E4typeEE6__typeENS3_INS4_IT0_E4typeEE6__typeEEOS5_OSA_(double* dereferenceable(8) %extremum, double* dereferenceable(8) %expected_residual), !dbg !3445
  %61 = bitcast %"struct.std::pair"* %retval to { double, double }*, !dbg !3445
  %62 = getelementptr inbounds { double, double }, { double, double }* %61, i32 0, i32 0, !dbg !3445
  %63 = extractvalue { double, double } %call70, 0, !dbg !3445
  store double %63, double* %62, align 8, !dbg !3445
  %64 = getelementptr inbounds { double, double }, { double, double }* %61, i32 0, i32 1, !dbg !3445
  %65 = extractvalue { double, double } %call70, 1, !dbg !3445
  store double %65, double* %64, align 8, !dbg !3445
  br label %return, !dbg !3446

return:                                           ; preds = %cond.end, %if.then
  %66 = bitcast %"struct.std::pair"* %retval to { double, double }*, !dbg !3447
  %67 = load { double, double }, { double, double }* %66, align 8, !dbg !3447
  ret { double, double } %67, !dbg !3447
}

; Function Attrs: noinline uwtable
define linkonce_odr dso_local void @_ZN6dealii6TensorILi2ELi3EEC2Ev(%"class.dealii::Tensor"* %this) unnamed_addr #0 comdat align 2 !dbg !3448 {
entry:
  %this.addr = alloca %"class.dealii::Tensor"*, align 8
  store %"class.dealii::Tensor"* %this, %"class.dealii::Tensor"** %this.addr, align 8
  call void @llvm.dbg.declare(metadata %"class.dealii::Tensor"** %this.addr, metadata !3449, metadata !DIExpression()), !dbg !3451
  %this1 = load %"class.dealii::Tensor"*, %"class.dealii::Tensor"** %this.addr, align 8
  %subtensor = getelementptr inbounds %"class.dealii::Tensor", %"class.dealii::Tensor"* %this1, i32 0, i32 0, !dbg !3452
  %array.begin = getelementptr inbounds [3 x %"class.dealii::Tensor.21"], [3 x %"class.dealii::Tensor.21"]* %subtensor, i32 0, i32 0, !dbg !3452
  %arrayctor.end = getelementptr inbounds %"class.dealii::Tensor.21", %"class.dealii::Tensor.21"* %array.begin, i64 3, !dbg !3452
  br label %arrayctor.loop, !dbg !3452

arrayctor.loop:                                   ; preds = %arrayctor.loop, %entry
  %arrayctor.cur = phi %"class.dealii::Tensor.21"* [ %array.begin, %entry ], [ %arrayctor.next, %arrayctor.loop ], !dbg !3452
  call void @_ZN6dealii6TensorILi1ELi3EEC2Eb(%"class.dealii::Tensor.21"* %arrayctor.cur, i1 zeroext true), !dbg !3452
  %arrayctor.next = getelementptr inbounds %"class.dealii::Tensor.21", %"class.dealii::Tensor.21"* %arrayctor.cur, i64 1, !dbg !3452
  %arrayctor.done = icmp eq %"class.dealii::Tensor.21"* %arrayctor.next, %arrayctor.end, !dbg !3452
  br i1 %arrayctor.done, label %arrayctor.cont, label %arrayctor.loop, !dbg !3452

arrayctor.cont:                                   ; preds = %arrayctor.loop
  ret void, !dbg !3453
}

; Function Attrs: noinline nounwind uwtable
define linkonce_odr dso_local void @_ZN6dealii6TensorILi1ELi3EEC2Eb(%"class.dealii::Tensor.21"* %this, i1 zeroext %initialize) unnamed_addr #1 comdat align 2 !dbg !3454 {
entry:
  %this.addr = alloca %"class.dealii::Tensor.21"*, align 8
  %initialize.addr = alloca i8, align 1
  %i = alloca i32, align 4
  store %"class.dealii::Tensor.21"* %this, %"class.dealii::Tensor.21"** %this.addr, align 8
  call void @llvm.dbg.declare(metadata %"class.dealii::Tensor.21"** %this.addr, metadata !3455, metadata !DIExpression()), !dbg !3457
  %frombool = zext i1 %initialize to i8
  store i8 %frombool, i8* %initialize.addr, align 1
  call void @llvm.dbg.declare(metadata i8* %initialize.addr, metadata !3458, metadata !DIExpression()), !dbg !3459
  %this1 = load %"class.dealii::Tensor.21"*, %"class.dealii::Tensor.21"** %this.addr, align 8
  %0 = load i8, i8* %initialize.addr, align 1, !dbg !3460
  %tobool = trunc i8 %0 to i1, !dbg !3460
  br i1 %tobool, label %if.then, label %if.end, !dbg !3463

if.then:                                          ; preds = %entry
  call void @llvm.dbg.declare(metadata i32* %i, metadata !3464, metadata !DIExpression()), !dbg !3466
  store i32 0, i32* %i, align 4, !dbg !3466
  br label %for.cond, !dbg !3467

for.cond:                                         ; preds = %for.inc, %if.then
  %1 = load i32, i32* %i, align 4, !dbg !3468
  %cmp = icmp ne i32 %1, 3, !dbg !3470
  br i1 %cmp, label %for.body, label %for.end, !dbg !3471

for.body:                                         ; preds = %for.cond
  %values = getelementptr inbounds %"class.dealii::Tensor.21", %"class.dealii::Tensor.21"* %this1, i32 0, i32 0, !dbg !3472
  %2 = load i32, i32* %i, align 4, !dbg !3473
  %idxprom = zext i32 %2 to i64, !dbg !3472
  %arrayidx = getelementptr inbounds [3 x double], [3 x double]* %values, i64 0, i64 %idxprom, !dbg !3472
  store double 0.000000e+00, double* %arrayidx, align 8, !dbg !3474
  br label %for.inc, !dbg !3472

for.inc:                                          ; preds = %for.body
  %3 = load i32, i32* %i, align 4, !dbg !3475
  %inc = add i32 %3, 1, !dbg !3475
  store i32 %inc, i32* %i, align 4, !dbg !3475
  br label %for.cond, !dbg !3476, !llvm.loop !3477

for.end:                                          ; preds = %for.cond
  br label %if.end, !dbg !3478

if.end:                                           ; preds = %for.end, %entry
  ret void, !dbg !3479
}

; Function Attrs: noinline nounwind uwtable
define linkonce_odr dso_local dereferenceable(24) %"class.dealii::Tensor.21"* @_ZN6dealii6TensorILi2ELi3EEixEj(%"class.dealii::Tensor"* %this, i32 %i) #1 comdat align 2 !dbg !3480 {
entry:
  %this.addr = alloca %"class.dealii::Tensor"*, align 8
  %i.addr = alloca i32, align 4
  store %"class.dealii::Tensor"* %this, %"class.dealii::Tensor"** %this.addr, align 8
  call void @llvm.dbg.declare(metadata %"class.dealii::Tensor"** %this.addr, metadata !3481, metadata !DIExpression()), !dbg !3482
  store i32 %i, i32* %i.addr, align 4
  call void @llvm.dbg.declare(metadata i32* %i.addr, metadata !3483, metadata !DIExpression()), !dbg !3484
  %this1 = load %"class.dealii::Tensor"*, %"class.dealii::Tensor"** %this.addr, align 8
  %subtensor = getelementptr inbounds %"class.dealii::Tensor", %"class.dealii::Tensor"* %this1, i32 0, i32 0, !dbg !3485
  %0 = load i32, i32* %i.addr, align 4, !dbg !3486
  %idxprom = zext i32 %0 to i64, !dbg !3485
  %arrayidx = getelementptr inbounds [3 x %"class.dealii::Tensor.21"], [3 x %"class.dealii::Tensor.21"]* %subtensor, i64 0, i64 %idxprom, !dbg !3485
  ret %"class.dealii::Tensor.21"* %arrayidx, !dbg !3487
}

; Function Attrs: noinline nounwind uwtable
define linkonce_odr dso_local dereferenceable(8) double* @_ZN6dealii6TensorILi1ELi3EEixEj(%"class.dealii::Tensor.21"* %this, i32 %index) #1 comdat align 2 !dbg !3488 {
entry:
  %this.addr = alloca %"class.dealii::Tensor.21"*, align 8
  %index.addr = alloca i32, align 4
  store %"class.dealii::Tensor.21"* %this, %"class.dealii::Tensor.21"** %this.addr, align 8
  call void @llvm.dbg.declare(metadata %"class.dealii::Tensor.21"** %this.addr, metadata !3489, metadata !DIExpression()), !dbg !3490
  store i32 %index, i32* %index.addr, align 4
  call void @llvm.dbg.declare(metadata i32* %index.addr, metadata !3491, metadata !DIExpression()), !dbg !3492
  %this1 = load %"class.dealii::Tensor.21"*, %"class.dealii::Tensor.21"** %this.addr, align 8
  %values = getelementptr inbounds %"class.dealii::Tensor.21", %"class.dealii::Tensor.21"* %this1, i32 0, i32 0, !dbg !3493
  %0 = load i32, i32* %index.addr, align 4, !dbg !3494
  %idxprom = zext i32 %0 to i64, !dbg !3493
  %arrayidx = getelementptr inbounds [3 x double], [3 x double]* %values, i64 0, i64 %idxprom, !dbg !3493
  ret double* %arrayidx, !dbg !3495
}

; Function Attrs: noinline uwtable
define linkonce_odr dso_local void @_ZN6dealii8contractILi3EEEvRNS_6TensorILi1EXT_EEERKNS1_ILi2EXT_EEERKS2_(%"class.dealii::Tensor.21"* dereferenceable(24) %dest, %"class.dealii::Tensor"* dereferenceable(72) %src1, %"class.dealii::Tensor.21"* dereferenceable(24) %src2) #0 comdat !dbg !3496 {
entry:
  %dest.addr = alloca %"class.dealii::Tensor.21"*, align 8
  %src1.addr = alloca %"class.dealii::Tensor"*, align 8
  %src2.addr = alloca %"class.dealii::Tensor.21"*, align 8
  %i = alloca i32, align 4
  %j = alloca i32, align 4
  store %"class.dealii::Tensor.21"* %dest, %"class.dealii::Tensor.21"** %dest.addr, align 8
  call void @llvm.dbg.declare(metadata %"class.dealii::Tensor.21"** %dest.addr, metadata !3500, metadata !DIExpression()), !dbg !3501
  store %"class.dealii::Tensor"* %src1, %"class.dealii::Tensor"** %src1.addr, align 8
  call void @llvm.dbg.declare(metadata %"class.dealii::Tensor"** %src1.addr, metadata !3502, metadata !DIExpression()), !dbg !3503
  store %"class.dealii::Tensor.21"* %src2, %"class.dealii::Tensor.21"** %src2.addr, align 8
  call void @llvm.dbg.declare(metadata %"class.dealii::Tensor.21"** %src2.addr, metadata !3504, metadata !DIExpression()), !dbg !3505
  %0 = load %"class.dealii::Tensor.21"*, %"class.dealii::Tensor.21"** %dest.addr, align 8, !dbg !3506
  call void @_ZN6dealii6TensorILi1ELi3EE5clearEv(%"class.dealii::Tensor.21"* %0), !dbg !3507
  call void @llvm.dbg.declare(metadata i32* %i, metadata !3508, metadata !DIExpression()), !dbg !3510
  store i32 0, i32* %i, align 4, !dbg !3510
  br label %for.cond, !dbg !3511

for.cond:                                         ; preds = %for.inc7, %entry
  %1 = load i32, i32* %i, align 4, !dbg !3512
  %cmp = icmp ult i32 %1, 3, !dbg !3514
  br i1 %cmp, label %for.body, label %for.end9, !dbg !3515

for.body:                                         ; preds = %for.cond
  call void @llvm.dbg.declare(metadata i32* %j, metadata !3516, metadata !DIExpression()), !dbg !3518
  store i32 0, i32* %j, align 4, !dbg !3518
  br label %for.cond1, !dbg !3519

for.cond1:                                        ; preds = %for.inc, %for.body
  %2 = load i32, i32* %j, align 4, !dbg !3520
  %cmp2 = icmp ult i32 %2, 3, !dbg !3522
  br i1 %cmp2, label %for.body3, label %for.end, !dbg !3523

for.body3:                                        ; preds = %for.cond1
  %3 = load %"class.dealii::Tensor"*, %"class.dealii::Tensor"** %src1.addr, align 8, !dbg !3524
  %4 = load i32, i32* %i, align 4, !dbg !3525
  %call = call dereferenceable(24) %"class.dealii::Tensor.21"* @_ZNK6dealii6TensorILi2ELi3EEixEj(%"class.dealii::Tensor"* %3, i32 %4), !dbg !3524
  %5 = load i32, i32* %j, align 4, !dbg !3526
  %call4 = call double @_ZNK6dealii6TensorILi1ELi3EEixEj(%"class.dealii::Tensor.21"* %call, i32 %5), !dbg !3524
  %6 = load %"class.dealii::Tensor.21"*, %"class.dealii::Tensor.21"** %src2.addr, align 8, !dbg !3527
  %7 = load i32, i32* %j, align 4, !dbg !3528
  %call5 = call double @_ZNK6dealii6TensorILi1ELi3EEixEj(%"class.dealii::Tensor.21"* %6, i32 %7), !dbg !3527
  %mul = fmul double %call4, %call5, !dbg !3529
  %8 = load %"class.dealii::Tensor.21"*, %"class.dealii::Tensor.21"** %dest.addr, align 8, !dbg !3530
  %9 = load i32, i32* %i, align 4, !dbg !3531
  %call6 = call dereferenceable(8) double* @_ZN6dealii6TensorILi1ELi3EEixEj(%"class.dealii::Tensor.21"* %8, i32 %9), !dbg !3530
  %10 = load double, double* %call6, align 8, !dbg !3532
  %add = fadd double %10, %mul, !dbg !3532
  store double %add, double* %call6, align 8, !dbg !3532
  br label %for.inc, !dbg !3530

for.inc:                                          ; preds = %for.body3
  %11 = load i32, i32* %j, align 4, !dbg !3533
  %inc = add i32 %11, 1, !dbg !3533
  store i32 %inc, i32* %j, align 4, !dbg !3533
  br label %for.cond1, !dbg !3534, !llvm.loop !3535

for.end:                                          ; preds = %for.cond1
  br label %for.inc7, !dbg !3536

for.inc7:                                         ; preds = %for.end
  %12 = load i32, i32* %i, align 4, !dbg !3537
  %inc8 = add i32 %12, 1, !dbg !3537
  store i32 %inc8, i32* %i, align 4, !dbg !3537
  br label %for.cond, !dbg !3538, !llvm.loop !3539

for.end9:                                         ; preds = %for.cond
  ret void, !dbg !3541
}

; Function Attrs: noinline uwtable
define linkonce_odr dso_local void @_ZN6dealii6invertILi3EEENS_6TensorILi2EXT_EEERKS2_(%"class.dealii::Tensor"* noalias sret %agg.result, %"class.dealii::Tensor"* dereferenceable(72) %t) #0 comdat !dbg !3542 {
entry:
  %result.ptr = alloca i8*, align 8
  %t.addr = alloca %"class.dealii::Tensor"*, align 8
  %t4 = alloca double, align 8
  %t6 = alloca double, align 8
  %t8 = alloca double, align 8
  %t00 = alloca double, align 8
  %t01 = alloca double, align 8
  %t04 = alloca double, align 8
  %t07 = alloca double, align 8
  %0 = bitcast %"class.dealii::Tensor"* %agg.result to i8*
  store i8* %0, i8** %result.ptr, align 8
  store %"class.dealii::Tensor"* %t, %"class.dealii::Tensor"** %t.addr, align 8
  call void @llvm.dbg.declare(metadata %"class.dealii::Tensor"** %t.addr, metadata !3545, metadata !DIExpression()), !dbg !3546
  call void @llvm.dbg.declare(metadata i8** %result.ptr, metadata !3547, metadata !DIExpression(DW_OP_deref)), !dbg !3548
  call void @_ZN6dealii6TensorILi2ELi3EEC2Ev(%"class.dealii::Tensor"* %agg.result), !dbg !3548
  call void @llvm.dbg.declare(metadata double* %t4, metadata !3549, metadata !DIExpression()), !dbg !3550
  %1 = load %"class.dealii::Tensor"*, %"class.dealii::Tensor"** %t.addr, align 8, !dbg !3551
  %call = call dereferenceable(24) %"class.dealii::Tensor.21"* @_ZNK6dealii6TensorILi2ELi3EEixEj(%"class.dealii::Tensor"* %1, i32 0), !dbg !3551
  %call1 = call double @_ZNK6dealii6TensorILi1ELi3EEixEj(%"class.dealii::Tensor.21"* %call, i32 0), !dbg !3551
  %2 = load %"class.dealii::Tensor"*, %"class.dealii::Tensor"** %t.addr, align 8, !dbg !3552
  %call2 = call dereferenceable(24) %"class.dealii::Tensor.21"* @_ZNK6dealii6TensorILi2ELi3EEixEj(%"class.dealii::Tensor"* %2, i32 1), !dbg !3552
  %call3 = call double @_ZNK6dealii6TensorILi1ELi3EEixEj(%"class.dealii::Tensor.21"* %call2, i32 1), !dbg !3552
  %mul = fmul double %call1, %call3, !dbg !3553
  store double %mul, double* %t4, align 8, !dbg !3550
  call void @llvm.dbg.declare(metadata double* %t6, metadata !3554, metadata !DIExpression()), !dbg !3555
  %3 = load %"class.dealii::Tensor"*, %"class.dealii::Tensor"** %t.addr, align 8, !dbg !3556
  %call4 = call dereferenceable(24) %"class.dealii::Tensor.21"* @_ZNK6dealii6TensorILi2ELi3EEixEj(%"class.dealii::Tensor"* %3, i32 0), !dbg !3556
  %call5 = call double @_ZNK6dealii6TensorILi1ELi3EEixEj(%"class.dealii::Tensor.21"* %call4, i32 0), !dbg !3556
  %4 = load %"class.dealii::Tensor"*, %"class.dealii::Tensor"** %t.addr, align 8, !dbg !3557
  %call6 = call dereferenceable(24) %"class.dealii::Tensor.21"* @_ZNK6dealii6TensorILi2ELi3EEixEj(%"class.dealii::Tensor"* %4, i32 1), !dbg !3557
  %call7 = call double @_ZNK6dealii6TensorILi1ELi3EEixEj(%"class.dealii::Tensor.21"* %call6, i32 2), !dbg !3557
  %mul8 = fmul double %call5, %call7, !dbg !3558
  store double %mul8, double* %t6, align 8, !dbg !3555
  call void @llvm.dbg.declare(metadata double* %t8, metadata !3559, metadata !DIExpression()), !dbg !3560
  %5 = load %"class.dealii::Tensor"*, %"class.dealii::Tensor"** %t.addr, align 8, !dbg !3561
  %call9 = call dereferenceable(24) %"class.dealii::Tensor.21"* @_ZNK6dealii6TensorILi2ELi3EEixEj(%"class.dealii::Tensor"* %5, i32 0), !dbg !3561
  %call10 = call double @_ZNK6dealii6TensorILi1ELi3EEixEj(%"class.dealii::Tensor.21"* %call9, i32 1), !dbg !3561
  %6 = load %"class.dealii::Tensor"*, %"class.dealii::Tensor"** %t.addr, align 8, !dbg !3562
  %call11 = call dereferenceable(24) %"class.dealii::Tensor.21"* @_ZNK6dealii6TensorILi2ELi3EEixEj(%"class.dealii::Tensor"* %6, i32 1), !dbg !3562
  %call12 = call double @_ZNK6dealii6TensorILi1ELi3EEixEj(%"class.dealii::Tensor.21"* %call11, i32 0), !dbg !3562
  %mul13 = fmul double %call10, %call12, !dbg !3563
  store double %mul13, double* %t8, align 8, !dbg !3560
  call void @llvm.dbg.declare(metadata double* %t00, metadata !3564, metadata !DIExpression()), !dbg !3565
  %7 = load %"class.dealii::Tensor"*, %"class.dealii::Tensor"** %t.addr, align 8, !dbg !3566
  %call14 = call dereferenceable(24) %"class.dealii::Tensor.21"* @_ZNK6dealii6TensorILi2ELi3EEixEj(%"class.dealii::Tensor"* %7, i32 0), !dbg !3566
  %call15 = call double @_ZNK6dealii6TensorILi1ELi3EEixEj(%"class.dealii::Tensor.21"* %call14, i32 2), !dbg !3566
  %8 = load %"class.dealii::Tensor"*, %"class.dealii::Tensor"** %t.addr, align 8, !dbg !3567
  %call16 = call dereferenceable(24) %"class.dealii::Tensor.21"* @_ZNK6dealii6TensorILi2ELi3EEixEj(%"class.dealii::Tensor"* %8, i32 1), !dbg !3567
  %call17 = call double @_ZNK6dealii6TensorILi1ELi3EEixEj(%"class.dealii::Tensor.21"* %call16, i32 0), !dbg !3567
  %mul18 = fmul double %call15, %call17, !dbg !3568
  store double %mul18, double* %t00, align 8, !dbg !3565
  call void @llvm.dbg.declare(metadata double* %t01, metadata !3569, metadata !DIExpression()), !dbg !3570
  %9 = load %"class.dealii::Tensor"*, %"class.dealii::Tensor"** %t.addr, align 8, !dbg !3571
  %call19 = call dereferenceable(24) %"class.dealii::Tensor.21"* @_ZNK6dealii6TensorILi2ELi3EEixEj(%"class.dealii::Tensor"* %9, i32 0), !dbg !3571
  %call20 = call double @_ZNK6dealii6TensorILi1ELi3EEixEj(%"class.dealii::Tensor.21"* %call19, i32 1), !dbg !3571
  %10 = load %"class.dealii::Tensor"*, %"class.dealii::Tensor"** %t.addr, align 8, !dbg !3572
  %call21 = call dereferenceable(24) %"class.dealii::Tensor.21"* @_ZNK6dealii6TensorILi2ELi3EEixEj(%"class.dealii::Tensor"* %10, i32 2), !dbg !3572
  %call22 = call double @_ZNK6dealii6TensorILi1ELi3EEixEj(%"class.dealii::Tensor.21"* %call21, i32 0), !dbg !3572
  %mul23 = fmul double %call20, %call22, !dbg !3573
  store double %mul23, double* %t01, align 8, !dbg !3570
  call void @llvm.dbg.declare(metadata double* %t04, metadata !3574, metadata !DIExpression()), !dbg !3575
  %11 = load %"class.dealii::Tensor"*, %"class.dealii::Tensor"** %t.addr, align 8, !dbg !3576
  %call24 = call dereferenceable(24) %"class.dealii::Tensor.21"* @_ZNK6dealii6TensorILi2ELi3EEixEj(%"class.dealii::Tensor"* %11, i32 0), !dbg !3576
  %call25 = call double @_ZNK6dealii6TensorILi1ELi3EEixEj(%"class.dealii::Tensor.21"* %call24, i32 2), !dbg !3576
  %12 = load %"class.dealii::Tensor"*, %"class.dealii::Tensor"** %t.addr, align 8, !dbg !3577
  %call26 = call dereferenceable(24) %"class.dealii::Tensor.21"* @_ZNK6dealii6TensorILi2ELi3EEixEj(%"class.dealii::Tensor"* %12, i32 2), !dbg !3577
  %call27 = call double @_ZNK6dealii6TensorILi1ELi3EEixEj(%"class.dealii::Tensor.21"* %call26, i32 0), !dbg !3577
  %mul28 = fmul double %call25, %call27, !dbg !3578
  store double %mul28, double* %t04, align 8, !dbg !3575
  call void @llvm.dbg.declare(metadata double* %t07, metadata !3579, metadata !DIExpression()), !dbg !3580
  %13 = load double, double* %t4, align 8, !dbg !3581
  %14 = load %"class.dealii::Tensor"*, %"class.dealii::Tensor"** %t.addr, align 8, !dbg !3582
  %call29 = call dereferenceable(24) %"class.dealii::Tensor.21"* @_ZNK6dealii6TensorILi2ELi3EEixEj(%"class.dealii::Tensor"* %14, i32 2), !dbg !3582
  %call30 = call double @_ZNK6dealii6TensorILi1ELi3EEixEj(%"class.dealii::Tensor.21"* %call29, i32 2), !dbg !3582
  %mul31 = fmul double %13, %call30, !dbg !3583
  %15 = load double, double* %t6, align 8, !dbg !3584
  %16 = load %"class.dealii::Tensor"*, %"class.dealii::Tensor"** %t.addr, align 8, !dbg !3585
  %call32 = call dereferenceable(24) %"class.dealii::Tensor.21"* @_ZNK6dealii6TensorILi2ELi3EEixEj(%"class.dealii::Tensor"* %16, i32 2), !dbg !3585
  %call33 = call double @_ZNK6dealii6TensorILi1ELi3EEixEj(%"class.dealii::Tensor.21"* %call32, i32 1), !dbg !3585
  %mul34 = fmul double %15, %call33, !dbg !3586
  %sub = fsub double %mul31, %mul34, !dbg !3587
  %17 = load double, double* %t8, align 8, !dbg !3588
  %18 = load %"class.dealii::Tensor"*, %"class.dealii::Tensor"** %t.addr, align 8, !dbg !3589
  %call35 = call dereferenceable(24) %"class.dealii::Tensor.21"* @_ZNK6dealii6TensorILi2ELi3EEixEj(%"class.dealii::Tensor"* %18, i32 2), !dbg !3589
  %call36 = call double @_ZNK6dealii6TensorILi1ELi3EEixEj(%"class.dealii::Tensor.21"* %call35, i32 2), !dbg !3589
  %mul37 = fmul double %17, %call36, !dbg !3590
  %sub38 = fsub double %sub, %mul37, !dbg !3591
  %19 = load double, double* %t00, align 8, !dbg !3592
  %20 = load %"class.dealii::Tensor"*, %"class.dealii::Tensor"** %t.addr, align 8, !dbg !3593
  %call39 = call dereferenceable(24) %"class.dealii::Tensor.21"* @_ZNK6dealii6TensorILi2ELi3EEixEj(%"class.dealii::Tensor"* %20, i32 2), !dbg !3593
  %call40 = call double @_ZNK6dealii6TensorILi1ELi3EEixEj(%"class.dealii::Tensor.21"* %call39, i32 1), !dbg !3593
  %mul41 = fmul double %19, %call40, !dbg !3594
  %add = fadd double %sub38, %mul41, !dbg !3595
  %21 = load double, double* %t01, align 8, !dbg !3596
  %22 = load %"class.dealii::Tensor"*, %"class.dealii::Tensor"** %t.addr, align 8, !dbg !3597
  %call42 = call dereferenceable(24) %"class.dealii::Tensor.21"* @_ZNK6dealii6TensorILi2ELi3EEixEj(%"class.dealii::Tensor"* %22, i32 1), !dbg !3597
  %call43 = call double @_ZNK6dealii6TensorILi1ELi3EEixEj(%"class.dealii::Tensor.21"* %call42, i32 2), !dbg !3597
  %mul44 = fmul double %21, %call43, !dbg !3598
  %add45 = fadd double %add, %mul44, !dbg !3599
  %23 = load double, double* %t04, align 8, !dbg !3600
  %24 = load %"class.dealii::Tensor"*, %"class.dealii::Tensor"** %t.addr, align 8, !dbg !3601
  %call46 = call dereferenceable(24) %"class.dealii::Tensor.21"* @_ZNK6dealii6TensorILi2ELi3EEixEj(%"class.dealii::Tensor"* %24, i32 1), !dbg !3601
  %call47 = call double @_ZNK6dealii6TensorILi1ELi3EEixEj(%"class.dealii::Tensor.21"* %call46, i32 1), !dbg !3601
  %mul48 = fmul double %23, %call47, !dbg !3602
  %sub49 = fsub double %add45, %mul48, !dbg !3603
  %div = fdiv double 1.000000e+00, %sub49, !dbg !3604
  store double %div, double* %t07, align 8, !dbg !3580
  %25 = load %"class.dealii::Tensor"*, %"class.dealii::Tensor"** %t.addr, align 8, !dbg !3605
  %call50 = call dereferenceable(24) %"class.dealii::Tensor.21"* @_ZNK6dealii6TensorILi2ELi3EEixEj(%"class.dealii::Tensor"* %25, i32 1), !dbg !3605
  %call51 = call double @_ZNK6dealii6TensorILi1ELi3EEixEj(%"class.dealii::Tensor.21"* %call50, i32 1), !dbg !3605
  %26 = load %"class.dealii::Tensor"*, %"class.dealii::Tensor"** %t.addr, align 8, !dbg !3606
  %call52 = call dereferenceable(24) %"class.dealii::Tensor.21"* @_ZNK6dealii6TensorILi2ELi3EEixEj(%"class.dealii::Tensor"* %26, i32 2), !dbg !3606
  %call53 = call double @_ZNK6dealii6TensorILi1ELi3EEixEj(%"class.dealii::Tensor.21"* %call52, i32 2), !dbg !3606
  %mul54 = fmul double %call51, %call53, !dbg !3607
  %27 = load %"class.dealii::Tensor"*, %"class.dealii::Tensor"** %t.addr, align 8, !dbg !3608
  %call55 = call dereferenceable(24) %"class.dealii::Tensor.21"* @_ZNK6dealii6TensorILi2ELi3EEixEj(%"class.dealii::Tensor"* %27, i32 1), !dbg !3608
  %call56 = call double @_ZNK6dealii6TensorILi1ELi3EEixEj(%"class.dealii::Tensor.21"* %call55, i32 2), !dbg !3608
  %28 = load %"class.dealii::Tensor"*, %"class.dealii::Tensor"** %t.addr, align 8, !dbg !3609
  %call57 = call dereferenceable(24) %"class.dealii::Tensor.21"* @_ZNK6dealii6TensorILi2ELi3EEixEj(%"class.dealii::Tensor"* %28, i32 2), !dbg !3609
  %call58 = call double @_ZNK6dealii6TensorILi1ELi3EEixEj(%"class.dealii::Tensor.21"* %call57, i32 1), !dbg !3609
  %mul59 = fmul double %call56, %call58, !dbg !3610
  %sub60 = fsub double %mul54, %mul59, !dbg !3611
  %29 = load double, double* %t07, align 8, !dbg !3612
  %mul61 = fmul double %sub60, %29, !dbg !3613
  %call62 = call dereferenceable(24) %"class.dealii::Tensor.21"* @_ZN6dealii6TensorILi2ELi3EEixEj(%"class.dealii::Tensor"* %agg.result, i32 0), !dbg !3614
  %call63 = call dereferenceable(8) double* @_ZN6dealii6TensorILi1ELi3EEixEj(%"class.dealii::Tensor.21"* %call62, i32 0), !dbg !3614
  store double %mul61, double* %call63, align 8, !dbg !3615
  %30 = load %"class.dealii::Tensor"*, %"class.dealii::Tensor"** %t.addr, align 8, !dbg !3616
  %call64 = call dereferenceable(24) %"class.dealii::Tensor.21"* @_ZNK6dealii6TensorILi2ELi3EEixEj(%"class.dealii::Tensor"* %30, i32 0), !dbg !3616
  %call65 = call double @_ZNK6dealii6TensorILi1ELi3EEixEj(%"class.dealii::Tensor.21"* %call64, i32 1), !dbg !3616
  %31 = load %"class.dealii::Tensor"*, %"class.dealii::Tensor"** %t.addr, align 8, !dbg !3617
  %call66 = call dereferenceable(24) %"class.dealii::Tensor.21"* @_ZNK6dealii6TensorILi2ELi3EEixEj(%"class.dealii::Tensor"* %31, i32 2), !dbg !3617
  %call67 = call double @_ZNK6dealii6TensorILi1ELi3EEixEj(%"class.dealii::Tensor.21"* %call66, i32 2), !dbg !3617
  %mul68 = fmul double %call65, %call67, !dbg !3618
  %32 = load %"class.dealii::Tensor"*, %"class.dealii::Tensor"** %t.addr, align 8, !dbg !3619
  %call69 = call dereferenceable(24) %"class.dealii::Tensor.21"* @_ZNK6dealii6TensorILi2ELi3EEixEj(%"class.dealii::Tensor"* %32, i32 0), !dbg !3619
  %call70 = call double @_ZNK6dealii6TensorILi1ELi3EEixEj(%"class.dealii::Tensor.21"* %call69, i32 2), !dbg !3619
  %33 = load %"class.dealii::Tensor"*, %"class.dealii::Tensor"** %t.addr, align 8, !dbg !3620
  %call71 = call dereferenceable(24) %"class.dealii::Tensor.21"* @_ZNK6dealii6TensorILi2ELi3EEixEj(%"class.dealii::Tensor"* %33, i32 2), !dbg !3620
  %call72 = call double @_ZNK6dealii6TensorILi1ELi3EEixEj(%"class.dealii::Tensor.21"* %call71, i32 1), !dbg !3620
  %mul73 = fmul double %call70, %call72, !dbg !3621
  %sub74 = fsub double %mul68, %mul73, !dbg !3622
  %fneg = fneg double %sub74, !dbg !3623
  %34 = load double, double* %t07, align 8, !dbg !3624
  %mul75 = fmul double %fneg, %34, !dbg !3625
  %call76 = call dereferenceable(24) %"class.dealii::Tensor.21"* @_ZN6dealii6TensorILi2ELi3EEixEj(%"class.dealii::Tensor"* %agg.result, i32 0), !dbg !3626
  %call77 = call dereferenceable(8) double* @_ZN6dealii6TensorILi1ELi3EEixEj(%"class.dealii::Tensor.21"* %call76, i32 1), !dbg !3626
  store double %mul75, double* %call77, align 8, !dbg !3627
  %35 = load %"class.dealii::Tensor"*, %"class.dealii::Tensor"** %t.addr, align 8, !dbg !3628
  %call78 = call dereferenceable(24) %"class.dealii::Tensor.21"* @_ZNK6dealii6TensorILi2ELi3EEixEj(%"class.dealii::Tensor"* %35, i32 0), !dbg !3628
  %call79 = call double @_ZNK6dealii6TensorILi1ELi3EEixEj(%"class.dealii::Tensor.21"* %call78, i32 1), !dbg !3628
  %fneg80 = fneg double %call79, !dbg !3629
  %36 = load %"class.dealii::Tensor"*, %"class.dealii::Tensor"** %t.addr, align 8, !dbg !3630
  %call81 = call dereferenceable(24) %"class.dealii::Tensor.21"* @_ZNK6dealii6TensorILi2ELi3EEixEj(%"class.dealii::Tensor"* %36, i32 1), !dbg !3630
  %call82 = call double @_ZNK6dealii6TensorILi1ELi3EEixEj(%"class.dealii::Tensor.21"* %call81, i32 2), !dbg !3630
  %mul83 = fmul double %fneg80, %call82, !dbg !3631
  %37 = load %"class.dealii::Tensor"*, %"class.dealii::Tensor"** %t.addr, align 8, !dbg !3632
  %call84 = call dereferenceable(24) %"class.dealii::Tensor.21"* @_ZNK6dealii6TensorILi2ELi3EEixEj(%"class.dealii::Tensor"* %37, i32 0), !dbg !3632
  %call85 = call double @_ZNK6dealii6TensorILi1ELi3EEixEj(%"class.dealii::Tensor.21"* %call84, i32 2), !dbg !3632
  %38 = load %"class.dealii::Tensor"*, %"class.dealii::Tensor"** %t.addr, align 8, !dbg !3633
  %call86 = call dereferenceable(24) %"class.dealii::Tensor.21"* @_ZNK6dealii6TensorILi2ELi3EEixEj(%"class.dealii::Tensor"* %38, i32 1), !dbg !3633
  %call87 = call double @_ZNK6dealii6TensorILi1ELi3EEixEj(%"class.dealii::Tensor.21"* %call86, i32 1), !dbg !3633
  %mul88 = fmul double %call85, %call87, !dbg !3634
  %add89 = fadd double %mul83, %mul88, !dbg !3635
  %fneg90 = fneg double %add89, !dbg !3636
  %39 = load double, double* %t07, align 8, !dbg !3637
  %mul91 = fmul double %fneg90, %39, !dbg !3638
  %call92 = call dereferenceable(24) %"class.dealii::Tensor.21"* @_ZN6dealii6TensorILi2ELi3EEixEj(%"class.dealii::Tensor"* %agg.result, i32 0), !dbg !3639
  %call93 = call dereferenceable(8) double* @_ZN6dealii6TensorILi1ELi3EEixEj(%"class.dealii::Tensor.21"* %call92, i32 2), !dbg !3639
  store double %mul91, double* %call93, align 8, !dbg !3640
  %40 = load %"class.dealii::Tensor"*, %"class.dealii::Tensor"** %t.addr, align 8, !dbg !3641
  %call94 = call dereferenceable(24) %"class.dealii::Tensor.21"* @_ZNK6dealii6TensorILi2ELi3EEixEj(%"class.dealii::Tensor"* %40, i32 1), !dbg !3641
  %call95 = call double @_ZNK6dealii6TensorILi1ELi3EEixEj(%"class.dealii::Tensor.21"* %call94, i32 0), !dbg !3641
  %41 = load %"class.dealii::Tensor"*, %"class.dealii::Tensor"** %t.addr, align 8, !dbg !3642
  %call96 = call dereferenceable(24) %"class.dealii::Tensor.21"* @_ZNK6dealii6TensorILi2ELi3EEixEj(%"class.dealii::Tensor"* %41, i32 2), !dbg !3642
  %call97 = call double @_ZNK6dealii6TensorILi1ELi3EEixEj(%"class.dealii::Tensor.21"* %call96, i32 2), !dbg !3642
  %mul98 = fmul double %call95, %call97, !dbg !3643
  %42 = load %"class.dealii::Tensor"*, %"class.dealii::Tensor"** %t.addr, align 8, !dbg !3644
  %call99 = call dereferenceable(24) %"class.dealii::Tensor.21"* @_ZNK6dealii6TensorILi2ELi3EEixEj(%"class.dealii::Tensor"* %42, i32 1), !dbg !3644
  %call100 = call double @_ZNK6dealii6TensorILi1ELi3EEixEj(%"class.dealii::Tensor.21"* %call99, i32 2), !dbg !3644
  %43 = load %"class.dealii::Tensor"*, %"class.dealii::Tensor"** %t.addr, align 8, !dbg !3645
  %call101 = call dereferenceable(24) %"class.dealii::Tensor.21"* @_ZNK6dealii6TensorILi2ELi3EEixEj(%"class.dealii::Tensor"* %43, i32 2), !dbg !3645
  %call102 = call double @_ZNK6dealii6TensorILi1ELi3EEixEj(%"class.dealii::Tensor.21"* %call101, i32 0), !dbg !3645
  %mul103 = fmul double %call100, %call102, !dbg !3646
  %sub104 = fsub double %mul98, %mul103, !dbg !3647
  %fneg105 = fneg double %sub104, !dbg !3648
  %44 = load double, double* %t07, align 8, !dbg !3649
  %mul106 = fmul double %fneg105, %44, !dbg !3650
  %call107 = call dereferenceable(24) %"class.dealii::Tensor.21"* @_ZN6dealii6TensorILi2ELi3EEixEj(%"class.dealii::Tensor"* %agg.result, i32 1), !dbg !3651
  %call108 = call dereferenceable(8) double* @_ZN6dealii6TensorILi1ELi3EEixEj(%"class.dealii::Tensor.21"* %call107, i32 0), !dbg !3651
  store double %mul106, double* %call108, align 8, !dbg !3652
  %45 = load %"class.dealii::Tensor"*, %"class.dealii::Tensor"** %t.addr, align 8, !dbg !3653
  %call109 = call dereferenceable(24) %"class.dealii::Tensor.21"* @_ZNK6dealii6TensorILi2ELi3EEixEj(%"class.dealii::Tensor"* %45, i32 0), !dbg !3653
  %call110 = call double @_ZNK6dealii6TensorILi1ELi3EEixEj(%"class.dealii::Tensor.21"* %call109, i32 0), !dbg !3653
  %46 = load %"class.dealii::Tensor"*, %"class.dealii::Tensor"** %t.addr, align 8, !dbg !3654
  %call111 = call dereferenceable(24) %"class.dealii::Tensor.21"* @_ZNK6dealii6TensorILi2ELi3EEixEj(%"class.dealii::Tensor"* %46, i32 2), !dbg !3654
  %call112 = call double @_ZNK6dealii6TensorILi1ELi3EEixEj(%"class.dealii::Tensor.21"* %call111, i32 2), !dbg !3654
  %mul113 = fmul double %call110, %call112, !dbg !3655
  %47 = load double, double* %t04, align 8, !dbg !3656
  %sub114 = fsub double %mul113, %47, !dbg !3657
  %48 = load double, double* %t07, align 8, !dbg !3658
  %mul115 = fmul double %sub114, %48, !dbg !3659
  %call116 = call dereferenceable(24) %"class.dealii::Tensor.21"* @_ZN6dealii6TensorILi2ELi3EEixEj(%"class.dealii::Tensor"* %agg.result, i32 1), !dbg !3660
  %call117 = call dereferenceable(8) double* @_ZN6dealii6TensorILi1ELi3EEixEj(%"class.dealii::Tensor.21"* %call116, i32 1), !dbg !3660
  store double %mul115, double* %call117, align 8, !dbg !3661
  %49 = load double, double* %t6, align 8, !dbg !3662
  %50 = load double, double* %t00, align 8, !dbg !3663
  %sub118 = fsub double %49, %50, !dbg !3664
  %fneg119 = fneg double %sub118, !dbg !3665
  %51 = load double, double* %t07, align 8, !dbg !3666
  %mul120 = fmul double %fneg119, %51, !dbg !3667
  %call121 = call dereferenceable(24) %"class.dealii::Tensor.21"* @_ZN6dealii6TensorILi2ELi3EEixEj(%"class.dealii::Tensor"* %agg.result, i32 1), !dbg !3668
  %call122 = call dereferenceable(8) double* @_ZN6dealii6TensorILi1ELi3EEixEj(%"class.dealii::Tensor.21"* %call121, i32 2), !dbg !3668
  store double %mul120, double* %call122, align 8, !dbg !3669
  %52 = load %"class.dealii::Tensor"*, %"class.dealii::Tensor"** %t.addr, align 8, !dbg !3670
  %call123 = call dereferenceable(24) %"class.dealii::Tensor.21"* @_ZNK6dealii6TensorILi2ELi3EEixEj(%"class.dealii::Tensor"* %52, i32 1), !dbg !3670
  %call124 = call double @_ZNK6dealii6TensorILi1ELi3EEixEj(%"class.dealii::Tensor.21"* %call123, i32 0), !dbg !3670
  %fneg125 = fneg double %call124, !dbg !3671
  %53 = load %"class.dealii::Tensor"*, %"class.dealii::Tensor"** %t.addr, align 8, !dbg !3672
  %call126 = call dereferenceable(24) %"class.dealii::Tensor.21"* @_ZNK6dealii6TensorILi2ELi3EEixEj(%"class.dealii::Tensor"* %53, i32 2), !dbg !3672
  %call127 = call double @_ZNK6dealii6TensorILi1ELi3EEixEj(%"class.dealii::Tensor.21"* %call126, i32 1), !dbg !3672
  %mul128 = fmul double %fneg125, %call127, !dbg !3673
  %54 = load %"class.dealii::Tensor"*, %"class.dealii::Tensor"** %t.addr, align 8, !dbg !3674
  %call129 = call dereferenceable(24) %"class.dealii::Tensor.21"* @_ZNK6dealii6TensorILi2ELi3EEixEj(%"class.dealii::Tensor"* %54, i32 1), !dbg !3674
  %call130 = call double @_ZNK6dealii6TensorILi1ELi3EEixEj(%"class.dealii::Tensor.21"* %call129, i32 1), !dbg !3674
  %55 = load %"class.dealii::Tensor"*, %"class.dealii::Tensor"** %t.addr, align 8, !dbg !3675
  %call131 = call dereferenceable(24) %"class.dealii::Tensor.21"* @_ZNK6dealii6TensorILi2ELi3EEixEj(%"class.dealii::Tensor"* %55, i32 2), !dbg !3675
  %call132 = call double @_ZNK6dealii6TensorILi1ELi3EEixEj(%"class.dealii::Tensor.21"* %call131, i32 0), !dbg !3675
  %mul133 = fmul double %call130, %call132, !dbg !3676
  %add134 = fadd double %mul128, %mul133, !dbg !3677
  %fneg135 = fneg double %add134, !dbg !3678
  %56 = load double, double* %t07, align 8, !dbg !3679
  %mul136 = fmul double %fneg135, %56, !dbg !3680
  %call137 = call dereferenceable(24) %"class.dealii::Tensor.21"* @_ZN6dealii6TensorILi2ELi3EEixEj(%"class.dealii::Tensor"* %agg.result, i32 2), !dbg !3681
  %call138 = call dereferenceable(8) double* @_ZN6dealii6TensorILi1ELi3EEixEj(%"class.dealii::Tensor.21"* %call137, i32 0), !dbg !3681
  store double %mul136, double* %call138, align 8, !dbg !3682
  %57 = load %"class.dealii::Tensor"*, %"class.dealii::Tensor"** %t.addr, align 8, !dbg !3683
  %call139 = call dereferenceable(24) %"class.dealii::Tensor.21"* @_ZNK6dealii6TensorILi2ELi3EEixEj(%"class.dealii::Tensor"* %57, i32 0), !dbg !3683
  %call140 = call double @_ZNK6dealii6TensorILi1ELi3EEixEj(%"class.dealii::Tensor.21"* %call139, i32 0), !dbg !3683
  %58 = load %"class.dealii::Tensor"*, %"class.dealii::Tensor"** %t.addr, align 8, !dbg !3684
  %call141 = call dereferenceable(24) %"class.dealii::Tensor.21"* @_ZNK6dealii6TensorILi2ELi3EEixEj(%"class.dealii::Tensor"* %58, i32 2), !dbg !3684
  %call142 = call double @_ZNK6dealii6TensorILi1ELi3EEixEj(%"class.dealii::Tensor.21"* %call141, i32 1), !dbg !3684
  %mul143 = fmul double %call140, %call142, !dbg !3685
  %59 = load double, double* %t01, align 8, !dbg !3686
  %sub144 = fsub double %mul143, %59, !dbg !3687
  %fneg145 = fneg double %sub144, !dbg !3688
  %60 = load double, double* %t07, align 8, !dbg !3689
  %mul146 = fmul double %fneg145, %60, !dbg !3690
  %call147 = call dereferenceable(24) %"class.dealii::Tensor.21"* @_ZN6dealii6TensorILi2ELi3EEixEj(%"class.dealii::Tensor"* %agg.result, i32 2), !dbg !3691
  %call148 = call dereferenceable(8) double* @_ZN6dealii6TensorILi1ELi3EEixEj(%"class.dealii::Tensor.21"* %call147, i32 1), !dbg !3691
  store double %mul146, double* %call148, align 8, !dbg !3692
  %61 = load double, double* %t4, align 8, !dbg !3693
  %62 = load double, double* %t8, align 8, !dbg !3694
  %sub149 = fsub double %61, %62, !dbg !3695
  %63 = load double, double* %t07, align 8, !dbg !3696
  %mul150 = fmul double %sub149, %63, !dbg !3697
  %call151 = call dereferenceable(24) %"class.dealii::Tensor.21"* @_ZN6dealii6TensorILi2ELi3EEixEj(%"class.dealii::Tensor"* %agg.result, i32 2), !dbg !3698
  %call152 = call dereferenceable(8) double* @_ZN6dealii6TensorILi1ELi3EEixEj(%"class.dealii::Tensor.21"* %call151, i32 2), !dbg !3698
  store double %mul150, double* %call152, align 8, !dbg !3699
  ret void, !dbg !3700
}

; Function Attrs: noinline nounwind uwtable
define dso_local double @_ZNK9libparest6Master17StepLengthControl10LineSearch21min_computed_residualEv(%"class.libparest::Master::StepLengthControl::LineSearch"* %this) #1 align 2 !dbg !3701 {
entry:
  %this.addr = alloca %"class.libparest::Master::StepLengthControl::LineSearch"*, align 8
  %s = alloca double, align 8
  %i = alloca i32, align 4
  store %"class.libparest::Master::StepLengthControl::LineSearch"* %this, %"class.libparest::Master::StepLengthControl::LineSearch"** %this.addr, align 8
  call void @llvm.dbg.declare(metadata %"class.libparest::Master::StepLengthControl::LineSearch"** %this.addr, metadata !3702, metadata !DIExpression()), !dbg !3703
  %this1 = load %"class.libparest::Master::StepLengthControl::LineSearch"*, %"class.libparest::Master::StepLengthControl::LineSearch"** %this.addr, align 8
  call void @llvm.dbg.declare(metadata double* %s, metadata !3704, metadata !DIExpression()), !dbg !3705
  %res_of_alpha = getelementptr inbounds %"class.libparest::Master::StepLengthControl::LineSearch", %"class.libparest::Master::StepLengthControl::LineSearch"* %this1, i32 0, i32 1, !dbg !3706
  %call = call dereferenceable(16) %"struct.std::pair"* @_ZNKSt6vectorISt4pairIddESaIS1_EE5frontEv(%"class.std::vector.16"* %res_of_alpha) #4, !dbg !3707
  %second = getelementptr inbounds %"struct.std::pair", %"struct.std::pair"* %call, i32 0, i32 1, !dbg !3708
  %0 = load double, double* %second, align 8, !dbg !3708
  store double %0, double* %s, align 8, !dbg !3705
  call void @llvm.dbg.declare(metadata i32* %i, metadata !3709, metadata !DIExpression()), !dbg !3711
  store i32 0, i32* %i, align 4, !dbg !3711
  br label %for.cond, !dbg !3712

for.cond:                                         ; preds = %for.inc, %entry
  %1 = load i32, i32* %i, align 4, !dbg !3713
  %conv = zext i32 %1 to i64, !dbg !3713
  %res_of_alpha2 = getelementptr inbounds %"class.libparest::Master::StepLengthControl::LineSearch", %"class.libparest::Master::StepLengthControl::LineSearch"* %this1, i32 0, i32 1, !dbg !3715
  %call3 = call i64 @_ZNKSt6vectorISt4pairIddESaIS1_EE4sizeEv(%"class.std::vector.16"* %res_of_alpha2) #4, !dbg !3716
  %cmp = icmp ult i64 %conv, %call3, !dbg !3717
  br i1 %cmp, label %for.body, label %for.end, !dbg !3718

for.body:                                         ; preds = %for.cond
  %res_of_alpha4 = getelementptr inbounds %"class.libparest::Master::StepLengthControl::LineSearch", %"class.libparest::Master::StepLengthControl::LineSearch"* %this1, i32 0, i32 1, !dbg !3719
  %2 = load i32, i32* %i, align 4, !dbg !3721
  %conv5 = zext i32 %2 to i64, !dbg !3721
  %call6 = call dereferenceable(16) %"struct.std::pair"* @_ZNKSt6vectorISt4pairIddESaIS1_EEixEm(%"class.std::vector.16"* %res_of_alpha4, i64 %conv5) #4, !dbg !3719
  %second7 = getelementptr inbounds %"struct.std::pair", %"struct.std::pair"* %call6, i32 0, i32 1, !dbg !3722
  %3 = load double, double* %second7, align 8, !dbg !3722
  %4 = load double, double* %s, align 8, !dbg !3723
  %cmp8 = fcmp olt double %3, %4, !dbg !3724
  br i1 %cmp8, label %if.then, label %if.end, !dbg !3725

if.then:                                          ; preds = %for.body
  %res_of_alpha9 = getelementptr inbounds %"class.libparest::Master::StepLengthControl::LineSearch", %"class.libparest::Master::StepLengthControl::LineSearch"* %this1, i32 0, i32 1, !dbg !3726
  %5 = load i32, i32* %i, align 4, !dbg !3727
  %conv10 = zext i32 %5 to i64, !dbg !3727
  %call11 = call dereferenceable(16) %"struct.std::pair"* @_ZNKSt6vectorISt4pairIddESaIS1_EEixEm(%"class.std::vector.16"* %res_of_alpha9, i64 %conv10) #4, !dbg !3726
  %second12 = getelementptr inbounds %"struct.std::pair", %"struct.std::pair"* %call11, i32 0, i32 1, !dbg !3728
  %6 = load double, double* %second12, align 8, !dbg !3728
  store double %6, double* %s, align 8, !dbg !3729
  br label %if.end, !dbg !3730

if.end:                                           ; preds = %if.then, %for.body
  br label %for.inc, !dbg !3723

for.inc:                                          ; preds = %if.end
  %7 = load i32, i32* %i, align 4, !dbg !3731
  %inc = add i32 %7, 1, !dbg !3731
  store i32 %inc, i32* %i, align 4, !dbg !3731
  br label %for.cond, !dbg !3732, !llvm.loop !3733

for.end:                                          ; preds = %for.cond
  %8 = load double, double* %s, align 8, !dbg !3735
  ret double %8, !dbg !3736
}

; Function Attrs: noinline uwtable
define linkonce_odr dso_local { double, double } @_ZSt9make_pairIRKdS1_ESt4pairINSt25__strip_reference_wrapperINSt5decayIT_E4typeEE6__typeENS3_INS4_IT0_E4typeEE6__typeEEOS5_OSA_(double* dereferenceable(8) %__x, double* dereferenceable(8) %__y) #0 comdat !dbg !3737 {
entry:
  %retval = alloca %"struct.std::pair", align 8
  %__x.addr = alloca double*, align 8
  %__y.addr = alloca double*, align 8
  store double* %__x, double** %__x.addr, align 8
  call void @llvm.dbg.declare(metadata double** %__x.addr, metadata !3742, metadata !DIExpression()), !dbg !3743
  store double* %__y, double** %__y.addr, align 8
  call void @llvm.dbg.declare(metadata double** %__y.addr, metadata !3744, metadata !DIExpression()), !dbg !3745
  %0 = load double*, double** %__x.addr, align 8, !dbg !3746
  %call = call dereferenceable(8) double* @_ZSt7forwardIRKdEOT_RNSt16remove_referenceIS2_E4typeE(double* dereferenceable(8) %0) #4, !dbg !3747
  %1 = load double*, double** %__y.addr, align 8, !dbg !3748
  %call1 = call dereferenceable(8) double* @_ZSt7forwardIRKdEOT_RNSt16remove_referenceIS2_E4typeE(double* dereferenceable(8) %1) #4, !dbg !3749
  call void @_ZNSt4pairIddEC2IddLb1EEERKdS3_(%"struct.std::pair"* %retval, double* dereferenceable(8) %call, double* dereferenceable(8) %call1), !dbg !3750
  %2 = bitcast %"struct.std::pair"* %retval to { double, double }*, !dbg !3751
  %3 = load { double, double }, { double, double }* %2, align 8, !dbg !3751
  ret { double, double } %3, !dbg !3751
}

; Function Attrs: noinline nounwind uwtable
define dso_local double @_ZNK9libparest6Master17StepLengthControl10LineSearch15rightmost_alphaEv(%"class.libparest::Master::StepLengthControl::LineSearch"* %this) #1 align 2 !dbg !3752 {
entry:
  %this.addr = alloca %"class.libparest::Master::StepLengthControl::LineSearch"*, align 8
  store %"class.libparest::Master::StepLengthControl::LineSearch"* %this, %"class.libparest::Master::StepLengthControl::LineSearch"** %this.addr, align 8
  call void @llvm.dbg.declare(metadata %"class.libparest::Master::StepLengthControl::LineSearch"** %this.addr, metadata !3753, metadata !DIExpression()), !dbg !3754
  %this1 = load %"class.libparest::Master::StepLengthControl::LineSearch"*, %"class.libparest::Master::StepLengthControl::LineSearch"** %this.addr, align 8
  %res_of_alpha = getelementptr inbounds %"class.libparest::Master::StepLengthControl::LineSearch", %"class.libparest::Master::StepLengthControl::LineSearch"* %this1, i32 0, i32 1, !dbg !3755
  %call = call dereferenceable(16) %"struct.std::pair"* @_ZNKSt6vectorISt4pairIddESaIS1_EE4backEv(%"class.std::vector.16"* %res_of_alpha) #4, !dbg !3756
  %first = getelementptr inbounds %"struct.std::pair", %"struct.std::pair"* %call, i32 0, i32 0, !dbg !3757
  %0 = load double, double* %first, align 8, !dbg !3757
  ret double %0, !dbg !3758
}

; Function Attrs: noinline nounwind uwtable
define linkonce_odr dso_local dereferenceable(16) %"struct.std::pair"* @_ZNKSt6vectorISt4pairIddESaIS1_EE4backEv(%"class.std::vector.16"* %this) #1 comdat align 2 !dbg !3759 {
entry:
  %this.addr = alloca %"class.std::vector.16"*, align 8
  %ref.tmp = alloca %"class.__gnu_cxx::__normal_iterator.23", align 8
  %ref.tmp2 = alloca %"class.__gnu_cxx::__normal_iterator.23", align 8
  store %"class.std::vector.16"* %this, %"class.std::vector.16"** %this.addr, align 8
  call void @llvm.dbg.declare(metadata %"class.std::vector.16"** %this.addr, metadata !3760, metadata !DIExpression()), !dbg !3761
  %this1 = load %"class.std::vector.16"*, %"class.std::vector.16"** %this.addr, align 8
  %call = call %"struct.std::pair"* @_ZNKSt6vectorISt4pairIddESaIS1_EE3endEv(%"class.std::vector.16"* %this1) #4, !dbg !3762
  %coerce.dive = getelementptr inbounds %"class.__gnu_cxx::__normal_iterator.23", %"class.__gnu_cxx::__normal_iterator.23"* %ref.tmp2, i32 0, i32 0, !dbg !3762
  store %"struct.std::pair"* %call, %"struct.std::pair"** %coerce.dive, align 8, !dbg !3762
  %call3 = call %"struct.std::pair"* @_ZNK9__gnu_cxx17__normal_iteratorIPKSt4pairIddESt6vectorIS2_SaIS2_EEEmiEl(%"class.__gnu_cxx::__normal_iterator.23"* %ref.tmp2, i64 1) #4, !dbg !3763
  %coerce.dive4 = getelementptr inbounds %"class.__gnu_cxx::__normal_iterator.23", %"class.__gnu_cxx::__normal_iterator.23"* %ref.tmp, i32 0, i32 0, !dbg !3763
  store %"struct.std::pair"* %call3, %"struct.std::pair"** %coerce.dive4, align 8, !dbg !3763
  %call5 = call dereferenceable(16) %"struct.std::pair"* @_ZNK9__gnu_cxx17__normal_iteratorIPKSt4pairIddESt6vectorIS2_SaIS2_EEEdeEv(%"class.__gnu_cxx::__normal_iterator.23"* %ref.tmp) #4, !dbg !3764
  ret %"struct.std::pair"* %call5, !dbg !3765
}

; Function Attrs: noinline nounwind uwtable
define dso_local double @_ZNK9libparest6Master17StepLengthControl10LineSearch14leftmost_alphaEv(%"class.libparest::Master::StepLengthControl::LineSearch"* %this) #1 align 2 !dbg !3766 {
entry:
  %this.addr = alloca %"class.libparest::Master::StepLengthControl::LineSearch"*, align 8
  store %"class.libparest::Master::StepLengthControl::LineSearch"* %this, %"class.libparest::Master::StepLengthControl::LineSearch"** %this.addr, align 8
  call void @llvm.dbg.declare(metadata %"class.libparest::Master::StepLengthControl::LineSearch"** %this.addr, metadata !3767, metadata !DIExpression()), !dbg !3768
  %this1 = load %"class.libparest::Master::StepLengthControl::LineSearch"*, %"class.libparest::Master::StepLengthControl::LineSearch"** %this.addr, align 8
  %res_of_alpha = getelementptr inbounds %"class.libparest::Master::StepLengthControl::LineSearch", %"class.libparest::Master::StepLengthControl::LineSearch"* %this1, i32 0, i32 1, !dbg !3769
  %call = call dereferenceable(16) %"struct.std::pair"* @_ZNKSt6vectorISt4pairIddESaIS1_EE5frontEv(%"class.std::vector.16"* %res_of_alpha) #4, !dbg !3770
  %first = getelementptr inbounds %"struct.std::pair", %"struct.std::pair"* %call, i32 0, i32 0, !dbg !3771
  %0 = load double, double* %first, align 8, !dbg !3771
  ret double %0, !dbg !3772
}

; Function Attrs: noinline nounwind uwtable
define linkonce_odr dso_local dereferenceable(16) %"struct.std::pair"* @_ZNKSt6vectorISt4pairIddESaIS1_EE5frontEv(%"class.std::vector.16"* %this) #1 comdat align 2 !dbg !3773 {
entry:
  %this.addr = alloca %"class.std::vector.16"*, align 8
  %ref.tmp = alloca %"class.__gnu_cxx::__normal_iterator.23", align 8
  store %"class.std::vector.16"* %this, %"class.std::vector.16"** %this.addr, align 8
  call void @llvm.dbg.declare(metadata %"class.std::vector.16"** %this.addr, metadata !3774, metadata !DIExpression()), !dbg !3775
  %this1 = load %"class.std::vector.16"*, %"class.std::vector.16"** %this.addr, align 8
  %call = call %"struct.std::pair"* @_ZNKSt6vectorISt4pairIddESaIS1_EE5beginEv(%"class.std::vector.16"* %this1) #4, !dbg !3776
  %coerce.dive = getelementptr inbounds %"class.__gnu_cxx::__normal_iterator.23", %"class.__gnu_cxx::__normal_iterator.23"* %ref.tmp, i32 0, i32 0, !dbg !3776
  store %"struct.std::pair"* %call, %"struct.std::pair"** %coerce.dive, align 8, !dbg !3776
  %call2 = call dereferenceable(16) %"struct.std::pair"* @_ZNK9__gnu_cxx17__normal_iteratorIPKSt4pairIddESt6vectorIS2_SaIS2_EEEdeEv(%"class.__gnu_cxx::__normal_iterator.23"* %ref.tmp) #4, !dbg !3777
  ret %"struct.std::pair"* %call2, !dbg !3778
}

; Function Attrs: noinline nounwind uwtable
define dso_local double @_ZNK9libparest6Master17StepLengthControl10LineSearch8distanceEd(%"class.libparest::Master::StepLengthControl::LineSearch"* %this, double %alpha) #1 align 2 !dbg !3779 {
entry:
  %this.addr = alloca %"class.libparest::Master::StepLengthControl::LineSearch"*, align 8
  %alpha.addr = alloca double, align 8
  %a = alloca double, align 8
  %i = alloca i32, align 4
  store %"class.libparest::Master::StepLengthControl::LineSearch"* %this, %"class.libparest::Master::StepLengthControl::LineSearch"** %this.addr, align 8
  call void @llvm.dbg.declare(metadata %"class.libparest::Master::StepLengthControl::LineSearch"** %this.addr, metadata !3780, metadata !DIExpression()), !dbg !3781
  store double %alpha, double* %alpha.addr, align 8
  call void @llvm.dbg.declare(metadata double* %alpha.addr, metadata !3782, metadata !DIExpression()), !dbg !3783
  %this1 = load %"class.libparest::Master::StepLengthControl::LineSearch"*, %"class.libparest::Master::StepLengthControl::LineSearch"** %this.addr, align 8
  call void @llvm.dbg.declare(metadata double* %a, metadata !3784, metadata !DIExpression()), !dbg !3785
  store double 1.000000e+06, double* %a, align 8, !dbg !3785
  call void @llvm.dbg.declare(metadata i32* %i, metadata !3786, metadata !DIExpression()), !dbg !3788
  store i32 0, i32* %i, align 4, !dbg !3788
  br label %for.cond, !dbg !3789

for.cond:                                         ; preds = %for.inc, %entry
  %0 = load i32, i32* %i, align 4, !dbg !3790
  %conv = zext i32 %0 to i64, !dbg !3790
  %res_of_alpha = getelementptr inbounds %"class.libparest::Master::StepLengthControl::LineSearch", %"class.libparest::Master::StepLengthControl::LineSearch"* %this1, i32 0, i32 1, !dbg !3792
  %call = call i64 @_ZNKSt6vectorISt4pairIddESaIS1_EE4sizeEv(%"class.std::vector.16"* %res_of_alpha) #4, !dbg !3793
  %cmp = icmp ult i64 %conv, %call, !dbg !3794
  br i1 %cmp, label %for.body, label %for.end, !dbg !3795

for.body:                                         ; preds = %for.cond
  %res_of_alpha2 = getelementptr inbounds %"class.libparest::Master::StepLengthControl::LineSearch", %"class.libparest::Master::StepLengthControl::LineSearch"* %this1, i32 0, i32 1, !dbg !3796
  %1 = load i32, i32* %i, align 4, !dbg !3798
  %conv3 = zext i32 %1 to i64, !dbg !3798
  %call4 = call dereferenceable(16) %"struct.std::pair"* @_ZNKSt6vectorISt4pairIddESaIS1_EEixEm(%"class.std::vector.16"* %res_of_alpha2, i64 %conv3) #4, !dbg !3796
  %first = getelementptr inbounds %"struct.std::pair", %"struct.std::pair"* %call4, i32 0, i32 0, !dbg !3799
  %2 = load double, double* %first, align 8, !dbg !3799
  %3 = load double, double* %alpha.addr, align 8, !dbg !3800
  %sub = fsub double %2, %3, !dbg !3801
  %4 = call double @llvm.fabs.f64(double %sub), !dbg !3802
  %5 = load double, double* %a, align 8, !dbg !3803
  %cmp5 = fcmp olt double %4, %5, !dbg !3804
  br i1 %cmp5, label %if.then, label %if.end, !dbg !3805

if.then:                                          ; preds = %for.body
  %res_of_alpha6 = getelementptr inbounds %"class.libparest::Master::StepLengthControl::LineSearch", %"class.libparest::Master::StepLengthControl::LineSearch"* %this1, i32 0, i32 1, !dbg !3806
  %6 = load i32, i32* %i, align 4, !dbg !3807
  %conv7 = zext i32 %6 to i64, !dbg !3807
  %call8 = call dereferenceable(16) %"struct.std::pair"* @_ZNKSt6vectorISt4pairIddESaIS1_EEixEm(%"class.std::vector.16"* %res_of_alpha6, i64 %conv7) #4, !dbg !3806
  %first9 = getelementptr inbounds %"struct.std::pair", %"struct.std::pair"* %call8, i32 0, i32 0, !dbg !3808
  %7 = load double, double* %first9, align 8, !dbg !3808
  %8 = load double, double* %alpha.addr, align 8, !dbg !3809
  %sub10 = fsub double %7, %8, !dbg !3810
  %9 = call double @llvm.fabs.f64(double %sub10), !dbg !3811
  store double %9, double* %a, align 8, !dbg !3812
  br label %if.end, !dbg !3813

if.end:                                           ; preds = %if.then, %for.body
  br label %for.inc, !dbg !3803

for.inc:                                          ; preds = %if.end
  %10 = load i32, i32* %i, align 4, !dbg !3814
  %inc = add i32 %10, 1, !dbg !3814
  store i32 %inc, i32* %i, align 4, !dbg !3814
  br label %for.cond, !dbg !3815, !llvm.loop !3816

for.end:                                          ; preds = %for.cond
  %11 = load double, double* %a, align 8, !dbg !3818
  ret double %11, !dbg !3819
}

; Function Attrs: noinline uwtable
define dso_local zeroext i1 @_ZNK9libparest6Master17StepLengthControl10LineSearch14accept_minimumERKSt4pairIddE(%"class.libparest::Master::StepLengthControl::LineSearch"* %this, %"struct.std::pair"* dereferenceable(16) %proposed_minimum) #0 align 2 !dbg !3820 {
entry:
  %retval = alloca i1, align 1
  %this.addr = alloca %"class.libparest::Master::StepLengthControl::LineSearch"*, align 8
  %proposed_minimum.addr = alloca %"struct.std::pair"*, align 8
  %interior_minimum = alloca i8, align 1
  %nearest_distance = alloca double, align 8
  %accuracy = alloca double, align 8
  store %"class.libparest::Master::StepLengthControl::LineSearch"* %this, %"class.libparest::Master::StepLengthControl::LineSearch"** %this.addr, align 8
  call void @llvm.dbg.declare(metadata %"class.libparest::Master::StepLengthControl::LineSearch"** %this.addr, metadata !3821, metadata !DIExpression()), !dbg !3822
  store %"struct.std::pair"* %proposed_minimum, %"struct.std::pair"** %proposed_minimum.addr, align 8
  call void @llvm.dbg.declare(metadata %"struct.std::pair"** %proposed_minimum.addr, metadata !3823, metadata !DIExpression()), !dbg !3824
  %this1 = load %"class.libparest::Master::StepLengthControl::LineSearch"*, %"class.libparest::Master::StepLengthControl::LineSearch"** %this.addr, align 8
  %0 = load %"struct.std::pair"*, %"struct.std::pair"** %proposed_minimum.addr, align 8, !dbg !3825
  %first = getelementptr inbounds %"struct.std::pair", %"struct.std::pair"* %0, i32 0, i32 0, !dbg !3827
  %1 = load double, double* %first, align 8, !dbg !3827
  %cmp = fcmp olt double %1, 5.000000e-02, !dbg !3828
  br i1 %cmp, label %if.then, label %if.end, !dbg !3829

if.then:                                          ; preds = %entry
  store i1 true, i1* %retval, align 1, !dbg !3830
  br label %return, !dbg !3830

if.end:                                           ; preds = %entry
  %2 = load %"struct.std::pair"*, %"struct.std::pair"** %proposed_minimum.addr, align 8, !dbg !3831
  %call = call zeroext i1 @_ZSteqIddEbRKSt4pairIT_T0_ES5_(%"struct.std::pair"* dereferenceable(16) %2, %"struct.std::pair"* dereferenceable(16) @_ZN9libparest6Master17StepLengthControl10LineSearch15invalid_minimumE), !dbg !3833
  br i1 %call, label %if.then6, label %lor.lhs.false, !dbg !3834

lor.lhs.false:                                    ; preds = %if.end
  %3 = load %"struct.std::pair"*, %"struct.std::pair"** %proposed_minimum.addr, align 8, !dbg !3835
  %first2 = getelementptr inbounds %"struct.std::pair", %"struct.std::pair"* %3, i32 0, i32 0, !dbg !3836
  %4 = load double, double* %first2, align 8, !dbg !3836
  %cmp3 = fcmp olt double %4, 2.000000e-01, !dbg !3837
  br i1 %cmp3, label %land.lhs.true, label %if.end7, !dbg !3838

land.lhs.true:                                    ; preds = %lor.lhs.false
  %call4 = call double @_ZNK9libparest6Master17StepLengthControl10LineSearch14leftmost_alphaEv(%"class.libparest::Master::StepLengthControl::LineSearch"* %this1), !dbg !3839
  %cmp5 = fcmp ogt double %call4, 4.000000e-01, !dbg !3840
  br i1 %cmp5, label %if.then6, label %if.end7, !dbg !3841

if.then6:                                         ; preds = %land.lhs.true, %if.end
  store i1 false, i1* %retval, align 1, !dbg !3842
  br label %return, !dbg !3842

if.end7:                                          ; preds = %land.lhs.true, %lor.lhs.false
  call void @llvm.dbg.declare(metadata i8* %interior_minimum, metadata !3843, metadata !DIExpression()), !dbg !3844
  %5 = load %"struct.std::pair"*, %"struct.std::pair"** %proposed_minimum.addr, align 8, !dbg !3845
  %first8 = getelementptr inbounds %"struct.std::pair", %"struct.std::pair"* %5, i32 0, i32 0, !dbg !3846
  %6 = load double, double* %first8, align 8, !dbg !3846
  %call9 = call double @_ZNK9libparest6Master17StepLengthControl10LineSearch15rightmost_alphaEv(%"class.libparest::Master::StepLengthControl::LineSearch"* %this1), !dbg !3847
  %cmp10 = fcmp olt double %6, %call9, !dbg !3848
  br i1 %cmp10, label %land.rhs, label %land.end, !dbg !3849

land.rhs:                                         ; preds = %if.end7
  %7 = load %"struct.std::pair"*, %"struct.std::pair"** %proposed_minimum.addr, align 8, !dbg !3850
  %first11 = getelementptr inbounds %"struct.std::pair", %"struct.std::pair"* %7, i32 0, i32 0, !dbg !3851
  %8 = load double, double* %first11, align 8, !dbg !3851
  %call12 = call double @_ZNK9libparest6Master17StepLengthControl10LineSearch14leftmost_alphaEv(%"class.libparest::Master::StepLengthControl::LineSearch"* %this1), !dbg !3852
  %cmp13 = fcmp ogt double %8, %call12, !dbg !3853
  br label %land.end

land.end:                                         ; preds = %land.rhs, %if.end7
  %9 = phi i1 [ false, %if.end7 ], [ %cmp13, %land.rhs ], !dbg !3822
  %frombool = zext i1 %9 to i8, !dbg !3844
  store i8 %frombool, i8* %interior_minimum, align 1, !dbg !3844
  call void @llvm.dbg.declare(metadata double* %nearest_distance, metadata !3854, metadata !DIExpression()), !dbg !3855
  %10 = load %"struct.std::pair"*, %"struct.std::pair"** %proposed_minimum.addr, align 8, !dbg !3856
  %first14 = getelementptr inbounds %"struct.std::pair", %"struct.std::pair"* %10, i32 0, i32 0, !dbg !3857
  %11 = load double, double* %first14, align 8, !dbg !3857
  %call15 = call double @_ZNK9libparest6Master17StepLengthControl10LineSearch8distanceEd(%"class.libparest::Master::StepLengthControl::LineSearch"* %this1, double %11), !dbg !3858
  store double %call15, double* %nearest_distance, align 8, !dbg !3855
  call void @llvm.dbg.declare(metadata double* %accuracy, metadata !3859, metadata !DIExpression()), !dbg !3860
  store double 1.000000e-01, double* %accuracy, align 8, !dbg !3860
  %12 = load i8, i8* %interior_minimum, align 1, !dbg !3861
  %tobool = trunc i8 %12 to i1, !dbg !3861
  br i1 %tobool, label %land.lhs.true16, label %lor.lhs.false18, !dbg !3863

land.lhs.true16:                                  ; preds = %land.end
  %13 = load double, double* %nearest_distance, align 8, !dbg !3864
  %cmp17 = fcmp ole double %13, 1.000000e-01, !dbg !3865
  br i1 %cmp17, label %if.then20, label %lor.lhs.false18, !dbg !3866

lor.lhs.false18:                                  ; preds = %land.lhs.true16, %land.end
  %14 = load double, double* %nearest_distance, align 8, !dbg !3867
  %cmp19 = fcmp ole double %14, 5.000000e-02, !dbg !3868
  br i1 %cmp19, label %if.then20, label %if.else, !dbg !3869

if.then20:                                        ; preds = %lor.lhs.false18, %land.lhs.true16
  store i1 true, i1* %retval, align 1, !dbg !3870
  br label %return, !dbg !3870

if.else:                                          ; preds = %lor.lhs.false18
  store i1 false, i1* %retval, align 1, !dbg !3871
  br label %return, !dbg !3871

return:                                           ; preds = %if.else, %if.then20, %if.then6, %if.then
  %15 = load i1, i1* %retval, align 1, !dbg !3872
  ret i1 %15, !dbg !3872
}

; Function Attrs: noinline nounwind uwtable
define linkonce_odr dso_local zeroext i1 @_ZSteqIddEbRKSt4pairIT_T0_ES5_(%"struct.std::pair"* dereferenceable(16) %__x, %"struct.std::pair"* dereferenceable(16) %__y) #1 comdat !dbg !3873 {
entry:
  %__x.addr = alloca %"struct.std::pair"*, align 8
  %__y.addr = alloca %"struct.std::pair"*, align 8
  store %"struct.std::pair"* %__x, %"struct.std::pair"** %__x.addr, align 8
  call void @llvm.dbg.declare(metadata %"struct.std::pair"** %__x.addr, metadata !3876, metadata !DIExpression()), !dbg !3877
  store %"struct.std::pair"* %__y, %"struct.std::pair"** %__y.addr, align 8
  call void @llvm.dbg.declare(metadata %"struct.std::pair"** %__y.addr, metadata !3878, metadata !DIExpression()), !dbg !3879
  %0 = load %"struct.std::pair"*, %"struct.std::pair"** %__x.addr, align 8, !dbg !3880
  %first = getelementptr inbounds %"struct.std::pair", %"struct.std::pair"* %0, i32 0, i32 0, !dbg !3881
  %1 = load double, double* %first, align 8, !dbg !3881
  %2 = load %"struct.std::pair"*, %"struct.std::pair"** %__y.addr, align 8, !dbg !3882
  %first1 = getelementptr inbounds %"struct.std::pair", %"struct.std::pair"* %2, i32 0, i32 0, !dbg !3883
  %3 = load double, double* %first1, align 8, !dbg !3883
  %cmp = fcmp oeq double %1, %3, !dbg !3884
  br i1 %cmp, label %land.rhs, label %land.end, !dbg !3885

land.rhs:                                         ; preds = %entry
  %4 = load %"struct.std::pair"*, %"struct.std::pair"** %__x.addr, align 8, !dbg !3886
  %second = getelementptr inbounds %"struct.std::pair", %"struct.std::pair"* %4, i32 0, i32 1, !dbg !3887
  %5 = load double, double* %second, align 8, !dbg !3887
  %6 = load %"struct.std::pair"*, %"struct.std::pair"** %__y.addr, align 8, !dbg !3888
  %second2 = getelementptr inbounds %"struct.std::pair", %"struct.std::pair"* %6, i32 0, i32 1, !dbg !3889
  %7 = load double, double* %second2, align 8, !dbg !3889
  %cmp3 = fcmp oeq double %5, %7, !dbg !3890
  br label %land.end

land.end:                                         ; preds = %land.rhs, %entry
  %8 = phi i1 [ false, %entry ], [ %cmp3, %land.rhs ], !dbg !3891
  ret i1 %8, !dbg !3892
}

; Function Attrs: noinline uwtable
define dso_local { double, double } @_ZN9libparest6Master17StepLengthControl10LineSearch19compute_step_lengthEv(%"class.libparest::Master::StepLengthControl::LineSearch"* %this) #0 align 2 !dbg !3893 {
entry:
  %retval = alloca %"struct.std::pair", align 8
  %this.addr = alloca %"class.libparest::Master::StepLengthControl::LineSearch"*, align 8
  %minimum = alloca %"struct.std::pair", align 8
  store %"class.libparest::Master::StepLengthControl::LineSearch"* %this, %"class.libparest::Master::StepLengthControl::LineSearch"** %this.addr, align 8
  call void @llvm.dbg.declare(metadata %"class.libparest::Master::StepLengthControl::LineSearch"** %this.addr, metadata !3894, metadata !DIExpression()), !dbg !3895
  %this1 = load %"class.libparest::Master::StepLengthControl::LineSearch"*, %"class.libparest::Master::StepLengthControl::LineSearch"** %this.addr, align 8
  call void @_ZN9libparest6Master17StepLengthControl10LineSearch25compute_initial_residualsEv(%"class.libparest::Master::StepLengthControl::LineSearch"* %this1), !dbg !3896
  br label %do.body, !dbg !3897

do.body:                                          ; preds = %do.cond, %entry
  call void @llvm.dbg.declare(metadata %"struct.std::pair"* %minimum, metadata !3898, metadata !DIExpression()), !dbg !3900
  %call = call { double, double } @_ZNK9libparest6Master17StepLengthControl10LineSearch24compute_minimum_residualEv(%"class.libparest::Master::StepLengthControl::LineSearch"* %this1), !dbg !3901
  %0 = bitcast %"struct.std::pair"* %minimum to { double, double }*, !dbg !3901
  %1 = getelementptr inbounds { double, double }, { double, double }* %0, i32 0, i32 0, !dbg !3901
  %2 = extractvalue { double, double } %call, 0, !dbg !3901
  store double %2, double* %1, align 8, !dbg !3901
  %3 = getelementptr inbounds { double, double }, { double, double }* %0, i32 0, i32 1, !dbg !3901
  %4 = extractvalue { double, double } %call, 1, !dbg !3901
  store double %4, double* %3, align 8, !dbg !3901
  %call2 = call zeroext i1 @_ZNK9libparest6Master17StepLengthControl10LineSearch14accept_minimumERKSt4pairIddE(%"class.libparest::Master::StepLengthControl::LineSearch"* %this1, %"struct.std::pair"* dereferenceable(16) %minimum), !dbg !3902
  br i1 %call2, label %if.then, label %if.end, !dbg !3904

if.then:                                          ; preds = %do.body
  %call3 = call { double, double } @_ZNK9libparest6Master17StepLengthControl10LineSearch13fixup_minimumERKSt4pairIddE(%"class.libparest::Master::StepLengthControl::LineSearch"* %this1, %"struct.std::pair"* dereferenceable(16) %minimum), !dbg !3905
  %5 = bitcast %"struct.std::pair"* %retval to { double, double }*, !dbg !3905
  %6 = getelementptr inbounds { double, double }, { double, double }* %5, i32 0, i32 0, !dbg !3905
  %7 = extractvalue { double, double } %call3, 0, !dbg !3905
  store double %7, double* %6, align 8, !dbg !3905
  %8 = getelementptr inbounds { double, double }, { double, double }* %5, i32 0, i32 1, !dbg !3905
  %9 = extractvalue { double, double } %call3, 1, !dbg !3905
  store double %9, double* %8, align 8, !dbg !3905
  %10 = bitcast %"struct.std::pair"* %retval to { double, double }*, !dbg !3906
  %11 = load { double, double }, { double, double }* %10, align 8, !dbg !3906
  ret { double, double } %11, !dbg !3906

if.end:                                           ; preds = %do.body
  call void @_ZN9libparest6Master17StepLengthControl10LineSearch26compute_new_trial_residualEv(%"class.libparest::Master::StepLengthControl::LineSearch"* %this1), !dbg !3907
  br label %do.cond, !dbg !3908

do.cond:                                          ; preds = %if.end
  br i1 true, label %do.body, label %do.end, !dbg !3908, !llvm.loop !3909

do.end:                                           ; preds = %do.cond
  call void @llvm.trap(), !dbg !3908
  unreachable, !dbg !3908
}

; Function Attrs: noinline uwtable
define dso_local { double, double } @_ZNK9libparest6Master17StepLengthControl10LineSearch13fixup_minimumERKSt4pairIddE(%"class.libparest::Master::StepLengthControl::LineSearch"* %this, %"struct.std::pair"* dereferenceable(16) %in) #0 align 2 !dbg !3911 {
entry:
  %retval = alloca %"struct.std::pair", align 8
  %this.addr = alloca %"class.libparest::Master::StepLengthControl::LineSearch"*, align 8
  %in.addr = alloca %"struct.std::pair"*, align 8
  %ref.tmp = alloca double, align 8
  store %"class.libparest::Master::StepLengthControl::LineSearch"* %this, %"class.libparest::Master::StepLengthControl::LineSearch"** %this.addr, align 8
  call void @llvm.dbg.declare(metadata %"class.libparest::Master::StepLengthControl::LineSearch"** %this.addr, metadata !3912, metadata !DIExpression()), !dbg !3913
  store %"struct.std::pair"* %in, %"struct.std::pair"** %in.addr, align 8
  call void @llvm.dbg.declare(metadata %"struct.std::pair"** %in.addr, metadata !3914, metadata !DIExpression()), !dbg !3915
  %this1 = load %"class.libparest::Master::StepLengthControl::LineSearch"*, %"class.libparest::Master::StepLengthControl::LineSearch"** %this.addr, align 8
  %0 = load %"struct.std::pair"*, %"struct.std::pair"** %in.addr, align 8, !dbg !3916
  %call = call zeroext i1 @_ZSteqIddEbRKSt4pairIT_T0_ES5_(%"struct.std::pair"* dereferenceable(16) %0, %"struct.std::pair"* dereferenceable(16) @_ZN9libparest6Master17StepLengthControl10LineSearch15invalid_minimumE), !dbg !3918
  br i1 %call, label %if.then, label %lor.lhs.false, !dbg !3919

lor.lhs.false:                                    ; preds = %entry
  %1 = load %"struct.std::pair"*, %"struct.std::pair"** %in.addr, align 8, !dbg !3920
  %first = getelementptr inbounds %"struct.std::pair", %"struct.std::pair"* %1, i32 0, i32 0, !dbg !3921
  %2 = load double, double* %first, align 8, !dbg !3921
  %cmp = fcmp olt double %2, 2.000000e-02, !dbg !3922
  br i1 %cmp, label %if.then, label %if.else, !dbg !3923

if.then:                                          ; preds = %lor.lhs.false, %entry
  store double 0.000000e+00, double* %ref.tmp, align 8, !dbg !3924
  %initial_residual = getelementptr inbounds %"class.libparest::Master::StepLengthControl::LineSearch", %"class.libparest::Master::StepLengthControl::LineSearch"* %this1, i32 0, i32 2, !dbg !3925
  %call2 = call { double, double } @_ZSt9make_pairIdRKdESt4pairINSt25__strip_reference_wrapperINSt5decayIT_E4typeEE6__typeENS3_INS4_IT0_E4typeEE6__typeEEOS5_OSA_(double* dereferenceable(8) %ref.tmp, double* dereferenceable(8) %initial_residual), !dbg !3926
  %3 = bitcast %"struct.std::pair"* %retval to { double, double }*, !dbg !3926
  %4 = getelementptr inbounds { double, double }, { double, double }* %3, i32 0, i32 0, !dbg !3926
  %5 = extractvalue { double, double } %call2, 0, !dbg !3926
  store double %5, double* %4, align 8, !dbg !3926
  %6 = getelementptr inbounds { double, double }, { double, double }* %3, i32 0, i32 1, !dbg !3926
  %7 = extractvalue { double, double } %call2, 1, !dbg !3926
  store double %7, double* %6, align 8, !dbg !3926
  br label %return, !dbg !3927

if.else:                                          ; preds = %lor.lhs.false
  %8 = load %"struct.std::pair"*, %"struct.std::pair"** %in.addr, align 8, !dbg !3928
  %9 = bitcast %"struct.std::pair"* %retval to i8*, !dbg !3928
  %10 = bitcast %"struct.std::pair"* %8 to i8*, !dbg !3928
  call void @llvm.memcpy.p0i8.p0i8.i64(i8* align 8 %9, i8* align 8 %10, i64 16, i1 false), !dbg !3928
  br label %return, !dbg !3929

return:                                           ; preds = %if.else, %if.then
  %11 = bitcast %"struct.std::pair"* %retval to { double, double }*, !dbg !3930
  %12 = load { double, double }, { double, double }* %11, align 8, !dbg !3930
  ret { double, double } %12, !dbg !3930
}

; Function Attrs: noinline uwtable
define dso_local void @_ZN9libparest6Master17StepLengthControl10LineSearch26compute_new_trial_residualEv(%"class.libparest::Master::StepLengthControl::LineSearch"* %this) #0 align 2 !dbg !3931 {
entry:
  %this.addr = alloca %"class.libparest::Master::StepLengthControl::LineSearch"*, align 8
  %a = alloca double, align 8
  %r = alloca double, align 8
  %ref.tmp = alloca %"struct.std::pair", align 8
  store %"class.libparest::Master::StepLengthControl::LineSearch"* %this, %"class.libparest::Master::StepLengthControl::LineSearch"** %this.addr, align 8
  call void @llvm.dbg.declare(metadata %"class.libparest::Master::StepLengthControl::LineSearch"** %this.addr, metadata !3932, metadata !DIExpression()), !dbg !3933
  %this1 = load %"class.libparest::Master::StepLengthControl::LineSearch"*, %"class.libparest::Master::StepLengthControl::LineSearch"** %this.addr, align 8
  call void @llvm.dbg.declare(metadata double* %a, metadata !3934, metadata !DIExpression()), !dbg !3935
  %call = call double @_ZNK9libparest6Master17StepLengthControl10LineSearch22next_trial_step_lengthEv(%"class.libparest::Master::StepLengthControl::LineSearch"* %this1), !dbg !3936
  store double %call, double* %a, align 8, !dbg !3935
  call void @llvm.dbg.declare(metadata double* %r, metadata !3937, metadata !DIExpression()), !dbg !3938
  %residual_computation = getelementptr inbounds %"class.libparest::Master::StepLengthControl::LineSearch", %"class.libparest::Master::StepLengthControl::LineSearch"* %this1, i32 0, i32 0, !dbg !3939
  %0 = load %"class.libparest::Master::StepLengthControl::ResidualComputationBase"*, %"class.libparest::Master::StepLengthControl::ResidualComputationBase"** %residual_computation, align 8, !dbg !3939
  %1 = load double, double* %a, align 8, !dbg !3940
  %call2 = call double @_ZNK9libparest6Master17StepLengthControl23ResidualComputationBase22compute_trial_residualEd(%"class.libparest::Master::StepLengthControl::ResidualComputationBase"* %0, double %1), !dbg !3941
  store double %call2, double* %r, align 8, !dbg !3938
  %res_of_alpha = getelementptr inbounds %"class.libparest::Master::StepLengthControl::LineSearch", %"class.libparest::Master::StepLengthControl::LineSearch"* %this1, i32 0, i32 1, !dbg !3942
  %call3 = call { double, double } @_ZSt9make_pairIRKdS1_ESt4pairINSt25__strip_reference_wrapperINSt5decayIT_E4typeEE6__typeENS3_INS4_IT0_E4typeEE6__typeEEOS5_OSA_(double* dereferenceable(8) %a, double* dereferenceable(8) %r), !dbg !3943
  %2 = bitcast %"struct.std::pair"* %ref.tmp to { double, double }*, !dbg !3943
  %3 = getelementptr inbounds { double, double }, { double, double }* %2, i32 0, i32 0, !dbg !3943
  %4 = extractvalue { double, double } %call3, 0, !dbg !3943
  store double %4, double* %3, align 8, !dbg !3943
  %5 = getelementptr inbounds { double, double }, { double, double }* %2, i32 0, i32 1, !dbg !3943
  %6 = extractvalue { double, double } %call3, 1, !dbg !3943
  store double %6, double* %5, align 8, !dbg !3943
  call void @_ZNSt6vectorISt4pairIddESaIS1_EE9push_backEOS1_(%"class.std::vector.16"* %res_of_alpha, %"struct.std::pair"* dereferenceable(16) %ref.tmp), !dbg !3944
  call void @_ZN9libparest6Master17StepLengthControl10LineSearch12sort_resultsEv(%"class.libparest::Master::StepLengthControl::LineSearch"* %this1), !dbg !3945
  ret void, !dbg !3946
}

; Function Attrs: noinline uwtable
define linkonce_odr dso_local { double, double } @_ZSt9make_pairIdRKdESt4pairINSt25__strip_reference_wrapperINSt5decayIT_E4typeEE6__typeENS3_INS4_IT0_E4typeEE6__typeEEOS5_OSA_(double* dereferenceable(8) %__x, double* dereferenceable(8) %__y) #0 comdat !dbg !3947 {
entry:
  %retval = alloca %"struct.std::pair", align 8
  %__x.addr = alloca double*, align 8
  %__y.addr = alloca double*, align 8
  store double* %__x, double** %__x.addr, align 8
  call void @llvm.dbg.declare(metadata double** %__x.addr, metadata !3952, metadata !DIExpression()), !dbg !3953
  store double* %__y, double** %__y.addr, align 8
  call void @llvm.dbg.declare(metadata double** %__y.addr, metadata !3954, metadata !DIExpression()), !dbg !3955
  %0 = load double*, double** %__x.addr, align 8, !dbg !3956
  %call = call dereferenceable(8) double* @_ZSt7forwardIdEOT_RNSt16remove_referenceIS0_E4typeE(double* dereferenceable(8) %0) #4, !dbg !3957
  %1 = load double*, double** %__y.addr, align 8, !dbg !3958
  %call1 = call dereferenceable(8) double* @_ZSt7forwardIRKdEOT_RNSt16remove_referenceIS2_E4typeE(double* dereferenceable(8) %1) #4, !dbg !3959
  call void @_ZNSt4pairIddEC2IdLb1EEEOT_RKd(%"struct.std::pair"* %retval, double* dereferenceable(8) %call, double* dereferenceable(8) %call1), !dbg !3960
  %2 = bitcast %"struct.std::pair"* %retval to { double, double }*, !dbg !3961
  %3 = load { double, double }, { double, double }* %2, align 8, !dbg !3961
  ret { double, double } %3, !dbg !3961
}

; Function Attrs: noinline uwtable
define dso_local double @_ZNK9libparest6Master17StepLengthControl10LineSearch22next_trial_step_lengthEv(%"class.libparest::Master::StepLengthControl::LineSearch"* %this) #0 align 2 !dbg !3962 {
entry:
  %retval = alloca double, align 8
  %this.addr = alloca %"class.libparest::Master::StepLengthControl::LineSearch"*, align 8
  %minimum_residual = alloca %"struct.std::pair", align 8
  %minimum = alloca double, align 8
  %extremum_is_minimum = alloca i8, align 1
  store %"class.libparest::Master::StepLengthControl::LineSearch"* %this, %"class.libparest::Master::StepLengthControl::LineSearch"** %this.addr, align 8
  call void @llvm.dbg.declare(metadata %"class.libparest::Master::StepLengthControl::LineSearch"** %this.addr, metadata !3963, metadata !DIExpression()), !dbg !3964
  %this1 = load %"class.libparest::Master::StepLengthControl::LineSearch"*, %"class.libparest::Master::StepLengthControl::LineSearch"** %this.addr, align 8
  call void @llvm.dbg.declare(metadata %"struct.std::pair"* %minimum_residual, metadata !3965, metadata !DIExpression()), !dbg !3966
  %call = call { double, double } @_ZNK9libparest6Master17StepLengthControl10LineSearch24compute_minimum_residualEv(%"class.libparest::Master::StepLengthControl::LineSearch"* %this1), !dbg !3967
  %0 = bitcast %"struct.std::pair"* %minimum_residual to { double, double }*, !dbg !3967
  %1 = getelementptr inbounds { double, double }, { double, double }* %0, i32 0, i32 0, !dbg !3967
  %2 = extractvalue { double, double } %call, 0, !dbg !3967
  store double %2, double* %1, align 8, !dbg !3967
  %3 = getelementptr inbounds { double, double }, { double, double }* %0, i32 0, i32 1, !dbg !3967
  %4 = extractvalue { double, double } %call, 1, !dbg !3967
  store double %4, double* %3, align 8, !dbg !3967
  call void @llvm.dbg.declare(metadata double* %minimum, metadata !3968, metadata !DIExpression()), !dbg !3969
  %first = getelementptr inbounds %"struct.std::pair", %"struct.std::pair"* %minimum_residual, i32 0, i32 0, !dbg !3970
  %5 = load double, double* %first, align 8, !dbg !3970
  store double %5, double* %minimum, align 8, !dbg !3969
  call void @llvm.dbg.declare(metadata i8* %extremum_is_minimum, metadata !3971, metadata !DIExpression()), !dbg !3972
  %call2 = call zeroext i1 @_ZStneIddEbRKSt4pairIT_T0_ES5_(%"struct.std::pair"* dereferenceable(16) %minimum_residual, %"struct.std::pair"* dereferenceable(16) @_ZN9libparest6Master17StepLengthControl10LineSearch15invalid_minimumE), !dbg !3973
  %frombool = zext i1 %call2 to i8, !dbg !3972
  store i8 %frombool, i8* %extremum_is_minimum, align 1, !dbg !3972
  %6 = load double, double* %minimum, align 8, !dbg !3974
  %cmp = fcmp ole double %6, 0.000000e+00, !dbg !3976
  br i1 %cmp, label %if.then, label %lor.lhs.false, !dbg !3977

lor.lhs.false:                                    ; preds = %entry
  %7 = load i8, i8* %extremum_is_minimum, align 1, !dbg !3978
  %tobool = trunc i8 %7 to i1, !dbg !3978
  br i1 %tobool, label %if.end, label %if.then, !dbg !3979

if.then:                                          ; preds = %lor.lhs.false, %entry
  %call3 = call double @_ZNK9libparest6Master17StepLengthControl10LineSearch14leftmost_alphaEv(%"class.libparest::Master::StepLengthControl::LineSearch"* %this1), !dbg !3980
  %mul = fmul double 5.000000e-01, %call3, !dbg !3981
  store double %mul, double* %retval, align 8, !dbg !3982
  br label %return, !dbg !3982

if.end:                                           ; preds = %lor.lhs.false
  %8 = load double, double* %minimum, align 8, !dbg !3983
  %call4 = call double @_ZNK9libparest6Master17StepLengthControl10LineSearch14leftmost_alphaEv(%"class.libparest::Master::StepLengthControl::LineSearch"* %this1), !dbg !3985
  %mul5 = fmul double %call4, 5.000000e-01, !dbg !3986
  %cmp6 = fcmp olt double %8, %mul5, !dbg !3987
  br i1 %cmp6, label %if.then7, label %if.end10, !dbg !3988

if.then7:                                         ; preds = %if.end
  %call8 = call double @_ZNK9libparest6Master17StepLengthControl10LineSearch14leftmost_alphaEv(%"class.libparest::Master::StepLengthControl::LineSearch"* %this1), !dbg !3989
  %mul9 = fmul double %call8, 5.000000e-01, !dbg !3990
  store double %mul9, double* %retval, align 8, !dbg !3991
  br label %return, !dbg !3991

if.end10:                                         ; preds = %if.end
  %9 = load double, double* %minimum, align 8, !dbg !3992
  %call11 = call double @_ZNK9libparest6Master17StepLengthControl10LineSearch15rightmost_alphaEv(%"class.libparest::Master::StepLengthControl::LineSearch"* %this1), !dbg !3994
  %mul12 = fmul double %call11, 2.000000e+00, !dbg !3995
  %cmp13 = fcmp ogt double %9, %mul12, !dbg !3996
  br i1 %cmp13, label %if.then14, label %if.end17, !dbg !3997

if.then14:                                        ; preds = %if.end10
  %call15 = call double @_ZNK9libparest6Master17StepLengthControl10LineSearch15rightmost_alphaEv(%"class.libparest::Master::StepLengthControl::LineSearch"* %this1), !dbg !3998
  %mul16 = fmul double %call15, 2.000000e+00, !dbg !3999
  store double %mul16, double* %retval, align 8, !dbg !4000
  br label %return, !dbg !4000

if.end17:                                         ; preds = %if.end10
  %10 = load double, double* %minimum, align 8, !dbg !4001
  store double %10, double* %retval, align 8, !dbg !4002
  br label %return, !dbg !4002

return:                                           ; preds = %if.end17, %if.then14, %if.then7, %if.then
  %11 = load double, double* %retval, align 8, !dbg !4003
  ret double %11, !dbg !4003
}

; Function Attrs: noinline nounwind uwtable
define linkonce_odr dso_local zeroext i1 @_ZStneIddEbRKSt4pairIT_T0_ES5_(%"struct.std::pair"* dereferenceable(16) %__x, %"struct.std::pair"* dereferenceable(16) %__y) #1 comdat !dbg !4004 {
entry:
  %__x.addr = alloca %"struct.std::pair"*, align 8
  %__y.addr = alloca %"struct.std::pair"*, align 8
  store %"struct.std::pair"* %__x, %"struct.std::pair"** %__x.addr, align 8
  call void @llvm.dbg.declare(metadata %"struct.std::pair"** %__x.addr, metadata !4005, metadata !DIExpression()), !dbg !4006
  store %"struct.std::pair"* %__y, %"struct.std::pair"** %__y.addr, align 8
  call void @llvm.dbg.declare(metadata %"struct.std::pair"** %__y.addr, metadata !4007, metadata !DIExpression()), !dbg !4008
  %0 = load %"struct.std::pair"*, %"struct.std::pair"** %__x.addr, align 8, !dbg !4009
  %1 = load %"struct.std::pair"*, %"struct.std::pair"** %__y.addr, align 8, !dbg !4010
  %call = call zeroext i1 @_ZSteqIddEbRKSt4pairIT_T0_ES5_(%"struct.std::pair"* dereferenceable(16) %0, %"struct.std::pair"* dereferenceable(16) %1), !dbg !4011
  %lnot = xor i1 %call, true, !dbg !4012
  ret i1 %lnot, !dbg !4013
}

declare dso_local void @__cxa_pure_virtual() unnamed_addr

; Function Attrs: noinline nounwind uwtable
define linkonce_odr dso_local void @_ZNSt12_Vector_baseISt4pairIddESaIS1_EEC2Ev(%"struct.std::_Vector_base.17"* %this) unnamed_addr #1 comdat align 2 !dbg !4014 {
entry:
  %this.addr = alloca %"struct.std::_Vector_base.17"*, align 8
  store %"struct.std::_Vector_base.17"* %this, %"struct.std::_Vector_base.17"** %this.addr, align 8
  call void @llvm.dbg.declare(metadata %"struct.std::_Vector_base.17"** %this.addr, metadata !4015, metadata !DIExpression()), !dbg !4017
  %this1 = load %"struct.std::_Vector_base.17"*, %"struct.std::_Vector_base.17"** %this.addr, align 8
  %_M_impl = getelementptr inbounds %"struct.std::_Vector_base.17", %"struct.std::_Vector_base.17"* %this1, i32 0, i32 0, !dbg !4018
  call void @_ZNSt12_Vector_baseISt4pairIddESaIS1_EE12_Vector_implC2Ev(%"struct.std::_Vector_base<std::pair<double, double>, std::allocator<std::pair<double, double> > >::_Vector_impl"* %_M_impl) #4, !dbg !4018
  ret void, !dbg !4019
}

; Function Attrs: noinline nounwind uwtable
define linkonce_odr dso_local void @_ZNSt12_Vector_baseISt4pairIddESaIS1_EE12_Vector_implC2Ev(%"struct.std::_Vector_base<std::pair<double, double>, std::allocator<std::pair<double, double> > >::_Vector_impl"* %this) unnamed_addr #1 comdat align 2 !dbg !4020 {
entry:
  %this.addr = alloca %"struct.std::_Vector_base<std::pair<double, double>, std::allocator<std::pair<double, double> > >::_Vector_impl"*, align 8
  store %"struct.std::_Vector_base<std::pair<double, double>, std::allocator<std::pair<double, double> > >::_Vector_impl"* %this, %"struct.std::_Vector_base<std::pair<double, double>, std::allocator<std::pair<double, double> > >::_Vector_impl"** %this.addr, align 8
  call void @llvm.dbg.declare(metadata %"struct.std::_Vector_base<std::pair<double, double>, std::allocator<std::pair<double, double> > >::_Vector_impl"** %this.addr, metadata !4021, metadata !DIExpression()), !dbg !4023
  %this1 = load %"struct.std::_Vector_base<std::pair<double, double>, std::allocator<std::pair<double, double> > >::_Vector_impl"*, %"struct.std::_Vector_base<std::pair<double, double>, std::allocator<std::pair<double, double> > >::_Vector_impl"** %this.addr, align 8
  %0 = bitcast %"struct.std::_Vector_base<std::pair<double, double>, std::allocator<std::pair<double, double> > >::_Vector_impl"* %this1 to %"class.std::allocator.18"*, !dbg !4024
  call void @_ZNSaISt4pairIddEEC2Ev(%"class.std::allocator.18"* %0) #4, !dbg !4025
  %1 = bitcast %"struct.std::_Vector_base<std::pair<double, double>, std::allocator<std::pair<double, double> > >::_Vector_impl"* %this1 to %"struct.std::_Vector_base<std::pair<double, double>, std::allocator<std::pair<double, double> > >::_Vector_impl_data"*, !dbg !4024
  call void @_ZNSt12_Vector_baseISt4pairIddESaIS1_EE17_Vector_impl_dataC2Ev(%"struct.std::_Vector_base<std::pair<double, double>, std::allocator<std::pair<double, double> > >::_Vector_impl_data"* %1) #4, !dbg !4026
  ret void, !dbg !4027
}

; Function Attrs: noinline nounwind uwtable
define linkonce_odr dso_local void @_ZNSaISt4pairIddEEC2Ev(%"class.std::allocator.18"* %this) unnamed_addr #1 comdat align 2 !dbg !4028 {
entry:
  %this.addr = alloca %"class.std::allocator.18"*, align 8
  store %"class.std::allocator.18"* %this, %"class.std::allocator.18"** %this.addr, align 8
  call void @llvm.dbg.declare(metadata %"class.std::allocator.18"** %this.addr, metadata !4029, metadata !DIExpression()), !dbg !4031
  %this1 = load %"class.std::allocator.18"*, %"class.std::allocator.18"** %this.addr, align 8
  %0 = bitcast %"class.std::allocator.18"* %this1 to %"class.__gnu_cxx::new_allocator.19"*, !dbg !4032
  call void @_ZN9__gnu_cxx13new_allocatorISt4pairIddEEC2Ev(%"class.__gnu_cxx::new_allocator.19"* %0) #4, !dbg !4033
  ret void, !dbg !4034
}

; Function Attrs: noinline nounwind uwtable
define linkonce_odr dso_local void @_ZNSt12_Vector_baseISt4pairIddESaIS1_EE17_Vector_impl_dataC2Ev(%"struct.std::_Vector_base<std::pair<double, double>, std::allocator<std::pair<double, double> > >::_Vector_impl_data"* %this) unnamed_addr #1 comdat align 2 !dbg !4035 {
entry:
  %this.addr = alloca %"struct.std::_Vector_base<std::pair<double, double>, std::allocator<std::pair<double, double> > >::_Vector_impl_data"*, align 8
  store %"struct.std::_Vector_base<std::pair<double, double>, std::allocator<std::pair<double, double> > >::_Vector_impl_data"* %this, %"struct.std::_Vector_base<std::pair<double, double>, std::allocator<std::pair<double, double> > >::_Vector_impl_data"** %this.addr, align 8
  call void @llvm.dbg.declare(metadata %"struct.std::_Vector_base<std::pair<double, double>, std::allocator<std::pair<double, double> > >::_Vector_impl_data"** %this.addr, metadata !4036, metadata !DIExpression()), !dbg !4038
  %this1 = load %"struct.std::_Vector_base<std::pair<double, double>, std::allocator<std::pair<double, double> > >::_Vector_impl_data"*, %"struct.std::_Vector_base<std::pair<double, double>, std::allocator<std::pair<double, double> > >::_Vector_impl_data"** %this.addr, align 8
  %_M_start = getelementptr inbounds %"struct.std::_Vector_base<std::pair<double, double>, std::allocator<std::pair<double, double> > >::_Vector_impl_data", %"struct.std::_Vector_base<std::pair<double, double>, std::allocator<std::pair<double, double> > >::_Vector_impl_data"* %this1, i32 0, i32 0, !dbg !4039
  store %"struct.std::pair"* null, %"struct.std::pair"** %_M_start, align 8, !dbg !4039
  %_M_finish = getelementptr inbounds %"struct.std::_Vector_base<std::pair<double, double>, std::allocator<std::pair<double, double> > >::_Vector_impl_data", %"struct.std::_Vector_base<std::pair<double, double>, std::allocator<std::pair<double, double> > >::_Vector_impl_data"* %this1, i32 0, i32 1, !dbg !4040
  store %"struct.std::pair"* null, %"struct.std::pair"** %_M_finish, align 8, !dbg !4040
  %_M_end_of_storage = getelementptr inbounds %"struct.std::_Vector_base<std::pair<double, double>, std::allocator<std::pair<double, double> > >::_Vector_impl_data", %"struct.std::_Vector_base<std::pair<double, double>, std::allocator<std::pair<double, double> > >::_Vector_impl_data"* %this1, i32 0, i32 2, !dbg !4041
  store %"struct.std::pair"* null, %"struct.std::pair"** %_M_end_of_storage, align 8, !dbg !4041
  ret void, !dbg !4042
}

; Function Attrs: noinline nounwind uwtable
define linkonce_odr dso_local void @_ZN9__gnu_cxx13new_allocatorISt4pairIddEEC2Ev(%"class.__gnu_cxx::new_allocator.19"* %this) unnamed_addr #1 comdat align 2 !dbg !4043 {
entry:
  %this.addr = alloca %"class.__gnu_cxx::new_allocator.19"*, align 8
  store %"class.__gnu_cxx::new_allocator.19"* %this, %"class.__gnu_cxx::new_allocator.19"** %this.addr, align 8
  call void @llvm.dbg.declare(metadata %"class.__gnu_cxx::new_allocator.19"** %this.addr, metadata !4044, metadata !DIExpression()), !dbg !4046
  %this1 = load %"class.__gnu_cxx::new_allocator.19"*, %"class.__gnu_cxx::new_allocator.19"** %this.addr, align 8
  ret void, !dbg !4047
}

; Function Attrs: noinline nounwind uwtable
define linkonce_odr dso_local dereferenceable(8) double* @_ZSt7forwardIRKdEOT_RNSt16remove_referenceIS2_E4typeE(double* dereferenceable(8) %__t) #1 comdat !dbg !4048 {
entry:
  %__t.addr = alloca double*, align 8
  store double* %__t, double** %__t.addr, align 8
  call void @llvm.dbg.declare(metadata double** %__t.addr, metadata !4057, metadata !DIExpression()), !dbg !4058
  %0 = load double*, double** %__t.addr, align 8, !dbg !4059
  ret double* %0, !dbg !4060
}

; Function Attrs: noinline nounwind uwtable
define linkonce_odr dso_local dereferenceable(8) double* @_ZSt7forwardIRdEOT_RNSt16remove_referenceIS1_E4typeE(double* dereferenceable(8) %__t) #1 comdat !dbg !4061 {
entry:
  %__t.addr = alloca double*, align 8
  store double* %__t, double** %__t.addr, align 8
  call void @llvm.dbg.declare(metadata double** %__t.addr, metadata !4069, metadata !DIExpression()), !dbg !4070
  %0 = load double*, double** %__t.addr, align 8, !dbg !4071
  ret double* %0, !dbg !4072
}

; Function Attrs: noinline nounwind uwtable
define linkonce_odr dso_local void @_ZNSt4pairIddEC2IRdLb1EEERKdOT_(%"struct.std::pair"* %this, double* dereferenceable(8) %__x, double* dereferenceable(8) %__y) unnamed_addr #1 comdat align 2 !dbg !4073 {
entry:
  %this.addr = alloca %"struct.std::pair"*, align 8
  %__x.addr = alloca double*, align 8
  %__y.addr = alloca double*, align 8
  store %"struct.std::pair"* %this, %"struct.std::pair"** %this.addr, align 8
  call void @llvm.dbg.declare(metadata %"struct.std::pair"** %this.addr, metadata !4080, metadata !DIExpression()), !dbg !4081
  store double* %__x, double** %__x.addr, align 8
  call void @llvm.dbg.declare(metadata double** %__x.addr, metadata !4082, metadata !DIExpression()), !dbg !4083
  store double* %__y, double** %__y.addr, align 8
  call void @llvm.dbg.declare(metadata double** %__y.addr, metadata !4084, metadata !DIExpression()), !dbg !4085
  %this1 = load %"struct.std::pair"*, %"struct.std::pair"** %this.addr, align 8
  %0 = bitcast %"struct.std::pair"* %this1 to %"class.std::__pair_base"*, !dbg !4086
  %first = getelementptr inbounds %"struct.std::pair", %"struct.std::pair"* %this1, i32 0, i32 0, !dbg !4087
  %1 = load double*, double** %__x.addr, align 8, !dbg !4088
  %2 = load double, double* %1, align 8, !dbg !4088
  store double %2, double* %first, align 8, !dbg !4087
  %second = getelementptr inbounds %"struct.std::pair", %"struct.std::pair"* %this1, i32 0, i32 1, !dbg !4089
  %3 = load double*, double** %__y.addr, align 8, !dbg !4090
  %call = call dereferenceable(8) double* @_ZSt7forwardIRdEOT_RNSt16remove_referenceIS1_E4typeE(double* dereferenceable(8) %3) #4, !dbg !4091
  %4 = load double, double* %call, align 8, !dbg !4091
  store double %4, double* %second, align 8, !dbg !4089
  ret void, !dbg !4092
}

; Function Attrs: noinline nounwind uwtable
define linkonce_odr dso_local void @_ZNSt4pairIddEC2IddLb1EEERKdS3_(%"struct.std::pair"* %this, double* dereferenceable(8) %__a, double* dereferenceable(8) %__b) unnamed_addr #1 comdat align 2 !dbg !4093 {
entry:
  %this.addr = alloca %"struct.std::pair"*, align 8
  %__a.addr = alloca double*, align 8
  %__b.addr = alloca double*, align 8
  store %"struct.std::pair"* %this, %"struct.std::pair"** %this.addr, align 8
  call void @llvm.dbg.declare(metadata %"struct.std::pair"** %this.addr, metadata !4098, metadata !DIExpression()), !dbg !4099
  store double* %__a, double** %__a.addr, align 8
  call void @llvm.dbg.declare(metadata double** %__a.addr, metadata !4100, metadata !DIExpression()), !dbg !4101
  store double* %__b, double** %__b.addr, align 8
  call void @llvm.dbg.declare(metadata double** %__b.addr, metadata !4102, metadata !DIExpression()), !dbg !4103
  %this1 = load %"struct.std::pair"*, %"struct.std::pair"** %this.addr, align 8
  %0 = bitcast %"struct.std::pair"* %this1 to %"class.std::__pair_base"*, !dbg !4104
  %first = getelementptr inbounds %"struct.std::pair", %"struct.std::pair"* %this1, i32 0, i32 0, !dbg !4105
  %1 = load double*, double** %__a.addr, align 8, !dbg !4106
  %2 = load double, double* %1, align 8, !dbg !4106
  store double %2, double* %first, align 8, !dbg !4105
  %second = getelementptr inbounds %"struct.std::pair", %"struct.std::pair"* %this1, i32 0, i32 1, !dbg !4107
  %3 = load double*, double** %__b.addr, align 8, !dbg !4108
  %4 = load double, double* %3, align 8, !dbg !4108
  store double %4, double* %second, align 8, !dbg !4107
  ret void, !dbg !4109
}

; Function Attrs: noinline nounwind uwtable
define linkonce_odr dso_local dereferenceable(8) double* @_ZSt7forwardIdEOT_RNSt16remove_referenceIS0_E4typeE(double* dereferenceable(8) %__t) #1 comdat !dbg !4110 {
entry:
  %__t.addr = alloca double*, align 8
  store double* %__t, double** %__t.addr, align 8
  call void @llvm.dbg.declare(metadata double** %__t.addr, metadata !4116, metadata !DIExpression()), !dbg !4117
  %0 = load double*, double** %__t.addr, align 8, !dbg !4118
  ret double* %0, !dbg !4119
}

; Function Attrs: noinline nounwind uwtable
define linkonce_odr dso_local void @_ZNSt4pairIddEC2IdLb1EEEOT_RKd(%"struct.std::pair"* %this, double* dereferenceable(8) %__x, double* dereferenceable(8) %__y) unnamed_addr #1 comdat align 2 !dbg !4120 {
entry:
  %this.addr = alloca %"struct.std::pair"*, align 8
  %__x.addr = alloca double*, align 8
  %__y.addr = alloca double*, align 8
  store %"struct.std::pair"* %this, %"struct.std::pair"** %this.addr, align 8
  call void @llvm.dbg.declare(metadata %"struct.std::pair"** %this.addr, metadata !4125, metadata !DIExpression()), !dbg !4126
  store double* %__x, double** %__x.addr, align 8
  call void @llvm.dbg.declare(metadata double** %__x.addr, metadata !4127, metadata !DIExpression()), !dbg !4128
  store double* %__y, double** %__y.addr, align 8
  call void @llvm.dbg.declare(metadata double** %__y.addr, metadata !4129, metadata !DIExpression()), !dbg !4130
  %this1 = load %"struct.std::pair"*, %"struct.std::pair"** %this.addr, align 8
  %0 = bitcast %"struct.std::pair"* %this1 to %"class.std::__pair_base"*, !dbg !4131
  %first = getelementptr inbounds %"struct.std::pair", %"struct.std::pair"* %this1, i32 0, i32 0, !dbg !4132
  %1 = load double*, double** %__x.addr, align 8, !dbg !4133
  %call = call dereferenceable(8) double* @_ZSt7forwardIdEOT_RNSt16remove_referenceIS0_E4typeE(double* dereferenceable(8) %1) #4, !dbg !4134
  %2 = load double, double* %call, align 8, !dbg !4134
  store double %2, double* %first, align 8, !dbg !4132
  %second = getelementptr inbounds %"struct.std::pair", %"struct.std::pair"* %this1, i32 0, i32 1, !dbg !4135
  %3 = load double*, double** %__y.addr, align 8, !dbg !4136
  %4 = load double, double* %3, align 8, !dbg !4136
  store double %4, double* %second, align 8, !dbg !4135
  ret void, !dbg !4137
}

; Function Attrs: noinline nounwind uwtable
define linkonce_odr dso_local void @_ZN9__gnu_cxx13new_allocatorIdEC2Ev(%"class.__gnu_cxx::new_allocator"* %this) unnamed_addr #1 comdat align 2 !dbg !4138 {
entry:
  %this.addr = alloca %"class.__gnu_cxx::new_allocator"*, align 8
  store %"class.__gnu_cxx::new_allocator"* %this, %"class.__gnu_cxx::new_allocator"** %this.addr, align 8
  call void @llvm.dbg.declare(metadata %"class.__gnu_cxx::new_allocator"** %this.addr, metadata !4139, metadata !DIExpression()), !dbg !4141
  %this1 = load %"class.__gnu_cxx::new_allocator"*, %"class.__gnu_cxx::new_allocator"** %this.addr, align 8
  ret void, !dbg !4142
}

; Function Attrs: noinline nounwind uwtable
define linkonce_odr dso_local void @_ZN9__gnu_cxx13new_allocatorIdED2Ev(%"class.__gnu_cxx::new_allocator"* %this) unnamed_addr #1 comdat align 2 !dbg !4143 {
entry:
  %this.addr = alloca %"class.__gnu_cxx::new_allocator"*, align 8
  store %"class.__gnu_cxx::new_allocator"* %this, %"class.__gnu_cxx::new_allocator"** %this.addr, align 8
  call void @llvm.dbg.declare(metadata %"class.__gnu_cxx::new_allocator"** %this.addr, metadata !4144, metadata !DIExpression()), !dbg !4145
  %this1 = load %"class.__gnu_cxx::new_allocator"*, %"class.__gnu_cxx::new_allocator"** %this.addr, align 8
  ret void, !dbg !4146
}

; Function Attrs: noinline uwtable
define linkonce_odr dso_local i64 @_ZNSt6vectorIdSaIdEE17_S_check_init_lenEmRKS0_(i64 %__n, %"class.std::allocator"* dereferenceable(1) %__a) #0 comdat align 2 !dbg !4147 {
entry:
  %__n.addr = alloca i64, align 8
  %__a.addr = alloca %"class.std::allocator"*, align 8
  %ref.tmp = alloca %"class.std::allocator", align 1
  store i64 %__n, i64* %__n.addr, align 8
  call void @llvm.dbg.declare(metadata i64* %__n.addr, metadata !4148, metadata !DIExpression()), !dbg !4149
  store %"class.std::allocator"* %__a, %"class.std::allocator"** %__a.addr, align 8
  call void @llvm.dbg.declare(metadata %"class.std::allocator"** %__a.addr, metadata !4150, metadata !DIExpression()), !dbg !4151
  %0 = load i64, i64* %__n.addr, align 8, !dbg !4152
  %1 = load %"class.std::allocator"*, %"class.std::allocator"** %__a.addr, align 8, !dbg !4154
  call void @_ZNSaIdEC2ERKS_(%"class.std::allocator"* %ref.tmp, %"class.std::allocator"* dereferenceable(1) %1) #4, !dbg !4155
  %call = call i64 @_ZNSt6vectorIdSaIdEE11_S_max_sizeERKS0_(%"class.std::allocator"* dereferenceable(1) %ref.tmp) #4, !dbg !4156
  %cmp = icmp ugt i64 %0, %call, !dbg !4157
  call void @_ZNSaIdED2Ev(%"class.std::allocator"* %ref.tmp) #4, !dbg !4152
  br i1 %cmp, label %if.then, label %if.end, !dbg !4158

if.then:                                          ; preds = %entry
  call void @_ZSt20__throw_length_errorPKc(i8* getelementptr inbounds ([49 x i8], [49 x i8]* @.str, i64 0, i64 0)) #13, !dbg !4159
  unreachable, !dbg !4159

if.end:                                           ; preds = %entry
  %2 = load i64, i64* %__n.addr, align 8, !dbg !4160
  ret i64 %2, !dbg !4161
}

; Function Attrs: noinline uwtable
define linkonce_odr dso_local void @_ZNSt12_Vector_baseIdSaIdEEC2EmRKS0_(%"struct.std::_Vector_base"* %this, i64 %__n, %"class.std::allocator"* dereferenceable(1) %__a) unnamed_addr #0 comdat align 2 personality i8* bitcast (i32 (...)* @__gxx_personality_v0 to i8*) !dbg !4162 {
entry:
  %this.addr = alloca %"struct.std::_Vector_base"*, align 8
  %__n.addr = alloca i64, align 8
  %__a.addr = alloca %"class.std::allocator"*, align 8
  %exn.slot = alloca i8*
  %ehselector.slot = alloca i32
  store %"struct.std::_Vector_base"* %this, %"struct.std::_Vector_base"** %this.addr, align 8
  call void @llvm.dbg.declare(metadata %"struct.std::_Vector_base"** %this.addr, metadata !4163, metadata !DIExpression()), !dbg !4165
  store i64 %__n, i64* %__n.addr, align 8
  call void @llvm.dbg.declare(metadata i64* %__n.addr, metadata !4166, metadata !DIExpression()), !dbg !4167
  store %"class.std::allocator"* %__a, %"class.std::allocator"** %__a.addr, align 8
  call void @llvm.dbg.declare(metadata %"class.std::allocator"** %__a.addr, metadata !4168, metadata !DIExpression()), !dbg !4169
  %this1 = load %"struct.std::_Vector_base"*, %"struct.std::_Vector_base"** %this.addr, align 8
  %_M_impl = getelementptr inbounds %"struct.std::_Vector_base", %"struct.std::_Vector_base"* %this1, i32 0, i32 0, !dbg !4170
  %0 = load %"class.std::allocator"*, %"class.std::allocator"** %__a.addr, align 8, !dbg !4171
  call void @_ZNSt12_Vector_baseIdSaIdEE12_Vector_implC2ERKS0_(%"struct.std::_Vector_base<double, std::allocator<double> >::_Vector_impl"* %_M_impl, %"class.std::allocator"* dereferenceable(1) %0) #4, !dbg !4170
  %1 = load i64, i64* %__n.addr, align 8, !dbg !4172
  invoke void @_ZNSt12_Vector_baseIdSaIdEE17_M_create_storageEm(%"struct.std::_Vector_base"* %this1, i64 %1)
          to label %invoke.cont unwind label %lpad, !dbg !4174

invoke.cont:                                      ; preds = %entry
  ret void, !dbg !4175

lpad:                                             ; preds = %entry
  %2 = landingpad { i8*, i32 }
          cleanup, !dbg !4176
  %3 = extractvalue { i8*, i32 } %2, 0, !dbg !4176
  store i8* %3, i8** %exn.slot, align 8, !dbg !4176
  %4 = extractvalue { i8*, i32 } %2, 1, !dbg !4176
  store i32 %4, i32* %ehselector.slot, align 4, !dbg !4176
  call void @_ZNSt12_Vector_baseIdSaIdEE12_Vector_implD2Ev(%"struct.std::_Vector_base<double, std::allocator<double> >::_Vector_impl"* %_M_impl) #4, !dbg !4176
  br label %eh.resume, !dbg !4176

eh.resume:                                        ; preds = %lpad
  %exn = load i8*, i8** %exn.slot, align 8, !dbg !4176
  %sel = load i32, i32* %ehselector.slot, align 4, !dbg !4176
  %lpad.val = insertvalue { i8*, i32 } undef, i8* %exn, 0, !dbg !4176
  %lpad.val2 = insertvalue { i8*, i32 } %lpad.val, i32 %sel, 1, !dbg !4176
  resume { i8*, i32 } %lpad.val2, !dbg !4176
}

; Function Attrs: noinline uwtable
define linkonce_odr dso_local void @_ZNSt6vectorIdSaIdEE18_M_fill_initializeEmRKd(%"class.std::vector"* %this, i64 %__n, double* dereferenceable(8) %__value) #0 comdat align 2 !dbg !4177 {
entry:
  %this.addr = alloca %"class.std::vector"*, align 8
  %__n.addr = alloca i64, align 8
  %__value.addr = alloca double*, align 8
  store %"class.std::vector"* %this, %"class.std::vector"** %this.addr, align 8
  call void @llvm.dbg.declare(metadata %"class.std::vector"** %this.addr, metadata !4178, metadata !DIExpression()), !dbg !4179
  store i64 %__n, i64* %__n.addr, align 8
  call void @llvm.dbg.declare(metadata i64* %__n.addr, metadata !4180, metadata !DIExpression()), !dbg !4181
  store double* %__value, double** %__value.addr, align 8
  call void @llvm.dbg.declare(metadata double** %__value.addr, metadata !4182, metadata !DIExpression()), !dbg !4183
  %this1 = load %"class.std::vector"*, %"class.std::vector"** %this.addr, align 8
  %0 = bitcast %"class.std::vector"* %this1 to %"struct.std::_Vector_base"*, !dbg !4184
  %_M_impl = getelementptr inbounds %"struct.std::_Vector_base", %"struct.std::_Vector_base"* %0, i32 0, i32 0, !dbg !4184
  %1 = bitcast %"struct.std::_Vector_base<double, std::allocator<double> >::_Vector_impl"* %_M_impl to %"struct.std::_Vector_base<double, std::allocator<double> >::_Vector_impl_data"*, !dbg !4185
  %_M_start = getelementptr inbounds %"struct.std::_Vector_base<double, std::allocator<double> >::_Vector_impl_data", %"struct.std::_Vector_base<double, std::allocator<double> >::_Vector_impl_data"* %1, i32 0, i32 0, !dbg !4186
  %2 = load double*, double** %_M_start, align 8, !dbg !4186
  %3 = load i64, i64* %__n.addr, align 8, !dbg !4187
  %4 = load double*, double** %__value.addr, align 8, !dbg !4188
  %5 = bitcast %"class.std::vector"* %this1 to %"struct.std::_Vector_base"*, !dbg !4189
  %call = call dereferenceable(1) %"class.std::allocator"* @_ZNSt12_Vector_baseIdSaIdEE19_M_get_Tp_allocatorEv(%"struct.std::_Vector_base"* %5) #4, !dbg !4189
  %call2 = call double* @_ZSt24__uninitialized_fill_n_aIPdmddET_S1_T0_RKT1_RSaIT2_E(double* %2, i64 %3, double* dereferenceable(8) %4, %"class.std::allocator"* dereferenceable(1) %call), !dbg !4190
  %6 = bitcast %"class.std::vector"* %this1 to %"struct.std::_Vector_base"*, !dbg !4191
  %_M_impl3 = getelementptr inbounds %"struct.std::_Vector_base", %"struct.std::_Vector_base"* %6, i32 0, i32 0, !dbg !4191
  %7 = bitcast %"struct.std::_Vector_base<double, std::allocator<double> >::_Vector_impl"* %_M_impl3 to %"struct.std::_Vector_base<double, std::allocator<double> >::_Vector_impl_data"*, !dbg !4192
  %_M_finish = getelementptr inbounds %"struct.std::_Vector_base<double, std::allocator<double> >::_Vector_impl_data", %"struct.std::_Vector_base<double, std::allocator<double> >::_Vector_impl_data"* %7, i32 0, i32 1, !dbg !4193
  store double* %call2, double** %_M_finish, align 8, !dbg !4194
  ret void, !dbg !4195
}

; Function Attrs: noinline nounwind uwtable
define linkonce_odr dso_local void @_ZNSt12_Vector_baseIdSaIdEED2Ev(%"struct.std::_Vector_base"* %this) unnamed_addr #1 comdat align 2 personality i8* bitcast (i32 (...)* @__gxx_personality_v0 to i8*) !dbg !4196 {
entry:
  %this.addr = alloca %"struct.std::_Vector_base"*, align 8
  %exn.slot = alloca i8*
  %ehselector.slot = alloca i32
  store %"struct.std::_Vector_base"* %this, %"struct.std::_Vector_base"** %this.addr, align 8
  call void @llvm.dbg.declare(metadata %"struct.std::_Vector_base"** %this.addr, metadata !4197, metadata !DIExpression()), !dbg !4198
  %this1 = load %"struct.std::_Vector_base"*, %"struct.std::_Vector_base"** %this.addr, align 8
  %_M_impl = getelementptr inbounds %"struct.std::_Vector_base", %"struct.std::_Vector_base"* %this1, i32 0, i32 0, !dbg !4199
  %0 = bitcast %"struct.std::_Vector_base<double, std::allocator<double> >::_Vector_impl"* %_M_impl to %"struct.std::_Vector_base<double, std::allocator<double> >::_Vector_impl_data"*, !dbg !4199
  %_M_start = getelementptr inbounds %"struct.std::_Vector_base<double, std::allocator<double> >::_Vector_impl_data", %"struct.std::_Vector_base<double, std::allocator<double> >::_Vector_impl_data"* %0, i32 0, i32 0, !dbg !4201
  %1 = load double*, double** %_M_start, align 8, !dbg !4201
  %_M_impl2 = getelementptr inbounds %"struct.std::_Vector_base", %"struct.std::_Vector_base"* %this1, i32 0, i32 0, !dbg !4202
  %2 = bitcast %"struct.std::_Vector_base<double, std::allocator<double> >::_Vector_impl"* %_M_impl2 to %"struct.std::_Vector_base<double, std::allocator<double> >::_Vector_impl_data"*, !dbg !4202
  %_M_end_of_storage = getelementptr inbounds %"struct.std::_Vector_base<double, std::allocator<double> >::_Vector_impl_data", %"struct.std::_Vector_base<double, std::allocator<double> >::_Vector_impl_data"* %2, i32 0, i32 2, !dbg !4203
  %3 = load double*, double** %_M_end_of_storage, align 8, !dbg !4203
  %_M_impl3 = getelementptr inbounds %"struct.std::_Vector_base", %"struct.std::_Vector_base"* %this1, i32 0, i32 0, !dbg !4204
  %4 = bitcast %"struct.std::_Vector_base<double, std::allocator<double> >::_Vector_impl"* %_M_impl3 to %"struct.std::_Vector_base<double, std::allocator<double> >::_Vector_impl_data"*, !dbg !4204
  %_M_start4 = getelementptr inbounds %"struct.std::_Vector_base<double, std::allocator<double> >::_Vector_impl_data", %"struct.std::_Vector_base<double, std::allocator<double> >::_Vector_impl_data"* %4, i32 0, i32 0, !dbg !4205
  %5 = load double*, double** %_M_start4, align 8, !dbg !4205
  %sub.ptr.lhs.cast = ptrtoint double* %3 to i64, !dbg !4206
  %sub.ptr.rhs.cast = ptrtoint double* %5 to i64, !dbg !4206
  %sub.ptr.sub = sub i64 %sub.ptr.lhs.cast, %sub.ptr.rhs.cast, !dbg !4206
  %sub.ptr.div = sdiv exact i64 %sub.ptr.sub, 8, !dbg !4206
  invoke void @_ZNSt12_Vector_baseIdSaIdEE13_M_deallocateEPdm(%"struct.std::_Vector_base"* %this1, double* %1, i64 %sub.ptr.div)
          to label %invoke.cont unwind label %lpad, !dbg !4207

invoke.cont:                                      ; preds = %entry
  %_M_impl5 = getelementptr inbounds %"struct.std::_Vector_base", %"struct.std::_Vector_base"* %this1, i32 0, i32 0, !dbg !4208
  call void @_ZNSt12_Vector_baseIdSaIdEE12_Vector_implD2Ev(%"struct.std::_Vector_base<double, std::allocator<double> >::_Vector_impl"* %_M_impl5) #4, !dbg !4208
  ret void, !dbg !4209

lpad:                                             ; preds = %entry
  %6 = landingpad { i8*, i32 }
          catch i8* null, !dbg !4208
  %7 = extractvalue { i8*, i32 } %6, 0, !dbg !4208
  store i8* %7, i8** %exn.slot, align 8, !dbg !4208
  %8 = extractvalue { i8*, i32 } %6, 1, !dbg !4208
  store i32 %8, i32* %ehselector.slot, align 4, !dbg !4208
  %_M_impl6 = getelementptr inbounds %"struct.std::_Vector_base", %"struct.std::_Vector_base"* %this1, i32 0, i32 0, !dbg !4208
  call void @_ZNSt12_Vector_baseIdSaIdEE12_Vector_implD2Ev(%"struct.std::_Vector_base<double, std::allocator<double> >::_Vector_impl"* %_M_impl6) #4, !dbg !4208
  br label %terminate.handler, !dbg !4208

terminate.handler:                                ; preds = %lpad
  %exn = load i8*, i8** %exn.slot, align 8, !dbg !4208
  call void @__clang_call_terminate(i8* %exn) #12, !dbg !4208
  unreachable, !dbg !4208
}

; Function Attrs: noinline nounwind uwtable
define linkonce_odr dso_local i64 @_ZNSt6vectorIdSaIdEE11_S_max_sizeERKS0_(%"class.std::allocator"* dereferenceable(1) %__a) #1 comdat align 2 personality i8* bitcast (i32 (...)* @__gxx_personality_v0 to i8*) !dbg !4210 {
entry:
  %__a.addr = alloca %"class.std::allocator"*, align 8
  %__diffmax = alloca i64, align 8
  %__allocmax = alloca i64, align 8
  store %"class.std::allocator"* %__a, %"class.std::allocator"** %__a.addr, align 8
  call void @llvm.dbg.declare(metadata %"class.std::allocator"** %__a.addr, metadata !4211, metadata !DIExpression()), !dbg !4212
  call void @llvm.dbg.declare(metadata i64* %__diffmax, metadata !4213, metadata !DIExpression()), !dbg !4215
  store i64 1152921504606846975, i64* %__diffmax, align 8, !dbg !4215
  call void @llvm.dbg.declare(metadata i64* %__allocmax, metadata !4216, metadata !DIExpression()), !dbg !4217
  %0 = load %"class.std::allocator"*, %"class.std::allocator"** %__a.addr, align 8, !dbg !4218
  %call = call i64 @_ZNSt16allocator_traitsISaIdEE8max_sizeERKS0_(%"class.std::allocator"* dereferenceable(1) %0) #4, !dbg !4219
  store i64 %call, i64* %__allocmax, align 8, !dbg !4217
  %call1 = invoke dereferenceable(8) i64* @_ZSt3minImERKT_S2_S2_(i64* dereferenceable(8) %__diffmax, i64* dereferenceable(8) %__allocmax)
          to label %invoke.cont unwind label %terminate.lpad, !dbg !4220

invoke.cont:                                      ; preds = %entry
  %1 = load i64, i64* %call1, align 8, !dbg !4220
  ret i64 %1, !dbg !4221

terminate.lpad:                                   ; preds = %entry
  %2 = landingpad { i8*, i32 }
          catch i8* null, !dbg !4220
  %3 = extractvalue { i8*, i32 } %2, 0, !dbg !4220
  call void @__clang_call_terminate(i8* %3) #12, !dbg !4220
  unreachable, !dbg !4220
}

; Function Attrs: noinline nounwind uwtable
define linkonce_odr dso_local void @_ZNSaIdEC2ERKS_(%"class.std::allocator"* %this, %"class.std::allocator"* dereferenceable(1) %__a) unnamed_addr #1 comdat align 2 !dbg !4222 {
entry:
  %this.addr = alloca %"class.std::allocator"*, align 8
  %__a.addr = alloca %"class.std::allocator"*, align 8
  store %"class.std::allocator"* %this, %"class.std::allocator"** %this.addr, align 8
  call void @llvm.dbg.declare(metadata %"class.std::allocator"** %this.addr, metadata !4223, metadata !DIExpression()), !dbg !4224
  store %"class.std::allocator"* %__a, %"class.std::allocator"** %__a.addr, align 8
  call void @llvm.dbg.declare(metadata %"class.std::allocator"** %__a.addr, metadata !4225, metadata !DIExpression()), !dbg !4226
  %this1 = load %"class.std::allocator"*, %"class.std::allocator"** %this.addr, align 8
  %0 = bitcast %"class.std::allocator"* %this1 to %"class.__gnu_cxx::new_allocator"*, !dbg !4227
  %1 = load %"class.std::allocator"*, %"class.std::allocator"** %__a.addr, align 8, !dbg !4228
  %2 = bitcast %"class.std::allocator"* %1 to %"class.__gnu_cxx::new_allocator"*, !dbg !4228
  call void @_ZN9__gnu_cxx13new_allocatorIdEC2ERKS1_(%"class.__gnu_cxx::new_allocator"* %0, %"class.__gnu_cxx::new_allocator"* dereferenceable(1) %2) #4, !dbg !4229
  ret void, !dbg !4230
}

; Function Attrs: noreturn
declare dso_local void @_ZSt20__throw_length_errorPKc(i8*) #8

; Function Attrs: noinline nounwind uwtable
define linkonce_odr dso_local i64 @_ZNSt16allocator_traitsISaIdEE8max_sizeERKS0_(%"class.std::allocator"* dereferenceable(1) %__a) #1 comdat align 2 !dbg !4231 {
entry:
  %__a.addr = alloca %"class.std::allocator"*, align 8
  store %"class.std::allocator"* %__a, %"class.std::allocator"** %__a.addr, align 8
  call void @llvm.dbg.declare(metadata %"class.std::allocator"** %__a.addr, metadata !4232, metadata !DIExpression()), !dbg !4233
  %0 = load %"class.std::allocator"*, %"class.std::allocator"** %__a.addr, align 8, !dbg !4234
  %1 = bitcast %"class.std::allocator"* %0 to %"class.__gnu_cxx::new_allocator"*, !dbg !4234
  %call = call i64 @_ZNK9__gnu_cxx13new_allocatorIdE8max_sizeEv(%"class.__gnu_cxx::new_allocator"* %1) #4, !dbg !4235
  ret i64 %call, !dbg !4236
}

; Function Attrs: noinline nounwind uwtable
define linkonce_odr dso_local dereferenceable(8) i64* @_ZSt3minImERKT_S2_S2_(i64* dereferenceable(8) %__a, i64* dereferenceable(8) %__b) #1 comdat !dbg !4237 {
entry:
  %retval = alloca i64*, align 8
  %__a.addr = alloca i64*, align 8
  %__b.addr = alloca i64*, align 8
  store i64* %__a, i64** %__a.addr, align 8
  call void @llvm.dbg.declare(metadata i64** %__a.addr, metadata !4245, metadata !DIExpression()), !dbg !4246
  store i64* %__b, i64** %__b.addr, align 8
  call void @llvm.dbg.declare(metadata i64** %__b.addr, metadata !4247, metadata !DIExpression()), !dbg !4248
  %0 = load i64*, i64** %__b.addr, align 8, !dbg !4249
  %1 = load i64, i64* %0, align 8, !dbg !4249
  %2 = load i64*, i64** %__a.addr, align 8, !dbg !4251
  %3 = load i64, i64* %2, align 8, !dbg !4251
  %cmp = icmp ult i64 %1, %3, !dbg !4252
  br i1 %cmp, label %if.then, label %if.end, !dbg !4253

if.then:                                          ; preds = %entry
  %4 = load i64*, i64** %__b.addr, align 8, !dbg !4254
  store i64* %4, i64** %retval, align 8, !dbg !4255
  br label %return, !dbg !4255

if.end:                                           ; preds = %entry
  %5 = load i64*, i64** %__a.addr, align 8, !dbg !4256
  store i64* %5, i64** %retval, align 8, !dbg !4257
  br label %return, !dbg !4257

return:                                           ; preds = %if.end, %if.then
  %6 = load i64*, i64** %retval, align 8, !dbg !4258
  ret i64* %6, !dbg !4258
}

; Function Attrs: noinline noreturn nounwind
define linkonce_odr hidden void @__clang_call_terminate(i8* %0) #9 comdat {
  %2 = call i8* @__cxa_begin_catch(i8* %0) #4
  call void @_ZSt9terminatev() #12
  unreachable
}

declare dso_local i8* @__cxa_begin_catch(i8*)

declare dso_local void @_ZSt9terminatev()

; Function Attrs: noinline nounwind uwtable
define linkonce_odr dso_local i64 @_ZNK9__gnu_cxx13new_allocatorIdE8max_sizeEv(%"class.__gnu_cxx::new_allocator"* %this) #1 comdat align 2 !dbg !4259 {
entry:
  %this.addr = alloca %"class.__gnu_cxx::new_allocator"*, align 8
  store %"class.__gnu_cxx::new_allocator"* %this, %"class.__gnu_cxx::new_allocator"** %this.addr, align 8
  call void @llvm.dbg.declare(metadata %"class.__gnu_cxx::new_allocator"** %this.addr, metadata !4260, metadata !DIExpression()), !dbg !4262
  %this1 = load %"class.__gnu_cxx::new_allocator"*, %"class.__gnu_cxx::new_allocator"** %this.addr, align 8
  %call = call i64 @_ZNK9__gnu_cxx13new_allocatorIdE11_M_max_sizeEv(%"class.__gnu_cxx::new_allocator"* %this1) #4, !dbg !4263
  ret i64 %call, !dbg !4264
}

; Function Attrs: noinline nounwind uwtable
define linkonce_odr dso_local i64 @_ZNK9__gnu_cxx13new_allocatorIdE11_M_max_sizeEv(%"class.__gnu_cxx::new_allocator"* %this) #1 comdat align 2 !dbg !4265 {
entry:
  %this.addr = alloca %"class.__gnu_cxx::new_allocator"*, align 8
  store %"class.__gnu_cxx::new_allocator"* %this, %"class.__gnu_cxx::new_allocator"** %this.addr, align 8
  call void @llvm.dbg.declare(metadata %"class.__gnu_cxx::new_allocator"** %this.addr, metadata !4266, metadata !DIExpression()), !dbg !4267
  %this1 = load %"class.__gnu_cxx::new_allocator"*, %"class.__gnu_cxx::new_allocator"** %this.addr, align 8
  ret i64 1152921504606846975, !dbg !4268
}

; Function Attrs: noinline nounwind uwtable
define linkonce_odr dso_local void @_ZN9__gnu_cxx13new_allocatorIdEC2ERKS1_(%"class.__gnu_cxx::new_allocator"* %this, %"class.__gnu_cxx::new_allocator"* dereferenceable(1) %0) unnamed_addr #1 comdat align 2 !dbg !4269 {
entry:
  %this.addr = alloca %"class.__gnu_cxx::new_allocator"*, align 8
  %.addr = alloca %"class.__gnu_cxx::new_allocator"*, align 8
  store %"class.__gnu_cxx::new_allocator"* %this, %"class.__gnu_cxx::new_allocator"** %this.addr, align 8
  call void @llvm.dbg.declare(metadata %"class.__gnu_cxx::new_allocator"** %this.addr, metadata !4270, metadata !DIExpression()), !dbg !4271
  store %"class.__gnu_cxx::new_allocator"* %0, %"class.__gnu_cxx::new_allocator"** %.addr, align 8
  call void @llvm.dbg.declare(metadata %"class.__gnu_cxx::new_allocator"** %.addr, metadata !4272, metadata !DIExpression()), !dbg !4273
  %this1 = load %"class.__gnu_cxx::new_allocator"*, %"class.__gnu_cxx::new_allocator"** %this.addr, align 8
  ret void, !dbg !4274
}

; Function Attrs: noinline nounwind uwtable
define linkonce_odr dso_local void @_ZNSt12_Vector_baseIdSaIdEE12_Vector_implC2ERKS0_(%"struct.std::_Vector_base<double, std::allocator<double> >::_Vector_impl"* %this, %"class.std::allocator"* dereferenceable(1) %__a) unnamed_addr #1 comdat align 2 !dbg !4275 {
entry:
  %this.addr = alloca %"struct.std::_Vector_base<double, std::allocator<double> >::_Vector_impl"*, align 8
  %__a.addr = alloca %"class.std::allocator"*, align 8
  store %"struct.std::_Vector_base<double, std::allocator<double> >::_Vector_impl"* %this, %"struct.std::_Vector_base<double, std::allocator<double> >::_Vector_impl"** %this.addr, align 8
  call void @llvm.dbg.declare(metadata %"struct.std::_Vector_base<double, std::allocator<double> >::_Vector_impl"** %this.addr, metadata !4276, metadata !DIExpression()), !dbg !4278
  store %"class.std::allocator"* %__a, %"class.std::allocator"** %__a.addr, align 8
  call void @llvm.dbg.declare(metadata %"class.std::allocator"** %__a.addr, metadata !4279, metadata !DIExpression()), !dbg !4280
  %this1 = load %"struct.std::_Vector_base<double, std::allocator<double> >::_Vector_impl"*, %"struct.std::_Vector_base<double, std::allocator<double> >::_Vector_impl"** %this.addr, align 8
  %0 = bitcast %"struct.std::_Vector_base<double, std::allocator<double> >::_Vector_impl"* %this1 to %"class.std::allocator"*, !dbg !4281
  %1 = load %"class.std::allocator"*, %"class.std::allocator"** %__a.addr, align 8, !dbg !4282
  call void @_ZNSaIdEC2ERKS_(%"class.std::allocator"* %0, %"class.std::allocator"* dereferenceable(1) %1) #4, !dbg !4283
  %2 = bitcast %"struct.std::_Vector_base<double, std::allocator<double> >::_Vector_impl"* %this1 to %"struct.std::_Vector_base<double, std::allocator<double> >::_Vector_impl_data"*, !dbg !4281
  call void @_ZNSt12_Vector_baseIdSaIdEE17_Vector_impl_dataC2Ev(%"struct.std::_Vector_base<double, std::allocator<double> >::_Vector_impl_data"* %2) #4, !dbg !4284
  ret void, !dbg !4285
}

; Function Attrs: noinline uwtable
define linkonce_odr dso_local void @_ZNSt12_Vector_baseIdSaIdEE17_M_create_storageEm(%"struct.std::_Vector_base"* %this, i64 %__n) #0 comdat align 2 !dbg !4286 {
entry:
  %this.addr = alloca %"struct.std::_Vector_base"*, align 8
  %__n.addr = alloca i64, align 8
  store %"struct.std::_Vector_base"* %this, %"struct.std::_Vector_base"** %this.addr, align 8
  call void @llvm.dbg.declare(metadata %"struct.std::_Vector_base"** %this.addr, metadata !4287, metadata !DIExpression()), !dbg !4288
  store i64 %__n, i64* %__n.addr, align 8
  call void @llvm.dbg.declare(metadata i64* %__n.addr, metadata !4289, metadata !DIExpression()), !dbg !4290
  %this1 = load %"struct.std::_Vector_base"*, %"struct.std::_Vector_base"** %this.addr, align 8
  %0 = load i64, i64* %__n.addr, align 8, !dbg !4291
  %call = call double* @_ZNSt12_Vector_baseIdSaIdEE11_M_allocateEm(%"struct.std::_Vector_base"* %this1, i64 %0), !dbg !4292
  %_M_impl = getelementptr inbounds %"struct.std::_Vector_base", %"struct.std::_Vector_base"* %this1, i32 0, i32 0, !dbg !4293
  %1 = bitcast %"struct.std::_Vector_base<double, std::allocator<double> >::_Vector_impl"* %_M_impl to %"struct.std::_Vector_base<double, std::allocator<double> >::_Vector_impl_data"*, !dbg !4294
  %_M_start = getelementptr inbounds %"struct.std::_Vector_base<double, std::allocator<double> >::_Vector_impl_data", %"struct.std::_Vector_base<double, std::allocator<double> >::_Vector_impl_data"* %1, i32 0, i32 0, !dbg !4295
  store double* %call, double** %_M_start, align 8, !dbg !4296
  %_M_impl2 = getelementptr inbounds %"struct.std::_Vector_base", %"struct.std::_Vector_base"* %this1, i32 0, i32 0, !dbg !4297
  %2 = bitcast %"struct.std::_Vector_base<double, std::allocator<double> >::_Vector_impl"* %_M_impl2 to %"struct.std::_Vector_base<double, std::allocator<double> >::_Vector_impl_data"*, !dbg !4298
  %_M_start3 = getelementptr inbounds %"struct.std::_Vector_base<double, std::allocator<double> >::_Vector_impl_data", %"struct.std::_Vector_base<double, std::allocator<double> >::_Vector_impl_data"* %2, i32 0, i32 0, !dbg !4299
  %3 = load double*, double** %_M_start3, align 8, !dbg !4299
  %_M_impl4 = getelementptr inbounds %"struct.std::_Vector_base", %"struct.std::_Vector_base"* %this1, i32 0, i32 0, !dbg !4300
  %4 = bitcast %"struct.std::_Vector_base<double, std::allocator<double> >::_Vector_impl"* %_M_impl4 to %"struct.std::_Vector_base<double, std::allocator<double> >::_Vector_impl_data"*, !dbg !4301
  %_M_finish = getelementptr inbounds %"struct.std::_Vector_base<double, std::allocator<double> >::_Vector_impl_data", %"struct.std::_Vector_base<double, std::allocator<double> >::_Vector_impl_data"* %4, i32 0, i32 1, !dbg !4302
  store double* %3, double** %_M_finish, align 8, !dbg !4303
  %_M_impl5 = getelementptr inbounds %"struct.std::_Vector_base", %"struct.std::_Vector_base"* %this1, i32 0, i32 0, !dbg !4304
  %5 = bitcast %"struct.std::_Vector_base<double, std::allocator<double> >::_Vector_impl"* %_M_impl5 to %"struct.std::_Vector_base<double, std::allocator<double> >::_Vector_impl_data"*, !dbg !4305
  %_M_start6 = getelementptr inbounds %"struct.std::_Vector_base<double, std::allocator<double> >::_Vector_impl_data", %"struct.std::_Vector_base<double, std::allocator<double> >::_Vector_impl_data"* %5, i32 0, i32 0, !dbg !4306
  %6 = load double*, double** %_M_start6, align 8, !dbg !4306
  %7 = load i64, i64* %__n.addr, align 8, !dbg !4307
  %add.ptr = getelementptr inbounds double, double* %6, i64 %7, !dbg !4308
  %_M_impl7 = getelementptr inbounds %"struct.std::_Vector_base", %"struct.std::_Vector_base"* %this1, i32 0, i32 0, !dbg !4309
  %8 = bitcast %"struct.std::_Vector_base<double, std::allocator<double> >::_Vector_impl"* %_M_impl7 to %"struct.std::_Vector_base<double, std::allocator<double> >::_Vector_impl_data"*, !dbg !4310
  %_M_end_of_storage = getelementptr inbounds %"struct.std::_Vector_base<double, std::allocator<double> >::_Vector_impl_data", %"struct.std::_Vector_base<double, std::allocator<double> >::_Vector_impl_data"* %8, i32 0, i32 2, !dbg !4311
  store double* %add.ptr, double** %_M_end_of_storage, align 8, !dbg !4312
  ret void, !dbg !4313
}

; Function Attrs: noinline nounwind uwtable
define linkonce_odr dso_local void @_ZNSt12_Vector_baseIdSaIdEE12_Vector_implD2Ev(%"struct.std::_Vector_base<double, std::allocator<double> >::_Vector_impl"* %this) unnamed_addr #1 comdat align 2 !dbg !4314 {
entry:
  %this.addr = alloca %"struct.std::_Vector_base<double, std::allocator<double> >::_Vector_impl"*, align 8
  store %"struct.std::_Vector_base<double, std::allocator<double> >::_Vector_impl"* %this, %"struct.std::_Vector_base<double, std::allocator<double> >::_Vector_impl"** %this.addr, align 8
  call void @llvm.dbg.declare(metadata %"struct.std::_Vector_base<double, std::allocator<double> >::_Vector_impl"** %this.addr, metadata !4316, metadata !DIExpression()), !dbg !4317
  %this1 = load %"struct.std::_Vector_base<double, std::allocator<double> >::_Vector_impl"*, %"struct.std::_Vector_base<double, std::allocator<double> >::_Vector_impl"** %this.addr, align 8
  %0 = bitcast %"struct.std::_Vector_base<double, std::allocator<double> >::_Vector_impl"* %this1 to %"class.std::allocator"*, !dbg !4318
  call void @_ZNSaIdED2Ev(%"class.std::allocator"* %0) #4, !dbg !4318
  ret void, !dbg !4320
}

; Function Attrs: noinline nounwind uwtable
define linkonce_odr dso_local void @_ZNSt12_Vector_baseIdSaIdEE17_Vector_impl_dataC2Ev(%"struct.std::_Vector_base<double, std::allocator<double> >::_Vector_impl_data"* %this) unnamed_addr #1 comdat align 2 !dbg !4321 {
entry:
  %this.addr = alloca %"struct.std::_Vector_base<double, std::allocator<double> >::_Vector_impl_data"*, align 8
  store %"struct.std::_Vector_base<double, std::allocator<double> >::_Vector_impl_data"* %this, %"struct.std::_Vector_base<double, std::allocator<double> >::_Vector_impl_data"** %this.addr, align 8
  call void @llvm.dbg.declare(metadata %"struct.std::_Vector_base<double, std::allocator<double> >::_Vector_impl_data"** %this.addr, metadata !4322, metadata !DIExpression()), !dbg !4324
  %this1 = load %"struct.std::_Vector_base<double, std::allocator<double> >::_Vector_impl_data"*, %"struct.std::_Vector_base<double, std::allocator<double> >::_Vector_impl_data"** %this.addr, align 8
  %_M_start = getelementptr inbounds %"struct.std::_Vector_base<double, std::allocator<double> >::_Vector_impl_data", %"struct.std::_Vector_base<double, std::allocator<double> >::_Vector_impl_data"* %this1, i32 0, i32 0, !dbg !4325
  store double* null, double** %_M_start, align 8, !dbg !4325
  %_M_finish = getelementptr inbounds %"struct.std::_Vector_base<double, std::allocator<double> >::_Vector_impl_data", %"struct.std::_Vector_base<double, std::allocator<double> >::_Vector_impl_data"* %this1, i32 0, i32 1, !dbg !4326
  store double* null, double** %_M_finish, align 8, !dbg !4326
  %_M_end_of_storage = getelementptr inbounds %"struct.std::_Vector_base<double, std::allocator<double> >::_Vector_impl_data", %"struct.std::_Vector_base<double, std::allocator<double> >::_Vector_impl_data"* %this1, i32 0, i32 2, !dbg !4327
  store double* null, double** %_M_end_of_storage, align 8, !dbg !4327
  ret void, !dbg !4328
}

; Function Attrs: noinline uwtable
define linkonce_odr dso_local double* @_ZNSt12_Vector_baseIdSaIdEE11_M_allocateEm(%"struct.std::_Vector_base"* %this, i64 %__n) #0 comdat align 2 !dbg !4329 {
entry:
  %this.addr = alloca %"struct.std::_Vector_base"*, align 8
  %__n.addr = alloca i64, align 8
  store %"struct.std::_Vector_base"* %this, %"struct.std::_Vector_base"** %this.addr, align 8
  call void @llvm.dbg.declare(metadata %"struct.std::_Vector_base"** %this.addr, metadata !4330, metadata !DIExpression()), !dbg !4331
  store i64 %__n, i64* %__n.addr, align 8
  call void @llvm.dbg.declare(metadata i64* %__n.addr, metadata !4332, metadata !DIExpression()), !dbg !4333
  %this1 = load %"struct.std::_Vector_base"*, %"struct.std::_Vector_base"** %this.addr, align 8
  %0 = load i64, i64* %__n.addr, align 8, !dbg !4334
  %cmp = icmp ne i64 %0, 0, !dbg !4335
  br i1 %cmp, label %cond.true, label %cond.false, !dbg !4334

cond.true:                                        ; preds = %entry
