; ModuleID = 'source/numerics/vectors.all_dimensions.cc'
source_filename = "source/numerics/vectors.all_dimensions.cc"
target datalayout = "e-m:e-p270:32:32-p271:32:32-p272:64:64-i64:64-f80:128-n8:16:32:64-S128"
target triple = "x86_64-unknown-linux-gnu"

%"struct.boost::arg" = type { i8 }
%"struct.boost::arg.0" = type { i8 }
%"struct.boost::arg.2" = type { i8 }
%"struct.boost::arg.4" = type { i8 }
%"struct.boost::arg.6" = type { i8 }
%"struct.boost::arg.8" = type { i8 }
%"struct.boost::arg.10" = type { i8 }
%"struct.boost::arg.12" = type { i8 }
%"struct.boost::arg.14" = type { i8 }
%"class.std::ios_base::Init" = type { i8 }
%"class.dealii::Vector" = type { %"class.dealii::Subscriptor", i32, i32, double* }
%"class.dealii::Subscriptor" = type { i32 (...)**, i32, %"class.std::map", %"class.std::type_info"* }
%"class.std::map" = type { %"class.std::_Rb_tree" }
%"class.std::_Rb_tree" = type { %"struct.std::_Rb_tree<const char *, std::pair<const char *const, unsigned int>, std::_Select1st<std::pair<const char *const, unsigned int> >, std::less<const char *>, std::allocator<std::pair<const char *const, unsigned int> > >::_Rb_tree_impl" }
%"struct.std::_Rb_tree<const char *, std::pair<const char *const, unsigned int>, std::_Select1st<std::pair<const char *const, unsigned int> >, std::less<const char *>, std::allocator<std::pair<const char *const, unsigned int> > >::_Rb_tree_impl" = type { %"struct.std::_Rb_tree_key_compare", %"struct.std::_Rb_tree_header" }
%"struct.std::_Rb_tree_key_compare" = type { %"struct.std::less" }
%"struct.std::less" = type { i8 }
%"struct.std::_Rb_tree_header" = type { %"struct.std::_Rb_tree_node_base", i64 }
%"struct.std::_Rb_tree_node_base" = type { i32, %"struct.std::_Rb_tree_node_base"*, %"struct.std::_Rb_tree_node_base"*, %"struct.std::_Rb_tree_node_base"* }
%"class.std::type_info" = type { i32 (...)**, i8* }
%"class.std::vector" = type { %"struct.std::_Bvector_base" }
%"struct.std::_Bvector_base" = type { %"struct.std::_Bvector_base<std::allocator<bool> >::_Bvector_impl" }
%"struct.std::_Bvector_base<std::allocator<bool> >::_Bvector_impl" = type { %"struct.std::_Bvector_base<std::allocator<bool> >::_Bvector_impl_data" }
%"struct.std::_Bvector_base<std::allocator<bool> >::_Bvector_impl_data" = type { %"struct.std::_Bit_iterator", %"struct.std::_Bit_iterator", i64* }
%"struct.std::_Bit_iterator" = type { %"struct.std::_Bit_iterator_base.base", [4 x i8] }
%"struct.std::_Bit_iterator_base.base" = type <{ i64*, i32 }>
%"struct.std::_Bit_const_iterator" = type { %"struct.std::_Bit_iterator_base.base", [4 x i8] }
%"struct.std::_Bit_iterator_base" = type <{ i64*, i32, [4 x i8] }>
%"struct.std::_Bit_reference" = type { i64*, i64 }
%"struct.std::iterator" = type { i8 }

$_ZN5boost3argILi1EEC2Ev = comdat any

$_ZN5boost3argILi2EEC2Ev = comdat any

$_ZN5boost3argILi3EEC2Ev = comdat any

$_ZN5boost3argILi4EEC2Ev = comdat any

$_ZN5boost3argILi5EEC2Ev = comdat any

$_ZN5boost3argILi6EEC2Ev = comdat any

$_ZN5boost3argILi7EEC2Ev = comdat any

$_ZN5boost3argILi8EEC2Ev = comdat any

$_ZN5boost3argILi9EEC2Ev = comdat any

$_ZNK6dealii6VectorIdE4sizeEv = comdat any

$_ZNKSt6vectorIbSaIbEEixEm = comdat any

$_ZN6dealii6VectorIdEclEj = comdat any

$_ZNSt19_Bit_const_iteratorC2EPmj = comdat any

$_ZNKSt19_Bit_const_iteratordeEv = comdat any

$_ZNSt18_Bit_iterator_baseC2EPmj = comdat any

$_ZNSt14_Bit_referenceC2EPmm = comdat any

$_ZNKSt14_Bit_referencecvbEv = comdat any

@_ZN12_GLOBAL__N_12_1E = internal global %"struct.boost::arg" zeroinitializer, align 1, !dbg !0
@_ZN12_GLOBAL__N_12_2E = internal global %"struct.boost::arg.0" zeroinitializer, align 1, !dbg !15
@_ZN12_GLOBAL__N_12_3E = internal global %"struct.boost::arg.2" zeroinitializer, align 1, !dbg !25
@_ZN12_GLOBAL__N_12_4E = internal global %"struct.boost::arg.4" zeroinitializer, align 1, !dbg !35
@_ZN12_GLOBAL__N_12_5E = internal global %"struct.boost::arg.6" zeroinitializer, align 1, !dbg !45
@_ZN12_GLOBAL__N_12_6E = internal global %"struct.boost::arg.8" zeroinitializer, align 1, !dbg !55
@_ZN12_GLOBAL__N_12_7E = internal global %"struct.boost::arg.10" zeroinitializer, align 1, !dbg !65
@_ZN12_GLOBAL__N_12_8E = internal global %"struct.boost::arg.12" zeroinitializer, align 1, !dbg !75
@_ZN12_GLOBAL__N_12_9E = internal global %"struct.boost::arg.14" zeroinitializer, align 1, !dbg !85
@_ZStL8__ioinit = internal global %"class.std::ios_base::Init" zeroinitializer, align 1, !dbg !95
@__dso_handle = external hidden global i8
@llvm.global_ctors = appending global [1 x { i32, void ()*, i8* }] [{ i32, void ()*, i8* } { i32 65535, void ()* @_GLOBAL__sub_I_vectors.all_dimensions.cc, i8* null }]

; Function Attrs: noinline uwtable
define internal void @__cxx_global_var_init() #0 section ".text.startup" !dbg !1556 {
entry:
  call void @_ZN5boost3argILi1EEC2Ev(%"struct.boost::arg"* @_ZN12_GLOBAL__N_12_1E), !dbg !1558
  ret void, !dbg !1558
}

; Function Attrs: noinline nounwind uwtable
define linkonce_odr dso_local void @_ZN5boost3argILi1EEC2Ev(%"struct.boost::arg"* %this) unnamed_addr #1 comdat align 2 !dbg !1559 {
entry:
  %this.addr = alloca %"struct.boost::arg"*, align 8
  store %"struct.boost::arg"* %this, %"struct.boost::arg"** %this.addr, align 8
  call void @llvm.dbg.declare(metadata %"struct.boost::arg"** %this.addr, metadata !1560, metadata !DIExpression()), !dbg !1562
  %this1 = load %"struct.boost::arg"*, %"struct.boost::arg"** %this.addr, align 8
  ret void, !dbg !1563
}

; Function Attrs: noinline uwtable
define internal void @__cxx_global_var_init.1() #0 section ".text.startup" !dbg !1564 {
entry:
  call void @_ZN5boost3argILi2EEC2Ev(%"struct.boost::arg.0"* @_ZN12_GLOBAL__N_12_2E), !dbg !1565
  ret void, !dbg !1565
}

; Function Attrs: noinline nounwind uwtable
define linkonce_odr dso_local void @_ZN5boost3argILi2EEC2Ev(%"struct.boost::arg.0"* %this) unnamed_addr #1 comdat align 2 !dbg !1566 {
entry:
  %this.addr = alloca %"struct.boost::arg.0"*, align 8
  store %"struct.boost::arg.0"* %this, %"struct.boost::arg.0"** %this.addr, align 8
  call void @llvm.dbg.declare(metadata %"struct.boost::arg.0"** %this.addr, metadata !1567, metadata !DIExpression()), !dbg !1569
  %this1 = load %"struct.boost::arg.0"*, %"struct.boost::arg.0"** %this.addr, align 8
  ret void, !dbg !1570
}

; Function Attrs: noinline uwtable
define internal void @__cxx_global_var_init.2() #0 section ".text.startup" !dbg !1571 {
entry:
  call void @_ZN5boost3argILi3EEC2Ev(%"struct.boost::arg.2"* @_ZN12_GLOBAL__N_12_3E), !dbg !1572
  ret void, !dbg !1572
}

; Function Attrs: noinline nounwind uwtable
define linkonce_odr dso_local void @_ZN5boost3argILi3EEC2Ev(%"struct.boost::arg.2"* %this) unnamed_addr #1 comdat align 2 !dbg !1573 {
entry:
  %this.addr = alloca %"struct.boost::arg.2"*, align 8
  store %"struct.boost::arg.2"* %this, %"struct.boost::arg.2"** %this.addr, align 8
  call void @llvm.dbg.declare(metadata %"struct.boost::arg.2"** %this.addr, metadata !1574, metadata !DIExpression()), !dbg !1576
  %this1 = load %"struct.boost::arg.2"*, %"struct.boost::arg.2"** %this.addr, align 8
  ret void, !dbg !1577
}

; Function Attrs: noinline uwtable
define internal void @__cxx_global_var_init.3() #0 section ".text.startup" !dbg !1578 {
entry:
  call void @_ZN5boost3argILi4EEC2Ev(%"struct.boost::arg.4"* @_ZN12_GLOBAL__N_12_4E), !dbg !1579
  ret void, !dbg !1579
}

; Function Attrs: noinline nounwind uwtable
define linkonce_odr dso_local void @_ZN5boost3argILi4EEC2Ev(%"struct.boost::arg.4"* %this) unnamed_addr #1 comdat align 2 !dbg !1580 {
entry:
  %this.addr = alloca %"struct.boost::arg.4"*, align 8
  store %"struct.boost::arg.4"* %this, %"struct.boost::arg.4"** %this.addr, align 8
  call void @llvm.dbg.declare(metadata %"struct.boost::arg.4"** %this.addr, metadata !1581, metadata !DIExpression()), !dbg !1583
  %this1 = load %"struct.boost::arg.4"*, %"struct.boost::arg.4"** %this.addr, align 8
  ret void, !dbg !1584
}

; Function Attrs: noinline uwtable
define internal void @__cxx_global_var_init.4() #0 section ".text.startup" !dbg !1585 {
entry:
  call void @_ZN5boost3argILi5EEC2Ev(%"struct.boost::arg.6"* @_ZN12_GLOBAL__N_12_5E), !dbg !1586
  ret void, !dbg !1586
}

; Function Attrs: noinline nounwind uwtable
define linkonce_odr dso_local void @_ZN5boost3argILi5EEC2Ev(%"struct.boost::arg.6"* %this) unnamed_addr #1 comdat align 2 !dbg !1587 {
entry:
  %this.addr = alloca %"struct.boost::arg.6"*, align 8
  store %"struct.boost::arg.6"* %this, %"struct.boost::arg.6"** %this.addr, align 8
  call void @llvm.dbg.declare(metadata %"struct.boost::arg.6"** %this.addr, metadata !1588, metadata !DIExpression()), !dbg !1590
  %this1 = load %"struct.boost::arg.6"*, %"struct.boost::arg.6"** %this.addr, align 8
  ret void, !dbg !1591
}

; Function Attrs: noinline uwtable
define internal void @__cxx_global_var_init.5() #0 section ".text.startup" !dbg !1592 {
entry:
  call void @_ZN5boost3argILi6EEC2Ev(%"struct.boost::arg.8"* @_ZN12_GLOBAL__N_12_6E), !dbg !1593
  ret void, !dbg !1593
}

; Function Attrs: noinline nounwind uwtable
define linkonce_odr dso_local void @_ZN5boost3argILi6EEC2Ev(%"struct.boost::arg.8"* %this) unnamed_addr #1 comdat align 2 !dbg !1594 {
entry:
  %this.addr = alloca %"struct.boost::arg.8"*, align 8
  store %"struct.boost::arg.8"* %this, %"struct.boost::arg.8"** %this.addr, align 8
  call void @llvm.dbg.declare(metadata %"struct.boost::arg.8"** %this.addr, metadata !1595, metadata !DIExpression()), !dbg !1597
  %this1 = load %"struct.boost::arg.8"*, %"struct.boost::arg.8"** %this.addr, align 8
  ret void, !dbg !1598
}

; Function Attrs: noinline uwtable
define internal void @__cxx_global_var_init.6() #0 section ".text.startup" !dbg !1599 {
entry:
  call void @_ZN5boost3argILi7EEC2Ev(%"struct.boost::arg.10"* @_ZN12_GLOBAL__N_12_7E), !dbg !1600
  ret void, !dbg !1600
}

; Function Attrs: noinline nounwind uwtable
define linkonce_odr dso_local void @_ZN5boost3argILi7EEC2Ev(%"struct.boost::arg.10"* %this) unnamed_addr #1 comdat align 2 !dbg !1601 {
entry:
  %this.addr = alloca %"struct.boost::arg.10"*, align 8
  store %"struct.boost::arg.10"* %this, %"struct.boost::arg.10"** %this.addr, align 8
  call void @llvm.dbg.declare(metadata %"struct.boost::arg.10"** %this.addr, metadata !1602, metadata !DIExpression()), !dbg !1604
  %this1 = load %"struct.boost::arg.10"*, %"struct.boost::arg.10"** %this.addr, align 8
  ret void, !dbg !1605
}

; Function Attrs: noinline uwtable
define internal void @__cxx_global_var_init.7() #0 section ".text.startup" !dbg !1606 {
entry:
  call void @_ZN5boost3argILi8EEC2Ev(%"struct.boost::arg.12"* @_ZN12_GLOBAL__N_12_8E), !dbg !1607
  ret void, !dbg !1607
}

; Function Attrs: noinline nounwind uwtable
define linkonce_odr dso_local void @_ZN5boost3argILi8EEC2Ev(%"struct.boost::arg.12"* %this) unnamed_addr #1 comdat align 2 !dbg !1608 {
entry:
  %this.addr = alloca %"struct.boost::arg.12"*, align 8
  store %"struct.boost::arg.12"* %this, %"struct.boost::arg.12"** %this.addr, align 8
  call void @llvm.dbg.declare(metadata %"struct.boost::arg.12"** %this.addr, metadata !1609, metadata !DIExpression()), !dbg !1611
  %this1 = load %"struct.boost::arg.12"*, %"struct.boost::arg.12"** %this.addr, align 8
  ret void, !dbg !1612
}

; Function Attrs: noinline uwtable
define internal void @__cxx_global_var_init.8() #0 section ".text.startup" !dbg !1613 {
entry:
  call void @_ZN5boost3argILi9EEC2Ev(%"struct.boost::arg.14"* @_ZN12_GLOBAL__N_12_9E), !dbg !1614
  ret void, !dbg !1614
}

; Function Attrs: noinline nounwind uwtable
define linkonce_odr dso_local void @_ZN5boost3argILi9EEC2Ev(%"struct.boost::arg.14"* %this) unnamed_addr #1 comdat align 2 !dbg !1615 {
entry:
  %this.addr = alloca %"struct.boost::arg.14"*, align 8
  store %"struct.boost::arg.14"* %this, %"struct.boost::arg.14"** %this.addr, align 8
  call void @llvm.dbg.declare(metadata %"struct.boost::arg.14"** %this.addr, metadata !1616, metadata !DIExpression()), !dbg !1618
  %this1 = load %"struct.boost::arg.14"*, %"struct.boost::arg.14"** %this.addr, align 8
  ret void, !dbg !1619
}

; Function Attrs: noinline uwtable
define internal void @__cxx_global_var_init.9() #0 section ".text.startup" !dbg !1620 {
entry:
  call void @_ZNSt8ios_base4InitC1Ev(%"class.std::ios_base::Init"* @_ZStL8__ioinit), !dbg !1621
  %0 = call i32 @__cxa_atexit(void (i8*)* bitcast (void (%"class.std::ios_base::Init"*)* @_ZNSt8ios_base4InitD1Ev to void (i8*)*), i8* getelementptr inbounds (%"class.std::ios_base::Init", %"class.std::ios_base::Init"* @_ZStL8__ioinit, i32 0, i32 0), i8* @__dso_handle) #4, !dbg !1621
  ret void, !dbg !1621
}

declare dso_local void @_ZNSt8ios_base4InitC1Ev(%"class.std::ios_base::Init"*) unnamed_addr #2

; Function Attrs: nounwind
declare dso_local void @_ZNSt8ios_base4InitD1Ev(%"class.std::ios_base::Init"*) unnamed_addr #3

; Function Attrs: nounwind
declare dso_local i32 @__cxa_atexit(void (i8*)*, i8*, i8*) #4

; Function Attrs: noinline uwtable
define dso_local void @_ZN6dealii11VectorTools19subtract_mean_valueERNS_6VectorIdEERKSt6vectorIbSaIbEE(%"class.dealii::Vector"* dereferenceable(88) %v, %"class.std::vector"* dereferenceable(40) %p_select) #0 align 2 !dbg !1622 {
entry:
  %v.addr = alloca %"class.dealii::Vector"*, align 8
  %p_select.addr = alloca %"class.std::vector"*, align 8
  %n = alloca i32, align 4
  %s = alloca double, align 8
  %counter = alloca i32, align 4
  %i = alloca i32, align 4
  %i5 = alloca i32, align 4
  store %"class.dealii::Vector"* %v, %"class.dealii::Vector"** %v.addr, align 8
  call void @llvm.dbg.declare(metadata %"class.dealii::Vector"** %v.addr, metadata !2408, metadata !DIExpression()), !dbg !2409
  store %"class.std::vector"* %p_select, %"class.std::vector"** %p_select.addr, align 8
  call void @llvm.dbg.declare(metadata %"class.std::vector"** %p_select.addr, metadata !2410, metadata !DIExpression()), !dbg !2411
  call void @llvm.dbg.declare(metadata i32* %n, metadata !2412, metadata !DIExpression()), !dbg !2414
  %0 = load %"class.dealii::Vector"*, %"class.dealii::Vector"** %v.addr, align 8, !dbg !2415
  %call = call i32 @_ZNK6dealii6VectorIdE4sizeEv(%"class.dealii::Vector"* %0), !dbg !2416
  store i32 %call, i32* %n, align 4, !dbg !2414
  call void @llvm.dbg.declare(metadata double* %s, metadata !2417, metadata !DIExpression()), !dbg !2418
  store double 0.000000e+00, double* %s, align 8, !dbg !2418
  call void @llvm.dbg.declare(metadata i32* %counter, metadata !2419, metadata !DIExpression()), !dbg !2420
  store i32 0, i32* %counter, align 4, !dbg !2420
  call void @llvm.dbg.declare(metadata i32* %i, metadata !2421, metadata !DIExpression()), !dbg !2423
  store i32 0, i32* %i, align 4, !dbg !2423
  br label %for.cond, !dbg !2424

for.cond:                                         ; preds = %for.inc, %entry
  %1 = load i32, i32* %i, align 4, !dbg !2425
  %2 = load i32, i32* %n, align 4, !dbg !2427
  %cmp = icmp ult i32 %1, %2, !dbg !2428
  br i1 %cmp, label %for.body, label %for.end, !dbg !2429

for.body:                                         ; preds = %for.cond
  %3 = load %"class.std::vector"*, %"class.std::vector"** %p_select.addr, align 8, !dbg !2430
  %4 = load i32, i32* %i, align 4, !dbg !2432
  %conv = zext i32 %4 to i64, !dbg !2432
  %call1 = call zeroext i1 @_ZNKSt6vectorIbSaIbEEixEm(%"class.std::vector"* %3, i64 %conv), !dbg !2430
  br i1 %call1, label %if.then, label %if.end, !dbg !2433

if.then:                                          ; preds = %for.body
  %5 = load %"class.dealii::Vector"*, %"class.dealii::Vector"** %v.addr, align 8, !dbg !2434
  %6 = load i32, i32* %i, align 4, !dbg !2436
  %call2 = call dereferenceable(8) double* @_ZN6dealii6VectorIdEclEj(%"class.dealii::Vector"* %5, i32 %6), !dbg !2434
  %7 = load double, double* %call2, align 8, !dbg !2434
  %8 = load double, double* %s, align 8, !dbg !2437
  %add = fadd double %8, %7, !dbg !2437
  store double %add, double* %s, align 8, !dbg !2437
  %9 = load i32, i32* %counter, align 4, !dbg !2438
  %inc = add i32 %9, 1, !dbg !2438
  store i32 %inc, i32* %counter, align 4, !dbg !2438
  br label %if.end, !dbg !2439

if.end:                                           ; preds = %if.then, %for.body
  br label %for.inc, !dbg !2440

for.inc:                                          ; preds = %if.end
  %10 = load i32, i32* %i, align 4, !dbg !2441
  %inc3 = add i32 %10, 1, !dbg !2441
  store i32 %inc3, i32* %i, align 4, !dbg !2441
  br label %for.cond, !dbg !2442, !llvm.loop !2443

for.end:                                          ; preds = %for.cond
  %11 = load i32, i32* %counter, align 4, !dbg !2445
  %conv4 = uitofp i32 %11 to double, !dbg !2445
  %12 = load double, double* %s, align 8, !dbg !2446
  %div = fdiv double %12, %conv4, !dbg !2446
  store double %div, double* %s, align 8, !dbg !2446
  call void @llvm.dbg.declare(metadata i32* %i5, metadata !2447, metadata !DIExpression()), !dbg !2449
  store i32 0, i32* %i5, align 4, !dbg !2449
  br label %for.cond6, !dbg !2450

for.cond6:                                        ; preds = %for.inc14, %for.end
  %13 = load i32, i32* %i5, align 4, !dbg !2451
  %14 = load i32, i32* %n, align 4, !dbg !2453
  %cmp7 = icmp ult i32 %13, %14, !dbg !2454
  br i1 %cmp7, label %for.body8, label %for.end16, !dbg !2455

for.body8:                                        ; preds = %for.cond6
  %15 = load %"class.std::vector"*, %"class.std::vector"** %p_select.addr, align 8, !dbg !2456
  %16 = load i32, i32* %i5, align 4, !dbg !2458
  %conv9 = zext i32 %16 to i64, !dbg !2458
  %call10 = call zeroext i1 @_ZNKSt6vectorIbSaIbEEixEm(%"class.std::vector"* %15, i64 %conv9), !dbg !2456
  br i1 %call10, label %if.then11, label %if.end13, !dbg !2459

if.then11:                                        ; preds = %for.body8
  %17 = load double, double* %s, align 8, !dbg !2460
  %18 = load %"class.dealii::Vector"*, %"class.dealii::Vector"** %v.addr, align 8, !dbg !2461
  %19 = load i32, i32* %i5, align 4, !dbg !2462
  %call12 = call dereferenceable(8) double* @_ZN6dealii6VectorIdEclEj(%"class.dealii::Vector"* %18, i32 %19), !dbg !2461
  %20 = load double, double* %call12, align 8, !dbg !2463
  %sub = fsub double %20, %17, !dbg !2463
  store double %sub, double* %call12, align 8, !dbg !2463
  br label %if.end13, !dbg !2461

if.end13:                                         ; preds = %if.then11, %for.body8
  br label %for.inc14, !dbg !2464

for.inc14:                                        ; preds = %if.end13
  %21 = load i32, i32* %i5, align 4, !dbg !2465
  %inc15 = add i32 %21, 1, !dbg !2465
  store i32 %inc15, i32* %i5, align 4, !dbg !2465
  br label %for.cond6, !dbg !2466, !llvm.loop !2467

for.end16:                                        ; preds = %for.cond6
  ret void, !dbg !2469
}

; Function Attrs: nounwind readnone speculatable willreturn
declare void @llvm.dbg.declare(metadata, metadata, metadata) #5

; Function Attrs: noinline nounwind uwtable
define linkonce_odr dso_local i32 @_ZNK6dealii6VectorIdE4sizeEv(%"class.dealii::Vector"* %this) #1 comdat align 2 !dbg !2470 {
entry:
  %this.addr = alloca %"class.dealii::Vector"*, align 8
  store %"class.dealii::Vector"* %this, %"class.dealii::Vector"** %this.addr, align 8
  call void @llvm.dbg.declare(metadata %"class.dealii::Vector"** %this.addr, metadata !2476, metadata !DIExpression()), !dbg !2478
  %this1 = load %"class.dealii::Vector"*, %"class.dealii::Vector"** %this.addr, align 8
  %vec_size = getelementptr inbounds %"class.dealii::Vector", %"class.dealii::Vector"* %this1, i32 0, i32 1, !dbg !2479
  %0 = load i32, i32* %vec_size, align 8, !dbg !2479
  ret i32 %0, !dbg !2480
}

; Function Attrs: noinline uwtable
define linkonce_odr dso_local zeroext i1 @_ZNKSt6vectorIbSaIbEEixEm(%"class.std::vector"* %this, i64 %__n) #0 comdat align 2 !dbg !2481 {
entry:
  %this.addr = alloca %"class.std::vector"*, align 8
  %__n.addr = alloca i64, align 8
  %ref.tmp = alloca %"struct.std::_Bit_const_iterator", align 8
  store %"class.std::vector"* %this, %"class.std::vector"** %this.addr, align 8
  call void @llvm.dbg.declare(metadata %"class.std::vector"** %this.addr, metadata !2482, metadata !DIExpression()), !dbg !2484
  store i64 %__n, i64* %__n.addr, align 8
  call void @llvm.dbg.declare(metadata i64* %__n.addr, metadata !2485, metadata !DIExpression()), !dbg !2486
  %this1 = load %"class.std::vector"*, %"class.std::vector"** %this.addr, align 8
  %0 = bitcast %"class.std::vector"* %this1 to %"struct.std::_Bvector_base"*, !dbg !2487
  %_M_impl = getelementptr inbounds %"struct.std::_Bvector_base", %"struct.std::_Bvector_base"* %0, i32 0, i32 0, !dbg !2487
  %1 = bitcast %"struct.std::_Bvector_base<std::allocator<bool> >::_Bvector_impl"* %_M_impl to %"struct.std::_Bvector_base<std::allocator<bool> >::_Bvector_impl_data"*, !dbg !2488
  %_M_start = getelementptr inbounds %"struct.std::_Bvector_base<std::allocator<bool> >::_Bvector_impl_data", %"struct.std::_Bvector_base<std::allocator<bool> >::_Bvector_impl_data"* %1, i32 0, i32 0, !dbg !2489
  %2 = bitcast %"struct.std::_Bit_iterator"* %_M_start to %"struct.std::_Bit_iterator_base"*, !dbg !2488
  %_M_p = getelementptr inbounds %"struct.std::_Bit_iterator_base", %"struct.std::_Bit_iterator_base"* %2, i32 0, i32 0, !dbg !2490
  %3 = load i64*, i64** %_M_p, align 8, !dbg !2490
  %4 = load i64, i64* %__n.addr, align 8, !dbg !2491
  %div = udiv i64 %4, 64, !dbg !2492
  %add.ptr = getelementptr inbounds i64, i64* %3, i64 %div, !dbg !2493
  %5 = load i64, i64* %__n.addr, align 8, !dbg !2494
  %rem = urem i64 %5, 64, !dbg !2495
  %conv = trunc i64 %rem to i32, !dbg !2494
  call void @_ZNSt19_Bit_const_iteratorC2EPmj(%"struct.std::_Bit_const_iterator"* %ref.tmp, i64* %add.ptr, i32 %conv), !dbg !2496
  %call = call zeroext i1 @_ZNKSt19_Bit_const_iteratordeEv(%"struct.std::_Bit_const_iterator"* %ref.tmp), !dbg !2497
  ret i1 %call, !dbg !2498
}

; Function Attrs: noinline nounwind uwtable
define linkonce_odr dso_local dereferenceable(8) double* @_ZN6dealii6VectorIdEclEj(%"class.dealii::Vector"* %this, i32 %i) #1 comdat align 2 !dbg !2499 {
entry:
  %this.addr = alloca %"class.dealii::Vector"*, align 8
  %i.addr = alloca i32, align 4
  store %"class.dealii::Vector"* %this, %"class.dealii::Vector"** %this.addr, align 8
  call void @llvm.dbg.declare(metadata %"class.dealii::Vector"** %this.addr, metadata !2505, metadata !DIExpression()), !dbg !2507
  store i32 %i, i32* %i.addr, align 4
  call void @llvm.dbg.declare(metadata i32* %i.addr, metadata !2508, metadata !DIExpression()), !dbg !2509
  %this1 = load %"class.dealii::Vector"*, %"class.dealii::Vector"** %this.addr, align 8
  %val = getelementptr inbounds %"class.dealii::Vector", %"class.dealii::Vector"* %this1, i32 0, i32 3, !dbg !2510
  %0 = load double*, double** %val, align 8, !dbg !2510
  %1 = load i32, i32* %i.addr, align 4, !dbg !2511
  %idxprom = zext i32 %1 to i64, !dbg !2510
  %arrayidx = getelementptr inbounds double, double* %0, i64 %idxprom, !dbg !2510
  ret double* %arrayidx, !dbg !2512
}

; Function Attrs: noinline uwtable
define linkonce_odr dso_local void @_ZNSt19_Bit_const_iteratorC2EPmj(%"struct.std::_Bit_const_iterator"* %this, i64* %__x, i32 %__y) unnamed_addr #0 comdat align 2 !dbg !2513 {
entry:
  %this.addr = alloca %"struct.std::_Bit_const_iterator"*, align 8
  %__x.addr = alloca i64*, align 8
  %__y.addr = alloca i32, align 4
  store %"struct.std::_Bit_const_iterator"* %this, %"struct.std::_Bit_const_iterator"** %this.addr, align 8
  call void @llvm.dbg.declare(metadata %"struct.std::_Bit_const_iterator"** %this.addr, metadata !2514, metadata !DIExpression()), !dbg !2516
  store i64* %__x, i64** %__x.addr, align 8
  call void @llvm.dbg.declare(metadata i64** %__x.addr, metadata !2517, metadata !DIExpression()), !dbg !2518
  store i32 %__y, i32* %__y.addr, align 4
  call void @llvm.dbg.declare(metadata i32* %__y.addr, metadata !2519, metadata !DIExpression()), !dbg !2520
  %this1 = load %"struct.std::_Bit_const_iterator"*, %"struct.std::_Bit_const_iterator"** %this.addr, align 8
  %0 = bitcast %"struct.std::_Bit_const_iterator"* %this1 to %"struct.std::_Bit_iterator_base"*, !dbg !2521
  %1 = load i64*, i64** %__x.addr, align 8, !dbg !2522
  %2 = load i32, i32* %__y.addr, align 4, !dbg !2523
  call void @_ZNSt18_Bit_iterator_baseC2EPmj(%"struct.std::_Bit_iterator_base"* %0, i64* %1, i32 %2), !dbg !2524
  ret void, !dbg !2525
}

; Function Attrs: noinline uwtable
define linkonce_odr dso_local zeroext i1 @_ZNKSt19_Bit_const_iteratordeEv(%"struct.std::_Bit_const_iterator"* %this) #0 comdat align 2 !dbg !2526 {
entry:
  %this.addr = alloca %"struct.std::_Bit_const_iterator"*, align 8
  %ref.tmp = alloca %"struct.std::_Bit_reference", align 8
  store %"struct.std::_Bit_const_iterator"* %this, %"struct.std::_Bit_const_iterator"** %this.addr, align 8
  call void @llvm.dbg.declare(metadata %"struct.std::_Bit_const_iterator"** %this.addr, metadata !2527, metadata !DIExpression()), !dbg !2529
  %this1 = load %"struct.std::_Bit_const_iterator"*, %"struct.std::_Bit_const_iterator"** %this.addr, align 8
  %0 = bitcast %"struct.std::_Bit_const_iterator"* %this1 to %"struct.std::_Bit_iterator_base"*, !dbg !2530
  %_M_p = getelementptr inbounds %"struct.std::_Bit_iterator_base", %"struct.std::_Bit_iterator_base"* %0, i32 0, i32 0, !dbg !2530
  %1 = load i64*, i64** %_M_p, align 8, !dbg !2530
  %2 = bitcast %"struct.std::_Bit_const_iterator"* %this1 to %"struct.std::_Bit_iterator_base"*, !dbg !2531
  %_M_offset = getelementptr inbounds %"struct.std::_Bit_iterator_base", %"struct.std::_Bit_iterator_base"* %2, i32 0, i32 1, !dbg !2531
  %3 = load i32, i32* %_M_offset, align 8, !dbg !2531
  %sh_prom = zext i32 %3 to i64, !dbg !2532
  %shl = shl i64 1, %sh_prom, !dbg !2532
  call void @_ZNSt14_Bit_referenceC2EPmm(%"struct.std::_Bit_reference"* %ref.tmp, i64* %1, i64 %shl), !dbg !2533
  %call = call zeroext i1 @_ZNKSt14_Bit_referencecvbEv(%"struct.std::_Bit_reference"* %ref.tmp) #4, !dbg !2533
  ret i1 %call, !dbg !2534
}

; Function Attrs: noinline nounwind uwtable
define linkonce_odr dso_local void @_ZNSt18_Bit_iterator_baseC2EPmj(%"struct.std::_Bit_iterator_base"* %this, i64* %__x, i32 %__y) unnamed_addr #1 comdat align 2 !dbg !2535 {
entry:
  %this.addr = alloca %"struct.std::_Bit_iterator_base"*, align 8
  %__x.addr = alloca i64*, align 8
  %__y.addr = alloca i32, align 4
  store %"struct.std::_Bit_iterator_base"* %this, %"struct.std::_Bit_iterator_base"** %this.addr, align 8
  call void @llvm.dbg.declare(metadata %"struct.std::_Bit_iterator_base"** %this.addr, metadata !2536, metadata !DIExpression()), !dbg !2538
  store i64* %__x, i64** %__x.addr, align 8
  call void @llvm.dbg.declare(metadata i64** %__x.addr, metadata !2539, metadata !DIExpression()), !dbg !2540
  store i32 %__y, i32* %__y.addr, align 4
  call void @llvm.dbg.declare(metadata i32* %__y.addr, metadata !2541, metadata !DIExpression()), !dbg !2542
  %this1 = load %"struct.std::_Bit_iterator_base"*, %"struct.std::_Bit_iterator_base"** %this.addr, align 8
  %0 = bitcast %"struct.std::_Bit_iterator_base"* %this1 to %"struct.std::iterator"*, !dbg !2543
  %_M_p = getelementptr inbounds %"struct.std::_Bit_iterator_base", %"struct.std::_Bit_iterator_base"* %this1, i32 0, i32 0, !dbg !2544
  %1 = load i64*, i64** %__x.addr, align 8, !dbg !2545
  store i64* %1, i64** %_M_p, align 8, !dbg !2544
  %_M_offset = getelementptr inbounds %"struct.std::_Bit_iterator_base", %"struct.std::_Bit_iterator_base"* %this1, i32 0, i32 1, !dbg !2546
  %2 = load i32, i32* %__y.addr, align 4, !dbg !2547
  store i32 %2, i32* %_M_offset, align 8, !dbg !2546
  ret void, !dbg !2548
}

; Function Attrs: noinline nounwind uwtable
define linkonce_odr dso_local void @_ZNSt14_Bit_referenceC2EPmm(%"struct.std::_Bit_reference"* %this, i64* %__x, i64 %__y) unnamed_addr #1 comdat align 2 !dbg !2549 {
entry:
  %this.addr = alloca %"struct.std::_Bit_reference"*, align 8
  %__x.addr = alloca i64*, align 8
  %__y.addr = alloca i64, align 8
  store %"struct.std::_Bit_reference"* %this, %"struct.std::_Bit_reference"** %this.addr, align 8
  call void @llvm.dbg.declare(metadata %"struct.std::_Bit_reference"** %this.addr, metadata !2550, metadata !DIExpression()), !dbg !2551
  store i64* %__x, i64** %__x.addr, align 8
  call void @llvm.dbg.declare(metadata i64** %__x.addr, metadata !2552, metadata !DIExpression()), !dbg !2553
  store i64 %__y, i64* %__y.addr, align 8
  call void @llvm.dbg.declare(metadata i64* %__y.addr, metadata !2554, metadata !DIExpression()), !dbg !2555
  %this1 = load %"struct.std::_Bit_reference"*, %"struct.std::_Bit_reference"** %this.addr, align 8
  %_M_p = getelementptr inbounds %"struct.std::_Bit_reference", %"struct.std::_Bit_reference"* %this1, i32 0, i32 0, !dbg !2556
  %0 = load i64*, i64** %__x.addr, align 8, !dbg !2557
  store i64* %0, i64** %_M_p, align 8, !dbg !2556
  %_M_mask = getelementptr inbounds %"struct.std::_Bit_reference", %"struct.std::_Bit_reference"* %this1, i32 0, i32 1, !dbg !2558
  %1 = load i64, i64* %__y.addr, align 8, !dbg !2559
  store i64 %1, i64* %_M_mask, align 8, !dbg !2558
  ret void, !dbg !2560
}

; Function Attrs: noinline nounwind uwtable
define linkonce_odr dso_local zeroext i1 @_ZNKSt14_Bit_referencecvbEv(%"struct.std::_Bit_reference"* %this) #1 comdat align 2 !dbg !2561 {
entry:
  %this.addr = alloca %"struct.std::_Bit_reference"*, align 8
  store %"struct.std::_Bit_reference"* %this, %"struct.std::_Bit_reference"** %this.addr, align 8
  call void @llvm.dbg.declare(metadata %"struct.std::_Bit_reference"** %this.addr, metadata !2562, metadata !DIExpression()), !dbg !2564
  %this1 = load %"struct.std::_Bit_reference"*, %"struct.std::_Bit_reference"** %this.addr, align 8
  %_M_p = getelementptr inbounds %"struct.std::_Bit_reference", %"struct.std::_Bit_reference"* %this1, i32 0, i32 0, !dbg !2565
  %0 = load i64*, i64** %_M_p, align 8, !dbg !2565
  %1 = load i64, i64* %0, align 8, !dbg !2566
  %_M_mask = getelementptr inbounds %"struct.std::_Bit_reference", %"struct.std::_Bit_reference"* %this1, i32 0, i32 1, !dbg !2567
  %2 = load i64, i64* %_M_mask, align 8, !dbg !2567
  %and = and i64 %1, %2, !dbg !2568
  %tobool = icmp ne i64 %and, 0, !dbg !2569
  %lnot = xor i1 %tobool, true, !dbg !2570
  %lnot2 = xor i1 %lnot, true, !dbg !2571
  ret i1 %lnot2, !dbg !2572
}

; Function Attrs: noinline uwtable
define internal void @_GLOBAL__sub_I_vectors.all_dimensions.cc() #0 section ".text.startup" !dbg !2573 {
entry:
  call void @__cxx_global_var_init(), !dbg !2575
  call void @__cxx_global_var_init.1(), !dbg !2575
  call void @__cxx_global_var_init.2(), !dbg !2575
  call void @__cxx_global_var_init.3(), !dbg !2575
  call void @__cxx_global_var_init.4(), !dbg !2575
  call void @__cxx_global_var_init.5(), !dbg !2575
  call void @__cxx_global_var_init.6(), !dbg !2575
  call void @__cxx_global_var_init.7(), !dbg !2575
  call void @__cxx_global_var_init.8(), !dbg !2575
  call void @__cxx_global_var_init.9(), !dbg !2575
  ret void
}

attributes #0 = { noinline uwtable "correctly-rounded-divide-sqrt-fp-math"="false" "disable-tail-calls"="false" "frame-pointer"="all" "less-precise-fpmad"="false" "min-legal-vector-width"="0" "no-infs-fp-math"="false" "no-jump-tables"="false" "no-nans-fp-math"="false" "no-signed-zeros-fp-math"="false" "no-trapping-math"="false" "stack-protector-buffer-size"="8" "target-cpu"="x86-64" "target-features"="+cx8,+fxsr,+mmx,+sse,+sse2,+x87" "unsafe-fp-math"="false" "use-soft-float"="false" }
attributes #1 = { noinline nounwind uwtable "correctly-rounded-divide-sqrt-fp-math"="false" "disable-tail-calls"="false" "frame-pointer"="all" "less-precise-fpmad"="false" "min-legal-vector-width"="0" "no-infs-fp-math"="false" "no-jump-tables"="false" "no-nans-fp-math"="false" "no-signed-zeros-fp-math"="false" "no-trapping-math"="false" "stack-protector-buffer-size"="8" "target-cpu"="x86-64" "target-features"="+cx8,+fxsr,+mmx,+sse,+sse2,+x87" "unsafe-fp-math"="false" "use-soft-float"="false" }
attributes #2 = { "correctly-rounded-divide-sqrt-fp-math"="false" "disable-tail-calls"="false" "frame-pointer"="all" "less-precise-fpmad"="false" "no-infs-fp-math"="false" "no-nans-fp-math"="false" "no-signed-zeros-fp-math"="false" "no-trapping-math"="false" "stack-protector-buffer-size"="8" "target-cpu"="x86-64" "target-features"="+cx8,+fxsr,+mmx,+sse,+sse2,+x87" "unsafe-fp-math"="false" "use-soft-float"="false" }
attributes #3 = { nounwind "correctly-rounded-divide-sqrt-fp-math"="false" "disable-tail-calls"="false" "frame-pointer"="all" "less-precise-fpmad"="false" "no-infs-fp-math"="false" "no-nans-fp-math"="false" "no-signed-zeros-fp-math"="false" "no-trapping-math"="false" "stack-protector-buffer-size"="8" "target-cpu"="x86-64" "target-features"="+cx8,+fxsr,+mmx,+sse,+sse2,+x87" "unsafe-fp-math"="false" "use-soft-float"="false" }
attributes #4 = { nounwind }
attributes #5 = { nounwind readnone speculatable willreturn }

!llvm.dbg.cu = !{!122}
!llvm.module.flags = !{!1552, !1553, !1554}
!llvm.ident = !{!1555}

!0 = !DIGlobalVariableExpression(var: !1, expr: !DIExpression())
!1 = distinct !DIGlobalVariable(name: "_1", linkageName: "_ZN12_GLOBAL__N_12_1E", scope: !2, file: !3, line: 54, type: !4, isLocal: true, isDefinition: true)
!2 = !DINamespace(scope: null)
!3 = !DIFile(filename: "./boost/bind/placeholders.hpp", directory: "/home/venkat/IF-DV/spec_build_release/CPU_2017/benchspec/CPU/510.parest_r/build/build_base_ld-loop-ext-m64.0000")
!4 = distinct !DICompositeType(tag: DW_TAG_structure_type, name: "arg<1>", scope: !6, file: !5, line: 28, size: 8, flags: DIFlagTypePassByValue | DIFlagNonTrivial, elements: !7, templateParams: !12, identifier: "_ZTSN5boost3argILi1EEE")
!5 = !DIFile(filename: "./boost/bind/arg.hpp", directory: "/home/venkat/IF-DV/spec_build_release/CPU_2017/benchspec/CPU/510.parest_r/build/build_base_ld-loop-ext-m64.0000")
!6 = !DINamespace(name: "boost", scope: null)
!7 = !{!8}
!8 = !DISubprogram(name: "arg", scope: !4, file: !5, line: 30, type: !9, scopeLine: 30, flags: DIFlagPrototyped, spFlags: 0)
!9 = !DISubroutineType(types: !10)
!10 = !{null, !11}
!11 = !DIDerivedType(tag: DW_TAG_pointer_type, baseType: !4, size: 64, flags: DIFlagArtificial | DIFlagObjectPointer)
!12 = !{!13}
!13 = !DITemplateValueParameter(name: "I", type: !14, value: i32 1)
!14 = !DIBasicType(name: "int", size: 32, encoding: DW_ATE_signed)
!15 = !DIGlobalVariableExpression(var: !16, expr: !DIExpression())
!16 = distinct !DIGlobalVariable(name: "_2", linkageName: "_ZN12_GLOBAL__N_12_2E", scope: !2, file: !3, line: 55, type: !17, isLocal: true, isDefinition: true)
!17 = distinct !DICompositeType(tag: DW_TAG_structure_type, name: "arg<2>", scope: !6, file: !5, line: 28, size: 8, flags: DIFlagTypePassByValue | DIFlagNonTrivial, elements: !18, templateParams: !23, identifier: "_ZTSN5boost3argILi2EEE")
!18 = !{!19}
!19 = !DISubprogram(name: "arg", scope: !17, file: !5, line: 30, type: !20, scopeLine: 30, flags: DIFlagPrototyped, spFlags: 0)
!20 = !DISubroutineType(types: !21)
!21 = !{null, !22}
!22 = !DIDerivedType(tag: DW_TAG_pointer_type, baseType: !17, size: 64, flags: DIFlagArtificial | DIFlagObjectPointer)
!23 = !{!24}
!24 = !DITemplateValueParameter(name: "I", type: !14, value: i32 2)
!25 = !DIGlobalVariableExpression(var: !26, expr: !DIExpression())
!26 = distinct !DIGlobalVariable(name: "_3", linkageName: "_ZN12_GLOBAL__N_12_3E", scope: !2, file: !3, line: 56, type: !27, isLocal: true, isDefinition: true)
!27 = distinct !DICompositeType(tag: DW_TAG_structure_type, name: "arg<3>", scope: !6, file: !5, line: 28, size: 8, flags: DIFlagTypePassByValue | DIFlagNonTrivial, elements: !28, templateParams: !33, identifier: "_ZTSN5boost3argILi3EEE")
!28 = !{!29}
!29 = !DISubprogram(name: "arg", scope: !27, file: !5, line: 30, type: !30, scopeLine: 30, flags: DIFlagPrototyped, spFlags: 0)
!30 = !DISubroutineType(types: !31)
!31 = !{null, !32}
!32 = !DIDerivedType(tag: DW_TAG_pointer_type, baseType: !27, size: 64, flags: DIFlagArtificial | DIFlagObjectPointer)
!33 = !{!34}
!34 = !DITemplateValueParameter(name: "I", type: !14, value: i32 3)
!35 = !DIGlobalVariableExpression(var: !36, expr: !DIExpression())
!36 = distinct !DIGlobalVariable(name: "_4", linkageName: "_ZN12_GLOBAL__N_12_4E", scope: !2, file: !3, line: 57, type: !37, isLocal: true, isDefinition: true)
!37 = distinct !DICompositeType(tag: DW_TAG_structure_type, name: "arg<4>", scope: !6, file: !5, line: 28, size: 8, flags: DIFlagTypePassByValue | DIFlagNonTrivial, elements: !38, templateParams: !43, identifier: "_ZTSN5boost3argILi4EEE")
!38 = !{!39}
!39 = !DISubprogram(name: "arg", scope: !37, file: !5, line: 30, type: !40, scopeLine: 30, flags: DIFlagPrototyped, spFlags: 0)
!40 = !DISubroutineType(types: !41)
!41 = !{null, !42}
!42 = !DIDerivedType(tag: DW_TAG_pointer_type, baseType: !37, size: 64, flags: DIFlagArtificial | DIFlagObjectPointer)
!43 = !{!44}
!44 = !DITemplateValueParameter(name: "I", type: !14, value: i32 4)
!45 = !DIGlobalVariableExpression(var: !46, expr: !DIExpression())
!46 = distinct !DIGlobalVariable(name: "_5", linkageName: "_ZN12_GLOBAL__N_12_5E", scope: !2, file: !3, line: 58, type: !47, isLocal: true, isDefinition: true)
!47 = distinct !DICompositeType(tag: DW_TAG_structure_type, name: "arg<5>", scope: !6, file: !5, line: 28, size: 8, flags: DIFlagTypePassByValue | DIFlagNonTrivial, elements: !48, templateParams: !53, identifier: "_ZTSN5boost3argILi5EEE")
!48 = !{!49}
!49 = !DISubprogram(name: "arg", scope: !47, file: !5, line: 30, type: !50, scopeLine: 30, flags: DIFlagPrototyped, spFlags: 0)
!50 = !DISubroutineType(types: !51)
!51 = !{null, !52}
!52 = !DIDerivedType(tag: DW_TAG_pointer_type, baseType: !47, size: 64, flags: DIFlagArtificial | DIFlagObjectPointer)
!53 = !{!54}
!54 = !DITemplateValueParameter(name: "I", type: !14, value: i32 5)
!55 = !DIGlobalVariableExpression(var: !56, expr: !DIExpression())
!56 = distinct !DIGlobalVariable(name: "_6", linkageName: "_ZN12_GLOBAL__N_12_6E", scope: !2, file: !3, line: 59, type: !57, isLocal: true, isDefinition: true)
!57 = distinct !DICompositeType(tag: DW_TAG_structure_type, name: "arg<6>", scope: !6, file: !5, line: 28, size: 8, flags: DIFlagTypePassByValue | DIFlagNonTrivial, elements: !58, templateParams: !63, identifier: "_ZTSN5boost3argILi6EEE")
!58 = !{!59}
!59 = !DISubprogram(name: "arg", scope: !57, file: !5, line: 30, type: !60, scopeLine: 30, flags: DIFlagPrototyped, spFlags: 0)
!60 = !DISubroutineType(types: !61)
!61 = !{null, !62}
!62 = !DIDerivedType(tag: DW_TAG_pointer_type, baseType: !57, size: 64, flags: DIFlagArtificial | DIFlagObjectPointer)
!63 = !{!64}
!64 = !DITemplateValueParameter(name: "I", type: !14, value: i32 6)
!65 = !DIGlobalVariableExpression(var: !66, expr: !DIExpression())
!66 = distinct !DIGlobalVariable(name: "_7", linkageName: "_ZN12_GLOBAL__N_12_7E", scope: !2, file: !3, line: 60, type: !67, isLocal: true, isDefinition: true)
!67 = distinct !DICompositeType(tag: DW_TAG_structure_type, name: "arg<7>", scope: !6, file: !5, line: 28, size: 8, flags: DIFlagTypePassByValue | DIFlagNonTrivial, elements: !68, templateParams: !73, identifier: "_ZTSN5boost3argILi7EEE")
!68 = !{!69}
!69 = !DISubprogram(name: "arg", scope: !67, file: !5, line: 30, type: !70, scopeLine: 30, flags: DIFlagPrototyped, spFlags: 0)
!70 = !DISubroutineType(types: !71)
!71 = !{null, !72}
!72 = !DIDerivedType(tag: DW_TAG_pointer_type, baseType: !67, size: 64, flags: DIFlagArtificial | DIFlagObjectPointer)
!73 = !{!74}
!74 = !DITemplateValueParameter(name: "I", type: !14, value: i32 7)
!75 = !DIGlobalVariableExpression(var: !76, expr: !DIExpression())
!76 = distinct !DIGlobalVariable(name: "_8", linkageName: "_ZN12_GLOBAL__N_12_8E", scope: !2, file: !3, line: 61, type: !77, isLocal: true, isDefinition: true)
!77 = distinct !DICompositeType(tag: DW_TAG_structure_type, name: "arg<8>", scope: !6, file: !5, line: 28, size: 8, flags: DIFlagTypePassByValue | DIFlagNonTrivial, elements: !78, templateParams: !83, identifier: "_ZTSN5boost3argILi8EEE")
!78 = !{!79}
!79 = !DISubprogram(name: "arg", scope: !77, file: !5, line: 30, type: !80, scopeLine: 30, flags: DIFlagPrototyped, spFlags: 0)
!80 = !DISubroutineType(types: !81)
!81 = !{null, !82}
!82 = !DIDerivedType(tag: DW_TAG_pointer_type, baseType: !77, size: 64, flags: DIFlagArtificial | DIFlagObjectPointer)
!83 = !{!84}
!84 = !DITemplateValueParameter(name: "I", type: !14, value: i32 8)
!85 = !DIGlobalVariableExpression(var: !86, expr: !DIExpression())
!86 = distinct !DIGlobalVariable(name: "_9", linkageName: "_ZN12_GLOBAL__N_12_9E", scope: !2, file: !3, line: 62, type: !87, isLocal: true, isDefinition: true)
!87 = distinct !DICompositeType(tag: DW_TAG_structure_type, name: "arg<9>", scope: !6, file: !5, line: 28, size: 8, flags: DIFlagTypePassByValue | DIFlagNonTrivial, elements: !88, templateParams: !93, identifier: "_ZTSN5boost3argILi9EEE")
!88 = !{!89}
!89 = !DISubprogram(name: "arg", scope: !87, file: !5, line: 30, type: !90, scopeLine: 30, flags: DIFlagPrototyped, spFlags: 0)
!90 = !DISubroutineType(types: !91)
!91 = !{null, !92}
!92 = !DIDerivedType(tag: DW_TAG_pointer_type, baseType: !87, size: 64, flags: DIFlagArtificial | DIFlagObjectPointer)
!93 = !{!94}
!94 = !DITemplateValueParameter(name: "I", type: !14, value: i32 9)
!95 = !DIGlobalVariableExpression(var: !96, expr: !DIExpression())
!96 = distinct !DIGlobalVariable(name: "__ioinit", linkageName: "_ZStL8__ioinit", scope: !97, file: !98, line: 74, type: !99, isLocal: true, isDefinition: true)
!97 = !DINamespace(name: "std", scope: null)
!98 = !DIFile(filename: "/usr/lib/gcc/x86_64-linux-gnu/10/../../../../include/c++/10/iostream", directory: "")
!99 = distinct !DICompositeType(tag: DW_TAG_class_type, name: "Init", scope: !101, file: !100, line: 603, size: 8, flags: DIFlagTypePassByReference | DIFlagNonTrivial, elements: !102, identifier: "_ZTSNSt8ios_base4InitE")
!100 = !DIFile(filename: "/usr/lib/gcc/x86_64-linux-gnu/10/../../../../include/c++/10/bits/ios_base.h", directory: "")
!101 = !DICompositeType(tag: DW_TAG_class_type, name: "ios_base", scope: !97, file: !100, line: 228, flags: DIFlagFwdDecl)
!102 = !{!103, !106, !108, !112, !113, !118}
!103 = !DIDerivedType(tag: DW_TAG_member, name: "_S_refcount", scope: !99, file: !100, line: 616, baseType: !104, flags: DIFlagStaticMember)
!104 = !DIDerivedType(tag: DW_TAG_typedef, name: "_Atomic_word", file: !105, line: 32, baseType: !14)
!105 = !DIFile(filename: "/usr/lib/gcc/x86_64-linux-gnu/10/../../../../include/x86_64-linux-gnu/c++/10/bits/atomic_word.h", directory: "")
!106 = !DIDerivedType(tag: DW_TAG_member, name: "_S_synced_with_stdio", scope: !99, file: !100, line: 617, baseType: !107, flags: DIFlagStaticMember)
!107 = !DIBasicType(name: "bool", size: 8, encoding: DW_ATE_boolean)
!108 = !DISubprogram(name: "Init", scope: !99, file: !100, line: 607, type: !109, scopeLine: 607, flags: DIFlagPublic | DIFlagPrototyped, spFlags: 0)
!109 = !DISubroutineType(types: !110)
!110 = !{null, !111}
!111 = !DIDerivedType(tag: DW_TAG_pointer_type, baseType: !99, size: 64, flags: DIFlagArtificial | DIFlagObjectPointer)
!112 = !DISubprogram(name: "~Init", scope: !99, file: !100, line: 608, type: !109, scopeLine: 608, flags: DIFlagPublic | DIFlagPrototyped, spFlags: 0)
!113 = !DISubprogram(name: "Init", scope: !99, file: !100, line: 611, type: !114, scopeLine: 611, flags: DIFlagPublic | DIFlagPrototyped, spFlags: 0)
!114 = !DISubroutineType(types: !115)
!115 = !{null, !111, !116}
!116 = !DIDerivedType(tag: DW_TAG_reference_type, baseType: !117, size: 64)
!117 = !DIDerivedType(tag: DW_TAG_const_type, baseType: !99)
!118 = !DISubprogram(name: "operator=", linkageName: "_ZNSt8ios_base4InitaSERKS0_", scope: !99, file: !100, line: 612, type: !119, scopeLine: 612, flags: DIFlagPublic | DIFlagPrototyped, spFlags: 0)
!119 = !DISubroutineType(types: !120)
!120 = !{!121, !111, !116}
!121 = !DIDerivedType(tag: DW_TAG_reference_type, baseType: !99, size: 64)
!122 = distinct !DICompileUnit(language: DW_LANG_C_plus_plus_14, file: !123, producer: "clang version 10.0.1 (https://github.com/svkeerthy/IR2Vec-LoopOptimizationFramework.git 561ac470e63b728263a0ac06ef987886ac648486)", isOptimized: false, runtimeVersion: 0, emissionKind: FullDebug, enums: !124, retainedTypes: !137, globals: !138, imports: !139, splitDebugInlining: false, nameTableKind: None)
!123 = !DIFile(filename: "source/numerics/vectors.all_dimensions.cc", directory: "/home/venkat/IF-DV/spec_build_release/CPU_2017/benchspec/CPU/510.parest_r/build/build_base_ld-loop-ext-m64.0000")
!124 = !{!125, !133}
!125 = !DICompositeType(tag: DW_TAG_enumeration_type, name: "_Lock_policy", scope: !127, file: !126, line: 49, baseType: !128, size: 32, elements: !129, identifier: "_ZTSN9__gnu_cxx12_Lock_policyE")
!126 = !DIFile(filename: "/usr/lib/gcc/x86_64-linux-gnu/10/../../../../include/c++/10/ext/concurrence.h", directory: "")
!127 = !DINamespace(name: "__gnu_cxx", scope: null)
!128 = !DIBasicType(name: "unsigned int", size: 32, encoding: DW_ATE_unsigned)
!129 = !{!130, !131, !132}
!130 = !DIEnumerator(name: "_S_single", value: 0, isUnsigned: true)
!131 = !DIEnumerator(name: "_S_mutex", value: 1, isUnsigned: true)
!132 = !DIEnumerator(name: "_S_atomic", value: 2, isUnsigned: true)
!133 = !DICompositeType(tag: DW_TAG_enumeration_type, scope: !97, file: !134, line: 70, baseType: !128, size: 32, elements: !135)
!134 = !DIFile(filename: "/usr/lib/gcc/x86_64-linux-gnu/10/../../../../include/c++/10/bits/stl_bvector.h", directory: "")
!135 = !{!136}
!136 = !DIEnumerator(name: "_S_word_bit", value: 64, isUnsigned: true)
!137 = !{!14}
!138 = !{!0, !15, !25, !35, !45, !55, !65, !75, !85, !95}
!139 = !{!140, !146, !153, !155, !157, !161, !163, !165, !167, !169, !171, !173, !175, !180, !184, !186, !188, !193, !195, !197, !199, !201, !203, !205, !208, !211, !213, !217, !222, !224, !226, !228, !230, !232, !234, !236, !238, !240, !242, !246, !250, !252, !254, !256, !258, !260, !262, !264, !266, !268, !270, !272, !274, !276, !278, !280, !284, !288, !292, !294, !296, !298, !300, !302, !304, !306, !308, !310, !314, !318, !322, !324, !326, !328, !333, !337, !341, !343, !345, !347, !349, !351, !353, !355, !357, !359, !361, !363, !365, !370, !374, !378, !380, !382, !384, !391, !395, !399, !401, !403, !405, !407, !409, !411, !415, !419, !421, !423, !425, !427, !431, !435, !439, !441, !443, !445, !447, !449, !451, !455, !459, !463, !465, !469, !473, !475, !477, !479, !481, !483, !485, !502, !505, !510, !518, !526, !530, !537, !541, !545, !547, !549, !553, !563, !567, !573, !579, !581, !585, !589, !593, !597, !609, !611, !615, !619, !623, !625, !631, !635, !639, !641, !643, !647, !668, !672, !676, !680, !682, !688, !690, !696, !700, !704, !708, !712, !716, !720, !722, !724, !728, !732, !736, !738, !742, !746, !748, !750, !754, !758, !762, !767, !768, !769, !770, !771, !772, !773, !774, !775, !776, !777, !832, !836, !840, !847, !851, !854, !857, !860, !862, !864, !866, !869, !872, !875, !878, !881, !883, !888, !892, !895, !898, !900, !902, !904, !906, !909, !912, !915, !918, !921, !923, !927, !931, !936, !940, !942, !944, !946, !948, !950, !952, !954, !956, !958, !960, !962, !964, !966, !970, !976, !980, !985, !987, !989, !993, !997, !1007, !1011, !1015, !1019, !1023, !1027, !1031, !1035, !1039, !1043, !1047, !1051, !1055, !1057, !1060, !1064, !1068, !1074, !1078, !1082, !1084, !1088, !1092, !1098, !1100, !1104, !1108, !1112, !1116, !1120, !1124, !1128, !1129, !1130, !1131, !1133, !1134, !1135, !1136, !1137, !1138, !1139, !1143, !1149, !1154, !1158, !1160, !1162, !1164, !1166, !1173, !1177, !1181, !1185, !1189, !1193, !1198, !1202, !1204, !1208, !1214, !1218, !1223, !1225, !1227, !1231, !1235, !1237, !1239, !1241, !1243, !1247, !1249, !1251, !1255, !1259, !1263, !1267, !1271, !1275, !1277, !1281, !1285, !1289, !1293, !1295, !1297, !1301, !1305, !1306, !1307, !1308, !1309, !1310, !1316, !1319, !1320, !1322, !1324, !1326, !1328, !1332, !1334, !1336, !1338, !1340, !1342, !1344, !1346, !1348, !1352, !1356, !1358, !1362, !1366, !1370, !1373, !1378, !1380, !1383, !1386, !1390, !1393, !1408, !1420, !1423, !1426, !1429, !1435, !1439, !1443, !1447, !1451, !1455, !1457, !1459, !1461, !1465, !1469, !1473, !1477, !1481, !1483, !1485, !1487, !1491, !1495, !1499, !1501, !1503, !1508, !1512, !1513, !1518, !1522, !1527, !1532, !1536, !1542, !1546, !1548}
!140 = !DIImportedEntity(tag: DW_TAG_imported_declaration, scope: !97, entity: !141, file: !145, line: 52)
!141 = !DISubprogram(name: "abs", scope: !142, file: !142, line: 840, type: !143, flags: DIFlagPrototyped, spFlags: 0)
!142 = !DIFile(filename: "/usr/include/stdlib.h", directory: "")
!143 = !DISubroutineType(types: !144)
!144 = !{!14, !14}
!145 = !DIFile(filename: "/usr/lib/gcc/x86_64-linux-gnu/10/../../../../include/c++/10/bits/std_abs.h", directory: "")
!146 = !DIImportedEntity(tag: DW_TAG_imported_declaration, scope: !97, entity: !147, file: !152, line: 83)
!147 = !DISubprogram(name: "acos", scope: !148, file: !148, line: 53, type: !149, flags: DIFlagPrototyped, spFlags: 0)
!148 = !DIFile(filename: "/usr/include/x86_64-linux-gnu/bits/mathcalls.h", directory: "")
!149 = !DISubroutineType(types: !150)
!150 = !{!151, !151}
!151 = !DIBasicType(name: "double", size: 64, encoding: DW_ATE_float)
!152 = !DIFile(filename: "/usr/lib/gcc/x86_64-linux-gnu/10/../../../../include/c++/10/cmath", directory: "")
!153 = !DIImportedEntity(tag: DW_TAG_imported_declaration, scope: !97, entity: !154, file: !152, line: 102)
!154 = !DISubprogram(name: "asin", scope: !148, file: !148, line: 55, type: !149, flags: DIFlagPrototyped, spFlags: 0)
!155 = !DIImportedEntity(tag: DW_TAG_imported_declaration, scope: !97, entity: !156, file: !152, line: 121)
!156 = !DISubprogram(name: "atan", scope: !148, file: !148, line: 57, type: !149, flags: DIFlagPrototyped, spFlags: 0)
!157 = !DIImportedEntity(tag: DW_TAG_imported_declaration, scope: !97, entity: !158, file: !152, line: 140)
!158 = !DISubprogram(name: "atan2", scope: !148, file: !148, line: 59, type: !159, flags: DIFlagPrototyped, spFlags: 0)
!159 = !DISubroutineType(types: !160)
!160 = !{!151, !151, !151}
!161 = !DIImportedEntity(tag: DW_TAG_imported_declaration, scope: !97, entity: !162, file: !152, line: 161)
!162 = !DISubprogram(name: "ceil", scope: !148, file: !148, line: 159, type: !149, flags: DIFlagPrototyped, spFlags: 0)
!163 = !DIImportedEntity(tag: DW_TAG_imported_declaration, scope: !97, entity: !164, file: !152, line: 180)
!164 = !DISubprogram(name: "cos", scope: !148, file: !148, line: 62, type: !149, flags: DIFlagPrototyped, spFlags: 0)
!165 = !DIImportedEntity(tag: DW_TAG_imported_declaration, scope: !97, entity: !166, file: !152, line: 199)
!166 = !DISubprogram(name: "cosh", scope: !148, file: !148, line: 71, type: !149, flags: DIFlagPrototyped, spFlags: 0)
!167 = !DIImportedEntity(tag: DW_TAG_imported_declaration, scope: !97, entity: !168, file: !152, line: 218)
!168 = !DISubprogram(name: "exp", scope: !148, file: !148, line: 95, type: !149, flags: DIFlagPrototyped, spFlags: 0)
!169 = !DIImportedEntity(tag: DW_TAG_imported_declaration, scope: !97, entity: !170, file: !152, line: 237)
!170 = !DISubprogram(name: "fabs", scope: !148, file: !148, line: 162, type: !149, flags: DIFlagPrototyped, spFlags: 0)
!171 = !DIImportedEntity(tag: DW_TAG_imported_declaration, scope: !97, entity: !172, file: !152, line: 256)
!172 = !DISubprogram(name: "floor", scope: !148, file: !148, line: 165, type: !149, flags: DIFlagPrototyped, spFlags: 0)
!173 = !DIImportedEntity(tag: DW_TAG_imported_declaration, scope: !97, entity: !174, file: !152, line: 275)
!174 = !DISubprogram(name: "fmod", scope: !148, file: !148, line: 168, type: !159, flags: DIFlagPrototyped, spFlags: 0)
!175 = !DIImportedEntity(tag: DW_TAG_imported_declaration, scope: !97, entity: !176, file: !152, line: 296)
!176 = !DISubprogram(name: "frexp", scope: !148, file: !148, line: 98, type: !177, flags: DIFlagPrototyped, spFlags: 0)
!177 = !DISubroutineType(types: !178)
!178 = !{!151, !151, !179}
!179 = !DIDerivedType(tag: DW_TAG_pointer_type, baseType: !14, size: 64)
!180 = !DIImportedEntity(tag: DW_TAG_imported_declaration, scope: !97, entity: !181, file: !152, line: 315)
!181 = !DISubprogram(name: "ldexp", scope: !148, file: !148, line: 101, type: !182, flags: DIFlagPrototyped, spFlags: 0)
!182 = !DISubroutineType(types: !183)
!183 = !{!151, !151, !14}
!184 = !DIImportedEntity(tag: DW_TAG_imported_declaration, scope: !97, entity: !185, file: !152, line: 334)
!185 = !DISubprogram(name: "log", scope: !148, file: !148, line: 104, type: !149, flags: DIFlagPrototyped, spFlags: 0)
!186 = !DIImportedEntity(tag: DW_TAG_imported_declaration, scope: !97, entity: !187, file: !152, line: 353)
!187 = !DISubprogram(name: "log10", scope: !148, file: !148, line: 107, type: !149, flags: DIFlagPrototyped, spFlags: 0)
!188 = !DIImportedEntity(tag: DW_TAG_imported_declaration, scope: !97, entity: !189, file: !152, line: 372)
!189 = !DISubprogram(name: "modf", scope: !148, file: !148, line: 110, type: !190, flags: DIFlagPrototyped, spFlags: 0)
!190 = !DISubroutineType(types: !191)
!191 = !{!151, !151, !192}
!192 = !DIDerivedType(tag: DW_TAG_pointer_type, baseType: !151, size: 64)
!193 = !DIImportedEntity(tag: DW_TAG_imported_declaration, scope: !97, entity: !194, file: !152, line: 384)
!194 = !DISubprogram(name: "pow", scope: !148, file: !148, line: 140, type: !159, flags: DIFlagPrototyped, spFlags: 0)
!195 = !DIImportedEntity(tag: DW_TAG_imported_declaration, scope: !97, entity: !196, file: !152, line: 421)
!196 = !DISubprogram(name: "sin", scope: !148, file: !148, line: 64, type: !149, flags: DIFlagPrototyped, spFlags: 0)
!197 = !DIImportedEntity(tag: DW_TAG_imported_declaration, scope: !97, entity: !198, file: !152, line: 440)
!198 = !DISubprogram(name: "sinh", scope: !148, file: !148, line: 73, type: !149, flags: DIFlagPrototyped, spFlags: 0)
!199 = !DIImportedEntity(tag: DW_TAG_imported_declaration, scope: !97, entity: !200, file: !152, line: 459)
!200 = !DISubprogram(name: "sqrt", scope: !148, file: !148, line: 143, type: !149, flags: DIFlagPrototyped, spFlags: 0)
!201 = !DIImportedEntity(tag: DW_TAG_imported_declaration, scope: !97, entity: !202, file: !152, line: 478)
!202 = !DISubprogram(name: "tan", scope: !148, file: !148, line: 66, type: !149, flags: DIFlagPrototyped, spFlags: 0)
!203 = !DIImportedEntity(tag: DW_TAG_imported_declaration, scope: !97, entity: !204, file: !152, line: 497)
!204 = !DISubprogram(name: "tanh", scope: !148, file: !148, line: 75, type: !149, flags: DIFlagPrototyped, spFlags: 0)
!205 = !DIImportedEntity(tag: DW_TAG_imported_declaration, scope: !97, entity: !206, file: !152, line: 1065)
!206 = !DIDerivedType(tag: DW_TAG_typedef, name: "double_t", file: !207, line: 150, baseType: !151)
!207 = !DIFile(filename: "/usr/include/math.h", directory: "")
!208 = !DIImportedEntity(tag: DW_TAG_imported_declaration, scope: !97, entity: !209, file: !152, line: 1066)
!209 = !DIDerivedType(tag: DW_TAG_typedef, name: "float_t", file: !207, line: 149, baseType: !210)
!210 = !DIBasicType(name: "float", size: 32, encoding: DW_ATE_float)
!211 = !DIImportedEntity(tag: DW_TAG_imported_declaration, scope: !97, entity: !212, file: !152, line: 1069)
!212 = !DISubprogram(name: "acosh", scope: !148, file: !148, line: 85, type: !149, flags: DIFlagPrototyped, spFlags: 0)
!213 = !DIImportedEntity(tag: DW_TAG_imported_declaration, scope: !97, entity: !214, file: !152, line: 1070)
!214 = !DISubprogram(name: "acoshf", scope: !148, file: !148, line: 85, type: !215, flags: DIFlagPrototyped, spFlags: 0)
!215 = !DISubroutineType(types: !216)
!216 = !{!210, !210}
!217 = !DIImportedEntity(tag: DW_TAG_imported_declaration, scope: !97, entity: !218, file: !152, line: 1071)
!218 = !DISubprogram(name: "acoshl", scope: !148, file: !148, line: 85, type: !219, flags: DIFlagPrototyped, spFlags: 0)
!219 = !DISubroutineType(types: !220)
!220 = !{!221, !221}
!221 = !DIBasicType(name: "long double", size: 128, encoding: DW_ATE_float)
!222 = !DIImportedEntity(tag: DW_TAG_imported_declaration, scope: !97, entity: !223, file: !152, line: 1073)
!223 = !DISubprogram(name: "asinh", scope: !148, file: !148, line: 87, type: !149, flags: DIFlagPrototyped, spFlags: 0)
!224 = !DIImportedEntity(tag: DW_TAG_imported_declaration, scope: !97, entity: !225, file: !152, line: 1074)
!225 = !DISubprogram(name: "asinhf", scope: !148, file: !148, line: 87, type: !215, flags: DIFlagPrototyped, spFlags: 0)
!226 = !DIImportedEntity(tag: DW_TAG_imported_declaration, scope: !97, entity: !227, file: !152, line: 1075)
!227 = !DISubprogram(name: "asinhl", scope: !148, file: !148, line: 87, type: !219, flags: DIFlagPrototyped, spFlags: 0)
!228 = !DIImportedEntity(tag: DW_TAG_imported_declaration, scope: !97, entity: !229, file: !152, line: 1077)
!229 = !DISubprogram(name: "atanh", scope: !148, file: !148, line: 89, type: !149, flags: DIFlagPrototyped, spFlags: 0)
!230 = !DIImportedEntity(tag: DW_TAG_imported_declaration, scope: !97, entity: !231, file: !152, line: 1078)
!231 = !DISubprogram(name: "atanhf", scope: !148, file: !148, line: 89, type: !215, flags: DIFlagPrototyped, spFlags: 0)
!232 = !DIImportedEntity(tag: DW_TAG_imported_declaration, scope: !97, entity: !233, file: !152, line: 1079)
!233 = !DISubprogram(name: "atanhl", scope: !148, file: !148, line: 89, type: !219, flags: DIFlagPrototyped, spFlags: 0)
!234 = !DIImportedEntity(tag: DW_TAG_imported_declaration, scope: !97, entity: !235, file: !152, line: 1081)
!235 = !DISubprogram(name: "cbrt", scope: !148, file: !148, line: 152, type: !149, flags: DIFlagPrototyped, spFlags: 0)
!236 = !DIImportedEntity(tag: DW_TAG_imported_declaration, scope: !97, entity: !237, file: !152, line: 1082)
!237 = !DISubprogram(name: "cbrtf", scope: !148, file: !148, line: 152, type: !215, flags: DIFlagPrototyped, spFlags: 0)
!238 = !DIImportedEntity(tag: DW_TAG_imported_declaration, scope: !97, entity: !239, file: !152, line: 1083)
!239 = !DISubprogram(name: "cbrtl", scope: !148, file: !148, line: 152, type: !219, flags: DIFlagPrototyped, spFlags: 0)
!240 = !DIImportedEntity(tag: DW_TAG_imported_declaration, scope: !97, entity: !241, file: !152, line: 1085)
!241 = !DISubprogram(name: "copysign", scope: !148, file: !148, line: 196, type: !159, flags: DIFlagPrototyped, spFlags: 0)
!242 = !DIImportedEntity(tag: DW_TAG_imported_declaration, scope: !97, entity: !243, file: !152, line: 1086)
!243 = !DISubprogram(name: "copysignf", scope: !148, file: !148, line: 196, type: !244, flags: DIFlagPrototyped, spFlags: 0)
!244 = !DISubroutineType(types: !245)
!245 = !{!210, !210, !210}
!246 = !DIImportedEntity(tag: DW_TAG_imported_declaration, scope: !97, entity: !247, file: !152, line: 1087)
!247 = !DISubprogram(name: "copysignl", scope: !148, file: !148, line: 196, type: !248, flags: DIFlagPrototyped, spFlags: 0)
!248 = !DISubroutineType(types: !249)
!249 = !{!221, !221, !221}
!250 = !DIImportedEntity(tag: DW_TAG_imported_declaration, scope: !97, entity: !251, file: !152, line: 1089)
!251 = !DISubprogram(name: "erf", scope: !148, file: !148, line: 228, type: !149, flags: DIFlagPrototyped, spFlags: 0)
!252 = !DIImportedEntity(tag: DW_TAG_imported_declaration, scope: !97, entity: !253, file: !152, line: 1090)
!253 = !DISubprogram(name: "erff", scope: !148, file: !148, line: 228, type: !215, flags: DIFlagPrototyped, spFlags: 0)
!254 = !DIImportedEntity(tag: DW_TAG_imported_declaration, scope: !97, entity: !255, file: !152, line: 1091)
!255 = !DISubprogram(name: "erfl", scope: !148, file: !148, line: 228, type: !219, flags: DIFlagPrototyped, spFlags: 0)
!256 = !DIImportedEntity(tag: DW_TAG_imported_declaration, scope: !97, entity: !257, file: !152, line: 1093)
!257 = !DISubprogram(name: "erfc", scope: !148, file: !148, line: 229, type: !149, flags: DIFlagPrototyped, spFlags: 0)
!258 = !DIImportedEntity(tag: DW_TAG_imported_declaration, scope: !97, entity: !259, file: !152, line: 1094)
!259 = !DISubprogram(name: "erfcf", scope: !148, file: !148, line: 229, type: !215, flags: DIFlagPrototyped, spFlags: 0)
!260 = !DIImportedEntity(tag: DW_TAG_imported_declaration, scope: !97, entity: !261, file: !152, line: 1095)
!261 = !DISubprogram(name: "erfcl", scope: !148, file: !148, line: 229, type: !219, flags: DIFlagPrototyped, spFlags: 0)
!262 = !DIImportedEntity(tag: DW_TAG_imported_declaration, scope: !97, entity: !263, file: !152, line: 1097)
!263 = !DISubprogram(name: "exp2", scope: !148, file: !148, line: 130, type: !149, flags: DIFlagPrototyped, spFlags: 0)
!264 = !DIImportedEntity(tag: DW_TAG_imported_declaration, scope: !97, entity: !265, file: !152, line: 1098)
!265 = !DISubprogram(name: "exp2f", scope: !148, file: !148, line: 130, type: !215, flags: DIFlagPrototyped, spFlags: 0)
!266 = !DIImportedEntity(tag: DW_TAG_imported_declaration, scope: !97, entity: !267, file: !152, line: 1099)
!267 = !DISubprogram(name: "exp2l", scope: !148, file: !148, line: 130, type: !219, flags: DIFlagPrototyped, spFlags: 0)
!268 = !DIImportedEntity(tag: DW_TAG_imported_declaration, scope: !97, entity: !269, file: !152, line: 1101)
!269 = !DISubprogram(name: "expm1", scope: !148, file: !148, line: 119, type: !149, flags: DIFlagPrototyped, spFlags: 0)
!270 = !DIImportedEntity(tag: DW_TAG_imported_declaration, scope: !97, entity: !271, file: !152, line: 1102)
!271 = !DISubprogram(name: "expm1f", scope: !148, file: !148, line: 119, type: !215, flags: DIFlagPrototyped, spFlags: 0)
!272 = !DIImportedEntity(tag: DW_TAG_imported_declaration, scope: !97, entity: !273, file: !152, line: 1103)
!273 = !DISubprogram(name: "expm1l", scope: !148, file: !148, line: 119, type: !219, flags: DIFlagPrototyped, spFlags: 0)
!274 = !DIImportedEntity(tag: DW_TAG_imported_declaration, scope: !97, entity: !275, file: !152, line: 1105)
!275 = !DISubprogram(name: "fdim", scope: !148, file: !148, line: 326, type: !159, flags: DIFlagPrototyped, spFlags: 0)
!276 = !DIImportedEntity(tag: DW_TAG_imported_declaration, scope: !97, entity: !277, file: !152, line: 1106)
!277 = !DISubprogram(name: "fdimf", scope: !148, file: !148, line: 326, type: !244, flags: DIFlagPrototyped, spFlags: 0)
!278 = !DIImportedEntity(tag: DW_TAG_imported_declaration, scope: !97, entity: !279, file: !152, line: 1107)
!279 = !DISubprogram(name: "fdiml", scope: !148, file: !148, line: 326, type: !248, flags: DIFlagPrototyped, spFlags: 0)
!280 = !DIImportedEntity(tag: DW_TAG_imported_declaration, scope: !97, entity: !281, file: !152, line: 1109)
!281 = !DISubprogram(name: "fma", scope: !148, file: !148, line: 335, type: !282, flags: DIFlagPrototyped, spFlags: 0)
!282 = !DISubroutineType(types: !283)
!283 = !{!151, !151, !151, !151}
!284 = !DIImportedEntity(tag: DW_TAG_imported_declaration, scope: !97, entity: !285, file: !152, line: 1110)
!285 = !DISubprogram(name: "fmaf", scope: !148, file: !148, line: 335, type: !286, flags: DIFlagPrototyped, spFlags: 0)
!286 = !DISubroutineType(types: !287)
!287 = !{!210, !210, !210, !210}
!288 = !DIImportedEntity(tag: DW_TAG_imported_declaration, scope: !97, entity: !289, file: !152, line: 1111)
!289 = !DISubprogram(name: "fmal", scope: !148, file: !148, line: 335, type: !290, flags: DIFlagPrototyped, spFlags: 0)
!290 = !DISubroutineType(types: !291)
!291 = !{!221, !221, !221, !221}
!292 = !DIImportedEntity(tag: DW_TAG_imported_declaration, scope: !97, entity: !293, file: !152, line: 1113)
!293 = !DISubprogram(name: "fmax", scope: !148, file: !148, line: 329, type: !159, flags: DIFlagPrototyped, spFlags: 0)
!294 = !DIImportedEntity(tag: DW_TAG_imported_declaration, scope: !97, entity: !295, file: !152, line: 1114)
!295 = !DISubprogram(name: "fmaxf", scope: !148, file: !148, line: 329, type: !244, flags: DIFlagPrototyped, spFlags: 0)
!296 = !DIImportedEntity(tag: DW_TAG_imported_declaration, scope: !97, entity: !297, file: !152, line: 1115)
!297 = !DISubprogram(name: "fmaxl", scope: !148, file: !148, line: 329, type: !248, flags: DIFlagPrototyped, spFlags: 0)
!298 = !DIImportedEntity(tag: DW_TAG_imported_declaration, scope: !97, entity: !299, file: !152, line: 1117)
!299 = !DISubprogram(name: "fmin", scope: !148, file: !148, line: 332, type: !159, flags: DIFlagPrototyped, spFlags: 0)
!300 = !DIImportedEntity(tag: DW_TAG_imported_declaration, scope: !97, entity: !301, file: !152, line: 1118)
!301 = !DISubprogram(name: "fminf", scope: !148, file: !148, line: 332, type: !244, flags: DIFlagPrototyped, spFlags: 0)
!302 = !DIImportedEntity(tag: DW_TAG_imported_declaration, scope: !97, entity: !303, file: !152, line: 1119)
!303 = !DISubprogram(name: "fminl", scope: !148, file: !148, line: 332, type: !248, flags: DIFlagPrototyped, spFlags: 0)
!304 = !DIImportedEntity(tag: DW_TAG_imported_declaration, scope: !97, entity: !305, file: !152, line: 1121)
!305 = !DISubprogram(name: "hypot", scope: !148, file: !148, line: 147, type: !159, flags: DIFlagPrototyped, spFlags: 0)
!306 = !DIImportedEntity(tag: DW_TAG_imported_declaration, scope: !97, entity: !307, file: !152, line: 1122)
!307 = !DISubprogram(name: "hypotf", scope: !148, file: !148, line: 147, type: !244, flags: DIFlagPrototyped, spFlags: 0)
!308 = !DIImportedEntity(tag: DW_TAG_imported_declaration, scope: !97, entity: !309, file: !152, line: 1123)
!309 = !DISubprogram(name: "hypotl", scope: !148, file: !148, line: 147, type: !248, flags: DIFlagPrototyped, spFlags: 0)
!310 = !DIImportedEntity(tag: DW_TAG_imported_declaration, scope: !97, entity: !311, file: !152, line: 1125)
!311 = !DISubprogram(name: "ilogb", scope: !148, file: !148, line: 280, type: !312, flags: DIFlagPrototyped, spFlags: 0)
!312 = !DISubroutineType(types: !313)
!313 = !{!14, !151}
!314 = !DIImportedEntity(tag: DW_TAG_imported_declaration, scope: !97, entity: !315, file: !152, line: 1126)
!315 = !DISubprogram(name: "ilogbf", scope: !148, file: !148, line: 280, type: !316, flags: DIFlagPrototyped, spFlags: 0)
!316 = !DISubroutineType(types: !317)
!317 = !{!14, !210}
!318 = !DIImportedEntity(tag: DW_TAG_imported_declaration, scope: !97, entity: !319, file: !152, line: 1127)
!319 = !DISubprogram(name: "ilogbl", scope: !148, file: !148, line: 280, type: !320, flags: DIFlagPrototyped, spFlags: 0)
!320 = !DISubroutineType(types: !321)
!321 = !{!14, !221}
!322 = !DIImportedEntity(tag: DW_TAG_imported_declaration, scope: !97, entity: !323, file: !152, line: 1129)
!323 = !DISubprogram(name: "lgamma", scope: !148, file: !148, line: 230, type: !149, flags: DIFlagPrototyped, spFlags: 0)
!324 = !DIImportedEntity(tag: DW_TAG_imported_declaration, scope: !97, entity: !325, file: !152, line: 1130)
!325 = !DISubprogram(name: "lgammaf", scope: !148, file: !148, line: 230, type: !215, flags: DIFlagPrototyped, spFlags: 0)
!326 = !DIImportedEntity(tag: DW_TAG_imported_declaration, scope: !97, entity: !327, file: !152, line: 1131)
!327 = !DISubprogram(name: "lgammal", scope: !148, file: !148, line: 230, type: !219, flags: DIFlagPrototyped, spFlags: 0)
!328 = !DIImportedEntity(tag: DW_TAG_imported_declaration, scope: !97, entity: !329, file: !152, line: 1134)
!329 = !DISubprogram(name: "llrint", scope: !148, file: !148, line: 316, type: !330, flags: DIFlagPrototyped, spFlags: 0)
!330 = !DISubroutineType(types: !331)
!331 = !{!332, !151}
!332 = !DIBasicType(name: "long long int", size: 64, encoding: DW_ATE_signed)
!333 = !DIImportedEntity(tag: DW_TAG_imported_declaration, scope: !97, entity: !334, file: !152, line: 1135)
!334 = !DISubprogram(name: "llrintf", scope: !148, file: !148, line: 316, type: !335, flags: DIFlagPrototyped, spFlags: 0)
!335 = !DISubroutineType(types: !336)
!336 = !{!332, !210}
!337 = !DIImportedEntity(tag: DW_TAG_imported_declaration, scope: !97, entity: !338, file: !152, line: 1136)
!338 = !DISubprogram(name: "llrintl", scope: !148, file: !148, line: 316, type: !339, flags: DIFlagPrototyped, spFlags: 0)
!339 = !DISubroutineType(types: !340)
!340 = !{!332, !221}
!341 = !DIImportedEntity(tag: DW_TAG_imported_declaration, scope: !97, entity: !342, file: !152, line: 1138)
!342 = !DISubprogram(name: "llround", scope: !148, file: !148, line: 322, type: !330, flags: DIFlagPrototyped, spFlags: 0)
!343 = !DIImportedEntity(tag: DW_TAG_imported_declaration, scope: !97, entity: !344, file: !152, line: 1139)
!344 = !DISubprogram(name: "llroundf", scope: !148, file: !148, line: 322, type: !335, flags: DIFlagPrototyped, spFlags: 0)
!345 = !DIImportedEntity(tag: DW_TAG_imported_declaration, scope: !97, entity: !346, file: !152, line: 1140)
!346 = !DISubprogram(name: "llroundl", scope: !148, file: !148, line: 322, type: !339, flags: DIFlagPrototyped, spFlags: 0)
!347 = !DIImportedEntity(tag: DW_TAG_imported_declaration, scope: !97, entity: !348, file: !152, line: 1143)
!348 = !DISubprogram(name: "log1p", scope: !148, file: !148, line: 122, type: !149, flags: DIFlagPrototyped, spFlags: 0)
!349 = !DIImportedEntity(tag: DW_TAG_imported_declaration, scope: !97, entity: !350, file: !152, line: 1144)
!350 = !DISubprogram(name: "log1pf", scope: !148, file: !148, line: 122, type: !215, flags: DIFlagPrototyped, spFlags: 0)
!351 = !DIImportedEntity(tag: DW_TAG_imported_declaration, scope: !97, entity: !352, file: !152, line: 1145)
!352 = !DISubprogram(name: "log1pl", scope: !148, file: !148, line: 122, type: !219, flags: DIFlagPrototyped, spFlags: 0)
!353 = !DIImportedEntity(tag: DW_TAG_imported_declaration, scope: !97, entity: !354, file: !152, line: 1147)
!354 = !DISubprogram(name: "log2", scope: !148, file: !148, line: 133, type: !149, flags: DIFlagPrototyped, spFlags: 0)
!355 = !DIImportedEntity(tag: DW_TAG_imported_declaration, scope: !97, entity: !356, file: !152, line: 1148)
!356 = !DISubprogram(name: "log2f", scope: !148, file: !148, line: 133, type: !215, flags: DIFlagPrototyped, spFlags: 0)
!357 = !DIImportedEntity(tag: DW_TAG_imported_declaration, scope: !97, entity: !358, file: !152, line: 1149)
!358 = !DISubprogram(name: "log2l", scope: !148, file: !148, line: 133, type: !219, flags: DIFlagPrototyped, spFlags: 0)
!359 = !DIImportedEntity(tag: DW_TAG_imported_declaration, scope: !97, entity: !360, file: !152, line: 1151)
!360 = !DISubprogram(name: "logb", scope: !148, file: !148, line: 125, type: !149, flags: DIFlagPrototyped, spFlags: 0)
!361 = !DIImportedEntity(tag: DW_TAG_imported_declaration, scope: !97, entity: !362, file: !152, line: 1152)
!362 = !DISubprogram(name: "logbf", scope: !148, file: !148, line: 125, type: !215, flags: DIFlagPrototyped, spFlags: 0)
!363 = !DIImportedEntity(tag: DW_TAG_imported_declaration, scope: !97, entity: !364, file: !152, line: 1153)
!364 = !DISubprogram(name: "logbl", scope: !148, file: !148, line: 125, type: !219, flags: DIFlagPrototyped, spFlags: 0)
!365 = !DIImportedEntity(tag: DW_TAG_imported_declaration, scope: !97, entity: !366, file: !152, line: 1155)
!366 = !DISubprogram(name: "lrint", scope: !148, file: !148, line: 314, type: !367, flags: DIFlagPrototyped, spFlags: 0)
!367 = !DISubroutineType(types: !368)
!368 = !{!369, !151}
!369 = !DIBasicType(name: "long int", size: 64, encoding: DW_ATE_signed)
!370 = !DIImportedEntity(tag: DW_TAG_imported_declaration, scope: !97, entity: !371, file: !152, line: 1156)
!371 = !DISubprogram(name: "lrintf", scope: !148, file: !148, line: 314, type: !372, flags: DIFlagPrototyped, spFlags: 0)
!372 = !DISubroutineType(types: !373)
!373 = !{!369, !210}
!374 = !DIImportedEntity(tag: DW_TAG_imported_declaration, scope: !97, entity: !375, file: !152, line: 1157)
!375 = !DISubprogram(name: "lrintl", scope: !148, file: !148, line: 314, type: !376, flags: DIFlagPrototyped, spFlags: 0)
!376 = !DISubroutineType(types: !377)
!377 = !{!369, !221}
!378 = !DIImportedEntity(tag: DW_TAG_imported_declaration, scope: !97, entity: !379, file: !152, line: 1159)
!379 = !DISubprogram(name: "lround", scope: !148, file: !148, line: 320, type: !367, flags: DIFlagPrototyped, spFlags: 0)
!380 = !DIImportedEntity(tag: DW_TAG_imported_declaration, scope: !97, entity: !381, file: !152, line: 1160)
!381 = !DISubprogram(name: "lroundf", scope: !148, file: !148, line: 320, type: !372, flags: DIFlagPrototyped, spFlags: 0)
!382 = !DIImportedEntity(tag: DW_TAG_imported_declaration, scope: !97, entity: !383, file: !152, line: 1161)
!383 = !DISubprogram(name: "lroundl", scope: !148, file: !148, line: 320, type: !376, flags: DIFlagPrototyped, spFlags: 0)
!384 = !DIImportedEntity(tag: DW_TAG_imported_declaration, scope: !97, entity: !385, file: !152, line: 1163)
!385 = !DISubprogram(name: "nan", scope: !148, file: !148, line: 201, type: !386, flags: DIFlagPrototyped, spFlags: 0)
!386 = !DISubroutineType(types: !387)
!387 = !{!151, !388}
!388 = !DIDerivedType(tag: DW_TAG_pointer_type, baseType: !389, size: 64)
!389 = !DIDerivedType(tag: DW_TAG_const_type, baseType: !390)
!390 = !DIBasicType(name: "char", size: 8, encoding: DW_ATE_signed_char)
!391 = !DIImportedEntity(tag: DW_TAG_imported_declaration, scope: !97, entity: !392, file: !152, line: 1164)
!392 = !DISubprogram(name: "nanf", scope: !148, file: !148, line: 201, type: !393, flags: DIFlagPrototyped, spFlags: 0)
!393 = !DISubroutineType(types: !394)
!394 = !{!210, !388}
!395 = !DIImportedEntity(tag: DW_TAG_imported_declaration, scope: !97, entity: !396, file: !152, line: 1165)
!396 = !DISubprogram(name: "nanl", scope: !148, file: !148, line: 201, type: !397, flags: DIFlagPrototyped, spFlags: 0)
!397 = !DISubroutineType(types: !398)
!398 = !{!221, !388}
!399 = !DIImportedEntity(tag: DW_TAG_imported_declaration, scope: !97, entity: !400, file: !152, line: 1167)
!400 = !DISubprogram(name: "nearbyint", scope: !148, file: !148, line: 294, type: !149, flags: DIFlagPrototyped, spFlags: 0)
!401 = !DIImportedEntity(tag: DW_TAG_imported_declaration, scope: !97, entity: !402, file: !152, line: 1168)
!402 = !DISubprogram(name: "nearbyintf", scope: !148, file: !148, line: 294, type: !215, flags: DIFlagPrototyped, spFlags: 0)
!403 = !DIImportedEntity(tag: DW_TAG_imported_declaration, scope: !97, entity: !404, file: !152, line: 1169)
!404 = !DISubprogram(name: "nearbyintl", scope: !148, file: !148, line: 294, type: !219, flags: DIFlagPrototyped, spFlags: 0)
!405 = !DIImportedEntity(tag: DW_TAG_imported_declaration, scope: !97, entity: !406, file: !152, line: 1171)
!406 = !DISubprogram(name: "nextafter", scope: !148, file: !148, line: 259, type: !159, flags: DIFlagPrototyped, spFlags: 0)
!407 = !DIImportedEntity(tag: DW_TAG_imported_declaration, scope: !97, entity: !408, file: !152, line: 1172)
!408 = !DISubprogram(name: "nextafterf", scope: !148, file: !148, line: 259, type: !244, flags: DIFlagPrototyped, spFlags: 0)
!409 = !DIImportedEntity(tag: DW_TAG_imported_declaration, scope: !97, entity: !410, file: !152, line: 1173)
!410 = !DISubprogram(name: "nextafterl", scope: !148, file: !148, line: 259, type: !248, flags: DIFlagPrototyped, spFlags: 0)
!411 = !DIImportedEntity(tag: DW_TAG_imported_declaration, scope: !97, entity: !412, file: !152, line: 1175)
!412 = !DISubprogram(name: "nexttoward", scope: !148, file: !148, line: 261, type: !413, flags: DIFlagPrototyped, spFlags: 0)
!413 = !DISubroutineType(types: !414)
!414 = !{!151, !151, !221}
!415 = !DIImportedEntity(tag: DW_TAG_imported_declaration, scope: !97, entity: !416, file: !152, line: 1176)
!416 = !DISubprogram(name: "nexttowardf", scope: !148, file: !148, line: 261, type: !417, flags: DIFlagPrototyped, spFlags: 0)
!417 = !DISubroutineType(types: !418)
!418 = !{!210, !210, !221}
!419 = !DIImportedEntity(tag: DW_TAG_imported_declaration, scope: !97, entity: !420, file: !152, line: 1177)
!420 = !DISubprogram(name: "nexttowardl", scope: !148, file: !148, line: 261, type: !248, flags: DIFlagPrototyped, spFlags: 0)
!421 = !DIImportedEntity(tag: DW_TAG_imported_declaration, scope: !97, entity: !422, file: !152, line: 1179)
!422 = !DISubprogram(name: "remainder", scope: !148, file: !148, line: 272, type: !159, flags: DIFlagPrototyped, spFlags: 0)
!423 = !DIImportedEntity(tag: DW_TAG_imported_declaration, scope: !97, entity: !424, file: !152, line: 1180)
!424 = !DISubprogram(name: "remainderf", scope: !148, file: !148, line: 272, type: !244, flags: DIFlagPrototyped, spFlags: 0)
!425 = !DIImportedEntity(tag: DW_TAG_imported_declaration, scope: !97, entity: !426, file: !152, line: 1181)
!426 = !DISubprogram(name: "remainderl", scope: !148, file: !148, line: 272, type: !248, flags: DIFlagPrototyped, spFlags: 0)
!427 = !DIImportedEntity(tag: DW_TAG_imported_declaration, scope: !97, entity: !428, file: !152, line: 1183)
!428 = !DISubprogram(name: "remquo", scope: !148, file: !148, line: 307, type: !429, flags: DIFlagPrototyped, spFlags: 0)
!429 = !DISubroutineType(types: !430)
!430 = !{!151, !151, !151, !179}
!431 = !DIImportedEntity(tag: DW_TAG_imported_declaration, scope: !97, entity: !432, file: !152, line: 1184)
!432 = !DISubprogram(name: "remquof", scope: !148, file: !148, line: 307, type: !433, flags: DIFlagPrototyped, spFlags: 0)
!433 = !DISubroutineType(types: !434)
!434 = !{!210, !210, !210, !179}
!435 = !DIImportedEntity(tag: DW_TAG_imported_declaration, scope: !97, entity: !436, file: !152, line: 1185)
!436 = !DISubprogram(name: "remquol", scope: !148, file: !148, line: 307, type: !437, flags: DIFlagPrototyped, spFlags: 0)
!437 = !DISubroutineType(types: !438)
!438 = !{!221, !221, !221, !179}
!439 = !DIImportedEntity(tag: DW_TAG_imported_declaration, scope: !97, entity: !440, file: !152, line: 1187)
!440 = !DISubprogram(name: "rint", scope: !148, file: !148, line: 256, type: !149, flags: DIFlagPrototyped, spFlags: 0)
!441 = !DIImportedEntity(tag: DW_TAG_imported_declaration, scope: !97, entity: !442, file: !152, line: 1188)
!442 = !DISubprogram(name: "rintf", scope: !148, file: !148, line: 256, type: !215, flags: DIFlagPrototyped, spFlags: 0)
!443 = !DIImportedEntity(tag: DW_TAG_imported_declaration, scope: !97, entity: !444, file: !152, line: 1189)
!444 = !DISubprogram(name: "rintl", scope: !148, file: !148, line: 256, type: !219, flags: DIFlagPrototyped, spFlags: 0)
!445 = !DIImportedEntity(tag: DW_TAG_imported_declaration, scope: !97, entity: !446, file: !152, line: 1191)
!446 = !DISubprogram(name: "round", scope: !148, file: !148, line: 298, type: !149, flags: DIFlagPrototyped, spFlags: 0)
!447 = !DIImportedEntity(tag: DW_TAG_imported_declaration, scope: !97, entity: !448, file: !152, line: 1192)
!448 = !DISubprogram(name: "roundf", scope: !148, file: !148, line: 298, type: !215, flags: DIFlagPrototyped, spFlags: 0)
!449 = !DIImportedEntity(tag: DW_TAG_imported_declaration, scope: !97, entity: !450, file: !152, line: 1193)
!450 = !DISubprogram(name: "roundl", scope: !148, file: !148, line: 298, type: !219, flags: DIFlagPrototyped, spFlags: 0)
!451 = !DIImportedEntity(tag: DW_TAG_imported_declaration, scope: !97, entity: !452, file: !152, line: 1195)
!452 = !DISubprogram(name: "scalbln", scope: !148, file: !148, line: 290, type: !453, flags: DIFlagPrototyped, spFlags: 0)
!453 = !DISubroutineType(types: !454)
!454 = !{!151, !151, !369}
!455 = !DIImportedEntity(tag: DW_TAG_imported_declaration, scope: !97, entity: !456, file: !152, line: 1196)
!456 = !DISubprogram(name: "scalblnf", scope: !148, file: !148, line: 290, type: !457, flags: DIFlagPrototyped, spFlags: 0)
!457 = !DISubroutineType(types: !458)
!458 = !{!210, !210, !369}
!459 = !DIImportedEntity(tag: DW_TAG_imported_declaration, scope: !97, entity: !460, file: !152, line: 1197)
!460 = !DISubprogram(name: "scalblnl", scope: !148, file: !148, line: 290, type: !461, flags: DIFlagPrototyped, spFlags: 0)
!461 = !DISubroutineType(types: !462)
!462 = !{!221, !221, !369}
!463 = !DIImportedEntity(tag: DW_TAG_imported_declaration, scope: !97, entity: !464, file: !152, line: 1199)
!464 = !DISubprogram(name: "scalbn", scope: !148, file: !148, line: 276, type: !182, flags: DIFlagPrototyped, spFlags: 0)
!465 = !DIImportedEntity(tag: DW_TAG_imported_declaration, scope: !97, entity: !466, file: !152, line: 1200)
!466 = !DISubprogram(name: "scalbnf", scope: !148, file: !148, line: 276, type: !467, flags: DIFlagPrototyped, spFlags: 0)
!467 = !DISubroutineType(types: !468)
!468 = !{!210, !210, !14}
!469 = !DIImportedEntity(tag: DW_TAG_imported_declaration, scope: !97, entity: !470, file: !152, line: 1201)
!470 = !DISubprogram(name: "scalbnl", scope: !148, file: !148, line: 276, type: !471, flags: DIFlagPrototyped, spFlags: 0)
!471 = !DISubroutineType(types: !472)
!472 = !{!221, !221, !14}
!473 = !DIImportedEntity(tag: DW_TAG_imported_declaration, scope: !97, entity: !474, file: !152, line: 1203)
!474 = !DISubprogram(name: "tgamma", scope: !148, file: !148, line: 235, type: !149, flags: DIFlagPrototyped, spFlags: 0)
!475 = !DIImportedEntity(tag: DW_TAG_imported_declaration, scope: !97, entity: !476, file: !152, line: 1204)
!476 = !DISubprogram(name: "tgammaf", scope: !148, file: !148, line: 235, type: !215, flags: DIFlagPrototyped, spFlags: 0)
!477 = !DIImportedEntity(tag: DW_TAG_imported_declaration, scope: !97, entity: !478, file: !152, line: 1205)
!478 = !DISubprogram(name: "tgammal", scope: !148, file: !148, line: 235, type: !219, flags: DIFlagPrototyped, spFlags: 0)
!479 = !DIImportedEntity(tag: DW_TAG_imported_declaration, scope: !97, entity: !480, file: !152, line: 1207)
!480 = !DISubprogram(name: "trunc", scope: !148, file: !148, line: 302, type: !149, flags: DIFlagPrototyped, spFlags: 0)
!481 = !DIImportedEntity(tag: DW_TAG_imported_declaration, scope: !97, entity: !482, file: !152, line: 1208)
!482 = !DISubprogram(name: "truncf", scope: !148, file: !148, line: 302, type: !215, flags: DIFlagPrototyped, spFlags: 0)
!483 = !DIImportedEntity(tag: DW_TAG_imported_declaration, scope: !97, entity: !484, file: !152, line: 1209)
!484 = !DISubprogram(name: "truncl", scope: !148, file: !148, line: 302, type: !219, flags: DIFlagPrototyped, spFlags: 0)
!485 = !DIImportedEntity(tag: DW_TAG_imported_declaration, scope: !97, entity: !486, file: !501, line: 64)
!486 = !DIDerivedType(tag: DW_TAG_typedef, name: "mbstate_t", file: !487, line: 6, baseType: !488)
!487 = !DIFile(filename: "/usr/include/x86_64-linux-gnu/bits/types/mbstate_t.h", directory: "")
!488 = !DIDerivedType(tag: DW_TAG_typedef, name: "__mbstate_t", file: !489, line: 21, baseType: !490)
!489 = !DIFile(filename: "/usr/include/x86_64-linux-gnu/bits/types/__mbstate_t.h", directory: "")
!490 = distinct !DICompositeType(tag: DW_TAG_structure_type, file: !489, line: 13, size: 64, flags: DIFlagTypePassByValue, elements: !491, identifier: "_ZTS11__mbstate_t")
!491 = !{!492, !493}
!492 = !DIDerivedType(tag: DW_TAG_member, name: "__count", scope: !490, file: !489, line: 15, baseType: !14, size: 32)
!493 = !DIDerivedType(tag: DW_TAG_member, name: "__value", scope: !490, file: !489, line: 20, baseType: !494, size: 32, offset: 32)
!494 = distinct !DICompositeType(tag: DW_TAG_union_type, scope: !490, file: !489, line: 16, size: 32, flags: DIFlagTypePassByValue, elements: !495, identifier: "_ZTSN11__mbstate_tUt_E")
!495 = !{!496, !497}
!496 = !DIDerivedType(tag: DW_TAG_member, name: "__wch", scope: !494, file: !489, line: 18, baseType: !128, size: 32)
!497 = !DIDerivedType(tag: DW_TAG_member, name: "__wchb", scope: !494, file: !489, line: 19, baseType: !498, size: 32)
!498 = !DICompositeType(tag: DW_TAG_array_type, baseType: !390, size: 32, elements: !499)
!499 = !{!500}
!500 = !DISubrange(count: 4)
!501 = !DIFile(filename: "/usr/lib/gcc/x86_64-linux-gnu/10/../../../../include/c++/10/cwchar", directory: "")
!502 = !DIImportedEntity(tag: DW_TAG_imported_declaration, scope: !97, entity: !503, file: !501, line: 141)
!503 = !DIDerivedType(tag: DW_TAG_typedef, name: "wint_t", file: !504, line: 20, baseType: !128)
!504 = !DIFile(filename: "/usr/include/x86_64-linux-gnu/bits/types/wint_t.h", directory: "")
!505 = !DIImportedEntity(tag: DW_TAG_imported_declaration, scope: !97, entity: !506, file: !501, line: 143)
!506 = !DISubprogram(name: "btowc", scope: !507, file: !507, line: 284, type: !508, flags: DIFlagPrototyped, spFlags: 0)
!507 = !DIFile(filename: "/usr/include/wchar.h", directory: "")
!508 = !DISubroutineType(types: !509)
!509 = !{!503, !14}
!510 = !DIImportedEntity(tag: DW_TAG_imported_declaration, scope: !97, entity: !511, file: !501, line: 144)
!511 = !DISubprogram(name: "fgetwc", scope: !507, file: !507, line: 726, type: !512, flags: DIFlagPrototyped, spFlags: 0)
!512 = !DISubroutineType(types: !513)
!513 = !{!503, !514}
!514 = !DIDerivedType(tag: DW_TAG_pointer_type, baseType: !515, size: 64)
!515 = !DIDerivedType(tag: DW_TAG_typedef, name: "__FILE", file: !516, line: 5, baseType: !517)
!516 = !DIFile(filename: "/usr/include/x86_64-linux-gnu/bits/types/__FILE.h", directory: "")
!517 = !DICompositeType(tag: DW_TAG_structure_type, name: "_IO_FILE", file: !516, line: 4, flags: DIFlagFwdDecl, identifier: "_ZTS8_IO_FILE")
!518 = !DIImportedEntity(tag: DW_TAG_imported_declaration, scope: !97, entity: !519, file: !501, line: 145)
!519 = !DISubprogram(name: "fgetws", scope: !507, file: !507, line: 755, type: !520, flags: DIFlagPrototyped, spFlags: 0)
!520 = !DISubroutineType(types: !521)
!521 = !{!522, !524, !14, !525}
!522 = !DIDerivedType(tag: DW_TAG_pointer_type, baseType: !523, size: 64)
!523 = !DIBasicType(name: "wchar_t", size: 32, encoding: DW_ATE_signed)
!524 = !DIDerivedType(tag: DW_TAG_restrict_type, baseType: !522)
!525 = !DIDerivedType(tag: DW_TAG_restrict_type, baseType: !514)
!526 = !DIImportedEntity(tag: DW_TAG_imported_declaration, scope: !97, entity: !527, file: !501, line: 146)
!527 = !DISubprogram(name: "fputwc", scope: !507, file: !507, line: 740, type: !528, flags: DIFlagPrototyped, spFlags: 0)
!528 = !DISubroutineType(types: !529)
!529 = !{!503, !523, !514}
!530 = !DIImportedEntity(tag: DW_TAG_imported_declaration, scope: !97, entity: !531, file: !501, line: 147)
!531 = !DISubprogram(name: "fputws", scope: !507, file: !507, line: 762, type: !532, flags: DIFlagPrototyped, spFlags: 0)
!532 = !DISubroutineType(types: !533)
!533 = !{!14, !534, !525}
!534 = !DIDerivedType(tag: DW_TAG_restrict_type, baseType: !535)
!535 = !DIDerivedType(tag: DW_TAG_pointer_type, baseType: !536, size: 64)
!536 = !DIDerivedType(tag: DW_TAG_const_type, baseType: !523)
!537 = !DIImportedEntity(tag: DW_TAG_imported_declaration, scope: !97, entity: !538, file: !501, line: 148)
!538 = !DISubprogram(name: "fwide", scope: !507, file: !507, line: 573, type: !539, flags: DIFlagPrototyped, spFlags: 0)
!539 = !DISubroutineType(types: !540)
!540 = !{!14, !514, !14}
!541 = !DIImportedEntity(tag: DW_TAG_imported_declaration, scope: !97, entity: !542, file: !501, line: 149)
!542 = !DISubprogram(name: "fwprintf", scope: !507, file: !507, line: 580, type: !543, flags: DIFlagPrototyped, spFlags: 0)
!543 = !DISubroutineType(types: !544)
!544 = !{!14, !525, !534, null}
!545 = !DIImportedEntity(tag: DW_TAG_imported_declaration, scope: !97, entity: !546, file: !501, line: 150)
!546 = !DISubprogram(name: "fwscanf", linkageName: "__isoc99_fwscanf", scope: !507, file: !507, line: 640, type: !543, flags: DIFlagPrototyped, spFlags: 0)
!547 = !DIImportedEntity(tag: DW_TAG_imported_declaration, scope: !97, entity: !548, file: !501, line: 151)
!548 = !DISubprogram(name: "getwc", scope: !507, file: !507, line: 727, type: !512, flags: DIFlagPrototyped, spFlags: 0)
!549 = !DIImportedEntity(tag: DW_TAG_imported_declaration, scope: !97, entity: !550, file: !501, line: 152)
!550 = !DISubprogram(name: "getwchar", scope: !507, file: !507, line: 733, type: !551, flags: DIFlagPrototyped, spFlags: 0)
!551 = !DISubroutineType(types: !552)
!552 = !{!503}
!553 = !DIImportedEntity(tag: DW_TAG_imported_declaration, scope: !97, entity: !554, file: !501, line: 153)
!554 = !DISubprogram(name: "mbrlen", scope: !507, file: !507, line: 307, type: !555, flags: DIFlagPrototyped, spFlags: 0)
!555 = !DISubroutineType(types: !556)
!556 = !{!557, !560, !557, !561}
!557 = !DIDerivedType(tag: DW_TAG_typedef, name: "size_t", file: !558, line: 46, baseType: !559)
!558 = !DIFile(filename: "Rohit/IR2Vec-LoopOptimizationFramework/build_REL_AsrtON/lib/clang/10.0.1/include/stddef.h", directory: "/home/venkat/IF-DV")
!559 = !DIBasicType(name: "long unsigned int", size: 64, encoding: DW_ATE_unsigned)
!560 = !DIDerivedType(tag: DW_TAG_restrict_type, baseType: !388)
!561 = !DIDerivedType(tag: DW_TAG_restrict_type, baseType: !562)
!562 = !DIDerivedType(tag: DW_TAG_pointer_type, baseType: !486, size: 64)
!563 = !DIImportedEntity(tag: DW_TAG_imported_declaration, scope: !97, entity: !564, file: !501, line: 154)
!564 = !DISubprogram(name: "mbrtowc", scope: !507, file: !507, line: 296, type: !565, flags: DIFlagPrototyped, spFlags: 0)
!565 = !DISubroutineType(types: !566)
!566 = !{!557, !524, !560, !557, !561}
!567 = !DIImportedEntity(tag: DW_TAG_imported_declaration, scope: !97, entity: !568, file: !501, line: 155)
!568 = !DISubprogram(name: "mbsinit", scope: !507, file: !507, line: 292, type: !569, flags: DIFlagPrototyped, spFlags: 0)
!569 = !DISubroutineType(types: !570)
!570 = !{!14, !571}
!571 = !DIDerivedType(tag: DW_TAG_pointer_type, baseType: !572, size: 64)
!572 = !DIDerivedType(tag: DW_TAG_const_type, baseType: !486)
!573 = !DIImportedEntity(tag: DW_TAG_imported_declaration, scope: !97, entity: !574, file: !501, line: 156)
!574 = !DISubprogram(name: "mbsrtowcs", scope: !507, file: !507, line: 337, type: !575, flags: DIFlagPrototyped, spFlags: 0)
!575 = !DISubroutineType(types: !576)
!576 = !{!557, !524, !577, !557, !561}
!577 = !DIDerivedType(tag: DW_TAG_restrict_type, baseType: !578)
!578 = !DIDerivedType(tag: DW_TAG_pointer_type, baseType: !388, size: 64)
!579 = !DIImportedEntity(tag: DW_TAG_imported_declaration, scope: !97, entity: !580, file: !501, line: 157)
!580 = !DISubprogram(name: "putwc", scope: !507, file: !507, line: 741, type: !528, flags: DIFlagPrototyped, spFlags: 0)
!581 = !DIImportedEntity(tag: DW_TAG_imported_declaration, scope: !97, entity: !582, file: !501, line: 158)
!582 = !DISubprogram(name: "putwchar", scope: !507, file: !507, line: 747, type: !583, flags: DIFlagPrototyped, spFlags: 0)
!583 = !DISubroutineType(types: !584)
!584 = !{!503, !523}
!585 = !DIImportedEntity(tag: DW_TAG_imported_declaration, scope: !97, entity: !586, file: !501, line: 160)
!586 = !DISubprogram(name: "swprintf", scope: !507, file: !507, line: 590, type: !587, flags: DIFlagPrototyped, spFlags: 0)
!587 = !DISubroutineType(types: !588)
!588 = !{!14, !524, !557, !534, null}
!589 = !DIImportedEntity(tag: DW_TAG_imported_declaration, scope: !97, entity: !590, file: !501, line: 162)
!590 = !DISubprogram(name: "swscanf", linkageName: "__isoc99_swscanf", scope: !507, file: !507, line: 647, type: !591, flags: DIFlagPrototyped, spFlags: 0)
!591 = !DISubroutineType(types: !592)
!592 = !{!14, !534, !534, null}
!593 = !DIImportedEntity(tag: DW_TAG_imported_declaration, scope: !97, entity: !594, file: !501, line: 163)
!594 = !DISubprogram(name: "ungetwc", scope: !507, file: !507, line: 770, type: !595, flags: DIFlagPrototyped, spFlags: 0)
!595 = !DISubroutineType(types: !596)
!596 = !{!503, !503, !514}
!597 = !DIImportedEntity(tag: DW_TAG_imported_declaration, scope: !97, entity: !598, file: !501, line: 164)
!598 = !DISubprogram(name: "vfwprintf", scope: !507, file: !507, line: 598, type: !599, flags: DIFlagPrototyped, spFlags: 0)
!599 = !DISubroutineType(types: !600)
!600 = !{!14, !525, !534, !601}
!601 = !DIDerivedType(tag: DW_TAG_pointer_type, baseType: !602, size: 64)
!602 = distinct !DICompositeType(tag: DW_TAG_structure_type, name: "__va_list_tag", file: !123, size: 192, flags: DIFlagTypePassByValue, elements: !603, identifier: "_ZTS13__va_list_tag")
!603 = !{!604, !605, !606, !608}
!604 = !DIDerivedType(tag: DW_TAG_member, name: "gp_offset", scope: !602, file: !123, baseType: !128, size: 32)
!605 = !DIDerivedType(tag: DW_TAG_member, name: "fp_offset", scope: !602, file: !123, baseType: !128, size: 32, offset: 32)
!606 = !DIDerivedType(tag: DW_TAG_member, name: "overflow_arg_area", scope: !602, file: !123, baseType: !607, size: 64, offset: 64)
!607 = !DIDerivedType(tag: DW_TAG_pointer_type, baseType: null, size: 64)
!608 = !DIDerivedType(tag: DW_TAG_member, name: "reg_save_area", scope: !602, file: !123, baseType: !607, size: 64, offset: 128)
!609 = !DIImportedEntity(tag: DW_TAG_imported_declaration, scope: !97, entity: !610, file: !501, line: 166)
!610 = !DISubprogram(name: "vfwscanf", linkageName: "__isoc99_vfwscanf", scope: !507, file: !507, line: 693, type: !599, flags: DIFlagPrototyped, spFlags: 0)
!611 = !DIImportedEntity(tag: DW_TAG_imported_declaration, scope: !97, entity: !612, file: !501, line: 169)
!612 = !DISubprogram(name: "vswprintf", scope: !507, file: !507, line: 611, type: !613, flags: DIFlagPrototyped, spFlags: 0)
!613 = !DISubroutineType(types: !614)
!614 = !{!14, !524, !557, !534, !601}
!615 = !DIImportedEntity(tag: DW_TAG_imported_declaration, scope: !97, entity: !616, file: !501, line: 172)
!616 = !DISubprogram(name: "vswscanf", linkageName: "__isoc99_vswscanf", scope: !507, file: !507, line: 700, type: !617, flags: DIFlagPrototyped, spFlags: 0)
!617 = !DISubroutineType(types: !618)
!618 = !{!14, !534, !534, !601}
!619 = !DIImportedEntity(tag: DW_TAG_imported_declaration, scope: !97, entity: !620, file: !501, line: 174)
!620 = !DISubprogram(name: "vwprintf", scope: !507, file: !507, line: 606, type: !621, flags: DIFlagPrototyped, spFlags: 0)
!621 = !DISubroutineType(types: !622)
!622 = !{!14, !534, !601}
!623 = !DIImportedEntity(tag: DW_TAG_imported_declaration, scope: !97, entity: !624, file: !501, line: 176)
!624 = !DISubprogram(name: "vwscanf", linkageName: "__isoc99_vwscanf", scope: !507, file: !507, line: 697, type: !621, flags: DIFlagPrototyped, spFlags: 0)
!625 = !DIImportedEntity(tag: DW_TAG_imported_declaration, scope: !97, entity: !626, file: !501, line: 178)
!626 = !DISubprogram(name: "wcrtomb", scope: !507, file: !507, line: 301, type: !627, flags: DIFlagPrototyped, spFlags: 0)
!627 = !DISubroutineType(types: !628)
!628 = !{!557, !629, !523, !561}
!629 = !DIDerivedType(tag: DW_TAG_restrict_type, baseType: !630)
!630 = !DIDerivedType(tag: DW_TAG_pointer_type, baseType: !390, size: 64)
!631 = !DIImportedEntity(tag: DW_TAG_imported_declaration, scope: !97, entity: !632, file: !501, line: 179)
!632 = !DISubprogram(name: "wcscat", scope: !507, file: !507, line: 97, type: !633, flags: DIFlagPrototyped, spFlags: 0)
!633 = !DISubroutineType(types: !634)
!634 = !{!522, !524, !534}
!635 = !DIImportedEntity(tag: DW_TAG_imported_declaration, scope: !97, entity: !636, file: !501, line: 180)
!636 = !DISubprogram(name: "wcscmp", scope: !507, file: !507, line: 106, type: !637, flags: DIFlagPrototyped, spFlags: 0)
!637 = !DISubroutineType(types: !638)
!638 = !{!14, !535, !535}
!639 = !DIImportedEntity(tag: DW_TAG_imported_declaration, scope: !97, entity: !640, file: !501, line: 181)
!640 = !DISubprogram(name: "wcscoll", scope: !507, file: !507, line: 131, type: !637, flags: DIFlagPrototyped, spFlags: 0)
!641 = !DIImportedEntity(tag: DW_TAG_imported_declaration, scope: !97, entity: !642, file: !501, line: 182)
!642 = !DISubprogram(name: "wcscpy", scope: !507, file: !507, line: 87, type: !633, flags: DIFlagPrototyped, spFlags: 0)
!643 = !DIImportedEntity(tag: DW_TAG_imported_declaration, scope: !97, entity: !644, file: !501, line: 183)
!644 = !DISubprogram(name: "wcscspn", scope: !507, file: !507, line: 187, type: !645, flags: DIFlagPrototyped, spFlags: 0)
!645 = !DISubroutineType(types: !646)
!646 = !{!557, !535, !535}
!647 = !DIImportedEntity(tag: DW_TAG_imported_declaration, scope: !97, entity: !648, file: !501, line: 184)
!648 = !DISubprogram(name: "wcsftime", scope: !507, file: !507, line: 834, type: !649, flags: DIFlagPrototyped, spFlags: 0)
!649 = !DISubroutineType(types: !650)
!650 = !{!557, !524, !557, !534, !651}
!651 = !DIDerivedType(tag: DW_TAG_restrict_type, baseType: !652)
!652 = !DIDerivedType(tag: DW_TAG_pointer_type, baseType: !653, size: 64)
!653 = !DIDerivedType(tag: DW_TAG_const_type, baseType: !654)
!654 = distinct !DICompositeType(tag: DW_TAG_structure_type, name: "tm", file: !655, line: 7, size: 448, flags: DIFlagTypePassByValue, elements: !656, identifier: "_ZTS2tm")
!655 = !DIFile(filename: "/usr/include/x86_64-linux-gnu/bits/types/struct_tm.h", directory: "")
!656 = !{!657, !658, !659, !660, !661, !662, !663, !664, !665, !666, !667}
!657 = !DIDerivedType(tag: DW_TAG_member, name: "tm_sec", scope: !654, file: !655, line: 9, baseType: !14, size: 32)
!658 = !DIDerivedType(tag: DW_TAG_member, name: "tm_min", scope: !654, file: !655, line: 10, baseType: !14, size: 32, offset: 32)
!659 = !DIDerivedType(tag: DW_TAG_member, name: "tm_hour", scope: !654, file: !655, line: 11, baseType: !14, size: 32, offset: 64)
!660 = !DIDerivedType(tag: DW_TAG_member, name: "tm_mday", scope: !654, file: !655, line: 12, baseType: !14, size: 32, offset: 96)
!661 = !DIDerivedType(tag: DW_TAG_member, name: "tm_mon", scope: !654, file: !655, line: 13, baseType: !14, size: 32, offset: 128)
!662 = !DIDerivedType(tag: DW_TAG_member, name: "tm_year", scope: !654, file: !655, line: 14, baseType: !14, size: 32, offset: 160)
!663 = !DIDerivedType(tag: DW_TAG_member, name: "tm_wday", scope: !654, file: !655, line: 15, baseType: !14, size: 32, offset: 192)
!664 = !DIDerivedType(tag: DW_TAG_member, name: "tm_yday", scope: !654, file: !655, line: 16, baseType: !14, size: 32, offset: 224)
!665 = !DIDerivedType(tag: DW_TAG_member, name: "tm_isdst", scope: !654, file: !655, line: 17, baseType: !14, size: 32, offset: 256)
!666 = !DIDerivedType(tag: DW_TAG_member, name: "tm_gmtoff", scope: !654, file: !655, line: 20, baseType: !369, size: 64, offset: 320)
!667 = !DIDerivedType(tag: DW_TAG_member, name: "tm_zone", scope: !654, file: !655, line: 21, baseType: !388, size: 64, offset: 384)
!668 = !DIImportedEntity(tag: DW_TAG_imported_declaration, scope: !97, entity: !669, file: !501, line: 185)
!669 = !DISubprogram(name: "wcslen", scope: !507, file: !507, line: 222, type: !670, flags: DIFlagPrototyped, spFlags: 0)
!670 = !DISubroutineType(types: !671)
!671 = !{!557, !535}
!672 = !DIImportedEntity(tag: DW_TAG_imported_declaration, scope: !97, entity: !673, file: !501, line: 186)
!673 = !DISubprogram(name: "wcsncat", scope: !507, file: !507, line: 101, type: !674, flags: DIFlagPrototyped, spFlags: 0)
!674 = !DISubroutineType(types: !675)
!675 = !{!522, !524, !534, !557}
!676 = !DIImportedEntity(tag: DW_TAG_imported_declaration, scope: !97, entity: !677, file: !501, line: 187)
!677 = !DISubprogram(name: "wcsncmp", scope: !507, file: !507, line: 109, type: !678, flags: DIFlagPrototyped, spFlags: 0)
!678 = !DISubroutineType(types: !679)
!679 = !{!14, !535, !535, !557}
!680 = !DIImportedEntity(tag: DW_TAG_imported_declaration, scope: !97, entity: !681, file: !501, line: 188)
!681 = !DISubprogram(name: "wcsncpy", scope: !507, file: !507, line: 92, type: !674, flags: DIFlagPrototyped, spFlags: 0)
!682 = !DIImportedEntity(tag: DW_TAG_imported_declaration, scope: !97, entity: !683, file: !501, line: 189)
!683 = !DISubprogram(name: "wcsrtombs", scope: !507, file: !507, line: 343, type: !684, flags: DIFlagPrototyped, spFlags: 0)
!684 = !DISubroutineType(types: !685)
!685 = !{!557, !629, !686, !557, !561}
!686 = !DIDerivedType(tag: DW_TAG_restrict_type, baseType: !687)
!687 = !DIDerivedType(tag: DW_TAG_pointer_type, baseType: !535, size: 64)
!688 = !DIImportedEntity(tag: DW_TAG_imported_declaration, scope: !97, entity: !689, file: !501, line: 190)
!689 = !DISubprogram(name: "wcsspn", scope: !507, file: !507, line: 191, type: !645, flags: DIFlagPrototyped, spFlags: 0)
!690 = !DIImportedEntity(tag: DW_TAG_imported_declaration, scope: !97, entity: !691, file: !501, line: 191)
!691 = !DISubprogram(name: "wcstod", scope: !507, file: !507, line: 377, type: !692, flags: DIFlagPrototyped, spFlags: 0)
!692 = !DISubroutineType(types: !693)
!693 = !{!151, !534, !694}
!694 = !DIDerivedType(tag: DW_TAG_restrict_type, baseType: !695)
!695 = !DIDerivedType(tag: DW_TAG_pointer_type, baseType: !522, size: 64)
!696 = !DIImportedEntity(tag: DW_TAG_imported_declaration, scope: !97, entity: !697, file: !501, line: 193)
!697 = !DISubprogram(name: "wcstof", scope: !507, file: !507, line: 382, type: !698, flags: DIFlagPrototyped, spFlags: 0)
!698 = !DISubroutineType(types: !699)
!699 = !{!210, !534, !694}
!700 = !DIImportedEntity(tag: DW_TAG_imported_declaration, scope: !97, entity: !701, file: !501, line: 195)
!701 = !DISubprogram(name: "wcstok", scope: !507, file: !507, line: 217, type: !702, flags: DIFlagPrototyped, spFlags: 0)
!702 = !DISubroutineType(types: !703)
!703 = !{!522, !524, !534, !694}
!704 = !DIImportedEntity(tag: DW_TAG_imported_declaration, scope: !97, entity: !705, file: !501, line: 196)
!705 = !DISubprogram(name: "wcstol", scope: !507, file: !507, line: 428, type: !706, flags: DIFlagPrototyped, spFlags: 0)
!706 = !DISubroutineType(types: !707)
!707 = !{!369, !534, !694, !14}
!708 = !DIImportedEntity(tag: DW_TAG_imported_declaration, scope: !97, entity: !709, file: !501, line: 197)
!709 = !DISubprogram(name: "wcstoul", scope: !507, file: !507, line: 433, type: !710, flags: DIFlagPrototyped, spFlags: 0)
!710 = !DISubroutineType(types: !711)
!711 = !{!559, !534, !694, !14}
!712 = !DIImportedEntity(tag: DW_TAG_imported_declaration, scope: !97, entity: !713, file: !501, line: 198)
!713 = !DISubprogram(name: "wcsxfrm", scope: !507, file: !507, line: 135, type: !714, flags: DIFlagPrototyped, spFlags: 0)
!714 = !DISubroutineType(types: !715)
!715 = !{!557, !524, !534, !557}
!716 = !DIImportedEntity(tag: DW_TAG_imported_declaration, scope: !97, entity: !717, file: !501, line: 199)
!717 = !DISubprogram(name: "wctob", scope: !507, file: !507, line: 288, type: !718, flags: DIFlagPrototyped, spFlags: 0)
!718 = !DISubroutineType(types: !719)
!719 = !{!14, !503}
!720 = !DIImportedEntity(tag: DW_TAG_imported_declaration, scope: !97, entity: !721, file: !501, line: 200)
!721 = !DISubprogram(name: "wmemcmp", scope: !507, file: !507, line: 258, type: !678, flags: DIFlagPrototyped, spFlags: 0)
!722 = !DIImportedEntity(tag: DW_TAG_imported_declaration, scope: !97, entity: !723, file: !501, line: 201)
!723 = !DISubprogram(name: "wmemcpy", scope: !507, file: !507, line: 262, type: !674, flags: DIFlagPrototyped, spFlags: 0)
!724 = !DIImportedEntity(tag: DW_TAG_imported_declaration, scope: !97, entity: !725, file: !501, line: 202)
!725 = !DISubprogram(name: "wmemmove", scope: !507, file: !507, line: 267, type: !726, flags: DIFlagPrototyped, spFlags: 0)
!726 = !DISubroutineType(types: !727)
!727 = !{!522, !522, !535, !557}
!728 = !DIImportedEntity(tag: DW_TAG_imported_declaration, scope: !97, entity: !729, file: !501, line: 203)
!729 = !DISubprogram(name: "wmemset", scope: !507, file: !507, line: 271, type: !730, flags: DIFlagPrototyped, spFlags: 0)
!730 = !DISubroutineType(types: !731)
!731 = !{!522, !522, !523, !557}
!732 = !DIImportedEntity(tag: DW_TAG_imported_declaration, scope: !97, entity: !733, file: !501, line: 204)
!733 = !DISubprogram(name: "wprintf", scope: !507, file: !507, line: 587, type: !734, flags: DIFlagPrototyped, spFlags: 0)
!734 = !DISubroutineType(types: !735)
!735 = !{!14, !534, null}
!736 = !DIImportedEntity(tag: DW_TAG_imported_declaration, scope: !97, entity: !737, file: !501, line: 205)
!737 = !DISubprogram(name: "wscanf", linkageName: "__isoc99_wscanf", scope: !507, file: !507, line: 644, type: !734, flags: DIFlagPrototyped, spFlags: 0)
!738 = !DIImportedEntity(tag: DW_TAG_imported_declaration, scope: !97, entity: !739, file: !501, line: 206)
!739 = !DISubprogram(name: "wcschr", scope: !507, file: !507, line: 164, type: !740, flags: DIFlagPrototyped, spFlags: 0)
!740 = !DISubroutineType(types: !741)
!741 = !{!522, !535, !523}
!742 = !DIImportedEntity(tag: DW_TAG_imported_declaration, scope: !97, entity: !743, file: !501, line: 207)
!743 = !DISubprogram(name: "wcspbrk", scope: !507, file: !507, line: 201, type: !744, flags: DIFlagPrototyped, spFlags: 0)
!744 = !DISubroutineType(types: !745)
!745 = !{!522, !535, !535}
!746 = !DIImportedEntity(tag: DW_TAG_imported_declaration, scope: !97, entity: !747, file: !501, line: 208)
!747 = !DISubprogram(name: "wcsrchr", scope: !507, file: !507, line: 174, type: !740, flags: DIFlagPrototyped, spFlags: 0)
!748 = !DIImportedEntity(tag: DW_TAG_imported_declaration, scope: !97, entity: !749, file: !501, line: 209)
!749 = !DISubprogram(name: "wcsstr", scope: !507, file: !507, line: 212, type: !744, flags: DIFlagPrototyped, spFlags: 0)
!750 = !DIImportedEntity(tag: DW_TAG_imported_declaration, scope: !97, entity: !751, file: !501, line: 210)
!751 = !DISubprogram(name: "wmemchr", scope: !507, file: !507, line: 253, type: !752, flags: DIFlagPrototyped, spFlags: 0)
!752 = !DISubroutineType(types: !753)
!753 = !{!522, !535, !523, !557}
!754 = !DIImportedEntity(tag: DW_TAG_imported_declaration, scope: !127, entity: !755, file: !501, line: 251)
!755 = !DISubprogram(name: "wcstold", scope: !507, file: !507, line: 384, type: !756, flags: DIFlagPrototyped, spFlags: 0)
!756 = !DISubroutineType(types: !757)
!757 = !{!221, !534, !694}
!758 = !DIImportedEntity(tag: DW_TAG_imported_declaration, scope: !127, entity: !759, file: !501, line: 260)
!759 = !DISubprogram(name: "wcstoll", scope: !507, file: !507, line: 441, type: !760, flags: DIFlagPrototyped, spFlags: 0)
!760 = !DISubroutineType(types: !761)
!761 = !{!332, !534, !694, !14}
!762 = !DIImportedEntity(tag: DW_TAG_imported_declaration, scope: !127, entity: !763, file: !501, line: 261)
!763 = !DISubprogram(name: "wcstoull", scope: !507, file: !507, line: 448, type: !764, flags: DIFlagPrototyped, spFlags: 0)
!764 = !DISubroutineType(types: !765)
!765 = !{!766, !534, !694, !14}
!766 = !DIBasicType(name: "long long unsigned int", size: 64, encoding: DW_ATE_unsigned)
!767 = !DIImportedEntity(tag: DW_TAG_imported_declaration, scope: !97, entity: !755, file: !501, line: 267)
!768 = !DIImportedEntity(tag: DW_TAG_imported_declaration, scope: !97, entity: !759, file: !501, line: 268)
!769 = !DIImportedEntity(tag: DW_TAG_imported_declaration, scope: !97, entity: !763, file: !501, line: 269)
!770 = !DIImportedEntity(tag: DW_TAG_imported_declaration, scope: !97, entity: !697, file: !501, line: 283)
!771 = !DIImportedEntity(tag: DW_TAG_imported_declaration, scope: !97, entity: !610, file: !501, line: 286)
!772 = !DIImportedEntity(tag: DW_TAG_imported_declaration, scope: !97, entity: !616, file: !501, line: 289)
!773 = !DIImportedEntity(tag: DW_TAG_imported_declaration, scope: !97, entity: !624, file: !501, line: 292)
!774 = !DIImportedEntity(tag: DW_TAG_imported_declaration, scope: !97, entity: !755, file: !501, line: 296)
!775 = !DIImportedEntity(tag: DW_TAG_imported_declaration, scope: !97, entity: !759, file: !501, line: 297)
!776 = !DIImportedEntity(tag: DW_TAG_imported_declaration, scope: !97, entity: !763, file: !501, line: 298)
!777 = !DIImportedEntity(tag: DW_TAG_imported_declaration, scope: !97, entity: !778, file: !779, line: 58)
!778 = distinct !DICompositeType(tag: DW_TAG_class_type, name: "exception_ptr", scope: !780, file: !779, line: 80, size: 64, flags: DIFlagTypePassByReference | DIFlagNonTrivial, elements: !781, identifier: "_ZTSNSt15__exception_ptr13exception_ptrE")
!779 = !DIFile(filename: "/usr/lib/gcc/x86_64-linux-gnu/10/../../../../include/c++/10/bits/exception_ptr.h", directory: "")
!780 = !DINamespace(name: "__exception_ptr", scope: !97)
!781 = !{!782, !783, !787, !790, !791, !796, !797, !801, !807, !811, !815, !818, !819, !822, !825}
!782 = !DIDerivedType(tag: DW_TAG_member, name: "_M_exception_object", scope: !778, file: !779, line: 82, baseType: !607, size: 64)
!783 = !DISubprogram(name: "exception_ptr", scope: !778, file: !779, line: 84, type: !784, scopeLine: 84, flags: DIFlagExplicit | DIFlagPrototyped, spFlags: 0)
!784 = !DISubroutineType(types: !785)
!785 = !{null, !786, !607}
!786 = !DIDerivedType(tag: DW_TAG_pointer_type, baseType: !778, size: 64, flags: DIFlagArtificial | DIFlagObjectPointer)
!787 = !DISubprogram(name: "_M_addref", linkageName: "_ZNSt15__exception_ptr13exception_ptr9_M_addrefEv", scope: !778, file: !779, line: 86, type: !788, scopeLine: 86, flags: DIFlagPrototyped, spFlags: 0)
!788 = !DISubroutineType(types: !789)
!789 = !{null, !786}
!790 = !DISubprogram(name: "_M_release", linkageName: "_ZNSt15__exception_ptr13exception_ptr10_M_releaseEv", scope: !778, file: !779, line: 87, type: !788, scopeLine: 87, flags: DIFlagPrototyped, spFlags: 0)
!791 = !DISubprogram(name: "_M_get", linkageName: "_ZNKSt15__exception_ptr13exception_ptr6_M_getEv", scope: !778, file: !779, line: 89, type: !792, scopeLine: 89, flags: DIFlagPrototyped, spFlags: 0)
!792 = !DISubroutineType(types: !793)
!793 = !{!607, !794}
!794 = !DIDerivedType(tag: DW_TAG_pointer_type, baseType: !795, size: 64, flags: DIFlagArtificial | DIFlagObjectPointer)
!795 = !DIDerivedType(tag: DW_TAG_const_type, baseType: !778)
!796 = !DISubprogram(name: "exception_ptr", scope: !778, file: !779, line: 97, type: !788, scopeLine: 97, flags: DIFlagPublic | DIFlagPrototyped, spFlags: 0)
!797 = !DISubprogram(name: "exception_ptr", scope: !778, file: !779, line: 99, type: !798, scopeLine: 99, flags: DIFlagPublic | DIFlagPrototyped, spFlags: 0)
!798 = !DISubroutineType(types: !799)
!799 = !{null, !786, !800}
!800 = !DIDerivedType(tag: DW_TAG_reference_type, baseType: !795, size: 64)
!801 = !DISubprogram(name: "exception_ptr", scope: !778, file: !779, line: 102, type: !802, scopeLine: 102, flags: DIFlagPublic | DIFlagPrototyped, spFlags: 0)
!802 = !DISubroutineType(types: !803)
!803 = !{null, !786, !804}
!804 = !DIDerivedType(tag: DW_TAG_typedef, name: "nullptr_t", scope: !97, file: !805, line: 264, baseType: !806)
!805 = !DIFile(filename: "/usr/lib/gcc/x86_64-linux-gnu/10/../../../../include/x86_64-linux-gnu/c++/10/bits/c++config.h", directory: "")
!806 = !DIBasicType(tag: DW_TAG_unspecified_type, name: "decltype(nullptr)")
!807 = !DISubprogram(name: "exception_ptr", scope: !778, file: !779, line: 106, type: !808, scopeLine: 106, flags: DIFlagPublic | DIFlagPrototyped, spFlags: 0)
!808 = !DISubroutineType(types: !809)
!809 = !{null, !786, !810}
!810 = !DIDerivedType(tag: DW_TAG_rvalue_reference_type, baseType: !778, size: 64)
!811 = !DISubprogram(name: "operator=", linkageName: "_ZNSt15__exception_ptr13exception_ptraSERKS0_", scope: !778, file: !779, line: 119, type: !812, scopeLine: 119, flags: DIFlagPublic | DIFlagPrototyped, spFlags: 0)
!812 = !DISubroutineType(types: !813)
!813 = !{!814, !786, !800}
!814 = !DIDerivedType(tag: DW_TAG_reference_type, baseType: !778, size: 64)
!815 = !DISubprogram(name: "operator=", linkageName: "_ZNSt15__exception_ptr13exception_ptraSEOS0_", scope: !778, file: !779, line: 123, type: !816, scopeLine: 123, flags: DIFlagPublic | DIFlagPrototyped, spFlags: 0)
!816 = !DISubroutineType(types: !817)
!817 = !{!814, !786, !810}
!818 = !DISubprogram(name: "~exception_ptr", scope: !778, file: !779, line: 130, type: !788, scopeLine: 130, flags: DIFlagPublic | DIFlagPrototyped, spFlags: 0)
!819 = !DISubprogram(name: "swap", linkageName: "_ZNSt15__exception_ptr13exception_ptr4swapERS0_", scope: !778, file: !779, line: 133, type: !820, scopeLine: 133, flags: DIFlagPublic | DIFlagPrototyped, spFlags: 0)
!820 = !DISubroutineType(types: !821)
!821 = !{null, !786, !814}
!822 = !DISubprogram(name: "operator bool", linkageName: "_ZNKSt15__exception_ptr13exception_ptrcvbEv", scope: !778, file: !779, line: 145, type: !823, scopeLine: 145, flags: DIFlagPublic | DIFlagExplicit | DIFlagPrototyped, spFlags: 0)
!823 = !DISubroutineType(types: !824)
!824 = !{!107, !794}
!825 = !DISubprogram(name: "__cxa_exception_type", linkageName: "_ZNKSt15__exception_ptr13exception_ptr20__cxa_exception_typeEv", scope: !778, file: !779, line: 154, type: !826, scopeLine: 154, flags: DIFlagPublic | DIFlagPrototyped, spFlags: 0)
!826 = !DISubroutineType(types: !827)
!827 = !{!828, !794}
!828 = !DIDerivedType(tag: DW_TAG_pointer_type, baseType: !829, size: 64)
!829 = !DIDerivedType(tag: DW_TAG_const_type, baseType: !830)
!830 = !DICompositeType(tag: DW_TAG_class_type, name: "type_info", scope: !97, file: !831, line: 88, flags: DIFlagFwdDecl)
!831 = !DIFile(filename: "/usr/lib/gcc/x86_64-linux-gnu/10/../../../../include/c++/10/typeinfo", directory: "")
!832 = !DIImportedEntity(tag: DW_TAG_imported_declaration, scope: !780, entity: !833, file: !779, line: 74)
!833 = !DISubprogram(name: "rethrow_exception", linkageName: "_ZSt17rethrow_exceptionNSt15__exception_ptr13exception_ptrE", scope: !97, file: !779, line: 70, type: !834, flags: DIFlagPrototyped | DIFlagNoReturn, spFlags: 0)
!834 = !DISubroutineType(types: !835)
!835 = !{null, !778}
!836 = !DIImportedEntity(tag: DW_TAG_imported_module, scope: !837, entity: !838, file: !839, line: 58)
!837 = !DINamespace(name: "__gnu_debug", scope: null)
!838 = !DINamespace(name: "__debug", scope: !97)
!839 = !DIFile(filename: "/usr/lib/gcc/x86_64-linux-gnu/10/../../../../include/c++/10/debug/debug.h", directory: "")
!840 = !DIImportedEntity(tag: DW_TAG_imported_declaration, scope: !97, entity: !841, file: !846, line: 47)
!841 = !DIDerivedType(tag: DW_TAG_typedef, name: "int8_t", file: !842, line: 24, baseType: !843)
!842 = !DIFile(filename: "/usr/include/x86_64-linux-gnu/bits/stdint-intn.h", directory: "")
!843 = !DIDerivedType(tag: DW_TAG_typedef, name: "__int8_t", file: !844, line: 37, baseType: !845)
!844 = !DIFile(filename: "/usr/include/x86_64-linux-gnu/bits/types.h", directory: "")
!845 = !DIBasicType(name: "signed char", size: 8, encoding: DW_ATE_signed_char)
!846 = !DIFile(filename: "/usr/lib/gcc/x86_64-linux-gnu/10/../../../../include/c++/10/cstdint", directory: "")
!847 = !DIImportedEntity(tag: DW_TAG_imported_declaration, scope: !97, entity: !848, file: !846, line: 48)
!848 = !DIDerivedType(tag: DW_TAG_typedef, name: "int16_t", file: !842, line: 25, baseType: !849)
!849 = !DIDerivedType(tag: DW_TAG_typedef, name: "__int16_t", file: !844, line: 39, baseType: !850)
!850 = !DIBasicType(name: "short", size: 16, encoding: DW_ATE_signed)
!851 = !DIImportedEntity(tag: DW_TAG_imported_declaration, scope: !97, entity: !852, file: !846, line: 49)
!852 = !DIDerivedType(tag: DW_TAG_typedef, name: "int32_t", file: !842, line: 26, baseType: !853)
!853 = !DIDerivedType(tag: DW_TAG_typedef, name: "__int32_t", file: !844, line: 41, baseType: !14)
!854 = !DIImportedEntity(tag: DW_TAG_imported_declaration, scope: !97, entity: !855, file: !846, line: 50)
!855 = !DIDerivedType(tag: DW_TAG_typedef, name: "int64_t", file: !842, line: 27, baseType: !856)
!856 = !DIDerivedType(tag: DW_TAG_typedef, name: "__int64_t", file: !844, line: 44, baseType: !369)
!857 = !DIImportedEntity(tag: DW_TAG_imported_declaration, scope: !97, entity: !858, file: !846, line: 52)
!858 = !DIDerivedType(tag: DW_TAG_typedef, name: "int_fast8_t", file: !859, line: 58, baseType: !845)
!859 = !DIFile(filename: "/usr/include/stdint.h", directory: "")
!860 = !DIImportedEntity(tag: DW_TAG_imported_declaration, scope: !97, entity: !861, file: !846, line: 53)
!861 = !DIDerivedType(tag: DW_TAG_typedef, name: "int_fast16_t", file: !859, line: 60, baseType: !369)
!862 = !DIImportedEntity(tag: DW_TAG_imported_declaration, scope: !97, entity: !863, file: !846, line: 54)
!863 = !DIDerivedType(tag: DW_TAG_typedef, name: "int_fast32_t", file: !859, line: 61, baseType: !369)
!864 = !DIImportedEntity(tag: DW_TAG_imported_declaration, scope: !97, entity: !865, file: !846, line: 55)
!865 = !DIDerivedType(tag: DW_TAG_typedef, name: "int_fast64_t", file: !859, line: 62, baseType: !369)
!866 = !DIImportedEntity(tag: DW_TAG_imported_declaration, scope: !97, entity: !867, file: !846, line: 57)
!867 = !DIDerivedType(tag: DW_TAG_typedef, name: "int_least8_t", file: !859, line: 43, baseType: !868)
!868 = !DIDerivedType(tag: DW_TAG_typedef, name: "__int_least8_t", file: !844, line: 52, baseType: !843)
!869 = !DIImportedEntity(tag: DW_TAG_imported_declaration, scope: !97, entity: !870, file: !846, line: 58)
!870 = !DIDerivedType(tag: DW_TAG_typedef, name: "int_least16_t", file: !859, line: 44, baseType: !871)
!871 = !DIDerivedType(tag: DW_TAG_typedef, name: "__int_least16_t", file: !844, line: 54, baseType: !849)
!872 = !DIImportedEntity(tag: DW_TAG_imported_declaration, scope: !97, entity: !873, file: !846, line: 59)
!873 = !DIDerivedType(tag: DW_TAG_typedef, name: "int_least32_t", file: !859, line: 45, baseType: !874)
!874 = !DIDerivedType(tag: DW_TAG_typedef, name: "__int_least32_t", file: !844, line: 56, baseType: !853)
!875 = !DIImportedEntity(tag: DW_TAG_imported_declaration, scope: !97, entity: !876, file: !846, line: 60)
!876 = !DIDerivedType(tag: DW_TAG_typedef, name: "int_least64_t", file: !859, line: 46, baseType: !877)
!877 = !DIDerivedType(tag: DW_TAG_typedef, name: "__int_least64_t", file: !844, line: 58, baseType: !856)
!878 = !DIImportedEntity(tag: DW_TAG_imported_declaration, scope: !97, entity: !879, file: !846, line: 62)
!879 = !DIDerivedType(tag: DW_TAG_typedef, name: "intmax_t", file: !859, line: 101, baseType: !880)
!880 = !DIDerivedType(tag: DW_TAG_typedef, name: "__intmax_t", file: !844, line: 72, baseType: !369)
!881 = !DIImportedEntity(tag: DW_TAG_imported_declaration, scope: !97, entity: !882, file: !846, line: 63)
!882 = !DIDerivedType(tag: DW_TAG_typedef, name: "intptr_t", file: !859, line: 87, baseType: !369)
!883 = !DIImportedEntity(tag: DW_TAG_imported_declaration, scope: !97, entity: !884, file: !846, line: 65)
!884 = !DIDerivedType(tag: DW_TAG_typedef, name: "uint8_t", file: !885, line: 24, baseType: !886)
!885 = !DIFile(filename: "/usr/include/x86_64-linux-gnu/bits/stdint-uintn.h", directory: "")
!886 = !DIDerivedType(tag: DW_TAG_typedef, name: "__uint8_t", file: !844, line: 38, baseType: !887)
!887 = !DIBasicType(name: "unsigned char", size: 8, encoding: DW_ATE_unsigned_char)
!888 = !DIImportedEntity(tag: DW_TAG_imported_declaration, scope: !97, entity: !889, file: !846, line: 66)
!889 = !DIDerivedType(tag: DW_TAG_typedef, name: "uint16_t", file: !885, line: 25, baseType: !890)
!890 = !DIDerivedType(tag: DW_TAG_typedef, name: "__uint16_t", file: !844, line: 40, baseType: !891)
!891 = !DIBasicType(name: "unsigned short", size: 16, encoding: DW_ATE_unsigned)
!892 = !DIImportedEntity(tag: DW_TAG_imported_declaration, scope: !97, entity: !893, file: !846, line: 67)
!893 = !DIDerivedType(tag: DW_TAG_typedef, name: "uint32_t", file: !885, line: 26, baseType: !894)
!894 = !DIDerivedType(tag: DW_TAG_typedef, name: "__uint32_t", file: !844, line: 42, baseType: !128)
!895 = !DIImportedEntity(tag: DW_TAG_imported_declaration, scope: !97, entity: !896, file: !846, line: 68)
!896 = !DIDerivedType(tag: DW_TAG_typedef, name: "uint64_t", file: !885, line: 27, baseType: !897)
!897 = !DIDerivedType(tag: DW_TAG_typedef, name: "__uint64_t", file: !844, line: 45, baseType: !559)
!898 = !DIImportedEntity(tag: DW_TAG_imported_declaration, scope: !97, entity: !899, file: !846, line: 70)
!899 = !DIDerivedType(tag: DW_TAG_typedef, name: "uint_fast8_t", file: !859, line: 71, baseType: !887)
!900 = !DIImportedEntity(tag: DW_TAG_imported_declaration, scope: !97, entity: !901, file: !846, line: 71)
!901 = !DIDerivedType(tag: DW_TAG_typedef, name: "uint_fast16_t", file: !859, line: 73, baseType: !559)
!902 = !DIImportedEntity(tag: DW_TAG_imported_declaration, scope: !97, entity: !903, file: !846, line: 72)
!903 = !DIDerivedType(tag: DW_TAG_typedef, name: "uint_fast32_t", file: !859, line: 74, baseType: !559)
!904 = !DIImportedEntity(tag: DW_TAG_imported_declaration, scope: !97, entity: !905, file: !846, line: 73)
!905 = !DIDerivedType(tag: DW_TAG_typedef, name: "uint_fast64_t", file: !859, line: 75, baseType: !559)
!906 = !DIImportedEntity(tag: DW_TAG_imported_declaration, scope: !97, entity: !907, file: !846, line: 75)
!907 = !DIDerivedType(tag: DW_TAG_typedef, name: "uint_least8_t", file: !859, line: 49, baseType: !908)
!908 = !DIDerivedType(tag: DW_TAG_typedef, name: "__uint_least8_t", file: !844, line: 53, baseType: !886)
!909 = !DIImportedEntity(tag: DW_TAG_imported_declaration, scope: !97, entity: !910, file: !846, line: 76)
!910 = !DIDerivedType(tag: DW_TAG_typedef, name: "uint_least16_t", file: !859, line: 50, baseType: !911)
!911 = !DIDerivedType(tag: DW_TAG_typedef, name: "__uint_least16_t", file: !844, line: 55, baseType: !890)
!912 = !DIImportedEntity(tag: DW_TAG_imported_declaration, scope: !97, entity: !913, file: !846, line: 77)
!913 = !DIDerivedType(tag: DW_TAG_typedef, name: "uint_least32_t", file: !859, line: 51, baseType: !914)
!914 = !DIDerivedType(tag: DW_TAG_typedef, name: "__uint_least32_t", file: !844, line: 57, baseType: !894)
!915 = !DIImportedEntity(tag: DW_TAG_imported_declaration, scope: !97, entity: !916, file: !846, line: 78)
!916 = !DIDerivedType(tag: DW_TAG_typedef, name: "uint_least64_t", file: !859, line: 52, baseType: !917)
!917 = !DIDerivedType(tag: DW_TAG_typedef, name: "__uint_least64_t", file: !844, line: 59, baseType: !897)
!918 = !DIImportedEntity(tag: DW_TAG_imported_declaration, scope: !97, entity: !919, file: !846, line: 80)
!919 = !DIDerivedType(tag: DW_TAG_typedef, name: "uintmax_t", file: !859, line: 102, baseType: !920)
!920 = !DIDerivedType(tag: DW_TAG_typedef, name: "__uintmax_t", file: !844, line: 73, baseType: !559)
!921 = !DIImportedEntity(tag: DW_TAG_imported_declaration, scope: !97, entity: !922, file: !846, line: 81)
!922 = !DIDerivedType(tag: DW_TAG_typedef, name: "uintptr_t", file: !859, line: 90, baseType: !559)
!923 = !DIImportedEntity(tag: DW_TAG_imported_declaration, scope: !97, entity: !924, file: !926, line: 53)
!924 = !DICompositeType(tag: DW_TAG_structure_type, name: "lconv", file: !925, line: 51, flags: DIFlagFwdDecl, identifier: "_ZTS5lconv")
!925 = !DIFile(filename: "/usr/include/locale.h", directory: "")
!926 = !DIFile(filename: "/usr/lib/gcc/x86_64-linux-gnu/10/../../../../include/c++/10/clocale", directory: "")
!927 = !DIImportedEntity(tag: DW_TAG_imported_declaration, scope: !97, entity: !928, file: !926, line: 54)
!928 = !DISubprogram(name: "setlocale", scope: !925, file: !925, line: 122, type: !929, flags: DIFlagPrototyped, spFlags: 0)
!929 = !DISubroutineType(types: !930)
!930 = !{!630, !14, !388}
!931 = !DIImportedEntity(tag: DW_TAG_imported_declaration, scope: !97, entity: !932, file: !926, line: 55)
!932 = !DISubprogram(name: "localeconv", scope: !925, file: !925, line: 125, type: !933, flags: DIFlagPrototyped, spFlags: 0)
!933 = !DISubroutineType(types: !934)
!934 = !{!935}
!935 = !DIDerivedType(tag: DW_TAG_pointer_type, baseType: !924, size: 64)
!936 = !DIImportedEntity(tag: DW_TAG_imported_declaration, scope: !97, entity: !937, file: !939, line: 64)
!937 = !DISubprogram(name: "isalnum", scope: !938, file: !938, line: 108, type: !143, flags: DIFlagPrototyped, spFlags: 0)
!938 = !DIFile(filename: "/usr/include/ctype.h", directory: "")
!939 = !DIFile(filename: "/usr/lib/gcc/x86_64-linux-gnu/10/../../../../include/c++/10/cctype", directory: "")
!940 = !DIImportedEntity(tag: DW_TAG_imported_declaration, scope: !97, entity: !941, file: !939, line: 65)
!941 = !DISubprogram(name: "isalpha", scope: !938, file: !938, line: 109, type: !143, flags: DIFlagPrototyped, spFlags: 0)
!942 = !DIImportedEntity(tag: DW_TAG_imported_declaration, scope: !97, entity: !943, file: !939, line: 66)
!943 = !DISubprogram(name: "iscntrl", scope: !938, file: !938, line: 110, type: !143, flags: DIFlagPrototyped, spFlags: 0)
!944 = !DIImportedEntity(tag: DW_TAG_imported_declaration, scope: !97, entity: !945, file: !939, line: 67)
!945 = !DISubprogram(name: "isdigit", scope: !938, file: !938, line: 111, type: !143, flags: DIFlagPrototyped, spFlags: 0)
!946 = !DIImportedEntity(tag: DW_TAG_imported_declaration, scope: !97, entity: !947, file: !939, line: 68)
!947 = !DISubprogram(name: "isgraph", scope: !938, file: !938, line: 113, type: !143, flags: DIFlagPrototyped, spFlags: 0)
!948 = !DIImportedEntity(tag: DW_TAG_imported_declaration, scope: !97, entity: !949, file: !939, line: 69)
!949 = !DISubprogram(name: "islower", scope: !938, file: !938, line: 112, type: !143, flags: DIFlagPrototyped, spFlags: 0)
!950 = !DIImportedEntity(tag: DW_TAG_imported_declaration, scope: !97, entity: !951, file: !939, line: 70)
!951 = !DISubprogram(name: "isprint", scope: !938, file: !938, line: 114, type: !143, flags: DIFlagPrototyped, spFlags: 0)
!952 = !DIImportedEntity(tag: DW_TAG_imported_declaration, scope: !97, entity: !953, file: !939, line: 71)
!953 = !DISubprogram(name: "ispunct", scope: !938, file: !938, line: 115, type: !143, flags: DIFlagPrototyped, spFlags: 0)
!954 = !DIImportedEntity(tag: DW_TAG_imported_declaration, scope: !97, entity: !955, file: !939, line: 72)
!955 = !DISubprogram(name: "isspace", scope: !938, file: !938, line: 116, type: !143, flags: DIFlagPrototyped, spFlags: 0)
!956 = !DIImportedEntity(tag: DW_TAG_imported_declaration, scope: !97, entity: !957, file: !939, line: 73)
!957 = !DISubprogram(name: "isupper", scope: !938, file: !938, line: 117, type: !143, flags: DIFlagPrototyped, spFlags: 0)
!958 = !DIImportedEntity(tag: DW_TAG_imported_declaration, scope: !97, entity: !959, file: !939, line: 74)
!959 = !DISubprogram(name: "isxdigit", scope: !938, file: !938, line: 118, type: !143, flags: DIFlagPrototyped, spFlags: 0)
!960 = !DIImportedEntity(tag: DW_TAG_imported_declaration, scope: !97, entity: !961, file: !939, line: 75)
!961 = !DISubprogram(name: "tolower", scope: !938, file: !938, line: 122, type: !143, flags: DIFlagPrototyped, spFlags: 0)
!962 = !DIImportedEntity(tag: DW_TAG_imported_declaration, scope: !97, entity: !963, file: !939, line: 76)
!963 = !DISubprogram(name: "toupper", scope: !938, file: !938, line: 125, type: !143, flags: DIFlagPrototyped, spFlags: 0)
!964 = !DIImportedEntity(tag: DW_TAG_imported_declaration, scope: !97, entity: !965, file: !939, line: 87)
!965 = !DISubprogram(name: "isblank", scope: !938, file: !938, line: 130, type: !143, flags: DIFlagPrototyped, spFlags: 0)
!966 = !DIImportedEntity(tag: DW_TAG_imported_declaration, scope: !97, entity: !967, file: !969, line: 127)
!967 = !DIDerivedType(tag: DW_TAG_typedef, name: "div_t", file: !142, line: 62, baseType: !968)
!968 = !DICompositeType(tag: DW_TAG_structure_type, file: !142, line: 58, flags: DIFlagFwdDecl, identifier: "_ZTS5div_t")
!969 = !DIFile(filename: "/usr/lib/gcc/x86_64-linux-gnu/10/../../../../include/c++/10/cstdlib", directory: "")
!970 = !DIImportedEntity(tag: DW_TAG_imported_declaration, scope: !97, entity: !971, file: !969, line: 128)
!971 = !DIDerivedType(tag: DW_TAG_typedef, name: "ldiv_t", file: !142, line: 70, baseType: !972)
!972 = distinct !DICompositeType(tag: DW_TAG_structure_type, file: !142, line: 66, size: 128, flags: DIFlagTypePassByValue, elements: !973, identifier: "_ZTS6ldiv_t")
!973 = !{!974, !975}
!974 = !DIDerivedType(tag: DW_TAG_member, name: "quot", scope: !972, file: !142, line: 68, baseType: !369, size: 64)
!975 = !DIDerivedType(tag: DW_TAG_member, name: "rem", scope: !972, file: !142, line: 69, baseType: !369, size: 64, offset: 64)
!976 = !DIImportedEntity(tag: DW_TAG_imported_declaration, scope: !97, entity: !977, file: !969, line: 130)
!977 = !DISubprogram(name: "abort", scope: !142, file: !142, line: 591, type: !978, flags: DIFlagPrototyped | DIFlagNoReturn, spFlags: 0)
!978 = !DISubroutineType(types: !979)
!979 = !{null}
!980 = !DIImportedEntity(tag: DW_TAG_imported_declaration, scope: !97, entity: !981, file: !969, line: 134)
!981 = !DISubprogram(name: "atexit", scope: !142, file: !142, line: 595, type: !982, flags: DIFlagPrototyped, spFlags: 0)
!982 = !DISubroutineType(types: !983)
!983 = !{!14, !984}
!984 = !DIDerivedType(tag: DW_TAG_pointer_type, baseType: !978, size: 64)
!985 = !DIImportedEntity(tag: DW_TAG_imported_declaration, scope: !97, entity: !986, file: !969, line: 137)
!986 = !DISubprogram(name: "at_quick_exit", scope: !142, file: !142, line: 600, type: !982, flags: DIFlagPrototyped, spFlags: 0)
!987 = !DIImportedEntity(tag: DW_TAG_imported_declaration, scope: !97, entity: !988, file: !969, line: 140)
!988 = !DISubprogram(name: "atof", scope: !142, file: !142, line: 101, type: !386, flags: DIFlagPrototyped, spFlags: 0)
!989 = !DIImportedEntity(tag: DW_TAG_imported_declaration, scope: !97, entity: !990, file: !969, line: 141)
!990 = !DISubprogram(name: "atoi", scope: !142, file: !142, line: 104, type: !991, flags: DIFlagPrototyped, spFlags: 0)
!991 = !DISubroutineType(types: !992)
!992 = !{!14, !388}
!993 = !DIImportedEntity(tag: DW_TAG_imported_declaration, scope: !97, entity: !994, file: !969, line: 142)
!994 = !DISubprogram(name: "atol", scope: !142, file: !142, line: 107, type: !995, flags: DIFlagPrototyped, spFlags: 0)
!995 = !DISubroutineType(types: !996)
!996 = !{!369, !388}
!997 = !DIImportedEntity(tag: DW_TAG_imported_declaration, scope: !97, entity: !998, file: !969, line: 143)
!998 = !DISubprogram(name: "bsearch", scope: !142, file: !142, line: 820, type: !999, flags: DIFlagPrototyped, spFlags: 0)
!999 = !DISubroutineType(types: !1000)
!1000 = !{!607, !1001, !1001, !557, !557, !1003}
!1001 = !DIDerivedType(tag: DW_TAG_pointer_type, baseType: !1002, size: 64)
!1002 = !DIDerivedType(tag: DW_TAG_const_type, baseType: null)
!1003 = !DIDerivedType(tag: DW_TAG_typedef, name: "__compar_fn_t", file: !142, line: 808, baseType: !1004)
!1004 = !DIDerivedType(tag: DW_TAG_pointer_type, baseType: !1005, size: 64)
!1005 = !DISubroutineType(types: !1006)
!1006 = !{!14, !1001, !1001}
!1007 = !DIImportedEntity(tag: DW_TAG_imported_declaration, scope: !97, entity: !1008, file: !969, line: 144)
!1008 = !DISubprogram(name: "calloc", scope: !142, file: !142, line: 542, type: !1009, flags: DIFlagPrototyped, spFlags: 0)
!1009 = !DISubroutineType(types: !1010)
!1010 = !{!607, !557, !557}
!1011 = !DIImportedEntity(tag: DW_TAG_imported_declaration, scope: !97, entity: !1012, file: !969, line: 145)
!1012 = !DISubprogram(name: "div", scope: !142, file: !142, line: 852, type: !1013, flags: DIFlagPrototyped, spFlags: 0)
!1013 = !DISubroutineType(types: !1014)
!1014 = !{!967, !14, !14}
!1015 = !DIImportedEntity(tag: DW_TAG_imported_declaration, scope: !97, entity: !1016, file: !969, line: 146)
!1016 = !DISubprogram(name: "exit", scope: !142, file: !142, line: 617, type: !1017, flags: DIFlagPrototyped | DIFlagNoReturn, spFlags: 0)
!1017 = !DISubroutineType(types: !1018)
!1018 = !{null, !14}
!1019 = !DIImportedEntity(tag: DW_TAG_imported_declaration, scope: !97, entity: !1020, file: !969, line: 147)
!1020 = !DISubprogram(name: "free", scope: !142, file: !142, line: 565, type: !1021, flags: DIFlagPrototyped, spFlags: 0)
!1021 = !DISubroutineType(types: !1022)
!1022 = !{null, !607}
!1023 = !DIImportedEntity(tag: DW_TAG_imported_declaration, scope: !97, entity: !1024, file: !969, line: 148)
!1024 = !DISubprogram(name: "getenv", scope: !142, file: !142, line: 634, type: !1025, flags: DIFlagPrototyped, spFlags: 0)
!1025 = !DISubroutineType(types: !1026)
!1026 = !{!630, !388}
!1027 = !DIImportedEntity(tag: DW_TAG_imported_declaration, scope: !97, entity: !1028, file: !969, line: 149)
!1028 = !DISubprogram(name: "labs", scope: !142, file: !142, line: 841, type: !1029, flags: DIFlagPrototyped, spFlags: 0)
!1029 = !DISubroutineType(types: !1030)
!1030 = !{!369, !369}
!1031 = !DIImportedEntity(tag: DW_TAG_imported_declaration, scope: !97, entity: !1032, file: !969, line: 150)
!1032 = !DISubprogram(name: "ldiv", scope: !142, file: !142, line: 854, type: !1033, flags: DIFlagPrototyped, spFlags: 0)
!1033 = !DISubroutineType(types: !1034)
!1034 = !{!971, !369, !369}
!1035 = !DIImportedEntity(tag: DW_TAG_imported_declaration, scope: !97, entity: !1036, file: !969, line: 151)
!1036 = !DISubprogram(name: "malloc", scope: !142, file: !142, line: 539, type: !1037, flags: DIFlagPrototyped, spFlags: 0)
!1037 = !DISubroutineType(types: !1038)
!1038 = !{!607, !557}
!1039 = !DIImportedEntity(tag: DW_TAG_imported_declaration, scope: !97, entity: !1040, file: !969, line: 153)
!1040 = !DISubprogram(name: "mblen", scope: !142, file: !142, line: 922, type: !1041, flags: DIFlagPrototyped, spFlags: 0)
!1041 = !DISubroutineType(types: !1042)
!1042 = !{!14, !388, !557}
!1043 = !DIImportedEntity(tag: DW_TAG_imported_declaration, scope: !97, entity: !1044, file: !969, line: 154)
!1044 = !DISubprogram(name: "mbstowcs", scope: !142, file: !142, line: 933, type: !1045, flags: DIFlagPrototyped, spFlags: 0)
!1045 = !DISubroutineType(types: !1046)
!1046 = !{!557, !524, !560, !557}
!1047 = !DIImportedEntity(tag: DW_TAG_imported_declaration, scope: !97, entity: !1048, file: !969, line: 155)
!1048 = !DISubprogram(name: "mbtowc", scope: !142, file: !142, line: 925, type: !1049, flags: DIFlagPrototyped, spFlags: 0)
!1049 = !DISubroutineType(types: !1050)
!1050 = !{!14, !524, !560, !557}
!1051 = !DIImportedEntity(tag: DW_TAG_imported_declaration, scope: !97, entity: !1052, file: !969, line: 157)
!1052 = !DISubprogram(name: "qsort", scope: !142, file: !142, line: 830, type: !1053, flags: DIFlagPrototyped, spFlags: 0)
!1053 = !DISubroutineType(types: !1054)
!1054 = !{null, !607, !557, !557, !1003}
!1055 = !DIImportedEntity(tag: DW_TAG_imported_declaration, scope: !97, entity: !1056, file: !969, line: 160)
!1056 = !DISubprogram(name: "quick_exit", scope: !142, file: !142, line: 623, type: !1017, flags: DIFlagPrototyped | DIFlagNoReturn, spFlags: 0)
!1057 = !DIImportedEntity(tag: DW_TAG_imported_declaration, scope: !97, entity: !1058, file: !969, line: 163)
!1058 = !DISubprogram(name: "rand", scope: !142, file: !142, line: 453, type: !1059, flags: DIFlagPrototyped, spFlags: 0)
!1059 = !DISubroutineType(types: !137)
!1060 = !DIImportedEntity(tag: DW_TAG_imported_declaration, scope: !97, entity: !1061, file: !969, line: 164)
!1061 = !DISubprogram(name: "realloc", scope: !142, file: !142, line: 550, type: !1062, flags: DIFlagPrototyped, spFlags: 0)
!1062 = !DISubroutineType(types: !1063)
!1063 = !{!607, !607, !557}
!1064 = !DIImportedEntity(tag: DW_TAG_imported_declaration, scope: !97, entity: !1065, file: !969, line: 165)
!1065 = !DISubprogram(name: "srand", scope: !142, file: !142, line: 455, type: !1066, flags: DIFlagPrototyped, spFlags: 0)
!1066 = !DISubroutineType(types: !1067)
!1067 = !{null, !128}
!1068 = !DIImportedEntity(tag: DW_TAG_imported_declaration, scope: !97, entity: !1069, file: !969, line: 166)
!1069 = !DISubprogram(name: "strtod", scope: !142, file: !142, line: 117, type: !1070, flags: DIFlagPrototyped, spFlags: 0)
!1070 = !DISubroutineType(types: !1071)
!1071 = !{!151, !560, !1072}
!1072 = !DIDerivedType(tag: DW_TAG_restrict_type, baseType: !1073)
!1073 = !DIDerivedType(tag: DW_TAG_pointer_type, baseType: !630, size: 64)
!1074 = !DIImportedEntity(tag: DW_TAG_imported_declaration, scope: !97, entity: !1075, file: !969, line: 167)
!1075 = !DISubprogram(name: "strtol", scope: !142, file: !142, line: 176, type: !1076, flags: DIFlagPrototyped, spFlags: 0)
!1076 = !DISubroutineType(types: !1077)
!1077 = !{!369, !560, !1072, !14}
!1078 = !DIImportedEntity(tag: DW_TAG_imported_declaration, scope: !97, entity: !1079, file: !969, line: 168)
!1079 = !DISubprogram(name: "strtoul", scope: !142, file: !142, line: 180, type: !1080, flags: DIFlagPrototyped, spFlags: 0)
!1080 = !DISubroutineType(types: !1081)
!1081 = !{!559, !560, !1072, !14}
!1082 = !DIImportedEntity(tag: DW_TAG_imported_declaration, scope: !97, entity: !1083, file: !969, line: 169)
!1083 = !DISubprogram(name: "system", scope: !142, file: !142, line: 784, type: !991, flags: DIFlagPrototyped, spFlags: 0)
!1084 = !DIImportedEntity(tag: DW_TAG_imported_declaration, scope: !97, entity: !1085, file: !969, line: 171)
!1085 = !DISubprogram(name: "wcstombs", scope: !142, file: !142, line: 936, type: !1086, flags: DIFlagPrototyped, spFlags: 0)
!1086 = !DISubroutineType(types: !1087)
!1087 = !{!557, !629, !534, !557}
!1088 = !DIImportedEntity(tag: DW_TAG_imported_declaration, scope: !97, entity: !1089, file: !969, line: 172)
!1089 = !DISubprogram(name: "wctomb", scope: !142, file: !142, line: 929, type: !1090, flags: DIFlagPrototyped, spFlags: 0)
!1090 = !DISubroutineType(types: !1091)
!1091 = !{!14, !630, !523}
!1092 = !DIImportedEntity(tag: DW_TAG_imported_declaration, scope: !127, entity: !1093, file: !969, line: 200)
!1093 = !DIDerivedType(tag: DW_TAG_typedef, name: "lldiv_t", file: !142, line: 80, baseType: !1094)
!1094 = distinct !DICompositeType(tag: DW_TAG_structure_type, file: !142, line: 76, size: 128, flags: DIFlagTypePassByValue, elements: !1095, identifier: "_ZTS7lldiv_t")
!1095 = !{!1096, !1097}
!1096 = !DIDerivedType(tag: DW_TAG_member, name: "quot", scope: !1094, file: !142, line: 78, baseType: !332, size: 64)
!1097 = !DIDerivedType(tag: DW_TAG_member, name: "rem", scope: !1094, file: !142, line: 79, baseType: !332, size: 64, offset: 64)
!1098 = !DIImportedEntity(tag: DW_TAG_imported_declaration, scope: !127, entity: !1099, file: !969, line: 206)
!1099 = !DISubprogram(name: "_Exit", scope: !142, file: !142, line: 629, type: !1017, flags: DIFlagPrototyped | DIFlagNoReturn, spFlags: 0)
!1100 = !DIImportedEntity(tag: DW_TAG_imported_declaration, scope: !127, entity: !1101, file: !969, line: 210)
!1101 = !DISubprogram(name: "llabs", scope: !142, file: !142, line: 844, type: !1102, flags: DIFlagPrototyped, spFlags: 0)
!1102 = !DISubroutineType(types: !1103)
!1103 = !{!332, !332}
!1104 = !DIImportedEntity(tag: DW_TAG_imported_declaration, scope: !127, entity: !1105, file: !969, line: 216)
!1105 = !DISubprogram(name: "lldiv", scope: !142, file: !142, line: 858, type: !1106, flags: DIFlagPrototyped, spFlags: 0)
!1106 = !DISubroutineType(types: !1107)
!1107 = !{!1093, !332, !332}
!1108 = !DIImportedEntity(tag: DW_TAG_imported_declaration, scope: !127, entity: !1109, file: !969, line: 227)
!1109 = !DISubprogram(name: "atoll", scope: !142, file: !142, line: 112, type: !1110, flags: DIFlagPrototyped, spFlags: 0)
!1110 = !DISubroutineType(types: !1111)
!1111 = !{!332, !388}
!1112 = !DIImportedEntity(tag: DW_TAG_imported_declaration, scope: !127, entity: !1113, file: !969, line: 228)
!1113 = !DISubprogram(name: "strtoll", scope: !142, file: !142, line: 200, type: !1114, flags: DIFlagPrototyped, spFlags: 0)
!1114 = !DISubroutineType(types: !1115)
!1115 = !{!332, !560, !1072, !14}
!1116 = !DIImportedEntity(tag: DW_TAG_imported_declaration, scope: !127, entity: !1117, file: !969, line: 229)
!1117 = !DISubprogram(name: "strtoull", scope: !142, file: !142, line: 205, type: !1118, flags: DIFlagPrototyped, spFlags: 0)
!1118 = !DISubroutineType(types: !1119)
!1119 = !{!766, !560, !1072, !14}
!1120 = !DIImportedEntity(tag: DW_TAG_imported_declaration, scope: !127, entity: !1121, file: !969, line: 231)
!1121 = !DISubprogram(name: "strtof", scope: !142, file: !142, line: 123, type: !1122, flags: DIFlagPrototyped, spFlags: 0)
!1122 = !DISubroutineType(types: !1123)
!1123 = !{!210, !560, !1072}
!1124 = !DIImportedEntity(tag: DW_TAG_imported_declaration, scope: !127, entity: !1125, file: !969, line: 232)
!1125 = !DISubprogram(name: "strtold", scope: !142, file: !142, line: 126, type: !1126, flags: DIFlagPrototyped, spFlags: 0)
!1126 = !DISubroutineType(types: !1127)
!1127 = !{!221, !560, !1072}
!1128 = !DIImportedEntity(tag: DW_TAG_imported_declaration, scope: !97, entity: !1093, file: !969, line: 240)
!1129 = !DIImportedEntity(tag: DW_TAG_imported_declaration, scope: !97, entity: !1099, file: !969, line: 242)
!1130 = !DIImportedEntity(tag: DW_TAG_imported_declaration, scope: !97, entity: !1101, file: !969, line: 244)
!1131 = !DIImportedEntity(tag: DW_TAG_imported_declaration, scope: !97, entity: !1132, file: !969, line: 245)
!1132 = !DISubprogram(name: "div", linkageName: "_ZN9__gnu_cxx3divExx", scope: !127, file: !969, line: 213, type: !1106, flags: DIFlagPrototyped, spFlags: 0)
!1133 = !DIImportedEntity(tag: DW_TAG_imported_declaration, scope: !97, entity: !1105, file: !969, line: 246)
!1134 = !DIImportedEntity(tag: DW_TAG_imported_declaration, scope: !97, entity: !1109, file: !969, line: 248)
!1135 = !DIImportedEntity(tag: DW_TAG_imported_declaration, scope: !97, entity: !1121, file: !969, line: 249)
!1136 = !DIImportedEntity(tag: DW_TAG_imported_declaration, scope: !97, entity: !1113, file: !969, line: 250)
!1137 = !DIImportedEntity(tag: DW_TAG_imported_declaration, scope: !97, entity: !1117, file: !969, line: 251)
!1138 = !DIImportedEntity(tag: DW_TAG_imported_declaration, scope: !97, entity: !1125, file: !969, line: 252)
!1139 = !DIImportedEntity(tag: DW_TAG_imported_declaration, scope: !97, entity: !1140, file: !1142, line: 98)
!1140 = !DIDerivedType(tag: DW_TAG_typedef, name: "FILE", file: !1141, line: 7, baseType: !517)
!1141 = !DIFile(filename: "/usr/include/x86_64-linux-gnu/bits/types/FILE.h", directory: "")
!1142 = !DIFile(filename: "/usr/lib/gcc/x86_64-linux-gnu/10/../../../../include/c++/10/cstdio", directory: "")
!1143 = !DIImportedEntity(tag: DW_TAG_imported_declaration, scope: !97, entity: !1144, file: !1142, line: 99)
!1144 = !DIDerivedType(tag: DW_TAG_typedef, name: "fpos_t", file: !1145, line: 84, baseType: !1146)
!1145 = !DIFile(filename: "/usr/include/stdio.h", directory: "")
!1146 = !DIDerivedType(tag: DW_TAG_typedef, name: "__fpos_t", file: !1147, line: 14, baseType: !1148)
!1147 = !DIFile(filename: "/usr/include/x86_64-linux-gnu/bits/types/__fpos_t.h", directory: "")
!1148 = !DICompositeType(tag: DW_TAG_structure_type, name: "_G_fpos_t", file: !1147, line: 10, flags: DIFlagFwdDecl, identifier: "_ZTS9_G_fpos_t")
!1149 = !DIImportedEntity(tag: DW_TAG_imported_declaration, scope: !97, entity: !1150, file: !1142, line: 101)
!1150 = !DISubprogram(name: "clearerr", scope: !1145, file: !1145, line: 757, type: !1151, flags: DIFlagPrototyped, spFlags: 0)
!1151 = !DISubroutineType(types: !1152)
!1152 = !{null, !1153}
!1153 = !DIDerivedType(tag: DW_TAG_pointer_type, baseType: !1140, size: 64)
!1154 = !DIImportedEntity(tag: DW_TAG_imported_declaration, scope: !97, entity: !1155, file: !1142, line: 102)
!1155 = !DISubprogram(name: "fclose", scope: !1145, file: !1145, line: 213, type: !1156, flags: DIFlagPrototyped, spFlags: 0)
!1156 = !DISubroutineType(types: !1157)
!1157 = !{!14, !1153}
!1158 = !DIImportedEntity(tag: DW_TAG_imported_declaration, scope: !97, entity: !1159, file: !1142, line: 103)
!1159 = !DISubprogram(name: "feof", scope: !1145, file: !1145, line: 759, type: !1156, flags: DIFlagPrototyped, spFlags: 0)
!1160 = !DIImportedEntity(tag: DW_TAG_imported_declaration, scope: !97, entity: !1161, file: !1142, line: 104)
!1161 = !DISubprogram(name: "ferror", scope: !1145, file: !1145, line: 761, type: !1156, flags: DIFlagPrototyped, spFlags: 0)
!1162 = !DIImportedEntity(tag: DW_TAG_imported_declaration, scope: !97, entity: !1163, file: !1142, line: 105)
!1163 = !DISubprogram(name: "fflush", scope: !1145, file: !1145, line: 218, type: !1156, flags: DIFlagPrototyped, spFlags: 0)
!1164 = !DIImportedEntity(tag: DW_TAG_imported_declaration, scope: !97, entity: !1165, file: !1142, line: 106)
!1165 = !DISubprogram(name: "fgetc", scope: !1145, file: !1145, line: 485, type: !1156, flags: DIFlagPrototyped, spFlags: 0)
!1166 = !DIImportedEntity(tag: DW_TAG_imported_declaration, scope: !97, entity: !1167, file: !1142, line: 107)
!1167 = !DISubprogram(name: "fgetpos", scope: !1145, file: !1145, line: 731, type: !1168, flags: DIFlagPrototyped, spFlags: 0)
!1168 = !DISubroutineType(types: !1169)
!1169 = !{!14, !1170, !1171}
!1170 = !DIDerivedType(tag: DW_TAG_restrict_type, baseType: !1153)
!1171 = !DIDerivedType(tag: DW_TAG_restrict_type, baseType: !1172)
!1172 = !DIDerivedType(tag: DW_TAG_pointer_type, baseType: !1144, size: 64)
!1173 = !DIImportedEntity(tag: DW_TAG_imported_declaration, scope: !97, entity: !1174, file: !1142, line: 108)
!1174 = !DISubprogram(name: "fgets", scope: !1145, file: !1145, line: 564, type: !1175, flags: DIFlagPrototyped, spFlags: 0)
!1175 = !DISubroutineType(types: !1176)
!1176 = !{!630, !629, !14, !1170}
!1177 = !DIImportedEntity(tag: DW_TAG_imported_declaration, scope: !97, entity: !1178, file: !1142, line: 109)
!1178 = !DISubprogram(name: "fopen", scope: !1145, file: !1145, line: 246, type: !1179, flags: DIFlagPrototyped, spFlags: 0)
!1179 = !DISubroutineType(types: !1180)
!1180 = !{!1153, !560, !560}
!1181 = !DIImportedEntity(tag: DW_TAG_imported_declaration, scope: !97, entity: !1182, file: !1142, line: 110)
!1182 = !DISubprogram(name: "fprintf", scope: !1145, file: !1145, line: 326, type: !1183, flags: DIFlagPrototyped, spFlags: 0)
!1183 = !DISubroutineType(types: !1184)
!1184 = !{!14, !1170, !560, null}
!1185 = !DIImportedEntity(tag: DW_TAG_imported_declaration, scope: !97, entity: !1186, file: !1142, line: 111)
!1186 = !DISubprogram(name: "fputc", scope: !1145, file: !1145, line: 521, type: !1187, flags: DIFlagPrototyped, spFlags: 0)
!1187 = !DISubroutineType(types: !1188)
!1188 = !{!14, !14, !1153}
!1189 = !DIImportedEntity(tag: DW_TAG_imported_declaration, scope: !97, entity: !1190, file: !1142, line: 112)
!1190 = !DISubprogram(name: "fputs", scope: !1145, file: !1145, line: 626, type: !1191, flags: DIFlagPrototyped, spFlags: 0)
!1191 = !DISubroutineType(types: !1192)
!1192 = !{!14, !560, !1170}
!1193 = !DIImportedEntity(tag: DW_TAG_imported_declaration, scope: !97, entity: !1194, file: !1142, line: 113)
!1194 = !DISubprogram(name: "fread", scope: !1145, file: !1145, line: 646, type: !1195, flags: DIFlagPrototyped, spFlags: 0)
!1195 = !DISubroutineType(types: !1196)
!1196 = !{!557, !1197, !557, !557, !1170}
!1197 = !DIDerivedType(tag: DW_TAG_restrict_type, baseType: !607)
!1198 = !DIImportedEntity(tag: DW_TAG_imported_declaration, scope: !97, entity: !1199, file: !1142, line: 114)
!1199 = !DISubprogram(name: "freopen", scope: !1145, file: !1145, line: 252, type: !1200, flags: DIFlagPrototyped, spFlags: 0)
!1200 = !DISubroutineType(types: !1201)
!1201 = !{!1153, !560, !560, !1170}
!1202 = !DIImportedEntity(tag: DW_TAG_imported_declaration, scope: !97, entity: !1203, file: !1142, line: 115)
!1203 = !DISubprogram(name: "fscanf", linkageName: "__isoc99_fscanf", scope: !1145, file: !1145, line: 407, type: !1183, flags: DIFlagPrototyped, spFlags: 0)
!1204 = !DIImportedEntity(tag: DW_TAG_imported_declaration, scope: !97, entity: !1205, file: !1142, line: 116)
!1205 = !DISubprogram(name: "fseek", scope: !1145, file: !1145, line: 684, type: !1206, flags: DIFlagPrototyped, spFlags: 0)
!1206 = !DISubroutineType(types: !1207)
!1207 = !{!14, !1153, !369, !14}
!1208 = !DIImportedEntity(tag: DW_TAG_imported_declaration, scope: !97, entity: !1209, file: !1142, line: 117)
!1209 = !DISubprogram(name: "fsetpos", scope: !1145, file: !1145, line: 736, type: !1210, flags: DIFlagPrototyped, spFlags: 0)
!1210 = !DISubroutineType(types: !1211)
!1211 = !{!14, !1153, !1212}
!1212 = !DIDerivedType(tag: DW_TAG_pointer_type, baseType: !1213, size: 64)
!1213 = !DIDerivedType(tag: DW_TAG_const_type, baseType: !1144)
!1214 = !DIImportedEntity(tag: DW_TAG_imported_declaration, scope: !97, entity: !1215, file: !1142, line: 118)
!1215 = !DISubprogram(name: "ftell", scope: !1145, file: !1145, line: 689, type: !1216, flags: DIFlagPrototyped, spFlags: 0)
!1216 = !DISubroutineType(types: !1217)
!1217 = !{!369, !1153}
!1218 = !DIImportedEntity(tag: DW_TAG_imported_declaration, scope: !97, entity: !1219, file: !1142, line: 119)
!1219 = !DISubprogram(name: "fwrite", scope: !1145, file: !1145, line: 652, type: !1220, flags: DIFlagPrototyped, spFlags: 0)
!1220 = !DISubroutineType(types: !1221)
!1221 = !{!557, !1222, !557, !557, !1170}
!1222 = !DIDerivedType(tag: DW_TAG_restrict_type, baseType: !1001)
!1223 = !DIImportedEntity(tag: DW_TAG_imported_declaration, scope: !97, entity: !1224, file: !1142, line: 120)
!1224 = !DISubprogram(name: "getc", scope: !1145, file: !1145, line: 486, type: !1156, flags: DIFlagPrototyped, spFlags: 0)
!1225 = !DIImportedEntity(tag: DW_TAG_imported_declaration, scope: !97, entity: !1226, file: !1142, line: 121)
!1226 = !DISubprogram(name: "getchar", scope: !1145, file: !1145, line: 492, type: !1059, flags: DIFlagPrototyped, spFlags: 0)
!1227 = !DIImportedEntity(tag: DW_TAG_imported_declaration, scope: !97, entity: !1228, file: !1142, line: 126)
!1228 = !DISubprogram(name: "perror", scope: !1145, file: !1145, line: 775, type: !1229, flags: DIFlagPrototyped, spFlags: 0)
!1229 = !DISubroutineType(types: !1230)
!1230 = !{null, !388}
!1231 = !DIImportedEntity(tag: DW_TAG_imported_declaration, scope: !97, entity: !1232, file: !1142, line: 127)
!1232 = !DISubprogram(name: "printf", scope: !1145, file: !1145, line: 332, type: !1233, flags: DIFlagPrototyped, spFlags: 0)
!1233 = !DISubroutineType(types: !1234)
!1234 = !{!14, !560, null}
!1235 = !DIImportedEntity(tag: DW_TAG_imported_declaration, scope: !97, entity: !1236, file: !1142, line: 128)
!1236 = !DISubprogram(name: "putc", scope: !1145, file: !1145, line: 522, type: !1187, flags: DIFlagPrototyped, spFlags: 0)
!1237 = !DIImportedEntity(tag: DW_TAG_imported_declaration, scope: !97, entity: !1238, file: !1142, line: 129)
!1238 = !DISubprogram(name: "putchar", scope: !1145, file: !1145, line: 528, type: !143, flags: DIFlagPrototyped, spFlags: 0)
!1239 = !DIImportedEntity(tag: DW_TAG_imported_declaration, scope: !97, entity: !1240, file: !1142, line: 130)
!1240 = !DISubprogram(name: "puts", scope: !1145, file: !1145, line: 632, type: !991, flags: DIFlagPrototyped, spFlags: 0)
!1241 = !DIImportedEntity(tag: DW_TAG_imported_declaration, scope: !97, entity: !1242, file: !1142, line: 131)
!1242 = !DISubprogram(name: "remove", scope: !1145, file: !1145, line: 146, type: !991, flags: DIFlagPrototyped, spFlags: 0)
!1243 = !DIImportedEntity(tag: DW_TAG_imported_declaration, scope: !97, entity: !1244, file: !1142, line: 132)
!1244 = !DISubprogram(name: "rename", scope: !1145, file: !1145, line: 148, type: !1245, flags: DIFlagPrototyped, spFlags: 0)
!1245 = !DISubroutineType(types: !1246)
!1246 = !{!14, !388, !388}
!1247 = !DIImportedEntity(tag: DW_TAG_imported_declaration, scope: !97, entity: !1248, file: !1142, line: 133)
!1248 = !DISubprogram(name: "rewind", scope: !1145, file: !1145, line: 694, type: !1151, flags: DIFlagPrototyped, spFlags: 0)
!1249 = !DIImportedEntity(tag: DW_TAG_imported_declaration, scope: !97, entity: !1250, file: !1142, line: 134)
!1250 = !DISubprogram(name: "scanf", linkageName: "__isoc99_scanf", scope: !1145, file: !1145, line: 410, type: !1233, flags: DIFlagPrototyped, spFlags: 0)
!1251 = !DIImportedEntity(tag: DW_TAG_imported_declaration, scope: !97, entity: !1252, file: !1142, line: 135)
!1252 = !DISubprogram(name: "setbuf", scope: !1145, file: !1145, line: 304, type: !1253, flags: DIFlagPrototyped, spFlags: 0)
!1253 = !DISubroutineType(types: !1254)
!1254 = !{null, !1170, !629}
!1255 = !DIImportedEntity(tag: DW_TAG_imported_declaration, scope: !97, entity: !1256, file: !1142, line: 136)
!1256 = !DISubprogram(name: "setvbuf", scope: !1145, file: !1145, line: 308, type: !1257, flags: DIFlagPrototyped, spFlags: 0)
!1257 = !DISubroutineType(types: !1258)
!1258 = !{!14, !1170, !629, !14, !557}
!1259 = !DIImportedEntity(tag: DW_TAG_imported_declaration, scope: !97, entity: !1260, file: !1142, line: 137)
!1260 = !DISubprogram(name: "sprintf", scope: !1145, file: !1145, line: 334, type: !1261, flags: DIFlagPrototyped, spFlags: 0)
!1261 = !DISubroutineType(types: !1262)
!1262 = !{!14, !629, !560, null}
!1263 = !DIImportedEntity(tag: DW_TAG_imported_declaration, scope: !97, entity: !1264, file: !1142, line: 138)
!1264 = !DISubprogram(name: "sscanf", linkageName: "__isoc99_sscanf", scope: !1145, file: !1145, line: 412, type: !1265, flags: DIFlagPrototyped, spFlags: 0)
!1265 = !DISubroutineType(types: !1266)
!1266 = !{!14, !560, !560, null}
!1267 = !DIImportedEntity(tag: DW_TAG_imported_declaration, scope: !97, entity: !1268, file: !1142, line: 139)
!1268 = !DISubprogram(name: "tmpfile", scope: !1145, file: !1145, line: 173, type: !1269, flags: DIFlagPrototyped, spFlags: 0)
!1269 = !DISubroutineType(types: !1270)
!1270 = !{!1153}
!1271 = !DIImportedEntity(tag: DW_TAG_imported_declaration, scope: !97, entity: !1272, file: !1142, line: 141)
!1272 = !DISubprogram(name: "tmpnam", scope: !1145, file: !1145, line: 187, type: !1273, flags: DIFlagPrototyped, spFlags: 0)
!1273 = !DISubroutineType(types: !1274)
!1274 = !{!630, !630}
!1275 = !DIImportedEntity(tag: DW_TAG_imported_declaration, scope: !97, entity: !1276, file: !1142, line: 143)
!1276 = !DISubprogram(name: "ungetc", scope: !1145, file: !1145, line: 639, type: !1187, flags: DIFlagPrototyped, spFlags: 0)
!1277 = !DIImportedEntity(tag: DW_TAG_imported_declaration, scope: !97, entity: !1278, file: !1142, line: 144)
!1278 = !DISubprogram(name: "vfprintf", scope: !1145, file: !1145, line: 341, type: !1279, flags: DIFlagPrototyped, spFlags: 0)
!1279 = !DISubroutineType(types: !1280)
!1280 = !{!14, !1170, !560, !601}
!1281 = !DIImportedEntity(tag: DW_TAG_imported_declaration, scope: !97, entity: !1282, file: !1142, line: 145)
!1282 = !DISubprogram(name: "vprintf", scope: !1145, file: !1145, line: 347, type: !1283, flags: DIFlagPrototyped, spFlags: 0)
!1283 = !DISubroutineType(types: !1284)
!1284 = !{!14, !560, !601}
!1285 = !DIImportedEntity(tag: DW_TAG_imported_declaration, scope: !97, entity: !1286, file: !1142, line: 146)
!1286 = !DISubprogram(name: "vsprintf", scope: !1145, file: !1145, line: 349, type: !1287, flags: DIFlagPrototyped, spFlags: 0)
!1287 = !DISubroutineType(types: !1288)
!1288 = !{!14, !629, !560, !601}
!1289 = !DIImportedEntity(tag: DW_TAG_imported_declaration, scope: !127, entity: !1290, file: !1142, line: 175)
!1290 = !DISubprogram(name: "snprintf", scope: !1145, file: !1145, line: 354, type: !1291, flags: DIFlagPrototyped, spFlags: 0)
!1291 = !DISubroutineType(types: !1292)
!1292 = !{!14, !629, !557, !560, null}
!1293 = !DIImportedEntity(tag: DW_TAG_imported_declaration, scope: !127, entity: !1294, file: !1142, line: 176)
!1294 = !DISubprogram(name: "vfscanf", linkageName: "__isoc99_vfscanf", scope: !1145, file: !1145, line: 451, type: !1279, flags: DIFlagPrototyped, spFlags: 0)
!1295 = !DIImportedEntity(tag: DW_TAG_imported_declaration, scope: !127, entity: !1296, file: !1142, line: 177)
!1296 = !DISubprogram(name: "vscanf", linkageName: "__isoc99_vscanf", scope: !1145, file: !1145, line: 456, type: !1283, flags: DIFlagPrototyped, spFlags: 0)
!1297 = !DIImportedEntity(tag: DW_TAG_imported_declaration, scope: !127, entity: !1298, file: !1142, line: 178)
!1298 = !DISubprogram(name: "vsnprintf", scope: !1145, file: !1145, line: 358, type: !1299, flags: DIFlagPrototyped, spFlags: 0)
!1299 = !DISubroutineType(types: !1300)
!1300 = !{!14, !629, !557, !560, !601}
!1301 = !DIImportedEntity(tag: DW_TAG_imported_declaration, scope: !127, entity: !1302, file: !1142, line: 179)
!1302 = !DISubprogram(name: "vsscanf", linkageName: "__isoc99_vsscanf", scope: !1145, file: !1145, line: 459, type: !1303, flags: DIFlagPrototyped, spFlags: 0)
!1303 = !DISubroutineType(types: !1304)
!1304 = !{!14, !560, !560, !601}
!1305 = !DIImportedEntity(tag: DW_TAG_imported_declaration, scope: !97, entity: !1290, file: !1142, line: 185)
!1306 = !DIImportedEntity(tag: DW_TAG_imported_declaration, scope: !97, entity: !1294, file: !1142, line: 186)
!1307 = !DIImportedEntity(tag: DW_TAG_imported_declaration, scope: !97, entity: !1296, file: !1142, line: 187)
!1308 = !DIImportedEntity(tag: DW_TAG_imported_declaration, scope: !97, entity: !1298, file: !1142, line: 188)
!1309 = !DIImportedEntity(tag: DW_TAG_imported_declaration, scope: !97, entity: !1302, file: !1142, line: 189)
!1310 = !DIImportedEntity(tag: DW_TAG_imported_declaration, scope: !97, entity: !1311, file: !1315, line: 82)
!1311 = !DIDerivedType(tag: DW_TAG_typedef, name: "wctrans_t", file: !1312, line: 48, baseType: !1313)
!1312 = !DIFile(filename: "/usr/include/wctype.h", directory: "")
!1313 = !DIDerivedType(tag: DW_TAG_pointer_type, baseType: !1314, size: 64)
!1314 = !DIDerivedType(tag: DW_TAG_const_type, baseType: !853)
!1315 = !DIFile(filename: "/usr/lib/gcc/x86_64-linux-gnu/10/../../../../include/c++/10/cwctype", directory: "")
!1316 = !DIImportedEntity(tag: DW_TAG_imported_declaration, scope: !97, entity: !1317, file: !1315, line: 83)
!1317 = !DIDerivedType(tag: DW_TAG_typedef, name: "wctype_t", file: !1318, line: 38, baseType: !559)
!1318 = !DIFile(filename: "/usr/include/x86_64-linux-gnu/bits/wctype-wchar.h", directory: "")
!1319 = !DIImportedEntity(tag: DW_TAG_imported_declaration, scope: !97, entity: !503, file: !1315, line: 84)
!1320 = !DIImportedEntity(tag: DW_TAG_imported_declaration, scope: !97, entity: !1321, file: !1315, line: 86)
!1321 = !DISubprogram(name: "iswalnum", scope: !1318, file: !1318, line: 95, type: !718, flags: DIFlagPrototyped, spFlags: 0)
!1322 = !DIImportedEntity(tag: DW_TAG_imported_declaration, scope: !97, entity: !1323, file: !1315, line: 87)
!1323 = !DISubprogram(name: "iswalpha", scope: !1318, file: !1318, line: 101, type: !718, flags: DIFlagPrototyped, spFlags: 0)
!1324 = !DIImportedEntity(tag: DW_TAG_imported_declaration, scope: !97, entity: !1325, file: !1315, line: 89)
!1325 = !DISubprogram(name: "iswblank", scope: !1318, file: !1318, line: 146, type: !718, flags: DIFlagPrototyped, spFlags: 0)
!1326 = !DIImportedEntity(tag: DW_TAG_imported_declaration, scope: !97, entity: !1327, file: !1315, line: 91)
!1327 = !DISubprogram(name: "iswcntrl", scope: !1318, file: !1318, line: 104, type: !718, flags: DIFlagPrototyped, spFlags: 0)
!1328 = !DIImportedEntity(tag: DW_TAG_imported_declaration, scope: !97, entity: !1329, file: !1315, line: 92)
!1329 = !DISubprogram(name: "iswctype", scope: !1318, file: !1318, line: 159, type: !1330, flags: DIFlagPrototyped, spFlags: 0)
!1330 = !DISubroutineType(types: !1331)
!1331 = !{!14, !503, !1317}
!1332 = !DIImportedEntity(tag: DW_TAG_imported_declaration, scope: !97, entity: !1333, file: !1315, line: 93)
!1333 = !DISubprogram(name: "iswdigit", scope: !1318, file: !1318, line: 108, type: !718, flags: DIFlagPrototyped, spFlags: 0)
!1334 = !DIImportedEntity(tag: DW_TAG_imported_declaration, scope: !97, entity: !1335, file: !1315, line: 94)
!1335 = !DISubprogram(name: "iswgraph", scope: !1318, file: !1318, line: 112, type: !718, flags: DIFlagPrototyped, spFlags: 0)
!1336 = !DIImportedEntity(tag: DW_TAG_imported_declaration, scope: !97, entity: !1337, file: !1315, line: 95)
!1337 = !DISubprogram(name: "iswlower", scope: !1318, file: !1318, line: 117, type: !718, flags: DIFlagPrototyped, spFlags: 0)
!1338 = !DIImportedEntity(tag: DW_TAG_imported_declaration, scope: !97, entity: !1339, file: !1315, line: 96)
!1339 = !DISubprogram(name: "iswprint", scope: !1318, file: !1318, line: 120, type: !718, flags: DIFlagPrototyped, spFlags: 0)
!1340 = !DIImportedEntity(tag: DW_TAG_imported_declaration, scope: !97, entity: !1341, file: !1315, line: 97)
!1341 = !DISubprogram(name: "iswpunct", scope: !1318, file: !1318, line: 125, type: !718, flags: DIFlagPrototyped, spFlags: 0)
!1342 = !DIImportedEntity(tag: DW_TAG_imported_declaration, scope: !97, entity: !1343, file: !1315, line: 98)
!1343 = !DISubprogram(name: "iswspace", scope: !1318, file: !1318, line: 130, type: !718, flags: DIFlagPrototyped, spFlags: 0)
!1344 = !DIImportedEntity(tag: DW_TAG_imported_declaration, scope: !97, entity: !1345, file: !1315, line: 99)
!1345 = !DISubprogram(name: "iswupper", scope: !1318, file: !1318, line: 135, type: !718, flags: DIFlagPrototyped, spFlags: 0)
!1346 = !DIImportedEntity(tag: DW_TAG_imported_declaration, scope: !97, entity: !1347, file: !1315, line: 100)
!1347 = !DISubprogram(name: "iswxdigit", scope: !1318, file: !1318, line: 140, type: !718, flags: DIFlagPrototyped, spFlags: 0)
!1348 = !DIImportedEntity(tag: DW_TAG_imported_declaration, scope: !97, entity: !1349, file: !1315, line: 101)
!1349 = !DISubprogram(name: "towctrans", scope: !1312, file: !1312, line: 55, type: !1350, flags: DIFlagPrototyped, spFlags: 0)
!1350 = !DISubroutineType(types: !1351)
!1351 = !{!503, !503, !1311}
!1352 = !DIImportedEntity(tag: DW_TAG_imported_declaration, scope: !97, entity: !1353, file: !1315, line: 102)
!1353 = !DISubprogram(name: "towlower", scope: !1318, file: !1318, line: 166, type: !1354, flags: DIFlagPrototyped, spFlags: 0)
!1354 = !DISubroutineType(types: !1355)
!1355 = !{!503, !503}
!1356 = !DIImportedEntity(tag: DW_TAG_imported_declaration, scope: !97, entity: !1357, file: !1315, line: 103)
!1357 = !DISubprogram(name: "towupper", scope: !1318, file: !1318, line: 169, type: !1354, flags: DIFlagPrototyped, spFlags: 0)
!1358 = !DIImportedEntity(tag: DW_TAG_imported_declaration, scope: !97, entity: !1359, file: !1315, line: 104)
!1359 = !DISubprogram(name: "wctrans", scope: !1312, file: !1312, line: 52, type: !1360, flags: DIFlagPrototyped, spFlags: 0)
!1360 = !DISubroutineType(types: !1361)
!1361 = !{!1311, !388}
!1362 = !DIImportedEntity(tag: DW_TAG_imported_declaration, scope: !97, entity: !1363, file: !1315, line: 105)
!1363 = !DISubprogram(name: "wctype", scope: !1318, file: !1318, line: 155, type: !1364, flags: DIFlagPrototyped, spFlags: 0)
!1364 = !DISubroutineType(types: !1365)
!1365 = !{!1317, !388}
!1366 = !DIImportedEntity(tag: DW_TAG_imported_declaration, name: "deal_II_numbers", scope: !1367, entity: !1368, file: !1369, line: 302)
!1367 = !DINamespace(name: "dealii", scope: null)
!1368 = !DINamespace(name: "numbers", scope: !1367)
!1369 = !DIFile(filename: "include/base/numbers.h", directory: "/home/venkat/IF-DV/spec_build_release/CPU_2017/benchspec/CPU/510.parest_r/build/build_base_ld-loop-ext-m64.0000")
!1370 = !DIImportedEntity(tag: DW_TAG_imported_module, scope: !1367, entity: !1371, file: !1372, line: 991)
!1371 = !DINamespace(name: "StandardExceptions", scope: !1367)
!1372 = !DIFile(filename: "include/base/exceptions.h", directory: "/home/venkat/IF-DV/spec_build_release/CPU_2017/benchspec/CPU/510.parest_r/build/build_base_ld-loop-ext-m64.0000")
!1373 = !DIImportedEntity(tag: DW_TAG_imported_declaration, scope: !97, entity: !1374, file: !1377, line: 58)
!1374 = !DIDerivedType(tag: DW_TAG_typedef, name: "max_align_t", file: !1375, line: 24, baseType: !1376)
!1375 = !DIFile(filename: "Rohit/IR2Vec-LoopOptimizationFramework/build_REL_AsrtON/lib/clang/10.0.1/include/__stddef_max_align_t.h", directory: "/home/venkat/IF-DV")
!1376 = !DICompositeType(tag: DW_TAG_structure_type, file: !1375, line: 19, flags: DIFlagFwdDecl, identifier: "_ZTS11max_align_t")
!1377 = !DIFile(filename: "/usr/lib/gcc/x86_64-linux-gnu/10/../../../../include/c++/10/cstddef", directory: "")
!1378 = !DIImportedEntity(tag: DW_TAG_imported_declaration, scope: !97, entity: !125, file: !1379, line: 89)
!1379 = !DIFile(filename: "/usr/lib/gcc/x86_64-linux-gnu/10/../../../../include/c++/10/bits/shared_ptr_base.h", directory: "")
!1380 = !DIImportedEntity(tag: DW_TAG_imported_declaration, scope: !97, entity: !1381, file: !1379, line: 90)
!1381 = !DIGlobalVariable(name: "__default_lock_policy", linkageName: "_ZN9__gnu_cxxL21__default_lock_policyE", scope: !127, file: !126, line: 53, type: !1382, isLocal: true, isDefinition: false)
!1382 = !DIDerivedType(tag: DW_TAG_const_type, baseType: !125)
!1383 = !DIImportedEntity(tag: DW_TAG_imported_module, scope: !1367, entity: !1384, file: !1385, line: 69)
!1384 = !DINamespace(name: "LACExceptions", scope: !1367)
!1385 = !DIFile(filename: "include/lac/exceptions.h", directory: "/home/venkat/IF-DV/spec_build_release/CPU_2017/benchspec/CPU/510.parest_r/build/build_base_ld-loop-ext-m64.0000")
!1386 = !DIImportedEntity(tag: DW_TAG_imported_module, scope: !1387, entity: !1388, file: !1389, line: 34)
!1387 = !DINamespace(name: "mpl", scope: !6)
!1388 = !DINamespace(name: "mpl_", scope: null)
!1389 = !DIFile(filename: "./boost/mpl/aux_/adl_barrier.hpp", directory: "/home/venkat/IF-DV/spec_build_release/CPU_2017/benchspec/CPU/510.parest_r/build/build_base_ld-loop-ext-m64.0000")
!1390 = !DIImportedEntity(tag: DW_TAG_imported_module, scope: !1391, entity: !1392, file: !1389, line: 35)
!1391 = !DINamespace(name: "aux", scope: !1387)
!1392 = !DINamespace(name: "aux", scope: !1388)
!1393 = !DIImportedEntity(tag: DW_TAG_imported_declaration, scope: !1387, entity: !1394, file: !1395, line: 30)
!1394 = !DIDerivedType(tag: DW_TAG_typedef, name: "true_", scope: !1388, file: !1395, line: 24, baseType: !1396)
!1395 = !DIFile(filename: "./boost/mpl/bool_fwd.hpp", directory: "/home/venkat/IF-DV/spec_build_release/CPU_2017/benchspec/CPU/510.parest_r/build/build_base_ld-loop-ext-m64.0000")
!1396 = distinct !DICompositeType(tag: DW_TAG_structure_type, name: "bool_<true>", scope: !1388, file: !1397, line: 23, size: 8, flags: DIFlagTypePassByValue, elements: !1398, templateParams: !1406, identifier: "_ZTSN4mpl_5bool_ILb1EEE")
!1397 = !DIFile(filename: "./boost/mpl/bool.hpp", directory: "/home/venkat/IF-DV/spec_build_release/CPU_2017/benchspec/CPU/510.parest_r/build/build_base_ld-loop-ext-m64.0000")
!1398 = !{!1399, !1401}
!1399 = !DIDerivedType(tag: DW_TAG_member, name: "value", scope: !1396, file: !1397, line: 25, baseType: !1400, flags: DIFlagStaticMember, extraData: i1 true)
!1400 = !DIDerivedType(tag: DW_TAG_const_type, baseType: !107)
!1401 = !DISubprogram(name: "operator bool", linkageName: "_ZNK4mpl_5bool_ILb1EEcvbEv", scope: !1396, file: !1397, line: 29, type: !1402, scopeLine: 29, flags: DIFlagPrototyped, spFlags: 0)
!1402 = !DISubroutineType(types: !1403)
!1403 = !{!107, !1404}
!1404 = !DIDerivedType(tag: DW_TAG_pointer_type, baseType: !1405, size: 64, flags: DIFlagArtificial | DIFlagObjectPointer)
!1405 = !DIDerivedType(tag: DW_TAG_const_type, baseType: !1396)
!1406 = !{!1407}
!1407 = !DITemplateValueParameter(name: "C_", type: !107, value: i8 1)
!1408 = !DIImportedEntity(tag: DW_TAG_imported_declaration, scope: !1387, entity: !1409, file: !1395, line: 31)
!1409 = !DIDerivedType(tag: DW_TAG_typedef, name: "false_", scope: !1388, file: !1395, line: 25, baseType: !1410)
!1410 = distinct !DICompositeType(tag: DW_TAG_structure_type, name: "bool_<false>", scope: !1388, file: !1397, line: 23, size: 8, flags: DIFlagTypePassByValue, elements: !1411, templateParams: !1418, identifier: "_ZTSN4mpl_5bool_ILb0EEE")
!1411 = !{!1412, !1413}
!1412 = !DIDerivedType(tag: DW_TAG_member, name: "value", scope: !1410, file: !1397, line: 25, baseType: !1400, flags: DIFlagStaticMember, extraData: i1 false)
!1413 = !DISubprogram(name: "operator bool", linkageName: "_ZNK4mpl_5bool_ILb0EEcvbEv", scope: !1410, file: !1397, line: 29, type: !1414, scopeLine: 29, flags: DIFlagPrototyped, spFlags: 0)
!1414 = !DISubroutineType(types: !1415)
!1415 = !{!107, !1416}
!1416 = !DIDerivedType(tag: DW_TAG_pointer_type, baseType: !1417, size: 64, flags: DIFlagArtificial | DIFlagObjectPointer)
!1417 = !DIDerivedType(tag: DW_TAG_const_type, baseType: !1410)
!1418 = !{!1419}
!1419 = !DITemplateValueParameter(name: "C_", type: !107, value: i8 0)
!1420 = !DIImportedEntity(tag: DW_TAG_imported_declaration, scope: !1387, entity: !1421, file: !1422, line: 24)
!1421 = !DICompositeType(tag: DW_TAG_structure_type, name: "integral_c_tag", scope: !1388, file: !1422, line: 22, flags: DIFlagFwdDecl, identifier: "_ZTSN4mpl_14integral_c_tagE")
!1422 = !DIFile(filename: "./boost/mpl/integral_c_tag.hpp", directory: "/home/venkat/IF-DV/spec_build_release/CPU_2017/benchspec/CPU/510.parest_r/build/build_base_ld-loop-ext-m64.0000")
!1423 = !DIImportedEntity(tag: DW_TAG_imported_declaration, scope: !1387, entity: !1424, file: !1425, line: 24)
!1424 = !DICompositeType(tag: DW_TAG_structure_type, name: "void_", scope: !1388, file: !1425, line: 21, flags: DIFlagFwdDecl, identifier: "_ZTSN4mpl_5void_E")
!1425 = !DIFile(filename: "./boost/mpl/void_fwd.hpp", directory: "/home/venkat/IF-DV/spec_build_release/CPU_2017/benchspec/CPU/510.parest_r/build/build_base_ld-loop-ext-m64.0000")
!1426 = !DIImportedEntity(tag: DW_TAG_imported_declaration, scope: !1387, entity: !1427, file: !1428, line: 29)
!1427 = !DICompositeType(tag: DW_TAG_structure_type, name: "na", scope: !1388, file: !1428, line: 22, flags: DIFlagFwdDecl, identifier: "_ZTSN4mpl_2naE")
!1428 = !DIFile(filename: "./boost/mpl/aux_/na_fwd.hpp", directory: "/home/venkat/IF-DV/spec_build_release/CPU_2017/benchspec/CPU/510.parest_r/build/build_base_ld-loop-ext-m64.0000")
!1429 = !DIImportedEntity(tag: DW_TAG_imported_declaration, scope: !97, entity: !1430, file: !1434, line: 77)
!1430 = !DISubprogram(name: "memchr", scope: !1431, file: !1431, line: 73, type: !1432, flags: DIFlagPrototyped, spFlags: 0)
!1431 = !DIFile(filename: "/usr/include/string.h", directory: "")
!1432 = !DISubroutineType(types: !1433)
!1433 = !{!1001, !1001, !14, !557}
!1434 = !DIFile(filename: "/usr/lib/gcc/x86_64-linux-gnu/10/../../../../include/c++/10/cstring", directory: "")
!1435 = !DIImportedEntity(tag: DW_TAG_imported_declaration, scope: !97, entity: !1436, file: !1434, line: 78)
!1436 = !DISubprogram(name: "memcmp", scope: !1431, file: !1431, line: 64, type: !1437, flags: DIFlagPrototyped, spFlags: 0)
!1437 = !DISubroutineType(types: !1438)
!1438 = !{!14, !1001, !1001, !557}
!1439 = !DIImportedEntity(tag: DW_TAG_imported_declaration, scope: !97, entity: !1440, file: !1434, line: 79)
!1440 = !DISubprogram(name: "memcpy", scope: !1431, file: !1431, line: 43, type: !1441, flags: DIFlagPrototyped, spFlags: 0)
!1441 = !DISubroutineType(types: !1442)
!1442 = !{!607, !1197, !1222, !557}
!1443 = !DIImportedEntity(tag: DW_TAG_imported_declaration, scope: !97, entity: !1444, file: !1434, line: 80)
!1444 = !DISubprogram(name: "memmove", scope: !1431, file: !1431, line: 47, type: !1445, flags: DIFlagPrototyped, spFlags: 0)
!1445 = !DISubroutineType(types: !1446)
!1446 = !{!607, !607, !1001, !557}
!1447 = !DIImportedEntity(tag: DW_TAG_imported_declaration, scope: !97, entity: !1448, file: !1434, line: 81)
!1448 = !DISubprogram(name: "memset", scope: !1431, file: !1431, line: 61, type: !1449, flags: DIFlagPrototyped, spFlags: 0)
!1449 = !DISubroutineType(types: !1450)
!1450 = !{!607, !607, !14, !557}
!1451 = !DIImportedEntity(tag: DW_TAG_imported_declaration, scope: !97, entity: !1452, file: !1434, line: 82)
!1452 = !DISubprogram(name: "strcat", scope: !1431, file: !1431, line: 130, type: !1453, flags: DIFlagPrototyped, spFlags: 0)
!1453 = !DISubroutineType(types: !1454)
!1454 = !{!630, !629, !560}
!1455 = !DIImportedEntity(tag: DW_TAG_imported_declaration, scope: !97, entity: !1456, file: !1434, line: 83)
!1456 = !DISubprogram(name: "strcmp", scope: !1431, file: !1431, line: 137, type: !1245, flags: DIFlagPrototyped, spFlags: 0)
!1457 = !DIImportedEntity(tag: DW_TAG_imported_declaration, scope: !97, entity: !1458, file: !1434, line: 84)
!1458 = !DISubprogram(name: "strcoll", scope: !1431, file: !1431, line: 144, type: !1245, flags: DIFlagPrototyped, spFlags: 0)
!1459 = !DIImportedEntity(tag: DW_TAG_imported_declaration, scope: !97, entity: !1460, file: !1434, line: 85)
!1460 = !DISubprogram(name: "strcpy", scope: !1431, file: !1431, line: 122, type: !1453, flags: DIFlagPrototyped, spFlags: 0)
!1461 = !DIImportedEntity(tag: DW_TAG_imported_declaration, scope: !97, entity: !1462, file: !1434, line: 86)
!1462 = !DISubprogram(name: "strcspn", scope: !1431, file: !1431, line: 273, type: !1463, flags: DIFlagPrototyped, spFlags: 0)
!1463 = !DISubroutineType(types: !1464)
!1464 = !{!557, !388, !388}
!1465 = !DIImportedEntity(tag: DW_TAG_imported_declaration, scope: !97, entity: !1466, file: !1434, line: 87)
!1466 = !DISubprogram(name: "strerror", scope: !1431, file: !1431, line: 397, type: !1467, flags: DIFlagPrototyped, spFlags: 0)
!1467 = !DISubroutineType(types: !1468)
!1468 = !{!630, !14}
!1469 = !DIImportedEntity(tag: DW_TAG_imported_declaration, scope: !97, entity: !1470, file: !1434, line: 88)
!1470 = !DISubprogram(name: "strlen", scope: !1431, file: !1431, line: 385, type: !1471, flags: DIFlagPrototyped, spFlags: 0)
!1471 = !DISubroutineType(types: !1472)
!1472 = !{!557, !388}
!1473 = !DIImportedEntity(tag: DW_TAG_imported_declaration, scope: !97, entity: !1474, file: !1434, line: 89)
!1474 = !DISubprogram(name: "strncat", scope: !1431, file: !1431, line: 133, type: !1475, flags: DIFlagPrototyped, spFlags: 0)
!1475 = !DISubroutineType(types: !1476)
!1476 = !{!630, !629, !560, !557}
!1477 = !DIImportedEntity(tag: DW_TAG_imported_declaration, scope: !97, entity: !1478, file: !1434, line: 90)
!1478 = !DISubprogram(name: "strncmp", scope: !1431, file: !1431, line: 140, type: !1479, flags: DIFlagPrototyped, spFlags: 0)
!1479 = !DISubroutineType(types: !1480)
!1480 = !{!14, !388, !388, !557}
!1481 = !DIImportedEntity(tag: DW_TAG_imported_declaration, scope: !97, entity: !1482, file: !1434, line: 91)
!1482 = !DISubprogram(name: "strncpy", scope: !1431, file: !1431, line: 125, type: !1475, flags: DIFlagPrototyped, spFlags: 0)
!1483 = !DIImportedEntity(tag: DW_TAG_imported_declaration, scope: !97, entity: !1484, file: !1434, line: 92)
!1484 = !DISubprogram(name: "strspn", scope: !1431, file: !1431, line: 277, type: !1463, flags: DIFlagPrototyped, spFlags: 0)
!1485 = !DIImportedEntity(tag: DW_TAG_imported_declaration, scope: !97, entity: !1486, file: !1434, line: 93)
!1486 = !DISubprogram(name: "strtok", scope: !1431, file: !1431, line: 336, type: !1453, flags: DIFlagPrototyped, spFlags: 0)
!1487 = !DIImportedEntity(tag: DW_TAG_imported_declaration, scope: !97, entity: !1488, file: !1434, line: 94)
!1488 = !DISubprogram(name: "strxfrm", scope: !1431, file: !1431, line: 147, type: !1489, flags: DIFlagPrototyped, spFlags: 0)
!1489 = !DISubroutineType(types: !1490)
!1490 = !{!557, !629, !560, !557}
!1491 = !DIImportedEntity(tag: DW_TAG_imported_declaration, scope: !97, entity: !1492, file: !1434, line: 95)
!1492 = !DISubprogram(name: "strchr", scope: !1431, file: !1431, line: 208, type: !1493, flags: DIFlagPrototyped, spFlags: 0)
!1493 = !DISubroutineType(types: !1494)
!1494 = !{!388, !388, !14}
!1495 = !DIImportedEntity(tag: DW_TAG_imported_declaration, scope: !97, entity: !1496, file: !1434, line: 96)
!1496 = !DISubprogram(name: "strpbrk", scope: !1431, file: !1431, line: 285, type: !1497, flags: DIFlagPrototyped, spFlags: 0)
!1497 = !DISubroutineType(types: !1498)
!1498 = !{!388, !388, !388}
!1499 = !DIImportedEntity(tag: DW_TAG_imported_declaration, scope: !97, entity: !1500, file: !1434, line: 97)
!1500 = !DISubprogram(name: "strrchr", scope: !1431, file: !1431, line: 235, type: !1493, flags: DIFlagPrototyped, spFlags: 0)
!1501 = !DIImportedEntity(tag: DW_TAG_imported_declaration, scope: !97, entity: !1502, file: !1434, line: 98)
!1502 = !DISubprogram(name: "strstr", scope: !1431, file: !1431, line: 312, type: !1497, flags: DIFlagPrototyped, spFlags: 0)
!1503 = !DIImportedEntity(tag: DW_TAG_imported_declaration, scope: !97, entity: !1504, file: !1507, line: 60)
!1504 = !DIDerivedType(tag: DW_TAG_typedef, name: "clock_t", file: !1505, line: 7, baseType: !1506)
!1505 = !DIFile(filename: "/usr/include/x86_64-linux-gnu/bits/types/clock_t.h", directory: "")
!1506 = !DIDerivedType(tag: DW_TAG_typedef, name: "__clock_t", file: !844, line: 156, baseType: !369)
!1507 = !DIFile(filename: "/usr/lib/gcc/x86_64-linux-gnu/10/../../../../include/c++/10/ctime", directory: "")
!1508 = !DIImportedEntity(tag: DW_TAG_imported_declaration, scope: !97, entity: !1509, file: !1507, line: 61)
!1509 = !DIDerivedType(tag: DW_TAG_typedef, name: "time_t", file: !1510, line: 7, baseType: !1511)
!1510 = !DIFile(filename: "/usr/include/x86_64-linux-gnu/bits/types/time_t.h", directory: "")
!1511 = !DIDerivedType(tag: DW_TAG_typedef, name: "__time_t", file: !844, line: 160, baseType: !369)
!1512 = !DIImportedEntity(tag: DW_TAG_imported_declaration, scope: !97, entity: !654, file: !1507, line: 62)
!1513 = !DIImportedEntity(tag: DW_TAG_imported_declaration, scope: !97, entity: !1514, file: !1507, line: 64)
!1514 = !DISubprogram(name: "clock", scope: !1515, file: !1515, line: 72, type: !1516, flags: DIFlagPrototyped, spFlags: 0)
!1515 = !DIFile(filename: "/usr/include/time.h", directory: "")
!1516 = !DISubroutineType(types: !1517)
!1517 = !{!1504}
!1518 = !DIImportedEntity(tag: DW_TAG_imported_declaration, scope: !97, entity: !1519, file: !1507, line: 65)
!1519 = !DISubprogram(name: "difftime", scope: !1515, file: !1515, line: 78, type: !1520, flags: DIFlagPrototyped, spFlags: 0)
!1520 = !DISubroutineType(types: !1521)
!1521 = !{!151, !1509, !1509}
!1522 = !DIImportedEntity(tag: DW_TAG_imported_declaration, scope: !97, entity: !1523, file: !1507, line: 66)
!1523 = !DISubprogram(name: "mktime", scope: !1515, file: !1515, line: 82, type: !1524, flags: DIFlagPrototyped, spFlags: 0)
!1524 = !DISubroutineType(types: !1525)
!1525 = !{!1509, !1526}
!1526 = !DIDerivedType(tag: DW_TAG_pointer_type, baseType: !654, size: 64)
!1527 = !DIImportedEntity(tag: DW_TAG_imported_declaration, scope: !97, entity: !1528, file: !1507, line: 67)
!1528 = !DISubprogram(name: "time", scope: !1515, file: !1515, line: 75, type: !1529, flags: DIFlagPrototyped, spFlags: 0)
!1529 = !DISubroutineType(types: !1530)
!1530 = !{!1509, !1531}
!1531 = !DIDerivedType(tag: DW_TAG_pointer_type, baseType: !1509, size: 64)
!1532 = !DIImportedEntity(tag: DW_TAG_imported_declaration, scope: !97, entity: !1533, file: !1507, line: 68)
!1533 = !DISubprogram(name: "asctime", scope: !1515, file: !1515, line: 139, type: !1534, flags: DIFlagPrototyped, spFlags: 0)
!1534 = !DISubroutineType(types: !1535)
!1535 = !{!630, !652}
!1536 = !DIImportedEntity(tag: DW_TAG_imported_declaration, scope: !97, entity: !1537, file: !1507, line: 69)
!1537 = !DISubprogram(name: "ctime", scope: !1515, file: !1515, line: 142, type: !1538, flags: DIFlagPrototyped, spFlags: 0)
!1538 = !DISubroutineType(types: !1539)
!1539 = !{!630, !1540}
!1540 = !DIDerivedType(tag: DW_TAG_pointer_type, baseType: !1541, size: 64)
!1541 = !DIDerivedType(tag: DW_TAG_const_type, baseType: !1509)
!1542 = !DIImportedEntity(tag: DW_TAG_imported_declaration, scope: !97, entity: !1543, file: !1507, line: 70)
!1543 = !DISubprogram(name: "gmtime", scope: !1515, file: !1515, line: 119, type: !1544, flags: DIFlagPrototyped, spFlags: 0)
!1544 = !DISubroutineType(types: !1545)
!1545 = !{!1526, !1540}
!1546 = !DIImportedEntity(tag: DW_TAG_imported_declaration, scope: !97, entity: !1547, file: !1507, line: 71)
!1547 = !DISubprogram(name: "localtime", scope: !1515, file: !1515, line: 123, type: !1544, flags: DIFlagPrototyped, spFlags: 0)
!1548 = !DIImportedEntity(tag: DW_TAG_imported_declaration, scope: !97, entity: !1549, file: !1507, line: 72)
!1549 = !DISubprogram(name: "strftime", scope: !1515, file: !1515, line: 88, type: !1550, flags: DIFlagPrototyped, spFlags: 0)
!1550 = !DISubroutineType(types: !1551)
!1551 = !{!557, !629, !557, !560, !651}
!1552 = !{i32 7, !"Dwarf Version", i32 4}
!1553 = !{i32 2, !"Debug Info Version", i32 3}
!1554 = !{i32 1, !"wchar_size", i32 4}
!1555 = !{!"clang version 10.0.1 (https://github.com/svkeerthy/IR2Vec-LoopOptimizationFramework.git 561ac470e63b728263a0ac06ef987886ac648486)"}
!1556 = distinct !DISubprogram(name: "__cxx_global_var_init", scope: !3, file: !3, line: 54, type: !978, scopeLine: 54, spFlags: DISPFlagLocalToUnit | DISPFlagDefinition, unit: !122, retainedNodes: !1557)
!1557 = !{}
!1558 = !DILocation(line: 54, column: 15, scope: !1556)
!1559 = distinct !DISubprogram(name: "arg", linkageName: "_ZN5boost3argILi1EEC2Ev", scope: !4, file: !5, line: 30, type: !9, scopeLine: 31, flags: DIFlagPrototyped, spFlags: DISPFlagDefinition, unit: !122, declaration: !8, retainedNodes: !1557)
!1560 = !DILocalVariable(name: "this", arg: 1, scope: !1559, type: !1561, flags: DIFlagArtificial | DIFlagObjectPointer)
!1561 = !DIDerivedType(tag: DW_TAG_pointer_type, baseType: !4, size: 64)
!1562 = !DILocation(line: 0, scope: !1559)
!1563 = !DILocation(line: 32, column: 5, scope: !1559)
!1564 = distinct !DISubprogram(name: "__cxx_global_var_init.1", scope: !3, file: !3, line: 55, type: !978, scopeLine: 55, spFlags: DISPFlagLocalToUnit | DISPFlagDefinition, unit: !122, retainedNodes: !1557)
!1565 = !DILocation(line: 55, column: 15, scope: !1564)
!1566 = distinct !DISubprogram(name: "arg", linkageName: "_ZN5boost3argILi2EEC2Ev", scope: !17, file: !5, line: 30, type: !20, scopeLine: 31, flags: DIFlagPrototyped, spFlags: DISPFlagDefinition, unit: !122, declaration: !19, retainedNodes: !1557)
!1567 = !DILocalVariable(name: "this", arg: 1, scope: !1566, type: !1568, flags: DIFlagArtificial | DIFlagObjectPointer)
!1568 = !DIDerivedType(tag: DW_TAG_pointer_type, baseType: !17, size: 64)
!1569 = !DILocation(line: 0, scope: !1566)
!1570 = !DILocation(line: 32, column: 5, scope: !1566)
!1571 = distinct !DISubprogram(name: "__cxx_global_var_init.2", scope: !3, file: !3, line: 56, type: !978, scopeLine: 56, spFlags: DISPFlagLocalToUnit | DISPFlagDefinition, unit: !122, retainedNodes: !1557)
!1572 = !DILocation(line: 56, column: 15, scope: !1571)
!1573 = distinct !DISubprogram(name: "arg", linkageName: "_ZN5boost3argILi3EEC2Ev", scope: !27, file: !5, line: 30, type: !30, scopeLine: 31, flags: DIFlagPrototyped, spFlags: DISPFlagDefinition, unit: !122, declaration: !29, retainedNodes: !1557)
!1574 = !DILocalVariable(name: "this", arg: 1, scope: !1573, type: !1575, flags: DIFlagArtificial | DIFlagObjectPointer)
!1575 = !DIDerivedType(tag: DW_TAG_pointer_type, baseType: !27, size: 64)
!1576 = !DILocation(line: 0, scope: !1573)
!1577 = !DILocation(line: 32, column: 5, scope: !1573)
!1578 = distinct !DISubprogram(name: "__cxx_global_var_init.3", scope: !3, file: !3, line: 57, type: !978, scopeLine: 57, spFlags: DISPFlagLocalToUnit | DISPFlagDefinition, unit: !122, retainedNodes: !1557)
!1579 = !DILocation(line: 57, column: 15, scope: !1578)
!1580 = distinct !DISubprogram(name: "arg", linkageName: "_ZN5boost3argILi4EEC2Ev", scope: !37, file: !5, line: 30, type: !40, scopeLine: 31, flags: DIFlagPrototyped, spFlags: DISPFlagDefinition, unit: !122, declaration: !39, retainedNodes: !1557)
!1581 = !DILocalVariable(name: "this", arg: 1, scope: !1580, type: !1582, flags: DIFlagArtificial | DIFlagObjectPointer)
!1582 = !DIDerivedType(tag: DW_TAG_pointer_type, baseType: !37, size: 64)
!1583 = !DILocation(line: 0, scope: !1580)
!1584 = !DILocation(line: 32, column: 5, scope: !1580)
!1585 = distinct !DISubprogram(name: "__cxx_global_var_init.4", scope: !3, file: !3, line: 58, type: !978, scopeLine: 58, spFlags: DISPFlagLocalToUnit | DISPFlagDefinition, unit: !122, retainedNodes: !1557)
!1586 = !DILocation(line: 58, column: 15, scope: !1585)
!1587 = distinct !DISubprogram(name: "arg", linkageName: "_ZN5boost3argILi5EEC2Ev", scope: !47, file: !5, line: 30, type: !50, scopeLine: 31, flags: DIFlagPrototyped, spFlags: DISPFlagDefinition, unit: !122, declaration: !49, retainedNodes: !1557)
!1588 = !DILocalVariable(name: "this", arg: 1, scope: !1587, type: !1589, flags: DIFlagArtificial | DIFlagObjectPointer)
!1589 = !DIDerivedType(tag: DW_TAG_pointer_type, baseType: !47, size: 64)
!1590 = !DILocation(line: 0, scope: !1587)
!1591 = !DILocation(line: 32, column: 5, scope: !1587)
!1592 = distinct !DISubprogram(name: "__cxx_global_var_init.5", scope: !3, file: !3, line: 59, type: !978, scopeLine: 59, spFlags: DISPFlagLocalToUnit | DISPFlagDefinition, unit: !122, retainedNodes: !1557)
!1593 = !DILocation(line: 59, column: 15, scope: !1592)
!1594 = distinct !DISubprogram(name: "arg", linkageName: "_ZN5boost3argILi6EEC2Ev", scope: !57, file: !5, line: 30, type: !60, scopeLine: 31, flags: DIFlagPrototyped, spFlags: DISPFlagDefinition, unit: !122, declaration: !59, retainedNodes: !1557)
!1595 = !DILocalVariable(name: "this", arg: 1, scope: !1594, type: !1596, flags: DIFlagArtificial | DIFlagObjectPointer)
!1596 = !DIDerivedType(tag: DW_TAG_pointer_type, baseType: !57, size: 64)
!1597 = !DILocation(line: 0, scope: !1594)
!1598 = !DILocation(line: 32, column: 5, scope: !1594)
!1599 = distinct !DISubprogram(name: "__cxx_global_var_init.6", scope: !3, file: !3, line: 60, type: !978, scopeLine: 60, spFlags: DISPFlagLocalToUnit | DISPFlagDefinition, unit: !122, retainedNodes: !1557)
!1600 = !DILocation(line: 60, column: 15, scope: !1599)
!1601 = distinct !DISubprogram(name: "arg", linkageName: "_ZN5boost3argILi7EEC2Ev", scope: !67, file: !5, line: 30, type: !70, scopeLine: 31, flags: DIFlagPrototyped, spFlags: DISPFlagDefinition, unit: !122, declaration: !69, retainedNodes: !1557)
!1602 = !DILocalVariable(name: "this", arg: 1, scope: !1601, type: !1603, flags: DIFlagArtificial | DIFlagObjectPointer)
!1603 = !DIDerivedType(tag: DW_TAG_pointer_type, baseType: !67, size: 64)
!1604 = !DILocation(line: 0, scope: !1601)
!1605 = !DILocation(line: 32, column: 5, scope: !1601)
!1606 = distinct !DISubprogram(name: "__cxx_global_var_init.7", scope: !3, file: !3, line: 61, type: !978, scopeLine: 61, spFlags: DISPFlagLocalToUnit | DISPFlagDefinition, unit: !122, retainedNodes: !1557)
!1607 = !DILocation(line: 61, column: 15, scope: !1606)
!1608 = distinct !DISubprogram(name: "arg", linkageName: "_ZN5boost3argILi8EEC2Ev", scope: !77, file: !5, line: 30, type: !80, scopeLine: 31, flags: DIFlagPrototyped, spFlags: DISPFlagDefinition, unit: !122, declaration: !79, retainedNodes: !1557)
!1609 = !DILocalVariable(name: "this", arg: 1, scope: !1608, type: !1610, flags: DIFlagArtificial | DIFlagObjectPointer)
!1610 = !DIDerivedType(tag: DW_TAG_pointer_type, baseType: !77, size: 64)
!1611 = !DILocation(line: 0, scope: !1608)
!1612 = !DILocation(line: 32, column: 5, scope: !1608)
!1613 = distinct !DISubprogram(name: "__cxx_global_var_init.8", scope: !3, file: !3, line: 62, type: !978, scopeLine: 62, spFlags: DISPFlagLocalToUnit | DISPFlagDefinition, unit: !122, retainedNodes: !1557)
!1614 = !DILocation(line: 62, column: 15, scope: !1613)
!1615 = distinct !DISubprogram(name: "arg", linkageName: "_ZN5boost3argILi9EEC2Ev", scope: !87, file: !5, line: 30, type: !90, scopeLine: 31, flags: DIFlagPrototyped, spFlags: DISPFlagDefinition, unit: !122, declaration: !89, retainedNodes: !1557)
!1616 = !DILocalVariable(name: "this", arg: 1, scope: !1615, type: !1617, flags: DIFlagArtificial | DIFlagObjectPointer)
!1617 = !DIDerivedType(tag: DW_TAG_pointer_type, baseType: !87, size: 64)
!1618 = !DILocation(line: 0, scope: !1615)
!1619 = !DILocation(line: 32, column: 5, scope: !1615)
!1620 = distinct !DISubprogram(name: "__cxx_global_var_init.9", scope: !98, file: !98, line: 74, type: !978, scopeLine: 74, spFlags: DISPFlagLocalToUnit | DISPFlagDefinition, unit: !122, retainedNodes: !1557)
!1621 = !DILocation(line: 74, column: 25, scope: !1620)
!1622 = distinct !DISubprogram(name: "subtract_mean_value", linkageName: "_ZN6dealii11VectorTools19subtract_mean_valueERNS_6VectorIdEERKSt6vectorIbSaIbEE", scope: !1623, file: !123, line: 22, type: !1627, scopeLine: 24, flags: DIFlagPrototyped, spFlags: DISPFlagDefinition, unit: !122, declaration: !1626, retainedNodes: !1557)
!1623 = distinct !DICompositeType(tag: DW_TAG_class_type, name: "VectorTools", scope: !1367, file: !1624, line: 322, size: 8, flags: DIFlagTypePassByValue, elements: !1625, identifier: "_ZTSN6dealii11VectorToolsE")
!1624 = !DIFile(filename: "include/numerics/vectors.h", directory: "/home/venkat/IF-DV/spec_build_release/CPU_2017/benchspec/CPU/510.parest_r/build/build_base_ld-loop-ext-m64.0000")
!1625 = !{!1626}
!1626 = !DISubprogram(name: "subtract_mean_value", linkageName: "_ZN6dealii11VectorTools19subtract_mean_valueERNS_6VectorIdEERKSt6vectorIbSaIbEE", scope: !1623, file: !1624, line: 1717, type: !1627, scopeLine: 1717, flags: DIFlagPublic | DIFlagPrototyped | DIFlagStaticMember, spFlags: 0)
!1627 = !DISubroutineType(types: !1628)
!1628 = !{null, !1629, !1632}
!1629 = !DIDerivedType(tag: DW_TAG_reference_type, baseType: !1630, size: 64)
!1630 = !DICompositeType(tag: DW_TAG_class_type, name: "Vector<double>", scope: !1367, file: !1631, line: 81, flags: DIFlagFwdDecl, identifier: "_ZTSN6dealii6VectorIdEE")
!1631 = !DIFile(filename: "include/lac/vector.h", directory: "/home/venkat/IF-DV/spec_build_release/CPU_2017/benchspec/CPU/510.parest_r/build/build_base_ld-loop-ext-m64.0000")
!1632 = !DIDerivedType(tag: DW_TAG_reference_type, baseType: !1633, size: 64)
!1633 = !DIDerivedType(tag: DW_TAG_const_type, baseType: !1634)
!1634 = distinct !DICompositeType(tag: DW_TAG_class_type, name: "vector<bool, std::allocator<bool> >", scope: !97, file: !134, line: 615, size: 320, flags: DIFlagTypePassByReference | DIFlagNonTrivial, elements: !1635, templateParams: !2407, identifier: "_ZTSSt6vectorIbSaIbEE")
!1635 = !{!1636, !2031, !2036, !2040, !2045, !2049, !2052, !2055, !2059, !2062, !2065, !2094, !2095, !2099, !2102, !2105, !2108, !2111, !2115, !2159, !2160, !2161, !2233, !2303, !2304, !2305, !2306, !2307, !2308, !2309, !2312, !2313, !2314, !2317, !2321, !2325, !2328, !2329, !2330, !2333, !2337, !2341, !2342, !2343, !2344, !2347, !2350, !2353, !2357, !2360, !2363, !2364, !2367, !2370, !2373, !2374, !2375, !2376, !2379, !2380, !2381, !2382, !2385, !2388, !2391, !2394, !2398, !2401, !2404}
!1636 = !DIDerivedType(tag: DW_TAG_inheritance, scope: !1634, baseType: !1637, flags: DIFlagProtected, extraData: i32 0)
!1637 = distinct !DICompositeType(tag: DW_TAG_structure_type, name: "_Bvector_base<std::allocator<bool> >", scope: !97, file: !134, line: 453, size: 320, flags: DIFlagTypePassByReference | DIFlagNonTrivial, elements: !1638, templateParams: !1738, identifier: "_ZTSSt13_Bvector_baseISaIbEE")
!1638 = !{!1639, !1996, !2001, !2006, !2010, !2013, !2018, !2022, !2023, !2026, !2027, !2028}
!1639 = !DIDerivedType(tag: DW_TAG_member, name: "_M_impl", scope: !1637, file: !134, line: 553, baseType: !1640, size: 320, flags: DIFlagProtected)
!1640 = distinct !DICompositeType(tag: DW_TAG_structure_type, name: "_Bvector_impl", scope: !1637, file: !134, line: 495, size: 320, flags: DIFlagTypePassByReference | DIFlagNonTrivial, elements: !1641, identifier: "_ZTSNSt13_Bvector_baseISaIbEE13_Bvector_implE")
!1641 = !{!1642, !1814, !1978, !1982, !1987, !1991}
!1642 = !DIDerivedType(tag: DW_TAG_inheritance, scope: !1640, baseType: !1643, extraData: i32 0)
!1643 = !DIDerivedType(tag: DW_TAG_typedef, name: "_Bit_alloc_type", scope: !1637, file: !134, line: 456, baseType: !1644)
!1644 = !DIDerivedType(tag: DW_TAG_typedef, name: "other", scope: !1646, file: !1645, line: 120, baseType: !1757)
!1645 = !DIFile(filename: "/usr/lib/gcc/x86_64-linux-gnu/10/../../../../include/c++/10/ext/alloc_traits.h", directory: "")
!1646 = distinct !DICompositeType(tag: DW_TAG_structure_type, name: "rebind<unsigned long>", scope: !1647, file: !1645, line: 119, size: 8, flags: DIFlagTypePassByValue, elements: !1557, templateParams: !1755, identifier: "_ZTSN9__gnu_cxx14__alloc_traitsISaIbEbE6rebindImEE")
!1647 = distinct !DICompositeType(tag: DW_TAG_structure_type, name: "__alloc_traits<std::allocator<bool>, bool>", scope: !127, file: !1645, line: 48, size: 8, flags: DIFlagTypePassByValue, elements: !1648, templateParams: !1753, identifier: "_ZTSN9__gnu_cxx14__alloc_traitsISaIbEbEE")
!1648 = !{!1649, !1740, !1743, !1746, !1749, !1750, !1751, !1752}
!1649 = !DIDerivedType(tag: DW_TAG_inheritance, scope: !1647, baseType: !1650, extraData: i32 0)
!1650 = distinct !DICompositeType(tag: DW_TAG_structure_type, name: "allocator_traits<std::allocator<bool> >", scope: !97, file: !1651, line: 407, size: 8, flags: DIFlagTypePassByValue, elements: !1652, templateParams: !1738, identifier: "_ZTSSt16allocator_traitsISaIbEE")
!1651 = !DIFile(filename: "/usr/lib/gcc/x86_64-linux-gnu/10/../../../../include/c++/10/bits/alloc_traits.h", directory: "")
!1652 = !{!1653, !1722, !1726, !1729, !1735}
!1653 = !DISubprogram(name: "allocate", linkageName: "_ZNSt16allocator_traitsISaIbEE8allocateERS0_m", scope: !1650, file: !1651, line: 459, type: !1654, scopeLine: 459, flags: DIFlagPrototyped | DIFlagStaticMember, spFlags: 0)
!1654 = !DISubroutineType(types: !1655)
!1655 = !{!1656, !1658, !1721}
!1656 = !DIDerivedType(tag: DW_TAG_typedef, name: "pointer", scope: !1650, file: !1651, line: 416, baseType: !1657)
!1657 = !DIDerivedType(tag: DW_TAG_pointer_type, baseType: !107, size: 64)
!1658 = !DIDerivedType(tag: DW_TAG_reference_type, baseType: !1659, size: 64)
!1659 = !DIDerivedType(tag: DW_TAG_typedef, name: "allocator_type", scope: !1650, file: !1651, line: 410, baseType: !1660)
!1660 = distinct !DICompositeType(tag: DW_TAG_class_type, name: "allocator<bool>", scope: !97, file: !1661, line: 116, size: 8, flags: DIFlagTypePassByReference | DIFlagNonTrivial, elements: !1662, templateParams: !1705, identifier: "_ZTSSaIbE")
!1661 = !DIFile(filename: "/usr/lib/gcc/x86_64-linux-gnu/10/../../../../include/c++/10/bits/allocator.h", directory: "")
!1662 = !{!1663, !1707, !1711, !1716, !1720}
!1663 = !DIDerivedType(tag: DW_TAG_inheritance, scope: !1660, baseType: !1664, flags: DIFlagPublic, extraData: i32 0)
!1664 = !DIDerivedType(tag: DW_TAG_typedef, name: "__allocator_base<bool>", scope: !97, file: !1665, line: 48, baseType: !1666)
!1665 = !DIFile(filename: "/usr/lib/gcc/x86_64-linux-gnu/10/../../../../include/x86_64-linux-gnu/c++/10/bits/c++allocator.h", directory: "")
!1666 = distinct !DICompositeType(tag: DW_TAG_class_type, name: "new_allocator<bool>", scope: !127, file: !1667, line: 55, size: 8, flags: DIFlagTypePassByReference | DIFlagNonTrivial, elements: !1668, templateParams: !1705, identifier: "_ZTSN9__gnu_cxx13new_allocatorIbEE")
!1667 = !DIFile(filename: "/usr/lib/gcc/x86_64-linux-gnu/10/../../../../include/c++/10/ext/new_allocator.h", directory: "")
!1668 = !{!1669, !1673, !1678, !1679, !1686, !1693, !1698, !1701, !1704}
!1669 = !DISubprogram(name: "new_allocator", scope: !1666, file: !1667, line: 79, type: !1670, scopeLine: 79, flags: DIFlagPublic | DIFlagPrototyped, spFlags: 0)
!1670 = !DISubroutineType(types: !1671)
!1671 = !{null, !1672}
!1672 = !DIDerivedType(tag: DW_TAG_pointer_type, baseType: !1666, size: 64, flags: DIFlagArtificial | DIFlagObjectPointer)
!1673 = !DISubprogram(name: "new_allocator", scope: !1666, file: !1667, line: 82, type: !1674, scopeLine: 82, flags: DIFlagPublic | DIFlagPrototyped, spFlags: 0)
!1674 = !DISubroutineType(types: !1675)
!1675 = !{null, !1672, !1676}
!1676 = !DIDerivedType(tag: DW_TAG_reference_type, baseType: !1677, size: 64)
!1677 = !DIDerivedType(tag: DW_TAG_const_type, baseType: !1666)
!1678 = !DISubprogram(name: "~new_allocator", scope: !1666, file: !1667, line: 89, type: !1670, scopeLine: 89, flags: DIFlagPublic | DIFlagPrototyped, spFlags: 0)
!1679 = !DISubprogram(name: "address", linkageName: "_ZNK9__gnu_cxx13new_allocatorIbE7addressERb", scope: !1666, file: !1667, line: 92, type: !1680, scopeLine: 92, flags: DIFlagPublic | DIFlagPrototyped, spFlags: 0)
!1680 = !DISubroutineType(types: !1681)
!1681 = !{!1682, !1683, !1684}
!1682 = !DIDerivedType(tag: DW_TAG_typedef, name: "pointer", scope: !1666, file: !1667, line: 62, baseType: !1657)
!1683 = !DIDerivedType(tag: DW_TAG_pointer_type, baseType: !1677, size: 64, flags: DIFlagArtificial | DIFlagObjectPointer)
!1684 = !DIDerivedType(tag: DW_TAG_typedef, name: "reference", scope: !1666, file: !1667, line: 64, baseType: !1685)
!1685 = !DIDerivedType(tag: DW_TAG_reference_type, baseType: !107, size: 64)
!1686 = !DISubprogram(name: "address", linkageName: "_ZNK9__gnu_cxx13new_allocatorIbE7addressERKb", scope: !1666, file: !1667, line: 96, type: !1687, scopeLine: 96, flags: DIFlagPublic | DIFlagPrototyped, spFlags: 0)
!1687 = !DISubroutineType(types: !1688)
!1688 = !{!1689, !1683, !1691}
!1689 = !DIDerivedType(tag: DW_TAG_typedef, name: "const_pointer", scope: !1666, file: !1667, line: 63, baseType: !1690)
!1690 = !DIDerivedType(tag: DW_TAG_pointer_type, baseType: !1400, size: 64)
!1691 = !DIDerivedType(tag: DW_TAG_typedef, name: "const_reference", scope: !1666, file: !1667, line: 65, baseType: !1692)
!1692 = !DIDerivedType(tag: DW_TAG_reference_type, baseType: !1400, size: 64)
!1693 = !DISubprogram(name: "allocate", linkageName: "_ZN9__gnu_cxx13new_allocatorIbE8allocateEmPKv", scope: !1666, file: !1667, line: 103, type: !1694, scopeLine: 103, flags: DIFlagPublic | DIFlagPrototyped, spFlags: 0)
!1694 = !DISubroutineType(types: !1695)
!1695 = !{!1657, !1672, !1696, !1001}
!1696 = !DIDerivedType(tag: DW_TAG_typedef, name: "size_type", file: !1667, line: 59, baseType: !1697)
!1697 = !DIDerivedType(tag: DW_TAG_typedef, name: "size_t", scope: !97, file: !805, line: 260, baseType: !559)
!1698 = !DISubprogram(name: "deallocate", linkageName: "_ZN9__gnu_cxx13new_allocatorIbE10deallocateEPbm", scope: !1666, file: !1667, line: 120, type: !1699, scopeLine: 120, flags: DIFlagPublic | DIFlagPrototyped, spFlags: 0)
!1699 = !DISubroutineType(types: !1700)
!1700 = !{null, !1672, !1657, !1696}
!1701 = !DISubprogram(name: "max_size", linkageName: "_ZNK9__gnu_cxx13new_allocatorIbE8max_sizeEv", scope: !1666, file: !1667, line: 142, type: !1702, scopeLine: 142, flags: DIFlagPublic | DIFlagPrototyped, spFlags: 0)
!1702 = !DISubroutineType(types: !1703)
!1703 = !{!1696, !1683}
!1704 = !DISubprogram(name: "_M_max_size", linkageName: "_ZNK9__gnu_cxx13new_allocatorIbE11_M_max_sizeEv", scope: !1666, file: !1667, line: 185, type: !1702, scopeLine: 185, flags: DIFlagPrototyped, spFlags: 0)
!1705 = !{!1706}
!1706 = !DITemplateTypeParameter(name: "_Tp", type: !107)
!1707 = !DISubprogram(name: "allocator", scope: !1660, file: !1661, line: 144, type: !1708, scopeLine: 144, flags: DIFlagPublic | DIFlagPrototyped, spFlags: 0)
!1708 = !DISubroutineType(types: !1709)
!1709 = !{null, !1710}
!1710 = !DIDerivedType(tag: DW_TAG_pointer_type, baseType: !1660, size: 64, flags: DIFlagArtificial | DIFlagObjectPointer)
!1711 = !DISubprogram(name: "allocator", scope: !1660, file: !1661, line: 147, type: !1712, scopeLine: 147, flags: DIFlagPublic | DIFlagPrototyped, spFlags: 0)
!1712 = !DISubroutineType(types: !1713)
!1713 = !{null, !1710, !1714}
!1714 = !DIDerivedType(tag: DW_TAG_reference_type, baseType: !1715, size: 64)
!1715 = !DIDerivedType(tag: DW_TAG_const_type, baseType: !1660)
!1716 = !DISubprogram(name: "operator=", linkageName: "_ZNSaIbEaSERKS_", scope: !1660, file: !1661, line: 152, type: !1717, scopeLine: 152, flags: DIFlagPublic | DIFlagPrototyped, spFlags: 0)
!1717 = !DISubroutineType(types: !1718)
!1718 = !{!1719, !1710, !1714}
!1719 = !DIDerivedType(tag: DW_TAG_reference_type, baseType: !1660, size: 64)
!1720 = !DISubprogram(name: "~allocator", scope: !1660, file: !1661, line: 162, type: !1708, scopeLine: 162, flags: DIFlagPublic | DIFlagPrototyped, spFlags: 0)
!1721 = !DIDerivedType(tag: DW_TAG_typedef, name: "size_type", file: !1651, line: 431, baseType: !1697)
!1722 = !DISubprogram(name: "allocate", linkageName: "_ZNSt16allocator_traitsISaIbEE8allocateERS0_mPKv", scope: !1650, file: !1651, line: 473, type: !1723, scopeLine: 473, flags: DIFlagPrototyped | DIFlagStaticMember, spFlags: 0)
!1723 = !DISubroutineType(types: !1724)
!1724 = !{!1656, !1658, !1721, !1725}
!1725 = !DIDerivedType(tag: DW_TAG_typedef, name: "const_void_pointer", file: !1651, line: 425, baseType: !1001)
!1726 = !DISubprogram(name: "deallocate", linkageName: "_ZNSt16allocator_traitsISaIbEE10deallocateERS0_Pbm", scope: !1650, file: !1651, line: 491, type: !1727, scopeLine: 491, flags: DIFlagPrototyped | DIFlagStaticMember, spFlags: 0)
!1727 = !DISubroutineType(types: !1728)
!1728 = !{null, !1658, !1656, !1721}
!1729 = !DISubprogram(name: "max_size", linkageName: "_ZNSt16allocator_traitsISaIbEE8max_sizeERKS0_", scope: !1650, file: !1651, line: 543, type: !1730, scopeLine: 543, flags: DIFlagPrototyped | DIFlagStaticMember, spFlags: 0)
!1730 = !DISubroutineType(types: !1731)
!1731 = !{!1732, !1733}
!1732 = !DIDerivedType(tag: DW_TAG_typedef, name: "size_type", scope: !1650, file: !1651, line: 431, baseType: !1697)
!1733 = !DIDerivedType(tag: DW_TAG_reference_type, baseType: !1734, size: 64)
!1734 = !DIDerivedType(tag: DW_TAG_const_type, baseType: !1659)
!1735 = !DISubprogram(name: "select_on_container_copy_construction", linkageName: "_ZNSt16allocator_traitsISaIbEE37select_on_container_copy_constructionERKS0_", scope: !1650, file: !1651, line: 558, type: !1736, scopeLine: 558, flags: DIFlagPrototyped | DIFlagStaticMember, spFlags: 0)
!1736 = !DISubroutineType(types: !1737)
!1737 = !{!1659, !1733}
!1738 = !{!1739}
!1739 = !DITemplateTypeParameter(name: "_Alloc", type: !1660)
!1740 = !DISubprogram(name: "_S_select_on_copy", linkageName: "_ZN9__gnu_cxx14__alloc_traitsISaIbEbE17_S_select_on_copyERKS1_", scope: !1647, file: !1645, line: 97, type: !1741, scopeLine: 97, flags: DIFlagPrototyped | DIFlagStaticMember, spFlags: 0)
!1741 = !DISubroutineType(types: !1742)
!1742 = !{!1660, !1714}
!1743 = !DISubprogram(name: "_S_on_swap", linkageName: "_ZN9__gnu_cxx14__alloc_traitsISaIbEbE10_S_on_swapERS1_S3_", scope: !1647, file: !1645, line: 100, type: !1744, scopeLine: 100, flags: DIFlagPrototyped | DIFlagStaticMember, spFlags: 0)
!1744 = !DISubroutineType(types: !1745)
!1745 = !{null, !1719, !1719}
!1746 = !DISubprogram(name: "_S_propagate_on_copy_assign", linkageName: "_ZN9__gnu_cxx14__alloc_traitsISaIbEbE27_S_propagate_on_copy_assignEv", scope: !1647, file: !1645, line: 103, type: !1747, scopeLine: 103, flags: DIFlagPrototyped | DIFlagStaticMember, spFlags: 0)
!1747 = !DISubroutineType(types: !1748)
!1748 = !{!107}
!1749 = !DISubprogram(name: "_S_propagate_on_move_assign", linkageName: "_ZN9__gnu_cxx14__alloc_traitsISaIbEbE27_S_propagate_on_move_assignEv", scope: !1647, file: !1645, line: 106, type: !1747, scopeLine: 106, flags: DIFlagPrototyped | DIFlagStaticMember, spFlags: 0)
!1750 = !DISubprogram(name: "_S_propagate_on_swap", linkageName: "_ZN9__gnu_cxx14__alloc_traitsISaIbEbE20_S_propagate_on_swapEv", scope: !1647, file: !1645, line: 109, type: !1747, scopeLine: 109, flags: DIFlagPrototyped | DIFlagStaticMember, spFlags: 0)
!1751 = !DISubprogram(name: "_S_always_equal", linkageName: "_ZN9__gnu_cxx14__alloc_traitsISaIbEbE15_S_always_equalEv", scope: !1647, file: !1645, line: 112, type: !1747, scopeLine: 112, flags: DIFlagPrototyped | DIFlagStaticMember, spFlags: 0)
!1752 = !DISubprogram(name: "_S_nothrow_move", linkageName: "_ZN9__gnu_cxx14__alloc_traitsISaIbEbE15_S_nothrow_moveEv", scope: !1647, file: !1645, line: 115, type: !1747, scopeLine: 115, flags: DIFlagPrototyped | DIFlagStaticMember, spFlags: 0)
!1753 = !{!1739, !1754}
!1754 = !DITemplateTypeParameter(type: !107)
!1755 = !{!1756}
!1756 = !DITemplateTypeParameter(name: "_Tp", type: !559)
!1757 = !DIDerivedType(tag: DW_TAG_typedef, name: "rebind_alloc<unsigned long>", scope: !1650, file: !1651, line: 446, baseType: !1758)
!1758 = distinct !DICompositeType(tag: DW_TAG_class_type, name: "allocator<unsigned long>", scope: !97, file: !1661, line: 116, size: 8, flags: DIFlagTypePassByReference | DIFlagNonTrivial, elements: !1759, templateParams: !1755, identifier: "_ZTSSaImE")
!1759 = !{!1760, !1800, !1804, !1809, !1813}
!1760 = !DIDerivedType(tag: DW_TAG_inheritance, scope: !1758, baseType: !1761, flags: DIFlagPublic, extraData: i32 0)
!1761 = !DIDerivedType(tag: DW_TAG_typedef, name: "__allocator_base<unsigned long>", scope: !97, file: !1665, line: 48, baseType: !1762)
!1762 = distinct !DICompositeType(tag: DW_TAG_class_type, name: "new_allocator<unsigned long>", scope: !127, file: !1667, line: 55, size: 8, flags: DIFlagTypePassByReference | DIFlagNonTrivial, elements: !1763, templateParams: !1755, identifier: "_ZTSN9__gnu_cxx13new_allocatorImEE")
!1763 = !{!1764, !1768, !1773, !1774, !1782, !1790, !1793, !1796, !1799}
!1764 = !DISubprogram(name: "new_allocator", scope: !1762, file: !1667, line: 79, type: !1765, scopeLine: 79, flags: DIFlagPublic | DIFlagPrototyped, spFlags: 0)
!1765 = !DISubroutineType(types: !1766)
!1766 = !{null, !1767}
!1767 = !DIDerivedType(tag: DW_TAG_pointer_type, baseType: !1762, size: 64, flags: DIFlagArtificial | DIFlagObjectPointer)
!1768 = !DISubprogram(name: "new_allocator", scope: !1762, file: !1667, line: 82, type: !1769, scopeLine: 82, flags: DIFlagPublic | DIFlagPrototyped, spFlags: 0)
!1769 = !DISubroutineType(types: !1770)
!1770 = !{null, !1767, !1771}
!1771 = !DIDerivedType(tag: DW_TAG_reference_type, baseType: !1772, size: 64)
!1772 = !DIDerivedType(tag: DW_TAG_const_type, baseType: !1762)
!1773 = !DISubprogram(name: "~new_allocator", scope: !1762, file: !1667, line: 89, type: !1765, scopeLine: 89, flags: DIFlagPublic | DIFlagPrototyped, spFlags: 0)
!1774 = !DISubprogram(name: "address", linkageName: "_ZNK9__gnu_cxx13new_allocatorImE7addressERm", scope: !1762, file: !1667, line: 92, type: !1775, scopeLine: 92, flags: DIFlagPublic | DIFlagPrototyped, spFlags: 0)
!1775 = !DISubroutineType(types: !1776)
!1776 = !{!1777, !1779, !1780}
!1777 = !DIDerivedType(tag: DW_TAG_typedef, name: "pointer", scope: !1762, file: !1667, line: 62, baseType: !1778)
!1778 = !DIDerivedType(tag: DW_TAG_pointer_type, baseType: !559, size: 64)
!1779 = !DIDerivedType(tag: DW_TAG_pointer_type, baseType: !1772, size: 64, flags: DIFlagArtificial | DIFlagObjectPointer)
!1780 = !DIDerivedType(tag: DW_TAG_typedef, name: "reference", scope: !1762, file: !1667, line: 64, baseType: !1781)
!1781 = !DIDerivedType(tag: DW_TAG_reference_type, baseType: !559, size: 64)
!1782 = !DISubprogram(name: "address", linkageName: "_ZNK9__gnu_cxx13new_allocatorImE7addressERKm", scope: !1762, file: !1667, line: 96, type: !1783, scopeLine: 96, flags: DIFlagPublic | DIFlagPrototyped, spFlags: 0)
!1783 = !DISubroutineType(types: !1784)
!1784 = !{!1785, !1779, !1788}
!1785 = !DIDerivedType(tag: DW_TAG_typedef, name: "const_pointer", scope: !1762, file: !1667, line: 63, baseType: !1786)
!1786 = !DIDerivedType(tag: DW_TAG_pointer_type, baseType: !1787, size: 64)
!1787 = !DIDerivedType(tag: DW_TAG_const_type, baseType: !559)
!1788 = !DIDerivedType(tag: DW_TAG_typedef, name: "const_reference", scope: !1762, file: !1667, line: 65, baseType: !1789)
!1789 = !DIDerivedType(tag: DW_TAG_reference_type, baseType: !1787, size: 64)
!1790 = !DISubprogram(name: "allocate", linkageName: "_ZN9__gnu_cxx13new_allocatorImE8allocateEmPKv", scope: !1762, file: !1667, line: 103, type: !1791, scopeLine: 103, flags: DIFlagPublic | DIFlagPrototyped, spFlags: 0)
!1791 = !DISubroutineType(types: !1792)
!1792 = !{!1778, !1767, !1696, !1001}
!1793 = !DISubprogram(name: "deallocate", linkageName: "_ZN9__gnu_cxx13new_allocatorImE10deallocateEPmm", scope: !1762, file: !1667, line: 120, type: !1794, scopeLine: 120, flags: DIFlagPublic | DIFlagPrototyped, spFlags: 0)
!1794 = !DISubroutineType(types: !1795)
!1795 = !{null, !1767, !1778, !1696}
!1796 = !DISubprogram(name: "max_size", linkageName: "_ZNK9__gnu_cxx13new_allocatorImE8max_sizeEv", scope: !1762, file: !1667, line: 142, type: !1797, scopeLine: 142, flags: DIFlagPublic | DIFlagPrototyped, spFlags: 0)
!1797 = !DISubroutineType(types: !1798)
!1798 = !{!1696, !1779}
!1799 = !DISubprogram(name: "_M_max_size", linkageName: "_ZNK9__gnu_cxx13new_allocatorImE11_M_max_sizeEv", scope: !1762, file: !1667, line: 185, type: !1797, scopeLine: 185, flags: DIFlagPrototyped, spFlags: 0)
!1800 = !DISubprogram(name: "allocator", scope: !1758, file: !1661, line: 144, type: !1801, scopeLine: 144, flags: DIFlagPublic | DIFlagPrototyped, spFlags: 0)
!1801 = !DISubroutineType(types: !1802)
!1802 = !{null, !1803}
!1803 = !DIDerivedType(tag: DW_TAG_pointer_type, baseType: !1758, size: 64, flags: DIFlagArtificial | DIFlagObjectPointer)
!1804 = !DISubprogram(name: "allocator", scope: !1758, file: !1661, line: 147, type: !1805, scopeLine: 147, flags: DIFlagPublic | DIFlagPrototyped, spFlags: 0)
!1805 = !DISubroutineType(types: !1806)
!1806 = !{null, !1803, !1807}
!1807 = !DIDerivedType(tag: DW_TAG_reference_type, baseType: !1808, size: 64)
!1808 = !DIDerivedType(tag: DW_TAG_const_type, baseType: !1758)
!1809 = !DISubprogram(name: "operator=", linkageName: "_ZNSaImEaSERKS_", scope: !1758, file: !1661, line: 152, type: !1810, scopeLine: 152, flags: DIFlagPublic | DIFlagPrototyped, spFlags: 0)
!1810 = !DISubroutineType(types: !1811)
!1811 = !{!1812, !1803, !1807}
!1812 = !DIDerivedType(tag: DW_TAG_reference_type, baseType: !1758, size: 64)
!1813 = !DISubprogram(name: "~allocator", scope: !1758, file: !1661, line: 162, type: !1801, scopeLine: 162, flags: DIFlagPublic | DIFlagPrototyped, spFlags: 0)
!1814 = !DIDerivedType(tag: DW_TAG_inheritance, scope: !1640, baseType: !1815, extraData: i32 0)
!1815 = distinct !DICompositeType(tag: DW_TAG_structure_type, name: "_Bvector_impl_data", scope: !1637, file: !134, line: 461, size: 320, flags: DIFlagTypePassByReference | DIFlagNonTrivial, elements: !1816, identifier: "_ZTSNSt13_Bvector_baseISaIbEE18_Bvector_impl_dataE")
!1816 = !{!1817, !1923, !1924, !1968, !1972, !1976, !1977}
!1817 = !DIDerivedType(tag: DW_TAG_member, name: "_M_start", scope: !1815, file: !134, line: 463, baseType: !1818, size: 128)
!1818 = distinct !DICompositeType(tag: DW_TAG_structure_type, name: "_Bit_iterator", scope: !97, file: !134, line: 231, size: 128, flags: DIFlagTypePassByValue | DIFlagNonTrivial, elements: !1819, identifier: "_ZTSSt13_Bit_iterator")
!1819 = !{!1820, !1857, !1861, !1864, !1870, !1906, !1910, !1913, !1914, !1915, !1919, !1920}
!1820 = !DIDerivedType(tag: DW_TAG_inheritance, scope: !1818, baseType: !1821, extraData: i32 0)
!1821 = distinct !DICompositeType(tag: DW_TAG_structure_type, name: "_Bit_iterator_base", scope: !97, file: !134, line: 142, size: 128, flags: DIFlagTypePassByValue | DIFlagNonTrivial, elements: !1822, identifier: "_ZTSSt18_Bit_iterator_base")
!1822 = !{!1823, !1841, !1844, !1845, !1849, !1852, !1853}
!1823 = !DIDerivedType(tag: DW_TAG_inheritance, scope: !1821, baseType: !1824, extraData: i32 0)
!1824 = distinct !DICompositeType(tag: DW_TAG_structure_type, name: "iterator<std::random_access_iterator_tag, bool, long, bool *, bool &>", scope: !97, file: !1825, line: 127, size: 8, flags: DIFlagTypePassByValue, elements: !1557, templateParams: !1826, identifier: "_ZTSSt8iteratorISt26random_access_iterator_tagblPbRbE")
!1825 = !DIFile(filename: "/usr/lib/gcc/x86_64-linux-gnu/10/../../../../include/c++/10/bits/stl_iterator_base_types.h", directory: "")
!1826 = !{!1827, !1706, !1838, !1839, !1840}
!1827 = !DITemplateTypeParameter(name: "_Category", type: !1828)
!1828 = distinct !DICompositeType(tag: DW_TAG_structure_type, name: "random_access_iterator_tag", scope: !97, file: !1825, line: 107, size: 8, flags: DIFlagTypePassByValue, elements: !1829, identifier: "_ZTSSt26random_access_iterator_tag")
!1829 = !{!1830}
!1830 = !DIDerivedType(tag: DW_TAG_inheritance, scope: !1828, baseType: !1831, extraData: i32 0)
!1831 = distinct !DICompositeType(tag: DW_TAG_structure_type, name: "bidirectional_iterator_tag", scope: !97, file: !1825, line: 103, size: 8, flags: DIFlagTypePassByValue, elements: !1832, identifier: "_ZTSSt26bidirectional_iterator_tag")
!1832 = !{!1833}
!1833 = !DIDerivedType(tag: DW_TAG_inheritance, scope: !1831, baseType: !1834, extraData: i32 0)
!1834 = distinct !DICompositeType(tag: DW_TAG_structure_type, name: "forward_iterator_tag", scope: !97, file: !1825, line: 99, size: 8, flags: DIFlagTypePassByValue, elements: !1835, identifier: "_ZTSSt20forward_iterator_tag")
!1835 = !{!1836}
!1836 = !DIDerivedType(tag: DW_TAG_inheritance, scope: !1834, baseType: !1837, extraData: i32 0)
!1837 = distinct !DICompositeType(tag: DW_TAG_structure_type, name: "input_iterator_tag", scope: !97, file: !1825, line: 93, size: 8, flags: DIFlagTypePassByValue, elements: !1557, identifier: "_ZTSSt18input_iterator_tag")
!1838 = !DITemplateTypeParameter(name: "_Distance", type: !369)
!1839 = !DITemplateTypeParameter(name: "_Pointer", type: !1657)
!1840 = !DITemplateTypeParameter(name: "_Reference", type: !1685)
!1841 = !DIDerivedType(tag: DW_TAG_member, name: "_M_p", scope: !1821, file: !134, line: 145, baseType: !1842, size: 64)
!1842 = !DIDerivedType(tag: DW_TAG_pointer_type, baseType: !1843, size: 64)
!1843 = !DIDerivedType(tag: DW_TAG_typedef, name: "_Bit_type", scope: !97, file: !134, line: 69, baseType: !559)
!1844 = !DIDerivedType(tag: DW_TAG_member, name: "_M_offset", scope: !1821, file: !134, line: 146, baseType: !128, size: 32, offset: 64)
!1845 = !DISubprogram(name: "_Bit_iterator_base", scope: !1821, file: !134, line: 148, type: !1846, scopeLine: 148, flags: DIFlagPrototyped, spFlags: 0)
!1846 = !DISubroutineType(types: !1847)
!1847 = !{null, !1848, !1842, !128}
!1848 = !DIDerivedType(tag: DW_TAG_pointer_type, baseType: !1821, size: 64, flags: DIFlagArtificial | DIFlagObjectPointer)
!1849 = !DISubprogram(name: "_M_bump_up", linkageName: "_ZNSt18_Bit_iterator_base10_M_bump_upEv", scope: !1821, file: !134, line: 152, type: !1850, scopeLine: 152, flags: DIFlagPrototyped, spFlags: 0)
!1850 = !DISubroutineType(types: !1851)
!1851 = !{null, !1848}
!1852 = !DISubprogram(name: "_M_bump_down", linkageName: "_ZNSt18_Bit_iterator_base12_M_bump_downEv", scope: !1821, file: !134, line: 162, type: !1850, scopeLine: 162, flags: DIFlagPrototyped, spFlags: 0)
!1853 = !DISubprogram(name: "_M_incr", linkageName: "_ZNSt18_Bit_iterator_base7_M_incrEl", scope: !1821, file: !134, line: 172, type: !1854, scopeLine: 172, flags: DIFlagPrototyped, spFlags: 0)
!1854 = !DISubroutineType(types: !1855)
!1855 = !{null, !1848, !1856}
!1856 = !DIDerivedType(tag: DW_TAG_typedef, name: "ptrdiff_t", scope: !97, file: !805, line: 261, baseType: !369)
!1857 = !DISubprogram(name: "_Bit_iterator", scope: !1818, file: !134, line: 241, type: !1858, scopeLine: 241, flags: DIFlagPrototyped, spFlags: 0)
!1858 = !DISubroutineType(types: !1859)
!1859 = !{null, !1860}
!1860 = !DIDerivedType(tag: DW_TAG_pointer_type, baseType: !1818, size: 64, flags: DIFlagArtificial | DIFlagObjectPointer)
!1861 = !DISubprogram(name: "_Bit_iterator", scope: !1818, file: !134, line: 243, type: !1862, scopeLine: 243, flags: DIFlagPrototyped, spFlags: 0)
!1862 = !DISubroutineType(types: !1863)
!1863 = !{null, !1860, !1842, !128}
!1864 = !DISubprogram(name: "_M_const_cast", linkageName: "_ZNKSt13_Bit_iterator13_M_const_castEv", scope: !1818, file: !134, line: 247, type: !1865, scopeLine: 247, flags: DIFlagPrototyped, spFlags: 0)
!1865 = !DISubroutineType(types: !1866)
!1866 = !{!1867, !1868}
!1867 = !DIDerivedType(tag: DW_TAG_typedef, name: "iterator", scope: !1818, file: !134, line: 239, baseType: !1818)
!1868 = !DIDerivedType(tag: DW_TAG_pointer_type, baseType: !1869, size: 64, flags: DIFlagArtificial | DIFlagObjectPointer)
!1869 = !DIDerivedType(tag: DW_TAG_const_type, baseType: !1818)
!1870 = !DISubprogram(name: "operator*", linkageName: "_ZNKSt13_Bit_iteratordeEv", scope: !1818, file: !134, line: 251, type: !1871, scopeLine: 251, flags: DIFlagPrototyped, spFlags: 0)
!1871 = !DISubroutineType(types: !1872)
!1872 = !{!1873, !1868}
!1873 = !DIDerivedType(tag: DW_TAG_typedef, name: "reference", scope: !1818, file: !134, line: 233, baseType: !1874)
!1874 = distinct !DICompositeType(tag: DW_TAG_structure_type, name: "_Bit_reference", scope: !97, file: !134, line: 72, size: 128, flags: DIFlagTypePassByValue | DIFlagNonTrivial, elements: !1875, identifier: "_ZTSSt14_Bit_reference")
!1875 = !{!1876, !1877, !1878, !1882, !1885, !1890, !1894, !1898, !1901, !1904, !1905}
!1876 = !DIDerivedType(tag: DW_TAG_member, name: "_M_p", scope: !1874, file: !134, line: 74, baseType: !1842, size: 64)
!1877 = !DIDerivedType(tag: DW_TAG_member, name: "_M_mask", scope: !1874, file: !134, line: 75, baseType: !1843, size: 64, offset: 64)
!1878 = !DISubprogram(name: "_Bit_reference", scope: !1874, file: !134, line: 77, type: !1879, scopeLine: 77, flags: DIFlagPrototyped, spFlags: 0)
!1879 = !DISubroutineType(types: !1880)
!1880 = !{null, !1881, !1842, !1843}
!1881 = !DIDerivedType(tag: DW_TAG_pointer_type, baseType: !1874, size: 64, flags: DIFlagArtificial | DIFlagObjectPointer)
!1882 = !DISubprogram(name: "_Bit_reference", scope: !1874, file: !134, line: 80, type: !1883, scopeLine: 80, flags: DIFlagPrototyped, spFlags: 0)
!1883 = !DISubroutineType(types: !1884)
!1884 = !{null, !1881}
!1885 = !DISubprogram(name: "_Bit_reference", scope: !1874, file: !134, line: 83, type: !1886, scopeLine: 83, flags: DIFlagPrototyped, spFlags: 0)
!1886 = !DISubroutineType(types: !1887)
!1887 = !{null, !1881, !1888}
!1888 = !DIDerivedType(tag: DW_TAG_reference_type, baseType: !1889, size: 64)
!1889 = !DIDerivedType(tag: DW_TAG_const_type, baseType: !1874)
!1890 = !DISubprogram(name: "operator bool", linkageName: "_ZNKSt14_Bit_referencecvbEv", scope: !1874, file: !134, line: 86, type: !1891, scopeLine: 86, flags: DIFlagPrototyped, spFlags: 0)
!1891 = !DISubroutineType(types: !1892)
!1892 = !{!107, !1893}
!1893 = !DIDerivedType(tag: DW_TAG_pointer_type, baseType: !1889, size: 64, flags: DIFlagArtificial | DIFlagObjectPointer)
!1894 = !DISubprogram(name: "operator=", linkageName: "_ZNSt14_Bit_referenceaSEb", scope: !1874, file: !134, line: 90, type: !1895, scopeLine: 90, flags: DIFlagPrototyped, spFlags: 0)
!1895 = !DISubroutineType(types: !1896)
!1896 = !{!1897, !1881, !107}
!1897 = !DIDerivedType(tag: DW_TAG_reference_type, baseType: !1874, size: 64)
!1898 = !DISubprogram(name: "operator=", linkageName: "_ZNSt14_Bit_referenceaSERKS_", scope: !1874, file: !134, line: 100, type: !1899, scopeLine: 100, flags: DIFlagPrototyped, spFlags: 0)
!1899 = !DISubroutineType(types: !1900)
!1900 = !{!1897, !1881, !1888}
!1901 = !DISubprogram(name: "operator==", linkageName: "_ZNKSt14_Bit_referenceeqERKS_", scope: !1874, file: !134, line: 104, type: !1902, scopeLine: 104, flags: DIFlagPrototyped, spFlags: 0)
!1902 = !DISubroutineType(types: !1903)
!1903 = !{!107, !1893, !1888}
!1904 = !DISubprogram(name: "operator<", linkageName: "_ZNKSt14_Bit_referenceltERKS_", scope: !1874, file: !134, line: 108, type: !1902, scopeLine: 108, flags: DIFlagPrototyped, spFlags: 0)
!1905 = !DISubprogram(name: "flip", linkageName: "_ZNSt14_Bit_reference4flipEv", scope: !1874, file: !134, line: 112, type: !1883, scopeLine: 112, flags: DIFlagPrototyped, spFlags: 0)
!1906 = !DISubprogram(name: "operator++", linkageName: "_ZNSt13_Bit_iteratorppEv", scope: !1818, file: !134, line: 255, type: !1907, scopeLine: 255, flags: DIFlagPrototyped, spFlags: 0)
!1907 = !DISubroutineType(types: !1908)
!1908 = !{!1909, !1860}
!1909 = !DIDerivedType(tag: DW_TAG_reference_type, baseType: !1867, size: 64)
!1910 = !DISubprogram(name: "operator++", linkageName: "_ZNSt13_Bit_iteratorppEi", scope: !1818, file: !134, line: 262, type: !1911, scopeLine: 262, flags: DIFlagPrototyped, spFlags: 0)
!1911 = !DISubroutineType(types: !1912)
!1912 = !{!1867, !1860, !14}
!1913 = !DISubprogram(name: "operator--", linkageName: "_ZNSt13_Bit_iteratormmEv", scope: !1818, file: !134, line: 270, type: !1907, scopeLine: 270, flags: DIFlagPrototyped, spFlags: 0)
!1914 = !DISubprogram(name: "operator--", linkageName: "_ZNSt13_Bit_iteratormmEi", scope: !1818, file: !134, line: 277, type: !1911, scopeLine: 277, flags: DIFlagPrototyped, spFlags: 0)
!1915 = !DISubprogram(name: "operator+=", linkageName: "_ZNSt13_Bit_iteratorpLEl", scope: !1818, file: !134, line: 285, type: !1916, scopeLine: 285, flags: DIFlagPrototyped, spFlags: 0)
!1916 = !DISubroutineType(types: !1917)
!1917 = !{!1909, !1860, !1918}
!1918 = !DIDerivedType(tag: DW_TAG_typedef, name: "difference_type", scope: !1824, file: !1825, line: 134, baseType: !369)
!1919 = !DISubprogram(name: "operator-=", linkageName: "_ZNSt13_Bit_iteratormIEl", scope: !1818, file: !134, line: 292, type: !1916, scopeLine: 292, flags: DIFlagPrototyped, spFlags: 0)
!1920 = !DISubprogram(name: "operator[]", linkageName: "_ZNKSt13_Bit_iteratorixEl", scope: !1818, file: !134, line: 299, type: !1921, scopeLine: 299, flags: DIFlagPrototyped, spFlags: 0)
!1921 = !DISubroutineType(types: !1922)
!1922 = !{!1873, !1868, !1918}
!1923 = !DIDerivedType(tag: DW_TAG_member, name: "_M_finish", scope: !1815, file: !134, line: 464, baseType: !1818, size: 128, offset: 128)
!1924 = !DIDerivedType(tag: DW_TAG_member, name: "_M_end_of_storage", scope: !1815, file: !134, line: 465, baseType: !1925, size: 64, offset: 256)
!1925 = !DIDerivedType(tag: DW_TAG_typedef, name: "_Bit_pointer", scope: !1637, file: !134, line: 459, baseType: !1926)
!1926 = !DIDerivedType(tag: DW_TAG_typedef, name: "pointer", scope: !1927, file: !1645, line: 57, baseType: !1935)
!1927 = distinct !DICompositeType(tag: DW_TAG_structure_type, name: "__alloc_traits<std::allocator<unsigned long>, unsigned long>", scope: !127, file: !1645, line: 48, size: 8, flags: DIFlagTypePassByValue, elements: !1928, templateParams: !1966, identifier: "_ZTSN9__gnu_cxx14__alloc_traitsISaImEmEE")
!1928 = !{!1929, !1955, !1958, !1961, !1962, !1963, !1964, !1965}
!1929 = !DIDerivedType(tag: DW_TAG_inheritance, scope: !1927, baseType: !1930, extraData: i32 0)
!1930 = distinct !DICompositeType(tag: DW_TAG_structure_type, name: "allocator_traits<std::allocator<unsigned long> >", scope: !97, file: !1651, line: 407, size: 8, flags: DIFlagTypePassByValue, elements: !1931, templateParams: !1953, identifier: "_ZTSSt16allocator_traitsISaImEE")
!1931 = !{!1932, !1938, !1941, !1944, !1950}
!1932 = !DISubprogram(name: "allocate", linkageName: "_ZNSt16allocator_traitsISaImEE8allocateERS0_m", scope: !1930, file: !1651, line: 459, type: !1933, scopeLine: 459, flags: DIFlagPrototyped | DIFlagStaticMember, spFlags: 0)
!1933 = !DISubroutineType(types: !1934)
!1934 = !{!1935, !1936, !1721}
!1935 = !DIDerivedType(tag: DW_TAG_typedef, name: "pointer", scope: !1930, file: !1651, line: 416, baseType: !1778)
!1936 = !DIDerivedType(tag: DW_TAG_reference_type, baseType: !1937, size: 64)
!1937 = !DIDerivedType(tag: DW_TAG_typedef, name: "allocator_type", scope: !1930, file: !1651, line: 410, baseType: !1758)
!1938 = !DISubprogram(name: "allocate", linkageName: "_ZNSt16allocator_traitsISaImEE8allocateERS0_mPKv", scope: !1930, file: !1651, line: 473, type: !1939, scopeLine: 473, flags: DIFlagPrototyped | DIFlagStaticMember, spFlags: 0)
!1939 = !DISubroutineType(types: !1940)
!1940 = !{!1935, !1936, !1721, !1725}
!1941 = !DISubprogram(name: "deallocate", linkageName: "_ZNSt16allocator_traitsISaImEE10deallocateERS0_Pmm", scope: !1930, file: !1651, line: 491, type: !1942, scopeLine: 491, flags: DIFlagPrototyped | DIFlagStaticMember, spFlags: 0)
!1942 = !DISubroutineType(types: !1943)
!1943 = !{null, !1936, !1935, !1721}
!1944 = !DISubprogram(name: "max_size", linkageName: "_ZNSt16allocator_traitsISaImEE8max_sizeERKS0_", scope: !1930, file: !1651, line: 543, type: !1945, scopeLine: 543, flags: DIFlagPrototyped | DIFlagStaticMember, spFlags: 0)
!1945 = !DISubroutineType(types: !1946)
!1946 = !{!1947, !1948}
!1947 = !DIDerivedType(tag: DW_TAG_typedef, name: "size_type", scope: !1930, file: !1651, line: 431, baseType: !1697)
!1948 = !DIDerivedType(tag: DW_TAG_reference_type, baseType: !1949, size: 64)
!1949 = !DIDerivedType(tag: DW_TAG_const_type, baseType: !1937)
!1950 = !DISubprogram(name: "select_on_container_copy_construction", linkageName: "_ZNSt16allocator_traitsISaImEE37select_on_container_copy_constructionERKS0_", scope: !1930, file: !1651, line: 558, type: !1951, scopeLine: 558, flags: DIFlagPrototyped | DIFlagStaticMember, spFlags: 0)
!1951 = !DISubroutineType(types: !1952)
!1952 = !{!1937, !1948}
!1953 = !{!1954}
!1954 = !DITemplateTypeParameter(name: "_Alloc", type: !1758)
!1955 = !DISubprogram(name: "_S_select_on_copy", linkageName: "_ZN9__gnu_cxx14__alloc_traitsISaImEmE17_S_select_on_copyERKS1_", scope: !1927, file: !1645, line: 97, type: !1956, scopeLine: 97, flags: DIFlagPrototyped | DIFlagStaticMember, spFlags: 0)
!1956 = !DISubroutineType(types: !1957)
!1957 = !{!1758, !1807}
!1958 = !DISubprogram(name: "_S_on_swap", linkageName: "_ZN9__gnu_cxx14__alloc_traitsISaImEmE10_S_on_swapERS1_S3_", scope: !1927, file: !1645, line: 100, type: !1959, scopeLine: 100, flags: DIFlagPrototyped | DIFlagStaticMember, spFlags: 0)
!1959 = !DISubroutineType(types: !1960)
!1960 = !{null, !1812, !1812}
!1961 = !DISubprogram(name: "_S_propagate_on_copy_assign", linkageName: "_ZN9__gnu_cxx14__alloc_traitsISaImEmE27_S_propagate_on_copy_assignEv", scope: !1927, file: !1645, line: 103, type: !1747, scopeLine: 103, flags: DIFlagPrototyped | DIFlagStaticMember, spFlags: 0)
!1962 = !DISubprogram(name: "_S_propagate_on_move_assign", linkageName: "_ZN9__gnu_cxx14__alloc_traitsISaImEmE27_S_propagate_on_move_assignEv", scope: !1927, file: !1645, line: 106, type: !1747, scopeLine: 106, flags: DIFlagPrototyped | DIFlagStaticMember, spFlags: 0)
!1963 = !DISubprogram(name: "_S_propagate_on_swap", linkageName: "_ZN9__gnu_cxx14__alloc_traitsISaImEmE20_S_propagate_on_swapEv", scope: !1927, file: !1645, line: 109, type: !1747, scopeLine: 109, flags: DIFlagPrototyped | DIFlagStaticMember, spFlags: 0)
!1964 = !DISubprogram(name: "_S_always_equal", linkageName: "_ZN9__gnu_cxx14__alloc_traitsISaImEmE15_S_always_equalEv", scope: !1927, file: !1645, line: 112, type: !1747, scopeLine: 112, flags: DIFlagPrototyped | DIFlagStaticMember, spFlags: 0)
!1965 = !DISubprogram(name: "_S_nothrow_move", linkageName: "_ZN9__gnu_cxx14__alloc_traitsISaImEmE15_S_nothrow_moveEv", scope: !1927, file: !1645, line: 115, type: !1747, scopeLine: 115, flags: DIFlagPrototyped | DIFlagStaticMember, spFlags: 0)
!1966 = !{!1954, !1967}
!1967 = !DITemplateTypeParameter(type: !559)
!1968 = !DISubprogram(name: "_Bvector_impl_data", scope: !1815, file: !134, line: 467, type: !1969, scopeLine: 467, flags: DIFlagPrototyped, spFlags: 0)
!1969 = !DISubroutineType(types: !1970)
!1970 = !{null, !1971}
!1971 = !DIDerivedType(tag: DW_TAG_pointer_type, baseType: !1815, size: 64, flags: DIFlagArtificial | DIFlagObjectPointer)
!1972 = !DISubprogram(name: "_Bvector_impl_data", scope: !1815, file: !134, line: 472, type: !1973, scopeLine: 472, flags: DIFlagPrototyped, spFlags: 0)
!1973 = !DISubroutineType(types: !1974)
!1974 = !{null, !1971, !1975}
!1975 = !DIDerivedType(tag: DW_TAG_rvalue_reference_type, baseType: !1815, size: 64)
!1976 = !DISubprogram(name: "_M_move_data", linkageName: "_ZNSt13_Bvector_baseISaIbEE18_Bvector_impl_data12_M_move_dataEOS2_", scope: !1815, file: !134, line: 478, type: !1973, scopeLine: 478, flags: DIFlagPrototyped, spFlags: 0)
!1977 = !DISubprogram(name: "_M_reset", linkageName: "_ZNSt13_Bvector_baseISaIbEE18_Bvector_impl_data8_M_resetEv", scope: !1815, file: !134, line: 488, type: !1969, scopeLine: 488, flags: DIFlagPrototyped, spFlags: 0)
!1978 = !DISubprogram(name: "_Bvector_impl", scope: !1640, file: !134, line: 499, type: !1979, scopeLine: 499, flags: DIFlagPrototyped, spFlags: 0)
!1979 = !DISubroutineType(types: !1980)
!1980 = !{null, !1981}
!1981 = !DIDerivedType(tag: DW_TAG_pointer_type, baseType: !1640, size: 64, flags: DIFlagArtificial | DIFlagObjectPointer)
!1982 = !DISubprogram(name: "_Bvector_impl", scope: !1640, file: !134, line: 504, type: !1983, scopeLine: 504, flags: DIFlagPrototyped, spFlags: 0)
!1983 = !DISubroutineType(types: !1984)
!1984 = !{null, !1981, !1985}
!1985 = !DIDerivedType(tag: DW_TAG_reference_type, baseType: !1986, size: 64)
!1986 = !DIDerivedType(tag: DW_TAG_const_type, baseType: !1643)
!1987 = !DISubprogram(name: "_Bvector_impl", scope: !1640, file: !134, line: 509, type: !1988, scopeLine: 509, flags: DIFlagPrototyped, spFlags: 0)
!1988 = !DISubroutineType(types: !1989)
!1989 = !{null, !1981, !1990}
!1990 = !DIDerivedType(tag: DW_TAG_rvalue_reference_type, baseType: !1640, size: 64)
!1991 = !DISubprogram(name: "_M_end_addr", linkageName: "_ZNKSt13_Bvector_baseISaIbEE13_Bvector_impl11_M_end_addrEv", scope: !1640, file: !134, line: 513, type: !1992, scopeLine: 513, flags: DIFlagPrototyped, spFlags: 0)
!1992 = !DISubroutineType(types: !1993)
!1993 = !{!1842, !1994}
!1994 = !DIDerivedType(tag: DW_TAG_pointer_type, baseType: !1995, size: 64, flags: DIFlagArtificial | DIFlagObjectPointer)
!1995 = !DIDerivedType(tag: DW_TAG_const_type, baseType: !1640)
!1996 = !DISubprogram(name: "_M_get_Bit_allocator", linkageName: "_ZNSt13_Bvector_baseISaIbEE20_M_get_Bit_allocatorEv", scope: !1637, file: !134, line: 525, type: !1997, scopeLine: 525, flags: DIFlagPrototyped, spFlags: 0)
!1997 = !DISubroutineType(types: !1998)
!1998 = !{!1999, !2000}
!1999 = !DIDerivedType(tag: DW_TAG_reference_type, baseType: !1643, size: 64)
!2000 = !DIDerivedType(tag: DW_TAG_pointer_type, baseType: !1637, size: 64, flags: DIFlagArtificial | DIFlagObjectPointer)
!2001 = !DISubprogram(name: "_M_get_Bit_allocator", linkageName: "_ZNKSt13_Bvector_baseISaIbEE20_M_get_Bit_allocatorEv", scope: !1637, file: !134, line: 529, type: !2002, scopeLine: 529, flags: DIFlagPrototyped, spFlags: 0)
!2002 = !DISubroutineType(types: !2003)
!2003 = !{!1985, !2004}
!2004 = !DIDerivedType(tag: DW_TAG_pointer_type, baseType: !2005, size: 64, flags: DIFlagArtificial | DIFlagObjectPointer)
!2005 = !DIDerivedType(tag: DW_TAG_const_type, baseType: !1637)
!2006 = !DISubprogram(name: "get_allocator", linkageName: "_ZNKSt13_Bvector_baseISaIbEE13get_allocatorEv", scope: !1637, file: !134, line: 533, type: !2007, scopeLine: 533, flags: DIFlagPrototyped, spFlags: 0)
!2007 = !DISubroutineType(types: !2008)
!2008 = !{!2009, !2004}
!2009 = !DIDerivedType(tag: DW_TAG_typedef, name: "allocator_type", scope: !1637, file: !134, line: 522, baseType: !1660)
!2010 = !DISubprogram(name: "_Bvector_base", scope: !1637, file: !134, line: 537, type: !2011, scopeLine: 537, flags: DIFlagPrototyped, spFlags: 0)
!2011 = !DISubroutineType(types: !2012)
!2012 = !{null, !2000}
!2013 = !DISubprogram(name: "_Bvector_base", scope: !1637, file: !134, line: 542, type: !2014, scopeLine: 542, flags: DIFlagPrototyped, spFlags: 0)
!2014 = !DISubroutineType(types: !2015)
!2015 = !{null, !2000, !2016}
!2016 = !DIDerivedType(tag: DW_TAG_reference_type, baseType: !2017, size: 64)
!2017 = !DIDerivedType(tag: DW_TAG_const_type, baseType: !2009)
!2018 = !DISubprogram(name: "_Bvector_base", scope: !1637, file: !134, line: 546, type: !2019, scopeLine: 546, flags: DIFlagPrototyped, spFlags: 0)
!2019 = !DISubroutineType(types: !2020)
!2020 = !{null, !2000, !2021}
!2021 = !DIDerivedType(tag: DW_TAG_rvalue_reference_type, baseType: !1637, size: 64)
!2022 = !DISubprogram(name: "~_Bvector_base", scope: !1637, file: !134, line: 549, type: !2011, scopeLine: 549, flags: DIFlagPrototyped, spFlags: 0)
!2023 = !DISubprogram(name: "_M_allocate", linkageName: "_ZNSt13_Bvector_baseISaIbEE11_M_allocateEm", scope: !1637, file: !134, line: 556, type: !2024, scopeLine: 556, flags: DIFlagProtected | DIFlagPrototyped, spFlags: 0)
!2024 = !DISubroutineType(types: !2025)
!2025 = !{!1925, !2000, !1697}
!2026 = !DISubprogram(name: "_M_deallocate", linkageName: "_ZNSt13_Bvector_baseISaIbEE13_M_deallocateEv", scope: !1637, file: !134, line: 560, type: !2011, scopeLine: 560, flags: DIFlagProtected | DIFlagPrototyped, spFlags: 0)
!2027 = !DISubprogram(name: "_M_move_data", linkageName: "_ZNSt13_Bvector_baseISaIbEE12_M_move_dataEOS1_", scope: !1637, file: !134, line: 574, type: !2019, scopeLine: 574, flags: DIFlagProtected | DIFlagPrototyped, spFlags: 0)
!2028 = !DISubprogram(name: "_S_nword", linkageName: "_ZNSt13_Bvector_baseISaIbEE8_S_nwordEm", scope: !1637, file: !134, line: 579, type: !2029, scopeLine: 579, flags: DIFlagProtected | DIFlagPrototyped | DIFlagStaticMember, spFlags: 0)
!2029 = !DISubroutineType(types: !2030)
!2030 = !{!1697, !1697}
!2031 = !DISubprogram(name: "get_allocator", linkageName: "_ZNKSt6vectorIbSaIbEE13get_allocatorEv", scope: !1634, file: !134, line: 640, type: !2032, scopeLine: 640, flags: DIFlagPublic | DIFlagPrototyped, spFlags: 0)
!2032 = !DISubroutineType(types: !2033)
!2033 = !{!2034, !2035}
!2034 = !DIDerivedType(tag: DW_TAG_typedef, name: "allocator_type", scope: !1634, file: !134, line: 637, baseType: !1660)
!2035 = !DIDerivedType(tag: DW_TAG_pointer_type, baseType: !1633, size: 64, flags: DIFlagArtificial | DIFlagObjectPointer)
!2036 = !DISubprogram(name: "vector", scope: !1634, file: !134, line: 651, type: !2037, scopeLine: 651, flags: DIFlagPublic | DIFlagPrototyped, spFlags: 0)
!2037 = !DISubroutineType(types: !2038)
!2038 = !{null, !2039}
!2039 = !DIDerivedType(tag: DW_TAG_pointer_type, baseType: !1634, size: 64, flags: DIFlagArtificial | DIFlagObjectPointer)
!2040 = !DISubprogram(name: "vector", scope: !1634, file: !134, line: 657, type: !2041, scopeLine: 657, flags: DIFlagPublic | DIFlagExplicit | DIFlagPrototyped, spFlags: 0)
!2041 = !DISubroutineType(types: !2042)
!2042 = !{null, !2039, !2043}
!2043 = !DIDerivedType(tag: DW_TAG_reference_type, baseType: !2044, size: 64)
!2044 = !DIDerivedType(tag: DW_TAG_const_type, baseType: !2034)
!2045 = !DISubprogram(name: "vector", scope: !1634, file: !134, line: 662, type: !2046, scopeLine: 662, flags: DIFlagPublic | DIFlagExplicit | DIFlagPrototyped, spFlags: 0)
!2046 = !DISubroutineType(types: !2047)
!2047 = !{null, !2039, !2048, !2043}
!2048 = !DIDerivedType(tag: DW_TAG_typedef, name: "size_type", file: !134, line: 627, baseType: !1697)
!2049 = !DISubprogram(name: "vector", scope: !1634, file: !134, line: 666, type: !2050, scopeLine: 666, flags: DIFlagPublic | DIFlagPrototyped, spFlags: 0)
!2050 = !DISubroutineType(types: !2051)
!2051 = !{null, !2039, !2048, !1692, !2043}
!2052 = !DISubprogram(name: "vector", scope: !1634, file: !134, line: 679, type: !2053, scopeLine: 679, flags: DIFlagPublic | DIFlagPrototyped, spFlags: 0)
!2053 = !DISubroutineType(types: !2054)
!2054 = !{null, !2039, !1632}
!2055 = !DISubprogram(name: "vector", scope: !1634, file: !134, line: 687, type: !2056, scopeLine: 687, flags: DIFlagPublic | DIFlagPrototyped, spFlags: 0)
!2056 = !DISubroutineType(types: !2057)
!2057 = !{null, !2039, !2058}
!2058 = !DIDerivedType(tag: DW_TAG_rvalue_reference_type, baseType: !1634, size: 64)
!2059 = !DISubprogram(name: "vector", scope: !1634, file: !134, line: 689, type: !2060, scopeLine: 689, flags: DIFlagPublic | DIFlagPrototyped, spFlags: 0)
!2060 = !DISubroutineType(types: !2061)
!2061 = !{null, !2039, !2058, !2043}
!2062 = !DISubprogram(name: "vector", scope: !1634, file: !134, line: 703, type: !2063, scopeLine: 703, flags: DIFlagPublic | DIFlagPrototyped, spFlags: 0)
!2063 = !DISubroutineType(types: !2064)
!2064 = !{null, !2039, !1632, !2043}
!2065 = !DISubprogram(name: "vector", scope: !1634, file: !134, line: 710, type: !2066, scopeLine: 710, flags: DIFlagPublic | DIFlagPrototyped, spFlags: 0)
!2066 = !DISubroutineType(types: !2067)
!2067 = !{null, !2039, !2068, !2043}
!2068 = distinct !DICompositeType(tag: DW_TAG_class_type, name: "initializer_list<bool>", scope: !97, file: !2069, line: 47, size: 128, flags: DIFlagTypePassByValue | DIFlagNonTrivial, elements: !2070, templateParams: !2092, identifier: "_ZTSSt16initializer_listIbE")
!2069 = !DIFile(filename: "/usr/lib/gcc/x86_64-linux-gnu/10/../../../../include/c++/10/initializer_list", directory: "")
!2070 = !{!2071, !2073, !2075, !2080, !2083, !2088, !2091}
!2071 = !DIDerivedType(tag: DW_TAG_member, name: "_M_array", scope: !2068, file: !2069, line: 58, baseType: !2072, size: 64)
!2072 = !DIDerivedType(tag: DW_TAG_typedef, name: "iterator", scope: !2068, file: !2069, line: 54, baseType: !1690)
!2073 = !DIDerivedType(tag: DW_TAG_member, name: "_M_len", scope: !2068, file: !2069, line: 59, baseType: !2074, size: 64, offset: 64)
!2074 = !DIDerivedType(tag: DW_TAG_typedef, name: "size_type", file: !2069, line: 53, baseType: !1697)
!2075 = !DISubprogram(name: "initializer_list", scope: !2068, file: !2069, line: 62, type: !2076, scopeLine: 62, flags: DIFlagPrototyped, spFlags: 0)
!2076 = !DISubroutineType(types: !2077)
!2077 = !{null, !2078, !2079, !2074}
!2078 = !DIDerivedType(tag: DW_TAG_pointer_type, baseType: !2068, size: 64, flags: DIFlagArtificial | DIFlagObjectPointer)
!2079 = !DIDerivedType(tag: DW_TAG_typedef, name: "const_iterator", scope: !2068, file: !2069, line: 55, baseType: !1690)
!2080 = !DISubprogram(name: "initializer_list", scope: !2068, file: !2069, line: 66, type: !2081, scopeLine: 66, flags: DIFlagPublic | DIFlagPrototyped, spFlags: 0)
!2081 = !DISubroutineType(types: !2082)
!2082 = !{null, !2078}
!2083 = !DISubprogram(name: "size", linkageName: "_ZNKSt16initializer_listIbE4sizeEv", scope: !2068, file: !2069, line: 71, type: !2084, scopeLine: 71, flags: DIFlagPublic | DIFlagPrototyped, spFlags: 0)
!2084 = !DISubroutineType(types: !2085)
!2085 = !{!2074, !2086}
!2086 = !DIDerivedType(tag: DW_TAG_pointer_type, baseType: !2087, size: 64, flags: DIFlagArtificial | DIFlagObjectPointer)
!2087 = !DIDerivedType(tag: DW_TAG_const_type, baseType: !2068)
!2088 = !DISubprogram(name: "begin", linkageName: "_ZNKSt16initializer_listIbE5beginEv", scope: !2068, file: !2069, line: 75, type: !2089, scopeLine: 75, flags: DIFlagPublic | DIFlagPrototyped, spFlags: 0)
!2089 = !DISubroutineType(types: !2090)
!2090 = !{!2079, !2086}
!2091 = !DISubprogram(name: "end", linkageName: "_ZNKSt16initializer_listIbE3endEv", scope: !2068, file: !2069, line: 79, type: !2089, scopeLine: 79, flags: DIFlagPublic | DIFlagPrototyped, spFlags: 0)
!2092 = !{!2093}
!2093 = !DITemplateTypeParameter(name: "_E", type: !107)
!2094 = !DISubprogram(name: "~vector", scope: !1634, file: !134, line: 737, type: !2037, scopeLine: 737, flags: DIFlagPublic | DIFlagPrototyped, spFlags: 0)
!2095 = !DISubprogram(name: "operator=", linkageName: "_ZNSt6vectorIbSaIbEEaSERKS1_", scope: !1634, file: !134, line: 740, type: !2096, scopeLine: 740, flags: DIFlagPublic | DIFlagPrototyped, spFlags: 0)
!2096 = !DISubroutineType(types: !2097)
!2097 = !{!2098, !2039, !1632}
!2098 = !DIDerivedType(tag: DW_TAG_reference_type, baseType: !1634, size: 64)
!2099 = !DISubprogram(name: "operator=", linkageName: "_ZNSt6vectorIbSaIbEEaSEOS1_", scope: !1634, file: !134, line: 771, type: !2100, scopeLine: 771, flags: DIFlagPublic | DIFlagPrototyped, spFlags: 0)
!2100 = !DISubroutineType(types: !2101)
!2101 = !{!2098, !2039, !2058}
!2102 = !DISubprogram(name: "operator=", linkageName: "_ZNSt6vectorIbSaIbEEaSESt16initializer_listIbE", scope: !1634, file: !134, line: 796, type: !2103, scopeLine: 796, flags: DIFlagPublic | DIFlagPrototyped, spFlags: 0)
!2103 = !DISubroutineType(types: !2104)
!2104 = !{!2098, !2039, !2068}
!2105 = !DISubprogram(name: "assign", linkageName: "_ZNSt6vectorIbSaIbEE6assignEmRKb", scope: !1634, file: !134, line: 808, type: !2106, scopeLine: 808, flags: DIFlagPublic | DIFlagPrototyped, spFlags: 0)
!2106 = !DISubroutineType(types: !2107)
!2107 = !{null, !2039, !2048, !1692}
!2108 = !DISubprogram(name: "assign", linkageName: "_ZNSt6vectorIbSaIbEE6assignESt16initializer_listIbE", scope: !1634, file: !134, line: 829, type: !2109, scopeLine: 829, flags: DIFlagPublic | DIFlagPrototyped, spFlags: 0)
!2109 = !DISubroutineType(types: !2110)
!2110 = !{null, !2039, !2068}
!2111 = !DISubprogram(name: "begin", linkageName: "_ZNSt6vectorIbSaIbEE5beginEv", scope: !1634, file: !134, line: 834, type: !2112, scopeLine: 834, flags: DIFlagPublic | DIFlagPrototyped, spFlags: 0)
!2112 = !DISubroutineType(types: !2113)
!2113 = !{!2114, !2039}
!2114 = !DIDerivedType(tag: DW_TAG_typedef, name: "iterator", file: !134, line: 633, baseType: !1818)
!2115 = !DISubprogram(name: "begin", linkageName: "_ZNKSt6vectorIbSaIbEE5beginEv", scope: !1634, file: !134, line: 838, type: !2116, scopeLine: 838, flags: DIFlagPublic | DIFlagPrototyped, spFlags: 0)
!2116 = !DISubroutineType(types: !2117)
!2117 = !{!2118, !2035}
!2118 = !DIDerivedType(tag: DW_TAG_typedef, name: "const_iterator", file: !134, line: 634, baseType: !2119)
!2119 = distinct !DICompositeType(tag: DW_TAG_structure_type, name: "_Bit_const_iterator", scope: !97, file: !134, line: 323, size: 128, flags: DIFlagTypePassByValue | DIFlagNonTrivial, elements: !2120, identifier: "_ZTSSt19_Bit_const_iterator")
!2120 = !{!2121, !2122, !2126, !2129, !2133, !2138, !2142, !2147, !2150, !2151, !2152, !2155, !2156}
!2121 = !DIDerivedType(tag: DW_TAG_inheritance, scope: !2119, baseType: !1821, extraData: i32 0)
!2122 = !DISubprogram(name: "_Bit_const_iterator", scope: !2119, file: !134, line: 334, type: !2123, scopeLine: 334, flags: DIFlagPrototyped, spFlags: 0)
!2123 = !DISubroutineType(types: !2124)
!2124 = !{null, !2125}
!2125 = !DIDerivedType(tag: DW_TAG_pointer_type, baseType: !2119, size: 64, flags: DIFlagArtificial | DIFlagObjectPointer)
!2126 = !DISubprogram(name: "_Bit_const_iterator", scope: !2119, file: !134, line: 336, type: !2127, scopeLine: 336, flags: DIFlagPrototyped, spFlags: 0)
!2127 = !DISubroutineType(types: !2128)
!2128 = !{null, !2125, !1842, !128}
!2129 = !DISubprogram(name: "_Bit_const_iterator", scope: !2119, file: !134, line: 339, type: !2130, scopeLine: 339, flags: DIFlagPrototyped, spFlags: 0)
!2130 = !DISubroutineType(types: !2131)
!2131 = !{null, !2125, !2132}
!2132 = !DIDerivedType(tag: DW_TAG_reference_type, baseType: !1869, size: 64)
!2133 = !DISubprogram(name: "_M_const_cast", linkageName: "_ZNKSt19_Bit_const_iterator13_M_const_castEv", scope: !2119, file: !134, line: 343, type: !2134, scopeLine: 343, flags: DIFlagPrototyped, spFlags: 0)
!2134 = !DISubroutineType(types: !2135)
!2135 = !{!1818, !2136}
!2136 = !DIDerivedType(tag: DW_TAG_pointer_type, baseType: !2137, size: 64, flags: DIFlagArtificial | DIFlagObjectPointer)
!2137 = !DIDerivedType(tag: DW_TAG_const_type, baseType: !2119)
!2138 = !DISubprogram(name: "operator*", linkageName: "_ZNKSt19_Bit_const_iteratordeEv", scope: !2119, file: !134, line: 347, type: !2139, scopeLine: 347, flags: DIFlagPrototyped, spFlags: 0)
!2139 = !DISubroutineType(types: !2140)
!2140 = !{!2141, !2136}
!2141 = !DIDerivedType(tag: DW_TAG_typedef, name: "const_reference", scope: !2119, file: !134, line: 326, baseType: !107)
!2142 = !DISubprogram(name: "operator++", linkageName: "_ZNSt19_Bit_const_iteratorppEv", scope: !2119, file: !134, line: 351, type: !2143, scopeLine: 351, flags: DIFlagPrototyped, spFlags: 0)
!2143 = !DISubroutineType(types: !2144)
!2144 = !{!2145, !2125}
!2145 = !DIDerivedType(tag: DW_TAG_reference_type, baseType: !2146, size: 64)
!2146 = !DIDerivedType(tag: DW_TAG_typedef, name: "const_iterator", scope: !2119, file: !134, line: 332, baseType: !2119)
!2147 = !DISubprogram(name: "operator++", linkageName: "_ZNSt19_Bit_const_iteratorppEi", scope: !2119, file: !134, line: 358, type: !2148, scopeLine: 358, flags: DIFlagPrototyped, spFlags: 0)
!2148 = !DISubroutineType(types: !2149)
!2149 = !{!2146, !2125, !14}
!2150 = !DISubprogram(name: "operator--", linkageName: "_ZNSt19_Bit_const_iteratormmEv", scope: !2119, file: !134, line: 366, type: !2143, scopeLine: 366, flags: DIFlagPrototyped, spFlags: 0)
!2151 = !DISubprogram(name: "operator--", linkageName: "_ZNSt19_Bit_const_iteratormmEi", scope: !2119, file: !134, line: 373, type: !2148, scopeLine: 373, flags: DIFlagPrototyped, spFlags: 0)
!2152 = !DISubprogram(name: "operator+=", linkageName: "_ZNSt19_Bit_const_iteratorpLEl", scope: !2119, file: !134, line: 381, type: !2153, scopeLine: 381, flags: DIFlagPrototyped, spFlags: 0)
!2153 = !DISubroutineType(types: !2154)
!2154 = !{!2145, !2125, !1918}
!2155 = !DISubprogram(name: "operator-=", linkageName: "_ZNSt19_Bit_const_iteratormIEl", scope: !2119, file: !134, line: 388, type: !2153, scopeLine: 388, flags: DIFlagPrototyped, spFlags: 0)
!2156 = !DISubprogram(name: "operator[]", linkageName: "_ZNKSt19_Bit_const_iteratorixEl", scope: !2119, file: !134, line: 395, type: !2157, scopeLine: 395, flags: DIFlagPrototyped, spFlags: 0)
!2157 = !DISubroutineType(types: !2158)
!2158 = !{!2141, !2136, !1918}
!2159 = !DISubprogram(name: "end", linkageName: "_ZNSt6vectorIbSaIbEE3endEv", scope: !1634, file: !134, line: 842, type: !2112, scopeLine: 842, flags: DIFlagPublic | DIFlagPrototyped, spFlags: 0)
!2160 = !DISubprogram(name: "end", linkageName: "_ZNKSt6vectorIbSaIbEE3endEv", scope: !1634, file: !134, line: 846, type: !2116, scopeLine: 846, flags: DIFlagPublic | DIFlagPrototyped, spFlags: 0)
!2161 = !DISubprogram(name: "rbegin", linkageName: "_ZNSt6vectorIbSaIbEE6rbeginEv", scope: !1634, file: !134, line: 850, type: !2162, scopeLine: 850, flags: DIFlagPublic | DIFlagPrototyped, spFlags: 0)
!2162 = !DISubroutineType(types: !2163)
!2163 = !{!2164, !2039}
!2164 = !DIDerivedType(tag: DW_TAG_typedef, name: "reverse_iterator", file: !134, line: 636, baseType: !2165)
!2165 = distinct !DICompositeType(tag: DW_TAG_class_type, name: "reverse_iterator<std::_Bit_iterator>", scope: !97, file: !2166, line: 125, size: 128, flags: DIFlagTypePassByReference | DIFlagNonTrivial, elements: !2167, templateParams: !2232, identifier: "_ZTSSt16reverse_iteratorISt13_Bit_iteratorE")
!2166 = !DIFile(filename: "/usr/lib/gcc/x86_64-linux-gnu/10/../../../../include/c++/10/bits/stl_iterator.h", directory: "")
!2167 = !{!2168, !2174, !2175, !2179, !2183, !2188, !2192, !2196, !2205, !2211, !2214, !2217, !2218, !2219, !2224, !2227, !2228, !2229}
!2168 = !DIDerivedType(tag: DW_TAG_inheritance, scope: !2165, baseType: !2169, flags: DIFlagPublic, extraData: i32 0)
!2169 = distinct !DICompositeType(tag: DW_TAG_structure_type, name: "iterator<std::random_access_iterator_tag, bool, long, std::_Bit_reference *, std::_Bit_reference>", scope: !97, file: !1825, line: 127, size: 8, flags: DIFlagTypePassByValue, elements: !1557, templateParams: !2170, identifier: "_ZTSSt8iteratorISt26random_access_iterator_tagblPSt14_Bit_referenceS1_E")
!2170 = !{!1827, !1706, !1838, !2171, !2173}
!2171 = !DITemplateTypeParameter(name: "_Pointer", type: !2172)
!2172 = !DIDerivedType(tag: DW_TAG_pointer_type, baseType: !1874, size: 64)
!2173 = !DITemplateTypeParameter(name: "_Reference", type: !1874)
!2174 = !DIDerivedType(tag: DW_TAG_member, name: "current", scope: !2165, file: !2166, line: 133, baseType: !1818, size: 128, flags: DIFlagProtected)
!2175 = !DISubprogram(name: "reverse_iterator", scope: !2165, file: !2166, line: 161, type: !2176, scopeLine: 161, flags: DIFlagPublic | DIFlagPrototyped, spFlags: 0)
!2176 = !DISubroutineType(types: !2177)
!2177 = !{null, !2178}
!2178 = !DIDerivedType(tag: DW_TAG_pointer_type, baseType: !2165, size: 64, flags: DIFlagArtificial | DIFlagObjectPointer)
!2179 = !DISubprogram(name: "reverse_iterator", scope: !2165, file: !2166, line: 167, type: !2180, scopeLine: 167, flags: DIFlagPublic | DIFlagExplicit | DIFlagPrototyped, spFlags: 0)
!2180 = !DISubroutineType(types: !2181)
!2181 = !{null, !2178, !2182}
!2182 = !DIDerivedType(tag: DW_TAG_typedef, name: "iterator_type", scope: !2165, file: !2166, line: 138, baseType: !1818)
!2183 = !DISubprogram(name: "reverse_iterator", scope: !2165, file: !2166, line: 173, type: !2184, scopeLine: 173, flags: DIFlagPublic | DIFlagPrototyped, spFlags: 0)
!2184 = !DISubroutineType(types: !2185)
!2185 = !{null, !2178, !2186}
!2186 = !DIDerivedType(tag: DW_TAG_reference_type, baseType: !2187, size: 64)
!2187 = !DIDerivedType(tag: DW_TAG_const_type, baseType: !2165)
!2188 = !DISubprogram(name: "operator=", linkageName: "_ZNSt16reverse_iteratorISt13_Bit_iteratorEaSERKS1_", scope: !2165, file: !2166, line: 177, type: !2189, scopeLine: 177, flags: DIFlagPublic | DIFlagPrototyped, spFlags: 0)
!2189 = !DISubroutineType(types: !2190)
!2190 = !{!2191, !2178, !2186}
!2191 = !DIDerivedType(tag: DW_TAG_reference_type, baseType: !2165, size: 64)
!2192 = !DISubprogram(name: "base", linkageName: "_ZNKSt16reverse_iteratorISt13_Bit_iteratorE4baseEv", scope: !2165, file: !2166, line: 193, type: !2193, scopeLine: 193, flags: DIFlagPublic | DIFlagPrototyped, spFlags: 0)
!2193 = !DISubroutineType(types: !2194)
!2194 = !{!2182, !2195}
!2195 = !DIDerivedType(tag: DW_TAG_pointer_type, baseType: !2187, size: 64, flags: DIFlagArtificial | DIFlagObjectPointer)
!2196 = !DISubprogram(name: "operator*", linkageName: "_ZNKSt16reverse_iteratorISt13_Bit_iteratorEdeEv", scope: !2165, file: !2166, line: 207, type: !2197, scopeLine: 207, flags: DIFlagPublic | DIFlagPrototyped, spFlags: 0)
!2197 = !DISubroutineType(types: !2198)
!2198 = !{!2199, !2195}
!2199 = !DIDerivedType(tag: DW_TAG_typedef, name: "reference", scope: !2165, file: !2166, line: 141, baseType: !2200)
!2200 = !DIDerivedType(tag: DW_TAG_typedef, name: "reference", scope: !2201, file: !1825, line: 172, baseType: !1873)
!2201 = distinct !DICompositeType(tag: DW_TAG_structure_type, name: "__iterator_traits<std::_Bit_iterator, void>", scope: !97, file: !1825, line: 161, size: 8, flags: DIFlagTypePassByValue, elements: !1557, templateParams: !2202, identifier: "_ZTSSt17__iterator_traitsISt13_Bit_iteratorvE")
!2202 = !{!2203, !2204}
!2203 = !DITemplateTypeParameter(name: "_Iterator", type: !1818)
!2204 = !DITemplateTypeParameter(type: null)
!2205 = !DISubprogram(name: "operator->", linkageName: "_ZNKSt16reverse_iteratorISt13_Bit_iteratorEptEv", scope: !2165, file: !2166, line: 219, type: !2206, scopeLine: 219, flags: DIFlagPublic | DIFlagPrototyped, spFlags: 0)
!2206 = !DISubroutineType(types: !2207)
!2207 = !{!2208, !2195}
!2208 = !DIDerivedType(tag: DW_TAG_typedef, name: "pointer", scope: !2165, file: !2166, line: 140, baseType: !2209)
!2209 = !DIDerivedType(tag: DW_TAG_typedef, name: "pointer", scope: !2201, file: !1825, line: 171, baseType: !2210)
!2210 = !DIDerivedType(tag: DW_TAG_typedef, name: "pointer", scope: !1818, file: !134, line: 237, baseType: !2172)
!2211 = !DISubprogram(name: "operator++", linkageName: "_ZNSt16reverse_iteratorISt13_Bit_iteratorEppEv", scope: !2165, file: !2166, line: 238, type: !2212, scopeLine: 238, flags: DIFlagPublic | DIFlagPrototyped, spFlags: 0)
!2212 = !DISubroutineType(types: !2213)
!2213 = !{!2191, !2178}
!2214 = !DISubprogram(name: "operator++", linkageName: "_ZNSt16reverse_iteratorISt13_Bit_iteratorEppEi", scope: !2165, file: !2166, line: 250, type: !2215, scopeLine: 250, flags: DIFlagPublic | DIFlagPrototyped, spFlags: 0)
!2215 = !DISubroutineType(types: !2216)
!2216 = !{!2165, !2178, !14}
!2217 = !DISubprogram(name: "operator--", linkageName: "_ZNSt16reverse_iteratorISt13_Bit_iteratorEmmEv", scope: !2165, file: !2166, line: 263, type: !2212, scopeLine: 263, flags: DIFlagPublic | DIFlagPrototyped, spFlags: 0)
!2218 = !DISubprogram(name: "operator--", linkageName: "_ZNSt16reverse_iteratorISt13_Bit_iteratorEmmEi", scope: !2165, file: !2166, line: 275, type: !2215, scopeLine: 275, flags: DIFlagPublic | DIFlagPrototyped, spFlags: 0)
!2219 = !DISubprogram(name: "operator+", linkageName: "_ZNKSt16reverse_iteratorISt13_Bit_iteratorEplEl", scope: !2165, file: !2166, line: 288, type: !2220, scopeLine: 288, flags: DIFlagPublic | DIFlagPrototyped, spFlags: 0)
!2220 = !DISubroutineType(types: !2221)
!2221 = !{!2165, !2195, !2222}
!2222 = !DIDerivedType(tag: DW_TAG_typedef, name: "difference_type", scope: !2165, file: !2166, line: 139, baseType: !2223)
!2223 = !DIDerivedType(tag: DW_TAG_typedef, name: "difference_type", scope: !2201, file: !1825, line: 170, baseType: !1918)
!2224 = !DISubprogram(name: "operator+=", linkageName: "_ZNSt16reverse_iteratorISt13_Bit_iteratorEpLEl", scope: !2165, file: !2166, line: 298, type: !2225, scopeLine: 298, flags: DIFlagPublic | DIFlagPrototyped, spFlags: 0)
!2225 = !DISubroutineType(types: !2226)
!2226 = !{!2191, !2178, !2222}
